ARM GAS  C:\Users\tmj32\AppData\Local\Temp\cczBJdSj.s 			page 1


   1              		.syntax unified
   2              		.cpu cortex-m0plus
   3              		.fpu softvfp
   4              		.eabi_attribute 20, 1
   5              		.eabi_attribute 21, 1
   6              		.eabi_attribute 23, 3
   7              		.eabi_attribute 24, 1
   8              		.eabi_attribute 25, 1
   9              		.eabi_attribute 26, 1
  10              		.eabi_attribute 30, 1
  11              		.eabi_attribute 34, 0
  12              		.eabi_attribute 18, 4
  13              		.thumb
  14              		.syntax unified
  15              		.file	"cy_sysclk.c"
  16              		.text
  17              	.Ltext0:
  18              		.cfi_sections	.debug_frame
  19              		.global	__aeabi_ui2f
  20              		.global	__aeabi_fdiv
  21              		.global	__aeabi_fadd
  22              		.global	__aeabi_f2d
  23              		.global	__aeabi_d2f
  24              		.global	__aeabi_fmul
  25              		.global	__aeabi_f2uiz
  26              		.global	__aeabi_fcmpge
  27              		.global	__aeabi_fcmplt
  28              		.global	__aeabi_fcmpgt
  29              		.section	.text.Cy_SysClk_EcoConfigure,"ax",%progbits
  30              		.align	2
  31              		.global	Cy_SysClk_EcoConfigure
  32              		.code	16
  33              		.thumb_func
  34              		.type	Cy_SysClk_EcoConfigure, %function
  35              	Cy_SysClk_EcoConfigure:
  36              	.LFB157:
  37              		.file 1 "Generated_Source\\PSoC6\\pdl\\drivers\\peripheral\\sysclk\\cy_sysclk.c"
   1:Generated_Source\PSoC6\pdl\drivers\peripheral\sysclk/cy_sysclk.c **** /***************************************************************************//**
   2:Generated_Source\PSoC6\pdl\drivers\peripheral\sysclk/cy_sysclk.c **** * \file cy_sysclk.c
   3:Generated_Source\PSoC6\pdl\drivers\peripheral\sysclk/cy_sysclk.c **** * \version 1.20
   4:Generated_Source\PSoC6\pdl\drivers\peripheral\sysclk/cy_sysclk.c **** *
   5:Generated_Source\PSoC6\pdl\drivers\peripheral\sysclk/cy_sysclk.c **** * Provides an API implementation of the sysclk driver.
   6:Generated_Source\PSoC6\pdl\drivers\peripheral\sysclk/cy_sysclk.c **** *
   7:Generated_Source\PSoC6\pdl\drivers\peripheral\sysclk/cy_sysclk.c **** ********************************************************************************
   8:Generated_Source\PSoC6\pdl\drivers\peripheral\sysclk/cy_sysclk.c **** * \copyright
   9:Generated_Source\PSoC6\pdl\drivers\peripheral\sysclk/cy_sysclk.c **** * Copyright 2016-2018, Cypress Semiconductor Corporation. All rights reserved.
  10:Generated_Source\PSoC6\pdl\drivers\peripheral\sysclk/cy_sysclk.c **** * You may use this file only in accordance with the license, terms, conditions,
  11:Generated_Source\PSoC6\pdl\drivers\peripheral\sysclk/cy_sysclk.c **** * disclaimers, and limitations in the end user license agreement accompanying
  12:Generated_Source\PSoC6\pdl\drivers\peripheral\sysclk/cy_sysclk.c **** * the software package with which this file was provided.
  13:Generated_Source\PSoC6\pdl\drivers\peripheral\sysclk/cy_sysclk.c **** *******************************************************************************/
  14:Generated_Source\PSoC6\pdl\drivers\peripheral\sysclk/cy_sysclk.c **** 
  15:Generated_Source\PSoC6\pdl\drivers\peripheral\sysclk/cy_sysclk.c **** 
  16:Generated_Source\PSoC6\pdl\drivers\peripheral\sysclk/cy_sysclk.c **** #include "cy_sysclk.h"
  17:Generated_Source\PSoC6\pdl\drivers\peripheral\sysclk/cy_sysclk.c **** #include "cy_syslib.h"
  18:Generated_Source\PSoC6\pdl\drivers\peripheral\sysclk/cy_sysclk.c **** #include "cy_ipc_drv.h"
  19:Generated_Source\PSoC6\pdl\drivers\peripheral\sysclk/cy_sysclk.c **** #include "cy_ipc_sema.h"
  20:Generated_Source\PSoC6\pdl\drivers\peripheral\sysclk/cy_sysclk.c **** #include "cy_ipc_pipe.h"
ARM GAS  C:\Users\tmj32\AppData\Local\Temp\cczBJdSj.s 			page 2


  21:Generated_Source\PSoC6\pdl\drivers\peripheral\sysclk/cy_sysclk.c **** #include <math.h>
  22:Generated_Source\PSoC6\pdl\drivers\peripheral\sysclk/cy_sysclk.c **** #include <stdlib.h>
  23:Generated_Source\PSoC6\pdl\drivers\peripheral\sysclk/cy_sysclk.c **** 
  24:Generated_Source\PSoC6\pdl\drivers\peripheral\sysclk/cy_sysclk.c **** 
  25:Generated_Source\PSoC6\pdl\drivers\peripheral\sysclk/cy_sysclk.c **** /* # of elements in an array */
  26:Generated_Source\PSoC6\pdl\drivers\peripheral\sysclk/cy_sysclk.c **** #define  CY_SYSCLK_N_ELMTS(a)  (sizeof(a) / sizeof((a)[0]))
  27:Generated_Source\PSoC6\pdl\drivers\peripheral\sysclk/cy_sysclk.c **** 
  28:Generated_Source\PSoC6\pdl\drivers\peripheral\sysclk/cy_sysclk.c **** /* ========================================================================== */
  29:Generated_Source\PSoC6\pdl\drivers\peripheral\sysclk/cy_sysclk.c **** /* ===========================    ECO SECTION    ============================ */
  30:Generated_Source\PSoC6\pdl\drivers\peripheral\sysclk/cy_sysclk.c **** /* ========================================================================== */
  31:Generated_Source\PSoC6\pdl\drivers\peripheral\sysclk/cy_sysclk.c **** /** \cond INTERNAL */
  32:Generated_Source\PSoC6\pdl\drivers\peripheral\sysclk/cy_sysclk.c **** #define CY_SYSCLK_TRIM_ECO_Pos  (SRSS_CLK_TRIM_ECO_CTL_WDTRIM_Pos)
  33:Generated_Source\PSoC6\pdl\drivers\peripheral\sysclk/cy_sysclk.c **** #define CY_SYSCLK_TRIM_ECO_Msk  (SRSS_CLK_TRIM_ECO_CTL_WDTRIM_Msk | \
  34:Generated_Source\PSoC6\pdl\drivers\peripheral\sysclk/cy_sysclk.c ****                                  SRSS_CLK_TRIM_ECO_CTL_ATRIM_Msk  | \
  35:Generated_Source\PSoC6\pdl\drivers\peripheral\sysclk/cy_sysclk.c ****                                  SRSS_CLK_TRIM_ECO_CTL_FTRIM_Msk  | \
  36:Generated_Source\PSoC6\pdl\drivers\peripheral\sysclk/cy_sysclk.c ****                                  SRSS_CLK_TRIM_ECO_CTL_RTRIM_Msk  | \
  37:Generated_Source\PSoC6\pdl\drivers\peripheral\sysclk/cy_sysclk.c ****                                  SRSS_CLK_TRIM_ECO_CTL_GTRIM_Msk)
  38:Generated_Source\PSoC6\pdl\drivers\peripheral\sysclk/cy_sysclk.c **** /** \endcond */
  39:Generated_Source\PSoC6\pdl\drivers\peripheral\sysclk/cy_sysclk.c **** /**
  40:Generated_Source\PSoC6\pdl\drivers\peripheral\sysclk/cy_sysclk.c **** * \addtogroup group_sysclk_eco_funcs
  41:Generated_Source\PSoC6\pdl\drivers\peripheral\sysclk/cy_sysclk.c **** * \{
  42:Generated_Source\PSoC6\pdl\drivers\peripheral\sysclk/cy_sysclk.c **** */
  43:Generated_Source\PSoC6\pdl\drivers\peripheral\sysclk/cy_sysclk.c **** /*******************************************************************************
  44:Generated_Source\PSoC6\pdl\drivers\peripheral\sysclk/cy_sysclk.c **** * Function Name: Cy_SysClk_EcoConfigure
  45:Generated_Source\PSoC6\pdl\drivers\peripheral\sysclk/cy_sysclk.c **** ****************************************************************************//**
  46:Generated_Source\PSoC6\pdl\drivers\peripheral\sysclk/cy_sysclk.c **** *
  47:Generated_Source\PSoC6\pdl\drivers\peripheral\sysclk/cy_sysclk.c **** * Configures the external crystal oscillator (ECO) trim bits based on crystal 
  48:Generated_Source\PSoC6\pdl\drivers\peripheral\sysclk/cy_sysclk.c **** * characteristics. This function should be called only when the ECO is disabled.
  49:Generated_Source\PSoC6\pdl\drivers\peripheral\sysclk/cy_sysclk.c **** *
  50:Generated_Source\PSoC6\pdl\drivers\peripheral\sysclk/cy_sysclk.c **** * \param freq Operating frequency of the crystal in Hz.
  51:Generated_Source\PSoC6\pdl\drivers\peripheral\sysclk/cy_sysclk.c **** *
  52:Generated_Source\PSoC6\pdl\drivers\peripheral\sysclk/cy_sysclk.c **** * \param cLoad Crystal load capacitance in pF.
  53:Generated_Source\PSoC6\pdl\drivers\peripheral\sysclk/cy_sysclk.c **** *
  54:Generated_Source\PSoC6\pdl\drivers\peripheral\sysclk/cy_sysclk.c **** * \param esr Effective series resistance of the crystal in ohms.
  55:Generated_Source\PSoC6\pdl\drivers\peripheral\sysclk/cy_sysclk.c **** *
  56:Generated_Source\PSoC6\pdl\drivers\peripheral\sysclk/cy_sysclk.c **** * \param driveLevel Crystal drive level in uW.
  57:Generated_Source\PSoC6\pdl\drivers\peripheral\sysclk/cy_sysclk.c **** *
  58:Generated_Source\PSoC6\pdl\drivers\peripheral\sysclk/cy_sysclk.c **** * \return Error / status code:<br>
  59:Generated_Source\PSoC6\pdl\drivers\peripheral\sysclk/cy_sysclk.c **** * CY_SYSCLK_SUCCESS - ECO configuration completed successfully<br>
  60:Generated_Source\PSoC6\pdl\drivers\peripheral\sysclk/cy_sysclk.c **** * CY_SYSCLK_BAD_PARAM - One or more invalid parameters<br>
  61:Generated_Source\PSoC6\pdl\drivers\peripheral\sysclk/cy_sysclk.c **** * CY_SYSCLK_INVALID_STATE - ECO already enabled
  62:Generated_Source\PSoC6\pdl\drivers\peripheral\sysclk/cy_sysclk.c **** *
  63:Generated_Source\PSoC6\pdl\drivers\peripheral\sysclk/cy_sysclk.c **** * \note
  64:Generated_Source\PSoC6\pdl\drivers\peripheral\sysclk/cy_sysclk.c **** * The following calculations are implemented, generally in floating point:
  65:Generated_Source\PSoC6\pdl\drivers\peripheral\sysclk/cy_sysclk.c **** *
  66:Generated_Source\PSoC6\pdl\drivers\peripheral\sysclk/cy_sysclk.c **** * \verbatim
  67:Generated_Source\PSoC6\pdl\drivers\peripheral\sysclk/cy_sysclk.c **** *   freqMHz = freq / 1000000
  68:Generated_Source\PSoC6\pdl\drivers\peripheral\sysclk/cy_sysclk.c **** *   max amplitude Vpp = 1000 * sqrt(drivelevel / 2 / esr) / 3.14 / freqMHz / cLoad
  69:Generated_Source\PSoC6\pdl\drivers\peripheral\sysclk/cy_sysclk.c **** *   gm_min mA/V = 5 * 4 * 3.14 * 3.14 * freqMhz^2 * cLoad^2 * 4 * esr / 1000000000
  70:Generated_Source\PSoC6\pdl\drivers\peripheral\sysclk/cy_sysclk.c **** *   Number of amplifier sections = INT(gm_min / 4.5)
  71:Generated_Source\PSoC6\pdl\drivers\peripheral\sysclk/cy_sysclk.c **** *
  72:Generated_Source\PSoC6\pdl\drivers\peripheral\sysclk/cy_sysclk.c **** *   As a result of the above calculations, max amplitude must be >= 0.5, and the
  73:Generated_Source\PSoC6\pdl\drivers\peripheral\sysclk/cy_sysclk.c **** *   number of amplifier sections must be <= 3, otherwise this function returns with
  74:Generated_Source\PSoC6\pdl\drivers\peripheral\sysclk/cy_sysclk.c **** *   a parameter error.
  75:Generated_Source\PSoC6\pdl\drivers\peripheral\sysclk/cy_sysclk.c **** *
  76:Generated_Source\PSoC6\pdl\drivers\peripheral\sysclk/cy_sysclk.c **** *   atrim = if (max amplitude < 0.5) then error
  77:Generated_Source\PSoC6\pdl\drivers\peripheral\sysclk/cy_sysclk.c **** *           else 2 * the following:
ARM GAS  C:\Users\tmj32\AppData\Local\Temp\cczBJdSj.s 			page 3


  78:Generated_Source\PSoC6\pdl\drivers\peripheral\sysclk/cy_sysclk.c **** *                    max amplitude < 0.6: 0
  79:Generated_Source\PSoC6\pdl\drivers\peripheral\sysclk/cy_sysclk.c **** *                    max amplitude < 0.7: 1
  80:Generated_Source\PSoC6\pdl\drivers\peripheral\sysclk/cy_sysclk.c **** *                    max amplitude < 0.8: 2
  81:Generated_Source\PSoC6\pdl\drivers\peripheral\sysclk/cy_sysclk.c **** *                    max amplitude < 0.9: 3
  82:Generated_Source\PSoC6\pdl\drivers\peripheral\sysclk/cy_sysclk.c **** *                    max amplitude < 1.15: 5
  83:Generated_Source\PSoC6\pdl\drivers\peripheral\sysclk/cy_sysclk.c **** *                    max amplitude < 1.275: 6
  84:Generated_Source\PSoC6\pdl\drivers\peripheral\sysclk/cy_sysclk.c **** *                    max amplitude >= 1.275: 7
  85:Generated_Source\PSoC6\pdl\drivers\peripheral\sysclk/cy_sysclk.c **** *   wdtrim = if (max amplitude < 0.5) then error
  86:Generated_Source\PSoC6\pdl\drivers\peripheral\sysclk/cy_sysclk.c **** *            else 2 * the following:
  87:Generated_Source\PSoC6\pdl\drivers\peripheral\sysclk/cy_sysclk.c **** *                     max amplitude < 1.2: INT(5 * max amplitude) - 2
  88:Generated_Source\PSoC6\pdl\drivers\peripheral\sysclk/cy_sysclk.c **** *                     max amplitude >= 1.2: 3
  89:Generated_Source\PSoC6\pdl\drivers\peripheral\sysclk/cy_sysclk.c **** *   gtrim = if (number of amplifier sections > 3) then error
  90:Generated_Source\PSoC6\pdl\drivers\peripheral\sysclk/cy_sysclk.c **** *           else the following:
  91:Generated_Source\PSoC6\pdl\drivers\peripheral\sysclk/cy_sysclk.c **** *                number of amplifier sections > 1: number of amplifier sections
  92:Generated_Source\PSoC6\pdl\drivers\peripheral\sysclk/cy_sysclk.c **** *                number of amplifier sections = 1: 0
  93:Generated_Source\PSoC6\pdl\drivers\peripheral\sysclk/cy_sysclk.c **** *                number of amplifier sections < 1: 1
  94:Generated_Source\PSoC6\pdl\drivers\peripheral\sysclk/cy_sysclk.c **** *   rtrim = if (gtrim = error) then error
  95:Generated_Source\PSoC6\pdl\drivers\peripheral\sysclk/cy_sysclk.c **** *           else the following:
  96:Generated_Source\PSoC6\pdl\drivers\peripheral\sysclk/cy_sysclk.c **** *                freqMHz > 26.8: 0
  97:Generated_Source\PSoC6\pdl\drivers\peripheral\sysclk/cy_sysclk.c **** *                freqMHz > 23.33: 1
  98:Generated_Source\PSoC6\pdl\drivers\peripheral\sysclk/cy_sysclk.c **** *                freqMHz > 16.5: 2
  99:Generated_Source\PSoC6\pdl\drivers\peripheral\sysclk/cy_sysclk.c **** *                freqMHz <= 16.5: 3
 100:Generated_Source\PSoC6\pdl\drivers\peripheral\sysclk/cy_sysclk.c **** *   ftrim = if (atrim = error) then error
 101:Generated_Source\PSoC6\pdl\drivers\peripheral\sysclk/cy_sysclk.c **** *           else INT(atrim / 2)
 102:Generated_Source\PSoC6\pdl\drivers\peripheral\sysclk/cy_sysclk.c **** * \endverbatim
 103:Generated_Source\PSoC6\pdl\drivers\peripheral\sysclk/cy_sysclk.c **** *
 104:Generated_Source\PSoC6\pdl\drivers\peripheral\sysclk/cy_sysclk.c **** *
 105:Generated_Source\PSoC6\pdl\drivers\peripheral\sysclk/cy_sysclk.c **** * \funcusage
 106:Generated_Source\PSoC6\pdl\drivers\peripheral\sysclk/cy_sysclk.c **** * \snippet sysclk/1.20/snippet/main.c snippet_Cy_SysClk_EcoConfigure
 107:Generated_Source\PSoC6\pdl\drivers\peripheral\sysclk/cy_sysclk.c **** *
 108:Generated_Source\PSoC6\pdl\drivers\peripheral\sysclk/cy_sysclk.c **** *******************************************************************************/
 109:Generated_Source\PSoC6\pdl\drivers\peripheral\sysclk/cy_sysclk.c **** cy_en_sysclk_status_t Cy_SysClk_EcoConfigure(uint32_t freq, uint32_t cLoad, uint32_t esr, uint32_t 
 110:Generated_Source\PSoC6\pdl\drivers\peripheral\sysclk/cy_sysclk.c **** {
  38              		.loc 1 110 0
  39              		.cfi_startproc
  40              		@ args = 0, pretend = 0, frame = 0
  41              		@ frame_needed = 0, uses_anonymous_args = 0
  42              	.LVL0:
  43 0000 F0B5     		push	{r4, r5, r6, r7, lr}
  44              		.cfi_def_cfa_offset 20
  45              		.cfi_offset 4, -20
  46              		.cfi_offset 5, -16
  47              		.cfi_offset 6, -12
  48              		.cfi_offset 7, -8
  49              		.cfi_offset 14, -4
  50 0002 4746     		mov	r7, r8
  51 0004 80B4     		push	{r7}
  52              		.cfi_def_cfa_offset 24
  53              		.cfi_offset 8, -24
  54 0006 0C00     		movs	r4, r1
  55 0008 1500     		movs	r5, r2
  56 000a 1E00     		movs	r6, r3
  57              	.LVL1:
 111:Generated_Source\PSoC6\pdl\drivers\peripheral\sysclk/cy_sysclk.c ****     /* error if ECO is not disabled - any of the 3 enable bits are set */
 112:Generated_Source\PSoC6\pdl\drivers\peripheral\sysclk/cy_sysclk.c ****     cy_en_sysclk_status_t retVal = CY_SYSCLK_INVALID_STATE;
 113:Generated_Source\PSoC6\pdl\drivers\peripheral\sysclk/cy_sysclk.c ****     if (0UL == (SRSS_CLK_ECO_CONFIG_ECO_EN_Msk & SRSS_CLK_ECO_CONFIG))
  58              		.loc 1 113 0
ARM GAS  C:\Users\tmj32\AppData\Local\Temp\cczBJdSj.s 			page 4


  59 000c 734B     		ldr	r3, .L32
  60              	.LVL2:
  61 000e 744A     		ldr	r2, .L32+4
  62              	.LVL3:
  63 0010 D358     		ldr	r3, [r2, r3]
  64 0012 002B     		cmp	r3, #0
  65 0014 00DA     		bge	.LCB29
  66 0016 D8E0     		b	.L11	@long jump
  67              	.LCB29:
  68              	.LBB27:
 114:Generated_Source\PSoC6\pdl\drivers\peripheral\sysclk/cy_sysclk.c ****     {
 115:Generated_Source\PSoC6\pdl\drivers\peripheral\sysclk/cy_sysclk.c ****         /* calculate intermediate values */
 116:Generated_Source\PSoC6\pdl\drivers\peripheral\sysclk/cy_sysclk.c ****         float32_t freqMHz = (float32_t)freq / 1000000.0f;
  69              		.loc 1 116 0
  70 0018 FFF7FEFF 		bl	__aeabi_ui2f
  71              	.LVL4:
  72 001c 7149     		ldr	r1, .L32+8
  73 001e FFF7FEFF 		bl	__aeabi_fdiv
  74              	.LVL5:
  75 0022 071C     		adds	r7, r0, #0
  76              	.LVL6:
 117:Generated_Source\PSoC6\pdl\drivers\peripheral\sysclk/cy_sysclk.c ****         float32_t maxAmplitude =
 118:Generated_Source\PSoC6\pdl\drivers\peripheral\sysclk/cy_sysclk.c ****             (1000.0f * ((float32_t)sqrt((float64_t)((float32_t)driveLevel / (2.0f * (float32_t)esr)
  77              		.loc 1 118 0
  78 0024 3000     		movs	r0, r6
  79              	.LVL7:
  80 0026 FFF7FEFF 		bl	__aeabi_ui2f
  81              	.LVL8:
  82 002a 061C     		adds	r6, r0, #0
  83              	.LVL9:
  84 002c 2800     		movs	r0, r5
  85 002e FFF7FEFF 		bl	__aeabi_ui2f
  86              	.LVL10:
  87 0032 011C     		adds	r1, r0, #0
  88 0034 FFF7FEFF 		bl	__aeabi_fadd
  89              	.LVL11:
  90 0038 011C     		adds	r1, r0, #0
  91 003a 301C     		adds	r0, r6, #0
  92 003c FFF7FEFF 		bl	__aeabi_fdiv
  93              	.LVL12:
  94 0040 051C     		adds	r5, r0, #0
  95              	.LVL13:
  96 0042 281C     		adds	r0, r5, #0
  97 0044 FFF7FEFF 		bl	__aeabi_f2d
  98              	.LVL14:
  99 0048 FFF7FEFF 		bl	sqrt
 100              	.LVL15:
 101 004c FFF7FEFF 		bl	__aeabi_d2f
 102              	.LVL16:
 103 0050 6549     		ldr	r1, .L32+12
 104 0052 FFF7FEFF 		bl	__aeabi_fmul
 105              	.LVL17:
 106 0056 051C     		adds	r5, r0, #0
 119:Generated_Source\PSoC6\pdl\drivers\peripheral\sysclk/cy_sysclk.c ****             (3.14f * freqMHz * (float32_t)cLoad);
 107              		.loc 1 119 0
 108 0058 6449     		ldr	r1, .L32+16
 109 005a 381C     		adds	r0, r7, #0
ARM GAS  C:\Users\tmj32\AppData\Local\Temp\cczBJdSj.s 			page 5


 110 005c FFF7FEFF 		bl	__aeabi_fmul
 111              	.LVL18:
 112 0060 061C     		adds	r6, r0, #0
 113 0062 2000     		movs	r0, r4
 114 0064 FFF7FEFF 		bl	__aeabi_ui2f
 115              	.LVL19:
 116 0068 041C     		adds	r4, r0, #0
 117              	.LVL20:
 118 006a 011C     		adds	r1, r0, #0
 119 006c 301C     		adds	r0, r6, #0
 120 006e FFF7FEFF 		bl	__aeabi_fmul
 121              	.LVL21:
 122 0072 011C     		adds	r1, r0, #0
 117:Generated_Source\PSoC6\pdl\drivers\peripheral\sysclk/cy_sysclk.c ****         float32_t maxAmplitude =
 123              		.loc 1 117 0
 124 0074 281C     		adds	r0, r5, #0
 125 0076 FFF7FEFF 		bl	__aeabi_fdiv
 126              	.LVL22:
 127 007a 051C     		adds	r5, r0, #0
 128              	.LVL23:
 120:Generated_Source\PSoC6\pdl\drivers\peripheral\sysclk/cy_sysclk.c ****         float32_t gm_min =
 121:Generated_Source\PSoC6\pdl\drivers\peripheral\sysclk/cy_sysclk.c ****             (788.8f /*5 * 4 * 3.14 * 3.14 * 4*/ * freqMHz * freqMHz * (float32_t)cLoad * (float32_t
 129              		.loc 1 121 0
 130 007c 5C49     		ldr	r1, .L32+20
 131 007e 381C     		adds	r0, r7, #0
 132              	.LVL24:
 133 0080 FFF7FEFF 		bl	__aeabi_fmul
 134              	.LVL25:
 135 0084 011C     		adds	r1, r0, #0
 136 0086 381C     		adds	r0, r7, #0
 137 0088 FFF7FEFF 		bl	__aeabi_fmul
 138              	.LVL26:
 139 008c 011C     		adds	r1, r0, #0
 140 008e 201C     		adds	r0, r4, #0
 141 0090 FFF7FEFF 		bl	__aeabi_fmul
 142              	.LVL27:
 143 0094 011C     		adds	r1, r0, #0
 144 0096 201C     		adds	r0, r4, #0
 145 0098 FFF7FEFF 		bl	__aeabi_fmul
 146              	.LVL28:
 120:Generated_Source\PSoC6\pdl\drivers\peripheral\sysclk/cy_sysclk.c ****         float32_t gm_min =
 147              		.loc 1 120 0
 148 009c 5549     		ldr	r1, .L32+24
 149 009e FFF7FEFF 		bl	__aeabi_fdiv
 150              	.LVL29:
 122:Generated_Source\PSoC6\pdl\drivers\peripheral\sysclk/cy_sysclk.c ****             1000000000.0f;
 123:Generated_Source\PSoC6\pdl\drivers\peripheral\sysclk/cy_sysclk.c ****         uint32_t nAmpSections = (uint32_t)(gm_min / 4.5f);
 151              		.loc 1 123 0
 152 00a2 5549     		ldr	r1, .L32+28
 153 00a4 FFF7FEFF 		bl	__aeabi_fdiv
 154              	.LVL30:
 155 00a8 FFF7FEFF 		bl	__aeabi_f2uiz
 156              	.LVL31:
 157 00ac 0400     		movs	r4, r0
 158              	.LVL32:
 124:Generated_Source\PSoC6\pdl\drivers\peripheral\sysclk/cy_sysclk.c **** 
 125:Generated_Source\PSoC6\pdl\drivers\peripheral\sysclk/cy_sysclk.c ****         /* Error if input parameters cause erroneous intermediate values. */
ARM GAS  C:\Users\tmj32\AppData\Local\Temp\cczBJdSj.s 			page 6


 126:Generated_Source\PSoC6\pdl\drivers\peripheral\sysclk/cy_sysclk.c ****         retVal = CY_SYSCLK_BAD_PARAM;
 127:Generated_Source\PSoC6\pdl\drivers\peripheral\sysclk/cy_sysclk.c ****         if ((maxAmplitude >= 0.5f) && (nAmpSections <= 3UL))
 159              		.loc 1 127 0
 160 00ae FC21     		movs	r1, #252
 161 00b0 8905     		lsls	r1, r1, #22
 162 00b2 281C     		adds	r0, r5, #0
 163              	.LVL33:
 164 00b4 FFF7FEFF 		bl	__aeabi_fcmpge
 165              	.LVL34:
 166 00b8 0028     		cmp	r0, #0
 167 00ba 00D1     		bne	.LCB126
 168 00bc 87E0     		b	.L28	@long jump
 169              	.LCB126:
 170              		.loc 1 127 0 is_stmt 0 discriminator 1
 171 00be 032C     		cmp	r4, #3
 172 00c0 00D9     		bls	.LCB128
 173 00c2 86E0     		b	.L13	@long jump
 174              	.LCB128:
 175              	.LBB28:
 128:Generated_Source\PSoC6\pdl\drivers\peripheral\sysclk/cy_sysclk.c ****         {
 129:Generated_Source\PSoC6\pdl\drivers\peripheral\sysclk/cy_sysclk.c ****             uint32_t atrim, wdtrim, gtrim, rtrim, ftrim, reg;
 130:Generated_Source\PSoC6\pdl\drivers\peripheral\sysclk/cy_sysclk.c **** 
 131:Generated_Source\PSoC6\pdl\drivers\peripheral\sysclk/cy_sysclk.c ****             atrim = 2UL * ((maxAmplitude < 0.6f) ? 0UL :
 176              		.loc 1 131 0 is_stmt 1
 177 00c4 4D49     		ldr	r1, .L32+32
 178 00c6 281C     		adds	r0, r5, #0
 179 00c8 FFF7FEFF 		bl	__aeabi_fcmplt
 180              	.LVL35:
 181 00cc 0028     		cmp	r0, #0
 182 00ce 20D1     		bne	.L14
 183              		.loc 1 131 0 is_stmt 0 discriminator 2
 184 00d0 4B49     		ldr	r1, .L32+36
 185 00d2 281C     		adds	r0, r5, #0
 186 00d4 FFF7FEFF 		bl	__aeabi_fcmplt
 187              	.LVL36:
 188 00d8 0028     		cmp	r0, #0
 189 00da 1DD1     		bne	.L15
 190              		.loc 1 131 0 discriminator 5
 191 00dc 4949     		ldr	r1, .L32+40
 192 00de 281C     		adds	r0, r5, #0
 193 00e0 FFF7FEFF 		bl	__aeabi_fcmplt
 194              	.LVL37:
 195 00e4 0028     		cmp	r0, #0
 196 00e6 1AD1     		bne	.L16
 197              		.loc 1 131 0 discriminator 8
 198 00e8 4749     		ldr	r1, .L32+44
 199 00ea 281C     		adds	r0, r5, #0
 200 00ec FFF7FEFF 		bl	__aeabi_fcmplt
 201              	.LVL38:
 202 00f0 0028     		cmp	r0, #0
 203 00f2 17D1     		bne	.L17
 204              		.loc 1 131 0 discriminator 11
 205 00f4 4549     		ldr	r1, .L32+48
 206 00f6 281C     		adds	r0, r5, #0
 207 00f8 FFF7FEFF 		bl	__aeabi_fcmplt
 208              	.LVL39:
 209 00fc 0028     		cmp	r0, #0
ARM GAS  C:\Users\tmj32\AppData\Local\Temp\cczBJdSj.s 			page 7


 210 00fe 14D1     		bne	.L18
 211              		.loc 1 131 0 discriminator 14
 212 0100 4349     		ldr	r1, .L32+52
 213 0102 281C     		adds	r0, r5, #0
 214 0104 FFF7FEFF 		bl	__aeabi_fcmplt
 215              	.LVL40:
 216 0108 0028     		cmp	r0, #0
 217 010a 11D0     		beq	.L29
 218              		.loc 1 131 0
 219 010c 0C23     		movs	r3, #12
 220 010e 9846     		mov	r8, r3
 221 0110 10E0     		b	.L4
 222              	.L14:
 223 0112 0023     		movs	r3, #0
 224 0114 9846     		mov	r8, r3
 225 0116 0DE0     		b	.L4
 226              	.L15:
 227 0118 0223     		movs	r3, #2
 228 011a 9846     		mov	r8, r3
 229 011c 0AE0     		b	.L4
 230              	.L16:
 231 011e 0423     		movs	r3, #4
 232 0120 9846     		mov	r8, r3
 233 0122 07E0     		b	.L4
 234              	.L17:
 235 0124 0623     		movs	r3, #6
 236 0126 9846     		mov	r8, r3
 237 0128 04E0     		b	.L4
 238              	.L18:
 239 012a 0A23     		movs	r3, #10
 240 012c 9846     		mov	r8, r3
 241 012e 01E0     		b	.L4
 242              	.L29:
 243 0130 0E23     		movs	r3, #14
 244 0132 9846     		mov	r8, r3
 245              	.L4:
 246              	.LVL41:
 132:Generated_Source\PSoC6\pdl\drivers\peripheral\sysclk/cy_sysclk.c ****                            ((maxAmplitude < 0.7f) ? 1UL :
 133:Generated_Source\PSoC6\pdl\drivers\peripheral\sysclk/cy_sysclk.c ****                             ((maxAmplitude < 0.8f) ? 2UL :
 134:Generated_Source\PSoC6\pdl\drivers\peripheral\sysclk/cy_sysclk.c ****                              ((maxAmplitude < 0.9f) ? 3UL :
 135:Generated_Source\PSoC6\pdl\drivers\peripheral\sysclk/cy_sysclk.c ****                               ((maxAmplitude < 1.15f) ? 5UL :
 136:Generated_Source\PSoC6\pdl\drivers\peripheral\sysclk/cy_sysclk.c ****                                ((maxAmplitude < 1.275f) ? 6UL : 7UL))))));
 137:Generated_Source\PSoC6\pdl\drivers\peripheral\sysclk/cy_sysclk.c **** 
 138:Generated_Source\PSoC6\pdl\drivers\peripheral\sysclk/cy_sysclk.c ****             wdtrim = 2UL * ((maxAmplitude < 1.2f) ? (uint32_t)(((uint32_t)(5.0f * maxAmplitude)) - 
 247              		.loc 1 138 0 is_stmt 1 discriminator 24
 248 0134 3749     		ldr	r1, .L32+56
 249 0136 281C     		adds	r0, r5, #0
 250 0138 FFF7FEFF 		bl	__aeabi_fcmplt
 251              	.LVL42:
 252 013c 0028     		cmp	r0, #0
 253 013e 09D0     		beq	.L30
 254              		.loc 1 138 0 is_stmt 0 discriminator 1
 255 0140 3549     		ldr	r1, .L32+60
 256 0142 281C     		adds	r0, r5, #0
 257 0144 FFF7FEFF 		bl	__aeabi_fmul
 258              	.LVL43:
 259 0148 FFF7FEFF 		bl	__aeabi_f2uiz
ARM GAS  C:\Users\tmj32\AppData\Local\Temp\cczBJdSj.s 			page 8


 260              	.LVL44:
 261 014c 334B     		ldr	r3, .L32+64
 262 014e C518     		adds	r5, r0, r3
 263              	.LVL45:
 264 0150 6D00     		lsls	r5, r5, #1
 265 0152 00E0     		b	.L6
 266              	.LVL46:
 267              	.L30:
 268              		.loc 1 138 0
 269 0154 0625     		movs	r5, #6
 270              	.LVL47:
 271              	.L6:
 139:Generated_Source\PSoC6\pdl\drivers\peripheral\sysclk/cy_sysclk.c **** 
 140:Generated_Source\PSoC6\pdl\drivers\peripheral\sysclk/cy_sysclk.c ****             gtrim = ((nAmpSections > 1UL) ? nAmpSections :
 272              		.loc 1 140 0 is_stmt 1 discriminator 4
 273 0156 012C     		cmp	r4, #1
 274 0158 03D8     		bhi	.L8
 141:Generated_Source\PSoC6\pdl\drivers\peripheral\sysclk/cy_sysclk.c ****                      ((nAmpSections == 1UL) ? 0UL : 1UL));
 275              		.loc 1 141 0 discriminator 1
 276 015a 013C     		subs	r4, r4, #1
 277              	.LVL48:
 278 015c 631E     		subs	r3, r4, #1
 279 015e 9C41     		sbcs	r4, r4, r3
 280              	.LVL49:
 281 0160 E4B2     		uxtb	r4, r4
 282              	.L8:
 283              	.LVL50:
 142:Generated_Source\PSoC6\pdl\drivers\peripheral\sysclk/cy_sysclk.c **** 
 143:Generated_Source\PSoC6\pdl\drivers\peripheral\sysclk/cy_sysclk.c ****             rtrim = ((freqMHz > 26.8f) ? 0UL :
 284              		.loc 1 143 0 discriminator 4
 285 0162 2F49     		ldr	r1, .L32+68
 286 0164 381C     		adds	r0, r7, #0
 287 0166 FFF7FEFF 		bl	__aeabi_fcmpgt
 288              	.LVL51:
 289 016a 0028     		cmp	r0, #0
 290 016c 0DD1     		bne	.L21
 144:Generated_Source\PSoC6\pdl\drivers\peripheral\sysclk/cy_sysclk.c ****                      ((freqMHz > 23.33f) ? 1UL :
 291              		.loc 1 144 0
 292 016e 2D49     		ldr	r1, .L32+72
 293 0170 381C     		adds	r0, r7, #0
 294 0172 FFF7FEFF 		bl	__aeabi_fcmpgt
 295              	.LVL52:
 296 0176 0028     		cmp	r0, #0
 297 0178 09D1     		bne	.L22
 145:Generated_Source\PSoC6\pdl\drivers\peripheral\sysclk/cy_sysclk.c ****                       ((freqMHz > 16.5f) ? 2UL : 3UL)));
 298              		.loc 1 145 0
 299 017a 2B49     		ldr	r1, .L32+76
 300 017c 381C     		adds	r0, r7, #0
 301 017e FFF7FEFF 		bl	__aeabi_fcmpgt
 302              	.LVL53:
 303 0182 0028     		cmp	r0, #0
 304 0184 05D0     		beq	.L31
 305 0186 0226     		movs	r6, #2
 306 0188 04E0     		b	.L9
 307              	.L21:
 143:Generated_Source\PSoC6\pdl\drivers\peripheral\sysclk/cy_sysclk.c ****                      ((freqMHz > 23.33f) ? 1UL :
 308              		.loc 1 143 0
ARM GAS  C:\Users\tmj32\AppData\Local\Temp\cczBJdSj.s 			page 9


 309 018a 0026     		movs	r6, #0
 310 018c 02E0     		b	.L9
 311              	.L22:
 144:Generated_Source\PSoC6\pdl\drivers\peripheral\sysclk/cy_sysclk.c ****                      ((freqMHz > 23.33f) ? 1UL :
 312              		.loc 1 144 0
 313 018e 0126     		movs	r6, #1
 314 0190 00E0     		b	.L9
 315              	.L31:
 316              		.loc 1 145 0
 317 0192 0326     		movs	r6, #3
 318              	.L9:
 319              	.LVL54:
 146:Generated_Source\PSoC6\pdl\drivers\peripheral\sysclk/cy_sysclk.c **** 
 147:Generated_Source\PSoC6\pdl\drivers\peripheral\sysclk/cy_sysclk.c ****             ftrim = atrim / 2UL;
 148:Generated_Source\PSoC6\pdl\drivers\peripheral\sysclk/cy_sysclk.c **** 
 149:Generated_Source\PSoC6\pdl\drivers\peripheral\sysclk/cy_sysclk.c ****             /* update all fields of trim control register with one write, without changing the ITRI
 150:Generated_Source\PSoC6\pdl\drivers\peripheral\sysclk/cy_sysclk.c ****             reg = _VAL2FLD(SRSS_CLK_TRIM_ECO_CTL_WDTRIM, wdtrim) |
 320              		.loc 1 150 0 discriminator 2
 321 0194 0723     		movs	r3, #7
 322 0196 2B40     		ands	r3, r5
 151:Generated_Source\PSoC6\pdl\drivers\peripheral\sysclk/cy_sysclk.c ****                   _VAL2FLD(SRSS_CLK_TRIM_ECO_CTL_ATRIM, atrim)   |
 323              		.loc 1 151 0 discriminator 2
 324 0198 4246     		mov	r2, r8
 325 019a 1201     		lsls	r2, r2, #4
 150:Generated_Source\PSoC6\pdl\drivers\peripheral\sysclk/cy_sysclk.c ****                   _VAL2FLD(SRSS_CLK_TRIM_ECO_CTL_ATRIM, atrim)   |
 326              		.loc 1 150 0 discriminator 2
 327 019c 1343     		orrs	r3, r2
 152:Generated_Source\PSoC6\pdl\drivers\peripheral\sysclk/cy_sysclk.c ****                   _VAL2FLD(SRSS_CLK_TRIM_ECO_CTL_FTRIM, ftrim)   |
 328              		.loc 1 152 0 discriminator 2
 329 019e 4246     		mov	r2, r8
 330 01a0 D201     		lsls	r2, r2, #7
 331 01a2 C021     		movs	r1, #192
 332 01a4 8900     		lsls	r1, r1, #2
 333 01a6 0A40     		ands	r2, r1
 151:Generated_Source\PSoC6\pdl\drivers\peripheral\sysclk/cy_sysclk.c ****                   _VAL2FLD(SRSS_CLK_TRIM_ECO_CTL_ATRIM, atrim)   |
 334              		.loc 1 151 0 discriminator 2
 335 01a8 1343     		orrs	r3, r2
 153:Generated_Source\PSoC6\pdl\drivers\peripheral\sysclk/cy_sysclk.c ****                   _VAL2FLD(SRSS_CLK_TRIM_ECO_CTL_RTRIM, rtrim)   |
 336              		.loc 1 153 0 discriminator 2
 337 01aa B202     		lsls	r2, r6, #10
 152:Generated_Source\PSoC6\pdl\drivers\peripheral\sysclk/cy_sysclk.c ****                   _VAL2FLD(SRSS_CLK_TRIM_ECO_CTL_FTRIM, ftrim)   |
 338              		.loc 1 152 0 discriminator 2
 339 01ac 1A43     		orrs	r2, r3
 154:Generated_Source\PSoC6\pdl\drivers\peripheral\sysclk/cy_sysclk.c ****                   _VAL2FLD(SRSS_CLK_TRIM_ECO_CTL_GTRIM, gtrim);
 340              		.loc 1 154 0 discriminator 2
 341 01ae 2403     		lsls	r4, r4, #12
 342              	.LVL55:
 343 01b0 C023     		movs	r3, #192
 344 01b2 9B01     		lsls	r3, r3, #6
 345 01b4 1C40     		ands	r4, r3
 346              	.LVL56:
 155:Generated_Source\PSoC6\pdl\drivers\peripheral\sysclk/cy_sysclk.c ****                   
 156:Generated_Source\PSoC6\pdl\drivers\peripheral\sysclk/cy_sysclk.c ****             CY_REG32_CLR_SET(SRSS_CLK_TRIM_ECO_CTL, CY_SYSCLK_TRIM_ECO, reg);
 347              		.loc 1 156 0 discriminator 2
 348 01b6 0A48     		ldr	r0, .L32+4
 349 01b8 1C49     		ldr	r1, .L32+80
 350 01ba 4558     		ldr	r5, [r0, r1]
ARM GAS  C:\Users\tmj32\AppData\Local\Temp\cczBJdSj.s 			page 10


 351              	.LVL57:
 352 01bc 1C4B     		ldr	r3, .L32+84
 353 01be 2B40     		ands	r3, r5
 354 01c0 1443     		orrs	r4, r2
 355              	.LVL58:
 356 01c2 1C43     		orrs	r4, r3
 357              	.LVL59:
 358 01c4 4450     		str	r4, [r0, r1]
 359              	.LVL60:
 157:Generated_Source\PSoC6\pdl\drivers\peripheral\sysclk/cy_sysclk.c **** 
 158:Generated_Source\PSoC6\pdl\drivers\peripheral\sysclk/cy_sysclk.c ****             retVal = CY_SYSCLK_SUCCESS;
 360              		.loc 1 158 0 discriminator 2
 361 01c6 0020     		movs	r0, #0
 362 01c8 04E0     		b	.L2
 363              	.LVL61:
 364              	.L11:
 365              	.LBE28:
 366              	.LBE27:
 112:Generated_Source\PSoC6\pdl\drivers\peripheral\sysclk/cy_sysclk.c ****     if (0UL == (SRSS_CLK_ECO_CONFIG_ECO_EN_Msk & SRSS_CLK_ECO_CONFIG))
 367              		.loc 1 112 0
 368 01ca 1A48     		ldr	r0, .L32+88
 369              	.LVL62:
 370 01cc 02E0     		b	.L2
 371              	.LVL63:
 372              	.L28:
 373              	.LBB29:
 126:Generated_Source\PSoC6\pdl\drivers\peripheral\sysclk/cy_sysclk.c ****         if ((maxAmplitude >= 0.5f) && (nAmpSections <= 3UL))
 374              		.loc 1 126 0
 375 01ce 1A48     		ldr	r0, .L32+92
 376 01d0 00E0     		b	.L2
 377              	.L13:
 378 01d2 1948     		ldr	r0, .L32+92
 379              	.LVL64:
 380              	.L2:
 381              	.LBE29:
 159:Generated_Source\PSoC6\pdl\drivers\peripheral\sysclk/cy_sysclk.c ****         } /* if valid parameters */
 160:Generated_Source\PSoC6\pdl\drivers\peripheral\sysclk/cy_sysclk.c ****     } /* if ECO not enabled */
 161:Generated_Source\PSoC6\pdl\drivers\peripheral\sysclk/cy_sysclk.c **** 
 162:Generated_Source\PSoC6\pdl\drivers\peripheral\sysclk/cy_sysclk.c ****     return (retVal);
 163:Generated_Source\PSoC6\pdl\drivers\peripheral\sysclk/cy_sysclk.c **** }
 382              		.loc 1 163 0
 383              		@ sp needed
 384 01d4 04BC     		pop	{r2}
 385 01d6 9046     		mov	r8, r2
 386 01d8 F0BD     		pop	{r4, r5, r6, r7, pc}
 387              	.L33:
 388 01da C046     		.align	2
 389              	.L32:
 390 01dc 2C050000 		.word	1324
 391 01e0 00002640 		.word	1076232192
 392 01e4 00247449 		.word	1232348160
 393 01e8 00007A44 		.word	1148846080
 394 01ec C3F54840 		.word	1078523331
 395 01f0 33334544 		.word	1145385779
 396 01f4 286B6E4E 		.word	1315859240
 397 01f8 00009040 		.word	1083179008
 398 01fc 9A99193F 		.word	1058642330
ARM GAS  C:\Users\tmj32\AppData\Local\Temp\cczBJdSj.s 			page 11


 399 0200 3333333F 		.word	1060320051
 400 0204 CDCC4C3F 		.word	1061997773
 401 0208 6666663F 		.word	1063675494
 402 020c 3333933F 		.word	1066611507
 403 0210 3333A33F 		.word	1067660083
 404 0214 9A99993F 		.word	1067030938
 405 0218 0000A040 		.word	1084227584
 406 021c FEFFFF7F 		.word	2147483646
 407 0220 6666D641 		.word	1104569958
 408 0224 D7A3BA41 		.word	1102750679
 409 0228 00008441 		.word	1099169792
 410 022c 20FF0000 		.word	65312
 411 0230 08C0FFFF 		.word	-16376
 412 0234 03004A00 		.word	4849667
 413 0238 01004A00 		.word	4849665
 414              		.cfi_endproc
 415              	.LFE157:
 416              		.size	Cy_SysClk_EcoConfigure, .-Cy_SysClk_EcoConfigure
 417              		.section	.text.Cy_SysClk_EcoEnable,"ax",%progbits
 418              		.align	2
 419              		.global	Cy_SysClk_EcoEnable
 420              		.code	16
 421              		.thumb_func
 422              		.type	Cy_SysClk_EcoEnable, %function
 423              	Cy_SysClk_EcoEnable:
 424              	.LFB158:
 164:Generated_Source\PSoC6\pdl\drivers\peripheral\sysclk/cy_sysclk.c **** 
 165:Generated_Source\PSoC6\pdl\drivers\peripheral\sysclk/cy_sysclk.c **** /*******************************************************************************
 166:Generated_Source\PSoC6\pdl\drivers\peripheral\sysclk/cy_sysclk.c **** * Function Name: Cy_SysClk_EcoEnable
 167:Generated_Source\PSoC6\pdl\drivers\peripheral\sysclk/cy_sysclk.c **** ****************************************************************************//**
 168:Generated_Source\PSoC6\pdl\drivers\peripheral\sysclk/cy_sysclk.c **** *
 169:Generated_Source\PSoC6\pdl\drivers\peripheral\sysclk/cy_sysclk.c **** * Enables the external crystal oscillator (ECO). This function should be called
 170:Generated_Source\PSoC6\pdl\drivers\peripheral\sysclk/cy_sysclk.c **** * after \ref Cy_SysClk_EcoConfigure.
 171:Generated_Source\PSoC6\pdl\drivers\peripheral\sysclk/cy_sysclk.c **** *
 172:Generated_Source\PSoC6\pdl\drivers\peripheral\sysclk/cy_sysclk.c **** * \param timeoutus Amount of time in microseconds to wait for the ECO to lock.
 173:Generated_Source\PSoC6\pdl\drivers\peripheral\sysclk/cy_sysclk.c **** * If a lock does not occur, the ECO is stopped. To avoid waiting for a lock, set
 174:Generated_Source\PSoC6\pdl\drivers\peripheral\sysclk/cy_sysclk.c **** * this parameter to 0.
 175:Generated_Source\PSoC6\pdl\drivers\peripheral\sysclk/cy_sysclk.c **** *
 176:Generated_Source\PSoC6\pdl\drivers\peripheral\sysclk/cy_sysclk.c **** * \return Error / status code:<br>
 177:Generated_Source\PSoC6\pdl\drivers\peripheral\sysclk/cy_sysclk.c **** * CY_SYSCLK_SUCCESS - ECO locked<br>
 178:Generated_Source\PSoC6\pdl\drivers\peripheral\sysclk/cy_sysclk.c **** * CY_SYSCLK_TIMEOUT - ECO timed out and did not lock
 179:Generated_Source\PSoC6\pdl\drivers\peripheral\sysclk/cy_sysclk.c **** * CY_SYSCLK_INVALID_STATE - ECO already enabled
 180:Generated_Source\PSoC6\pdl\drivers\peripheral\sysclk/cy_sysclk.c **** *
 181:Generated_Source\PSoC6\pdl\drivers\peripheral\sysclk/cy_sysclk.c **** * \note 
 182:Generated_Source\PSoC6\pdl\drivers\peripheral\sysclk/cy_sysclk.c **** * Call \ref SystemCoreClockUpdate after this function calling 
 183:Generated_Source\PSoC6\pdl\drivers\peripheral\sysclk/cy_sysclk.c **** * if it affects the CLK_HF0 frequency.
 184:Generated_Source\PSoC6\pdl\drivers\peripheral\sysclk/cy_sysclk.c **** *
 185:Generated_Source\PSoC6\pdl\drivers\peripheral\sysclk/cy_sysclk.c **** * \funcusage
 186:Generated_Source\PSoC6\pdl\drivers\peripheral\sysclk/cy_sysclk.c **** * \snippet sysclk/1.20/snippet/main.c snippet_Cy_SysClk_EcoEnable
 187:Generated_Source\PSoC6\pdl\drivers\peripheral\sysclk/cy_sysclk.c **** *
 188:Generated_Source\PSoC6\pdl\drivers\peripheral\sysclk/cy_sysclk.c **** *******************************************************************************/
 189:Generated_Source\PSoC6\pdl\drivers\peripheral\sysclk/cy_sysclk.c **** cy_en_sysclk_status_t Cy_SysClk_EcoEnable(uint32_t timeoutus)
 190:Generated_Source\PSoC6\pdl\drivers\peripheral\sysclk/cy_sysclk.c **** {
 425              		.loc 1 190 0
 426              		.cfi_startproc
 427              		@ args = 0, pretend = 0, frame = 0
 428              		@ frame_needed = 0, uses_anonymous_args = 0
ARM GAS  C:\Users\tmj32\AppData\Local\Temp\cczBJdSj.s 			page 12


 429              	.LVL65:
 430 0000 10B5     		push	{r4, lr}
 431              		.cfi_def_cfa_offset 8
 432              		.cfi_offset 4, -8
 433              		.cfi_offset 14, -4
 434 0002 0400     		movs	r4, r0
 435              	.LVL66:
 191:Generated_Source\PSoC6\pdl\drivers\peripheral\sysclk/cy_sysclk.c ****     cy_en_sysclk_status_t retVal = CY_SYSCLK_INVALID_STATE;
 192:Generated_Source\PSoC6\pdl\drivers\peripheral\sysclk/cy_sysclk.c **** 
 193:Generated_Source\PSoC6\pdl\drivers\peripheral\sysclk/cy_sysclk.c ****     /* invalid state error if ECO is already enabled */
 194:Generated_Source\PSoC6\pdl\drivers\peripheral\sysclk/cy_sysclk.c ****     if (0UL == (SRSS_CLK_ECO_CONFIG_ECO_EN_Msk & SRSS_CLK_ECO_CONFIG))
 436              		.loc 1 194 0
 437 0004 104B     		ldr	r3, .L41
 438 0006 114A     		ldr	r2, .L41+4
 439 0008 D358     		ldr	r3, [r2, r3]
 440 000a 002B     		cmp	r3, #0
 441 000c 17DB     		blt	.L39
 195:Generated_Source\PSoC6\pdl\drivers\peripheral\sysclk/cy_sysclk.c ****     {
 196:Generated_Source\PSoC6\pdl\drivers\peripheral\sysclk/cy_sysclk.c ****         /* first set ECO enable */
 197:Generated_Source\PSoC6\pdl\drivers\peripheral\sysclk/cy_sysclk.c ****         SRSS_CLK_ECO_CONFIG |= SRSS_CLK_ECO_CONFIG_ECO_EN_Msk;
 442              		.loc 1 197 0
 443 000e 1100     		movs	r1, r2
 444 0010 0D4A     		ldr	r2, .L41
 445 0012 8B58     		ldr	r3, [r1, r2]
 446 0014 8020     		movs	r0, #128
 447              	.LVL67:
 448 0016 0006     		lsls	r0, r0, #24
 449 0018 0343     		orrs	r3, r0
 450 001a 8B50     		str	r3, [r1, r2]
 198:Generated_Source\PSoC6\pdl\drivers\peripheral\sysclk/cy_sysclk.c **** 
 199:Generated_Source\PSoC6\pdl\drivers\peripheral\sysclk/cy_sysclk.c ****         /* now do the timeout wait for ECO_STATUS, bit ECO_OK */
 200:Generated_Source\PSoC6\pdl\drivers\peripheral\sysclk/cy_sysclk.c ****         for (; (0UL ==(SRSS_CLK_ECO_STATUS_ECO_READY_Msk & SRSS_CLK_ECO_STATUS)) && (0UL != timeout
 451              		.loc 1 200 0
 452 001c 03E0     		b	.L36
 453              	.L38:
 201:Generated_Source\PSoC6\pdl\drivers\peripheral\sysclk/cy_sysclk.c ****         {
 202:Generated_Source\PSoC6\pdl\drivers\peripheral\sysclk/cy_sysclk.c ****             Cy_SysLib_DelayUs(1U);
 454              		.loc 1 202 0 discriminator 3
 455 001e 0120     		movs	r0, #1
 456 0020 FFF7FEFF 		bl	Cy_SysLib_DelayUs
 457              	.LVL68:
 200:Generated_Source\PSoC6\pdl\drivers\peripheral\sysclk/cy_sysclk.c ****         {
 458              		.loc 1 200 0 discriminator 3
 459 0024 013C     		subs	r4, r4, #1
 460              	.LVL69:
 461              	.L36:
 200:Generated_Source\PSoC6\pdl\drivers\peripheral\sysclk/cy_sysclk.c ****         {
 462              		.loc 1 200 0 is_stmt 0 discriminator 1
 463 0026 A623     		movs	r3, #166
 464 0028 DB00     		lsls	r3, r3, #3
 465 002a 084A     		ldr	r2, .L41+4
 466 002c D358     		ldr	r3, [r2, r3]
 467 002e 9B07     		lsls	r3, r3, #30
 468 0030 01D4     		bmi	.L37
 200:Generated_Source\PSoC6\pdl\drivers\peripheral\sysclk/cy_sysclk.c ****         {
 469              		.loc 1 200 0 discriminator 2
 470 0032 002C     		cmp	r4, #0
ARM GAS  C:\Users\tmj32\AppData\Local\Temp\cczBJdSj.s 			page 13


 471 0034 F3D1     		bne	.L38
 472              	.L37:
 203:Generated_Source\PSoC6\pdl\drivers\peripheral\sysclk/cy_sysclk.c ****         }
 204:Generated_Source\PSoC6\pdl\drivers\peripheral\sysclk/cy_sysclk.c ****         retVal = ((timeoutus == 0UL) ? CY_SYSCLK_TIMEOUT : CY_SYSCLK_SUCCESS);
 473              		.loc 1 204 0 is_stmt 1
 474 0036 002C     		cmp	r4, #0
 475 0038 03D1     		bne	.L40
 476 003a 0548     		ldr	r0, .L41+8
 477 003c 02E0     		b	.L35
 478              	.LVL70:
 479              	.L39:
 191:Generated_Source\PSoC6\pdl\drivers\peripheral\sysclk/cy_sysclk.c **** 
 480              		.loc 1 191 0
 481 003e 0548     		ldr	r0, .L41+12
 482              	.LVL71:
 483 0040 00E0     		b	.L35
 484              	.L40:
 485              		.loc 1 204 0
 486 0042 0020     		movs	r0, #0
 487              	.L35:
 488              	.LVL72:
 205:Generated_Source\PSoC6\pdl\drivers\peripheral\sysclk/cy_sysclk.c ****     }
 206:Generated_Source\PSoC6\pdl\drivers\peripheral\sysclk/cy_sysclk.c ****     return (retVal);
 207:Generated_Source\PSoC6\pdl\drivers\peripheral\sysclk/cy_sysclk.c **** }
 489              		.loc 1 207 0
 490              		@ sp needed
 491              	.LVL73:
 492 0044 10BD     		pop	{r4, pc}
 493              	.L42:
 494 0046 C046     		.align	2
 495              	.L41:
 496 0048 2C050000 		.word	1324
 497 004c 00002640 		.word	1076232192
 498 0050 02004A00 		.word	4849666
 499 0054 03004A00 		.word	4849667
 500              		.cfi_endproc
 501              	.LFE158:
 502              		.size	Cy_SysClk_EcoEnable, .-Cy_SysClk_EcoEnable
 503              		.section	.text.Cy_SysClk_ClkPathSetSource,"ax",%progbits
 504              		.align	2
 505              		.global	Cy_SysClk_ClkPathSetSource
 506              		.code	16
 507              		.thumb_func
 508              		.type	Cy_SysClk_ClkPathSetSource, %function
 509              	Cy_SysClk_ClkPathSetSource:
 510              	.LFB159:
 208:Generated_Source\PSoC6\pdl\drivers\peripheral\sysclk/cy_sysclk.c **** /** \} group_sysclk_eco_funcs */
 209:Generated_Source\PSoC6\pdl\drivers\peripheral\sysclk/cy_sysclk.c **** 
 210:Generated_Source\PSoC6\pdl\drivers\peripheral\sysclk/cy_sysclk.c **** 
 211:Generated_Source\PSoC6\pdl\drivers\peripheral\sysclk/cy_sysclk.c **** /* ========================================================================== */
 212:Generated_Source\PSoC6\pdl\drivers\peripheral\sysclk/cy_sysclk.c **** /* ====================    INPUT MULTIPLEXER SECTION    ===================== */
 213:Generated_Source\PSoC6\pdl\drivers\peripheral\sysclk/cy_sysclk.c **** /* ========================================================================== */
 214:Generated_Source\PSoC6\pdl\drivers\peripheral\sysclk/cy_sysclk.c **** /**
 215:Generated_Source\PSoC6\pdl\drivers\peripheral\sysclk/cy_sysclk.c **** * \addtogroup group_sysclk_path_src_funcs
 216:Generated_Source\PSoC6\pdl\drivers\peripheral\sysclk/cy_sysclk.c **** * \{
 217:Generated_Source\PSoC6\pdl\drivers\peripheral\sysclk/cy_sysclk.c **** */
 218:Generated_Source\PSoC6\pdl\drivers\peripheral\sysclk/cy_sysclk.c **** /*******************************************************************************
ARM GAS  C:\Users\tmj32\AppData\Local\Temp\cczBJdSj.s 			page 14


 219:Generated_Source\PSoC6\pdl\drivers\peripheral\sysclk/cy_sysclk.c **** * Function Name: Cy_SysClk_ClkPathSetSource
 220:Generated_Source\PSoC6\pdl\drivers\peripheral\sysclk/cy_sysclk.c **** ****************************************************************************//**
 221:Generated_Source\PSoC6\pdl\drivers\peripheral\sysclk/cy_sysclk.c **** *
 222:Generated_Source\PSoC6\pdl\drivers\peripheral\sysclk/cy_sysclk.c **** * Configures the source for the specified clock path.
 223:Generated_Source\PSoC6\pdl\drivers\peripheral\sysclk/cy_sysclk.c **** *
 224:Generated_Source\PSoC6\pdl\drivers\peripheral\sysclk/cy_sysclk.c **** * \param clkPath Selects which clock path to configure; 0 is the first clock
 225:Generated_Source\PSoC6\pdl\drivers\peripheral\sysclk/cy_sysclk.c **** * path, which is the FLL.
 226:Generated_Source\PSoC6\pdl\drivers\peripheral\sysclk/cy_sysclk.c **** *
 227:Generated_Source\PSoC6\pdl\drivers\peripheral\sysclk/cy_sysclk.c **** * \param source \ref cy_en_clkpath_in_sources_t
 228:Generated_Source\PSoC6\pdl\drivers\peripheral\sysclk/cy_sysclk.c **** *
 229:Generated_Source\PSoC6\pdl\drivers\peripheral\sysclk/cy_sysclk.c **** * \return \ref cy_en_sysclk_status_t
 230:Generated_Source\PSoC6\pdl\drivers\peripheral\sysclk/cy_sysclk.c **** *
 231:Generated_Source\PSoC6\pdl\drivers\peripheral\sysclk/cy_sysclk.c **** * \note
 232:Generated_Source\PSoC6\pdl\drivers\peripheral\sysclk/cy_sysclk.c **** * If calling this function changes an FLL or PLL input frequency, disable the FLL
 233:Generated_Source\PSoC6\pdl\drivers\peripheral\sysclk/cy_sysclk.c **** * or PLL before calling this function. After calling this function, call the FLL
 234:Generated_Source\PSoC6\pdl\drivers\peripheral\sysclk/cy_sysclk.c **** * or PLL configure function, for example \ref Cy_SysClk_FllConfigure().
 235:Generated_Source\PSoC6\pdl\drivers\peripheral\sysclk/cy_sysclk.c **** *
 236:Generated_Source\PSoC6\pdl\drivers\peripheral\sysclk/cy_sysclk.c **** * \note
 237:Generated_Source\PSoC6\pdl\drivers\peripheral\sysclk/cy_sysclk.c **** * Call \ref SystemCoreClockUpdate after this function calling 
 238:Generated_Source\PSoC6\pdl\drivers\peripheral\sysclk/cy_sysclk.c **** * if it affects the CLK_HF0 frequency.
 239:Generated_Source\PSoC6\pdl\drivers\peripheral\sysclk/cy_sysclk.c **** *
 240:Generated_Source\PSoC6\pdl\drivers\peripheral\sysclk/cy_sysclk.c **** * \note
 241:Generated_Source\PSoC6\pdl\drivers\peripheral\sysclk/cy_sysclk.c **** * Call \ref Cy_SysLib_SetWaitStates before calling this function if
 242:Generated_Source\PSoC6\pdl\drivers\peripheral\sysclk/cy_sysclk.c **** * it affects the CLK_HF0 frequency and the frequency is increasing.
 243:Generated_Source\PSoC6\pdl\drivers\peripheral\sysclk/cy_sysclk.c **** *
 244:Generated_Source\PSoC6\pdl\drivers\peripheral\sysclk/cy_sysclk.c **** * \note
 245:Generated_Source\PSoC6\pdl\drivers\peripheral\sysclk/cy_sysclk.c **** * Call \ref Cy_SysLib_SetWaitStates after calling this function if
 246:Generated_Source\PSoC6\pdl\drivers\peripheral\sysclk/cy_sysclk.c **** * it affects the CLK_HF0 frequency and the frequency is decreasing.
 247:Generated_Source\PSoC6\pdl\drivers\peripheral\sysclk/cy_sysclk.c **** *
 248:Generated_Source\PSoC6\pdl\drivers\peripheral\sysclk/cy_sysclk.c **** * \funcusage
 249:Generated_Source\PSoC6\pdl\drivers\peripheral\sysclk/cy_sysclk.c **** * \snippet sysclk/1.20/snippet/main.c snippet_Cy_SysClk_ClkPathSetSource
 250:Generated_Source\PSoC6\pdl\drivers\peripheral\sysclk/cy_sysclk.c **** *
 251:Generated_Source\PSoC6\pdl\drivers\peripheral\sysclk/cy_sysclk.c **** *******************************************************************************/
 252:Generated_Source\PSoC6\pdl\drivers\peripheral\sysclk/cy_sysclk.c **** cy_en_sysclk_status_t Cy_SysClk_ClkPathSetSource(uint32_t clkPath, cy_en_clkpath_in_sources_t sourc
 253:Generated_Source\PSoC6\pdl\drivers\peripheral\sysclk/cy_sysclk.c **** {
 511              		.loc 1 253 0
 512              		.cfi_startproc
 513              		@ args = 0, pretend = 0, frame = 0
 514              		@ frame_needed = 0, uses_anonymous_args = 0
 515              		@ link register save eliminated.
 516              	.LVL74:
 254:Generated_Source\PSoC6\pdl\drivers\peripheral\sysclk/cy_sysclk.c ****     cy_en_sysclk_status_t retVal = CY_SYSCLK_BAD_PARAM;
 255:Generated_Source\PSoC6\pdl\drivers\peripheral\sysclk/cy_sysclk.c ****     if ((clkPath < CY_SRSS_NUM_CLKPATH) &&
 517              		.loc 1 255 0
 518 0000 134B     		ldr	r3, .L49
 519 0002 1A68     		ldr	r2, [r3]
 520 0004 3C23     		movs	r3, #60
 521 0006 D35C     		ldrb	r3, [r2, r3]
 522 0008 8342     		cmp	r3, r0
 523 000a 1DD9     		bls	.L47
 524              		.loc 1 255 0 is_stmt 0 discriminator 1
 525 000c 0429     		cmp	r1, #4
 526 000e 04D9     		bls	.L45
 256:Generated_Source\PSoC6\pdl\drivers\peripheral\sysclk/cy_sysclk.c ****         ((source <= CY_SYSCLK_CLKPATH_IN_DSIMUX) ||
 257:Generated_Source\PSoC6\pdl\drivers\peripheral\sysclk/cy_sysclk.c ****          ((CY_SYSCLK_CLKPATH_IN_DSI <= source) && (source <= CY_SYSCLK_CLKPATH_IN_PILO))))
 527              		.loc 1 257 0 is_stmt 1
 528 0010 4B1E     		subs	r3, r1, #1
ARM GAS  C:\Users\tmj32\AppData\Local\Temp\cczBJdSj.s 			page 15


 529 0012 FF3B     		subs	r3, r3, #255
 530 0014 9BB2     		uxth	r3, r3
 256:Generated_Source\PSoC6\pdl\drivers\peripheral\sysclk/cy_sysclk.c ****         ((source <= CY_SYSCLK_CLKPATH_IN_DSIMUX) ||
 531              		.loc 1 256 0
 532 0016 132B     		cmp	r3, #19
 533 0018 18D8     		bhi	.L48
 534              	.L45:
 258:Generated_Source\PSoC6\pdl\drivers\peripheral\sysclk/cy_sysclk.c ****     {
 259:Generated_Source\PSoC6\pdl\drivers\peripheral\sysclk/cy_sysclk.c ****         if (source >= CY_SYSCLK_CLKPATH_IN_DSI)
 535              		.loc 1 259 0
 536 001a FF29     		cmp	r1, #255
 537 001c 0CD9     		bls	.L46
 260:Generated_Source\PSoC6\pdl\drivers\peripheral\sysclk/cy_sysclk.c ****         {
 261:Generated_Source\PSoC6\pdl\drivers\peripheral\sysclk/cy_sysclk.c ****             SRSS_CLK_DSI_SELECT[clkPath] = _VAL2FLD(SRSS_CLK_DSI_SELECT_DSI_MUX, (uint32_t)source);
 538              		.loc 1 261 0
 539 001e 1F23     		movs	r3, #31
 540 0020 1940     		ands	r1, r3
 541              	.LVL75:
 542 0022 0C4A     		ldr	r2, .L49+4
 543 0024 0300     		movs	r3, r0
 544 0026 C033     		adds	r3, r3, #192
 545 0028 9B00     		lsls	r3, r3, #2
 546 002a 9950     		str	r1, [r3, r2]
 262:Generated_Source\PSoC6\pdl\drivers\peripheral\sysclk/cy_sysclk.c ****             SRSS_CLK_PATH_SELECT[clkPath] = _VAL2FLD(SRSS_CLK_PATH_SELECT_PATH_MUX, (uint32_t)CY_SY
 547              		.loc 1 262 0
 548 002c D030     		adds	r0, r0, #208
 549              	.LVL76:
 550 002e 8000     		lsls	r0, r0, #2
 551              	.LVL77:
 552 0030 0423     		movs	r3, #4
 553 0032 8350     		str	r3, [r0, r2]
 263:Generated_Source\PSoC6\pdl\drivers\peripheral\sysclk/cy_sysclk.c ****         }
 264:Generated_Source\PSoC6\pdl\drivers\peripheral\sysclk/cy_sysclk.c ****         else
 265:Generated_Source\PSoC6\pdl\drivers\peripheral\sysclk/cy_sysclk.c ****         {
 266:Generated_Source\PSoC6\pdl\drivers\peripheral\sysclk/cy_sysclk.c ****             SRSS_CLK_PATH_SELECT[clkPath] = _VAL2FLD(SRSS_CLK_PATH_SELECT_PATH_MUX, (uint32_t)sourc
 267:Generated_Source\PSoC6\pdl\drivers\peripheral\sysclk/cy_sysclk.c ****         }
 268:Generated_Source\PSoC6\pdl\drivers\peripheral\sysclk/cy_sysclk.c ****         retVal = CY_SYSCLK_SUCCESS;
 554              		.loc 1 268 0
 555 0034 0020     		movs	r0, #0
 556 0036 0AE0     		b	.L44
 557              	.LVL78:
 558              	.L46:
 266:Generated_Source\PSoC6\pdl\drivers\peripheral\sysclk/cy_sysclk.c ****         }
 559              		.loc 1 266 0
 560 0038 0723     		movs	r3, #7
 561 003a 1940     		ands	r1, r3
 562              	.LVL79:
 563 003c D030     		adds	r0, r0, #208
 564              	.LVL80:
 565 003e 8000     		lsls	r0, r0, #2
 566              	.LVL81:
 567 0040 044B     		ldr	r3, .L49+4
 568 0042 C150     		str	r1, [r0, r3]
 569              		.loc 1 268 0
 570 0044 0020     		movs	r0, #0
 571 0046 02E0     		b	.L44
 572              	.LVL82:
ARM GAS  C:\Users\tmj32\AppData\Local\Temp\cczBJdSj.s 			page 16


 573              	.L47:
 254:Generated_Source\PSoC6\pdl\drivers\peripheral\sysclk/cy_sysclk.c ****     if ((clkPath < CY_SRSS_NUM_CLKPATH) &&
 574              		.loc 1 254 0
 575 0048 0348     		ldr	r0, .L49+8
 576              	.LVL83:
 577 004a 00E0     		b	.L44
 578              	.LVL84:
 579              	.L48:
 580 004c 0248     		ldr	r0, .L49+8
 581              	.LVL85:
 582              	.L44:
 269:Generated_Source\PSoC6\pdl\drivers\peripheral\sysclk/cy_sysclk.c ****     }
 270:Generated_Source\PSoC6\pdl\drivers\peripheral\sysclk/cy_sysclk.c ****     return (retVal);
 271:Generated_Source\PSoC6\pdl\drivers\peripheral\sysclk/cy_sysclk.c **** }
 583              		.loc 1 271 0
 584              		@ sp needed
 585 004e 7047     		bx	lr
 586              	.L50:
 587              		.align	2
 588              	.L49:
 589 0050 00000000 		.word	cy_device
 590 0054 00002640 		.word	1076232192
 591 0058 01004A00 		.word	4849665
 592              		.cfi_endproc
 593              	.LFE159:
 594              		.size	Cy_SysClk_ClkPathSetSource, .-Cy_SysClk_ClkPathSetSource
 595              		.section	.text.Cy_SysClk_ClkPathGetSource,"ax",%progbits
 596              		.align	2
 597              		.global	Cy_SysClk_ClkPathGetSource
 598              		.code	16
 599              		.thumb_func
 600              		.type	Cy_SysClk_ClkPathGetSource, %function
 601              	Cy_SysClk_ClkPathGetSource:
 602              	.LFB160:
 272:Generated_Source\PSoC6\pdl\drivers\peripheral\sysclk/cy_sysclk.c **** 
 273:Generated_Source\PSoC6\pdl\drivers\peripheral\sysclk/cy_sysclk.c **** /*******************************************************************************
 274:Generated_Source\PSoC6\pdl\drivers\peripheral\sysclk/cy_sysclk.c **** * Function Name: Cy_SysClk_ClkPathGetSource
 275:Generated_Source\PSoC6\pdl\drivers\peripheral\sysclk/cy_sysclk.c **** ****************************************************************************//**
 276:Generated_Source\PSoC6\pdl\drivers\peripheral\sysclk/cy_sysclk.c **** *
 277:Generated_Source\PSoC6\pdl\drivers\peripheral\sysclk/cy_sysclk.c **** * Reports which source is selected for the path mux.
 278:Generated_Source\PSoC6\pdl\drivers\peripheral\sysclk/cy_sysclk.c **** *
 279:Generated_Source\PSoC6\pdl\drivers\peripheral\sysclk/cy_sysclk.c **** * \param clkPath Selects which clock path to report; 0 is the first clock path,
 280:Generated_Source\PSoC6\pdl\drivers\peripheral\sysclk/cy_sysclk.c **** * which is the FLL.
 281:Generated_Source\PSoC6\pdl\drivers\peripheral\sysclk/cy_sysclk.c **** *
 282:Generated_Source\PSoC6\pdl\drivers\peripheral\sysclk/cy_sysclk.c **** * \return \ref cy_en_clkpath_in_sources_t
 283:Generated_Source\PSoC6\pdl\drivers\peripheral\sysclk/cy_sysclk.c **** *
 284:Generated_Source\PSoC6\pdl\drivers\peripheral\sysclk/cy_sysclk.c **** * \funcusage
 285:Generated_Source\PSoC6\pdl\drivers\peripheral\sysclk/cy_sysclk.c **** * \snippet sysclk/1.20/snippet/main.c snippet_Cy_SysClk_ClkPathGetSource
 286:Generated_Source\PSoC6\pdl\drivers\peripheral\sysclk/cy_sysclk.c **** *
 287:Generated_Source\PSoC6\pdl\drivers\peripheral\sysclk/cy_sysclk.c **** *******************************************************************************/
 288:Generated_Source\PSoC6\pdl\drivers\peripheral\sysclk/cy_sysclk.c **** cy_en_clkpath_in_sources_t Cy_SysClk_ClkPathGetSource(uint32_t clkPath)
 289:Generated_Source\PSoC6\pdl\drivers\peripheral\sysclk/cy_sysclk.c **** {
 603              		.loc 1 289 0
 604              		.cfi_startproc
 605              		@ args = 0, pretend = 0, frame = 0
 606              		@ frame_needed = 0, uses_anonymous_args = 0
 607              	.LVL86:
ARM GAS  C:\Users\tmj32\AppData\Local\Temp\cczBJdSj.s 			page 17


 608 0000 10B5     		push	{r4, lr}
 609              		.cfi_def_cfa_offset 8
 610              		.cfi_offset 4, -8
 611              		.cfi_offset 14, -4
 612 0002 0400     		movs	r4, r0
 290:Generated_Source\PSoC6\pdl\drivers\peripheral\sysclk/cy_sysclk.c ****     CY_ASSERT_L1(clkPath < CY_SRSS_NUM_CLKPATH);
 613              		.loc 1 290 0
 614 0004 0E4B     		ldr	r3, .L54
 615 0006 1A68     		ldr	r2, [r3]
 616 0008 3C23     		movs	r3, #60
 617 000a D35C     		ldrb	r3, [r2, r3]
 618 000c 8342     		cmp	r3, r0
 619 000e 04D8     		bhi	.L52
 620              		.loc 1 290 0 is_stmt 0 discriminator 1
 621 0010 9121     		movs	r1, #145
 622 0012 4900     		lsls	r1, r1, #1
 623 0014 0B48     		ldr	r0, .L54+4
 624              	.LVL87:
 625 0016 FFF7FEFF 		bl	Cy_SysLib_AssertFailed
 626              	.LVL88:
 627              	.L52:
 291:Generated_Source\PSoC6\pdl\drivers\peripheral\sysclk/cy_sysclk.c ****     cy_en_clkpath_in_sources_t retVal =
 292:Generated_Source\PSoC6\pdl\drivers\peripheral\sysclk/cy_sysclk.c ****         (cy_en_clkpath_in_sources_t )_FLD2VAL(SRSS_CLK_PATH_SELECT_PATH_MUX, SRSS_CLK_PATH_SELECT[c
 628              		.loc 1 292 0 is_stmt 1
 629 001a 2300     		movs	r3, r4
 630 001c D033     		adds	r3, r3, #208
 631 001e 9B00     		lsls	r3, r3, #2
 632 0020 094A     		ldr	r2, .L54+8
 633 0022 9858     		ldr	r0, [r3, r2]
 291:Generated_Source\PSoC6\pdl\drivers\peripheral\sysclk/cy_sysclk.c ****     cy_en_clkpath_in_sources_t retVal =
 634              		.loc 1 291 0
 635 0024 0723     		movs	r3, #7
 636 0026 1840     		ands	r0, r3
 637              	.LVL89:
 293:Generated_Source\PSoC6\pdl\drivers\peripheral\sysclk/cy_sysclk.c ****     if (retVal == CY_SYSCLK_CLKPATH_IN_DSIMUX)
 638              		.loc 1 293 0
 639 0028 0428     		cmp	r0, #4
 640 002a 07D1     		bne	.L53
 294:Generated_Source\PSoC6\pdl\drivers\peripheral\sysclk/cy_sysclk.c ****     {
 295:Generated_Source\PSoC6\pdl\drivers\peripheral\sysclk/cy_sysclk.c ****         retVal = (cy_en_clkpath_in_sources_t)(CY_SYSCLK_CLKPATH_IN_DSI |
 296:Generated_Source\PSoC6\pdl\drivers\peripheral\sysclk/cy_sysclk.c ****                     (_FLD2VAL(SRSS_CLK_DSI_SELECT_DSI_MUX, SRSS_CLK_DSI_SELECT[clkPath])));
 641              		.loc 1 296 0
 642 002c C034     		adds	r4, r4, #192
 643              	.LVL90:
 644 002e A400     		lsls	r4, r4, #2
 645              	.LVL91:
 646 0030 A358     		ldr	r3, [r4, r2]
 295:Generated_Source\PSoC6\pdl\drivers\peripheral\sysclk/cy_sysclk.c ****                     (_FLD2VAL(SRSS_CLK_DSI_SELECT_DSI_MUX, SRSS_CLK_DSI_SELECT[clkPath])));
 647              		.loc 1 295 0
 648 0032 1B30     		adds	r0, r0, #27
 649              	.LVL92:
 650 0034 1840     		ands	r0, r3
 651              	.LVL93:
 652 0036 8023     		movs	r3, #128
 653 0038 5B00     		lsls	r3, r3, #1
 654 003a 1843     		orrs	r0, r3
 655              	.LVL94:
ARM GAS  C:\Users\tmj32\AppData\Local\Temp\cczBJdSj.s 			page 18


 656              	.L53:
 297:Generated_Source\PSoC6\pdl\drivers\peripheral\sysclk/cy_sysclk.c ****     }
 298:Generated_Source\PSoC6\pdl\drivers\peripheral\sysclk/cy_sysclk.c ****     return retVal;
 299:Generated_Source\PSoC6\pdl\drivers\peripheral\sysclk/cy_sysclk.c **** }
 657              		.loc 1 299 0
 658              		@ sp needed
 659 003c 10BD     		pop	{r4, pc}
 660              	.L55:
 661 003e C046     		.align	2
 662              	.L54:
 663 0040 00000000 		.word	cy_device
 664 0044 00000000 		.word	.LC5
 665 0048 00002640 		.word	1076232192
 666              		.cfi_endproc
 667              	.LFE160:
 668              		.size	Cy_SysClk_ClkPathGetSource, .-Cy_SysClk_ClkPathGetSource
 669              		.section	.text.Cy_SysClk_FllManualConfigure,"ax",%progbits
 670              		.align	2
 671              		.global	Cy_SysClk_FllManualConfigure
 672              		.code	16
 673              		.thumb_func
 674              		.type	Cy_SysClk_FllManualConfigure, %function
 675              	Cy_SysClk_FllManualConfigure:
 676              	.LFB162:
 300:Generated_Source\PSoC6\pdl\drivers\peripheral\sysclk/cy_sysclk.c **** /** \} group_sysclk_path_src_funcs */
 301:Generated_Source\PSoC6\pdl\drivers\peripheral\sysclk/cy_sysclk.c **** 
 302:Generated_Source\PSoC6\pdl\drivers\peripheral\sysclk/cy_sysclk.c **** 
 303:Generated_Source\PSoC6\pdl\drivers\peripheral\sysclk/cy_sysclk.c **** /* ========================================================================== */
 304:Generated_Source\PSoC6\pdl\drivers\peripheral\sysclk/cy_sysclk.c **** /* ===========================    FLL SECTION    ============================ */
 305:Generated_Source\PSoC6\pdl\drivers\peripheral\sysclk/cy_sysclk.c **** /* ========================================================================== */
 306:Generated_Source\PSoC6\pdl\drivers\peripheral\sysclk/cy_sysclk.c **** /* min and max FLL output frequencies, in Hz */
 307:Generated_Source\PSoC6\pdl\drivers\peripheral\sysclk/cy_sysclk.c **** #define  CY_SYSCLK_FLL_MIN_CCO_OUTPUT_FREQ (48000000UL)
 308:Generated_Source\PSoC6\pdl\drivers\peripheral\sysclk/cy_sysclk.c **** #define  CY_SYSCLK_FLL_MIN_OUTPUT_FREQ     (CY_SYSCLK_FLL_MIN_CCO_OUTPUT_FREQ / 2U)
 309:Generated_Source\PSoC6\pdl\drivers\peripheral\sysclk/cy_sysclk.c **** #define  CY_SYSCLK_FLL_MAX_OUTPUT_FREQ     (100000000UL)
 310:Generated_Source\PSoC6\pdl\drivers\peripheral\sysclk/cy_sysclk.c **** 
 311:Generated_Source\PSoC6\pdl\drivers\peripheral\sysclk/cy_sysclk.c **** #define  CY_SYSCLK_FLL_IS_CCO_RANGE_VALID(range) (((range) == CY_SYSCLK_FLL_CCO_RANGE0) || \
 312:Generated_Source\PSoC6\pdl\drivers\peripheral\sysclk/cy_sysclk.c ****                                                   ((range) == CY_SYSCLK_FLL_CCO_RANGE1) || \
 313:Generated_Source\PSoC6\pdl\drivers\peripheral\sysclk/cy_sysclk.c ****                                                   ((range) == CY_SYSCLK_FLL_CCO_RANGE2) || \
 314:Generated_Source\PSoC6\pdl\drivers\peripheral\sysclk/cy_sysclk.c ****                                                   ((range) == CY_SYSCLK_FLL_CCO_RANGE3) || \
 315:Generated_Source\PSoC6\pdl\drivers\peripheral\sysclk/cy_sysclk.c ****                                                   ((range) == CY_SYSCLK_FLL_CCO_RANGE4))
 316:Generated_Source\PSoC6\pdl\drivers\peripheral\sysclk/cy_sysclk.c **** 
 317:Generated_Source\PSoC6\pdl\drivers\peripheral\sysclk/cy_sysclk.c **** /**
 318:Generated_Source\PSoC6\pdl\drivers\peripheral\sysclk/cy_sysclk.c **** * \addtogroup group_sysclk_fll_funcs
 319:Generated_Source\PSoC6\pdl\drivers\peripheral\sysclk/cy_sysclk.c **** * \{
 320:Generated_Source\PSoC6\pdl\drivers\peripheral\sysclk/cy_sysclk.c **** */
 321:Generated_Source\PSoC6\pdl\drivers\peripheral\sysclk/cy_sysclk.c **** /*******************************************************************************
 322:Generated_Source\PSoC6\pdl\drivers\peripheral\sysclk/cy_sysclk.c **** * Function Name: Cy_SysClk_FllConfigure
 323:Generated_Source\PSoC6\pdl\drivers\peripheral\sysclk/cy_sysclk.c **** ****************************************************************************//**
 324:Generated_Source\PSoC6\pdl\drivers\peripheral\sysclk/cy_sysclk.c **** *
 325:Generated_Source\PSoC6\pdl\drivers\peripheral\sysclk/cy_sysclk.c **** * Configures the FLL, for best accuracy optimization.
 326:Generated_Source\PSoC6\pdl\drivers\peripheral\sysclk/cy_sysclk.c **** *
 327:Generated_Source\PSoC6\pdl\drivers\peripheral\sysclk/cy_sysclk.c **** * \param inputFreq frequency of input source, in Hz
 328:Generated_Source\PSoC6\pdl\drivers\peripheral\sysclk/cy_sysclk.c **** *
 329:Generated_Source\PSoC6\pdl\drivers\peripheral\sysclk/cy_sysclk.c **** * \param outputFreq Desired FLL output frequency, in Hz. Allowable range is
 330:Generated_Source\PSoC6\pdl\drivers\peripheral\sysclk/cy_sysclk.c **** * 24 MHz to 100 MHz. In all cases, FLL_OUTPUT_DIV must be set; the output divide
 331:Generated_Source\PSoC6\pdl\drivers\peripheral\sysclk/cy_sysclk.c **** * by 2 option is required.
 332:Generated_Source\PSoC6\pdl\drivers\peripheral\sysclk/cy_sysclk.c **** *
ARM GAS  C:\Users\tmj32\AppData\Local\Temp\cczBJdSj.s 			page 19


 333:Generated_Source\PSoC6\pdl\drivers\peripheral\sysclk/cy_sysclk.c **** * \param outputMode \ref cy_en_fll_pll_output_mode_t
 334:Generated_Source\PSoC6\pdl\drivers\peripheral\sysclk/cy_sysclk.c **** * If output mode is bypass, then the output frequency equals the input source
 335:Generated_Source\PSoC6\pdl\drivers\peripheral\sysclk/cy_sysclk.c **** * frequency regardless of the frequency parameter values.
 336:Generated_Source\PSoC6\pdl\drivers\peripheral\sysclk/cy_sysclk.c **** *
 337:Generated_Source\PSoC6\pdl\drivers\peripheral\sysclk/cy_sysclk.c **** * \return  Error / status code:<br>
 338:Generated_Source\PSoC6\pdl\drivers\peripheral\sysclk/cy_sysclk.c **** * CY_SYSCLK_SUCCESS - FLL successfully configured<br>
 339:Generated_Source\PSoC6\pdl\drivers\peripheral\sysclk/cy_sysclk.c **** * CY_SYSCLK_INVALID_STATE - FLL not configured because it is enabled<br>
 340:Generated_Source\PSoC6\pdl\drivers\peripheral\sysclk/cy_sysclk.c **** * CY_SYSCLK_BAD_PARAM - desired output frequency is out of valid range
 341:Generated_Source\PSoC6\pdl\drivers\peripheral\sysclk/cy_sysclk.c **** *
 342:Generated_Source\PSoC6\pdl\drivers\peripheral\sysclk/cy_sysclk.c **** * \note
 343:Generated_Source\PSoC6\pdl\drivers\peripheral\sysclk/cy_sysclk.c **** * Call this function after changing the FLL input frequency, for example if
 344:Generated_Source\PSoC6\pdl\drivers\peripheral\sysclk/cy_sysclk.c **** * \ref Cy_SysClk_ClkPathSetSource() is called.
 345:Generated_Source\PSoC6\pdl\drivers\peripheral\sysclk/cy_sysclk.c **** *
 346:Generated_Source\PSoC6\pdl\drivers\peripheral\sysclk/cy_sysclk.c **** * \note
 347:Generated_Source\PSoC6\pdl\drivers\peripheral\sysclk/cy_sysclk.c **** * Do not call this function when the FLL is enabled. If it is called, then this function
 348:Generated_Source\PSoC6\pdl\drivers\peripheral\sysclk/cy_sysclk.c **** * returns immediately with an error return value and no register updates.
 349:Generated_Source\PSoC6\pdl\drivers\peripheral\sysclk/cy_sysclk.c **** *
 350:Generated_Source\PSoC6\pdl\drivers\peripheral\sysclk/cy_sysclk.c **** * \note 
 351:Generated_Source\PSoC6\pdl\drivers\peripheral\sysclk/cy_sysclk.c **** * Call \ref SystemCoreClockUpdate after this function calling 
 352:Generated_Source\PSoC6\pdl\drivers\peripheral\sysclk/cy_sysclk.c **** * if it affects the CLK_HF0 frequency.
 353:Generated_Source\PSoC6\pdl\drivers\peripheral\sysclk/cy_sysclk.c **** *
 354:Generated_Source\PSoC6\pdl\drivers\peripheral\sysclk/cy_sysclk.c **** * \note 
 355:Generated_Source\PSoC6\pdl\drivers\peripheral\sysclk/cy_sysclk.c **** * Call \ref Cy_SysLib_SetWaitStates before calling this function if
 356:Generated_Source\PSoC6\pdl\drivers\peripheral\sysclk/cy_sysclk.c **** * the FLL is the source of CLK_HF0 and the FLL frequency is increasing.
 357:Generated_Source\PSoC6\pdl\drivers\peripheral\sysclk/cy_sysclk.c **** *
 358:Generated_Source\PSoC6\pdl\drivers\peripheral\sysclk/cy_sysclk.c **** * \note
 359:Generated_Source\PSoC6\pdl\drivers\peripheral\sysclk/cy_sysclk.c **** * Call \ref Cy_SysLib_SetWaitStates after calling this function if
 360:Generated_Source\PSoC6\pdl\drivers\peripheral\sysclk/cy_sysclk.c **** * the FLL is the source of CLK_HF0 and the FLL frequency is decreasing.
 361:Generated_Source\PSoC6\pdl\drivers\peripheral\sysclk/cy_sysclk.c **** *
 362:Generated_Source\PSoC6\pdl\drivers\peripheral\sysclk/cy_sysclk.c **** * \funcusage
 363:Generated_Source\PSoC6\pdl\drivers\peripheral\sysclk/cy_sysclk.c **** * \snippet sysclk/1.20/snippet/main.c snippet_Cy_SysClk_FllConfigure
 364:Generated_Source\PSoC6\pdl\drivers\peripheral\sysclk/cy_sysclk.c **** *
 365:Generated_Source\PSoC6\pdl\drivers\peripheral\sysclk/cy_sysclk.c **** *******************************************************************************/
 366:Generated_Source\PSoC6\pdl\drivers\peripheral\sysclk/cy_sysclk.c **** cy_en_sysclk_status_t Cy_SysClk_FllConfigure(uint32_t inputFreq, uint32_t outputFreq, cy_en_fll_pll
 367:Generated_Source\PSoC6\pdl\drivers\peripheral\sysclk/cy_sysclk.c **** {
 368:Generated_Source\PSoC6\pdl\drivers\peripheral\sysclk/cy_sysclk.c ****     cy_en_sysclk_status_t retVal = CY_SYSCLK_SUCCESS;
 369:Generated_Source\PSoC6\pdl\drivers\peripheral\sysclk/cy_sysclk.c **** 
 370:Generated_Source\PSoC6\pdl\drivers\peripheral\sysclk/cy_sysclk.c ****     /* check for errors */
 371:Generated_Source\PSoC6\pdl\drivers\peripheral\sysclk/cy_sysclk.c ****     if ((outputFreq < CY_SYSCLK_FLL_MIN_OUTPUT_FREQ) || (CY_SYSCLK_FLL_MAX_OUTPUT_FREQ < outputFreq
 372:Generated_Source\PSoC6\pdl\drivers\peripheral\sysclk/cy_sysclk.c ****        (((float32_t)outputFreq / (float32_t)inputFreq) < 2.2f)) /* check output/input frequency rat
 373:Generated_Source\PSoC6\pdl\drivers\peripheral\sysclk/cy_sysclk.c ****     {
 374:Generated_Source\PSoC6\pdl\drivers\peripheral\sysclk/cy_sysclk.c ****         retVal = CY_SYSCLK_BAD_PARAM;
 375:Generated_Source\PSoC6\pdl\drivers\peripheral\sysclk/cy_sysclk.c ****     }
 376:Generated_Source\PSoC6\pdl\drivers\peripheral\sysclk/cy_sysclk.c ****     else /* no errors */
 377:Generated_Source\PSoC6\pdl\drivers\peripheral\sysclk/cy_sysclk.c ****     {
 378:Generated_Source\PSoC6\pdl\drivers\peripheral\sysclk/cy_sysclk.c ****         /* If output mode is bypass (input routed directly to output), then done.
 379:Generated_Source\PSoC6\pdl\drivers\peripheral\sysclk/cy_sysclk.c ****            The output frequency equals the input frequency regardless of the
 380:Generated_Source\PSoC6\pdl\drivers\peripheral\sysclk/cy_sysclk.c ****            frequency parameters. */
 381:Generated_Source\PSoC6\pdl\drivers\peripheral\sysclk/cy_sysclk.c ****         if (outputMode != CY_SYSCLK_FLLPLL_OUTPUT_INPUT)
 382:Generated_Source\PSoC6\pdl\drivers\peripheral\sysclk/cy_sysclk.c ****         {
 383:Generated_Source\PSoC6\pdl\drivers\peripheral\sysclk/cy_sysclk.c ****             cy_stc_fll_manual_config_t config;
 384:Generated_Source\PSoC6\pdl\drivers\peripheral\sysclk/cy_sysclk.c ****             uint32_t ccoFreq;
 385:Generated_Source\PSoC6\pdl\drivers\peripheral\sysclk/cy_sysclk.c ****             bool wcoSource = ((Cy_SysClk_ClkPathGetSource(0UL/*FLL*/) == CY_SYSCLK_CLKPATH_IN_WCO) 
 386:Generated_Source\PSoC6\pdl\drivers\peripheral\sysclk/cy_sysclk.c **** 
 387:Generated_Source\PSoC6\pdl\drivers\peripheral\sysclk/cy_sysclk.c ****             config.outputMode = outputMode;
 388:Generated_Source\PSoC6\pdl\drivers\peripheral\sysclk/cy_sysclk.c ****             /* 1. Output division by 2 is always required. */
 389:Generated_Source\PSoC6\pdl\drivers\peripheral\sysclk/cy_sysclk.c ****             config.enableOutputDiv = (bool)(1UL);
ARM GAS  C:\Users\tmj32\AppData\Local\Temp\cczBJdSj.s 			page 20


 390:Generated_Source\PSoC6\pdl\drivers\peripheral\sysclk/cy_sysclk.c ****             /* 2. Compute the target CCO frequency from the target output frequency and output divi
 391:Generated_Source\PSoC6\pdl\drivers\peripheral\sysclk/cy_sysclk.c ****             ccoFreq = outputFreq * ((uint32_t)(config.enableOutputDiv) + 1UL);
 392:Generated_Source\PSoC6\pdl\drivers\peripheral\sysclk/cy_sysclk.c ****             /* 3. Compute the CCO range value from the CCO frequency */
 393:Generated_Source\PSoC6\pdl\drivers\peripheral\sysclk/cy_sysclk.c ****             config.ccoRange = ((ccoFreq >= 150339200UL) ? CY_SYSCLK_FLL_CCO_RANGE4 :
 394:Generated_Source\PSoC6\pdl\drivers\peripheral\sysclk/cy_sysclk.c ****                                ((ccoFreq >= 113009380UL) ? CY_SYSCLK_FLL_CCO_RANGE3 :
 395:Generated_Source\PSoC6\pdl\drivers\peripheral\sysclk/cy_sysclk.c ****                                 ((ccoFreq >=  84948700UL) ? CY_SYSCLK_FLL_CCO_RANGE2 :
 396:Generated_Source\PSoC6\pdl\drivers\peripheral\sysclk/cy_sysclk.c ****                                  ((ccoFreq >=  63855600UL) ? CY_SYSCLK_FLL_CCO_RANGE1 : CY_SYSCLK_F
 397:Generated_Source\PSoC6\pdl\drivers\peripheral\sysclk/cy_sysclk.c ****             {
 398:Generated_Source\PSoC6\pdl\drivers\peripheral\sysclk/cy_sysclk.c ****                 /* constants indexed by ccoRange */
 399:Generated_Source\PSoC6\pdl\drivers\peripheral\sysclk/cy_sysclk.c ****                 const float32_t trimSteps[] = {0.0011034f, 0.001102f, 0.0011f, 0.0011f, 0.00117062f
 400:Generated_Source\PSoC6\pdl\drivers\peripheral\sysclk/cy_sysclk.c ****                 const float32_t fMargin[] = {43600000.0f, 58100000.0f, 77200000.0f, 103000000.0f, 1
 401:Generated_Source\PSoC6\pdl\drivers\peripheral\sysclk/cy_sysclk.c **** 
 402:Generated_Source\PSoC6\pdl\drivers\peripheral\sysclk/cy_sysclk.c ****             /* 4. Compute the FLL reference divider value.
 403:Generated_Source\PSoC6\pdl\drivers\peripheral\sysclk/cy_sysclk.c ****                   refDiv is a constant if the WCO is the FLL source; otherwise the formula is
 404:Generated_Source\PSoC6\pdl\drivers\peripheral\sysclk/cy_sysclk.c ****                   refDiv = ROUNDUP((inputFreq / outputFreq) * 250) */
 405:Generated_Source\PSoC6\pdl\drivers\peripheral\sysclk/cy_sysclk.c ****                 config.refDiv = wcoSource ? 19U : ((uint16_t)ceilf(((float32_t)inputFreq / (float32
 406:Generated_Source\PSoC6\pdl\drivers\peripheral\sysclk/cy_sysclk.c ****             /* 5. Compute the FLL multiplier value.
 407:Generated_Source\PSoC6\pdl\drivers\peripheral\sysclk/cy_sysclk.c ****                   Formula is fllMult = ccoFreq / (inputFreq / refDiv) */
 408:Generated_Source\PSoC6\pdl\drivers\peripheral\sysclk/cy_sysclk.c ****                 config.fllMult = CY_SYSCLK_DIV_ROUNDUP(ccoFreq, CY_SYSCLK_DIV_ROUND(inputFreq, (uin
 409:Generated_Source\PSoC6\pdl\drivers\peripheral\sysclk/cy_sysclk.c ****             /* 6. Compute the lock tolerance.
 410:Generated_Source\PSoC6\pdl\drivers\peripheral\sysclk/cy_sysclk.c ****                   Formula is lock tolerance = 1.5 * fllMult * (((1 + CCO accuracy) / (1 - source cl
 411:Generated_Source\PSoC6\pdl\drivers\peripheral\sysclk/cy_sysclk.c ****                   We assume CCO accuracy is 0.25%.
 412:Generated_Source\PSoC6\pdl\drivers\peripheral\sysclk/cy_sysclk.c ****                   We assume the source clock accuracy = 1%. This is the accuracy of the IMO.
 413:Generated_Source\PSoC6\pdl\drivers\peripheral\sysclk/cy_sysclk.c ****                   Therefore the formula is lock tolerance = 1.5 * fllMult * 0.012626 = 0.018939 * f
 414:Generated_Source\PSoC6\pdl\drivers\peripheral\sysclk/cy_sysclk.c ****                 config.lockTolerance = (uint16_t)ceilf((float32_t)(config.fllMult) * 0.018939f);
 415:Generated_Source\PSoC6\pdl\drivers\peripheral\sysclk/cy_sysclk.c ****             /* 7. Compute the CCO igain and pgain. */
 416:Generated_Source\PSoC6\pdl\drivers\peripheral\sysclk/cy_sysclk.c ****                 {
 417:Generated_Source\PSoC6\pdl\drivers\peripheral\sysclk/cy_sysclk.c ****                     /* intermediate parameters */
 418:Generated_Source\PSoC6\pdl\drivers\peripheral\sysclk/cy_sysclk.c ****                     float32_t kcco = (trimSteps[config.ccoRange] * fMargin[config.ccoRange]) / 1000
 419:Generated_Source\PSoC6\pdl\drivers\peripheral\sysclk/cy_sysclk.c ****                     float32_t ki_p = (0.85f / (kcco * ((float32_t)(config.refDiv) / (float32_t)inpu
 420:Generated_Source\PSoC6\pdl\drivers\peripheral\sysclk/cy_sysclk.c **** 
 421:Generated_Source\PSoC6\pdl\drivers\peripheral\sysclk/cy_sysclk.c ****                     /* igain and pgain bitfield values correspond to: 1/256, 1/128, ..., 4, 8 */
 422:Generated_Source\PSoC6\pdl\drivers\peripheral\sysclk/cy_sysclk.c ****                     const float32_t gains[] = {0.00390625f, 0.0078125f, 0.015625f, 0.03125f, 0.0625
 423:Generated_Source\PSoC6\pdl\drivers\peripheral\sysclk/cy_sysclk.c ****                                                0.5f, 1.0f, 2.0f, 4.0f, 8.0f};
 424:Generated_Source\PSoC6\pdl\drivers\peripheral\sysclk/cy_sysclk.c **** 
 425:Generated_Source\PSoC6\pdl\drivers\peripheral\sysclk/cy_sysclk.c ****                     /* find the largest IGAIN value that is less than or equal to ki_p */
 426:Generated_Source\PSoC6\pdl\drivers\peripheral\sysclk/cy_sysclk.c ****                     for(config.igain = (uint8_t)(CY_SYSCLK_N_ELMTS(gains) - 1UL);
 427:Generated_Source\PSoC6\pdl\drivers\peripheral\sysclk/cy_sysclk.c ****                         (gains[config.igain] > ki_p) && (config.igain != 0UL); config.igain--){}
 428:Generated_Source\PSoC6\pdl\drivers\peripheral\sysclk/cy_sysclk.c ****                     /* decrement igain if the WCO is the FLL source */
 429:Generated_Source\PSoC6\pdl\drivers\peripheral\sysclk/cy_sysclk.c ****                     if (wcoSource && (config.igain > 0U))
 430:Generated_Source\PSoC6\pdl\drivers\peripheral\sysclk/cy_sysclk.c ****                     {
 431:Generated_Source\PSoC6\pdl\drivers\peripheral\sysclk/cy_sysclk.c ****                         config.igain--;
 432:Generated_Source\PSoC6\pdl\drivers\peripheral\sysclk/cy_sysclk.c ****                     }
 433:Generated_Source\PSoC6\pdl\drivers\peripheral\sysclk/cy_sysclk.c ****                     /* then find the largest PGAIN value that is less than or equal to ki_p - gains
 434:Generated_Source\PSoC6\pdl\drivers\peripheral\sysclk/cy_sysclk.c ****                     for(config.pgain = (uint8_t)(CY_SYSCLK_N_ELMTS(gains) - 1UL);
 435:Generated_Source\PSoC6\pdl\drivers\peripheral\sysclk/cy_sysclk.c ****                         (gains[config.pgain] > (ki_p - gains[config.igain])) && (config.pgain != 0U
 436:Generated_Source\PSoC6\pdl\drivers\peripheral\sysclk/cy_sysclk.c ****                         config.pgain--){}
 437:Generated_Source\PSoC6\pdl\drivers\peripheral\sysclk/cy_sysclk.c ****                     /* decrement pgain if the WCO is the FLL source */
 438:Generated_Source\PSoC6\pdl\drivers\peripheral\sysclk/cy_sysclk.c ****                     if (wcoSource && (config.pgain > 0U))
 439:Generated_Source\PSoC6\pdl\drivers\peripheral\sysclk/cy_sysclk.c ****                     {
 440:Generated_Source\PSoC6\pdl\drivers\peripheral\sysclk/cy_sysclk.c ****                         config.pgain--;
 441:Generated_Source\PSoC6\pdl\drivers\peripheral\sysclk/cy_sysclk.c ****                     }
 442:Generated_Source\PSoC6\pdl\drivers\peripheral\sysclk/cy_sysclk.c ****                 }
 443:Generated_Source\PSoC6\pdl\drivers\peripheral\sysclk/cy_sysclk.c ****             /* 8. Compute the CCO_FREQ bits in CLK_FLL_CONFIG4 register. */
 444:Generated_Source\PSoC6\pdl\drivers\peripheral\sysclk/cy_sysclk.c ****                 config.cco_Freq = (uint16_t)floor(log((float64_t)((float32_t)ccoFreq / fMargin[conf
 445:Generated_Source\PSoC6\pdl\drivers\peripheral\sysclk/cy_sysclk.c ****                                                    log((float64_t)(1.0f + trimSteps[config.ccoRange
 446:Generated_Source\PSoC6\pdl\drivers\peripheral\sysclk/cy_sysclk.c ****             }
ARM GAS  C:\Users\tmj32\AppData\Local\Temp\cczBJdSj.s 			page 21


 447:Generated_Source\PSoC6\pdl\drivers\peripheral\sysclk/cy_sysclk.c ****             /* 9. Compute the settling count, using a 1 usec settling time.
 448:Generated_Source\PSoC6\pdl\drivers\peripheral\sysclk/cy_sysclk.c ****                   Use a constant if the WCO is the FLL source. */
 449:Generated_Source\PSoC6\pdl\drivers\peripheral\sysclk/cy_sysclk.c ****             {
 450:Generated_Source\PSoC6\pdl\drivers\peripheral\sysclk/cy_sysclk.c ****                 float32_t ttref   = (float32_t)config.refDiv / ((float32_t)inputFreq / 1000.0f);
 451:Generated_Source\PSoC6\pdl\drivers\peripheral\sysclk/cy_sysclk.c ****                 float32_t testval = 6000.0f / (float32_t)outputFreq;
 452:Generated_Source\PSoC6\pdl\drivers\peripheral\sysclk/cy_sysclk.c ****                 float32_t divval  = (float32_t)ceil((float64_t)((float32_t)inputFreq * 0.000001f));
 453:Generated_Source\PSoC6\pdl\drivers\peripheral\sysclk/cy_sysclk.c ****                 float32_t altval  = (float32_t)ceil((float64_t)((divval / ttref) + 1.0f));
 454:Generated_Source\PSoC6\pdl\drivers\peripheral\sysclk/cy_sysclk.c ****                 config.settlingCount = wcoSource ? 200U : (uint16)
 455:Generated_Source\PSoC6\pdl\drivers\peripheral\sysclk/cy_sysclk.c ****                               ((ttref > testval) ? divval :
 456:Generated_Source\PSoC6\pdl\drivers\peripheral\sysclk/cy_sysclk.c ****                               ((divval > altval) ? divval : altval));
 457:Generated_Source\PSoC6\pdl\drivers\peripheral\sysclk/cy_sysclk.c ****             }
 458:Generated_Source\PSoC6\pdl\drivers\peripheral\sysclk/cy_sysclk.c ****             /* configure FLL based on calculated values */
 459:Generated_Source\PSoC6\pdl\drivers\peripheral\sysclk/cy_sysclk.c ****             retVal = Cy_SysClk_FllManualConfigure(&config);
 460:Generated_Source\PSoC6\pdl\drivers\peripheral\sysclk/cy_sysclk.c ****         } /* if not, bypass output mode */
 461:Generated_Source\PSoC6\pdl\drivers\peripheral\sysclk/cy_sysclk.c ****         else
 462:Generated_Source\PSoC6\pdl\drivers\peripheral\sysclk/cy_sysclk.c ****         { /* bypass mode */
 463:Generated_Source\PSoC6\pdl\drivers\peripheral\sysclk/cy_sysclk.c ****             /* update CLK_FLL_CONFIG3 register with divide by 2 parameter */
 464:Generated_Source\PSoC6\pdl\drivers\peripheral\sysclk/cy_sysclk.c ****             CY_REG32_CLR_SET(SRSS_CLK_FLL_CONFIG3, SRSS_CLK_FLL_CONFIG3_BYPASS_SEL, CY_SYSCLK_FLLPL
 465:Generated_Source\PSoC6\pdl\drivers\peripheral\sysclk/cy_sysclk.c ****         }
 466:Generated_Source\PSoC6\pdl\drivers\peripheral\sysclk/cy_sysclk.c ****     }
 467:Generated_Source\PSoC6\pdl\drivers\peripheral\sysclk/cy_sysclk.c **** 
 468:Generated_Source\PSoC6\pdl\drivers\peripheral\sysclk/cy_sysclk.c ****     return (retVal);
 469:Generated_Source\PSoC6\pdl\drivers\peripheral\sysclk/cy_sysclk.c **** }
 470:Generated_Source\PSoC6\pdl\drivers\peripheral\sysclk/cy_sysclk.c **** 
 471:Generated_Source\PSoC6\pdl\drivers\peripheral\sysclk/cy_sysclk.c **** /*******************************************************************************
 472:Generated_Source\PSoC6\pdl\drivers\peripheral\sysclk/cy_sysclk.c **** * Function Name: Cy_SysClk_FllManualConfigure
 473:Generated_Source\PSoC6\pdl\drivers\peripheral\sysclk/cy_sysclk.c **** ****************************************************************************//**
 474:Generated_Source\PSoC6\pdl\drivers\peripheral\sysclk/cy_sysclk.c **** *
 475:Generated_Source\PSoC6\pdl\drivers\peripheral\sysclk/cy_sysclk.c **** * Manually configures the FLL based on user inputs.
 476:Generated_Source\PSoC6\pdl\drivers\peripheral\sysclk/cy_sysclk.c **** *
 477:Generated_Source\PSoC6\pdl\drivers\peripheral\sysclk/cy_sysclk.c **** * \param config \ref cy_stc_fll_manual_config_t
 478:Generated_Source\PSoC6\pdl\drivers\peripheral\sysclk/cy_sysclk.c **** *
 479:Generated_Source\PSoC6\pdl\drivers\peripheral\sysclk/cy_sysclk.c **** * \return  Error / status code:<br>
 480:Generated_Source\PSoC6\pdl\drivers\peripheral\sysclk/cy_sysclk.c **** * CY_SYSCLK_SUCCESS - FLL successfully configured<br>
 481:Generated_Source\PSoC6\pdl\drivers\peripheral\sysclk/cy_sysclk.c **** * CY_SYSCLK_INVALID_STATE - FLL not configured because it is enabled
 482:Generated_Source\PSoC6\pdl\drivers\peripheral\sysclk/cy_sysclk.c **** *
 483:Generated_Source\PSoC6\pdl\drivers\peripheral\sysclk/cy_sysclk.c **** * \note
 484:Generated_Source\PSoC6\pdl\drivers\peripheral\sysclk/cy_sysclk.c **** * Call this function after changing the FLL input frequency, for example if
 485:Generated_Source\PSoC6\pdl\drivers\peripheral\sysclk/cy_sysclk.c **** * \ref Cy_SysClk_ClkPathSetSource() is called.
 486:Generated_Source\PSoC6\pdl\drivers\peripheral\sysclk/cy_sysclk.c **** *
 487:Generated_Source\PSoC6\pdl\drivers\peripheral\sysclk/cy_sysclk.c **** * \note
 488:Generated_Source\PSoC6\pdl\drivers\peripheral\sysclk/cy_sysclk.c **** * Do not call this function when the FLL is enabled. If it is called, then this function
 489:Generated_Source\PSoC6\pdl\drivers\peripheral\sysclk/cy_sysclk.c **** * returns immediately with an error return value and no register updates.
 490:Generated_Source\PSoC6\pdl\drivers\peripheral\sysclk/cy_sysclk.c **** *
 491:Generated_Source\PSoC6\pdl\drivers\peripheral\sysclk/cy_sysclk.c **** * \note 
 492:Generated_Source\PSoC6\pdl\drivers\peripheral\sysclk/cy_sysclk.c **** * Call \ref SystemCoreClockUpdate after this function calling 
 493:Generated_Source\PSoC6\pdl\drivers\peripheral\sysclk/cy_sysclk.c **** * if it affects the CLK_HF0 frequency.
 494:Generated_Source\PSoC6\pdl\drivers\peripheral\sysclk/cy_sysclk.c **** *
 495:Generated_Source\PSoC6\pdl\drivers\peripheral\sysclk/cy_sysclk.c **** * \note 
 496:Generated_Source\PSoC6\pdl\drivers\peripheral\sysclk/cy_sysclk.c **** * Call \ref Cy_SysLib_SetWaitStates before calling this function if
 497:Generated_Source\PSoC6\pdl\drivers\peripheral\sysclk/cy_sysclk.c **** * the FLL is the source of CLK_HF0 and the FLL frequency is increasing.
 498:Generated_Source\PSoC6\pdl\drivers\peripheral\sysclk/cy_sysclk.c **** *
 499:Generated_Source\PSoC6\pdl\drivers\peripheral\sysclk/cy_sysclk.c **** * \note
 500:Generated_Source\PSoC6\pdl\drivers\peripheral\sysclk/cy_sysclk.c **** * Call \ref Cy_SysLib_SetWaitStates after calling this function if
 501:Generated_Source\PSoC6\pdl\drivers\peripheral\sysclk/cy_sysclk.c **** * the FLL is the source of CLK_HF0 and the FLL frequency is decreasing.
 502:Generated_Source\PSoC6\pdl\drivers\peripheral\sysclk/cy_sysclk.c **** *
 503:Generated_Source\PSoC6\pdl\drivers\peripheral\sysclk/cy_sysclk.c **** * \funcusage
ARM GAS  C:\Users\tmj32\AppData\Local\Temp\cczBJdSj.s 			page 22


 504:Generated_Source\PSoC6\pdl\drivers\peripheral\sysclk/cy_sysclk.c **** * \snippet sysclk/1.20/snippet/main.c snippet_Cy_SysClk_FllManualConfigure
 505:Generated_Source\PSoC6\pdl\drivers\peripheral\sysclk/cy_sysclk.c **** *
 506:Generated_Source\PSoC6\pdl\drivers\peripheral\sysclk/cy_sysclk.c **** *******************************************************************************/
 507:Generated_Source\PSoC6\pdl\drivers\peripheral\sysclk/cy_sysclk.c **** cy_en_sysclk_status_t Cy_SysClk_FllManualConfigure(const cy_stc_fll_manual_config_t *config)
 508:Generated_Source\PSoC6\pdl\drivers\peripheral\sysclk/cy_sysclk.c **** {
 677              		.loc 1 508 0
 678              		.cfi_startproc
 679              		@ args = 0, pretend = 0, frame = 0
 680              		@ frame_needed = 0, uses_anonymous_args = 0
 681              	.LVL95:
 682 0000 70B5     		push	{r4, r5, r6, lr}
 683              		.cfi_def_cfa_offset 16
 684              		.cfi_offset 4, -16
 685              		.cfi_offset 5, -12
 686              		.cfi_offset 6, -8
 687              		.cfi_offset 14, -4
 688 0002 041E     		subs	r4, r0, #0
 689              	.LVL96:
 509:Generated_Source\PSoC6\pdl\drivers\peripheral\sysclk/cy_sysclk.c ****     cy_en_sysclk_status_t retVal = CY_SYSCLK_SUCCESS;
 510:Generated_Source\PSoC6\pdl\drivers\peripheral\sysclk/cy_sysclk.c **** 
 511:Generated_Source\PSoC6\pdl\drivers\peripheral\sysclk/cy_sysclk.c ****     CY_ASSERT_L1(config != NULL);
 690              		.loc 1 511 0
 691 0004 03D1     		bne	.L57
 692              		.loc 1 511 0 is_stmt 0 discriminator 1
 693 0006 4A49     		ldr	r1, .L70
 694 0008 4A48     		ldr	r0, .L70+4
 695              	.LVL97:
 696 000a FFF7FEFF 		bl	Cy_SysLib_AssertFailed
 697              	.LVL98:
 698              	.L57:
 512:Generated_Source\PSoC6\pdl\drivers\peripheral\sysclk/cy_sysclk.c ****     /* check for errors */
 513:Generated_Source\PSoC6\pdl\drivers\peripheral\sysclk/cy_sysclk.c ****     if (_FLD2BOOL(SRSS_CLK_FLL_CONFIG_FLL_ENABLE, SRSS_CLK_FLL_CONFIG)) /* if enabled */
 699              		.loc 1 513 0 is_stmt 1
 700 000e B023     		movs	r3, #176
 701 0010 DB00     		lsls	r3, r3, #3
 702 0012 494A     		ldr	r2, .L70+8
 703 0014 D358     		ldr	r3, [r2, r3]
 704 0016 002B     		cmp	r3, #0
 705 0018 00DA     		bge	.LCB687
 706 001a 87E0     		b	.L68	@long jump
 707              	.LCB687:
 514:Generated_Source\PSoC6\pdl\drivers\peripheral\sysclk/cy_sysclk.c ****     {
 515:Generated_Source\PSoC6\pdl\drivers\peripheral\sysclk/cy_sysclk.c ****         retVal = CY_SYSCLK_INVALID_STATE;
 516:Generated_Source\PSoC6\pdl\drivers\peripheral\sysclk/cy_sysclk.c ****     }
 517:Generated_Source\PSoC6\pdl\drivers\peripheral\sysclk/cy_sysclk.c ****     else /* no errors */
 518:Generated_Source\PSoC6\pdl\drivers\peripheral\sysclk/cy_sysclk.c ****     {
 519:Generated_Source\PSoC6\pdl\drivers\peripheral\sysclk/cy_sysclk.c ****         /* update CLK_FLL_CONFIG register with 2 parameters; FLL_ENABLE is already 0 */
 520:Generated_Source\PSoC6\pdl\drivers\peripheral\sysclk/cy_sysclk.c ****         /* asserts just check for bitfield overflow */
 521:Generated_Source\PSoC6\pdl\drivers\peripheral\sysclk/cy_sysclk.c ****         CY_ASSERT_L1(config->fllMult <= (SRSS_CLK_FLL_CONFIG_FLL_MULT_Msk >> SRSS_CLK_FLL_CONFIG_FL
 708              		.loc 1 521 0
 709 001c 474B     		ldr	r3, .L70+12
 710 001e 2268     		ldr	r2, [r4]
 711 0020 9A42     		cmp	r2, r3
 712 0022 03D9     		bls	.L59
 713              		.loc 1 521 0 is_stmt 0 discriminator 1
 714 0024 4649     		ldr	r1, .L70+16
 715 0026 4348     		ldr	r0, .L70+4
ARM GAS  C:\Users\tmj32\AppData\Local\Temp\cczBJdSj.s 			page 23


 716 0028 FFF7FEFF 		bl	Cy_SysLib_AssertFailed
 717              	.LVL99:
 718              	.L59:
 522:Generated_Source\PSoC6\pdl\drivers\peripheral\sysclk/cy_sysclk.c **** 
 523:Generated_Source\PSoC6\pdl\drivers\peripheral\sysclk/cy_sysclk.c ****         SRSS_CLK_FLL_CONFIG = _VAL2FLD(SRSS_CLK_FLL_CONFIG_FLL_MULT, config->fllMult) |
 719              		.loc 1 523 0 is_stmt 1
 720 002c 2368     		ldr	r3, [r4]
 721 002e 9B03     		lsls	r3, r3, #14
 722 0030 9B0B     		lsrs	r3, r3, #14
 524:Generated_Source\PSoC6\pdl\drivers\peripheral\sysclk/cy_sysclk.c ****                              _BOOL2FLD(SRSS_CLK_FLL_CONFIG_FLL_OUTPUT_DIV, config->enableOutputDiv)
 723              		.loc 1 524 0
 724 0032 E279     		ldrb	r2, [r4, #7]
 725 0034 002A     		cmp	r2, #0
 726 0036 02D0     		beq	.L69
 727 0038 8022     		movs	r2, #128
 728 003a 5204     		lsls	r2, r2, #17
 729 003c 00E0     		b	.L60
 730              	.L69:
 731 003e 0022     		movs	r2, #0
 732              	.L60:
 523:Generated_Source\PSoC6\pdl\drivers\peripheral\sysclk/cy_sysclk.c ****                              _BOOL2FLD(SRSS_CLK_FLL_CONFIG_FLL_OUTPUT_DIV, config->enableOutputDiv)
 733              		.loc 1 523 0
 734 0040 1343     		orrs	r3, r2
 735 0042 B022     		movs	r2, #176
 736 0044 D200     		lsls	r2, r2, #3
 737 0046 3C49     		ldr	r1, .L70+8
 738 0048 8B50     		str	r3, [r1, r2]
 525:Generated_Source\PSoC6\pdl\drivers\peripheral\sysclk/cy_sysclk.c **** 
 526:Generated_Source\PSoC6\pdl\drivers\peripheral\sysclk/cy_sysclk.c ****         /* update CLK_FLL_CONFIG2 register with 2 parameters */
 527:Generated_Source\PSoC6\pdl\drivers\peripheral\sysclk/cy_sysclk.c ****         /* asserts just check for bitfield overflow */
 528:Generated_Source\PSoC6\pdl\drivers\peripheral\sysclk/cy_sysclk.c ****         CY_ASSERT_L1(config->refDiv <= (SRSS_CLK_FLL_CONFIG2_FLL_REF_DIV_Msk >> SRSS_CLK_FLL_CONFIG
 739              		.loc 1 528 0
 740 004a A288     		ldrh	r2, [r4, #4]
 741 004c 3D4B     		ldr	r3, .L70+20
 742 004e 9A42     		cmp	r2, r3
 743 0050 04D9     		bls	.L61
 744              		.loc 1 528 0 is_stmt 0 discriminator 1
 745 0052 8421     		movs	r1, #132
 746 0054 8900     		lsls	r1, r1, #2
 747 0056 3748     		ldr	r0, .L70+4
 748 0058 FFF7FEFF 		bl	Cy_SysLib_AssertFailed
 749              	.LVL100:
 750              	.L61:
 529:Generated_Source\PSoC6\pdl\drivers\peripheral\sysclk/cy_sysclk.c ****         CY_ASSERT_L1(config->lockTolerance <= (SRSS_CLK_FLL_CONFIG2_LOCK_TOL_Msk >> SRSS_CLK_FLL_CO
 751              		.loc 1 529 0 is_stmt 1
 752 005c 2289     		ldrh	r2, [r4, #8]
 753 005e 344B     		ldr	r3, .L70
 754 0060 9A42     		cmp	r2, r3
 755 0062 03D9     		bls	.L62
 756              		.loc 1 529 0 is_stmt 0 discriminator 1
 757 0064 3849     		ldr	r1, .L70+24
 758 0066 3348     		ldr	r0, .L70+4
 759 0068 FFF7FEFF 		bl	Cy_SysLib_AssertFailed
 760              	.LVL101:
 761              	.L62:
 530:Generated_Source\PSoC6\pdl\drivers\peripheral\sysclk/cy_sysclk.c **** 
 531:Generated_Source\PSoC6\pdl\drivers\peripheral\sysclk/cy_sysclk.c ****         SRSS_CLK_FLL_CONFIG2 = _VAL2FLD(SRSS_CLK_FLL_CONFIG2_FLL_REF_DIV, config->refDiv) |
ARM GAS  C:\Users\tmj32\AppData\Local\Temp\cczBJdSj.s 			page 24


 762              		.loc 1 531 0 is_stmt 1
 763 006c A388     		ldrh	r3, [r4, #4]
 764 006e DB04     		lsls	r3, r3, #19
 765 0070 D90C     		lsrs	r1, r3, #19
 532:Generated_Source\PSoC6\pdl\drivers\peripheral\sysclk/cy_sysclk.c ****                                _VAL2FLD(SRSS_CLK_FLL_CONFIG2_LOCK_TOL, config->lockTolerance);
 766              		.loc 1 532 0
 767 0072 2389     		ldrh	r3, [r4, #8]
 768 0074 1B04     		lsls	r3, r3, #16
 769 0076 354A     		ldr	r2, .L70+28
 770 0078 1340     		ands	r3, r2
 531:Generated_Source\PSoC6\pdl\drivers\peripheral\sysclk/cy_sysclk.c ****                                _VAL2FLD(SRSS_CLK_FLL_CONFIG2_LOCK_TOL, config->lockTolerance);
 771              		.loc 1 531 0
 772 007a 0B43     		orrs	r3, r1
 773 007c 344A     		ldr	r2, .L70+32
 774 007e 2E49     		ldr	r1, .L70+8
 775 0080 8B50     		str	r3, [r1, r2]
 533:Generated_Source\PSoC6\pdl\drivers\peripheral\sysclk/cy_sysclk.c **** 
 534:Generated_Source\PSoC6\pdl\drivers\peripheral\sysclk/cy_sysclk.c ****         /* update CLK_FLL_CONFIG3 register with 4 parameters */
 535:Generated_Source\PSoC6\pdl\drivers\peripheral\sysclk/cy_sysclk.c ****         /* asserts just check for bitfield overflow */
 536:Generated_Source\PSoC6\pdl\drivers\peripheral\sysclk/cy_sysclk.c ****         CY_ASSERT_L1(config->igain <= (SRSS_CLK_FLL_CONFIG3_FLL_LF_IGAIN_Msk >> SRSS_CLK_FLL_CONFIG
 776              		.loc 1 536 0
 777 0082 A37A     		ldrb	r3, [r4, #10]
 778 0084 0F2B     		cmp	r3, #15
 779 0086 04D9     		bls	.L63
 780              		.loc 1 536 0 is_stmt 0 discriminator 1
 781 0088 8621     		movs	r1, #134
 782 008a 8900     		lsls	r1, r1, #2
 783 008c 2948     		ldr	r0, .L70+4
 784 008e FFF7FEFF 		bl	Cy_SysLib_AssertFailed
 785              	.LVL102:
 786              	.L63:
 537:Generated_Source\PSoC6\pdl\drivers\peripheral\sysclk/cy_sysclk.c ****         CY_ASSERT_L1(config->pgain <= (SRSS_CLK_FLL_CONFIG3_FLL_LF_PGAIN_Msk >> SRSS_CLK_FLL_CONFIG
 787              		.loc 1 537 0 is_stmt 1
 788 0092 E37A     		ldrb	r3, [r4, #11]
 789 0094 0F2B     		cmp	r3, #15
 790 0096 03D9     		bls	.L64
 791              		.loc 1 537 0 is_stmt 0 discriminator 1
 792 0098 2E49     		ldr	r1, .L70+36
 793 009a 2648     		ldr	r0, .L70+4
 794 009c FFF7FEFF 		bl	Cy_SysLib_AssertFailed
 795              	.LVL103:
 796              	.L64:
 538:Generated_Source\PSoC6\pdl\drivers\peripheral\sysclk/cy_sysclk.c ****         CY_ASSERT_L1(config->settlingCount <= (SRSS_CLK_FLL_CONFIG3_SETTLING_COUNT_Msk >> SRSS_CLK_
 797              		.loc 1 538 0 is_stmt 1
 798 00a0 A289     		ldrh	r2, [r4, #12]
 799 00a2 284B     		ldr	r3, .L70+20
 800 00a4 9A42     		cmp	r2, r3
 801 00a6 03D9     		bls	.L65
 802              		.loc 1 538 0 is_stmt 0 discriminator 1
 803 00a8 2B49     		ldr	r1, .L70+40
 804 00aa 2248     		ldr	r0, .L70+4
 805 00ac FFF7FEFF 		bl	Cy_SysLib_AssertFailed
 806              	.LVL104:
 807              	.L65:
 539:Generated_Source\PSoC6\pdl\drivers\peripheral\sysclk/cy_sysclk.c **** 
 540:Generated_Source\PSoC6\pdl\drivers\peripheral\sysclk/cy_sysclk.c ****         SRSS_CLK_FLL_CONFIG3 = _VAL2FLD(SRSS_CLK_FLL_CONFIG3_FLL_LF_IGAIN, config->igain) |
 808              		.loc 1 540 0 is_stmt 1
ARM GAS  C:\Users\tmj32\AppData\Local\Temp\cczBJdSj.s 			page 25


 809 00b0 A37A     		ldrb	r3, [r4, #10]
 810 00b2 0F21     		movs	r1, #15
 811 00b4 1940     		ands	r1, r3
 541:Generated_Source\PSoC6\pdl\drivers\peripheral\sysclk/cy_sysclk.c ****                                _VAL2FLD(SRSS_CLK_FLL_CONFIG3_FLL_LF_PGAIN, config->pgain) |
 812              		.loc 1 541 0
 813 00b6 E27A     		ldrb	r2, [r4, #11]
 814 00b8 1201     		lsls	r2, r2, #4
 815 00ba FF23     		movs	r3, #255
 816 00bc 1340     		ands	r3, r2
 540:Generated_Source\PSoC6\pdl\drivers\peripheral\sysclk/cy_sysclk.c ****                                _VAL2FLD(SRSS_CLK_FLL_CONFIG3_FLL_LF_PGAIN, config->pgain) |
 817              		.loc 1 540 0
 818 00be 0B43     		orrs	r3, r1
 542:Generated_Source\PSoC6\pdl\drivers\peripheral\sysclk/cy_sysclk.c ****                                _VAL2FLD(SRSS_CLK_FLL_CONFIG3_SETTLING_COUNT, config->settlingCount)
 819              		.loc 1 542 0
 820 00c0 A289     		ldrh	r2, [r4, #12]
 821 00c2 1202     		lsls	r2, r2, #8
 822 00c4 2549     		ldr	r1, .L70+44
 823 00c6 0A40     		ands	r2, r1
 541:Generated_Source\PSoC6\pdl\drivers\peripheral\sysclk/cy_sysclk.c ****                                _VAL2FLD(SRSS_CLK_FLL_CONFIG3_FLL_LF_PGAIN, config->pgain) |
 824              		.loc 1 541 0
 825 00c8 1343     		orrs	r3, r2
 543:Generated_Source\PSoC6\pdl\drivers\peripheral\sysclk/cy_sysclk.c ****                                _VAL2FLD(SRSS_CLK_FLL_CONFIG3_BYPASS_SEL, config->outputMode);
 826              		.loc 1 543 0
 827 00ca A27B     		ldrb	r2, [r4, #14]
 828 00cc 1207     		lsls	r2, r2, #28
 829 00ce C021     		movs	r1, #192
 830 00d0 8905     		lsls	r1, r1, #22
 831 00d2 0A40     		ands	r2, r1
 542:Generated_Source\PSoC6\pdl\drivers\peripheral\sysclk/cy_sysclk.c ****                                _VAL2FLD(SRSS_CLK_FLL_CONFIG3_SETTLING_COUNT, config->settlingCount)
 832              		.loc 1 542 0
 833 00d4 1343     		orrs	r3, r2
 540:Generated_Source\PSoC6\pdl\drivers\peripheral\sysclk/cy_sysclk.c ****                                _VAL2FLD(SRSS_CLK_FLL_CONFIG3_FLL_LF_PGAIN, config->pgain) |
 834              		.loc 1 540 0
 835 00d6 B122     		movs	r2, #177
 836 00d8 D200     		lsls	r2, r2, #3
 837 00da 1749     		ldr	r1, .L70+8
 838 00dc 8B50     		str	r3, [r1, r2]
 544:Generated_Source\PSoC6\pdl\drivers\peripheral\sysclk/cy_sysclk.c **** 
 545:Generated_Source\PSoC6\pdl\drivers\peripheral\sysclk/cy_sysclk.c ****         /* update CLK_FLL_CONFIG4 register with 1 parameter; preserve other bits */
 546:Generated_Source\PSoC6\pdl\drivers\peripheral\sysclk/cy_sysclk.c ****         /* asserts just check for bitfield overflow */
 547:Generated_Source\PSoC6\pdl\drivers\peripheral\sysclk/cy_sysclk.c ****         CY_ASSERT_L1(CY_SYSCLK_FLL_IS_CCO_RANGE_VALID(config->ccoRange));
 839              		.loc 1 547 0
 840 00de A379     		ldrb	r3, [r4, #6]
 841 00e0 042B     		cmp	r3, #4
 842 00e2 03D9     		bls	.L66
 843              		.loc 1 547 0 is_stmt 0 discriminator 1
 844 00e4 1E49     		ldr	r1, .L70+48
 845 00e6 1348     		ldr	r0, .L70+4
 846 00e8 FFF7FEFF 		bl	Cy_SysLib_AssertFailed
 847              	.LVL105:
 848              	.L66:
 548:Generated_Source\PSoC6\pdl\drivers\peripheral\sysclk/cy_sysclk.c ****         CY_ASSERT_L1(config->cco_Freq <= (SRSS_CLK_FLL_CONFIG4_CCO_FREQ_Msk >> SRSS_CLK_FLL_CONFIG4
 849              		.loc 1 548 0 is_stmt 1
 850 00ec 228A     		ldrh	r2, [r4, #16]
 851 00ee 104B     		ldr	r3, .L70
 852 00f0 9A42     		cmp	r2, r3
 853 00f2 04D9     		bls	.L67
ARM GAS  C:\Users\tmj32\AppData\Local\Temp\cczBJdSj.s 			page 26


 854              		.loc 1 548 0 is_stmt 0 discriminator 1
 855 00f4 8921     		movs	r1, #137
 856 00f6 8900     		lsls	r1, r1, #2
 857 00f8 0E48     		ldr	r0, .L70+4
 858 00fa FFF7FEFF 		bl	Cy_SysLib_AssertFailed
 859              	.LVL106:
 860              	.L67:
 549:Generated_Source\PSoC6\pdl\drivers\peripheral\sysclk/cy_sysclk.c **** 
 550:Generated_Source\PSoC6\pdl\drivers\peripheral\sysclk/cy_sysclk.c ****         CY_REG32_CLR_SET(SRSS_CLK_FLL_CONFIG4, SRSS_CLK_FLL_CONFIG4_CCO_RANGE, (uint32_t)(config->c
 861              		.loc 1 550 0 is_stmt 1
 862 00fe 0E48     		ldr	r0, .L70+8
 863 0100 1849     		ldr	r1, .L70+52
 864 0102 4558     		ldr	r5, [r0, r1]
 865 0104 184B     		ldr	r3, .L70+56
 866 0106 1D40     		ands	r5, r3
 867 0108 A379     		ldrb	r3, [r4, #6]
 868 010a 1B02     		lsls	r3, r3, #8
 869 010c E022     		movs	r2, #224
 870 010e D200     		lsls	r2, r2, #3
 871 0110 1340     		ands	r3, r2
 872 0112 2B43     		orrs	r3, r5
 873 0114 4350     		str	r3, [r0, r1]
 551:Generated_Source\PSoC6\pdl\drivers\peripheral\sysclk/cy_sysclk.c ****         CY_REG32_CLR_SET(SRSS_CLK_FLL_CONFIG4, SRSS_CLK_FLL_CONFIG4_CCO_FREQ, (uint32_t)(config->cc
 874              		.loc 1 551 0
 875 0116 4558     		ldr	r5, [r0, r1]
 876 0118 144B     		ldr	r3, .L70+60
 877 011a 1D40     		ands	r5, r3
 878 011c 238A     		ldrh	r3, [r4, #16]
 879 011e 1B04     		lsls	r3, r3, #16
 880 0120 0A4A     		ldr	r2, .L70+28
 881 0122 1340     		ands	r3, r2
 882 0124 2B43     		orrs	r3, r5
 883 0126 4350     		str	r3, [r0, r1]
 509:Generated_Source\PSoC6\pdl\drivers\peripheral\sysclk/cy_sysclk.c **** 
 884              		.loc 1 509 0
 885 0128 0020     		movs	r0, #0
 886 012a 00E0     		b	.L58
 887              	.L68:
 515:Generated_Source\PSoC6\pdl\drivers\peripheral\sysclk/cy_sysclk.c ****     }
 888              		.loc 1 515 0
 889 012c 1048     		ldr	r0, .L70+64
 890              	.L58:
 891              	.LVL107:
 552:Generated_Source\PSoC6\pdl\drivers\peripheral\sysclk/cy_sysclk.c ****     }
 553:Generated_Source\PSoC6\pdl\drivers\peripheral\sysclk/cy_sysclk.c **** 
 554:Generated_Source\PSoC6\pdl\drivers\peripheral\sysclk/cy_sysclk.c ****     return (retVal);
 555:Generated_Source\PSoC6\pdl\drivers\peripheral\sysclk/cy_sysclk.c **** }
 892              		.loc 1 555 0
 893              		@ sp needed
 894              	.LVL108:
 895 012e 70BD     		pop	{r4, r5, r6, pc}
 896              	.L71:
 897              		.align	2
 898              	.L70:
 899 0130 FF010000 		.word	511
 900 0134 00000000 		.word	.LC5
 901 0138 00002640 		.word	1076232192
ARM GAS  C:\Users\tmj32\AppData\Local\Temp\cczBJdSj.s 			page 27


 902 013c FFFF0300 		.word	262143
 903 0140 09020000 		.word	521
 904 0144 FF1F0000 		.word	8191
 905 0148 11020000 		.word	529
 906 014c 0000FF01 		.word	33488896
 907 0150 84050000 		.word	1412
 908 0154 19020000 		.word	537
 909 0158 1A020000 		.word	538
 910 015c 00FF1F00 		.word	2096896
 911 0160 23020000 		.word	547
 912 0164 8C050000 		.word	1420
 913 0168 FFF8FFFF 		.word	-1793
 914 016c FFFF00FE 		.word	-33488897
 915 0170 03004A00 		.word	4849667
 916              		.cfi_endproc
 917              	.LFE162:
 918              		.size	Cy_SysClk_FllManualConfigure, .-Cy_SysClk_FllManualConfigure
 919              		.global	__aeabi_uidiv
 920              		.global	__aeabi_fsub
 921              		.global	__aeabi_ddiv
 922              		.global	__aeabi_d2uiz
 923              		.section	.text.Cy_SysClk_FllConfigure,"ax",%progbits
 924              		.align	2
 925              		.global	Cy_SysClk_FllConfigure
 926              		.code	16
 927              		.thumb_func
 928              		.type	Cy_SysClk_FllConfigure, %function
 929              	Cy_SysClk_FllConfigure:
 930              	.LFB161:
 367:Generated_Source\PSoC6\pdl\drivers\peripheral\sysclk/cy_sysclk.c ****     cy_en_sysclk_status_t retVal = CY_SYSCLK_SUCCESS;
 931              		.loc 1 367 0
 932              		.cfi_startproc
 933              		@ args = 0, pretend = 0, frame = 128
 934              		@ frame_needed = 0, uses_anonymous_args = 0
 935              	.LVL109:
 936 0000 F0B5     		push	{r4, r5, r6, r7, lr}
 937              		.cfi_def_cfa_offset 20
 938              		.cfi_offset 4, -20
 939              		.cfi_offset 5, -16
 940              		.cfi_offset 6, -12
 941              		.cfi_offset 7, -8
 942              		.cfi_offset 14, -4
 943 0002 5F46     		mov	r7, fp
 944 0004 5646     		mov	r6, r10
 945 0006 4546     		mov	r5, r8
 946 0008 E0B4     		push	{r5, r6, r7}
 947              		.cfi_def_cfa_offset 32
 948              		.cfi_offset 8, -32
 949              		.cfi_offset 10, -28
 950              		.cfi_offset 11, -24
 951 000a A0B0     		sub	sp, sp, #128
 952              		.cfi_def_cfa_offset 160
 953 000c 0400     		movs	r4, r0
 954 000e 0D00     		movs	r5, r1
 955 0010 1700     		movs	r7, r2
 956              	.LVL110:
 371:Generated_Source\PSoC6\pdl\drivers\peripheral\sysclk/cy_sysclk.c ****        (((float32_t)outputFreq / (float32_t)inputFreq) < 2.2f)) /* check output/input frequency rat
ARM GAS  C:\Users\tmj32\AppData\Local\Temp\cczBJdSj.s 			page 28


 957              		.loc 1 371 0
 958 0012 B34B     		ldr	r3, .L105
 959 0014 CA18     		adds	r2, r1, r3
 960              	.LVL111:
 961 0016 B34B     		ldr	r3, .L105+4
 962 0018 9A42     		cmp	r2, r3
 963 001a 00D9     		bls	.LCB921
 964 001c 56E1     		b	.L92	@long jump
 965              	.LCB921:
 372:Generated_Source\PSoC6\pdl\drivers\peripheral\sysclk/cy_sysclk.c ****     {
 966              		.loc 1 372 0 discriminator 1
 967 001e 0800     		movs	r0, r1
 968              	.LVL112:
 969 0020 FFF7FEFF 		bl	__aeabi_ui2f
 970              	.LVL113:
 971 0024 061C     		adds	r6, r0, #0
 972 0026 0290     		str	r0, [sp, #8]
 973 0028 2000     		movs	r0, r4
 974 002a FFF7FEFF 		bl	__aeabi_ui2f
 975              	.LVL114:
 976 002e 011C     		adds	r1, r0, #0
 977 0030 0190     		str	r0, [sp, #4]
 978 0032 301C     		adds	r0, r6, #0
 979 0034 FFF7FEFF 		bl	__aeabi_fdiv
 980              	.LVL115:
 371:Generated_Source\PSoC6\pdl\drivers\peripheral\sysclk/cy_sysclk.c ****        (((float32_t)outputFreq / (float32_t)inputFreq) < 2.2f)) /* check output/input frequency rat
 981              		.loc 1 371 0 discriminator 1
 982 0038 AB49     		ldr	r1, .L105+8
 983 003a FFF7FEFF 		bl	__aeabi_fcmplt
 984              	.LVL116:
 985 003e 0028     		cmp	r0, #0
 986 0040 00D0     		beq	.LCB941
 987 0042 45E1     		b	.L93	@long jump
 988              	.LCB941:
 381:Generated_Source\PSoC6\pdl\drivers\peripheral\sysclk/cy_sysclk.c ****         {
 989              		.loc 1 381 0
 990 0044 022F     		cmp	r7, #2
 991 0046 00D1     		bne	.LCB943
 992 0048 34E1     		b	.L74	@long jump
 993              	.LCB943:
 994              	.LBB30:
 385:Generated_Source\PSoC6\pdl\drivers\peripheral\sysclk/cy_sysclk.c **** 
 995              		.loc 1 385 0
 996 004a FFF7FEFF 		bl	Cy_SysClk_ClkPathGetSource
 997              	.LVL117:
 998 004e 8046     		mov	r8, r0
 999              	.LVL118:
 387:Generated_Source\PSoC6\pdl\drivers\peripheral\sysclk/cy_sysclk.c ****             /* 1. Output division by 2 is always required. */
 1000              		.loc 1 387 0
 1001 0050 05AB     		add	r3, sp, #20
 1002 0052 9F73     		strb	r7, [r3, #14]
 389:Generated_Source\PSoC6\pdl\drivers\peripheral\sysclk/cy_sysclk.c ****             /* 2. Compute the target CCO frequency from the target output frequency and output divi
 1003              		.loc 1 389 0
 1004 0054 0122     		movs	r2, #1
 1005 0056 DA71     		strb	r2, [r3, #7]
 391:Generated_Source\PSoC6\pdl\drivers\peripheral\sysclk/cy_sysclk.c ****             /* 3. Compute the CCO range value from the CCO frequency */
 1006              		.loc 1 391 0
ARM GAS  C:\Users\tmj32\AppData\Local\Temp\cczBJdSj.s 			page 29


 1007 0058 6D00     		lsls	r5, r5, #1
 1008              	.LVL119:
 393:Generated_Source\PSoC6\pdl\drivers\peripheral\sysclk/cy_sysclk.c ****                                ((ccoFreq >= 113009380UL) ? CY_SYSCLK_FLL_CCO_RANGE3 :
 1009              		.loc 1 393 0
 1010 005a A44B     		ldr	r3, .L105+12
 1011 005c 9D42     		cmp	r5, r3
 1012 005e 0BD8     		bhi	.L94
 393:Generated_Source\PSoC6\pdl\drivers\peripheral\sysclk/cy_sysclk.c ****                                ((ccoFreq >= 113009380UL) ? CY_SYSCLK_FLL_CCO_RANGE3 :
 1013              		.loc 1 393 0 is_stmt 0 discriminator 1
 1014 0060 A34B     		ldr	r3, .L105+16
 1015 0062 9D42     		cmp	r5, r3
 1016 0064 0BD8     		bhi	.L95
 393:Generated_Source\PSoC6\pdl\drivers\peripheral\sysclk/cy_sysclk.c ****                                ((ccoFreq >= 113009380UL) ? CY_SYSCLK_FLL_CCO_RANGE3 :
 1017              		.loc 1 393 0 discriminator 3
 1018 0066 A34B     		ldr	r3, .L105+20
 1019 0068 9D42     		cmp	r5, r3
 1020 006a 0BD8     		bhi	.L96
 396:Generated_Source\PSoC6\pdl\drivers\peripheral\sysclk/cy_sysclk.c ****             {
 1021              		.loc 1 396 0 is_stmt 1 discriminator 5
 1022 006c A24B     		ldr	r3, .L105+24
 1023 006e AB42     		cmp	r3, r5
 1024 0070 9B41     		sbcs	r3, r3, r3
 1025 0072 5B42     		rsbs	r3, r3, #0
 1026 0074 9A46     		mov	r10, r3
 1027 0076 07E0     		b	.L75
 1028              	.L94:
 393:Generated_Source\PSoC6\pdl\drivers\peripheral\sysclk/cy_sysclk.c ****                                ((ccoFreq >= 113009380UL) ? CY_SYSCLK_FLL_CCO_RANGE3 :
 1029              		.loc 1 393 0
 1030 0078 0423     		movs	r3, #4
 1031 007a 9A46     		mov	r10, r3
 1032 007c 04E0     		b	.L75
 1033              	.L95:
 1034 007e 0323     		movs	r3, #3
 1035 0080 9A46     		mov	r10, r3
 1036 0082 01E0     		b	.L75
 1037              	.L96:
 1038 0084 0223     		movs	r3, #2
 1039 0086 9A46     		mov	r10, r3
 1040              	.L75:
 393:Generated_Source\PSoC6\pdl\drivers\peripheral\sysclk/cy_sysclk.c ****                                ((ccoFreq >= 113009380UL) ? CY_SYSCLK_FLL_CCO_RANGE3 :
 1041              		.loc 1 393 0 is_stmt 0 discriminator 12
 1042 0088 05AB     		add	r3, sp, #20
 1043 008a 5246     		mov	r2, r10
 1044 008c 9A71     		strb	r2, [r3, #6]
 1045              	.LBB31:
 399:Generated_Source\PSoC6\pdl\drivers\peripheral\sysclk/cy_sysclk.c ****                 const float32_t fMargin[] = {43600000.0f, 58100000.0f, 77200000.0f, 103000000.0f, 1
 1046              		.loc 1 399 0 is_stmt 1 discriminator 12
 1047 008e 0AA8     		add	r0, sp, #40
 1048              	.LVL120:
 1049 0090 9A4B     		ldr	r3, .L105+28
 1050 0092 0200     		movs	r2, r0
 1051 0094 1900     		movs	r1, r3
 1052 0096 C1C9     		ldmia	r1!, {r0, r6, r7}
 1053 0098 C1C2     		stmia	r2!, {r0, r6, r7}
 1054 009a 41C9     		ldmia	r1!, {r0, r6}
 1055 009c 41C2     		stmia	r2!, {r0, r6}
 400:Generated_Source\PSoC6\pdl\drivers\peripheral\sysclk/cy_sysclk.c **** 
ARM GAS  C:\Users\tmj32\AppData\Local\Temp\cczBJdSj.s 			page 30


 1056              		.loc 1 400 0 discriminator 12
 1057 009e 0FA9     		add	r1, sp, #60
 1058 00a0 0A00     		movs	r2, r1
 1059 00a2 1433     		adds	r3, r3, #20
 1060 00a4 43CB     		ldmia	r3!, {r0, r1, r6}
 1061 00a6 43C2     		stmia	r2!, {r0, r1, r6}
 1062 00a8 03CB     		ldmia	r3!, {r0, r1}
 1063 00aa 03C2     		stmia	r2!, {r0, r1}
 405:Generated_Source\PSoC6\pdl\drivers\peripheral\sysclk/cy_sysclk.c ****             /* 5. Compute the FLL multiplier value.
 1064              		.loc 1 405 0 discriminator 12
 1065 00ac 1223     		movs	r3, #18
 1066 00ae FF33     		adds	r3, r3, #255
 1067 00b0 9845     		cmp	r8, r3
 1068 00b2 0DD0     		beq	.L97
 405:Generated_Source\PSoC6\pdl\drivers\peripheral\sysclk/cy_sysclk.c ****             /* 5. Compute the FLL multiplier value.
 1069              		.loc 1 405 0 is_stmt 0 discriminator 2
 1070 00b4 0299     		ldr	r1, [sp, #8]
 1071 00b6 0198     		ldr	r0, [sp, #4]
 1072 00b8 FFF7FEFF 		bl	__aeabi_fdiv
 1073              	.LVL121:
 1074 00bc 9049     		ldr	r1, .L105+32
 1075 00be FFF7FEFF 		bl	__aeabi_fmul
 1076              	.LVL122:
 1077 00c2 FFF7FEFF 		bl	ceilf
 1078              	.LVL123:
 1079 00c6 FFF7FEFF 		bl	__aeabi_f2uiz
 1080              	.LVL124:
 1081 00ca 83B2     		uxth	r3, r0
 1082 00cc 9B46     		mov	fp, r3
 1083 00ce 01E0     		b	.L76
 1084              	.L97:
 405:Generated_Source\PSoC6\pdl\drivers\peripheral\sysclk/cy_sysclk.c ****             /* 5. Compute the FLL multiplier value.
 1085              		.loc 1 405 0
 1086 00d0 1323     		movs	r3, #19
 1087 00d2 9B46     		mov	fp, r3
 1088              	.L76:
 405:Generated_Source\PSoC6\pdl\drivers\peripheral\sysclk/cy_sysclk.c ****             /* 5. Compute the FLL multiplier value.
 1089              		.loc 1 405 0 discriminator 4
 1090 00d4 05AF     		add	r7, sp, #20
 1091 00d6 5B46     		mov	r3, fp
 1092 00d8 BB80     		strh	r3, [r7, #4]
 408:Generated_Source\PSoC6\pdl\drivers\peripheral\sysclk/cy_sysclk.c ****             /* 6. Compute the lock tolerance.
 1093              		.loc 1 408 0 is_stmt 1 discriminator 4
 1094 00da 5B46     		mov	r3, fp
 1095 00dc 5808     		lsrs	r0, r3, #1
 1096 00de 2018     		adds	r0, r4, r0
 1097 00e0 5946     		mov	r1, fp
 1098 00e2 FFF7FEFF 		bl	__aeabi_uidiv
 1099              	.LVL125:
 1100 00e6 0100     		movs	r1, r0
 1101 00e8 681E     		subs	r0, r5, #1
 1102 00ea FFF7FEFF 		bl	__aeabi_uidiv
 1103              	.LVL126:
 1104 00ee 0130     		adds	r0, r0, #1
 1105 00f0 0590     		str	r0, [sp, #20]
 414:Generated_Source\PSoC6\pdl\drivers\peripheral\sysclk/cy_sysclk.c ****             /* 7. Compute the CCO igain and pgain. */
 1106              		.loc 1 414 0 discriminator 4
ARM GAS  C:\Users\tmj32\AppData\Local\Temp\cczBJdSj.s 			page 31


 1107 00f2 FFF7FEFF 		bl	__aeabi_ui2f
 1108              	.LVL127:
 1109 00f6 8349     		ldr	r1, .L105+36
 1110 00f8 FFF7FEFF 		bl	__aeabi_fmul
 1111              	.LVL128:
 1112 00fc FFF7FEFF 		bl	ceilf
 1113              	.LVL129:
 1114 0100 FFF7FEFF 		bl	__aeabi_f2uiz
 1115              	.LVL130:
 1116 0104 3881     		strh	r0, [r7, #8]
 1117              	.LBB32:
 418:Generated_Source\PSoC6\pdl\drivers\peripheral\sysclk/cy_sysclk.c ****                     float32_t ki_p = (0.85f / (kcco * ((float32_t)(config.refDiv) / (float32_t)inpu
 1118              		.loc 1 418 0 discriminator 4
 1119 0106 5346     		mov	r3, r10
 1120 0108 9B00     		lsls	r3, r3, #2
 1121 010a 0AAA     		add	r2, sp, #40
 1122 010c 9858     		ldr	r0, [r3, r2]
 1123 010e 0FAA     		add	r2, sp, #60
 1124 0110 9B58     		ldr	r3, [r3, r2]
 1125 0112 0393     		str	r3, [sp, #12]
 1126 0114 191C     		adds	r1, r3, #0
 1127 0116 FFF7FEFF 		bl	__aeabi_fmul
 1128              	.LVL131:
 1129 011a 7B49     		ldr	r1, .L105+40
 1130 011c FFF7FEFF 		bl	__aeabi_fdiv
 1131              	.LVL132:
 1132 0120 041C     		adds	r4, r0, #0
 1133              	.LVL133:
 419:Generated_Source\PSoC6\pdl\drivers\peripheral\sysclk/cy_sysclk.c **** 
 1134              		.loc 1 419 0 discriminator 4
 1135 0122 5846     		mov	r0, fp
 1136              	.LVL134:
 1137 0124 FFF7FEFF 		bl	__aeabi_ui2f
 1138              	.LVL135:
 1139 0128 0199     		ldr	r1, [sp, #4]
 1140 012a FFF7FEFF 		bl	__aeabi_fdiv
 1141              	.LVL136:
 1142 012e 011C     		adds	r1, r0, #0
 1143 0130 201C     		adds	r0, r4, #0
 1144 0132 FFF7FEFF 		bl	__aeabi_fmul
 1145              	.LVL137:
 1146 0136 011C     		adds	r1, r0, #0
 1147 0138 7448     		ldr	r0, .L105+44
 1148 013a FFF7FEFF 		bl	__aeabi_fdiv
 1149              	.LVL138:
 1150 013e 7249     		ldr	r1, .L105+40
 1151 0140 FFF7FEFF 		bl	__aeabi_fdiv
 1152              	.LVL139:
 1153 0144 061C     		adds	r6, r0, #0
 1154              	.LVL140:
 422:Generated_Source\PSoC6\pdl\drivers\peripheral\sysclk/cy_sysclk.c ****                                                0.5f, 1.0f, 2.0f, 4.0f, 8.0f};
 1155              		.loc 1 422 0 discriminator 4
 1156 0146 14A9     		add	r1, sp, #80
 1157 0148 0A00     		movs	r2, r1
 1158 014a 6C4B     		ldr	r3, .L105+28
 1159 014c 2833     		adds	r3, r3, #40
 1160 014e 13CB     		ldmia	r3!, {r0, r1, r4}
ARM GAS  C:\Users\tmj32\AppData\Local\Temp\cczBJdSj.s 			page 32


 1161 0150 13C2     		stmia	r2!, {r0, r1, r4}
 1162              	.LVL141:
 1163 0152 13CB     		ldmia	r3!, {r0, r1, r4}
 1164 0154 13C2     		stmia	r2!, {r0, r1, r4}
 1165 0156 13CB     		ldmia	r3!, {r0, r1, r4}
 1166 0158 13C2     		stmia	r2!, {r0, r1, r4}
 1167 015a 13CB     		ldmia	r3!, {r0, r1, r4}
 1168 015c 13C2     		stmia	r2!, {r0, r1, r4}
 426:Generated_Source\PSoC6\pdl\drivers\peripheral\sysclk/cy_sysclk.c ****                         (gains[config.igain] > ki_p) && (config.igain != 0UL); config.igain--){}
 1169              		.loc 1 426 0 discriminator 4
 1170 015e 0B23     		movs	r3, #11
 1171 0160 BB72     		strb	r3, [r7, #10]
 1172 0162 02E0     		b	.L77
 1173              	.L80:
 427:Generated_Source\PSoC6\pdl\drivers\peripheral\sysclk/cy_sysclk.c ****                     /* decrement igain if the WCO is the FLL source */
 1174              		.loc 1 427 0 discriminator 1
 1175 0164 013F     		subs	r7, r7, #1
 1176 0166 05AB     		add	r3, sp, #20
 1177 0168 9F72     		strb	r7, [r3, #10]
 1178              	.L77:
 1179 016a 05AB     		add	r3, sp, #20
 1180 016c 9F7A     		ldrb	r7, [r3, #10]
 1181 016e BA00     		lsls	r2, r7, #2
 1182 0170 14AB     		add	r3, sp, #80
 1183 0172 D158     		ldr	r1, [r2, r3]
 426:Generated_Source\PSoC6\pdl\drivers\peripheral\sysclk/cy_sysclk.c ****                         (gains[config.igain] > ki_p) && (config.igain != 0UL); config.igain--){}
 1184              		.loc 1 426 0 discriminator 1
 1185 0174 301C     		adds	r0, r6, #0
 1186 0176 FFF7FEFF 		bl	__aeabi_fcmplt
 1187              	.LVL142:
 1188 017a 0028     		cmp	r0, #0
 1189 017c 01D0     		beq	.L78
 427:Generated_Source\PSoC6\pdl\drivers\peripheral\sysclk/cy_sysclk.c ****                     /* decrement igain if the WCO is the FLL source */
 1190              		.loc 1 427 0 discriminator 2
 1191 017e 002F     		cmp	r7, #0
 1192 0180 F0D1     		bne	.L80
 1193              	.L78:
 429:Generated_Source\PSoC6\pdl\drivers\peripheral\sysclk/cy_sysclk.c ****                     {
 1194              		.loc 1 429 0
 1195 0182 1223     		movs	r3, #18
 1196 0184 FF33     		adds	r3, r3, #255
 1197 0186 9845     		cmp	r8, r3
 1198 0188 04D1     		bne	.L81
 429:Generated_Source\PSoC6\pdl\drivers\peripheral\sysclk/cy_sysclk.c ****                     {
 1199              		.loc 1 429 0 is_stmt 0 discriminator 1
 1200 018a 002F     		cmp	r7, #0
 1201 018c 02D0     		beq	.L81
 431:Generated_Source\PSoC6\pdl\drivers\peripheral\sysclk/cy_sysclk.c ****                     }
 1202              		.loc 1 431 0 is_stmt 1
 1203 018e 013F     		subs	r7, r7, #1
 1204 0190 05AB     		add	r3, sp, #20
 1205 0192 9F72     		strb	r7, [r3, #10]
 1206              	.L81:
 434:Generated_Source\PSoC6\pdl\drivers\peripheral\sysclk/cy_sysclk.c ****                         (gains[config.pgain] > (ki_p - gains[config.igain])) && (config.pgain != 0U
 1207              		.loc 1 434 0
 1208 0194 0B22     		movs	r2, #11
 1209 0196 05AB     		add	r3, sp, #20
ARM GAS  C:\Users\tmj32\AppData\Local\Temp\cczBJdSj.s 			page 33


 1210 0198 DA72     		strb	r2, [r3, #11]
 1211 019a 02E0     		b	.L82
 1212              	.L85:
 436:Generated_Source\PSoC6\pdl\drivers\peripheral\sysclk/cy_sysclk.c ****                     /* decrement pgain if the WCO is the FLL source */
 1213              		.loc 1 436 0
 1214 019c 013F     		subs	r7, r7, #1
 1215 019e 05AB     		add	r3, sp, #20
 1216 01a0 DF72     		strb	r7, [r3, #11]
 1217              	.L82:
 435:Generated_Source\PSoC6\pdl\drivers\peripheral\sysclk/cy_sysclk.c ****                         config.pgain--){}
 1218              		.loc 1 435 0 discriminator 1
 1219 01a2 05AB     		add	r3, sp, #20
 1220 01a4 DF7A     		ldrb	r7, [r3, #11]
 1221 01a6 14AA     		add	r2, sp, #80
 1222 01a8 B900     		lsls	r1, r7, #2
 1223 01aa 8C58     		ldr	r4, [r1, r2]
 1224 01ac 9B7A     		ldrb	r3, [r3, #10]
 1225 01ae 9B00     		lsls	r3, r3, #2
 1226 01b0 9958     		ldr	r1, [r3, r2]
 1227 01b2 301C     		adds	r0, r6, #0
 1228 01b4 FFF7FEFF 		bl	__aeabi_fsub
 1229              	.LVL143:
 1230 01b8 011C     		adds	r1, r0, #0
 434:Generated_Source\PSoC6\pdl\drivers\peripheral\sysclk/cy_sysclk.c ****                         (gains[config.pgain] > (ki_p - gains[config.igain])) && (config.pgain != 0U
 1231              		.loc 1 434 0 discriminator 1
 1232 01ba 201C     		adds	r0, r4, #0
 1233 01bc FFF7FEFF 		bl	__aeabi_fcmpgt
 1234              	.LVL144:
 1235 01c0 0028     		cmp	r0, #0
 1236 01c2 01D0     		beq	.L83
 435:Generated_Source\PSoC6\pdl\drivers\peripheral\sysclk/cy_sysclk.c ****                         config.pgain--){}
 1237              		.loc 1 435 0
 1238 01c4 002F     		cmp	r7, #0
 1239 01c6 E9D1     		bne	.L85
 1240              	.L83:
 438:Generated_Source\PSoC6\pdl\drivers\peripheral\sysclk/cy_sysclk.c ****                     {
 1241              		.loc 1 438 0
 1242 01c8 1223     		movs	r3, #18
 1243 01ca FF33     		adds	r3, r3, #255
 1244 01cc 9845     		cmp	r8, r3
 1245 01ce 04D1     		bne	.L86
 438:Generated_Source\PSoC6\pdl\drivers\peripheral\sysclk/cy_sysclk.c ****                     {
 1246              		.loc 1 438 0 is_stmt 0 discriminator 1
 1247 01d0 002F     		cmp	r7, #0
 1248 01d2 02D0     		beq	.L86
 440:Generated_Source\PSoC6\pdl\drivers\peripheral\sysclk/cy_sysclk.c ****                     }
 1249              		.loc 1 440 0 is_stmt 1
 1250 01d4 013F     		subs	r7, r7, #1
 1251 01d6 05AB     		add	r3, sp, #20
 1252 01d8 DF72     		strb	r7, [r3, #11]
 1253              	.L86:
 1254              	.LBE32:
 444:Generated_Source\PSoC6\pdl\drivers\peripheral\sysclk/cy_sysclk.c ****                                                    log((float64_t)(1.0f + trimSteps[config.ccoRange
 1255              		.loc 1 444 0
 1256 01da 2800     		movs	r0, r5
 1257 01dc FFF7FEFF 		bl	__aeabi_ui2f
 1258              	.LVL145:
ARM GAS  C:\Users\tmj32\AppData\Local\Temp\cczBJdSj.s 			page 34


 1259 01e0 0399     		ldr	r1, [sp, #12]
 1260 01e2 FFF7FEFF 		bl	__aeabi_fdiv
 1261              	.LVL146:
 1262 01e6 FFF7FEFF 		bl	__aeabi_f2d
 1263              	.LVL147:
 1264 01ea FFF7FEFF 		bl	log
 1265              	.LVL148:
 1266 01ee 0500     		movs	r5, r0
 1267              	.LVL149:
 1268 01f0 0E00     		movs	r6, r1
 1269              	.LVL150:
 445:Generated_Source\PSoC6\pdl\drivers\peripheral\sysclk/cy_sysclk.c ****             }
 1270              		.loc 1 445 0
 1271 01f2 05AC     		add	r4, sp, #20
 1272 01f4 A379     		ldrb	r3, [r4, #6]
 1273 01f6 9B00     		lsls	r3, r3, #2
 1274 01f8 0AAA     		add	r2, sp, #40
 1275 01fa 9858     		ldr	r0, [r3, r2]
 1276 01fc FE21     		movs	r1, #254
 1277 01fe 8905     		lsls	r1, r1, #22
 1278 0200 FFF7FEFF 		bl	__aeabi_fadd
 1279              	.LVL151:
 1280 0204 FFF7FEFF 		bl	__aeabi_f2d
 1281              	.LVL152:
 1282 0208 FFF7FEFF 		bl	log
 1283              	.LVL153:
 1284 020c 0200     		movs	r2, r0
 1285 020e 0B00     		movs	r3, r1
 444:Generated_Source\PSoC6\pdl\drivers\peripheral\sysclk/cy_sysclk.c ****                                                    log((float64_t)(1.0f + trimSteps[config.ccoRange
 1286              		.loc 1 444 0
 1287 0210 2800     		movs	r0, r5
 1288 0212 3100     		movs	r1, r6
 1289 0214 FFF7FEFF 		bl	__aeabi_ddiv
 1290              	.LVL154:
 1291 0218 FFF7FEFF 		bl	floor
 1292              	.LVL155:
 1293 021c FFF7FEFF 		bl	__aeabi_d2uiz
 1294              	.LVL156:
 1295 0220 2082     		strh	r0, [r4, #16]
 1296              	.LBE31:
 1297              	.LBB33:
 450:Generated_Source\PSoC6\pdl\drivers\peripheral\sysclk/cy_sysclk.c ****                 float32_t testval = 6000.0f / (float32_t)outputFreq;
 1298              		.loc 1 450 0
 1299 0222 A088     		ldrh	r0, [r4, #4]
 1300 0224 FFF7FEFF 		bl	__aeabi_ui2f
 1301              	.LVL157:
 1302 0228 041C     		adds	r4, r0, #0
 1303 022a 3749     		ldr	r1, .L105+40
 1304 022c 019D     		ldr	r5, [sp, #4]
 1305 022e 281C     		adds	r0, r5, #0
 1306 0230 FFF7FEFF 		bl	__aeabi_fdiv
 1307              	.LVL158:
 1308 0234 011C     		adds	r1, r0, #0
 1309 0236 201C     		adds	r0, r4, #0
 1310 0238 FFF7FEFF 		bl	__aeabi_fdiv
 1311              	.LVL159:
 1312 023c 071C     		adds	r7, r0, #0
ARM GAS  C:\Users\tmj32\AppData\Local\Temp\cczBJdSj.s 			page 35


 1313              	.LVL160:
 451:Generated_Source\PSoC6\pdl\drivers\peripheral\sysclk/cy_sysclk.c ****                 float32_t divval  = (float32_t)ceil((float64_t)((float32_t)inputFreq * 0.000001f));
 1314              		.loc 1 451 0
 1315 023e 0299     		ldr	r1, [sp, #8]
 1316 0240 3348     		ldr	r0, .L105+48
 1317              	.LVL161:
 1318 0242 FFF7FEFF 		bl	__aeabi_fdiv
 1319              	.LVL162:
 1320 0246 061C     		adds	r6, r0, #0
 1321              	.LVL163:
 452:Generated_Source\PSoC6\pdl\drivers\peripheral\sysclk/cy_sysclk.c ****                 float32_t altval  = (float32_t)ceil((float64_t)((divval / ttref) + 1.0f));
 1322              		.loc 1 452 0
 1323 0248 3249     		ldr	r1, .L105+52
 1324 024a 281C     		adds	r0, r5, #0
 1325              	.LVL164:
 1326 024c FFF7FEFF 		bl	__aeabi_fmul
 1327              	.LVL165:
 1328 0250 FFF7FEFF 		bl	ceilf
 1329              	.LVL166:
 1330 0254 041C     		adds	r4, r0, #0
 1331              	.LVL167:
 453:Generated_Source\PSoC6\pdl\drivers\peripheral\sysclk/cy_sysclk.c ****                 config.settlingCount = wcoSource ? 200U : (uint16)
 1332              		.loc 1 453 0
 1333 0256 391C     		adds	r1, r7, #0
 1334 0258 FFF7FEFF 		bl	__aeabi_fdiv
 1335              	.LVL168:
 1336 025c FE21     		movs	r1, #254
 1337 025e 8905     		lsls	r1, r1, #22
 1338 0260 FFF7FEFF 		bl	__aeabi_fadd
 1339              	.LVL169:
 1340 0264 FFF7FEFF 		bl	ceilf
 1341              	.LVL170:
 1342 0268 051C     		adds	r5, r0, #0
 1343              	.LVL171:
 454:Generated_Source\PSoC6\pdl\drivers\peripheral\sysclk/cy_sysclk.c ****                               ((ttref > testval) ? divval :
 1344              		.loc 1 454 0
 1345 026a 1223     		movs	r3, #18
 1346 026c FF33     		adds	r3, r3, #255
 1347 026e 9845     		cmp	r8, r3
 1348 0270 1AD0     		beq	.L98
 454:Generated_Source\PSoC6\pdl\drivers\peripheral\sysclk/cy_sysclk.c ****                               ((ttref > testval) ? divval :
 1349              		.loc 1 454 0 is_stmt 0 discriminator 2
 1350 0272 311C     		adds	r1, r6, #0
 1351 0274 381C     		adds	r0, r7, #0
 1352              	.LVL172:
 1353 0276 FFF7FEFF 		bl	__aeabi_fcmpgt
 1354              	.LVL173:
 1355 027a 0028     		cmp	r0, #0
 1356 027c 04D0     		beq	.L103
 454:Generated_Source\PSoC6\pdl\drivers\peripheral\sysclk/cy_sysclk.c ****                               ((ttref > testval) ? divval :
 1357              		.loc 1 454 0 discriminator 4
 1358 027e 201C     		adds	r0, r4, #0
 1359 0280 FFF7FEFF 		bl	__aeabi_f2uiz
 1360              	.LVL174:
 1361 0284 83B2     		uxth	r3, r0
 1362 0286 10E0     		b	.L87
 1363              	.L103:
ARM GAS  C:\Users\tmj32\AppData\Local\Temp\cczBJdSj.s 			page 36


 454:Generated_Source\PSoC6\pdl\drivers\peripheral\sysclk/cy_sysclk.c ****                               ((ttref > testval) ? divval :
 1364              		.loc 1 454 0 discriminator 5
 1365 0288 291C     		adds	r1, r5, #0
 1366 028a 201C     		adds	r0, r4, #0
 1367 028c FFF7FEFF 		bl	__aeabi_fcmpgt
 1368              	.LVL175:
 1369 0290 0028     		cmp	r0, #0
 1370 0292 04D0     		beq	.L104
 454:Generated_Source\PSoC6\pdl\drivers\peripheral\sysclk/cy_sysclk.c ****                               ((ttref > testval) ? divval :
 1371              		.loc 1 454 0 discriminator 7
 1372 0294 201C     		adds	r0, r4, #0
 1373 0296 FFF7FEFF 		bl	__aeabi_f2uiz
 1374              	.LVL176:
 1375 029a 83B2     		uxth	r3, r0
 1376 029c 05E0     		b	.L87
 1377              	.L104:
 454:Generated_Source\PSoC6\pdl\drivers\peripheral\sysclk/cy_sysclk.c ****                               ((ttref > testval) ? divval :
 1378              		.loc 1 454 0 discriminator 8
 1379 029e 281C     		adds	r0, r5, #0
 1380 02a0 FFF7FEFF 		bl	__aeabi_f2uiz
 1381              	.LVL177:
 1382 02a4 83B2     		uxth	r3, r0
 1383 02a6 00E0     		b	.L87
 1384              	.LVL178:
 1385              	.L98:
 454:Generated_Source\PSoC6\pdl\drivers\peripheral\sysclk/cy_sysclk.c ****                               ((ttref > testval) ? divval :
 1386              		.loc 1 454 0
 1387 02a8 C823     		movs	r3, #200
 1388              	.LVL179:
 1389              	.L87:
 454:Generated_Source\PSoC6\pdl\drivers\peripheral\sysclk/cy_sysclk.c ****                               ((ttref > testval) ? divval :
 1390              		.loc 1 454 0 discriminator 12
 1391 02aa 05A8     		add	r0, sp, #20
 1392 02ac 8381     		strh	r3, [r0, #12]
 1393              	.LBE33:
 459:Generated_Source\PSoC6\pdl\drivers\peripheral\sysclk/cy_sysclk.c ****         } /* if not, bypass output mode */
 1394              		.loc 1 459 0 is_stmt 1 discriminator 12
 1395 02ae FFF7FEFF 		bl	Cy_SysClk_FllManualConfigure
 1396              	.LVL180:
 1397              	.LBE30:
 1398 02b2 0EE0     		b	.L73
 1399              	.LVL181:
 1400              	.L74:
 464:Generated_Source\PSoC6\pdl\drivers\peripheral\sysclk/cy_sysclk.c ****         }
 1401              		.loc 1 464 0
 1402 02b4 1849     		ldr	r1, .L105+56
 1403 02b6 B122     		movs	r2, #177
 1404 02b8 D200     		lsls	r2, r2, #3
 1405 02ba 8858     		ldr	r0, [r1, r2]
 1406 02bc 174B     		ldr	r3, .L105+60
 1407 02be 0340     		ands	r3, r0
 1408 02c0 8020     		movs	r0, #128
 1409 02c2 8005     		lsls	r0, r0, #22
 1410 02c4 0343     		orrs	r3, r0
 1411 02c6 8B50     		str	r3, [r1, r2]
 368:Generated_Source\PSoC6\pdl\drivers\peripheral\sysclk/cy_sysclk.c **** 
 1412              		.loc 1 368 0
ARM GAS  C:\Users\tmj32\AppData\Local\Temp\cczBJdSj.s 			page 37


 1413 02c8 0020     		movs	r0, #0
 1414 02ca 02E0     		b	.L73
 1415              	.LVL182:
 1416              	.L92:
 374:Generated_Source\PSoC6\pdl\drivers\peripheral\sysclk/cy_sysclk.c ****     }
 1417              		.loc 1 374 0
 1418 02cc 1448     		ldr	r0, .L105+64
 1419              	.LVL183:
 1420 02ce 00E0     		b	.L73
 1421              	.LVL184:
 1422              	.L93:
 1423 02d0 1348     		ldr	r0, .L105+64
 1424              	.LVL185:
 1425              	.L73:
 469:Generated_Source\PSoC6\pdl\drivers\peripheral\sysclk/cy_sysclk.c **** 
 1426              		.loc 1 469 0
 1427 02d2 20B0     		add	sp, sp, #128
 1428              		@ sp needed
 1429 02d4 1CBC     		pop	{r2, r3, r4}
 1430 02d6 9046     		mov	r8, r2
 1431 02d8 9A46     		mov	r10, r3
 1432 02da A346     		mov	fp, r4
 1433 02dc F0BD     		pop	{r4, r5, r6, r7, pc}
 1434              	.L106:
 1435 02de C046     		.align	2
 1436              	.L105:
 1437 02e0 00CA91FE 		.word	-24000000
 1438 02e4 00AB8704 		.word	76000000
 1439 02e8 CDCC0C40 		.word	1074580685
 1440 02ec 7FFEF508 		.word	150339199
 1441 02f0 E362BC06 		.word	113009379
 1442 02f4 DB361005 		.word	84948699
 1443 02f8 EF5BCE03 		.word	63855599
 1444 02fc 00000000 		.word	.LANCHOR0
 1445 0300 00007A43 		.word	1132068864
 1446 0304 F6259B3C 		.word	1016800758
 1447 0308 00007A44 		.word	1148846080
 1448 030c 9A99593F 		.word	1062836634
 1449 0310 0080BB45 		.word	1169915904
 1450 0314 BD378635 		.word	897988541
 1451 0318 00002640 		.word	1076232192
 1452 031c FFFFFFCF 		.word	-805306369
 1453 0320 01004A00 		.word	4849665
 1454              		.cfi_endproc
 1455              	.LFE161:
 1456              		.size	Cy_SysClk_FllConfigure, .-Cy_SysClk_FllConfigure
 1457              		.section	.text.Cy_SysClk_FllGetConfiguration,"ax",%progbits
 1458              		.align	2
 1459              		.global	Cy_SysClk_FllGetConfiguration
 1460              		.code	16
 1461              		.thumb_func
 1462              		.type	Cy_SysClk_FllGetConfiguration, %function
 1463              	Cy_SysClk_FllGetConfiguration:
 1464              	.LFB163:
 556:Generated_Source\PSoC6\pdl\drivers\peripheral\sysclk/cy_sysclk.c **** 
 557:Generated_Source\PSoC6\pdl\drivers\peripheral\sysclk/cy_sysclk.c **** /*******************************************************************************
 558:Generated_Source\PSoC6\pdl\drivers\peripheral\sysclk/cy_sysclk.c **** * Function Name: Cy_SysClk_FllGetConfiguration
ARM GAS  C:\Users\tmj32\AppData\Local\Temp\cczBJdSj.s 			page 38


 559:Generated_Source\PSoC6\pdl\drivers\peripheral\sysclk/cy_sysclk.c **** ****************************************************************************//**
 560:Generated_Source\PSoC6\pdl\drivers\peripheral\sysclk/cy_sysclk.c **** *
 561:Generated_Source\PSoC6\pdl\drivers\peripheral\sysclk/cy_sysclk.c **** * Reports the FLL configuration settings.
 562:Generated_Source\PSoC6\pdl\drivers\peripheral\sysclk/cy_sysclk.c **** *
 563:Generated_Source\PSoC6\pdl\drivers\peripheral\sysclk/cy_sysclk.c **** * \param config \ref cy_stc_fll_manual_config_t
 564:Generated_Source\PSoC6\pdl\drivers\peripheral\sysclk/cy_sysclk.c **** *
 565:Generated_Source\PSoC6\pdl\drivers\peripheral\sysclk/cy_sysclk.c **** * \funcusage
 566:Generated_Source\PSoC6\pdl\drivers\peripheral\sysclk/cy_sysclk.c **** * \snippet sysclk/1.20/snippet/main.c snippet_Cy_SysClk_FllGetConfiguration
 567:Generated_Source\PSoC6\pdl\drivers\peripheral\sysclk/cy_sysclk.c **** *
 568:Generated_Source\PSoC6\pdl\drivers\peripheral\sysclk/cy_sysclk.c **** *******************************************************************************/
 569:Generated_Source\PSoC6\pdl\drivers\peripheral\sysclk/cy_sysclk.c **** void Cy_SysClk_FllGetConfiguration(cy_stc_fll_manual_config_t *config)
 570:Generated_Source\PSoC6\pdl\drivers\peripheral\sysclk/cy_sysclk.c **** {
 1465              		.loc 1 570 0
 1466              		.cfi_startproc
 1467              		@ args = 0, pretend = 0, frame = 0
 1468              		@ frame_needed = 0, uses_anonymous_args = 0
 1469              	.LVL186:
 1470 0000 10B5     		push	{r4, lr}
 1471              		.cfi_def_cfa_offset 8
 1472              		.cfi_offset 4, -8
 1473              		.cfi_offset 14, -4
 1474 0002 041E     		subs	r4, r0, #0
 571:Generated_Source\PSoC6\pdl\drivers\peripheral\sysclk/cy_sysclk.c ****     CY_ASSERT_L1(config != NULL);
 1475              		.loc 1 571 0
 1476 0004 03D1     		bne	.L108
 1477              		.loc 1 571 0 is_stmt 0 discriminator 1
 1478 0006 1949     		ldr	r1, .L109
 1479 0008 1948     		ldr	r0, .L109+4
 1480              	.LVL187:
 1481 000a FFF7FEFF 		bl	Cy_SysLib_AssertFailed
 1482              	.LVL188:
 1483              	.L108:
 572:Generated_Source\PSoC6\pdl\drivers\peripheral\sysclk/cy_sysclk.c ****     /* read 2 parameters from CLK_FLL_CONFIG register */
 573:Generated_Source\PSoC6\pdl\drivers\peripheral\sysclk/cy_sysclk.c ****     uint32_t tempReg = SRSS_CLK_FLL_CONFIG;
 1484              		.loc 1 573 0 is_stmt 1
 1485 000e 1949     		ldr	r1, .L109+8
 1486 0010 B023     		movs	r3, #176
 1487 0012 DB00     		lsls	r3, r3, #3
 1488 0014 C858     		ldr	r0, [r1, r3]
 1489              	.LVL189:
 574:Generated_Source\PSoC6\pdl\drivers\peripheral\sysclk/cy_sysclk.c ****     config->fllMult         = _FLD2VAL(SRSS_CLK_FLL_CONFIG_FLL_MULT, tempReg);
 1490              		.loc 1 574 0
 1491 0016 8203     		lsls	r2, r0, #14
 1492 0018 920B     		lsrs	r2, r2, #14
 1493 001a 2260     		str	r2, [r4]
 575:Generated_Source\PSoC6\pdl\drivers\peripheral\sysclk/cy_sysclk.c ****     config->enableOutputDiv = _FLD2BOOL(SRSS_CLK_FLL_CONFIG_FLL_OUTPUT_DIV, tempReg);
 1494              		.loc 1 575 0
 1495 001c 8023     		movs	r3, #128
 1496 001e 5B04     		lsls	r3, r3, #17
 1497 0020 0340     		ands	r3, r0
 1498 0022 5A1E     		subs	r2, r3, #1
 1499 0024 9341     		sbcs	r3, r3, r2
 1500 0026 E371     		strb	r3, [r4, #7]
 576:Generated_Source\PSoC6\pdl\drivers\peripheral\sysclk/cy_sysclk.c ****     /* read 2 parameters from CLK_FLL_CONFIG2 register */
 577:Generated_Source\PSoC6\pdl\drivers\peripheral\sysclk/cy_sysclk.c ****     tempReg = SRSS_CLK_FLL_CONFIG2;
 1501              		.loc 1 577 0
 1502 0028 134B     		ldr	r3, .L109+12
ARM GAS  C:\Users\tmj32\AppData\Local\Temp\cczBJdSj.s 			page 39


 1503 002a CB58     		ldr	r3, [r1, r3]
 1504              	.LVL190:
 578:Generated_Source\PSoC6\pdl\drivers\peripheral\sysclk/cy_sysclk.c ****     config->refDiv          = (uint16_t)_FLD2VAL(SRSS_CLK_FLL_CONFIG2_FLL_REF_DIV, tempReg);
 1505              		.loc 1 578 0
 1506 002c DA04     		lsls	r2, r3, #19
 1507 002e D20C     		lsrs	r2, r2, #19
 1508 0030 A280     		strh	r2, [r4, #4]
 579:Generated_Source\PSoC6\pdl\drivers\peripheral\sysclk/cy_sysclk.c ****     config->lockTolerance   = (uint16_t)_FLD2VAL(SRSS_CLK_FLL_CONFIG2_LOCK_TOL, tempReg);
 1509              		.loc 1 579 0
 1510 0032 1B0C     		lsrs	r3, r3, #16
 1511              	.LVL191:
 1512 0034 DB05     		lsls	r3, r3, #23
 1513 0036 DB0D     		lsrs	r3, r3, #23
 1514 0038 2381     		strh	r3, [r4, #8]
 580:Generated_Source\PSoC6\pdl\drivers\peripheral\sysclk/cy_sysclk.c ****     /* read 4 parameters from CLK_FLL_CONFIG3 register */
 581:Generated_Source\PSoC6\pdl\drivers\peripheral\sysclk/cy_sysclk.c ****     tempReg = SRSS_CLK_FLL_CONFIG3;
 1515              		.loc 1 581 0
 1516 003a B123     		movs	r3, #177
 1517 003c DB00     		lsls	r3, r3, #3
 1518 003e CB58     		ldr	r3, [r1, r3]
 1519              	.LVL192:
 582:Generated_Source\PSoC6\pdl\drivers\peripheral\sysclk/cy_sysclk.c ****     config->igain           = (uint8_t)_FLD2VAL(SRSS_CLK_FLL_CONFIG3_FLL_LF_IGAIN, tempReg);
 1520              		.loc 1 582 0
 1521 0040 0F20     		movs	r0, #15
 1522 0042 0200     		movs	r2, r0
 1523 0044 1A40     		ands	r2, r3
 1524 0046 A272     		strb	r2, [r4, #10]
 583:Generated_Source\PSoC6\pdl\drivers\peripheral\sysclk/cy_sysclk.c ****     config->pgain           = (uint8_t)_FLD2VAL(SRSS_CLK_FLL_CONFIG3_FLL_LF_PGAIN, tempReg);
 1525              		.loc 1 583 0
 1526 0048 1A09     		lsrs	r2, r3, #4
 1527 004a 0240     		ands	r2, r0
 1528 004c E272     		strb	r2, [r4, #11]
 584:Generated_Source\PSoC6\pdl\drivers\peripheral\sysclk/cy_sysclk.c ****     config->settlingCount   = (uint16_t)_FLD2VAL(SRSS_CLK_FLL_CONFIG3_SETTLING_COUNT, tempReg);
 1529              		.loc 1 584 0
 1530 004e 1A0A     		lsrs	r2, r3, #8
 1531 0050 D204     		lsls	r2, r2, #19
 1532 0052 D20C     		lsrs	r2, r2, #19
 1533 0054 A281     		strh	r2, [r4, #12]
 585:Generated_Source\PSoC6\pdl\drivers\peripheral\sysclk/cy_sysclk.c ****     config->outputMode      = (cy_en_fll_pll_output_mode_t)_FLD2VAL(SRSS_CLK_FLL_CONFIG3_BYPASS_SEL
 1534              		.loc 1 585 0
 1535 0056 1B0F     		lsrs	r3, r3, #28
 1536              	.LVL193:
 1537 0058 0322     		movs	r2, #3
 1538 005a 1340     		ands	r3, r2
 1539 005c A373     		strb	r3, [r4, #14]
 586:Generated_Source\PSoC6\pdl\drivers\peripheral\sysclk/cy_sysclk.c ****     /* read 1 parameter from CLK_FLL_CONFIG4 register */
 587:Generated_Source\PSoC6\pdl\drivers\peripheral\sysclk/cy_sysclk.c ****     config->ccoRange        = (cy_en_fll_cco_ranges_t)_FLD2VAL(SRSS_CLK_FLL_CONFIG4_CCO_RANGE, SRSS
 1540              		.loc 1 587 0
 1541 005e 074B     		ldr	r3, .L109+16
 1542 0060 CB58     		ldr	r3, [r1, r3]
 1543 0062 1B0A     		lsrs	r3, r3, #8
 1544 0064 0432     		adds	r2, r2, #4
 1545 0066 1340     		ands	r3, r2
 1546 0068 A371     		strb	r3, [r4, #6]
 588:Generated_Source\PSoC6\pdl\drivers\peripheral\sysclk/cy_sysclk.c **** }
 1547              		.loc 1 588 0
 1548              		@ sp needed
ARM GAS  C:\Users\tmj32\AppData\Local\Temp\cczBJdSj.s 			page 40


 1549              	.LVL194:
 1550 006a 10BD     		pop	{r4, pc}
 1551              	.L110:
 1552              		.align	2
 1553              	.L109:
 1554 006c 3B020000 		.word	571
 1555 0070 00000000 		.word	.LC5
 1556 0074 00002640 		.word	1076232192
 1557 0078 84050000 		.word	1412
 1558 007c 8C050000 		.word	1420
 1559              		.cfi_endproc
 1560              	.LFE163:
 1561              		.size	Cy_SysClk_FllGetConfiguration, .-Cy_SysClk_FllGetConfiguration
 1562              		.section	.text.Cy_SysClk_FllEnable,"ax",%progbits
 1563              		.align	2
 1564              		.global	Cy_SysClk_FllEnable
 1565              		.code	16
 1566              		.thumb_func
 1567              		.type	Cy_SysClk_FllEnable, %function
 1568              	Cy_SysClk_FllEnable:
 1569              	.LFB164:
 589:Generated_Source\PSoC6\pdl\drivers\peripheral\sysclk/cy_sysclk.c **** 
 590:Generated_Source\PSoC6\pdl\drivers\peripheral\sysclk/cy_sysclk.c **** /*******************************************************************************
 591:Generated_Source\PSoC6\pdl\drivers\peripheral\sysclk/cy_sysclk.c **** * Function Name: Cy_SysClk_FllEnable
 592:Generated_Source\PSoC6\pdl\drivers\peripheral\sysclk/cy_sysclk.c **** ****************************************************************************//**
 593:Generated_Source\PSoC6\pdl\drivers\peripheral\sysclk/cy_sysclk.c **** *
 594:Generated_Source\PSoC6\pdl\drivers\peripheral\sysclk/cy_sysclk.c **** * Enables the FLL. The FLL should be configured before calling this function.
 595:Generated_Source\PSoC6\pdl\drivers\peripheral\sysclk/cy_sysclk.c **** *
 596:Generated_Source\PSoC6\pdl\drivers\peripheral\sysclk/cy_sysclk.c **** * \param timeoutus Amount of time in micro seconds to wait for FLL to lock.
 597:Generated_Source\PSoC6\pdl\drivers\peripheral\sysclk/cy_sysclk.c **** * If lock doesn't occur, the FLL is stopped. To avoid waiting for lock, set this to 0
 598:Generated_Source\PSoC6\pdl\drivers\peripheral\sysclk/cy_sysclk.c **** * and manually check for lock using \ref Cy_SysClk_FllLocked.
 599:Generated_Source\PSoC6\pdl\drivers\peripheral\sysclk/cy_sysclk.c **** *
 600:Generated_Source\PSoC6\pdl\drivers\peripheral\sysclk/cy_sysclk.c **** * \return Error / status code:<br>
 601:Generated_Source\PSoC6\pdl\drivers\peripheral\sysclk/cy_sysclk.c **** * CY_SYSCLK_SUCCESS - FLL successfully enabled<br>
 602:Generated_Source\PSoC6\pdl\drivers\peripheral\sysclk/cy_sysclk.c **** * CY_SYSCLK_TIMEOUT - Timeout waiting for FLL lock
 603:Generated_Source\PSoC6\pdl\drivers\peripheral\sysclk/cy_sysclk.c **** *
 604:Generated_Source\PSoC6\pdl\drivers\peripheral\sysclk/cy_sysclk.c **** * \note
 605:Generated_Source\PSoC6\pdl\drivers\peripheral\sysclk/cy_sysclk.c **** * While waiting for the FLL to lock, the FLL bypass mode is set to \ref CY_SYSCLK_FLLPLL_OUTPUT_INP
 606:Generated_Source\PSoC6\pdl\drivers\peripheral\sysclk/cy_sysclk.c **** * After the FLL is locked, the FLL bypass mdoe is then set to \ref CY_SYSCLK_FLLPLL_OUTPUT_OUTPUT.
 607:Generated_Source\PSoC6\pdl\drivers\peripheral\sysclk/cy_sysclk.c **** *
 608:Generated_Source\PSoC6\pdl\drivers\peripheral\sysclk/cy_sysclk.c **** * \note 
 609:Generated_Source\PSoC6\pdl\drivers\peripheral\sysclk/cy_sysclk.c **** * Call \ref SystemCoreClockUpdate after calling this function  
 610:Generated_Source\PSoC6\pdl\drivers\peripheral\sysclk/cy_sysclk.c **** * if it affects the CLK_HF0 frequency.
 611:Generated_Source\PSoC6\pdl\drivers\peripheral\sysclk/cy_sysclk.c **** *
 612:Generated_Source\PSoC6\pdl\drivers\peripheral\sysclk/cy_sysclk.c **** * \note 
 613:Generated_Source\PSoC6\pdl\drivers\peripheral\sysclk/cy_sysclk.c **** * Call \ref Cy_SysLib_SetWaitStates before calling this function if
 614:Generated_Source\PSoC6\pdl\drivers\peripheral\sysclk/cy_sysclk.c **** * the FLL is the source of CLK_HF0 and the CLK_HF0 frequency is increasing.
 615:Generated_Source\PSoC6\pdl\drivers\peripheral\sysclk/cy_sysclk.c **** *
 616:Generated_Source\PSoC6\pdl\drivers\peripheral\sysclk/cy_sysclk.c **** * \funcusage
 617:Generated_Source\PSoC6\pdl\drivers\peripheral\sysclk/cy_sysclk.c **** * \snippet sysclk/1.20/snippet/main.c snippet_Cy_SysClk_FllEnable
 618:Generated_Source\PSoC6\pdl\drivers\peripheral\sysclk/cy_sysclk.c **** *
 619:Generated_Source\PSoC6\pdl\drivers\peripheral\sysclk/cy_sysclk.c **** *******************************************************************************/
 620:Generated_Source\PSoC6\pdl\drivers\peripheral\sysclk/cy_sysclk.c **** cy_en_sysclk_status_t Cy_SysClk_FllEnable(uint32_t timeoutus)
 621:Generated_Source\PSoC6\pdl\drivers\peripheral\sysclk/cy_sysclk.c **** {
 1570              		.loc 1 621 0
 1571              		.cfi_startproc
 1572              		@ args = 0, pretend = 0, frame = 0
ARM GAS  C:\Users\tmj32\AppData\Local\Temp\cczBJdSj.s 			page 41


 1573              		@ frame_needed = 0, uses_anonymous_args = 0
 1574              	.LVL195:
 1575 0000 70B5     		push	{r4, r5, r6, lr}
 1576              		.cfi_def_cfa_offset 16
 1577              		.cfi_offset 4, -16
 1578              		.cfi_offset 5, -12
 1579              		.cfi_offset 6, -8
 1580              		.cfi_offset 14, -4
 1581 0002 0500     		movs	r5, r0
 1582              	.LVL196:
 622:Generated_Source\PSoC6\pdl\drivers\peripheral\sysclk/cy_sysclk.c ****     bool zeroTimeout = (0UL == timeoutus);
 623:Generated_Source\PSoC6\pdl\drivers\peripheral\sysclk/cy_sysclk.c **** 
 624:Generated_Source\PSoC6\pdl\drivers\peripheral\sysclk/cy_sysclk.c ****     /* first set the CCO enable bit */
 625:Generated_Source\PSoC6\pdl\drivers\peripheral\sysclk/cy_sysclk.c ****     SRSS_CLK_FLL_CONFIG4 |= SRSS_CLK_FLL_CONFIG4_CCO_ENABLE_Msk;
 1583              		.loc 1 625 0
 1584 0004 3149     		ldr	r1, .L126
 1585 0006 324A     		ldr	r2, .L126+4
 1586 0008 8B58     		ldr	r3, [r1, r2]
 1587 000a 8020     		movs	r0, #128
 1588              	.LVL197:
 1589 000c 0006     		lsls	r0, r0, #24
 1590 000e 0343     		orrs	r3, r0
 1591 0010 8B50     		str	r3, [r1, r2]
 626:Generated_Source\PSoC6\pdl\drivers\peripheral\sysclk/cy_sysclk.c **** 
 627:Generated_Source\PSoC6\pdl\drivers\peripheral\sysclk/cy_sysclk.c ****     /* Wait until CCO is ready */
 628:Generated_Source\PSoC6\pdl\drivers\peripheral\sysclk/cy_sysclk.c ****     for (; (!_FLD2BOOL(SRSS_CLK_FLL_STATUS_CCO_READY, SRSS_CLK_FLL_STATUS)) && /* if cco_ready == 0
 1592              		.loc 1 628 0
 1593 0012 2C00     		movs	r4, r5
 1594 0014 03E0     		b	.L112
 1595              	.LVL198:
 1596              	.L114:
 629:Generated_Source\PSoC6\pdl\drivers\peripheral\sysclk/cy_sysclk.c ****            (0UL != timeoutus);
 630:Generated_Source\PSoC6\pdl\drivers\peripheral\sysclk/cy_sysclk.c ****          timeoutus--)
 631:Generated_Source\PSoC6\pdl\drivers\peripheral\sysclk/cy_sysclk.c ****     {
 632:Generated_Source\PSoC6\pdl\drivers\peripheral\sysclk/cy_sysclk.c ****         Cy_SysLib_DelayUs(1U);
 1597              		.loc 1 632 0
 1598 0016 0120     		movs	r0, #1
 1599 0018 FFF7FEFF 		bl	Cy_SysLib_DelayUs
 1600              	.LVL199:
 630:Generated_Source\PSoC6\pdl\drivers\peripheral\sysclk/cy_sysclk.c ****     {
 1601              		.loc 1 630 0
 1602 001c 013C     		subs	r4, r4, #1
 1603              	.LVL200:
 1604              	.L112:
 628:Generated_Source\PSoC6\pdl\drivers\peripheral\sysclk/cy_sysclk.c ****            (0UL != timeoutus);
 1605              		.loc 1 628 0
 1606 001e B223     		movs	r3, #178
 1607 0020 DB00     		lsls	r3, r3, #3
 1608 0022 2A4A     		ldr	r2, .L126
 1609 0024 D358     		ldr	r3, [r2, r3]
 1610 0026 5B07     		lsls	r3, r3, #29
 1611 0028 01D4     		bmi	.L113
 628:Generated_Source\PSoC6\pdl\drivers\peripheral\sysclk/cy_sysclk.c ****            (0UL != timeoutus);
 1612              		.loc 1 628 0 is_stmt 0 discriminator 1
 1613 002a 002C     		cmp	r4, #0
 1614 002c F3D1     		bne	.L114
 1615              	.L113:
ARM GAS  C:\Users\tmj32\AppData\Local\Temp\cczBJdSj.s 			page 42


 633:Generated_Source\PSoC6\pdl\drivers\peripheral\sysclk/cy_sysclk.c ****     }
 634:Generated_Source\PSoC6\pdl\drivers\peripheral\sysclk/cy_sysclk.c **** 
 635:Generated_Source\PSoC6\pdl\drivers\peripheral\sysclk/cy_sysclk.c ****     /* Set the FLL bypass mode to FLL_REF */
 636:Generated_Source\PSoC6\pdl\drivers\peripheral\sysclk/cy_sysclk.c ****     CY_REG32_CLR_SET(SRSS_CLK_FLL_CONFIG3, SRSS_CLK_FLL_CONFIG3_BYPASS_SEL, CY_SYSCLK_FLLPLL_OUTPUT
 1616              		.loc 1 636 0 is_stmt 1
 1617 002e 2749     		ldr	r1, .L126
 1618 0030 B122     		movs	r2, #177
 1619 0032 D200     		lsls	r2, r2, #3
 1620 0034 8858     		ldr	r0, [r1, r2]
 1621 0036 274B     		ldr	r3, .L126+8
 1622 0038 0340     		ands	r3, r0
 1623 003a 8020     		movs	r0, #128
 1624 003c 8005     		lsls	r0, r0, #22
 1625 003e 0343     		orrs	r3, r0
 1626 0040 8B50     		str	r3, [r1, r2]
 637:Generated_Source\PSoC6\pdl\drivers\peripheral\sysclk/cy_sysclk.c **** 
 638:Generated_Source\PSoC6\pdl\drivers\peripheral\sysclk/cy_sysclk.c ****     /* Set the FLL enable bit, if CCO is ready */
 639:Generated_Source\PSoC6\pdl\drivers\peripheral\sysclk/cy_sysclk.c ****     if (zeroTimeout || (0UL != timeoutus))
 1627              		.loc 1 639 0
 1628 0042 002D     		cmp	r5, #0
 1629 0044 01D0     		beq	.L115
 1630              		.loc 1 639 0 is_stmt 0 discriminator 1
 1631 0046 002C     		cmp	r4, #0
 1632 0048 0CD0     		beq	.L117
 1633              	.L115:
 640:Generated_Source\PSoC6\pdl\drivers\peripheral\sysclk/cy_sysclk.c ****     {
 641:Generated_Source\PSoC6\pdl\drivers\peripheral\sysclk/cy_sysclk.c ****         SRSS_CLK_FLL_CONFIG |= SRSS_CLK_FLL_CONFIG_FLL_ENABLE_Msk;
 1634              		.loc 1 641 0 is_stmt 1
 1635 004a 2049     		ldr	r1, .L126
 1636 004c B022     		movs	r2, #176
 1637 004e D200     		lsls	r2, r2, #3
 1638 0050 8B58     		ldr	r3, [r1, r2]
 1639 0052 8020     		movs	r0, #128
 1640 0054 0006     		lsls	r0, r0, #24
 1641 0056 0343     		orrs	r3, r0
 1642 0058 8B50     		str	r3, [r1, r2]
 1643 005a 03E0     		b	.L117
 1644              	.L119:
 642:Generated_Source\PSoC6\pdl\drivers\peripheral\sysclk/cy_sysclk.c ****     }
 643:Generated_Source\PSoC6\pdl\drivers\peripheral\sysclk/cy_sysclk.c **** 
 644:Generated_Source\PSoC6\pdl\drivers\peripheral\sysclk/cy_sysclk.c ****     /* now do the timeout wait for FLL_STATUS, bit LOCKED */
 645:Generated_Source\PSoC6\pdl\drivers\peripheral\sysclk/cy_sysclk.c ****     for (; (!Cy_SysClk_FllLocked()) && /* if locked == 0 */
 646:Generated_Source\PSoC6\pdl\drivers\peripheral\sysclk/cy_sysclk.c ****            (0UL != timeoutus);
 647:Generated_Source\PSoC6\pdl\drivers\peripheral\sysclk/cy_sysclk.c ****          timeoutus--)
 648:Generated_Source\PSoC6\pdl\drivers\peripheral\sysclk/cy_sysclk.c ****     {
 649:Generated_Source\PSoC6\pdl\drivers\peripheral\sysclk/cy_sysclk.c ****         Cy_SysLib_DelayUs(1U);
 1645              		.loc 1 649 0
 1646 005c 0120     		movs	r0, #1
 1647 005e FFF7FEFF 		bl	Cy_SysLib_DelayUs
 1648              	.LVL201:
 647:Generated_Source\PSoC6\pdl\drivers\peripheral\sysclk/cy_sysclk.c ****     {
 1649              		.loc 1 647 0
 1650 0062 013C     		subs	r4, r4, #1
 1651              	.LVL202:
 1652              	.L117:
 1653              	.LBB34:
 1654              	.LBB35:
ARM GAS  C:\Users\tmj32\AppData\Local\Temp\cczBJdSj.s 			page 43


 1655              		.file 2 "Generated_Source\\PSoC6\\pdl\\drivers\\peripheral\\sysclk\\cy_sysclk.h"
   1:Generated_Source\PSoC6\pdl\drivers\peripheral\sysclk/cy_sysclk.h **** /***************************************************************************//**
   2:Generated_Source\PSoC6\pdl\drivers\peripheral\sysclk/cy_sysclk.h **** * \file cy_sysclk.h
   3:Generated_Source\PSoC6\pdl\drivers\peripheral\sysclk/cy_sysclk.h **** * \version 1.20
   4:Generated_Source\PSoC6\pdl\drivers\peripheral\sysclk/cy_sysclk.h **** *
   5:Generated_Source\PSoC6\pdl\drivers\peripheral\sysclk/cy_sysclk.h **** * Provides an API declaration of the sysclk driver.
   6:Generated_Source\PSoC6\pdl\drivers\peripheral\sysclk/cy_sysclk.h **** *
   7:Generated_Source\PSoC6\pdl\drivers\peripheral\sysclk/cy_sysclk.h **** ********************************************************************************
   8:Generated_Source\PSoC6\pdl\drivers\peripheral\sysclk/cy_sysclk.h **** * \copyright
   9:Generated_Source\PSoC6\pdl\drivers\peripheral\sysclk/cy_sysclk.h **** * Copyright 2016-2018, Cypress Semiconductor Corporation. All rights reserved.
  10:Generated_Source\PSoC6\pdl\drivers\peripheral\sysclk/cy_sysclk.h **** * You may use this file only in accordance with the license, terms, conditions,
  11:Generated_Source\PSoC6\pdl\drivers\peripheral\sysclk/cy_sysclk.h **** * disclaimers, and limitations in the end user license agreement accompanying
  12:Generated_Source\PSoC6\pdl\drivers\peripheral\sysclk/cy_sysclk.h **** * the software package with which this file was provided.
  13:Generated_Source\PSoC6\pdl\drivers\peripheral\sysclk/cy_sysclk.h **** *******************************************************************************/
  14:Generated_Source\PSoC6\pdl\drivers\peripheral\sysclk/cy_sysclk.h **** 
  15:Generated_Source\PSoC6\pdl\drivers\peripheral\sysclk/cy_sysclk.h **** /**
  16:Generated_Source\PSoC6\pdl\drivers\peripheral\sysclk/cy_sysclk.h **** * \addtogroup group_sysclk
  17:Generated_Source\PSoC6\pdl\drivers\peripheral\sysclk/cy_sysclk.h **** * \{
  18:Generated_Source\PSoC6\pdl\drivers\peripheral\sysclk/cy_sysclk.h **** * The System Clock (SysClk) driver contains the API for configuring system and
  19:Generated_Source\PSoC6\pdl\drivers\peripheral\sysclk/cy_sysclk.h **** * peripheral clocks. 
  20:Generated_Source\PSoC6\pdl\drivers\peripheral\sysclk/cy_sysclk.h **** *
  21:Generated_Source\PSoC6\pdl\drivers\peripheral\sysclk/cy_sysclk.h **** * The functions and other declarations used in this driver are in cy_sysclk.h. 
  22:Generated_Source\PSoC6\pdl\drivers\peripheral\sysclk/cy_sysclk.h **** * You can include cy_pdl.h (ModusToolbox only) to get access to all functions 
  23:Generated_Source\PSoC6\pdl\drivers\peripheral\sysclk/cy_sysclk.h **** * and declarations in the PDL. 
  24:Generated_Source\PSoC6\pdl\drivers\peripheral\sysclk/cy_sysclk.h **** *
  25:Generated_Source\PSoC6\pdl\drivers\peripheral\sysclk/cy_sysclk.h **** * Firmware uses the API to configure , enable, or disable a clock.
  26:Generated_Source\PSoC6\pdl\drivers\peripheral\sysclk/cy_sysclk.h **** * 
  27:Generated_Source\PSoC6\pdl\drivers\peripheral\sysclk/cy_sysclk.h **** * The clock system includes a variety of resources that can vary per device, including:
  28:Generated_Source\PSoC6\pdl\drivers\peripheral\sysclk/cy_sysclk.h **** * - Internal clock sources such as internal oscillators
  29:Generated_Source\PSoC6\pdl\drivers\peripheral\sysclk/cy_sysclk.h **** * - External clock sources such as crystal oscillators or a signal on an I/O pin
  30:Generated_Source\PSoC6\pdl\drivers\peripheral\sysclk/cy_sysclk.h **** * - Generated clocks such as an FLL, a PLL, and peripheral clocks
  31:Generated_Source\PSoC6\pdl\drivers\peripheral\sysclk/cy_sysclk.h **** *
  32:Generated_Source\PSoC6\pdl\drivers\peripheral\sysclk/cy_sysclk.h **** * Consult the Technical Reference Manual for your device for details of the 
  33:Generated_Source\PSoC6\pdl\drivers\peripheral\sysclk/cy_sysclk.h **** * clock system.
  34:Generated_Source\PSoC6\pdl\drivers\peripheral\sysclk/cy_sysclk.h **** *
  35:Generated_Source\PSoC6\pdl\drivers\peripheral\sysclk/cy_sysclk.h **** * The PDL defines clock system capabilities in:\n
  36:Generated_Source\PSoC6\pdl\drivers\peripheral\sysclk/cy_sysclk.h **** * devices\<family\>/<series\>/include\<series\>_config.h. (E.g.
  37:Generated_Source\PSoC6\pdl\drivers\peripheral\sysclk/cy_sysclk.h **** * devices/psoc6/include/psoc6_01_config.h).
  38:Generated_Source\PSoC6\pdl\drivers\peripheral\sysclk/cy_sysclk.h **** * User-configurable clock speeds are defined in the file system_<series>.h.
  39:Generated_Source\PSoC6\pdl\drivers\peripheral\sysclk/cy_sysclk.h **** *
  40:Generated_Source\PSoC6\pdl\drivers\peripheral\sysclk/cy_sysclk.h **** * As an illustration of the clocking system, the following diagram shows the
  41:Generated_Source\PSoC6\pdl\drivers\peripheral\sysclk/cy_sysclk.h **** * PSoC 63 series clock tree. The actual tree may vary depending on the device series.
  42:Generated_Source\PSoC6\pdl\drivers\peripheral\sysclk/cy_sysclk.h **** * Consult the Technical Reference Manual for your device for details.
  43:Generated_Source\PSoC6\pdl\drivers\peripheral\sysclk/cy_sysclk.h **** * ![](sysclk_tree.png)
  44:Generated_Source\PSoC6\pdl\drivers\peripheral\sysclk/cy_sysclk.h **** *
  45:Generated_Source\PSoC6\pdl\drivers\peripheral\sysclk/cy_sysclk.h **** * The sysclk driver supports multiple peripheral clocks, as well as the fast 
  46:Generated_Source\PSoC6\pdl\drivers\peripheral\sysclk/cy_sysclk.h **** * clock, slow clock, backup domain clock, timer clock, and pump clock. The API
  47:Generated_Source\PSoC6\pdl\drivers\peripheral\sysclk/cy_sysclk.h **** * for any given clock contains the functions to manage that clock. Functions
  48:Generated_Source\PSoC6\pdl\drivers\peripheral\sysclk/cy_sysclk.h **** * for clock measurement and trimming are also provided.
  49:Generated_Source\PSoC6\pdl\drivers\peripheral\sysclk/cy_sysclk.h **** *
  50:Generated_Source\PSoC6\pdl\drivers\peripheral\sysclk/cy_sysclk.h **** * \section group_sysclk_configuration Configuration Considerations
  51:Generated_Source\PSoC6\pdl\drivers\peripheral\sysclk/cy_sysclk.h **** * The availability of clock functions depend on the availability of the chip
  52:Generated_Source\PSoC6\pdl\drivers\peripheral\sysclk/cy_sysclk.h **** * resources that support those functions. Consult the device TRM before
  53:Generated_Source\PSoC6\pdl\drivers\peripheral\sysclk/cy_sysclk.h **** * attempting to use these functions.
  54:Generated_Source\PSoC6\pdl\drivers\peripheral\sysclk/cy_sysclk.h **** *
  55:Generated_Source\PSoC6\pdl\drivers\peripheral\sysclk/cy_sysclk.h **** * LPActive and LPSleep power modes limit the maximum clock frequency allowed
  56:Generated_Source\PSoC6\pdl\drivers\peripheral\sysclk/cy_sysclk.h **** * on the device. Refer to the SysPm driver and the TRM for details.
ARM GAS  C:\Users\tmj32\AppData\Local\Temp\cczBJdSj.s 			page 44


  57:Generated_Source\PSoC6\pdl\drivers\peripheral\sysclk/cy_sysclk.h **** *
  58:Generated_Source\PSoC6\pdl\drivers\peripheral\sysclk/cy_sysclk.h **** * \section group_sysclk_more_information More Information
  59:Generated_Source\PSoC6\pdl\drivers\peripheral\sysclk/cy_sysclk.h **** * Refer to the technical reference manual (TRM) and the device datasheet.
  60:Generated_Source\PSoC6\pdl\drivers\peripheral\sysclk/cy_sysclk.h **** *
  61:Generated_Source\PSoC6\pdl\drivers\peripheral\sysclk/cy_sysclk.h **** * \section group_sysclk_MISRA MISRA-C Compliance
  62:Generated_Source\PSoC6\pdl\drivers\peripheral\sysclk/cy_sysclk.h **** * <table class="doxtable">
  63:Generated_Source\PSoC6\pdl\drivers\peripheral\sysclk/cy_sysclk.h **** *   <tr>
  64:Generated_Source\PSoC6\pdl\drivers\peripheral\sysclk/cy_sysclk.h **** *     <th>MISRA Rule</th>
  65:Generated_Source\PSoC6\pdl\drivers\peripheral\sysclk/cy_sysclk.h **** *     <th>Rule Class (Required/Advisory)</th>
  66:Generated_Source\PSoC6\pdl\drivers\peripheral\sysclk/cy_sysclk.h **** *     <th>Rule Description</th>
  67:Generated_Source\PSoC6\pdl\drivers\peripheral\sysclk/cy_sysclk.h **** *     <th>Description of Deviation(s)</th>
  68:Generated_Source\PSoC6\pdl\drivers\peripheral\sysclk/cy_sysclk.h **** *   </tr>
  69:Generated_Source\PSoC6\pdl\drivers\peripheral\sysclk/cy_sysclk.h **** *   <tr>
  70:Generated_Source\PSoC6\pdl\drivers\peripheral\sysclk/cy_sysclk.h **** *     <td>10.3</td>
  71:Generated_Source\PSoC6\pdl\drivers\peripheral\sysclk/cy_sysclk.h **** *     <td>R</td>
  72:Generated_Source\PSoC6\pdl\drivers\peripheral\sysclk/cy_sysclk.h **** *     <td>A composite expression of the "essentially unsigned" type is being
  73:Generated_Source\PSoC6\pdl\drivers\peripheral\sysclk/cy_sysclk.h **** *         cast to a different type category.</td>
  74:Generated_Source\PSoC6\pdl\drivers\peripheral\sysclk/cy_sysclk.h **** *     <td>The value got from the bitfield physically cannot exceed the enumeration
  75:Generated_Source\PSoC6\pdl\drivers\peripheral\sysclk/cy_sysclk.h **** *         that describes this bitfield. So, the code is safe by design.</td>
  76:Generated_Source\PSoC6\pdl\drivers\peripheral\sysclk/cy_sysclk.h **** *   </tr>
  77:Generated_Source\PSoC6\pdl\drivers\peripheral\sysclk/cy_sysclk.h **** *   <tr>
  78:Generated_Source\PSoC6\pdl\drivers\peripheral\sysclk/cy_sysclk.h **** *     <td>10.4</td>
  79:Generated_Source\PSoC6\pdl\drivers\peripheral\sysclk/cy_sysclk.h **** *     <td>R</td>
  80:Generated_Source\PSoC6\pdl\drivers\peripheral\sysclk/cy_sysclk.h **** *     <td>A composite floating point expression is being cast to double, or unsigned.</td>
  81:Generated_Source\PSoC6\pdl\drivers\peripheral\sysclk/cy_sysclk.h **** *     <td>Casting a floating-point calculation result to an integer.</td>
  82:Generated_Source\PSoC6\pdl\drivers\peripheral\sysclk/cy_sysclk.h **** *   </tr>
  83:Generated_Source\PSoC6\pdl\drivers\peripheral\sysclk/cy_sysclk.h **** *   <tr>
  84:Generated_Source\PSoC6\pdl\drivers\peripheral\sysclk/cy_sysclk.h **** *     <td>13.4</td>
  85:Generated_Source\PSoC6\pdl\drivers\peripheral\sysclk/cy_sysclk.h **** *     <td>R</td>
  86:Generated_Source\PSoC6\pdl\drivers\peripheral\sysclk/cy_sysclk.h **** *     <td>The controlling expression of a for statement shall not contain any objects of floating t
  87:Generated_Source\PSoC6\pdl\drivers\peripheral\sysclk/cy_sysclk.h **** *     <td>Scanning through a list of floating point values: only greater_than/less_then checks are 
  88:Generated_Source\PSoC6\pdl\drivers\peripheral\sysclk/cy_sysclk.h **** *         with floating point numbers, the loop counter is integer. </td>
  89:Generated_Source\PSoC6\pdl\drivers\peripheral\sysclk/cy_sysclk.h **** *   </tr>
  90:Generated_Source\PSoC6\pdl\drivers\peripheral\sysclk/cy_sysclk.h **** *   <tr>
  91:Generated_Source\PSoC6\pdl\drivers\peripheral\sysclk/cy_sysclk.h **** *     <td>16.7</td>
  92:Generated_Source\PSoC6\pdl\drivers\peripheral\sysclk/cy_sysclk.h **** *     <td>R</td>
  93:Generated_Source\PSoC6\pdl\drivers\peripheral\sysclk/cy_sysclk.h **** *     <td>The object addressed by the pointer parameter is not modified and so the pointer could be
  94:Generated_Source\PSoC6\pdl\drivers\peripheral\sysclk/cy_sysclk.h **** *         type 'pointer to const'.</td>
  95:Generated_Source\PSoC6\pdl\drivers\peripheral\sysclk/cy_sysclk.h **** *     <td>The callback function for system power management (SysPm) must be of generic callback typ
  96:Generated_Source\PSoC6\pdl\drivers\peripheral\sysclk/cy_sysclk.h **** *         contains non-const pointer parameter.</td>
  97:Generated_Source\PSoC6\pdl\drivers\peripheral\sysclk/cy_sysclk.h **** *   </tr>
  98:Generated_Source\PSoC6\pdl\drivers\peripheral\sysclk/cy_sysclk.h **** * </table>
  99:Generated_Source\PSoC6\pdl\drivers\peripheral\sysclk/cy_sysclk.h **** *
 100:Generated_Source\PSoC6\pdl\drivers\peripheral\sysclk/cy_sysclk.h **** * \section group_sysclk_changelog Changelog
 101:Generated_Source\PSoC6\pdl\drivers\peripheral\sysclk/cy_sysclk.h **** * <table class="doxtable">
 102:Generated_Source\PSoC6\pdl\drivers\peripheral\sysclk/cy_sysclk.h **** *   <tr><th>Version</th><th>Changes</th><th>Reason for Change</th></tr>
 103:Generated_Source\PSoC6\pdl\drivers\peripheral\sysclk/cy_sysclk.h **** *   <tr>
 104:Generated_Source\PSoC6\pdl\drivers\peripheral\sysclk/cy_sysclk.h **** *     <td rowspan="4">1.20</td>
 105:Generated_Source\PSoC6\pdl\drivers\peripheral\sysclk/cy_sysclk.h **** *     <td>Flattened the organization of the driver source code into the single 
 106:Generated_Source\PSoC6\pdl\drivers\peripheral\sysclk/cy_sysclk.h **** *         source directory and the single include directory.
 107:Generated_Source\PSoC6\pdl\drivers\peripheral\sysclk/cy_sysclk.h **** *     </td>
 108:Generated_Source\PSoC6\pdl\drivers\peripheral\sysclk/cy_sysclk.h **** *     <td>Driver library directory-structure simplification.</td>
 109:Generated_Source\PSoC6\pdl\drivers\peripheral\sysclk/cy_sysclk.h **** *   </tr>
 110:Generated_Source\PSoC6\pdl\drivers\peripheral\sysclk/cy_sysclk.h **** *   <tr>
 111:Generated_Source\PSoC6\pdl\drivers\peripheral\sysclk/cy_sysclk.h **** *     <td>Updated \ref Cy_SysClk_FllLocked function description</td>
 112:Generated_Source\PSoC6\pdl\drivers\peripheral\sysclk/cy_sysclk.h **** *     <td>The SRSS_ver1 HW details clarification</td>
 113:Generated_Source\PSoC6\pdl\drivers\peripheral\sysclk/cy_sysclk.h **** *   </tr>
ARM GAS  C:\Users\tmj32\AppData\Local\Temp\cczBJdSj.s 			page 45


 114:Generated_Source\PSoC6\pdl\drivers\peripheral\sysclk/cy_sysclk.h **** *   <tr>
 115:Generated_Source\PSoC6\pdl\drivers\peripheral\sysclk/cy_sysclk.h **** *     <td>Removed the following functions:
 116:Generated_Source\PSoC6\pdl\drivers\peripheral\sysclk/cy_sysclk.h **** *         - Cy_SysClk_FllLostLock
 117:Generated_Source\PSoC6\pdl\drivers\peripheral\sysclk/cy_sysclk.h **** *         - Cy_SysClk_WcoConfigureCsv
 118:Generated_Source\PSoC6\pdl\drivers\peripheral\sysclk/cy_sysclk.h **** *         - Cy_SysClk_ClkHfConfigureCsv
 119:Generated_Source\PSoC6\pdl\drivers\peripheral\sysclk/cy_sysclk.h **** *     </td>
 120:Generated_Source\PSoC6\pdl\drivers\peripheral\sysclk/cy_sysclk.h **** *     <td>No hardware support for the removed functions.</td>
 121:Generated_Source\PSoC6\pdl\drivers\peripheral\sysclk/cy_sysclk.h **** *   </tr>
 122:Generated_Source\PSoC6\pdl\drivers\peripheral\sysclk/cy_sysclk.h **** *   <tr>
 123:Generated_Source\PSoC6\pdl\drivers\peripheral\sysclk/cy_sysclk.h **** *     <td>Added register access layer. Use register access macros instead
 124:Generated_Source\PSoC6\pdl\drivers\peripheral\sysclk/cy_sysclk.h **** *         of direct register access using dereferenced pointers.</td>
 125:Generated_Source\PSoC6\pdl\drivers\peripheral\sysclk/cy_sysclk.h **** *     <td>Makes register access device-independent, so that the PDL does 
 126:Generated_Source\PSoC6\pdl\drivers\peripheral\sysclk/cy_sysclk.h **** *         not need to be recompiled for each supported part number.</td>
 127:Generated_Source\PSoC6\pdl\drivers\peripheral\sysclk/cy_sysclk.h **** *   </tr>
 128:Generated_Source\PSoC6\pdl\drivers\peripheral\sysclk/cy_sysclk.h **** *   <tr>
 129:Generated_Source\PSoC6\pdl\drivers\peripheral\sysclk/cy_sysclk.h **** *     <td>1.11</td>
 130:Generated_Source\PSoC6\pdl\drivers\peripheral\sysclk/cy_sysclk.h **** *     <td>Updated the following functions. Now they use a semaphore when 
 131:Generated_Source\PSoC6\pdl\drivers\peripheral\sysclk/cy_sysclk.h **** *         try to read the status or configure the SysClk measurement counters:
 132:Generated_Source\PSoC6\pdl\drivers\peripheral\sysclk/cy_sysclk.h **** *         * Cy_SysClk_StartClkMeasurementCounters()
 133:Generated_Source\PSoC6\pdl\drivers\peripheral\sysclk/cy_sysclk.h **** *         * Cy_SysClk_ClkMeasurementCountersGetFreq()
 134:Generated_Source\PSoC6\pdl\drivers\peripheral\sysclk/cy_sysclk.h **** *
 135:Generated_Source\PSoC6\pdl\drivers\peripheral\sysclk/cy_sysclk.h **** *         Now Cy_SysClk_ClkMeasurementCountersGetFreq() returns zero value,
 136:Generated_Source\PSoC6\pdl\drivers\peripheral\sysclk/cy_sysclk.h **** *         if during measurement device was in the Deep Sleep or partially
 137:Generated_Source\PSoC6\pdl\drivers\peripheral\sysclk/cy_sysclk.h **** *         blocking flash operation occurred </td>
 138:Generated_Source\PSoC6\pdl\drivers\peripheral\sysclk/cy_sysclk.h **** *     <td>Added arbiter mechanism for correct usage of the SysClk measurement 
 139:Generated_Source\PSoC6\pdl\drivers\peripheral\sysclk/cy_sysclk.h **** *         counters</td>
 140:Generated_Source\PSoC6\pdl\drivers\peripheral\sysclk/cy_sysclk.h **** *   </tr>
 141:Generated_Source\PSoC6\pdl\drivers\peripheral\sysclk/cy_sysclk.h **** *   <tr>
 142:Generated_Source\PSoC6\pdl\drivers\peripheral\sysclk/cy_sysclk.h **** *     <td>1.10.1</td>
 143:Generated_Source\PSoC6\pdl\drivers\peripheral\sysclk/cy_sysclk.h **** *     <td>Renamed Power Management section to Low Power Callback section</td>
 144:Generated_Source\PSoC6\pdl\drivers\peripheral\sysclk/cy_sysclk.h **** *     <td>Documentation update and clarification</td>
 145:Generated_Source\PSoC6\pdl\drivers\peripheral\sysclk/cy_sysclk.h **** *   </tr>
 146:Generated_Source\PSoC6\pdl\drivers\peripheral\sysclk/cy_sysclk.h **** *   <tr>
 147:Generated_Source\PSoC6\pdl\drivers\peripheral\sysclk/cy_sysclk.h **** *     <td rowspan="5">1.10</td>
 148:Generated_Source\PSoC6\pdl\drivers\peripheral\sysclk/cy_sysclk.h **** *     <td>Updated FLL parameter calculation</td>
 149:Generated_Source\PSoC6\pdl\drivers\peripheral\sysclk/cy_sysclk.h **** *     <td>Support low frequency sources</td>
 150:Generated_Source\PSoC6\pdl\drivers\peripheral\sysclk/cy_sysclk.h **** *   </tr>
 151:Generated_Source\PSoC6\pdl\drivers\peripheral\sysclk/cy_sysclk.h **** *   <tr>
 152:Generated_Source\PSoC6\pdl\drivers\peripheral\sysclk/cy_sysclk.h **** *     <td>Added Cy_SysClk_PiloSetTrim() and Cy_SysclkPiloGetTrim() functions</td>
 153:Generated_Source\PSoC6\pdl\drivers\peripheral\sysclk/cy_sysclk.h **** *     <td>Support PILO manual trims</td>
 154:Generated_Source\PSoC6\pdl\drivers\peripheral\sysclk/cy_sysclk.h **** *   </tr>
 155:Generated_Source\PSoC6\pdl\drivers\peripheral\sysclk/cy_sysclk.h **** *   <tr>
 156:Generated_Source\PSoC6\pdl\drivers\peripheral\sysclk/cy_sysclk.h **** *     <td>Made Cy_SysClk_FllLostLock() function dependent on SRSS v1</td>
 157:Generated_Source\PSoC6\pdl\drivers\peripheral\sysclk/cy_sysclk.h **** *     <td>Feature is not supported in SRSS v1</td>
 158:Generated_Source\PSoC6\pdl\drivers\peripheral\sysclk/cy_sysclk.h **** *   </tr>
 159:Generated_Source\PSoC6\pdl\drivers\peripheral\sysclk/cy_sysclk.h **** *   <tr>
 160:Generated_Source\PSoC6\pdl\drivers\peripheral\sysclk/cy_sysclk.h **** *     <td>Updated Cy_SysClk_DeepSleepCallback() to save/restore both FLL and PLL settings</td>
 161:Generated_Source\PSoC6\pdl\drivers\peripheral\sysclk/cy_sysclk.h **** *     <td>The function should return when the lock is established or a timeout has occurred</td>
 162:Generated_Source\PSoC6\pdl\drivers\peripheral\sysclk/cy_sysclk.h **** *   </tr>
 163:Generated_Source\PSoC6\pdl\drivers\peripheral\sysclk/cy_sysclk.h **** *   <tr>
 164:Generated_Source\PSoC6\pdl\drivers\peripheral\sysclk/cy_sysclk.h **** *     <td>General documentation updates</td>
 165:Generated_Source\PSoC6\pdl\drivers\peripheral\sysclk/cy_sysclk.h **** *     <td></td>
 166:Generated_Source\PSoC6\pdl\drivers\peripheral\sysclk/cy_sysclk.h **** *   </tr>
 167:Generated_Source\PSoC6\pdl\drivers\peripheral\sysclk/cy_sysclk.h **** *   <tr>
 168:Generated_Source\PSoC6\pdl\drivers\peripheral\sysclk/cy_sysclk.h **** *     <td>1.0</td>
 169:Generated_Source\PSoC6\pdl\drivers\peripheral\sysclk/cy_sysclk.h **** *     <td>Initial version</td>
 170:Generated_Source\PSoC6\pdl\drivers\peripheral\sysclk/cy_sysclk.h **** *     <td></td>
ARM GAS  C:\Users\tmj32\AppData\Local\Temp\cczBJdSj.s 			page 46


 171:Generated_Source\PSoC6\pdl\drivers\peripheral\sysclk/cy_sysclk.h **** *   </tr>
 172:Generated_Source\PSoC6\pdl\drivers\peripheral\sysclk/cy_sysclk.h **** * </table>
 173:Generated_Source\PSoC6\pdl\drivers\peripheral\sysclk/cy_sysclk.h **** *
 174:Generated_Source\PSoC6\pdl\drivers\peripheral\sysclk/cy_sysclk.h **** * \defgroup group_sysclk_macros           Macros
 175:Generated_Source\PSoC6\pdl\drivers\peripheral\sysclk/cy_sysclk.h **** * \{
 176:Generated_Source\PSoC6\pdl\drivers\peripheral\sysclk/cy_sysclk.h **** * \}
 177:Generated_Source\PSoC6\pdl\drivers\peripheral\sysclk/cy_sysclk.h **** * \defgroup group_sysclk_enums           General Enumerated Types
 178:Generated_Source\PSoC6\pdl\drivers\peripheral\sysclk/cy_sysclk.h **** * \{
 179:Generated_Source\PSoC6\pdl\drivers\peripheral\sysclk/cy_sysclk.h **** *   \defgroup group_sysclk_returns         Function return values
 180:Generated_Source\PSoC6\pdl\drivers\peripheral\sysclk/cy_sysclk.h **** * \}
 181:Generated_Source\PSoC6\pdl\drivers\peripheral\sysclk/cy_sysclk.h **** * \defgroup group_sysclk_eco             External Crystal Oscillator (ECO)
 182:Generated_Source\PSoC6\pdl\drivers\peripheral\sysclk/cy_sysclk.h **** * \{
 183:Generated_Source\PSoC6\pdl\drivers\peripheral\sysclk/cy_sysclk.h **** *   The External Crystal Oscillator (ECO) is a clock source that consists
 184:Generated_Source\PSoC6\pdl\drivers\peripheral\sysclk/cy_sysclk.h **** *   of an oscillator circuit that drives an external crystal through its
 185:Generated_Source\PSoC6\pdl\drivers\peripheral\sysclk/cy_sysclk.h **** *   dedicated ECO pins. The ECO is a source clock that can be used to
 186:Generated_Source\PSoC6\pdl\drivers\peripheral\sysclk/cy_sysclk.h **** *   source one or more clock paths (Refer to \ref group_sysclk_path_src).
 187:Generated_Source\PSoC6\pdl\drivers\peripheral\sysclk/cy_sysclk.h **** *   These clock paths can then source the processors and peripherals in
 188:Generated_Source\PSoC6\pdl\drivers\peripheral\sysclk/cy_sysclk.h **** *   the device.
 189:Generated_Source\PSoC6\pdl\drivers\peripheral\sysclk/cy_sysclk.h **** *
 190:Generated_Source\PSoC6\pdl\drivers\peripheral\sysclk/cy_sysclk.h **** *   The ECO relies on the presence of an external crystal. The pins
 191:Generated_Source\PSoC6\pdl\drivers\peripheral\sysclk/cy_sysclk.h **** *   connected to this crystal must be configured to operate in analog
 192:Generated_Source\PSoC6\pdl\drivers\peripheral\sysclk/cy_sysclk.h **** *   drive mode with HSIOM connection set to GPIO control (HSIOM_SEL_GPIO).
 193:Generated_Source\PSoC6\pdl\drivers\peripheral\sysclk/cy_sysclk.h **** *
 194:Generated_Source\PSoC6\pdl\drivers\peripheral\sysclk/cy_sysclk.h **** *   \defgroup group_sysclk_eco_funcs       Functions
 195:Generated_Source\PSoC6\pdl\drivers\peripheral\sysclk/cy_sysclk.h **** * \}
 196:Generated_Source\PSoC6\pdl\drivers\peripheral\sysclk/cy_sysclk.h **** * \defgroup group_sysclk_path_src           Clock Path Source
 197:Generated_Source\PSoC6\pdl\drivers\peripheral\sysclk/cy_sysclk.h **** * \{
 198:Generated_Source\PSoC6\pdl\drivers\peripheral\sysclk/cy_sysclk.h **** *   Clock paths are a series of multiplexers that allow a source clock
 199:Generated_Source\PSoC6\pdl\drivers\peripheral\sysclk/cy_sysclk.h **** *   to drive multiple clocking resources down the chain. These paths are
 200:Generated_Source\PSoC6\pdl\drivers\peripheral\sysclk/cy_sysclk.h **** *   used for active domain clocks that are not operational during chip 
 201:Generated_Source\PSoC6\pdl\drivers\peripheral\sysclk/cy_sysclk.h **** *   deep-sleep, hibernate and off modes. Illustrated below is a diagram
 202:Generated_Source\PSoC6\pdl\drivers\peripheral\sysclk/cy_sysclk.h **** *   of the clock paths for the PSoC 63 series, showing the first three
 203:Generated_Source\PSoC6\pdl\drivers\peripheral\sysclk/cy_sysclk.h **** *   clock paths. The source clocks for these paths are highlighted in
 204:Generated_Source\PSoC6\pdl\drivers\peripheral\sysclk/cy_sysclk.h **** *   the red box.
 205:Generated_Source\PSoC6\pdl\drivers\peripheral\sysclk/cy_sysclk.h **** *
 206:Generated_Source\PSoC6\pdl\drivers\peripheral\sysclk/cy_sysclk.h **** *   - IMO: 8 MHz Internal Main Oscillator (Default)
 207:Generated_Source\PSoC6\pdl\drivers\peripheral\sysclk/cy_sysclk.h **** *   - EXTCLK: External clock (signal brought in through dedicated pins)
 208:Generated_Source\PSoC6\pdl\drivers\peripheral\sysclk/cy_sysclk.h **** *   - ECO: External Crystal Oscillator (requires external crystal on dedicated pins)
 209:Generated_Source\PSoC6\pdl\drivers\peripheral\sysclk/cy_sysclk.h **** *   - ALTHF: Select on-chip signals (e.g. BLE ECO)
 210:Generated_Source\PSoC6\pdl\drivers\peripheral\sysclk/cy_sysclk.h **** *   - Digital Signal (DSI): Digital signal from a UDB source
 211:Generated_Source\PSoC6\pdl\drivers\peripheral\sysclk/cy_sysclk.h **** *
 212:Generated_Source\PSoC6\pdl\drivers\peripheral\sysclk/cy_sysclk.h **** *   Some clock paths such as path 0 and path 1 have additional resources
 213:Generated_Source\PSoC6\pdl\drivers\peripheral\sysclk/cy_sysclk.h **** *   that can be utilized to provide a higher frequency clock. For example, 
 214:Generated_Source\PSoC6\pdl\drivers\peripheral\sysclk/cy_sysclk.h **** *   path 0 source clock can be used as the reference clock for the FLL and 
 215:Generated_Source\PSoC6\pdl\drivers\peripheral\sysclk/cy_sysclk.h **** *   path 1 source clock can be used as the reference clock for the PLL.
 216:Generated_Source\PSoC6\pdl\drivers\peripheral\sysclk/cy_sysclk.h **** *
 217:Generated_Source\PSoC6\pdl\drivers\peripheral\sysclk/cy_sysclk.h **** *   ![](sysclk_path_source.png)
 218:Generated_Source\PSoC6\pdl\drivers\peripheral\sysclk/cy_sysclk.h **** *
 219:Generated_Source\PSoC6\pdl\drivers\peripheral\sysclk/cy_sysclk.h **** *   \note The PDL driver cannot configure a clock path to use Digital Signal
 220:Generated_Source\PSoC6\pdl\drivers\peripheral\sysclk/cy_sysclk.h **** *   Interconnect (DSI) outputs as sources. This must be done through DSI
 221:Generated_Source\PSoC6\pdl\drivers\peripheral\sysclk/cy_sysclk.h **** *   configuration tool such as PSoC Creator.
 222:Generated_Source\PSoC6\pdl\drivers\peripheral\sysclk/cy_sysclk.h **** *
 223:Generated_Source\PSoC6\pdl\drivers\peripheral\sysclk/cy_sysclk.h **** *   \defgroup group_sysclk_path_src_funcs     Functions
 224:Generated_Source\PSoC6\pdl\drivers\peripheral\sysclk/cy_sysclk.h **** *   \defgroup group_sysclk_path_src_enums     Enumerated Types
 225:Generated_Source\PSoC6\pdl\drivers\peripheral\sysclk/cy_sysclk.h **** * \}
 226:Generated_Source\PSoC6\pdl\drivers\peripheral\sysclk/cy_sysclk.h **** * \defgroup group_sysclk_fll             Frequency Locked Loop (FLL)
 227:Generated_Source\PSoC6\pdl\drivers\peripheral\sysclk/cy_sysclk.h **** * \{
ARM GAS  C:\Users\tmj32\AppData\Local\Temp\cczBJdSj.s 			page 47


 228:Generated_Source\PSoC6\pdl\drivers\peripheral\sysclk/cy_sysclk.h **** *   The FLL is a clock generation circuit that can be used to produce a
 229:Generated_Source\PSoC6\pdl\drivers\peripheral\sysclk/cy_sysclk.h **** *   higher frequency clock from a reference clock. The output clock exhibits
 230:Generated_Source\PSoC6\pdl\drivers\peripheral\sysclk/cy_sysclk.h **** *   some characteristics of the reference clock such as the accuracy of the
 231:Generated_Source\PSoC6\pdl\drivers\peripheral\sysclk/cy_sysclk.h **** *   source. However other attributes such as the clock phase are not preserved.
 232:Generated_Source\PSoC6\pdl\drivers\peripheral\sysclk/cy_sysclk.h **** *   The FLL is similar in purpose to a (Phase locked loop) PLL but they are
 233:Generated_Source\PSoC6\pdl\drivers\peripheral\sysclk/cy_sysclk.h **** *   not equivalent.
 234:Generated_Source\PSoC6\pdl\drivers\peripheral\sysclk/cy_sysclk.h **** *
 235:Generated_Source\PSoC6\pdl\drivers\peripheral\sysclk/cy_sysclk.h **** *   - They may have different frequency ranges.
 236:Generated_Source\PSoC6\pdl\drivers\peripheral\sysclk/cy_sysclk.h **** *   - The FLL starts up (locks) faster and consumes less current than the PLL.
 237:Generated_Source\PSoC6\pdl\drivers\peripheral\sysclk/cy_sysclk.h **** *   - The FLL accepts a source clock with lower frequency than PLL, such as the WCO (32 KHz). 
 238:Generated_Source\PSoC6\pdl\drivers\peripheral\sysclk/cy_sysclk.h **** *   - The FLL does not lock phase. The hardware consist of a counter with a
 239:Generated_Source\PSoC6\pdl\drivers\peripheral\sysclk/cy_sysclk.h **** *     current-controlled oscillator (CCO). The counter counts the number of output
 240:Generated_Source\PSoC6\pdl\drivers\peripheral\sysclk/cy_sysclk.h **** *     clock edges in a reference clock period and adjusts the CCO until the
 241:Generated_Source\PSoC6\pdl\drivers\peripheral\sysclk/cy_sysclk.h **** *     expected ratio is achieved (locked). After initial lock, the CCO is
 242:Generated_Source\PSoC6\pdl\drivers\peripheral\sysclk/cy_sysclk.h **** *     adjusted dynamically to keep the ratio within tolerance. The lock tolerance
 243:Generated_Source\PSoC6\pdl\drivers\peripheral\sysclk/cy_sysclk.h **** *     is user-adjustable.
 244:Generated_Source\PSoC6\pdl\drivers\peripheral\sysclk/cy_sysclk.h **** *   ![](sysclk_fll.png)
 245:Generated_Source\PSoC6\pdl\drivers\peripheral\sysclk/cy_sysclk.h **** *
 246:Generated_Source\PSoC6\pdl\drivers\peripheral\sysclk/cy_sysclk.h **** *   The SysClk driver supports two models for configuring the FLL. The first
 247:Generated_Source\PSoC6\pdl\drivers\peripheral\sysclk/cy_sysclk.h **** *   model is to call the Cy_SysClk_FllConfigure() function, which calculates the 
 248:Generated_Source\PSoC6\pdl\drivers\peripheral\sysclk/cy_sysclk.h **** *   necessary parameters for the FLL at run-time. This may be necessary for dynamic
 249:Generated_Source\PSoC6\pdl\drivers\peripheral\sysclk/cy_sysclk.h **** *   run-time changes to the FLL. However this method is slow as it needs to perform 
 250:Generated_Source\PSoC6\pdl\drivers\peripheral\sysclk/cy_sysclk.h **** *   the calculation before configuring the FLL. The other model is to call 
 251:Generated_Source\PSoC6\pdl\drivers\peripheral\sysclk/cy_sysclk.h **** *   Cy_SysClk_FllManualConfigure() function with pre-calculated parameter values. 
 252:Generated_Source\PSoC6\pdl\drivers\peripheral\sysclk/cy_sysclk.h **** *   This method is faster but requires prior knowledge of the necessary parameters.
 253:Generated_Source\PSoC6\pdl\drivers\peripheral\sysclk/cy_sysclk.h **** *   Consult the device TRM for the FLL calculation equations.
 254:Generated_Source\PSoC6\pdl\drivers\peripheral\sysclk/cy_sysclk.h **** *
 255:Generated_Source\PSoC6\pdl\drivers\peripheral\sysclk/cy_sysclk.h **** *   \defgroup group_sysclk_fll_funcs       Functions
 256:Generated_Source\PSoC6\pdl\drivers\peripheral\sysclk/cy_sysclk.h **** *   \defgroup group_sysclk_fll_structs     Data Structures
 257:Generated_Source\PSoC6\pdl\drivers\peripheral\sysclk/cy_sysclk.h **** *   \defgroup group_sysclk_fll_enums       Enumerated Types
 258:Generated_Source\PSoC6\pdl\drivers\peripheral\sysclk/cy_sysclk.h **** * \}
 259:Generated_Source\PSoC6\pdl\drivers\peripheral\sysclk/cy_sysclk.h **** * \defgroup group_sysclk_pll             Phase Locked Loop (PLL)
 260:Generated_Source\PSoC6\pdl\drivers\peripheral\sysclk/cy_sysclk.h **** * \{
 261:Generated_Source\PSoC6\pdl\drivers\peripheral\sysclk/cy_sysclk.h **** *   The PLL is a clock generation circuit that can be used to produce a
 262:Generated_Source\PSoC6\pdl\drivers\peripheral\sysclk/cy_sysclk.h **** *   higher frequency clock from a reference clock. The output clock exhibits
 263:Generated_Source\PSoC6\pdl\drivers\peripheral\sysclk/cy_sysclk.h **** *   characteristics of the reference clock such as the accuracy of the source
 264:Generated_Source\PSoC6\pdl\drivers\peripheral\sysclk/cy_sysclk.h **** *   and its phase. The PLL is similar in purpose to a (Frequency locked loop) FLL
 265:Generated_Source\PSoC6\pdl\drivers\peripheral\sysclk/cy_sysclk.h **** *   but they are not equivalent.
 266:Generated_Source\PSoC6\pdl\drivers\peripheral\sysclk/cy_sysclk.h **** *
 267:Generated_Source\PSoC6\pdl\drivers\peripheral\sysclk/cy_sysclk.h **** *   - They may have different frequency ranges.
 268:Generated_Source\PSoC6\pdl\drivers\peripheral\sysclk/cy_sysclk.h **** *   - The PLL starts up more slowly and consumes more current than the FLL.
 269:Generated_Source\PSoC6\pdl\drivers\peripheral\sysclk/cy_sysclk.h **** *   - The PLL requires a higher frequency source clock than PLL. 
 270:Generated_Source\PSoC6\pdl\drivers\peripheral\sysclk/cy_sysclk.h **** *   ![](sysclk_pll.png)
 271:Generated_Source\PSoC6\pdl\drivers\peripheral\sysclk/cy_sysclk.h **** *
 272:Generated_Source\PSoC6\pdl\drivers\peripheral\sysclk/cy_sysclk.h **** *   The SysClk driver supports two models for configuring the PLL. The first
 273:Generated_Source\PSoC6\pdl\drivers\peripheral\sysclk/cy_sysclk.h **** *   model is to call the Cy_SysClk_PllConfigure() function, which calculates the 
 274:Generated_Source\PSoC6\pdl\drivers\peripheral\sysclk/cy_sysclk.h **** *   necessary parameters for the PLL at run-time. This may be necessary for dynamic
 275:Generated_Source\PSoC6\pdl\drivers\peripheral\sysclk/cy_sysclk.h **** *   run-time changes to the PLL. However this method is slow as it needs to perform 
 276:Generated_Source\PSoC6\pdl\drivers\peripheral\sysclk/cy_sysclk.h **** *   the calculation before configuring the PLL. The other model is to call 
 277:Generated_Source\PSoC6\pdl\drivers\peripheral\sysclk/cy_sysclk.h **** *   Cy_SysClk_PllManualConfigure() function with pre-calculated parameter values. 
 278:Generated_Source\PSoC6\pdl\drivers\peripheral\sysclk/cy_sysclk.h **** *   This method is faster but requires prior knowledge of the necessary parameters.
 279:Generated_Source\PSoC6\pdl\drivers\peripheral\sysclk/cy_sysclk.h **** *   Consult the device TRM for the PLL calculation equations.
 280:Generated_Source\PSoC6\pdl\drivers\peripheral\sysclk/cy_sysclk.h **** *
 281:Generated_Source\PSoC6\pdl\drivers\peripheral\sysclk/cy_sysclk.h **** *   \defgroup group_sysclk_pll_funcs       Functions
 282:Generated_Source\PSoC6\pdl\drivers\peripheral\sysclk/cy_sysclk.h **** *   \defgroup group_sysclk_pll_structs     Data Structures
 283:Generated_Source\PSoC6\pdl\drivers\peripheral\sysclk/cy_sysclk.h **** * \}
 284:Generated_Source\PSoC6\pdl\drivers\peripheral\sysclk/cy_sysclk.h **** * \defgroup group_sysclk_ilo             Internal Low-Speed Oscillator (ILO)
ARM GAS  C:\Users\tmj32\AppData\Local\Temp\cczBJdSj.s 			page 48


 285:Generated_Source\PSoC6\pdl\drivers\peripheral\sysclk/cy_sysclk.h **** * \{
 286:Generated_Source\PSoC6\pdl\drivers\peripheral\sysclk/cy_sysclk.h **** *   The ILO operates with no external components and outputs a stable clock at
 287:Generated_Source\PSoC6\pdl\drivers\peripheral\sysclk/cy_sysclk.h **** *   32.768 kHz nominal. The ILO is relatively low power and low accuracy. It is 
 288:Generated_Source\PSoC6\pdl\drivers\peripheral\sysclk/cy_sysclk.h **** *   available in all power modes and can be used as a source for the Backup domain clock.
 289:Generated_Source\PSoC6\pdl\drivers\peripheral\sysclk/cy_sysclk.h **** *   ![](sysclk_backup.png)
 290:Generated_Source\PSoC6\pdl\drivers\peripheral\sysclk/cy_sysclk.h **** *
 291:Generated_Source\PSoC6\pdl\drivers\peripheral\sysclk/cy_sysclk.h **** *   To ensure the ILO remains active in Hibernate mode, and across power-on-reset
 292:Generated_Source\PSoC6\pdl\drivers\peripheral\sysclk/cy_sysclk.h **** *   (POR) or brown out detect (BOD), firmware must call Cy_SysClk_IloHibernateOn(). 
 293:Generated_Source\PSoC6\pdl\drivers\peripheral\sysclk/cy_sysclk.h **** *
 294:Generated_Source\PSoC6\pdl\drivers\peripheral\sysclk/cy_sysclk.h **** *   Additionally, the ILO clock can be trimmed to +/- 1.5% of nominal frequency using
 295:Generated_Source\PSoC6\pdl\drivers\peripheral\sysclk/cy_sysclk.h **** *   a higher precision clock source. Use the \ref group_sysclk_calclk API to measure 
 296:Generated_Source\PSoC6\pdl\drivers\peripheral\sysclk/cy_sysclk.h **** *   the current ILO frequency before trimming.
 297:Generated_Source\PSoC6\pdl\drivers\peripheral\sysclk/cy_sysclk.h **** *
 298:Generated_Source\PSoC6\pdl\drivers\peripheral\sysclk/cy_sysclk.h **** *   \note The ILO is always the source clock for the \ref group_wdt. Therefore:
 299:Generated_Source\PSoC6\pdl\drivers\peripheral\sysclk/cy_sysclk.h **** *   - The WDT must be unlocked when making an ILO function call in the PDL
 300:Generated_Source\PSoC6\pdl\drivers\peripheral\sysclk/cy_sysclk.h **** *   - It is recommended to always have the ILO enabled
 301:Generated_Source\PSoC6\pdl\drivers\peripheral\sysclk/cy_sysclk.h **** *
 302:Generated_Source\PSoC6\pdl\drivers\peripheral\sysclk/cy_sysclk.h **** *   \defgroup group_sysclk_ilo_funcs       Functions
 303:Generated_Source\PSoC6\pdl\drivers\peripheral\sysclk/cy_sysclk.h **** * \}
 304:Generated_Source\PSoC6\pdl\drivers\peripheral\sysclk/cy_sysclk.h **** * \defgroup group_sysclk_pilo            Precision Internal Low-Speed Oscillator (PILO)
 305:Generated_Source\PSoC6\pdl\drivers\peripheral\sysclk/cy_sysclk.h **** * \{
 306:Generated_Source\PSoC6\pdl\drivers\peripheral\sysclk/cy_sysclk.h **** *   PILO provides a higher accuracy 32.768 kHz clock than the \ref group_sysclk_ilo "ILO".
 307:Generated_Source\PSoC6\pdl\drivers\peripheral\sysclk/cy_sysclk.h **** *   When periodically calibrated using a high-accuracy clock such as the
 308:Generated_Source\PSoC6\pdl\drivers\peripheral\sysclk/cy_sysclk.h **** *   \ref group_sysclk_eco "ECO", the PILO can achieve 250 ppm accuracy of nominal frequency.
 309:Generated_Source\PSoC6\pdl\drivers\peripheral\sysclk/cy_sysclk.h **** *   The PILO is capable of operating in device Active, Sleep and Deep-Sleep power modes. 
 310:Generated_Source\PSoC6\pdl\drivers\peripheral\sysclk/cy_sysclk.h **** *   It is not available in Hibernate mode.
 311:Generated_Source\PSoC6\pdl\drivers\peripheral\sysclk/cy_sysclk.h **** *
 312:Generated_Source\PSoC6\pdl\drivers\peripheral\sysclk/cy_sysclk.h **** *   The PILO can be used as a source for the \ref group_sysclk_clk_lf. However,
 313:Generated_Source\PSoC6\pdl\drivers\peripheral\sysclk/cy_sysclk.h **** *   because PILO is disabled in Hibernate mode, RTC timers cannot operate in this mode
 314:Generated_Source\PSoC6\pdl\drivers\peripheral\sysclk/cy_sysclk.h **** *   when clocked using the PILO. Instead, either the \ref group_sysclk_ilo "ILO" or
 315:Generated_Source\PSoC6\pdl\drivers\peripheral\sysclk/cy_sysclk.h **** *   \ref group_sysclk_wco "WCO" should be used when hibernate operation is required. 
 316:Generated_Source\PSoC6\pdl\drivers\peripheral\sysclk/cy_sysclk.h **** *
 317:Generated_Source\PSoC6\pdl\drivers\peripheral\sysclk/cy_sysclk.h **** *   ![](sysclk_backup.png)
 318:Generated_Source\PSoC6\pdl\drivers\peripheral\sysclk/cy_sysclk.h **** *
 319:Generated_Source\PSoC6\pdl\drivers\peripheral\sysclk/cy_sysclk.h **** *   Periodic calibration to a high-accuracy clock (such as ECO) is required to
 320:Generated_Source\PSoC6\pdl\drivers\peripheral\sysclk/cy_sysclk.h **** *   maintain accuracy. The application should use the functions described in the 
 321:Generated_Source\PSoC6\pdl\drivers\peripheral\sysclk/cy_sysclk.h **** *   \ref group_sysclk_calclk API to measure the current PILO frequency before trimming.
 322:Generated_Source\PSoC6\pdl\drivers\peripheral\sysclk/cy_sysclk.h **** *
 323:Generated_Source\PSoC6\pdl\drivers\peripheral\sysclk/cy_sysclk.h **** *   \defgroup group_sysclk_pilo_funcs      Functions
 324:Generated_Source\PSoC6\pdl\drivers\peripheral\sysclk/cy_sysclk.h **** * \}
 325:Generated_Source\PSoC6\pdl\drivers\peripheral\sysclk/cy_sysclk.h **** * \defgroup group_sysclk_calclk          Clock Measurement
 326:Generated_Source\PSoC6\pdl\drivers\peripheral\sysclk/cy_sysclk.h **** * \{
 327:Generated_Source\PSoC6\pdl\drivers\peripheral\sysclk/cy_sysclk.h **** *   These functions measure the frequency of a specified clock relative to a
 328:Generated_Source\PSoC6\pdl\drivers\peripheral\sysclk/cy_sysclk.h **** *   reference clock. They are typically called in the following order:
 329:Generated_Source\PSoC6\pdl\drivers\peripheral\sysclk/cy_sysclk.h **** *
 330:Generated_Source\PSoC6\pdl\drivers\peripheral\sysclk/cy_sysclk.h **** *   1. Specify the measured clock, the count, and the reference clock
 331:Generated_Source\PSoC6\pdl\drivers\peripheral\sysclk/cy_sysclk.h **** *   2. Start the counters
 332:Generated_Source\PSoC6\pdl\drivers\peripheral\sysclk/cy_sysclk.h **** *   3. Wait for the measurement counter to finish counting
 333:Generated_Source\PSoC6\pdl\drivers\peripheral\sysclk/cy_sysclk.h **** *   4. Retrieve the measured frequency
 334:Generated_Source\PSoC6\pdl\drivers\peripheral\sysclk/cy_sysclk.h **** *
 335:Generated_Source\PSoC6\pdl\drivers\peripheral\sysclk/cy_sysclk.h **** *   \note These functions may also be used as part of a clock trimming
 336:Generated_Source\PSoC6\pdl\drivers\peripheral\sysclk/cy_sysclk.h **** *   process. Refer to the \ref group_sysclk_trim "Clock Trim" API.
 337:Generated_Source\PSoC6\pdl\drivers\peripheral\sysclk/cy_sysclk.h **** *
 338:Generated_Source\PSoC6\pdl\drivers\peripheral\sysclk/cy_sysclk.h **** *   \defgroup group_sysclk_calclk_funcs    Functions
 339:Generated_Source\PSoC6\pdl\drivers\peripheral\sysclk/cy_sysclk.h **** *   \defgroup group_sysclk_calclk_enums    Enumerated Types
 340:Generated_Source\PSoC6\pdl\drivers\peripheral\sysclk/cy_sysclk.h **** * \}
 341:Generated_Source\PSoC6\pdl\drivers\peripheral\sysclk/cy_sysclk.h **** * \defgroup group_sysclk_trim            Clock Trim (ILO, PILO)
ARM GAS  C:\Users\tmj32\AppData\Local\Temp\cczBJdSj.s 			page 49


 342:Generated_Source\PSoC6\pdl\drivers\peripheral\sysclk/cy_sysclk.h **** * \{
 343:Generated_Source\PSoC6\pdl\drivers\peripheral\sysclk/cy_sysclk.h **** *   These functions perform a single trim operation on the ILO or PILO. Each
 344:Generated_Source\PSoC6\pdl\drivers\peripheral\sysclk/cy_sysclk.h **** *   function's parameter is the actual frequency of the clock. To measure the
 345:Generated_Source\PSoC6\pdl\drivers\peripheral\sysclk/cy_sysclk.h **** *   frequency, use the functions described in the \ref group_sysclk_calclk API.
 346:Generated_Source\PSoC6\pdl\drivers\peripheral\sysclk/cy_sysclk.h **** *
 347:Generated_Source\PSoC6\pdl\drivers\peripheral\sysclk/cy_sysclk.h **** *   To trim the clock as close as possible to the target frequency, multiple
 348:Generated_Source\PSoC6\pdl\drivers\peripheral\sysclk/cy_sysclk.h **** *   calls to the trim function may be needed. A typical usage example is to:
 349:Generated_Source\PSoC6\pdl\drivers\peripheral\sysclk/cy_sysclk.h **** *   1. Call the clock measurement functions to get the actual frequency of the clock
 350:Generated_Source\PSoC6\pdl\drivers\peripheral\sysclk/cy_sysclk.h **** *   2. Call the trim function, passing in the measured frequency
 351:Generated_Source\PSoC6\pdl\drivers\peripheral\sysclk/cy_sysclk.h **** *   3. Repeat the above until the trim function reports that the clock is trimmed to within limits.
 352:Generated_Source\PSoC6\pdl\drivers\peripheral\sysclk/cy_sysclk.h **** *
 353:Generated_Source\PSoC6\pdl\drivers\peripheral\sysclk/cy_sysclk.h **** *   \defgroup group_sysclk_trim_funcs      Functions
 354:Generated_Source\PSoC6\pdl\drivers\peripheral\sysclk/cy_sysclk.h **** * \}
 355:Generated_Source\PSoC6\pdl\drivers\peripheral\sysclk/cy_sysclk.h **** * \defgroup group_sysclk_pm              Low Power Callback
 356:Generated_Source\PSoC6\pdl\drivers\peripheral\sysclk/cy_sysclk.h **** * \{
 357:Generated_Source\PSoC6\pdl\drivers\peripheral\sysclk/cy_sysclk.h **** *   Entering and exiting low power modes require compatible clock configurations
 358:Generated_Source\PSoC6\pdl\drivers\peripheral\sysclk/cy_sysclk.h **** *   to be set before entering low power and restored upon wake-up and exit. The
 359:Generated_Source\PSoC6\pdl\drivers\peripheral\sysclk/cy_sysclk.h **** *   SysClk driver provides a Cy_SysClk_DeepSleepCallback() function to support
 360:Generated_Source\PSoC6\pdl\drivers\peripheral\sysclk/cy_sysclk.h **** *   deep-sleep mode entry. 
 361:Generated_Source\PSoC6\pdl\drivers\peripheral\sysclk/cy_sysclk.h **** *
 362:Generated_Source\PSoC6\pdl\drivers\peripheral\sysclk/cy_sysclk.h **** *   This function can be called either by itself before initiating low-power mode
 363:Generated_Source\PSoC6\pdl\drivers\peripheral\sysclk/cy_sysclk.h **** *   entry or it can be used in conjunction with the SysPm driver as a registered 
 364:Generated_Source\PSoC6\pdl\drivers\peripheral\sysclk/cy_sysclk.h **** *   callback. To do so, register this function as a callback before calling 
 365:Generated_Source\PSoC6\pdl\drivers\peripheral\sysclk/cy_sysclk.h **** *   Cy_SysPm_DeepSleep(). Specify \ref CY_SYSPM_DEEPSLEEP as the callback type, 
 366:Generated_Source\PSoC6\pdl\drivers\peripheral\sysclk/cy_sysclk.h **** *   and call Cy_SysPm_RegisterCallback().
 367:Generated_Source\PSoC6\pdl\drivers\peripheral\sysclk/cy_sysclk.h **** *   
 368:Generated_Source\PSoC6\pdl\drivers\peripheral\sysclk/cy_sysclk.h **** *   \note If the FLL or PLL source is the ECO, this function must be called.
 369:Generated_Source\PSoC6\pdl\drivers\peripheral\sysclk/cy_sysclk.h **** *
 370:Generated_Source\PSoC6\pdl\drivers\peripheral\sysclk/cy_sysclk.h **** *   \defgroup group_sysclk_pm_funcs        Functions
 371:Generated_Source\PSoC6\pdl\drivers\peripheral\sysclk/cy_sysclk.h **** * \}
 372:Generated_Source\PSoC6\pdl\drivers\peripheral\sysclk/cy_sysclk.h **** * \defgroup group_sysclk_wco             Watch Crystal Oscillator (WCO)
 373:Generated_Source\PSoC6\pdl\drivers\peripheral\sysclk/cy_sysclk.h **** * \{
 374:Generated_Source\PSoC6\pdl\drivers\peripheral\sysclk/cy_sysclk.h **** *   The WCO is a highly accurate 32.768 kHz clock source capable of operating
 375:Generated_Source\PSoC6\pdl\drivers\peripheral\sysclk/cy_sysclk.h **** *   in all power modes (excluding the Off mode). It is the primary clock source for
 376:Generated_Source\PSoC6\pdl\drivers\peripheral\sysclk/cy_sysclk.h **** *   the backup domain clock, which is used by the real-time clock (RTC). The 
 377:Generated_Source\PSoC6\pdl\drivers\peripheral\sysclk/cy_sysclk.h **** *   WCO can also be used as a source for the low-frequency clock to support other
 378:Generated_Source\PSoC6\pdl\drivers\peripheral\sysclk/cy_sysclk.h **** *   low power mode peripherals.
 379:Generated_Source\PSoC6\pdl\drivers\peripheral\sysclk/cy_sysclk.h **** *
 380:Generated_Source\PSoC6\pdl\drivers\peripheral\sysclk/cy_sysclk.h **** *   ![](sysclk_backup.png)
 381:Generated_Source\PSoC6\pdl\drivers\peripheral\sysclk/cy_sysclk.h **** *
 382:Generated_Source\PSoC6\pdl\drivers\peripheral\sysclk/cy_sysclk.h **** *   The WCO requires the configuration of the dedicated WCO pins (SRSS_WCO_IN_PIN,
 383:Generated_Source\PSoC6\pdl\drivers\peripheral\sysclk/cy_sysclk.h **** *   SRSS_WCO_OUT_PIN). These must be configured as Analog Hi-Z drive modes and the
 384:Generated_Source\PSoC6\pdl\drivers\peripheral\sysclk/cy_sysclk.h **** *   HSIOM selection set to GPIO. The WCO can also be used in bypass mode, where
 385:Generated_Source\PSoC6\pdl\drivers\peripheral\sysclk/cy_sysclk.h **** *   an external 32.768 kHz square wave is brought in directly through the 
 386:Generated_Source\PSoC6\pdl\drivers\peripheral\sysclk/cy_sysclk.h **** *   SRSS_WCO_OUT_PIN pin.
 387:Generated_Source\PSoC6\pdl\drivers\peripheral\sysclk/cy_sysclk.h **** *
 388:Generated_Source\PSoC6\pdl\drivers\peripheral\sysclk/cy_sysclk.h **** *   Some devices support a built-in clock supervisor (CSV) in the WCO. The clock
 389:Generated_Source\PSoC6\pdl\drivers\peripheral\sysclk/cy_sysclk.h **** *   supervisor detects if the WCO has been lost; that is, the WCO is no longer 
 390:Generated_Source\PSoC6\pdl\drivers\peripheral\sysclk/cy_sysclk.h **** *   producing clock pulses. The CSV does this by checking to ensure there is at 
 391:Generated_Source\PSoC6\pdl\drivers\peripheral\sysclk/cy_sysclk.h **** *   least one WCO clock pulse within a certain time window. The ILO or PILO can be
 392:Generated_Source\PSoC6\pdl\drivers\peripheral\sysclk/cy_sysclk.h **** *   the supervising clock. Firmware can configure the CSV to trigger a fault,
 393:Generated_Source\PSoC6\pdl\drivers\peripheral\sysclk/cy_sysclk.h **** *   a reset, or both after specified cycles of the supervising clock.
 394:Generated_Source\PSoC6\pdl\drivers\peripheral\sysclk/cy_sysclk.h **** *
 395:Generated_Source\PSoC6\pdl\drivers\peripheral\sysclk/cy_sysclk.h **** *   \defgroup group_sysclk_wco_funcs       Functions
 396:Generated_Source\PSoC6\pdl\drivers\peripheral\sysclk/cy_sysclk.h **** *   \defgroup group_sysclk_wco_structs     Data Structures
 397:Generated_Source\PSoC6\pdl\drivers\peripheral\sysclk/cy_sysclk.h **** *   \defgroup group_sysclk_wco_enums       Enumerated Types
 398:Generated_Source\PSoC6\pdl\drivers\peripheral\sysclk/cy_sysclk.h **** * \}
ARM GAS  C:\Users\tmj32\AppData\Local\Temp\cczBJdSj.s 			page 50


 399:Generated_Source\PSoC6\pdl\drivers\peripheral\sysclk/cy_sysclk.h **** * \defgroup group_sysclk_clk_hf          High-Frequency Clocks
 400:Generated_Source\PSoC6\pdl\drivers\peripheral\sysclk/cy_sysclk.h **** * \{
 401:Generated_Source\PSoC6\pdl\drivers\peripheral\sysclk/cy_sysclk.h **** *   Multiple high frequency clocks (CLK_HF) are available in the device. For example,
 402:Generated_Source\PSoC6\pdl\drivers\peripheral\sysclk/cy_sysclk.h **** *   PSoC 63 series has five high-frequency root clocks. Each CLK_HF has a particular
 403:Generated_Source\PSoC6\pdl\drivers\peripheral\sysclk/cy_sysclk.h **** *   connection and chip-specific destination on the device.
 404:Generated_Source\PSoC6\pdl\drivers\peripheral\sysclk/cy_sysclk.h **** *
 405:Generated_Source\PSoC6\pdl\drivers\peripheral\sysclk/cy_sysclk.h **** *   |Name     |Description                                             |
 406:Generated_Source\PSoC6\pdl\drivers\peripheral\sysclk/cy_sysclk.h **** *   |:--------|:-------------------------------------------------------|
 407:Generated_Source\PSoC6\pdl\drivers\peripheral\sysclk/cy_sysclk.h **** *   |CLK_HF[0]| Root clock for CPUs, PERI, and AHB infrastructure      |
 408:Generated_Source\PSoC6\pdl\drivers\peripheral\sysclk/cy_sysclk.h **** *   |CLK_HF[1]| Root clock for the PDM/PCM and I2S audio subsystem     |
 409:Generated_Source\PSoC6\pdl\drivers\peripheral\sysclk/cy_sysclk.h **** *   |CLK_HF[2]| Root clock for the Serial Memory Interface subsystem   |
 410:Generated_Source\PSoC6\pdl\drivers\peripheral\sysclk/cy_sysclk.h **** *   |CLK_HF[3]| Root clock for USB communications                      |
 411:Generated_Source\PSoC6\pdl\drivers\peripheral\sysclk/cy_sysclk.h **** *   |CLK_HF[4]| Clock output on clk_ext pin (when used as an output)   |
 412:Generated_Source\PSoC6\pdl\drivers\peripheral\sysclk/cy_sysclk.h **** *
 413:Generated_Source\PSoC6\pdl\drivers\peripheral\sysclk/cy_sysclk.h **** *   ![](sysclk_hf.png)
 414:Generated_Source\PSoC6\pdl\drivers\peripheral\sysclk/cy_sysclk.h **** *
 415:Generated_Source\PSoC6\pdl\drivers\peripheral\sysclk/cy_sysclk.h **** *   Note this is a particular example. The actual tree may vary depending on the device series.
 416:Generated_Source\PSoC6\pdl\drivers\peripheral\sysclk/cy_sysclk.h **** *   Consult the Technical Reference Manual for your device for details.
 417:Generated_Source\PSoC6\pdl\drivers\peripheral\sysclk/cy_sysclk.h **** *   
 418:Generated_Source\PSoC6\pdl\drivers\peripheral\sysclk/cy_sysclk.h **** *   High frequency clocks are sourced by path clocks, which should be configured
 419:Generated_Source\PSoC6\pdl\drivers\peripheral\sysclk/cy_sysclk.h **** *   first. An exception to this rule is CLK_HF[0], which cannot be disabled. 
 420:Generated_Source\PSoC6\pdl\drivers\peripheral\sysclk/cy_sysclk.h **** *   This divided clock drives the core processors and the peripherals in the system.
 421:Generated_Source\PSoC6\pdl\drivers\peripheral\sysclk/cy_sysclk.h **** *   In order to update its clock source, CLK_HF[0] source must be selected without
 422:Generated_Source\PSoC6\pdl\drivers\peripheral\sysclk/cy_sysclk.h **** *   disabling the clock.
 423:Generated_Source\PSoC6\pdl\drivers\peripheral\sysclk/cy_sysclk.h **** *
 424:Generated_Source\PSoC6\pdl\drivers\peripheral\sysclk/cy_sysclk.h **** *   ![](sysclk_hf_dist.png)
 425:Generated_Source\PSoC6\pdl\drivers\peripheral\sysclk/cy_sysclk.h **** *
 426:Generated_Source\PSoC6\pdl\drivers\peripheral\sysclk/cy_sysclk.h **** *   Some devices support a clock supervisor (CSV) for each root clock. These
 427:Generated_Source\PSoC6\pdl\drivers\peripheral\sysclk/cy_sysclk.h **** *   can detect frequency loss, or monitor that the clock frequency stays within
 428:Generated_Source\PSoC6\pdl\drivers\peripheral\sysclk/cy_sysclk.h **** *   a specified range. The possible supervising clocks are IMO, ECO, or ALTHF. 
 429:Generated_Source\PSoC6\pdl\drivers\peripheral\sysclk/cy_sysclk.h **** *   Loss detection and frequency monitoring can be enabled or disabled independently.
 430:Generated_Source\PSoC6\pdl\drivers\peripheral\sysclk/cy_sysclk.h **** *   Each has its own programmable action that occurs on detection of an error.
 431:Generated_Source\PSoC6\pdl\drivers\peripheral\sysclk/cy_sysclk.h **** *
 432:Generated_Source\PSoC6\pdl\drivers\peripheral\sysclk/cy_sysclk.h **** *   \defgroup group_sysclk_clk_hf_funcs    Functions
 433:Generated_Source\PSoC6\pdl\drivers\peripheral\sysclk/cy_sysclk.h **** *   \defgroup group_sysclk_clk_hf_structs  Data Structures
 434:Generated_Source\PSoC6\pdl\drivers\peripheral\sysclk/cy_sysclk.h **** *   \defgroup group_sysclk_clk_hf_enums    Enumerated Types
 435:Generated_Source\PSoC6\pdl\drivers\peripheral\sysclk/cy_sysclk.h **** * \}
 436:Generated_Source\PSoC6\pdl\drivers\peripheral\sysclk/cy_sysclk.h **** * \defgroup group_sysclk_clk_fast        Fast Clock
 437:Generated_Source\PSoC6\pdl\drivers\peripheral\sysclk/cy_sysclk.h **** * \{
 438:Generated_Source\PSoC6\pdl\drivers\peripheral\sysclk/cy_sysclk.h **** *   The fast clock drives the "fast" processor (e.g. Cortex-M4 processor in PSoC 6).
 439:Generated_Source\PSoC6\pdl\drivers\peripheral\sysclk/cy_sysclk.h **** *   This clock is sourced by CLK_HF[0] (\ref group_sysclk_clk_hf "HF Clocks").
 440:Generated_Source\PSoC6\pdl\drivers\peripheral\sysclk/cy_sysclk.h **** *   A divider value of 1~256 can be used to further divide the CLK_HF[0] to a
 441:Generated_Source\PSoC6\pdl\drivers\peripheral\sysclk/cy_sysclk.h **** *   desired clock speed for the processor.
 442:Generated_Source\PSoC6\pdl\drivers\peripheral\sysclk/cy_sysclk.h **** *
 443:Generated_Source\PSoC6\pdl\drivers\peripheral\sysclk/cy_sysclk.h **** *   ![](sysclk_fast.png)
 444:Generated_Source\PSoC6\pdl\drivers\peripheral\sysclk/cy_sysclk.h **** *
 445:Generated_Source\PSoC6\pdl\drivers\peripheral\sysclk/cy_sysclk.h **** *   \defgroup group_sysclk_clk_fast_funcs  Functions
 446:Generated_Source\PSoC6\pdl\drivers\peripheral\sysclk/cy_sysclk.h **** * \}
 447:Generated_Source\PSoC6\pdl\drivers\peripheral\sysclk/cy_sysclk.h **** * \defgroup group_sysclk_clk_peri        Peripheral Clock
 448:Generated_Source\PSoC6\pdl\drivers\peripheral\sysclk/cy_sysclk.h **** * \{
 449:Generated_Source\PSoC6\pdl\drivers\peripheral\sysclk/cy_sysclk.h **** *   The peripheral clock is a divided clock of CLK_HF0 (\ref group_sysclk_clk_hf "HF Clocks").
 450:Generated_Source\PSoC6\pdl\drivers\peripheral\sysclk/cy_sysclk.h **** *   It is the source clock for the \ref group_sysclk_clk_slow, and most active domain
 451:Generated_Source\PSoC6\pdl\drivers\peripheral\sysclk/cy_sysclk.h **** *   peripheral clocks (\ref group_sysclk_clk_peripheral). A divider value of 1~256 
 452:Generated_Source\PSoC6\pdl\drivers\peripheral\sysclk/cy_sysclk.h **** *   can be used to further divide the CLK_HF[0] to a desired clock speed for the peripherals.
 453:Generated_Source\PSoC6\pdl\drivers\peripheral\sysclk/cy_sysclk.h **** *
 454:Generated_Source\PSoC6\pdl\drivers\peripheral\sysclk/cy_sysclk.h **** *   ![](sysclk_peri.png)
 455:Generated_Source\PSoC6\pdl\drivers\peripheral\sysclk/cy_sysclk.h **** *
ARM GAS  C:\Users\tmj32\AppData\Local\Temp\cczBJdSj.s 			page 51


 456:Generated_Source\PSoC6\pdl\drivers\peripheral\sysclk/cy_sysclk.h **** *   \defgroup group_sysclk_clk_peri_funcs  Functions
 457:Generated_Source\PSoC6\pdl\drivers\peripheral\sysclk/cy_sysclk.h **** * \}
 458:Generated_Source\PSoC6\pdl\drivers\peripheral\sysclk/cy_sysclk.h **** * \defgroup group_sysclk_clk_peripheral  Peripherals Clock Dividers
 459:Generated_Source\PSoC6\pdl\drivers\peripheral\sysclk/cy_sysclk.h **** * \{
 460:Generated_Source\PSoC6\pdl\drivers\peripheral\sysclk/cy_sysclk.h **** *   There are multiple peripheral clock dividers that, in effect, create 
 461:Generated_Source\PSoC6\pdl\drivers\peripheral\sysclk/cy_sysclk.h **** *   multiple separate peripheral clocks. The available dividers vary per device 
 462:Generated_Source\PSoC6\pdl\drivers\peripheral\sysclk/cy_sysclk.h **** *   series. As an example, for the PSoC 63 series there are 29 dividers:
 463:Generated_Source\PSoC6\pdl\drivers\peripheral\sysclk/cy_sysclk.h **** *
 464:Generated_Source\PSoC6\pdl\drivers\peripheral\sysclk/cy_sysclk.h **** *   - eight 8-bit dividers
 465:Generated_Source\PSoC6\pdl\drivers\peripheral\sysclk/cy_sysclk.h **** *   - sixteen 16-bit dividers
 466:Generated_Source\PSoC6\pdl\drivers\peripheral\sysclk/cy_sysclk.h **** *   - four fractional 16.5-bit dividers (16 integer bits, 5 fractional bits)
 467:Generated_Source\PSoC6\pdl\drivers\peripheral\sysclk/cy_sysclk.h **** *   - one fractional 24.5-bit divider (24 integer bits, 5 fractional bits)
 468:Generated_Source\PSoC6\pdl\drivers\peripheral\sysclk/cy_sysclk.h **** *
 469:Generated_Source\PSoC6\pdl\drivers\peripheral\sysclk/cy_sysclk.h **** *
 470:Generated_Source\PSoC6\pdl\drivers\peripheral\sysclk/cy_sysclk.h **** *   The 8-bit and 16-bit dividers are integer dividers. A divider value of 1 
 471:Generated_Source\PSoC6\pdl\drivers\peripheral\sysclk/cy_sysclk.h **** *   means the output frequency matches the input frequency (that is, there is
 472:Generated_Source\PSoC6\pdl\drivers\peripheral\sysclk/cy_sysclk.h **** *   no change). Otherwise the frequency is divided by the value of the divider.
 473:Generated_Source\PSoC6\pdl\drivers\peripheral\sysclk/cy_sysclk.h **** *   For example, if the input frequency is 50 MHz, and the divider is value 10,
 474:Generated_Source\PSoC6\pdl\drivers\peripheral\sysclk/cy_sysclk.h **** *   the output frequency is 5 MHz.
 475:Generated_Source\PSoC6\pdl\drivers\peripheral\sysclk/cy_sysclk.h **** *
 476:Generated_Source\PSoC6\pdl\drivers\peripheral\sysclk/cy_sysclk.h **** *   The five fractional bits supports further precision in 1/32nd increments. For
 477:Generated_Source\PSoC6\pdl\drivers\peripheral\sysclk/cy_sysclk.h **** *   example, a divider with an integer value of 3 and a fractional value of
 478:Generated_Source\PSoC6\pdl\drivers\peripheral\sysclk/cy_sysclk.h **** *   4 (4/32) results in a divider of 3.125. Fractional dividers are useful when
 479:Generated_Source\PSoC6\pdl\drivers\peripheral\sysclk/cy_sysclk.h **** *   a high-precision clock is required, for example, for a UART/SPI serial
 480:Generated_Source\PSoC6\pdl\drivers\peripheral\sysclk/cy_sysclk.h **** *   interface.
 481:Generated_Source\PSoC6\pdl\drivers\peripheral\sysclk/cy_sysclk.h **** *
 482:Generated_Source\PSoC6\pdl\drivers\peripheral\sysclk/cy_sysclk.h **** *   ![](sysclk_peri_divs.png)
 483:Generated_Source\PSoC6\pdl\drivers\peripheral\sysclk/cy_sysclk.h **** *
 484:Generated_Source\PSoC6\pdl\drivers\peripheral\sysclk/cy_sysclk.h **** *   Each peripheral can connect to any one of the programmable dividers. A
 485:Generated_Source\PSoC6\pdl\drivers\peripheral\sysclk/cy_sysclk.h **** *   particular peripheral clock divider can drive multiple peripherals.
 486:Generated_Source\PSoC6\pdl\drivers\peripheral\sysclk/cy_sysclk.h **** *   
 487:Generated_Source\PSoC6\pdl\drivers\peripheral\sysclk/cy_sysclk.h **** *   The SysClk driver also supports phase aligning two peripheral clock dividers using
 488:Generated_Source\PSoC6\pdl\drivers\peripheral\sysclk/cy_sysclk.h **** *   Cy_SysClk_PeriphEnablePhaseAlignDivider(). Alignment works for both integer
 489:Generated_Source\PSoC6\pdl\drivers\peripheral\sysclk/cy_sysclk.h **** *   and fractional dividers. The divider to which a second divider is aligned
 490:Generated_Source\PSoC6\pdl\drivers\peripheral\sysclk/cy_sysclk.h **** *   must already be enabled.
 491:Generated_Source\PSoC6\pdl\drivers\peripheral\sysclk/cy_sysclk.h **** *
 492:Generated_Source\PSoC6\pdl\drivers\peripheral\sysclk/cy_sysclk.h **** *   \defgroup group_sysclk_clk_peripheral_funcs Functions
 493:Generated_Source\PSoC6\pdl\drivers\peripheral\sysclk/cy_sysclk.h **** *   \defgroup group_sysclk_clk_peripheral_enums Enumerated Types
 494:Generated_Source\PSoC6\pdl\drivers\peripheral\sysclk/cy_sysclk.h **** * \}
 495:Generated_Source\PSoC6\pdl\drivers\peripheral\sysclk/cy_sysclk.h **** * \defgroup group_sysclk_clk_slow        Slow Clock
 496:Generated_Source\PSoC6\pdl\drivers\peripheral\sysclk/cy_sysclk.h **** * \{
 497:Generated_Source\PSoC6\pdl\drivers\peripheral\sysclk/cy_sysclk.h **** *   The slow clock is the source clock for the "slow" processor (e.g. Cortex-M0+ in PSoC 6).
 498:Generated_Source\PSoC6\pdl\drivers\peripheral\sysclk/cy_sysclk.h **** *   This clock is a divided version of the \ref group_sysclk_clk_peri, which in turn is 
 499:Generated_Source\PSoC6\pdl\drivers\peripheral\sysclk/cy_sysclk.h **** *   a divided version of CLK_HF[0] (\ref group_sysclk_clk_hf "HF Clocks"). A divider 
 500:Generated_Source\PSoC6\pdl\drivers\peripheral\sysclk/cy_sysclk.h **** *   value of 1~256 can be used to further divide the Peri clock to a desired clock speed
 501:Generated_Source\PSoC6\pdl\drivers\peripheral\sysclk/cy_sysclk.h **** *   for the processor.
 502:Generated_Source\PSoC6\pdl\drivers\peripheral\sysclk/cy_sysclk.h **** *
 503:Generated_Source\PSoC6\pdl\drivers\peripheral\sysclk/cy_sysclk.h **** *   ![](sysclk_slow.png)
 504:Generated_Source\PSoC6\pdl\drivers\peripheral\sysclk/cy_sysclk.h **** *
 505:Generated_Source\PSoC6\pdl\drivers\peripheral\sysclk/cy_sysclk.h **** *   \defgroup group_sysclk_clk_slow_funcs  Functions
 506:Generated_Source\PSoC6\pdl\drivers\peripheral\sysclk/cy_sysclk.h **** * \}
 507:Generated_Source\PSoC6\pdl\drivers\peripheral\sysclk/cy_sysclk.h **** * \defgroup group_sysclk_clk_lf          Low-Frequency Clock
 508:Generated_Source\PSoC6\pdl\drivers\peripheral\sysclk/cy_sysclk.h **** * \{
 509:Generated_Source\PSoC6\pdl\drivers\peripheral\sysclk/cy_sysclk.h **** *   The low-frequency clock is the source clock for the \ref group_mcwdt
 510:Generated_Source\PSoC6\pdl\drivers\peripheral\sysclk/cy_sysclk.h **** *   and can be the source clock for \ref group_sysclk_clk_bak, which drives the
 511:Generated_Source\PSoC6\pdl\drivers\peripheral\sysclk/cy_sysclk.h **** *   \ref group_rtc.
 512:Generated_Source\PSoC6\pdl\drivers\peripheral\sysclk/cy_sysclk.h **** *   
ARM GAS  C:\Users\tmj32\AppData\Local\Temp\cczBJdSj.s 			page 52


 513:Generated_Source\PSoC6\pdl\drivers\peripheral\sysclk/cy_sysclk.h **** *   The low-frequency clock has three possible source clocks:
 514:Generated_Source\PSoC6\pdl\drivers\peripheral\sysclk/cy_sysclk.h **** *   \ref group_sysclk_ilo "ILO", \ref group_sysclk_pilo "PILO", and
 515:Generated_Source\PSoC6\pdl\drivers\peripheral\sysclk/cy_sysclk.h **** *   \ref group_sysclk_wco "WCO".
 516:Generated_Source\PSoC6\pdl\drivers\peripheral\sysclk/cy_sysclk.h **** *
 517:Generated_Source\PSoC6\pdl\drivers\peripheral\sysclk/cy_sysclk.h **** *   ![](sysclk_lf.png)
 518:Generated_Source\PSoC6\pdl\drivers\peripheral\sysclk/cy_sysclk.h **** *
 519:Generated_Source\PSoC6\pdl\drivers\peripheral\sysclk/cy_sysclk.h **** *   \defgroup group_sysclk_clk_lf_funcs    Functions
 520:Generated_Source\PSoC6\pdl\drivers\peripheral\sysclk/cy_sysclk.h **** *   \defgroup group_sysclk_clk_lf_enums    Enumerated Types
 521:Generated_Source\PSoC6\pdl\drivers\peripheral\sysclk/cy_sysclk.h **** * \}
 522:Generated_Source\PSoC6\pdl\drivers\peripheral\sysclk/cy_sysclk.h **** * \defgroup group_sysclk_clk_timer       Timer Clock
 523:Generated_Source\PSoC6\pdl\drivers\peripheral\sysclk/cy_sysclk.h **** * \{
 524:Generated_Source\PSoC6\pdl\drivers\peripheral\sysclk/cy_sysclk.h **** *   The timer clock can be a source for the alternative clock driving 
 525:Generated_Source\PSoC6\pdl\drivers\peripheral\sysclk/cy_sysclk.h **** *   the \ref group_arm_system_timer. It can also be used as a reference clock 
 526:Generated_Source\PSoC6\pdl\drivers\peripheral\sysclk/cy_sysclk.h **** *   for a counter in the \ref group_energy_profiler "Energy Profiler".
 527:Generated_Source\PSoC6\pdl\drivers\peripheral\sysclk/cy_sysclk.h **** *   
 528:Generated_Source\PSoC6\pdl\drivers\peripheral\sysclk/cy_sysclk.h **** *   The timer clock is a divided clock of either the IMO or CLK_HF[0]
 529:Generated_Source\PSoC6\pdl\drivers\peripheral\sysclk/cy_sysclk.h **** *   (\ref group_sysclk_clk_hf "HF Clocks").
 530:Generated_Source\PSoC6\pdl\drivers\peripheral\sysclk/cy_sysclk.h **** *
 531:Generated_Source\PSoC6\pdl\drivers\peripheral\sysclk/cy_sysclk.h **** *   \defgroup group_sysclk_clk_timer_funcs Functions
 532:Generated_Source\PSoC6\pdl\drivers\peripheral\sysclk/cy_sysclk.h **** *   \defgroup group_sysclk_clk_timer_enums Enumerated Types
 533:Generated_Source\PSoC6\pdl\drivers\peripheral\sysclk/cy_sysclk.h **** * \}
 534:Generated_Source\PSoC6\pdl\drivers\peripheral\sysclk/cy_sysclk.h **** * \defgroup group_sysclk_clk_pump        Pump Clock
 535:Generated_Source\PSoC6\pdl\drivers\peripheral\sysclk/cy_sysclk.h **** * \{
 536:Generated_Source\PSoC6\pdl\drivers\peripheral\sysclk/cy_sysclk.h **** *   The pump clock is a clock source used to provide analog precision in low voltage
 537:Generated_Source\PSoC6\pdl\drivers\peripheral\sysclk/cy_sysclk.h **** *   applications. Depending on the usage scenario, it may be required to drive the
 538:Generated_Source\PSoC6\pdl\drivers\peripheral\sysclk/cy_sysclk.h **** *   internal voltage pump for the Continuous Time Block mini (CTBm) in the analog 
 539:Generated_Source\PSoC6\pdl\drivers\peripheral\sysclk/cy_sysclk.h **** *   subsystem. The pump clock is a divided clock of one of the clock paths 
 540:Generated_Source\PSoC6\pdl\drivers\peripheral\sysclk/cy_sysclk.h **** *   (\ref group_sysclk_path_src).
 541:Generated_Source\PSoC6\pdl\drivers\peripheral\sysclk/cy_sysclk.h **** *
 542:Generated_Source\PSoC6\pdl\drivers\peripheral\sysclk/cy_sysclk.h **** *   \defgroup group_sysclk_clk_pump_funcs  Functions
 543:Generated_Source\PSoC6\pdl\drivers\peripheral\sysclk/cy_sysclk.h **** *   \defgroup group_sysclk_clk_pump_enums  Enumerated Types
 544:Generated_Source\PSoC6\pdl\drivers\peripheral\sysclk/cy_sysclk.h **** * \}
 545:Generated_Source\PSoC6\pdl\drivers\peripheral\sysclk/cy_sysclk.h **** * \defgroup group_sysclk_clk_bak         Backup Domain Clock
 546:Generated_Source\PSoC6\pdl\drivers\peripheral\sysclk/cy_sysclk.h **** * \{
 547:Generated_Source\PSoC6\pdl\drivers\peripheral\sysclk/cy_sysclk.h **** *   The backup domain clock drives the \ref group_rtc.
 548:Generated_Source\PSoC6\pdl\drivers\peripheral\sysclk/cy_sysclk.h **** *   This clock has two possible source clocks: \ref group_sysclk_wco "WCO"
 549:Generated_Source\PSoC6\pdl\drivers\peripheral\sysclk/cy_sysclk.h **** *   or the \ref group_sysclk_clk_lf. In turn the low frequency clock is sourced by
 550:Generated_Source\PSoC6\pdl\drivers\peripheral\sysclk/cy_sysclk.h **** *   \ref group_sysclk_ilo "ILO", \ref group_sysclk_pilo "PILO", or
 551:Generated_Source\PSoC6\pdl\drivers\peripheral\sysclk/cy_sysclk.h **** *   \ref group_sysclk_wco "WCO". Typically the ILO is not suitable as an RTC source,
 552:Generated_Source\PSoC6\pdl\drivers\peripheral\sysclk/cy_sysclk.h **** *   because of its low accuracy. However the ILO does operate in hibernate mode and
 553:Generated_Source\PSoC6\pdl\drivers\peripheral\sysclk/cy_sysclk.h **** *   may be used as an alternative to the WCO with a tradeoff in precision.
 554:Generated_Source\PSoC6\pdl\drivers\peripheral\sysclk/cy_sysclk.h **** *
 555:Generated_Source\PSoC6\pdl\drivers\peripheral\sysclk/cy_sysclk.h **** *   \defgroup group_sysclk_clk_bak_funcs   Functions
 556:Generated_Source\PSoC6\pdl\drivers\peripheral\sysclk/cy_sysclk.h **** *   \defgroup group_sysclk_clk_bak_enums   Enumerated Types
 557:Generated_Source\PSoC6\pdl\drivers\peripheral\sysclk/cy_sysclk.h **** * \}
 558:Generated_Source\PSoC6\pdl\drivers\peripheral\sysclk/cy_sysclk.h **** */
 559:Generated_Source\PSoC6\pdl\drivers\peripheral\sysclk/cy_sysclk.h **** 
 560:Generated_Source\PSoC6\pdl\drivers\peripheral\sysclk/cy_sysclk.h **** #if !defined(CY_SYSCLK_H)
 561:Generated_Source\PSoC6\pdl\drivers\peripheral\sysclk/cy_sysclk.h **** #define CY_SYSCLK_H
 562:Generated_Source\PSoC6\pdl\drivers\peripheral\sysclk/cy_sysclk.h **** 
 563:Generated_Source\PSoC6\pdl\drivers\peripheral\sysclk/cy_sysclk.h **** #include <stdbool.h>
 564:Generated_Source\PSoC6\pdl\drivers\peripheral\sysclk/cy_sysclk.h **** #include "cy_device.h"
 565:Generated_Source\PSoC6\pdl\drivers\peripheral\sysclk/cy_sysclk.h **** #include "cy_device_headers.h"
 566:Generated_Source\PSoC6\pdl\drivers\peripheral\sysclk/cy_sysclk.h **** #include "cy_syslib.h"
 567:Generated_Source\PSoC6\pdl\drivers\peripheral\sysclk/cy_sysclk.h **** #include "cy_syspm.h"
 568:Generated_Source\PSoC6\pdl\drivers\peripheral\sysclk/cy_sysclk.h **** 
 569:Generated_Source\PSoC6\pdl\drivers\peripheral\sysclk/cy_sysclk.h **** 
ARM GAS  C:\Users\tmj32\AppData\Local\Temp\cczBJdSj.s 			page 53


 570:Generated_Source\PSoC6\pdl\drivers\peripheral\sysclk/cy_sysclk.h **** #if defined(__cplusplus)
 571:Generated_Source\PSoC6\pdl\drivers\peripheral\sysclk/cy_sysclk.h **** extern "C" {
 572:Generated_Source\PSoC6\pdl\drivers\peripheral\sysclk/cy_sysclk.h **** #endif /* __cplusplus */
 573:Generated_Source\PSoC6\pdl\drivers\peripheral\sysclk/cy_sysclk.h **** 
 574:Generated_Source\PSoC6\pdl\drivers\peripheral\sysclk/cy_sysclk.h **** /**
 575:Generated_Source\PSoC6\pdl\drivers\peripheral\sysclk/cy_sysclk.h **** * \addtogroup group_sysclk_macros
 576:Generated_Source\PSoC6\pdl\drivers\peripheral\sysclk/cy_sysclk.h **** * \{
 577:Generated_Source\PSoC6\pdl\drivers\peripheral\sysclk/cy_sysclk.h **** */
 578:Generated_Source\PSoC6\pdl\drivers\peripheral\sysclk/cy_sysclk.h **** /** Driver major version */
 579:Generated_Source\PSoC6\pdl\drivers\peripheral\sysclk/cy_sysclk.h **** #define  CY_SYSCLK_DRV_VERSION_MAJOR   1
 580:Generated_Source\PSoC6\pdl\drivers\peripheral\sysclk/cy_sysclk.h **** /** Driver minor version */
 581:Generated_Source\PSoC6\pdl\drivers\peripheral\sysclk/cy_sysclk.h **** #define  CY_SYSCLK_DRV_VERSION_MINOR   20
 582:Generated_Source\PSoC6\pdl\drivers\peripheral\sysclk/cy_sysclk.h **** /** Sysclk driver identifier */
 583:Generated_Source\PSoC6\pdl\drivers\peripheral\sysclk/cy_sysclk.h **** #define CY_SYSCLK_ID   CY_PDL_DRV_ID(0x12U)
 584:Generated_Source\PSoC6\pdl\drivers\peripheral\sysclk/cy_sysclk.h **** 
 585:Generated_Source\PSoC6\pdl\drivers\peripheral\sysclk/cy_sysclk.h **** /** \} group_sysclk_macros */
 586:Generated_Source\PSoC6\pdl\drivers\peripheral\sysclk/cy_sysclk.h **** 
 587:Generated_Source\PSoC6\pdl\drivers\peripheral\sysclk/cy_sysclk.h **** /**
 588:Generated_Source\PSoC6\pdl\drivers\peripheral\sysclk/cy_sysclk.h **** * \addtogroup group_sysclk_returns
 589:Generated_Source\PSoC6\pdl\drivers\peripheral\sysclk/cy_sysclk.h **** * \{
 590:Generated_Source\PSoC6\pdl\drivers\peripheral\sysclk/cy_sysclk.h **** */
 591:Generated_Source\PSoC6\pdl\drivers\peripheral\sysclk/cy_sysclk.h **** /** Defines general-purpose function return values. */
 592:Generated_Source\PSoC6\pdl\drivers\peripheral\sysclk/cy_sysclk.h **** typedef enum
 593:Generated_Source\PSoC6\pdl\drivers\peripheral\sysclk/cy_sysclk.h **** {
 594:Generated_Source\PSoC6\pdl\drivers\peripheral\sysclk/cy_sysclk.h ****     CY_SYSCLK_SUCCESS       = 0u, /**< Command completed with no errors */
 595:Generated_Source\PSoC6\pdl\drivers\peripheral\sysclk/cy_sysclk.h ****     CY_SYSCLK_BAD_PARAM     = (CY_SYSCLK_ID | CY_PDL_STATUS_ERROR | 1U), /**< Invalid function inpu
 596:Generated_Source\PSoC6\pdl\drivers\peripheral\sysclk/cy_sysclk.h ****     CY_SYSCLK_TIMEOUT       = (CY_SYSCLK_ID | CY_PDL_STATUS_ERROR | 2U), /**< Timeout occurred */
 597:Generated_Source\PSoC6\pdl\drivers\peripheral\sysclk/cy_sysclk.h ****     CY_SYSCLK_INVALID_STATE = (CY_SYSCLK_ID | CY_PDL_STATUS_ERROR | 3U)  /**< Clock is in an invali
 598:Generated_Source\PSoC6\pdl\drivers\peripheral\sysclk/cy_sysclk.h **** } cy_en_sysclk_status_t;
 599:Generated_Source\PSoC6\pdl\drivers\peripheral\sysclk/cy_sysclk.h **** /** \} group_sysclk_returns */
 600:Generated_Source\PSoC6\pdl\drivers\peripheral\sysclk/cy_sysclk.h **** 
 601:Generated_Source\PSoC6\pdl\drivers\peripheral\sysclk/cy_sysclk.h **** /** \cond INTERNAL */
 602:Generated_Source\PSoC6\pdl\drivers\peripheral\sysclk/cy_sysclk.h **** /* Calculate a / b with rounding to the nearest integer. a and b must have the same sign. */
 603:Generated_Source\PSoC6\pdl\drivers\peripheral\sysclk/cy_sysclk.h **** #define CY_SYSCLK_DIV_ROUND(a, b) (((a) + ((b) / 2u)) / (b))
 604:Generated_Source\PSoC6\pdl\drivers\peripheral\sysclk/cy_sysclk.h **** /* Calculate a / b with rounding up if remainder != 0. a and b must both be positive. */
 605:Generated_Source\PSoC6\pdl\drivers\peripheral\sysclk/cy_sysclk.h **** #define CY_SYSCLK_DIV_ROUNDUP(a, b) ((((a) - 1U) / (b)) + 1U)
 606:Generated_Source\PSoC6\pdl\drivers\peripheral\sysclk/cy_sysclk.h **** /** \endcond */
 607:Generated_Source\PSoC6\pdl\drivers\peripheral\sysclk/cy_sysclk.h **** 
 608:Generated_Source\PSoC6\pdl\drivers\peripheral\sysclk/cy_sysclk.h **** 
 609:Generated_Source\PSoC6\pdl\drivers\peripheral\sysclk/cy_sysclk.h **** /* ========================================================================== */
 610:Generated_Source\PSoC6\pdl\drivers\peripheral\sysclk/cy_sysclk.h **** /* ===========================    ECO SECTION    ============================ */
 611:Generated_Source\PSoC6\pdl\drivers\peripheral\sysclk/cy_sysclk.h **** /* ========================================================================== */
 612:Generated_Source\PSoC6\pdl\drivers\peripheral\sysclk/cy_sysclk.h **** 
 613:Generated_Source\PSoC6\pdl\drivers\peripheral\sysclk/cy_sysclk.h **** /**
 614:Generated_Source\PSoC6\pdl\drivers\peripheral\sysclk/cy_sysclk.h **** * \addtogroup group_sysclk_macros
 615:Generated_Source\PSoC6\pdl\drivers\peripheral\sysclk/cy_sysclk.h **** * \{
 616:Generated_Source\PSoC6\pdl\drivers\peripheral\sysclk/cy_sysclk.h **** */
 617:Generated_Source\PSoC6\pdl\drivers\peripheral\sysclk/cy_sysclk.h **** 
 618:Generated_Source\PSoC6\pdl\drivers\peripheral\sysclk/cy_sysclk.h **** /**
 619:Generated_Source\PSoC6\pdl\drivers\peripheral\sysclk/cy_sysclk.h **** * \defgroup group_sysclk_ecostatus ECO status
 620:Generated_Source\PSoC6\pdl\drivers\peripheral\sysclk/cy_sysclk.h **** * \{
 621:Generated_Source\PSoC6\pdl\drivers\peripheral\sysclk/cy_sysclk.h **** * Constants used for expressing ECO status.
 622:Generated_Source\PSoC6\pdl\drivers\peripheral\sysclk/cy_sysclk.h **** */
 623:Generated_Source\PSoC6\pdl\drivers\peripheral\sysclk/cy_sysclk.h **** #define CY_SYSCLK_ECOSTAT_AMPLITUDE  0UL /**< \brief ECO does not have sufficient amplitude */
 624:Generated_Source\PSoC6\pdl\drivers\peripheral\sysclk/cy_sysclk.h **** #define CY_SYSCLK_ECOSTAT_INACCURATE 1UL /**< \brief ECO may not be meeting accuracy and duty cycle
 625:Generated_Source\PSoC6\pdl\drivers\peripheral\sysclk/cy_sysclk.h **** #define CY_SYSCLK_ECOSTAT_STABLE     2UL /**< \brief ECO has fully stabilized */
 626:Generated_Source\PSoC6\pdl\drivers\peripheral\sysclk/cy_sysclk.h **** /** \} */
ARM GAS  C:\Users\tmj32\AppData\Local\Temp\cczBJdSj.s 			page 54


 627:Generated_Source\PSoC6\pdl\drivers\peripheral\sysclk/cy_sysclk.h **** 
 628:Generated_Source\PSoC6\pdl\drivers\peripheral\sysclk/cy_sysclk.h **** /** \} group_sysclk_macros */
 629:Generated_Source\PSoC6\pdl\drivers\peripheral\sysclk/cy_sysclk.h **** 
 630:Generated_Source\PSoC6\pdl\drivers\peripheral\sysclk/cy_sysclk.h **** 
 631:Generated_Source\PSoC6\pdl\drivers\peripheral\sysclk/cy_sysclk.h **** /**
 632:Generated_Source\PSoC6\pdl\drivers\peripheral\sysclk/cy_sysclk.h **** * \addtogroup group_sysclk_eco_funcs
 633:Generated_Source\PSoC6\pdl\drivers\peripheral\sysclk/cy_sysclk.h **** * \{
 634:Generated_Source\PSoC6\pdl\drivers\peripheral\sysclk/cy_sysclk.h **** */
 635:Generated_Source\PSoC6\pdl\drivers\peripheral\sysclk/cy_sysclk.h **** cy_en_sysclk_status_t Cy_SysClk_EcoConfigure(uint32_t freq, uint32_t cLoad, uint32_t esr, uint32_t 
 636:Generated_Source\PSoC6\pdl\drivers\peripheral\sysclk/cy_sysclk.h **** cy_en_sysclk_status_t Cy_SysClk_EcoEnable(uint32_t timeoutus);
 637:Generated_Source\PSoC6\pdl\drivers\peripheral\sysclk/cy_sysclk.h **** __STATIC_INLINE void Cy_SysClk_EcoDisable(void);
 638:Generated_Source\PSoC6\pdl\drivers\peripheral\sysclk/cy_sysclk.h **** __STATIC_INLINE uint32_t Cy_SysClk_EcoGetStatus(void);
 639:Generated_Source\PSoC6\pdl\drivers\peripheral\sysclk/cy_sysclk.h **** 
 640:Generated_Source\PSoC6\pdl\drivers\peripheral\sysclk/cy_sysclk.h **** /*******************************************************************************
 641:Generated_Source\PSoC6\pdl\drivers\peripheral\sysclk/cy_sysclk.h **** * Function Name: Cy_SysClk_EcoDisable
 642:Generated_Source\PSoC6\pdl\drivers\peripheral\sysclk/cy_sysclk.h **** ****************************************************************************//**
 643:Generated_Source\PSoC6\pdl\drivers\peripheral\sysclk/cy_sysclk.h **** *
 644:Generated_Source\PSoC6\pdl\drivers\peripheral\sysclk/cy_sysclk.h **** * Disables the external crystal oscillator (ECO). This function should not be
 645:Generated_Source\PSoC6\pdl\drivers\peripheral\sysclk/cy_sysclk.h **** * called if the ECO is sourcing clkHf[0].
 646:Generated_Source\PSoC6\pdl\drivers\peripheral\sysclk/cy_sysclk.h **** *
 647:Generated_Source\PSoC6\pdl\drivers\peripheral\sysclk/cy_sysclk.h **** * \funcusage
 648:Generated_Source\PSoC6\pdl\drivers\peripheral\sysclk/cy_sysclk.h **** * \snippet sysclk/1.20/snippet/main.c snippet_Cy_SysClk_EcoDisable
 649:Generated_Source\PSoC6\pdl\drivers\peripheral\sysclk/cy_sysclk.h **** *
 650:Generated_Source\PSoC6\pdl\drivers\peripheral\sysclk/cy_sysclk.h **** *******************************************************************************/
 651:Generated_Source\PSoC6\pdl\drivers\peripheral\sysclk/cy_sysclk.h **** __STATIC_INLINE void Cy_SysClk_EcoDisable(void)
 652:Generated_Source\PSoC6\pdl\drivers\peripheral\sysclk/cy_sysclk.h **** {
 653:Generated_Source\PSoC6\pdl\drivers\peripheral\sysclk/cy_sysclk.h ****     SRSS_CLK_ECO_CONFIG &= (uint32_t)~_VAL2FLD(SRSS_CLK_ECO_CONFIG_ECO_EN, 1U); /* 0 = disable */
 654:Generated_Source\PSoC6\pdl\drivers\peripheral\sysclk/cy_sysclk.h **** }
 655:Generated_Source\PSoC6\pdl\drivers\peripheral\sysclk/cy_sysclk.h **** 
 656:Generated_Source\PSoC6\pdl\drivers\peripheral\sysclk/cy_sysclk.h **** /*******************************************************************************
 657:Generated_Source\PSoC6\pdl\drivers\peripheral\sysclk/cy_sysclk.h **** * Function Name: Cy_SysClk_EcoGetStatus
 658:Generated_Source\PSoC6\pdl\drivers\peripheral\sysclk/cy_sysclk.h **** ****************************************************************************//**
 659:Generated_Source\PSoC6\pdl\drivers\peripheral\sysclk/cy_sysclk.h **** *
 660:Generated_Source\PSoC6\pdl\drivers\peripheral\sysclk/cy_sysclk.h **** * Reports the current status of the external crystal oscillator (ECO).
 661:Generated_Source\PSoC6\pdl\drivers\peripheral\sysclk/cy_sysclk.h **** *
 662:Generated_Source\PSoC6\pdl\drivers\peripheral\sysclk/cy_sysclk.h **** * \return
 663:Generated_Source\PSoC6\pdl\drivers\peripheral\sysclk/cy_sysclk.h **** * CY_SYSCLK_ECOSTAT_AMPLITUDE = ECO does not have sufficient amplitude<br>
 664:Generated_Source\PSoC6\pdl\drivers\peripheral\sysclk/cy_sysclk.h **** * CY_SYSCLK_ECOSTAT_INACCURATE = ECO has sufficient amplitude but may not be meeting accuracy and d
 665:Generated_Source\PSoC6\pdl\drivers\peripheral\sysclk/cy_sysclk.h **** * CY_SYSCLK_ECOSTAT_STABLE = ECO has fully stabilized
 666:Generated_Source\PSoC6\pdl\drivers\peripheral\sysclk/cy_sysclk.h **** *
 667:Generated_Source\PSoC6\pdl\drivers\peripheral\sysclk/cy_sysclk.h **** * \funcusage
 668:Generated_Source\PSoC6\pdl\drivers\peripheral\sysclk/cy_sysclk.h **** * \snippet sysclk/1.20/snippet/main.c snippet_Cy_SysClk_EcoGetStatus
 669:Generated_Source\PSoC6\pdl\drivers\peripheral\sysclk/cy_sysclk.h **** *
 670:Generated_Source\PSoC6\pdl\drivers\peripheral\sysclk/cy_sysclk.h **** *******************************************************************************/
 671:Generated_Source\PSoC6\pdl\drivers\peripheral\sysclk/cy_sysclk.h **** __STATIC_INLINE uint32_t Cy_SysClk_EcoGetStatus(void)
 672:Generated_Source\PSoC6\pdl\drivers\peripheral\sysclk/cy_sysclk.h **** {
 673:Generated_Source\PSoC6\pdl\drivers\peripheral\sysclk/cy_sysclk.h ****     uint32_t retVal = (SRSS_CLK_ECO_STATUS & (SRSS_CLK_ECO_STATUS_ECO_OK_Msk | SRSS_CLK_ECO_STATUS_
 674:Generated_Source\PSoC6\pdl\drivers\peripheral\sysclk/cy_sysclk.h ****     /* if ECO is not ready, just report the ECO_OK bit. Otherwise report 2 = ECO ready */
 675:Generated_Source\PSoC6\pdl\drivers\peripheral\sysclk/cy_sysclk.h ****     return ((0UL == (retVal & SRSS_CLK_ECO_STATUS_ECO_READY_Msk)) ? retVal : CY_SYSCLK_ECOSTAT_STAB
 676:Generated_Source\PSoC6\pdl\drivers\peripheral\sysclk/cy_sysclk.h **** }
 677:Generated_Source\PSoC6\pdl\drivers\peripheral\sysclk/cy_sysclk.h **** /** \} group_sysclk_eco_funcs */
 678:Generated_Source\PSoC6\pdl\drivers\peripheral\sysclk/cy_sysclk.h **** 
 679:Generated_Source\PSoC6\pdl\drivers\peripheral\sysclk/cy_sysclk.h **** 
 680:Generated_Source\PSoC6\pdl\drivers\peripheral\sysclk/cy_sysclk.h **** /* ========================================================================== */
 681:Generated_Source\PSoC6\pdl\drivers\peripheral\sysclk/cy_sysclk.h **** /* ====================    INPUT MULTIPLEXER SECTION    ===================== */
 682:Generated_Source\PSoC6\pdl\drivers\peripheral\sysclk/cy_sysclk.h **** /* ========================================================================== */
 683:Generated_Source\PSoC6\pdl\drivers\peripheral\sysclk/cy_sysclk.h **** /**
ARM GAS  C:\Users\tmj32\AppData\Local\Temp\cczBJdSj.s 			page 55


 684:Generated_Source\PSoC6\pdl\drivers\peripheral\sysclk/cy_sysclk.h **** * \addtogroup group_sysclk_path_src_enums
 685:Generated_Source\PSoC6\pdl\drivers\peripheral\sysclk/cy_sysclk.h **** * \{
 686:Generated_Source\PSoC6\pdl\drivers\peripheral\sysclk/cy_sysclk.h **** */
 687:Generated_Source\PSoC6\pdl\drivers\peripheral\sysclk/cy_sysclk.h **** /**
 688:Generated_Source\PSoC6\pdl\drivers\peripheral\sysclk/cy_sysclk.h **** *   Input multiplexer clock sources
 689:Generated_Source\PSoC6\pdl\drivers\peripheral\sysclk/cy_sysclk.h **** */
 690:Generated_Source\PSoC6\pdl\drivers\peripheral\sysclk/cy_sysclk.h **** typedef enum
 691:Generated_Source\PSoC6\pdl\drivers\peripheral\sysclk/cy_sysclk.h **** {
 692:Generated_Source\PSoC6\pdl\drivers\peripheral\sysclk/cy_sysclk.h ****     CY_SYSCLK_CLKPATH_IN_IMO    =     0U, /**< Select the IMO as the output of the path mux */
 693:Generated_Source\PSoC6\pdl\drivers\peripheral\sysclk/cy_sysclk.h ****     CY_SYSCLK_CLKPATH_IN_EXT    =     1U, /**< Select the EXT as the output of the path mux */
 694:Generated_Source\PSoC6\pdl\drivers\peripheral\sysclk/cy_sysclk.h ****     CY_SYSCLK_CLKPATH_IN_ECO    =     2U, /**< Select the ECO as the output of the path mux */
 695:Generated_Source\PSoC6\pdl\drivers\peripheral\sysclk/cy_sysclk.h ****     CY_SYSCLK_CLKPATH_IN_ALTHF  =     3U, /**< Select the ALTHF as the output of the path mux.
 696:Generated_Source\PSoC6\pdl\drivers\peripheral\sysclk/cy_sysclk.h ****                                            *   Make sure the ALTHF clock source is available on use
 697:Generated_Source\PSoC6\pdl\drivers\peripheral\sysclk/cy_sysclk.h ****                                            */
 698:Generated_Source\PSoC6\pdl\drivers\peripheral\sysclk/cy_sysclk.h ****     CY_SYSCLK_CLKPATH_IN_DSIMUX =     4U, /**< Select the DSI MUX output as the output of the path 
 699:Generated_Source\PSoC6\pdl\drivers\peripheral\sysclk/cy_sysclk.h ****     CY_SYSCLK_CLKPATH_IN_DSI    = 0x100U, /**< Select a DSI signal (0 - 15) as the output of the DS
 700:Generated_Source\PSoC6\pdl\drivers\peripheral\sysclk/cy_sysclk.h ****                                            *   Make sure the DSI clock sources are available on use
 701:Generated_Source\PSoC6\pdl\drivers\peripheral\sysclk/cy_sysclk.h ****                                            */
 702:Generated_Source\PSoC6\pdl\drivers\peripheral\sysclk/cy_sysclk.h ****     CY_SYSCLK_CLKPATH_IN_ILO    = 0x110U, /**< Select the ILO (16) as the output of the DSI mux and
 703:Generated_Source\PSoC6\pdl\drivers\peripheral\sysclk/cy_sysclk.h ****     CY_SYSCLK_CLKPATH_IN_WCO    = 0x111U, /**< Select the WCO (17) as the output of the DSI mux and
 704:Generated_Source\PSoC6\pdl\drivers\peripheral\sysclk/cy_sysclk.h ****     CY_SYSCLK_CLKPATH_IN_ALTLF  = 0x112U, /**< Select the ALTLF (18) as the output of the DSI mux a
 705:Generated_Source\PSoC6\pdl\drivers\peripheral\sysclk/cy_sysclk.h ****                                            *   Make sure the ALTLF clock sources in available on us
 706:Generated_Source\PSoC6\pdl\drivers\peripheral\sysclk/cy_sysclk.h ****                                            */
 707:Generated_Source\PSoC6\pdl\drivers\peripheral\sysclk/cy_sysclk.h ****     CY_SYSCLK_CLKPATH_IN_PILO   = 0x113U  /**< Select the PILO (19) as the output of the DSI mux an
 708:Generated_Source\PSoC6\pdl\drivers\peripheral\sysclk/cy_sysclk.h ****                                            *   Make sure the PILO clock sources in available on use
 709:Generated_Source\PSoC6\pdl\drivers\peripheral\sysclk/cy_sysclk.h ****                                            */
 710:Generated_Source\PSoC6\pdl\drivers\peripheral\sysclk/cy_sysclk.h **** } cy_en_clkpath_in_sources_t;
 711:Generated_Source\PSoC6\pdl\drivers\peripheral\sysclk/cy_sysclk.h **** /** \} group_sysclk_path_src_enums */
 712:Generated_Source\PSoC6\pdl\drivers\peripheral\sysclk/cy_sysclk.h **** 
 713:Generated_Source\PSoC6\pdl\drivers\peripheral\sysclk/cy_sysclk.h **** /**
 714:Generated_Source\PSoC6\pdl\drivers\peripheral\sysclk/cy_sysclk.h **** * \addtogroup group_sysclk_path_src_funcs
 715:Generated_Source\PSoC6\pdl\drivers\peripheral\sysclk/cy_sysclk.h **** * \{
 716:Generated_Source\PSoC6\pdl\drivers\peripheral\sysclk/cy_sysclk.h **** */
 717:Generated_Source\PSoC6\pdl\drivers\peripheral\sysclk/cy_sysclk.h **** cy_en_sysclk_status_t Cy_SysClk_ClkPathSetSource(uint32_t clkPath, cy_en_clkpath_in_sources_t sourc
 718:Generated_Source\PSoC6\pdl\drivers\peripheral\sysclk/cy_sysclk.h **** cy_en_clkpath_in_sources_t Cy_SysClk_ClkPathGetSource(uint32_t clkPath);
 719:Generated_Source\PSoC6\pdl\drivers\peripheral\sysclk/cy_sysclk.h **** /** \} group_sysclk_path_src_funcs */
 720:Generated_Source\PSoC6\pdl\drivers\peripheral\sysclk/cy_sysclk.h **** 
 721:Generated_Source\PSoC6\pdl\drivers\peripheral\sysclk/cy_sysclk.h **** 
 722:Generated_Source\PSoC6\pdl\drivers\peripheral\sysclk/cy_sysclk.h **** /* ========================================================================== */
 723:Generated_Source\PSoC6\pdl\drivers\peripheral\sysclk/cy_sysclk.h **** /* ===========================    FLL SECTION    ============================ */
 724:Generated_Source\PSoC6\pdl\drivers\peripheral\sysclk/cy_sysclk.h **** /* ========================================================================== */
 725:Generated_Source\PSoC6\pdl\drivers\peripheral\sysclk/cy_sysclk.h **** /**
 726:Generated_Source\PSoC6\pdl\drivers\peripheral\sysclk/cy_sysclk.h **** * \addtogroup group_sysclk_fll_enums
 727:Generated_Source\PSoC6\pdl\drivers\peripheral\sysclk/cy_sysclk.h **** * \{
 728:Generated_Source\PSoC6\pdl\drivers\peripheral\sysclk/cy_sysclk.h **** */
 729:Generated_Source\PSoC6\pdl\drivers\peripheral\sysclk/cy_sysclk.h **** /** FLL and PLL output mode.
 730:Generated_Source\PSoC6\pdl\drivers\peripheral\sysclk/cy_sysclk.h **** * See registers CLK_FLL_CONFIG3 and CLK_PLL_CONFIG0, bits BYPASS_SEL.
 731:Generated_Source\PSoC6\pdl\drivers\peripheral\sysclk/cy_sysclk.h **** */
 732:Generated_Source\PSoC6\pdl\drivers\peripheral\sysclk/cy_sysclk.h **** typedef enum
 733:Generated_Source\PSoC6\pdl\drivers\peripheral\sysclk/cy_sysclk.h **** {
 734:Generated_Source\PSoC6\pdl\drivers\peripheral\sysclk/cy_sysclk.h ****     CY_SYSCLK_FLLPLL_OUTPUT_AUTO   = 0U, /**< Output FLL/PLL input source when not locked, and FLL/
 735:Generated_Source\PSoC6\pdl\drivers\peripheral\sysclk/cy_sysclk.h ****     CY_SYSCLK_FLLPLL_OUTPUT_AUTO1  = 1U, /**< Same as AUTO */
 736:Generated_Source\PSoC6\pdl\drivers\peripheral\sysclk/cy_sysclk.h ****     CY_SYSCLK_FLLPLL_OUTPUT_INPUT  = 2U, /**< Output FLL/PLL input source regardless of lock status
 737:Generated_Source\PSoC6\pdl\drivers\peripheral\sysclk/cy_sysclk.h ****     CY_SYSCLK_FLLPLL_OUTPUT_OUTPUT = 3U  /**< Output FLL/PLL output regardless of lock status. This
 738:Generated_Source\PSoC6\pdl\drivers\peripheral\sysclk/cy_sysclk.h **** } cy_en_fll_pll_output_mode_t;
 739:Generated_Source\PSoC6\pdl\drivers\peripheral\sysclk/cy_sysclk.h **** 
 740:Generated_Source\PSoC6\pdl\drivers\peripheral\sysclk/cy_sysclk.h **** /** FLL current-controlled oscillator (CCO) frequency ranges.
ARM GAS  C:\Users\tmj32\AppData\Local\Temp\cczBJdSj.s 			page 56


 741:Generated_Source\PSoC6\pdl\drivers\peripheral\sysclk/cy_sysclk.h **** * See register CLK_FLL_CONFIG4, bits CCO_RANGE.
 742:Generated_Source\PSoC6\pdl\drivers\peripheral\sysclk/cy_sysclk.h **** */
 743:Generated_Source\PSoC6\pdl\drivers\peripheral\sysclk/cy_sysclk.h **** typedef enum
 744:Generated_Source\PSoC6\pdl\drivers\peripheral\sysclk/cy_sysclk.h **** {
 745:Generated_Source\PSoC6\pdl\drivers\peripheral\sysclk/cy_sysclk.h ****     CY_SYSCLK_FLL_CCO_RANGE0, /**< Target frequency is in range  48 -  64 MHz. */
 746:Generated_Source\PSoC6\pdl\drivers\peripheral\sysclk/cy_sysclk.h ****     CY_SYSCLK_FLL_CCO_RANGE1, /**< Target frequency is in range  64 -  85 MHz. */
 747:Generated_Source\PSoC6\pdl\drivers\peripheral\sysclk/cy_sysclk.h ****     CY_SYSCLK_FLL_CCO_RANGE2, /**< Target frequency is in range  85 - 113 MHz. */
 748:Generated_Source\PSoC6\pdl\drivers\peripheral\sysclk/cy_sysclk.h ****     CY_SYSCLK_FLL_CCO_RANGE3, /**< Target frequency is in range 113 - 150 MHz. */
 749:Generated_Source\PSoC6\pdl\drivers\peripheral\sysclk/cy_sysclk.h ****     CY_SYSCLK_FLL_CCO_RANGE4  /**< Target frequency is in range 150 - 200 MHz. */
 750:Generated_Source\PSoC6\pdl\drivers\peripheral\sysclk/cy_sysclk.h **** } cy_en_fll_cco_ranges_t;
 751:Generated_Source\PSoC6\pdl\drivers\peripheral\sysclk/cy_sysclk.h **** /** \} group_sysclk_fll_enums */
 752:Generated_Source\PSoC6\pdl\drivers\peripheral\sysclk/cy_sysclk.h **** 
 753:Generated_Source\PSoC6\pdl\drivers\peripheral\sysclk/cy_sysclk.h **** /**
 754:Generated_Source\PSoC6\pdl\drivers\peripheral\sysclk/cy_sysclk.h **** * \addtogroup group_sysclk_fll_structs
 755:Generated_Source\PSoC6\pdl\drivers\peripheral\sysclk/cy_sysclk.h **** * \{
 756:Generated_Source\PSoC6\pdl\drivers\peripheral\sysclk/cy_sysclk.h **** */
 757:Generated_Source\PSoC6\pdl\drivers\peripheral\sysclk/cy_sysclk.h **** /** Structure containing information for manual configuration of FLL.
 758:Generated_Source\PSoC6\pdl\drivers\peripheral\sysclk/cy_sysclk.h **** */
 759:Generated_Source\PSoC6\pdl\drivers\peripheral\sysclk/cy_sysclk.h **** typedef struct
 760:Generated_Source\PSoC6\pdl\drivers\peripheral\sysclk/cy_sysclk.h **** {
 761:Generated_Source\PSoC6\pdl\drivers\peripheral\sysclk/cy_sysclk.h ****     uint32_t                    fllMult;         /**< CLK_FLL_CONFIG  register, FLL_MULT bits */
 762:Generated_Source\PSoC6\pdl\drivers\peripheral\sysclk/cy_sysclk.h ****     uint16_t                    refDiv;          /**< CLK_FLL_CONFIG2 register, FLL_REF_DIV bits */
 763:Generated_Source\PSoC6\pdl\drivers\peripheral\sysclk/cy_sysclk.h ****     cy_en_fll_cco_ranges_t      ccoRange;        /**< CLK_FLL_CONFIG4 register, CCO_RANGE bits */
 764:Generated_Source\PSoC6\pdl\drivers\peripheral\sysclk/cy_sysclk.h ****     bool                        enableOutputDiv; /**< CLK_FLL_CONFIG  register, FLL_OUTPUT_DIV bit 
 765:Generated_Source\PSoC6\pdl\drivers\peripheral\sysclk/cy_sysclk.h ****     uint16_t                    lockTolerance;   /**< CLK_FLL_CONFIG2 register, LOCK_TOL bits */
 766:Generated_Source\PSoC6\pdl\drivers\peripheral\sysclk/cy_sysclk.h ****     uint8_t                     igain;           /**< CLK_FLL_CONFIG3 register, FLL_LF_IGAIN bits *
 767:Generated_Source\PSoC6\pdl\drivers\peripheral\sysclk/cy_sysclk.h ****     uint8_t                     pgain;           /**< CLK_FLL_CONFIG3 register, FLL_LF_PGAIN bits *
 768:Generated_Source\PSoC6\pdl\drivers\peripheral\sysclk/cy_sysclk.h ****     uint16_t                    settlingCount;   /**< CLK_FLL_CONFIG3 register, SETTLING_COUNT bits
 769:Generated_Source\PSoC6\pdl\drivers\peripheral\sysclk/cy_sysclk.h ****     cy_en_fll_pll_output_mode_t outputMode;      /**< CLK_FLL_CONFIG3 register, BYPASS_SEL bits */
 770:Generated_Source\PSoC6\pdl\drivers\peripheral\sysclk/cy_sysclk.h ****     uint16_t                    cco_Freq;        /**< CLK_FLL_CONFIG4 register, CCO_FREQ bits */
 771:Generated_Source\PSoC6\pdl\drivers\peripheral\sysclk/cy_sysclk.h **** } cy_stc_fll_manual_config_t;
 772:Generated_Source\PSoC6\pdl\drivers\peripheral\sysclk/cy_sysclk.h **** /** \} group_sysclk_fll_structs */
 773:Generated_Source\PSoC6\pdl\drivers\peripheral\sysclk/cy_sysclk.h **** 
 774:Generated_Source\PSoC6\pdl\drivers\peripheral\sysclk/cy_sysclk.h **** /**
 775:Generated_Source\PSoC6\pdl\drivers\peripheral\sysclk/cy_sysclk.h **** * \addtogroup group_sysclk_fll_funcs
 776:Generated_Source\PSoC6\pdl\drivers\peripheral\sysclk/cy_sysclk.h **** * \{
 777:Generated_Source\PSoC6\pdl\drivers\peripheral\sysclk/cy_sysclk.h **** */
 778:Generated_Source\PSoC6\pdl\drivers\peripheral\sysclk/cy_sysclk.h **** cy_en_sysclk_status_t Cy_SysClk_FllConfigure(uint32_t inputFreq, uint32_t outputFreq, cy_en_fll_pll
 779:Generated_Source\PSoC6\pdl\drivers\peripheral\sysclk/cy_sysclk.h **** cy_en_sysclk_status_t Cy_SysClk_FllManualConfigure(const cy_stc_fll_manual_config_t *config);
 780:Generated_Source\PSoC6\pdl\drivers\peripheral\sysclk/cy_sysclk.h **** void Cy_SysClk_FllGetConfiguration(cy_stc_fll_manual_config_t *config);
 781:Generated_Source\PSoC6\pdl\drivers\peripheral\sysclk/cy_sysclk.h **** cy_en_sysclk_status_t Cy_SysClk_FllEnable(uint32_t timeoutus);
 782:Generated_Source\PSoC6\pdl\drivers\peripheral\sysclk/cy_sysclk.h **** __STATIC_INLINE bool Cy_SysClk_FllLocked(void);
 783:Generated_Source\PSoC6\pdl\drivers\peripheral\sysclk/cy_sysclk.h **** __STATIC_INLINE cy_en_sysclk_status_t Cy_SysClk_FllDisable(void);
 784:Generated_Source\PSoC6\pdl\drivers\peripheral\sysclk/cy_sysclk.h **** 
 785:Generated_Source\PSoC6\pdl\drivers\peripheral\sysclk/cy_sysclk.h **** /*******************************************************************************
 786:Generated_Source\PSoC6\pdl\drivers\peripheral\sysclk/cy_sysclk.h **** * Function Name: Cy_SysClk_FllLocked
 787:Generated_Source\PSoC6\pdl\drivers\peripheral\sysclk/cy_sysclk.h **** ****************************************************************************//**
 788:Generated_Source\PSoC6\pdl\drivers\peripheral\sysclk/cy_sysclk.h **** *
 789:Generated_Source\PSoC6\pdl\drivers\peripheral\sysclk/cy_sysclk.h **** * Reports whether the FLL is locked first time during FLL starting.
 790:Generated_Source\PSoC6\pdl\drivers\peripheral\sysclk/cy_sysclk.h **** * Intended to be used with \ref Cy_SysClk_FllEnable with zero timeout.
 791:Generated_Source\PSoC6\pdl\drivers\peripheral\sysclk/cy_sysclk.h **** *
 792:Generated_Source\PSoC6\pdl\drivers\peripheral\sysclk/cy_sysclk.h **** * \return 
 793:Generated_Source\PSoC6\pdl\drivers\peripheral\sysclk/cy_sysclk.h **** * false = not locked<br>
 794:Generated_Source\PSoC6\pdl\drivers\peripheral\sysclk/cy_sysclk.h **** * true = locked
 795:Generated_Source\PSoC6\pdl\drivers\peripheral\sysclk/cy_sysclk.h **** *
 796:Generated_Source\PSoC6\pdl\drivers\peripheral\sysclk/cy_sysclk.h **** * \note
 797:Generated_Source\PSoC6\pdl\drivers\peripheral\sysclk/cy_sysclk.h **** * The unlock occurrence may appear during FLL normal operation, so this function 
ARM GAS  C:\Users\tmj32\AppData\Local\Temp\cczBJdSj.s 			page 57


 798:Generated_Source\PSoC6\pdl\drivers\peripheral\sysclk/cy_sysclk.h **** * is not recommended to check the FLL normal operation stability.
 799:Generated_Source\PSoC6\pdl\drivers\peripheral\sysclk/cy_sysclk.h **** *
 800:Generated_Source\PSoC6\pdl\drivers\peripheral\sysclk/cy_sysclk.h **** * \funcusage
 801:Generated_Source\PSoC6\pdl\drivers\peripheral\sysclk/cy_sysclk.h **** * \snippet sysclk/1.20/snippet/main.c snippet_Cy_SysClk_FllLocked
 802:Generated_Source\PSoC6\pdl\drivers\peripheral\sysclk/cy_sysclk.h **** *
 803:Generated_Source\PSoC6\pdl\drivers\peripheral\sysclk/cy_sysclk.h **** *******************************************************************************/
 804:Generated_Source\PSoC6\pdl\drivers\peripheral\sysclk/cy_sysclk.h **** __STATIC_INLINE bool Cy_SysClk_FllLocked(void)
 805:Generated_Source\PSoC6\pdl\drivers\peripheral\sysclk/cy_sysclk.h **** {
 806:Generated_Source\PSoC6\pdl\drivers\peripheral\sysclk/cy_sysclk.h ****     return (_FLD2BOOL(SRSS_CLK_FLL_STATUS_LOCKED, SRSS_CLK_FLL_STATUS));
 1656              		.loc 2 806 0
 1657 0064 B223     		movs	r3, #178
 1658 0066 DB00     		lsls	r3, r3, #3
 1659 0068 184A     		ldr	r2, .L126
 1660 006a D358     		ldr	r3, [r2, r3]
 1661              	.LBE35:
 1662              	.LBE34:
 645:Generated_Source\PSoC6\pdl\drivers\peripheral\sysclk/cy_sysclk.c ****            (0UL != timeoutus);
 1663              		.loc 1 645 0
 1664 006c DB07     		lsls	r3, r3, #31
