ARM GAS  C:\Users\chris\AppData\Local\Temp\ccZnA2v0.s 			page 1


   1              		.syntax unified
   2              		.cpu cortex-m4
   3              		.eabi_attribute 27, 1
   4              		.fpu fpv4-sp-d16
   5              		.eabi_attribute 20, 1
   6              		.eabi_attribute 21, 1
   7              		.eabi_attribute 23, 3
   8              		.eabi_attribute 24, 1
   9              		.eabi_attribute 25, 1
  10              		.eabi_attribute 26, 1
  11              		.eabi_attribute 30, 6
  12              		.eabi_attribute 34, 1
  13              		.eabi_attribute 18, 4
  14              		.thumb
  15              		.syntax unified
  16              		.file	"breath_activity.c"
  17              		.text
  18              	.Ltext0:
  19              		.cfi_sections	.debug_frame
  20              		.comm	cm4,16,4
  21              		.section	.text.lv_scr_act,"ax",%progbits
  22              		.align	2
  23              		.thumb
  24              		.thumb_func
  25              		.type	lv_scr_act, %function
  26              	lv_scr_act:
  27              	.LFB613:
  28              		.file 1 "..\\..\\..\\lvgl\\version_6.1.2\\lvgl/src/lv_core/lv_disp.h"
   1:..\..\..\lvgl\version_6.1.2\lvgl/src/lv_core/lv_disp.h **** /**
   2:..\..\..\lvgl\version_6.1.2\lvgl/src/lv_core/lv_disp.h ****  * @file lv_disp.h
   3:..\..\..\lvgl\version_6.1.2\lvgl/src/lv_core/lv_disp.h ****  *
   4:..\..\..\lvgl\version_6.1.2\lvgl/src/lv_core/lv_disp.h ****  */
   5:..\..\..\lvgl\version_6.1.2\lvgl/src/lv_core/lv_disp.h **** 
   6:..\..\..\lvgl\version_6.1.2\lvgl/src/lv_core/lv_disp.h **** #ifndef LV_DISP_H
   7:..\..\..\lvgl\version_6.1.2\lvgl/src/lv_core/lv_disp.h **** #define LV_DISP_H
   8:..\..\..\lvgl\version_6.1.2\lvgl/src/lv_core/lv_disp.h **** 
   9:..\..\..\lvgl\version_6.1.2\lvgl/src/lv_core/lv_disp.h **** #ifdef __cplusplus
  10:..\..\..\lvgl\version_6.1.2\lvgl/src/lv_core/lv_disp.h **** extern "C" {
  11:..\..\..\lvgl\version_6.1.2\lvgl/src/lv_core/lv_disp.h **** #endif
  12:..\..\..\lvgl\version_6.1.2\lvgl/src/lv_core/lv_disp.h **** 
  13:..\..\..\lvgl\version_6.1.2\lvgl/src/lv_core/lv_disp.h **** /*********************
  14:..\..\..\lvgl\version_6.1.2\lvgl/src/lv_core/lv_disp.h ****  *      INCLUDES
  15:..\..\..\lvgl\version_6.1.2\lvgl/src/lv_core/lv_disp.h ****  *********************/
  16:..\..\..\lvgl\version_6.1.2\lvgl/src/lv_core/lv_disp.h **** #include "../lv_hal/lv_hal.h"
  17:..\..\..\lvgl\version_6.1.2\lvgl/src/lv_core/lv_disp.h **** #include "lv_obj.h"
  18:..\..\..\lvgl\version_6.1.2\lvgl/src/lv_core/lv_disp.h **** 
  19:..\..\..\lvgl\version_6.1.2\lvgl/src/lv_core/lv_disp.h **** /*********************
  20:..\..\..\lvgl\version_6.1.2\lvgl/src/lv_core/lv_disp.h ****  *      DEFINES
  21:..\..\..\lvgl\version_6.1.2\lvgl/src/lv_core/lv_disp.h ****  *********************/
  22:..\..\..\lvgl\version_6.1.2\lvgl/src/lv_core/lv_disp.h **** 
  23:..\..\..\lvgl\version_6.1.2\lvgl/src/lv_core/lv_disp.h **** /**********************
  24:..\..\..\lvgl\version_6.1.2\lvgl/src/lv_core/lv_disp.h ****  *      TYPEDEFS
  25:..\..\..\lvgl\version_6.1.2\lvgl/src/lv_core/lv_disp.h ****  **********************/
  26:..\..\..\lvgl\version_6.1.2\lvgl/src/lv_core/lv_disp.h **** 
  27:..\..\..\lvgl\version_6.1.2\lvgl/src/lv_core/lv_disp.h **** /**********************
  28:..\..\..\lvgl\version_6.1.2\lvgl/src/lv_core/lv_disp.h ****  * GLOBAL PROTOTYPES
  29:..\..\..\lvgl\version_6.1.2\lvgl/src/lv_core/lv_disp.h ****  **********************/
ARM GAS  C:\Users\chris\AppData\Local\Temp\ccZnA2v0.s 			page 2


  30:..\..\..\lvgl\version_6.1.2\lvgl/src/lv_core/lv_disp.h **** 
  31:..\..\..\lvgl\version_6.1.2\lvgl/src/lv_core/lv_disp.h **** /**
  32:..\..\..\lvgl\version_6.1.2\lvgl/src/lv_core/lv_disp.h ****  * Return with a pointer to the active screen
  33:..\..\..\lvgl\version_6.1.2\lvgl/src/lv_core/lv_disp.h ****  * @param disp pointer to display which active screen should be get. (NULL to use the default
  34:..\..\..\lvgl\version_6.1.2\lvgl/src/lv_core/lv_disp.h ****  * screen)
  35:..\..\..\lvgl\version_6.1.2\lvgl/src/lv_core/lv_disp.h ****  * @return pointer to the active screen object (loaded by 'lv_scr_load()')
  36:..\..\..\lvgl\version_6.1.2\lvgl/src/lv_core/lv_disp.h ****  */
  37:..\..\..\lvgl\version_6.1.2\lvgl/src/lv_core/lv_disp.h **** lv_obj_t * lv_disp_get_scr_act(lv_disp_t * disp);
  38:..\..\..\lvgl\version_6.1.2\lvgl/src/lv_core/lv_disp.h **** 
  39:..\..\..\lvgl\version_6.1.2\lvgl/src/lv_core/lv_disp.h **** /**
  40:..\..\..\lvgl\version_6.1.2\lvgl/src/lv_core/lv_disp.h ****  * Make a screen active
  41:..\..\..\lvgl\version_6.1.2\lvgl/src/lv_core/lv_disp.h ****  * @param scr pointer to a screen
  42:..\..\..\lvgl\version_6.1.2\lvgl/src/lv_core/lv_disp.h ****  */
  43:..\..\..\lvgl\version_6.1.2\lvgl/src/lv_core/lv_disp.h **** void lv_disp_load_scr(lv_obj_t * scr);
  44:..\..\..\lvgl\version_6.1.2\lvgl/src/lv_core/lv_disp.h **** 
  45:..\..\..\lvgl\version_6.1.2\lvgl/src/lv_core/lv_disp.h **** /**
  46:..\..\..\lvgl\version_6.1.2\lvgl/src/lv_core/lv_disp.h ****  * Return with the top layer. (Same on every screen and it is above the normal screen layer)
  47:..\..\..\lvgl\version_6.1.2\lvgl/src/lv_core/lv_disp.h ****  * @param disp pointer to display which top layer should be get. (NULL to use the default screen)
  48:..\..\..\lvgl\version_6.1.2\lvgl/src/lv_core/lv_disp.h ****  * @return pointer to the top layer object  (transparent screen sized lv_obj)
  49:..\..\..\lvgl\version_6.1.2\lvgl/src/lv_core/lv_disp.h ****  */
  50:..\..\..\lvgl\version_6.1.2\lvgl/src/lv_core/lv_disp.h **** lv_obj_t * lv_disp_get_layer_top(lv_disp_t * disp);
  51:..\..\..\lvgl\version_6.1.2\lvgl/src/lv_core/lv_disp.h **** 
  52:..\..\..\lvgl\version_6.1.2\lvgl/src/lv_core/lv_disp.h **** /**
  53:..\..\..\lvgl\version_6.1.2\lvgl/src/lv_core/lv_disp.h ****  * Return with the sys. layer. (Same on every screen and it is above the normal screen and the top
  54:..\..\..\lvgl\version_6.1.2\lvgl/src/lv_core/lv_disp.h ****  * layer)
  55:..\..\..\lvgl\version_6.1.2\lvgl/src/lv_core/lv_disp.h ****  * @param disp pointer to display which sys. layer  should be get. (NULL to use the default screen)
  56:..\..\..\lvgl\version_6.1.2\lvgl/src/lv_core/lv_disp.h ****  * @return pointer to the sys layer object  (transparent screen sized lv_obj)
  57:..\..\..\lvgl\version_6.1.2\lvgl/src/lv_core/lv_disp.h ****  */
  58:..\..\..\lvgl\version_6.1.2\lvgl/src/lv_core/lv_disp.h **** lv_obj_t * lv_disp_get_layer_sys(lv_disp_t * disp);
  59:..\..\..\lvgl\version_6.1.2\lvgl/src/lv_core/lv_disp.h **** 
  60:..\..\..\lvgl\version_6.1.2\lvgl/src/lv_core/lv_disp.h **** /**
  61:..\..\..\lvgl\version_6.1.2\lvgl/src/lv_core/lv_disp.h ****  * Assign a screen to a display.
  62:..\..\..\lvgl\version_6.1.2\lvgl/src/lv_core/lv_disp.h ****  * @param disp pointer to a display where to assign the screen
  63:..\..\..\lvgl\version_6.1.2\lvgl/src/lv_core/lv_disp.h ****  * @param scr pointer to a screen object to assign
  64:..\..\..\lvgl\version_6.1.2\lvgl/src/lv_core/lv_disp.h ****  */
  65:..\..\..\lvgl\version_6.1.2\lvgl/src/lv_core/lv_disp.h **** void lv_disp_assign_screen(lv_disp_t * disp, lv_obj_t * scr);
  66:..\..\..\lvgl\version_6.1.2\lvgl/src/lv_core/lv_disp.h **** 
  67:..\..\..\lvgl\version_6.1.2\lvgl/src/lv_core/lv_disp.h **** /**
  68:..\..\..\lvgl\version_6.1.2\lvgl/src/lv_core/lv_disp.h ****  * Get a pointer to the screen refresher task to
  69:..\..\..\lvgl\version_6.1.2\lvgl/src/lv_core/lv_disp.h ****  * modify its parameters with `lv_task_...` functions.
  70:..\..\..\lvgl\version_6.1.2\lvgl/src/lv_core/lv_disp.h ****  * @param disp pointer to a display
  71:..\..\..\lvgl\version_6.1.2\lvgl/src/lv_core/lv_disp.h ****  * @return pointer to the display refresher task. (NULL on error)
  72:..\..\..\lvgl\version_6.1.2\lvgl/src/lv_core/lv_disp.h ****  */
  73:..\..\..\lvgl\version_6.1.2\lvgl/src/lv_core/lv_disp.h **** lv_task_t * lv_disp_get_refr_task(lv_disp_t * disp);
  74:..\..\..\lvgl\version_6.1.2\lvgl/src/lv_core/lv_disp.h **** 
  75:..\..\..\lvgl\version_6.1.2\lvgl/src/lv_core/lv_disp.h **** /**
  76:..\..\..\lvgl\version_6.1.2\lvgl/src/lv_core/lv_disp.h ****  * Get elapsed time since last user activity on a display (e.g. click)
  77:..\..\..\lvgl\version_6.1.2\lvgl/src/lv_core/lv_disp.h ****  * @param disp pointer to an display (NULL to get the overall smallest inactivity)
  78:..\..\..\lvgl\version_6.1.2\lvgl/src/lv_core/lv_disp.h ****  * @return elapsed ticks (milliseconds) since the last activity
  79:..\..\..\lvgl\version_6.1.2\lvgl/src/lv_core/lv_disp.h ****  */
  80:..\..\..\lvgl\version_6.1.2\lvgl/src/lv_core/lv_disp.h **** uint32_t lv_disp_get_inactive_time(const lv_disp_t * disp);
  81:..\..\..\lvgl\version_6.1.2\lvgl/src/lv_core/lv_disp.h **** 
  82:..\..\..\lvgl\version_6.1.2\lvgl/src/lv_core/lv_disp.h **** /**
  83:..\..\..\lvgl\version_6.1.2\lvgl/src/lv_core/lv_disp.h ****  * Manually trigger an activity on a display
  84:..\..\..\lvgl\version_6.1.2\lvgl/src/lv_core/lv_disp.h ****  * @param disp pointer to an display (NULL to use the default display)
  85:..\..\..\lvgl\version_6.1.2\lvgl/src/lv_core/lv_disp.h ****  */
  86:..\..\..\lvgl\version_6.1.2\lvgl/src/lv_core/lv_disp.h **** void lv_disp_trig_activity(lv_disp_t * disp);
ARM GAS  C:\Users\chris\AppData\Local\Temp\ccZnA2v0.s 			page 3


  87:..\..\..\lvgl\version_6.1.2\lvgl/src/lv_core/lv_disp.h **** 
  88:..\..\..\lvgl\version_6.1.2\lvgl/src/lv_core/lv_disp.h **** /*------------------------------------------------
  89:..\..\..\lvgl\version_6.1.2\lvgl/src/lv_core/lv_disp.h ****  * To improve backward compatibility
  90:..\..\..\lvgl\version_6.1.2\lvgl/src/lv_core/lv_disp.h ****  * Recommended only if you have one display
  91:..\..\..\lvgl\version_6.1.2\lvgl/src/lv_core/lv_disp.h ****  *------------------------------------------------*/
  92:..\..\..\lvgl\version_6.1.2\lvgl/src/lv_core/lv_disp.h **** 
  93:..\..\..\lvgl\version_6.1.2\lvgl/src/lv_core/lv_disp.h **** /**
  94:..\..\..\lvgl\version_6.1.2\lvgl/src/lv_core/lv_disp.h ****  * Get the active screen of the default display
  95:..\..\..\lvgl\version_6.1.2\lvgl/src/lv_core/lv_disp.h ****  * @return pointer to the active screen
  96:..\..\..\lvgl\version_6.1.2\lvgl/src/lv_core/lv_disp.h ****  */
  97:..\..\..\lvgl\version_6.1.2\lvgl/src/lv_core/lv_disp.h **** static inline lv_obj_t * lv_scr_act(void)
  98:..\..\..\lvgl\version_6.1.2\lvgl/src/lv_core/lv_disp.h **** {
  29              		.loc 1 98 0
  30              		.cfi_startproc
  31              		@ args = 0, pretend = 0, frame = 0
  32              		@ frame_needed = 1, uses_anonymous_args = 0
  33 0000 80B5     		push	{r7, lr}
  34              		.cfi_def_cfa_offset 8
  35              		.cfi_offset 7, -8
  36              		.cfi_offset 14, -4
  37 0002 00AF     		add	r7, sp, #0
  38              		.cfi_def_cfa_register 7
  99:..\..\..\lvgl\version_6.1.2\lvgl/src/lv_core/lv_disp.h ****     return lv_disp_get_scr_act(lv_disp_get_default());
  39              		.loc 1 99 0
  40 0004 FFF7FEFF 		bl	lv_disp_get_default
  41 0008 0346     		mov	r3, r0
  42 000a 1846     		mov	r0, r3
  43 000c FFF7FEFF 		bl	lv_disp_get_scr_act
  44 0010 0346     		mov	r3, r0
 100:..\..\..\lvgl\version_6.1.2\lvgl/src/lv_core/lv_disp.h **** }
  45              		.loc 1 100 0
  46 0012 1846     		mov	r0, r3
  47 0014 80BD     		pop	{r7, pc}
  48              		.cfi_endproc
  49              	.LFE613:
  50              		.size	lv_scr_act, .-lv_scr_act
  51 0016 00BF     		.section	.text.lv_scr_load,"ax",%progbits
  52              		.align	2
  53              		.thumb
  54              		.thumb_func
  55              		.type	lv_scr_load, %function
  56              	lv_scr_load:
  57              	.LFB616:
 101:..\..\..\lvgl\version_6.1.2\lvgl/src/lv_core/lv_disp.h **** 
 102:..\..\..\lvgl\version_6.1.2\lvgl/src/lv_core/lv_disp.h **** /**
 103:..\..\..\lvgl\version_6.1.2\lvgl/src/lv_core/lv_disp.h ****  * Get the top layer  of the default display
 104:..\..\..\lvgl\version_6.1.2\lvgl/src/lv_core/lv_disp.h ****  * @return pointer to the top layer
 105:..\..\..\lvgl\version_6.1.2\lvgl/src/lv_core/lv_disp.h ****  */
 106:..\..\..\lvgl\version_6.1.2\lvgl/src/lv_core/lv_disp.h **** static inline lv_obj_t * lv_layer_top(void)
 107:..\..\..\lvgl\version_6.1.2\lvgl/src/lv_core/lv_disp.h **** {
 108:..\..\..\lvgl\version_6.1.2\lvgl/src/lv_core/lv_disp.h ****     return lv_disp_get_layer_top(lv_disp_get_default());
 109:..\..\..\lvgl\version_6.1.2\lvgl/src/lv_core/lv_disp.h **** }
 110:..\..\..\lvgl\version_6.1.2\lvgl/src/lv_core/lv_disp.h **** 
 111:..\..\..\lvgl\version_6.1.2\lvgl/src/lv_core/lv_disp.h **** /**
 112:..\..\..\lvgl\version_6.1.2\lvgl/src/lv_core/lv_disp.h ****  * Get the active screen of the default display
 113:..\..\..\lvgl\version_6.1.2\lvgl/src/lv_core/lv_disp.h ****  * @return  pointer to the sys layer
 114:..\..\..\lvgl\version_6.1.2\lvgl/src/lv_core/lv_disp.h ****  */
ARM GAS  C:\Users\chris\AppData\Local\Temp\ccZnA2v0.s 			page 4


 115:..\..\..\lvgl\version_6.1.2\lvgl/src/lv_core/lv_disp.h **** static inline lv_obj_t * lv_layer_sys(void)
 116:..\..\..\lvgl\version_6.1.2\lvgl/src/lv_core/lv_disp.h **** {
 117:..\..\..\lvgl\version_6.1.2\lvgl/src/lv_core/lv_disp.h ****     return lv_disp_get_layer_sys(lv_disp_get_default());
 118:..\..\..\lvgl\version_6.1.2\lvgl/src/lv_core/lv_disp.h **** }
 119:..\..\..\lvgl\version_6.1.2\lvgl/src/lv_core/lv_disp.h **** 
 120:..\..\..\lvgl\version_6.1.2\lvgl/src/lv_core/lv_disp.h **** static inline void lv_scr_load(lv_obj_t * scr)
 121:..\..\..\lvgl\version_6.1.2\lvgl/src/lv_core/lv_disp.h **** {
  58              		.loc 1 121 0
  59              		.cfi_startproc
  60              		@ args = 0, pretend = 0, frame = 8
  61              		@ frame_needed = 1, uses_anonymous_args = 0
  62 0000 80B5     		push	{r7, lr}
  63              		.cfi_def_cfa_offset 8
  64              		.cfi_offset 7, -8
  65              		.cfi_offset 14, -4
  66 0002 82B0     		sub	sp, sp, #8
  67              		.cfi_def_cfa_offset 16
  68 0004 00AF     		add	r7, sp, #0
  69              		.cfi_def_cfa_register 7
  70 0006 7860     		str	r0, [r7, #4]
 122:..\..\..\lvgl\version_6.1.2\lvgl/src/lv_core/lv_disp.h ****     lv_disp_load_scr(scr);
  71              		.loc 1 122 0
  72 0008 7868     		ldr	r0, [r7, #4]
  73 000a FFF7FEFF 		bl	lv_disp_load_scr
 123:..\..\..\lvgl\version_6.1.2\lvgl/src/lv_core/lv_disp.h **** }
  74              		.loc 1 123 0
  75 000e 00BF     		nop
  76 0010 0837     		adds	r7, r7, #8
  77              		.cfi_def_cfa_offset 8
  78 0012 BD46     		mov	sp, r7
  79              		.cfi_def_cfa_register 13
  80              		@ sp needed
  81 0014 80BD     		pop	{r7, pc}
  82              		.cfi_endproc
  83              	.LFE616:
  84              		.size	lv_scr_load, .-lv_scr_load
  85 0016 00BF     		.section	.text.lv_label_set_style,"ax",%progbits
  86              		.align	2
  87              		.thumb
  88              		.thumb_func
  89              		.type	lv_label_set_style, %function
  90              	lv_label_set_style:
  91              	.LFB635:
  92              		.file 2 "..\\..\\..\\lvgl\\version_6.1.2\\lvgl/src/lv_objx/lv_label.h"
   1:..\..\..\lvgl\version_6.1.2\lvgl/src/lv_objx/lv_label.h **** /**
   2:..\..\..\lvgl\version_6.1.2\lvgl/src/lv_objx/lv_label.h ****  * @file lv_rect.h
   3:..\..\..\lvgl\version_6.1.2\lvgl/src/lv_objx/lv_label.h ****  *
   4:..\..\..\lvgl\version_6.1.2\lvgl/src/lv_objx/lv_label.h ****  */
   5:..\..\..\lvgl\version_6.1.2\lvgl/src/lv_objx/lv_label.h **** 
   6:..\..\..\lvgl\version_6.1.2\lvgl/src/lv_objx/lv_label.h **** #ifndef LV_LABEL_H
   7:..\..\..\lvgl\version_6.1.2\lvgl/src/lv_objx/lv_label.h **** #define LV_LABEL_H
   8:..\..\..\lvgl\version_6.1.2\lvgl/src/lv_objx/lv_label.h **** 
   9:..\..\..\lvgl\version_6.1.2\lvgl/src/lv_objx/lv_label.h **** #ifdef __cplusplus
  10:..\..\..\lvgl\version_6.1.2\lvgl/src/lv_objx/lv_label.h **** extern "C" {
  11:..\..\..\lvgl\version_6.1.2\lvgl/src/lv_objx/lv_label.h **** #endif
  12:..\..\..\lvgl\version_6.1.2\lvgl/src/lv_objx/lv_label.h **** 
  13:..\..\..\lvgl\version_6.1.2\lvgl/src/lv_objx/lv_label.h **** /*********************
ARM GAS  C:\Users\chris\AppData\Local\Temp\ccZnA2v0.s 			page 5


  14:..\..\..\lvgl\version_6.1.2\lvgl/src/lv_objx/lv_label.h ****  *      INCLUDES
  15:..\..\..\lvgl\version_6.1.2\lvgl/src/lv_objx/lv_label.h ****  *********************/
  16:..\..\..\lvgl\version_6.1.2\lvgl/src/lv_objx/lv_label.h **** #ifdef LV_CONF_INCLUDE_SIMPLE
  17:..\..\..\lvgl\version_6.1.2\lvgl/src/lv_objx/lv_label.h **** #include "lv_conf.h"
  18:..\..\..\lvgl\version_6.1.2\lvgl/src/lv_objx/lv_label.h **** #else
  19:..\..\..\lvgl\version_6.1.2\lvgl/src/lv_objx/lv_label.h **** #include "../../../lv_conf.h"
  20:..\..\..\lvgl\version_6.1.2\lvgl/src/lv_objx/lv_label.h **** #endif
  21:..\..\..\lvgl\version_6.1.2\lvgl/src/lv_objx/lv_label.h **** 
  22:..\..\..\lvgl\version_6.1.2\lvgl/src/lv_objx/lv_label.h **** #if LV_USE_LABEL != 0
  23:..\..\..\lvgl\version_6.1.2\lvgl/src/lv_objx/lv_label.h **** 
  24:..\..\..\lvgl\version_6.1.2\lvgl/src/lv_objx/lv_label.h **** #include <stdarg.h>
  25:..\..\..\lvgl\version_6.1.2\lvgl/src/lv_objx/lv_label.h **** #include "../lv_core/lv_obj.h"
  26:..\..\..\lvgl\version_6.1.2\lvgl/src/lv_objx/lv_label.h **** #include "../lv_font/lv_font.h"
  27:..\..\..\lvgl\version_6.1.2\lvgl/src/lv_objx/lv_label.h **** #include "../lv_font/lv_symbol_def.h"
  28:..\..\..\lvgl\version_6.1.2\lvgl/src/lv_objx/lv_label.h **** #include "../lv_misc/lv_txt.h"
  29:..\..\..\lvgl\version_6.1.2\lvgl/src/lv_objx/lv_label.h **** #include "../lv_draw/lv_draw.h"
  30:..\..\..\lvgl\version_6.1.2\lvgl/src/lv_objx/lv_label.h **** 
  31:..\..\..\lvgl\version_6.1.2\lvgl/src/lv_objx/lv_label.h **** /*********************
  32:..\..\..\lvgl\version_6.1.2\lvgl/src/lv_objx/lv_label.h ****  *      DEFINES
  33:..\..\..\lvgl\version_6.1.2\lvgl/src/lv_objx/lv_label.h ****  *********************/
  34:..\..\..\lvgl\version_6.1.2\lvgl/src/lv_objx/lv_label.h **** #define LV_LABEL_DOT_NUM 3
  35:..\..\..\lvgl\version_6.1.2\lvgl/src/lv_objx/lv_label.h **** #define LV_LABEL_POS_LAST 0xFFFF
  36:..\..\..\lvgl\version_6.1.2\lvgl/src/lv_objx/lv_label.h **** #define LV_LABEL_TEXT_SEL_OFF LV_DRAW_LABEL_NO_TXT_SEL
  37:..\..\..\lvgl\version_6.1.2\lvgl/src/lv_objx/lv_label.h **** 
  38:..\..\..\lvgl\version_6.1.2\lvgl/src/lv_objx/lv_label.h **** LV_EXPORT_CONST_INT(LV_LABEL_DOT_NUM);
  39:..\..\..\lvgl\version_6.1.2\lvgl/src/lv_objx/lv_label.h **** LV_EXPORT_CONST_INT(LV_LABEL_POS_LAST);
  40:..\..\..\lvgl\version_6.1.2\lvgl/src/lv_objx/lv_label.h **** LV_EXPORT_CONST_INT(LV_LABEL_TEXT_SEL_OFF);
  41:..\..\..\lvgl\version_6.1.2\lvgl/src/lv_objx/lv_label.h **** 
  42:..\..\..\lvgl\version_6.1.2\lvgl/src/lv_objx/lv_label.h **** /**********************
  43:..\..\..\lvgl\version_6.1.2\lvgl/src/lv_objx/lv_label.h ****  *      TYPEDEFS
  44:..\..\..\lvgl\version_6.1.2\lvgl/src/lv_objx/lv_label.h ****  **********************/
  45:..\..\..\lvgl\version_6.1.2\lvgl/src/lv_objx/lv_label.h **** 
  46:..\..\..\lvgl\version_6.1.2\lvgl/src/lv_objx/lv_label.h **** /** Long mode behaviors. Used in 'lv_label_ext_t' */
  47:..\..\..\lvgl\version_6.1.2\lvgl/src/lv_objx/lv_label.h **** enum {
  48:..\..\..\lvgl\version_6.1.2\lvgl/src/lv_objx/lv_label.h ****     LV_LABEL_LONG_EXPAND,    /**< Expand the object size to the text size*/
  49:..\..\..\lvgl\version_6.1.2\lvgl/src/lv_objx/lv_label.h ****     LV_LABEL_LONG_BREAK,     /**< Keep the object width, break the too long lines and expand the ob
  50:..\..\..\lvgl\version_6.1.2\lvgl/src/lv_objx/lv_label.h ****                                 height*/
  51:..\..\..\lvgl\version_6.1.2\lvgl/src/lv_objx/lv_label.h ****     LV_LABEL_LONG_DOT,       /**< Keep the size and write dots at the end if the text is too long*/
  52:..\..\..\lvgl\version_6.1.2\lvgl/src/lv_objx/lv_label.h ****     LV_LABEL_LONG_SROLL,      /**< Keep the size and roll the text back and forth*/
  53:..\..\..\lvgl\version_6.1.2\lvgl/src/lv_objx/lv_label.h ****     LV_LABEL_LONG_SROLL_CIRC, /**< Keep the size and roll the text circularly*/
  54:..\..\..\lvgl\version_6.1.2\lvgl/src/lv_objx/lv_label.h ****     LV_LABEL_LONG_CROP,      /**< Keep the size and crop the text out of it*/
  55:..\..\..\lvgl\version_6.1.2\lvgl/src/lv_objx/lv_label.h **** };
  56:..\..\..\lvgl\version_6.1.2\lvgl/src/lv_objx/lv_label.h **** typedef uint8_t lv_label_long_mode_t;
  57:..\..\..\lvgl\version_6.1.2\lvgl/src/lv_objx/lv_label.h **** 
  58:..\..\..\lvgl\version_6.1.2\lvgl/src/lv_objx/lv_label.h **** /** Label align policy*/
  59:..\..\..\lvgl\version_6.1.2\lvgl/src/lv_objx/lv_label.h **** enum {
  60:..\..\..\lvgl\version_6.1.2\lvgl/src/lv_objx/lv_label.h ****     LV_LABEL_ALIGN_LEFT, /**< Align text to left */
  61:..\..\..\lvgl\version_6.1.2\lvgl/src/lv_objx/lv_label.h ****     LV_LABEL_ALIGN_CENTER, /**< Align text to center */
  62:..\..\..\lvgl\version_6.1.2\lvgl/src/lv_objx/lv_label.h ****     LV_LABEL_ALIGN_RIGHT, /**< Align text to right */
  63:..\..\..\lvgl\version_6.1.2\lvgl/src/lv_objx/lv_label.h ****     LV_LABEL_ALIGN_AUTO, /**< Use LEFT or RIGHT depending on the direction of the text (LTR/RTL)*/
  64:..\..\..\lvgl\version_6.1.2\lvgl/src/lv_objx/lv_label.h **** };
  65:..\..\..\lvgl\version_6.1.2\lvgl/src/lv_objx/lv_label.h **** typedef uint8_t lv_label_align_t;
  66:..\..\..\lvgl\version_6.1.2\lvgl/src/lv_objx/lv_label.h **** 
  67:..\..\..\lvgl\version_6.1.2\lvgl/src/lv_objx/lv_label.h **** /** Data of label*/
  68:..\..\..\lvgl\version_6.1.2\lvgl/src/lv_objx/lv_label.h **** typedef struct
  69:..\..\..\lvgl\version_6.1.2\lvgl/src/lv_objx/lv_label.h **** {
  70:..\..\..\lvgl\version_6.1.2\lvgl/src/lv_objx/lv_label.h ****     /*Inherited from 'base_obj' so no inherited ext.*/ /*Ext. of ancestor*/
ARM GAS  C:\Users\chris\AppData\Local\Temp\ccZnA2v0.s 			page 6


  71:..\..\..\lvgl\version_6.1.2\lvgl/src/lv_objx/lv_label.h ****     /*New data for this type */
  72:..\..\..\lvgl\version_6.1.2\lvgl/src/lv_objx/lv_label.h ****     char * text;        /*Text of the label*/
  73:..\..\..\lvgl\version_6.1.2\lvgl/src/lv_objx/lv_label.h **** 
  74:..\..\..\lvgl\version_6.1.2\lvgl/src/lv_objx/lv_label.h ****     union
  75:..\..\..\lvgl\version_6.1.2\lvgl/src/lv_objx/lv_label.h ****     {
  76:..\..\..\lvgl\version_6.1.2\lvgl/src/lv_objx/lv_label.h ****         char * tmp_ptr; /* Pointer to the allocated memory containing the character which are repla
  77:..\..\..\lvgl\version_6.1.2\lvgl/src/lv_objx/lv_label.h ****                            by the library)*/
  78:..\..\..\lvgl\version_6.1.2\lvgl/src/lv_objx/lv_label.h ****         char tmp[LV_LABEL_DOT_NUM + 1]; /* Directly store the characters if <=4 characters */
  79:..\..\..\lvgl\version_6.1.2\lvgl/src/lv_objx/lv_label.h ****     } dot;
  80:..\..\..\lvgl\version_6.1.2\lvgl/src/lv_objx/lv_label.h ****     uint16_t dot_end;  /*The text end position in dot mode (Handled by the library)*/
  81:..\..\..\lvgl\version_6.1.2\lvgl/src/lv_objx/lv_label.h ****     lv_point_t offset; /*Text draw position offset*/
  82:..\..\..\lvgl\version_6.1.2\lvgl/src/lv_objx/lv_label.h **** #if LV_LABEL_LONG_TXT_HINT
  83:..\..\..\lvgl\version_6.1.2\lvgl/src/lv_objx/lv_label.h ****     lv_draw_label_hint_t hint; /*Used to buffer info about large text*/
  84:..\..\..\lvgl\version_6.1.2\lvgl/src/lv_objx/lv_label.h **** #endif
  85:..\..\..\lvgl\version_6.1.2\lvgl/src/lv_objx/lv_label.h **** 
  86:..\..\..\lvgl\version_6.1.2\lvgl/src/lv_objx/lv_label.h **** #if LV_USE_ANIMATION
  87:..\..\..\lvgl\version_6.1.2\lvgl/src/lv_objx/lv_label.h ****     uint16_t anim_speed; /*Speed of scroll and roll animation in px/sec unit*/
  88:..\..\..\lvgl\version_6.1.2\lvgl/src/lv_objx/lv_label.h **** #endif
  89:..\..\..\lvgl\version_6.1.2\lvgl/src/lv_objx/lv_label.h **** 
  90:..\..\..\lvgl\version_6.1.2\lvgl/src/lv_objx/lv_label.h **** #if LV_LABEL_TEXT_SEL
  91:..\..\..\lvgl\version_6.1.2\lvgl/src/lv_objx/lv_label.h ****     uint16_t txt_sel_start; /*Left-most selection character*/
  92:..\..\..\lvgl\version_6.1.2\lvgl/src/lv_objx/lv_label.h ****     uint16_t txt_sel_end;   /*Right-most selection character*/
  93:..\..\..\lvgl\version_6.1.2\lvgl/src/lv_objx/lv_label.h **** #endif
  94:..\..\..\lvgl\version_6.1.2\lvgl/src/lv_objx/lv_label.h **** 
  95:..\..\..\lvgl\version_6.1.2\lvgl/src/lv_objx/lv_label.h ****     lv_label_long_mode_t long_mode : 3; /*Determinate what to do with the long texts*/
  96:..\..\..\lvgl\version_6.1.2\lvgl/src/lv_objx/lv_label.h ****     uint8_t static_txt : 1;             /*Flag to indicate the text is static*/
  97:..\..\..\lvgl\version_6.1.2\lvgl/src/lv_objx/lv_label.h ****     uint8_t align : 2;                  /*Align type from 'lv_label_align_t'*/
  98:..\..\..\lvgl\version_6.1.2\lvgl/src/lv_objx/lv_label.h ****     uint8_t recolor : 1;                /*Enable in-line letter re-coloring*/
  99:..\..\..\lvgl\version_6.1.2\lvgl/src/lv_objx/lv_label.h ****     uint8_t expand : 1;                 /*Ignore real width (used by the library with LV_LABEL_LONG
 100:..\..\..\lvgl\version_6.1.2\lvgl/src/lv_objx/lv_label.h ****     uint8_t body_draw : 1;              /*Draw background body*/
 101:..\..\..\lvgl\version_6.1.2\lvgl/src/lv_objx/lv_label.h ****     uint8_t dot_tmp_alloc : 1; /*True if dot_tmp has been allocated. False if dot_tmp directly hold
 102:..\..\..\lvgl\version_6.1.2\lvgl/src/lv_objx/lv_label.h ****                                   characters */
 103:..\..\..\lvgl\version_6.1.2\lvgl/src/lv_objx/lv_label.h **** } lv_label_ext_t;
 104:..\..\..\lvgl\version_6.1.2\lvgl/src/lv_objx/lv_label.h **** 
 105:..\..\..\lvgl\version_6.1.2\lvgl/src/lv_objx/lv_label.h **** /** Label styles*/
 106:..\..\..\lvgl\version_6.1.2\lvgl/src/lv_objx/lv_label.h **** enum {
 107:..\..\..\lvgl\version_6.1.2\lvgl/src/lv_objx/lv_label.h ****     LV_LABEL_STYLE_MAIN,
 108:..\..\..\lvgl\version_6.1.2\lvgl/src/lv_objx/lv_label.h **** };
 109:..\..\..\lvgl\version_6.1.2\lvgl/src/lv_objx/lv_label.h **** typedef uint8_t lv_label_style_t;
 110:..\..\..\lvgl\version_6.1.2\lvgl/src/lv_objx/lv_label.h **** 
 111:..\..\..\lvgl\version_6.1.2\lvgl/src/lv_objx/lv_label.h **** /**********************
 112:..\..\..\lvgl\version_6.1.2\lvgl/src/lv_objx/lv_label.h ****  * GLOBAL PROTOTYPES
 113:..\..\..\lvgl\version_6.1.2\lvgl/src/lv_objx/lv_label.h ****  **********************/
 114:..\..\..\lvgl\version_6.1.2\lvgl/src/lv_objx/lv_label.h **** 
 115:..\..\..\lvgl\version_6.1.2\lvgl/src/lv_objx/lv_label.h **** /**
 116:..\..\..\lvgl\version_6.1.2\lvgl/src/lv_objx/lv_label.h ****  * Create a label objects
 117:..\..\..\lvgl\version_6.1.2\lvgl/src/lv_objx/lv_label.h ****  * @param par pointer to an object, it will be the parent of the new label
 118:..\..\..\lvgl\version_6.1.2\lvgl/src/lv_objx/lv_label.h ****  * @param copy pointer to a button object, if not NULL then the new object will be copied from it
 119:..\..\..\lvgl\version_6.1.2\lvgl/src/lv_objx/lv_label.h ****  * @return pointer to the created button
 120:..\..\..\lvgl\version_6.1.2\lvgl/src/lv_objx/lv_label.h ****  */
 121:..\..\..\lvgl\version_6.1.2\lvgl/src/lv_objx/lv_label.h **** lv_obj_t * lv_label_create(lv_obj_t * par, const lv_obj_t * copy);
 122:..\..\..\lvgl\version_6.1.2\lvgl/src/lv_objx/lv_label.h **** 
 123:..\..\..\lvgl\version_6.1.2\lvgl/src/lv_objx/lv_label.h **** /*=====================
 124:..\..\..\lvgl\version_6.1.2\lvgl/src/lv_objx/lv_label.h ****  * Setter functions
 125:..\..\..\lvgl\version_6.1.2\lvgl/src/lv_objx/lv_label.h ****  *====================*/
 126:..\..\..\lvgl\version_6.1.2\lvgl/src/lv_objx/lv_label.h **** 
 127:..\..\..\lvgl\version_6.1.2\lvgl/src/lv_objx/lv_label.h **** /**
ARM GAS  C:\Users\chris\AppData\Local\Temp\ccZnA2v0.s 			page 7


 128:..\..\..\lvgl\version_6.1.2\lvgl/src/lv_objx/lv_label.h ****  * Set a new text for a label. Memory will be allocated to store the text by the label.
 129:..\..\..\lvgl\version_6.1.2\lvgl/src/lv_objx/lv_label.h ****  * @param label pointer to a label object
 130:..\..\..\lvgl\version_6.1.2\lvgl/src/lv_objx/lv_label.h ****  * @param text '\0' terminated character string. NULL to refresh with the current text.
 131:..\..\..\lvgl\version_6.1.2\lvgl/src/lv_objx/lv_label.h ****  */
 132:..\..\..\lvgl\version_6.1.2\lvgl/src/lv_objx/lv_label.h **** void lv_label_set_text(lv_obj_t * label, const char * text);
 133:..\..\..\lvgl\version_6.1.2\lvgl/src/lv_objx/lv_label.h **** 
 134:..\..\..\lvgl\version_6.1.2\lvgl/src/lv_objx/lv_label.h **** /**
 135:..\..\..\lvgl\version_6.1.2\lvgl/src/lv_objx/lv_label.h ****  * Set a new formatted text for a label. Memory will be allocated to store the text by the label.
 136:..\..\..\lvgl\version_6.1.2\lvgl/src/lv_objx/lv_label.h ****  * @param label pointer to a label object
 137:..\..\..\lvgl\version_6.1.2\lvgl/src/lv_objx/lv_label.h ****  * @param fmt `printf`-like format
 138:..\..\..\lvgl\version_6.1.2\lvgl/src/lv_objx/lv_label.h ****  */
 139:..\..\..\lvgl\version_6.1.2\lvgl/src/lv_objx/lv_label.h **** void lv_label_set_text_fmt(lv_obj_t * label, const char * fmt, ...);
 140:..\..\..\lvgl\version_6.1.2\lvgl/src/lv_objx/lv_label.h **** 
 141:..\..\..\lvgl\version_6.1.2\lvgl/src/lv_objx/lv_label.h **** /**
 142:..\..\..\lvgl\version_6.1.2\lvgl/src/lv_objx/lv_label.h ****  * Set a new text for a label from a character array. The array don't has to be '\0' terminated.
 143:..\..\..\lvgl\version_6.1.2\lvgl/src/lv_objx/lv_label.h ****  * Memory will be allocated to store the array by the label.
 144:..\..\..\lvgl\version_6.1.2\lvgl/src/lv_objx/lv_label.h ****  * @param label pointer to a label object
 145:..\..\..\lvgl\version_6.1.2\lvgl/src/lv_objx/lv_label.h ****  * @param array array of characters or NULL to refresh the label
 146:..\..\..\lvgl\version_6.1.2\lvgl/src/lv_objx/lv_label.h ****  * @param size the size of 'array' in bytes
 147:..\..\..\lvgl\version_6.1.2\lvgl/src/lv_objx/lv_label.h ****  */
 148:..\..\..\lvgl\version_6.1.2\lvgl/src/lv_objx/lv_label.h **** void lv_label_set_array_text(lv_obj_t * label, const char * array, uint16_t size);
 149:..\..\..\lvgl\version_6.1.2\lvgl/src/lv_objx/lv_label.h **** 
 150:..\..\..\lvgl\version_6.1.2\lvgl/src/lv_objx/lv_label.h **** /**
 151:..\..\..\lvgl\version_6.1.2\lvgl/src/lv_objx/lv_label.h ****  * Set a static text. It will not be saved by the label so the 'text' variable
 152:..\..\..\lvgl\version_6.1.2\lvgl/src/lv_objx/lv_label.h ****  * has to be 'alive' while the label exist.
 153:..\..\..\lvgl\version_6.1.2\lvgl/src/lv_objx/lv_label.h ****  * @param label pointer to a label object
 154:..\..\..\lvgl\version_6.1.2\lvgl/src/lv_objx/lv_label.h ****  * @param text pointer to a text. NULL to refresh with the current text.
 155:..\..\..\lvgl\version_6.1.2\lvgl/src/lv_objx/lv_label.h ****  */
 156:..\..\..\lvgl\version_6.1.2\lvgl/src/lv_objx/lv_label.h **** void lv_label_set_static_text(lv_obj_t * label, const char * text);
 157:..\..\..\lvgl\version_6.1.2\lvgl/src/lv_objx/lv_label.h **** 
 158:..\..\..\lvgl\version_6.1.2\lvgl/src/lv_objx/lv_label.h **** /**
 159:..\..\..\lvgl\version_6.1.2\lvgl/src/lv_objx/lv_label.h ****  * Set the behavior of the label with longer text then the object size
 160:..\..\..\lvgl\version_6.1.2\lvgl/src/lv_objx/lv_label.h ****  * @param label pointer to a label object
 161:..\..\..\lvgl\version_6.1.2\lvgl/src/lv_objx/lv_label.h ****  * @param long_mode the new mode from 'lv_label_long_mode' enum.
 162:..\..\..\lvgl\version_6.1.2\lvgl/src/lv_objx/lv_label.h ****  *                  In LV_LONG_BREAK/LONG/ROLL the size of the label should be set AFTER this
 163:..\..\..\lvgl\version_6.1.2\lvgl/src/lv_objx/lv_label.h ****  * function
 164:..\..\..\lvgl\version_6.1.2\lvgl/src/lv_objx/lv_label.h ****  */
 165:..\..\..\lvgl\version_6.1.2\lvgl/src/lv_objx/lv_label.h **** void lv_label_set_long_mode(lv_obj_t * label, lv_label_long_mode_t long_mode);
 166:..\..\..\lvgl\version_6.1.2\lvgl/src/lv_objx/lv_label.h **** 
 167:..\..\..\lvgl\version_6.1.2\lvgl/src/lv_objx/lv_label.h **** /**
 168:..\..\..\lvgl\version_6.1.2\lvgl/src/lv_objx/lv_label.h ****  * Set the align of the label (left or center)
 169:..\..\..\lvgl\version_6.1.2\lvgl/src/lv_objx/lv_label.h ****  * @param label pointer to a label object
 170:..\..\..\lvgl\version_6.1.2\lvgl/src/lv_objx/lv_label.h ****  * @param align 'LV_LABEL_ALIGN_LEFT' or 'LV_LABEL_ALIGN_LEFT'
 171:..\..\..\lvgl\version_6.1.2\lvgl/src/lv_objx/lv_label.h ****  */
 172:..\..\..\lvgl\version_6.1.2\lvgl/src/lv_objx/lv_label.h **** void lv_label_set_align(lv_obj_t * label, lv_label_align_t align);
 173:..\..\..\lvgl\version_6.1.2\lvgl/src/lv_objx/lv_label.h **** 
 174:..\..\..\lvgl\version_6.1.2\lvgl/src/lv_objx/lv_label.h **** /**
 175:..\..\..\lvgl\version_6.1.2\lvgl/src/lv_objx/lv_label.h ****  * Enable the recoloring by in-line commands
 176:..\..\..\lvgl\version_6.1.2\lvgl/src/lv_objx/lv_label.h ****  * @param label pointer to a label object
 177:..\..\..\lvgl\version_6.1.2\lvgl/src/lv_objx/lv_label.h ****  * @param en true: enable recoloring, false: disable
 178:..\..\..\lvgl\version_6.1.2\lvgl/src/lv_objx/lv_label.h ****  */
 179:..\..\..\lvgl\version_6.1.2\lvgl/src/lv_objx/lv_label.h **** void lv_label_set_recolor(lv_obj_t * label, bool en);
 180:..\..\..\lvgl\version_6.1.2\lvgl/src/lv_objx/lv_label.h **** 
 181:..\..\..\lvgl\version_6.1.2\lvgl/src/lv_objx/lv_label.h **** /**
 182:..\..\..\lvgl\version_6.1.2\lvgl/src/lv_objx/lv_label.h ****  * Set the label to draw (or not draw) background specified in its style's body
 183:..\..\..\lvgl\version_6.1.2\lvgl/src/lv_objx/lv_label.h ****  * @param label pointer to a label object
 184:..\..\..\lvgl\version_6.1.2\lvgl/src/lv_objx/lv_label.h ****  * @param en true: draw body; false: don't draw body
ARM GAS  C:\Users\chris\AppData\Local\Temp\ccZnA2v0.s 			page 8


 185:..\..\..\lvgl\version_6.1.2\lvgl/src/lv_objx/lv_label.h ****  */
 186:..\..\..\lvgl\version_6.1.2\lvgl/src/lv_objx/lv_label.h **** void lv_label_set_body_draw(lv_obj_t * label, bool en);
 187:..\..\..\lvgl\version_6.1.2\lvgl/src/lv_objx/lv_label.h **** 
 188:..\..\..\lvgl\version_6.1.2\lvgl/src/lv_objx/lv_label.h **** /**
 189:..\..\..\lvgl\version_6.1.2\lvgl/src/lv_objx/lv_label.h ****  * Set the label's animation speed in LV_LABEL_LONG_SROLL/SCROLL_CIRC modes
 190:..\..\..\lvgl\version_6.1.2\lvgl/src/lv_objx/lv_label.h ****  * @param label pointer to a label object
 191:..\..\..\lvgl\version_6.1.2\lvgl/src/lv_objx/lv_label.h ****  * @param anim_speed speed of animation in px/sec unit
 192:..\..\..\lvgl\version_6.1.2\lvgl/src/lv_objx/lv_label.h ****  */
 193:..\..\..\lvgl\version_6.1.2\lvgl/src/lv_objx/lv_label.h **** void lv_label_set_anim_speed(lv_obj_t * label, uint16_t anim_speed);
 194:..\..\..\lvgl\version_6.1.2\lvgl/src/lv_objx/lv_label.h **** 
 195:..\..\..\lvgl\version_6.1.2\lvgl/src/lv_objx/lv_label.h **** /**
 196:..\..\..\lvgl\version_6.1.2\lvgl/src/lv_objx/lv_label.h ****  * Set the style of an label
 197:..\..\..\lvgl\version_6.1.2\lvgl/src/lv_objx/lv_label.h ****  * @param label pointer to an label object
 198:..\..\..\lvgl\version_6.1.2\lvgl/src/lv_objx/lv_label.h ****  * @param type which style should be get (can be only `LV_LABEL_STYLE_MAIN`)
 199:..\..\..\lvgl\version_6.1.2\lvgl/src/lv_objx/lv_label.h ****  * @param style pointer to a style
 200:..\..\..\lvgl\version_6.1.2\lvgl/src/lv_objx/lv_label.h ****  */
 201:..\..\..\lvgl\version_6.1.2\lvgl/src/lv_objx/lv_label.h **** static inline void lv_label_set_style(lv_obj_t * label, lv_label_style_t type, const lv_style_t * s
 202:..\..\..\lvgl\version_6.1.2\lvgl/src/lv_objx/lv_label.h **** {
  93              		.loc 2 202 0
  94              		.cfi_startproc
  95              		@ args = 0, pretend = 0, frame = 16
  96              		@ frame_needed = 1, uses_anonymous_args = 0
  97 0000 80B5     		push	{r7, lr}
  98              		.cfi_def_cfa_offset 8
  99              		.cfi_offset 7, -8
 100              		.cfi_offset 14, -4
 101 0002 84B0     		sub	sp, sp, #16
 102              		.cfi_def_cfa_offset 24
 103 0004 00AF     		add	r7, sp, #0
 104              		.cfi_def_cfa_register 7
 105 0006 F860     		str	r0, [r7, #12]
 106 0008 0B46     		mov	r3, r1
 107 000a 7A60     		str	r2, [r7, #4]
 108 000c FB72     		strb	r3, [r7, #11]
 203:..\..\..\lvgl\version_6.1.2\lvgl/src/lv_objx/lv_label.h ****     (void)type; /*Unused*/
 204:..\..\..\lvgl\version_6.1.2\lvgl/src/lv_objx/lv_label.h ****     lv_obj_set_style(label, style);
 109              		.loc 2 204 0
 110 000e 7968     		ldr	r1, [r7, #4]
 111 0010 F868     		ldr	r0, [r7, #12]
 112 0012 FFF7FEFF 		bl	lv_obj_set_style
 205:..\..\..\lvgl\version_6.1.2\lvgl/src/lv_objx/lv_label.h **** }
 113              		.loc 2 205 0
 114 0016 00BF     		nop
 115 0018 1037     		adds	r7, r7, #16
 116              		.cfi_def_cfa_offset 8
 117 001a BD46     		mov	sp, r7
 118              		.cfi_def_cfa_register 13
 119              		@ sp needed
 120 001c 80BD     		pop	{r7, pc}
 121              		.cfi_endproc
 122              	.LFE635:
 123              		.size	lv_label_set_style, .-lv_label_set_style
 124 001e 00BF     		.bss
 125              		.align	2
 126              	btn_anime_state:
 127 0000 00000000 		.space	4
 128              		.align	2
ARM GAS  C:\Users\chris\AppData\Local\Temp\ccZnA2v0.s 			page 9


 129              	breath_task:
 130 0004 00000000 		.space	4
 131              		.section	.text.breath_activity_action,"ax",%progbits
 132              		.align	2
 133              		.global	breath_activity_action
 134              		.thumb
 135              		.thumb_func
 136              		.type	breath_activity_action, %function
 137              	breath_activity_action:
 138              	.LFB717:
 139              		.file 3 "breath_activity.c"
   1:breath_activity.c **** #include <stdio.h>
   2:breath_activity.c **** #include "project.h"
   3:breath_activity.c **** #include "lvgl.h"
   4:breath_activity.c **** 
   5:breath_activity.c **** #define HOLD_SECS   (10)
   6:breath_activity.c **** #define EXHALE_SECS (15)
   7:breath_activity.c **** 
   8:breath_activity.c **** void btn_anime(lv_task_t * task);
   9:breath_activity.c **** 
  10:breath_activity.c **** static int volatile btn_anime_state = 0;
  11:breath_activity.c **** 
  12:breath_activity.c **** static lv_task_t *breath_task;
  13:breath_activity.c **** 
  14:breath_activity.c **** void breath_activity_action(lv_obj_t * btn, lv_event_t event)
  15:breath_activity.c **** {
 140              		.loc 3 15 0
 141              		.cfi_startproc
 142              		@ args = 0, pretend = 0, frame = 8
 143              		@ frame_needed = 1, uses_anonymous_args = 0
 144 0000 80B5     		push	{r7, lr}
 145              		.cfi_def_cfa_offset 8
 146              		.cfi_offset 7, -8
 147              		.cfi_offset 14, -4
 148 0002 82B0     		sub	sp, sp, #8
 149              		.cfi_def_cfa_offset 16
 150 0004 00AF     		add	r7, sp, #0
 151              		.cfi_def_cfa_register 7
 152 0006 7860     		str	r0, [r7, #4]
 153 0008 0B46     		mov	r3, r1
 154 000a FB70     		strb	r3, [r7, #3]
  16:breath_activity.c ****     if (event == LV_EVENT_CLICKED)
 155              		.loc 3 16 0
 156 000c FB78     		ldrb	r3, [r7, #3]	@ zero_extendqisi2
 157 000e 062B     		cmp	r3, #6
 158 0010 09D1     		bne	.L7
  17:breath_activity.c ****     {
  18:breath_activity.c ****         //lv_task_create(task_cb, period_ms, LV_TASK_PRIO_OFF/LOWEST/LOW/MID/HIGH/HIGHEST, user_dat
  19:breath_activity.c ****         breath_task = lv_task_create(btn_anime, 1000 /*ms*/, LV_TASK_PRIO_HIGHEST, NULL);
 159              		.loc 3 19 0
 160 0012 0023     		movs	r3, #0
 161 0014 0522     		movs	r2, #5
 162 0016 4FF47A71 		mov	r1, #1000
 163 001a 0548     		ldr	r0, .L8
 164 001c FFF7FEFF 		bl	lv_task_create
 165 0020 0246     		mov	r2, r0
 166 0022 044B     		ldr	r3, .L8+4
ARM GAS  C:\Users\chris\AppData\Local\Temp\ccZnA2v0.s 			page 10


 167 0024 1A60     		str	r2, [r3]
 168              	.L7:
  20:breath_activity.c ****     }
  21:breath_activity.c **** }
 169              		.loc 3 21 0
 170 0026 00BF     		nop
 171 0028 0837     		adds	r7, r7, #8
 172              		.cfi_def_cfa_offset 8
 173 002a BD46     		mov	sp, r7
 174              		.cfi_def_cfa_register 13
 175              		@ sp needed
 176 002c 80BD     		pop	{r7, pc}
 177              	.L9:
 178 002e 00BF     		.align	2
 179              	.L8:
 180 0030 00000000 		.word	btn_anime
 181 0034 04000000 		.word	breath_task
 182              		.cfi_endproc
 183              	.LFE717:
 184              		.size	breath_activity_action, .-breath_activity_action
 185              		.section	.rodata
 186              		.align	2
 187              	.LC0:
 188 0000 486F6C64 		.ascii	"Hold breath for\01210 seconds ...\012\012... then b"
 188      20627265 
 188      61746820 
 188      666F720A 
 188      31302073 
 189 002a 72656174 		.ascii	"reathe\012into device\012slowly for\01215 seconds\000"
 189      68650A69 
 189      6E746F20 
 189      64657669 
 189      63650A73 
 190 0053 00       		.align	2
 191              	.LC1:
 192 0054 00       		.ascii	"\000"
 193 0055 000000   		.align	2
 194              	.LC2:
 195 0058 25326400 		.ascii	"%2d\000"
 196              		.section	.text.btn_anime,"ax",%progbits
 197              		.align	2
 198              		.global	btn_anime
 199              		.thumb
 200              		.thumb_func
 201              		.type	btn_anime, %function
 202              	btn_anime:
 203              	.LFB718:
  22:breath_activity.c **** 
  23:breath_activity.c **** 
  24:breath_activity.c **** //void task(lv_task_t * task)
  25:breath_activity.c **** void btn_anime(lv_task_t * task)
  26:breath_activity.c **** {
 204              		.loc 3 26 0
 205              		.cfi_startproc
 206              		@ args = 0, pretend = 0, frame = 16
 207              		@ frame_needed = 1, uses_anonymous_args = 0
 208 0000 80B5     		push	{r7, lr}
ARM GAS  C:\Users\chris\AppData\Local\Temp\ccZnA2v0.s 			page 11


 209              		.cfi_def_cfa_offset 8
 210              		.cfi_offset 7, -8
 211              		.cfi_offset 14, -4
 212 0002 86B0     		sub	sp, sp, #24
 213              		.cfi_def_cfa_offset 32
 214 0004 02AF     		add	r7, sp, #8
 215              		.cfi_def_cfa 7, 24
 216 0006 7860     		str	r0, [r7, #4]
  27:breath_activity.c ****     static lv_obj_t     *my_label = NULL;
  28:breath_activity.c ****     static lv_obj_t     *time_label = NULL;
  29:breath_activity.c ****     static lv_obj_t     *my_btn = NULL;
  30:breath_activity.c ****     static lv_style_t   btn_style;
  31:breath_activity.c ****     static lv_style_t   lbl_style;
  32:breath_activity.c **** 
  33:breath_activity.c ****     static lv_style_t   style_led;
  34:breath_activity.c ****     static lv_obj_t     *led_arr[10];
  35:breath_activity.c **** 
  36:breath_activity.c ****     static lv_obj_t     *init_screen;
  37:breath_activity.c ****     static lv_obj_t     *scr1;
  38:breath_activity.c ****     
  39:breath_activity.c ****     static char time_left[8] = {0};
  40:breath_activity.c ****         
  41:breath_activity.c ****     if (btn_anime_state == 0)
 217              		.loc 3 41 0
 218 0008 AF4B     		ldr	r3, .L18
 219 000a 1B68     		ldr	r3, [r3]
 220 000c 002B     		cmp	r3, #0
 221 000e 40F04781 		bne	.L11
 222              	.LBB2:
  42:breath_activity.c ****     {
  43:breath_activity.c ****         init_screen = lv_scr_act();
 223              		.loc 3 43 0
 224 0012 FFF7FEFF 		bl	lv_scr_act
 225 0016 0246     		mov	r2, r0
 226 0018 AC4B     		ldr	r3, .L18+4
 227 001a 1A60     		str	r2, [r3]
  44:breath_activity.c ****         scr1 = lv_obj_create(NULL, NULL);
 228              		.loc 3 44 0
 229 001c 0021     		movs	r1, #0
 230 001e 0020     		movs	r0, #0
 231 0020 FFF7FEFF 		bl	lv_obj_create
 232 0024 0246     		mov	r2, r0
 233 0026 AA4B     		ldr	r3, .L18+8
 234 0028 1A60     		str	r2, [r3]
  45:breath_activity.c ****         lv_scr_load(scr1);
 235              		.loc 3 45 0
 236 002a A94B     		ldr	r3, .L18+8
 237 002c 1B68     		ldr	r3, [r3]
 238 002e 1846     		mov	r0, r3
 239 0030 FFF7FEFF 		bl	lv_scr_load
  46:breath_activity.c **** 
  47:breath_activity.c ****         my_btn = lv_obj_create(lv_scr_act(), NULL);
 240              		.loc 3 47 0
 241 0034 FFF7FEFF 		bl	lv_scr_act
 242 0038 0346     		mov	r3, r0
 243 003a 0021     		movs	r1, #0
 244 003c 1846     		mov	r0, r3
ARM GAS  C:\Users\chris\AppData\Local\Temp\ccZnA2v0.s 			page 12


 245 003e FFF7FEFF 		bl	lv_obj_create
 246 0042 0246     		mov	r2, r0
 247 0044 A34B     		ldr	r3, .L18+12
 248 0046 1A60     		str	r2, [r3]
  48:breath_activity.c ****         lv_obj_set_size(my_btn, 320, 480);                        /*Set its size*/
 249              		.loc 3 48 0
 250 0048 A24B     		ldr	r3, .L18+12
 251 004a 1B68     		ldr	r3, [r3]
 252 004c 4FF4F072 		mov	r2, #480
 253 0050 4FF4A071 		mov	r1, #320
 254 0054 1846     		mov	r0, r3
 255 0056 FFF7FEFF 		bl	lv_obj_set_size
  49:breath_activity.c **** 
  50:breath_activity.c ****         lv_style_copy(&btn_style, lv_obj_get_style(my_btn));
 256              		.loc 3 50 0
 257 005a 9E4B     		ldr	r3, .L18+12
 258 005c 1B68     		ldr	r3, [r3]
 259 005e 1846     		mov	r0, r3
 260 0060 FFF7FEFF 		bl	lv_obj_get_style
 261 0064 0346     		mov	r3, r0
 262 0066 1946     		mov	r1, r3
 263 0068 9B48     		ldr	r0, .L18+16
 264 006a FFF7FEFF 		bl	lv_style_copy
  51:breath_activity.c ****         btn_style.body.main_color.full = 0x40C0FF;
 265              		.loc 3 51 0
 266 006e 9A4B     		ldr	r3, .L18+16
 267 0070 9A4A     		ldr	r2, .L18+20
 268 0072 5A60     		str	r2, [r3, #4]
  52:breath_activity.c ****         btn_style.body.grad_color.full = btn_style.body.main_color.full;
 269              		.loc 3 52 0
 270 0074 984B     		ldr	r3, .L18+16
 271 0076 5B68     		ldr	r3, [r3, #4]
 272 0078 974A     		ldr	r2, .L18+16
 273 007a 9360     		str	r3, [r2, #8]
  53:breath_activity.c ****         btn_style.body.opa = LV_OPA_COVER;
 274              		.loc 3 53 0
 275 007c 964B     		ldr	r3, .L18+16
 276 007e FF22     		movs	r2, #255
 277 0080 9A73     		strb	r2, [r3, #14]
  54:breath_activity.c ****         lv_obj_set_style( my_btn, &btn_style );
 278              		.loc 3 54 0
 279 0082 944B     		ldr	r3, .L18+12
 280 0084 1B68     		ldr	r3, [r3]
 281 0086 9449     		ldr	r1, .L18+16
 282 0088 1846     		mov	r0, r3
 283 008a FFF7FEFF 		bl	lv_obj_set_style
  55:breath_activity.c ****         
  56:breath_activity.c ****         my_label = lv_label_create(my_btn, NULL);
 284              		.loc 3 56 0
 285 008e 914B     		ldr	r3, .L18+12
 286 0090 1B68     		ldr	r3, [r3]
 287 0092 0021     		movs	r1, #0
 288 0094 1846     		mov	r0, r3
 289 0096 FFF7FEFF 		bl	lv_label_create
 290 009a 0246     		mov	r2, r0
 291 009c 904B     		ldr	r3, .L18+24
 292 009e 1A60     		str	r2, [r3]
ARM GAS  C:\Users\chris\AppData\Local\Temp\ccZnA2v0.s 			page 13


  57:breath_activity.c ****         lv_style_copy(&lbl_style, lv_obj_get_style(my_label));
 293              		.loc 3 57 0
 294 00a0 8F4B     		ldr	r3, .L18+24
 295 00a2 1B68     		ldr	r3, [r3]
 296 00a4 1846     		mov	r0, r3
 297 00a6 FFF7FEFF 		bl	lv_obj_get_style
 298 00aa 0346     		mov	r3, r0
 299 00ac 1946     		mov	r1, r3
 300 00ae 8D48     		ldr	r0, .L18+28
 301 00b0 FFF7FEFF 		bl	lv_style_copy
  58:breath_activity.c ****         lv_label_set_text( my_label, "Hold breath for\n10 seconds ...\n\n... then breathe\ninto dev
 302              		.loc 3 58 0
 303 00b4 8A4B     		ldr	r3, .L18+24
 304 00b6 1B68     		ldr	r3, [r3]
 305 00b8 8B49     		ldr	r1, .L18+32
 306 00ba 1846     		mov	r0, r3
 307 00bc FFF7FEFF 		bl	lv_label_set_text
  59:breath_activity.c ****         lv_obj_align( my_label, NULL, LV_ALIGN_IN_TOP_LEFT, 5,100 );
 308              		.loc 3 59 0
 309 00c0 874B     		ldr	r3, .L18+24
 310 00c2 1868     		ldr	r0, [r3]
 311 00c4 6423     		movs	r3, #100
 312 00c6 0093     		str	r3, [sp]
 313 00c8 0523     		movs	r3, #5
 314 00ca 0122     		movs	r2, #1
 315 00cc 0021     		movs	r1, #0
 316 00ce FFF7FEFF 		bl	lv_obj_align
  60:breath_activity.c ****         lv_label_set_long_mode(my_label, LV_LABEL_LONG_EXPAND);
 317              		.loc 3 60 0
 318 00d2 834B     		ldr	r3, .L18+24
 319 00d4 1B68     		ldr	r3, [r3]
 320 00d6 0021     		movs	r1, #0
 321 00d8 1846     		mov	r0, r3
 322 00da FFF7FEFF 		bl	lv_label_set_long_mode
  61:breath_activity.c ****         lbl_style.text.font = &lv_font_roboto_28;
 323              		.loc 3 61 0
 324 00de 814B     		ldr	r3, .L18+28
 325 00e0 824A     		ldr	r2, .L18+36
 326 00e2 5A63     		str	r2, [r3, #52]
  62:breath_activity.c ****         lv_label_set_style(my_label, LV_LABEL_STYLE_MAIN, &lbl_style);
 327              		.loc 3 62 0
 328 00e4 7E4B     		ldr	r3, .L18+24
 329 00e6 1B68     		ldr	r3, [r3]
 330 00e8 7E4A     		ldr	r2, .L18+28
 331 00ea 0021     		movs	r1, #0
 332 00ec 1846     		mov	r0, r3
 333 00ee FFF7FEFF 		bl	lv_label_set_style
  63:breath_activity.c **** 
  64:breath_activity.c ****         time_label = lv_label_create(my_btn, NULL);
 334              		.loc 3 64 0
 335 00f2 784B     		ldr	r3, .L18+12
 336 00f4 1B68     		ldr	r3, [r3]
 337 00f6 0021     		movs	r1, #0
 338 00f8 1846     		mov	r0, r3
 339 00fa FFF7FEFF 		bl	lv_label_create
 340 00fe 0246     		mov	r2, r0
 341 0100 7B4B     		ldr	r3, .L18+40
ARM GAS  C:\Users\chris\AppData\Local\Temp\ccZnA2v0.s 			page 14


 342 0102 1A60     		str	r2, [r3]
  65:breath_activity.c ****         lv_style_copy(&lbl_style, lv_obj_get_style(time_label));
 343              		.loc 3 65 0
 344 0104 7A4B     		ldr	r3, .L18+40
 345 0106 1B68     		ldr	r3, [r3]
 346 0108 1846     		mov	r0, r3
 347 010a FFF7FEFF 		bl	lv_obj_get_style
 348 010e 0346     		mov	r3, r0
 349 0110 1946     		mov	r1, r3
 350 0112 7448     		ldr	r0, .L18+28
 351 0114 FFF7FEFF 		bl	lv_style_copy
  66:breath_activity.c ****         lv_label_set_static_text( time_label, "" );
 352              		.loc 3 66 0
 353 0118 754B     		ldr	r3, .L18+40
 354 011a 1B68     		ldr	r3, [r3]
 355 011c 7549     		ldr	r1, .L18+44
 356 011e 1846     		mov	r0, r3
 357 0120 FFF7FEFF 		bl	lv_label_set_static_text
  67:breath_activity.c ****         lv_obj_align( time_label, NULL, LV_ALIGN_IN_TOP_LEFT, 120,400 );
 358              		.loc 3 67 0
 359 0124 724B     		ldr	r3, .L18+40
 360 0126 1868     		ldr	r0, [r3]
 361 0128 4FF4C873 		mov	r3, #400
 362 012c 0093     		str	r3, [sp]
 363 012e 7823     		movs	r3, #120
 364 0130 0122     		movs	r2, #1
 365 0132 0021     		movs	r1, #0
 366 0134 FFF7FEFF 		bl	lv_obj_align
  68:breath_activity.c ****         lbl_style.text.font = &lv_font_roboto_28;
 367              		.loc 3 68 0
 368 0138 6A4B     		ldr	r3, .L18+28
 369 013a 6C4A     		ldr	r2, .L18+36
 370 013c 5A63     		str	r2, [r3, #52]
  69:breath_activity.c ****         lv_label_set_style(time_label, LV_LABEL_STYLE_MAIN, &lbl_style);
 371              		.loc 3 69 0
 372 013e 6C4B     		ldr	r3, .L18+40
 373 0140 1B68     		ldr	r3, [r3]
 374 0142 684A     		ldr	r2, .L18+28
 375 0144 0021     		movs	r1, #0
 376 0146 1846     		mov	r0, r3
 377 0148 FFF7FEFF 		bl	lv_label_set_style
  70:breath_activity.c **** 
  71:breath_activity.c ****         lv_style_copy(&style_led, &lv_style_pretty_color);
 378              		.loc 3 71 0
 379 014c 6A49     		ldr	r1, .L18+48
 380 014e 6B48     		ldr	r0, .L18+52
 381 0150 FFF7FEFF 		bl	lv_style_copy
  72:breath_activity.c ****         style_led.body.radius       = LV_RADIUS_CIRCLE;
 382              		.loc 3 72 0
 383 0154 694B     		ldr	r3, .L18+52
 384 0156 47F61842 		movw	r2, #31768
 385 015a 9A81     		strh	r2, [r3, #12]	@ movhi
  73:breath_activity.c ****         style_led.body.main_color   = LV_COLOR_MAKE(0x04, 0x0f, 0xb5);
 386              		.loc 3 73 0
 387 015c 674B     		ldr	r3, .L18+52
 388 015e B522     		movs	r2, #181
 389 0160 1A71     		strb	r2, [r3, #4]
ARM GAS  C:\Users\chris\AppData\Local\Temp\ccZnA2v0.s 			page 15


 390 0162 664B     		ldr	r3, .L18+52
 391 0164 0F22     		movs	r2, #15
 392 0166 5A71     		strb	r2, [r3, #5]
 393 0168 644B     		ldr	r3, .L18+52
 394 016a 0422     		movs	r2, #4
 395 016c 9A71     		strb	r2, [r3, #6]
 396 016e 634B     		ldr	r3, .L18+52
 397 0170 FF22     		movs	r2, #255
 398 0172 DA71     		strb	r2, [r3, #7]
  74:breath_activity.c ****         style_led.body.grad_color   = LV_COLOR_MAKE(0x02, 0x07, 0x50);
 399              		.loc 3 74 0
 400 0174 614B     		ldr	r3, .L18+52
 401 0176 5022     		movs	r2, #80
 402 0178 1A72     		strb	r2, [r3, #8]
 403 017a 604B     		ldr	r3, .L18+52
 404 017c 0722     		movs	r2, #7
 405 017e 5A72     		strb	r2, [r3, #9]
 406 0180 5E4B     		ldr	r3, .L18+52
 407 0182 0222     		movs	r2, #2
 408 0184 9A72     		strb	r2, [r3, #10]
 409 0186 5D4B     		ldr	r3, .L18+52
 410 0188 FF22     		movs	r2, #255
 411 018a DA72     		strb	r2, [r3, #11]
  75:breath_activity.c ****         style_led.body.border.color = LV_COLOR_MAKE(0x00, 0x0f, 0xfa);
 412              		.loc 3 75 0
 413 018c 5B4B     		ldr	r3, .L18+52
 414 018e FA22     		movs	r2, #250
 415 0190 1A74     		strb	r2, [r3, #16]
 416 0192 5A4B     		ldr	r3, .L18+52
 417 0194 0F22     		movs	r2, #15
 418 0196 5A74     		strb	r2, [r3, #17]
 419 0198 584B     		ldr	r3, .L18+52
 420 019a 0022     		movs	r2, #0
 421 019c 9A74     		strb	r2, [r3, #18]
 422 019e 574B     		ldr	r3, .L18+52
 423 01a0 FF22     		movs	r2, #255
 424 01a2 DA74     		strb	r2, [r3, #19]
  76:breath_activity.c ****         style_led.body.border.width = 3;
 425              		.loc 3 76 0
 426 01a4 554B     		ldr	r3, .L18+52
 427 01a6 0322     		movs	r2, #3
 428 01a8 9A82     		strh	r2, [r3, #20]	@ movhi
  77:breath_activity.c ****         style_led.body.border.opa   = LV_OPA_30;
 429              		.loc 3 77 0
 430 01aa 544B     		ldr	r3, .L18+52
 431 01ac 4C22     		movs	r2, #76
 432 01ae DA75     		strb	r2, [r3, #23]
  78:breath_activity.c ****         style_led.body.shadow.color = LV_COLOR_MAKE(0x04, 0x0f, 0xb5);
 433              		.loc 3 78 0
 434 01b0 524B     		ldr	r3, .L18+52
 435 01b2 B522     		movs	r2, #181
 436 01b4 1A76     		strb	r2, [r3, #24]
 437 01b6 514B     		ldr	r3, .L18+52
 438 01b8 0F22     		movs	r2, #15
 439 01ba 5A76     		strb	r2, [r3, #25]
 440 01bc 4F4B     		ldr	r3, .L18+52
 441 01be 0422     		movs	r2, #4
ARM GAS  C:\Users\chris\AppData\Local\Temp\ccZnA2v0.s 			page 16


 442 01c0 9A76     		strb	r2, [r3, #26]
 443 01c2 4E4B     		ldr	r3, .L18+52
 444 01c4 FF22     		movs	r2, #255
 445 01c6 DA76     		strb	r2, [r3, #27]
  79:breath_activity.c ****         style_led.body.shadow.width = 10;
 446              		.loc 3 79 0
 447 01c8 4C4B     		ldr	r3, .L18+52
 448 01ca 0A22     		movs	r2, #10
 449 01cc 9A83     		strh	r2, [r3, #28]	@ movhi
  80:breath_activity.c **** 
  81:breath_activity.c ****             /*Create a LED and switch it ON*/
  82:breath_activity.c ****         int i = 0;
 450              		.loc 3 82 0
 451 01ce 0023     		movs	r3, #0
 452 01d0 FB60     		str	r3, [r7, #12]
  83:breath_activity.c ****         led_arr[i] = lv_led_create(my_btn, NULL);
 453              		.loc 3 83 0
 454 01d2 404B     		ldr	r3, .L18+12
 455 01d4 1B68     		ldr	r3, [r3]
 456 01d6 0021     		movs	r1, #0
 457 01d8 1846     		mov	r0, r3
 458 01da FFF7FEFF 		bl	lv_led_create
 459 01de 0146     		mov	r1, r0
 460 01e0 474A     		ldr	r2, .L18+56
 461 01e2 FB68     		ldr	r3, [r7, #12]
 462 01e4 42F82310 		str	r1, [r2, r3, lsl #2]
  84:breath_activity.c ****         lv_obj_set_size(led_arr[i], 25, 25);
 463              		.loc 3 84 0
 464 01e8 454A     		ldr	r2, .L18+56
 465 01ea FB68     		ldr	r3, [r7, #12]
 466 01ec 52F82330 		ldr	r3, [r2, r3, lsl #2]
 467 01f0 1922     		movs	r2, #25
 468 01f2 1921     		movs	r1, #25
 469 01f4 1846     		mov	r0, r3
 470 01f6 FFF7FEFF 		bl	lv_obj_set_size
  85:breath_activity.c ****         lv_obj_set_style(led_arr[i], &style_led);
 471              		.loc 3 85 0
 472 01fa 414A     		ldr	r2, .L18+56
 473 01fc FB68     		ldr	r3, [r7, #12]
 474 01fe 52F82330 		ldr	r3, [r2, r3, lsl #2]
 475 0202 3E49     		ldr	r1, .L18+52
 476 0204 1846     		mov	r0, r3
 477 0206 FFF7FEFF 		bl	lv_obj_set_style
  86:breath_activity.c ****         lv_obj_align(led_arr[i], NULL, LV_ALIGN_IN_TOP_RIGHT, -10, 50);
 478              		.loc 3 86 0
 479 020a 3D4A     		ldr	r2, .L18+56
 480 020c FB68     		ldr	r3, [r7, #12]
 481 020e 52F82300 		ldr	r0, [r2, r3, lsl #2]
 482 0212 3223     		movs	r3, #50
 483 0214 0093     		str	r3, [sp]
 484 0216 6FF00903 		mvn	r3, #9
 485 021a 0322     		movs	r2, #3
 486 021c 0021     		movs	r1, #0
 487 021e FFF7FEFF 		bl	lv_obj_align
  87:breath_activity.c ****         lv_led_set_bright( led_arr[i], 100 );
 488              		.loc 3 87 0
 489 0222 374A     		ldr	r2, .L18+56
ARM GAS  C:\Users\chris\AppData\Local\Temp\ccZnA2v0.s 			page 17


 490 0224 FB68     		ldr	r3, [r7, #12]
 491 0226 52F82330 		ldr	r3, [r2, r3, lsl #2]
 492 022a 6421     		movs	r1, #100
 493 022c 1846     		mov	r0, r3
 494 022e FFF7FEFF 		bl	lv_led_set_bright
  88:breath_activity.c ****         for (i = 1; i < HOLD_SECS; ++i)
 495              		.loc 3 88 0
 496 0232 0123     		movs	r3, #1
 497 0234 FB60     		str	r3, [r7, #12]
 498 0236 30E0     		b	.L12
 499              	.L13:
  89:breath_activity.c ****         {
  90:breath_activity.c ****             /*Copy the previous LED and set a brightness*/
  91:breath_activity.c ****             led_arr[i] = lv_led_create(lv_scr_act(), led_arr[0]);
 500              		.loc 3 91 0 discriminator 3
 501 0238 FFF7FEFF 		bl	lv_scr_act
 502 023c 0246     		mov	r2, r0
 503 023e 304B     		ldr	r3, .L18+56
 504 0240 1B68     		ldr	r3, [r3]
 505 0242 1946     		mov	r1, r3
 506 0244 1046     		mov	r0, r2
 507 0246 FFF7FEFF 		bl	lv_led_create
 508 024a 0146     		mov	r1, r0
 509 024c 2C4A     		ldr	r2, .L18+56
 510 024e FB68     		ldr	r3, [r7, #12]
 511 0250 42F82310 		str	r1, [r2, r3, lsl #2]
  92:breath_activity.c ****             lv_obj_set_size(led_arr[i], 25, 25);
 512              		.loc 3 92 0 discriminator 3
 513 0254 2A4A     		ldr	r2, .L18+56
 514 0256 FB68     		ldr	r3, [r7, #12]
 515 0258 52F82330 		ldr	r3, [r2, r3, lsl #2]
 516 025c 1922     		movs	r2, #25
 517 025e 1921     		movs	r1, #25
 518 0260 1846     		mov	r0, r3
 519 0262 FFF7FEFF 		bl	lv_obj_set_size
  93:breath_activity.c ****             lv_obj_align(led_arr[i], led_arr[i-1], LV_ALIGN_OUT_BOTTOM_MID, 0, 15);
 520              		.loc 3 93 0 discriminator 3
 521 0266 264A     		ldr	r2, .L18+56
 522 0268 FB68     		ldr	r3, [r7, #12]
 523 026a 52F82300 		ldr	r0, [r2, r3, lsl #2]
 524 026e FB68     		ldr	r3, [r7, #12]
 525 0270 013B     		subs	r3, r3, #1
 526 0272 234A     		ldr	r2, .L18+56
 527 0274 52F82310 		ldr	r1, [r2, r3, lsl #2]
 528 0278 0F23     		movs	r3, #15
 529 027a 0093     		str	r3, [sp]
 530 027c 0023     		movs	r3, #0
 531 027e 0D22     		movs	r2, #13
 532 0280 FFF7FEFF 		bl	lv_obj_align
  94:breath_activity.c ****             lv_led_set_bright( led_arr[i], 100 );
 533              		.loc 3 94 0 discriminator 3
 534 0284 1E4A     		ldr	r2, .L18+56
 535 0286 FB68     		ldr	r3, [r7, #12]
 536 0288 52F82330 		ldr	r3, [r2, r3, lsl #2]
 537 028c 6421     		movs	r1, #100
 538 028e 1846     		mov	r0, r3
 539 0290 FFF7FEFF 		bl	lv_led_set_bright
ARM GAS  C:\Users\chris\AppData\Local\Temp\ccZnA2v0.s 			page 18


  88:breath_activity.c ****         {
 540              		.loc 3 88 0 discriminator 3
 541 0294 FB68     		ldr	r3, [r7, #12]
 542 0296 0133     		adds	r3, r3, #1
 543 0298 FB60     		str	r3, [r7, #12]
 544              	.L12:
  88:breath_activity.c ****         {
 545              		.loc 3 88 0 is_stmt 0 discriminator 1
 546 029a FB68     		ldr	r3, [r7, #12]
 547 029c 092B     		cmp	r3, #9
 548 029e CBDD     		ble	.L13
 549              	.L11:
 550              	.LBE2:
  95:breath_activity.c ****         }
  96:breath_activity.c ****     }
  97:breath_activity.c ****     
  98:breath_activity.c ****     if (btn_anime_state < HOLD_SECS)
 551              		.loc 3 98 0 is_stmt 1
 552 02a0 094B     		ldr	r3, .L18
 553 02a2 1B68     		ldr	r3, [r3]
 554 02a4 092B     		cmp	r3, #9
 555 02a6 2DDC     		bgt	.L14
 556              	.LBB3:
  99:breath_activity.c ****     {
 100:breath_activity.c ****         int led_num;
 101:breath_activity.c ****     
 102:breath_activity.c ****         led_num = btn_anime_state;
 557              		.loc 3 102 0
 558 02a8 074B     		ldr	r3, .L18
 559 02aa 1B68     		ldr	r3, [r3]
 560 02ac BB60     		str	r3, [r7, #8]
 103:breath_activity.c ****         
 104:breath_activity.c ****         lv_led_on(led_arr[led_num]);
 561              		.loc 3 104 0
 562 02ae 144A     		ldr	r2, .L18+56
 563 02b0 BB68     		ldr	r3, [r7, #8]
 564 02b2 52F82330 		ldr	r3, [r2, r3, lsl #2]
 565 02b6 1846     		mov	r0, r3
 566 02b8 FFF7FEFF 		bl	lv_led_on
 105:breath_activity.c ****         ++btn_anime_state;
 567              		.loc 3 105 0
 568 02bc 024B     		ldr	r3, .L18
 569 02be 1B68     		ldr	r3, [r3]
 570 02c0 0133     		adds	r3, r3, #1
 571 02c2 014A     		ldr	r2, .L18
 572 02c4 1360     		str	r3, [r2]
 573              	.LBE3:
 106:breath_activity.c ****     }
 107:breath_activity.c ****     else if (btn_anime_state < HOLD_SECS+EXHALE_SECS)
 108:breath_activity.c ****     {
 109:breath_activity.c ****         sprintf( time_left, "%2d", HOLD_SECS+EXHALE_SECS-btn_anime_state );
 110:breath_activity.c ****         lv_label_set_static_text( time_label, time_left );
 111:breath_activity.c **** 
 112:breath_activity.c ****         ++btn_anime_state;
 113:breath_activity.c ****     }
 114:breath_activity.c ****     else
 115:breath_activity.c ****     {        
ARM GAS  C:\Users\chris\AppData\Local\Temp\ccZnA2v0.s 			page 19


 116:breath_activity.c ****         lv_obj_del(lv_scr_act());
 117:breath_activity.c ****         lv_scr_load(init_screen);
 118:breath_activity.c ****         lv_task_del(task);
 119:breath_activity.c ****         
 120:breath_activity.c ****         btn_anime_state = 0;
 121:breath_activity.c ****     }
 122:breath_activity.c **** }    
 574              		.loc 3 122 0
 575 02c6 47E0     		b	.L17
 576              	.L19:
 577              		.align	2
 578              	.L18:
 579 02c8 00000000 		.word	btn_anime_state
 580 02cc 08000000 		.word	init_screen.20330
 581 02d0 0C000000 		.word	scr1.20331
 582 02d4 10000000 		.word	my_btn.20325
 583 02d8 14000000 		.word	btn_style.20326
 584 02dc FFC04000 		.word	4243711
 585 02e0 64000000 		.word	my_label.20323
 586 02e4 68000000 		.word	lbl_style.20327
 587 02e8 00000000 		.word	.LC0
 588 02ec 00000000 		.word	lv_font_roboto_28
 589 02f0 B8000000 		.word	time_label.20324
 590 02f4 54000000 		.word	.LC1
 591 02f8 00000000 		.word	lv_style_pretty_color
 592 02fc BC000000 		.word	style_led.20328
 593 0300 0C010000 		.word	led_arr.20329
 594              	.L14:
 107:breath_activity.c ****     {
 595              		.loc 3 107 0
 596 0304 164B     		ldr	r3, .L20
 597 0306 1B68     		ldr	r3, [r3]
 598 0308 182B     		cmp	r3, #24
 599 030a 14DC     		bgt	.L16
 109:breath_activity.c ****         lv_label_set_static_text( time_label, time_left );
 600              		.loc 3 109 0
 601 030c 144B     		ldr	r3, .L20
 602 030e 1B68     		ldr	r3, [r3]
 603 0310 C3F11903 		rsb	r3, r3, #25
 604 0314 1A46     		mov	r2, r3
 605 0316 1349     		ldr	r1, .L20+4
 606 0318 1348     		ldr	r0, .L20+8
 607 031a FFF7FEFF 		bl	sprintf
 110:breath_activity.c **** 
 608              		.loc 3 110 0
 609 031e 134B     		ldr	r3, .L20+12
 610 0320 1B68     		ldr	r3, [r3]
 611 0322 1149     		ldr	r1, .L20+8
 612 0324 1846     		mov	r0, r3
 613 0326 FFF7FEFF 		bl	lv_label_set_static_text
 112:breath_activity.c ****     }
 614              		.loc 3 112 0
 615 032a 0D4B     		ldr	r3, .L20
 616 032c 1B68     		ldr	r3, [r3]
 617 032e 0133     		adds	r3, r3, #1
 618 0330 0B4A     		ldr	r2, .L20
 619 0332 1360     		str	r3, [r2]
ARM GAS  C:\Users\chris\AppData\Local\Temp\ccZnA2v0.s 			page 20


 620              		.loc 3 122 0
 621 0334 10E0     		b	.L17
 622              	.L16:
 116:breath_activity.c ****         lv_scr_load(init_screen);
 623              		.loc 3 116 0
 624 0336 FFF7FEFF 		bl	lv_scr_act
 625 033a 0346     		mov	r3, r0
 626 033c 1846     		mov	r0, r3
 627 033e FFF7FEFF 		bl	lv_obj_del
 117:breath_activity.c ****         lv_task_del(task);
 628              		.loc 3 117 0
 629 0342 0B4B     		ldr	r3, .L20+16
 630 0344 1B68     		ldr	r3, [r3]
 631 0346 1846     		mov	r0, r3
 632 0348 FFF7FEFF 		bl	lv_scr_load
 118:breath_activity.c ****         
 633              		.loc 3 118 0
 634 034c 7868     		ldr	r0, [r7, #4]
 635 034e FFF7FEFF 		bl	lv_task_del
 120:breath_activity.c ****     }
 636              		.loc 3 120 0
 637 0352 034B     		ldr	r3, .L20
 638 0354 0022     		movs	r2, #0
 639 0356 1A60     		str	r2, [r3]
 640              	.L17:
 641              		.loc 3 122 0
 642 0358 00BF     		nop
 643 035a 1037     		adds	r7, r7, #16
 644              		.cfi_def_cfa_offset 8
 645 035c BD46     		mov	sp, r7
 646              		.cfi_def_cfa_register 13
 647              		@ sp needed
 648 035e 80BD     		pop	{r7, pc}
 649              	.L21:
 650              		.align	2
 651              	.L20:
 652 0360 00000000 		.word	btn_anime_state
 653 0364 58000000 		.word	.LC2
 654 0368 34010000 		.word	time_left.20332
 655 036c B8000000 		.word	time_label.20324
 656 0370 08000000 		.word	init_screen.20330
 657              		.cfi_endproc
 658              	.LFE718:
 659              		.size	btn_anime, .-btn_anime
 660              		.bss
 661              		.align	2
 662              	init_screen.20330:
 663 0008 00000000 		.space	4
 664              		.align	2
 665              	scr1.20331:
 666 000c 00000000 		.space	4
 667              		.align	2
 668              	my_btn.20325:
 669 0010 00000000 		.space	4
 670              		.align	2
 671              	btn_style.20326:
 672 0014 00000000 		.space	80
ARM GAS  C:\Users\chris\AppData\Local\Temp\ccZnA2v0.s 			page 21


 672      00000000 
 672      00000000 
 672      00000000 
 672      00000000 
 673              		.align	2
 674              	my_label.20323:
 675 0064 00000000 		.space	4
 676              		.align	2
 677              	lbl_style.20327:
 678 0068 00000000 		.space	80
 678      00000000 
 678      00000000 
 678      00000000 
 678      00000000 
 679              		.align	2
 680              	time_label.20324:
 681 00b8 00000000 		.space	4
 682              		.align	2
 683              	style_led.20328:
 684 00bc 00000000 		.space	80
 684      00000000 
 684      00000000 
 684      00000000 
 684      00000000 
 685              		.align	2
 686              	led_arr.20329:
 687 010c 00000000 		.space	40
 687      00000000 
 687      00000000 
 687      00000000 
 687      00000000 
 688              		.align	2
 689              	time_left.20332:
 690 0134 00000000 		.space	8
 690      00000000 
 691              		.text
 692              	.Letext0:
 693              		.file 4 "e:\\applications\\psoc\\psoc creator\\4.3\\psoc creator\\import\\gnu\\arm\\5.4.1\\arm-non
 694              		.file 5 "e:\\applications\\psoc\\psoc creator\\4.3\\psoc creator\\import\\gnu\\arm\\5.4.1\\arm-non
 695              		.file 6 "Generated_Source\\PSoC6\\pdl\\drivers/peripheral/device/cy_device.h"
 696              		.file 7 "Generated_Source\\PSoC6\\pdl\\drivers/peripheral/scb/cy_scb_i2c.h"
 697              		.file 8 "Generated_Source\\PSoC6\\pdl\\drivers/peripheral/scb/cy_scb_spi.h"
 698              		.file 9 "Generated_Source\\PSoC6\\pdl\\drivers/peripheral/tcpwm/cy_tcpwm_counter.h"
 699              		.file 10 "Generated_Source\\PSoC6/project.h"
 700              		.file 11 "..\\..\\..\\lvgl\\version_6.1.2\\lvgl/src/lv_misc/../../../lv_conf.h"
 701              		.file 12 "..\\..\\..\\lvgl\\version_6.1.2\\lvgl/src/lv_misc/lv_types.h"
 702              		.file 13 "..\\..\\..\\lvgl\\version_6.1.2\\lvgl/src/lv_misc/lv_ll.h"
 703              		.file 14 "..\\..\\..\\lvgl\\version_6.1.2\\lvgl/src/lv_misc/lv_task.h"
 704              		.file 15 "..\\..\\..\\lvgl\\version_6.1.2\\lvgl/src/lv_hal/../lv_misc/lv_color.h"
 705              		.file 16 "..\\..\\..\\lvgl\\version_6.1.2\\lvgl/src/lv_hal/../lv_misc/lv_area.h"
 706              		.file 17 "..\\..\\..\\lvgl\\version_6.1.2\\lvgl/src/lv_core/lv_obj.h"
 707              		.file 18 "..\\..\\..\\lvgl\\version_6.1.2\\lvgl/src/lv_core/../lv_font/lv_font.h"
 708              		.file 19 "..\\..\\..\\lvgl\\version_6.1.2\\lvgl/src/lv_core/lv_style.h"
 709              		.file 20 "..\\..\\..\\lvgl\\version_6.1.2\\lvgl/src/lv_core/../lv_misc/lv_bidi.h"
 710              		.file 21 "..\\..\\..\\lvgl\\version_6.1.2\\lvgl/src/lv_objx/lv_btn.h"
 711              		.file 22 "Generated_Source\\PSoC6\\pdl\\cmsis/include/core_cm4.h"
 712              		.file 23 "Generated_Source\\PSoC6/DISP_TICK_TIMER.h"
ARM GAS  C:\Users\chris\AppData\Local\Temp\ccZnA2v0.s 			page 22


 713              		.file 24 "Generated_Source\\PSoC6/I2C_MASTER.h"
 714              		.file 25 "Generated_Source\\PSoC6/SPIM.h"