ARM GAS  C:\Users\tmj32\AppData\Local\Temp\cccOycf1.s 			page 1


   1              		.syntax unified
   2              		.cpu cortex-m4
   3              		.eabi_attribute 27, 1
   4              		.fpu fpv4-sp-d16
   5              		.eabi_attribute 20, 1
   6              		.eabi_attribute 21, 1
   7              		.eabi_attribute 23, 3
   8              		.eabi_attribute 24, 1
   9              		.eabi_attribute 25, 1
  10              		.eabi_attribute 26, 1
  11              		.eabi_attribute 30, 6
  12              		.eabi_attribute 34, 1
  13              		.eabi_attribute 18, 4
  14              		.thumb
  15              		.syntax unified
  16              		.file	"cy_ipc_sema.c"
  17              		.text
  18              	.Ltext0:
  19              		.cfi_sections	.debug_frame
  20              		.section	.rodata
  21              		.align	2
  22              	.LC0:
  23 0000 47656E65 		.ascii	"Generated_Source\\PSoC6\\pdl\\drivers\\peripheral\\"
  23      72617465 
  23      645F536F 
  23      75726365 
  23      5C50536F 
  24 002e 6970635C 		.ascii	"ipc\\cy_ipc_drv.h\000"
  24      63795F69 
  24      70635F64 
  24      72762E68 
  24      00
  25              		.section	.text.Cy_IPC_Drv_GetIpcBaseAddress,"ax",%progbits
  26              		.align	2
  27              		.thumb
  28              		.thumb_func
  29              		.type	Cy_IPC_Drv_GetIpcBaseAddress, %function
  30              	Cy_IPC_Drv_GetIpcBaseAddress:
  31              	.LFB132:
  32              		.file 1 "Generated_Source\\PSoC6\\pdl\\drivers\\peripheral\\ipc\\cy_ipc_drv.h"
   1:Generated_Source\PSoC6\pdl\drivers\peripheral\ipc/cy_ipc_drv.h **** /***************************************************************************//**
   2:Generated_Source\PSoC6\pdl\drivers\peripheral\ipc/cy_ipc_drv.h **** * \file cy_ipc_drv.h
   3:Generated_Source\PSoC6\pdl\drivers\peripheral\ipc/cy_ipc_drv.h **** * \version 1.30
   4:Generated_Source\PSoC6\pdl\drivers\peripheral\ipc/cy_ipc_drv.h **** *
   5:Generated_Source\PSoC6\pdl\drivers\peripheral\ipc/cy_ipc_drv.h **** * Provides an API declaration of the IPC driver.
   6:Generated_Source\PSoC6\pdl\drivers\peripheral\ipc/cy_ipc_drv.h **** *
   7:Generated_Source\PSoC6\pdl\drivers\peripheral\ipc/cy_ipc_drv.h **** ********************************************************************************
   8:Generated_Source\PSoC6\pdl\drivers\peripheral\ipc/cy_ipc_drv.h **** * \copyright
   9:Generated_Source\PSoC6\pdl\drivers\peripheral\ipc/cy_ipc_drv.h **** * Copyright 2016-2018, Cypress Semiconductor Corporation. All rights reserved.
  10:Generated_Source\PSoC6\pdl\drivers\peripheral\ipc/cy_ipc_drv.h **** * You may use this file only in accordance with the license, terms, conditions,
  11:Generated_Source\PSoC6\pdl\drivers\peripheral\ipc/cy_ipc_drv.h **** * disclaimers, and limitations in the end user license agreement accompanying
  12:Generated_Source\PSoC6\pdl\drivers\peripheral\ipc/cy_ipc_drv.h **** * the software package with which this file was provided.
  13:Generated_Source\PSoC6\pdl\drivers\peripheral\ipc/cy_ipc_drv.h **** *******************************************************************************/
  14:Generated_Source\PSoC6\pdl\drivers\peripheral\ipc/cy_ipc_drv.h **** 
  15:Generated_Source\PSoC6\pdl\drivers\peripheral\ipc/cy_ipc_drv.h **** #ifndef CY_IPC_DRV_H
  16:Generated_Source\PSoC6\pdl\drivers\peripheral\ipc/cy_ipc_drv.h **** #define CY_IPC_DRV_H
  17:Generated_Source\PSoC6\pdl\drivers\peripheral\ipc/cy_ipc_drv.h **** 
ARM GAS  C:\Users\tmj32\AppData\Local\Temp\cccOycf1.s 			page 2


  18:Generated_Source\PSoC6\pdl\drivers\peripheral\ipc/cy_ipc_drv.h **** 
  19:Generated_Source\PSoC6\pdl\drivers\peripheral\ipc/cy_ipc_drv.h **** /**
  20:Generated_Source\PSoC6\pdl\drivers\peripheral\ipc/cy_ipc_drv.h **** * \addtogroup group_ipc
  21:Generated_Source\PSoC6\pdl\drivers\peripheral\ipc/cy_ipc_drv.h **** * \{
  22:Generated_Source\PSoC6\pdl\drivers\peripheral\ipc/cy_ipc_drv.h **** * The inter-processor communication (IPC) driver provides a safe and reliable
  23:Generated_Source\PSoC6\pdl\drivers\peripheral\ipc/cy_ipc_drv.h **** * method to transfer data between CPUs. Hardware locking ensures that only one
  24:Generated_Source\PSoC6\pdl\drivers\peripheral\ipc/cy_ipc_drv.h **** * device can acquire and transfer data at a time so no data is lost or
  25:Generated_Source\PSoC6\pdl\drivers\peripheral\ipc/cy_ipc_drv.h **** * overwritten by asynchronous processes or CPUs.
  26:Generated_Source\PSoC6\pdl\drivers\peripheral\ipc/cy_ipc_drv.h **** *
  27:Generated_Source\PSoC6\pdl\drivers\peripheral\ipc/cy_ipc_drv.h **** * Include either cy_ipc_pipe.h or cy_ipc_sema.h. Alternatively include cy_pdl.h 
  28:Generated_Source\PSoC6\pdl\drivers\peripheral\ipc/cy_ipc_drv.h **** * (ModusToolbox only) to get access to all functions and declarations in the PDL.
  29:Generated_Source\PSoC6\pdl\drivers\peripheral\ipc/cy_ipc_drv.h **** *
  30:Generated_Source\PSoC6\pdl\drivers\peripheral\ipc/cy_ipc_drv.h **** * There are three parts to the API:
  31:Generated_Source\PSoC6\pdl\drivers\peripheral\ipc/cy_ipc_drv.h **** *     - Driver-level (DRV) API - used internally by Semaphore and Pipe levels
  32:Generated_Source\PSoC6\pdl\drivers\peripheral\ipc/cy_ipc_drv.h **** *     - Pipe-level (PIPE) API - establishes a communication channel between
  33:Generated_Source\PSoC6\pdl\drivers\peripheral\ipc/cy_ipc_drv.h **** *       processors
  34:Generated_Source\PSoC6\pdl\drivers\peripheral\ipc/cy_ipc_drv.h **** *     - Semaphore-level (SEMA) API - enables users to set and clear flags to
  35:Generated_Source\PSoC6\pdl\drivers\peripheral\ipc/cy_ipc_drv.h **** *       synchronize operations.
  36:Generated_Source\PSoC6\pdl\drivers\peripheral\ipc/cy_ipc_drv.h **** *
  37:Generated_Source\PSoC6\pdl\drivers\peripheral\ipc/cy_ipc_drv.h **** * Firmware does not need to use the DRV API. It can implement IPC functionality
  38:Generated_Source\PSoC6\pdl\drivers\peripheral\ipc/cy_ipc_drv.h **** * entirely with the PIPE and SEMA APIs.
  39:Generated_Source\PSoC6\pdl\drivers\peripheral\ipc/cy_ipc_drv.h **** *
  40:Generated_Source\PSoC6\pdl\drivers\peripheral\ipc/cy_ipc_drv.h **** * \section group_ipc_background Background
  41:Generated_Source\PSoC6\pdl\drivers\peripheral\ipc/cy_ipc_drv.h **** *
  42:Generated_Source\PSoC6\pdl\drivers\peripheral\ipc/cy_ipc_drv.h **** * IPC is implemented in hardware as a collection of individual communication
  43:Generated_Source\PSoC6\pdl\drivers\peripheral\ipc/cy_ipc_drv.h **** * channels, each with a set of 32-bit registers. The IPC design implements a set
  44:Generated_Source\PSoC6\pdl\drivers\peripheral\ipc/cy_ipc_drv.h **** * of interrupts that enable each processor to notify the other that data is
  45:Generated_Source\PSoC6\pdl\drivers\peripheral\ipc/cy_ipc_drv.h **** * available, or has been processed. There is also a locking mechanism that
  46:Generated_Source\PSoC6\pdl\drivers\peripheral\ipc/cy_ipc_drv.h **** * allows only one CPU to gain access at a time.
  47:Generated_Source\PSoC6\pdl\drivers\peripheral\ipc/cy_ipc_drv.h **** *
  48:Generated_Source\PSoC6\pdl\drivers\peripheral\ipc/cy_ipc_drv.h **** * The Driver-level API manages each channel's registers to implement IPC
  49:Generated_Source\PSoC6\pdl\drivers\peripheral\ipc/cy_ipc_drv.h **** * functionality. For information on the IPC registers, see the IPC chapter of
  50:Generated_Source\PSoC6\pdl\drivers\peripheral\ipc/cy_ipc_drv.h **** * the Technical Reference Manual (TRM).
  51:Generated_Source\PSoC6\pdl\drivers\peripheral\ipc/cy_ipc_drv.h **** *
  52:Generated_Source\PSoC6\pdl\drivers\peripheral\ipc/cy_ipc_drv.h **** * At the hardware level, communication is a five-step process.
  53:Generated_Source\PSoC6\pdl\drivers\peripheral\ipc/cy_ipc_drv.h **** *     -#  The sending processor acquires a channel
  54:Generated_Source\PSoC6\pdl\drivers\peripheral\ipc/cy_ipc_drv.h **** *     -#  It puts data into the channel
  55:Generated_Source\PSoC6\pdl\drivers\peripheral\ipc/cy_ipc_drv.h **** *     -#  The sender generates a notify event (interrupt)
  56:Generated_Source\PSoC6\pdl\drivers\peripheral\ipc/cy_ipc_drv.h **** *     -#  The receiving processor identifies the sender and retrieves the data
  57:Generated_Source\PSoC6\pdl\drivers\peripheral\ipc/cy_ipc_drv.h **** *     -#  The receiving processor generates a release event (interrupt)
  58:Generated_Source\PSoC6\pdl\drivers\peripheral\ipc/cy_ipc_drv.h **** *
  59:Generated_Source\PSoC6\pdl\drivers\peripheral\ipc/cy_ipc_drv.h **** * \image html ipc_driver.png
  60:Generated_Source\PSoC6\pdl\drivers\peripheral\ipc/cy_ipc_drv.h **** *
  61:Generated_Source\PSoC6\pdl\drivers\peripheral\ipc/cy_ipc_drv.h **** * These transactions are handled transparently by the DRV-level API. Use the
  62:Generated_Source\PSoC6\pdl\drivers\peripheral\ipc/cy_ipc_drv.h **** * PIPE and SEMA layers of the API to implement communication in your application.
  63:Generated_Source\PSoC6\pdl\drivers\peripheral\ipc/cy_ipc_drv.h **** * The data transferred is limited to a single 32-bit value. As implemented by
  64:Generated_Source\PSoC6\pdl\drivers\peripheral\ipc/cy_ipc_drv.h **** * the PIPE API, that value is a pointer to a data structure of arbitrary size
  65:Generated_Source\PSoC6\pdl\drivers\peripheral\ipc/cy_ipc_drv.h **** * and complexity.
  66:Generated_Source\PSoC6\pdl\drivers\peripheral\ipc/cy_ipc_drv.h **** *
  67:Generated_Source\PSoC6\pdl\drivers\peripheral\ipc/cy_ipc_drv.h **** * \section group_ipc_overview Overview
  68:Generated_Source\PSoC6\pdl\drivers\peripheral\ipc/cy_ipc_drv.h **** *
  69:Generated_Source\PSoC6\pdl\drivers\peripheral\ipc/cy_ipc_drv.h **** * The Pipe is the key element in the PDL design. A pipe is typically a
  70:Generated_Source\PSoC6\pdl\drivers\peripheral\ipc/cy_ipc_drv.h **** * full-duplex communication channel between CPU cores. A pipe allows a single
  71:Generated_Source\PSoC6\pdl\drivers\peripheral\ipc/cy_ipc_drv.h **** * conduit to transfer messages or data to and from multiple processes or CPUs.
  72:Generated_Source\PSoC6\pdl\drivers\peripheral\ipc/cy_ipc_drv.h **** *
  73:Generated_Source\PSoC6\pdl\drivers\peripheral\ipc/cy_ipc_drv.h **** * A pipe has two endpoints, one on each core. Each endpoint contains a dedicated
  74:Generated_Source\PSoC6\pdl\drivers\peripheral\ipc/cy_ipc_drv.h **** * IPC channel and an interrupt. IPC channels 0-7 and IPC interrupts 0-7 are
ARM GAS  C:\Users\tmj32\AppData\Local\Temp\cccOycf1.s 			page 3


  75:Generated_Source\PSoC6\pdl\drivers\peripheral\ipc/cy_ipc_drv.h **** * reserved for system use.
  76:Generated_Source\PSoC6\pdl\drivers\peripheral\ipc/cy_ipc_drv.h **** *
  77:Generated_Source\PSoC6\pdl\drivers\peripheral\ipc/cy_ipc_drv.h **** * The pipe also contains the number of clients it supports, and for each client
  78:Generated_Source\PSoC6\pdl\drivers\peripheral\ipc/cy_ipc_drv.h **** * a callback function. So the pipe can service a number of clients, each with a
  79:Generated_Source\PSoC6\pdl\drivers\peripheral\ipc/cy_ipc_drv.h **** * separate callback function, on either endpoint. The number of clients a pipe
  80:Generated_Source\PSoC6\pdl\drivers\peripheral\ipc/cy_ipc_drv.h **** * supports is the sum of each endpoint's clients.
  81:Generated_Source\PSoC6\pdl\drivers\peripheral\ipc/cy_ipc_drv.h **** *
  82:Generated_Source\PSoC6\pdl\drivers\peripheral\ipc/cy_ipc_drv.h **** * This design enables any number of processes on the sending core to put
  83:Generated_Source\PSoC6\pdl\drivers\peripheral\ipc/cy_ipc_drv.h **** * arbitrary data into a single pipe. The first element of that data is the
  84:Generated_Source\PSoC6\pdl\drivers\peripheral\ipc/cy_ipc_drv.h **** * client ID of the client that should handle the data.
  85:Generated_Source\PSoC6\pdl\drivers\peripheral\ipc/cy_ipc_drv.h **** *
  86:Generated_Source\PSoC6\pdl\drivers\peripheral\ipc/cy_ipc_drv.h **** * An interrupt notifies the receiving core that data is available. The receiving
  87:Generated_Source\PSoC6\pdl\drivers\peripheral\ipc/cy_ipc_drv.h **** * core parses the data to identify the client, and then dispatches the event to
  88:Generated_Source\PSoC6\pdl\drivers\peripheral\ipc/cy_ipc_drv.h **** * the appropriate client via the client callback function. An interrupt notifies
  89:Generated_Source\PSoC6\pdl\drivers\peripheral\ipc/cy_ipc_drv.h **** * the sending core that the receiver is finished. In this way a single pipe can
  90:Generated_Source\PSoC6\pdl\drivers\peripheral\ipc/cy_ipc_drv.h **** * manage arbitrary data transfers between cores with data flowing in either
  91:Generated_Source\PSoC6\pdl\drivers\peripheral\ipc/cy_ipc_drv.h **** * direction.
  92:Generated_Source\PSoC6\pdl\drivers\peripheral\ipc/cy_ipc_drv.h **** *
  93:Generated_Source\PSoC6\pdl\drivers\peripheral\ipc/cy_ipc_drv.h **** * \image html ipc_ints.png
  94:Generated_Source\PSoC6\pdl\drivers\peripheral\ipc/cy_ipc_drv.h **** *
  95:Generated_Source\PSoC6\pdl\drivers\peripheral\ipc/cy_ipc_drv.h **** * The application can use semaphores to control access to shared resources, as
  96:Generated_Source\PSoC6\pdl\drivers\peripheral\ipc/cy_ipc_drv.h **** * required by the application's logic.
  97:Generated_Source\PSoC6\pdl\drivers\peripheral\ipc/cy_ipc_drv.h **** *
  98:Generated_Source\PSoC6\pdl\drivers\peripheral\ipc/cy_ipc_drv.h **** * The PDL provides specific files that set up default IPC functionality.
  99:Generated_Source\PSoC6\pdl\drivers\peripheral\ipc/cy_ipc_drv.h **** * They are system_psoc6.h, system_psoc6_cm0plus.c and system_psoc6_cm4.c. You 
 100:Generated_Source\PSoC6\pdl\drivers\peripheral\ipc/cy_ipc_drv.h **** * can modify these files based on the requirements of your design. 
 101:Generated_Source\PSoC6\pdl\drivers\peripheral\ipc/cy_ipc_drv.h **** * If you use PSoC Creator as a development environment, it will not overwrite 
 102:Generated_Source\PSoC6\pdl\drivers\peripheral\ipc/cy_ipc_drv.h **** * your changes when you generate the application or build your code.
 103:Generated_Source\PSoC6\pdl\drivers\peripheral\ipc/cy_ipc_drv.h **** *
 104:Generated_Source\PSoC6\pdl\drivers\peripheral\ipc/cy_ipc_drv.h **** * \section group_ipc_pipe_layer PIPE layer
 105:Generated_Source\PSoC6\pdl\drivers\peripheral\ipc/cy_ipc_drv.h **** *
 106:Generated_Source\PSoC6\pdl\drivers\peripheral\ipc/cy_ipc_drv.h **** * A pipe is a communication channel between two endpoints. PSoC 6 devices support
 107:Generated_Source\PSoC6\pdl\drivers\peripheral\ipc/cy_ipc_drv.h **** * 16 IPC channels, and 16 IPC interrupts, each numbered 0-15. IPC Channels 0-7
 108:Generated_Source\PSoC6\pdl\drivers\peripheral\ipc/cy_ipc_drv.h **** * and IPC interrupts 0-7 are reserved for system use. Channels 8-15 and
 109:Generated_Source\PSoC6\pdl\drivers\peripheral\ipc/cy_ipc_drv.h **** * interrupts 8-15 are available for application use.
 110:Generated_Source\PSoC6\pdl\drivers\peripheral\ipc/cy_ipc_drv.h **** *
 111:Generated_Source\PSoC6\pdl\drivers\peripheral\ipc/cy_ipc_drv.h **** * A full duplex pipe uses two IPC channels, one per endpoint. Each endpoint
 112:Generated_Source\PSoC6\pdl\drivers\peripheral\ipc/cy_ipc_drv.h **** * specifies all the information required to process a message (either sent or
 113:Generated_Source\PSoC6\pdl\drivers\peripheral\ipc/cy_ipc_drv.h **** * received). Each endpoint is configured to use an IPC channel, and an IPC
 114:Generated_Source\PSoC6\pdl\drivers\peripheral\ipc/cy_ipc_drv.h **** * interrupt. Common practice is to use the interrupt with the same number as
 115:Generated_Source\PSoC6\pdl\drivers\peripheral\ipc/cy_ipc_drv.h **** * the IPC channel. However, IPC Interrupts are not directly associated with the
 116:Generated_Source\PSoC6\pdl\drivers\peripheral\ipc/cy_ipc_drv.h **** * IPC channels, so any channel can use any interrupt.  Any IPC channel can
 117:Generated_Source\PSoC6\pdl\drivers\peripheral\ipc/cy_ipc_drv.h **** * trigger 0, 1 or all the IPC interrupts at once, depending on the Notify or
 118:Generated_Source\PSoC6\pdl\drivers\peripheral\ipc/cy_ipc_drv.h **** * Release masks used.
 119:Generated_Source\PSoC6\pdl\drivers\peripheral\ipc/cy_ipc_drv.h **** *
 120:Generated_Source\PSoC6\pdl\drivers\peripheral\ipc/cy_ipc_drv.h **** * It is also possible to set up a one-directional pipe, using a single IPC
 121:Generated_Source\PSoC6\pdl\drivers\peripheral\ipc/cy_ipc_drv.h **** * channel. In this design one processor is always the sender, and the other is
 122:Generated_Source\PSoC6\pdl\drivers\peripheral\ipc/cy_ipc_drv.h **** * always the receiver. However, there are still two endpoints.
 123:Generated_Source\PSoC6\pdl\drivers\peripheral\ipc/cy_ipc_drv.h **** *
 124:Generated_Source\PSoC6\pdl\drivers\peripheral\ipc/cy_ipc_drv.h **** * A pipe supports an arbitrary number of clients with an array of callback
 125:Generated_Source\PSoC6\pdl\drivers\peripheral\ipc/cy_ipc_drv.h **** * functions, one per client. The client ID is the index number into the array
 126:Generated_Source\PSoC6\pdl\drivers\peripheral\ipc/cy_ipc_drv.h **** * for the client. After a pipe is configured and initialized, the application
 127:Generated_Source\PSoC6\pdl\drivers\peripheral\ipc/cy_ipc_drv.h **** * calls Cy_IPC_Pipe_RegisterCallback() once per client to register each client's
 128:Generated_Source\PSoC6\pdl\drivers\peripheral\ipc/cy_ipc_drv.h **** * callback function. Multiple clients can use the same callback function. The
 129:Generated_Source\PSoC6\pdl\drivers\peripheral\ipc/cy_ipc_drv.h **** * endpoints in a pipe share the callback array.
 130:Generated_Source\PSoC6\pdl\drivers\peripheral\ipc/cy_ipc_drv.h **** *
 131:Generated_Source\PSoC6\pdl\drivers\peripheral\ipc/cy_ipc_drv.h **** * Use Cy_IPC_Pipe_SendMessage() to send data. You specify both the "to" and
ARM GAS  C:\Users\tmj32\AppData\Local\Temp\cccOycf1.s 			page 4


 132:Generated_Source\PSoC6\pdl\drivers\peripheral\ipc/cy_ipc_drv.h **** * "from" endpoints, and a callback function to be used when the data transfer is
 133:Generated_Source\PSoC6\pdl\drivers\peripheral\ipc/cy_ipc_drv.h **** * complete. The data is a 32-bit void pointer. The data pointed to is arbitrary,
 134:Generated_Source\PSoC6\pdl\drivers\peripheral\ipc/cy_ipc_drv.h **** * and can be an array, a structure, or a location in memory. The only limitation
 135:Generated_Source\PSoC6\pdl\drivers\peripheral\ipc/cy_ipc_drv.h **** * is that the first element of the data must be a 32-bit unsigned word containing
 136:Generated_Source\PSoC6\pdl\drivers\peripheral\ipc/cy_ipc_drv.h **** * a client ID number. The ID number is the index into the callback array.
 137:Generated_Source\PSoC6\pdl\drivers\peripheral\ipc/cy_ipc_drv.h **** *
 138:Generated_Source\PSoC6\pdl\drivers\peripheral\ipc/cy_ipc_drv.h **** * When a message is sent, the receiving endpoint's interrupt handler is called.
 139:Generated_Source\PSoC6\pdl\drivers\peripheral\ipc/cy_ipc_drv.h **** * The ISR can perform any task required by the design. However, as part of its
 140:Generated_Source\PSoC6\pdl\drivers\peripheral\ipc/cy_ipc_drv.h **** * function it calls \ref Cy_IPC_Pipe_ExecCallback. This function retrieves the
 141:Generated_Source\PSoC6\pdl\drivers\peripheral\ipc/cy_ipc_drv.h **** * client ID from the data and calls the associated callback function.
 142:Generated_Source\PSoC6\pdl\drivers\peripheral\ipc/cy_ipc_drv.h **** * The user-supplied callback function handles the data in whatever way is
 143:Generated_Source\PSoC6\pdl\drivers\peripheral\ipc/cy_ipc_drv.h **** * appropriate based on the application logic.
 144:Generated_Source\PSoC6\pdl\drivers\peripheral\ipc/cy_ipc_drv.h **** *
 145:Generated_Source\PSoC6\pdl\drivers\peripheral\ipc/cy_ipc_drv.h **** * After the callback function is returned by the receiver, it invokes the release
 146:Generated_Source\PSoC6\pdl\drivers\peripheral\ipc/cy_ipc_drv.h **** * callback function defined by the sender of the message.
 147:Generated_Source\PSoC6\pdl\drivers\peripheral\ipc/cy_ipc_drv.h **** *
 148:Generated_Source\PSoC6\pdl\drivers\peripheral\ipc/cy_ipc_drv.h **** * \section group_ipc_sema_layer SEMA Layer
 149:Generated_Source\PSoC6\pdl\drivers\peripheral\ipc/cy_ipc_drv.h **** *
 150:Generated_Source\PSoC6\pdl\drivers\peripheral\ipc/cy_ipc_drv.h **** * A semaphore is a flag the application uses to control access to a shared
 151:Generated_Source\PSoC6\pdl\drivers\peripheral\ipc/cy_ipc_drv.h **** * resource. The SEMA-level API uses an IPC channel to implement
 152:Generated_Source\PSoC6\pdl\drivers\peripheral\ipc/cy_ipc_drv.h **** * semaphores. Startup code sets up a default semaphore system. The
 153:Generated_Source\PSoC6\pdl\drivers\peripheral\ipc/cy_ipc_drv.h **** * default system creates an array of 128 semaphores (four 32-bit values).
 154:Generated_Source\PSoC6\pdl\drivers\peripheral\ipc/cy_ipc_drv.h **** * Semaphores 0-15 are reserved for system use. See
 155:Generated_Source\PSoC6\pdl\drivers\peripheral\ipc/cy_ipc_drv.h **** * Configuration Considerations - SEMA.
 156:Generated_Source\PSoC6\pdl\drivers\peripheral\ipc/cy_ipc_drv.h **** *
 157:Generated_Source\PSoC6\pdl\drivers\peripheral\ipc/cy_ipc_drv.h **** * Functions are available to initialize the semaphore system, to set or
 158:Generated_Source\PSoC6\pdl\drivers\peripheral\ipc/cy_ipc_drv.h **** * clear a semaphore, or to get the semaphore's current status. Application
 159:Generated_Source\PSoC6\pdl\drivers\peripheral\ipc/cy_ipc_drv.h **** * logic uses SEMA functions to relate a particular semaphore to a particular
 160:Generated_Source\PSoC6\pdl\drivers\peripheral\ipc/cy_ipc_drv.h **** * shared resource, and set, clear, or check the flag when accessing the
 161:Generated_Source\PSoC6\pdl\drivers\peripheral\ipc/cy_ipc_drv.h **** * shared resource.
 162:Generated_Source\PSoC6\pdl\drivers\peripheral\ipc/cy_ipc_drv.h **** *
 163:Generated_Source\PSoC6\pdl\drivers\peripheral\ipc/cy_ipc_drv.h **** * \section group_ipc_configuration_cypipe Configuration Considerations - CYPIPE
 164:Generated_Source\PSoC6\pdl\drivers\peripheral\ipc/cy_ipc_drv.h **** *
 165:Generated_Source\PSoC6\pdl\drivers\peripheral\ipc/cy_ipc_drv.h **** * There are none. The startup files set up the required CYPIPE for system
 166:Generated_Source\PSoC6\pdl\drivers\peripheral\ipc/cy_ipc_drv.h **** * use. Do not modify the CYPIPE. It uses IPC channels 5 and 6 to implement full
 167:Generated_Source\PSoC6\pdl\drivers\peripheral\ipc/cy_ipc_drv.h **** * duplex communication between cores. See System Interrupt (SysInt) for background.
 168:Generated_Source\PSoC6\pdl\drivers\peripheral\ipc/cy_ipc_drv.h **** *
 169:Generated_Source\PSoC6\pdl\drivers\peripheral\ipc/cy_ipc_drv.h **** * To create your own pipe (<b>USRPIPE</b>) you should edit startup files
 170:Generated_Source\PSoC6\pdl\drivers\peripheral\ipc/cy_ipc_drv.h **** * and take 4 steps:
 171:Generated_Source\PSoC6\pdl\drivers\peripheral\ipc/cy_ipc_drv.h **** *   -# Define a pipe callbacks processing interrupt handler
 172:Generated_Source\PSoC6\pdl\drivers\peripheral\ipc/cy_ipc_drv.h **** *      (similar to <b>Cy_SysIpcPipeIsrCm0</b> or <b>Cy_SysIpcPipeIsrCm4</b>)
 173:Generated_Source\PSoC6\pdl\drivers\peripheral\ipc/cy_ipc_drv.h **** *   -# Define a callbacks array (similar to <b>systemIpcPipeSysCbArray</b>)
 174:Generated_Source\PSoC6\pdl\drivers\peripheral\ipc/cy_ipc_drv.h **** *   -# Define your pipe configuration with a cy_stc_ipc_pipe_config_t type structure
 175:Generated_Source\PSoC6\pdl\drivers\peripheral\ipc/cy_ipc_drv.h **** *      (similar to <b>systemIpcPipeConfigCm0</b> and <b>systemIpcPipeConfigCm4</b>)
 176:Generated_Source\PSoC6\pdl\drivers\peripheral\ipc/cy_ipc_drv.h **** *   -# Call Cy_IPC_Pipe_Init() from each core to initialize your pipe (similar
 177:Generated_Source\PSoC6\pdl\drivers\peripheral\ipc/cy_ipc_drv.h **** *      to call in the <b>SystemInit</b>)
 178:Generated_Source\PSoC6\pdl\drivers\peripheral\ipc/cy_ipc_drv.h **** *
 179:Generated_Source\PSoC6\pdl\drivers\peripheral\ipc/cy_ipc_drv.h **** * \section group_ipc_configuration_sema Configuration Considerations - SEMA
 180:Generated_Source\PSoC6\pdl\drivers\peripheral\ipc/cy_ipc_drv.h **** *
 181:Generated_Source\PSoC6\pdl\drivers\peripheral\ipc/cy_ipc_drv.h **** * Startup code calls Cy_IPC_Sema_Init() with default values to set up semaphore 
 182:Generated_Source\PSoC6\pdl\drivers\peripheral\ipc/cy_ipc_drv.h **** * functionality. By default the semaphore system uses IPC channel 4, and 
 183:Generated_Source\PSoC6\pdl\drivers\peripheral\ipc/cy_ipc_drv.h **** * creates 128 semaphores. Do <b>not</b> change the IPC channel. 
 184:Generated_Source\PSoC6\pdl\drivers\peripheral\ipc/cy_ipc_drv.h **** * You can change the number of semaphores.
 185:Generated_Source\PSoC6\pdl\drivers\peripheral\ipc/cy_ipc_drv.h **** *
 186:Generated_Source\PSoC6\pdl\drivers\peripheral\ipc/cy_ipc_drv.h **** * To change the number of semaphores, modify this line of code in system_psoc6.h.
 187:Generated_Source\PSoC6\pdl\drivers\peripheral\ipc/cy_ipc_drv.h **** *
 188:Generated_Source\PSoC6\pdl\drivers\peripheral\ipc/cy_ipc_drv.h **** * \code
ARM GAS  C:\Users\tmj32\AppData\Local\Temp\cccOycf1.s 			page 5


 189:Generated_Source\PSoC6\pdl\drivers\peripheral\ipc/cy_ipc_drv.h **** * #define CY_IPC_SEMA_COUNT               (uint32_t)(128u)
 190:Generated_Source\PSoC6\pdl\drivers\peripheral\ipc/cy_ipc_drv.h **** * \endcode
 191:Generated_Source\PSoC6\pdl\drivers\peripheral\ipc/cy_ipc_drv.h **** *
 192:Generated_Source\PSoC6\pdl\drivers\peripheral\ipc/cy_ipc_drv.h **** * Startup also declares array ipcSemaArray to hold the semaphore
 193:Generated_Source\PSoC6\pdl\drivers\peripheral\ipc/cy_ipc_drv.h **** * flags based on the size defined for this symbol. Use increments of 32. You
 194:Generated_Source\PSoC6\pdl\drivers\peripheral\ipc/cy_ipc_drv.h **** * must have at least 32 semaphores. Semaphores 0-15 are reserved for
 195:Generated_Source\PSoC6\pdl\drivers\peripheral\ipc/cy_ipc_drv.h **** * system use. Your application can use semaphores greater than 15.
 196:Generated_Source\PSoC6\pdl\drivers\peripheral\ipc/cy_ipc_drv.h **** *
 197:Generated_Source\PSoC6\pdl\drivers\peripheral\ipc/cy_ipc_drv.h **** * \section group_ipc_more_information More Information
 198:Generated_Source\PSoC6\pdl\drivers\peripheral\ipc/cy_ipc_drv.h **** *
 199:Generated_Source\PSoC6\pdl\drivers\peripheral\ipc/cy_ipc_drv.h **** * If the default startup file is not used, or SystemInit() is not called in your 
 200:Generated_Source\PSoC6\pdl\drivers\peripheral\ipc/cy_ipc_drv.h **** * project, call the following three functions prior to executing any flash or 
 201:Generated_Source\PSoC6\pdl\drivers\peripheral\ipc/cy_ipc_drv.h **** * EmEEPROM write or erase operation:
 202:Generated_Source\PSoC6\pdl\drivers\peripheral\ipc/cy_ipc_drv.h **** *  -# Cy_IPC_Sema_Init()
 203:Generated_Source\PSoC6\pdl\drivers\peripheral\ipc/cy_ipc_drv.h **** *  -# Cy_IPC_Pipe_Config()
 204:Generated_Source\PSoC6\pdl\drivers\peripheral\ipc/cy_ipc_drv.h **** *  -# Cy_IPC_Pipe_Init()
 205:Generated_Source\PSoC6\pdl\drivers\peripheral\ipc/cy_ipc_drv.h **** *  -# Cy_Flash_Init()
 206:Generated_Source\PSoC6\pdl\drivers\peripheral\ipc/cy_ipc_drv.h **** *
 207:Generated_Source\PSoC6\pdl\drivers\peripheral\ipc/cy_ipc_drv.h **** * See the technical reference manual(TRM) for more information on the IPC.
 208:Generated_Source\PSoC6\pdl\drivers\peripheral\ipc/cy_ipc_drv.h **** *
 209:Generated_Source\PSoC6\pdl\drivers\peripheral\ipc/cy_ipc_drv.h **** * \section group_ipc_MISRA MISRA-C Compliance
 210:Generated_Source\PSoC6\pdl\drivers\peripheral\ipc/cy_ipc_drv.h **** *
 211:Generated_Source\PSoC6\pdl\drivers\peripheral\ipc/cy_ipc_drv.h **** * <table class="doxtable">
 212:Generated_Source\PSoC6\pdl\drivers\peripheral\ipc/cy_ipc_drv.h **** *   <tr>
 213:Generated_Source\PSoC6\pdl\drivers\peripheral\ipc/cy_ipc_drv.h **** *     <th>MISRA Rule</th>
 214:Generated_Source\PSoC6\pdl\drivers\peripheral\ipc/cy_ipc_drv.h **** *     <th>Rule Class (Required/Advisory)</th>
 215:Generated_Source\PSoC6\pdl\drivers\peripheral\ipc/cy_ipc_drv.h **** *     <th>Rule Description</th>
 216:Generated_Source\PSoC6\pdl\drivers\peripheral\ipc/cy_ipc_drv.h **** *     <th style="width: 50%;">Description of Deviation(s)</th>
 217:Generated_Source\PSoC6\pdl\drivers\peripheral\ipc/cy_ipc_drv.h **** *   </tr>
 218:Generated_Source\PSoC6\pdl\drivers\peripheral\ipc/cy_ipc_drv.h **** *   <tr>
 219:Generated_Source\PSoC6\pdl\drivers\peripheral\ipc/cy_ipc_drv.h **** *     <td>10.3</td>
 220:Generated_Source\PSoC6\pdl\drivers\peripheral\ipc/cy_ipc_drv.h **** *     <td>R</td>
 221:Generated_Source\PSoC6\pdl\drivers\peripheral\ipc/cy_ipc_drv.h **** *     <td>The value of a complex expression of integer type shall be cast
 222:Generated_Source\PSoC6\pdl\drivers\peripheral\ipc/cy_ipc_drv.h **** *         only to a type of the same signedness that is no wider than the underlying
 223:Generated_Source\PSoC6\pdl\drivers\peripheral\ipc/cy_ipc_drv.h **** *         type of the expression.</td>
 224:Generated_Source\PSoC6\pdl\drivers\peripheral\ipc/cy_ipc_drv.h **** *     <td>The cast from integer to enumeration value is used to calculate
 225:Generated_Source\PSoC6\pdl\drivers\peripheral\ipc/cy_ipc_drv.h **** *         the interrupt vector source from the integer number of the IPC interrupt
 226:Generated_Source\PSoC6\pdl\drivers\peripheral\ipc/cy_ipc_drv.h **** *         structure, so there is no way to avoid this cast.</td>
 227:Generated_Source\PSoC6\pdl\drivers\peripheral\ipc/cy_ipc_drv.h **** *   </tr>
 228:Generated_Source\PSoC6\pdl\drivers\peripheral\ipc/cy_ipc_drv.h **** *   <tr>
 229:Generated_Source\PSoC6\pdl\drivers\peripheral\ipc/cy_ipc_drv.h **** *     <td>11.4</td>
 230:Generated_Source\PSoC6\pdl\drivers\peripheral\ipc/cy_ipc_drv.h **** *     <td>A</td>
 231:Generated_Source\PSoC6\pdl\drivers\peripheral\ipc/cy_ipc_drv.h **** *     <td>A cast should not be performed between a pointer to the void to a
 232:Generated_Source\PSoC6\pdl\drivers\peripheral\ipc/cy_ipc_drv.h **** *         pointer to the object type.</td>
 233:Generated_Source\PSoC6\pdl\drivers\peripheral\ipc/cy_ipc_drv.h **** *     <td>The cast from the void to pointer and vice versa is used to transmit
 234:Generated_Source\PSoC6\pdl\drivers\peripheral\ipc/cy_ipc_drv.h **** *         data via the \ref group_ipc channel by exchanging the pointer. We
 235:Generated_Source\PSoC6\pdl\drivers\peripheral\ipc/cy_ipc_drv.h **** *         exchange only one pointer, so there is no way to avoid this cast.</td>
 236:Generated_Source\PSoC6\pdl\drivers\peripheral\ipc/cy_ipc_drv.h **** *   </tr>
 237:Generated_Source\PSoC6\pdl\drivers\peripheral\ipc/cy_ipc_drv.h **** * </table>
 238:Generated_Source\PSoC6\pdl\drivers\peripheral\ipc/cy_ipc_drv.h **** *
 239:Generated_Source\PSoC6\pdl\drivers\peripheral\ipc/cy_ipc_drv.h **** * \section group_ipc_changelog Changelog
 240:Generated_Source\PSoC6\pdl\drivers\peripheral\ipc/cy_ipc_drv.h **** *
 241:Generated_Source\PSoC6\pdl\drivers\peripheral\ipc/cy_ipc_drv.h **** * <table class="doxtable">
 242:Generated_Source\PSoC6\pdl\drivers\peripheral\ipc/cy_ipc_drv.h **** *   <tr><th>Version</th><th>Changes</th><th>Reason for Change</th></tr>
 243:Generated_Source\PSoC6\pdl\drivers\peripheral\ipc/cy_ipc_drv.h **** *   <tr>
 244:Generated_Source\PSoC6\pdl\drivers\peripheral\ipc/cy_ipc_drv.h **** *     <td rowspan="3">1.30</td>
 245:Generated_Source\PSoC6\pdl\drivers\peripheral\ipc/cy_ipc_drv.h **** *     <td>Flattened the organization of the driver source code into the single source directory and
ARM GAS  C:\Users\tmj32\AppData\Local\Temp\cccOycf1.s 			page 6


 246:Generated_Source\PSoC6\pdl\drivers\peripheral\ipc/cy_ipc_drv.h **** *     <td>Driver library directory-structure simplification.</td>
 247:Generated_Source\PSoC6\pdl\drivers\peripheral\ipc/cy_ipc_drv.h **** *   </tr>
 248:Generated_Source\PSoC6\pdl\drivers\peripheral\ipc/cy_ipc_drv.h **** *   <tr>
 249:Generated_Source\PSoC6\pdl\drivers\peripheral\ipc/cy_ipc_drv.h **** *     <td>Moved the Cy_IPC_SystemSemaInit(), Cy_IPC_SystemPipeInit() functions implementation from 
 250:Generated_Source\PSoC6\pdl\drivers\peripheral\ipc/cy_ipc_drv.h **** *     <td>Changed IPC driver configuration method from compile time to run time.</td>
 251:Generated_Source\PSoC6\pdl\drivers\peripheral\ipc/cy_ipc_drv.h **** *   </tr>
 252:Generated_Source\PSoC6\pdl\drivers\peripheral\ipc/cy_ipc_drv.h **** *   <tr>
 253:Generated_Source\PSoC6\pdl\drivers\peripheral\ipc/cy_ipc_drv.h **** *     <td>Added register access layer. Use register access macros instead
 254:Generated_Source\PSoC6\pdl\drivers\peripheral\ipc/cy_ipc_drv.h **** *         of direct register access using dereferenced pointers.</td>
 255:Generated_Source\PSoC6\pdl\drivers\peripheral\ipc/cy_ipc_drv.h **** *     <td>Makes register access device-independent, so that the PDL does 
 256:Generated_Source\PSoC6\pdl\drivers\peripheral\ipc/cy_ipc_drv.h **** *         not need to be recompiled for each supported part number.</td>
 257:Generated_Source\PSoC6\pdl\drivers\peripheral\ipc/cy_ipc_drv.h **** *   </tr>
 258:Generated_Source\PSoC6\pdl\drivers\peripheral\ipc/cy_ipc_drv.h **** *   <tr>
 259:Generated_Source\PSoC6\pdl\drivers\peripheral\ipc/cy_ipc_drv.h **** *     <td>1.20</td>
 260:Generated_Source\PSoC6\pdl\drivers\peripheral\ipc/cy_ipc_drv.h **** *     <td>Added \ref Cy_IPC_Pipe_ExecuteCallback function.
 261:Generated_Source\PSoC6\pdl\drivers\peripheral\ipc/cy_ipc_drv.h **** *         Updated documentation about user pipe initialization.
 262:Generated_Source\PSoC6\pdl\drivers\peripheral\ipc/cy_ipc_drv.h **** *     </td>
 263:Generated_Source\PSoC6\pdl\drivers\peripheral\ipc/cy_ipc_drv.h **** *     <td>Interface improvement, documentation update</td>
 264:Generated_Source\PSoC6\pdl\drivers\peripheral\ipc/cy_ipc_drv.h **** *   </tr>
 265:Generated_Source\PSoC6\pdl\drivers\peripheral\ipc/cy_ipc_drv.h **** *   <tr>
 266:Generated_Source\PSoC6\pdl\drivers\peripheral\ipc/cy_ipc_drv.h **** *     <td>1.10.1</td>
 267:Generated_Source\PSoC6\pdl\drivers\peripheral\ipc/cy_ipc_drv.h **** *     <td>Updated description of the \ref Cy_IPC_Pipe_Init,
 268:Generated_Source\PSoC6\pdl\drivers\peripheral\ipc/cy_ipc_drv.h **** *         \ref Cy_IPC_Pipe_EndpointInit, \ref Cy_IPC_Sema_Set functions.
 269:Generated_Source\PSoC6\pdl\drivers\peripheral\ipc/cy_ipc_drv.h **** *         Added / updated code snippets.
 270:Generated_Source\PSoC6\pdl\drivers\peripheral\ipc/cy_ipc_drv.h **** *     </td>
 271:Generated_Source\PSoC6\pdl\drivers\peripheral\ipc/cy_ipc_drv.h **** *     <td>Documentation update and clarification</td>
 272:Generated_Source\PSoC6\pdl\drivers\peripheral\ipc/cy_ipc_drv.h **** *   </tr>
 273:Generated_Source\PSoC6\pdl\drivers\peripheral\ipc/cy_ipc_drv.h **** *   <tr>
 274:Generated_Source\PSoC6\pdl\drivers\peripheral\ipc/cy_ipc_drv.h **** *     <td>1.10</td>
 275:Generated_Source\PSoC6\pdl\drivers\peripheral\ipc/cy_ipc_drv.h **** *     <td>Added support for more IPC structures</td>
 276:Generated_Source\PSoC6\pdl\drivers\peripheral\ipc/cy_ipc_drv.h **** *     <td>New device support</td>
 277:Generated_Source\PSoC6\pdl\drivers\peripheral\ipc/cy_ipc_drv.h **** *   </tr>
 278:Generated_Source\PSoC6\pdl\drivers\peripheral\ipc/cy_ipc_drv.h **** *   <tr>
 279:Generated_Source\PSoC6\pdl\drivers\peripheral\ipc/cy_ipc_drv.h **** *     <td>1.0</td>
 280:Generated_Source\PSoC6\pdl\drivers\peripheral\ipc/cy_ipc_drv.h **** *     <td>Initial version</td>
 281:Generated_Source\PSoC6\pdl\drivers\peripheral\ipc/cy_ipc_drv.h **** *     <td></td>
 282:Generated_Source\PSoC6\pdl\drivers\peripheral\ipc/cy_ipc_drv.h **** *   </tr>
 283:Generated_Source\PSoC6\pdl\drivers\peripheral\ipc/cy_ipc_drv.h **** * </table>
 284:Generated_Source\PSoC6\pdl\drivers\peripheral\ipc/cy_ipc_drv.h **** *
 285:Generated_Source\PSoC6\pdl\drivers\peripheral\ipc/cy_ipc_drv.h **** * \defgroup group_ipc_drv IPC driver layer (IPC_DRV)
 286:Generated_Source\PSoC6\pdl\drivers\peripheral\ipc/cy_ipc_drv.h **** * \{
 287:Generated_Source\PSoC6\pdl\drivers\peripheral\ipc/cy_ipc_drv.h **** *   The functions of this layer are used in the higher IPC levels
 288:Generated_Source\PSoC6\pdl\drivers\peripheral\ipc/cy_ipc_drv.h **** *   (Semaphores and Pipes).
 289:Generated_Source\PSoC6\pdl\drivers\peripheral\ipc/cy_ipc_drv.h **** *   Users are not expected to call any of these IPC functions directly (cy_ipc_drv.h). 
 290:Generated_Source\PSoC6\pdl\drivers\peripheral\ipc/cy_ipc_drv.h **** *   Instead include either of cy_ipc_sema.h or cy_ipc_pipe.h. 
 291:Generated_Source\PSoC6\pdl\drivers\peripheral\ipc/cy_ipc_drv.h **** *   Alternatively include cy_pdl.h to get access to all functions and declarations in the PDL.
 292:Generated_Source\PSoC6\pdl\drivers\peripheral\ipc/cy_ipc_drv.h **** *
 293:Generated_Source\PSoC6\pdl\drivers\peripheral\ipc/cy_ipc_drv.h **** *   \defgroup group_ipc_macros Macros
 294:Generated_Source\PSoC6\pdl\drivers\peripheral\ipc/cy_ipc_drv.h **** *       Macro definitions are used in the driver
 295:Generated_Source\PSoC6\pdl\drivers\peripheral\ipc/cy_ipc_drv.h **** *
 296:Generated_Source\PSoC6\pdl\drivers\peripheral\ipc/cy_ipc_drv.h **** *   \defgroup group_ipc_functions Functions
 297:Generated_Source\PSoC6\pdl\drivers\peripheral\ipc/cy_ipc_drv.h **** *       Functions are used in the driver
 298:Generated_Source\PSoC6\pdl\drivers\peripheral\ipc/cy_ipc_drv.h **** *
 299:Generated_Source\PSoC6\pdl\drivers\peripheral\ipc/cy_ipc_drv.h **** *   \defgroup group_ipc_data_structures Data Structures
 300:Generated_Source\PSoC6\pdl\drivers\peripheral\ipc/cy_ipc_drv.h **** *       Data structures are used in the driver
 301:Generated_Source\PSoC6\pdl\drivers\peripheral\ipc/cy_ipc_drv.h **** *
 302:Generated_Source\PSoC6\pdl\drivers\peripheral\ipc/cy_ipc_drv.h **** *   \defgroup group_ipc_enums Enumerated Types
ARM GAS  C:\Users\tmj32\AppData\Local\Temp\cccOycf1.s 			page 7


 303:Generated_Source\PSoC6\pdl\drivers\peripheral\ipc/cy_ipc_drv.h **** *       Enumerations are used in the driver
 304:Generated_Source\PSoC6\pdl\drivers\peripheral\ipc/cy_ipc_drv.h **** * \}
 305:Generated_Source\PSoC6\pdl\drivers\peripheral\ipc/cy_ipc_drv.h **** *
 306:Generated_Source\PSoC6\pdl\drivers\peripheral\ipc/cy_ipc_drv.h **** * \defgroup group_ipc_sema IPC semaphores layer (IPC_SEMA)
 307:Generated_Source\PSoC6\pdl\drivers\peripheral\ipc/cy_ipc_drv.h **** * \defgroup group_ipc_pipe IPC pipes layer (IPC_PIPE)
 308:Generated_Source\PSoC6\pdl\drivers\peripheral\ipc/cy_ipc_drv.h **** *
 309:Generated_Source\PSoC6\pdl\drivers\peripheral\ipc/cy_ipc_drv.h **** */
 310:Generated_Source\PSoC6\pdl\drivers\peripheral\ipc/cy_ipc_drv.h **** 
 311:Generated_Source\PSoC6\pdl\drivers\peripheral\ipc/cy_ipc_drv.h **** 
 312:Generated_Source\PSoC6\pdl\drivers\peripheral\ipc/cy_ipc_drv.h **** /******************************************************************************/
 313:Generated_Source\PSoC6\pdl\drivers\peripheral\ipc/cy_ipc_drv.h **** /* Include files                                                              */
 314:Generated_Source\PSoC6\pdl\drivers\peripheral\ipc/cy_ipc_drv.h **** /******************************************************************************/
 315:Generated_Source\PSoC6\pdl\drivers\peripheral\ipc/cy_ipc_drv.h **** 
 316:Generated_Source\PSoC6\pdl\drivers\peripheral\ipc/cy_ipc_drv.h **** #include "cy_device.h"
 317:Generated_Source\PSoC6\pdl\drivers\peripheral\ipc/cy_ipc_drv.h **** #include "cy_device_headers.h"
 318:Generated_Source\PSoC6\pdl\drivers\peripheral\ipc/cy_ipc_drv.h **** #include "cy_syslib.h"
 319:Generated_Source\PSoC6\pdl\drivers\peripheral\ipc/cy_ipc_drv.h **** #include <stddef.h>
 320:Generated_Source\PSoC6\pdl\drivers\peripheral\ipc/cy_ipc_drv.h **** 
 321:Generated_Source\PSoC6\pdl\drivers\peripheral\ipc/cy_ipc_drv.h **** 
 322:Generated_Source\PSoC6\pdl\drivers\peripheral\ipc/cy_ipc_drv.h **** /**
 323:Generated_Source\PSoC6\pdl\drivers\peripheral\ipc/cy_ipc_drv.h **** * \addtogroup group_ipc_macros
 324:Generated_Source\PSoC6\pdl\drivers\peripheral\ipc/cy_ipc_drv.h **** * \{
 325:Generated_Source\PSoC6\pdl\drivers\peripheral\ipc/cy_ipc_drv.h **** */
 326:Generated_Source\PSoC6\pdl\drivers\peripheral\ipc/cy_ipc_drv.h **** 
 327:Generated_Source\PSoC6\pdl\drivers\peripheral\ipc/cy_ipc_drv.h **** /** Driver major version */
 328:Generated_Source\PSoC6\pdl\drivers\peripheral\ipc/cy_ipc_drv.h **** #define CY_IPC_DRV_VERSION_MAJOR       1
 329:Generated_Source\PSoC6\pdl\drivers\peripheral\ipc/cy_ipc_drv.h **** 
 330:Generated_Source\PSoC6\pdl\drivers\peripheral\ipc/cy_ipc_drv.h **** /** Driver minor version */
 331:Generated_Source\PSoC6\pdl\drivers\peripheral\ipc/cy_ipc_drv.h **** #define CY_IPC_DRV_VERSION_MINOR       30
 332:Generated_Source\PSoC6\pdl\drivers\peripheral\ipc/cy_ipc_drv.h **** 
 333:Generated_Source\PSoC6\pdl\drivers\peripheral\ipc/cy_ipc_drv.h **** /** Defines a value to indicate that no notification events are needed */
 334:Generated_Source\PSoC6\pdl\drivers\peripheral\ipc/cy_ipc_drv.h **** #define CY_IPC_NO_NOTIFICATION         (uint32_t)(0x00000000ul)
 335:Generated_Source\PSoC6\pdl\drivers\peripheral\ipc/cy_ipc_drv.h **** 
 336:Generated_Source\PSoC6\pdl\drivers\peripheral\ipc/cy_ipc_drv.h **** /* Error Code constants */
 337:Generated_Source\PSoC6\pdl\drivers\peripheral\ipc/cy_ipc_drv.h **** #define CY_IPC_ID CY_PDL_DRV_ID(0x22u)  /**< Software PDL driver ID for IPC */
 338:Generated_Source\PSoC6\pdl\drivers\peripheral\ipc/cy_ipc_drv.h **** 
 339:Generated_Source\PSoC6\pdl\drivers\peripheral\ipc/cy_ipc_drv.h **** /** Return prefix for IPC driver function status codes */
 340:Generated_Source\PSoC6\pdl\drivers\peripheral\ipc/cy_ipc_drv.h **** #define CY_IPC_ID_INFO    (uint32_t)( CY_IPC_ID | CY_PDL_STATUS_INFO )
 341:Generated_Source\PSoC6\pdl\drivers\peripheral\ipc/cy_ipc_drv.h **** /** Return prefix for IPC driver function warning return values */
 342:Generated_Source\PSoC6\pdl\drivers\peripheral\ipc/cy_ipc_drv.h **** #define CY_IPC_ID_WARNING (uint32_t)( CY_IPC_ID | CY_PDL_STATUS_WARNING)
 343:Generated_Source\PSoC6\pdl\drivers\peripheral\ipc/cy_ipc_drv.h **** /** Return prefix for IPC driver function error return values */
 344:Generated_Source\PSoC6\pdl\drivers\peripheral\ipc/cy_ipc_drv.h **** #define CY_IPC_ID_ERROR   (uint32_t)( CY_IPC_ID | CY_PDL_STATUS_ERROR)
 345:Generated_Source\PSoC6\pdl\drivers\peripheral\ipc/cy_ipc_drv.h **** 
 346:Generated_Source\PSoC6\pdl\drivers\peripheral\ipc/cy_ipc_drv.h **** /** Converts the IPC interrupt channel number to interrupt vector */
 347:Generated_Source\PSoC6\pdl\drivers\peripheral\ipc/cy_ipc_drv.h **** #define CY_IPC_INTR_NUM_TO_VECT(x)         ((int32_t) cy_device->cpussIpc0Irq + (x))
 348:Generated_Source\PSoC6\pdl\drivers\peripheral\ipc/cy_ipc_drv.h **** 
 349:Generated_Source\PSoC6\pdl\drivers\peripheral\ipc/cy_ipc_drv.h **** /** \} group_ipc_macros */
 350:Generated_Source\PSoC6\pdl\drivers\peripheral\ipc/cy_ipc_drv.h **** 
 351:Generated_Source\PSoC6\pdl\drivers\peripheral\ipc/cy_ipc_drv.h **** /* end of definition in device.h */
 352:Generated_Source\PSoC6\pdl\drivers\peripheral\ipc/cy_ipc_drv.h **** 
 353:Generated_Source\PSoC6\pdl\drivers\peripheral\ipc/cy_ipc_drv.h **** /** \cond INTERNAL */
 354:Generated_Source\PSoC6\pdl\drivers\peripheral\ipc/cy_ipc_drv.h **** #if (CY_CPU_CORTEX_M0P)
 355:Generated_Source\PSoC6\pdl\drivers\peripheral\ipc/cy_ipc_drv.h ****     #define CY_IPC_CHAN_SYSCALL         CY_IPC_CHAN_SYSCALL_CM0
 356:Generated_Source\PSoC6\pdl\drivers\peripheral\ipc/cy_ipc_drv.h **** #else
 357:Generated_Source\PSoC6\pdl\drivers\peripheral\ipc/cy_ipc_drv.h ****     #define CY_IPC_CHAN_SYSCALL         CY_IPC_CHAN_SYSCALL_CM4
 358:Generated_Source\PSoC6\pdl\drivers\peripheral\ipc/cy_ipc_drv.h **** #endif  /* (CY_CPU_CORTEX_M0P) */
 359:Generated_Source\PSoC6\pdl\drivers\peripheral\ipc/cy_ipc_drv.h **** /** \endcond */
ARM GAS  C:\Users\tmj32\AppData\Local\Temp\cccOycf1.s 			page 8


 360:Generated_Source\PSoC6\pdl\drivers\peripheral\ipc/cy_ipc_drv.h **** 
 361:Generated_Source\PSoC6\pdl\drivers\peripheral\ipc/cy_ipc_drv.h **** /**
 362:Generated_Source\PSoC6\pdl\drivers\peripheral\ipc/cy_ipc_drv.h **** * \addtogroup group_ipc_enums
 363:Generated_Source\PSoC6\pdl\drivers\peripheral\ipc/cy_ipc_drv.h **** * \{
 364:Generated_Source\PSoC6\pdl\drivers\peripheral\ipc/cy_ipc_drv.h **** */
 365:Generated_Source\PSoC6\pdl\drivers\peripheral\ipc/cy_ipc_drv.h **** 
 366:Generated_Source\PSoC6\pdl\drivers\peripheral\ipc/cy_ipc_drv.h **** /**
 367:Generated_Source\PSoC6\pdl\drivers\peripheral\ipc/cy_ipc_drv.h **** * This is a list of ENUMs used for function return status.
 368:Generated_Source\PSoC6\pdl\drivers\peripheral\ipc/cy_ipc_drv.h **** */
 369:Generated_Source\PSoC6\pdl\drivers\peripheral\ipc/cy_ipc_drv.h **** typedef enum
 370:Generated_Source\PSoC6\pdl\drivers\peripheral\ipc/cy_ipc_drv.h **** {
 371:Generated_Source\PSoC6\pdl\drivers\peripheral\ipc/cy_ipc_drv.h ****     /** Function was successfully executed */
 372:Generated_Source\PSoC6\pdl\drivers\peripheral\ipc/cy_ipc_drv.h ****     CY_IPC_DRV_SUCCESS      = (0x00u),
 373:Generated_Source\PSoC6\pdl\drivers\peripheral\ipc/cy_ipc_drv.h ****     /** Function was not executed due to an error.
 374:Generated_Source\PSoC6\pdl\drivers\peripheral\ipc/cy_ipc_drv.h ****         Typical conditions for the error explained
 375:Generated_Source\PSoC6\pdl\drivers\peripheral\ipc/cy_ipc_drv.h ****         in the function description */
 376:Generated_Source\PSoC6\pdl\drivers\peripheral\ipc/cy_ipc_drv.h ****     CY_IPC_DRV_ERROR        = ( CY_IPC_ID_ERROR + 1ul),
 377:Generated_Source\PSoC6\pdl\drivers\peripheral\ipc/cy_ipc_drv.h **** } cy_en_ipcdrv_status_t;
 378:Generated_Source\PSoC6\pdl\drivers\peripheral\ipc/cy_ipc_drv.h **** 
 379:Generated_Source\PSoC6\pdl\drivers\peripheral\ipc/cy_ipc_drv.h **** /** \} group_ipc_enums */
 380:Generated_Source\PSoC6\pdl\drivers\peripheral\ipc/cy_ipc_drv.h **** 
 381:Generated_Source\PSoC6\pdl\drivers\peripheral\ipc/cy_ipc_drv.h **** 
 382:Generated_Source\PSoC6\pdl\drivers\peripheral\ipc/cy_ipc_drv.h **** #ifdef __cplusplus
 383:Generated_Source\PSoC6\pdl\drivers\peripheral\ipc/cy_ipc_drv.h **** extern "C" {
 384:Generated_Source\PSoC6\pdl\drivers\peripheral\ipc/cy_ipc_drv.h **** #endif
 385:Generated_Source\PSoC6\pdl\drivers\peripheral\ipc/cy_ipc_drv.h **** 
 386:Generated_Source\PSoC6\pdl\drivers\peripheral\ipc/cy_ipc_drv.h **** /** \cond INTERNAL */
 387:Generated_Source\PSoC6\pdl\drivers\peripheral\ipc/cy_ipc_drv.h **** 
 388:Generated_Source\PSoC6\pdl\drivers\peripheral\ipc/cy_ipc_drv.h **** __STATIC_INLINE void     Cy_IPC_Drv_WriteDataValue (IPC_STRUCT_Type* base, uint32_t dataValue);
 389:Generated_Source\PSoC6\pdl\drivers\peripheral\ipc/cy_ipc_drv.h **** __STATIC_INLINE uint32_t Cy_IPC_Drv_ReadDataValue (IPC_STRUCT_Type const * base);
 390:Generated_Source\PSoC6\pdl\drivers\peripheral\ipc/cy_ipc_drv.h **** 
 391:Generated_Source\PSoC6\pdl\drivers\peripheral\ipc/cy_ipc_drv.h **** __STATIC_INLINE uint32_t Cy_IPC_Drv_ExtractAcquireMask (uint32_t intMask);
 392:Generated_Source\PSoC6\pdl\drivers\peripheral\ipc/cy_ipc_drv.h **** __STATIC_INLINE uint32_t Cy_IPC_Drv_ExtractReleaseMask (uint32_t intMask);
 393:Generated_Source\PSoC6\pdl\drivers\peripheral\ipc/cy_ipc_drv.h **** 
 394:Generated_Source\PSoC6\pdl\drivers\peripheral\ipc/cy_ipc_drv.h **** /** \endcond */
 395:Generated_Source\PSoC6\pdl\drivers\peripheral\ipc/cy_ipc_drv.h **** 
 396:Generated_Source\PSoC6\pdl\drivers\peripheral\ipc/cy_ipc_drv.h **** /**
 397:Generated_Source\PSoC6\pdl\drivers\peripheral\ipc/cy_ipc_drv.h **** * \addtogroup group_ipc_functions
 398:Generated_Source\PSoC6\pdl\drivers\peripheral\ipc/cy_ipc_drv.h **** * \{
 399:Generated_Source\PSoC6\pdl\drivers\peripheral\ipc/cy_ipc_drv.h **** */
 400:Generated_Source\PSoC6\pdl\drivers\peripheral\ipc/cy_ipc_drv.h **** 
 401:Generated_Source\PSoC6\pdl\drivers\peripheral\ipc/cy_ipc_drv.h **** __STATIC_INLINE IPC_STRUCT_Type*       Cy_IPC_Drv_GetIpcBaseAddress (uint32_t ipcIndex);
 402:Generated_Source\PSoC6\pdl\drivers\peripheral\ipc/cy_ipc_drv.h **** __STATIC_INLINE IPC_INTR_STRUCT_Type*  Cy_IPC_Drv_GetIntrBaseAddr (uint32_t ipcIntrIndex);
 403:Generated_Source\PSoC6\pdl\drivers\peripheral\ipc/cy_ipc_drv.h **** 
 404:Generated_Source\PSoC6\pdl\drivers\peripheral\ipc/cy_ipc_drv.h **** __STATIC_INLINE void     Cy_IPC_Drv_AcquireNotify (IPC_STRUCT_Type * base, uint32_t notifyEventIntr
 405:Generated_Source\PSoC6\pdl\drivers\peripheral\ipc/cy_ipc_drv.h **** __STATIC_INLINE void     Cy_IPC_Drv_ReleaseNotify (IPC_STRUCT_Type * base, uint32_t notifyEventIntr
 406:Generated_Source\PSoC6\pdl\drivers\peripheral\ipc/cy_ipc_drv.h **** 
 407:Generated_Source\PSoC6\pdl\drivers\peripheral\ipc/cy_ipc_drv.h **** __STATIC_INLINE  cy_en_ipcdrv_status_t Cy_IPC_Drv_LockAcquire (IPC_STRUCT_Type const * base);
 408:Generated_Source\PSoC6\pdl\drivers\peripheral\ipc/cy_ipc_drv.h **** cy_en_ipcdrv_status_t    Cy_IPC_Drv_LockRelease (IPC_STRUCT_Type * base, uint32_t releaseEventIntr)
 409:Generated_Source\PSoC6\pdl\drivers\peripheral\ipc/cy_ipc_drv.h **** __STATIC_INLINE bool     Cy_IPC_Drv_IsLockAcquired (IPC_STRUCT_Type const * base);
 410:Generated_Source\PSoC6\pdl\drivers\peripheral\ipc/cy_ipc_drv.h **** __STATIC_INLINE uint32_t Cy_IPC_Drv_GetLockStatus (IPC_STRUCT_Type const * base);
 411:Generated_Source\PSoC6\pdl\drivers\peripheral\ipc/cy_ipc_drv.h **** 
 412:Generated_Source\PSoC6\pdl\drivers\peripheral\ipc/cy_ipc_drv.h **** cy_en_ipcdrv_status_t    Cy_IPC_Drv_SendMsgWord (IPC_STRUCT_Type * base, uint32_t notifyEventIntr, 
 413:Generated_Source\PSoC6\pdl\drivers\peripheral\ipc/cy_ipc_drv.h **** cy_en_ipcdrv_status_t    Cy_IPC_Drv_ReadMsgWord (IPC_STRUCT_Type const * base, uint32_t * message);
 414:Generated_Source\PSoC6\pdl\drivers\peripheral\ipc/cy_ipc_drv.h **** __STATIC_INLINE cy_en_ipcdrv_status_t Cy_IPC_Drv_SendMsgPtr (IPC_STRUCT_Type* base, uint32_t notify
 415:Generated_Source\PSoC6\pdl\drivers\peripheral\ipc/cy_ipc_drv.h **** __STATIC_INLINE cy_en_ipcdrv_status_t Cy_IPC_Drv_ReadMsgPtr (IPC_STRUCT_Type const * base, void ** 
 416:Generated_Source\PSoC6\pdl\drivers\peripheral\ipc/cy_ipc_drv.h **** 
ARM GAS  C:\Users\tmj32\AppData\Local\Temp\cccOycf1.s 			page 9


 417:Generated_Source\PSoC6\pdl\drivers\peripheral\ipc/cy_ipc_drv.h **** __STATIC_INLINE void     Cy_IPC_Drv_SetInterruptMask (IPC_INTR_STRUCT_Type * base,
 418:Generated_Source\PSoC6\pdl\drivers\peripheral\ipc/cy_ipc_drv.h ****                                                       uint32_t ipcReleaseMask, uint32_t ipcAcquireM
 419:Generated_Source\PSoC6\pdl\drivers\peripheral\ipc/cy_ipc_drv.h **** __STATIC_INLINE uint32_t Cy_IPC_Drv_GetInterruptMask (IPC_INTR_STRUCT_Type const * base);
 420:Generated_Source\PSoC6\pdl\drivers\peripheral\ipc/cy_ipc_drv.h **** __STATIC_INLINE uint32_t Cy_IPC_Drv_GetInterruptStatusMasked (IPC_INTR_STRUCT_Type const * base);
 421:Generated_Source\PSoC6\pdl\drivers\peripheral\ipc/cy_ipc_drv.h **** __STATIC_INLINE uint32_t Cy_IPC_Drv_GetInterruptStatus (IPC_INTR_STRUCT_Type const * base);
 422:Generated_Source\PSoC6\pdl\drivers\peripheral\ipc/cy_ipc_drv.h **** __STATIC_INLINE void     Cy_IPC_Drv_SetInterrupt (IPC_INTR_STRUCT_Type * base,
 423:Generated_Source\PSoC6\pdl\drivers\peripheral\ipc/cy_ipc_drv.h ****                                                       uint32_t ipcReleaseMask, uint32_t ipcAcquireM
 424:Generated_Source\PSoC6\pdl\drivers\peripheral\ipc/cy_ipc_drv.h **** __STATIC_INLINE void     Cy_IPC_Drv_ClearInterrupt (IPC_INTR_STRUCT_Type * base,
 425:Generated_Source\PSoC6\pdl\drivers\peripheral\ipc/cy_ipc_drv.h ****                                                       uint32_t ipcReleaseMask, uint32_t ipcAcquireM
 426:Generated_Source\PSoC6\pdl\drivers\peripheral\ipc/cy_ipc_drv.h **** 
 427:Generated_Source\PSoC6\pdl\drivers\peripheral\ipc/cy_ipc_drv.h **** 
 428:Generated_Source\PSoC6\pdl\drivers\peripheral\ipc/cy_ipc_drv.h **** /*******************************************************************************
 429:Generated_Source\PSoC6\pdl\drivers\peripheral\ipc/cy_ipc_drv.h **** * Function Name: Cy_IPC_Drv_GetIpcBaseAddress
 430:Generated_Source\PSoC6\pdl\drivers\peripheral\ipc/cy_ipc_drv.h **** ****************************************************************************//**
 431:Generated_Source\PSoC6\pdl\drivers\peripheral\ipc/cy_ipc_drv.h **** *
 432:Generated_Source\PSoC6\pdl\drivers\peripheral\ipc/cy_ipc_drv.h **** * This function takes an IPC channel index as a parameter and returns the base
 433:Generated_Source\PSoC6\pdl\drivers\peripheral\ipc/cy_ipc_drv.h **** * address the IPC registers corresponding to the IPC channel.
 434:Generated_Source\PSoC6\pdl\drivers\peripheral\ipc/cy_ipc_drv.h **** *
 435:Generated_Source\PSoC6\pdl\drivers\peripheral\ipc/cy_ipc_drv.h **** * \note The user is responsible for ensuring that ipcIndex does not exceed the
 436:Generated_Source\PSoC6\pdl\drivers\peripheral\ipc/cy_ipc_drv.h **** * limits.
 437:Generated_Source\PSoC6\pdl\drivers\peripheral\ipc/cy_ipc_drv.h **** *
 438:Generated_Source\PSoC6\pdl\drivers\peripheral\ipc/cy_ipc_drv.h **** * \param ipcIndex
 439:Generated_Source\PSoC6\pdl\drivers\peripheral\ipc/cy_ipc_drv.h **** * Represents the number of IPC structure. This is converted to the base address of
 440:Generated_Source\PSoC6\pdl\drivers\peripheral\ipc/cy_ipc_drv.h **** * the IPC channel registers.
 441:Generated_Source\PSoC6\pdl\drivers\peripheral\ipc/cy_ipc_drv.h **** *
 442:Generated_Source\PSoC6\pdl\drivers\peripheral\ipc/cy_ipc_drv.h **** * \return
 443:Generated_Source\PSoC6\pdl\drivers\peripheral\ipc/cy_ipc_drv.h **** * Returns a pointer to the base of the IPC registers.
 444:Generated_Source\PSoC6\pdl\drivers\peripheral\ipc/cy_ipc_drv.h **** *
 445:Generated_Source\PSoC6\pdl\drivers\peripheral\ipc/cy_ipc_drv.h **** * \funcusage
 446:Generated_Source\PSoC6\pdl\drivers\peripheral\ipc/cy_ipc_drv.h **** * \snippet IPC_sut_01.cydsn/main_cm4.c snippet_Cy_IPC_Drv_SendMsgWord
 447:Generated_Source\PSoC6\pdl\drivers\peripheral\ipc/cy_ipc_drv.h **** *
 448:Generated_Source\PSoC6\pdl\drivers\peripheral\ipc/cy_ipc_drv.h **** *******************************************************************************/
 449:Generated_Source\PSoC6\pdl\drivers\peripheral\ipc/cy_ipc_drv.h **** __STATIC_INLINE IPC_STRUCT_Type* Cy_IPC_Drv_GetIpcBaseAddress (uint32_t ipcIndex)
 450:Generated_Source\PSoC6\pdl\drivers\peripheral\ipc/cy_ipc_drv.h **** {
  33              		.loc 1 450 0
  34              		.cfi_startproc
  35              		@ args = 0, pretend = 0, frame = 8
  36              		@ frame_needed = 1, uses_anonymous_args = 0
  37 0000 80B5     		push	{r7, lr}
  38              		.cfi_def_cfa_offset 8
  39              		.cfi_offset 7, -8
  40              		.cfi_offset 14, -4
  41 0002 82B0     		sub	sp, sp, #8
  42              		.cfi_def_cfa_offset 16
  43 0004 00AF     		add	r7, sp, #0
  44              		.cfi_def_cfa_register 7
  45 0006 7860     		str	r0, [r7, #4]
 451:Generated_Source\PSoC6\pdl\drivers\peripheral\ipc/cy_ipc_drv.h ****     CY_ASSERT_L1(CY_IPC_CHANNELS > ipcIndex);
  46              		.loc 1 451 0
  47 0008 0E4B     		ldr	r3, .L4
  48 000a 1B68     		ldr	r3, [r3]
  49 000c 93F83130 		ldrb	r3, [r3, #49]	@ zero_extendqisi2
  50 0010 1A46     		mov	r2, r3
  51 0012 7B68     		ldr	r3, [r7, #4]
  52 0014 9A42     		cmp	r2, r3
  53 0016 04D8     		bhi	.L2
  54              		.loc 1 451 0 is_stmt 0 discriminator 1
ARM GAS  C:\Users\tmj32\AppData\Local\Temp\cccOycf1.s 			page 10


  55 0018 40F2C311 		movw	r1, #451
  56 001c 0A48     		ldr	r0, .L4+4
  57 001e FFF7FEFF 		bl	Cy_SysLib_AssertFailed
  58              	.L2:
 452:Generated_Source\PSoC6\pdl\drivers\peripheral\ipc/cy_ipc_drv.h ****     return ( (IPC_STRUCT_Type*) CY_IPC_STRUCT_PTR(ipcIndex));
  59              		.loc 1 452 0 is_stmt 1
  60 0022 084B     		ldr	r3, .L4
  61 0024 1B68     		ldr	r3, [r3]
  62 0026 1A6A     		ldr	r2, [r3, #32]
  63 0028 064B     		ldr	r3, .L4
  64 002a 1B68     		ldr	r3, [r3]
  65 002c B3F8B030 		ldrh	r3, [r3, #176]
  66 0030 1946     		mov	r1, r3
  67 0032 7B68     		ldr	r3, [r7, #4]
  68 0034 03FB01F3 		mul	r3, r3, r1
  69 0038 1344     		add	r3, r3, r2
 453:Generated_Source\PSoC6\pdl\drivers\peripheral\ipc/cy_ipc_drv.h **** }
  70              		.loc 1 453 0
  71 003a 1846     		mov	r0, r3
  72 003c 0837     		adds	r7, r7, #8
  73              		.cfi_def_cfa_offset 8
  74 003e BD46     		mov	sp, r7
  75              		.cfi_def_cfa_register 13
  76              		@ sp needed
  77 0040 80BD     		pop	{r7, pc}
  78              	.L5:
  79 0042 00BF     		.align	2
  80              	.L4:
  81 0044 00000000 		.word	cy_device
  82 0048 00000000 		.word	.LC0
  83              		.cfi_endproc
  84              	.LFE132:
  85              		.size	Cy_IPC_Drv_GetIpcBaseAddress, .-Cy_IPC_Drv_GetIpcBaseAddress
  86              		.section	.text.Cy_IPC_Drv_ReadDataValue,"ax",%progbits
  87              		.align	2
  88              		.thumb
  89              		.thumb_func
  90              		.type	Cy_IPC_Drv_ReadDataValue, %function
  91              	Cy_IPC_Drv_ReadDataValue:
  92              	.LFB143:
 454:Generated_Source\PSoC6\pdl\drivers\peripheral\ipc/cy_ipc_drv.h **** 
 455:Generated_Source\PSoC6\pdl\drivers\peripheral\ipc/cy_ipc_drv.h **** 
 456:Generated_Source\PSoC6\pdl\drivers\peripheral\ipc/cy_ipc_drv.h **** /*******************************************************************************
 457:Generated_Source\PSoC6\pdl\drivers\peripheral\ipc/cy_ipc_drv.h **** * Function Name: Cy_IPC_Drv_GetIntrBaseAddr
 458:Generated_Source\PSoC6\pdl\drivers\peripheral\ipc/cy_ipc_drv.h **** ****************************************************************************//**
 459:Generated_Source\PSoC6\pdl\drivers\peripheral\ipc/cy_ipc_drv.h **** *
 460:Generated_Source\PSoC6\pdl\drivers\peripheral\ipc/cy_ipc_drv.h **** * This function takes an IPC interrupt structure index and returns the base
 461:Generated_Source\PSoC6\pdl\drivers\peripheral\ipc/cy_ipc_drv.h **** * address of the IPC interrupt registers corresponding to the IPC Interrupt.
 462:Generated_Source\PSoC6\pdl\drivers\peripheral\ipc/cy_ipc_drv.h **** *
 463:Generated_Source\PSoC6\pdl\drivers\peripheral\ipc/cy_ipc_drv.h **** * \note The user is responsible for ensuring that ipcIntrIndex does not exceed the
 464:Generated_Source\PSoC6\pdl\drivers\peripheral\ipc/cy_ipc_drv.h **** * limits.
 465:Generated_Source\PSoC6\pdl\drivers\peripheral\ipc/cy_ipc_drv.h **** *
 466:Generated_Source\PSoC6\pdl\drivers\peripheral\ipc/cy_ipc_drv.h **** * \param ipcIntrIndex
 467:Generated_Source\PSoC6\pdl\drivers\peripheral\ipc/cy_ipc_drv.h **** * Represents the number of IPC interrupt structure. This is converted to the
 468:Generated_Source\PSoC6\pdl\drivers\peripheral\ipc/cy_ipc_drv.h **** * base address of the IPC interrupt registers.
 469:Generated_Source\PSoC6\pdl\drivers\peripheral\ipc/cy_ipc_drv.h **** *
 470:Generated_Source\PSoC6\pdl\drivers\peripheral\ipc/cy_ipc_drv.h **** * \return
ARM GAS  C:\Users\tmj32\AppData\Local\Temp\cccOycf1.s 			page 11


 471:Generated_Source\PSoC6\pdl\drivers\peripheral\ipc/cy_ipc_drv.h **** * Returns a pointer to the base of the IPC interrupt registers.
 472:Generated_Source\PSoC6\pdl\drivers\peripheral\ipc/cy_ipc_drv.h **** *
 473:Generated_Source\PSoC6\pdl\drivers\peripheral\ipc/cy_ipc_drv.h **** * \funcusage
 474:Generated_Source\PSoC6\pdl\drivers\peripheral\ipc/cy_ipc_drv.h **** * \snippet IPC_sut_01.cydsn/main_cm4.c snippet_Cy_IPC_Drv_GetInterruptStatus
 475:Generated_Source\PSoC6\pdl\drivers\peripheral\ipc/cy_ipc_drv.h **** *
 476:Generated_Source\PSoC6\pdl\drivers\peripheral\ipc/cy_ipc_drv.h **** *******************************************************************************/
 477:Generated_Source\PSoC6\pdl\drivers\peripheral\ipc/cy_ipc_drv.h **** __STATIC_INLINE IPC_INTR_STRUCT_Type* Cy_IPC_Drv_GetIntrBaseAddr (uint32_t ipcIntrIndex)
 478:Generated_Source\PSoC6\pdl\drivers\peripheral\ipc/cy_ipc_drv.h **** {
 479:Generated_Source\PSoC6\pdl\drivers\peripheral\ipc/cy_ipc_drv.h ****     CY_ASSERT_L1(CY_IPC_INTERRUPTS > ipcIntrIndex);
 480:Generated_Source\PSoC6\pdl\drivers\peripheral\ipc/cy_ipc_drv.h ****     return ( (IPC_INTR_STRUCT_Type*) &(((IPC_Type *)cy_device->ipcBase)->INTR_STRUCT[ipcIntrIndex])
 481:Generated_Source\PSoC6\pdl\drivers\peripheral\ipc/cy_ipc_drv.h **** }
 482:Generated_Source\PSoC6\pdl\drivers\peripheral\ipc/cy_ipc_drv.h **** 
 483:Generated_Source\PSoC6\pdl\drivers\peripheral\ipc/cy_ipc_drv.h **** 
 484:Generated_Source\PSoC6\pdl\drivers\peripheral\ipc/cy_ipc_drv.h **** /*******************************************************************************
 485:Generated_Source\PSoC6\pdl\drivers\peripheral\ipc/cy_ipc_drv.h **** * Function Name: Cy_IPC_Drv_SetInterruptMask
 486:Generated_Source\PSoC6\pdl\drivers\peripheral\ipc/cy_ipc_drv.h **** ****************************************************************************//**
 487:Generated_Source\PSoC6\pdl\drivers\peripheral\ipc/cy_ipc_drv.h **** *
 488:Generated_Source\PSoC6\pdl\drivers\peripheral\ipc/cy_ipc_drv.h **** * This function is used to set the interrupt mask for an IPC Interrupt.
 489:Generated_Source\PSoC6\pdl\drivers\peripheral\ipc/cy_ipc_drv.h **** * The mask sets release or acquire notification events for all IPC channels.
 490:Generated_Source\PSoC6\pdl\drivers\peripheral\ipc/cy_ipc_drv.h **** *
 491:Generated_Source\PSoC6\pdl\drivers\peripheral\ipc/cy_ipc_drv.h **** * \param base
 492:Generated_Source\PSoC6\pdl\drivers\peripheral\ipc/cy_ipc_drv.h **** * This is a handle to the IPC interrupt. This handle can be calculated from the
 493:Generated_Source\PSoC6\pdl\drivers\peripheral\ipc/cy_ipc_drv.h **** * IPC interrupt number using \ref Cy_IPC_Drv_GetIntrBaseAddr.
 494:Generated_Source\PSoC6\pdl\drivers\peripheral\ipc/cy_ipc_drv.h **** *
 495:Generated_Source\PSoC6\pdl\drivers\peripheral\ipc/cy_ipc_drv.h **** * \param ipcReleaseMask
 496:Generated_Source\PSoC6\pdl\drivers\peripheral\ipc/cy_ipc_drv.h **** * An encoded list of all IPC channels that can trigger the interrupt on a
 497:Generated_Source\PSoC6\pdl\drivers\peripheral\ipc/cy_ipc_drv.h **** * release event.
 498:Generated_Source\PSoC6\pdl\drivers\peripheral\ipc/cy_ipc_drv.h **** *
 499:Generated_Source\PSoC6\pdl\drivers\peripheral\ipc/cy_ipc_drv.h **** * \param ipcAcquireMask
 500:Generated_Source\PSoC6\pdl\drivers\peripheral\ipc/cy_ipc_drv.h **** * An encoded list of all IPC channels that can trigger the interrupt on a
 501:Generated_Source\PSoC6\pdl\drivers\peripheral\ipc/cy_ipc_drv.h **** * notify event.
 502:Generated_Source\PSoC6\pdl\drivers\peripheral\ipc/cy_ipc_drv.h **** *
 503:Generated_Source\PSoC6\pdl\drivers\peripheral\ipc/cy_ipc_drv.h **** * \funcusage
 504:Generated_Source\PSoC6\pdl\drivers\peripheral\ipc/cy_ipc_drv.h **** * \snippet IPC_sut_01.cydsn/main_cm4.c snippet_Cy_IPC_Drv_GetInterruptStatusMasked
 505:Generated_Source\PSoC6\pdl\drivers\peripheral\ipc/cy_ipc_drv.h **** *
 506:Generated_Source\PSoC6\pdl\drivers\peripheral\ipc/cy_ipc_drv.h **** *******************************************************************************/
 507:Generated_Source\PSoC6\pdl\drivers\peripheral\ipc/cy_ipc_drv.h **** __STATIC_INLINE void  Cy_IPC_Drv_SetInterruptMask (IPC_INTR_STRUCT_Type* base,
 508:Generated_Source\PSoC6\pdl\drivers\peripheral\ipc/cy_ipc_drv.h ****                                               uint32_t ipcReleaseMask, uint32_t ipcAcquireMask)
 509:Generated_Source\PSoC6\pdl\drivers\peripheral\ipc/cy_ipc_drv.h **** {
 510:Generated_Source\PSoC6\pdl\drivers\peripheral\ipc/cy_ipc_drv.h ****     CY_ASSERT_L1(0ul == (ipcAcquireMask & ~(uint32_t)(IPC_STRUCT_NOTIFY_INTR_NOTIFY_Msk)));
 511:Generated_Source\PSoC6\pdl\drivers\peripheral\ipc/cy_ipc_drv.h ****     CY_ASSERT_L1(0ul == (ipcReleaseMask & ~(uint32_t)(IPC_STRUCT_RELEASE_INTR_RELEASE_Msk)));
 512:Generated_Source\PSoC6\pdl\drivers\peripheral\ipc/cy_ipc_drv.h ****     REG_IPC_INTR_STRUCT_INTR_MASK(base) = _VAL2FLD( IPC_INTR_STRUCT_INTR_MASK_NOTIFY,  ipcAcquireMa
 513:Generated_Source\PSoC6\pdl\drivers\peripheral\ipc/cy_ipc_drv.h ****                       _VAL2FLD( IPC_INTR_STRUCT_INTR_MASK_RELEASE, ipcReleaseMask);
 514:Generated_Source\PSoC6\pdl\drivers\peripheral\ipc/cy_ipc_drv.h **** }
 515:Generated_Source\PSoC6\pdl\drivers\peripheral\ipc/cy_ipc_drv.h **** 
 516:Generated_Source\PSoC6\pdl\drivers\peripheral\ipc/cy_ipc_drv.h **** 
 517:Generated_Source\PSoC6\pdl\drivers\peripheral\ipc/cy_ipc_drv.h **** /*******************************************************************************
 518:Generated_Source\PSoC6\pdl\drivers\peripheral\ipc/cy_ipc_drv.h **** * Function Name: Cy_IPC_Drv_GetInterruptMask
 519:Generated_Source\PSoC6\pdl\drivers\peripheral\ipc/cy_ipc_drv.h **** ****************************************************************************//**
 520:Generated_Source\PSoC6\pdl\drivers\peripheral\ipc/cy_ipc_drv.h **** *
 521:Generated_Source\PSoC6\pdl\drivers\peripheral\ipc/cy_ipc_drv.h **** * This function is used to read the interrupt mask.
 522:Generated_Source\PSoC6\pdl\drivers\peripheral\ipc/cy_ipc_drv.h **** *
 523:Generated_Source\PSoC6\pdl\drivers\peripheral\ipc/cy_ipc_drv.h **** * \param base
 524:Generated_Source\PSoC6\pdl\drivers\peripheral\ipc/cy_ipc_drv.h **** * This is a handle to the IPC interrupt. This handle can be calculated from
 525:Generated_Source\PSoC6\pdl\drivers\peripheral\ipc/cy_ipc_drv.h **** * the IPC interrupt number using \ref Cy_IPC_Drv_GetIntrBaseAddr.
 526:Generated_Source\PSoC6\pdl\drivers\peripheral\ipc/cy_ipc_drv.h **** *
 527:Generated_Source\PSoC6\pdl\drivers\peripheral\ipc/cy_ipc_drv.h **** * \return
ARM GAS  C:\Users\tmj32\AppData\Local\Temp\cccOycf1.s 			page 12


 528:Generated_Source\PSoC6\pdl\drivers\peripheral\ipc/cy_ipc_drv.h **** *   The return value is encoded as follows
 529:Generated_Source\PSoC6\pdl\drivers\peripheral\ipc/cy_ipc_drv.h **** *   <table>
 530:Generated_Source\PSoC6\pdl\drivers\peripheral\ipc/cy_ipc_drv.h **** *   <tr><th>Interrupt sources   <th>Value
 531:Generated_Source\PSoC6\pdl\drivers\peripheral\ipc/cy_ipc_drv.h **** *   <tr><td>Ipc_PORTX_RELEASE   <td>Xth bit set
 532:Generated_Source\PSoC6\pdl\drivers\peripheral\ipc/cy_ipc_drv.h **** *   <tr><td>Ipc_PORTX_NOTIFY    <td>X+16th bit set
 533:Generated_Source\PSoC6\pdl\drivers\peripheral\ipc/cy_ipc_drv.h **** *   </table>
 534:Generated_Source\PSoC6\pdl\drivers\peripheral\ipc/cy_ipc_drv.h **** *
 535:Generated_Source\PSoC6\pdl\drivers\peripheral\ipc/cy_ipc_drv.h **** * \funcusage
 536:Generated_Source\PSoC6\pdl\drivers\peripheral\ipc/cy_ipc_drv.h **** * \snippet IPC_sut_01.cydsn/main_cm4.c snippet_Cy_IPC_Drv_GetInterruptStatusMasked
 537:Generated_Source\PSoC6\pdl\drivers\peripheral\ipc/cy_ipc_drv.h **** *
 538:Generated_Source\PSoC6\pdl\drivers\peripheral\ipc/cy_ipc_drv.h **** *******************************************************************************/
 539:Generated_Source\PSoC6\pdl\drivers\peripheral\ipc/cy_ipc_drv.h **** __STATIC_INLINE uint32_t Cy_IPC_Drv_GetInterruptMask(IPC_INTR_STRUCT_Type const * base)
 540:Generated_Source\PSoC6\pdl\drivers\peripheral\ipc/cy_ipc_drv.h **** {
 541:Generated_Source\PSoC6\pdl\drivers\peripheral\ipc/cy_ipc_drv.h ****     return REG_IPC_INTR_STRUCT_INTR_MASK(base);
 542:Generated_Source\PSoC6\pdl\drivers\peripheral\ipc/cy_ipc_drv.h **** }
 543:Generated_Source\PSoC6\pdl\drivers\peripheral\ipc/cy_ipc_drv.h **** 
 544:Generated_Source\PSoC6\pdl\drivers\peripheral\ipc/cy_ipc_drv.h **** 
 545:Generated_Source\PSoC6\pdl\drivers\peripheral\ipc/cy_ipc_drv.h **** /*******************************************************************************
 546:Generated_Source\PSoC6\pdl\drivers\peripheral\ipc/cy_ipc_drv.h **** * Function Name: Cy_IPC_Drv_GetInterruptStatusMasked
 547:Generated_Source\PSoC6\pdl\drivers\peripheral\ipc/cy_ipc_drv.h **** ****************************************************************************//**
 548:Generated_Source\PSoC6\pdl\drivers\peripheral\ipc/cy_ipc_drv.h **** *
 549:Generated_Source\PSoC6\pdl\drivers\peripheral\ipc/cy_ipc_drv.h **** * This function is used to read the active unmasked interrupt. This function
 550:Generated_Source\PSoC6\pdl\drivers\peripheral\ipc/cy_ipc_drv.h **** * can be used in the interrupt service routine to find which source triggered
 551:Generated_Source\PSoC6\pdl\drivers\peripheral\ipc/cy_ipc_drv.h **** * the interrupt.
 552:Generated_Source\PSoC6\pdl\drivers\peripheral\ipc/cy_ipc_drv.h **** *
 553:Generated_Source\PSoC6\pdl\drivers\peripheral\ipc/cy_ipc_drv.h **** * \param base
 554:Generated_Source\PSoC6\pdl\drivers\peripheral\ipc/cy_ipc_drv.h **** * This is a handle to the IPC interrupt. This handle can be calculated from the
 555:Generated_Source\PSoC6\pdl\drivers\peripheral\ipc/cy_ipc_drv.h **** * IPC interrupt number using \ref Cy_IPC_Drv_GetIntrBaseAddr.
 556:Generated_Source\PSoC6\pdl\drivers\peripheral\ipc/cy_ipc_drv.h **** *
 557:Generated_Source\PSoC6\pdl\drivers\peripheral\ipc/cy_ipc_drv.h **** * \return
 558:Generated_Source\PSoC6\pdl\drivers\peripheral\ipc/cy_ipc_drv.h **** *   The return value is encoded as follows
 559:Generated_Source\PSoC6\pdl\drivers\peripheral\ipc/cy_ipc_drv.h **** *   <table>
 560:Generated_Source\PSoC6\pdl\drivers\peripheral\ipc/cy_ipc_drv.h **** *   <tr><th>Interrupt sources   <th>Value
 561:Generated_Source\PSoC6\pdl\drivers\peripheral\ipc/cy_ipc_drv.h **** *   <tr><td>Ipc_PORTX_RELEASE   <td>Xth bit set
 562:Generated_Source\PSoC6\pdl\drivers\peripheral\ipc/cy_ipc_drv.h **** *   <tr><td>Ipc_PORTX_NOTIFY    <td>X+16th bit set
 563:Generated_Source\PSoC6\pdl\drivers\peripheral\ipc/cy_ipc_drv.h **** *   </table>
 564:Generated_Source\PSoC6\pdl\drivers\peripheral\ipc/cy_ipc_drv.h **** *
 565:Generated_Source\PSoC6\pdl\drivers\peripheral\ipc/cy_ipc_drv.h **** * \funcusage
 566:Generated_Source\PSoC6\pdl\drivers\peripheral\ipc/cy_ipc_drv.h **** * \snippet IPC_sut_01.cydsn/main_cm4.c snippet_Cy_IPC_Drv_GetInterruptStatusMasked
 567:Generated_Source\PSoC6\pdl\drivers\peripheral\ipc/cy_ipc_drv.h **** *
 568:Generated_Source\PSoC6\pdl\drivers\peripheral\ipc/cy_ipc_drv.h **** *******************************************************************************/
 569:Generated_Source\PSoC6\pdl\drivers\peripheral\ipc/cy_ipc_drv.h **** __STATIC_INLINE uint32_t Cy_IPC_Drv_GetInterruptStatusMasked (IPC_INTR_STRUCT_Type const * base)
 570:Generated_Source\PSoC6\pdl\drivers\peripheral\ipc/cy_ipc_drv.h **** {
 571:Generated_Source\PSoC6\pdl\drivers\peripheral\ipc/cy_ipc_drv.h ****     return REG_IPC_INTR_STRUCT_INTR_MASKED(base);
 572:Generated_Source\PSoC6\pdl\drivers\peripheral\ipc/cy_ipc_drv.h **** }
 573:Generated_Source\PSoC6\pdl\drivers\peripheral\ipc/cy_ipc_drv.h **** 
 574:Generated_Source\PSoC6\pdl\drivers\peripheral\ipc/cy_ipc_drv.h **** 
 575:Generated_Source\PSoC6\pdl\drivers\peripheral\ipc/cy_ipc_drv.h **** /*******************************************************************************
 576:Generated_Source\PSoC6\pdl\drivers\peripheral\ipc/cy_ipc_drv.h **** * Function Name: Cy_IPC_Drv_GetInterruptStatus
 577:Generated_Source\PSoC6\pdl\drivers\peripheral\ipc/cy_ipc_drv.h **** ****************************************************************************//**
 578:Generated_Source\PSoC6\pdl\drivers\peripheral\ipc/cy_ipc_drv.h **** *
 579:Generated_Source\PSoC6\pdl\drivers\peripheral\ipc/cy_ipc_drv.h **** * This function is used to read the pending interrupts. Note that this read is
 580:Generated_Source\PSoC6\pdl\drivers\peripheral\ipc/cy_ipc_drv.h **** * an unmasked read of the interrupt status. Interrupt sources read as active by
 581:Generated_Source\PSoC6\pdl\drivers\peripheral\ipc/cy_ipc_drv.h **** * this function would generate interrupts only if they were not masked.
 582:Generated_Source\PSoC6\pdl\drivers\peripheral\ipc/cy_ipc_drv.h **** *
 583:Generated_Source\PSoC6\pdl\drivers\peripheral\ipc/cy_ipc_drv.h **** * \param base
 584:Generated_Source\PSoC6\pdl\drivers\peripheral\ipc/cy_ipc_drv.h **** * This is a handle to the IPC interrupt. This handle can be calculated from the
ARM GAS  C:\Users\tmj32\AppData\Local\Temp\cccOycf1.s 			page 13


 585:Generated_Source\PSoC6\pdl\drivers\peripheral\ipc/cy_ipc_drv.h **** * IPC interrupt number using \ref Cy_IPC_Drv_GetIntrBaseAddr.
 586:Generated_Source\PSoC6\pdl\drivers\peripheral\ipc/cy_ipc_drv.h **** *
 587:Generated_Source\PSoC6\pdl\drivers\peripheral\ipc/cy_ipc_drv.h **** * \return
 588:Generated_Source\PSoC6\pdl\drivers\peripheral\ipc/cy_ipc_drv.h **** *   The return value is encoded as follows
 589:Generated_Source\PSoC6\pdl\drivers\peripheral\ipc/cy_ipc_drv.h **** *   <table>
 590:Generated_Source\PSoC6\pdl\drivers\peripheral\ipc/cy_ipc_drv.h **** *   <tr><th>Interrupt sources   <th>Value
 591:Generated_Source\PSoC6\pdl\drivers\peripheral\ipc/cy_ipc_drv.h **** *   <tr><td>Ipc_PORTX_RELEASE   <td>Xth bit set
 592:Generated_Source\PSoC6\pdl\drivers\peripheral\ipc/cy_ipc_drv.h **** *   <tr><td>Ipc_PORTX_NOTIFY    <td>X+16th bit set
 593:Generated_Source\PSoC6\pdl\drivers\peripheral\ipc/cy_ipc_drv.h **** *   </table>
 594:Generated_Source\PSoC6\pdl\drivers\peripheral\ipc/cy_ipc_drv.h **** *
 595:Generated_Source\PSoC6\pdl\drivers\peripheral\ipc/cy_ipc_drv.h **** * \funcusage
 596:Generated_Source\PSoC6\pdl\drivers\peripheral\ipc/cy_ipc_drv.h **** * \snippet IPC_sut_01.cydsn/main_cm4.c snippet_Cy_IPC_Drv_GetInterruptStatus
 597:Generated_Source\PSoC6\pdl\drivers\peripheral\ipc/cy_ipc_drv.h **** *
 598:Generated_Source\PSoC6\pdl\drivers\peripheral\ipc/cy_ipc_drv.h **** *******************************************************************************/
 599:Generated_Source\PSoC6\pdl\drivers\peripheral\ipc/cy_ipc_drv.h **** __STATIC_INLINE uint32_t Cy_IPC_Drv_GetInterruptStatus(IPC_INTR_STRUCT_Type const * base)
 600:Generated_Source\PSoC6\pdl\drivers\peripheral\ipc/cy_ipc_drv.h **** {
 601:Generated_Source\PSoC6\pdl\drivers\peripheral\ipc/cy_ipc_drv.h ****     return REG_IPC_INTR_STRUCT_INTR(base);
 602:Generated_Source\PSoC6\pdl\drivers\peripheral\ipc/cy_ipc_drv.h **** }
 603:Generated_Source\PSoC6\pdl\drivers\peripheral\ipc/cy_ipc_drv.h **** 
 604:Generated_Source\PSoC6\pdl\drivers\peripheral\ipc/cy_ipc_drv.h **** 
 605:Generated_Source\PSoC6\pdl\drivers\peripheral\ipc/cy_ipc_drv.h **** /*******************************************************************************
 606:Generated_Source\PSoC6\pdl\drivers\peripheral\ipc/cy_ipc_drv.h **** * Function Name: Cy_IPC_Drv_SetInterrupt
 607:Generated_Source\PSoC6\pdl\drivers\peripheral\ipc/cy_ipc_drv.h **** ****************************************************************************//**
 608:Generated_Source\PSoC6\pdl\drivers\peripheral\ipc/cy_ipc_drv.h **** *
 609:Generated_Source\PSoC6\pdl\drivers\peripheral\ipc/cy_ipc_drv.h **** * This function is used to set the interrupt source. This function can be used
 610:Generated_Source\PSoC6\pdl\drivers\peripheral\ipc/cy_ipc_drv.h **** * to activate interrupts through software.
 611:Generated_Source\PSoC6\pdl\drivers\peripheral\ipc/cy_ipc_drv.h **** * \note That interrupt sources set using this interrupt would generate interrupts
 612:Generated_Source\PSoC6\pdl\drivers\peripheral\ipc/cy_ipc_drv.h **** * only if they are not masked.
 613:Generated_Source\PSoC6\pdl\drivers\peripheral\ipc/cy_ipc_drv.h **** *
 614:Generated_Source\PSoC6\pdl\drivers\peripheral\ipc/cy_ipc_drv.h **** * \param base
 615:Generated_Source\PSoC6\pdl\drivers\peripheral\ipc/cy_ipc_drv.h **** * This is a handle to the IPC interrupt. This handle can be calculated from the
 616:Generated_Source\PSoC6\pdl\drivers\peripheral\ipc/cy_ipc_drv.h **** * IPC interrupt number using \ref Cy_IPC_Drv_GetIntrBaseAddr.
 617:Generated_Source\PSoC6\pdl\drivers\peripheral\ipc/cy_ipc_drv.h **** *
 618:Generated_Source\PSoC6\pdl\drivers\peripheral\ipc/cy_ipc_drv.h **** * \param ipcReleaseMask
 619:Generated_Source\PSoC6\pdl\drivers\peripheral\ipc/cy_ipc_drv.h **** * An encoded list of all IPC channels that can trigger the interrupt on a
 620:Generated_Source\PSoC6\pdl\drivers\peripheral\ipc/cy_ipc_drv.h **** * release event.
 621:Generated_Source\PSoC6\pdl\drivers\peripheral\ipc/cy_ipc_drv.h **** *
 622:Generated_Source\PSoC6\pdl\drivers\peripheral\ipc/cy_ipc_drv.h **** * \param ipcAcquireMask
 623:Generated_Source\PSoC6\pdl\drivers\peripheral\ipc/cy_ipc_drv.h **** * An encoded list of all IPC channels that can trigger the interrupt on a
 624:Generated_Source\PSoC6\pdl\drivers\peripheral\ipc/cy_ipc_drv.h **** * notify event.
 625:Generated_Source\PSoC6\pdl\drivers\peripheral\ipc/cy_ipc_drv.h **** *
 626:Generated_Source\PSoC6\pdl\drivers\peripheral\ipc/cy_ipc_drv.h **** * \funcusage
 627:Generated_Source\PSoC6\pdl\drivers\peripheral\ipc/cy_ipc_drv.h **** * \snippet IPC_sut_01.cydsn/main_cm4.c snippet_Cy_IPC_Drv_SetInterrupt
 628:Generated_Source\PSoC6\pdl\drivers\peripheral\ipc/cy_ipc_drv.h **** *
 629:Generated_Source\PSoC6\pdl\drivers\peripheral\ipc/cy_ipc_drv.h **** *******************************************************************************/
 630:Generated_Source\PSoC6\pdl\drivers\peripheral\ipc/cy_ipc_drv.h **** __STATIC_INLINE void  Cy_IPC_Drv_SetInterrupt(IPC_INTR_STRUCT_Type* base, uint32_t ipcReleaseMask, 
 631:Generated_Source\PSoC6\pdl\drivers\peripheral\ipc/cy_ipc_drv.h **** {
 632:Generated_Source\PSoC6\pdl\drivers\peripheral\ipc/cy_ipc_drv.h ****     CY_ASSERT_L1(0ul == (ipcAcquireMask  & ~(uint32_t)(IPC_STRUCT_NOTIFY_INTR_NOTIFY_Msk)));
 633:Generated_Source\PSoC6\pdl\drivers\peripheral\ipc/cy_ipc_drv.h ****     CY_ASSERT_L1(0ul == (ipcReleaseMask & ~(uint32_t)(IPC_STRUCT_RELEASE_INTR_RELEASE_Msk)));
 634:Generated_Source\PSoC6\pdl\drivers\peripheral\ipc/cy_ipc_drv.h ****     REG_IPC_INTR_STRUCT_INTR_SET(base) =  _VAL2FLD( IPC_INTR_STRUCT_INTR_NOTIFY,  ipcAcquireMask ) 
 635:Generated_Source\PSoC6\pdl\drivers\peripheral\ipc/cy_ipc_drv.h ****                       _VAL2FLD( IPC_INTR_STRUCT_INTR_RELEASE, ipcReleaseMask );
 636:Generated_Source\PSoC6\pdl\drivers\peripheral\ipc/cy_ipc_drv.h **** }
 637:Generated_Source\PSoC6\pdl\drivers\peripheral\ipc/cy_ipc_drv.h **** 
 638:Generated_Source\PSoC6\pdl\drivers\peripheral\ipc/cy_ipc_drv.h **** 
 639:Generated_Source\PSoC6\pdl\drivers\peripheral\ipc/cy_ipc_drv.h **** /*******************************************************************************
 640:Generated_Source\PSoC6\pdl\drivers\peripheral\ipc/cy_ipc_drv.h **** * Function Name: Cy_IPC_Drv_ClearInterrupt
 641:Generated_Source\PSoC6\pdl\drivers\peripheral\ipc/cy_ipc_drv.h **** ****************************************************************************//**
ARM GAS  C:\Users\tmj32\AppData\Local\Temp\cccOycf1.s 			page 14


 642:Generated_Source\PSoC6\pdl\drivers\peripheral\ipc/cy_ipc_drv.h **** *
 643:Generated_Source\PSoC6\pdl\drivers\peripheral\ipc/cy_ipc_drv.h **** * This function is used to clear the interrupt source. Use this function to clear
 644:Generated_Source\PSoC6\pdl\drivers\peripheral\ipc/cy_ipc_drv.h **** * a pending interrupt source in the interrupt status.
 645:Generated_Source\PSoC6\pdl\drivers\peripheral\ipc/cy_ipc_drv.h **** *
 646:Generated_Source\PSoC6\pdl\drivers\peripheral\ipc/cy_ipc_drv.h **** * \param base
 647:Generated_Source\PSoC6\pdl\drivers\peripheral\ipc/cy_ipc_drv.h **** * This is a handle to the IPC interrupt. This handle can be calculated from the
 648:Generated_Source\PSoC6\pdl\drivers\peripheral\ipc/cy_ipc_drv.h **** * IPC interrupt number using \ref Cy_IPC_Drv_GetIntrBaseAddr.
 649:Generated_Source\PSoC6\pdl\drivers\peripheral\ipc/cy_ipc_drv.h **** *
 650:Generated_Source\PSoC6\pdl\drivers\peripheral\ipc/cy_ipc_drv.h **** * \param ipcReleaseMask
 651:Generated_Source\PSoC6\pdl\drivers\peripheral\ipc/cy_ipc_drv.h **** * An encoded list of all IPC channels that can trigger the interrupt on a
 652:Generated_Source\PSoC6\pdl\drivers\peripheral\ipc/cy_ipc_drv.h **** * release event.
 653:Generated_Source\PSoC6\pdl\drivers\peripheral\ipc/cy_ipc_drv.h **** *
 654:Generated_Source\PSoC6\pdl\drivers\peripheral\ipc/cy_ipc_drv.h **** * \param ipcAcquireMask
 655:Generated_Source\PSoC6\pdl\drivers\peripheral\ipc/cy_ipc_drv.h **** * An encoded list of all IPC channels that can trigger the interrupt on a
 656:Generated_Source\PSoC6\pdl\drivers\peripheral\ipc/cy_ipc_drv.h **** * notify event.
 657:Generated_Source\PSoC6\pdl\drivers\peripheral\ipc/cy_ipc_drv.h **** *
 658:Generated_Source\PSoC6\pdl\drivers\peripheral\ipc/cy_ipc_drv.h **** * \funcusage
 659:Generated_Source\PSoC6\pdl\drivers\peripheral\ipc/cy_ipc_drv.h **** * \snippet IPC_sut_01.cydsn/main_cm4.c snippet_Cy_IPC_Drv_GetInterruptStatusMasked
 660:Generated_Source\PSoC6\pdl\drivers\peripheral\ipc/cy_ipc_drv.h **** *
 661:Generated_Source\PSoC6\pdl\drivers\peripheral\ipc/cy_ipc_drv.h **** *******************************************************************************/
 662:Generated_Source\PSoC6\pdl\drivers\peripheral\ipc/cy_ipc_drv.h **** __STATIC_INLINE void  Cy_IPC_Drv_ClearInterrupt(IPC_INTR_STRUCT_Type* base, uint32_t ipcReleaseMask
 663:Generated_Source\PSoC6\pdl\drivers\peripheral\ipc/cy_ipc_drv.h **** {
 664:Generated_Source\PSoC6\pdl\drivers\peripheral\ipc/cy_ipc_drv.h ****     CY_ASSERT_L1(0ul == (ipcAcquireMask  & ~(uint32_t)(IPC_STRUCT_NOTIFY_INTR_NOTIFY_Msk)));
 665:Generated_Source\PSoC6\pdl\drivers\peripheral\ipc/cy_ipc_drv.h ****     CY_ASSERT_L1(0ul == (ipcReleaseMask & ~(uint32_t)(IPC_STRUCT_RELEASE_INTR_RELEASE_Msk)));
 666:Generated_Source\PSoC6\pdl\drivers\peripheral\ipc/cy_ipc_drv.h ****     REG_IPC_INTR_STRUCT_INTR(base) =  _VAL2FLD(IPC_INTR_STRUCT_INTR_NOTIFY,  ipcAcquireMask) |
 667:Generated_Source\PSoC6\pdl\drivers\peripheral\ipc/cy_ipc_drv.h ****                   _VAL2FLD(IPC_INTR_STRUCT_INTR_RELEASE, ipcReleaseMask);
 668:Generated_Source\PSoC6\pdl\drivers\peripheral\ipc/cy_ipc_drv.h ****     (void)REG_IPC_INTR_STRUCT_INTR(base);  /* Read the register to flush the cache */
 669:Generated_Source\PSoC6\pdl\drivers\peripheral\ipc/cy_ipc_drv.h **** }
 670:Generated_Source\PSoC6\pdl\drivers\peripheral\ipc/cy_ipc_drv.h **** 
 671:Generated_Source\PSoC6\pdl\drivers\peripheral\ipc/cy_ipc_drv.h **** /** \} group_ipc_functions */
 672:Generated_Source\PSoC6\pdl\drivers\peripheral\ipc/cy_ipc_drv.h **** 
 673:Generated_Source\PSoC6\pdl\drivers\peripheral\ipc/cy_ipc_drv.h **** /** \} group_ipc */
 674:Generated_Source\PSoC6\pdl\drivers\peripheral\ipc/cy_ipc_drv.h **** 
 675:Generated_Source\PSoC6\pdl\drivers\peripheral\ipc/cy_ipc_drv.h **** 
 676:Generated_Source\PSoC6\pdl\drivers\peripheral\ipc/cy_ipc_drv.h **** /*******************************************************************************
 677:Generated_Source\PSoC6\pdl\drivers\peripheral\ipc/cy_ipc_drv.h **** * Function Name: Cy_IPC_Drv_AcquireNotify
 678:Generated_Source\PSoC6\pdl\drivers\peripheral\ipc/cy_ipc_drv.h **** ****************************************************************************//**
 679:Generated_Source\PSoC6\pdl\drivers\peripheral\ipc/cy_ipc_drv.h **** *
 680:Generated_Source\PSoC6\pdl\drivers\peripheral\ipc/cy_ipc_drv.h **** * The function generates a acquire notification event by IPC interrupt structure.
 681:Generated_Source\PSoC6\pdl\drivers\peripheral\ipc/cy_ipc_drv.h **** *
 682:Generated_Source\PSoC6\pdl\drivers\peripheral\ipc/cy_ipc_drv.h **** * \param base
 683:Generated_Source\PSoC6\pdl\drivers\peripheral\ipc/cy_ipc_drv.h **** * This parameter is a handle that represents the base address of the registers
 684:Generated_Source\PSoC6\pdl\drivers\peripheral\ipc/cy_ipc_drv.h **** * of the IPC channel.
 685:Generated_Source\PSoC6\pdl\drivers\peripheral\ipc/cy_ipc_drv.h **** * The parameter is generally returned from a call to the \ref
 686:Generated_Source\PSoC6\pdl\drivers\peripheral\ipc/cy_ipc_drv.h **** * Cy_IPC_Drv_GetIpcBaseAddress.
 687:Generated_Source\PSoC6\pdl\drivers\peripheral\ipc/cy_ipc_drv.h **** *
 688:Generated_Source\PSoC6\pdl\drivers\peripheral\ipc/cy_ipc_drv.h **** * \param notifyEventIntr
 689:Generated_Source\PSoC6\pdl\drivers\peripheral\ipc/cy_ipc_drv.h **** * Bit encoded list of IPC interrupt structures that are triggered
 690:Generated_Source\PSoC6\pdl\drivers\peripheral\ipc/cy_ipc_drv.h **** * by a notification. Bit number correspond to number of the IPC interrupt
 691:Generated_Source\PSoC6\pdl\drivers\peripheral\ipc/cy_ipc_drv.h **** * structure.
 692:Generated_Source\PSoC6\pdl\drivers\peripheral\ipc/cy_ipc_drv.h **** *
 693:Generated_Source\PSoC6\pdl\drivers\peripheral\ipc/cy_ipc_drv.h **** * \funcusage
 694:Generated_Source\PSoC6\pdl\drivers\peripheral\ipc/cy_ipc_drv.h **** * \snippet IPC_sut_01.cydsn/main_cm4.c snippet_Cy_IPC_Drv_LockAcquire
 695:Generated_Source\PSoC6\pdl\drivers\peripheral\ipc/cy_ipc_drv.h **** *
 696:Generated_Source\PSoC6\pdl\drivers\peripheral\ipc/cy_ipc_drv.h **** *******************************************************************************/
 697:Generated_Source\PSoC6\pdl\drivers\peripheral\ipc/cy_ipc_drv.h **** __STATIC_INLINE void  Cy_IPC_Drv_AcquireNotify (IPC_STRUCT_Type* base, uint32_t notifyEventIntr)
 698:Generated_Source\PSoC6\pdl\drivers\peripheral\ipc/cy_ipc_drv.h **** {
ARM GAS  C:\Users\tmj32\AppData\Local\Temp\cccOycf1.s 			page 15


 699:Generated_Source\PSoC6\pdl\drivers\peripheral\ipc/cy_ipc_drv.h ****     CY_ASSERT_L1(0ul == (notifyEventIntr  & ~(uint32_t)(IPC_STRUCT_NOTIFY_INTR_NOTIFY_Msk)));
 700:Generated_Source\PSoC6\pdl\drivers\peripheral\ipc/cy_ipc_drv.h ****     REG_IPC_STRUCT_NOTIFY(base) = _VAL2FLD(IPC_STRUCT_NOTIFY_INTR_NOTIFY, notifyEventIntr);
 701:Generated_Source\PSoC6\pdl\drivers\peripheral\ipc/cy_ipc_drv.h **** }
 702:Generated_Source\PSoC6\pdl\drivers\peripheral\ipc/cy_ipc_drv.h **** 
 703:Generated_Source\PSoC6\pdl\drivers\peripheral\ipc/cy_ipc_drv.h **** 
 704:Generated_Source\PSoC6\pdl\drivers\peripheral\ipc/cy_ipc_drv.h **** /*******************************************************************************
 705:Generated_Source\PSoC6\pdl\drivers\peripheral\ipc/cy_ipc_drv.h **** * Function Name: Cy_IPC_Drv_ReleaseNotify
 706:Generated_Source\PSoC6\pdl\drivers\peripheral\ipc/cy_ipc_drv.h **** ****************************************************************************//**
 707:Generated_Source\PSoC6\pdl\drivers\peripheral\ipc/cy_ipc_drv.h **** *
 708:Generated_Source\PSoC6\pdl\drivers\peripheral\ipc/cy_ipc_drv.h **** * The function generates a release notification event by IPC interrupt structure.
 709:Generated_Source\PSoC6\pdl\drivers\peripheral\ipc/cy_ipc_drv.h **** *
 710:Generated_Source\PSoC6\pdl\drivers\peripheral\ipc/cy_ipc_drv.h **** * \param base
 711:Generated_Source\PSoC6\pdl\drivers\peripheral\ipc/cy_ipc_drv.h **** * This parameter is a handle that represents the base address of the registers
 712:Generated_Source\PSoC6\pdl\drivers\peripheral\ipc/cy_ipc_drv.h **** * of the IPC channel.
 713:Generated_Source\PSoC6\pdl\drivers\peripheral\ipc/cy_ipc_drv.h **** * The parameter is generally returned from a call to the \ref
 714:Generated_Source\PSoC6\pdl\drivers\peripheral\ipc/cy_ipc_drv.h **** * Cy_IPC_Drv_GetIpcBaseAddress.
 715:Generated_Source\PSoC6\pdl\drivers\peripheral\ipc/cy_ipc_drv.h **** *
 716:Generated_Source\PSoC6\pdl\drivers\peripheral\ipc/cy_ipc_drv.h **** * \param notifyEventIntr
 717:Generated_Source\PSoC6\pdl\drivers\peripheral\ipc/cy_ipc_drv.h **** * Bit encoded list of IPC interrupt lines that are triggered by a notification.
 718:Generated_Source\PSoC6\pdl\drivers\peripheral\ipc/cy_ipc_drv.h **** *
 719:Generated_Source\PSoC6\pdl\drivers\peripheral\ipc/cy_ipc_drv.h **** * \funcusage
 720:Generated_Source\PSoC6\pdl\drivers\peripheral\ipc/cy_ipc_drv.h **** * \snippet IPC_sut_01.cydsn/main_cm4.c snippet_Cy_IPC_Drv_ReadMsgWord
 721:Generated_Source\PSoC6\pdl\drivers\peripheral\ipc/cy_ipc_drv.h **** *
 722:Generated_Source\PSoC6\pdl\drivers\peripheral\ipc/cy_ipc_drv.h **** *******************************************************************************/
 723:Generated_Source\PSoC6\pdl\drivers\peripheral\ipc/cy_ipc_drv.h **** __STATIC_INLINE void  Cy_IPC_Drv_ReleaseNotify (IPC_STRUCT_Type* base, uint32_t notifyEventIntr)
 724:Generated_Source\PSoC6\pdl\drivers\peripheral\ipc/cy_ipc_drv.h **** {
 725:Generated_Source\PSoC6\pdl\drivers\peripheral\ipc/cy_ipc_drv.h ****     CY_ASSERT_L1(0ul == (notifyEventIntr  & ~(uint32_t)(IPC_INTR_STRUCT_INTR_RELEASE_Msk)));
 726:Generated_Source\PSoC6\pdl\drivers\peripheral\ipc/cy_ipc_drv.h ****     REG_IPC_STRUCT_RELEASE(base) = _VAL2FLD(IPC_INTR_STRUCT_INTR_RELEASE, notifyEventIntr);
 727:Generated_Source\PSoC6\pdl\drivers\peripheral\ipc/cy_ipc_drv.h **** }
 728:Generated_Source\PSoC6\pdl\drivers\peripheral\ipc/cy_ipc_drv.h **** 
 729:Generated_Source\PSoC6\pdl\drivers\peripheral\ipc/cy_ipc_drv.h **** 
 730:Generated_Source\PSoC6\pdl\drivers\peripheral\ipc/cy_ipc_drv.h **** /*******************************************************************************
 731:Generated_Source\PSoC6\pdl\drivers\peripheral\ipc/cy_ipc_drv.h **** * Function Name: Cy_IPC_Drv_WriteDataValue
 732:Generated_Source\PSoC6\pdl\drivers\peripheral\ipc/cy_ipc_drv.h **** ****************************************************************************//**
 733:Generated_Source\PSoC6\pdl\drivers\peripheral\ipc/cy_ipc_drv.h **** *
 734:Generated_Source\PSoC6\pdl\drivers\peripheral\ipc/cy_ipc_drv.h **** * The function writes a value to the DATA register of the IPC channel.
 735:Generated_Source\PSoC6\pdl\drivers\peripheral\ipc/cy_ipc_drv.h **** *
 736:Generated_Source\PSoC6\pdl\drivers\peripheral\ipc/cy_ipc_drv.h **** * This function is internal and should not be called directly by user
 737:Generated_Source\PSoC6\pdl\drivers\peripheral\ipc/cy_ipc_drv.h **** * software.
 738:Generated_Source\PSoC6\pdl\drivers\peripheral\ipc/cy_ipc_drv.h **** *
 739:Generated_Source\PSoC6\pdl\drivers\peripheral\ipc/cy_ipc_drv.h **** * \param base
 740:Generated_Source\PSoC6\pdl\drivers\peripheral\ipc/cy_ipc_drv.h **** * This parameter is a handle that represents the base address of the registers
 741:Generated_Source\PSoC6\pdl\drivers\peripheral\ipc/cy_ipc_drv.h **** * of the IPC channel.
 742:Generated_Source\PSoC6\pdl\drivers\peripheral\ipc/cy_ipc_drv.h **** * The parameter is generally returned from a call to the \ref
 743:Generated_Source\PSoC6\pdl\drivers\peripheral\ipc/cy_ipc_drv.h **** * Cy_IPC_Drv_GetIpcBaseAddress.
 744:Generated_Source\PSoC6\pdl\drivers\peripheral\ipc/cy_ipc_drv.h **** *
 745:Generated_Source\PSoC6\pdl\drivers\peripheral\ipc/cy_ipc_drv.h **** * \param dataValue
 746:Generated_Source\PSoC6\pdl\drivers\peripheral\ipc/cy_ipc_drv.h **** * Value to be written.
 747:Generated_Source\PSoC6\pdl\drivers\peripheral\ipc/cy_ipc_drv.h **** *
 748:Generated_Source\PSoC6\pdl\drivers\peripheral\ipc/cy_ipc_drv.h **** *******************************************************************************/
 749:Generated_Source\PSoC6\pdl\drivers\peripheral\ipc/cy_ipc_drv.h **** __STATIC_INLINE void     Cy_IPC_Drv_WriteDataValue (IPC_STRUCT_Type* base, uint32_t dataValue)
 750:Generated_Source\PSoC6\pdl\drivers\peripheral\ipc/cy_ipc_drv.h **** {
 751:Generated_Source\PSoC6\pdl\drivers\peripheral\ipc/cy_ipc_drv.h ****     REG_IPC_STRUCT_DATA(base) = dataValue;
 752:Generated_Source\PSoC6\pdl\drivers\peripheral\ipc/cy_ipc_drv.h **** }
 753:Generated_Source\PSoC6\pdl\drivers\peripheral\ipc/cy_ipc_drv.h **** 
 754:Generated_Source\PSoC6\pdl\drivers\peripheral\ipc/cy_ipc_drv.h **** 
 755:Generated_Source\PSoC6\pdl\drivers\peripheral\ipc/cy_ipc_drv.h **** /*******************************************************************************
ARM GAS  C:\Users\tmj32\AppData\Local\Temp\cccOycf1.s 			page 16


 756:Generated_Source\PSoC6\pdl\drivers\peripheral\ipc/cy_ipc_drv.h **** * Function Name: Cy_IPC_Drv_ReadDataValue
 757:Generated_Source\PSoC6\pdl\drivers\peripheral\ipc/cy_ipc_drv.h **** ****************************************************************************//**
 758:Generated_Source\PSoC6\pdl\drivers\peripheral\ipc/cy_ipc_drv.h **** *
 759:Generated_Source\PSoC6\pdl\drivers\peripheral\ipc/cy_ipc_drv.h **** * The function reads a value from the DATA register of the IPC channel.
 760:Generated_Source\PSoC6\pdl\drivers\peripheral\ipc/cy_ipc_drv.h **** *
 761:Generated_Source\PSoC6\pdl\drivers\peripheral\ipc/cy_ipc_drv.h **** * This function is internal and should not be called directly by user
 762:Generated_Source\PSoC6\pdl\drivers\peripheral\ipc/cy_ipc_drv.h **** * software.
 763:Generated_Source\PSoC6\pdl\drivers\peripheral\ipc/cy_ipc_drv.h **** *
 764:Generated_Source\PSoC6\pdl\drivers\peripheral\ipc/cy_ipc_drv.h **** * \param base
 765:Generated_Source\PSoC6\pdl\drivers\peripheral\ipc/cy_ipc_drv.h **** * This parameter is a handle that represents the base address of the registers
 766:Generated_Source\PSoC6\pdl\drivers\peripheral\ipc/cy_ipc_drv.h **** * of the IPC channel.
 767:Generated_Source\PSoC6\pdl\drivers\peripheral\ipc/cy_ipc_drv.h **** * The parameter is generally returned from a call to the \ref
 768:Generated_Source\PSoC6\pdl\drivers\peripheral\ipc/cy_ipc_drv.h **** * Cy_IPC_Drv_GetIpcBaseAddress.
 769:Generated_Source\PSoC6\pdl\drivers\peripheral\ipc/cy_ipc_drv.h **** *
 770:Generated_Source\PSoC6\pdl\drivers\peripheral\ipc/cy_ipc_drv.h **** * \return
 771:Generated_Source\PSoC6\pdl\drivers\peripheral\ipc/cy_ipc_drv.h **** * Value from DATA register.
 772:Generated_Source\PSoC6\pdl\drivers\peripheral\ipc/cy_ipc_drv.h **** *
 773:Generated_Source\PSoC6\pdl\drivers\peripheral\ipc/cy_ipc_drv.h **** *******************************************************************************/
 774:Generated_Source\PSoC6\pdl\drivers\peripheral\ipc/cy_ipc_drv.h **** __STATIC_INLINE uint32_t Cy_IPC_Drv_ReadDataValue (IPC_STRUCT_Type const * base)
 775:Generated_Source\PSoC6\pdl\drivers\peripheral\ipc/cy_ipc_drv.h **** {
  93              		.loc 1 775 0
  94              		.cfi_startproc
  95              		@ args = 0, pretend = 0, frame = 8
  96              		@ frame_needed = 1, uses_anonymous_args = 0
  97              		@ link register save eliminated.
  98 0000 80B4     		push	{r7}
  99              		.cfi_def_cfa_offset 4
 100              		.cfi_offset 7, -4
 101 0002 83B0     		sub	sp, sp, #12
 102              		.cfi_def_cfa_offset 16
 103 0004 00AF     		add	r7, sp, #0
 104              		.cfi_def_cfa_register 7
 105 0006 7860     		str	r0, [r7, #4]
 776:Generated_Source\PSoC6\pdl\drivers\peripheral\ipc/cy_ipc_drv.h ****     return REG_IPC_STRUCT_DATA(base);
 106              		.loc 1 776 0
 107 0008 7B68     		ldr	r3, [r7, #4]
 108 000a DB68     		ldr	r3, [r3, #12]
 777:Generated_Source\PSoC6\pdl\drivers\peripheral\ipc/cy_ipc_drv.h **** }
 109              		.loc 1 777 0
 110 000c 1846     		mov	r0, r3
 111 000e 0C37     		adds	r7, r7, #12
 112              		.cfi_def_cfa_offset 4
 113 0010 BD46     		mov	sp, r7
 114              		.cfi_def_cfa_register 13
 115              		@ sp needed
 116 0012 5DF8047B 		ldr	r7, [sp], #4
 117              		.cfi_restore 7
 118              		.cfi_def_cfa_offset 0
 119 0016 7047     		bx	lr
 120              		.cfi_endproc
 121              	.LFE143:
 122              		.size	Cy_IPC_Drv_ReadDataValue, .-Cy_IPC_Drv_ReadDataValue
 123              		.section	.text.Cy_IPC_Drv_SendMsgPtr,"ax",%progbits
 124              		.align	2
 125              		.thumb
 126              		.thumb_func
 127              		.type	Cy_IPC_Drv_SendMsgPtr, %function
ARM GAS  C:\Users\tmj32\AppData\Local\Temp\cccOycf1.s 			page 17


 128              	Cy_IPC_Drv_SendMsgPtr:
 129              	.LFB148:
 778:Generated_Source\PSoC6\pdl\drivers\peripheral\ipc/cy_ipc_drv.h **** 
 779:Generated_Source\PSoC6\pdl\drivers\peripheral\ipc/cy_ipc_drv.h **** 
 780:Generated_Source\PSoC6\pdl\drivers\peripheral\ipc/cy_ipc_drv.h **** /*******************************************************************************
 781:Generated_Source\PSoC6\pdl\drivers\peripheral\ipc/cy_ipc_drv.h **** * Function Name: Cy_IPC_Drv_IsLockAcquired
 782:Generated_Source\PSoC6\pdl\drivers\peripheral\ipc/cy_ipc_drv.h **** ****************************************************************************//**
 783:Generated_Source\PSoC6\pdl\drivers\peripheral\ipc/cy_ipc_drv.h **** *
 784:Generated_Source\PSoC6\pdl\drivers\peripheral\ipc/cy_ipc_drv.h **** * The function is used to test the status of an IPC channel. The function
 785:Generated_Source\PSoC6\pdl\drivers\peripheral\ipc/cy_ipc_drv.h **** * tells the reader if the IPC channel was in the locked or released state.
 786:Generated_Source\PSoC6\pdl\drivers\peripheral\ipc/cy_ipc_drv.h **** *
 787:Generated_Source\PSoC6\pdl\drivers\peripheral\ipc/cy_ipc_drv.h **** * \param base
 788:Generated_Source\PSoC6\pdl\drivers\peripheral\ipc/cy_ipc_drv.h **** * This parameter is a handle that represents the base address of the registers
 789:Generated_Source\PSoC6\pdl\drivers\peripheral\ipc/cy_ipc_drv.h **** * of the IPC channel.
 790:Generated_Source\PSoC6\pdl\drivers\peripheral\ipc/cy_ipc_drv.h **** * The parameter is generally returned from a call to the \ref
 791:Generated_Source\PSoC6\pdl\drivers\peripheral\ipc/cy_ipc_drv.h **** * Cy_IPC_Drv_GetIpcBaseAddress.
 792:Generated_Source\PSoC6\pdl\drivers\peripheral\ipc/cy_ipc_drv.h **** *
 793:Generated_Source\PSoC6\pdl\drivers\peripheral\ipc/cy_ipc_drv.h **** * \return
 794:Generated_Source\PSoC6\pdl\drivers\peripheral\ipc/cy_ipc_drv.h **** *   Status for the function:
 795:Generated_Source\PSoC6\pdl\drivers\peripheral\ipc/cy_ipc_drv.h **** *   true:  The IPC channel is in the Locked state.
 796:Generated_Source\PSoC6\pdl\drivers\peripheral\ipc/cy_ipc_drv.h **** *   false: The IPC channel is in the Released state.
 797:Generated_Source\PSoC6\pdl\drivers\peripheral\ipc/cy_ipc_drv.h **** *
 798:Generated_Source\PSoC6\pdl\drivers\peripheral\ipc/cy_ipc_drv.h **** * \funcusage
 799:Generated_Source\PSoC6\pdl\drivers\peripheral\ipc/cy_ipc_drv.h **** * \snippet IPC_sut_01.cydsn/main_cm4.c snippet_Cy_IPC_Drv_LockAcquire
 800:Generated_Source\PSoC6\pdl\drivers\peripheral\ipc/cy_ipc_drv.h **** *
 801:Generated_Source\PSoC6\pdl\drivers\peripheral\ipc/cy_ipc_drv.h **** *******************************************************************************/
 802:Generated_Source\PSoC6\pdl\drivers\peripheral\ipc/cy_ipc_drv.h **** __STATIC_INLINE bool Cy_IPC_Drv_IsLockAcquired (IPC_STRUCT_Type const * base)
 803:Generated_Source\PSoC6\pdl\drivers\peripheral\ipc/cy_ipc_drv.h **** {
 804:Generated_Source\PSoC6\pdl\drivers\peripheral\ipc/cy_ipc_drv.h ****     return ( 0u != _FLD2VAL(IPC_STRUCT_ACQUIRE_SUCCESS, REG_IPC_STRUCT_LOCK_STATUS(base)) );
 805:Generated_Source\PSoC6\pdl\drivers\peripheral\ipc/cy_ipc_drv.h **** }
 806:Generated_Source\PSoC6\pdl\drivers\peripheral\ipc/cy_ipc_drv.h **** 
 807:Generated_Source\PSoC6\pdl\drivers\peripheral\ipc/cy_ipc_drv.h **** 
 808:Generated_Source\PSoC6\pdl\drivers\peripheral\ipc/cy_ipc_drv.h **** /*******************************************************************************
 809:Generated_Source\PSoC6\pdl\drivers\peripheral\ipc/cy_ipc_drv.h **** * Function Name: Cy_IPC_Drv_GetLockStatus
 810:Generated_Source\PSoC6\pdl\drivers\peripheral\ipc/cy_ipc_drv.h **** ****************************************************************************//**
 811:Generated_Source\PSoC6\pdl\drivers\peripheral\ipc/cy_ipc_drv.h **** *
 812:Generated_Source\PSoC6\pdl\drivers\peripheral\ipc/cy_ipc_drv.h **** * The function is used to get the status of an IPC channel.
 813:Generated_Source\PSoC6\pdl\drivers\peripheral\ipc/cy_ipc_drv.h **** *
 814:Generated_Source\PSoC6\pdl\drivers\peripheral\ipc/cy_ipc_drv.h **** * \param base
 815:Generated_Source\PSoC6\pdl\drivers\peripheral\ipc/cy_ipc_drv.h **** * This parameter is a handle that represents the base address of the registers
 816:Generated_Source\PSoC6\pdl\drivers\peripheral\ipc/cy_ipc_drv.h **** * of the IPC channel.
 817:Generated_Source\PSoC6\pdl\drivers\peripheral\ipc/cy_ipc_drv.h **** * The parameter is generally returned from a call to the \ref
 818:Generated_Source\PSoC6\pdl\drivers\peripheral\ipc/cy_ipc_drv.h **** * Cy_IPC_Drv_GetIpcBaseAddress.
 819:Generated_Source\PSoC6\pdl\drivers\peripheral\ipc/cy_ipc_drv.h **** *
 820:Generated_Source\PSoC6\pdl\drivers\peripheral\ipc/cy_ipc_drv.h **** * \return
 821:Generated_Source\PSoC6\pdl\drivers\peripheral\ipc/cy_ipc_drv.h **** * Value from LOCK_STATUS register.
 822:Generated_Source\PSoC6\pdl\drivers\peripheral\ipc/cy_ipc_drv.h **** *
 823:Generated_Source\PSoC6\pdl\drivers\peripheral\ipc/cy_ipc_drv.h **** * \funcusage
 824:Generated_Source\PSoC6\pdl\drivers\peripheral\ipc/cy_ipc_drv.h **** * \snippet IPC_sut_01.cydsn/main_cm4.c snippet_Cy_IPC_Drv_GetLockStatus
 825:Generated_Source\PSoC6\pdl\drivers\peripheral\ipc/cy_ipc_drv.h **** *
 826:Generated_Source\PSoC6\pdl\drivers\peripheral\ipc/cy_ipc_drv.h **** *******************************************************************************/
 827:Generated_Source\PSoC6\pdl\drivers\peripheral\ipc/cy_ipc_drv.h **** __STATIC_INLINE uint32_t Cy_IPC_Drv_GetLockStatus (IPC_STRUCT_Type const * base)
 828:Generated_Source\PSoC6\pdl\drivers\peripheral\ipc/cy_ipc_drv.h **** {
 829:Generated_Source\PSoC6\pdl\drivers\peripheral\ipc/cy_ipc_drv.h ****     return REG_IPC_STRUCT_LOCK_STATUS(base);
 830:Generated_Source\PSoC6\pdl\drivers\peripheral\ipc/cy_ipc_drv.h **** }
 831:Generated_Source\PSoC6\pdl\drivers\peripheral\ipc/cy_ipc_drv.h **** 
 832:Generated_Source\PSoC6\pdl\drivers\peripheral\ipc/cy_ipc_drv.h **** 
ARM GAS  C:\Users\tmj32\AppData\Local\Temp\cccOycf1.s 			page 18


 833:Generated_Source\PSoC6\pdl\drivers\peripheral\ipc/cy_ipc_drv.h **** /*******************************************************************************
 834:Generated_Source\PSoC6\pdl\drivers\peripheral\ipc/cy_ipc_drv.h **** * Function Name: Cy_IPC_Drv_ExtractAcquireMask
 835:Generated_Source\PSoC6\pdl\drivers\peripheral\ipc/cy_ipc_drv.h **** ****************************************************************************//**
 836:Generated_Source\PSoC6\pdl\drivers\peripheral\ipc/cy_ipc_drv.h **** *
 837:Generated_Source\PSoC6\pdl\drivers\peripheral\ipc/cy_ipc_drv.h **** * The function extracts an Acquire mask part from full interrupt mask value.
 838:Generated_Source\PSoC6\pdl\drivers\peripheral\ipc/cy_ipc_drv.h **** *
 839:Generated_Source\PSoC6\pdl\drivers\peripheral\ipc/cy_ipc_drv.h **** * This function is internal and should not be called directly by user
 840:Generated_Source\PSoC6\pdl\drivers\peripheral\ipc/cy_ipc_drv.h **** * software.
 841:Generated_Source\PSoC6\pdl\drivers\peripheral\ipc/cy_ipc_drv.h **** *
 842:Generated_Source\PSoC6\pdl\drivers\peripheral\ipc/cy_ipc_drv.h **** * \param intMask
 843:Generated_Source\PSoC6\pdl\drivers\peripheral\ipc/cy_ipc_drv.h **** * Interrupt mask value to be processed.
 844:Generated_Source\PSoC6\pdl\drivers\peripheral\ipc/cy_ipc_drv.h **** *
 845:Generated_Source\PSoC6\pdl\drivers\peripheral\ipc/cy_ipc_drv.h **** * \return
 846:Generated_Source\PSoC6\pdl\drivers\peripheral\ipc/cy_ipc_drv.h **** * Acquire mask value.
 847:Generated_Source\PSoC6\pdl\drivers\peripheral\ipc/cy_ipc_drv.h **** *
 848:Generated_Source\PSoC6\pdl\drivers\peripheral\ipc/cy_ipc_drv.h **** *******************************************************************************/
 849:Generated_Source\PSoC6\pdl\drivers\peripheral\ipc/cy_ipc_drv.h **** __STATIC_INLINE uint32_t Cy_IPC_Drv_ExtractAcquireMask (uint32_t intMask)
 850:Generated_Source\PSoC6\pdl\drivers\peripheral\ipc/cy_ipc_drv.h **** {
 851:Generated_Source\PSoC6\pdl\drivers\peripheral\ipc/cy_ipc_drv.h ****     return _FLD2VAL(IPC_INTR_STRUCT_INTR_MASK_NOTIFY, intMask);
 852:Generated_Source\PSoC6\pdl\drivers\peripheral\ipc/cy_ipc_drv.h **** }
 853:Generated_Source\PSoC6\pdl\drivers\peripheral\ipc/cy_ipc_drv.h **** 
 854:Generated_Source\PSoC6\pdl\drivers\peripheral\ipc/cy_ipc_drv.h **** 
 855:Generated_Source\PSoC6\pdl\drivers\peripheral\ipc/cy_ipc_drv.h **** /*******************************************************************************
 856:Generated_Source\PSoC6\pdl\drivers\peripheral\ipc/cy_ipc_drv.h **** * Function Name: Cy_IPC_Drv_ExtractReleaseMask
 857:Generated_Source\PSoC6\pdl\drivers\peripheral\ipc/cy_ipc_drv.h **** ****************************************************************************//**
 858:Generated_Source\PSoC6\pdl\drivers\peripheral\ipc/cy_ipc_drv.h **** *
 859:Generated_Source\PSoC6\pdl\drivers\peripheral\ipc/cy_ipc_drv.h **** * The function extracts a Release mask part from full interrupt mask value.
 860:Generated_Source\PSoC6\pdl\drivers\peripheral\ipc/cy_ipc_drv.h **** *
 861:Generated_Source\PSoC6\pdl\drivers\peripheral\ipc/cy_ipc_drv.h **** * This function is internal and should not be called directly by user
 862:Generated_Source\PSoC6\pdl\drivers\peripheral\ipc/cy_ipc_drv.h **** * software.
 863:Generated_Source\PSoC6\pdl\drivers\peripheral\ipc/cy_ipc_drv.h **** *
 864:Generated_Source\PSoC6\pdl\drivers\peripheral\ipc/cy_ipc_drv.h **** * \param intMask
 865:Generated_Source\PSoC6\pdl\drivers\peripheral\ipc/cy_ipc_drv.h **** * Interrupt mask value to be processed.
 866:Generated_Source\PSoC6\pdl\drivers\peripheral\ipc/cy_ipc_drv.h **** *
 867:Generated_Source\PSoC6\pdl\drivers\peripheral\ipc/cy_ipc_drv.h **** * \return
 868:Generated_Source\PSoC6\pdl\drivers\peripheral\ipc/cy_ipc_drv.h **** * Release mask value.
 869:Generated_Source\PSoC6\pdl\drivers\peripheral\ipc/cy_ipc_drv.h **** *
 870:Generated_Source\PSoC6\pdl\drivers\peripheral\ipc/cy_ipc_drv.h **** *******************************************************************************/
 871:Generated_Source\PSoC6\pdl\drivers\peripheral\ipc/cy_ipc_drv.h **** __STATIC_INLINE uint32_t Cy_IPC_Drv_ExtractReleaseMask (uint32_t intMask)
 872:Generated_Source\PSoC6\pdl\drivers\peripheral\ipc/cy_ipc_drv.h **** {
 873:Generated_Source\PSoC6\pdl\drivers\peripheral\ipc/cy_ipc_drv.h ****     return _FLD2VAL(IPC_INTR_STRUCT_INTR_MASK_RELEASE, intMask);
 874:Generated_Source\PSoC6\pdl\drivers\peripheral\ipc/cy_ipc_drv.h **** }
 875:Generated_Source\PSoC6\pdl\drivers\peripheral\ipc/cy_ipc_drv.h **** 
 876:Generated_Source\PSoC6\pdl\drivers\peripheral\ipc/cy_ipc_drv.h **** 
 877:Generated_Source\PSoC6\pdl\drivers\peripheral\ipc/cy_ipc_drv.h **** /*******************************************************************************
 878:Generated_Source\PSoC6\pdl\drivers\peripheral\ipc/cy_ipc_drv.h **** * Function Name: Cy_IPC_Drv_SendMsgPtr
 879:Generated_Source\PSoC6\pdl\drivers\peripheral\ipc/cy_ipc_drv.h **** ****************************************************************************//**
 880:Generated_Source\PSoC6\pdl\drivers\peripheral\ipc/cy_ipc_drv.h **** *
 881:Generated_Source\PSoC6\pdl\drivers\peripheral\ipc/cy_ipc_drv.h **** * This function is used to send a message pointer through an IPC channel.
 882:Generated_Source\PSoC6\pdl\drivers\peripheral\ipc/cy_ipc_drv.h **** * The message structure may hold a generic pointer that may contain the address
 883:Generated_Source\PSoC6\pdl\drivers\peripheral\ipc/cy_ipc_drv.h **** * of any user data type or structure. This parameter could be a pointer to a 32-bit
 884:Generated_Source\PSoC6\pdl\drivers\peripheral\ipc/cy_ipc_drv.h **** * integer, an array, or even a data structure defined in the user code. This
 885:Generated_Source\PSoC6\pdl\drivers\peripheral\ipc/cy_ipc_drv.h **** * function acts as a transfer engine for sending the pointer. Any memory
 886:Generated_Source\PSoC6\pdl\drivers\peripheral\ipc/cy_ipc_drv.h **** * management of the pointer allocation and deallocation is up to the application
 887:Generated_Source\PSoC6\pdl\drivers\peripheral\ipc/cy_ipc_drv.h **** * code.
 888:Generated_Source\PSoC6\pdl\drivers\peripheral\ipc/cy_ipc_drv.h **** * The function also has an associated notification field that will let the
 889:Generated_Source\PSoC6\pdl\drivers\peripheral\ipc/cy_ipc_drv.h **** * message notify one or multiple interrupts.
ARM GAS  C:\Users\tmj32\AppData\Local\Temp\cccOycf1.s 			page 19


 890:Generated_Source\PSoC6\pdl\drivers\peripheral\ipc/cy_ipc_drv.h **** *
 891:Generated_Source\PSoC6\pdl\drivers\peripheral\ipc/cy_ipc_drv.h **** * \param base
 892:Generated_Source\PSoC6\pdl\drivers\peripheral\ipc/cy_ipc_drv.h **** * This parameter is a handle that represents the base address of the registers
 893:Generated_Source\PSoC6\pdl\drivers\peripheral\ipc/cy_ipc_drv.h **** * of the IPC channel.
 894:Generated_Source\PSoC6\pdl\drivers\peripheral\ipc/cy_ipc_drv.h **** * The parameter is generally returned from a call to the \ref
 895:Generated_Source\PSoC6\pdl\drivers\peripheral\ipc/cy_ipc_drv.h **** * Cy_IPC_Drv_GetIpcBaseAddress.
 896:Generated_Source\PSoC6\pdl\drivers\peripheral\ipc/cy_ipc_drv.h **** *
 897:Generated_Source\PSoC6\pdl\drivers\peripheral\ipc/cy_ipc_drv.h **** * \param notifyEventIntr
 898:Generated_Source\PSoC6\pdl\drivers\peripheral\ipc/cy_ipc_drv.h **** * Bit encoded list of IPC interrupt lines that are triggered during the release
 899:Generated_Source\PSoC6\pdl\drivers\peripheral\ipc/cy_ipc_drv.h **** * action.
 900:Generated_Source\PSoC6\pdl\drivers\peripheral\ipc/cy_ipc_drv.h **** *
 901:Generated_Source\PSoC6\pdl\drivers\peripheral\ipc/cy_ipc_drv.h **** * \param msgPtr
 902:Generated_Source\PSoC6\pdl\drivers\peripheral\ipc/cy_ipc_drv.h **** * The message pointer that is being sent over the IPC channel.
 903:Generated_Source\PSoC6\pdl\drivers\peripheral\ipc/cy_ipc_drv.h **** *
 904:Generated_Source\PSoC6\pdl\drivers\peripheral\ipc/cy_ipc_drv.h **** * \return   Status of the operation:
 905:Generated_Source\PSoC6\pdl\drivers\peripheral\ipc/cy_ipc_drv.h **** *   \retval CY_IPC_DRV_SUCCESS: The send operation was successful.
 906:Generated_Source\PSoC6\pdl\drivers\peripheral\ipc/cy_ipc_drv.h **** *   \retval CY_IPC_DRV_ERROR:   The IPC channel is unavailable because
 907:Generated_Source\PSoC6\pdl\drivers\peripheral\ipc/cy_ipc_drv.h **** *                               it is already locked.
 908:Generated_Source\PSoC6\pdl\drivers\peripheral\ipc/cy_ipc_drv.h **** *
 909:Generated_Source\PSoC6\pdl\drivers\peripheral\ipc/cy_ipc_drv.h **** * \funcusage
 910:Generated_Source\PSoC6\pdl\drivers\peripheral\ipc/cy_ipc_drv.h **** * \snippet IPC_sut_01.cydsn/main_cm4.c snippet_Cy_IPC_Drv_SendMsgPtr
 911:Generated_Source\PSoC6\pdl\drivers\peripheral\ipc/cy_ipc_drv.h **** *
 912:Generated_Source\PSoC6\pdl\drivers\peripheral\ipc/cy_ipc_drv.h **** *******************************************************************************/
 913:Generated_Source\PSoC6\pdl\drivers\peripheral\ipc/cy_ipc_drv.h **** __STATIC_INLINE cy_en_ipcdrv_status_t  Cy_IPC_Drv_SendMsgPtr(IPC_STRUCT_Type* base, uint32_t notify
 914:Generated_Source\PSoC6\pdl\drivers\peripheral\ipc/cy_ipc_drv.h **** {
 130              		.loc 1 914 0
 131              		.cfi_startproc
 132              		@ args = 0, pretend = 0, frame = 16
 133              		@ frame_needed = 1, uses_anonymous_args = 0
 134 0000 80B5     		push	{r7, lr}
 135              		.cfi_def_cfa_offset 8
 136              		.cfi_offset 7, -8
 137              		.cfi_offset 14, -4
 138 0002 84B0     		sub	sp, sp, #16
 139              		.cfi_def_cfa_offset 24
 140 0004 00AF     		add	r7, sp, #0
 141              		.cfi_def_cfa_register 7
 142 0006 F860     		str	r0, [r7, #12]
 143 0008 B960     		str	r1, [r7, #8]
 144 000a 7A60     		str	r2, [r7, #4]
 915:Generated_Source\PSoC6\pdl\drivers\peripheral\ipc/cy_ipc_drv.h ****     CY_ASSERT_L1(NULL != msgPtr);
 145              		.loc 1 915 0
 146 000c 7B68     		ldr	r3, [r7, #4]
 147 000e 002B     		cmp	r3, #0
 148 0010 04D1     		bne	.L9
 149              		.loc 1 915 0 is_stmt 0 discriminator 1
 150 0012 40F29331 		movw	r1, #915
 151 0016 0748     		ldr	r0, .L11
 152 0018 FFF7FEFF 		bl	Cy_SysLib_AssertFailed
 153              	.L9:
 916:Generated_Source\PSoC6\pdl\drivers\peripheral\ipc/cy_ipc_drv.h ****     return Cy_IPC_Drv_SendMsgWord(base, notifyEventIntr, (uint32_t)msgPtr);
 154              		.loc 1 916 0 is_stmt 1
 155 001c 7B68     		ldr	r3, [r7, #4]
 156 001e 1A46     		mov	r2, r3
 157 0020 B968     		ldr	r1, [r7, #8]
 158 0022 F868     		ldr	r0, [r7, #12]
 159 0024 FFF7FEFF 		bl	Cy_IPC_Drv_SendMsgWord
ARM GAS  C:\Users\tmj32\AppData\Local\Temp\cccOycf1.s 			page 20


 160 0028 0346     		mov	r3, r0
 917:Generated_Source\PSoC6\pdl\drivers\peripheral\ipc/cy_ipc_drv.h **** }
 161              		.loc 1 917 0
 162 002a 1846     		mov	r0, r3
 163 002c 1037     		adds	r7, r7, #16
 164              		.cfi_def_cfa_offset 8
 165 002e BD46     		mov	sp, r7
 166              		.cfi_def_cfa_register 13
 167              		@ sp needed
 168 0030 80BD     		pop	{r7, pc}
 169              	.L12:
 170 0032 00BF     		.align	2
 171              	.L11:
 172 0034 00000000 		.word	.LC0
 173              		.cfi_endproc
 174              	.LFE148:
 175              		.size	Cy_IPC_Drv_SendMsgPtr, .-Cy_IPC_Drv_SendMsgPtr
 176              		.section	.text.Cy_IPC_Drv_LockAcquire,"ax",%progbits
 177              		.align	2
 178              		.thumb
 179              		.thumb_func
 180              		.type	Cy_IPC_Drv_LockAcquire, %function
 181              	Cy_IPC_Drv_LockAcquire:
 182              	.LFB150:
 918:Generated_Source\PSoC6\pdl\drivers\peripheral\ipc/cy_ipc_drv.h **** 
 919:Generated_Source\PSoC6\pdl\drivers\peripheral\ipc/cy_ipc_drv.h **** 
 920:Generated_Source\PSoC6\pdl\drivers\peripheral\ipc/cy_ipc_drv.h **** /*******************************************************************************
 921:Generated_Source\PSoC6\pdl\drivers\peripheral\ipc/cy_ipc_drv.h **** * Function Name: Cy_IPC_Drv_ReadMsgPtr
 922:Generated_Source\PSoC6\pdl\drivers\peripheral\ipc/cy_ipc_drv.h **** ****************************************************************************//**
 923:Generated_Source\PSoC6\pdl\drivers\peripheral\ipc/cy_ipc_drv.h **** *
 924:Generated_Source\PSoC6\pdl\drivers\peripheral\ipc/cy_ipc_drv.h **** * This function is used to read a 32-bit pointer message through an IPC channel.
 925:Generated_Source\PSoC6\pdl\drivers\peripheral\ipc/cy_ipc_drv.h **** *
 926:Generated_Source\PSoC6\pdl\drivers\peripheral\ipc/cy_ipc_drv.h **** * \param base
 927:Generated_Source\PSoC6\pdl\drivers\peripheral\ipc/cy_ipc_drv.h **** * This parameter is a handle that represents the base address of the registers
 928:Generated_Source\PSoC6\pdl\drivers\peripheral\ipc/cy_ipc_drv.h **** * of the IPC channel.
 929:Generated_Source\PSoC6\pdl\drivers\peripheral\ipc/cy_ipc_drv.h **** * The parameter is generally returned from a call to the \ref
 930:Generated_Source\PSoC6\pdl\drivers\peripheral\ipc/cy_ipc_drv.h **** * Cy_IPC_Drv_GetIpcBaseAddress.
 931:Generated_Source\PSoC6\pdl\drivers\peripheral\ipc/cy_ipc_drv.h **** *
 932:Generated_Source\PSoC6\pdl\drivers\peripheral\ipc/cy_ipc_drv.h **** * \param msgPtr
 933:Generated_Source\PSoC6\pdl\drivers\peripheral\ipc/cy_ipc_drv.h **** * Pointer variable to hold the data pointer that is being read from the IPC
 934:Generated_Source\PSoC6\pdl\drivers\peripheral\ipc/cy_ipc_drv.h **** * channel.
 935:Generated_Source\PSoC6\pdl\drivers\peripheral\ipc/cy_ipc_drv.h **** *
 936:Generated_Source\PSoC6\pdl\drivers\peripheral\ipc/cy_ipc_drv.h **** *
 937:Generated_Source\PSoC6\pdl\drivers\peripheral\ipc/cy_ipc_drv.h **** * \return Status of the operation
 938:Generated_Source\PSoC6\pdl\drivers\peripheral\ipc/cy_ipc_drv.h **** *   \retval CY_IPC_DRV_SUCCESS: The function executed successfully and the IPC
 939:Generated_Source\PSoC6\pdl\drivers\peripheral\ipc/cy_ipc_drv.h **** *                       was acquired.
 940:Generated_Source\PSoC6\pdl\drivers\peripheral\ipc/cy_ipc_drv.h **** *   \retval CY_IPC_DRV_ERROR:   The function encountered an error because the IPC
 941:Generated_Source\PSoC6\pdl\drivers\peripheral\ipc/cy_ipc_drv.h **** *                       channel was already in a released state meaning the data
 942:Generated_Source\PSoC6\pdl\drivers\peripheral\ipc/cy_ipc_drv.h **** *                       in it is invalid.
 943:Generated_Source\PSoC6\pdl\drivers\peripheral\ipc/cy_ipc_drv.h **** *
 944:Generated_Source\PSoC6\pdl\drivers\peripheral\ipc/cy_ipc_drv.h **** * \funcusage
 945:Generated_Source\PSoC6\pdl\drivers\peripheral\ipc/cy_ipc_drv.h **** * \snippet IPC_sut_01.cydsn/main_cm4.c snippet_Cy_IPC_Drv_ReadMsgPtr
 946:Generated_Source\PSoC6\pdl\drivers\peripheral\ipc/cy_ipc_drv.h **** *
 947:Generated_Source\PSoC6\pdl\drivers\peripheral\ipc/cy_ipc_drv.h **** *******************************************************************************/
 948:Generated_Source\PSoC6\pdl\drivers\peripheral\ipc/cy_ipc_drv.h **** __STATIC_INLINE  cy_en_ipcdrv_status_t  Cy_IPC_Drv_ReadMsgPtr (IPC_STRUCT_Type const * base, void *
 949:Generated_Source\PSoC6\pdl\drivers\peripheral\ipc/cy_ipc_drv.h **** {
 950:Generated_Source\PSoC6\pdl\drivers\peripheral\ipc/cy_ipc_drv.h ****     CY_ASSERT_L1(NULL != msgPtr);
ARM GAS  C:\Users\tmj32\AppData\Local\Temp\cccOycf1.s 			page 21


 951:Generated_Source\PSoC6\pdl\drivers\peripheral\ipc/cy_ipc_drv.h ****     return Cy_IPC_Drv_ReadMsgWord(base, (uint32_t *)msgPtr);
 952:Generated_Source\PSoC6\pdl\drivers\peripheral\ipc/cy_ipc_drv.h **** }
 953:Generated_Source\PSoC6\pdl\drivers\peripheral\ipc/cy_ipc_drv.h **** 
 954:Generated_Source\PSoC6\pdl\drivers\peripheral\ipc/cy_ipc_drv.h **** 
 955:Generated_Source\PSoC6\pdl\drivers\peripheral\ipc/cy_ipc_drv.h **** /*******************************************************************************
 956:Generated_Source\PSoC6\pdl\drivers\peripheral\ipc/cy_ipc_drv.h **** * Function Name: Cy_IPC_Drv_LockAcquire
 957:Generated_Source\PSoC6\pdl\drivers\peripheral\ipc/cy_ipc_drv.h **** ****************************************************************************//**
 958:Generated_Source\PSoC6\pdl\drivers\peripheral\ipc/cy_ipc_drv.h **** *
 959:Generated_Source\PSoC6\pdl\drivers\peripheral\ipc/cy_ipc_drv.h **** * This function is used to acquire the IPC channel.
 960:Generated_Source\PSoC6\pdl\drivers\peripheral\ipc/cy_ipc_drv.h **** *
 961:Generated_Source\PSoC6\pdl\drivers\peripheral\ipc/cy_ipc_drv.h **** * \param base
 962:Generated_Source\PSoC6\pdl\drivers\peripheral\ipc/cy_ipc_drv.h **** * This parameter is a handle that represents the base address of the registers
 963:Generated_Source\PSoC6\pdl\drivers\peripheral\ipc/cy_ipc_drv.h **** * of the IPC channel.
 964:Generated_Source\PSoC6\pdl\drivers\peripheral\ipc/cy_ipc_drv.h **** * The parameter is generally returned from a call to the \ref
 965:Generated_Source\PSoC6\pdl\drivers\peripheral\ipc/cy_ipc_drv.h **** * Cy_IPC_Drv_GetIpcBaseAddress
 966:Generated_Source\PSoC6\pdl\drivers\peripheral\ipc/cy_ipc_drv.h **** *
 967:Generated_Source\PSoC6\pdl\drivers\peripheral\ipc/cy_ipc_drv.h **** * \return   Status of the operation
 968:Generated_Source\PSoC6\pdl\drivers\peripheral\ipc/cy_ipc_drv.h **** *   \retval CY_IPC_DRV_SUCCESS: The IPC was successfully acquired
 969:Generated_Source\PSoC6\pdl\drivers\peripheral\ipc/cy_ipc_drv.h **** *   \retval CY_IPC_DRV_ERROR:   The IPC was not acquired because it was already acquired
 970:Generated_Source\PSoC6\pdl\drivers\peripheral\ipc/cy_ipc_drv.h **** *                       by another master
 971:Generated_Source\PSoC6\pdl\drivers\peripheral\ipc/cy_ipc_drv.h **** *
 972:Generated_Source\PSoC6\pdl\drivers\peripheral\ipc/cy_ipc_drv.h **** * \funcusage
 973:Generated_Source\PSoC6\pdl\drivers\peripheral\ipc/cy_ipc_drv.h **** * \snippet IPC_sut_01.cydsn/main_cm4.c snippet_Cy_IPC_Drv_LockAcquire
 974:Generated_Source\PSoC6\pdl\drivers\peripheral\ipc/cy_ipc_drv.h **** *
 975:Generated_Source\PSoC6\pdl\drivers\peripheral\ipc/cy_ipc_drv.h **** *******************************************************************************/
 976:Generated_Source\PSoC6\pdl\drivers\peripheral\ipc/cy_ipc_drv.h **** __STATIC_INLINE cy_en_ipcdrv_status_t Cy_IPC_Drv_LockAcquire (IPC_STRUCT_Type const * base)
 977:Generated_Source\PSoC6\pdl\drivers\peripheral\ipc/cy_ipc_drv.h **** {
 183              		.loc 1 977 0
 184              		.cfi_startproc
 185              		@ args = 0, pretend = 0, frame = 8
 186              		@ frame_needed = 1, uses_anonymous_args = 0
 187              		@ link register save eliminated.
 188 0000 80B4     		push	{r7}
 189              		.cfi_def_cfa_offset 4
 190              		.cfi_offset 7, -4
 191 0002 83B0     		sub	sp, sp, #12
 192              		.cfi_def_cfa_offset 16
 193 0004 00AF     		add	r7, sp, #0
 194              		.cfi_def_cfa_register 7
 195 0006 7860     		str	r0, [r7, #4]
 978:Generated_Source\PSoC6\pdl\drivers\peripheral\ipc/cy_ipc_drv.h ****     return ( 0ul != _FLD2VAL(IPC_STRUCT_ACQUIRE_SUCCESS, REG_IPC_STRUCT_ACQUIRE(base))) ? CY_IPC_DR
 196              		.loc 1 978 0
 197 0008 7B68     		ldr	r3, [r7, #4]
 198 000a 1B68     		ldr	r3, [r3]
 199 000c 03F00043 		and	r3, r3, #-2147483648
 200 0010 002B     		cmp	r3, #0
 201 0012 01DA     		bge	.L14
 202              		.loc 1 978 0 is_stmt 0 discriminator 1
 203 0014 0023     		movs	r3, #0
 204 0016 00E0     		b	.L16
 205              	.L14:
 206              		.loc 1 978 0 discriminator 2
 207 0018 034B     		ldr	r3, .L17
 208              	.L16:
 979:Generated_Source\PSoC6\pdl\drivers\peripheral\ipc/cy_ipc_drv.h **** }
 209              		.loc 1 979 0 is_stmt 1 discriminator 5
 210 001a 1846     		mov	r0, r3
ARM GAS  C:\Users\tmj32\AppData\Local\Temp\cccOycf1.s 			page 22


 211 001c 0C37     		adds	r7, r7, #12
 212              		.cfi_def_cfa_offset 4
 213 001e BD46     		mov	sp, r7
 214              		.cfi_def_cfa_register 13
 215              		@ sp needed
 216 0020 5DF8047B 		ldr	r7, [sp], #4
 217              		.cfi_restore 7
 218              		.cfi_def_cfa_offset 0
 219 0024 7047     		bx	lr
 220              	.L18:
 221 0026 00BF     		.align	2
 222              	.L17:
 223 0028 01008A00 		.word	9043969
 224              		.cfi_endproc
 225              	.LFE150:
 226              		.size	Cy_IPC_Drv_LockAcquire, .-Cy_IPC_Drv_LockAcquire
 227              		.bss
 228              		.align	2
 229              	cy_semaIpcStruct:
 230 0000 00000000 		.space	4
 231              		.section	.text.Cy_IPC_Sema_Init,"ax",%progbits
 232              		.align	2
 233              		.global	Cy_IPC_Sema_Init
 234              		.thumb
 235              		.thumb_func
 236              		.type	Cy_IPC_Sema_Init, %function
 237              	Cy_IPC_Sema_Init:
 238              	.LFB151:
 239              		.file 2 "Generated_Source\\PSoC6\\pdl\\drivers\\peripheral\\ipc\\cy_ipc_sema.c"
   1:Generated_Source\PSoC6\pdl\drivers\peripheral\ipc/cy_ipc_sema.c **** /***************************************************************************//**
   2:Generated_Source\PSoC6\pdl\drivers\peripheral\ipc/cy_ipc_sema.c **** * \file cy_ipc_sema.c
   3:Generated_Source\PSoC6\pdl\drivers\peripheral\ipc/cy_ipc_sema.c **** * \version 1.30
   4:Generated_Source\PSoC6\pdl\drivers\peripheral\ipc/cy_ipc_sema.c **** *
   5:Generated_Source\PSoC6\pdl\drivers\peripheral\ipc/cy_ipc_sema.c **** *  Description:
   6:Generated_Source\PSoC6\pdl\drivers\peripheral\ipc/cy_ipc_sema.c **** *   IPC Semaphore Driver - This source file contains the source code for the
   7:Generated_Source\PSoC6\pdl\drivers\peripheral\ipc/cy_ipc_sema.c **** *   semaphore level APIs for the IPC interface.
   8:Generated_Source\PSoC6\pdl\drivers\peripheral\ipc/cy_ipc_sema.c **** *
   9:Generated_Source\PSoC6\pdl\drivers\peripheral\ipc/cy_ipc_sema.c **** ********************************************************************************
  10:Generated_Source\PSoC6\pdl\drivers\peripheral\ipc/cy_ipc_sema.c **** * Copyright 2016-2018, Cypress Semiconductor Corporation.  All rights reserved.
  11:Generated_Source\PSoC6\pdl\drivers\peripheral\ipc/cy_ipc_sema.c **** * You may use this file only in accordance with the license, terms, conditions,
  12:Generated_Source\PSoC6\pdl\drivers\peripheral\ipc/cy_ipc_sema.c **** * disclaimers, and limitations in the end user license agreement accompanying
  13:Generated_Source\PSoC6\pdl\drivers\peripheral\ipc/cy_ipc_sema.c **** * the software package with which this file was provided.
  14:Generated_Source\PSoC6\pdl\drivers\peripheral\ipc/cy_ipc_sema.c **** *******************************************************************************/
  15:Generated_Source\PSoC6\pdl\drivers\peripheral\ipc/cy_ipc_sema.c **** 
  16:Generated_Source\PSoC6\pdl\drivers\peripheral\ipc/cy_ipc_sema.c **** #include "cy_ipc_drv.h"
  17:Generated_Source\PSoC6\pdl\drivers\peripheral\ipc/cy_ipc_sema.c **** #include "cy_ipc_sema.h"
  18:Generated_Source\PSoC6\pdl\drivers\peripheral\ipc/cy_ipc_sema.c **** #include "cy_syslib.h"
  19:Generated_Source\PSoC6\pdl\drivers\peripheral\ipc/cy_ipc_sema.c **** #include <string.h> /* The memset() definition */
  20:Generated_Source\PSoC6\pdl\drivers\peripheral\ipc/cy_ipc_sema.c **** 
  21:Generated_Source\PSoC6\pdl\drivers\peripheral\ipc/cy_ipc_sema.c **** /* Defines a mask to Check if semaphore count is a multiple of 32 */
  22:Generated_Source\PSoC6\pdl\drivers\peripheral\ipc/cy_ipc_sema.c **** #define CY_IPC_SEMA_PER_WORD_MASK    (CY_IPC_SEMA_PER_WORD - 1ul)
  23:Generated_Source\PSoC6\pdl\drivers\peripheral\ipc/cy_ipc_sema.c **** 
  24:Generated_Source\PSoC6\pdl\drivers\peripheral\ipc/cy_ipc_sema.c **** /* Pointer to IPC structure used for semaphores */
  25:Generated_Source\PSoC6\pdl\drivers\peripheral\ipc/cy_ipc_sema.c **** static IPC_STRUCT_Type* cy_semaIpcStruct;
  26:Generated_Source\PSoC6\pdl\drivers\peripheral\ipc/cy_ipc_sema.c **** 
  27:Generated_Source\PSoC6\pdl\drivers\peripheral\ipc/cy_ipc_sema.c **** 
  28:Generated_Source\PSoC6\pdl\drivers\peripheral\ipc/cy_ipc_sema.c **** /*******************************************************************************
ARM GAS  C:\Users\tmj32\AppData\Local\Temp\cccOycf1.s 			page 23


  29:Generated_Source\PSoC6\pdl\drivers\peripheral\ipc/cy_ipc_sema.c **** * Function Name: Cy_IPC_Sema_Init
  30:Generated_Source\PSoC6\pdl\drivers\peripheral\ipc/cy_ipc_sema.c **** ****************************************************************************//**
  31:Generated_Source\PSoC6\pdl\drivers\peripheral\ipc/cy_ipc_sema.c **** *
  32:Generated_Source\PSoC6\pdl\drivers\peripheral\ipc/cy_ipc_sema.c **** * This function initializes the semaphores subsystem. The user must create an
  33:Generated_Source\PSoC6\pdl\drivers\peripheral\ipc/cy_ipc_sema.c **** * array of unsigned 32-bit words to hold the semaphore bits. The number
  34:Generated_Source\PSoC6\pdl\drivers\peripheral\ipc/cy_ipc_sema.c **** * of semaphores will be the size of the array * 32. The total semaphores count
  35:Generated_Source\PSoC6\pdl\drivers\peripheral\ipc/cy_ipc_sema.c **** * will always be a multiple of 32.
  36:Generated_Source\PSoC6\pdl\drivers\peripheral\ipc/cy_ipc_sema.c **** *
  37:Generated_Source\PSoC6\pdl\drivers\peripheral\ipc/cy_ipc_sema.c **** * \note In a multi-CPU system this init function should be called with all
  38:Generated_Source\PSoC6\pdl\drivers\peripheral\ipc/cy_ipc_sema.c **** * initialized parameters on one CPU only to provide a pointer to SRAM that can
  39:Generated_Source\PSoC6\pdl\drivers\peripheral\ipc/cy_ipc_sema.c **** * be shared between all the CPUs in the system that will use semaphores.
  40:Generated_Source\PSoC6\pdl\drivers\peripheral\ipc/cy_ipc_sema.c **** * On other CPUs user must specify the IPC semaphores channel and pass 0 / NULL
  41:Generated_Source\PSoC6\pdl\drivers\peripheral\ipc/cy_ipc_sema.c **** * to count and memPtr parameters correspondingly.
  42:Generated_Source\PSoC6\pdl\drivers\peripheral\ipc/cy_ipc_sema.c **** *
  43:Generated_Source\PSoC6\pdl\drivers\peripheral\ipc/cy_ipc_sema.c **** * \param ipcChannel
  44:Generated_Source\PSoC6\pdl\drivers\peripheral\ipc/cy_ipc_sema.c **** * The IPC channel number used for semaphores
  45:Generated_Source\PSoC6\pdl\drivers\peripheral\ipc/cy_ipc_sema.c **** *
  46:Generated_Source\PSoC6\pdl\drivers\peripheral\ipc/cy_ipc_sema.c **** * \param count
  47:Generated_Source\PSoC6\pdl\drivers\peripheral\ipc/cy_ipc_sema.c **** *  The maximum number of semaphores to be supported (multiple of 32).
  48:Generated_Source\PSoC6\pdl\drivers\peripheral\ipc/cy_ipc_sema.c **** *
  49:Generated_Source\PSoC6\pdl\drivers\peripheral\ipc/cy_ipc_sema.c **** * \param memPtr
  50:Generated_Source\PSoC6\pdl\drivers\peripheral\ipc/cy_ipc_sema.c **** *  This points to the array of (count/32) words that contain the semaphore data.
  51:Generated_Source\PSoC6\pdl\drivers\peripheral\ipc/cy_ipc_sema.c **** *
  52:Generated_Source\PSoC6\pdl\drivers\peripheral\ipc/cy_ipc_sema.c **** * \return Status of the operation
  53:Generated_Source\PSoC6\pdl\drivers\peripheral\ipc/cy_ipc_sema.c **** *    \retval CY_IPC_SEMA_SUCCESS: Successfully initialized
  54:Generated_Source\PSoC6\pdl\drivers\peripheral\ipc/cy_ipc_sema.c **** *    \retval CY_IPC_SEMA_BAD_PARAM:     Memory pointer is NULL and count is not zero,
  55:Generated_Source\PSoC6\pdl\drivers\peripheral\ipc/cy_ipc_sema.c **** *                             or count not multiple of 32
  56:Generated_Source\PSoC6\pdl\drivers\peripheral\ipc/cy_ipc_sema.c **** *    \retval CY_IPC_SEMA_ERROR_LOCKED:  Could not acquire semaphores IPC channel
  57:Generated_Source\PSoC6\pdl\drivers\peripheral\ipc/cy_ipc_sema.c **** *
  58:Generated_Source\PSoC6\pdl\drivers\peripheral\ipc/cy_ipc_sema.c **** * \funcusage
  59:Generated_Source\PSoC6\pdl\drivers\peripheral\ipc/cy_ipc_sema.c **** * \snippet IPC_sut_01.cydsn/main_cm4.c snippet_Cy_IPC_Sema_Init
  60:Generated_Source\PSoC6\pdl\drivers\peripheral\ipc/cy_ipc_sema.c **** *
  61:Generated_Source\PSoC6\pdl\drivers\peripheral\ipc/cy_ipc_sema.c **** *******************************************************************************/
  62:Generated_Source\PSoC6\pdl\drivers\peripheral\ipc/cy_ipc_sema.c **** cy_en_ipcsema_status_t Cy_IPC_Sema_Init(uint32_t ipcChannel,
  63:Generated_Source\PSoC6\pdl\drivers\peripheral\ipc/cy_ipc_sema.c ****                                         uint32_t count, uint32_t memPtr[])
  64:Generated_Source\PSoC6\pdl\drivers\peripheral\ipc/cy_ipc_sema.c **** {
 240              		.loc 2 64 0
 241              		.cfi_startproc
 242              		@ args = 0, pretend = 0, frame = 24
 243              		@ frame_needed = 1, uses_anonymous_args = 0
 244 0000 80B5     		push	{r7, lr}
 245              		.cfi_def_cfa_offset 8
 246              		.cfi_offset 7, -8
 247              		.cfi_offset 14, -4
 248 0002 86B0     		sub	sp, sp, #24
 249              		.cfi_def_cfa_offset 32
 250 0004 00AF     		add	r7, sp, #0
 251              		.cfi_def_cfa_register 7
 252 0006 F860     		str	r0, [r7, #12]
 253 0008 B960     		str	r1, [r7, #8]
 254 000a 7A60     		str	r2, [r7, #4]
  65:Generated_Source\PSoC6\pdl\drivers\peripheral\ipc/cy_ipc_sema.c ****     /* Structure containing semaphores control data */
  66:Generated_Source\PSoC6\pdl\drivers\peripheral\ipc/cy_ipc_sema.c ****     static cy_stc_ipc_sema_t       cy_semaData;
  67:Generated_Source\PSoC6\pdl\drivers\peripheral\ipc/cy_ipc_sema.c **** 
  68:Generated_Source\PSoC6\pdl\drivers\peripheral\ipc/cy_ipc_sema.c ****     cy_en_ipcsema_status_t retStatus = CY_IPC_SEMA_BAD_PARAM;
 255              		.loc 2 68 0
 256 000c 144B     		ldr	r3, .L24
ARM GAS  C:\Users\tmj32\AppData\Local\Temp\cccOycf1.s 			page 24


 257 000e 7B61     		str	r3, [r7, #20]
  69:Generated_Source\PSoC6\pdl\drivers\peripheral\ipc/cy_ipc_sema.c **** 
  70:Generated_Source\PSoC6\pdl\drivers\peripheral\ipc/cy_ipc_sema.c ****     if( (NULL == memPtr) && (0u == count))
 258              		.loc 2 70 0
 259 0010 7B68     		ldr	r3, [r7, #4]
 260 0012 002B     		cmp	r3, #0
 261 0014 0BD1     		bne	.L20
 262              		.loc 2 70 0 is_stmt 0 discriminator 1
 263 0016 BB68     		ldr	r3, [r7, #8]
 264 0018 002B     		cmp	r3, #0
 265 001a 08D1     		bne	.L20
  71:Generated_Source\PSoC6\pdl\drivers\peripheral\ipc/cy_ipc_sema.c ****     {
  72:Generated_Source\PSoC6\pdl\drivers\peripheral\ipc/cy_ipc_sema.c ****         cy_semaIpcStruct = Cy_IPC_Drv_GetIpcBaseAddress(ipcChannel);
 266              		.loc 2 72 0 is_stmt 1
 267 001c F868     		ldr	r0, [r7, #12]
 268 001e FFF7FEFF 		bl	Cy_IPC_Drv_GetIpcBaseAddress
 269 0022 0246     		mov	r2, r0
 270 0024 0F4B     		ldr	r3, .L24+4
 271 0026 1A60     		str	r2, [r3]
  73:Generated_Source\PSoC6\pdl\drivers\peripheral\ipc/cy_ipc_sema.c **** 
  74:Generated_Source\PSoC6\pdl\drivers\peripheral\ipc/cy_ipc_sema.c ****         retStatus = CY_IPC_SEMA_SUCCESS;
 272              		.loc 2 74 0
 273 0028 0023     		movs	r3, #0
 274 002a 7B61     		str	r3, [r7, #20]
 275 002c 13E0     		b	.L21
 276              	.L20:
  75:Generated_Source\PSoC6\pdl\drivers\peripheral\ipc/cy_ipc_sema.c ****     }
  76:Generated_Source\PSoC6\pdl\drivers\peripheral\ipc/cy_ipc_sema.c **** 
  77:Generated_Source\PSoC6\pdl\drivers\peripheral\ipc/cy_ipc_sema.c ****     /* Check for non Null pointers and count value */
  78:Generated_Source\PSoC6\pdl\drivers\peripheral\ipc/cy_ipc_sema.c ****     else if ((NULL != memPtr) && (0u != count))
 277              		.loc 2 78 0
 278 002e 7B68     		ldr	r3, [r7, #4]
 279 0030 002B     		cmp	r3, #0
 280 0032 0ED0     		beq	.L22
 281              		.loc 2 78 0 is_stmt 0 discriminator 1
 282 0034 BB68     		ldr	r3, [r7, #8]
 283 0036 002B     		cmp	r3, #0
 284 0038 0BD0     		beq	.L22
  79:Generated_Source\PSoC6\pdl\drivers\peripheral\ipc/cy_ipc_sema.c ****     {
  80:Generated_Source\PSoC6\pdl\drivers\peripheral\ipc/cy_ipc_sema.c ****         cy_semaData.maxSema  = count;
 285              		.loc 2 80 0 is_stmt 1
 286 003a 0B4A     		ldr	r2, .L24+8
 287 003c BB68     		ldr	r3, [r7, #8]
 288 003e 1360     		str	r3, [r2]
  81:Generated_Source\PSoC6\pdl\drivers\peripheral\ipc/cy_ipc_sema.c ****         cy_semaData.arrayPtr = memPtr;
 289              		.loc 2 81 0
 290 0040 094A     		ldr	r2, .L24+8
 291 0042 7B68     		ldr	r3, [r7, #4]
 292 0044 5360     		str	r3, [r2, #4]
  82:Generated_Source\PSoC6\pdl\drivers\peripheral\ipc/cy_ipc_sema.c **** 
  83:Generated_Source\PSoC6\pdl\drivers\peripheral\ipc/cy_ipc_sema.c ****         retStatus = Cy_IPC_Sema_InitExt(ipcChannel, &cy_semaData);
 293              		.loc 2 83 0
 294 0046 0849     		ldr	r1, .L24+8
 295 0048 F868     		ldr	r0, [r7, #12]
 296 004a FFF7FEFF 		bl	Cy_IPC_Sema_InitExt
 297 004e 7861     		str	r0, [r7, #20]
 298 0050 01E0     		b	.L21
ARM GAS  C:\Users\tmj32\AppData\Local\Temp\cccOycf1.s 			page 25


 299              	.L22:
  84:Generated_Source\PSoC6\pdl\drivers\peripheral\ipc/cy_ipc_sema.c ****     }
  85:Generated_Source\PSoC6\pdl\drivers\peripheral\ipc/cy_ipc_sema.c ****     
  86:Generated_Source\PSoC6\pdl\drivers\peripheral\ipc/cy_ipc_sema.c ****     else
  87:Generated_Source\PSoC6\pdl\drivers\peripheral\ipc/cy_ipc_sema.c ****     {
  88:Generated_Source\PSoC6\pdl\drivers\peripheral\ipc/cy_ipc_sema.c ****         retStatus = CY_IPC_SEMA_BAD_PARAM;
 300              		.loc 2 88 0
 301 0052 034B     		ldr	r3, .L24
 302 0054 7B61     		str	r3, [r7, #20]
 303              	.L21:
  89:Generated_Source\PSoC6\pdl\drivers\peripheral\ipc/cy_ipc_sema.c ****     }
  90:Generated_Source\PSoC6\pdl\drivers\peripheral\ipc/cy_ipc_sema.c **** 
  91:Generated_Source\PSoC6\pdl\drivers\peripheral\ipc/cy_ipc_sema.c ****     return(retStatus);
 304              		.loc 2 91 0
 305 0056 7B69     		ldr	r3, [r7, #20]
  92:Generated_Source\PSoC6\pdl\drivers\peripheral\ipc/cy_ipc_sema.c **** }
 306              		.loc 2 92 0
 307 0058 1846     		mov	r0, r3
 308 005a 1837     		adds	r7, r7, #24
 309              		.cfi_def_cfa_offset 8
 310 005c BD46     		mov	sp, r7
 311              		.cfi_def_cfa_register 13
 312              		@ sp needed
 313 005e 80BD     		pop	{r7, pc}
 314              	.L25:
 315              		.align	2
 316              	.L24:
 317 0060 03018A00 		.word	9044227
 318 0064 00000000 		.word	cy_semaIpcStruct
 319 0068 04000000 		.word	cy_semaData.10638
 320              		.cfi_endproc
 321              	.LFE151:
 322              		.size	Cy_IPC_Sema_Init, .-Cy_IPC_Sema_Init
 323              		.section	.text.Cy_IPC_Sema_InitExt,"ax",%progbits
 324              		.align	2
 325              		.global	Cy_IPC_Sema_InitExt
 326              		.thumb
 327              		.thumb_func
 328              		.type	Cy_IPC_Sema_InitExt, %function
 329              	Cy_IPC_Sema_InitExt:
 330              	.LFB152:
  93:Generated_Source\PSoC6\pdl\drivers\peripheral\ipc/cy_ipc_sema.c **** 
  94:Generated_Source\PSoC6\pdl\drivers\peripheral\ipc/cy_ipc_sema.c **** 
  95:Generated_Source\PSoC6\pdl\drivers\peripheral\ipc/cy_ipc_sema.c **** /*******************************************************************************
  96:Generated_Source\PSoC6\pdl\drivers\peripheral\ipc/cy_ipc_sema.c **** * Function Name: Cy_IPC_Sema_InitExt
  97:Generated_Source\PSoC6\pdl\drivers\peripheral\ipc/cy_ipc_sema.c **** ****************************************************************************//**
  98:Generated_Source\PSoC6\pdl\drivers\peripheral\ipc/cy_ipc_sema.c **** * This function initializes the semaphores subsystem. The user must create an
  99:Generated_Source\PSoC6\pdl\drivers\peripheral\ipc/cy_ipc_sema.c **** * array of unsigned 32-bit words to hold the semaphore bits. The number
 100:Generated_Source\PSoC6\pdl\drivers\peripheral\ipc/cy_ipc_sema.c **** * of semaphores will be the size of the array * 32. The total semaphores count
 101:Generated_Source\PSoC6\pdl\drivers\peripheral\ipc/cy_ipc_sema.c **** * will always be a multiple of 32.
 102:Generated_Source\PSoC6\pdl\drivers\peripheral\ipc/cy_ipc_sema.c **** *
 103:Generated_Source\PSoC6\pdl\drivers\peripheral\ipc/cy_ipc_sema.c **** * \note In a multi-CPU system this init function should be called with all
 104:Generated_Source\PSoC6\pdl\drivers\peripheral\ipc/cy_ipc_sema.c **** * initialized parameters on one CPU only to provide a pointer to SRAM that can
 105:Generated_Source\PSoC6\pdl\drivers\peripheral\ipc/cy_ipc_sema.c **** * be shared between all the CPUs in the system that will use semaphores.
 106:Generated_Source\PSoC6\pdl\drivers\peripheral\ipc/cy_ipc_sema.c **** * On other CPUs user must specify the IPC semaphores channel and pass 0 / NULL
 107:Generated_Source\PSoC6\pdl\drivers\peripheral\ipc/cy_ipc_sema.c **** * to count and memPtr parameters correspondingly.
 108:Generated_Source\PSoC6\pdl\drivers\peripheral\ipc/cy_ipc_sema.c **** *
ARM GAS  C:\Users\tmj32\AppData\Local\Temp\cccOycf1.s 			page 26


 109:Generated_Source\PSoC6\pdl\drivers\peripheral\ipc/cy_ipc_sema.c **** * \param ipcChannel
 110:Generated_Source\PSoC6\pdl\drivers\peripheral\ipc/cy_ipc_sema.c **** * The IPC channel number used for semaphores
 111:Generated_Source\PSoC6\pdl\drivers\peripheral\ipc/cy_ipc_sema.c **** *
 112:Generated_Source\PSoC6\pdl\drivers\peripheral\ipc/cy_ipc_sema.c **** * \param ipcSema
 113:Generated_Source\PSoC6\pdl\drivers\peripheral\ipc/cy_ipc_sema.c **** *  This is configuration structure of the IPC semaphore. 
 114:Generated_Source\PSoC6\pdl\drivers\peripheral\ipc/cy_ipc_sema.c **** *  See \ref cy_stc_ipc_sema_t.
 115:Generated_Source\PSoC6\pdl\drivers\peripheral\ipc/cy_ipc_sema.c **** *
 116:Generated_Source\PSoC6\pdl\drivers\peripheral\ipc/cy_ipc_sema.c **** * \return Status of the operation
 117:Generated_Source\PSoC6\pdl\drivers\peripheral\ipc/cy_ipc_sema.c **** *    \retval CY_IPC_SEMA_SUCCESS: Successfully initialized
 118:Generated_Source\PSoC6\pdl\drivers\peripheral\ipc/cy_ipc_sema.c **** *    \retval CY_IPC_SEMA_BAD_PARAM:     Memory pointer is NULL and count is not zero,
 119:Generated_Source\PSoC6\pdl\drivers\peripheral\ipc/cy_ipc_sema.c **** *                             or count not multiple of 32
 120:Generated_Source\PSoC6\pdl\drivers\peripheral\ipc/cy_ipc_sema.c **** *    \retval CY_IPC_SEMA_ERROR_LOCKED:  Could not acquire semaphores IPC channel
 121:Generated_Source\PSoC6\pdl\drivers\peripheral\ipc/cy_ipc_sema.c **** * 
 122:Generated_Source\PSoC6\pdl\drivers\peripheral\ipc/cy_ipc_sema.c **** *******************************************************************************/
 123:Generated_Source\PSoC6\pdl\drivers\peripheral\ipc/cy_ipc_sema.c **** cy_en_ipcsema_status_t Cy_IPC_Sema_InitExt(uint32_t ipcChannel, cy_stc_ipc_sema_t *ipcSema)
 124:Generated_Source\PSoC6\pdl\drivers\peripheral\ipc/cy_ipc_sema.c **** {
 331              		.loc 2 124 0
 332              		.cfi_startproc
 333              		@ args = 0, pretend = 0, frame = 16
 334              		@ frame_needed = 1, uses_anonymous_args = 0
 335 0000 80B5     		push	{r7, lr}
 336              		.cfi_def_cfa_offset 8
 337              		.cfi_offset 7, -8
 338              		.cfi_offset 14, -4
 339 0002 84B0     		sub	sp, sp, #16
 340              		.cfi_def_cfa_offset 24
 341 0004 00AF     		add	r7, sp, #0
 342              		.cfi_def_cfa_register 7
 343 0006 7860     		str	r0, [r7, #4]
 344 0008 3960     		str	r1, [r7]
 125:Generated_Source\PSoC6\pdl\drivers\peripheral\ipc/cy_ipc_sema.c ****     cy_en_ipcsema_status_t retStatus = CY_IPC_SEMA_BAD_PARAM;
 345              		.loc 2 125 0
 346 000a 284B     		ldr	r3, .L37
 347 000c FB60     		str	r3, [r7, #12]
 126:Generated_Source\PSoC6\pdl\drivers\peripheral\ipc/cy_ipc_sema.c **** 
 127:Generated_Source\PSoC6\pdl\drivers\peripheral\ipc/cy_ipc_sema.c ****     if (ipcChannel >= CY_IPC_CHANNELS)
 348              		.loc 2 127 0
 349 000e 284B     		ldr	r3, .L37+4
 350 0010 1B68     		ldr	r3, [r3]
 351 0012 93F83130 		ldrb	r3, [r3, #49]	@ zero_extendqisi2
 352 0016 1A46     		mov	r2, r3
 353 0018 7B68     		ldr	r3, [r7, #4]
 354 001a 9A42     		cmp	r2, r3
 355 001c 02D8     		bhi	.L27
 128:Generated_Source\PSoC6\pdl\drivers\peripheral\ipc/cy_ipc_sema.c ****     {
 129:Generated_Source\PSoC6\pdl\drivers\peripheral\ipc/cy_ipc_sema.c ****         retStatus = CY_IPC_SEMA_BAD_PARAM;
 356              		.loc 2 129 0
 357 001e 234B     		ldr	r3, .L37
 358 0020 FB60     		str	r3, [r7, #12]
 359 0022 3EE0     		b	.L28
 360              	.L27:
 130:Generated_Source\PSoC6\pdl\drivers\peripheral\ipc/cy_ipc_sema.c ****     }
 131:Generated_Source\PSoC6\pdl\drivers\peripheral\ipc/cy_ipc_sema.c ****     else
 132:Generated_Source\PSoC6\pdl\drivers\peripheral\ipc/cy_ipc_sema.c ****     {
 133:Generated_Source\PSoC6\pdl\drivers\peripheral\ipc/cy_ipc_sema.c ****         if(NULL != ipcSema)
 361              		.loc 2 133 0
 362 0024 3B68     		ldr	r3, [r7]
ARM GAS  C:\Users\tmj32\AppData\Local\Temp\cccOycf1.s 			page 27


 363 0026 002B     		cmp	r3, #0
 364 0028 39D0     		beq	.L29
 134:Generated_Source\PSoC6\pdl\drivers\peripheral\ipc/cy_ipc_sema.c ****         {
 135:Generated_Source\PSoC6\pdl\drivers\peripheral\ipc/cy_ipc_sema.c ****             /* Check if semaphore count is a multiple of 32 */
 136:Generated_Source\PSoC6\pdl\drivers\peripheral\ipc/cy_ipc_sema.c ****             if( 0ul == (ipcSema->maxSema & CY_IPC_SEMA_PER_WORD_MASK))
 365              		.loc 2 136 0
 366 002a 3B68     		ldr	r3, [r7]
 367 002c 1B68     		ldr	r3, [r3]
 368 002e 03F01F03 		and	r3, r3, #31
 369 0032 002B     		cmp	r3, #0
 370 0034 30D1     		bne	.L30
 137:Generated_Source\PSoC6\pdl\drivers\peripheral\ipc/cy_ipc_sema.c ****             {
 138:Generated_Source\PSoC6\pdl\drivers\peripheral\ipc/cy_ipc_sema.c ****                 cy_semaIpcStruct = Cy_IPC_Drv_GetIpcBaseAddress(ipcChannel);
 371              		.loc 2 138 0
 372 0036 7868     		ldr	r0, [r7, #4]
 373 0038 FFF7FEFF 		bl	Cy_IPC_Drv_GetIpcBaseAddress
 374 003c 0246     		mov	r2, r0
 375 003e 1D4B     		ldr	r3, .L37+8
 376 0040 1A60     		str	r2, [r3]
 139:Generated_Source\PSoC6\pdl\drivers\peripheral\ipc/cy_ipc_sema.c **** 
 140:Generated_Source\PSoC6\pdl\drivers\peripheral\ipc/cy_ipc_sema.c ****                 /* Initialize all semaphores to released */
 141:Generated_Source\PSoC6\pdl\drivers\peripheral\ipc/cy_ipc_sema.c ****                 (void)memset(ipcSema->arrayPtr, 0, (ipcSema->maxSema /8u));
 377              		.loc 2 141 0
 378 0042 3B68     		ldr	r3, [r7]
 379 0044 5868     		ldr	r0, [r3, #4]
 380 0046 3B68     		ldr	r3, [r7]
 381 0048 1B68     		ldr	r3, [r3]
 382 004a DB08     		lsrs	r3, r3, #3
 383 004c 1A46     		mov	r2, r3
 384 004e 0021     		movs	r1, #0
 385 0050 FFF7FEFF 		bl	memset
 142:Generated_Source\PSoC6\pdl\drivers\peripheral\ipc/cy_ipc_sema.c **** 
 143:Generated_Source\PSoC6\pdl\drivers\peripheral\ipc/cy_ipc_sema.c ****                 /* Make sure semaphores start out released.  */
 144:Generated_Source\PSoC6\pdl\drivers\peripheral\ipc/cy_ipc_sema.c ****                 /* Ignore the return value since it is OK if it was already released. */
 145:Generated_Source\PSoC6\pdl\drivers\peripheral\ipc/cy_ipc_sema.c ****                 (void) Cy_IPC_Drv_LockRelease (cy_semaIpcStruct, CY_IPC_NO_NOTIFICATION);
 386              		.loc 2 145 0
 387 0054 174B     		ldr	r3, .L37+8
 388 0056 1B68     		ldr	r3, [r3]
 389 0058 0021     		movs	r1, #0
 390 005a 1846     		mov	r0, r3
 391 005c FFF7FEFF 		bl	Cy_IPC_Drv_LockRelease
 146:Generated_Source\PSoC6\pdl\drivers\peripheral\ipc/cy_ipc_sema.c **** 
 147:Generated_Source\PSoC6\pdl\drivers\peripheral\ipc/cy_ipc_sema.c ****                  /* Set the IPC Data with the pointer to the array. */
 148:Generated_Source\PSoC6\pdl\drivers\peripheral\ipc/cy_ipc_sema.c ****                 if( CY_IPC_DRV_SUCCESS == Cy_IPC_Drv_SendMsgPtr (cy_semaIpcStruct, CY_IPC_NO_NOTIFI
 392              		.loc 2 148 0
 393 0060 144B     		ldr	r3, .L37+8
 394 0062 1B68     		ldr	r3, [r3]
 395 0064 3A68     		ldr	r2, [r7]
 396 0066 0021     		movs	r1, #0
 397 0068 1846     		mov	r0, r3
 398 006a FFF7FEFF 		bl	Cy_IPC_Drv_SendMsgPtr
 399 006e 0346     		mov	r3, r0
 400 0070 002B     		cmp	r3, #0
 401 0072 0ED1     		bne	.L31
 149:Generated_Source\PSoC6\pdl\drivers\peripheral\ipc/cy_ipc_sema.c ****                 {
 150:Generated_Source\PSoC6\pdl\drivers\peripheral\ipc/cy_ipc_sema.c ****                     if(CY_IPC_DRV_SUCCESS == Cy_IPC_Drv_LockRelease (cy_semaIpcStruct, CY_IPC_NO_NO
 402              		.loc 2 150 0
ARM GAS  C:\Users\tmj32\AppData\Local\Temp\cccOycf1.s 			page 28


 403 0074 0F4B     		ldr	r3, .L37+8
 404 0076 1B68     		ldr	r3, [r3]
 405 0078 0021     		movs	r1, #0
 406 007a 1846     		mov	r0, r3
 407 007c FFF7FEFF 		bl	Cy_IPC_Drv_LockRelease
 408 0080 0346     		mov	r3, r0
 409 0082 002B     		cmp	r3, #0
 410 0084 02D1     		bne	.L32
 151:Generated_Source\PSoC6\pdl\drivers\peripheral\ipc/cy_ipc_sema.c ****                     {
 152:Generated_Source\PSoC6\pdl\drivers\peripheral\ipc/cy_ipc_sema.c ****                         retStatus = CY_IPC_SEMA_SUCCESS;
 411              		.loc 2 152 0
 412 0086 0023     		movs	r3, #0
 413 0088 FB60     		str	r3, [r7, #12]
 414 008a 0AE0     		b	.L28
 415              	.L32:
 153:Generated_Source\PSoC6\pdl\drivers\peripheral\ipc/cy_ipc_sema.c ****                     }
 154:Generated_Source\PSoC6\pdl\drivers\peripheral\ipc/cy_ipc_sema.c ****                     else
 155:Generated_Source\PSoC6\pdl\drivers\peripheral\ipc/cy_ipc_sema.c ****                     {
 156:Generated_Source\PSoC6\pdl\drivers\peripheral\ipc/cy_ipc_sema.c ****                         /* IPC channel not released, still semaphored */
 157:Generated_Source\PSoC6\pdl\drivers\peripheral\ipc/cy_ipc_sema.c ****                         retStatus = CY_IPC_SEMA_ERROR_LOCKED;
 416              		.loc 2 157 0
 417 008c 0A4B     		ldr	r3, .L37+12
 418 008e FB60     		str	r3, [r7, #12]
 419 0090 07E0     		b	.L28
 420              	.L31:
 158:Generated_Source\PSoC6\pdl\drivers\peripheral\ipc/cy_ipc_sema.c ****                     }
 159:Generated_Source\PSoC6\pdl\drivers\peripheral\ipc/cy_ipc_sema.c ****                 }
 160:Generated_Source\PSoC6\pdl\drivers\peripheral\ipc/cy_ipc_sema.c ****                 else
 161:Generated_Source\PSoC6\pdl\drivers\peripheral\ipc/cy_ipc_sema.c ****                 {
 162:Generated_Source\PSoC6\pdl\drivers\peripheral\ipc/cy_ipc_sema.c ****                     /* Could not acquire semaphore channel */
 163:Generated_Source\PSoC6\pdl\drivers\peripheral\ipc/cy_ipc_sema.c ****                     retStatus = CY_IPC_SEMA_ERROR_LOCKED;
 421              		.loc 2 163 0
 422 0092 094B     		ldr	r3, .L37+12
 423 0094 FB60     		str	r3, [r7, #12]
 424 0096 04E0     		b	.L28
 425              	.L30:
 164:Generated_Source\PSoC6\pdl\drivers\peripheral\ipc/cy_ipc_sema.c ****                 }
 165:Generated_Source\PSoC6\pdl\drivers\peripheral\ipc/cy_ipc_sema.c ****             }
 166:Generated_Source\PSoC6\pdl\drivers\peripheral\ipc/cy_ipc_sema.c ****             else
 167:Generated_Source\PSoC6\pdl\drivers\peripheral\ipc/cy_ipc_sema.c ****             {
 168:Generated_Source\PSoC6\pdl\drivers\peripheral\ipc/cy_ipc_sema.c ****                 retStatus = CY_IPC_SEMA_BAD_PARAM;
 426              		.loc 2 168 0
 427 0098 044B     		ldr	r3, .L37
 428 009a FB60     		str	r3, [r7, #12]
 429 009c 01E0     		b	.L28
 430              	.L29:
 169:Generated_Source\PSoC6\pdl\drivers\peripheral\ipc/cy_ipc_sema.c ****             }
 170:Generated_Source\PSoC6\pdl\drivers\peripheral\ipc/cy_ipc_sema.c ****         }
 171:Generated_Source\PSoC6\pdl\drivers\peripheral\ipc/cy_ipc_sema.c ****         else
 172:Generated_Source\PSoC6\pdl\drivers\peripheral\ipc/cy_ipc_sema.c ****         {
 173:Generated_Source\PSoC6\pdl\drivers\peripheral\ipc/cy_ipc_sema.c ****             retStatus = CY_IPC_SEMA_BAD_PARAM;
 431              		.loc 2 173 0
 432 009e 034B     		ldr	r3, .L37
 433 00a0 FB60     		str	r3, [r7, #12]
 434              	.L28:
 174:Generated_Source\PSoC6\pdl\drivers\peripheral\ipc/cy_ipc_sema.c ****         }
 175:Generated_Source\PSoC6\pdl\drivers\peripheral\ipc/cy_ipc_sema.c ****     }
ARM GAS  C:\Users\tmj32\AppData\Local\Temp\cccOycf1.s 			page 29


 176:Generated_Source\PSoC6\pdl\drivers\peripheral\ipc/cy_ipc_sema.c **** 
 177:Generated_Source\PSoC6\pdl\drivers\peripheral\ipc/cy_ipc_sema.c ****     return(retStatus);
 435              		.loc 2 177 0
 436 00a2 FB68     		ldr	r3, [r7, #12]
 178:Generated_Source\PSoC6\pdl\drivers\peripheral\ipc/cy_ipc_sema.c **** }
 437              		.loc 2 178 0
 438 00a4 1846     		mov	r0, r3
 439 00a6 1037     		adds	r7, r7, #16
 440              		.cfi_def_cfa_offset 8
 441 00a8 BD46     		mov	sp, r7
 442              		.cfi_def_cfa_register 13
 443              		@ sp needed
 444 00aa 80BD     		pop	{r7, pc}
 445              	.L38:
 446              		.align	2
 447              	.L37:
 448 00ac 03018A00 		.word	9044227
 449 00b0 00000000 		.word	cy_device
 450 00b4 00000000 		.word	cy_semaIpcStruct
 451 00b8 01018A00 		.word	9044225
 452              		.cfi_endproc
 453              	.LFE152:
 454              		.size	Cy_IPC_Sema_InitExt, .-Cy_IPC_Sema_InitExt
 455              		.section	.text.Cy_IPC_Sema_Set,"ax",%progbits
 456              		.align	2
 457              		.global	Cy_IPC_Sema_Set
 458              		.thumb
 459              		.thumb_func
 460              		.type	Cy_IPC_Sema_Set, %function
 461              	Cy_IPC_Sema_Set:
 462              	.LFB153:
 179:Generated_Source\PSoC6\pdl\drivers\peripheral\ipc/cy_ipc_sema.c **** 
 180:Generated_Source\PSoC6\pdl\drivers\peripheral\ipc/cy_ipc_sema.c **** 
 181:Generated_Source\PSoC6\pdl\drivers\peripheral\ipc/cy_ipc_sema.c **** /*******************************************************************************
 182:Generated_Source\PSoC6\pdl\drivers\peripheral\ipc/cy_ipc_sema.c **** * Function Name: Cy_IPC_Sema_Set
 183:Generated_Source\PSoC6\pdl\drivers\peripheral\ipc/cy_ipc_sema.c **** ****************************************************************************//**
 184:Generated_Source\PSoC6\pdl\drivers\peripheral\ipc/cy_ipc_sema.c **** *
 185:Generated_Source\PSoC6\pdl\drivers\peripheral\ipc/cy_ipc_sema.c **** * This function tries to acquire a semaphore. If the
 186:Generated_Source\PSoC6\pdl\drivers\peripheral\ipc/cy_ipc_sema.c **** * semaphore is not available, this function returns immediately with
 187:Generated_Source\PSoC6\pdl\drivers\peripheral\ipc/cy_ipc_sema.c **** * CY_IPC_SEMA_LOCKED.
 188:Generated_Source\PSoC6\pdl\drivers\peripheral\ipc/cy_ipc_sema.c **** *
 189:Generated_Source\PSoC6\pdl\drivers\peripheral\ipc/cy_ipc_sema.c **** * It first acquires the IPC channel that is used for all the semaphores, sets
 190:Generated_Source\PSoC6\pdl\drivers\peripheral\ipc/cy_ipc_sema.c **** * the semaphore if it is cleared, then releases the IPC channel used for the
 191:Generated_Source\PSoC6\pdl\drivers\peripheral\ipc/cy_ipc_sema.c **** * semaphore.
 192:Generated_Source\PSoC6\pdl\drivers\peripheral\ipc/cy_ipc_sema.c **** *
 193:Generated_Source\PSoC6\pdl\drivers\peripheral\ipc/cy_ipc_sema.c **** * \param semaNumber
 194:Generated_Source\PSoC6\pdl\drivers\peripheral\ipc/cy_ipc_sema.c **** *  The semaphore number to acquire.
 195:Generated_Source\PSoC6\pdl\drivers\peripheral\ipc/cy_ipc_sema.c **** *
 196:Generated_Source\PSoC6\pdl\drivers\peripheral\ipc/cy_ipc_sema.c **** * \param preemptable
 197:Generated_Source\PSoC6\pdl\drivers\peripheral\ipc/cy_ipc_sema.c **** *  When this parameter is enabled the function can be preempted by another
 198:Generated_Source\PSoC6\pdl\drivers\peripheral\ipc/cy_ipc_sema.c **** *  task or other forms of context switching in an RTOS environment.
 199:Generated_Source\PSoC6\pdl\drivers\peripheral\ipc/cy_ipc_sema.c **** *
 200:Generated_Source\PSoC6\pdl\drivers\peripheral\ipc/cy_ipc_sema.c **** * \note
 201:Generated_Source\PSoC6\pdl\drivers\peripheral\ipc/cy_ipc_sema.c **** *  If <b>preemptable</b> is enabled (true), the user must ensure that there are
 202:Generated_Source\PSoC6\pdl\drivers\peripheral\ipc/cy_ipc_sema.c **** *  no deadlocks in the system, which can be caused by an interrupt that occurs
 203:Generated_Source\PSoC6\pdl\drivers\peripheral\ipc/cy_ipc_sema.c **** *  after the IPC channel is locked. Unless the user is ready to handle IPC
 204:Generated_Source\PSoC6\pdl\drivers\peripheral\ipc/cy_ipc_sema.c **** *  channel locks correctly at the application level, set <b>preemptable</b> to
ARM GAS  C:\Users\tmj32\AppData\Local\Temp\cccOycf1.s 			page 30


 205:Generated_Source\PSoC6\pdl\drivers\peripheral\ipc/cy_ipc_sema.c **** *  false.
 206:Generated_Source\PSoC6\pdl\drivers\peripheral\ipc/cy_ipc_sema.c **** *
 207:Generated_Source\PSoC6\pdl\drivers\peripheral\ipc/cy_ipc_sema.c **** * \return Status of the operation
 208:Generated_Source\PSoC6\pdl\drivers\peripheral\ipc/cy_ipc_sema.c **** *    \retval CY_IPC_SEMA_SUCCESS:      The semaphore was set successfully
 209:Generated_Source\PSoC6\pdl\drivers\peripheral\ipc/cy_ipc_sema.c **** *    \retval CY_IPC_SEMA_LOCKED:       The semaphore channel is busy or locked
 210:Generated_Source\PSoC6\pdl\drivers\peripheral\ipc/cy_ipc_sema.c **** *                              by another process
 211:Generated_Source\PSoC6\pdl\drivers\peripheral\ipc/cy_ipc_sema.c **** *    \retval CY_IPC_SEMA_NOT_ACQUIRED: Semaphore was already set
 212:Generated_Source\PSoC6\pdl\drivers\peripheral\ipc/cy_ipc_sema.c **** *    \retval CY_IPC_SEMA_OUT_OF_RANGE: The semaphore number is not valid
 213:Generated_Source\PSoC6\pdl\drivers\peripheral\ipc/cy_ipc_sema.c **** *
 214:Generated_Source\PSoC6\pdl\drivers\peripheral\ipc/cy_ipc_sema.c **** * \funcusage
 215:Generated_Source\PSoC6\pdl\drivers\peripheral\ipc/cy_ipc_sema.c **** * \snippet IPC_sut_01.cydsn/main_cm4.c snippet_Cy_IPC_Sema_Set
 216:Generated_Source\PSoC6\pdl\drivers\peripheral\ipc/cy_ipc_sema.c **** *
 217:Generated_Source\PSoC6\pdl\drivers\peripheral\ipc/cy_ipc_sema.c **** *******************************************************************************/
 218:Generated_Source\PSoC6\pdl\drivers\peripheral\ipc/cy_ipc_sema.c **** cy_en_ipcsema_status_t Cy_IPC_Sema_Set(uint32_t semaNumber, bool preemptable)
 219:Generated_Source\PSoC6\pdl\drivers\peripheral\ipc/cy_ipc_sema.c **** {
 463              		.loc 2 219 0
 464              		.cfi_startproc
 465              		@ args = 0, pretend = 0, frame = 32
 466              		@ frame_needed = 1, uses_anonymous_args = 0
 467 0000 80B5     		push	{r7, lr}
 468              		.cfi_def_cfa_offset 8
 469              		.cfi_offset 7, -8
 470              		.cfi_offset 14, -4
 471 0002 88B0     		sub	sp, sp, #32
 472              		.cfi_def_cfa_offset 40
 473 0004 00AF     		add	r7, sp, #0
 474              		.cfi_def_cfa_register 7
 475 0006 7860     		str	r0, [r7, #4]
 476 0008 0B46     		mov	r3, r1
 477 000a FB70     		strb	r3, [r7, #3]
 220:Generated_Source\PSoC6\pdl\drivers\peripheral\ipc/cy_ipc_sema.c ****     uint32_t semaIndex;
 221:Generated_Source\PSoC6\pdl\drivers\peripheral\ipc/cy_ipc_sema.c ****     uint32_t semaMask;
 222:Generated_Source\PSoC6\pdl\drivers\peripheral\ipc/cy_ipc_sema.c ****     uint32_t interruptState = 0ul;
 478              		.loc 2 222 0
 479 000c 0023     		movs	r3, #0
 480 000e FB61     		str	r3, [r7, #28]
 223:Generated_Source\PSoC6\pdl\drivers\peripheral\ipc/cy_ipc_sema.c **** 
 224:Generated_Source\PSoC6\pdl\drivers\peripheral\ipc/cy_ipc_sema.c ****     cy_stc_ipc_sema_t      *semaStruct;
 225:Generated_Source\PSoC6\pdl\drivers\peripheral\ipc/cy_ipc_sema.c ****     cy_en_ipcsema_status_t  retStatus = CY_IPC_SEMA_LOCKED;
 481              		.loc 2 225 0
 482 0010 2E4B     		ldr	r3, .L48
 483 0012 BB61     		str	r3, [r7, #24]
 226:Generated_Source\PSoC6\pdl\drivers\peripheral\ipc/cy_ipc_sema.c **** 
 227:Generated_Source\PSoC6\pdl\drivers\peripheral\ipc/cy_ipc_sema.c ****     /* Get pointer to structure */
 228:Generated_Source\PSoC6\pdl\drivers\peripheral\ipc/cy_ipc_sema.c ****     semaStruct = (cy_stc_ipc_sema_t *)Cy_IPC_Drv_ReadDataValue(cy_semaIpcStruct);
 484              		.loc 2 228 0
 485 0014 2E4B     		ldr	r3, .L48+4
 486 0016 1B68     		ldr	r3, [r3]
 487 0018 1846     		mov	r0, r3
 488 001a FFF7FEFF 		bl	Cy_IPC_Drv_ReadDataValue
 489 001e 0346     		mov	r3, r0
 490 0020 7B61     		str	r3, [r7, #20]
 229:Generated_Source\PSoC6\pdl\drivers\peripheral\ipc/cy_ipc_sema.c **** 
 230:Generated_Source\PSoC6\pdl\drivers\peripheral\ipc/cy_ipc_sema.c ****     if (semaNumber < semaStruct->maxSema)
 491              		.loc 2 230 0
 492 0022 7B69     		ldr	r3, [r7, #20]
 493 0024 1A68     		ldr	r2, [r3]
ARM GAS  C:\Users\tmj32\AppData\Local\Temp\cccOycf1.s 			page 31


 494 0026 7B68     		ldr	r3, [r7, #4]
 495 0028 9A42     		cmp	r2, r3
 496 002a 48D9     		bls	.L40
 231:Generated_Source\PSoC6\pdl\drivers\peripheral\ipc/cy_ipc_sema.c ****     {
 232:Generated_Source\PSoC6\pdl\drivers\peripheral\ipc/cy_ipc_sema.c ****         semaIndex = semaNumber / CY_IPC_SEMA_PER_WORD;
 497              		.loc 2 232 0
 498 002c 7B68     		ldr	r3, [r7, #4]
 499 002e 5B09     		lsrs	r3, r3, #5
 500 0030 3B61     		str	r3, [r7, #16]
 233:Generated_Source\PSoC6\pdl\drivers\peripheral\ipc/cy_ipc_sema.c ****         semaMask = (uint32_t)(1ul << (semaNumber - (semaIndex * CY_IPC_SEMA_PER_WORD) ));
 501              		.loc 2 233 0
 502 0032 3B69     		ldr	r3, [r7, #16]
 503 0034 5B01     		lsls	r3, r3, #5
 504 0036 7A68     		ldr	r2, [r7, #4]
 505 0038 D31A     		subs	r3, r2, r3
 506 003a 0122     		movs	r2, #1
 507 003c 02FA03F3 		lsl	r3, r2, r3
 508 0040 FB60     		str	r3, [r7, #12]
 234:Generated_Source\PSoC6\pdl\drivers\peripheral\ipc/cy_ipc_sema.c **** 
 235:Generated_Source\PSoC6\pdl\drivers\peripheral\ipc/cy_ipc_sema.c ****         if (!preemptable)
 509              		.loc 2 235 0
 510 0042 FB78     		ldrb	r3, [r7, #3]
 511 0044 83F00103 		eor	r3, r3, #1
 512 0048 DBB2     		uxtb	r3, r3
 513 004a 002B     		cmp	r3, #0
 514 004c 02D0     		beq	.L41
 236:Generated_Source\PSoC6\pdl\drivers\peripheral\ipc/cy_ipc_sema.c ****         {
 237:Generated_Source\PSoC6\pdl\drivers\peripheral\ipc/cy_ipc_sema.c ****             interruptState = Cy_SysLib_EnterCriticalSection();
 515              		.loc 2 237 0
 516 004e FFF7FEFF 		bl	Cy_SysLib_EnterCriticalSection
 517 0052 F861     		str	r0, [r7, #28]
 518              	.L41:
 238:Generated_Source\PSoC6\pdl\drivers\peripheral\ipc/cy_ipc_sema.c ****         }
 239:Generated_Source\PSoC6\pdl\drivers\peripheral\ipc/cy_ipc_sema.c **** 
 240:Generated_Source\PSoC6\pdl\drivers\peripheral\ipc/cy_ipc_sema.c ****         /* Check to make sure the IPC channel is released
 241:Generated_Source\PSoC6\pdl\drivers\peripheral\ipc/cy_ipc_sema.c ****            If so, check if specific channel can be locked. */
 242:Generated_Source\PSoC6\pdl\drivers\peripheral\ipc/cy_ipc_sema.c ****         if(CY_IPC_DRV_SUCCESS == Cy_IPC_Drv_LockAcquire (cy_semaIpcStruct))
 519              		.loc 2 242 0
 520 0054 1E4B     		ldr	r3, .L48+4
 521 0056 1B68     		ldr	r3, [r3]
 522 0058 1846     		mov	r0, r3
 523 005a FFF7FEFF 		bl	Cy_IPC_Drv_LockAcquire
 524 005e 0346     		mov	r3, r0
 525 0060 002B     		cmp	r3, #0
 526 0062 22D1     		bne	.L42
 243:Generated_Source\PSoC6\pdl\drivers\peripheral\ipc/cy_ipc_sema.c ****         {
 244:Generated_Source\PSoC6\pdl\drivers\peripheral\ipc/cy_ipc_sema.c ****             if((semaStruct->arrayPtr[semaIndex] & semaMask) == 0ul)
 527              		.loc 2 244 0
 528 0064 7B69     		ldr	r3, [r7, #20]
 529 0066 5A68     		ldr	r2, [r3, #4]
 530 0068 3B69     		ldr	r3, [r7, #16]
 531 006a 9B00     		lsls	r3, r3, #2
 532 006c 1344     		add	r3, r3, r2
 533 006e 1A68     		ldr	r2, [r3]
 534 0070 FB68     		ldr	r3, [r7, #12]
 535 0072 1340     		ands	r3, r3, r2
 536 0074 002B     		cmp	r3, #0
ARM GAS  C:\Users\tmj32\AppData\Local\Temp\cccOycf1.s 			page 32


 537 0076 10D1     		bne	.L43
 245:Generated_Source\PSoC6\pdl\drivers\peripheral\ipc/cy_ipc_sema.c ****             {
 246:Generated_Source\PSoC6\pdl\drivers\peripheral\ipc/cy_ipc_sema.c ****                 semaStruct->arrayPtr[semaIndex] |= semaMask;
 538              		.loc 2 246 0
 539 0078 7B69     		ldr	r3, [r7, #20]
 540 007a 5A68     		ldr	r2, [r3, #4]
 541 007c 3B69     		ldr	r3, [r7, #16]
 542 007e 9B00     		lsls	r3, r3, #2
 543 0080 1344     		add	r3, r3, r2
 544 0082 7A69     		ldr	r2, [r7, #20]
 545 0084 5168     		ldr	r1, [r2, #4]
 546 0086 3A69     		ldr	r2, [r7, #16]
 547 0088 9200     		lsls	r2, r2, #2
 548 008a 0A44     		add	r2, r2, r1
 549 008c 1168     		ldr	r1, [r2]
 550 008e FA68     		ldr	r2, [r7, #12]
 551 0090 0A43     		orrs	r2, r2, r1
 552 0092 1A60     		str	r2, [r3]
 247:Generated_Source\PSoC6\pdl\drivers\peripheral\ipc/cy_ipc_sema.c ****                 retStatus = CY_IPC_SEMA_SUCCESS;
 553              		.loc 2 247 0
 554 0094 0023     		movs	r3, #0
 555 0096 BB61     		str	r3, [r7, #24]
 556 0098 01E0     		b	.L44
 557              	.L43:
 248:Generated_Source\PSoC6\pdl\drivers\peripheral\ipc/cy_ipc_sema.c ****             }
 249:Generated_Source\PSoC6\pdl\drivers\peripheral\ipc/cy_ipc_sema.c ****             else
 250:Generated_Source\PSoC6\pdl\drivers\peripheral\ipc/cy_ipc_sema.c ****             {
 251:Generated_Source\PSoC6\pdl\drivers\peripheral\ipc/cy_ipc_sema.c ****                 retStatus = CY_IPC_SEMA_NOT_ACQUIRED;
 558              		.loc 2 251 0
 559 009a 0E4B     		ldr	r3, .L48+8
 560 009c BB61     		str	r3, [r7, #24]
 561              	.L44:
 252:Generated_Source\PSoC6\pdl\drivers\peripheral\ipc/cy_ipc_sema.c ****             }
 253:Generated_Source\PSoC6\pdl\drivers\peripheral\ipc/cy_ipc_sema.c **** 
 254:Generated_Source\PSoC6\pdl\drivers\peripheral\ipc/cy_ipc_sema.c ****             /* Release, but do not trigger a release event */
 255:Generated_Source\PSoC6\pdl\drivers\peripheral\ipc/cy_ipc_sema.c ****             (void) Cy_IPC_Drv_LockRelease (cy_semaIpcStruct, CY_IPC_NO_NOTIFICATION);
 562              		.loc 2 255 0
 563 009e 0C4B     		ldr	r3, .L48+4
 564 00a0 1B68     		ldr	r3, [r3]
 565 00a2 0021     		movs	r1, #0
 566 00a4 1846     		mov	r0, r3
 567 00a6 FFF7FEFF 		bl	Cy_IPC_Drv_LockRelease
 568              	.L42:
 256:Generated_Source\PSoC6\pdl\drivers\peripheral\ipc/cy_ipc_sema.c ****         }
 257:Generated_Source\PSoC6\pdl\drivers\peripheral\ipc/cy_ipc_sema.c **** 
 258:Generated_Source\PSoC6\pdl\drivers\peripheral\ipc/cy_ipc_sema.c ****         if (!preemptable)
 569              		.loc 2 258 0
 570 00aa FB78     		ldrb	r3, [r7, #3]
 571 00ac 83F00103 		eor	r3, r3, #1
 572 00b0 DBB2     		uxtb	r3, r3
 573 00b2 002B     		cmp	r3, #0
 574 00b4 05D0     		beq	.L46
 259:Generated_Source\PSoC6\pdl\drivers\peripheral\ipc/cy_ipc_sema.c ****         {
 260:Generated_Source\PSoC6\pdl\drivers\peripheral\ipc/cy_ipc_sema.c ****             Cy_SysLib_ExitCriticalSection(interruptState);
 575              		.loc 2 260 0
 576 00b6 F869     		ldr	r0, [r7, #28]
 577 00b8 FFF7FEFF 		bl	Cy_SysLib_ExitCriticalSection
ARM GAS  C:\Users\tmj32\AppData\Local\Temp\cccOycf1.s 			page 33


 578 00bc 01E0     		b	.L46
 579              	.L40:
 261:Generated_Source\PSoC6\pdl\drivers\peripheral\ipc/cy_ipc_sema.c ****         }
 262:Generated_Source\PSoC6\pdl\drivers\peripheral\ipc/cy_ipc_sema.c ****     }
 263:Generated_Source\PSoC6\pdl\drivers\peripheral\ipc/cy_ipc_sema.c ****     else
 264:Generated_Source\PSoC6\pdl\drivers\peripheral\ipc/cy_ipc_sema.c ****     {
 265:Generated_Source\PSoC6\pdl\drivers\peripheral\ipc/cy_ipc_sema.c ****         retStatus = CY_IPC_SEMA_OUT_OF_RANGE;
 580              		.loc 2 265 0
 581 00be 064B     		ldr	r3, .L48+12
 582 00c0 BB61     		str	r3, [r7, #24]
 583              	.L46:
 266:Generated_Source\PSoC6\pdl\drivers\peripheral\ipc/cy_ipc_sema.c ****     }
 267:Generated_Source\PSoC6\pdl\drivers\peripheral\ipc/cy_ipc_sema.c **** 
 268:Generated_Source\PSoC6\pdl\drivers\peripheral\ipc/cy_ipc_sema.c ****     return(retStatus);
 584              		.loc 2 268 0
 585 00c2 BB69     		ldr	r3, [r7, #24]
 269:Generated_Source\PSoC6\pdl\drivers\peripheral\ipc/cy_ipc_sema.c **** }
 586              		.loc 2 269 0
 587 00c4 1846     		mov	r0, r3
 588 00c6 2037     		adds	r7, r7, #32
 589              		.cfi_def_cfa_offset 8
 590 00c8 BD46     		mov	sp, r7
 591              		.cfi_def_cfa_register 13
 592              		@ sp needed
 593 00ca 80BD     		pop	{r7, pc}
 594              	.L49:
 595              		.align	2
 596              	.L48:
 597 00cc 03018800 		.word	8913155
 598 00d0 00000000 		.word	cy_semaIpcStruct
 599 00d4 02018800 		.word	8913154
 600 00d8 04018A00 		.word	9044228
 601              		.cfi_endproc
 602              	.LFE153:
 603              		.size	Cy_IPC_Sema_Set, .-Cy_IPC_Sema_Set
 604              		.section	.text.Cy_IPC_Sema_Clear,"ax",%progbits
 605              		.align	2
 606              		.global	Cy_IPC_Sema_Clear
 607              		.thumb
 608              		.thumb_func
 609              		.type	Cy_IPC_Sema_Clear, %function
 610              	Cy_IPC_Sema_Clear:
 611              	.LFB154:
 270:Generated_Source\PSoC6\pdl\drivers\peripheral\ipc/cy_ipc_sema.c **** 
 271:Generated_Source\PSoC6\pdl\drivers\peripheral\ipc/cy_ipc_sema.c **** 
 272:Generated_Source\PSoC6\pdl\drivers\peripheral\ipc/cy_ipc_sema.c **** /*******************************************************************************
 273:Generated_Source\PSoC6\pdl\drivers\peripheral\ipc/cy_ipc_sema.c **** * Function Name: Cy_IPC_Sema_Clear
 274:Generated_Source\PSoC6\pdl\drivers\peripheral\ipc/cy_ipc_sema.c **** ****************************************************************************//**
 275:Generated_Source\PSoC6\pdl\drivers\peripheral\ipc/cy_ipc_sema.c **** *
 276:Generated_Source\PSoC6\pdl\drivers\peripheral\ipc/cy_ipc_sema.c **** * This functions tries to releases a semaphore.
 277:Generated_Source\PSoC6\pdl\drivers\peripheral\ipc/cy_ipc_sema.c **** *
 278:Generated_Source\PSoC6\pdl\drivers\peripheral\ipc/cy_ipc_sema.c **** * It first acquires the IPC channel that is used for all the semaphores, clears
 279:Generated_Source\PSoC6\pdl\drivers\peripheral\ipc/cy_ipc_sema.c **** * the semaphore if it is set, then releases the IPC channel used for the
 280:Generated_Source\PSoC6\pdl\drivers\peripheral\ipc/cy_ipc_sema.c **** * semaphores.
 281:Generated_Source\PSoC6\pdl\drivers\peripheral\ipc/cy_ipc_sema.c **** *
 282:Generated_Source\PSoC6\pdl\drivers\peripheral\ipc/cy_ipc_sema.c **** * \param semaNumber
 283:Generated_Source\PSoC6\pdl\drivers\peripheral\ipc/cy_ipc_sema.c **** *  The index of the semaphore to release.
ARM GAS  C:\Users\tmj32\AppData\Local\Temp\cccOycf1.s 			page 34


 284:Generated_Source\PSoC6\pdl\drivers\peripheral\ipc/cy_ipc_sema.c **** *
 285:Generated_Source\PSoC6\pdl\drivers\peripheral\ipc/cy_ipc_sema.c **** * \param preemptable
 286:Generated_Source\PSoC6\pdl\drivers\peripheral\ipc/cy_ipc_sema.c **** *  When this parameter is enabled the function can be preempted by another
 287:Generated_Source\PSoC6\pdl\drivers\peripheral\ipc/cy_ipc_sema.c **** *  task or other forms of context switching in an RTOS environment.
 288:Generated_Source\PSoC6\pdl\drivers\peripheral\ipc/cy_ipc_sema.c **** *
 289:Generated_Source\PSoC6\pdl\drivers\peripheral\ipc/cy_ipc_sema.c **** * \note
 290:Generated_Source\PSoC6\pdl\drivers\peripheral\ipc/cy_ipc_sema.c **** *  If <b>preemptable</b> is enabled (true), the user must ensure that there are
 291:Generated_Source\PSoC6\pdl\drivers\peripheral\ipc/cy_ipc_sema.c **** *  no deadlocks in the system, which can be caused by an interrupt that occurs
 292:Generated_Source\PSoC6\pdl\drivers\peripheral\ipc/cy_ipc_sema.c **** *  after the IPC channel is locked. Unless the user is ready to handle IPC
 293:Generated_Source\PSoC6\pdl\drivers\peripheral\ipc/cy_ipc_sema.c **** *  channel locks correctly at the application level, set <b>preemptable</b> to
 294:Generated_Source\PSoC6\pdl\drivers\peripheral\ipc/cy_ipc_sema.c **** *  false.
 295:Generated_Source\PSoC6\pdl\drivers\peripheral\ipc/cy_ipc_sema.c **** *
 296:Generated_Source\PSoC6\pdl\drivers\peripheral\ipc/cy_ipc_sema.c **** * \return Status of the operation
 297:Generated_Source\PSoC6\pdl\drivers\peripheral\ipc/cy_ipc_sema.c **** *    \retval CY_IPC_SEMA_SUCCESS:         The semaphore was cleared successfully
 298:Generated_Source\PSoC6\pdl\drivers\peripheral\ipc/cy_ipc_sema.c **** *    \retval CY_IPC_SEMA_NOT_ACQUIRED:    The semaphore was already cleared
 299:Generated_Source\PSoC6\pdl\drivers\peripheral\ipc/cy_ipc_sema.c **** *    \retval CY_IPC_SEMA_LOCKED:          The semaphore channel was semaphored or busy
 300:Generated_Source\PSoC6\pdl\drivers\peripheral\ipc/cy_ipc_sema.c **** *    \retval CY_IPC_SEMA_OUT_OF_RANGE:    The semaphore number is not valid
 301:Generated_Source\PSoC6\pdl\drivers\peripheral\ipc/cy_ipc_sema.c **** *
 302:Generated_Source\PSoC6\pdl\drivers\peripheral\ipc/cy_ipc_sema.c **** * \funcusage
 303:Generated_Source\PSoC6\pdl\drivers\peripheral\ipc/cy_ipc_sema.c **** * \snippet IPC_sut_01.cydsn/main_cm4.c snippet_Cy_IPC_Sema_Clear
 304:Generated_Source\PSoC6\pdl\drivers\peripheral\ipc/cy_ipc_sema.c **** *
 305:Generated_Source\PSoC6\pdl\drivers\peripheral\ipc/cy_ipc_sema.c **** *******************************************************************************/
 306:Generated_Source\PSoC6\pdl\drivers\peripheral\ipc/cy_ipc_sema.c **** cy_en_ipcsema_status_t Cy_IPC_Sema_Clear(uint32_t semaNumber, bool preemptable)
 307:Generated_Source\PSoC6\pdl\drivers\peripheral\ipc/cy_ipc_sema.c **** {
 612              		.loc 2 307 0
 613              		.cfi_startproc
 614              		@ args = 0, pretend = 0, frame = 32
 615              		@ frame_needed = 1, uses_anonymous_args = 0
 616 0000 80B5     		push	{r7, lr}
 617              		.cfi_def_cfa_offset 8
 618              		.cfi_offset 7, -8
 619              		.cfi_offset 14, -4
 620 0002 88B0     		sub	sp, sp, #32
 621              		.cfi_def_cfa_offset 40
 622 0004 00AF     		add	r7, sp, #0
 623              		.cfi_def_cfa_register 7
 624 0006 7860     		str	r0, [r7, #4]
 625 0008 0B46     		mov	r3, r1
 626 000a FB70     		strb	r3, [r7, #3]
 308:Generated_Source\PSoC6\pdl\drivers\peripheral\ipc/cy_ipc_sema.c ****     uint32_t semaIndex;
 309:Generated_Source\PSoC6\pdl\drivers\peripheral\ipc/cy_ipc_sema.c ****     uint32_t semaMask;
 310:Generated_Source\PSoC6\pdl\drivers\peripheral\ipc/cy_ipc_sema.c ****     uint32_t interruptState = 0ul;
 627              		.loc 2 310 0
 628 000c 0023     		movs	r3, #0
 629 000e FB61     		str	r3, [r7, #28]
 311:Generated_Source\PSoC6\pdl\drivers\peripheral\ipc/cy_ipc_sema.c **** 
 312:Generated_Source\PSoC6\pdl\drivers\peripheral\ipc/cy_ipc_sema.c ****     cy_stc_ipc_sema_t      *semaStruct;
 313:Generated_Source\PSoC6\pdl\drivers\peripheral\ipc/cy_ipc_sema.c ****     cy_en_ipcsema_status_t  retStatus = CY_IPC_SEMA_LOCKED;
 630              		.loc 2 313 0
 631 0010 2F4B     		ldr	r3, .L59
 632 0012 BB61     		str	r3, [r7, #24]
 314:Generated_Source\PSoC6\pdl\drivers\peripheral\ipc/cy_ipc_sema.c **** 
 315:Generated_Source\PSoC6\pdl\drivers\peripheral\ipc/cy_ipc_sema.c ****     /* Get pointer to structure */
 316:Generated_Source\PSoC6\pdl\drivers\peripheral\ipc/cy_ipc_sema.c ****     semaStruct = (cy_stc_ipc_sema_t *)Cy_IPC_Drv_ReadDataValue(cy_semaIpcStruct);
 633              		.loc 2 316 0
 634 0014 2F4B     		ldr	r3, .L59+4
 635 0016 1B68     		ldr	r3, [r3]
ARM GAS  C:\Users\tmj32\AppData\Local\Temp\cccOycf1.s 			page 35


 636 0018 1846     		mov	r0, r3
 637 001a FFF7FEFF 		bl	Cy_IPC_Drv_ReadDataValue
 638 001e 0346     		mov	r3, r0
 639 0020 7B61     		str	r3, [r7, #20]
 317:Generated_Source\PSoC6\pdl\drivers\peripheral\ipc/cy_ipc_sema.c **** 
 318:Generated_Source\PSoC6\pdl\drivers\peripheral\ipc/cy_ipc_sema.c ****     if (semaNumber < semaStruct->maxSema)
 640              		.loc 2 318 0
 641 0022 7B69     		ldr	r3, [r7, #20]
 642 0024 1A68     		ldr	r2, [r3]
 643 0026 7B68     		ldr	r3, [r7, #4]
 644 0028 9A42     		cmp	r2, r3
 645 002a 49D9     		bls	.L51
 319:Generated_Source\PSoC6\pdl\drivers\peripheral\ipc/cy_ipc_sema.c ****     {
 320:Generated_Source\PSoC6\pdl\drivers\peripheral\ipc/cy_ipc_sema.c ****         semaIndex = semaNumber / CY_IPC_SEMA_PER_WORD;
 646              		.loc 2 320 0
 647 002c 7B68     		ldr	r3, [r7, #4]
 648 002e 5B09     		lsrs	r3, r3, #5
 649 0030 3B61     		str	r3, [r7, #16]
 321:Generated_Source\PSoC6\pdl\drivers\peripheral\ipc/cy_ipc_sema.c ****         semaMask = (uint32_t)(1ul << (semaNumber - (semaIndex * CY_IPC_SEMA_PER_WORD) ));
 650              		.loc 2 321 0
 651 0032 3B69     		ldr	r3, [r7, #16]
 652 0034 5B01     		lsls	r3, r3, #5
 653 0036 7A68     		ldr	r2, [r7, #4]
 654 0038 D31A     		subs	r3, r2, r3
 655 003a 0122     		movs	r2, #1
 656 003c 02FA03F3 		lsl	r3, r2, r3
 657 0040 FB60     		str	r3, [r7, #12]
 322:Generated_Source\PSoC6\pdl\drivers\peripheral\ipc/cy_ipc_sema.c **** 
 323:Generated_Source\PSoC6\pdl\drivers\peripheral\ipc/cy_ipc_sema.c ****         if (!preemptable)
 658              		.loc 2 323 0
 659 0042 FB78     		ldrb	r3, [r7, #3]
 660 0044 83F00103 		eor	r3, r3, #1
 661 0048 DBB2     		uxtb	r3, r3
 662 004a 002B     		cmp	r3, #0
 663 004c 02D0     		beq	.L52
 324:Generated_Source\PSoC6\pdl\drivers\peripheral\ipc/cy_ipc_sema.c ****         {
 325:Generated_Source\PSoC6\pdl\drivers\peripheral\ipc/cy_ipc_sema.c ****             interruptState = Cy_SysLib_EnterCriticalSection();
 664              		.loc 2 325 0
 665 004e FFF7FEFF 		bl	Cy_SysLib_EnterCriticalSection
 666 0052 F861     		str	r0, [r7, #28]
 667              	.L52:
 326:Generated_Source\PSoC6\pdl\drivers\peripheral\ipc/cy_ipc_sema.c ****         }
 327:Generated_Source\PSoC6\pdl\drivers\peripheral\ipc/cy_ipc_sema.c **** 
 328:Generated_Source\PSoC6\pdl\drivers\peripheral\ipc/cy_ipc_sema.c ****         /* Check to make sure the IPC channel is released
 329:Generated_Source\PSoC6\pdl\drivers\peripheral\ipc/cy_ipc_sema.c ****            If so, check if specific channel can be locked. */
 330:Generated_Source\PSoC6\pdl\drivers\peripheral\ipc/cy_ipc_sema.c ****         if(CY_IPC_DRV_SUCCESS == Cy_IPC_Drv_LockAcquire (cy_semaIpcStruct))
 668              		.loc 2 330 0
 669 0054 1F4B     		ldr	r3, .L59+4
 670 0056 1B68     		ldr	r3, [r3]
 671 0058 1846     		mov	r0, r3
 672 005a FFF7FEFF 		bl	Cy_IPC_Drv_LockAcquire
 673 005e 0346     		mov	r3, r0
 674 0060 002B     		cmp	r3, #0
 675 0062 23D1     		bne	.L53
 331:Generated_Source\PSoC6\pdl\drivers\peripheral\ipc/cy_ipc_sema.c ****         {
 332:Generated_Source\PSoC6\pdl\drivers\peripheral\ipc/cy_ipc_sema.c ****             if((semaStruct->arrayPtr[semaIndex] & semaMask) != 0ul)
 676              		.loc 2 332 0
ARM GAS  C:\Users\tmj32\AppData\Local\Temp\cccOycf1.s 			page 36


 677 0064 7B69     		ldr	r3, [r7, #20]
 678 0066 5A68     		ldr	r2, [r3, #4]
 679 0068 3B69     		ldr	r3, [r7, #16]
 680 006a 9B00     		lsls	r3, r3, #2
 681 006c 1344     		add	r3, r3, r2
 682 006e 1A68     		ldr	r2, [r3]
 683 0070 FB68     		ldr	r3, [r7, #12]
 684 0072 1340     		ands	r3, r3, r2
 685 0074 002B     		cmp	r3, #0
 686 0076 11D0     		beq	.L54
 333:Generated_Source\PSoC6\pdl\drivers\peripheral\ipc/cy_ipc_sema.c ****             {
 334:Generated_Source\PSoC6\pdl\drivers\peripheral\ipc/cy_ipc_sema.c ****                 semaStruct->arrayPtr[semaIndex] &= ~semaMask;
 687              		.loc 2 334 0
 688 0078 7B69     		ldr	r3, [r7, #20]
 689 007a 5A68     		ldr	r2, [r3, #4]
 690 007c 3B69     		ldr	r3, [r7, #16]
 691 007e 9B00     		lsls	r3, r3, #2
 692 0080 1344     		add	r3, r3, r2
 693 0082 7A69     		ldr	r2, [r7, #20]
 694 0084 5168     		ldr	r1, [r2, #4]
 695 0086 3A69     		ldr	r2, [r7, #16]
 696 0088 9200     		lsls	r2, r2, #2
 697 008a 0A44     		add	r2, r2, r1
 698 008c 1168     		ldr	r1, [r2]
 699 008e FA68     		ldr	r2, [r7, #12]
 700 0090 D243     		mvns	r2, r2
 701 0092 0A40     		ands	r2, r2, r1
 702 0094 1A60     		str	r2, [r3]
 335:Generated_Source\PSoC6\pdl\drivers\peripheral\ipc/cy_ipc_sema.c ****                 retStatus = CY_IPC_SEMA_SUCCESS;
 703              		.loc 2 335 0
 704 0096 0023     		movs	r3, #0
 705 0098 BB61     		str	r3, [r7, #24]
 706 009a 01E0     		b	.L55
 707              	.L54:
 336:Generated_Source\PSoC6\pdl\drivers\peripheral\ipc/cy_ipc_sema.c ****             }
 337:Generated_Source\PSoC6\pdl\drivers\peripheral\ipc/cy_ipc_sema.c ****             else
 338:Generated_Source\PSoC6\pdl\drivers\peripheral\ipc/cy_ipc_sema.c ****             {
 339:Generated_Source\PSoC6\pdl\drivers\peripheral\ipc/cy_ipc_sema.c ****                 retStatus = CY_IPC_SEMA_NOT_ACQUIRED;
 708              		.loc 2 339 0
 709 009c 0E4B     		ldr	r3, .L59+8
 710 009e BB61     		str	r3, [r7, #24]
 711              	.L55:
 340:Generated_Source\PSoC6\pdl\drivers\peripheral\ipc/cy_ipc_sema.c ****             }
 341:Generated_Source\PSoC6\pdl\drivers\peripheral\ipc/cy_ipc_sema.c **** 
 342:Generated_Source\PSoC6\pdl\drivers\peripheral\ipc/cy_ipc_sema.c ****             /* Release, but do not trigger a release event */
 343:Generated_Source\PSoC6\pdl\drivers\peripheral\ipc/cy_ipc_sema.c ****             (void) Cy_IPC_Drv_LockRelease (cy_semaIpcStruct, CY_IPC_NO_NOTIFICATION);
 712              		.loc 2 343 0
 713 00a0 0C4B     		ldr	r3, .L59+4
 714 00a2 1B68     		ldr	r3, [r3]
 715 00a4 0021     		movs	r1, #0
 716 00a6 1846     		mov	r0, r3
 717 00a8 FFF7FEFF 		bl	Cy_IPC_Drv_LockRelease
 718              	.L53:
 344:Generated_Source\PSoC6\pdl\drivers\peripheral\ipc/cy_ipc_sema.c ****         }
 345:Generated_Source\PSoC6\pdl\drivers\peripheral\ipc/cy_ipc_sema.c **** 
 346:Generated_Source\PSoC6\pdl\drivers\peripheral\ipc/cy_ipc_sema.c ****         if (!preemptable)
 719              		.loc 2 346 0
ARM GAS  C:\Users\tmj32\AppData\Local\Temp\cccOycf1.s 			page 37


 720 00ac FB78     		ldrb	r3, [r7, #3]
 721 00ae 83F00103 		eor	r3, r3, #1
 722 00b2 DBB2     		uxtb	r3, r3
 723 00b4 002B     		cmp	r3, #0
 724 00b6 05D0     		beq	.L57
 347:Generated_Source\PSoC6\pdl\drivers\peripheral\ipc/cy_ipc_sema.c ****         {
 348:Generated_Source\PSoC6\pdl\drivers\peripheral\ipc/cy_ipc_sema.c ****             Cy_SysLib_ExitCriticalSection(interruptState);
 725              		.loc 2 348 0
 726 00b8 F869     		ldr	r0, [r7, #28]
 727 00ba FFF7FEFF 		bl	Cy_SysLib_ExitCriticalSection
 728 00be 01E0     		b	.L57
 729              	.L51:
 349:Generated_Source\PSoC6\pdl\drivers\peripheral\ipc/cy_ipc_sema.c ****         }
 350:Generated_Source\PSoC6\pdl\drivers\peripheral\ipc/cy_ipc_sema.c ****     }
 351:Generated_Source\PSoC6\pdl\drivers\peripheral\ipc/cy_ipc_sema.c ****     else
 352:Generated_Source\PSoC6\pdl\drivers\peripheral\ipc/cy_ipc_sema.c ****     {
 353:Generated_Source\PSoC6\pdl\drivers\peripheral\ipc/cy_ipc_sema.c ****         retStatus = CY_IPC_SEMA_OUT_OF_RANGE;
 730              		.loc 2 353 0
 731 00c0 064B     		ldr	r3, .L59+12
 732 00c2 BB61     		str	r3, [r7, #24]
 733              	.L57:
 354:Generated_Source\PSoC6\pdl\drivers\peripheral\ipc/cy_ipc_sema.c ****     }
 355:Generated_Source\PSoC6\pdl\drivers\peripheral\ipc/cy_ipc_sema.c ****     return(retStatus);
 734              		.loc 2 355 0
 735 00c4 BB69     		ldr	r3, [r7, #24]
 356:Generated_Source\PSoC6\pdl\drivers\peripheral\ipc/cy_ipc_sema.c **** }
 736              		.loc 2 356 0
 737 00c6 1846     		mov	r0, r3
 738 00c8 2037     		adds	r7, r7, #32
 739              		.cfi_def_cfa_offset 8
 740 00ca BD46     		mov	sp, r7
 741              		.cfi_def_cfa_register 13
 742              		@ sp needed
 743 00cc 80BD     		pop	{r7, pc}
 744              	.L60:
 745 00ce 00BF     		.align	2
 746              	.L59:
 747 00d0 03018800 		.word	8913155
 748 00d4 00000000 		.word	cy_semaIpcStruct
 749 00d8 02018800 		.word	8913154
 750 00dc 04018A00 		.word	9044228
 751              		.cfi_endproc
 752              	.LFE154:
 753              		.size	Cy_IPC_Sema_Clear, .-Cy_IPC_Sema_Clear
 754              		.section	.text.Cy_IPC_Sema_Status,"ax",%progbits
 755              		.align	2
 756              		.global	Cy_IPC_Sema_Status
 757              		.thumb
 758              		.thumb_func
 759              		.type	Cy_IPC_Sema_Status, %function
 760              	Cy_IPC_Sema_Status:
 761              	.LFB155:
 357:Generated_Source\PSoC6\pdl\drivers\peripheral\ipc/cy_ipc_sema.c **** 
 358:Generated_Source\PSoC6\pdl\drivers\peripheral\ipc/cy_ipc_sema.c **** 
 359:Generated_Source\PSoC6\pdl\drivers\peripheral\ipc/cy_ipc_sema.c **** /*******************************************************************************
 360:Generated_Source\PSoC6\pdl\drivers\peripheral\ipc/cy_ipc_sema.c **** * Function Name: Cy_IPC_Sema_Status
 361:Generated_Source\PSoC6\pdl\drivers\peripheral\ipc/cy_ipc_sema.c **** ****************************************************************************//**
ARM GAS  C:\Users\tmj32\AppData\Local\Temp\cccOycf1.s 			page 38


 362:Generated_Source\PSoC6\pdl\drivers\peripheral\ipc/cy_ipc_sema.c **** *
 363:Generated_Source\PSoC6\pdl\drivers\peripheral\ipc/cy_ipc_sema.c **** * This function returns the status of the semaphore.
 364:Generated_Source\PSoC6\pdl\drivers\peripheral\ipc/cy_ipc_sema.c **** *
 365:Generated_Source\PSoC6\pdl\drivers\peripheral\ipc/cy_ipc_sema.c **** * \param semaNumber
 366:Generated_Source\PSoC6\pdl\drivers\peripheral\ipc/cy_ipc_sema.c **** *  The index of the semaphore to return status.
 367:Generated_Source\PSoC6\pdl\drivers\peripheral\ipc/cy_ipc_sema.c **** *
 368:Generated_Source\PSoC6\pdl\drivers\peripheral\ipc/cy_ipc_sema.c **** * \return Status of the operation
 369:Generated_Source\PSoC6\pdl\drivers\peripheral\ipc/cy_ipc_sema.c **** *     \retval CY_IPC_SEMA_STATUS_LOCKED:    The semaphore is in the set state.
 370:Generated_Source\PSoC6\pdl\drivers\peripheral\ipc/cy_ipc_sema.c **** *     \retval CY_IPC_SEMA_STATUS_UNLOCKED:  The semaphore is in the cleared state.
 371:Generated_Source\PSoC6\pdl\drivers\peripheral\ipc/cy_ipc_sema.c **** *     \retval CY_IPC_SEMA_OUT_OF_RANGE:     The semaphore number is not valid
 372:Generated_Source\PSoC6\pdl\drivers\peripheral\ipc/cy_ipc_sema.c **** *
 373:Generated_Source\PSoC6\pdl\drivers\peripheral\ipc/cy_ipc_sema.c **** * \funcusage
 374:Generated_Source\PSoC6\pdl\drivers\peripheral\ipc/cy_ipc_sema.c **** * \snippet IPC_sut_01.cydsn/main_cm4.c snippet_Cy_IPC_Sema_Status
 375:Generated_Source\PSoC6\pdl\drivers\peripheral\ipc/cy_ipc_sema.c **** *
 376:Generated_Source\PSoC6\pdl\drivers\peripheral\ipc/cy_ipc_sema.c **** *******************************************************************************/
 377:Generated_Source\PSoC6\pdl\drivers\peripheral\ipc/cy_ipc_sema.c **** cy_en_ipcsema_status_t Cy_IPC_Sema_Status(uint32_t semaNumber)
 378:Generated_Source\PSoC6\pdl\drivers\peripheral\ipc/cy_ipc_sema.c **** {
 762              		.loc 2 378 0
 763              		.cfi_startproc
 764              		@ args = 0, pretend = 0, frame = 24
 765              		@ frame_needed = 1, uses_anonymous_args = 0
 766 0000 80B5     		push	{r7, lr}
 767              		.cfi_def_cfa_offset 8
 768              		.cfi_offset 7, -8
 769              		.cfi_offset 14, -4
 770 0002 86B0     		sub	sp, sp, #24
 771              		.cfi_def_cfa_offset 32
 772 0004 00AF     		add	r7, sp, #0
 773              		.cfi_def_cfa_register 7
 774 0006 7860     		str	r0, [r7, #4]
 379:Generated_Source\PSoC6\pdl\drivers\peripheral\ipc/cy_ipc_sema.c ****     cy_en_ipcsema_status_t   retStatus;
 380:Generated_Source\PSoC6\pdl\drivers\peripheral\ipc/cy_ipc_sema.c ****     uint32_t semaIndex;
 381:Generated_Source\PSoC6\pdl\drivers\peripheral\ipc/cy_ipc_sema.c ****     uint32_t semaMask;
 382:Generated_Source\PSoC6\pdl\drivers\peripheral\ipc/cy_ipc_sema.c ****     cy_stc_ipc_sema_t      *semaStruct;
 383:Generated_Source\PSoC6\pdl\drivers\peripheral\ipc/cy_ipc_sema.c **** 
 384:Generated_Source\PSoC6\pdl\drivers\peripheral\ipc/cy_ipc_sema.c ****     /* Get pointer to structure */
 385:Generated_Source\PSoC6\pdl\drivers\peripheral\ipc/cy_ipc_sema.c ****     semaStruct = (cy_stc_ipc_sema_t *)Cy_IPC_Drv_ReadDataValue(cy_semaIpcStruct);
 775              		.loc 2 385 0
 776 0008 164B     		ldr	r3, .L67
 777 000a 1B68     		ldr	r3, [r3]
 778 000c 1846     		mov	r0, r3
 779 000e FFF7FEFF 		bl	Cy_IPC_Drv_ReadDataValue
 780 0012 0346     		mov	r3, r0
 781 0014 3B61     		str	r3, [r7, #16]
 386:Generated_Source\PSoC6\pdl\drivers\peripheral\ipc/cy_ipc_sema.c **** 
 387:Generated_Source\PSoC6\pdl\drivers\peripheral\ipc/cy_ipc_sema.c ****     if (semaNumber < semaStruct->maxSema)
 782              		.loc 2 387 0
 783 0016 3B69     		ldr	r3, [r7, #16]
 784 0018 1A68     		ldr	r2, [r3]
 785 001a 7B68     		ldr	r3, [r7, #4]
 786 001c 9A42     		cmp	r2, r3
 787 001e 1AD9     		bls	.L62
 388:Generated_Source\PSoC6\pdl\drivers\peripheral\ipc/cy_ipc_sema.c ****     {
 389:Generated_Source\PSoC6\pdl\drivers\peripheral\ipc/cy_ipc_sema.c ****         /* Get the index into the semaphore array and calculate the mask */
 390:Generated_Source\PSoC6\pdl\drivers\peripheral\ipc/cy_ipc_sema.c ****         semaIndex = semaNumber / CY_IPC_SEMA_PER_WORD;
 788              		.loc 2 390 0
 789 0020 7B68     		ldr	r3, [r7, #4]
ARM GAS  C:\Users\tmj32\AppData\Local\Temp\cccOycf1.s 			page 39


 790 0022 5B09     		lsrs	r3, r3, #5
 791 0024 FB60     		str	r3, [r7, #12]
 391:Generated_Source\PSoC6\pdl\drivers\peripheral\ipc/cy_ipc_sema.c ****         semaMask = (uint32_t)(1ul << (semaNumber - (semaIndex * CY_IPC_SEMA_PER_WORD) ));
 792              		.loc 2 391 0
 793 0026 FB68     		ldr	r3, [r7, #12]
 794 0028 5B01     		lsls	r3, r3, #5
 795 002a 7A68     		ldr	r2, [r7, #4]
 796 002c D31A     		subs	r3, r2, r3
 797 002e 0122     		movs	r2, #1
 798 0030 02FA03F3 		lsl	r3, r2, r3
 799 0034 BB60     		str	r3, [r7, #8]
 392:Generated_Source\PSoC6\pdl\drivers\peripheral\ipc/cy_ipc_sema.c **** 
 393:Generated_Source\PSoC6\pdl\drivers\peripheral\ipc/cy_ipc_sema.c ****         if((semaStruct->arrayPtr[semaIndex] & semaMask) != 0ul)
 800              		.loc 2 393 0
 801 0036 3B69     		ldr	r3, [r7, #16]
 802 0038 5A68     		ldr	r2, [r3, #4]
 803 003a FB68     		ldr	r3, [r7, #12]
 804 003c 9B00     		lsls	r3, r3, #2
 805 003e 1344     		add	r3, r3, r2
 806 0040 1A68     		ldr	r2, [r3]
 807 0042 BB68     		ldr	r3, [r7, #8]
 808 0044 1340     		ands	r3, r3, r2
 809 0046 002B     		cmp	r3, #0
 810 0048 02D0     		beq	.L63
 394:Generated_Source\PSoC6\pdl\drivers\peripheral\ipc/cy_ipc_sema.c ****         {
 395:Generated_Source\PSoC6\pdl\drivers\peripheral\ipc/cy_ipc_sema.c ****             retStatus =  CY_IPC_SEMA_STATUS_LOCKED;
 811              		.loc 2 395 0
 812 004a 074B     		ldr	r3, .L67+4
 813 004c 7B61     		str	r3, [r7, #20]
 814 004e 04E0     		b	.L65
 815              	.L63:
 396:Generated_Source\PSoC6\pdl\drivers\peripheral\ipc/cy_ipc_sema.c ****         }
 397:Generated_Source\PSoC6\pdl\drivers\peripheral\ipc/cy_ipc_sema.c ****         else
 398:Generated_Source\PSoC6\pdl\drivers\peripheral\ipc/cy_ipc_sema.c ****         {
 399:Generated_Source\PSoC6\pdl\drivers\peripheral\ipc/cy_ipc_sema.c ****             retStatus =  CY_IPC_SEMA_STATUS_UNLOCKED;
 816              		.loc 2 399 0
 817 0050 064B     		ldr	r3, .L67+8
 818 0052 7B61     		str	r3, [r7, #20]
 819 0054 01E0     		b	.L65
 820              	.L62:
 400:Generated_Source\PSoC6\pdl\drivers\peripheral\ipc/cy_ipc_sema.c ****         }
 401:Generated_Source\PSoC6\pdl\drivers\peripheral\ipc/cy_ipc_sema.c ****     }
 402:Generated_Source\PSoC6\pdl\drivers\peripheral\ipc/cy_ipc_sema.c ****     else
 403:Generated_Source\PSoC6\pdl\drivers\peripheral\ipc/cy_ipc_sema.c ****     {
 404:Generated_Source\PSoC6\pdl\drivers\peripheral\ipc/cy_ipc_sema.c ****         retStatus = CY_IPC_SEMA_OUT_OF_RANGE;
 821              		.loc 2 404 0
 822 0056 064B     		ldr	r3, .L67+12
 823 0058 7B61     		str	r3, [r7, #20]
 824              	.L65:
 405:Generated_Source\PSoC6\pdl\drivers\peripheral\ipc/cy_ipc_sema.c ****     }
 406:Generated_Source\PSoC6\pdl\drivers\peripheral\ipc/cy_ipc_sema.c ****     return(retStatus);
 825              		.loc 2 406 0
 826 005a 7B69     		ldr	r3, [r7, #20]
 407:Generated_Source\PSoC6\pdl\drivers\peripheral\ipc/cy_ipc_sema.c **** }
 827              		.loc 2 407 0
 828 005c 1846     		mov	r0, r3
 829 005e 1837     		adds	r7, r7, #24
ARM GAS  C:\Users\tmj32\AppData\Local\Temp\cccOycf1.s 			page 40


 830              		.cfi_def_cfa_offset 8
 831 0060 BD46     		mov	sp, r7
 832              		.cfi_def_cfa_register 13
 833              		@ sp needed
 834 0062 80BD     		pop	{r7, pc}
 835              	.L68:
 836              		.align	2
 837              	.L67:
 838 0064 00000000 		.word	cy_semaIpcStruct
 839 0068 01018800 		.word	8913153
 840 006c 00018800 		.word	8913152
 841 0070 04018A00 		.word	9044228
 842              		.cfi_endproc
 843              	.LFE155:
 844              		.size	Cy_IPC_Sema_Status, .-Cy_IPC_Sema_Status
 845              		.section	.text.Cy_IPC_Sema_GetMaxSems,"ax",%progbits
 846              		.align	2
 847              		.global	Cy_IPC_Sema_GetMaxSems
 848              		.thumb
 849              		.thumb_func
 850              		.type	Cy_IPC_Sema_GetMaxSems, %function
 851              	Cy_IPC_Sema_GetMaxSems:
 852              	.LFB156:
 408:Generated_Source\PSoC6\pdl\drivers\peripheral\ipc/cy_ipc_sema.c **** 
 409:Generated_Source\PSoC6\pdl\drivers\peripheral\ipc/cy_ipc_sema.c **** 
 410:Generated_Source\PSoC6\pdl\drivers\peripheral\ipc/cy_ipc_sema.c **** /*******************************************************************************
 411:Generated_Source\PSoC6\pdl\drivers\peripheral\ipc/cy_ipc_sema.c **** * Function Name: Cy_IPC_Sema_GetMaxSems
 412:Generated_Source\PSoC6\pdl\drivers\peripheral\ipc/cy_ipc_sema.c **** ****************************************************************************//**
 413:Generated_Source\PSoC6\pdl\drivers\peripheral\ipc/cy_ipc_sema.c **** *
 414:Generated_Source\PSoC6\pdl\drivers\peripheral\ipc/cy_ipc_sema.c **** * This function returns the number of semaphores in the semaphores subsystem.
 415:Generated_Source\PSoC6\pdl\drivers\peripheral\ipc/cy_ipc_sema.c **** *
 416:Generated_Source\PSoC6\pdl\drivers\peripheral\ipc/cy_ipc_sema.c **** * \return
 417:Generated_Source\PSoC6\pdl\drivers\peripheral\ipc/cy_ipc_sema.c **** *     Returns the semaphores quantity.
 418:Generated_Source\PSoC6\pdl\drivers\peripheral\ipc/cy_ipc_sema.c **** *
 419:Generated_Source\PSoC6\pdl\drivers\peripheral\ipc/cy_ipc_sema.c **** * \funcusage
 420:Generated_Source\PSoC6\pdl\drivers\peripheral\ipc/cy_ipc_sema.c **** * \snippet IPC_sut_01.cydsn/main_cm4.c snippet_Cy_IPC_Sema_GetMaxSems
 421:Generated_Source\PSoC6\pdl\drivers\peripheral\ipc/cy_ipc_sema.c **** *
 422:Generated_Source\PSoC6\pdl\drivers\peripheral\ipc/cy_ipc_sema.c **** *******************************************************************************/
 423:Generated_Source\PSoC6\pdl\drivers\peripheral\ipc/cy_ipc_sema.c **** uint32_t Cy_IPC_Sema_GetMaxSems(void)
 424:Generated_Source\PSoC6\pdl\drivers\peripheral\ipc/cy_ipc_sema.c **** {
 853              		.loc 2 424 0
 854              		.cfi_startproc
 855              		@ args = 0, pretend = 0, frame = 8
 856              		@ frame_needed = 1, uses_anonymous_args = 0
 857 0000 80B5     		push	{r7, lr}
 858              		.cfi_def_cfa_offset 8
 859              		.cfi_offset 7, -8
 860              		.cfi_offset 14, -4
 861 0002 82B0     		sub	sp, sp, #8
 862              		.cfi_def_cfa_offset 16
 863 0004 00AF     		add	r7, sp, #0
 864              		.cfi_def_cfa_register 7
 425:Generated_Source\PSoC6\pdl\drivers\peripheral\ipc/cy_ipc_sema.c ****     cy_stc_ipc_sema_t      *semaStruct;
 426:Generated_Source\PSoC6\pdl\drivers\peripheral\ipc/cy_ipc_sema.c **** 
 427:Generated_Source\PSoC6\pdl\drivers\peripheral\ipc/cy_ipc_sema.c ****     /* Get pointer to structure */
 428:Generated_Source\PSoC6\pdl\drivers\peripheral\ipc/cy_ipc_sema.c ****     semaStruct = (cy_stc_ipc_sema_t *)Cy_IPC_Drv_ReadDataValue(cy_semaIpcStruct);
 865              		.loc 2 428 0
ARM GAS  C:\Users\tmj32\AppData\Local\Temp\cccOycf1.s 			page 41


 866 0006 064B     		ldr	r3, .L71
 867 0008 1B68     		ldr	r3, [r3]
 868 000a 1846     		mov	r0, r3
 869 000c FFF7FEFF 		bl	Cy_IPC_Drv_ReadDataValue
 870 0010 0346     		mov	r3, r0
 871 0012 7B60     		str	r3, [r7, #4]
 429:Generated_Source\PSoC6\pdl\drivers\peripheral\ipc/cy_ipc_sema.c **** 
 430:Generated_Source\PSoC6\pdl\drivers\peripheral\ipc/cy_ipc_sema.c ****     return (semaStruct->maxSema);
 872              		.loc 2 430 0
 873 0014 7B68     		ldr	r3, [r7, #4]
 874 0016 1B68     		ldr	r3, [r3]
 431:Generated_Source\PSoC6\pdl\drivers\peripheral\ipc/cy_ipc_sema.c **** }
 875              		.loc 2 431 0
 876 0018 1846     		mov	r0, r3
 877 001a 0837     		adds	r7, r7, #8
 878              		.cfi_def_cfa_offset 8
 879 001c BD46     		mov	sp, r7
 880              		.cfi_def_cfa_register 13
 881              		@ sp needed
 882 001e 80BD     		pop	{r7, pc}
 883              	.L72:
 884              		.align	2
 885              	.L71:
 886 0020 00000000 		.word	cy_semaIpcStruct
 887              		.cfi_endproc
 888              	.LFE156:
 889              		.size	Cy_IPC_Sema_GetMaxSems, .-Cy_IPC_Sema_GetMaxSems
 890              		.bss
 891              		.align	2
 892              	cy_semaData.10638:
 893 0004 00000000 		.space	8
 893      00000000 
 894              		.text
 895              	.Letext0:
 896              		.file 3 "c:\\program files (x86)\\cypress\\psoc creator\\4.3\\psoc creator\\import\\gnu\\arm\\5.4.
 897              		.file 4 "c:\\program files (x86)\\cypress\\psoc creator\\4.3\\psoc creator\\import\\gnu\\arm\\5.4.
 898              		.file 5 "Generated_Source\\PSoC6\\pdl\\devices/psoc6/include/ip/cyip_ipc.h"
 899              		.file 6 "Generated_Source\\PSoC6\\pdl\\drivers/peripheral/device/cy_device.h"
 900              		.file 7 "Generated_Source\\PSoC6\\pdl\\devices/psoc6/include/psoc6_01_config.h"
 901              		.file 8 "Generated_Source\\PSoC6\\pdl\\drivers/peripheral/syslib/cy_syslib.h"
 902              		.file 9 "Generated_Source\\PSoC6\\pdl\\drivers\\peripheral\\ipc\\cy_ipc_sema.h"
 903              		.file 10 "Generated_Source\\PSoC6\\pdl\\cmsis/include/core_cm4.h"