ARM GAS  C:\Users\tmj32\AppData\Local\Temp\cc1bAzcK.s 			page 1


   1              		.syntax unified
   2              		.cpu cortex-m4
   3              		.eabi_attribute 27, 1
   4              		.fpu fpv4-sp-d16
   5              		.eabi_attribute 20, 1
   6              		.eabi_attribute 21, 1
   7              		.eabi_attribute 23, 3
   8              		.eabi_attribute 24, 1
   9              		.eabi_attribute 25, 1
  10              		.eabi_attribute 26, 1
  11              		.eabi_attribute 30, 6
  12              		.eabi_attribute 34, 1
  13              		.eabi_attribute 18, 4
  14              		.thumb
  15              		.syntax unified
  16              		.file	"cy_prot.c"
  17              		.text
  18              	.Ltext0:
  19              		.cfi_sections	.debug_frame
  20              		.section	.rodata
  21              		.align	2
  22              	.LC0:
  23 0000 47656E65 		.ascii	"Generated_Source\\PSoC6\\pdl\\drivers\\peripheral\\"
  23      72617465 
  23      645F536F 
  23      75726365 
  23      5C50536F 
  24 002e 70726F74 		.ascii	"prot\\cy_prot.c\000"
  24      5C63795F 
  24      70726F74 
  24      2E6300
  25              		.section	.text.Cy_Prot_ConfigBusMaster,"ax",%progbits
  26              		.align	2
  27              		.global	Cy_Prot_ConfigBusMaster
  28              		.thumb
  29              		.thumb_func
  30              		.type	Cy_Prot_ConfigBusMaster, %function
  31              	Cy_Prot_ConfigBusMaster:
  32              	.LFB134:
  33              		.file 1 "Generated_Source\\PSoC6\\pdl\\drivers\\peripheral\\prot\\cy_prot.c"
   1:Generated_Source\PSoC6\pdl\drivers\peripheral\prot/cy_prot.c **** /***************************************************************************//**
   2:Generated_Source\PSoC6\pdl\drivers\peripheral\prot/cy_prot.c **** * \file cy_prot.c
   3:Generated_Source\PSoC6\pdl\drivers\peripheral\prot/cy_prot.c **** * \version 1.20
   4:Generated_Source\PSoC6\pdl\drivers\peripheral\prot/cy_prot.c **** *
   5:Generated_Source\PSoC6\pdl\drivers\peripheral\prot/cy_prot.c **** * \brief
   6:Generated_Source\PSoC6\pdl\drivers\peripheral\prot/cy_prot.c **** * Provides an API implementation of the Protection Unit driver
   7:Generated_Source\PSoC6\pdl\drivers\peripheral\prot/cy_prot.c **** *
   8:Generated_Source\PSoC6\pdl\drivers\peripheral\prot/cy_prot.c **** ********************************************************************************
   9:Generated_Source\PSoC6\pdl\drivers\peripheral\prot/cy_prot.c **** * \copyright
  10:Generated_Source\PSoC6\pdl\drivers\peripheral\prot/cy_prot.c **** * Copyright 2016-2018, Cypress Semiconductor Corporation. All rights reserved.
  11:Generated_Source\PSoC6\pdl\drivers\peripheral\prot/cy_prot.c **** * You may use this file only in accordance with the license, terms, conditions,
  12:Generated_Source\PSoC6\pdl\drivers\peripheral\prot/cy_prot.c **** * disclaimers, and limitations in the end user license agreement accompanying
  13:Generated_Source\PSoC6\pdl\drivers\peripheral\prot/cy_prot.c **** * the software package with which this file was provided.
  14:Generated_Source\PSoC6\pdl\drivers\peripheral\prot/cy_prot.c **** *******************************************************************************/
  15:Generated_Source\PSoC6\pdl\drivers\peripheral\prot/cy_prot.c **** 
  16:Generated_Source\PSoC6\pdl\drivers\peripheral\prot/cy_prot.c **** #include "cy_prot.h"
  17:Generated_Source\PSoC6\pdl\drivers\peripheral\prot/cy_prot.c **** 
ARM GAS  C:\Users\tmj32\AppData\Local\Temp\cc1bAzcK.s 			page 2


  18:Generated_Source\PSoC6\pdl\drivers\peripheral\prot/cy_prot.c **** #if defined(__cplusplus)
  19:Generated_Source\PSoC6\pdl\drivers\peripheral\prot/cy_prot.c **** extern "C" {
  20:Generated_Source\PSoC6\pdl\drivers\peripheral\prot/cy_prot.c **** #endif
  21:Generated_Source\PSoC6\pdl\drivers\peripheral\prot/cy_prot.c **** 
  22:Generated_Source\PSoC6\pdl\drivers\peripheral\prot/cy_prot.c **** static bool Prot_IsSmpuStructDisabled(uint32_t smpuStcIndex);
  23:Generated_Source\PSoC6\pdl\drivers\peripheral\prot/cy_prot.c **** static bool Prot_IsPpuProgStructDisabled(uint32_t ppuStcIndex);
  24:Generated_Source\PSoC6\pdl\drivers\peripheral\prot/cy_prot.c **** static cy_en_prot_status_t Prot_ConfigPpuAtt(volatile uint32_t * reg, uint16_t pcMask, 
  25:Generated_Source\PSoC6\pdl\drivers\peripheral\prot/cy_prot.c ****                                        cy_en_prot_perm_t userPermission, cy_en_prot_perm_t privPerm
  26:Generated_Source\PSoC6\pdl\drivers\peripheral\prot/cy_prot.c **** 
  27:Generated_Source\PSoC6\pdl\drivers\peripheral\prot/cy_prot.c **** /* Define to enable all attributes for SMPU slave structure */
  28:Generated_Source\PSoC6\pdl\drivers\peripheral\prot/cy_prot.c **** #define PROT_SMPU_STRUCT_ATT0_ENABLE_ALL_MASK      (PROT_SMPU_SMPU_STRUCT_ATT0_UR_Msk | \
  29:Generated_Source\PSoC6\pdl\drivers\peripheral\prot/cy_prot.c ****                                                     PROT_SMPU_SMPU_STRUCT_ATT0_UW_Msk | \
  30:Generated_Source\PSoC6\pdl\drivers\peripheral\prot/cy_prot.c ****                                                     PROT_SMPU_SMPU_STRUCT_ATT0_UX_Msk | \
  31:Generated_Source\PSoC6\pdl\drivers\peripheral\prot/cy_prot.c ****                                                     PROT_SMPU_SMPU_STRUCT_ATT0_PR_Msk | \
  32:Generated_Source\PSoC6\pdl\drivers\peripheral\prot/cy_prot.c ****                                                     PROT_SMPU_SMPU_STRUCT_ATT0_PW_Msk | \
  33:Generated_Source\PSoC6\pdl\drivers\peripheral\prot/cy_prot.c ****                                                     PROT_SMPU_SMPU_STRUCT_ATT0_PX_Msk | \
  34:Generated_Source\PSoC6\pdl\drivers\peripheral\prot/cy_prot.c ****                                                     PROT_SMPU_SMPU_STRUCT_ATT0_NS_Msk)
  35:Generated_Source\PSoC6\pdl\drivers\peripheral\prot/cy_prot.c **** 
  36:Generated_Source\PSoC6\pdl\drivers\peripheral\prot/cy_prot.c ****  /* Define to enable all attributes for programmable PPU slave structure */
  37:Generated_Source\PSoC6\pdl\drivers\peripheral\prot/cy_prot.c **** #define PROT_PERI_PPU_PR_ATT0_ENABLE_ALL_MASK      (PERI_PPU_PR_ATT0_UR_Msk | \
  38:Generated_Source\PSoC6\pdl\drivers\peripheral\prot/cy_prot.c ****                                                     PERI_PPU_PR_ATT0_UW_Msk | \
  39:Generated_Source\PSoC6\pdl\drivers\peripheral\prot/cy_prot.c ****                                                     PERI_PPU_PR_ATT0_UX_Msk | \
  40:Generated_Source\PSoC6\pdl\drivers\peripheral\prot/cy_prot.c ****                                                     PERI_PPU_PR_ATT0_PR_Msk | \
  41:Generated_Source\PSoC6\pdl\drivers\peripheral\prot/cy_prot.c ****                                                     PERI_PPU_PR_ATT0_PW_Msk | \
  42:Generated_Source\PSoC6\pdl\drivers\peripheral\prot/cy_prot.c ****                                                     PERI_PPU_PR_ATT0_PX_Msk | \
  43:Generated_Source\PSoC6\pdl\drivers\peripheral\prot/cy_prot.c ****                                                     PERI_PPU_PR_ATT0_NS_Msk)
  44:Generated_Source\PSoC6\pdl\drivers\peripheral\prot/cy_prot.c **** 
  45:Generated_Source\PSoC6\pdl\drivers\peripheral\prot/cy_prot.c **** #define PROT_PERI_PPU_PROG_PC1_PC3_MASK            (0xffffffe0UL)  /* PC1 - PC3 bits mask */
  46:Generated_Source\PSoC6\pdl\drivers\peripheral\prot/cy_prot.c **** 
  47:Generated_Source\PSoC6\pdl\drivers\peripheral\prot/cy_prot.c **** /*******************************************************************************
  48:Generated_Source\PSoC6\pdl\drivers\peripheral\prot/cy_prot.c **** * Function Name: Cy_Prot_ConfigBusMaster
  49:Generated_Source\PSoC6\pdl\drivers\peripheral\prot/cy_prot.c **** ****************************************************************************//**
  50:Generated_Source\PSoC6\pdl\drivers\peripheral\prot/cy_prot.c **** *
  51:Generated_Source\PSoC6\pdl\drivers\peripheral\prot/cy_prot.c **** * Configures the allowed protection contexts, security (secure/non-secure)
  52:Generated_Source\PSoC6\pdl\drivers\peripheral\prot/cy_prot.c **** * and privilege level of the bus transaction created by the specified master.
  53:Generated_Source\PSoC6\pdl\drivers\peripheral\prot/cy_prot.c **** *
  54:Generated_Source\PSoC6\pdl\drivers\peripheral\prot/cy_prot.c **** * \note This function is applicable for both CPUSS ver_1 and ver_2.
  55:Generated_Source\PSoC6\pdl\drivers\peripheral\prot/cy_prot.c **** *
  56:Generated_Source\PSoC6\pdl\drivers\peripheral\prot/cy_prot.c **** * \param busMaster
  57:Generated_Source\PSoC6\pdl\drivers\peripheral\prot/cy_prot.c **** * Indicates which master needs to be configured. Refer to the CPUSS_MS_ID_X
  58:Generated_Source\PSoC6\pdl\drivers\peripheral\prot/cy_prot.c **** * defines in the device config header file.
  59:Generated_Source\PSoC6\pdl\drivers\peripheral\prot/cy_prot.c **** * 
  60:Generated_Source\PSoC6\pdl\drivers\peripheral\prot/cy_prot.c **** * \param privileged
  61:Generated_Source\PSoC6\pdl\drivers\peripheral\prot/cy_prot.c **** * Boolean to define the privilege level of all subsequent bus transfers.
  62:Generated_Source\PSoC6\pdl\drivers\peripheral\prot/cy_prot.c **** * True - privileged, False - not privileged.
  63:Generated_Source\PSoC6\pdl\drivers\peripheral\prot/cy_prot.c **** * Note that this is an inherited value. If not inherited, then this bit will 
  64:Generated_Source\PSoC6\pdl\drivers\peripheral\prot/cy_prot.c **** * be used.
  65:Generated_Source\PSoC6\pdl\drivers\peripheral\prot/cy_prot.c **** *
  66:Generated_Source\PSoC6\pdl\drivers\peripheral\prot/cy_prot.c **** * \param secure
  67:Generated_Source\PSoC6\pdl\drivers\peripheral\prot/cy_prot.c **** * Security setting for the master. True - Secure, False - Not secure.
  68:Generated_Source\PSoC6\pdl\drivers\peripheral\prot/cy_prot.c **** * 
  69:Generated_Source\PSoC6\pdl\drivers\peripheral\prot/cy_prot.c **** * \param pcMask
  70:Generated_Source\PSoC6\pdl\drivers\peripheral\prot/cy_prot.c **** * This is a 16 bit value of the allowed contexts, it is an OR'ed (|) field of the
  71:Generated_Source\PSoC6\pdl\drivers\peripheral\prot/cy_prot.c **** * provided defines in cy_prot.h. For example: (CY_PROT_PCMASK1 | CY_PROT_PCMASK3 | CY_PROT_PCMASK4)
  72:Generated_Source\PSoC6\pdl\drivers\peripheral\prot/cy_prot.c **** * \note The function accepts pcMask values from CY_PROT_PCMASK1 to CY_PROT_PCMASK15. 
  73:Generated_Source\PSoC6\pdl\drivers\peripheral\prot/cy_prot.c **** * But each device has its own number of available protection contexts. 
  74:Generated_Source\PSoC6\pdl\drivers\peripheral\prot/cy_prot.c **** * That number is defined by PERI_PC_NR in the config file.
ARM GAS  C:\Users\tmj32\AppData\Local\Temp\cc1bAzcK.s 			page 3


  75:Generated_Source\PSoC6\pdl\drivers\peripheral\prot/cy_prot.c **** *
  76:Generated_Source\PSoC6\pdl\drivers\peripheral\prot/cy_prot.c **** * \return
  77:Generated_Source\PSoC6\pdl\drivers\peripheral\prot/cy_prot.c **** * Status of the function call.
  78:Generated_Source\PSoC6\pdl\drivers\peripheral\prot/cy_prot.c **** *
  79:Generated_Source\PSoC6\pdl\drivers\peripheral\prot/cy_prot.c **** *   Status               | Description
  80:Generated_Source\PSoC6\pdl\drivers\peripheral\prot/cy_prot.c **** *   ------------         | -----------
  81:Generated_Source\PSoC6\pdl\drivers\peripheral\prot/cy_prot.c **** *   CY_PROT_SUCCESS      | The function completed successfully.
  82:Generated_Source\PSoC6\pdl\drivers\peripheral\prot/cy_prot.c **** *   CY_PROT_FAILURE      | The resource is locked.
  83:Generated_Source\PSoC6\pdl\drivers\peripheral\prot/cy_prot.c **** *
  84:Generated_Source\PSoC6\pdl\drivers\peripheral\prot/cy_prot.c **** * \funcusage
  85:Generated_Source\PSoC6\pdl\drivers\peripheral\prot/cy_prot.c **** * \snippet prot/1.20/snippet/main.c snippet_Cy_Prot_ConfigBusMaster
  86:Generated_Source\PSoC6\pdl\drivers\peripheral\prot/cy_prot.c **** *
  87:Generated_Source\PSoC6\pdl\drivers\peripheral\prot/cy_prot.c **** *******************************************************************************/
  88:Generated_Source\PSoC6\pdl\drivers\peripheral\prot/cy_prot.c **** cy_en_prot_status_t Cy_Prot_ConfigBusMaster(en_prot_master_t busMaster, bool privileged, bool secur
  89:Generated_Source\PSoC6\pdl\drivers\peripheral\prot/cy_prot.c **** {
  34              		.loc 1 89 0
  35              		.cfi_startproc
  36              		@ args = 0, pretend = 0, frame = 24
  37              		@ frame_needed = 1, uses_anonymous_args = 0
  38 0000 80B5     		push	{r7, lr}
  39              		.cfi_def_cfa_offset 8
  40              		.cfi_offset 7, -8
  41              		.cfi_offset 14, -4
  42 0002 86B0     		sub	sp, sp, #24
  43              		.cfi_def_cfa_offset 32
  44 0004 00AF     		add	r7, sp, #0
  45              		.cfi_def_cfa_register 7
  46 0006 3B60     		str	r3, [r7]
  47 0008 0346     		mov	r3, r0
  48 000a FB71     		strb	r3, [r7, #7]
  49 000c 0B46     		mov	r3, r1
  50 000e BB71     		strb	r3, [r7, #6]
  51 0010 1346     		mov	r3, r2
  52 0012 7B71     		strb	r3, [r7, #5]
  90:Generated_Source\PSoC6\pdl\drivers\peripheral\prot/cy_prot.c ****     cy_en_prot_status_t status = CY_PROT_SUCCESS;
  53              		.loc 1 90 0
  54 0014 0023     		movs	r3, #0
  55 0016 7B61     		str	r3, [r7, #20]
  91:Generated_Source\PSoC6\pdl\drivers\peripheral\prot/cy_prot.c ****     uint32_t regVal;
  92:Generated_Source\PSoC6\pdl\drivers\peripheral\prot/cy_prot.c ****     volatile uint32_t *addrMsCtl; /* addrMsCtl is pointer to a register that is volatile by 
  93:Generated_Source\PSoC6\pdl\drivers\peripheral\prot/cy_prot.c ****                                    * nature as can be changed outside of firmware control. 
  94:Generated_Source\PSoC6\pdl\drivers\peripheral\prot/cy_prot.c ****                                    */
  95:Generated_Source\PSoC6\pdl\drivers\peripheral\prot/cy_prot.c **** 
  96:Generated_Source\PSoC6\pdl\drivers\peripheral\prot/cy_prot.c ****     CY_ASSERT_L1(CY_PROT_IS_BUS_MASTER_VALID(busMaster));
  56              		.loc 1 96 0
  57 0018 1E4B     		ldr	r3, .L7
  58 001a 1B68     		ldr	r3, [r3]
  59 001c 9A6C     		ldr	r2, [r3, #72]
  60 001e FB79     		ldrb	r3, [r7, #7]	@ zero_extendqisi2
  61 0020 22FA03F3 		lsr	r3, r2, r3
  62 0024 03F00103 		and	r3, r3, #1
  63 0028 002B     		cmp	r3, #0
  64 002a 03D1     		bne	.L2
  65              		.loc 1 96 0 is_stmt 0 discriminator 1
  66 002c 6021     		movs	r1, #96
  67 002e 1A48     		ldr	r0, .L7+4
  68 0030 FFF7FEFF 		bl	Cy_SysLib_AssertFailed
ARM GAS  C:\Users\tmj32\AppData\Local\Temp\cc1bAzcK.s 			page 4


  69              	.L2:
  97:Generated_Source\PSoC6\pdl\drivers\peripheral\prot/cy_prot.c ****     CY_ASSERT_L2(CY_PROT_IS_PC_MASK_VALID(pcMask));
  70              		.loc 1 97 0 is_stmt 1
  71 0034 3B68     		ldr	r3, [r7]
  72 0036 23F4FF43 		bic	r3, r3, #32640
  73 003a 23F07F03 		bic	r3, r3, #127
  74 003e 002B     		cmp	r3, #0
  75 0040 03D0     		beq	.L3
  76              		.loc 1 97 0 is_stmt 0 discriminator 1
  77 0042 6121     		movs	r1, #97
  78 0044 1448     		ldr	r0, .L7+4
  79 0046 FFF7FEFF 		bl	Cy_SysLib_AssertFailed
  80              	.L3:
  98:Generated_Source\PSoC6\pdl\drivers\peripheral\prot/cy_prot.c ****     
  99:Generated_Source\PSoC6\pdl\drivers\peripheral\prot/cy_prot.c ****     /* Get the address of Master x protection context control register (MSx_CTL) */
 100:Generated_Source\PSoC6\pdl\drivers\peripheral\prot/cy_prot.c ****     addrMsCtl = (uint32_t *)(CY_PROT_BASE + (uint32_t)((uint32_t)busMaster << CY_PROT_MSX_CTL_SHIFT
  81              		.loc 1 100 0 is_stmt 1
  82 004a 124B     		ldr	r3, .L7
  83 004c 1B68     		ldr	r3, [r3]
  84 004e 1A69     		ldr	r2, [r3, #16]
  85 0050 FB79     		ldrb	r3, [r7, #7]	@ zero_extendqisi2
  86 0052 9B00     		lsls	r3, r3, #2
  87 0054 1344     		add	r3, r3, r2
  88 0056 3B61     		str	r3, [r7, #16]
 101:Generated_Source\PSoC6\pdl\drivers\peripheral\prot/cy_prot.c **** 
 102:Generated_Source\PSoC6\pdl\drivers\peripheral\prot/cy_prot.c ****     /* Get bitfields for MSx_CTL */
 103:Generated_Source\PSoC6\pdl\drivers\peripheral\prot/cy_prot.c ****     regVal = _VAL2FLD(PROT_SMPU_MS0_CTL_NS, !secure)   /* Security setting */
  89              		.loc 1 103 0
  90 0058 7B79     		ldrb	r3, [r7, #5]
  91 005a 83F00103 		eor	r3, r3, #1
  92 005e DBB2     		uxtb	r3, r3
  93 0060 5B00     		lsls	r3, r3, #1
  94 0062 03F00202 		and	r2, r3, #2
 104:Generated_Source\PSoC6\pdl\drivers\peripheral\prot/cy_prot.c ****             | _VAL2FLD(PROT_SMPU_MS0_CTL_P, privileged) /* Privileged setting */
  95              		.loc 1 104 0
  96 0066 BB79     		ldrb	r3, [r7, #6]	@ zero_extendqisi2
  97 0068 1A43     		orrs	r2, r2, r3
 105:Generated_Source\PSoC6\pdl\drivers\peripheral\prot/cy_prot.c ****             | _VAL2FLD(PROT_SMPU_MS0_CTL_PC_MASK_15_TO_1, pcMask); /* Protection context mask */
  98              		.loc 1 105 0
  99 006a 3B68     		ldr	r3, [r7]
 100 006c 5B04     		lsls	r3, r3, #17
 103:Generated_Source\PSoC6\pdl\drivers\peripheral\prot/cy_prot.c ****             | _VAL2FLD(PROT_SMPU_MS0_CTL_P, privileged) /* Privileged setting */
 101              		.loc 1 103 0
 102 006e 1343     		orrs	r3, r3, r2
 103 0070 FB60     		str	r3, [r7, #12]
 106:Generated_Source\PSoC6\pdl\drivers\peripheral\prot/cy_prot.c ****             
 107:Generated_Source\PSoC6\pdl\drivers\peripheral\prot/cy_prot.c ****     /* Set the value of MSx_CTL */
 108:Generated_Source\PSoC6\pdl\drivers\peripheral\prot/cy_prot.c ****     *addrMsCtl = regVal;
 104              		.loc 1 108 0
 105 0072 3B69     		ldr	r3, [r7, #16]
 106 0074 FA68     		ldr	r2, [r7, #12]
 107 0076 1A60     		str	r2, [r3]
 109:Generated_Source\PSoC6\pdl\drivers\peripheral\prot/cy_prot.c **** 
 110:Generated_Source\PSoC6\pdl\drivers\peripheral\prot/cy_prot.c ****     /* Check if the MSx_CTL register is successfully updated with the new register value. 
 111:Generated_Source\PSoC6\pdl\drivers\peripheral\prot/cy_prot.c ****      * The register will not be updated for the invalid master-protection context. 
 112:Generated_Source\PSoC6\pdl\drivers\peripheral\prot/cy_prot.c ****      */ 
 113:Generated_Source\PSoC6\pdl\drivers\peripheral\prot/cy_prot.c ****     status = (*addrMsCtl != regVal) ? CY_PROT_FAILURE : CY_PROT_SUCCESS;
ARM GAS  C:\Users\tmj32\AppData\Local\Temp\cc1bAzcK.s 			page 5


 108              		.loc 1 113 0
 109 0078 3B69     		ldr	r3, [r7, #16]
 110 007a 1A68     		ldr	r2, [r3]
 111 007c FB68     		ldr	r3, [r7, #12]
 112 007e 9A42     		cmp	r2, r3
 113 0080 01D0     		beq	.L4
 114              		.loc 1 113 0 is_stmt 0 discriminator 1
 115 0082 064B     		ldr	r3, .L7+8
 116 0084 00E0     		b	.L5
 117              	.L4:
 118              		.loc 1 113 0 discriminator 2
 119 0086 0023     		movs	r3, #0
 120              	.L5:
 121              		.loc 1 113 0 discriminator 4
 122 0088 7B61     		str	r3, [r7, #20]
 114:Generated_Source\PSoC6\pdl\drivers\peripheral\prot/cy_prot.c ****     
 115:Generated_Source\PSoC6\pdl\drivers\peripheral\prot/cy_prot.c ****     return status;
 123              		.loc 1 115 0 is_stmt 1 discriminator 4
 124 008a 7B69     		ldr	r3, [r7, #20]
 116:Generated_Source\PSoC6\pdl\drivers\peripheral\prot/cy_prot.c **** }
 125              		.loc 1 116 0 discriminator 4
 126 008c 1846     		mov	r0, r3
 127 008e 1837     		adds	r7, r7, #24
 128              		.cfi_def_cfa_offset 8
 129 0090 BD46     		mov	sp, r7
 130              		.cfi_def_cfa_register 13
 131              		@ sp needed
 132 0092 80BD     		pop	{r7, pc}
 133              	.L8:
 134              		.align	2
 135              	.L7:
 136 0094 00000000 		.word	cy_device
 137 0098 00000000 		.word	.LC0
 138 009c 0300C200 		.word	12713987
 139              		.cfi_endproc
 140              	.LFE134:
 141              		.size	Cy_Prot_ConfigBusMaster, .-Cy_Prot_ConfigBusMaster
 142              		.section	.text.Cy_Prot_SetActivePC,"ax",%progbits
 143              		.align	2
 144              		.global	Cy_Prot_SetActivePC
 145              		.thumb
 146              		.thumb_func
 147              		.type	Cy_Prot_SetActivePC, %function
 148              	Cy_Prot_SetActivePC:
 149              	.LFB135:
 117:Generated_Source\PSoC6\pdl\drivers\peripheral\prot/cy_prot.c **** 
 118:Generated_Source\PSoC6\pdl\drivers\peripheral\prot/cy_prot.c **** 
 119:Generated_Source\PSoC6\pdl\drivers\peripheral\prot/cy_prot.c **** /*******************************************************************************
 120:Generated_Source\PSoC6\pdl\drivers\peripheral\prot/cy_prot.c **** * Function Name: Cy_Prot_SetActivePC
 121:Generated_Source\PSoC6\pdl\drivers\peripheral\prot/cy_prot.c **** ****************************************************************************//**
 122:Generated_Source\PSoC6\pdl\drivers\peripheral\prot/cy_prot.c **** *
 123:Generated_Source\PSoC6\pdl\drivers\peripheral\prot/cy_prot.c **** * Sets the current/active protection context of the specified bus master.
 124:Generated_Source\PSoC6\pdl\drivers\peripheral\prot/cy_prot.c **** * 
 125:Generated_Source\PSoC6\pdl\drivers\peripheral\prot/cy_prot.c **** * Allowed PC values are 1-15. If this value is not inherited from another bus 
 126:Generated_Source\PSoC6\pdl\drivers\peripheral\prot/cy_prot.c **** * master, the value set through this function is used.
 127:Generated_Source\PSoC6\pdl\drivers\peripheral\prot/cy_prot.c **** *
 128:Generated_Source\PSoC6\pdl\drivers\peripheral\prot/cy_prot.c **** * \note This function is applicable for both CPUSS ver_1 and ver_2.
ARM GAS  C:\Users\tmj32\AppData\Local\Temp\cc1bAzcK.s 			page 6


 129:Generated_Source\PSoC6\pdl\drivers\peripheral\prot/cy_prot.c **** *
 130:Generated_Source\PSoC6\pdl\drivers\peripheral\prot/cy_prot.c **** * \param busMaster
 131:Generated_Source\PSoC6\pdl\drivers\peripheral\prot/cy_prot.c **** * The bus master to configure. Refer to the CPUSS_MS_ID_X defines in the device
 132:Generated_Source\PSoC6\pdl\drivers\peripheral\prot/cy_prot.c **** * config header file.
 133:Generated_Source\PSoC6\pdl\drivers\peripheral\prot/cy_prot.c **** * 
 134:Generated_Source\PSoC6\pdl\drivers\peripheral\prot/cy_prot.c **** * \param pc
 135:Generated_Source\PSoC6\pdl\drivers\peripheral\prot/cy_prot.c **** * Active protection context of the specified master \ref cy_en_prot_pc_t. 
 136:Generated_Source\PSoC6\pdl\drivers\peripheral\prot/cy_prot.c **** * \note that only those protection contexts allowed by the pcMask (which was 
 137:Generated_Source\PSoC6\pdl\drivers\peripheral\prot/cy_prot.c **** * configured in \ref Cy_Prot_ConfigBusMaster) will take effect. 
 138:Generated_Source\PSoC6\pdl\drivers\peripheral\prot/cy_prot.c **** * \note The function accepts pcMask values from CY_PROT_PC1 to CY_PROT_PC15. 
 139:Generated_Source\PSoC6\pdl\drivers\peripheral\prot/cy_prot.c **** * But each device has its own number of available protection contexts. 
 140:Generated_Source\PSoC6\pdl\drivers\peripheral\prot/cy_prot.c **** * That number is defined by PERI_PC_NR in the config file.
 141:Generated_Source\PSoC6\pdl\drivers\peripheral\prot/cy_prot.c **** *
 142:Generated_Source\PSoC6\pdl\drivers\peripheral\prot/cy_prot.c **** * \return
 143:Generated_Source\PSoC6\pdl\drivers\peripheral\prot/cy_prot.c **** * Status of the function call.
 144:Generated_Source\PSoC6\pdl\drivers\peripheral\prot/cy_prot.c **** *
 145:Generated_Source\PSoC6\pdl\drivers\peripheral\prot/cy_prot.c **** *   Status               | Description
 146:Generated_Source\PSoC6\pdl\drivers\peripheral\prot/cy_prot.c **** *   ------------         | -----------
 147:Generated_Source\PSoC6\pdl\drivers\peripheral\prot/cy_prot.c **** *   CY_PROT_SUCCESS      | The function completed successfully.
 148:Generated_Source\PSoC6\pdl\drivers\peripheral\prot/cy_prot.c **** *   CY_PROT_FAILURE      | The resource is locked.
 149:Generated_Source\PSoC6\pdl\drivers\peripheral\prot/cy_prot.c **** *
 150:Generated_Source\PSoC6\pdl\drivers\peripheral\prot/cy_prot.c **** * \funcusage
 151:Generated_Source\PSoC6\pdl\drivers\peripheral\prot/cy_prot.c **** * \snippet prot/1.20/snippet/main.c snippet_Cy_Prot_SetActivePC
 152:Generated_Source\PSoC6\pdl\drivers\peripheral\prot/cy_prot.c **** *
 153:Generated_Source\PSoC6\pdl\drivers\peripheral\prot/cy_prot.c **** *******************************************************************************/
 154:Generated_Source\PSoC6\pdl\drivers\peripheral\prot/cy_prot.c **** cy_en_prot_status_t Cy_Prot_SetActivePC(en_prot_master_t busMaster, uint32_t pc)
 155:Generated_Source\PSoC6\pdl\drivers\peripheral\prot/cy_prot.c **** {
 150              		.loc 1 155 0
 151              		.cfi_startproc
 152              		@ args = 0, pretend = 0, frame = 16
 153              		@ frame_needed = 1, uses_anonymous_args = 0
 154 0000 80B5     		push	{r7, lr}
 155              		.cfi_def_cfa_offset 8
 156              		.cfi_offset 7, -8
 157              		.cfi_offset 14, -4
 158 0002 84B0     		sub	sp, sp, #16
 159              		.cfi_def_cfa_offset 24
 160 0004 00AF     		add	r7, sp, #0
 161              		.cfi_def_cfa_register 7
 162 0006 0346     		mov	r3, r0
 163 0008 3960     		str	r1, [r7]
 164 000a FB71     		strb	r3, [r7, #7]
 156:Generated_Source\PSoC6\pdl\drivers\peripheral\prot/cy_prot.c ****     cy_en_prot_status_t status;
 157:Generated_Source\PSoC6\pdl\drivers\peripheral\prot/cy_prot.c ****     
 158:Generated_Source\PSoC6\pdl\drivers\peripheral\prot/cy_prot.c ****     CY_ASSERT_L1(CY_PROT_IS_BUS_MASTER_VALID(busMaster));
 165              		.loc 1 158 0
 166 000c 1E4B     		ldr	r3, .L15
 167 000e 1B68     		ldr	r3, [r3]
 168 0010 9A6C     		ldr	r2, [r3, #72]
 169 0012 FB79     		ldrb	r3, [r7, #7]	@ zero_extendqisi2
 170 0014 22FA03F3 		lsr	r3, r2, r3
 171 0018 03F00103 		and	r3, r3, #1
 172 001c 002B     		cmp	r3, #0
 173 001e 03D1     		bne	.L10
 174              		.loc 1 158 0 is_stmt 0 discriminator 1
 175 0020 9E21     		movs	r1, #158
 176 0022 1A48     		ldr	r0, .L15+4
ARM GAS  C:\Users\tmj32\AppData\Local\Temp\cc1bAzcK.s 			page 7


 177 0024 FFF7FEFF 		bl	Cy_SysLib_AssertFailed
 178              	.L10:
 159:Generated_Source\PSoC6\pdl\drivers\peripheral\prot/cy_prot.c ****     CY_ASSERT_L2(CY_PROT_IS_PC_VALID(pc));
 179              		.loc 1 159 0 is_stmt 1
 180 0028 3B68     		ldr	r3, [r7]
 181 002a 0F2B     		cmp	r3, #15
 182 002c 03D9     		bls	.L11
 183              		.loc 1 159 0 is_stmt 0 discriminator 1
 184 002e 9F21     		movs	r1, #159
 185 0030 1648     		ldr	r0, .L15+4
 186 0032 FFF7FEFF 		bl	Cy_SysLib_AssertFailed
 187              	.L11:
 160:Generated_Source\PSoC6\pdl\drivers\peripheral\prot/cy_prot.c ****     
 161:Generated_Source\PSoC6\pdl\drivers\peripheral\prot/cy_prot.c ****     PROT_MPU_MS_CTL(busMaster) = _VAL2FLD(PROT_MPU_MS_CTL_PC, pc) | _VAL2FLD(PROT_MPU_MS_CTL_PC_SAV
 188              		.loc 1 161 0 is_stmt 1
 189 0036 144B     		ldr	r3, .L15
 190 0038 1B68     		ldr	r3, [r3]
 191 003a 1B69     		ldr	r3, [r3, #16]
 192 003c 1846     		mov	r0, r3
 193 003e FB79     		ldrb	r3, [r7, #7]	@ zero_extendqisi2
 194 0040 3A68     		ldr	r2, [r7]
 195 0042 02F00F01 		and	r1, r2, #15
 196 0046 3A68     		ldr	r2, [r7]
 197 0048 1204     		lsls	r2, r2, #16
 198 004a 02F47022 		and	r2, r2, #983040
 199 004e 0A43     		orrs	r2, r2, r1
 200 0050 1033     		adds	r3, r3, #16
 201 0052 9B02     		lsls	r3, r3, #10
 202 0054 0344     		add	r3, r3, r0
 203 0056 1A60     		str	r2, [r3]
 162:Generated_Source\PSoC6\pdl\drivers\peripheral\prot/cy_prot.c ****     status = (_FLD2VAL(PROT_MPU_MS_CTL_PC, PROT_MPU_MS_CTL(busMaster)) != pc) ? CY_PROT_FAILURE : C
 204              		.loc 1 162 0
 205 0058 0B4B     		ldr	r3, .L15
 206 005a 1B68     		ldr	r3, [r3]
 207 005c 1B69     		ldr	r3, [r3, #16]
 208 005e 1A46     		mov	r2, r3
 209 0060 FB79     		ldrb	r3, [r7, #7]	@ zero_extendqisi2
 210 0062 1033     		adds	r3, r3, #16
 211 0064 9B02     		lsls	r3, r3, #10
 212 0066 1344     		add	r3, r3, r2
 213 0068 1B68     		ldr	r3, [r3]
 214 006a 03F00F02 		and	r2, r3, #15
 215 006e 3B68     		ldr	r3, [r7]
 216 0070 9A42     		cmp	r2, r3
 217 0072 01D0     		beq	.L12
 218              		.loc 1 162 0 is_stmt 0 discriminator 1
 219 0074 064B     		ldr	r3, .L15+8
 220 0076 00E0     		b	.L13
 221              	.L12:
 222              		.loc 1 162 0 discriminator 2
 223 0078 0023     		movs	r3, #0
 224              	.L13:
 225              		.loc 1 162 0 discriminator 4
 226 007a FB60     		str	r3, [r7, #12]
 163:Generated_Source\PSoC6\pdl\drivers\peripheral\prot/cy_prot.c ****     
 164:Generated_Source\PSoC6\pdl\drivers\peripheral\prot/cy_prot.c ****     return status;
 227              		.loc 1 164 0 is_stmt 1 discriminator 4
ARM GAS  C:\Users\tmj32\AppData\Local\Temp\cc1bAzcK.s 			page 8


 228 007c FB68     		ldr	r3, [r7, #12]
 165:Generated_Source\PSoC6\pdl\drivers\peripheral\prot/cy_prot.c **** }
 229              		.loc 1 165 0 discriminator 4
 230 007e 1846     		mov	r0, r3
 231 0080 1037     		adds	r7, r7, #16
 232              		.cfi_def_cfa_offset 8
 233 0082 BD46     		mov	sp, r7
 234              		.cfi_def_cfa_register 13
 235              		@ sp needed
 236 0084 80BD     		pop	{r7, pc}
 237              	.L16:
 238 0086 00BF     		.align	2
 239              	.L15:
 240 0088 00000000 		.word	cy_device
 241 008c 00000000 		.word	.LC0
 242 0090 0300C200 		.word	12713987
 243              		.cfi_endproc
 244              	.LFE135:
 245              		.size	Cy_Prot_SetActivePC, .-Cy_Prot_SetActivePC
 246              		.section	.text.Cy_Prot_GetActivePC,"ax",%progbits
 247              		.align	2
 248              		.global	Cy_Prot_GetActivePC
 249              		.thumb
 250              		.thumb_func
 251              		.type	Cy_Prot_GetActivePC, %function
 252              	Cy_Prot_GetActivePC:
 253              	.LFB136:
 166:Generated_Source\PSoC6\pdl\drivers\peripheral\prot/cy_prot.c **** 
 167:Generated_Source\PSoC6\pdl\drivers\peripheral\prot/cy_prot.c **** 
 168:Generated_Source\PSoC6\pdl\drivers\peripheral\prot/cy_prot.c **** /*******************************************************************************
 169:Generated_Source\PSoC6\pdl\drivers\peripheral\prot/cy_prot.c **** * Function Name: Cy_Prot_GetActivePC
 170:Generated_Source\PSoC6\pdl\drivers\peripheral\prot/cy_prot.c **** ****************************************************************************//**
 171:Generated_Source\PSoC6\pdl\drivers\peripheral\prot/cy_prot.c **** *
 172:Generated_Source\PSoC6\pdl\drivers\peripheral\prot/cy_prot.c **** * \note This function is applicable for both CPUSS ver_1 and ver_2.
 173:Generated_Source\PSoC6\pdl\drivers\peripheral\prot/cy_prot.c **** *
 174:Generated_Source\PSoC6\pdl\drivers\peripheral\prot/cy_prot.c **** * Returns the active protection context of a master. 
 175:Generated_Source\PSoC6\pdl\drivers\peripheral\prot/cy_prot.c **** *
 176:Generated_Source\PSoC6\pdl\drivers\peripheral\prot/cy_prot.c **** * \param busMaster
 177:Generated_Source\PSoC6\pdl\drivers\peripheral\prot/cy_prot.c **** * The bus master, whose protection context is being read. Refer to the 
 178:Generated_Source\PSoC6\pdl\drivers\peripheral\prot/cy_prot.c **** * CPUSS_MS_ID_X defines in the device config header file.
 179:Generated_Source\PSoC6\pdl\drivers\peripheral\prot/cy_prot.c **** * 
 180:Generated_Source\PSoC6\pdl\drivers\peripheral\prot/cy_prot.c **** * \return
 181:Generated_Source\PSoC6\pdl\drivers\peripheral\prot/cy_prot.c **** * Active protection context of the master \ref cy_en_prot_pc_t.
 182:Generated_Source\PSoC6\pdl\drivers\peripheral\prot/cy_prot.c **** *
 183:Generated_Source\PSoC6\pdl\drivers\peripheral\prot/cy_prot.c **** * \funcusage
 184:Generated_Source\PSoC6\pdl\drivers\peripheral\prot/cy_prot.c **** * \snippet prot/1.20/snippet/main.c snippet_Cy_Prot_SetActivePC
 185:Generated_Source\PSoC6\pdl\drivers\peripheral\prot/cy_prot.c **** *
 186:Generated_Source\PSoC6\pdl\drivers\peripheral\prot/cy_prot.c **** *******************************************************************************/
 187:Generated_Source\PSoC6\pdl\drivers\peripheral\prot/cy_prot.c **** uint32_t Cy_Prot_GetActivePC(en_prot_master_t busMaster)
 188:Generated_Source\PSoC6\pdl\drivers\peripheral\prot/cy_prot.c **** {
 254              		.loc 1 188 0
 255              		.cfi_startproc
 256              		@ args = 0, pretend = 0, frame = 8
 257              		@ frame_needed = 1, uses_anonymous_args = 0
 258 0000 80B5     		push	{r7, lr}
 259              		.cfi_def_cfa_offset 8
 260              		.cfi_offset 7, -8
ARM GAS  C:\Users\tmj32\AppData\Local\Temp\cc1bAzcK.s 			page 9


 261              		.cfi_offset 14, -4
 262 0002 82B0     		sub	sp, sp, #8
 263              		.cfi_def_cfa_offset 16
 264 0004 00AF     		add	r7, sp, #0
 265              		.cfi_def_cfa_register 7
 266 0006 0346     		mov	r3, r0
 267 0008 FB71     		strb	r3, [r7, #7]
 189:Generated_Source\PSoC6\pdl\drivers\peripheral\prot/cy_prot.c ****     
 190:Generated_Source\PSoC6\pdl\drivers\peripheral\prot/cy_prot.c ****     CY_ASSERT_L1(CY_PROT_IS_BUS_MASTER_VALID(busMaster));
 268              		.loc 1 190 0
 269 000a 0E4B     		ldr	r3, .L20
 270 000c 1B68     		ldr	r3, [r3]
 271 000e 9A6C     		ldr	r2, [r3, #72]
 272 0010 FB79     		ldrb	r3, [r7, #7]	@ zero_extendqisi2
 273 0012 22FA03F3 		lsr	r3, r2, r3
 274 0016 03F00103 		and	r3, r3, #1
 275 001a 002B     		cmp	r3, #0
 276 001c 03D1     		bne	.L18
 277              		.loc 1 190 0 is_stmt 0 discriminator 1
 278 001e BE21     		movs	r1, #190
 279 0020 0948     		ldr	r0, .L20+4
 280 0022 FFF7FEFF 		bl	Cy_SysLib_AssertFailed
 281              	.L18:
 191:Generated_Source\PSoC6\pdl\drivers\peripheral\prot/cy_prot.c ****     
 192:Generated_Source\PSoC6\pdl\drivers\peripheral\prot/cy_prot.c ****     return ((uint32_t)_FLD2VAL(PROT_MPU_MS_CTL_PC, PROT_MPU_MS_CTL(busMaster)));
 282              		.loc 1 192 0 is_stmt 1
 283 0026 074B     		ldr	r3, .L20
 284 0028 1B68     		ldr	r3, [r3]
 285 002a 1B69     		ldr	r3, [r3, #16]
 286 002c 1A46     		mov	r2, r3
 287 002e FB79     		ldrb	r3, [r7, #7]	@ zero_extendqisi2
 288 0030 1033     		adds	r3, r3, #16
 289 0032 9B02     		lsls	r3, r3, #10
 290 0034 1344     		add	r3, r3, r2
 291 0036 1B68     		ldr	r3, [r3]
 292 0038 03F00F03 		and	r3, r3, #15
 193:Generated_Source\PSoC6\pdl\drivers\peripheral\prot/cy_prot.c **** }
 293              		.loc 1 193 0
 294 003c 1846     		mov	r0, r3
 295 003e 0837     		adds	r7, r7, #8
 296              		.cfi_def_cfa_offset 8
 297 0040 BD46     		mov	sp, r7
 298              		.cfi_def_cfa_register 13
 299              		@ sp needed
 300 0042 80BD     		pop	{r7, pc}
 301              	.L21:
 302              		.align	2
 303              	.L20:
 304 0044 00000000 		.word	cy_device
 305 0048 00000000 		.word	.LC0
 306              		.cfi_endproc
 307              	.LFE136:
 308              		.size	Cy_Prot_GetActivePC, .-Cy_Prot_GetActivePC
 309              		.section	.text.Cy_Prot_ConfigMpuStruct,"ax",%progbits
 310              		.align	2
 311              		.global	Cy_Prot_ConfigMpuStruct
 312              		.thumb
ARM GAS  C:\Users\tmj32\AppData\Local\Temp\cc1bAzcK.s 			page 10


 313              		.thumb_func
 314              		.type	Cy_Prot_ConfigMpuStruct, %function
 315              	Cy_Prot_ConfigMpuStruct:
 316              	.LFB137:
 194:Generated_Source\PSoC6\pdl\drivers\peripheral\prot/cy_prot.c **** 
 195:Generated_Source\PSoC6\pdl\drivers\peripheral\prot/cy_prot.c **** 
 196:Generated_Source\PSoC6\pdl\drivers\peripheral\prot/cy_prot.c **** /*******************************************************************************
 197:Generated_Source\PSoC6\pdl\drivers\peripheral\prot/cy_prot.c **** * Function Name: Cy_Prot_ConfigMpuStruct
 198:Generated_Source\PSoC6\pdl\drivers\peripheral\prot/cy_prot.c **** ****************************************************************************//**
 199:Generated_Source\PSoC6\pdl\drivers\peripheral\prot/cy_prot.c **** *
 200:Generated_Source\PSoC6\pdl\drivers\peripheral\prot/cy_prot.c **** * This function configures a memory protection unit (MPU) struct with its 
 201:Generated_Source\PSoC6\pdl\drivers\peripheral\prot/cy_prot.c **** * protection attributes. 
 202:Generated_Source\PSoC6\pdl\drivers\peripheral\prot/cy_prot.c **** *
 203:Generated_Source\PSoC6\pdl\drivers\peripheral\prot/cy_prot.c **** * The protection structs act like the gatekeepers for a master's accesses to
 204:Generated_Source\PSoC6\pdl\drivers\peripheral\prot/cy_prot.c **** * memory, allowing only the permitted transactions to go through.
 205:Generated_Source\PSoC6\pdl\drivers\peripheral\prot/cy_prot.c **** *
 206:Generated_Source\PSoC6\pdl\drivers\peripheral\prot/cy_prot.c **** * \note This function is applicable for both CPUSS ver_1 and ver_2.
 207:Generated_Source\PSoC6\pdl\drivers\peripheral\prot/cy_prot.c **** *
 208:Generated_Source\PSoC6\pdl\drivers\peripheral\prot/cy_prot.c **** * \param base
 209:Generated_Source\PSoC6\pdl\drivers\peripheral\prot/cy_prot.c **** * The base address for the MPU struct being configured. 
 210:Generated_Source\PSoC6\pdl\drivers\peripheral\prot/cy_prot.c **** * 
 211:Generated_Source\PSoC6\pdl\drivers\peripheral\prot/cy_prot.c **** * \param config
 212:Generated_Source\PSoC6\pdl\drivers\peripheral\prot/cy_prot.c **** * Initialization structure containing all the protection attributes.
 213:Generated_Source\PSoC6\pdl\drivers\peripheral\prot/cy_prot.c **** * 
 214:Generated_Source\PSoC6\pdl\drivers\peripheral\prot/cy_prot.c **** * \return
 215:Generated_Source\PSoC6\pdl\drivers\peripheral\prot/cy_prot.c **** * Status of the function call.
 216:Generated_Source\PSoC6\pdl\drivers\peripheral\prot/cy_prot.c **** *
 217:Generated_Source\PSoC6\pdl\drivers\peripheral\prot/cy_prot.c **** *   Status               | Description
 218:Generated_Source\PSoC6\pdl\drivers\peripheral\prot/cy_prot.c **** *   ------------         | -----------
 219:Generated_Source\PSoC6\pdl\drivers\peripheral\prot/cy_prot.c **** *   CY_PROT_SUCCESS      | The MPU struct was configured.
 220:Generated_Source\PSoC6\pdl\drivers\peripheral\prot/cy_prot.c **** *   CY_PROT_FAILURE      | Configuration failed due to a protection violation.
 221:Generated_Source\PSoC6\pdl\drivers\peripheral\prot/cy_prot.c **** *
 222:Generated_Source\PSoC6\pdl\drivers\peripheral\prot/cy_prot.c **** * \funcusage
 223:Generated_Source\PSoC6\pdl\drivers\peripheral\prot/cy_prot.c **** * \snippet prot/1.20/snippet/main.c snippet_Cy_Prot_ConfigMpuStruct
 224:Generated_Source\PSoC6\pdl\drivers\peripheral\prot/cy_prot.c **** *
 225:Generated_Source\PSoC6\pdl\drivers\peripheral\prot/cy_prot.c **** *******************************************************************************/
 226:Generated_Source\PSoC6\pdl\drivers\peripheral\prot/cy_prot.c **** cy_en_prot_status_t Cy_Prot_ConfigMpuStruct(PROT_MPU_MPU_STRUCT_Type* base, const cy_stc_mpu_cfg_t*
 227:Generated_Source\PSoC6\pdl\drivers\peripheral\prot/cy_prot.c **** {
 317              		.loc 1 227 0
 318              		.cfi_startproc
 319              		@ args = 0, pretend = 0, frame = 24
 320              		@ frame_needed = 1, uses_anonymous_args = 0
 321 0000 80B5     		push	{r7, lr}
 322              		.cfi_def_cfa_offset 8
 323              		.cfi_offset 7, -8
 324              		.cfi_offset 14, -4
 325 0002 86B0     		sub	sp, sp, #24
 326              		.cfi_def_cfa_offset 32
 327 0004 00AF     		add	r7, sp, #0
 328              		.cfi_def_cfa_register 7
 329 0006 7860     		str	r0, [r7, #4]
 330 0008 3960     		str	r1, [r7]
 228:Generated_Source\PSoC6\pdl\drivers\peripheral\prot/cy_prot.c ****     cy_en_prot_status_t status;
 229:Generated_Source\PSoC6\pdl\drivers\peripheral\prot/cy_prot.c ****     uint32_t addrReg;
 230:Generated_Source\PSoC6\pdl\drivers\peripheral\prot/cy_prot.c ****     uint32_t attReg;
 231:Generated_Source\PSoC6\pdl\drivers\peripheral\prot/cy_prot.c **** 
 232:Generated_Source\PSoC6\pdl\drivers\peripheral\prot/cy_prot.c ****     CY_ASSERT_L1(NULL != base);
ARM GAS  C:\Users\tmj32\AppData\Local\Temp\cc1bAzcK.s 			page 11


 331              		.loc 1 232 0
 332 000a 7B68     		ldr	r3, [r7, #4]
 333 000c 002B     		cmp	r3, #0
 334 000e 03D1     		bne	.L23
 335              		.loc 1 232 0 is_stmt 0 discriminator 1
 336 0010 E821     		movs	r1, #232
 337 0012 7748     		ldr	r0, .L31
 338 0014 FFF7FEFF 		bl	Cy_SysLib_AssertFailed
 339              	.L23:
 233:Generated_Source\PSoC6\pdl\drivers\peripheral\prot/cy_prot.c ****     CY_ASSERT_L3(CY_PROT_IS_MPU_PERM_VALID(config->userPermission));
 340              		.loc 1 233 0 is_stmt 1
 341 0018 3B68     		ldr	r3, [r7]
 342 001a 9B79     		ldrb	r3, [r3, #6]	@ zero_extendqisi2
 343 001c 002B     		cmp	r3, #0
 344 001e 1FD0     		beq	.L24
 345              		.loc 1 233 0 is_stmt 0 discriminator 1
 346 0020 3B68     		ldr	r3, [r7]
 347 0022 9B79     		ldrb	r3, [r3, #6]	@ zero_extendqisi2
 348 0024 012B     		cmp	r3, #1
 349 0026 1BD0     		beq	.L24
 350              		.loc 1 233 0 discriminator 2
 351 0028 3B68     		ldr	r3, [r7]
 352 002a 9B79     		ldrb	r3, [r3, #6]	@ zero_extendqisi2
 353 002c 022B     		cmp	r3, #2
 354 002e 17D0     		beq	.L24
 355              		.loc 1 233 0 discriminator 3
 356 0030 3B68     		ldr	r3, [r7]
 357 0032 9B79     		ldrb	r3, [r3, #6]	@ zero_extendqisi2
 358 0034 032B     		cmp	r3, #3
 359 0036 13D0     		beq	.L24
 360              		.loc 1 233 0 discriminator 4
 361 0038 3B68     		ldr	r3, [r7]
 362 003a 9B79     		ldrb	r3, [r3, #6]	@ zero_extendqisi2
 363 003c 042B     		cmp	r3, #4
 364 003e 0FD0     		beq	.L24
 365              		.loc 1 233 0 discriminator 5
 366 0040 3B68     		ldr	r3, [r7]
 367 0042 9B79     		ldrb	r3, [r3, #6]	@ zero_extendqisi2
 368 0044 052B     		cmp	r3, #5
 369 0046 0BD0     		beq	.L24
 370              		.loc 1 233 0 discriminator 6
 371 0048 3B68     		ldr	r3, [r7]
 372 004a 9B79     		ldrb	r3, [r3, #6]	@ zero_extendqisi2
 373 004c 062B     		cmp	r3, #6
 374 004e 07D0     		beq	.L24
 375              		.loc 1 233 0 discriminator 7
 376 0050 3B68     		ldr	r3, [r7]
 377 0052 9B79     		ldrb	r3, [r3, #6]	@ zero_extendqisi2
 378 0054 072B     		cmp	r3, #7
 379 0056 03D0     		beq	.L24
 380              		.loc 1 233 0 discriminator 8
 381 0058 E921     		movs	r1, #233
 382 005a 6548     		ldr	r0, .L31
 383 005c FFF7FEFF 		bl	Cy_SysLib_AssertFailed
 384              	.L24:
 234:Generated_Source\PSoC6\pdl\drivers\peripheral\prot/cy_prot.c ****     CY_ASSERT_L3(CY_PROT_IS_MPU_PERM_VALID(config->privPermission));
 385              		.loc 1 234 0 is_stmt 1
ARM GAS  C:\Users\tmj32\AppData\Local\Temp\cc1bAzcK.s 			page 12


 386 0060 3B68     		ldr	r3, [r7]
 387 0062 DB79     		ldrb	r3, [r3, #7]	@ zero_extendqisi2
 388 0064 002B     		cmp	r3, #0
 389 0066 1FD0     		beq	.L25
 390              		.loc 1 234 0 is_stmt 0 discriminator 1
 391 0068 3B68     		ldr	r3, [r7]
 392 006a DB79     		ldrb	r3, [r3, #7]	@ zero_extendqisi2
 393 006c 012B     		cmp	r3, #1
 394 006e 1BD0     		beq	.L25
 395              		.loc 1 234 0 discriminator 2
 396 0070 3B68     		ldr	r3, [r7]
 397 0072 DB79     		ldrb	r3, [r3, #7]	@ zero_extendqisi2
 398 0074 022B     		cmp	r3, #2
 399 0076 17D0     		beq	.L25
 400              		.loc 1 234 0 discriminator 3
 401 0078 3B68     		ldr	r3, [r7]
 402 007a DB79     		ldrb	r3, [r3, #7]	@ zero_extendqisi2
 403 007c 032B     		cmp	r3, #3
 404 007e 13D0     		beq	.L25
 405              		.loc 1 234 0 discriminator 4
 406 0080 3B68     		ldr	r3, [r7]
 407 0082 DB79     		ldrb	r3, [r3, #7]	@ zero_extendqisi2
 408 0084 042B     		cmp	r3, #4
 409 0086 0FD0     		beq	.L25
 410              		.loc 1 234 0 discriminator 5
 411 0088 3B68     		ldr	r3, [r7]
 412 008a DB79     		ldrb	r3, [r3, #7]	@ zero_extendqisi2
 413 008c 052B     		cmp	r3, #5
 414 008e 0BD0     		beq	.L25
 415              		.loc 1 234 0 discriminator 6
 416 0090 3B68     		ldr	r3, [r7]
 417 0092 DB79     		ldrb	r3, [r3, #7]	@ zero_extendqisi2
 418 0094 062B     		cmp	r3, #6
 419 0096 07D0     		beq	.L25
 420              		.loc 1 234 0 discriminator 7
 421 0098 3B68     		ldr	r3, [r7]
 422 009a DB79     		ldrb	r3, [r3, #7]	@ zero_extendqisi2
 423 009c 072B     		cmp	r3, #7
 424 009e 03D0     		beq	.L25
 425              		.loc 1 234 0 discriminator 8
 426 00a0 EA21     		movs	r1, #234
 427 00a2 5348     		ldr	r0, .L31
 428 00a4 FFF7FEFF 		bl	Cy_SysLib_AssertFailed
 429              	.L25:
 235:Generated_Source\PSoC6\pdl\drivers\peripheral\prot/cy_prot.c ****     CY_ASSERT_L3(CY_PROT_IS_REGION_SIZE_VALID(config->regionSize));
 430              		.loc 1 235 0 is_stmt 1
 431 00a8 3B68     		ldr	r3, [r7]
 432 00aa 1B79     		ldrb	r3, [r3, #4]	@ zero_extendqisi2
 433 00ac 072B     		cmp	r3, #7
 434 00ae 63D0     		beq	.L26
 435              		.loc 1 235 0 is_stmt 0 discriminator 1
 436 00b0 3B68     		ldr	r3, [r7]
 437 00b2 1B79     		ldrb	r3, [r3, #4]	@ zero_extendqisi2
 438 00b4 082B     		cmp	r3, #8
 439 00b6 5FD0     		beq	.L26
 440              		.loc 1 235 0 discriminator 2
 441 00b8 3B68     		ldr	r3, [r7]
ARM GAS  C:\Users\tmj32\AppData\Local\Temp\cc1bAzcK.s 			page 13


 442 00ba 1B79     		ldrb	r3, [r3, #4]	@ zero_extendqisi2
 443 00bc 092B     		cmp	r3, #9
 444 00be 5BD0     		beq	.L26
 445              		.loc 1 235 0 discriminator 3
 446 00c0 3B68     		ldr	r3, [r7]
 447 00c2 1B79     		ldrb	r3, [r3, #4]	@ zero_extendqisi2
 448 00c4 0A2B     		cmp	r3, #10
 449 00c6 57D0     		beq	.L26
 450              		.loc 1 235 0 discriminator 4
 451 00c8 3B68     		ldr	r3, [r7]
 452 00ca 1B79     		ldrb	r3, [r3, #4]	@ zero_extendqisi2
 453 00cc 0B2B     		cmp	r3, #11
 454 00ce 53D0     		beq	.L26
 455              		.loc 1 235 0 discriminator 5
 456 00d0 3B68     		ldr	r3, [r7]
 457 00d2 1B79     		ldrb	r3, [r3, #4]	@ zero_extendqisi2
 458 00d4 0C2B     		cmp	r3, #12
 459 00d6 4FD0     		beq	.L26
 460              		.loc 1 235 0 discriminator 6
 461 00d8 3B68     		ldr	r3, [r7]
 462 00da 1B79     		ldrb	r3, [r3, #4]	@ zero_extendqisi2
 463 00dc 0D2B     		cmp	r3, #13
 464 00de 4BD0     		beq	.L26
 465              		.loc 1 235 0 discriminator 7
 466 00e0 3B68     		ldr	r3, [r7]
 467 00e2 1B79     		ldrb	r3, [r3, #4]	@ zero_extendqisi2
 468 00e4 0E2B     		cmp	r3, #14
 469 00e6 47D0     		beq	.L26
 470              		.loc 1 235 0 discriminator 8
 471 00e8 3B68     		ldr	r3, [r7]
 472 00ea 1B79     		ldrb	r3, [r3, #4]	@ zero_extendqisi2
 473 00ec 0F2B     		cmp	r3, #15
 474 00ee 43D0     		beq	.L26
 475              		.loc 1 235 0 discriminator 9
 476 00f0 3B68     		ldr	r3, [r7]
 477 00f2 1B79     		ldrb	r3, [r3, #4]	@ zero_extendqisi2
 478 00f4 102B     		cmp	r3, #16
 479 00f6 3FD0     		beq	.L26
 480              		.loc 1 235 0 discriminator 10
 481 00f8 3B68     		ldr	r3, [r7]
 482 00fa 1B79     		ldrb	r3, [r3, #4]	@ zero_extendqisi2
 483 00fc 112B     		cmp	r3, #17
 484 00fe 3BD0     		beq	.L26
 485              		.loc 1 235 0 discriminator 11
 486 0100 3B68     		ldr	r3, [r7]
 487 0102 1B79     		ldrb	r3, [r3, #4]	@ zero_extendqisi2
 488 0104 122B     		cmp	r3, #18
 489 0106 37D0     		beq	.L26
 490              		.loc 1 235 0 discriminator 12
 491 0108 3B68     		ldr	r3, [r7]
 492 010a 1B79     		ldrb	r3, [r3, #4]	@ zero_extendqisi2
 493 010c 132B     		cmp	r3, #19
 494 010e 33D0     		beq	.L26
 495              		.loc 1 235 0 discriminator 13
 496 0110 3B68     		ldr	r3, [r7]
 497 0112 1B79     		ldrb	r3, [r3, #4]	@ zero_extendqisi2
 498 0114 142B     		cmp	r3, #20
ARM GAS  C:\Users\tmj32\AppData\Local\Temp\cc1bAzcK.s 			page 14


 499 0116 2FD0     		beq	.L26
 500              		.loc 1 235 0 discriminator 14
 501 0118 3B68     		ldr	r3, [r7]
 502 011a 1B79     		ldrb	r3, [r3, #4]	@ zero_extendqisi2
 503 011c 152B     		cmp	r3, #21
 504 011e 2BD0     		beq	.L26
 505              		.loc 1 235 0 discriminator 15
 506 0120 3B68     		ldr	r3, [r7]
 507 0122 1B79     		ldrb	r3, [r3, #4]	@ zero_extendqisi2
 508 0124 162B     		cmp	r3, #22
 509 0126 27D0     		beq	.L26
 510              		.loc 1 235 0 discriminator 16
 511 0128 3B68     		ldr	r3, [r7]
 512 012a 1B79     		ldrb	r3, [r3, #4]	@ zero_extendqisi2
 513 012c 172B     		cmp	r3, #23
 514 012e 23D0     		beq	.L26
 515              		.loc 1 235 0 discriminator 17
 516 0130 3B68     		ldr	r3, [r7]
 517 0132 1B79     		ldrb	r3, [r3, #4]	@ zero_extendqisi2
 518 0134 182B     		cmp	r3, #24
 519 0136 1FD0     		beq	.L26
 520              		.loc 1 235 0 discriminator 18
 521 0138 3B68     		ldr	r3, [r7]
 522 013a 1B79     		ldrb	r3, [r3, #4]	@ zero_extendqisi2
 523 013c 192B     		cmp	r3, #25
 524 013e 1BD0     		beq	.L26
 525              		.loc 1 235 0 discriminator 19
 526 0140 3B68     		ldr	r3, [r7]
 527 0142 1B79     		ldrb	r3, [r3, #4]	@ zero_extendqisi2
 528 0144 1A2B     		cmp	r3, #26
 529 0146 17D0     		beq	.L26
 530              		.loc 1 235 0 discriminator 20
 531 0148 3B68     		ldr	r3, [r7]
 532 014a 1B79     		ldrb	r3, [r3, #4]	@ zero_extendqisi2
 533 014c 1B2B     		cmp	r3, #27
 534 014e 13D0     		beq	.L26
 535              		.loc 1 235 0 discriminator 21
 536 0150 3B68     		ldr	r3, [r7]
 537 0152 1B79     		ldrb	r3, [r3, #4]	@ zero_extendqisi2
 538 0154 1C2B     		cmp	r3, #28
 539 0156 0FD0     		beq	.L26
 540              		.loc 1 235 0 discriminator 22
 541 0158 3B68     		ldr	r3, [r7]
 542 015a 1B79     		ldrb	r3, [r3, #4]	@ zero_extendqisi2
 543 015c 1D2B     		cmp	r3, #29
 544 015e 0BD0     		beq	.L26
 545              		.loc 1 235 0 discriminator 23
 546 0160 3B68     		ldr	r3, [r7]
 547 0162 1B79     		ldrb	r3, [r3, #4]	@ zero_extendqisi2
 548 0164 1E2B     		cmp	r3, #30
 549 0166 07D0     		beq	.L26
 550              		.loc 1 235 0 discriminator 24
 551 0168 3B68     		ldr	r3, [r7]
 552 016a 1B79     		ldrb	r3, [r3, #4]	@ zero_extendqisi2
 553 016c 1F2B     		cmp	r3, #31
 554 016e 03D0     		beq	.L26
 555              		.loc 1 235 0 discriminator 25
ARM GAS  C:\Users\tmj32\AppData\Local\Temp\cc1bAzcK.s 			page 15


 556 0170 EB21     		movs	r1, #235
 557 0172 1F48     		ldr	r0, .L31
 558 0174 FFF7FEFF 		bl	Cy_SysLib_AssertFailed
 559              	.L26:
 236:Generated_Source\PSoC6\pdl\drivers\peripheral\prot/cy_prot.c **** 
 237:Generated_Source\PSoC6\pdl\drivers\peripheral\prot/cy_prot.c ****     addrReg = _VAL2FLD(PROT_MPU_MPU_STRUCT_ADDR_SUBREGION_DISABLE, config->subregions)
 560              		.loc 1 237 0 is_stmt 1
 561 0178 3B68     		ldr	r3, [r7]
 562 017a 5B79     		ldrb	r3, [r3, #5]	@ zero_extendqisi2
 563 017c 1A46     		mov	r2, r3
 238:Generated_Source\PSoC6\pdl\drivers\peripheral\prot/cy_prot.c ****               | _VAL2FLD(PROT_MPU_MPU_STRUCT_ADDR_ADDR24, (uint32_t)((uint32_t)config->address >> C
 564              		.loc 1 238 0
 565 017e 3B68     		ldr	r3, [r7]
 566 0180 1B68     		ldr	r3, [r3]
 567 0182 23F0FF03 		bic	r3, r3, #255
 237:Generated_Source\PSoC6\pdl\drivers\peripheral\prot/cy_prot.c ****               | _VAL2FLD(PROT_MPU_MPU_STRUCT_ADDR_ADDR24, (uint32_t)((uint32_t)config->address >> C
 568              		.loc 1 237 0
 569 0186 1343     		orrs	r3, r3, r2
 570 0188 7B61     		str	r3, [r7, #20]
 239:Generated_Source\PSoC6\pdl\drivers\peripheral\prot/cy_prot.c ****     attReg  = ((uint32_t)config->userPermission & CY_PROT_ATT_PERMISSION_MASK)
 571              		.loc 1 239 0
 572 018a 3B68     		ldr	r3, [r7]
 573 018c 9B79     		ldrb	r3, [r3, #6]	@ zero_extendqisi2
 574 018e 03F00702 		and	r2, r3, #7
 240:Generated_Source\PSoC6\pdl\drivers\peripheral\prot/cy_prot.c ****               | (((uint32_t)config->privPermission & CY_PROT_ATT_PERMISSION_MASK) << CY_PROT_ATT_PR
 575              		.loc 1 240 0
 576 0192 3B68     		ldr	r3, [r7]
 577 0194 DB79     		ldrb	r3, [r3, #7]	@ zero_extendqisi2
 578 0196 DB00     		lsls	r3, r3, #3
 579 0198 03F03803 		and	r3, r3, #56
 580 019c 1A43     		orrs	r2, r2, r3
 241:Generated_Source\PSoC6\pdl\drivers\peripheral\prot/cy_prot.c ****               | _VAL2FLD(PROT_MPU_MPU_STRUCT_ATT_NS, !(config->secure))
 581              		.loc 1 241 0
 582 019e 3B68     		ldr	r3, [r7]
 583 01a0 1B7A     		ldrb	r3, [r3, #8]	@ zero_extendqisi2
 584 01a2 83F00103 		eor	r3, r3, #1
 585 01a6 DBB2     		uxtb	r3, r3
 586 01a8 9B01     		lsls	r3, r3, #6
 587 01aa 03F04003 		and	r3, r3, #64
 588 01ae 1A43     		orrs	r2, r2, r3
 242:Generated_Source\PSoC6\pdl\drivers\peripheral\prot/cy_prot.c ****               | _VAL2FLD(PROT_MPU_MPU_STRUCT_ATT_REGION_SIZE, config->regionSize);
 589              		.loc 1 242 0
 590 01b0 3B68     		ldr	r3, [r7]
 591 01b2 1B79     		ldrb	r3, [r3, #4]	@ zero_extendqisi2
 592 01b4 1B06     		lsls	r3, r3, #24
 593 01b6 03F0F853 		and	r3, r3, #520093696
 239:Generated_Source\PSoC6\pdl\drivers\peripheral\prot/cy_prot.c ****               | (((uint32_t)config->privPermission & CY_PROT_ATT_PERMISSION_MASK) << CY_PROT_ATT_PR
 594              		.loc 1 239 0
 595 01ba 1343     		orrs	r3, r3, r2
 596 01bc 3B61     		str	r3, [r7, #16]
 243:Generated_Source\PSoC6\pdl\drivers\peripheral\prot/cy_prot.c ****     PROT_MPU_MPU_STRUCT_ATT(base) = attReg;
 597              		.loc 1 243 0
 598 01be 7B68     		ldr	r3, [r7, #4]
 599 01c0 3A69     		ldr	r2, [r7, #16]
 600 01c2 5A60     		str	r2, [r3, #4]
 244:Generated_Source\PSoC6\pdl\drivers\peripheral\prot/cy_prot.c ****     PROT_MPU_MPU_STRUCT_ADDR(base) = addrReg;
 601              		.loc 1 244 0
ARM GAS  C:\Users\tmj32\AppData\Local\Temp\cc1bAzcK.s 			page 16


 602 01c4 7B68     		ldr	r3, [r7, #4]
 603 01c6 7A69     		ldr	r2, [r7, #20]
 604 01c8 1A60     		str	r2, [r3]
 245:Generated_Source\PSoC6\pdl\drivers\peripheral\prot/cy_prot.c ****     status = ((PROT_MPU_MPU_STRUCT_ADDR(base) != addrReg) || (PROT_MPU_MPU_STRUCT_ATT(base) != attR
 605              		.loc 1 245 0
 606 01ca 7B68     		ldr	r3, [r7, #4]
 607 01cc 1A68     		ldr	r2, [r3]
 608 01ce 7B69     		ldr	r3, [r7, #20]
 609 01d0 9A42     		cmp	r2, r3
 610 01d2 04D1     		bne	.L27
 611              		.loc 1 245 0 is_stmt 0 discriminator 2
 612 01d4 7B68     		ldr	r3, [r7, #4]
 613 01d6 5A68     		ldr	r2, [r3, #4]
 614 01d8 3B69     		ldr	r3, [r7, #16]
 615 01da 9A42     		cmp	r2, r3
 616 01dc 01D0     		beq	.L28
 617              	.L27:
 618              		.loc 1 245 0 discriminator 3
 619 01de 054B     		ldr	r3, .L31+4
 620 01e0 00E0     		b	.L29
 621              	.L28:
 622              		.loc 1 245 0 discriminator 4
 623 01e2 0023     		movs	r3, #0
 624              	.L29:
 625              		.loc 1 245 0 discriminator 6
 626 01e4 FB60     		str	r3, [r7, #12]
 246:Generated_Source\PSoC6\pdl\drivers\peripheral\prot/cy_prot.c ****     
 247:Generated_Source\PSoC6\pdl\drivers\peripheral\prot/cy_prot.c ****     return status;
 627              		.loc 1 247 0 is_stmt 1 discriminator 6
 628 01e6 FB68     		ldr	r3, [r7, #12]
 248:Generated_Source\PSoC6\pdl\drivers\peripheral\prot/cy_prot.c **** }
 629              		.loc 1 248 0 discriminator 6
 630 01e8 1846     		mov	r0, r3
 631 01ea 1837     		adds	r7, r7, #24
 632              		.cfi_def_cfa_offset 8
 633 01ec BD46     		mov	sp, r7
 634              		.cfi_def_cfa_register 13
 635              		@ sp needed
 636 01ee 80BD     		pop	{r7, pc}
 637              	.L32:
 638              		.align	2
 639              	.L31:
 640 01f0 00000000 		.word	.LC0
 641 01f4 0300C200 		.word	12713987
 642              		.cfi_endproc
 643              	.LFE137:
 644              		.size	Cy_Prot_ConfigMpuStruct, .-Cy_Prot_ConfigMpuStruct
 645              		.section	.text.Cy_Prot_EnableMpuStruct,"ax",%progbits
 646              		.align	2
 647              		.global	Cy_Prot_EnableMpuStruct
 648              		.thumb
 649              		.thumb_func
 650              		.type	Cy_Prot_EnableMpuStruct, %function
 651              	Cy_Prot_EnableMpuStruct:
 652              	.LFB138:
 249:Generated_Source\PSoC6\pdl\drivers\peripheral\prot/cy_prot.c **** 
 250:Generated_Source\PSoC6\pdl\drivers\peripheral\prot/cy_prot.c **** 
ARM GAS  C:\Users\tmj32\AppData\Local\Temp\cc1bAzcK.s 			page 17


 251:Generated_Source\PSoC6\pdl\drivers\peripheral\prot/cy_prot.c **** /*******************************************************************************
 252:Generated_Source\PSoC6\pdl\drivers\peripheral\prot/cy_prot.c **** * Function Name: Cy_Prot_EnableMpuStruct
 253:Generated_Source\PSoC6\pdl\drivers\peripheral\prot/cy_prot.c **** ****************************************************************************//**
 254:Generated_Source\PSoC6\pdl\drivers\peripheral\prot/cy_prot.c **** *
 255:Generated_Source\PSoC6\pdl\drivers\peripheral\prot/cy_prot.c **** * Enables the MPU struct, which allows the MPU protection attributes to 
 256:Generated_Source\PSoC6\pdl\drivers\peripheral\prot/cy_prot.c **** * take effect. 
 257:Generated_Source\PSoC6\pdl\drivers\peripheral\prot/cy_prot.c **** *
 258:Generated_Source\PSoC6\pdl\drivers\peripheral\prot/cy_prot.c **** * \note This function is applicable for both CPUSS ver_1 and ver_2.
 259:Generated_Source\PSoC6\pdl\drivers\peripheral\prot/cy_prot.c **** *
 260:Generated_Source\PSoC6\pdl\drivers\peripheral\prot/cy_prot.c **** * \param base
 261:Generated_Source\PSoC6\pdl\drivers\peripheral\prot/cy_prot.c **** * The base address of the MPU struct being configured. 
 262:Generated_Source\PSoC6\pdl\drivers\peripheral\prot/cy_prot.c **** *
 263:Generated_Source\PSoC6\pdl\drivers\peripheral\prot/cy_prot.c **** * \return
 264:Generated_Source\PSoC6\pdl\drivers\peripheral\prot/cy_prot.c **** * Status of the function call.
 265:Generated_Source\PSoC6\pdl\drivers\peripheral\prot/cy_prot.c **** *
 266:Generated_Source\PSoC6\pdl\drivers\peripheral\prot/cy_prot.c **** *   Status               | Description
 267:Generated_Source\PSoC6\pdl\drivers\peripheral\prot/cy_prot.c **** *   ------------         | -----------
 268:Generated_Source\PSoC6\pdl\drivers\peripheral\prot/cy_prot.c **** *   CY_PROT_SUCCESS      | The MPU struct was enabled.
 269:Generated_Source\PSoC6\pdl\drivers\peripheral\prot/cy_prot.c **** *   CY_PROT_FAILURE      | The MPU struct is disabled and possibly locked.
 270:Generated_Source\PSoC6\pdl\drivers\peripheral\prot/cy_prot.c **** *
 271:Generated_Source\PSoC6\pdl\drivers\peripheral\prot/cy_prot.c **** * \funcusage
 272:Generated_Source\PSoC6\pdl\drivers\peripheral\prot/cy_prot.c **** * \snippet prot/1.20/snippet/main.c snippet_Cy_Prot_EnableMpuStruct
 273:Generated_Source\PSoC6\pdl\drivers\peripheral\prot/cy_prot.c **** *
 274:Generated_Source\PSoC6\pdl\drivers\peripheral\prot/cy_prot.c **** *******************************************************************************/
 275:Generated_Source\PSoC6\pdl\drivers\peripheral\prot/cy_prot.c **** cy_en_prot_status_t Cy_Prot_EnableMpuStruct(PROT_MPU_MPU_STRUCT_Type* base)
 276:Generated_Source\PSoC6\pdl\drivers\peripheral\prot/cy_prot.c **** {
 653              		.loc 1 276 0
 654              		.cfi_startproc
 655              		@ args = 0, pretend = 0, frame = 16
 656              		@ frame_needed = 1, uses_anonymous_args = 0
 657 0000 80B5     		push	{r7, lr}
 658              		.cfi_def_cfa_offset 8
 659              		.cfi_offset 7, -8
 660              		.cfi_offset 14, -4
 661 0002 84B0     		sub	sp, sp, #16
 662              		.cfi_def_cfa_offset 24
 663 0004 00AF     		add	r7, sp, #0
 664              		.cfi_def_cfa_register 7
 665 0006 7860     		str	r0, [r7, #4]
 277:Generated_Source\PSoC6\pdl\drivers\peripheral\prot/cy_prot.c ****     cy_en_prot_status_t status;
 278:Generated_Source\PSoC6\pdl\drivers\peripheral\prot/cy_prot.c ****     
 279:Generated_Source\PSoC6\pdl\drivers\peripheral\prot/cy_prot.c ****     CY_ASSERT_L1(NULL != base);
 666              		.loc 1 279 0
 667 0008 7B68     		ldr	r3, [r7, #4]
 668 000a 002B     		cmp	r3, #0
 669 000c 04D1     		bne	.L34
 670              		.loc 1 279 0 is_stmt 0 discriminator 1
 671 000e 40F21711 		movw	r1, #279
 672 0012 0C48     		ldr	r0, .L38
 673 0014 FFF7FEFF 		bl	Cy_SysLib_AssertFailed
 674              	.L34:
 280:Generated_Source\PSoC6\pdl\drivers\peripheral\prot/cy_prot.c ****     
 281:Generated_Source\PSoC6\pdl\drivers\peripheral\prot/cy_prot.c ****     PROT_MPU_MPU_STRUCT_ATT(base) |= _VAL2FLD(PROT_MPU_MPU_STRUCT_ATT_ENABLED, CY_PROT_STRUCT_ENABL
 675              		.loc 1 281 0 is_stmt 1
 676 0018 7B68     		ldr	r3, [r7, #4]
 677 001a 5B68     		ldr	r3, [r3, #4]
 678 001c 43F00042 		orr	r2, r3, #-2147483648
ARM GAS  C:\Users\tmj32\AppData\Local\Temp\cc1bAzcK.s 			page 18


 679 0020 7B68     		ldr	r3, [r7, #4]
 680 0022 5A60     		str	r2, [r3, #4]
 282:Generated_Source\PSoC6\pdl\drivers\peripheral\prot/cy_prot.c ****     status = (_FLD2VAL(PROT_MPU_MPU_STRUCT_ATT_ENABLED, PROT_MPU_MPU_STRUCT_ATT(base)) != CY_PROT_S
 681              		.loc 1 282 0
 682 0024 7B68     		ldr	r3, [r7, #4]
 683 0026 5B68     		ldr	r3, [r3, #4]
 684 0028 03F00043 		and	r3, r3, #-2147483648
 685 002c DB0F     		lsrs	r3, r3, #31
 686 002e 012B     		cmp	r3, #1
 687 0030 01D0     		beq	.L35
 688              		.loc 1 282 0 is_stmt 0 discriminator 1
 689 0032 054B     		ldr	r3, .L38+4
 690 0034 00E0     		b	.L36
 691              	.L35:
 692              		.loc 1 282 0 discriminator 2
 693 0036 0023     		movs	r3, #0
 694              	.L36:
 695              		.loc 1 282 0 discriminator 4
 696 0038 FB60     		str	r3, [r7, #12]
 283:Generated_Source\PSoC6\pdl\drivers\peripheral\prot/cy_prot.c ****                 CY_PROT_FAILURE : CY_PROT_SUCCESS;
 284:Generated_Source\PSoC6\pdl\drivers\peripheral\prot/cy_prot.c ****     
 285:Generated_Source\PSoC6\pdl\drivers\peripheral\prot/cy_prot.c ****     return status;
 697              		.loc 1 285 0 is_stmt 1 discriminator 4
 698 003a FB68     		ldr	r3, [r7, #12]
 286:Generated_Source\PSoC6\pdl\drivers\peripheral\prot/cy_prot.c **** }
 699              		.loc 1 286 0 discriminator 4
 700 003c 1846     		mov	r0, r3
 701 003e 1037     		adds	r7, r7, #16
 702              		.cfi_def_cfa_offset 8
 703 0040 BD46     		mov	sp, r7
 704              		.cfi_def_cfa_register 13
 705              		@ sp needed
 706 0042 80BD     		pop	{r7, pc}
 707              	.L39:
 708              		.align	2
 709              	.L38:
 710 0044 00000000 		.word	.LC0
 711 0048 0300C200 		.word	12713987
 712              		.cfi_endproc
 713              	.LFE138:
 714              		.size	Cy_Prot_EnableMpuStruct, .-Cy_Prot_EnableMpuStruct
 715              		.section	.text.Cy_Prot_DisableMpuStruct,"ax",%progbits
 716              		.align	2
 717              		.global	Cy_Prot_DisableMpuStruct
 718              		.thumb
 719              		.thumb_func
 720              		.type	Cy_Prot_DisableMpuStruct, %function
 721              	Cy_Prot_DisableMpuStruct:
 722              	.LFB139:
 287:Generated_Source\PSoC6\pdl\drivers\peripheral\prot/cy_prot.c **** 
 288:Generated_Source\PSoC6\pdl\drivers\peripheral\prot/cy_prot.c **** 
 289:Generated_Source\PSoC6\pdl\drivers\peripheral\prot/cy_prot.c **** /*******************************************************************************
 290:Generated_Source\PSoC6\pdl\drivers\peripheral\prot/cy_prot.c **** * Function Name: Cy_Prot_DisableMpuStruct
 291:Generated_Source\PSoC6\pdl\drivers\peripheral\prot/cy_prot.c **** ****************************************************************************//**
 292:Generated_Source\PSoC6\pdl\drivers\peripheral\prot/cy_prot.c **** *
 293:Generated_Source\PSoC6\pdl\drivers\peripheral\prot/cy_prot.c **** * Disables the MPU struct, which prevents the MPU protection attributes
 294:Generated_Source\PSoC6\pdl\drivers\peripheral\prot/cy_prot.c **** * from taking effect.
ARM GAS  C:\Users\tmj32\AppData\Local\Temp\cc1bAzcK.s 			page 19


 295:Generated_Source\PSoC6\pdl\drivers\peripheral\prot/cy_prot.c **** *
 296:Generated_Source\PSoC6\pdl\drivers\peripheral\prot/cy_prot.c **** * \note This function is applicable for both CPUSS ver_1 and ver_2.
 297:Generated_Source\PSoC6\pdl\drivers\peripheral\prot/cy_prot.c **** *
 298:Generated_Source\PSoC6\pdl\drivers\peripheral\prot/cy_prot.c **** * \param base
 299:Generated_Source\PSoC6\pdl\drivers\peripheral\prot/cy_prot.c **** * The base address of the MPU struct being configured. 
 300:Generated_Source\PSoC6\pdl\drivers\peripheral\prot/cy_prot.c **** *
 301:Generated_Source\PSoC6\pdl\drivers\peripheral\prot/cy_prot.c **** * \return
 302:Generated_Source\PSoC6\pdl\drivers\peripheral\prot/cy_prot.c **** * Status of the function call.
 303:Generated_Source\PSoC6\pdl\drivers\peripheral\prot/cy_prot.c **** *
 304:Generated_Source\PSoC6\pdl\drivers\peripheral\prot/cy_prot.c **** *   Status               | Description
 305:Generated_Source\PSoC6\pdl\drivers\peripheral\prot/cy_prot.c **** *   ------------         | -----------
 306:Generated_Source\PSoC6\pdl\drivers\peripheral\prot/cy_prot.c **** *   CY_PROT_SUCCESS      | The MPU struct was disabled.
 307:Generated_Source\PSoC6\pdl\drivers\peripheral\prot/cy_prot.c **** *   CY_PROT_FAILURE      | The MPU struct is enabled and possibly locked.
 308:Generated_Source\PSoC6\pdl\drivers\peripheral\prot/cy_prot.c **** *
 309:Generated_Source\PSoC6\pdl\drivers\peripheral\prot/cy_prot.c **** * \funcusage
 310:Generated_Source\PSoC6\pdl\drivers\peripheral\prot/cy_prot.c **** * \snippet prot/1.20/snippet/main.c snippet_Cy_Prot_DisableMpuStruct
 311:Generated_Source\PSoC6\pdl\drivers\peripheral\prot/cy_prot.c **** *
 312:Generated_Source\PSoC6\pdl\drivers\peripheral\prot/cy_prot.c **** *******************************************************************************/
 313:Generated_Source\PSoC6\pdl\drivers\peripheral\prot/cy_prot.c **** cy_en_prot_status_t Cy_Prot_DisableMpuStruct(PROT_MPU_MPU_STRUCT_Type* base)
 314:Generated_Source\PSoC6\pdl\drivers\peripheral\prot/cy_prot.c **** {
 723              		.loc 1 314 0
 724              		.cfi_startproc
 725              		@ args = 0, pretend = 0, frame = 16
 726              		@ frame_needed = 1, uses_anonymous_args = 0
 727 0000 80B5     		push	{r7, lr}
 728              		.cfi_def_cfa_offset 8
 729              		.cfi_offset 7, -8
 730              		.cfi_offset 14, -4
 731 0002 84B0     		sub	sp, sp, #16
 732              		.cfi_def_cfa_offset 24
 733 0004 00AF     		add	r7, sp, #0
 734              		.cfi_def_cfa_register 7
 735 0006 7860     		str	r0, [r7, #4]
 315:Generated_Source\PSoC6\pdl\drivers\peripheral\prot/cy_prot.c ****     cy_en_prot_status_t status;
 316:Generated_Source\PSoC6\pdl\drivers\peripheral\prot/cy_prot.c **** 
 317:Generated_Source\PSoC6\pdl\drivers\peripheral\prot/cy_prot.c ****     CY_ASSERT_L1(NULL != base);
 736              		.loc 1 317 0
 737 0008 7B68     		ldr	r3, [r7, #4]
 738 000a 002B     		cmp	r3, #0
 739 000c 04D1     		bne	.L41
 740              		.loc 1 317 0 is_stmt 0 discriminator 1
 741 000e 40F23D11 		movw	r1, #317
 742 0012 0C48     		ldr	r0, .L45
 743 0014 FFF7FEFF 		bl	Cy_SysLib_AssertFailed
 744              	.L41:
 318:Generated_Source\PSoC6\pdl\drivers\peripheral\prot/cy_prot.c ****     
 319:Generated_Source\PSoC6\pdl\drivers\peripheral\prot/cy_prot.c ****     PROT_MPU_MPU_STRUCT_ATT(base) &= ~_VAL2FLD(PROT_MPU_MPU_STRUCT_ATT_ENABLED, CY_PROT_STRUCT_ENAB
 745              		.loc 1 319 0 is_stmt 1
 746 0018 7B68     		ldr	r3, [r7, #4]
 747 001a 5B68     		ldr	r3, [r3, #4]
 748 001c 23F00042 		bic	r2, r3, #-2147483648
 749 0020 7B68     		ldr	r3, [r7, #4]
 750 0022 5A60     		str	r2, [r3, #4]
 320:Generated_Source\PSoC6\pdl\drivers\peripheral\prot/cy_prot.c ****     status = (_FLD2VAL(PROT_MPU_MPU_STRUCT_ATT_ENABLED, PROT_MPU_MPU_STRUCT_ATT(base)) == CY_PROT_S
 751              		.loc 1 320 0
 752 0024 7B68     		ldr	r3, [r7, #4]
 753 0026 5B68     		ldr	r3, [r3, #4]
ARM GAS  C:\Users\tmj32\AppData\Local\Temp\cc1bAzcK.s 			page 20


 754 0028 03F00043 		and	r3, r3, #-2147483648
 755 002c DB0F     		lsrs	r3, r3, #31
 756 002e 012B     		cmp	r3, #1
 757 0030 01D1     		bne	.L42
 758              		.loc 1 320 0 is_stmt 0 discriminator 1
 759 0032 054B     		ldr	r3, .L45+4
 760 0034 00E0     		b	.L43
 761              	.L42:
 762              		.loc 1 320 0 discriminator 2
 763 0036 0023     		movs	r3, #0
 764              	.L43:
 765              		.loc 1 320 0 discriminator 4
 766 0038 FB60     		str	r3, [r7, #12]
 321:Generated_Source\PSoC6\pdl\drivers\peripheral\prot/cy_prot.c ****                CY_PROT_FAILURE : CY_PROT_SUCCESS;
 322:Generated_Source\PSoC6\pdl\drivers\peripheral\prot/cy_prot.c ****     
 323:Generated_Source\PSoC6\pdl\drivers\peripheral\prot/cy_prot.c ****     return status;
 767              		.loc 1 323 0 is_stmt 1 discriminator 4
 768 003a FB68     		ldr	r3, [r7, #12]
 324:Generated_Source\PSoC6\pdl\drivers\peripheral\prot/cy_prot.c **** }
 769              		.loc 1 324 0 discriminator 4
 770 003c 1846     		mov	r0, r3
 771 003e 1037     		adds	r7, r7, #16
 772              		.cfi_def_cfa_offset 8
 773 0040 BD46     		mov	sp, r7
 774              		.cfi_def_cfa_register 13
 775              		@ sp needed
 776 0042 80BD     		pop	{r7, pc}
 777              	.L46:
 778              		.align	2
 779              	.L45:
 780 0044 00000000 		.word	.LC0
 781 0048 0300C200 		.word	12713987
 782              		.cfi_endproc
 783              	.LFE139:
 784              		.size	Cy_Prot_DisableMpuStruct, .-Cy_Prot_DisableMpuStruct
 785              		.section	.text.Cy_Prot_ConfigSmpuMasterStruct,"ax",%progbits
 786              		.align	2
 787              		.global	Cy_Prot_ConfigSmpuMasterStruct
 788              		.thumb
 789              		.thumb_func
 790              		.type	Cy_Prot_ConfigSmpuMasterStruct, %function
 791              	Cy_Prot_ConfigSmpuMasterStruct:
 792              	.LFB140:
 325:Generated_Source\PSoC6\pdl\drivers\peripheral\prot/cy_prot.c **** 
 326:Generated_Source\PSoC6\pdl\drivers\peripheral\prot/cy_prot.c **** 
 327:Generated_Source\PSoC6\pdl\drivers\peripheral\prot/cy_prot.c **** /*******************************************************************************
 328:Generated_Source\PSoC6\pdl\drivers\peripheral\prot/cy_prot.c **** * Function Name: Cy_Prot_ConfigSmpuMasterStruct
 329:Generated_Source\PSoC6\pdl\drivers\peripheral\prot/cy_prot.c **** ****************************************************************************//**
 330:Generated_Source\PSoC6\pdl\drivers\peripheral\prot/cy_prot.c **** *
 331:Generated_Source\PSoC6\pdl\drivers\peripheral\prot/cy_prot.c **** * Configures a Shared Memory Protection Unit (SMPU) master protection 
 332:Generated_Source\PSoC6\pdl\drivers\peripheral\prot/cy_prot.c **** * struct with its protection attributes. 
 333:Generated_Source\PSoC6\pdl\drivers\peripheral\prot/cy_prot.c **** *
 334:Generated_Source\PSoC6\pdl\drivers\peripheral\prot/cy_prot.c **** * This function configures the master struct governing the corresponding slave
 335:Generated_Source\PSoC6\pdl\drivers\peripheral\prot/cy_prot.c **** * struct pair. It is a mechanism to protect the slave SMPU struct. Since the
 336:Generated_Source\PSoC6\pdl\drivers\peripheral\prot/cy_prot.c **** * memory location of the slave struct is known, the address, regionSize and
 337:Generated_Source\PSoC6\pdl\drivers\peripheral\prot/cy_prot.c **** * subregions of the configuration struct are not applicable.
 338:Generated_Source\PSoC6\pdl\drivers\peripheral\prot/cy_prot.c **** *
ARM GAS  C:\Users\tmj32\AppData\Local\Temp\cc1bAzcK.s 			page 21


 339:Generated_Source\PSoC6\pdl\drivers\peripheral\prot/cy_prot.c **** * Note that only the user/privileged write permissions are configurable. The 
 340:Generated_Source\PSoC6\pdl\drivers\peripheral\prot/cy_prot.c **** * read and execute permissions are read-only and cannot be configured.
 341:Generated_Source\PSoC6\pdl\drivers\peripheral\prot/cy_prot.c **** *
 342:Generated_Source\PSoC6\pdl\drivers\peripheral\prot/cy_prot.c **** * \note This function is applicable for both CPUSS ver_1 and ver_2.
 343:Generated_Source\PSoC6\pdl\drivers\peripheral\prot/cy_prot.c **** *
 344:Generated_Source\PSoC6\pdl\drivers\peripheral\prot/cy_prot.c **** * \param base
 345:Generated_Source\PSoC6\pdl\drivers\peripheral\prot/cy_prot.c **** * The register base address of the protection struct being configured.
 346:Generated_Source\PSoC6\pdl\drivers\peripheral\prot/cy_prot.c **** * 
 347:Generated_Source\PSoC6\pdl\drivers\peripheral\prot/cy_prot.c **** * \param config
 348:Generated_Source\PSoC6\pdl\drivers\peripheral\prot/cy_prot.c **** * Initialization structure with all the protection attributes.
 349:Generated_Source\PSoC6\pdl\drivers\peripheral\prot/cy_prot.c **** * 
 350:Generated_Source\PSoC6\pdl\drivers\peripheral\prot/cy_prot.c **** * \return
 351:Generated_Source\PSoC6\pdl\drivers\peripheral\prot/cy_prot.c **** * Status of the function call.
 352:Generated_Source\PSoC6\pdl\drivers\peripheral\prot/cy_prot.c **** *
 353:Generated_Source\PSoC6\pdl\drivers\peripheral\prot/cy_prot.c **** *   Status               | Description
 354:Generated_Source\PSoC6\pdl\drivers\peripheral\prot/cy_prot.c **** *   ------------         | -----------
 355:Generated_Source\PSoC6\pdl\drivers\peripheral\prot/cy_prot.c **** *   CY_PROT_SUCCESS      | SMPU master struct was successfully configured.
 356:Generated_Source\PSoC6\pdl\drivers\peripheral\prot/cy_prot.c **** *   CY_PROT_FAILURE      | The resource is locked.
 357:Generated_Source\PSoC6\pdl\drivers\peripheral\prot/cy_prot.c **** *   CY_PROT_BAD_PARAM    | An incorrect/invalid parameter was passed.
 358:Generated_Source\PSoC6\pdl\drivers\peripheral\prot/cy_prot.c **** *
 359:Generated_Source\PSoC6\pdl\drivers\peripheral\prot/cy_prot.c **** * \funcusage
 360:Generated_Source\PSoC6\pdl\drivers\peripheral\prot/cy_prot.c **** * \snippet prot/1.20/snippet/main.c snippet_Cy_Prot_ConfigSmpuMasterStruct
 361:Generated_Source\PSoC6\pdl\drivers\peripheral\prot/cy_prot.c **** *
 362:Generated_Source\PSoC6\pdl\drivers\peripheral\prot/cy_prot.c **** *******************************************************************************/
 363:Generated_Source\PSoC6\pdl\drivers\peripheral\prot/cy_prot.c **** cy_en_prot_status_t Cy_Prot_ConfigSmpuMasterStruct(PROT_SMPU_SMPU_STRUCT_Type* base, const cy_stc_s
 364:Generated_Source\PSoC6\pdl\drivers\peripheral\prot/cy_prot.c **** {
 793              		.loc 1 364 0
 794              		.cfi_startproc
 795              		@ args = 0, pretend = 0, frame = 16
 796              		@ frame_needed = 1, uses_anonymous_args = 0
 797 0000 80B5     		push	{r7, lr}
 798              		.cfi_def_cfa_offset 8
 799              		.cfi_offset 7, -8
 800              		.cfi_offset 14, -4
 801 0002 84B0     		sub	sp, sp, #16
 802              		.cfi_def_cfa_offset 24
 803 0004 00AF     		add	r7, sp, #0
 804              		.cfi_def_cfa_register 7
 805 0006 7860     		str	r0, [r7, #4]
 806 0008 3960     		str	r1, [r7]
 365:Generated_Source\PSoC6\pdl\drivers\peripheral\prot/cy_prot.c ****     cy_en_prot_status_t status;
 366:Generated_Source\PSoC6\pdl\drivers\peripheral\prot/cy_prot.c ****     uint32_t attReg;
 367:Generated_Source\PSoC6\pdl\drivers\peripheral\prot/cy_prot.c ****     
 368:Generated_Source\PSoC6\pdl\drivers\peripheral\prot/cy_prot.c ****     CY_ASSERT_L1(NULL != base);
 807              		.loc 1 368 0
 808 000a 7B68     		ldr	r3, [r7, #4]
 809 000c 002B     		cmp	r3, #0
 810 000e 04D1     		bne	.L48
 811              		.loc 1 368 0 is_stmt 0 discriminator 1
 812 0010 4FF4B871 		mov	r1, #368
 813 0014 3948     		ldr	r0, .L58
 814 0016 FFF7FEFF 		bl	Cy_SysLib_AssertFailed
 815              	.L48:
 369:Generated_Source\PSoC6\pdl\drivers\peripheral\prot/cy_prot.c ****     CY_ASSERT_L2(CY_PROT_IS_PC_MASK_VALID(config->pcMask));
 816              		.loc 1 369 0 is_stmt 1
 817 001a 3B68     		ldr	r3, [r7]
 818 001c 5B89     		ldrh	r3, [r3, #10]
ARM GAS  C:\Users\tmj32\AppData\Local\Temp\cc1bAzcK.s 			page 22


 819 001e 23F4FF43 		bic	r3, r3, #32640
 820 0022 23F07F03 		bic	r3, r3, #127
 821 0026 002B     		cmp	r3, #0
 822 0028 04D0     		beq	.L49
 823              		.loc 1 369 0 is_stmt 0 discriminator 1
 824 002a 40F27111 		movw	r1, #369
 825 002e 3348     		ldr	r0, .L58
 826 0030 FFF7FEFF 		bl	Cy_SysLib_AssertFailed
 827              	.L49:
 370:Generated_Source\PSoC6\pdl\drivers\peripheral\prot/cy_prot.c ****     CY_ASSERT_L3(CY_PROT_IS_SMPU_MS_PERM_VALID(config->userPermission));
 828              		.loc 1 370 0 is_stmt 1
 829 0034 3B68     		ldr	r3, [r7]
 830 0036 9B79     		ldrb	r3, [r3, #6]	@ zero_extendqisi2
 831 0038 012B     		cmp	r3, #1
 832 003a 08D0     		beq	.L50
 833              		.loc 1 370 0 is_stmt 0 discriminator 1
 834 003c 3B68     		ldr	r3, [r7]
 835 003e 9B79     		ldrb	r3, [r3, #6]	@ zero_extendqisi2
 836 0040 032B     		cmp	r3, #3
 837 0042 04D0     		beq	.L50
 838              		.loc 1 370 0 discriminator 2
 839 0044 4FF4B971 		mov	r1, #370
 840 0048 2C48     		ldr	r0, .L58
 841 004a FFF7FEFF 		bl	Cy_SysLib_AssertFailed
 842              	.L50:
 371:Generated_Source\PSoC6\pdl\drivers\peripheral\prot/cy_prot.c ****     CY_ASSERT_L3(CY_PROT_IS_SMPU_MS_PERM_VALID(config->privPermission));
 843              		.loc 1 371 0 is_stmt 1
 844 004e 3B68     		ldr	r3, [r7]
 845 0050 DB79     		ldrb	r3, [r3, #7]	@ zero_extendqisi2
 846 0052 012B     		cmp	r3, #1
 847 0054 08D0     		beq	.L51
 848              		.loc 1 371 0 is_stmt 0 discriminator 1
 849 0056 3B68     		ldr	r3, [r7]
 850 0058 DB79     		ldrb	r3, [r3, #7]	@ zero_extendqisi2
 851 005a 032B     		cmp	r3, #3
 852 005c 04D0     		beq	.L51
 853              		.loc 1 371 0 discriminator 2
 854 005e 40F27311 		movw	r1, #371
 855 0062 2648     		ldr	r0, .L58
 856 0064 FFF7FEFF 		bl	Cy_SysLib_AssertFailed
 857              	.L51:
 372:Generated_Source\PSoC6\pdl\drivers\peripheral\prot/cy_prot.c ****     
 373:Generated_Source\PSoC6\pdl\drivers\peripheral\prot/cy_prot.c ****     if(((uint32_t)config->pcMask & CY_PROT_SMPU_PC_LIMIT_MASK) != 0UL) 
 858              		.loc 1 373 0 is_stmt 1
 859 0068 3B68     		ldr	r3, [r7]
 860 006a 5B89     		ldrh	r3, [r3, #10]
 861 006c 23F07F03 		bic	r3, r3, #127
 862 0070 002B     		cmp	r3, #0
 863 0072 02D0     		beq	.L52
 374:Generated_Source\PSoC6\pdl\drivers\peripheral\prot/cy_prot.c ****     {
 375:Generated_Source\PSoC6\pdl\drivers\peripheral\prot/cy_prot.c ****         /* PC mask out of range - not supported in device */
 376:Generated_Source\PSoC6\pdl\drivers\peripheral\prot/cy_prot.c ****         status = CY_PROT_BAD_PARAM;
 864              		.loc 1 376 0
 865 0074 224B     		ldr	r3, .L58+4
 866 0076 FB60     		str	r3, [r7, #12]
 867 0078 3AE0     		b	.L53
 868              	.L52:
ARM GAS  C:\Users\tmj32\AppData\Local\Temp\cc1bAzcK.s 			page 23


 377:Generated_Source\PSoC6\pdl\drivers\peripheral\prot/cy_prot.c ****     }
 378:Generated_Source\PSoC6\pdl\drivers\peripheral\prot/cy_prot.c ****     else
 379:Generated_Source\PSoC6\pdl\drivers\peripheral\prot/cy_prot.c ****     {
 380:Generated_Source\PSoC6\pdl\drivers\peripheral\prot/cy_prot.c ****         /* ADDR1 is read only. Only configure ATT1 */
 381:Generated_Source\PSoC6\pdl\drivers\peripheral\prot/cy_prot.c ****         attReg = ((uint32_t)config->userPermission & CY_PROT_ATT_PERMISSION_MASK)
 869              		.loc 1 381 0
 870 007a 3B68     		ldr	r3, [r7]
 871 007c 9B79     		ldrb	r3, [r3, #6]	@ zero_extendqisi2
 872 007e 03F00702 		and	r2, r3, #7
 382:Generated_Source\PSoC6\pdl\drivers\peripheral\prot/cy_prot.c ****                     | (uint32_t)(((uint32_t)config->privPermission & CY_PROT_ATT_PERMISSION_MASK) <
 873              		.loc 1 382 0
 874 0082 3B68     		ldr	r3, [r7]
 875 0084 DB79     		ldrb	r3, [r3, #7]	@ zero_extendqisi2
 876 0086 DB00     		lsls	r3, r3, #3
 877 0088 03F03803 		and	r3, r3, #56
 878 008c 1A43     		orrs	r2, r2, r3
 383:Generated_Source\PSoC6\pdl\drivers\peripheral\prot/cy_prot.c ****                     | _VAL2FLD(PROT_SMPU_SMPU_STRUCT_ATT1_NS, !(config->secure))
 879              		.loc 1 383 0
 880 008e 3B68     		ldr	r3, [r7]
 881 0090 1B7A     		ldrb	r3, [r3, #8]	@ zero_extendqisi2
 882 0092 83F00103 		eor	r3, r3, #1
 883 0096 DBB2     		uxtb	r3, r3
 884 0098 9B01     		lsls	r3, r3, #6
 885 009a 03F04003 		and	r3, r3, #64
 886 009e 1A43     		orrs	r2, r2, r3
 384:Generated_Source\PSoC6\pdl\drivers\peripheral\prot/cy_prot.c ****                     | _VAL2FLD(PROT_SMPU_SMPU_STRUCT_ATT1_PC_MASK_15_TO_1, config->pcMask)
 887              		.loc 1 384 0
 888 00a0 3B68     		ldr	r3, [r7]
 889 00a2 5B89     		ldrh	r3, [r3, #10]
 890 00a4 5902     		lsls	r1, r3, #9
 891 00a6 174B     		ldr	r3, .L58+8
 892 00a8 0B40     		ands	r3, r3, r1
 893 00aa 1A43     		orrs	r2, r2, r3
 385:Generated_Source\PSoC6\pdl\drivers\peripheral\prot/cy_prot.c ****                     /* No region size - read only for master structs */
 386:Generated_Source\PSoC6\pdl\drivers\peripheral\prot/cy_prot.c ****                     | _VAL2FLD(PROT_SMPU_SMPU_STRUCT_ATT1_PC_MATCH, config->pcMatch);
 894              		.loc 1 386 0
 895 00ac 3B68     		ldr	r3, [r7]
 896 00ae 5B7A     		ldrb	r3, [r3, #9]	@ zero_extendqisi2
 897 00b0 9B07     		lsls	r3, r3, #30
 898 00b2 03F08043 		and	r3, r3, #1073741824
 381:Generated_Source\PSoC6\pdl\drivers\peripheral\prot/cy_prot.c ****                     | (uint32_t)(((uint32_t)config->privPermission & CY_PROT_ATT_PERMISSION_MASK) <
 899              		.loc 1 381 0
 900 00b6 1343     		orrs	r3, r3, r2
 901 00b8 BB60     		str	r3, [r7, #8]
 387:Generated_Source\PSoC6\pdl\drivers\peripheral\prot/cy_prot.c ****         if ((attReg & CY_PROT_SMPU_ATT1_MASK) != attReg)
 902              		.loc 1 387 0
 903 00ba BB68     		ldr	r3, [r7, #8]
 904 00bc 23F0F853 		bic	r3, r3, #520093696
 905 00c0 23F49273 		bic	r3, r3, #292
 906 00c4 BA68     		ldr	r2, [r7, #8]
 907 00c6 9342     		cmp	r3, r2
 908 00c8 02D0     		beq	.L54
 388:Generated_Source\PSoC6\pdl\drivers\peripheral\prot/cy_prot.c ****         {
 389:Generated_Source\PSoC6\pdl\drivers\peripheral\prot/cy_prot.c ****             /* Invalid parameter was passed */
 390:Generated_Source\PSoC6\pdl\drivers\peripheral\prot/cy_prot.c ****             status = CY_PROT_BAD_PARAM;
 909              		.loc 1 390 0
 910 00ca 0D4B     		ldr	r3, .L58+4
ARM GAS  C:\Users\tmj32\AppData\Local\Temp\cc1bAzcK.s 			page 24


 911 00cc FB60     		str	r3, [r7, #12]
 912 00ce 0FE0     		b	.L53
 913              	.L54:
 391:Generated_Source\PSoC6\pdl\drivers\peripheral\prot/cy_prot.c ****         }
 392:Generated_Source\PSoC6\pdl\drivers\peripheral\prot/cy_prot.c ****         else
 393:Generated_Source\PSoC6\pdl\drivers\peripheral\prot/cy_prot.c ****         {
 394:Generated_Source\PSoC6\pdl\drivers\peripheral\prot/cy_prot.c ****             PROT_SMPU_SMPU_STRUCT_ATT1(base) = attReg;
 914              		.loc 1 394 0
 915 00d0 7B68     		ldr	r3, [r7, #4]
 916 00d2 BA68     		ldr	r2, [r7, #8]
 917 00d4 5A62     		str	r2, [r3, #36]
 395:Generated_Source\PSoC6\pdl\drivers\peripheral\prot/cy_prot.c ****             status = ((PROT_SMPU_SMPU_STRUCT_ATT1(base) & CY_PROT_SMPU_ATT1_MASK) != attReg) ? CY_P
 918              		.loc 1 395 0
 919 00d6 7B68     		ldr	r3, [r7, #4]
 920 00d8 5B6A     		ldr	r3, [r3, #36]
 921 00da 23F0F853 		bic	r3, r3, #520093696
 922 00de 23F49273 		bic	r3, r3, #292
 923 00e2 BA68     		ldr	r2, [r7, #8]
 924 00e4 9342     		cmp	r3, r2
 925 00e6 01D0     		beq	.L55
 926              		.loc 1 395 0 is_stmt 0 discriminator 1
 927 00e8 074B     		ldr	r3, .L58+12
 928 00ea 00E0     		b	.L56
 929              	.L55:
 930              		.loc 1 395 0 discriminator 2
 931 00ec 0023     		movs	r3, #0
 932              	.L56:
 933              		.loc 1 395 0 discriminator 4
 934 00ee FB60     		str	r3, [r7, #12]
 935              	.L53:
 396:Generated_Source\PSoC6\pdl\drivers\peripheral\prot/cy_prot.c ****         }
 397:Generated_Source\PSoC6\pdl\drivers\peripheral\prot/cy_prot.c ****     }
 398:Generated_Source\PSoC6\pdl\drivers\peripheral\prot/cy_prot.c ****     
 399:Generated_Source\PSoC6\pdl\drivers\peripheral\prot/cy_prot.c ****     return status;
 936              		.loc 1 399 0 is_stmt 1
 937 00f0 FB68     		ldr	r3, [r7, #12]
 400:Generated_Source\PSoC6\pdl\drivers\peripheral\prot/cy_prot.c **** }
 938              		.loc 1 400 0
 939 00f2 1846     		mov	r0, r3
 940 00f4 1037     		adds	r7, r7, #16
 941              		.cfi_def_cfa_offset 8
 942 00f6 BD46     		mov	sp, r7
 943              		.cfi_def_cfa_register 13
 944              		@ sp needed
 945 00f8 80BD     		pop	{r7, pc}
 946              	.L59:
 947 00fa 00BF     		.align	2
 948              	.L58:
 949 00fc 00000000 		.word	.LC0
 950 0100 0100C200 		.word	12713985
 951 0104 00FEFF00 		.word	16776704
 952 0108 0300C200 		.word	12713987
 953              		.cfi_endproc
 954              	.LFE140:
 955              		.size	Cy_Prot_ConfigSmpuMasterStruct, .-Cy_Prot_ConfigSmpuMasterStruct
 956              		.section	.text.Cy_Prot_ConfigSmpuSlaveStruct,"ax",%progbits
 957              		.align	2
ARM GAS  C:\Users\tmj32\AppData\Local\Temp\cc1bAzcK.s 			page 25


 958              		.global	Cy_Prot_ConfigSmpuSlaveStruct
 959              		.thumb
 960              		.thumb_func
 961              		.type	Cy_Prot_ConfigSmpuSlaveStruct, %function
 962              	Cy_Prot_ConfigSmpuSlaveStruct:
 963              	.LFB141:
 401:Generated_Source\PSoC6\pdl\drivers\peripheral\prot/cy_prot.c **** 
 402:Generated_Source\PSoC6\pdl\drivers\peripheral\prot/cy_prot.c **** 
 403:Generated_Source\PSoC6\pdl\drivers\peripheral\prot/cy_prot.c **** /*******************************************************************************
 404:Generated_Source\PSoC6\pdl\drivers\peripheral\prot/cy_prot.c **** * Function Name: Cy_Prot_ConfigSmpuSlaveStruct
 405:Generated_Source\PSoC6\pdl\drivers\peripheral\prot/cy_prot.c **** ****************************************************************************//**
 406:Generated_Source\PSoC6\pdl\drivers\peripheral\prot/cy_prot.c **** *
 407:Generated_Source\PSoC6\pdl\drivers\peripheral\prot/cy_prot.c **** * Configures a Shared Memory Protection Unit (SMPU) slave protection 
 408:Generated_Source\PSoC6\pdl\drivers\peripheral\prot/cy_prot.c **** * struct with its protection attributes. 
 409:Generated_Source\PSoC6\pdl\drivers\peripheral\prot/cy_prot.c **** * 
 410:Generated_Source\PSoC6\pdl\drivers\peripheral\prot/cy_prot.c **** * This function configures the slave struct of an SMPU pair, which can protect
 411:Generated_Source\PSoC6\pdl\drivers\peripheral\prot/cy_prot.c **** * any memory region in a device from invalid bus master accesses.
 412:Generated_Source\PSoC6\pdl\drivers\peripheral\prot/cy_prot.c **** *
 413:Generated_Source\PSoC6\pdl\drivers\peripheral\prot/cy_prot.c **** * \note This function is applicable for both CPUSS ver_1 and ver_2.
 414:Generated_Source\PSoC6\pdl\drivers\peripheral\prot/cy_prot.c **** *
 415:Generated_Source\PSoC6\pdl\drivers\peripheral\prot/cy_prot.c **** * \param base
 416:Generated_Source\PSoC6\pdl\drivers\peripheral\prot/cy_prot.c **** * The register base address of the protection structure being configured.
 417:Generated_Source\PSoC6\pdl\drivers\peripheral\prot/cy_prot.c **** * 
 418:Generated_Source\PSoC6\pdl\drivers\peripheral\prot/cy_prot.c **** * \param config
 419:Generated_Source\PSoC6\pdl\drivers\peripheral\prot/cy_prot.c **** * Initialization structure with all the protection attributes.
 420:Generated_Source\PSoC6\pdl\drivers\peripheral\prot/cy_prot.c **** * 
 421:Generated_Source\PSoC6\pdl\drivers\peripheral\prot/cy_prot.c **** * \return
 422:Generated_Source\PSoC6\pdl\drivers\peripheral\prot/cy_prot.c **** * Status of the function call.
 423:Generated_Source\PSoC6\pdl\drivers\peripheral\prot/cy_prot.c **** *
 424:Generated_Source\PSoC6\pdl\drivers\peripheral\prot/cy_prot.c **** *   Status               | Description
 425:Generated_Source\PSoC6\pdl\drivers\peripheral\prot/cy_prot.c **** *   ------------         | -----------
 426:Generated_Source\PSoC6\pdl\drivers\peripheral\prot/cy_prot.c **** *   CY_PROT_SUCCESS      | SMPU slave struct was successfully configured.
 427:Generated_Source\PSoC6\pdl\drivers\peripheral\prot/cy_prot.c **** *   CY_PROT_FAILURE      | The resource is locked.
 428:Generated_Source\PSoC6\pdl\drivers\peripheral\prot/cy_prot.c **** *   CY_PROT_BAD_PARAM    | An incorrect/invalid parameter was passed.
 429:Generated_Source\PSoC6\pdl\drivers\peripheral\prot/cy_prot.c **** *
 430:Generated_Source\PSoC6\pdl\drivers\peripheral\prot/cy_prot.c **** * \funcusage
 431:Generated_Source\PSoC6\pdl\drivers\peripheral\prot/cy_prot.c **** * \snippet prot/1.20/snippet/main.c snippet_Cy_Prot_ConfigSmpuSlaveStruct
 432:Generated_Source\PSoC6\pdl\drivers\peripheral\prot/cy_prot.c **** *
 433:Generated_Source\PSoC6\pdl\drivers\peripheral\prot/cy_prot.c **** *******************************************************************************/
 434:Generated_Source\PSoC6\pdl\drivers\peripheral\prot/cy_prot.c **** cy_en_prot_status_t Cy_Prot_ConfigSmpuSlaveStruct(PROT_SMPU_SMPU_STRUCT_Type* base, const cy_stc_sm
 435:Generated_Source\PSoC6\pdl\drivers\peripheral\prot/cy_prot.c **** {
 964              		.loc 1 435 0
 965              		.cfi_startproc
 966              		@ args = 0, pretend = 0, frame = 24
 967              		@ frame_needed = 1, uses_anonymous_args = 0
 968 0000 80B5     		push	{r7, lr}
 969              		.cfi_def_cfa_offset 8
 970              		.cfi_offset 7, -8
 971              		.cfi_offset 14, -4
 972 0002 86B0     		sub	sp, sp, #24
 973              		.cfi_def_cfa_offset 32
 974 0004 00AF     		add	r7, sp, #0
 975              		.cfi_def_cfa_register 7
 976 0006 7860     		str	r0, [r7, #4]
 977 0008 3960     		str	r1, [r7]
 436:Generated_Source\PSoC6\pdl\drivers\peripheral\prot/cy_prot.c ****     cy_en_prot_status_t status = CY_PROT_SUCCESS;
 978              		.loc 1 436 0
ARM GAS  C:\Users\tmj32\AppData\Local\Temp\cc1bAzcK.s 			page 26


 979 000a 0023     		movs	r3, #0
 980 000c 7B61     		str	r3, [r7, #20]
 437:Generated_Source\PSoC6\pdl\drivers\peripheral\prot/cy_prot.c ****     uint32_t addrReg;
 438:Generated_Source\PSoC6\pdl\drivers\peripheral\prot/cy_prot.c ****     uint32_t attReg;
 439:Generated_Source\PSoC6\pdl\drivers\peripheral\prot/cy_prot.c ****     
 440:Generated_Source\PSoC6\pdl\drivers\peripheral\prot/cy_prot.c ****     CY_ASSERT_L1(NULL != base);
 981              		.loc 1 440 0
 982 000e 7B68     		ldr	r3, [r7, #4]
 983 0010 002B     		cmp	r3, #0
 984 0012 04D1     		bne	.L61
 985              		.loc 1 440 0 is_stmt 0 discriminator 1
 986 0014 4FF4DC71 		mov	r1, #440
 987 0018 8A48     		ldr	r0, .L72
 988 001a FFF7FEFF 		bl	Cy_SysLib_AssertFailed
 989              	.L61:
 441:Generated_Source\PSoC6\pdl\drivers\peripheral\prot/cy_prot.c ****     CY_ASSERT_L2(CY_PROT_IS_PC_MASK_VALID(config->pcMask));
 990              		.loc 1 441 0 is_stmt 1
 991 001e 3B68     		ldr	r3, [r7]
 992 0020 5B89     		ldrh	r3, [r3, #10]
 993 0022 23F4FF43 		bic	r3, r3, #32640
 994 0026 23F07F03 		bic	r3, r3, #127
 995 002a 002B     		cmp	r3, #0
 996 002c 04D0     		beq	.L62
 997              		.loc 1 441 0 is_stmt 0 discriminator 1
 998 002e 40F2B911 		movw	r1, #441
 999 0032 8448     		ldr	r0, .L72
 1000 0034 FFF7FEFF 		bl	Cy_SysLib_AssertFailed
 1001              	.L62:
 442:Generated_Source\PSoC6\pdl\drivers\peripheral\prot/cy_prot.c ****     CY_ASSERT_L3(CY_PROT_IS_SMPU_SL_PERM_VALID(config->userPermission));
 1002              		.loc 1 442 0 is_stmt 1
 1003 0038 3B68     		ldr	r3, [r7]
 1004 003a 9B79     		ldrb	r3, [r3, #6]	@ zero_extendqisi2
 1005 003c 002B     		cmp	r3, #0
 1006 003e 20D0     		beq	.L63
 1007              		.loc 1 442 0 is_stmt 0 discriminator 1
 1008 0040 3B68     		ldr	r3, [r7]
 1009 0042 9B79     		ldrb	r3, [r3, #6]	@ zero_extendqisi2
 1010 0044 012B     		cmp	r3, #1
 1011 0046 1CD0     		beq	.L63
 1012              		.loc 1 442 0 discriminator 2
 1013 0048 3B68     		ldr	r3, [r7]
 1014 004a 9B79     		ldrb	r3, [r3, #6]	@ zero_extendqisi2
 1015 004c 022B     		cmp	r3, #2
 1016 004e 18D0     		beq	.L63
 1017              		.loc 1 442 0 discriminator 3
 1018 0050 3B68     		ldr	r3, [r7]
 1019 0052 9B79     		ldrb	r3, [r3, #6]	@ zero_extendqisi2
 1020 0054 032B     		cmp	r3, #3
 1021 0056 14D0     		beq	.L63
 1022              		.loc 1 442 0 discriminator 4
 1023 0058 3B68     		ldr	r3, [r7]
 1024 005a 9B79     		ldrb	r3, [r3, #6]	@ zero_extendqisi2
 1025 005c 042B     		cmp	r3, #4
 1026 005e 10D0     		beq	.L63
 1027              		.loc 1 442 0 discriminator 5
 1028 0060 3B68     		ldr	r3, [r7]
 1029 0062 9B79     		ldrb	r3, [r3, #6]	@ zero_extendqisi2
ARM GAS  C:\Users\tmj32\AppData\Local\Temp\cc1bAzcK.s 			page 27


 1030 0064 052B     		cmp	r3, #5
 1031 0066 0CD0     		beq	.L63
 1032              		.loc 1 442 0 discriminator 6
 1033 0068 3B68     		ldr	r3, [r7]
 1034 006a 9B79     		ldrb	r3, [r3, #6]	@ zero_extendqisi2
 1035 006c 062B     		cmp	r3, #6
 1036 006e 08D0     		beq	.L63
 1037              		.loc 1 442 0 discriminator 7
 1038 0070 3B68     		ldr	r3, [r7]
 1039 0072 9B79     		ldrb	r3, [r3, #6]	@ zero_extendqisi2
 1040 0074 072B     		cmp	r3, #7
 1041 0076 04D0     		beq	.L63
 1042              		.loc 1 442 0 discriminator 8
 1043 0078 4FF4DD71 		mov	r1, #442
 1044 007c 7148     		ldr	r0, .L72
 1045 007e FFF7FEFF 		bl	Cy_SysLib_AssertFailed
 1046              	.L63:
 443:Generated_Source\PSoC6\pdl\drivers\peripheral\prot/cy_prot.c ****     CY_ASSERT_L3(CY_PROT_IS_SMPU_SL_PERM_VALID(config->privPermission));
 1047              		.loc 1 443 0 is_stmt 1
 1048 0082 3B68     		ldr	r3, [r7]
 1049 0084 DB79     		ldrb	r3, [r3, #7]	@ zero_extendqisi2
 1050 0086 002B     		cmp	r3, #0
 1051 0088 20D0     		beq	.L64
 1052              		.loc 1 443 0 is_stmt 0 discriminator 1
 1053 008a 3B68     		ldr	r3, [r7]
 1054 008c DB79     		ldrb	r3, [r3, #7]	@ zero_extendqisi2
 1055 008e 012B     		cmp	r3, #1
 1056 0090 1CD0     		beq	.L64
 1057              		.loc 1 443 0 discriminator 2
 1058 0092 3B68     		ldr	r3, [r7]
 1059 0094 DB79     		ldrb	r3, [r3, #7]	@ zero_extendqisi2
 1060 0096 022B     		cmp	r3, #2
 1061 0098 18D0     		beq	.L64
 1062              		.loc 1 443 0 discriminator 3
 1063 009a 3B68     		ldr	r3, [r7]
 1064 009c DB79     		ldrb	r3, [r3, #7]	@ zero_extendqisi2
 1065 009e 032B     		cmp	r3, #3
 1066 00a0 14D0     		beq	.L64
 1067              		.loc 1 443 0 discriminator 4
 1068 00a2 3B68     		ldr	r3, [r7]
 1069 00a4 DB79     		ldrb	r3, [r3, #7]	@ zero_extendqisi2
 1070 00a6 042B     		cmp	r3, #4
 1071 00a8 10D0     		beq	.L64
 1072              		.loc 1 443 0 discriminator 5
 1073 00aa 3B68     		ldr	r3, [r7]
 1074 00ac DB79     		ldrb	r3, [r3, #7]	@ zero_extendqisi2
 1075 00ae 052B     		cmp	r3, #5
 1076 00b0 0CD0     		beq	.L64
 1077              		.loc 1 443 0 discriminator 6
 1078 00b2 3B68     		ldr	r3, [r7]
 1079 00b4 DB79     		ldrb	r3, [r3, #7]	@ zero_extendqisi2
 1080 00b6 062B     		cmp	r3, #6
 1081 00b8 08D0     		beq	.L64
 1082              		.loc 1 443 0 discriminator 7
 1083 00ba 3B68     		ldr	r3, [r7]
 1084 00bc DB79     		ldrb	r3, [r3, #7]	@ zero_extendqisi2
 1085 00be 072B     		cmp	r3, #7
ARM GAS  C:\Users\tmj32\AppData\Local\Temp\cc1bAzcK.s 			page 28


 1086 00c0 04D0     		beq	.L64
 1087              		.loc 1 443 0 discriminator 8
 1088 00c2 40F2BB11 		movw	r1, #443
 1089 00c6 5F48     		ldr	r0, .L72
 1090 00c8 FFF7FEFF 		bl	Cy_SysLib_AssertFailed
 1091              	.L64:
 444:Generated_Source\PSoC6\pdl\drivers\peripheral\prot/cy_prot.c ****     CY_ASSERT_L3(CY_PROT_IS_REGION_SIZE_VALID(config->regionSize));
 1092              		.loc 1 444 0 is_stmt 1
 1093 00cc 3B68     		ldr	r3, [r7]
 1094 00ce 1B79     		ldrb	r3, [r3, #4]	@ zero_extendqisi2
 1095 00d0 072B     		cmp	r3, #7
 1096 00d2 64D0     		beq	.L65
 1097              		.loc 1 444 0 is_stmt 0 discriminator 1
 1098 00d4 3B68     		ldr	r3, [r7]
 1099 00d6 1B79     		ldrb	r3, [r3, #4]	@ zero_extendqisi2
 1100 00d8 082B     		cmp	r3, #8
 1101 00da 60D0     		beq	.L65
 1102              		.loc 1 444 0 discriminator 2
 1103 00dc 3B68     		ldr	r3, [r7]
 1104 00de 1B79     		ldrb	r3, [r3, #4]	@ zero_extendqisi2
 1105 00e0 092B     		cmp	r3, #9
 1106 00e2 5CD0     		beq	.L65
 1107              		.loc 1 444 0 discriminator 3
 1108 00e4 3B68     		ldr	r3, [r7]
 1109 00e6 1B79     		ldrb	r3, [r3, #4]	@ zero_extendqisi2
 1110 00e8 0A2B     		cmp	r3, #10
 1111 00ea 58D0     		beq	.L65
 1112              		.loc 1 444 0 discriminator 4
 1113 00ec 3B68     		ldr	r3, [r7]
 1114 00ee 1B79     		ldrb	r3, [r3, #4]	@ zero_extendqisi2
 1115 00f0 0B2B     		cmp	r3, #11
 1116 00f2 54D0     		beq	.L65
 1117              		.loc 1 444 0 discriminator 5
 1118 00f4 3B68     		ldr	r3, [r7]
 1119 00f6 1B79     		ldrb	r3, [r3, #4]	@ zero_extendqisi2
 1120 00f8 0C2B     		cmp	r3, #12
 1121 00fa 50D0     		beq	.L65
 1122              		.loc 1 444 0 discriminator 6
 1123 00fc 3B68     		ldr	r3, [r7]
 1124 00fe 1B79     		ldrb	r3, [r3, #4]	@ zero_extendqisi2
 1125 0100 0D2B     		cmp	r3, #13
 1126 0102 4CD0     		beq	.L65
 1127              		.loc 1 444 0 discriminator 7
 1128 0104 3B68     		ldr	r3, [r7]
 1129 0106 1B79     		ldrb	r3, [r3, #4]	@ zero_extendqisi2
 1130 0108 0E2B     		cmp	r3, #14
 1131 010a 48D0     		beq	.L65
 1132              		.loc 1 444 0 discriminator 8
 1133 010c 3B68     		ldr	r3, [r7]
 1134 010e 1B79     		ldrb	r3, [r3, #4]	@ zero_extendqisi2
 1135 0110 0F2B     		cmp	r3, #15
 1136 0112 44D0     		beq	.L65
 1137              		.loc 1 444 0 discriminator 9
 1138 0114 3B68     		ldr	r3, [r7]
 1139 0116 1B79     		ldrb	r3, [r3, #4]	@ zero_extendqisi2
 1140 0118 102B     		cmp	r3, #16
 1141 011a 40D0     		beq	.L65
ARM GAS  C:\Users\tmj32\AppData\Local\Temp\cc1bAzcK.s 			page 29


 1142              		.loc 1 444 0 discriminator 10
 1143 011c 3B68     		ldr	r3, [r7]
 1144 011e 1B79     		ldrb	r3, [r3, #4]	@ zero_extendqisi2
 1145 0120 112B     		cmp	r3, #17
 1146 0122 3CD0     		beq	.L65
 1147              		.loc 1 444 0 discriminator 11
 1148 0124 3B68     		ldr	r3, [r7]
 1149 0126 1B79     		ldrb	r3, [r3, #4]	@ zero_extendqisi2
 1150 0128 122B     		cmp	r3, #18
 1151 012a 38D0     		beq	.L65
 1152              		.loc 1 444 0 discriminator 12
 1153 012c 3B68     		ldr	r3, [r7]
 1154 012e 1B79     		ldrb	r3, [r3, #4]	@ zero_extendqisi2
 1155 0130 132B     		cmp	r3, #19
 1156 0132 34D0     		beq	.L65
 1157              		.loc 1 444 0 discriminator 13
 1158 0134 3B68     		ldr	r3, [r7]
 1159 0136 1B79     		ldrb	r3, [r3, #4]	@ zero_extendqisi2
 1160 0138 142B     		cmp	r3, #20
 1161 013a 30D0     		beq	.L65
 1162              		.loc 1 444 0 discriminator 14
 1163 013c 3B68     		ldr	r3, [r7]
 1164 013e 1B79     		ldrb	r3, [r3, #4]	@ zero_extendqisi2
 1165 0140 152B     		cmp	r3, #21
 1166 0142 2CD0     		beq	.L65
 1167              		.loc 1 444 0 discriminator 15
 1168 0144 3B68     		ldr	r3, [r7]
 1169 0146 1B79     		ldrb	r3, [r3, #4]	@ zero_extendqisi2
 1170 0148 162B     		cmp	r3, #22
 1171 014a 28D0     		beq	.L65
 1172              		.loc 1 444 0 discriminator 16
 1173 014c 3B68     		ldr	r3, [r7]
 1174 014e 1B79     		ldrb	r3, [r3, #4]	@ zero_extendqisi2
 1175 0150 172B     		cmp	r3, #23
 1176 0152 24D0     		beq	.L65
 1177              		.loc 1 444 0 discriminator 17
 1178 0154 3B68     		ldr	r3, [r7]
 1179 0156 1B79     		ldrb	r3, [r3, #4]	@ zero_extendqisi2
 1180 0158 182B     		cmp	r3, #24
 1181 015a 20D0     		beq	.L65
 1182              		.loc 1 444 0 discriminator 18
 1183 015c 3B68     		ldr	r3, [r7]
 1184 015e 1B79     		ldrb	r3, [r3, #4]	@ zero_extendqisi2
 1185 0160 192B     		cmp	r3, #25
 1186 0162 1CD0     		beq	.L65
 1187              		.loc 1 444 0 discriminator 19
 1188 0164 3B68     		ldr	r3, [r7]
 1189 0166 1B79     		ldrb	r3, [r3, #4]	@ zero_extendqisi2
 1190 0168 1A2B     		cmp	r3, #26
 1191 016a 18D0     		beq	.L65
 1192              		.loc 1 444 0 discriminator 20
 1193 016c 3B68     		ldr	r3, [r7]
 1194 016e 1B79     		ldrb	r3, [r3, #4]	@ zero_extendqisi2
 1195 0170 1B2B     		cmp	r3, #27
 1196 0172 14D0     		beq	.L65
 1197              		.loc 1 444 0 discriminator 21
 1198 0174 3B68     		ldr	r3, [r7]
ARM GAS  C:\Users\tmj32\AppData\Local\Temp\cc1bAzcK.s 			page 30


 1199 0176 1B79     		ldrb	r3, [r3, #4]	@ zero_extendqisi2
 1200 0178 1C2B     		cmp	r3, #28
 1201 017a 10D0     		beq	.L65
 1202              		.loc 1 444 0 discriminator 22
 1203 017c 3B68     		ldr	r3, [r7]
 1204 017e 1B79     		ldrb	r3, [r3, #4]	@ zero_extendqisi2
 1205 0180 1D2B     		cmp	r3, #29
 1206 0182 0CD0     		beq	.L65
 1207              		.loc 1 444 0 discriminator 23
 1208 0184 3B68     		ldr	r3, [r7]
 1209 0186 1B79     		ldrb	r3, [r3, #4]	@ zero_extendqisi2
 1210 0188 1E2B     		cmp	r3, #30
 1211 018a 08D0     		beq	.L65
 1212              		.loc 1 444 0 discriminator 24
 1213 018c 3B68     		ldr	r3, [r7]
 1214 018e 1B79     		ldrb	r3, [r3, #4]	@ zero_extendqisi2
 1215 0190 1F2B     		cmp	r3, #31
 1216 0192 04D0     		beq	.L65
 1217              		.loc 1 444 0 discriminator 25
 1218 0194 4FF4DE71 		mov	r1, #444
 1219 0198 2A48     		ldr	r0, .L72
 1220 019a FFF7FEFF 		bl	Cy_SysLib_AssertFailed
 1221              	.L65:
 445:Generated_Source\PSoC6\pdl\drivers\peripheral\prot/cy_prot.c **** 
 446:Generated_Source\PSoC6\pdl\drivers\peripheral\prot/cy_prot.c ****     if(((uint32_t)config->pcMask & CY_PROT_SMPU_PC_LIMIT_MASK) != 0UL) 
 1222              		.loc 1 446 0 is_stmt 1
 1223 019e 3B68     		ldr	r3, [r7]
 1224 01a0 5B89     		ldrh	r3, [r3, #10]
 1225 01a2 23F07F03 		bic	r3, r3, #127
 1226 01a6 002B     		cmp	r3, #0
 1227 01a8 02D0     		beq	.L66
 447:Generated_Source\PSoC6\pdl\drivers\peripheral\prot/cy_prot.c ****     {
 448:Generated_Source\PSoC6\pdl\drivers\peripheral\prot/cy_prot.c ****         /* PC mask out of range - not supported in device */
 449:Generated_Source\PSoC6\pdl\drivers\peripheral\prot/cy_prot.c ****         status = CY_PROT_BAD_PARAM;
 1228              		.loc 1 449 0
 1229 01aa 274B     		ldr	r3, .L72+4
 1230 01ac 7B61     		str	r3, [r7, #20]
 1231 01ae 44E0     		b	.L67
 1232              	.L66:
 450:Generated_Source\PSoC6\pdl\drivers\peripheral\prot/cy_prot.c ****     }
 451:Generated_Source\PSoC6\pdl\drivers\peripheral\prot/cy_prot.c ****     else
 452:Generated_Source\PSoC6\pdl\drivers\peripheral\prot/cy_prot.c ****     {
 453:Generated_Source\PSoC6\pdl\drivers\peripheral\prot/cy_prot.c ****         addrReg= _VAL2FLD(PROT_SMPU_SMPU_STRUCT_ADDR0_SUBREGION_DISABLE, config->subregions)
 1233              		.loc 1 453 0
 1234 01b0 3B68     		ldr	r3, [r7]
 1235 01b2 5B79     		ldrb	r3, [r3, #5]	@ zero_extendqisi2
 1236 01b4 1A46     		mov	r2, r3
 454:Generated_Source\PSoC6\pdl\drivers\peripheral\prot/cy_prot.c ****                     | _VAL2FLD(PROT_SMPU_SMPU_STRUCT_ADDR0_ADDR24, (uint32_t)((uint32_t)config->add
 1237              		.loc 1 454 0
 1238 01b6 3B68     		ldr	r3, [r7]
 1239 01b8 1B68     		ldr	r3, [r3]
 1240 01ba 23F0FF03 		bic	r3, r3, #255
 453:Generated_Source\PSoC6\pdl\drivers\peripheral\prot/cy_prot.c ****                     | _VAL2FLD(PROT_SMPU_SMPU_STRUCT_ADDR0_ADDR24, (uint32_t)((uint32_t)config->add
 1241              		.loc 1 453 0
 1242 01be 1343     		orrs	r3, r3, r2
 1243 01c0 3B61     		str	r3, [r7, #16]
 455:Generated_Source\PSoC6\pdl\drivers\peripheral\prot/cy_prot.c ****         attReg= ((uint32_t)config->userPermission & CY_PROT_ATT_PERMISSION_MASK)
ARM GAS  C:\Users\tmj32\AppData\Local\Temp\cc1bAzcK.s 			page 31


 1244              		.loc 1 455 0
 1245 01c2 3B68     		ldr	r3, [r7]
 1246 01c4 9B79     		ldrb	r3, [r3, #6]	@ zero_extendqisi2
 1247 01c6 03F00702 		and	r2, r3, #7
 456:Generated_Source\PSoC6\pdl\drivers\peripheral\prot/cy_prot.c ****                     | (uint32_t)(((uint32_t)config->privPermission & CY_PROT_ATT_PERMISSION_MASK) <
 1248              		.loc 1 456 0
 1249 01ca 3B68     		ldr	r3, [r7]
 1250 01cc DB79     		ldrb	r3, [r3, #7]	@ zero_extendqisi2
 1251 01ce DB00     		lsls	r3, r3, #3
 1252 01d0 03F03803 		and	r3, r3, #56
 1253 01d4 1A43     		orrs	r2, r2, r3
 457:Generated_Source\PSoC6\pdl\drivers\peripheral\prot/cy_prot.c ****                     | _VAL2FLD(PROT_SMPU_SMPU_STRUCT_ATT0_NS, !(config->secure))
 1254              		.loc 1 457 0
 1255 01d6 3B68     		ldr	r3, [r7]
 1256 01d8 1B7A     		ldrb	r3, [r3, #8]	@ zero_extendqisi2
 1257 01da 83F00103 		eor	r3, r3, #1
 1258 01de DBB2     		uxtb	r3, r3
 1259 01e0 9B01     		lsls	r3, r3, #6
 1260 01e2 03F04003 		and	r3, r3, #64
 1261 01e6 1A43     		orrs	r2, r2, r3
 458:Generated_Source\PSoC6\pdl\drivers\peripheral\prot/cy_prot.c ****                     | _VAL2FLD(PROT_SMPU_SMPU_STRUCT_ATT0_PC_MASK_15_TO_1, config->pcMask)
 1262              		.loc 1 458 0
 1263 01e8 3B68     		ldr	r3, [r7]
 1264 01ea 5B89     		ldrh	r3, [r3, #10]
 1265 01ec 5902     		lsls	r1, r3, #9
 1266 01ee 174B     		ldr	r3, .L72+8
 1267 01f0 0B40     		ands	r3, r3, r1
 1268 01f2 1A43     		orrs	r2, r2, r3
 459:Generated_Source\PSoC6\pdl\drivers\peripheral\prot/cy_prot.c ****                     | _VAL2FLD(PROT_SMPU_SMPU_STRUCT_ATT0_REGION_SIZE, config->regionSize)
 1269              		.loc 1 459 0
 1270 01f4 3B68     		ldr	r3, [r7]
 1271 01f6 1B79     		ldrb	r3, [r3, #4]	@ zero_extendqisi2
 1272 01f8 1B06     		lsls	r3, r3, #24
 1273 01fa 03F0F853 		and	r3, r3, #520093696
 1274 01fe 1A43     		orrs	r2, r2, r3
 460:Generated_Source\PSoC6\pdl\drivers\peripheral\prot/cy_prot.c ****                     | _VAL2FLD(PROT_SMPU_SMPU_STRUCT_ATT0_PC_MATCH, config->pcMatch);
 1275              		.loc 1 460 0
 1276 0200 3B68     		ldr	r3, [r7]
 1277 0202 5B7A     		ldrb	r3, [r3, #9]	@ zero_extendqisi2
 1278 0204 9B07     		lsls	r3, r3, #30
 1279 0206 03F08043 		and	r3, r3, #1073741824
 455:Generated_Source\PSoC6\pdl\drivers\peripheral\prot/cy_prot.c ****                     | (uint32_t)(((uint32_t)config->privPermission & CY_PROT_ATT_PERMISSION_MASK) <
 1280              		.loc 1 455 0
 1281 020a 1343     		orrs	r3, r3, r2
 1282 020c FB60     		str	r3, [r7, #12]
 461:Generated_Source\PSoC6\pdl\drivers\peripheral\prot/cy_prot.c ****         PROT_SMPU_SMPU_STRUCT_ATT0(base) = attReg;
 1283              		.loc 1 461 0
 1284 020e 7B68     		ldr	r3, [r7, #4]
 1285 0210 FA68     		ldr	r2, [r7, #12]
 1286 0212 5A60     		str	r2, [r3, #4]
 462:Generated_Source\PSoC6\pdl\drivers\peripheral\prot/cy_prot.c ****         PROT_SMPU_SMPU_STRUCT_ADDR0(base) = addrReg;
 1287              		.loc 1 462 0
 1288 0214 7B68     		ldr	r3, [r7, #4]
 1289 0216 3A69     		ldr	r2, [r7, #16]
 1290 0218 1A60     		str	r2, [r3]
 463:Generated_Source\PSoC6\pdl\drivers\peripheral\prot/cy_prot.c ****         status = ((PROT_SMPU_SMPU_STRUCT_ADDR0(base) != addrReg) || ((PROT_SMPU_SMPU_STRUCT_ATT0(ba
 1291              		.loc 1 463 0
ARM GAS  C:\Users\tmj32\AppData\Local\Temp\cc1bAzcK.s 			page 32


 1292 021a 7B68     		ldr	r3, [r7, #4]
 1293 021c 1A68     		ldr	r2, [r3]
 1294 021e 3B69     		ldr	r3, [r7, #16]
 1295 0220 9A42     		cmp	r2, r3
 1296 0222 06D1     		bne	.L68
 1297              		.loc 1 463 0 is_stmt 0 discriminator 2
 1298 0224 7B68     		ldr	r3, [r7, #4]
 1299 0226 5B68     		ldr	r3, [r3, #4]
 1300 0228 23F48072 		bic	r2, r3, #256
 1301 022c FB68     		ldr	r3, [r7, #12]
 1302 022e 9A42     		cmp	r2, r3
 1303 0230 01D0     		beq	.L69
 1304              	.L68:
 1305              		.loc 1 463 0 discriminator 3
 1306 0232 074B     		ldr	r3, .L72+12
 1307 0234 00E0     		b	.L70
 1308              	.L69:
 1309              		.loc 1 463 0 discriminator 4
 1310 0236 0023     		movs	r3, #0
 1311              	.L70:
 1312              		.loc 1 463 0 discriminator 6
 1313 0238 7B61     		str	r3, [r7, #20]
 1314              	.L67:
 464:Generated_Source\PSoC6\pdl\drivers\peripheral\prot/cy_prot.c ****             ? CY_PROT_FAILURE : CY_PROT_SUCCESS;
 465:Generated_Source\PSoC6\pdl\drivers\peripheral\prot/cy_prot.c ****     }
 466:Generated_Source\PSoC6\pdl\drivers\peripheral\prot/cy_prot.c ****     
 467:Generated_Source\PSoC6\pdl\drivers\peripheral\prot/cy_prot.c ****     return status;
 1315              		.loc 1 467 0 is_stmt 1
 1316 023a 7B69     		ldr	r3, [r7, #20]
 468:Generated_Source\PSoC6\pdl\drivers\peripheral\prot/cy_prot.c **** }
 1317              		.loc 1 468 0
 1318 023c 1846     		mov	r0, r3
 1319 023e 1837     		adds	r7, r7, #24
 1320              		.cfi_def_cfa_offset 8
 1321 0240 BD46     		mov	sp, r7
 1322              		.cfi_def_cfa_register 13
 1323              		@ sp needed
 1324 0242 80BD     		pop	{r7, pc}
 1325              	.L73:
 1326              		.align	2
 1327              	.L72:
 1328 0244 00000000 		.word	.LC0
 1329 0248 0100C200 		.word	12713985
 1330 024c 00FEFF00 		.word	16776704
 1331 0250 0300C200 		.word	12713987
 1332              		.cfi_endproc
 1333              	.LFE141:
 1334              		.size	Cy_Prot_ConfigSmpuSlaveStruct, .-Cy_Prot_ConfigSmpuSlaveStruct
 1335              		.section	.text.Cy_Prot_EnableSmpuMasterStruct,"ax",%progbits
 1336              		.align	2
 1337              		.global	Cy_Prot_EnableSmpuMasterStruct
 1338              		.thumb
 1339              		.thumb_func
 1340              		.type	Cy_Prot_EnableSmpuMasterStruct, %function
 1341              	Cy_Prot_EnableSmpuMasterStruct:
 1342              	.LFB142:
 469:Generated_Source\PSoC6\pdl\drivers\peripheral\prot/cy_prot.c **** 
ARM GAS  C:\Users\tmj32\AppData\Local\Temp\cc1bAzcK.s 			page 33


 470:Generated_Source\PSoC6\pdl\drivers\peripheral\prot/cy_prot.c **** 
 471:Generated_Source\PSoC6\pdl\drivers\peripheral\prot/cy_prot.c **** /*******************************************************************************
 472:Generated_Source\PSoC6\pdl\drivers\peripheral\prot/cy_prot.c **** * Function Name: Cy_Prot_EnableSmpuMasterStruct
 473:Generated_Source\PSoC6\pdl\drivers\peripheral\prot/cy_prot.c **** ****************************************************************************//**
 474:Generated_Source\PSoC6\pdl\drivers\peripheral\prot/cy_prot.c **** *
 475:Generated_Source\PSoC6\pdl\drivers\peripheral\prot/cy_prot.c **** * Enables the Master SMPU structure.
 476:Generated_Source\PSoC6\pdl\drivers\peripheral\prot/cy_prot.c **** *
 477:Generated_Source\PSoC6\pdl\drivers\peripheral\prot/cy_prot.c **** * This is an SMPU master struct enable function. The SMPU protection settings
 478:Generated_Source\PSoC6\pdl\drivers\peripheral\prot/cy_prot.c **** * will take effect after successful completion of this function call.
 479:Generated_Source\PSoC6\pdl\drivers\peripheral\prot/cy_prot.c **** *
 480:Generated_Source\PSoC6\pdl\drivers\peripheral\prot/cy_prot.c **** * \note This function is applicable for both CPUSS ver_1 and ver_2.
 481:Generated_Source\PSoC6\pdl\drivers\peripheral\prot/cy_prot.c **** *
 482:Generated_Source\PSoC6\pdl\drivers\peripheral\prot/cy_prot.c **** * \param base
 483:Generated_Source\PSoC6\pdl\drivers\peripheral\prot/cy_prot.c **** * The base address for the protection unit structure being configured. 
 484:Generated_Source\PSoC6\pdl\drivers\peripheral\prot/cy_prot.c **** *
 485:Generated_Source\PSoC6\pdl\drivers\peripheral\prot/cy_prot.c **** * \return
 486:Generated_Source\PSoC6\pdl\drivers\peripheral\prot/cy_prot.c **** * Status of the function call.
 487:Generated_Source\PSoC6\pdl\drivers\peripheral\prot/cy_prot.c **** *
 488:Generated_Source\PSoC6\pdl\drivers\peripheral\prot/cy_prot.c **** *   Status               | Description
 489:Generated_Source\PSoC6\pdl\drivers\peripheral\prot/cy_prot.c **** *   ------------         | -----------
 490:Generated_Source\PSoC6\pdl\drivers\peripheral\prot/cy_prot.c **** *   CY_PROT_SUCCESS      | The Master PU struct was enabled.
 491:Generated_Source\PSoC6\pdl\drivers\peripheral\prot/cy_prot.c **** *   CY_PROT_FAILURE      | The Master PU struct is disabled and possibly locked.
 492:Generated_Source\PSoC6\pdl\drivers\peripheral\prot/cy_prot.c **** *
 493:Generated_Source\PSoC6\pdl\drivers\peripheral\prot/cy_prot.c **** * \funcusage
 494:Generated_Source\PSoC6\pdl\drivers\peripheral\prot/cy_prot.c **** * \snippet prot/1.20/snippet/main.c snippet_Cy_Prot_EnableSmpuMasterStruct
 495:Generated_Source\PSoC6\pdl\drivers\peripheral\prot/cy_prot.c **** *
 496:Generated_Source\PSoC6\pdl\drivers\peripheral\prot/cy_prot.c **** *******************************************************************************/
 497:Generated_Source\PSoC6\pdl\drivers\peripheral\prot/cy_prot.c **** cy_en_prot_status_t Cy_Prot_EnableSmpuMasterStruct(PROT_SMPU_SMPU_STRUCT_Type* base)
 498:Generated_Source\PSoC6\pdl\drivers\peripheral\prot/cy_prot.c **** {
 1343              		.loc 1 498 0
 1344              		.cfi_startproc
 1345              		@ args = 0, pretend = 0, frame = 16
 1346              		@ frame_needed = 1, uses_anonymous_args = 0
 1347 0000 80B5     		push	{r7, lr}
 1348              		.cfi_def_cfa_offset 8
 1349              		.cfi_offset 7, -8
 1350              		.cfi_offset 14, -4
 1351 0002 84B0     		sub	sp, sp, #16
 1352              		.cfi_def_cfa_offset 24
 1353 0004 00AF     		add	r7, sp, #0
 1354              		.cfi_def_cfa_register 7
 1355 0006 7860     		str	r0, [r7, #4]
 499:Generated_Source\PSoC6\pdl\drivers\peripheral\prot/cy_prot.c ****     cy_en_prot_status_t status;
 500:Generated_Source\PSoC6\pdl\drivers\peripheral\prot/cy_prot.c ****     
 501:Generated_Source\PSoC6\pdl\drivers\peripheral\prot/cy_prot.c ****     CY_ASSERT_L1(NULL != base);
 1356              		.loc 1 501 0
 1357 0008 7B68     		ldr	r3, [r7, #4]
 1358 000a 002B     		cmp	r3, #0
 1359 000c 04D1     		bne	.L75
 1360              		.loc 1 501 0 is_stmt 0 discriminator 1
 1361 000e 40F2F511 		movw	r1, #501
 1362 0012 0C48     		ldr	r0, .L79
 1363 0014 FFF7FEFF 		bl	Cy_SysLib_AssertFailed
 1364              	.L75:
 502:Generated_Source\PSoC6\pdl\drivers\peripheral\prot/cy_prot.c ****     
 503:Generated_Source\PSoC6\pdl\drivers\peripheral\prot/cy_prot.c ****     PROT_SMPU_SMPU_STRUCT_ATT1(base) |= _VAL2FLD(PROT_SMPU_SMPU_STRUCT_ATT1_ENABLED, CY_PROT_STRUCT
 1365              		.loc 1 503 0 is_stmt 1
ARM GAS  C:\Users\tmj32\AppData\Local\Temp\cc1bAzcK.s 			page 34


 1366 0018 7B68     		ldr	r3, [r7, #4]
 1367 001a 5B6A     		ldr	r3, [r3, #36]
 1368 001c 43F00042 		orr	r2, r3, #-2147483648
 1369 0020 7B68     		ldr	r3, [r7, #4]
 1370 0022 5A62     		str	r2, [r3, #36]
 504:Generated_Source\PSoC6\pdl\drivers\peripheral\prot/cy_prot.c ****     status = (_FLD2VAL(PROT_SMPU_SMPU_STRUCT_ATT1_ENABLED, PROT_SMPU_SMPU_STRUCT_ATT1(base)) != CY_
 1371              		.loc 1 504 0
 1372 0024 7B68     		ldr	r3, [r7, #4]
 1373 0026 5B6A     		ldr	r3, [r3, #36]
 1374 0028 03F00043 		and	r3, r3, #-2147483648
 1375 002c DB0F     		lsrs	r3, r3, #31
 1376 002e 012B     		cmp	r3, #1
 1377 0030 01D0     		beq	.L76
 1378              		.loc 1 504 0 is_stmt 0 discriminator 1
 1379 0032 054B     		ldr	r3, .L79+4
 1380 0034 00E0     		b	.L77
 1381              	.L76:
 1382              		.loc 1 504 0 discriminator 2
 1383 0036 0023     		movs	r3, #0
 1384              	.L77:
 1385              		.loc 1 504 0 discriminator 4
 1386 0038 FB60     		str	r3, [r7, #12]
 505:Generated_Source\PSoC6\pdl\drivers\peripheral\prot/cy_prot.c ****                 CY_PROT_FAILURE : CY_PROT_SUCCESS;
 506:Generated_Source\PSoC6\pdl\drivers\peripheral\prot/cy_prot.c ****     
 507:Generated_Source\PSoC6\pdl\drivers\peripheral\prot/cy_prot.c ****     return status;
 1387              		.loc 1 507 0 is_stmt 1 discriminator 4
 1388 003a FB68     		ldr	r3, [r7, #12]
 508:Generated_Source\PSoC6\pdl\drivers\peripheral\prot/cy_prot.c **** }
 1389              		.loc 1 508 0 discriminator 4
 1390 003c 1846     		mov	r0, r3
 1391 003e 1037     		adds	r7, r7, #16
 1392              		.cfi_def_cfa_offset 8
 1393 0040 BD46     		mov	sp, r7
 1394              		.cfi_def_cfa_register 13
 1395              		@ sp needed
 1396 0042 80BD     		pop	{r7, pc}
 1397              	.L80:
 1398              		.align	2
 1399              	.L79:
 1400 0044 00000000 		.word	.LC0
 1401 0048 0300C200 		.word	12713987
 1402              		.cfi_endproc
 1403              	.LFE142:
 1404              		.size	Cy_Prot_EnableSmpuMasterStruct, .-Cy_Prot_EnableSmpuMasterStruct
 1405              		.section	.text.Cy_Prot_DisableSmpuMasterStruct,"ax",%progbits
 1406              		.align	2
 1407              		.global	Cy_Prot_DisableSmpuMasterStruct
 1408              		.thumb
 1409              		.thumb_func
 1410              		.type	Cy_Prot_DisableSmpuMasterStruct, %function
 1411              	Cy_Prot_DisableSmpuMasterStruct:
 1412              	.LFB143:
 509:Generated_Source\PSoC6\pdl\drivers\peripheral\prot/cy_prot.c **** 
 510:Generated_Source\PSoC6\pdl\drivers\peripheral\prot/cy_prot.c **** 
 511:Generated_Source\PSoC6\pdl\drivers\peripheral\prot/cy_prot.c **** /*******************************************************************************
 512:Generated_Source\PSoC6\pdl\drivers\peripheral\prot/cy_prot.c **** * Function Name: Cy_Prot_DisableSmpuMasterStruct
 513:Generated_Source\PSoC6\pdl\drivers\peripheral\prot/cy_prot.c **** ****************************************************************************//**
ARM GAS  C:\Users\tmj32\AppData\Local\Temp\cc1bAzcK.s 			page 35


 514:Generated_Source\PSoC6\pdl\drivers\peripheral\prot/cy_prot.c **** *
 515:Generated_Source\PSoC6\pdl\drivers\peripheral\prot/cy_prot.c **** * Disables the Master SMPU structure.
 516:Generated_Source\PSoC6\pdl\drivers\peripheral\prot/cy_prot.c **** *
 517:Generated_Source\PSoC6\pdl\drivers\peripheral\prot/cy_prot.c **** * This is an SMPU master struct disable function. The SMPU protection settings
 518:Generated_Source\PSoC6\pdl\drivers\peripheral\prot/cy_prot.c **** * will seize to take effect after successful completion of this function call.
 519:Generated_Source\PSoC6\pdl\drivers\peripheral\prot/cy_prot.c **** *
 520:Generated_Source\PSoC6\pdl\drivers\peripheral\prot/cy_prot.c **** * \note This function is applicable for both CPUSS ver_1 and ver_2.
 521:Generated_Source\PSoC6\pdl\drivers\peripheral\prot/cy_prot.c **** *
 522:Generated_Source\PSoC6\pdl\drivers\peripheral\prot/cy_prot.c **** * \param base
 523:Generated_Source\PSoC6\pdl\drivers\peripheral\prot/cy_prot.c **** * The base address for the protection unit structure being configured. 
 524:Generated_Source\PSoC6\pdl\drivers\peripheral\prot/cy_prot.c **** *
 525:Generated_Source\PSoC6\pdl\drivers\peripheral\prot/cy_prot.c **** * \return
 526:Generated_Source\PSoC6\pdl\drivers\peripheral\prot/cy_prot.c **** * Status of the function call.
 527:Generated_Source\PSoC6\pdl\drivers\peripheral\prot/cy_prot.c **** *
 528:Generated_Source\PSoC6\pdl\drivers\peripheral\prot/cy_prot.c **** *   Status               | Description
 529:Generated_Source\PSoC6\pdl\drivers\peripheral\prot/cy_prot.c **** *   ------------         | -----------
 530:Generated_Source\PSoC6\pdl\drivers\peripheral\prot/cy_prot.c **** *   CY_PROT_SUCCESS      | The Master PU struct was disabled.
 531:Generated_Source\PSoC6\pdl\drivers\peripheral\prot/cy_prot.c **** *   CY_PROT_FAILURE      | The Master PU struct is enabled and possibly locked.
 532:Generated_Source\PSoC6\pdl\drivers\peripheral\prot/cy_prot.c **** *
 533:Generated_Source\PSoC6\pdl\drivers\peripheral\prot/cy_prot.c **** * \funcusage
 534:Generated_Source\PSoC6\pdl\drivers\peripheral\prot/cy_prot.c **** * \snippet prot/1.20/snippet/main.c snippet_Cy_Prot_DisableSmpuMasterStruct
 535:Generated_Source\PSoC6\pdl\drivers\peripheral\prot/cy_prot.c **** *
 536:Generated_Source\PSoC6\pdl\drivers\peripheral\prot/cy_prot.c **** *******************************************************************************/
 537:Generated_Source\PSoC6\pdl\drivers\peripheral\prot/cy_prot.c **** cy_en_prot_status_t Cy_Prot_DisableSmpuMasterStruct(PROT_SMPU_SMPU_STRUCT_Type* base)
 538:Generated_Source\PSoC6\pdl\drivers\peripheral\prot/cy_prot.c **** {
 1413              		.loc 1 538 0
 1414              		.cfi_startproc
 1415              		@ args = 0, pretend = 0, frame = 16
 1416              		@ frame_needed = 1, uses_anonymous_args = 0
 1417 0000 80B5     		push	{r7, lr}
 1418              		.cfi_def_cfa_offset 8
 1419              		.cfi_offset 7, -8
 1420              		.cfi_offset 14, -4
 1421 0002 84B0     		sub	sp, sp, #16
 1422              		.cfi_def_cfa_offset 24
 1423 0004 00AF     		add	r7, sp, #0
 1424              		.cfi_def_cfa_register 7
 1425 0006 7860     		str	r0, [r7, #4]
 539:Generated_Source\PSoC6\pdl\drivers\peripheral\prot/cy_prot.c ****     cy_en_prot_status_t status;
 540:Generated_Source\PSoC6\pdl\drivers\peripheral\prot/cy_prot.c ****     
 541:Generated_Source\PSoC6\pdl\drivers\peripheral\prot/cy_prot.c ****     CY_ASSERT_L1(NULL != base);
 1426              		.loc 1 541 0
 1427 0008 7B68     		ldr	r3, [r7, #4]
 1428 000a 002B     		cmp	r3, #0
 1429 000c 04D1     		bne	.L82
 1430              		.loc 1 541 0 is_stmt 0 discriminator 1
 1431 000e 40F21D21 		movw	r1, #541
 1432 0012 0C48     		ldr	r0, .L86
 1433 0014 FFF7FEFF 		bl	Cy_SysLib_AssertFailed
 1434              	.L82:
 542:Generated_Source\PSoC6\pdl\drivers\peripheral\prot/cy_prot.c ****     
 543:Generated_Source\PSoC6\pdl\drivers\peripheral\prot/cy_prot.c ****     PROT_SMPU_SMPU_STRUCT_ATT1(base) &= ~_VAL2FLD(PROT_SMPU_SMPU_STRUCT_ATT1_ENABLED, CY_PROT_STRUC
 1435              		.loc 1 543 0 is_stmt 1
 1436 0018 7B68     		ldr	r3, [r7, #4]
 1437 001a 5B6A     		ldr	r3, [r3, #36]
 1438 001c 23F00042 		bic	r2, r3, #-2147483648
 1439 0020 7B68     		ldr	r3, [r7, #4]
ARM GAS  C:\Users\tmj32\AppData\Local\Temp\cc1bAzcK.s 			page 36


 1440 0022 5A62     		str	r2, [r3, #36]
 544:Generated_Source\PSoC6\pdl\drivers\peripheral\prot/cy_prot.c ****     status = (_FLD2VAL(PROT_SMPU_SMPU_STRUCT_ATT1_ENABLED, PROT_SMPU_SMPU_STRUCT_ATT1(base)) == CY_
 1441              		.loc 1 544 0
 1442 0024 7B68     		ldr	r3, [r7, #4]
 1443 0026 5B6A     		ldr	r3, [r3, #36]
 1444 0028 03F00043 		and	r3, r3, #-2147483648
 1445 002c DB0F     		lsrs	r3, r3, #31
 1446 002e 012B     		cmp	r3, #1
 1447 0030 01D1     		bne	.L83
 1448              		.loc 1 544 0 is_stmt 0 discriminator 1
 1449 0032 054B     		ldr	r3, .L86+4
 1450 0034 00E0     		b	.L84
 1451              	.L83:
 1452              		.loc 1 544 0 discriminator 2
 1453 0036 0023     		movs	r3, #0
 1454              	.L84:
 1455              		.loc 1 544 0 discriminator 4
 1456 0038 FB60     		str	r3, [r7, #12]
 545:Generated_Source\PSoC6\pdl\drivers\peripheral\prot/cy_prot.c ****                 CY_PROT_FAILURE : CY_PROT_SUCCESS;
 546:Generated_Source\PSoC6\pdl\drivers\peripheral\prot/cy_prot.c ****     
 547:Generated_Source\PSoC6\pdl\drivers\peripheral\prot/cy_prot.c ****     return status;
 1457              		.loc 1 547 0 is_stmt 1 discriminator 4
 1458 003a FB68     		ldr	r3, [r7, #12]
 548:Generated_Source\PSoC6\pdl\drivers\peripheral\prot/cy_prot.c **** }
 1459              		.loc 1 548 0 discriminator 4
 1460 003c 1846     		mov	r0, r3
 1461 003e 1037     		adds	r7, r7, #16
 1462              		.cfi_def_cfa_offset 8
 1463 0040 BD46     		mov	sp, r7
 1464              		.cfi_def_cfa_register 13
 1465              		@ sp needed
 1466 0042 80BD     		pop	{r7, pc}
 1467              	.L87:
 1468              		.align	2
 1469              	.L86:
 1470 0044 00000000 		.word	.LC0
 1471 0048 0300C200 		.word	12713987
 1472              		.cfi_endproc
 1473              	.LFE143:
 1474              		.size	Cy_Prot_DisableSmpuMasterStruct, .-Cy_Prot_DisableSmpuMasterStruct
 1475              		.section	.text.Cy_Prot_EnableSmpuSlaveStruct,"ax",%progbits
 1476              		.align	2
 1477              		.global	Cy_Prot_EnableSmpuSlaveStruct
 1478              		.thumb
 1479              		.thumb_func
 1480              		.type	Cy_Prot_EnableSmpuSlaveStruct, %function
 1481              	Cy_Prot_EnableSmpuSlaveStruct:
 1482              	.LFB144:
 549:Generated_Source\PSoC6\pdl\drivers\peripheral\prot/cy_prot.c **** 
 550:Generated_Source\PSoC6\pdl\drivers\peripheral\prot/cy_prot.c **** 
 551:Generated_Source\PSoC6\pdl\drivers\peripheral\prot/cy_prot.c **** /*******************************************************************************
 552:Generated_Source\PSoC6\pdl\drivers\peripheral\prot/cy_prot.c **** * Function Name: Cy_Prot_EnableSmpuSlaveStruct
 553:Generated_Source\PSoC6\pdl\drivers\peripheral\prot/cy_prot.c **** ****************************************************************************//**
 554:Generated_Source\PSoC6\pdl\drivers\peripheral\prot/cy_prot.c **** *
 555:Generated_Source\PSoC6\pdl\drivers\peripheral\prot/cy_prot.c **** * Enables the Slave SMPU structure.
 556:Generated_Source\PSoC6\pdl\drivers\peripheral\prot/cy_prot.c **** *
 557:Generated_Source\PSoC6\pdl\drivers\peripheral\prot/cy_prot.c **** * This is an SMPU slave struct enable function. The SMPU protection settings
ARM GAS  C:\Users\tmj32\AppData\Local\Temp\cc1bAzcK.s 			page 37


 558:Generated_Source\PSoC6\pdl\drivers\peripheral\prot/cy_prot.c **** * will take effect after successful completion of this function call.
 559:Generated_Source\PSoC6\pdl\drivers\peripheral\prot/cy_prot.c **** *
 560:Generated_Source\PSoC6\pdl\drivers\peripheral\prot/cy_prot.c **** * \note This function is applicable for both CPUSS ver_1 and ver_2.
 561:Generated_Source\PSoC6\pdl\drivers\peripheral\prot/cy_prot.c **** *
 562:Generated_Source\PSoC6\pdl\drivers\peripheral\prot/cy_prot.c **** * \param base
 563:Generated_Source\PSoC6\pdl\drivers\peripheral\prot/cy_prot.c **** * The base address for the protection unit structure being configured. 
 564:Generated_Source\PSoC6\pdl\drivers\peripheral\prot/cy_prot.c **** *
 565:Generated_Source\PSoC6\pdl\drivers\peripheral\prot/cy_prot.c **** * \return
 566:Generated_Source\PSoC6\pdl\drivers\peripheral\prot/cy_prot.c **** * Status of the function call.
 567:Generated_Source\PSoC6\pdl\drivers\peripheral\prot/cy_prot.c **** *
 568:Generated_Source\PSoC6\pdl\drivers\peripheral\prot/cy_prot.c **** *   Status               | Description
 569:Generated_Source\PSoC6\pdl\drivers\peripheral\prot/cy_prot.c **** *   ------------         | -----------
 570:Generated_Source\PSoC6\pdl\drivers\peripheral\prot/cy_prot.c **** *   CY_PROT_SUCCESS      | The Slave PU struct was enabled.
 571:Generated_Source\PSoC6\pdl\drivers\peripheral\prot/cy_prot.c **** *   CY_PROT_FAILURE      | The Slave PU struct is disabled and possibly locked.
 572:Generated_Source\PSoC6\pdl\drivers\peripheral\prot/cy_prot.c **** *
 573:Generated_Source\PSoC6\pdl\drivers\peripheral\prot/cy_prot.c **** * \funcusage
 574:Generated_Source\PSoC6\pdl\drivers\peripheral\prot/cy_prot.c **** * \snippet prot/1.20/snippet/main.c snippet_Cy_Prot_EnableSmpuSlaveStruct
 575:Generated_Source\PSoC6\pdl\drivers\peripheral\prot/cy_prot.c **** *
 576:Generated_Source\PSoC6\pdl\drivers\peripheral\prot/cy_prot.c **** *******************************************************************************/
 577:Generated_Source\PSoC6\pdl\drivers\peripheral\prot/cy_prot.c **** cy_en_prot_status_t Cy_Prot_EnableSmpuSlaveStruct(PROT_SMPU_SMPU_STRUCT_Type* base)
 578:Generated_Source\PSoC6\pdl\drivers\peripheral\prot/cy_prot.c **** {
 1483              		.loc 1 578 0
 1484              		.cfi_startproc
 1485              		@ args = 0, pretend = 0, frame = 16
 1486              		@ frame_needed = 1, uses_anonymous_args = 0
 1487 0000 80B5     		push	{r7, lr}
 1488              		.cfi_def_cfa_offset 8
 1489              		.cfi_offset 7, -8
 1490              		.cfi_offset 14, -4
 1491 0002 84B0     		sub	sp, sp, #16
 1492              		.cfi_def_cfa_offset 24
 1493 0004 00AF     		add	r7, sp, #0
 1494              		.cfi_def_cfa_register 7
 1495 0006 7860     		str	r0, [r7, #4]
 579:Generated_Source\PSoC6\pdl\drivers\peripheral\prot/cy_prot.c ****     cy_en_prot_status_t status;
 580:Generated_Source\PSoC6\pdl\drivers\peripheral\prot/cy_prot.c ****     
 581:Generated_Source\PSoC6\pdl\drivers\peripheral\prot/cy_prot.c ****     CY_ASSERT_L1(NULL != base);
 1496              		.loc 1 581 0
 1497 0008 7B68     		ldr	r3, [r7, #4]
 1498 000a 002B     		cmp	r3, #0
 1499 000c 04D1     		bne	.L89
 1500              		.loc 1 581 0 is_stmt 0 discriminator 1
 1501 000e 40F24521 		movw	r1, #581
 1502 0012 0C48     		ldr	r0, .L93
 1503 0014 FFF7FEFF 		bl	Cy_SysLib_AssertFailed
 1504              	.L89:
 582:Generated_Source\PSoC6\pdl\drivers\peripheral\prot/cy_prot.c ****     
 583:Generated_Source\PSoC6\pdl\drivers\peripheral\prot/cy_prot.c ****     PROT_SMPU_SMPU_STRUCT_ATT0(base) |= _VAL2FLD(PROT_SMPU_SMPU_STRUCT_ATT0_ENABLED, CY_PROT_STRUCT
 1505              		.loc 1 583 0 is_stmt 1
 1506 0018 7B68     		ldr	r3, [r7, #4]
 1507 001a 5B68     		ldr	r3, [r3, #4]
 1508 001c 43F00042 		orr	r2, r3, #-2147483648
 1509 0020 7B68     		ldr	r3, [r7, #4]
 1510 0022 5A60     		str	r2, [r3, #4]
 584:Generated_Source\PSoC6\pdl\drivers\peripheral\prot/cy_prot.c ****     status = (_FLD2VAL(PROT_SMPU_SMPU_STRUCT_ATT0_ENABLED, PROT_SMPU_SMPU_STRUCT_ATT0(base)) != CY_
 1511              		.loc 1 584 0
 1512 0024 7B68     		ldr	r3, [r7, #4]
ARM GAS  C:\Users\tmj32\AppData\Local\Temp\cc1bAzcK.s 			page 38


 1513 0026 5B68     		ldr	r3, [r3, #4]
 1514 0028 03F00043 		and	r3, r3, #-2147483648
 1515 002c DB0F     		lsrs	r3, r3, #31
 1516 002e 012B     		cmp	r3, #1
 1517 0030 01D0     		beq	.L90
 1518              		.loc 1 584 0 is_stmt 0 discriminator 1
 1519 0032 054B     		ldr	r3, .L93+4
 1520 0034 00E0     		b	.L91
 1521              	.L90:
 1522              		.loc 1 584 0 discriminator 2
 1523 0036 0023     		movs	r3, #0
 1524              	.L91:
 1525              		.loc 1 584 0 discriminator 4
 1526 0038 FB60     		str	r3, [r7, #12]
 585:Generated_Source\PSoC6\pdl\drivers\peripheral\prot/cy_prot.c ****                 CY_PROT_FAILURE : CY_PROT_SUCCESS;
 586:Generated_Source\PSoC6\pdl\drivers\peripheral\prot/cy_prot.c ****     
 587:Generated_Source\PSoC6\pdl\drivers\peripheral\prot/cy_prot.c ****     return status;
 1527              		.loc 1 587 0 is_stmt 1 discriminator 4
 1528 003a FB68     		ldr	r3, [r7, #12]
 588:Generated_Source\PSoC6\pdl\drivers\peripheral\prot/cy_prot.c **** }
 1529              		.loc 1 588 0 discriminator 4
 1530 003c 1846     		mov	r0, r3
 1531 003e 1037     		adds	r7, r7, #16
 1532              		.cfi_def_cfa_offset 8
 1533 0040 BD46     		mov	sp, r7
 1534              		.cfi_def_cfa_register 13
 1535              		@ sp needed
 1536 0042 80BD     		pop	{r7, pc}
 1537              	.L94:
 1538              		.align	2
 1539              	.L93:
 1540 0044 00000000 		.word	.LC0
 1541 0048 0300C200 		.word	12713987
 1542              		.cfi_endproc
 1543              	.LFE144:
 1544              		.size	Cy_Prot_EnableSmpuSlaveStruct, .-Cy_Prot_EnableSmpuSlaveStruct
 1545              		.section	.text.Cy_Prot_DisableSmpuSlaveStruct,"ax",%progbits
 1546              		.align	2
 1547              		.global	Cy_Prot_DisableSmpuSlaveStruct
 1548              		.thumb
 1549              		.thumb_func
 1550              		.type	Cy_Prot_DisableSmpuSlaveStruct, %function
 1551              	Cy_Prot_DisableSmpuSlaveStruct:
 1552              	.LFB145:
 589:Generated_Source\PSoC6\pdl\drivers\peripheral\prot/cy_prot.c **** 
 590:Generated_Source\PSoC6\pdl\drivers\peripheral\prot/cy_prot.c **** 
 591:Generated_Source\PSoC6\pdl\drivers\peripheral\prot/cy_prot.c **** /*******************************************************************************
 592:Generated_Source\PSoC6\pdl\drivers\peripheral\prot/cy_prot.c **** * Function Name: Cy_Prot_DisableSmpuSlaveStruct
 593:Generated_Source\PSoC6\pdl\drivers\peripheral\prot/cy_prot.c **** ****************************************************************************//**
 594:Generated_Source\PSoC6\pdl\drivers\peripheral\prot/cy_prot.c **** *
 595:Generated_Source\PSoC6\pdl\drivers\peripheral\prot/cy_prot.c **** * Disables the Slave SMPU structure.
 596:Generated_Source\PSoC6\pdl\drivers\peripheral\prot/cy_prot.c **** *
 597:Generated_Source\PSoC6\pdl\drivers\peripheral\prot/cy_prot.c **** * This is an SMPU slave struct disable function. The SMPU protection settings
 598:Generated_Source\PSoC6\pdl\drivers\peripheral\prot/cy_prot.c **** * will seize to take effect after successful completion of this function call.
 599:Generated_Source\PSoC6\pdl\drivers\peripheral\prot/cy_prot.c **** *
 600:Generated_Source\PSoC6\pdl\drivers\peripheral\prot/cy_prot.c **** * \note This function is applicable for both CPUSS ver_1 and ver_2.
 601:Generated_Source\PSoC6\pdl\drivers\peripheral\prot/cy_prot.c **** *
ARM GAS  C:\Users\tmj32\AppData\Local\Temp\cc1bAzcK.s 			page 39


 602:Generated_Source\PSoC6\pdl\drivers\peripheral\prot/cy_prot.c **** * \param base
 603:Generated_Source\PSoC6\pdl\drivers\peripheral\prot/cy_prot.c **** * The base address for the protection unit structure being configured. 
 604:Generated_Source\PSoC6\pdl\drivers\peripheral\prot/cy_prot.c **** *
 605:Generated_Source\PSoC6\pdl\drivers\peripheral\prot/cy_prot.c **** * \return
 606:Generated_Source\PSoC6\pdl\drivers\peripheral\prot/cy_prot.c **** * Status of the function call.
 607:Generated_Source\PSoC6\pdl\drivers\peripheral\prot/cy_prot.c **** *
 608:Generated_Source\PSoC6\pdl\drivers\peripheral\prot/cy_prot.c **** *   Status               | Description
 609:Generated_Source\PSoC6\pdl\drivers\peripheral\prot/cy_prot.c **** *   ------------         | -----------
 610:Generated_Source\PSoC6\pdl\drivers\peripheral\prot/cy_prot.c **** *   CY_PROT_SUCCESS      | The Slave PU struct was disabled.
 611:Generated_Source\PSoC6\pdl\drivers\peripheral\prot/cy_prot.c **** *   CY_PROT_FAILURE      | The Slave PU struct is enabled and possibly locked.
 612:Generated_Source\PSoC6\pdl\drivers\peripheral\prot/cy_prot.c **** *
 613:Generated_Source\PSoC6\pdl\drivers\peripheral\prot/cy_prot.c **** * \funcusage
 614:Generated_Source\PSoC6\pdl\drivers\peripheral\prot/cy_prot.c **** * \snippet prot/1.20/snippet/main.c snippet_Cy_Prot_DisableSmpuSlaveStruct
 615:Generated_Source\PSoC6\pdl\drivers\peripheral\prot/cy_prot.c **** *
 616:Generated_Source\PSoC6\pdl\drivers\peripheral\prot/cy_prot.c **** *******************************************************************************/
 617:Generated_Source\PSoC6\pdl\drivers\peripheral\prot/cy_prot.c **** cy_en_prot_status_t Cy_Prot_DisableSmpuSlaveStruct(PROT_SMPU_SMPU_STRUCT_Type* base)
 618:Generated_Source\PSoC6\pdl\drivers\peripheral\prot/cy_prot.c **** {
 1553              		.loc 1 618 0
 1554              		.cfi_startproc
 1555              		@ args = 0, pretend = 0, frame = 16
 1556              		@ frame_needed = 1, uses_anonymous_args = 0
 1557 0000 80B5     		push	{r7, lr}
 1558              		.cfi_def_cfa_offset 8
 1559              		.cfi_offset 7, -8
 1560              		.cfi_offset 14, -4
 1561 0002 84B0     		sub	sp, sp, #16
 1562              		.cfi_def_cfa_offset 24
 1563 0004 00AF     		add	r7, sp, #0
 1564              		.cfi_def_cfa_register 7
 1565 0006 7860     		str	r0, [r7, #4]
 619:Generated_Source\PSoC6\pdl\drivers\peripheral\prot/cy_prot.c ****     cy_en_prot_status_t status;
 620:Generated_Source\PSoC6\pdl\drivers\peripheral\prot/cy_prot.c ****     
 621:Generated_Source\PSoC6\pdl\drivers\peripheral\prot/cy_prot.c ****     CY_ASSERT_L1(NULL != base);
 1566              		.loc 1 621 0
 1567 0008 7B68     		ldr	r3, [r7, #4]
 1568 000a 002B     		cmp	r3, #0
 1569 000c 04D1     		bne	.L96
 1570              		.loc 1 621 0 is_stmt 0 discriminator 1
 1571 000e 40F26D21 		movw	r1, #621
 1572 0012 0C48     		ldr	r0, .L100
 1573 0014 FFF7FEFF 		bl	Cy_SysLib_AssertFailed
 1574              	.L96:
 622:Generated_Source\PSoC6\pdl\drivers\peripheral\prot/cy_prot.c ****     
 623:Generated_Source\PSoC6\pdl\drivers\peripheral\prot/cy_prot.c ****     PROT_SMPU_SMPU_STRUCT_ATT0(base) &= ~_VAL2FLD(PROT_SMPU_SMPU_STRUCT_ATT0_ENABLED, CY_PROT_STRUC
 1575              		.loc 1 623 0 is_stmt 1
 1576 0018 7B68     		ldr	r3, [r7, #4]
 1577 001a 5B68     		ldr	r3, [r3, #4]
 1578 001c 23F00042 		bic	r2, r3, #-2147483648
 1579 0020 7B68     		ldr	r3, [r7, #4]
 1580 0022 5A60     		str	r2, [r3, #4]
 624:Generated_Source\PSoC6\pdl\drivers\peripheral\prot/cy_prot.c ****     status = (_FLD2VAL(PROT_SMPU_SMPU_STRUCT_ATT0_ENABLED, PROT_SMPU_SMPU_STRUCT_ATT0(base)) == CY_
 1581              		.loc 1 624 0
 1582 0024 7B68     		ldr	r3, [r7, #4]
 1583 0026 5B68     		ldr	r3, [r3, #4]
 1584 0028 03F00043 		and	r3, r3, #-2147483648
 1585 002c DB0F     		lsrs	r3, r3, #31
 1586 002e 012B     		cmp	r3, #1
ARM GAS  C:\Users\tmj32\AppData\Local\Temp\cc1bAzcK.s 			page 40


 1587 0030 01D1     		bne	.L97
 1588              		.loc 1 624 0 is_stmt 0 discriminator 1
 1589 0032 054B     		ldr	r3, .L100+4
 1590 0034 00E0     		b	.L98
 1591              	.L97:
 1592              		.loc 1 624 0 discriminator 2
 1593 0036 0023     		movs	r3, #0
 1594              	.L98:
 1595              		.loc 1 624 0 discriminator 4
 1596 0038 FB60     		str	r3, [r7, #12]
 625:Generated_Source\PSoC6\pdl\drivers\peripheral\prot/cy_prot.c ****                 CY_PROT_FAILURE : CY_PROT_SUCCESS;
 626:Generated_Source\PSoC6\pdl\drivers\peripheral\prot/cy_prot.c ****     
 627:Generated_Source\PSoC6\pdl\drivers\peripheral\prot/cy_prot.c ****     return status;
 1597              		.loc 1 627 0 is_stmt 1 discriminator 4
 1598 003a FB68     		ldr	r3, [r7, #12]
 628:Generated_Source\PSoC6\pdl\drivers\peripheral\prot/cy_prot.c **** }
 1599              		.loc 1 628 0 discriminator 4
 1600 003c 1846     		mov	r0, r3
 1601 003e 1037     		adds	r7, r7, #16
 1602              		.cfi_def_cfa_offset 8
 1603 0040 BD46     		mov	sp, r7
 1604              		.cfi_def_cfa_register 13
 1605              		@ sp needed
 1606 0042 80BD     		pop	{r7, pc}
 1607              	.L101:
 1608              		.align	2
 1609              	.L100:
 1610 0044 00000000 		.word	.LC0
 1611 0048 0300C200 		.word	12713987
 1612              		.cfi_endproc
 1613              	.LFE145:
 1614              		.size	Cy_Prot_DisableSmpuSlaveStruct, .-Cy_Prot_DisableSmpuSlaveStruct
 1615              		.section	.text.Cy_Prot_GetSmpuStruct,"ax",%progbits
 1616              		.align	2
 1617              		.global	Cy_Prot_GetSmpuStruct
 1618              		.thumb
 1619              		.thumb_func
 1620              		.type	Cy_Prot_GetSmpuStruct, %function
 1621              	Cy_Prot_GetSmpuStruct:
 1622              	.LFB146:
 629:Generated_Source\PSoC6\pdl\drivers\peripheral\prot/cy_prot.c **** 
 630:Generated_Source\PSoC6\pdl\drivers\peripheral\prot/cy_prot.c **** 
 631:Generated_Source\PSoC6\pdl\drivers\peripheral\prot/cy_prot.c **** /*******************************************************************************
 632:Generated_Source\PSoC6\pdl\drivers\peripheral\prot/cy_prot.c **** * Function Name: Cy_Prot_GetSmpuStruct
 633:Generated_Source\PSoC6\pdl\drivers\peripheral\prot/cy_prot.c **** ****************************************************************************//**
 634:Generated_Source\PSoC6\pdl\drivers\peripheral\prot/cy_prot.c **** *
 635:Generated_Source\PSoC6\pdl\drivers\peripheral\prot/cy_prot.c **** * Functions returns a pointer of the requested unused SMPU structure. It 
 636:Generated_Source\PSoC6\pdl\drivers\peripheral\prot/cy_prot.c **** * searches the SMPU structures until it finds one that both the slave and master
 637:Generated_Source\PSoC6\pdl\drivers\peripheral\prot/cy_prot.c **** * sections are disabled. After an available structure is located, function 
 638:Generated_Source\PSoC6\pdl\drivers\peripheral\prot/cy_prot.c **** * enables the slave structure and set the ATT0[7:0] bits to 0xFF, to make sure 
 639:Generated_Source\PSoC6\pdl\drivers\peripheral\prot/cy_prot.c **** * that a subsequent call will not see this as an available (unused) SMPU. 
 640:Generated_Source\PSoC6\pdl\drivers\peripheral\prot/cy_prot.c **** *
 641:Generated_Source\PSoC6\pdl\drivers\peripheral\prot/cy_prot.c **** * It is up to the user to implement, if needed, a system in which a semaphore 
 642:Generated_Source\PSoC6\pdl\drivers\peripheral\prot/cy_prot.c **** * will lock-out all but one CPU from calling this function at once.
 643:Generated_Source\PSoC6\pdl\drivers\peripheral\prot/cy_prot.c **** *
 644:Generated_Source\PSoC6\pdl\drivers\peripheral\prot/cy_prot.c **** * \note This function is applicable for both CPUSS ver_1 and ver_2.
 645:Generated_Source\PSoC6\pdl\drivers\peripheral\prot/cy_prot.c **** *
ARM GAS  C:\Users\tmj32\AppData\Local\Temp\cc1bAzcK.s 			page 41


 646:Generated_Source\PSoC6\pdl\drivers\peripheral\prot/cy_prot.c **** * \param base
 647:Generated_Source\PSoC6\pdl\drivers\peripheral\prot/cy_prot.c **** * The base address for the SMPU structure returned if an unused structure was 
 648:Generated_Source\PSoC6\pdl\drivers\peripheral\prot/cy_prot.c **** * found. If an empty structure was not found, the returned pointer is NULL.
 649:Generated_Source\PSoC6\pdl\drivers\peripheral\prot/cy_prot.c **** *
 650:Generated_Source\PSoC6\pdl\drivers\peripheral\prot/cy_prot.c **** * \param reqMode
 651:Generated_Source\PSoC6\pdl\drivers\peripheral\prot/cy_prot.c **** * This parameter (request mode) selects how the user wants to select a SMPU 
 652:Generated_Source\PSoC6\pdl\drivers\peripheral\prot/cy_prot.c **** * structure.
 653:Generated_Source\PSoC6\pdl\drivers\peripheral\prot/cy_prot.c **** *
 654:Generated_Source\PSoC6\pdl\drivers\peripheral\prot/cy_prot.c **** *   reqMode                 | Description
 655:Generated_Source\PSoC6\pdl\drivers\peripheral\prot/cy_prot.c **** * --------------------------| -----------------------------
 656:Generated_Source\PSoC6\pdl\drivers\peripheral\prot/cy_prot.c **** * CY_PROT_REQMODE_HIGHPRIOR | Return the SMPU structure with the highest priority.
 657:Generated_Source\PSoC6\pdl\drivers\peripheral\prot/cy_prot.c **** * CY_PROT_REQMODE_LOWPRIOR  | Return the SMPU structure with the lowest priority.
 658:Generated_Source\PSoC6\pdl\drivers\peripheral\prot/cy_prot.c **** * CY_PROT_REQMODE_INDEX     | Return the SMPU structure with the specific index.
 659:Generated_Source\PSoC6\pdl\drivers\peripheral\prot/cy_prot.c **** *
 660:Generated_Source\PSoC6\pdl\drivers\peripheral\prot/cy_prot.c **** * \param smpuIndex
 661:Generated_Source\PSoC6\pdl\drivers\peripheral\prot/cy_prot.c **** * This is the index of the requested SMPU structure. It is only used if the 
 662:Generated_Source\PSoC6\pdl\drivers\peripheral\prot/cy_prot.c **** * request mode is reqMode = CY_PROT_REQMODE_INDEX.
 663:Generated_Source\PSoC6\pdl\drivers\peripheral\prot/cy_prot.c **** *
 664:Generated_Source\PSoC6\pdl\drivers\peripheral\prot/cy_prot.c **** * \return
 665:Generated_Source\PSoC6\pdl\drivers\peripheral\prot/cy_prot.c **** * Status of the function call.
 666:Generated_Source\PSoC6\pdl\drivers\peripheral\prot/cy_prot.c **** *
 667:Generated_Source\PSoC6\pdl\drivers\peripheral\prot/cy_prot.c **** *   Status              | Description
 668:Generated_Source\PSoC6\pdl\drivers\peripheral\prot/cy_prot.c **** * ----------------------| ---------------------------------------
 669:Generated_Source\PSoC6\pdl\drivers\peripheral\prot/cy_prot.c **** * CY_PROT_SUCCESS       | The Slave PU struct was disabled.
 670:Generated_Source\PSoC6\pdl\drivers\peripheral\prot/cy_prot.c **** * CY_PROT_FAILURE       | The Master or Slave SMPU struct is disabled and possibly locked.
 671:Generated_Source\PSoC6\pdl\drivers\peripheral\prot/cy_prot.c **** * CY_PROT_UNAVAILABLE   | The requested structure in use or there were no unused structures.
 672:Generated_Source\PSoC6\pdl\drivers\peripheral\prot/cy_prot.c **** *
 673:Generated_Source\PSoC6\pdl\drivers\peripheral\prot/cy_prot.c **** * \funcusage
 674:Generated_Source\PSoC6\pdl\drivers\peripheral\prot/cy_prot.c **** * \snippet prot/1.20/snippet/main.c snippet_Cy_Prot_GetSmpuStruct
 675:Generated_Source\PSoC6\pdl\drivers\peripheral\prot/cy_prot.c **** *
 676:Generated_Source\PSoC6\pdl\drivers\peripheral\prot/cy_prot.c **** *******************************************************************************/
 677:Generated_Source\PSoC6\pdl\drivers\peripheral\prot/cy_prot.c **** cy_en_prot_status_t Cy_Prot_GetSmpuStruct(PROT_SMPU_SMPU_STRUCT_Type** base, 
 678:Generated_Source\PSoC6\pdl\drivers\peripheral\prot/cy_prot.c ****                                           cy_en_prot_req_mode_t reqMode, uint32_t smpuIndex)
 679:Generated_Source\PSoC6\pdl\drivers\peripheral\prot/cy_prot.c **** {
 1623              		.loc 1 679 0
 1624              		.cfi_startproc
 1625              		@ args = 0, pretend = 0, frame = 24
 1626              		@ frame_needed = 1, uses_anonymous_args = 0
 1627 0000 80B5     		push	{r7, lr}
 1628              		.cfi_def_cfa_offset 8
 1629              		.cfi_offset 7, -8
 1630              		.cfi_offset 14, -4
 1631 0002 86B0     		sub	sp, sp, #24
 1632              		.cfi_def_cfa_offset 32
 1633 0004 00AF     		add	r7, sp, #0
 1634              		.cfi_def_cfa_register 7
 1635 0006 F860     		str	r0, [r7, #12]
 1636 0008 0B46     		mov	r3, r1
 1637 000a 7A60     		str	r2, [r7, #4]
 1638 000c FB72     		strb	r3, [r7, #11]
 680:Generated_Source\PSoC6\pdl\drivers\peripheral\prot/cy_prot.c ****     CY_ASSERT_L3(CY_PROT_IS_SMPU_REQ_MODE_VALID(reqMode));
 1639              		.loc 1 680 0
 1640 000e FB7A     		ldrb	r3, [r7, #11]	@ zero_extendqisi2
 1641 0010 002B     		cmp	r3, #0
 1642 0012 0AD0     		beq	.L103
 1643              		.loc 1 680 0 is_stmt 0 discriminator 1
 1644 0014 FB7A     		ldrb	r3, [r7, #11]	@ zero_extendqisi2
ARM GAS  C:\Users\tmj32\AppData\Local\Temp\cc1bAzcK.s 			page 42


 1645 0016 012B     		cmp	r3, #1
 1646 0018 07D0     		beq	.L103
 1647              		.loc 1 680 0 discriminator 2
 1648 001a FB7A     		ldrb	r3, [r7, #11]	@ zero_extendqisi2
 1649 001c 022B     		cmp	r3, #2
 1650 001e 04D0     		beq	.L103
 1651              		.loc 1 680 0 discriminator 3
 1652 0020 4FF42A71 		mov	r1, #680
 1653 0024 5448     		ldr	r0, .L126
 1654 0026 FFF7FEFF 		bl	Cy_SysLib_AssertFailed
 1655              	.L103:
 681:Generated_Source\PSoC6\pdl\drivers\peripheral\prot/cy_prot.c ****     CY_ASSERT_L2(CY_PROT_IS_SMPU_IDX_VALID(smpuIndex));
 1656              		.loc 1 681 0 is_stmt 1
 1657 002a 7B68     		ldr	r3, [r7, #4]
 1658 002c 0F2B     		cmp	r3, #15
 1659 002e 04D9     		bls	.L104
 1660              		.loc 1 681 0 is_stmt 0 discriminator 1
 1661 0030 40F2A921 		movw	r1, #681
 1662 0034 5048     		ldr	r0, .L126
 1663 0036 FFF7FEFF 		bl	Cy_SysLib_AssertFailed
 1664              	.L104:
 682:Generated_Source\PSoC6\pdl\drivers\peripheral\prot/cy_prot.c **** 
 683:Generated_Source\PSoC6\pdl\drivers\peripheral\prot/cy_prot.c ****     cy_en_prot_status_t status = CY_PROT_UNAVAILABLE;
 1665              		.loc 1 683 0 is_stmt 1
 1666 003a 504B     		ldr	r3, .L126+4
 1667 003c 7B61     		str	r3, [r7, #20]
 684:Generated_Source\PSoC6\pdl\drivers\peripheral\prot/cy_prot.c ****     int32_t stcIdx = (int32_t)smpuIndex;
 1668              		.loc 1 684 0
 1669 003e 7B68     		ldr	r3, [r7, #4]
 1670 0040 3B61     		str	r3, [r7, #16]
 685:Generated_Source\PSoC6\pdl\drivers\peripheral\prot/cy_prot.c **** 
 686:Generated_Source\PSoC6\pdl\drivers\peripheral\prot/cy_prot.c ****     *base = NULL;
 1671              		.loc 1 686 0
 1672 0042 FB68     		ldr	r3, [r7, #12]
 1673 0044 0022     		movs	r2, #0
 1674 0046 1A60     		str	r2, [r3]
 687:Generated_Source\PSoC6\pdl\drivers\peripheral\prot/cy_prot.c **** 
 688:Generated_Source\PSoC6\pdl\drivers\peripheral\prot/cy_prot.c ****     switch (reqMode)
 1675              		.loc 1 688 0
 1676 0048 FB7A     		ldrb	r3, [r7, #11]	@ zero_extendqisi2
 1677 004a 012B     		cmp	r3, #1
 1678 004c 1AD0     		beq	.L106
 1679 004e 022B     		cmp	r3, #2
 1680 0050 2ED0     		beq	.L107
 1681 0052 002B     		cmp	r3, #0
 1682 0054 00D0     		beq	.L108
 689:Generated_Source\PSoC6\pdl\drivers\peripheral\prot/cy_prot.c ****     {
 690:Generated_Source\PSoC6\pdl\drivers\peripheral\prot/cy_prot.c ****         /* The SMPU priority goes from PROT_SMPU_STRUCT_HIGHEST_PR 
 691:Generated_Source\PSoC6\pdl\drivers\peripheral\prot/cy_prot.c ****         *  (highest priority) to 0 (lowest priority)
 692:Generated_Source\PSoC6\pdl\drivers\peripheral\prot/cy_prot.c ****         */
 693:Generated_Source\PSoC6\pdl\drivers\peripheral\prot/cy_prot.c ****         case CY_PROT_REQMODE_HIGHPRIOR:
 694:Generated_Source\PSoC6\pdl\drivers\peripheral\prot/cy_prot.c **** 
 695:Generated_Source\PSoC6\pdl\drivers\peripheral\prot/cy_prot.c ****             stcIdx = PROT_SMPU_STRUCT_WTH_HIGHEST_PR;
 696:Generated_Source\PSoC6\pdl\drivers\peripheral\prot/cy_prot.c ****             do
 697:Generated_Source\PSoC6\pdl\drivers\peripheral\prot/cy_prot.c ****             {
 698:Generated_Source\PSoC6\pdl\drivers\peripheral\prot/cy_prot.c ****                 if (Prot_IsSmpuStructDisabled((uint32_t)stcIdx))
 699:Generated_Source\PSoC6\pdl\drivers\peripheral\prot/cy_prot.c ****                 {
ARM GAS  C:\Users\tmj32\AppData\Local\Temp\cc1bAzcK.s 			page 43


 700:Generated_Source\PSoC6\pdl\drivers\peripheral\prot/cy_prot.c ****                     status = CY_PROT_SUCCESS;
 701:Generated_Source\PSoC6\pdl\drivers\peripheral\prot/cy_prot.c ****                 }
 702:Generated_Source\PSoC6\pdl\drivers\peripheral\prot/cy_prot.c ****                 else
 703:Generated_Source\PSoC6\pdl\drivers\peripheral\prot/cy_prot.c ****                 {
 704:Generated_Source\PSoC6\pdl\drivers\peripheral\prot/cy_prot.c ****                     --stcIdx;
 705:Generated_Source\PSoC6\pdl\drivers\peripheral\prot/cy_prot.c ****                 }
 706:Generated_Source\PSoC6\pdl\drivers\peripheral\prot/cy_prot.c ****             } while ((stcIdx >= 0) && (CY_PROT_SUCCESS != status));
 707:Generated_Source\PSoC6\pdl\drivers\peripheral\prot/cy_prot.c ****             break;
 708:Generated_Source\PSoC6\pdl\drivers\peripheral\prot/cy_prot.c ****         
 709:Generated_Source\PSoC6\pdl\drivers\peripheral\prot/cy_prot.c ****         case CY_PROT_REQMODE_LOWPRIOR:
 710:Generated_Source\PSoC6\pdl\drivers\peripheral\prot/cy_prot.c ****             stcIdx = 0;
 711:Generated_Source\PSoC6\pdl\drivers\peripheral\prot/cy_prot.c ****             do
 712:Generated_Source\PSoC6\pdl\drivers\peripheral\prot/cy_prot.c ****             {
 713:Generated_Source\PSoC6\pdl\drivers\peripheral\prot/cy_prot.c ****                 if (Prot_IsSmpuStructDisabled((uint32_t)stcIdx))
 714:Generated_Source\PSoC6\pdl\drivers\peripheral\prot/cy_prot.c ****                 {
 715:Generated_Source\PSoC6\pdl\drivers\peripheral\prot/cy_prot.c ****                     status = CY_PROT_SUCCESS;
 716:Generated_Source\PSoC6\pdl\drivers\peripheral\prot/cy_prot.c ****                 }
 717:Generated_Source\PSoC6\pdl\drivers\peripheral\prot/cy_prot.c ****                 else
 718:Generated_Source\PSoC6\pdl\drivers\peripheral\prot/cy_prot.c ****                 {
 719:Generated_Source\PSoC6\pdl\drivers\peripheral\prot/cy_prot.c ****                     ++stcIdx;
 720:Generated_Source\PSoC6\pdl\drivers\peripheral\prot/cy_prot.c ****                 }
 721:Generated_Source\PSoC6\pdl\drivers\peripheral\prot/cy_prot.c ****             } while ((stcIdx <= PROT_SMPU_STRUCT_WTH_HIGHEST_PR) && (CY_PROT_SUCCESS != status));
 722:Generated_Source\PSoC6\pdl\drivers\peripheral\prot/cy_prot.c ****             break;
 723:Generated_Source\PSoC6\pdl\drivers\peripheral\prot/cy_prot.c ****         
 724:Generated_Source\PSoC6\pdl\drivers\peripheral\prot/cy_prot.c ****         case CY_PROT_REQMODE_INDEX:
 725:Generated_Source\PSoC6\pdl\drivers\peripheral\prot/cy_prot.c ****             if (Prot_IsSmpuStructDisabled((uint32_t)stcIdx))
 726:Generated_Source\PSoC6\pdl\drivers\peripheral\prot/cy_prot.c ****             {
 727:Generated_Source\PSoC6\pdl\drivers\peripheral\prot/cy_prot.c ****                 status = CY_PROT_SUCCESS;
 728:Generated_Source\PSoC6\pdl\drivers\peripheral\prot/cy_prot.c ****             }
 729:Generated_Source\PSoC6\pdl\drivers\peripheral\prot/cy_prot.c ****             break;
 730:Generated_Source\PSoC6\pdl\drivers\peripheral\prot/cy_prot.c **** 
 731:Generated_Source\PSoC6\pdl\drivers\peripheral\prot/cy_prot.c ****         default:
 732:Generated_Source\PSoC6\pdl\drivers\peripheral\prot/cy_prot.c ****             break;
 1683              		.loc 1 732 0
 1684 0056 3AE0     		b	.L113
 1685              	.L108:
 695:Generated_Source\PSoC6\pdl\drivers\peripheral\prot/cy_prot.c ****             do
 1686              		.loc 1 695 0
 1687 0058 0F23     		movs	r3, #15
 1688 005a 3B61     		str	r3, [r7, #16]
 1689              	.L112:
 698:Generated_Source\PSoC6\pdl\drivers\peripheral\prot/cy_prot.c ****                 {
 1690              		.loc 1 698 0
 1691 005c 3B69     		ldr	r3, [r7, #16]
 1692 005e 1846     		mov	r0, r3
 1693 0060 FFF7FEFF 		bl	Prot_IsSmpuStructDisabled
 1694 0064 0346     		mov	r3, r0
 1695 0066 002B     		cmp	r3, #0
 1696 0068 02D0     		beq	.L109
 700:Generated_Source\PSoC6\pdl\drivers\peripheral\prot/cy_prot.c ****                 }
 1697              		.loc 1 700 0
 1698 006a 0023     		movs	r3, #0
 1699 006c 7B61     		str	r3, [r7, #20]
 1700 006e 02E0     		b	.L110
 1701              	.L109:
 704:Generated_Source\PSoC6\pdl\drivers\peripheral\prot/cy_prot.c ****                 }
 1702              		.loc 1 704 0
ARM GAS  C:\Users\tmj32\AppData\Local\Temp\cc1bAzcK.s 			page 44


 1703 0070 3B69     		ldr	r3, [r7, #16]
 1704 0072 013B     		subs	r3, r3, #1
 1705 0074 3B61     		str	r3, [r7, #16]
 1706              	.L110:
 706:Generated_Source\PSoC6\pdl\drivers\peripheral\prot/cy_prot.c ****             break;
 1707              		.loc 1 706 0
 1708 0076 3B69     		ldr	r3, [r7, #16]
 1709 0078 002B     		cmp	r3, #0
 1710 007a 23DB     		blt	.L123
 706:Generated_Source\PSoC6\pdl\drivers\peripheral\prot/cy_prot.c ****             break;
 1711              		.loc 1 706 0 is_stmt 0 discriminator 1
 1712 007c 7B69     		ldr	r3, [r7, #20]
 1713 007e 002B     		cmp	r3, #0
 1714 0080 ECD1     		bne	.L112
 707:Generated_Source\PSoC6\pdl\drivers\peripheral\prot/cy_prot.c ****         
 1715              		.loc 1 707 0 is_stmt 1
 1716 0082 1FE0     		b	.L123
 1717              	.L106:
 710:Generated_Source\PSoC6\pdl\drivers\peripheral\prot/cy_prot.c ****             do
 1718              		.loc 1 710 0
 1719 0084 0023     		movs	r3, #0
 1720 0086 3B61     		str	r3, [r7, #16]
 1721              	.L117:
 713:Generated_Source\PSoC6\pdl\drivers\peripheral\prot/cy_prot.c ****                 {
 1722              		.loc 1 713 0
 1723 0088 3B69     		ldr	r3, [r7, #16]
 1724 008a 1846     		mov	r0, r3
 1725 008c FFF7FEFF 		bl	Prot_IsSmpuStructDisabled
 1726 0090 0346     		mov	r3, r0
 1727 0092 002B     		cmp	r3, #0
 1728 0094 02D0     		beq	.L114
 715:Generated_Source\PSoC6\pdl\drivers\peripheral\prot/cy_prot.c ****                 }
 1729              		.loc 1 715 0
 1730 0096 0023     		movs	r3, #0
 1731 0098 7B61     		str	r3, [r7, #20]
 1732 009a 02E0     		b	.L115
 1733              	.L114:
 719:Generated_Source\PSoC6\pdl\drivers\peripheral\prot/cy_prot.c ****                 }
 1734              		.loc 1 719 0
 1735 009c 3B69     		ldr	r3, [r7, #16]
 1736 009e 0133     		adds	r3, r3, #1
 1737 00a0 3B61     		str	r3, [r7, #16]
 1738              	.L115:
 721:Generated_Source\PSoC6\pdl\drivers\peripheral\prot/cy_prot.c ****             break;
 1739              		.loc 1 721 0
 1740 00a2 3B69     		ldr	r3, [r7, #16]
 1741 00a4 0F2B     		cmp	r3, #15
 1742 00a6 0FDC     		bgt	.L124
 721:Generated_Source\PSoC6\pdl\drivers\peripheral\prot/cy_prot.c ****             break;
 1743              		.loc 1 721 0 is_stmt 0 discriminator 1
 1744 00a8 7B69     		ldr	r3, [r7, #20]
 1745 00aa 002B     		cmp	r3, #0
 1746 00ac ECD1     		bne	.L117
 722:Generated_Source\PSoC6\pdl\drivers\peripheral\prot/cy_prot.c ****         
 1747              		.loc 1 722 0 is_stmt 1
 1748 00ae 0BE0     		b	.L124
 1749              	.L107:
ARM GAS  C:\Users\tmj32\AppData\Local\Temp\cc1bAzcK.s 			page 45


 725:Generated_Source\PSoC6\pdl\drivers\peripheral\prot/cy_prot.c ****             {
 1750              		.loc 1 725 0
 1751 00b0 3B69     		ldr	r3, [r7, #16]
 1752 00b2 1846     		mov	r0, r3
 1753 00b4 FFF7FEFF 		bl	Prot_IsSmpuStructDisabled
 1754 00b8 0346     		mov	r3, r0
 1755 00ba 002B     		cmp	r3, #0
 1756 00bc 06D0     		beq	.L125
 727:Generated_Source\PSoC6\pdl\drivers\peripheral\prot/cy_prot.c ****             }
 1757              		.loc 1 727 0
 1758 00be 0023     		movs	r3, #0
 1759 00c0 7B61     		str	r3, [r7, #20]
 729:Generated_Source\PSoC6\pdl\drivers\peripheral\prot/cy_prot.c **** 
 1760              		.loc 1 729 0
 1761 00c2 03E0     		b	.L125
 1762              	.L123:
 707:Generated_Source\PSoC6\pdl\drivers\peripheral\prot/cy_prot.c ****         
 1763              		.loc 1 707 0
 1764 00c4 00BF     		nop
 1765 00c6 02E0     		b	.L113
 1766              	.L124:
 722:Generated_Source\PSoC6\pdl\drivers\peripheral\prot/cy_prot.c ****         
 1767              		.loc 1 722 0
 1768 00c8 00BF     		nop
 1769 00ca 00E0     		b	.L113
 1770              	.L125:
 729:Generated_Source\PSoC6\pdl\drivers\peripheral\prot/cy_prot.c **** 
 1771              		.loc 1 729 0
 1772 00cc 00BF     		nop
 1773              	.L113:
 733:Generated_Source\PSoC6\pdl\drivers\peripheral\prot/cy_prot.c ****     }
 734:Generated_Source\PSoC6\pdl\drivers\peripheral\prot/cy_prot.c **** 
 735:Generated_Source\PSoC6\pdl\drivers\peripheral\prot/cy_prot.c ****     /* Proceed if required structure is found */
 736:Generated_Source\PSoC6\pdl\drivers\peripheral\prot/cy_prot.c ****     if (CY_PROT_SUCCESS == status)
 1774              		.loc 1 736 0
 1775 00ce 7B69     		ldr	r3, [r7, #20]
 1776 00d0 002B     		cmp	r3, #0
 1777 00d2 4BD1     		bne	.L119
 737:Generated_Source\PSoC6\pdl\drivers\peripheral\prot/cy_prot.c ****     {
 738:Generated_Source\PSoC6\pdl\drivers\peripheral\prot/cy_prot.c ****         /* Enable Slave SMPU struct */
 739:Generated_Source\PSoC6\pdl\drivers\peripheral\prot/cy_prot.c ****         PROT_SMPU_SMPU_STRUCT_IDX_ATT0(stcIdx) |= _VAL2FLD(PROT_SMPU_SMPU_STRUCT_ATT0_ENABLED, CY_P
 1778              		.loc 1 739 0
 1779 00d4 2A4B     		ldr	r3, .L126+8
 1780 00d6 1B68     		ldr	r3, [r3]
 1781 00d8 1B69     		ldr	r3, [r3, #16]
 1782 00da 1946     		mov	r1, r3
 1783 00dc 284B     		ldr	r3, .L126+8
 1784 00de 1B68     		ldr	r3, [r3]
 1785 00e0 1B69     		ldr	r3, [r3, #16]
 1786 00e2 1A46     		mov	r2, r3
 1787 00e4 3B69     		ldr	r3, [r7, #16]
 1788 00e6 8033     		adds	r3, r3, #128
 1789 00e8 9B01     		lsls	r3, r3, #6
 1790 00ea 1344     		add	r3, r3, r2
 1791 00ec 0433     		adds	r3, r3, #4
 1792 00ee 1B68     		ldr	r3, [r3]
 1793 00f0 43F00042 		orr	r2, r3, #-2147483648
ARM GAS  C:\Users\tmj32\AppData\Local\Temp\cc1bAzcK.s 			page 46


 1794 00f4 3B69     		ldr	r3, [r7, #16]
 1795 00f6 8033     		adds	r3, r3, #128
 1796 00f8 9B01     		lsls	r3, r3, #6
 1797 00fa 0B44     		add	r3, r3, r1
 1798 00fc 0433     		adds	r3, r3, #4
 1799 00fe 1A60     		str	r2, [r3]
 740:Generated_Source\PSoC6\pdl\drivers\peripheral\prot/cy_prot.c ****         
 741:Generated_Source\PSoC6\pdl\drivers\peripheral\prot/cy_prot.c ****         status = 
 742:Generated_Source\PSoC6\pdl\drivers\peripheral\prot/cy_prot.c ****         (_FLD2VAL(PROT_SMPU_SMPU_STRUCT_ATT0_ENABLED, PROT_SMPU_SMPU_STRUCT_IDX_ATT0(stcIdx)) != CY
 1800              		.loc 1 742 0
 1801 0100 1F4B     		ldr	r3, .L126+8
 1802 0102 1B68     		ldr	r3, [r3]
 1803 0104 1B69     		ldr	r3, [r3, #16]
 1804 0106 1A46     		mov	r2, r3
 1805 0108 3B69     		ldr	r3, [r7, #16]
 1806 010a 8033     		adds	r3, r3, #128
 1807 010c 9B01     		lsls	r3, r3, #6
 1808 010e 1344     		add	r3, r3, r2
 1809 0110 0433     		adds	r3, r3, #4
 1810 0112 1B68     		ldr	r3, [r3]
 1811 0114 03F00043 		and	r3, r3, #-2147483648
 1812 0118 DB0F     		lsrs	r3, r3, #31
 741:Generated_Source\PSoC6\pdl\drivers\peripheral\prot/cy_prot.c ****         (_FLD2VAL(PROT_SMPU_SMPU_STRUCT_ATT0_ENABLED, PROT_SMPU_SMPU_STRUCT_IDX_ATT0(stcIdx)) != CY
 1813              		.loc 1 741 0
 1814 011a 012B     		cmp	r3, #1
 1815 011c 01D0     		beq	.L120
 741:Generated_Source\PSoC6\pdl\drivers\peripheral\prot/cy_prot.c ****         (_FLD2VAL(PROT_SMPU_SMPU_STRUCT_ATT0_ENABLED, PROT_SMPU_SMPU_STRUCT_IDX_ATT0(stcIdx)) != CY
 1816              		.loc 1 741 0 is_stmt 0 discriminator 1
 1817 011e 194B     		ldr	r3, .L126+12
 1818 0120 00E0     		b	.L121
 1819              	.L120:
 741:Generated_Source\PSoC6\pdl\drivers\peripheral\prot/cy_prot.c ****         (_FLD2VAL(PROT_SMPU_SMPU_STRUCT_ATT0_ENABLED, PROT_SMPU_SMPU_STRUCT_IDX_ATT0(stcIdx)) != CY
 1820              		.loc 1 741 0 discriminator 2
 1821 0122 0023     		movs	r3, #0
 1822              	.L121:
 741:Generated_Source\PSoC6\pdl\drivers\peripheral\prot/cy_prot.c ****         (_FLD2VAL(PROT_SMPU_SMPU_STRUCT_ATT0_ENABLED, PROT_SMPU_SMPU_STRUCT_IDX_ATT0(stcIdx)) != CY
 1823              		.loc 1 741 0 discriminator 4
 1824 0124 7B61     		str	r3, [r7, #20]
 743:Generated_Source\PSoC6\pdl\drivers\peripheral\prot/cy_prot.c ****         CY_PROT_FAILURE : CY_PROT_SUCCESS;
 744:Generated_Source\PSoC6\pdl\drivers\peripheral\prot/cy_prot.c **** 
 745:Generated_Source\PSoC6\pdl\drivers\peripheral\prot/cy_prot.c ****         /* Enable all attributes only if Slave struct was enabled */
 746:Generated_Source\PSoC6\pdl\drivers\peripheral\prot/cy_prot.c ****         if (CY_PROT_SUCCESS == status)
 1825              		.loc 1 746 0 is_stmt 1 discriminator 4
 1826 0126 7B69     		ldr	r3, [r7, #20]
 1827 0128 002B     		cmp	r3, #0
 1828 012a 1FD1     		bne	.L119
 747:Generated_Source\PSoC6\pdl\drivers\peripheral\prot/cy_prot.c ****         {
 748:Generated_Source\PSoC6\pdl\drivers\peripheral\prot/cy_prot.c ****             *base = (PROT_SMPU_SMPU_STRUCT_Type* ) PROT_SMPU_SMPU_STRUCT_IDX(stcIdx);
 1829              		.loc 1 748 0
 1830 012c 144B     		ldr	r3, .L126+8
 1831 012e 1B68     		ldr	r3, [r3]
 1832 0130 1B69     		ldr	r3, [r3, #16]
 1833 0132 1A46     		mov	r2, r3
 1834 0134 3B69     		ldr	r3, [r7, #16]
 1835 0136 8033     		adds	r3, r3, #128
 1836 0138 9B01     		lsls	r3, r3, #6
 1837 013a 1A44     		add	r2, r2, r3
ARM GAS  C:\Users\tmj32\AppData\Local\Temp\cc1bAzcK.s 			page 47


 1838 013c FB68     		ldr	r3, [r7, #12]
 1839 013e 1A60     		str	r2, [r3]
 749:Generated_Source\PSoC6\pdl\drivers\peripheral\prot/cy_prot.c ****             PROT_SMPU_SMPU_STRUCT_IDX_ATT0(stcIdx) |= PROT_SMPU_STRUCT_ATT0_ENABLE_ALL_MASK;
 1840              		.loc 1 749 0
 1841 0140 0F4B     		ldr	r3, .L126+8
 1842 0142 1B68     		ldr	r3, [r3]
 1843 0144 1B69     		ldr	r3, [r3, #16]
 1844 0146 1946     		mov	r1, r3
 1845 0148 0D4B     		ldr	r3, .L126+8
 1846 014a 1B68     		ldr	r3, [r3]
 1847 014c 1B69     		ldr	r3, [r3, #16]
 1848 014e 1A46     		mov	r2, r3
 1849 0150 3B69     		ldr	r3, [r7, #16]
 1850 0152 8033     		adds	r3, r3, #128
 1851 0154 9B01     		lsls	r3, r3, #6
 1852 0156 1344     		add	r3, r3, r2
 1853 0158 0433     		adds	r3, r3, #4
 1854 015a 1B68     		ldr	r3, [r3]
 1855 015c 43F07F02 		orr	r2, r3, #127
 1856 0160 3B69     		ldr	r3, [r7, #16]
 1857 0162 8033     		adds	r3, r3, #128
 1858 0164 9B01     		lsls	r3, r3, #6
 1859 0166 0B44     		add	r3, r3, r1
 1860 0168 0433     		adds	r3, r3, #4
 1861 016a 1A60     		str	r2, [r3]
 1862              	.L119:
 750:Generated_Source\PSoC6\pdl\drivers\peripheral\prot/cy_prot.c ****         }
 751:Generated_Source\PSoC6\pdl\drivers\peripheral\prot/cy_prot.c ****     }
 752:Generated_Source\PSoC6\pdl\drivers\peripheral\prot/cy_prot.c ****     return status;
 1863              		.loc 1 752 0
 1864 016c 7B69     		ldr	r3, [r7, #20]
 753:Generated_Source\PSoC6\pdl\drivers\peripheral\prot/cy_prot.c **** }
 1865              		.loc 1 753 0
 1866 016e 1846     		mov	r0, r3
 1867 0170 1837     		adds	r7, r7, #24
 1868              		.cfi_def_cfa_offset 8
 1869 0172 BD46     		mov	sp, r7
 1870              		.cfi_def_cfa_register 13
 1871              		@ sp needed
 1872 0174 80BD     		pop	{r7, pc}
 1873              	.L127:
 1874 0176 00BF     		.align	2
 1875              	.L126:
 1876 0178 00000000 		.word	.LC0
 1877 017c 0400C200 		.word	12713988
 1878 0180 00000000 		.word	cy_device
 1879 0184 0300C200 		.word	12713987
 1880              		.cfi_endproc
 1881              	.LFE146:
 1882              		.size	Cy_Prot_GetSmpuStruct, .-Cy_Prot_GetSmpuStruct
 1883              		.section	.text.Prot_ConfigPpuAtt,"ax",%progbits
 1884              		.align	2
 1885              		.thumb
 1886              		.thumb_func
 1887              		.type	Prot_ConfigPpuAtt, %function
 1888              	Prot_ConfigPpuAtt:
 1889              	.LFB147:
ARM GAS  C:\Users\tmj32\AppData\Local\Temp\cc1bAzcK.s 			page 48


 754:Generated_Source\PSoC6\pdl\drivers\peripheral\prot/cy_prot.c **** 
 755:Generated_Source\PSoC6\pdl\drivers\peripheral\prot/cy_prot.c **** 
 756:Generated_Source\PSoC6\pdl\drivers\peripheral\prot/cy_prot.c **** /*******************************************************************************
 757:Generated_Source\PSoC6\pdl\drivers\peripheral\prot/cy_prot.c **** * Function Name: Prot_ConfigPpuAtt
 758:Generated_Source\PSoC6\pdl\drivers\peripheral\prot/cy_prot.c **** ********************************************************************************
 759:Generated_Source\PSoC6\pdl\drivers\peripheral\prot/cy_prot.c **** *
 760:Generated_Source\PSoC6\pdl\drivers\peripheral\prot/cy_prot.c **** * An internal function to hold the common code for 
 761:Generated_Source\PSoC6\pdl\drivers\peripheral\prot/cy_prot.c **** * Cy_Prot_ConfigPpu[Prog/Fixed][Master/Slave]Att API functions
 762:Generated_Source\PSoC6\pdl\drivers\peripheral\prot/cy_prot.c **** *
 763:Generated_Source\PSoC6\pdl\drivers\peripheral\prot/cy_prot.c **** * \note This function is applicable for CPUSS ver_2 only.
 764:Generated_Source\PSoC6\pdl\drivers\peripheral\prot/cy_prot.c **** *
 765:Generated_Source\PSoC6\pdl\drivers\peripheral\prot/cy_prot.c **** * \param reg
 766:Generated_Source\PSoC6\pdl\drivers\peripheral\prot/cy_prot.c **** * The register to update attributes in.
 767:Generated_Source\PSoC6\pdl\drivers\peripheral\prot/cy_prot.c **** *
 768:Generated_Source\PSoC6\pdl\drivers\peripheral\prot/cy_prot.c **** * \param pcMask
 769:Generated_Source\PSoC6\pdl\drivers\peripheral\prot/cy_prot.c **** * The protection context mask. This is a 16-bit value of the allowed contexts. 
 770:Generated_Source\PSoC6\pdl\drivers\peripheral\prot/cy_prot.c **** * It is an OR'ed (|) field of the * provided defines in cy_prot.h. 
 771:Generated_Source\PSoC6\pdl\drivers\peripheral\prot/cy_prot.c **** * For example: (CY_PROT_PCMASK1 | CY_PROT_PCMASK3 | CY_PROT_PCMASK4).
 772:Generated_Source\PSoC6\pdl\drivers\peripheral\prot/cy_prot.c **** * \note The function accepts pcMask values from CY_PROT_PCMASK1 to CY_PROT_PCMASK5. 
 773:Generated_Source\PSoC6\pdl\drivers\peripheral\prot/cy_prot.c **** * But each device has its own number of available protection contexts. 
 774:Generated_Source\PSoC6\pdl\drivers\peripheral\prot/cy_prot.c **** * That number is defined by PERI_PC_NR in the config file.
 775:Generated_Source\PSoC6\pdl\drivers\peripheral\prot/cy_prot.c **** *
 776:Generated_Source\PSoC6\pdl\drivers\peripheral\prot/cy_prot.c **** * \param userPermission
 777:Generated_Source\PSoC6\pdl\drivers\peripheral\prot/cy_prot.c **** * The user permissions for the region.
 778:Generated_Source\PSoC6\pdl\drivers\peripheral\prot/cy_prot.c **** *
 779:Generated_Source\PSoC6\pdl\drivers\peripheral\prot/cy_prot.c **** * \param privPermission
 780:Generated_Source\PSoC6\pdl\drivers\peripheral\prot/cy_prot.c **** * The privileged permissions for the region.
 781:Generated_Source\PSoC6\pdl\drivers\peripheral\prot/cy_prot.c **** *
 782:Generated_Source\PSoC6\pdl\drivers\peripheral\prot/cy_prot.c **** * \param secure 
 783:Generated_Source\PSoC6\pdl\drivers\peripheral\prot/cy_prot.c **** * Non Secure = false, Secure = true
 784:Generated_Source\PSoC6\pdl\drivers\peripheral\prot/cy_prot.c **** *
 785:Generated_Source\PSoC6\pdl\drivers\peripheral\prot/cy_prot.c **** * \return
 786:Generated_Source\PSoC6\pdl\drivers\peripheral\prot/cy_prot.c **** * The status of the function call.
 787:Generated_Source\PSoC6\pdl\drivers\peripheral\prot/cy_prot.c **** *
 788:Generated_Source\PSoC6\pdl\drivers\peripheral\prot/cy_prot.c **** *   Status              | Description
 789:Generated_Source\PSoC6\pdl\drivers\peripheral\prot/cy_prot.c **** * ----------------------| ---------------------------------------
 790:Generated_Source\PSoC6\pdl\drivers\peripheral\prot/cy_prot.c **** * CY_PROT_SUCCESS       | The attributes were set up.
 791:Generated_Source\PSoC6\pdl\drivers\peripheral\prot/cy_prot.c **** * CY_PROT_FAILURE       | The attributes were not set up because the structure is possibly locked.
 792:Generated_Source\PSoC6\pdl\drivers\peripheral\prot/cy_prot.c **** * CY_PROT_INVALID_STATE | The function was called on the device with an unsupported PERI HW version
 793:Generated_Source\PSoC6\pdl\drivers\peripheral\prot/cy_prot.c **** *
 794:Generated_Source\PSoC6\pdl\drivers\peripheral\prot/cy_prot.c **** *******************************************************************************/
 795:Generated_Source\PSoC6\pdl\drivers\peripheral\prot/cy_prot.c **** static cy_en_prot_status_t Prot_ConfigPpuAtt(volatile uint32_t * reg, uint16_t pcMask, 
 796:Generated_Source\PSoC6\pdl\drivers\peripheral\prot/cy_prot.c ****                                        cy_en_prot_perm_t userPermission, cy_en_prot_perm_t privPerm
 797:Generated_Source\PSoC6\pdl\drivers\peripheral\prot/cy_prot.c **** {
 1890              		.loc 1 797 0
 1891              		.cfi_startproc
 1892              		@ args = 4, pretend = 0, frame = 32
 1893              		@ frame_needed = 1, uses_anonymous_args = 0
 1894              		@ link register save eliminated.
 1895 0000 80B4     		push	{r7}
 1896              		.cfi_def_cfa_offset 4
 1897              		.cfi_offset 7, -4
 1898 0002 89B0     		sub	sp, sp, #36
 1899              		.cfi_def_cfa_offset 40
 1900 0004 00AF     		add	r7, sp, #0
 1901              		.cfi_def_cfa_register 7
 1902 0006 7860     		str	r0, [r7, #4]
ARM GAS  C:\Users\tmj32\AppData\Local\Temp\cc1bAzcK.s 			page 49


 1903 0008 0846     		mov	r0, r1
 1904 000a 1146     		mov	r1, r2
 1905 000c 1A46     		mov	r2, r3
 1906 000e 0346     		mov	r3, r0	@ movhi
 1907 0010 7B80     		strh	r3, [r7, #2]	@ movhi
 1908 0012 0B46     		mov	r3, r1
 1909 0014 7B70     		strb	r3, [r7, #1]
 1910 0016 1346     		mov	r3, r2
 1911 0018 3B70     		strb	r3, [r7]
 798:Generated_Source\PSoC6\pdl\drivers\peripheral\prot/cy_prot.c ****     cy_en_prot_status_t status = CY_PROT_INVALID_STATE;
 1912              		.loc 1 798 0
 1913 001a 3E4B     		ldr	r3, .L142
 1914 001c FB61     		str	r3, [r7, #28]
 799:Generated_Source\PSoC6\pdl\drivers\peripheral\prot/cy_prot.c **** 
 800:Generated_Source\PSoC6\pdl\drivers\peripheral\prot/cy_prot.c ****     if (!CY_PERI_V1)
 1915              		.loc 1 800 0
 1916 001e 3E4B     		ldr	r3, .L142+4
 1917 0020 1B68     		ldr	r3, [r3]
 1918 0022 93F82F30 		ldrb	r3, [r3, #47]	@ zero_extendqisi2
 1919 0026 012B     		cmp	r3, #1
 1920 0028 6DD0     		beq	.L129
 1921              	.LBB2:
 801:Generated_Source\PSoC6\pdl\drivers\peripheral\prot/cy_prot.c ****     {
 802:Generated_Source\PSoC6\pdl\drivers\peripheral\prot/cy_prot.c ****         uint32_t tmpMask = (uint32_t)pcMask << CY_PROT_PCMASK_CHECK;
 1922              		.loc 1 802 0
 1923 002a 7B88     		ldrh	r3, [r7, #2]
 1924 002c 5B00     		lsls	r3, r3, #1
 1925 002e BB61     		str	r3, [r7, #24]
 803:Generated_Source\PSoC6\pdl\drivers\peripheral\prot/cy_prot.c ****         uint32_t attReg;
 804:Generated_Source\PSoC6\pdl\drivers\peripheral\prot/cy_prot.c ****         uint32_t regIdx;
 805:Generated_Source\PSoC6\pdl\drivers\peripheral\prot/cy_prot.c ****         uint32_t fldIdx;
 806:Generated_Source\PSoC6\pdl\drivers\peripheral\prot/cy_prot.c ****         
 807:Generated_Source\PSoC6\pdl\drivers\peripheral\prot/cy_prot.c ****         status = CY_PROT_SUCCESS;
 1926              		.loc 1 807 0
 1927 0030 0023     		movs	r3, #0
 1928 0032 FB61     		str	r3, [r7, #28]
 808:Generated_Source\PSoC6\pdl\drivers\peripheral\prot/cy_prot.c ****         
 809:Generated_Source\PSoC6\pdl\drivers\peripheral\prot/cy_prot.c ****         /* Populate the ATT values */
 810:Generated_Source\PSoC6\pdl\drivers\peripheral\prot/cy_prot.c ****         for(regIdx = 0U; regIdx < CY_PROT_ATT_REGS_MAX; regIdx++)
 1929              		.loc 1 810 0
 1930 0034 0023     		movs	r3, #0
 1931 0036 3B61     		str	r3, [r7, #16]
 1932 0038 60E0     		b	.L130
 1933              	.L139:
 811:Generated_Source\PSoC6\pdl\drivers\peripheral\prot/cy_prot.c ****         {
 812:Generated_Source\PSoC6\pdl\drivers\peripheral\prot/cy_prot.c ****             if (0UL == tmpMask)
 1934              		.loc 1 812 0
 1935 003a BB69     		ldr	r3, [r7, #24]
 1936 003c 002B     		cmp	r3, #0
 1937 003e 61D0     		beq	.L141
 813:Generated_Source\PSoC6\pdl\drivers\peripheral\prot/cy_prot.c ****             {
 814:Generated_Source\PSoC6\pdl\drivers\peripheral\prot/cy_prot.c ****                 break;
 815:Generated_Source\PSoC6\pdl\drivers\peripheral\prot/cy_prot.c ****             }
 816:Generated_Source\PSoC6\pdl\drivers\peripheral\prot/cy_prot.c ****             
 817:Generated_Source\PSoC6\pdl\drivers\peripheral\prot/cy_prot.c ****             /* Get the attributes register value */
 818:Generated_Source\PSoC6\pdl\drivers\peripheral\prot/cy_prot.c ****             attReg = reg[regIdx];
 1938              		.loc 1 818 0
ARM GAS  C:\Users\tmj32\AppData\Local\Temp\cc1bAzcK.s 			page 50


 1939 0040 3B69     		ldr	r3, [r7, #16]
 1940 0042 9B00     		lsls	r3, r3, #2
 1941 0044 7A68     		ldr	r2, [r7, #4]
 1942 0046 1344     		add	r3, r3, r2
 1943 0048 1B68     		ldr	r3, [r3]
 1944 004a 7B61     		str	r3, [r7, #20]
 819:Generated_Source\PSoC6\pdl\drivers\peripheral\prot/cy_prot.c **** 
 820:Generated_Source\PSoC6\pdl\drivers\peripheral\prot/cy_prot.c ****             for(fldIdx = 0UL; fldIdx < CY_PROT_ATT_PC_MAX; fldIdx++)
 1945              		.loc 1 820 0
 1946 004c 0023     		movs	r3, #0
 1947 004e FB60     		str	r3, [r7, #12]
 1948 0050 2DE0     		b	.L132
 1949              	.L136:
 821:Generated_Source\PSoC6\pdl\drivers\peripheral\prot/cy_prot.c ****             {
 822:Generated_Source\PSoC6\pdl\drivers\peripheral\prot/cy_prot.c ****                 if((tmpMask & CY_PROT_PCMASK_CHECK) == CY_PROT_STRUCT_ENABLE)
 1950              		.loc 1 822 0
 1951 0052 BB69     		ldr	r3, [r7, #24]
 1952 0054 03F00103 		and	r3, r3, #1
 1953 0058 002B     		cmp	r3, #0
 1954 005a 22D0     		beq	.L133
 823:Generated_Source\PSoC6\pdl\drivers\peripheral\prot/cy_prot.c ****                 {
 824:Generated_Source\PSoC6\pdl\drivers\peripheral\prot/cy_prot.c ****                     /* Reset the bitfield for the PCx attributes */
 825:Generated_Source\PSoC6\pdl\drivers\peripheral\prot/cy_prot.c ****                     attReg &= ~((_VAL2FLD(CY_PROT_ATT_PERI_USER_PERM, CY_PROT_PERM_RW) |
 826:Generated_Source\PSoC6\pdl\drivers\peripheral\prot/cy_prot.c ****                                  _VAL2FLD(CY_PROT_ATT_PERI_PRIV_PERM, CY_PROT_PERM_RW) |
 827:Generated_Source\PSoC6\pdl\drivers\peripheral\prot/cy_prot.c ****                                  _BOOL2FLD(PERI_MS_PPU_PR_V2_MS_ATT0_PC0_NS, true)) <<
 828:Generated_Source\PSoC6\pdl\drivers\peripheral\prot/cy_prot.c ****                                 (PERI_MS_PPU_PR_V2_MS_ATT0_PC1_UR_Pos * fldIdx)); 
 1955              		.loc 1 828 0
 1956 005c FB68     		ldr	r3, [r7, #12]
 1957 005e DB00     		lsls	r3, r3, #3
 827:Generated_Source\PSoC6\pdl\drivers\peripheral\prot/cy_prot.c ****                                 (PERI_MS_PPU_PR_V2_MS_ATT0_PC1_UR_Pos * fldIdx)); 
 1958              		.loc 1 827 0
 1959 0060 1F22     		movs	r2, #31
 1960 0062 02FA03F3 		lsl	r3, r2, r3
 825:Generated_Source\PSoC6\pdl\drivers\peripheral\prot/cy_prot.c ****                                  _VAL2FLD(CY_PROT_ATT_PERI_PRIV_PERM, CY_PROT_PERM_RW) |
 1961              		.loc 1 825 0
 1962 0066 DB43     		mvns	r3, r3
 1963 0068 7A69     		ldr	r2, [r7, #20]
 1964 006a 1340     		ands	r3, r3, r2
 1965 006c 7B61     		str	r3, [r7, #20]
 829:Generated_Source\PSoC6\pdl\drivers\peripheral\prot/cy_prot.c ****                     
 830:Generated_Source\PSoC6\pdl\drivers\peripheral\prot/cy_prot.c ****                     /* Set the bitfield for the PCx attributes */
 831:Generated_Source\PSoC6\pdl\drivers\peripheral\prot/cy_prot.c ****                     attReg |= (_VAL2FLD(CY_PROT_ATT_PERI_USER_PERM, userPermission) |
 1966              		.loc 1 831 0
 1967 006e 7B78     		ldrb	r3, [r7, #1]	@ zero_extendqisi2
 1968 0070 03F00302 		and	r2, r3, #3
 832:Generated_Source\PSoC6\pdl\drivers\peripheral\prot/cy_prot.c ****                                _VAL2FLD(CY_PROT_ATT_PERI_PRIV_PERM, privPermission) |
 1969              		.loc 1 832 0
 1970 0074 3B78     		ldrb	r3, [r7]	@ zero_extendqisi2
 1971 0076 9B00     		lsls	r3, r3, #2
 1972 0078 03F00C03 		and	r3, r3, #12
 831:Generated_Source\PSoC6\pdl\drivers\peripheral\prot/cy_prot.c ****                                _VAL2FLD(CY_PROT_ATT_PERI_PRIV_PERM, privPermission) |
 1973              		.loc 1 831 0
 1974 007c 1A43     		orrs	r2, r2, r3
 833:Generated_Source\PSoC6\pdl\drivers\peripheral\prot/cy_prot.c ****                               _BOOL2FLD(PERI_MS_PPU_PR_V2_MS_ATT0_PC0_NS, !secure)) <<
 1975              		.loc 1 833 0
 1976 007e 97F82830 		ldrb	r3, [r7, #40]
 1977 0082 83F00103 		eor	r3, r3, #1
ARM GAS  C:\Users\tmj32\AppData\Local\Temp\cc1bAzcK.s 			page 51


 1978 0086 DBB2     		uxtb	r3, r3
 1979 0088 002B     		cmp	r3, #0
 1980 008a 01D0     		beq	.L134
 1981              		.loc 1 833 0 is_stmt 0 discriminator 1
 1982 008c 1023     		movs	r3, #16
 1983 008e 00E0     		b	.L135
 1984              	.L134:
 1985              		.loc 1 833 0 discriminator 2
 1986 0090 0023     		movs	r3, #0
 1987              	.L135:
 832:Generated_Source\PSoC6\pdl\drivers\peripheral\prot/cy_prot.c ****                                _VAL2FLD(CY_PROT_ATT_PERI_PRIV_PERM, privPermission) |
 1988              		.loc 1 832 0 is_stmt 1
 1989 0092 1A43     		orrs	r2, r2, r3
 834:Generated_Source\PSoC6\pdl\drivers\peripheral\prot/cy_prot.c ****                                (PERI_MS_PPU_PR_V2_MS_ATT0_PC1_UR_Pos * fldIdx);
 1990              		.loc 1 834 0
 1991 0094 FB68     		ldr	r3, [r7, #12]
 1992 0096 DB00     		lsls	r3, r3, #3
 833:Generated_Source\PSoC6\pdl\drivers\peripheral\prot/cy_prot.c ****                               _BOOL2FLD(PERI_MS_PPU_PR_V2_MS_ATT0_PC0_NS, !secure)) <<
 1993              		.loc 1 833 0
 1994 0098 02FA03F3 		lsl	r3, r2, r3
 831:Generated_Source\PSoC6\pdl\drivers\peripheral\prot/cy_prot.c ****                                _VAL2FLD(CY_PROT_ATT_PERI_PRIV_PERM, privPermission) |
 1995              		.loc 1 831 0
 1996 009c 7A69     		ldr	r2, [r7, #20]
 1997 009e 1343     		orrs	r3, r3, r2
 1998 00a0 7B61     		str	r3, [r7, #20]
 1999              	.L133:
 835:Generated_Source\PSoC6\pdl\drivers\peripheral\prot/cy_prot.c ****                 }
 836:Generated_Source\PSoC6\pdl\drivers\peripheral\prot/cy_prot.c ****                 tmpMask = tmpMask >> CY_PROT_PCMASK_CHECK;
 2000              		.loc 1 836 0 discriminator 2
 2001 00a2 BB69     		ldr	r3, [r7, #24]
 2002 00a4 5B08     		lsrs	r3, r3, #1
 2003 00a6 BB61     		str	r3, [r7, #24]
 820:Generated_Source\PSoC6\pdl\drivers\peripheral\prot/cy_prot.c ****             {
 2004              		.loc 1 820 0 discriminator 2
 2005 00a8 FB68     		ldr	r3, [r7, #12]
 2006 00aa 0133     		adds	r3, r3, #1
 2007 00ac FB60     		str	r3, [r7, #12]
 2008              	.L132:
 820:Generated_Source\PSoC6\pdl\drivers\peripheral\prot/cy_prot.c ****             {
 2009              		.loc 1 820 0 is_stmt 0 discriminator 1
 2010 00ae FB68     		ldr	r3, [r7, #12]
 2011 00b0 032B     		cmp	r3, #3
 2012 00b2 CED9     		bls	.L136
 837:Generated_Source\PSoC6\pdl\drivers\peripheral\prot/cy_prot.c ****             }
 838:Generated_Source\PSoC6\pdl\drivers\peripheral\prot/cy_prot.c ****             
 839:Generated_Source\PSoC6\pdl\drivers\peripheral\prot/cy_prot.c ****             /* Update the attributes register */
 840:Generated_Source\PSoC6\pdl\drivers\peripheral\prot/cy_prot.c ****             reg[regIdx] = attReg;
 2013              		.loc 1 840 0 is_stmt 1
 2014 00b4 3B69     		ldr	r3, [r7, #16]
 2015 00b6 9B00     		lsls	r3, r3, #2
 2016 00b8 7A68     		ldr	r2, [r7, #4]
 2017 00ba 1344     		add	r3, r3, r2
 2018 00bc 7A69     		ldr	r2, [r7, #20]
 2019 00be 1A60     		str	r2, [r3]
 841:Generated_Source\PSoC6\pdl\drivers\peripheral\prot/cy_prot.c **** 
 842:Generated_Source\PSoC6\pdl\drivers\peripheral\prot/cy_prot.c ****             /* Check the result */
 843:Generated_Source\PSoC6\pdl\drivers\peripheral\prot/cy_prot.c ****             if ((0UL == regIdx) && 
ARM GAS  C:\Users\tmj32\AppData\Local\Temp\cc1bAzcK.s 			page 52


 2020              		.loc 1 843 0
 2021 00c0 3B69     		ldr	r3, [r7, #16]
 2022 00c2 002B     		cmp	r3, #0
 2023 00c4 0DD1     		bne	.L137
 844:Generated_Source\PSoC6\pdl\drivers\peripheral\prot/cy_prot.c ****                 ((reg[regIdx] & PROT_PERI_PPU_PROG_PC1_PC3_MASK) != (attReg & PROT_PERI_PPU_PROG_PC
 2024              		.loc 1 844 0 discriminator 1
 2025 00c6 3B69     		ldr	r3, [r7, #16]
 2026 00c8 9B00     		lsls	r3, r3, #2
 2027 00ca 7A68     		ldr	r2, [r7, #4]
 2028 00cc 1344     		add	r3, r3, r2
 2029 00ce 1A68     		ldr	r2, [r3]
 2030 00d0 7B69     		ldr	r3, [r7, #20]
 2031 00d2 5340     		eors	r3, r3, r2
 2032 00d4 23F01F03 		bic	r3, r3, #31
 843:Generated_Source\PSoC6\pdl\drivers\peripheral\prot/cy_prot.c ****                 ((reg[regIdx] & PROT_PERI_PPU_PROG_PC1_PC3_MASK) != (attReg & PROT_PERI_PPU_PROG_PC
 2033              		.loc 1 843 0 discriminator 1
 2034 00d8 002B     		cmp	r3, #0
 2035 00da 02D0     		beq	.L137
 845:Generated_Source\PSoC6\pdl\drivers\peripheral\prot/cy_prot.c ****             {
 846:Generated_Source\PSoC6\pdl\drivers\peripheral\prot/cy_prot.c ****                 status = CY_PROT_FAILURE;
 2036              		.loc 1 846 0
 2037 00dc 0F4B     		ldr	r3, .L142+8
 2038 00de FB61     		str	r3, [r7, #28]
 2039 00e0 09E0     		b	.L138
 2040              	.L137:
 847:Generated_Source\PSoC6\pdl\drivers\peripheral\prot/cy_prot.c ****             }
 848:Generated_Source\PSoC6\pdl\drivers\peripheral\prot/cy_prot.c ****             else if (reg[regIdx] != attReg)
 2041              		.loc 1 848 0
 2042 00e2 3B69     		ldr	r3, [r7, #16]
 2043 00e4 9B00     		lsls	r3, r3, #2
 2044 00e6 7A68     		ldr	r2, [r7, #4]
 2045 00e8 1344     		add	r3, r3, r2
 2046 00ea 1A68     		ldr	r2, [r3]
 2047 00ec 7B69     		ldr	r3, [r7, #20]
 2048 00ee 9A42     		cmp	r2, r3
 2049 00f0 01D0     		beq	.L138
 849:Generated_Source\PSoC6\pdl\drivers\peripheral\prot/cy_prot.c ****             {
 850:Generated_Source\PSoC6\pdl\drivers\peripheral\prot/cy_prot.c ****                 status = CY_PROT_FAILURE;
 2050              		.loc 1 850 0
 2051 00f2 0A4B     		ldr	r3, .L142+8
 2052 00f4 FB61     		str	r3, [r7, #28]
 2053              	.L138:
 810:Generated_Source\PSoC6\pdl\drivers\peripheral\prot/cy_prot.c ****         {
 2054              		.loc 1 810 0 discriminator 2
 2055 00f6 3B69     		ldr	r3, [r7, #16]
 2056 00f8 0133     		adds	r3, r3, #1
 2057 00fa 3B61     		str	r3, [r7, #16]
 2058              	.L130:
 810:Generated_Source\PSoC6\pdl\drivers\peripheral\prot/cy_prot.c ****         {
 2059              		.loc 1 810 0 is_stmt 0 discriminator 1
 2060 00fc 3B69     		ldr	r3, [r7, #16]
 2061 00fe 032B     		cmp	r3, #3
 2062 0100 9BD9     		bls	.L139
 2063 0102 00E0     		b	.L129
 2064              	.L141:
 814:Generated_Source\PSoC6\pdl\drivers\peripheral\prot/cy_prot.c ****             }
 2065              		.loc 1 814 0 is_stmt 1
ARM GAS  C:\Users\tmj32\AppData\Local\Temp\cc1bAzcK.s 			page 53


 2066 0104 00BF     		nop
 2067              	.L129:
 2068              	.LBE2:
 851:Generated_Source\PSoC6\pdl\drivers\peripheral\prot/cy_prot.c ****             }
 852:Generated_Source\PSoC6\pdl\drivers\peripheral\prot/cy_prot.c ****             else
 853:Generated_Source\PSoC6\pdl\drivers\peripheral\prot/cy_prot.c ****             {
 854:Generated_Source\PSoC6\pdl\drivers\peripheral\prot/cy_prot.c ****                 /* CY_PROT_SUCCESS */
 855:Generated_Source\PSoC6\pdl\drivers\peripheral\prot/cy_prot.c ****             }
 856:Generated_Source\PSoC6\pdl\drivers\peripheral\prot/cy_prot.c ****         }
 857:Generated_Source\PSoC6\pdl\drivers\peripheral\prot/cy_prot.c ****     }
 858:Generated_Source\PSoC6\pdl\drivers\peripheral\prot/cy_prot.c **** 
 859:Generated_Source\PSoC6\pdl\drivers\peripheral\prot/cy_prot.c ****     return status;
 2069              		.loc 1 859 0
 2070 0106 FB69     		ldr	r3, [r7, #28]
 860:Generated_Source\PSoC6\pdl\drivers\peripheral\prot/cy_prot.c **** }
 2071              		.loc 1 860 0
 2072 0108 1846     		mov	r0, r3
 2073 010a 2437     		adds	r7, r7, #36
 2074              		.cfi_def_cfa_offset 4
 2075 010c BD46     		mov	sp, r7
 2076              		.cfi_def_cfa_register 13
 2077              		@ sp needed
 2078 010e 5DF8047B 		ldr	r7, [sp], #4
 2079              		.cfi_restore 7
 2080              		.cfi_def_cfa_offset 0
 2081 0112 7047     		bx	lr
 2082              	.L143:
 2083              		.align	2
 2084              	.L142:
 2085 0114 0200C200 		.word	12713986
 2086 0118 00000000 		.word	cy_device
 2087 011c 0300C200 		.word	12713987
 2088              		.cfi_endproc
 2089              	.LFE147:
 2090              		.size	Prot_ConfigPpuAtt, .-Prot_ConfigPpuAtt
 2091              		.section	.text.Cy_Prot_ConfigPpuProgMasterAtt,"ax",%progbits
 2092              		.align	2
 2093              		.global	Cy_Prot_ConfigPpuProgMasterAtt
 2094              		.thumb
 2095              		.thumb_func
 2096              		.type	Cy_Prot_ConfigPpuProgMasterAtt, %function
 2097              	Cy_Prot_ConfigPpuProgMasterAtt:
 2098              	.LFB148:
 861:Generated_Source\PSoC6\pdl\drivers\peripheral\prot/cy_prot.c **** 
 862:Generated_Source\PSoC6\pdl\drivers\peripheral\prot/cy_prot.c **** 
 863:Generated_Source\PSoC6\pdl\drivers\peripheral\prot/cy_prot.c **** /*******************************************************************************
 864:Generated_Source\PSoC6\pdl\drivers\peripheral\prot/cy_prot.c **** * Function Name: Cy_Prot_ConfigPpuProgMasterAtt
 865:Generated_Source\PSoC6\pdl\drivers\peripheral\prot/cy_prot.c **** ****************************************************************************//**
 866:Generated_Source\PSoC6\pdl\drivers\peripheral\prot/cy_prot.c **** *
 867:Generated_Source\PSoC6\pdl\drivers\peripheral\prot/cy_prot.c **** * Configures the protection-structure attributes of the 
 868:Generated_Source\PSoC6\pdl\drivers\peripheral\prot/cy_prot.c **** * Programmable Peripheral Protection Unit (PPU PROG) master. 
 869:Generated_Source\PSoC6\pdl\drivers\peripheral\prot/cy_prot.c **** *
 870:Generated_Source\PSoC6\pdl\drivers\peripheral\prot/cy_prot.c **** * This function configures the master structure governing the corresponding slave
 871:Generated_Source\PSoC6\pdl\drivers\peripheral\prot/cy_prot.c **** * structure pair. It is a mechanism to protect the slave PPU PROG structure.
 872:Generated_Source\PSoC6\pdl\drivers\peripheral\prot/cy_prot.c **** * The memory location of the slave structure is known, so the address, regionSize, and
 873:Generated_Source\PSoC6\pdl\drivers\peripheral\prot/cy_prot.c **** * sub-regions of the configuration structure are not applicable.
 874:Generated_Source\PSoC6\pdl\drivers\peripheral\prot/cy_prot.c **** *
ARM GAS  C:\Users\tmj32\AppData\Local\Temp\cc1bAzcK.s 			page 54


 875:Generated_Source\PSoC6\pdl\drivers\peripheral\prot/cy_prot.c **** * \note This function is applicable for CPUSS ver_2 only.
 876:Generated_Source\PSoC6\pdl\drivers\peripheral\prot/cy_prot.c **** *
 877:Generated_Source\PSoC6\pdl\drivers\peripheral\prot/cy_prot.c **** * \param base
 878:Generated_Source\PSoC6\pdl\drivers\peripheral\prot/cy_prot.c **** * The register base address of the protection structure is being configured.
 879:Generated_Source\PSoC6\pdl\drivers\peripheral\prot/cy_prot.c **** *
 880:Generated_Source\PSoC6\pdl\drivers\peripheral\prot/cy_prot.c **** * \param pcMask
 881:Generated_Source\PSoC6\pdl\drivers\peripheral\prot/cy_prot.c **** * The protection context mask. This is a 16-bit value of the allowed contexts, 
 882:Generated_Source\PSoC6\pdl\drivers\peripheral\prot/cy_prot.c **** * it is an OR'ed (|) field of the * provided defines in cy_prot.h. 
 883:Generated_Source\PSoC6\pdl\drivers\peripheral\prot/cy_prot.c **** * For example: (CY_PROT_PCMASK1 | CY_PROT_PCMASK3 | CY_PROT_PCMASK4).
 884:Generated_Source\PSoC6\pdl\drivers\peripheral\prot/cy_prot.c **** * \note The function accepts pcMask values from CY_PROT_PCMASK1 to CY_PROT_PCMASK15. 
 885:Generated_Source\PSoC6\pdl\drivers\peripheral\prot/cy_prot.c **** * But each device has its own number of available protection contexts. 
 886:Generated_Source\PSoC6\pdl\drivers\peripheral\prot/cy_prot.c **** * That number is defined by PERI_PC_NR in the config file.
 887:Generated_Source\PSoC6\pdl\drivers\peripheral\prot/cy_prot.c **** *
 888:Generated_Source\PSoC6\pdl\drivers\peripheral\prot/cy_prot.c **** * \param userPermission
 889:Generated_Source\PSoC6\pdl\drivers\peripheral\prot/cy_prot.c **** * The user permission setting. The CY_PROT_PERM_R or CY_PROT_PERM_RW values 
 890:Generated_Source\PSoC6\pdl\drivers\peripheral\prot/cy_prot.c **** * are valid for the master.
 891:Generated_Source\PSoC6\pdl\drivers\peripheral\prot/cy_prot.c **** *
 892:Generated_Source\PSoC6\pdl\drivers\peripheral\prot/cy_prot.c **** * \param privPermission
 893:Generated_Source\PSoC6\pdl\drivers\peripheral\prot/cy_prot.c **** * The privileged permission setting. CY_PROT_PERM_R or CY_PROT_PERM_RW values 
 894:Generated_Source\PSoC6\pdl\drivers\peripheral\prot/cy_prot.c **** * are valid for the master.
 895:Generated_Source\PSoC6\pdl\drivers\peripheral\prot/cy_prot.c **** *
 896:Generated_Source\PSoC6\pdl\drivers\peripheral\prot/cy_prot.c **** * \param secure
 897:Generated_Source\PSoC6\pdl\drivers\peripheral\prot/cy_prot.c **** * The secure flag.
 898:Generated_Source\PSoC6\pdl\drivers\peripheral\prot/cy_prot.c **** * 
 899:Generated_Source\PSoC6\pdl\drivers\peripheral\prot/cy_prot.c **** * \return
 900:Generated_Source\PSoC6\pdl\drivers\peripheral\prot/cy_prot.c **** * The status of the function call.
 901:Generated_Source\PSoC6\pdl\drivers\peripheral\prot/cy_prot.c **** *
 902:Generated_Source\PSoC6\pdl\drivers\peripheral\prot/cy_prot.c **** *   Status              | Description
 903:Generated_Source\PSoC6\pdl\drivers\peripheral\prot/cy_prot.c **** * ----------------------| ---------------------------------------
 904:Generated_Source\PSoC6\pdl\drivers\peripheral\prot/cy_prot.c **** * CY_PROT_SUCCESS       | The attributes were set up.
 905:Generated_Source\PSoC6\pdl\drivers\peripheral\prot/cy_prot.c **** * CY_PROT_FAILURE       | The attributes were not set up because the structure is possibly locked.
 906:Generated_Source\PSoC6\pdl\drivers\peripheral\prot/cy_prot.c **** * CY_PROT_INVALID_STATE | The function was called on the device with an unsupported PERI HW version
 907:Generated_Source\PSoC6\pdl\drivers\peripheral\prot/cy_prot.c **** *
 908:Generated_Source\PSoC6\pdl\drivers\peripheral\prot/cy_prot.c **** * \note Only the user's/privileged Write permissions are configurable. The 
 909:Generated_Source\PSoC6\pdl\drivers\peripheral\prot/cy_prot.c **** * Read permissions are read-only and cannot be configured.
 910:Generated_Source\PSoC6\pdl\drivers\peripheral\prot/cy_prot.c **** *
 911:Generated_Source\PSoC6\pdl\drivers\peripheral\prot/cy_prot.c **** * \note PC0 accesses are read-only and are always enabled. 
 912:Generated_Source\PSoC6\pdl\drivers\peripheral\prot/cy_prot.c **** *
 913:Generated_Source\PSoC6\pdl\drivers\peripheral\prot/cy_prot.c **** * \funcusage
 914:Generated_Source\PSoC6\pdl\drivers\peripheral\prot/cy_prot.c **** * \snippet prot/1.20/snippet/main.c snippet_Cy_Prot_ConfigPpuProgMasterAtt
 915:Generated_Source\PSoC6\pdl\drivers\peripheral\prot/cy_prot.c **** *
 916:Generated_Source\PSoC6\pdl\drivers\peripheral\prot/cy_prot.c **** *******************************************************************************/
 917:Generated_Source\PSoC6\pdl\drivers\peripheral\prot/cy_prot.c **** cy_en_prot_status_t Cy_Prot_ConfigPpuProgMasterAtt(PERI_MS_PPU_PR_Type* base, uint16_t pcMask, 
 918:Generated_Source\PSoC6\pdl\drivers\peripheral\prot/cy_prot.c ****                                        cy_en_prot_perm_t userPermission, cy_en_prot_perm_t privPerm
 919:Generated_Source\PSoC6\pdl\drivers\peripheral\prot/cy_prot.c **** {   
 2099              		.loc 1 919 0
 2100              		.cfi_startproc
 2101              		@ args = 4, pretend = 0, frame = 8
 2102              		@ frame_needed = 1, uses_anonymous_args = 0
 2103 0000 90B5     		push	{r4, r7, lr}
 2104              		.cfi_def_cfa_offset 12
 2105              		.cfi_offset 4, -12
 2106              		.cfi_offset 7, -8
 2107              		.cfi_offset 14, -4
 2108 0002 85B0     		sub	sp, sp, #20
 2109              		.cfi_def_cfa_offset 32
 2110 0004 02AF     		add	r7, sp, #8
ARM GAS  C:\Users\tmj32\AppData\Local\Temp\cc1bAzcK.s 			page 55


 2111              		.cfi_def_cfa 7, 24
 2112 0006 7860     		str	r0, [r7, #4]
 2113 0008 0846     		mov	r0, r1
 2114 000a 1146     		mov	r1, r2
 2115 000c 1A46     		mov	r2, r3
 2116 000e 0346     		mov	r3, r0	@ movhi
 2117 0010 7B80     		strh	r3, [r7, #2]	@ movhi
 2118 0012 0B46     		mov	r3, r1
 2119 0014 7B70     		strb	r3, [r7, #1]
 2120 0016 1346     		mov	r3, r2
 2121 0018 3B70     		strb	r3, [r7]
 920:Generated_Source\PSoC6\pdl\drivers\peripheral\prot/cy_prot.c ****     /* The parameter checks */
 921:Generated_Source\PSoC6\pdl\drivers\peripheral\prot/cy_prot.c ****     CY_ASSERT_L1(NULL != base);
 2122              		.loc 1 921 0
 2123 001a 7B68     		ldr	r3, [r7, #4]
 2124 001c 002B     		cmp	r3, #0
 2125 001e 04D1     		bne	.L145
 2126              		.loc 1 921 0 is_stmt 0 discriminator 1
 2127 0020 40F29931 		movw	r1, #921
 2128 0024 1448     		ldr	r0, .L149
 2129 0026 FFF7FEFF 		bl	Cy_SysLib_AssertFailed
 2130              	.L145:
 922:Generated_Source\PSoC6\pdl\drivers\peripheral\prot/cy_prot.c ****     CY_ASSERT_L3(CY_PROT_IS_PROG_MS_PERM_VALID(userPermission));
 2131              		.loc 1 922 0 is_stmt 1
 2132 002a 7B78     		ldrb	r3, [r7, #1]	@ zero_extendqisi2
 2133 002c 012B     		cmp	r3, #1
 2134 002e 07D0     		beq	.L146
 2135              		.loc 1 922 0 is_stmt 0 discriminator 1
 2136 0030 7B78     		ldrb	r3, [r7, #1]	@ zero_extendqisi2
 2137 0032 032B     		cmp	r3, #3
 2138 0034 04D0     		beq	.L146
 2139              		.loc 1 922 0 discriminator 2
 2140 0036 40F29A31 		movw	r1, #922
 2141 003a 0F48     		ldr	r0, .L149
 2142 003c FFF7FEFF 		bl	Cy_SysLib_AssertFailed
 2143              	.L146:
 923:Generated_Source\PSoC6\pdl\drivers\peripheral\prot/cy_prot.c ****     CY_ASSERT_L3(CY_PROT_IS_PROG_MS_PERM_VALID(privPermission));
 2144              		.loc 1 923 0 is_stmt 1
 2145 0040 3B78     		ldrb	r3, [r7]	@ zero_extendqisi2
 2146 0042 012B     		cmp	r3, #1
 2147 0044 07D0     		beq	.L147
 2148              		.loc 1 923 0 is_stmt 0 discriminator 1
 2149 0046 3B78     		ldrb	r3, [r7]	@ zero_extendqisi2
 2150 0048 032B     		cmp	r3, #3
 2151 004a 04D0     		beq	.L147
 2152              		.loc 1 923 0 discriminator 2
 2153 004c 40F29B31 		movw	r1, #923
 2154 0050 0948     		ldr	r0, .L149
 2155 0052 FFF7FEFF 		bl	Cy_SysLib_AssertFailed
 2156              	.L147:
 924:Generated_Source\PSoC6\pdl\drivers\peripheral\prot/cy_prot.c ****     
 925:Generated_Source\PSoC6\pdl\drivers\peripheral\prot/cy_prot.c ****     return (Prot_ConfigPpuAtt(PERI_MS_PPU_PR_MS_ATT(base), pcMask, userPermission, privPermission, 
 2157              		.loc 1 925 0 is_stmt 1
 2158 0056 7B68     		ldr	r3, [r7, #4]
 2159 0058 03F13000 		add	r0, r3, #48
 2160 005c 3C78     		ldrb	r4, [r7]	@ zero_extendqisi2
 2161 005e 7A78     		ldrb	r2, [r7, #1]	@ zero_extendqisi2
ARM GAS  C:\Users\tmj32\AppData\Local\Temp\cc1bAzcK.s 			page 56


 2162 0060 7988     		ldrh	r1, [r7, #2]
 2163 0062 3B7E     		ldrb	r3, [r7, #24]	@ zero_extendqisi2
 2164 0064 0093     		str	r3, [sp]
 2165 0066 2346     		mov	r3, r4
 2166 0068 FFF7FEFF 		bl	Prot_ConfigPpuAtt
 2167 006c 0346     		mov	r3, r0
 926:Generated_Source\PSoC6\pdl\drivers\peripheral\prot/cy_prot.c **** }
 2168              		.loc 1 926 0
 2169 006e 1846     		mov	r0, r3
 2170 0070 0C37     		adds	r7, r7, #12
 2171              		.cfi_def_cfa_offset 12
 2172 0072 BD46     		mov	sp, r7
 2173              		.cfi_def_cfa_register 13
 2174              		@ sp needed
 2175 0074 90BD     		pop	{r4, r7, pc}
 2176              	.L150:
 2177 0076 00BF     		.align	2
 2178              	.L149:
 2179 0078 00000000 		.word	.LC0
 2180              		.cfi_endproc
 2181              	.LFE148:
 2182              		.size	Cy_Prot_ConfigPpuProgMasterAtt, .-Cy_Prot_ConfigPpuProgMasterAtt
 2183              		.section	.text.Cy_Prot_ConfigPpuProgSlaveAddr,"ax",%progbits
 2184              		.align	2
 2185              		.global	Cy_Prot_ConfigPpuProgSlaveAddr
 2186              		.thumb
 2187              		.thumb_func
 2188              		.type	Cy_Prot_ConfigPpuProgSlaveAddr, %function
 2189              	Cy_Prot_ConfigPpuProgSlaveAddr:
 2190              	.LFB149:
 927:Generated_Source\PSoC6\pdl\drivers\peripheral\prot/cy_prot.c **** 
 928:Generated_Source\PSoC6\pdl\drivers\peripheral\prot/cy_prot.c **** 
 929:Generated_Source\PSoC6\pdl\drivers\peripheral\prot/cy_prot.c **** /*******************************************************************************
 930:Generated_Source\PSoC6\pdl\drivers\peripheral\prot/cy_prot.c **** * Function Name: Cy_Prot_ConfigPpuProgSlaveAddr
 931:Generated_Source\PSoC6\pdl\drivers\peripheral\prot/cy_prot.c **** ****************************************************************************//**
 932:Generated_Source\PSoC6\pdl\drivers\peripheral\prot/cy_prot.c **** *
 933:Generated_Source\PSoC6\pdl\drivers\peripheral\prot/cy_prot.c **** * Configures the protection-structure address settings  of the 
 934:Generated_Source\PSoC6\pdl\drivers\peripheral\prot/cy_prot.c **** * Programmable Peripheral Protection Unit (PPU PROG) slave. 
 935:Generated_Source\PSoC6\pdl\drivers\peripheral\prot/cy_prot.c **** * 
 936:Generated_Source\PSoC6\pdl\drivers\peripheral\prot/cy_prot.c **** * This function configures the slave structure of the PPU PROG pair, which can 
 937:Generated_Source\PSoC6\pdl\drivers\peripheral\prot/cy_prot.c **** * protect any peripheral memory region in a device from an invalid bus-master 
 938:Generated_Source\PSoC6\pdl\drivers\peripheral\prot/cy_prot.c **** * access.
 939:Generated_Source\PSoC6\pdl\drivers\peripheral\prot/cy_prot.c **** *
 940:Generated_Source\PSoC6\pdl\drivers\peripheral\prot/cy_prot.c **** * \note This function is applicable for CPUSS ver_2 only.
 941:Generated_Source\PSoC6\pdl\drivers\peripheral\prot/cy_prot.c **** *
 942:Generated_Source\PSoC6\pdl\drivers\peripheral\prot/cy_prot.c **** * \param base
 943:Generated_Source\PSoC6\pdl\drivers\peripheral\prot/cy_prot.c **** * The register base address of the protection structure is being configured.
 944:Generated_Source\PSoC6\pdl\drivers\peripheral\prot/cy_prot.c **** * 
 945:Generated_Source\PSoC6\pdl\drivers\peripheral\prot/cy_prot.c **** * \param address
 946:Generated_Source\PSoC6\pdl\drivers\peripheral\prot/cy_prot.c **** * The address.
 947:Generated_Source\PSoC6\pdl\drivers\peripheral\prot/cy_prot.c **** * 
 948:Generated_Source\PSoC6\pdl\drivers\peripheral\prot/cy_prot.c **** * \param regionSize
 949:Generated_Source\PSoC6\pdl\drivers\peripheral\prot/cy_prot.c **** * The region size.
 950:Generated_Source\PSoC6\pdl\drivers\peripheral\prot/cy_prot.c **** * 
 951:Generated_Source\PSoC6\pdl\drivers\peripheral\prot/cy_prot.c **** * \return
 952:Generated_Source\PSoC6\pdl\drivers\peripheral\prot/cy_prot.c **** * The status of the function call.
 953:Generated_Source\PSoC6\pdl\drivers\peripheral\prot/cy_prot.c **** *
ARM GAS  C:\Users\tmj32\AppData\Local\Temp\cc1bAzcK.s 			page 57


 954:Generated_Source\PSoC6\pdl\drivers\peripheral\prot/cy_prot.c **** *   Status              | Description
 955:Generated_Source\PSoC6\pdl\drivers\peripheral\prot/cy_prot.c **** * ----------------------| ---------------------------------------
 956:Generated_Source\PSoC6\pdl\drivers\peripheral\prot/cy_prot.c **** * CY_PROT_SUCCESS       | The address settings were set up.
 957:Generated_Source\PSoC6\pdl\drivers\peripheral\prot/cy_prot.c **** * CY_PROT_FAILURE       | The address settings were not set up because the structure is possibly lo
 958:Generated_Source\PSoC6\pdl\drivers\peripheral\prot/cy_prot.c **** * CY_PROT_INVALID_STATE | The function was called on the device with an unsupported PERI HW version
 959:Generated_Source\PSoC6\pdl\drivers\peripheral\prot/cy_prot.c **** *
 960:Generated_Source\PSoC6\pdl\drivers\peripheral\prot/cy_prot.c **** * \note PC0 accesses are Read-only and are always enabled. 
 961:Generated_Source\PSoC6\pdl\drivers\peripheral\prot/cy_prot.c **** *
 962:Generated_Source\PSoC6\pdl\drivers\peripheral\prot/cy_prot.c **** * \funcusage
 963:Generated_Source\PSoC6\pdl\drivers\peripheral\prot/cy_prot.c **** * \ref Cy_Prot_ConfigPpuProgSlaveAtt
 964:Generated_Source\PSoC6\pdl\drivers\peripheral\prot/cy_prot.c **** *
 965:Generated_Source\PSoC6\pdl\drivers\peripheral\prot/cy_prot.c **** *******************************************************************************/
 966:Generated_Source\PSoC6\pdl\drivers\peripheral\prot/cy_prot.c **** cy_en_prot_status_t Cy_Prot_ConfigPpuProgSlaveAddr(PERI_MS_PPU_PR_Type* base, uint32_t address, 
 967:Generated_Source\PSoC6\pdl\drivers\peripheral\prot/cy_prot.c ****                                                                    cy_en_prot_size_t regionSize)
 968:Generated_Source\PSoC6\pdl\drivers\peripheral\prot/cy_prot.c **** {
 2191              		.loc 1 968 0
 2192              		.cfi_startproc
 2193              		@ args = 0, pretend = 0, frame = 24
 2194              		@ frame_needed = 1, uses_anonymous_args = 0
 2195 0000 80B5     		push	{r7, lr}
 2196              		.cfi_def_cfa_offset 8
 2197              		.cfi_offset 7, -8
 2198              		.cfi_offset 14, -4
 2199 0002 86B0     		sub	sp, sp, #24
 2200              		.cfi_def_cfa_offset 32
 2201 0004 00AF     		add	r7, sp, #0
 2202              		.cfi_def_cfa_register 7
 2203 0006 F860     		str	r0, [r7, #12]
 2204 0008 B960     		str	r1, [r7, #8]
 2205 000a 1346     		mov	r3, r2
 2206 000c FB71     		strb	r3, [r7, #7]
 969:Generated_Source\PSoC6\pdl\drivers\peripheral\prot/cy_prot.c ****     cy_en_prot_status_t status = CY_PROT_INVALID_STATE;
 2207              		.loc 1 969 0
 2208 000e 4D4B     		ldr	r3, .L159
 2209 0010 7B61     		str	r3, [r7, #20]
 970:Generated_Source\PSoC6\pdl\drivers\peripheral\prot/cy_prot.c ****     
 971:Generated_Source\PSoC6\pdl\drivers\peripheral\prot/cy_prot.c ****     /* The parameter checks */
 972:Generated_Source\PSoC6\pdl\drivers\peripheral\prot/cy_prot.c ****     CY_ASSERT_L1(NULL != base);
 2210              		.loc 1 972 0
 2211 0012 FB68     		ldr	r3, [r7, #12]
 2212 0014 002B     		cmp	r3, #0
 2213 0016 04D1     		bne	.L152
 2214              		.loc 1 972 0 is_stmt 0 discriminator 1
 2215 0018 4FF47371 		mov	r1, #972
 2216 001c 4A48     		ldr	r0, .L159+4
 2217 001e FFF7FEFF 		bl	Cy_SysLib_AssertFailed
 2218              	.L152:
 973:Generated_Source\PSoC6\pdl\drivers\peripheral\prot/cy_prot.c ****     CY_ASSERT_L3(CY_PROT_IS_PPU_V2_SIZE_VALID(regionSize));
 2219              		.loc 1 973 0 is_stmt 1
 2220 0022 FB79     		ldrb	r3, [r7, #7]	@ zero_extendqisi2
 2221 0024 012B     		cmp	r3, #1
 2222 0026 5ED0     		beq	.L153
 2223              		.loc 1 973 0 is_stmt 0 discriminator 1
 2224 0028 FB79     		ldrb	r3, [r7, #7]	@ zero_extendqisi2
 2225 002a 022B     		cmp	r3, #2
 2226 002c 5BD0     		beq	.L153
 2227              		.loc 1 973 0 discriminator 2
ARM GAS  C:\Users\tmj32\AppData\Local\Temp\cc1bAzcK.s 			page 58


 2228 002e FB79     		ldrb	r3, [r7, #7]	@ zero_extendqisi2
 2229 0030 032B     		cmp	r3, #3
 2230 0032 58D0     		beq	.L153
 2231              		.loc 1 973 0 discriminator 3
 2232 0034 FB79     		ldrb	r3, [r7, #7]	@ zero_extendqisi2
 2233 0036 042B     		cmp	r3, #4
 2234 0038 55D0     		beq	.L153
 2235              		.loc 1 973 0 discriminator 4
 2236 003a FB79     		ldrb	r3, [r7, #7]	@ zero_extendqisi2
 2237 003c 052B     		cmp	r3, #5
 2238 003e 52D0     		beq	.L153
 2239              		.loc 1 973 0 discriminator 5
 2240 0040 FB79     		ldrb	r3, [r7, #7]	@ zero_extendqisi2
 2241 0042 062B     		cmp	r3, #6
 2242 0044 4FD0     		beq	.L153
 2243              		.loc 1 973 0 discriminator 6
 2244 0046 FB79     		ldrb	r3, [r7, #7]	@ zero_extendqisi2
 2245 0048 072B     		cmp	r3, #7
 2246 004a 4CD0     		beq	.L153
 2247              		.loc 1 973 0 discriminator 7
 2248 004c FB79     		ldrb	r3, [r7, #7]	@ zero_extendqisi2
 2249 004e 082B     		cmp	r3, #8
 2250 0050 49D0     		beq	.L153
 2251              		.loc 1 973 0 discriminator 8
 2252 0052 FB79     		ldrb	r3, [r7, #7]	@ zero_extendqisi2
 2253 0054 092B     		cmp	r3, #9
 2254 0056 46D0     		beq	.L153
 2255              		.loc 1 973 0 discriminator 9
 2256 0058 FB79     		ldrb	r3, [r7, #7]	@ zero_extendqisi2
 2257 005a 0A2B     		cmp	r3, #10
 2258 005c 43D0     		beq	.L153
 2259              		.loc 1 973 0 discriminator 10
 2260 005e FB79     		ldrb	r3, [r7, #7]	@ zero_extendqisi2
 2261 0060 0B2B     		cmp	r3, #11
 2262 0062 40D0     		beq	.L153
 2263              		.loc 1 973 0 discriminator 11
 2264 0064 FB79     		ldrb	r3, [r7, #7]	@ zero_extendqisi2
 2265 0066 0C2B     		cmp	r3, #12
 2266 0068 3DD0     		beq	.L153
 2267              		.loc 1 973 0 discriminator 12
 2268 006a FB79     		ldrb	r3, [r7, #7]	@ zero_extendqisi2
 2269 006c 0D2B     		cmp	r3, #13
 2270 006e 3AD0     		beq	.L153
 2271              		.loc 1 973 0 discriminator 13
 2272 0070 FB79     		ldrb	r3, [r7, #7]	@ zero_extendqisi2
 2273 0072 0E2B     		cmp	r3, #14
 2274 0074 37D0     		beq	.L153
 2275              		.loc 1 973 0 discriminator 14
 2276 0076 FB79     		ldrb	r3, [r7, #7]	@ zero_extendqisi2
 2277 0078 0F2B     		cmp	r3, #15
 2278 007a 34D0     		beq	.L153
 2279              		.loc 1 973 0 discriminator 15
 2280 007c FB79     		ldrb	r3, [r7, #7]	@ zero_extendqisi2
 2281 007e 102B     		cmp	r3, #16
 2282 0080 31D0     		beq	.L153
 2283              		.loc 1 973 0 discriminator 16
 2284 0082 FB79     		ldrb	r3, [r7, #7]	@ zero_extendqisi2
ARM GAS  C:\Users\tmj32\AppData\Local\Temp\cc1bAzcK.s 			page 59


 2285 0084 112B     		cmp	r3, #17
 2286 0086 2ED0     		beq	.L153
 2287              		.loc 1 973 0 discriminator 17
 2288 0088 FB79     		ldrb	r3, [r7, #7]	@ zero_extendqisi2
 2289 008a 122B     		cmp	r3, #18
 2290 008c 2BD0     		beq	.L153
 2291              		.loc 1 973 0 discriminator 18
 2292 008e FB79     		ldrb	r3, [r7, #7]	@ zero_extendqisi2
 2293 0090 132B     		cmp	r3, #19
 2294 0092 28D0     		beq	.L153
 2295              		.loc 1 973 0 discriminator 19
 2296 0094 FB79     		ldrb	r3, [r7, #7]	@ zero_extendqisi2
 2297 0096 142B     		cmp	r3, #20
 2298 0098 25D0     		beq	.L153
 2299              		.loc 1 973 0 discriminator 20
 2300 009a FB79     		ldrb	r3, [r7, #7]	@ zero_extendqisi2
 2301 009c 152B     		cmp	r3, #21
 2302 009e 22D0     		beq	.L153
 2303              		.loc 1 973 0 discriminator 21
 2304 00a0 FB79     		ldrb	r3, [r7, #7]	@ zero_extendqisi2
 2305 00a2 162B     		cmp	r3, #22
 2306 00a4 1FD0     		beq	.L153
 2307              		.loc 1 973 0 discriminator 22
 2308 00a6 FB79     		ldrb	r3, [r7, #7]	@ zero_extendqisi2
 2309 00a8 172B     		cmp	r3, #23
 2310 00aa 1CD0     		beq	.L153
 2311              		.loc 1 973 0 discriminator 23
 2312 00ac FB79     		ldrb	r3, [r7, #7]	@ zero_extendqisi2
 2313 00ae 182B     		cmp	r3, #24
 2314 00b0 19D0     		beq	.L153
 2315              		.loc 1 973 0 discriminator 24
 2316 00b2 FB79     		ldrb	r3, [r7, #7]	@ zero_extendqisi2
 2317 00b4 192B     		cmp	r3, #25
 2318 00b6 16D0     		beq	.L153
 2319              		.loc 1 973 0 discriminator 25
 2320 00b8 FB79     		ldrb	r3, [r7, #7]	@ zero_extendqisi2
 2321 00ba 1A2B     		cmp	r3, #26
 2322 00bc 13D0     		beq	.L153
 2323              		.loc 1 973 0 discriminator 26
 2324 00be FB79     		ldrb	r3, [r7, #7]	@ zero_extendqisi2
 2325 00c0 1B2B     		cmp	r3, #27
 2326 00c2 10D0     		beq	.L153
 2327              		.loc 1 973 0 discriminator 27
 2328 00c4 FB79     		ldrb	r3, [r7, #7]	@ zero_extendqisi2
 2329 00c6 1C2B     		cmp	r3, #28
 2330 00c8 0DD0     		beq	.L153
 2331              		.loc 1 973 0 discriminator 28
 2332 00ca FB79     		ldrb	r3, [r7, #7]	@ zero_extendqisi2
 2333 00cc 1D2B     		cmp	r3, #29
 2334 00ce 0AD0     		beq	.L153
 2335              		.loc 1 973 0 discriminator 29
 2336 00d0 FB79     		ldrb	r3, [r7, #7]	@ zero_extendqisi2
 2337 00d2 1E2B     		cmp	r3, #30
 2338 00d4 07D0     		beq	.L153
 2339              		.loc 1 973 0 discriminator 30
 2340 00d6 FB79     		ldrb	r3, [r7, #7]	@ zero_extendqisi2
 2341 00d8 1F2B     		cmp	r3, #31
ARM GAS  C:\Users\tmj32\AppData\Local\Temp\cc1bAzcK.s 			page 60


 2342 00da 04D0     		beq	.L153
 2343              		.loc 1 973 0 discriminator 31
 2344 00dc 40F2CD31 		movw	r1, #973
 2345 00e0 1948     		ldr	r0, .L159+4
 2346 00e2 FFF7FEFF 		bl	Cy_SysLib_AssertFailed
 2347              	.L153:
 974:Generated_Source\PSoC6\pdl\drivers\peripheral\prot/cy_prot.c ****     
 975:Generated_Source\PSoC6\pdl\drivers\peripheral\prot/cy_prot.c ****     if (!CY_PERI_V1)
 2348              		.loc 1 975 0 is_stmt 1
 2349 00e6 194B     		ldr	r3, .L159+8
 2350 00e8 1B68     		ldr	r3, [r3]
 2351 00ea 93F82F30 		ldrb	r3, [r3, #47]	@ zero_extendqisi2
 2352 00ee 012B     		cmp	r3, #1
 2353 00f0 22D0     		beq	.L154
 976:Generated_Source\PSoC6\pdl\drivers\peripheral\prot/cy_prot.c ****     {
 977:Generated_Source\PSoC6\pdl\drivers\peripheral\prot/cy_prot.c ****         PERI_MS_PPU_PR_SL_ADDR(base) = address & PERI_MS_PPU_PR_V2_SL_ADDR_ADDR30_Msk;
 2354              		.loc 1 977 0
 2355 00f2 BB68     		ldr	r3, [r7, #8]
 2356 00f4 23F00302 		bic	r2, r3, #3
 2357 00f8 FB68     		ldr	r3, [r7, #12]
 2358 00fa 1A60     		str	r2, [r3]
 978:Generated_Source\PSoC6\pdl\drivers\peripheral\prot/cy_prot.c ****         PERI_MS_PPU_PR_SL_SIZE(base) = _CLR_SET_FLD32U((PERI_MS_PPU_PR_SL_SIZE(base)), PERI_MS_PPU_
 2359              		.loc 1 978 0
 2360 00fc FB68     		ldr	r3, [r7, #12]
 2361 00fe 5B68     		ldr	r3, [r3, #4]
 2362 0100 23F0F852 		bic	r2, r3, #520093696
 2363 0104 FB79     		ldrb	r3, [r7, #7]	@ zero_extendqisi2
 2364 0106 1B06     		lsls	r3, r3, #24
 2365 0108 03F0F853 		and	r3, r3, #520093696
 2366 010c 1A43     		orrs	r2, r2, r3
 2367 010e FB68     		ldr	r3, [r7, #12]
 2368 0110 5A60     		str	r2, [r3, #4]
 979:Generated_Source\PSoC6\pdl\drivers\peripheral\prot/cy_prot.c ****         
 980:Generated_Source\PSoC6\pdl\drivers\peripheral\prot/cy_prot.c ****         status = ((PERI_MS_PPU_PR_SL_ADDR(base) != (address & PERI_MS_PPU_PR_V2_SL_ADDR_ADDR30_Msk)
 2369              		.loc 1 980 0
 2370 0112 FB68     		ldr	r3, [r7, #12]
 2371 0114 1A68     		ldr	r2, [r3]
 2372 0116 BB68     		ldr	r3, [r7, #8]
 2373 0118 23F00303 		bic	r3, r3, #3
 2374 011c 9A42     		cmp	r2, r3
 2375 011e 07D1     		bne	.L155
 981:Generated_Source\PSoC6\pdl\drivers\peripheral\prot/cy_prot.c ****                   (_FLD2VAL(PERI_MS_PPU_PR_V2_SL_SIZE_REGION_SIZE, PERI_MS_PPU_PR_SL_SIZE(base)) !=
 2376              		.loc 1 981 0 discriminator 2
 2377 0120 FB68     		ldr	r3, [r7, #12]
 2378 0122 5B68     		ldr	r3, [r3, #4]
 2379 0124 03F0F853 		and	r3, r3, #520093696
 2380 0128 1A0E     		lsrs	r2, r3, #24
 2381 012a FB79     		ldrb	r3, [r7, #7]	@ zero_extendqisi2
 980:Generated_Source\PSoC6\pdl\drivers\peripheral\prot/cy_prot.c ****                   (_FLD2VAL(PERI_MS_PPU_PR_V2_SL_SIZE_REGION_SIZE, PERI_MS_PPU_PR_SL_SIZE(base)) !=
 2382              		.loc 1 980 0 discriminator 2
 2383 012c 9A42     		cmp	r2, r3
 2384 012e 01D0     		beq	.L156
 2385              	.L155:
 980:Generated_Source\PSoC6\pdl\drivers\peripheral\prot/cy_prot.c ****                   (_FLD2VAL(PERI_MS_PPU_PR_V2_SL_SIZE_REGION_SIZE, PERI_MS_PPU_PR_SL_SIZE(base)) !=
 2386              		.loc 1 980 0 is_stmt 0 discriminator 3
 2387 0130 074B     		ldr	r3, .L159+12
 2388 0132 00E0     		b	.L157
ARM GAS  C:\Users\tmj32\AppData\Local\Temp\cc1bAzcK.s 			page 61


 2389              	.L156:
 980:Generated_Source\PSoC6\pdl\drivers\peripheral\prot/cy_prot.c ****                   (_FLD2VAL(PERI_MS_PPU_PR_V2_SL_SIZE_REGION_SIZE, PERI_MS_PPU_PR_SL_SIZE(base)) !=
 2390              		.loc 1 980 0 discriminator 4
 2391 0134 0023     		movs	r3, #0
 2392              	.L157:
 980:Generated_Source\PSoC6\pdl\drivers\peripheral\prot/cy_prot.c ****                   (_FLD2VAL(PERI_MS_PPU_PR_V2_SL_SIZE_REGION_SIZE, PERI_MS_PPU_PR_SL_SIZE(base)) !=
 2393              		.loc 1 980 0 discriminator 6
 2394 0136 7B61     		str	r3, [r7, #20]
 2395              	.L154:
 982:Generated_Source\PSoC6\pdl\drivers\peripheral\prot/cy_prot.c ****                    CY_PROT_FAILURE : CY_PROT_SUCCESS;
 983:Generated_Source\PSoC6\pdl\drivers\peripheral\prot/cy_prot.c ****     }
 984:Generated_Source\PSoC6\pdl\drivers\peripheral\prot/cy_prot.c ****     
 985:Generated_Source\PSoC6\pdl\drivers\peripheral\prot/cy_prot.c ****     return status;
 2396              		.loc 1 985 0 is_stmt 1
 2397 0138 7B69     		ldr	r3, [r7, #20]
 986:Generated_Source\PSoC6\pdl\drivers\peripheral\prot/cy_prot.c **** }
 2398              		.loc 1 986 0
 2399 013a 1846     		mov	r0, r3
 2400 013c 1837     		adds	r7, r7, #24
 2401              		.cfi_def_cfa_offset 8
 2402 013e BD46     		mov	sp, r7
 2403              		.cfi_def_cfa_register 13
 2404              		@ sp needed
 2405 0140 80BD     		pop	{r7, pc}
 2406              	.L160:
 2407 0142 00BF     		.align	2
 2408              	.L159:
 2409 0144 0200C200 		.word	12713986
 2410 0148 00000000 		.word	.LC0
 2411 014c 00000000 		.word	cy_device
 2412 0150 0300C200 		.word	12713987
 2413              		.cfi_endproc
 2414              	.LFE149:
 2415              		.size	Cy_Prot_ConfigPpuProgSlaveAddr, .-Cy_Prot_ConfigPpuProgSlaveAddr
 2416              		.section	.text.Cy_Prot_ConfigPpuProgSlaveAtt,"ax",%progbits
 2417              		.align	2
 2418              		.global	Cy_Prot_ConfigPpuProgSlaveAtt
 2419              		.thumb
 2420              		.thumb_func
 2421              		.type	Cy_Prot_ConfigPpuProgSlaveAtt, %function
 2422              	Cy_Prot_ConfigPpuProgSlaveAtt:
 2423              	.LFB150:
 987:Generated_Source\PSoC6\pdl\drivers\peripheral\prot/cy_prot.c **** 
 988:Generated_Source\PSoC6\pdl\drivers\peripheral\prot/cy_prot.c **** 
 989:Generated_Source\PSoC6\pdl\drivers\peripheral\prot/cy_prot.c **** /*******************************************************************************
 990:Generated_Source\PSoC6\pdl\drivers\peripheral\prot/cy_prot.c **** * Function Name: Cy_Prot_ConfigPpuProgSlaveAtt
 991:Generated_Source\PSoC6\pdl\drivers\peripheral\prot/cy_prot.c **** ****************************************************************************//**
 992:Generated_Source\PSoC6\pdl\drivers\peripheral\prot/cy_prot.c **** *
 993:Generated_Source\PSoC6\pdl\drivers\peripheral\prot/cy_prot.c **** * Configures the protection structure with its protection attributes of the 
 994:Generated_Source\PSoC6\pdl\drivers\peripheral\prot/cy_prot.c **** * Programmable Peripheral Protection Unit (PPU PROG) slave. 
 995:Generated_Source\PSoC6\pdl\drivers\peripheral\prot/cy_prot.c **** * 
 996:Generated_Source\PSoC6\pdl\drivers\peripheral\prot/cy_prot.c **** * This function configures the slave structure of the PPU PROG pair, which can 
 997:Generated_Source\PSoC6\pdl\drivers\peripheral\prot/cy_prot.c **** * protect any peripheral memory region in a device from invalid bus-master 
 998:Generated_Source\PSoC6\pdl\drivers\peripheral\prot/cy_prot.c **** * access.
 999:Generated_Source\PSoC6\pdl\drivers\peripheral\prot/cy_prot.c **** *
1000:Generated_Source\PSoC6\pdl\drivers\peripheral\prot/cy_prot.c **** * \note This function is applicable for CPUSS ver_2 only.
1001:Generated_Source\PSoC6\pdl\drivers\peripheral\prot/cy_prot.c **** *
ARM GAS  C:\Users\tmj32\AppData\Local\Temp\cc1bAzcK.s 			page 62


1002:Generated_Source\PSoC6\pdl\drivers\peripheral\prot/cy_prot.c **** * \param base
1003:Generated_Source\PSoC6\pdl\drivers\peripheral\prot/cy_prot.c **** * The register base address of the protection structure is being configured.
1004:Generated_Source\PSoC6\pdl\drivers\peripheral\prot/cy_prot.c **** *
1005:Generated_Source\PSoC6\pdl\drivers\peripheral\prot/cy_prot.c **** * \param pcMask
1006:Generated_Source\PSoC6\pdl\drivers\peripheral\prot/cy_prot.c **** * The protection context mask. This is a 16-bit value of the allowed contexts, 
1007:Generated_Source\PSoC6\pdl\drivers\peripheral\prot/cy_prot.c **** * it is an OR'ed (|) field of the * provided defines in cy_prot.h. 
1008:Generated_Source\PSoC6\pdl\drivers\peripheral\prot/cy_prot.c **** * For example: (CY_PROT_PCMASK1 | CY_PROT_PCMASK3 | CY_PROT_PCMASK4).
1009:Generated_Source\PSoC6\pdl\drivers\peripheral\prot/cy_prot.c **** * \note The function accepts pcMask values from CY_PROT_PCMASK1 to CY_PROT_PCMASK15. 
1010:Generated_Source\PSoC6\pdl\drivers\peripheral\prot/cy_prot.c **** * But each device has its own number of available protection contexts. 
1011:Generated_Source\PSoC6\pdl\drivers\peripheral\prot/cy_prot.c **** * That number is defined by PERI_PC_NR in the config file.
1012:Generated_Source\PSoC6\pdl\drivers\peripheral\prot/cy_prot.c **** *
1013:Generated_Source\PSoC6\pdl\drivers\peripheral\prot/cy_prot.c **** * \param userPermission
1014:Generated_Source\PSoC6\pdl\drivers\peripheral\prot/cy_prot.c **** * The user permission setting.
1015:Generated_Source\PSoC6\pdl\drivers\peripheral\prot/cy_prot.c **** *
1016:Generated_Source\PSoC6\pdl\drivers\peripheral\prot/cy_prot.c **** * \param privPermission
1017:Generated_Source\PSoC6\pdl\drivers\peripheral\prot/cy_prot.c **** * The privileged permission setting.
1018:Generated_Source\PSoC6\pdl\drivers\peripheral\prot/cy_prot.c **** *
1019:Generated_Source\PSoC6\pdl\drivers\peripheral\prot/cy_prot.c **** * \param secure
1020:Generated_Source\PSoC6\pdl\drivers\peripheral\prot/cy_prot.c **** * The secure flag.
1021:Generated_Source\PSoC6\pdl\drivers\peripheral\prot/cy_prot.c **** * 
1022:Generated_Source\PSoC6\pdl\drivers\peripheral\prot/cy_prot.c **** * \return
1023:Generated_Source\PSoC6\pdl\drivers\peripheral\prot/cy_prot.c **** * The status of the function call.
1024:Generated_Source\PSoC6\pdl\drivers\peripheral\prot/cy_prot.c **** *
1025:Generated_Source\PSoC6\pdl\drivers\peripheral\prot/cy_prot.c **** *   Status              | Description
1026:Generated_Source\PSoC6\pdl\drivers\peripheral\prot/cy_prot.c **** * ----------------------| ---------------------------------------
1027:Generated_Source\PSoC6\pdl\drivers\peripheral\prot/cy_prot.c **** * CY_PROT_SUCCESS       | The attributes were set up.
1028:Generated_Source\PSoC6\pdl\drivers\peripheral\prot/cy_prot.c **** * CY_PROT_FAILURE       | The attributes were not set up because the structure is possibly locked.
1029:Generated_Source\PSoC6\pdl\drivers\peripheral\prot/cy_prot.c **** * CY_PROT_INVALID_STATE | The function was called on the device with an unsupported PERI HW version
1030:Generated_Source\PSoC6\pdl\drivers\peripheral\prot/cy_prot.c **** *
1031:Generated_Source\PSoC6\pdl\drivers\peripheral\prot/cy_prot.c **** * \note PC0 accesses are read-only and are always enabled. 
1032:Generated_Source\PSoC6\pdl\drivers\peripheral\prot/cy_prot.c **** *
1033:Generated_Source\PSoC6\pdl\drivers\peripheral\prot/cy_prot.c **** * \funcusage
1034:Generated_Source\PSoC6\pdl\drivers\peripheral\prot/cy_prot.c **** * \snippet prot/1.20/snippet/main.c snippet_Cy_Prot_ConfigPpuProgSlaveAtt
1035:Generated_Source\PSoC6\pdl\drivers\peripheral\prot/cy_prot.c **** *
1036:Generated_Source\PSoC6\pdl\drivers\peripheral\prot/cy_prot.c **** *******************************************************************************/
1037:Generated_Source\PSoC6\pdl\drivers\peripheral\prot/cy_prot.c **** cy_en_prot_status_t Cy_Prot_ConfigPpuProgSlaveAtt(PERI_MS_PPU_PR_Type* base, uint16_t pcMask, 
1038:Generated_Source\PSoC6\pdl\drivers\peripheral\prot/cy_prot.c ****                                        cy_en_prot_perm_t userPermission, cy_en_prot_perm_t privPerm
1039:Generated_Source\PSoC6\pdl\drivers\peripheral\prot/cy_prot.c **** {
 2424              		.loc 1 1039 0
 2425              		.cfi_startproc
 2426              		@ args = 4, pretend = 0, frame = 8
 2427              		@ frame_needed = 1, uses_anonymous_args = 0
 2428 0000 90B5     		push	{r4, r7, lr}
 2429              		.cfi_def_cfa_offset 12
 2430              		.cfi_offset 4, -12
 2431              		.cfi_offset 7, -8
 2432              		.cfi_offset 14, -4
 2433 0002 85B0     		sub	sp, sp, #20
 2434              		.cfi_def_cfa_offset 32
 2435 0004 02AF     		add	r7, sp, #8
 2436              		.cfi_def_cfa 7, 24
 2437 0006 7860     		str	r0, [r7, #4]
 2438 0008 0846     		mov	r0, r1
 2439 000a 1146     		mov	r1, r2
 2440 000c 1A46     		mov	r2, r3
 2441 000e 0346     		mov	r3, r0	@ movhi
 2442 0010 7B80     		strh	r3, [r7, #2]	@ movhi
ARM GAS  C:\Users\tmj32\AppData\Local\Temp\cc1bAzcK.s 			page 63


 2443 0012 0B46     		mov	r3, r1
 2444 0014 7B70     		strb	r3, [r7, #1]
 2445 0016 1346     		mov	r3, r2
 2446 0018 3B70     		strb	r3, [r7]
1040:Generated_Source\PSoC6\pdl\drivers\peripheral\prot/cy_prot.c ****     /* The parameter checks */
1041:Generated_Source\PSoC6\pdl\drivers\peripheral\prot/cy_prot.c ****     CY_ASSERT_L1(NULL != base);
 2447              		.loc 1 1041 0
 2448 001a 7B68     		ldr	r3, [r7, #4]
 2449 001c 002B     		cmp	r3, #0
 2450 001e 04D1     		bne	.L162
 2451              		.loc 1 1041 0 is_stmt 0 discriminator 1
 2452 0020 40F21141 		movw	r1, #1041
 2453 0024 1A48     		ldr	r0, .L166
 2454 0026 FFF7FEFF 		bl	Cy_SysLib_AssertFailed
 2455              	.L162:
1042:Generated_Source\PSoC6\pdl\drivers\peripheral\prot/cy_prot.c ****     CY_ASSERT_L3(CY_PROT_IS_PROG_SL_PERM_VALID(userPermission));
 2456              		.loc 1 1042 0 is_stmt 1
 2457 002a 7B78     		ldrb	r3, [r7, #1]	@ zero_extendqisi2
 2458 002c 002B     		cmp	r3, #0
 2459 002e 0DD0     		beq	.L163
 2460              		.loc 1 1042 0 is_stmt 0 discriminator 1
 2461 0030 7B78     		ldrb	r3, [r7, #1]	@ zero_extendqisi2
 2462 0032 012B     		cmp	r3, #1
 2463 0034 0AD0     		beq	.L163
 2464              		.loc 1 1042 0 discriminator 2
 2465 0036 7B78     		ldrb	r3, [r7, #1]	@ zero_extendqisi2
 2466 0038 022B     		cmp	r3, #2
 2467 003a 07D0     		beq	.L163
 2468              		.loc 1 1042 0 discriminator 3
 2469 003c 7B78     		ldrb	r3, [r7, #1]	@ zero_extendqisi2
 2470 003e 032B     		cmp	r3, #3
 2471 0040 04D0     		beq	.L163
 2472              		.loc 1 1042 0 discriminator 4
 2473 0042 40F21241 		movw	r1, #1042
 2474 0046 1248     		ldr	r0, .L166
 2475 0048 FFF7FEFF 		bl	Cy_SysLib_AssertFailed
 2476              	.L163:
1043:Generated_Source\PSoC6\pdl\drivers\peripheral\prot/cy_prot.c ****     CY_ASSERT_L3(CY_PROT_IS_PROG_SL_PERM_VALID(privPermission));
 2477              		.loc 1 1043 0 is_stmt 1
 2478 004c 3B78     		ldrb	r3, [r7]	@ zero_extendqisi2
 2479 004e 002B     		cmp	r3, #0
 2480 0050 0DD0     		beq	.L164
 2481              		.loc 1 1043 0 is_stmt 0 discriminator 1
 2482 0052 3B78     		ldrb	r3, [r7]	@ zero_extendqisi2
 2483 0054 012B     		cmp	r3, #1
 2484 0056 0AD0     		beq	.L164
 2485              		.loc 1 1043 0 discriminator 2
 2486 0058 3B78     		ldrb	r3, [r7]	@ zero_extendqisi2
 2487 005a 022B     		cmp	r3, #2
 2488 005c 07D0     		beq	.L164
 2489              		.loc 1 1043 0 discriminator 3
 2490 005e 3B78     		ldrb	r3, [r7]	@ zero_extendqisi2
 2491 0060 032B     		cmp	r3, #3
 2492 0062 04D0     		beq	.L164
 2493              		.loc 1 1043 0 discriminator 4
 2494 0064 40F21341 		movw	r1, #1043
 2495 0068 0948     		ldr	r0, .L166
ARM GAS  C:\Users\tmj32\AppData\Local\Temp\cc1bAzcK.s 			page 64


 2496 006a FFF7FEFF 		bl	Cy_SysLib_AssertFailed
 2497              	.L164:
1044:Generated_Source\PSoC6\pdl\drivers\peripheral\prot/cy_prot.c **** 
1045:Generated_Source\PSoC6\pdl\drivers\peripheral\prot/cy_prot.c ****     return (Prot_ConfigPpuAtt(PERI_MS_PPU_PR_SL_ATT(base), pcMask, userPermission, privPermission, 
 2498              		.loc 1 1045 0 is_stmt 1
 2499 006e 7B68     		ldr	r3, [r7, #4]
 2500 0070 03F11000 		add	r0, r3, #16
 2501 0074 3C78     		ldrb	r4, [r7]	@ zero_extendqisi2
 2502 0076 7A78     		ldrb	r2, [r7, #1]	@ zero_extendqisi2
 2503 0078 7988     		ldrh	r1, [r7, #2]
 2504 007a 3B7E     		ldrb	r3, [r7, #24]	@ zero_extendqisi2
 2505 007c 0093     		str	r3, [sp]
 2506 007e 2346     		mov	r3, r4
 2507 0080 FFF7FEFF 		bl	Prot_ConfigPpuAtt
 2508 0084 0346     		mov	r3, r0
1046:Generated_Source\PSoC6\pdl\drivers\peripheral\prot/cy_prot.c **** }
 2509              		.loc 1 1046 0
 2510 0086 1846     		mov	r0, r3
 2511 0088 0C37     		adds	r7, r7, #12
 2512              		.cfi_def_cfa_offset 12
 2513 008a BD46     		mov	sp, r7
 2514              		.cfi_def_cfa_register 13
 2515              		@ sp needed
 2516 008c 90BD     		pop	{r4, r7, pc}
 2517              	.L167:
 2518 008e 00BF     		.align	2
 2519              	.L166:
 2520 0090 00000000 		.word	.LC0
 2521              		.cfi_endproc
 2522              	.LFE150:
 2523              		.size	Cy_Prot_ConfigPpuProgSlaveAtt, .-Cy_Prot_ConfigPpuProgSlaveAtt
 2524              		.section	.text.Cy_Prot_EnablePpuProgSlaveRegion,"ax",%progbits
 2525              		.align	2
 2526              		.global	Cy_Prot_EnablePpuProgSlaveRegion
 2527              		.thumb
 2528              		.thumb_func
 2529              		.type	Cy_Prot_EnablePpuProgSlaveRegion, %function
 2530              	Cy_Prot_EnablePpuProgSlaveRegion:
 2531              	.LFB151:
1047:Generated_Source\PSoC6\pdl\drivers\peripheral\prot/cy_prot.c **** 
1048:Generated_Source\PSoC6\pdl\drivers\peripheral\prot/cy_prot.c **** 
1049:Generated_Source\PSoC6\pdl\drivers\peripheral\prot/cy_prot.c **** /*******************************************************************************
1050:Generated_Source\PSoC6\pdl\drivers\peripheral\prot/cy_prot.c **** * Function Name: Cy_Prot_EnablePpuProgSlaveRegion
1051:Generated_Source\PSoC6\pdl\drivers\peripheral\prot/cy_prot.c **** ****************************************************************************//**
1052:Generated_Source\PSoC6\pdl\drivers\peripheral\prot/cy_prot.c **** *
1053:Generated_Source\PSoC6\pdl\drivers\peripheral\prot/cy_prot.c **** * Enables the Slave PPU PROG structure.
1054:Generated_Source\PSoC6\pdl\drivers\peripheral\prot/cy_prot.c **** *
1055:Generated_Source\PSoC6\pdl\drivers\peripheral\prot/cy_prot.c **** * This is the PPU PROG slave-structure enable function. The PPU PROG protection 
1056:Generated_Source\PSoC6\pdl\drivers\peripheral\prot/cy_prot.c **** * settings will take effect after a successful completion of this function call.
1057:Generated_Source\PSoC6\pdl\drivers\peripheral\prot/cy_prot.c **** *
1058:Generated_Source\PSoC6\pdl\drivers\peripheral\prot/cy_prot.c **** * \note This function is applicable for CPUSS ver_2 only.
1059:Generated_Source\PSoC6\pdl\drivers\peripheral\prot/cy_prot.c **** *
1060:Generated_Source\PSoC6\pdl\drivers\peripheral\prot/cy_prot.c **** * \param base
1061:Generated_Source\PSoC6\pdl\drivers\peripheral\prot/cy_prot.c **** * The base address for the protection unit structure is being configured. 
1062:Generated_Source\PSoC6\pdl\drivers\peripheral\prot/cy_prot.c **** *
1063:Generated_Source\PSoC6\pdl\drivers\peripheral\prot/cy_prot.c **** * \return
1064:Generated_Source\PSoC6\pdl\drivers\peripheral\prot/cy_prot.c **** * The status of the function call.
ARM GAS  C:\Users\tmj32\AppData\Local\Temp\cc1bAzcK.s 			page 65


1065:Generated_Source\PSoC6\pdl\drivers\peripheral\prot/cy_prot.c **** *
1066:Generated_Source\PSoC6\pdl\drivers\peripheral\prot/cy_prot.c **** *   Status              | Description
1067:Generated_Source\PSoC6\pdl\drivers\peripheral\prot/cy_prot.c **** * ----------------------| ---------------------------------------
1068:Generated_Source\PSoC6\pdl\drivers\peripheral\prot/cy_prot.c **** * CY_PROT_SUCCESS       | The structure was enabled.
1069:Generated_Source\PSoC6\pdl\drivers\peripheral\prot/cy_prot.c **** * CY_PROT_FAILURE       | The structure is disabled and possibly locked.
1070:Generated_Source\PSoC6\pdl\drivers\peripheral\prot/cy_prot.c **** * CY_PROT_INVALID_STATE | The function was called on the device with an unsupported PERI HW version
1071:Generated_Source\PSoC6\pdl\drivers\peripheral\prot/cy_prot.c **** *
1072:Generated_Source\PSoC6\pdl\drivers\peripheral\prot/cy_prot.c **** * \funcusage
1073:Generated_Source\PSoC6\pdl\drivers\peripheral\prot/cy_prot.c **** * \ref Cy_Prot_ConfigPpuProgSlaveAtt
1074:Generated_Source\PSoC6\pdl\drivers\peripheral\prot/cy_prot.c **** *
1075:Generated_Source\PSoC6\pdl\drivers\peripheral\prot/cy_prot.c **** *******************************************************************************/
1076:Generated_Source\PSoC6\pdl\drivers\peripheral\prot/cy_prot.c **** cy_en_prot_status_t Cy_Prot_EnablePpuProgSlaveRegion(PERI_MS_PPU_PR_Type* base)
1077:Generated_Source\PSoC6\pdl\drivers\peripheral\prot/cy_prot.c **** {   
 2532              		.loc 1 1077 0
 2533              		.cfi_startproc
 2534              		@ args = 0, pretend = 0, frame = 16
 2535              		@ frame_needed = 1, uses_anonymous_args = 0
 2536 0000 80B5     		push	{r7, lr}
 2537              		.cfi_def_cfa_offset 8
 2538              		.cfi_offset 7, -8
 2539              		.cfi_offset 14, -4
 2540 0002 84B0     		sub	sp, sp, #16
 2541              		.cfi_def_cfa_offset 24
 2542 0004 00AF     		add	r7, sp, #0
 2543              		.cfi_def_cfa_register 7
 2544 0006 7860     		str	r0, [r7, #4]
1078:Generated_Source\PSoC6\pdl\drivers\peripheral\prot/cy_prot.c ****     cy_en_prot_status_t status = CY_PROT_INVALID_STATE;
 2545              		.loc 1 1078 0
 2546 0008 124B     		ldr	r3, .L174
 2547 000a FB60     		str	r3, [r7, #12]
1079:Generated_Source\PSoC6\pdl\drivers\peripheral\prot/cy_prot.c ****     
1080:Generated_Source\PSoC6\pdl\drivers\peripheral\prot/cy_prot.c ****     CY_ASSERT_L1(NULL != base);
 2548              		.loc 1 1080 0
 2549 000c 7B68     		ldr	r3, [r7, #4]
 2550 000e 002B     		cmp	r3, #0
 2551 0010 04D1     		bne	.L169
 2552              		.loc 1 1080 0 is_stmt 0 discriminator 1
 2553 0012 4FF48761 		mov	r1, #1080
 2554 0016 1048     		ldr	r0, .L174+4
 2555 0018 FFF7FEFF 		bl	Cy_SysLib_AssertFailed
 2556              	.L169:
1081:Generated_Source\PSoC6\pdl\drivers\peripheral\prot/cy_prot.c ****     
1082:Generated_Source\PSoC6\pdl\drivers\peripheral\prot/cy_prot.c ****     if (!CY_PERI_V1)
 2557              		.loc 1 1082 0 is_stmt 1
 2558 001c 0F4B     		ldr	r3, .L174+8
 2559 001e 1B68     		ldr	r3, [r3]
 2560 0020 93F82F30 		ldrb	r3, [r3, #47]	@ zero_extendqisi2
 2561 0024 012B     		cmp	r3, #1
 2562 0026 10D0     		beq	.L170
1083:Generated_Source\PSoC6\pdl\drivers\peripheral\prot/cy_prot.c ****     {
1084:Generated_Source\PSoC6\pdl\drivers\peripheral\prot/cy_prot.c ****         PERI_MS_PPU_PR_SL_SIZE(base) = 
1085:Generated_Source\PSoC6\pdl\drivers\peripheral\prot/cy_prot.c ****         _CLR_SET_FLD32U((PERI_MS_PPU_PR_SL_SIZE(base)), PERI_MS_PPU_PR_V2_SL_SIZE_VALID, CY_PROT_ST
 2563              		.loc 1 1085 0
 2564 0028 7B68     		ldr	r3, [r7, #4]
 2565 002a 5B68     		ldr	r3, [r3, #4]
 2566 002c 43F00042 		orr	r2, r3, #-2147483648
1084:Generated_Source\PSoC6\pdl\drivers\peripheral\prot/cy_prot.c ****         _CLR_SET_FLD32U((PERI_MS_PPU_PR_SL_SIZE(base)), PERI_MS_PPU_PR_V2_SL_SIZE_VALID, CY_PROT_ST
ARM GAS  C:\Users\tmj32\AppData\Local\Temp\cc1bAzcK.s 			page 66


 2567              		.loc 1 1084 0
 2568 0030 7B68     		ldr	r3, [r7, #4]
 2569 0032 5A60     		str	r2, [r3, #4]
1086:Generated_Source\PSoC6\pdl\drivers\peripheral\prot/cy_prot.c ****         
1087:Generated_Source\PSoC6\pdl\drivers\peripheral\prot/cy_prot.c ****         status = (_FLD2VAL(PERI_MS_PPU_PR_V2_SL_SIZE_VALID, PERI_MS_PPU_PR_SL_SIZE(base)) != CY_PRO
 2570              		.loc 1 1087 0
 2571 0034 7B68     		ldr	r3, [r7, #4]
 2572 0036 5B68     		ldr	r3, [r3, #4]
 2573 0038 03F00043 		and	r3, r3, #-2147483648
 2574 003c DB0F     		lsrs	r3, r3, #31
 2575 003e 012B     		cmp	r3, #1
 2576 0040 01D0     		beq	.L171
 2577              		.loc 1 1087 0 is_stmt 0 discriminator 1
 2578 0042 074B     		ldr	r3, .L174+12
 2579 0044 00E0     		b	.L172
 2580              	.L171:
 2581              		.loc 1 1087 0 discriminator 2
 2582 0046 0023     		movs	r3, #0
 2583              	.L172:
 2584              		.loc 1 1087 0 discriminator 4
 2585 0048 FB60     		str	r3, [r7, #12]
 2586              	.L170:
1088:Generated_Source\PSoC6\pdl\drivers\peripheral\prot/cy_prot.c ****         CY_PROT_FAILURE : CY_PROT_SUCCESS;
1089:Generated_Source\PSoC6\pdl\drivers\peripheral\prot/cy_prot.c ****     }
1090:Generated_Source\PSoC6\pdl\drivers\peripheral\prot/cy_prot.c ****     
1091:Generated_Source\PSoC6\pdl\drivers\peripheral\prot/cy_prot.c ****     return status;
 2587              		.loc 1 1091 0 is_stmt 1
 2588 004a FB68     		ldr	r3, [r7, #12]
1092:Generated_Source\PSoC6\pdl\drivers\peripheral\prot/cy_prot.c **** }
 2589              		.loc 1 1092 0
 2590 004c 1846     		mov	r0, r3
 2591 004e 1037     		adds	r7, r7, #16
 2592              		.cfi_def_cfa_offset 8
 2593 0050 BD46     		mov	sp, r7
 2594              		.cfi_def_cfa_register 13
 2595              		@ sp needed
 2596 0052 80BD     		pop	{r7, pc}
 2597              	.L175:
 2598              		.align	2
 2599              	.L174:
 2600 0054 0200C200 		.word	12713986
 2601 0058 00000000 		.word	.LC0
 2602 005c 00000000 		.word	cy_device
 2603 0060 0300C200 		.word	12713987
 2604              		.cfi_endproc
 2605              	.LFE151:
 2606              		.size	Cy_Prot_EnablePpuProgSlaveRegion, .-Cy_Prot_EnablePpuProgSlaveRegion
 2607              		.section	.text.Cy_Prot_DisablePpuProgSlaveRegion,"ax",%progbits
 2608              		.align	2
 2609              		.global	Cy_Prot_DisablePpuProgSlaveRegion
 2610              		.thumb
 2611              		.thumb_func
 2612              		.type	Cy_Prot_DisablePpuProgSlaveRegion, %function
 2613              	Cy_Prot_DisablePpuProgSlaveRegion:
 2614              	.LFB152:
1093:Generated_Source\PSoC6\pdl\drivers\peripheral\prot/cy_prot.c **** 
1094:Generated_Source\PSoC6\pdl\drivers\peripheral\prot/cy_prot.c **** 
ARM GAS  C:\Users\tmj32\AppData\Local\Temp\cc1bAzcK.s 			page 67


1095:Generated_Source\PSoC6\pdl\drivers\peripheral\prot/cy_prot.c **** /*******************************************************************************
1096:Generated_Source\PSoC6\pdl\drivers\peripheral\prot/cy_prot.c **** * Function Name: Cy_Prot_DisablePpuProgSlaveRegion
1097:Generated_Source\PSoC6\pdl\drivers\peripheral\prot/cy_prot.c **** ****************************************************************************//**
1098:Generated_Source\PSoC6\pdl\drivers\peripheral\prot/cy_prot.c **** *
1099:Generated_Source\PSoC6\pdl\drivers\peripheral\prot/cy_prot.c **** * Disables the Slave PPU PROG structure.
1100:Generated_Source\PSoC6\pdl\drivers\peripheral\prot/cy_prot.c **** *
1101:Generated_Source\PSoC6\pdl\drivers\peripheral\prot/cy_prot.c **** * This is the PPU PROG slave-structure disable function. The PPU PROG protection 
1102:Generated_Source\PSoC6\pdl\drivers\peripheral\prot/cy_prot.c **** * settings will seize to take effect after successful completion of this 
1103:Generated_Source\PSoC6\pdl\drivers\peripheral\prot/cy_prot.c **** * function call.
1104:Generated_Source\PSoC6\pdl\drivers\peripheral\prot/cy_prot.c **** *
1105:Generated_Source\PSoC6\pdl\drivers\peripheral\prot/cy_prot.c **** * \note This function is applicable for CPUSS ver_2 only.
1106:Generated_Source\PSoC6\pdl\drivers\peripheral\prot/cy_prot.c **** *
1107:Generated_Source\PSoC6\pdl\drivers\peripheral\prot/cy_prot.c **** * \param base
1108:Generated_Source\PSoC6\pdl\drivers\peripheral\prot/cy_prot.c **** * The base address for the protection unit structure is being configured. 
1109:Generated_Source\PSoC6\pdl\drivers\peripheral\prot/cy_prot.c **** *
1110:Generated_Source\PSoC6\pdl\drivers\peripheral\prot/cy_prot.c **** * \return
1111:Generated_Source\PSoC6\pdl\drivers\peripheral\prot/cy_prot.c **** * The status of the function call.
1112:Generated_Source\PSoC6\pdl\drivers\peripheral\prot/cy_prot.c **** *
1113:Generated_Source\PSoC6\pdl\drivers\peripheral\prot/cy_prot.c **** *   Status              | Description
1114:Generated_Source\PSoC6\pdl\drivers\peripheral\prot/cy_prot.c **** * ----------------------| ---------------------------------------
1115:Generated_Source\PSoC6\pdl\drivers\peripheral\prot/cy_prot.c **** * CY_PROT_SUCCESS       | The slave PPU PROG structure was disabled.
1116:Generated_Source\PSoC6\pdl\drivers\peripheral\prot/cy_prot.c **** * CY_PROT_FAILURE       | The structure is enabled and possibly locked.
1117:Generated_Source\PSoC6\pdl\drivers\peripheral\prot/cy_prot.c **** * CY_PROT_INVALID_STATE | The function was called on the device with an unsupported PERI HW version
1118:Generated_Source\PSoC6\pdl\drivers\peripheral\prot/cy_prot.c **** *
1119:Generated_Source\PSoC6\pdl\drivers\peripheral\prot/cy_prot.c **** * \funcusage
1120:Generated_Source\PSoC6\pdl\drivers\peripheral\prot/cy_prot.c **** * \snippet prot/1.20/snippet/main.c snippet_Cy_Prot_DisablePpuProgSlaveRegion
1121:Generated_Source\PSoC6\pdl\drivers\peripheral\prot/cy_prot.c **** *
1122:Generated_Source\PSoC6\pdl\drivers\peripheral\prot/cy_prot.c **** *******************************************************************************/
1123:Generated_Source\PSoC6\pdl\drivers\peripheral\prot/cy_prot.c **** cy_en_prot_status_t Cy_Prot_DisablePpuProgSlaveRegion(PERI_MS_PPU_PR_Type* base)
1124:Generated_Source\PSoC6\pdl\drivers\peripheral\prot/cy_prot.c **** {
 2615              		.loc 1 1124 0
 2616              		.cfi_startproc
 2617              		@ args = 0, pretend = 0, frame = 16
 2618              		@ frame_needed = 1, uses_anonymous_args = 0
 2619 0000 80B5     		push	{r7, lr}
 2620              		.cfi_def_cfa_offset 8
 2621              		.cfi_offset 7, -8
 2622              		.cfi_offset 14, -4
 2623 0002 84B0     		sub	sp, sp, #16
 2624              		.cfi_def_cfa_offset 24
 2625 0004 00AF     		add	r7, sp, #0
 2626              		.cfi_def_cfa_register 7
 2627 0006 7860     		str	r0, [r7, #4]
1125:Generated_Source\PSoC6\pdl\drivers\peripheral\prot/cy_prot.c ****     cy_en_prot_status_t status = CY_PROT_INVALID_STATE;
 2628              		.loc 1 1125 0
 2629 0008 124B     		ldr	r3, .L182
 2630 000a FB60     		str	r3, [r7, #12]
1126:Generated_Source\PSoC6\pdl\drivers\peripheral\prot/cy_prot.c ****     
1127:Generated_Source\PSoC6\pdl\drivers\peripheral\prot/cy_prot.c ****     CY_ASSERT_L1(NULL != base);
 2631              		.loc 1 1127 0
 2632 000c 7B68     		ldr	r3, [r7, #4]
 2633 000e 002B     		cmp	r3, #0
 2634 0010 04D1     		bne	.L177
 2635              		.loc 1 1127 0 is_stmt 0 discriminator 1
 2636 0012 40F26741 		movw	r1, #1127
 2637 0016 1048     		ldr	r0, .L182+4
 2638 0018 FFF7FEFF 		bl	Cy_SysLib_AssertFailed
ARM GAS  C:\Users\tmj32\AppData\Local\Temp\cc1bAzcK.s 			page 68


 2639              	.L177:
1128:Generated_Source\PSoC6\pdl\drivers\peripheral\prot/cy_prot.c ****     
1129:Generated_Source\PSoC6\pdl\drivers\peripheral\prot/cy_prot.c ****     if (!CY_PERI_V1)
 2640              		.loc 1 1129 0 is_stmt 1
 2641 001c 0F4B     		ldr	r3, .L182+8
 2642 001e 1B68     		ldr	r3, [r3]
 2643 0020 93F82F30 		ldrb	r3, [r3, #47]	@ zero_extendqisi2
 2644 0024 012B     		cmp	r3, #1
 2645 0026 0FD0     		beq	.L178
1130:Generated_Source\PSoC6\pdl\drivers\peripheral\prot/cy_prot.c ****     {
1131:Generated_Source\PSoC6\pdl\drivers\peripheral\prot/cy_prot.c ****         PERI_MS_PPU_PR_SL_SIZE(base) = 
1132:Generated_Source\PSoC6\pdl\drivers\peripheral\prot/cy_prot.c ****         _CLR_SET_FLD32U((PERI_MS_PPU_PR_SL_SIZE(base)), PERI_MS_PPU_PR_V2_SL_SIZE_VALID, CY_PROT_ST
 2646              		.loc 1 1132 0
 2647 0028 7B68     		ldr	r3, [r7, #4]
 2648 002a 5B68     		ldr	r3, [r3, #4]
 2649 002c 23F00042 		bic	r2, r3, #-2147483648
1131:Generated_Source\PSoC6\pdl\drivers\peripheral\prot/cy_prot.c ****         _CLR_SET_FLD32U((PERI_MS_PPU_PR_SL_SIZE(base)), PERI_MS_PPU_PR_V2_SL_SIZE_VALID, CY_PROT_ST
 2650              		.loc 1 1131 0
 2651 0030 7B68     		ldr	r3, [r7, #4]
 2652 0032 5A60     		str	r2, [r3, #4]
1133:Generated_Source\PSoC6\pdl\drivers\peripheral\prot/cy_prot.c **** 
1134:Generated_Source\PSoC6\pdl\drivers\peripheral\prot/cy_prot.c ****         status = (_FLD2VAL(PERI_MS_PPU_PR_V2_SL_SIZE_VALID, PERI_MS_PPU_PR_SL_SIZE(base)) != CY_PRO
 2653              		.loc 1 1134 0
 2654 0034 7B68     		ldr	r3, [r7, #4]
 2655 0036 5B68     		ldr	r3, [r3, #4]
 2656 0038 03F00043 		and	r3, r3, #-2147483648
 2657 003c 002B     		cmp	r3, #0
 2658 003e 01DA     		bge	.L179
 2659              		.loc 1 1134 0 is_stmt 0 discriminator 1
 2660 0040 074B     		ldr	r3, .L182+12
 2661 0042 00E0     		b	.L180
 2662              	.L179:
 2663              		.loc 1 1134 0 discriminator 2
 2664 0044 0023     		movs	r3, #0
 2665              	.L180:
 2666              		.loc 1 1134 0 discriminator 4
 2667 0046 FB60     		str	r3, [r7, #12]
 2668              	.L178:
1135:Generated_Source\PSoC6\pdl\drivers\peripheral\prot/cy_prot.c ****         CY_PROT_FAILURE : CY_PROT_SUCCESS;
1136:Generated_Source\PSoC6\pdl\drivers\peripheral\prot/cy_prot.c ****     }
1137:Generated_Source\PSoC6\pdl\drivers\peripheral\prot/cy_prot.c ****     
1138:Generated_Source\PSoC6\pdl\drivers\peripheral\prot/cy_prot.c ****     return status;
 2669              		.loc 1 1138 0 is_stmt 1
 2670 0048 FB68     		ldr	r3, [r7, #12]
1139:Generated_Source\PSoC6\pdl\drivers\peripheral\prot/cy_prot.c **** }
 2671              		.loc 1 1139 0
 2672 004a 1846     		mov	r0, r3
 2673 004c 1037     		adds	r7, r7, #16
 2674              		.cfi_def_cfa_offset 8
 2675 004e BD46     		mov	sp, r7
 2676              		.cfi_def_cfa_register 13
 2677              		@ sp needed
 2678 0050 80BD     		pop	{r7, pc}
 2679              	.L183:
 2680 0052 00BF     		.align	2
 2681              	.L182:
 2682 0054 0200C200 		.word	12713986
ARM GAS  C:\Users\tmj32\AppData\Local\Temp\cc1bAzcK.s 			page 69


 2683 0058 00000000 		.word	.LC0
 2684 005c 00000000 		.word	cy_device
 2685 0060 0300C200 		.word	12713987
 2686              		.cfi_endproc
 2687              	.LFE152:
 2688              		.size	Cy_Prot_DisablePpuProgSlaveRegion, .-Cy_Prot_DisablePpuProgSlaveRegion
 2689              		.section	.text.Cy_Prot_ConfigPpuFixedMasterAtt,"ax",%progbits
 2690              		.align	2
 2691              		.global	Cy_Prot_ConfigPpuFixedMasterAtt
 2692              		.thumb
 2693              		.thumb_func
 2694              		.type	Cy_Prot_ConfigPpuFixedMasterAtt, %function
 2695              	Cy_Prot_ConfigPpuFixedMasterAtt:
 2696              	.LFB153:
1140:Generated_Source\PSoC6\pdl\drivers\peripheral\prot/cy_prot.c **** 
1141:Generated_Source\PSoC6\pdl\drivers\peripheral\prot/cy_prot.c **** 
1142:Generated_Source\PSoC6\pdl\drivers\peripheral\prot/cy_prot.c **** /*******************************************************************************
1143:Generated_Source\PSoC6\pdl\drivers\peripheral\prot/cy_prot.c **** * Function Name: Cy_Prot_ConfigPpuFixedMasterAtt
1144:Generated_Source\PSoC6\pdl\drivers\peripheral\prot/cy_prot.c **** ****************************************************************************//**
1145:Generated_Source\PSoC6\pdl\drivers\peripheral\prot/cy_prot.c **** *
1146:Generated_Source\PSoC6\pdl\drivers\peripheral\prot/cy_prot.c **** * Configures the protection structure with its protection attributes of the
1147:Generated_Source\PSoC6\pdl\drivers\peripheral\prot/cy_prot.c **** * Fixed Peripheral Protection Unit (PPU FIXED) master. 
1148:Generated_Source\PSoC6\pdl\drivers\peripheral\prot/cy_prot.c **** *
1149:Generated_Source\PSoC6\pdl\drivers\peripheral\prot/cy_prot.c **** * This function configures the master structure governing the corresponding slave
1150:Generated_Source\PSoC6\pdl\drivers\peripheral\prot/cy_prot.c **** * structure pair. It is a mechanism to protect the slave PPU FIXED structure.
1151:Generated_Source\PSoC6\pdl\drivers\peripheral\prot/cy_prot.c **** * The memory location of the slave structure is known, so the address, region size
1152:Generated_Source\PSoC6\pdl\drivers\peripheral\prot/cy_prot.c **** * and sub-regions of the configuration structure are not applicable.
1153:Generated_Source\PSoC6\pdl\drivers\peripheral\prot/cy_prot.c **** *
1154:Generated_Source\PSoC6\pdl\drivers\peripheral\prot/cy_prot.c **** * \note This function is applicable for CPUSS ver_2 only.
1155:Generated_Source\PSoC6\pdl\drivers\peripheral\prot/cy_prot.c **** *
1156:Generated_Source\PSoC6\pdl\drivers\peripheral\prot/cy_prot.c **** * \param base
1157:Generated_Source\PSoC6\pdl\drivers\peripheral\prot/cy_prot.c **** * The register base address of the protection structure is being configured.
1158:Generated_Source\PSoC6\pdl\drivers\peripheral\prot/cy_prot.c **** *
1159:Generated_Source\PSoC6\pdl\drivers\peripheral\prot/cy_prot.c **** * \param pcMask
1160:Generated_Source\PSoC6\pdl\drivers\peripheral\prot/cy_prot.c **** * The protection context mask. This is a 16-bit value of the allowed contexts, 
1161:Generated_Source\PSoC6\pdl\drivers\peripheral\prot/cy_prot.c **** * it is an OR'ed (|) field of the * provided defines in cy_prot.h. 
1162:Generated_Source\PSoC6\pdl\drivers\peripheral\prot/cy_prot.c **** * For example: (CY_PROT_PCMASK1 | CY_PROT_PCMASK3 | CY_PROT_PCMASK4).
1163:Generated_Source\PSoC6\pdl\drivers\peripheral\prot/cy_prot.c **** * \note The function accepts pcMask values from CY_PROT_PCMASK1 to CY_PROT_PCMASK15. 
1164:Generated_Source\PSoC6\pdl\drivers\peripheral\prot/cy_prot.c **** * But each device has its own number of available protection contexts. 
1165:Generated_Source\PSoC6\pdl\drivers\peripheral\prot/cy_prot.c **** * That number is defined by PERI_PC_NR in the config file.
1166:Generated_Source\PSoC6\pdl\drivers\peripheral\prot/cy_prot.c **** *
1167:Generated_Source\PSoC6\pdl\drivers\peripheral\prot/cy_prot.c **** * \param userPermission
1168:Generated_Source\PSoC6\pdl\drivers\peripheral\prot/cy_prot.c **** * The user permission setting. The CY_PROT_PERM_R or CY_PROT_PERM_RW values 
1169:Generated_Source\PSoC6\pdl\drivers\peripheral\prot/cy_prot.c **** * are valid for the master.
1170:Generated_Source\PSoC6\pdl\drivers\peripheral\prot/cy_prot.c **** *
1171:Generated_Source\PSoC6\pdl\drivers\peripheral\prot/cy_prot.c **** * \param privPermission
1172:Generated_Source\PSoC6\pdl\drivers\peripheral\prot/cy_prot.c **** * The privileged permission setting. The CY_PROT_PERM_R or CY_PROT_PERM_RW values 
1173:Generated_Source\PSoC6\pdl\drivers\peripheral\prot/cy_prot.c **** * are valid for the master.
1174:Generated_Source\PSoC6\pdl\drivers\peripheral\prot/cy_prot.c **** *
1175:Generated_Source\PSoC6\pdl\drivers\peripheral\prot/cy_prot.c **** * \param secure
1176:Generated_Source\PSoC6\pdl\drivers\peripheral\prot/cy_prot.c **** * The secure flag.
1177:Generated_Source\PSoC6\pdl\drivers\peripheral\prot/cy_prot.c **** * 
1178:Generated_Source\PSoC6\pdl\drivers\peripheral\prot/cy_prot.c **** * \return
1179:Generated_Source\PSoC6\pdl\drivers\peripheral\prot/cy_prot.c **** * The status of the function call.
1180:Generated_Source\PSoC6\pdl\drivers\peripheral\prot/cy_prot.c **** *
1181:Generated_Source\PSoC6\pdl\drivers\peripheral\prot/cy_prot.c **** *   Status              | Description
1182:Generated_Source\PSoC6\pdl\drivers\peripheral\prot/cy_prot.c **** * ----------------------| ---------------------------------------
ARM GAS  C:\Users\tmj32\AppData\Local\Temp\cc1bAzcK.s 			page 70


1183:Generated_Source\PSoC6\pdl\drivers\peripheral\prot/cy_prot.c **** * CY_PROT_SUCCESS       | The attributes were set up.
1184:Generated_Source\PSoC6\pdl\drivers\peripheral\prot/cy_prot.c **** * CY_PROT_FAILURE       | The attributes were not setup and the structure is possibly locked.
1185:Generated_Source\PSoC6\pdl\drivers\peripheral\prot/cy_prot.c **** * CY_PROT_INVALID_STATE | The function was called on the device with an unsupported PERI HW version
1186:Generated_Source\PSoC6\pdl\drivers\peripheral\prot/cy_prot.c **** *
1187:Generated_Source\PSoC6\pdl\drivers\peripheral\prot/cy_prot.c **** * \note Only the user/privileged write permissions are configurable. The 
1188:Generated_Source\PSoC6\pdl\drivers\peripheral\prot/cy_prot.c **** * read permissions are read-only and cannot be configured.
1189:Generated_Source\PSoC6\pdl\drivers\peripheral\prot/cy_prot.c **** *
1190:Generated_Source\PSoC6\pdl\drivers\peripheral\prot/cy_prot.c **** * \note PC0 accesses are read-only and are always enabled. 
1191:Generated_Source\PSoC6\pdl\drivers\peripheral\prot/cy_prot.c **** *
1192:Generated_Source\PSoC6\pdl\drivers\peripheral\prot/cy_prot.c **** * \funcusage
1193:Generated_Source\PSoC6\pdl\drivers\peripheral\prot/cy_prot.c **** * \snippet prot/1.20/snippet/main.c snippet_Cy_Prot_ConfigPpuFixedMasterAtt
1194:Generated_Source\PSoC6\pdl\drivers\peripheral\prot/cy_prot.c **** *
1195:Generated_Source\PSoC6\pdl\drivers\peripheral\prot/cy_prot.c **** *******************************************************************************/
1196:Generated_Source\PSoC6\pdl\drivers\peripheral\prot/cy_prot.c **** cy_en_prot_status_t Cy_Prot_ConfigPpuFixedMasterAtt(PERI_MS_PPU_FX_Type* base, uint16_t pcMask,
1197:Generated_Source\PSoC6\pdl\drivers\peripheral\prot/cy_prot.c ****                                       cy_en_prot_perm_t userPermission, cy_en_prot_perm_t privPermi
1198:Generated_Source\PSoC6\pdl\drivers\peripheral\prot/cy_prot.c **** {
 2697              		.loc 1 1198 0
 2698              		.cfi_startproc
 2699              		@ args = 4, pretend = 0, frame = 8
 2700              		@ frame_needed = 1, uses_anonymous_args = 0
 2701 0000 90B5     		push	{r4, r7, lr}
