ARM GAS  C:\Users\tmj32\AppData\Local\Temp\ccXf5w1a.s 			page 1


   1              		.syntax unified
   2              		.cpu cortex-m4
   3              		.eabi_attribute 27, 1
   4              		.fpu fpv4-sp-d16
   5              		.eabi_attribute 20, 1
   6              		.eabi_attribute 21, 1
   7              		.eabi_attribute 23, 3
   8              		.eabi_attribute 24, 1
   9              		.eabi_attribute 25, 1
  10              		.eabi_attribute 26, 1
  11              		.eabi_attribute 30, 6
  12              		.eabi_attribute 34, 1
  13              		.eabi_attribute 18, 4
  14              		.thumb
  15              		.syntax unified
  16              		.file	"cy_sysanalog.c"
  17              		.text
  18              	.Ltext0:
  19              		.cfi_sections	.debug_frame
  20              		.global	Cy_SysAnalog_Fast_Local
  21              		.section	.rodata
  22              		.align	2
  23              		.type	Cy_SysAnalog_Fast_Local, %object
  24              		.size	Cy_SysAnalog_Fast_Local, 16
  25              	Cy_SysAnalog_Fast_Local:
  26 0000 01       		.byte	1
  27 0001 000000   		.space	3
  28 0004 00000100 		.word	65536
  29 0008 00001000 		.word	1048576
  30 000c 00000000 		.word	0
  31              		.global	Cy_SysAnalog_Fast_SRSS
  32              		.align	2
  33              		.type	Cy_SysAnalog_Fast_SRSS, %object
  34              		.size	Cy_SysAnalog_Fast_SRSS, 16
  35              	Cy_SysAnalog_Fast_SRSS:
  36 0010 01       		.byte	1
  37 0011 000000   		.space	3
  38 0014 00000000 		.word	0
  39 0018 00000000 		.word	0
  40 001c 00000000 		.word	0
  41              		.global	Cy_SysAnalog_Fast_External
  42              		.align	2
  43              		.type	Cy_SysAnalog_Fast_External, %object
  44              		.size	Cy_SysAnalog_Fast_External, 16
  45              	Cy_SysAnalog_Fast_External:
  46 0020 01       		.byte	1
  47 0021 000000   		.space	3
  48 0024 00000100 		.word	65536
  49 0028 00002000 		.word	2097152
  50 002c 00000000 		.word	0
  51              		.align	2
  52              	.LC0:
  53 0030 47656E65 		.ascii	"Generated_Source\\PSoC6\\pdl\\drivers\\peripheral\\"
  53      72617465 
  53      645F536F 
  53      75726365 
  53      5C50536F 
ARM GAS  C:\Users\tmj32\AppData\Local\Temp\ccXf5w1a.s 			page 2


  54 005e 73797361 		.ascii	"sysanalog\\cy_sysanalog.c\000"
  54      6E616C6F 
  54      675C6379 
  54      5F737973 
  54      616E616C 
  55              		.section	.text.Cy_SysAnalog_Init,"ax",%progbits
  56              		.align	2
  57              		.global	Cy_SysAnalog_Init
  58              		.thumb
  59              		.thumb_func
  60              		.type	Cy_SysAnalog_Init, %function
  61              	Cy_SysAnalog_Init:
  62              	.LFB175:
  63              		.file 1 "Generated_Source\\PSoC6\\pdl\\drivers\\peripheral\\sysanalog\\cy_sysanalog.c"
   1:Generated_Source\PSoC6\pdl\drivers\peripheral\sysanalog/cy_sysanalog.c **** /***************************************************************************//**
   2:Generated_Source\PSoC6\pdl\drivers\peripheral\sysanalog/cy_sysanalog.c **** * \file cy_sysanalog.c
   3:Generated_Source\PSoC6\pdl\drivers\peripheral\sysanalog/cy_sysanalog.c **** * \version 1.10
   4:Generated_Source\PSoC6\pdl\drivers\peripheral\sysanalog/cy_sysanalog.c **** *
   5:Generated_Source\PSoC6\pdl\drivers\peripheral\sysanalog/cy_sysanalog.c **** * Provides the public functions for the API for the SAR driver.
   6:Generated_Source\PSoC6\pdl\drivers\peripheral\sysanalog/cy_sysanalog.c **** *
   7:Generated_Source\PSoC6\pdl\drivers\peripheral\sysanalog/cy_sysanalog.c **** ********************************************************************************
   8:Generated_Source\PSoC6\pdl\drivers\peripheral\sysanalog/cy_sysanalog.c **** * \copyright
   9:Generated_Source\PSoC6\pdl\drivers\peripheral\sysanalog/cy_sysanalog.c **** * Copyright 2017-2018, Cypress Semiconductor Corporation. All rights reserved.
  10:Generated_Source\PSoC6\pdl\drivers\peripheral\sysanalog/cy_sysanalog.c **** * You may use this file only in accordance with the license, terms, conditions,
  11:Generated_Source\PSoC6\pdl\drivers\peripheral\sysanalog/cy_sysanalog.c **** * disclaimers, and limitations in the end user license agreement accompanying
  12:Generated_Source\PSoC6\pdl\drivers\peripheral\sysanalog/cy_sysanalog.c **** * the software package with which this file was provided.
  13:Generated_Source\PSoC6\pdl\drivers\peripheral\sysanalog/cy_sysanalog.c **** *******************************************************************************/
  14:Generated_Source\PSoC6\pdl\drivers\peripheral\sysanalog/cy_sysanalog.c **** #include "cy_sysanalog.h"
  15:Generated_Source\PSoC6\pdl\drivers\peripheral\sysanalog/cy_sysanalog.c **** 
  16:Generated_Source\PSoC6\pdl\drivers\peripheral\sysanalog/cy_sysanalog.c **** #ifdef CY_IP_MXS40PASS
  17:Generated_Source\PSoC6\pdl\drivers\peripheral\sysanalog/cy_sysanalog.c **** 
  18:Generated_Source\PSoC6\pdl\drivers\peripheral\sysanalog/cy_sysanalog.c **** #if defined(__cplusplus)
  19:Generated_Source\PSoC6\pdl\drivers\peripheral\sysanalog/cy_sysanalog.c **** extern "C" {
  20:Generated_Source\PSoC6\pdl\drivers\peripheral\sysanalog/cy_sysanalog.c **** #endif
  21:Generated_Source\PSoC6\pdl\drivers\peripheral\sysanalog/cy_sysanalog.c **** 
  22:Generated_Source\PSoC6\pdl\drivers\peripheral\sysanalog/cy_sysanalog.c **** /* Configure the AREF to use the local Vref and local IZTAT. Can be used with \ref Cy_SysAnalog_Ini
  23:Generated_Source\PSoC6\pdl\drivers\peripheral\sysanalog/cy_sysanalog.c **** const cy_stc_sysanalog_config_t Cy_SysAnalog_Fast_Local =
  24:Generated_Source\PSoC6\pdl\drivers\peripheral\sysanalog/cy_sysanalog.c **** {
  25:Generated_Source\PSoC6\pdl\drivers\peripheral\sysanalog/cy_sysanalog.c ****     /*.startup    */ CY_SYSANALOG_STARTUP_FAST,
  26:Generated_Source\PSoC6\pdl\drivers\peripheral\sysanalog/cy_sysanalog.c ****     /*.iztat      */ CY_SYSANALOG_IZTAT_SOURCE_LOCAL,
  27:Generated_Source\PSoC6\pdl\drivers\peripheral\sysanalog/cy_sysanalog.c ****     /*.vref       */ CY_SYSANALOG_VREF_SOURCE_LOCAL_1_2V,
  28:Generated_Source\PSoC6\pdl\drivers\peripheral\sysanalog/cy_sysanalog.c ****     /*.deepSleep  */ CY_SYSANALOG_DEEPSLEEP_DISABLE,
  29:Generated_Source\PSoC6\pdl\drivers\peripheral\sysanalog/cy_sysanalog.c **** };
  30:Generated_Source\PSoC6\pdl\drivers\peripheral\sysanalog/cy_sysanalog.c **** 
  31:Generated_Source\PSoC6\pdl\drivers\peripheral\sysanalog/cy_sysanalog.c **** /* Configure the AREF to use the SRSS Vref and SRSS IZTAT. Can be used with \ref Cy_SysAnalog_Init.
  32:Generated_Source\PSoC6\pdl\drivers\peripheral\sysanalog/cy_sysanalog.c **** const cy_stc_sysanalog_config_t Cy_SysAnalog_Fast_SRSS =
  33:Generated_Source\PSoC6\pdl\drivers\peripheral\sysanalog/cy_sysanalog.c **** {
  34:Generated_Source\PSoC6\pdl\drivers\peripheral\sysanalog/cy_sysanalog.c ****     /*.startup    */ CY_SYSANALOG_STARTUP_FAST,
  35:Generated_Source\PSoC6\pdl\drivers\peripheral\sysanalog/cy_sysanalog.c ****     /*.iztat      */ CY_SYSANALOG_IZTAT_SOURCE_SRSS,
  36:Generated_Source\PSoC6\pdl\drivers\peripheral\sysanalog/cy_sysanalog.c ****     /*.vref       */ CY_SYSANALOG_VREF_SOURCE_SRSS,
  37:Generated_Source\PSoC6\pdl\drivers\peripheral\sysanalog/cy_sysanalog.c ****     /*.deepSleep  */ CY_SYSANALOG_DEEPSLEEP_DISABLE,
  38:Generated_Source\PSoC6\pdl\drivers\peripheral\sysanalog/cy_sysanalog.c **** };
  39:Generated_Source\PSoC6\pdl\drivers\peripheral\sysanalog/cy_sysanalog.c **** 
  40:Generated_Source\PSoC6\pdl\drivers\peripheral\sysanalog/cy_sysanalog.c **** /* Configure the AREF to use the external Vref and local IZTAT. Can be used with \ref Cy_SysAnalog_
  41:Generated_Source\PSoC6\pdl\drivers\peripheral\sysanalog/cy_sysanalog.c **** const cy_stc_sysanalog_config_t Cy_SysAnalog_Fast_External =
  42:Generated_Source\PSoC6\pdl\drivers\peripheral\sysanalog/cy_sysanalog.c **** {
  43:Generated_Source\PSoC6\pdl\drivers\peripheral\sysanalog/cy_sysanalog.c ****     /*.startup    */ CY_SYSANALOG_STARTUP_FAST,
ARM GAS  C:\Users\tmj32\AppData\Local\Temp\ccXf5w1a.s 			page 3


  44:Generated_Source\PSoC6\pdl\drivers\peripheral\sysanalog/cy_sysanalog.c ****     /*.iztat      */ CY_SYSANALOG_IZTAT_SOURCE_LOCAL,
  45:Generated_Source\PSoC6\pdl\drivers\peripheral\sysanalog/cy_sysanalog.c ****     /*.vref       */ CY_SYSANALOG_VREF_SOURCE_EXTERNAL,
  46:Generated_Source\PSoC6\pdl\drivers\peripheral\sysanalog/cy_sysanalog.c ****     /*.deepSleep  */ CY_SYSANALOG_DEEPSLEEP_DISABLE,
  47:Generated_Source\PSoC6\pdl\drivers\peripheral\sysanalog/cy_sysanalog.c **** };
  48:Generated_Source\PSoC6\pdl\drivers\peripheral\sysanalog/cy_sysanalog.c **** 
  49:Generated_Source\PSoC6\pdl\drivers\peripheral\sysanalog/cy_sysanalog.c **** /*******************************************************************************
  50:Generated_Source\PSoC6\pdl\drivers\peripheral\sysanalog/cy_sysanalog.c **** * Function Name: Cy_SysAnalog_Init
  51:Generated_Source\PSoC6\pdl\drivers\peripheral\sysanalog/cy_sysanalog.c **** ****************************************************************************//**
  52:Generated_Source\PSoC6\pdl\drivers\peripheral\sysanalog/cy_sysanalog.c **** *
  53:Generated_Source\PSoC6\pdl\drivers\peripheral\sysanalog/cy_sysanalog.c **** * Initialize the AREF block.
  54:Generated_Source\PSoC6\pdl\drivers\peripheral\sysanalog/cy_sysanalog.c **** *
  55:Generated_Source\PSoC6\pdl\drivers\peripheral\sysanalog/cy_sysanalog.c **** * \param config
  56:Generated_Source\PSoC6\pdl\drivers\peripheral\sysanalog/cy_sysanalog.c **** * Pointer to structure containing configuration data. See \ref cy_stc_sysanalog_config_t
  57:Generated_Source\PSoC6\pdl\drivers\peripheral\sysanalog/cy_sysanalog.c **** *
  58:Generated_Source\PSoC6\pdl\drivers\peripheral\sysanalog/cy_sysanalog.c **** * \return
  59:Generated_Source\PSoC6\pdl\drivers\peripheral\sysanalog/cy_sysanalog.c **** * - \ref CY_SYSANALOG_SUCCESS : initialization complete
  60:Generated_Source\PSoC6\pdl\drivers\peripheral\sysanalog/cy_sysanalog.c **** * - \ref CY_SYSANALOG_BAD_PARAM : input pointers are null, initialization incomplete
  61:Generated_Source\PSoC6\pdl\drivers\peripheral\sysanalog/cy_sysanalog.c **** *
  62:Generated_Source\PSoC6\pdl\drivers\peripheral\sysanalog/cy_sysanalog.c **** * \funcusage
  63:Generated_Source\PSoC6\pdl\drivers\peripheral\sysanalog/cy_sysanalog.c **** *
  64:Generated_Source\PSoC6\pdl\drivers\peripheral\sysanalog/cy_sysanalog.c **** * \snippet sysanalog_sut_01.cydsn/main_cm0p.c SYSANA_SNIPPET_INIT
  65:Generated_Source\PSoC6\pdl\drivers\peripheral\sysanalog/cy_sysanalog.c **** *
  66:Generated_Source\PSoC6\pdl\drivers\peripheral\sysanalog/cy_sysanalog.c **** *******************************************************************************/
  67:Generated_Source\PSoC6\pdl\drivers\peripheral\sysanalog/cy_sysanalog.c **** cy_en_sysanalog_status_t Cy_SysAnalog_Init(const cy_stc_sysanalog_config_t *config)
  68:Generated_Source\PSoC6\pdl\drivers\peripheral\sysanalog/cy_sysanalog.c **** {
  64              		.loc 1 68 0
  65              		.cfi_startproc
  66              		@ args = 0, pretend = 0, frame = 16
  67              		@ frame_needed = 1, uses_anonymous_args = 0
  68 0000 80B5     		push	{r7, lr}
  69              		.cfi_def_cfa_offset 8
  70              		.cfi_offset 7, -8
  71              		.cfi_offset 14, -4
  72 0002 84B0     		sub	sp, sp, #16
  73              		.cfi_def_cfa_offset 24
  74 0004 00AF     		add	r7, sp, #0
  75              		.cfi_def_cfa_register 7
  76 0006 7860     		str	r0, [r7, #4]
  69:Generated_Source\PSoC6\pdl\drivers\peripheral\sysanalog/cy_sysanalog.c ****     CY_ASSERT_L1(NULL != config);
  77              		.loc 1 69 0
  78 0008 7B68     		ldr	r3, [r7, #4]
  79 000a 002B     		cmp	r3, #0
  80 000c 03D1     		bne	.L2
  81              		.loc 1 69 0 is_stmt 0 discriminator 1
  82 000e 4521     		movs	r1, #69
  83 0010 3548     		ldr	r0, .L10
  84 0012 FFF7FEFF 		bl	Cy_SysLib_AssertFailed
  85              	.L2:
  70:Generated_Source\PSoC6\pdl\drivers\peripheral\sysanalog/cy_sysanalog.c **** 
  71:Generated_Source\PSoC6\pdl\drivers\peripheral\sysanalog/cy_sysanalog.c ****     cy_en_sysanalog_status_t result;
  72:Generated_Source\PSoC6\pdl\drivers\peripheral\sysanalog/cy_sysanalog.c ****     uint32_t ctrlReg = CY_SYSANALOG_DEINIT;
  86              		.loc 1 72 0 is_stmt 1
  87 0016 0023     		movs	r3, #0
  88 0018 BB60     		str	r3, [r7, #8]
  73:Generated_Source\PSoC6\pdl\drivers\peripheral\sysanalog/cy_sysanalog.c **** 
  74:Generated_Source\PSoC6\pdl\drivers\peripheral\sysanalog/cy_sysanalog.c ****     if (NULL == config)
  89              		.loc 1 74 0
ARM GAS  C:\Users\tmj32\AppData\Local\Temp\ccXf5w1a.s 			page 4


  90 001a 7B68     		ldr	r3, [r7, #4]
  91 001c 002B     		cmp	r3, #0
  92 001e 02D1     		bne	.L3
  75:Generated_Source\PSoC6\pdl\drivers\peripheral\sysanalog/cy_sysanalog.c ****     {
  76:Generated_Source\PSoC6\pdl\drivers\peripheral\sysanalog/cy_sysanalog.c ****         result = CY_SYSANALOG_BAD_PARAM;
  93              		.loc 1 76 0
  94 0020 324B     		ldr	r3, .L10+4
  95 0022 FB60     		str	r3, [r7, #12]
  96 0024 5AE0     		b	.L4
  97              	.L3:
  77:Generated_Source\PSoC6\pdl\drivers\peripheral\sysanalog/cy_sysanalog.c ****     }
  78:Generated_Source\PSoC6\pdl\drivers\peripheral\sysanalog/cy_sysanalog.c ****     else
  79:Generated_Source\PSoC6\pdl\drivers\peripheral\sysanalog/cy_sysanalog.c ****     {
  80:Generated_Source\PSoC6\pdl\drivers\peripheral\sysanalog/cy_sysanalog.c ****         CY_ASSERT_L3(CY_SYSANALOG_STARTUP(config->startup));
  98              		.loc 1 80 0
  99 0026 7B68     		ldr	r3, [r7, #4]
 100 0028 1B78     		ldrb	r3, [r3]	@ zero_extendqisi2
 101 002a 002B     		cmp	r3, #0
 102 002c 07D0     		beq	.L5
 103              		.loc 1 80 0 is_stmt 0 discriminator 1
 104 002e 7B68     		ldr	r3, [r7, #4]
 105 0030 1B78     		ldrb	r3, [r3]	@ zero_extendqisi2
 106 0032 012B     		cmp	r3, #1
 107 0034 03D0     		beq	.L5
 108              		.loc 1 80 0 discriminator 2
 109 0036 5021     		movs	r1, #80
 110 0038 2B48     		ldr	r0, .L10
 111 003a FFF7FEFF 		bl	Cy_SysLib_AssertFailed
 112              	.L5:
  81:Generated_Source\PSoC6\pdl\drivers\peripheral\sysanalog/cy_sysanalog.c ****         CY_ASSERT_L3(CY_SYSANALOG_DEEPSLEEP(config->deepSleep));
 113              		.loc 1 81 0 is_stmt 1
 114 003e 7B68     		ldr	r3, [r7, #4]
 115 0040 DB68     		ldr	r3, [r3, #12]
 116 0042 002B     		cmp	r3, #0
 117 0044 12D0     		beq	.L6
 118              		.loc 1 81 0 is_stmt 0 discriminator 1
 119 0046 7B68     		ldr	r3, [r7, #4]
 120 0048 DB68     		ldr	r3, [r3, #12]
 121 004a B3F1A04F 		cmp	r3, #1342177280
 122 004e 0DD0     		beq	.L6
 123              		.loc 1 81 0 discriminator 2
 124 0050 7B68     		ldr	r3, [r7, #4]
 125 0052 DB68     		ldr	r3, [r3, #12]
 126 0054 B3F1C04F 		cmp	r3, #1610612736
 127 0058 08D0     		beq	.L6
 128              		.loc 1 81 0 discriminator 3
 129 005a 7B68     		ldr	r3, [r7, #4]
 130 005c DB68     		ldr	r3, [r3, #12]
 131 005e B3F1E04F 		cmp	r3, #1879048192
 132 0062 03D0     		beq	.L6
 133              		.loc 1 81 0 discriminator 4
 134 0064 5121     		movs	r1, #81
 135 0066 2048     		ldr	r0, .L10
 136 0068 FFF7FEFF 		bl	Cy_SysLib_AssertFailed
 137              	.L6:
  82:Generated_Source\PSoC6\pdl\drivers\peripheral\sysanalog/cy_sysanalog.c ****         CY_ASSERT_L3(CY_SYSANALOG_VREF(config->vref));
 138              		.loc 1 82 0 is_stmt 1
ARM GAS  C:\Users\tmj32\AppData\Local\Temp\ccXf5w1a.s 			page 5


 139 006c 7B68     		ldr	r3, [r7, #4]
 140 006e 9B68     		ldr	r3, [r3, #8]
 141 0070 002B     		cmp	r3, #0
 142 0072 0DD0     		beq	.L7
 143              		.loc 1 82 0 is_stmt 0 discriminator 1
 144 0074 7B68     		ldr	r3, [r7, #4]
 145 0076 9B68     		ldr	r3, [r3, #8]
 146 0078 B3F5801F 		cmp	r3, #1048576
 147 007c 08D0     		beq	.L7
 148              		.loc 1 82 0 discriminator 2
 149 007e 7B68     		ldr	r3, [r7, #4]
 150 0080 9B68     		ldr	r3, [r3, #8]
 151 0082 B3F5001F 		cmp	r3, #2097152
 152 0086 03D0     		beq	.L7
 153              		.loc 1 82 0 discriminator 3
 154 0088 5221     		movs	r1, #82
 155 008a 1748     		ldr	r0, .L10
 156 008c FFF7FEFF 		bl	Cy_SysLib_AssertFailed
 157              	.L7:
  83:Generated_Source\PSoC6\pdl\drivers\peripheral\sysanalog/cy_sysanalog.c ****         CY_ASSERT_L3(CY_SYSANALOG_IZTAT(config->iztat));
 158              		.loc 1 83 0 is_stmt 1
 159 0090 7B68     		ldr	r3, [r7, #4]
 160 0092 5B68     		ldr	r3, [r3, #4]
 161 0094 002B     		cmp	r3, #0
 162 0096 08D0     		beq	.L8
 163              		.loc 1 83 0 is_stmt 0 discriminator 1
 164 0098 7B68     		ldr	r3, [r7, #4]
 165 009a 5B68     		ldr	r3, [r3, #4]
 166 009c B3F5803F 		cmp	r3, #65536
 167 00a0 03D0     		beq	.L8
 168              		.loc 1 83 0 discriminator 2
 169 00a2 5321     		movs	r1, #83
 170 00a4 1048     		ldr	r0, .L10
 171 00a6 FFF7FEFF 		bl	Cy_SysLib_AssertFailed
 172              	.L8:
  84:Generated_Source\PSoC6\pdl\drivers\peripheral\sysanalog/cy_sysanalog.c **** 
  85:Generated_Source\PSoC6\pdl\drivers\peripheral\sysanalog/cy_sysanalog.c ****         ctrlReg = (uint32_t) config->startup \
 173              		.loc 1 85 0 is_stmt 1
 174 00aa 7B68     		ldr	r3, [r7, #4]
 175 00ac 1B78     		ldrb	r3, [r3]	@ zero_extendqisi2
  86:Generated_Source\PSoC6\pdl\drivers\peripheral\sysanalog/cy_sysanalog.c ****                   | CY_SYSANALOG_DEFAULT_BIAS_SCALE \
 176              		.loc 1 86 0
 177 00ae 43F00403 		orr	r3, r3, #4
 178 00b2 DBB2     		uxtb	r3, r3
 179 00b4 1A46     		mov	r2, r3
  87:Generated_Source\PSoC6\pdl\drivers\peripheral\sysanalog/cy_sysanalog.c ****                   | (uint32_t) config->iztat \
 180              		.loc 1 87 0
 181 00b6 7B68     		ldr	r3, [r7, #4]
 182 00b8 5B68     		ldr	r3, [r3, #4]
 183 00ba 1A43     		orrs	r2, r2, r3
  88:Generated_Source\PSoC6\pdl\drivers\peripheral\sysanalog/cy_sysanalog.c ****                   | (uint32_t) config->vref \
 184              		.loc 1 88 0
 185 00bc 7B68     		ldr	r3, [r7, #4]
 186 00be 9B68     		ldr	r3, [r3, #8]
 187 00c0 1A43     		orrs	r2, r2, r3
  89:Generated_Source\PSoC6\pdl\drivers\peripheral\sysanalog/cy_sysanalog.c ****                   | (uint32_t) config->deepSleep;
 188              		.loc 1 89 0
ARM GAS  C:\Users\tmj32\AppData\Local\Temp\ccXf5w1a.s 			page 6


 189 00c2 7B68     		ldr	r3, [r7, #4]
 190 00c4 DB68     		ldr	r3, [r3, #12]
  85:Generated_Source\PSoC6\pdl\drivers\peripheral\sysanalog/cy_sysanalog.c ****                   | CY_SYSANALOG_DEFAULT_BIAS_SCALE \
 191              		.loc 1 85 0
 192 00c6 1343     		orrs	r3, r3, r2
 193 00c8 BB60     		str	r3, [r7, #8]
  90:Generated_Source\PSoC6\pdl\drivers\peripheral\sysanalog/cy_sysanalog.c **** 
  91:Generated_Source\PSoC6\pdl\drivers\peripheral\sysanalog/cy_sysanalog.c ****         PASS_AREF_AREF_CTRL = ctrlReg;
 194              		.loc 1 91 0
 195 00ca 094B     		ldr	r3, .L10+8
 196 00cc 1B68     		ldr	r3, [r3]
 197 00ce DB69     		ldr	r3, [r3, #28]
 198 00d0 1A46     		mov	r2, r3
 199 00d2 BB68     		ldr	r3, [r7, #8]
 200 00d4 C2F8003E 		str	r3, [r2, #3584]
  92:Generated_Source\PSoC6\pdl\drivers\peripheral\sysanalog/cy_sysanalog.c **** 
  93:Generated_Source\PSoC6\pdl\drivers\peripheral\sysanalog/cy_sysanalog.c ****         result = CY_SYSANALOG_SUCCESS;
 201              		.loc 1 93 0
 202 00d8 0023     		movs	r3, #0
 203 00da FB60     		str	r3, [r7, #12]
 204              	.L4:
  94:Generated_Source\PSoC6\pdl\drivers\peripheral\sysanalog/cy_sysanalog.c ****     }
  95:Generated_Source\PSoC6\pdl\drivers\peripheral\sysanalog/cy_sysanalog.c **** 
  96:Generated_Source\PSoC6\pdl\drivers\peripheral\sysanalog/cy_sysanalog.c ****     return result;
 205              		.loc 1 96 0
 206 00dc FB68     		ldr	r3, [r7, #12]
  97:Generated_Source\PSoC6\pdl\drivers\peripheral\sysanalog/cy_sysanalog.c **** }
 207              		.loc 1 97 0
 208 00de 1846     		mov	r0, r3
 209 00e0 1037     		adds	r7, r7, #16
 210              		.cfi_def_cfa_offset 8
 211 00e2 BD46     		mov	sp, r7
 212              		.cfi_def_cfa_register 13
 213              		@ sp needed
 214 00e4 80BD     		pop	{r7, pc}
 215              	.L11:
 216 00e6 00BF     		.align	2
 217              	.L10:
 218 00e8 30000000 		.word	.LC0
 219 00ec 01005E00 		.word	6160385
 220 00f0 00000000 		.word	cy_device
 221              		.cfi_endproc
 222              	.LFE175:
 223              		.size	Cy_SysAnalog_Init, .-Cy_SysAnalog_Init
 224              		.text
 225              	.Letext0:
 226              		.file 2 "c:\\program files (x86)\\cypress\\psoc creator\\4.3\\psoc creator\\import\\gnu\\arm\\5.4.
 227              		.file 3 "c:\\program files (x86)\\cypress\\psoc creator\\4.3\\psoc creator\\import\\gnu\\arm\\5.4.
 228              		.file 4 "Generated_Source\\PSoC6\\pdl\\devices/psoc6/include/ip/cyip_pass.h"
 229              		.file 5 "Generated_Source\\PSoC6\\pdl\\drivers/peripheral/device/cy_device.h"
 230              		.file 6 "Generated_Source\\PSoC6\\pdl\\drivers/peripheral/syslib/cy_syslib.h"
 231              		.file 7 "Generated_Source\\PSoC6\\pdl\\drivers\\peripheral\\sysanalog\\cy_sysanalog.h"
 232              		.file 8 "Generated_Source\\PSoC6\\pdl\\cmsis/include/core_cm4.h"