ARM GAS  C:\Users\tmj32\AppData\Local\Temp\cct9Y8Rk.s 			page 1


   1              		.syntax unified
   2              		.cpu cortex-m4
   3              		.eabi_attribute 27, 1
   4              		.fpu fpv4-sp-d16
   5              		.eabi_attribute 20, 1
   6              		.eabi_attribute 21, 1
   7              		.eabi_attribute 23, 3
   8              		.eabi_attribute 24, 1
   9              		.eabi_attribute 25, 1
  10              		.eabi_attribute 26, 1
  11              		.eabi_attribute 30, 6
  12              		.eabi_attribute 34, 1
  13              		.eabi_attribute 18, 4
  14              		.thumb
  15              		.syntax unified
  16              		.file	"cy_systick.c"
  17              		.text
  18              	.Ltext0:
  19              		.cfi_sections	.debug_frame
  20              		.section	.text.Cy_SysTick_EnableInterrupt,"ax",%progbits
  21              		.align	2
  22              		.thumb
  23              		.thumb_func
  24              		.type	Cy_SysTick_EnableInterrupt, %function
  25              	Cy_SysTick_EnableInterrupt:
  26              	.LFB132:
  27              		.file 1 "Generated_Source\\PSoC6\\pdl\\drivers\\peripheral\\systick\\cy_systick.h"
   1:Generated_Source\PSoC6\pdl\drivers\peripheral\systick/cy_systick.h **** /***************************************************************************//**
   2:Generated_Source\PSoC6\pdl\drivers\peripheral\systick/cy_systick.h **** * \file cy_systick.h
   3:Generated_Source\PSoC6\pdl\drivers\peripheral\systick/cy_systick.h **** * \version 1.10
   4:Generated_Source\PSoC6\pdl\drivers\peripheral\systick/cy_systick.h **** *
   5:Generated_Source\PSoC6\pdl\drivers\peripheral\systick/cy_systick.h **** * Provides the API declarations of the SysTick driver.
   6:Generated_Source\PSoC6\pdl\drivers\peripheral\systick/cy_systick.h **** *
   7:Generated_Source\PSoC6\pdl\drivers\peripheral\systick/cy_systick.h **** ********************************************************************************
   8:Generated_Source\PSoC6\pdl\drivers\peripheral\systick/cy_systick.h **** * \copyright
   9:Generated_Source\PSoC6\pdl\drivers\peripheral\systick/cy_systick.h **** * Copyright 2016-2018, Cypress Semiconductor Corporation.  All rights reserved.
  10:Generated_Source\PSoC6\pdl\drivers\peripheral\systick/cy_systick.h **** * You may use this file only in accordance with the license, terms, conditions,
  11:Generated_Source\PSoC6\pdl\drivers\peripheral\systick/cy_systick.h **** * disclaimers, and limitations in the end user license agreement accompanying
  12:Generated_Source\PSoC6\pdl\drivers\peripheral\systick/cy_systick.h **** * the software package with which this file was provided.
  13:Generated_Source\PSoC6\pdl\drivers\peripheral\systick/cy_systick.h **** *******************************************************************************/
  14:Generated_Source\PSoC6\pdl\drivers\peripheral\systick/cy_systick.h **** 
  15:Generated_Source\PSoC6\pdl\drivers\peripheral\systick/cy_systick.h **** #ifndef CY_SYSTICK_H
  16:Generated_Source\PSoC6\pdl\drivers\peripheral\systick/cy_systick.h **** #define CY_SYSTICK_H
  17:Generated_Source\PSoC6\pdl\drivers\peripheral\systick/cy_systick.h **** 
  18:Generated_Source\PSoC6\pdl\drivers\peripheral\systick/cy_systick.h **** /**
  19:Generated_Source\PSoC6\pdl\drivers\peripheral\systick/cy_systick.h **** * \addtogroup group_arm_system_timer
  20:Generated_Source\PSoC6\pdl\drivers\peripheral\systick/cy_systick.h **** * \{
  21:Generated_Source\PSoC6\pdl\drivers\peripheral\systick/cy_systick.h **** * Provides vendor-specific SysTick API.
  22:Generated_Source\PSoC6\pdl\drivers\peripheral\systick/cy_systick.h **** *
  23:Generated_Source\PSoC6\pdl\drivers\peripheral\systick/cy_systick.h **** * The functions and other declarations used in this driver are in cy_systick.h. 
  24:Generated_Source\PSoC6\pdl\drivers\peripheral\systick/cy_systick.h **** * You can include cy_pdl.h (ModusToolbox only) to get access to all functions and declarations in t
  25:Generated_Source\PSoC6\pdl\drivers\peripheral\systick/cy_systick.h **** *
  26:Generated_Source\PSoC6\pdl\drivers\peripheral\systick/cy_systick.h **** * The SysTick timer is part of the CPU. The timer is a down counter with a 24-bit reload/tick value
  27:Generated_Source\PSoC6\pdl\drivers\peripheral\systick/cy_systick.h **** * the FastClk/SlowClk. The timer has the capability to generate an interrupt when the set number of
  28:Generated_Source\PSoC6\pdl\drivers\peripheral\systick/cy_systick.h **** * the counter is reloaded. This interrupt is available as part of the Nested Vectored Interrupt Con
  29:Generated_Source\PSoC6\pdl\drivers\peripheral\systick/cy_systick.h **** * service by the CPU and can be used for general-purpose timing control in user code.
  30:Generated_Source\PSoC6\pdl\drivers\peripheral\systick/cy_systick.h **** *
ARM GAS  C:\Users\tmj32\AppData\Local\Temp\cct9Y8Rk.s 			page 2


  31:Generated_Source\PSoC6\pdl\drivers\peripheral\systick/cy_systick.h **** * The timer is independent of the CPU (except for the clock), which is useful in applications requi
  32:Generated_Source\PSoC6\pdl\drivers\peripheral\systick/cy_systick.h **** * precise timing that do not have a dedicated timer/counter available for the job.
  33:Generated_Source\PSoC6\pdl\drivers\peripheral\systick/cy_systick.h **** *
  34:Generated_Source\PSoC6\pdl\drivers\peripheral\systick/cy_systick.h **** * \section group_systick_configuration Configuration Considerations
  35:Generated_Source\PSoC6\pdl\drivers\peripheral\systick/cy_systick.h **** *
  36:Generated_Source\PSoC6\pdl\drivers\peripheral\systick/cy_systick.h **** * The \ref Cy_SysTick_Init() performs all required driver's initialization and enables the timer. T
  37:Generated_Source\PSoC6\pdl\drivers\peripheral\systick/cy_systick.h **** * two parameters: clock source \ref cy_en_systick_clock_source_t and the timer interval. You must e
  38:Generated_Source\PSoC6\pdl\drivers\peripheral\systick/cy_systick.h **** * the selected clock source for SysTick is enabled.
  39:Generated_Source\PSoC6\pdl\drivers\peripheral\systick/cy_systick.h **** * The callbacks can be registered/unregistered any time after \ref Cy_SysTick_Init() by calling
  40:Generated_Source\PSoC6\pdl\drivers\peripheral\systick/cy_systick.h **** * \ref Cy_SysTick_SetCallback().
  41:Generated_Source\PSoC6\pdl\drivers\peripheral\systick/cy_systick.h **** *
  42:Generated_Source\PSoC6\pdl\drivers\peripheral\systick/cy_systick.h **** * Changing the SysTick clock source and/or its frequency will change the interrupt interval and the
  43:Generated_Source\PSoC6\pdl\drivers\peripheral\systick/cy_systick.h **** * \ref Cy_SysTick_SetReload() should be called to compensate for this change.
  44:Generated_Source\PSoC6\pdl\drivers\peripheral\systick/cy_systick.h **** *
  45:Generated_Source\PSoC6\pdl\drivers\peripheral\systick/cy_systick.h **** * \section group_systick_more_information More Information
  46:Generated_Source\PSoC6\pdl\drivers\peripheral\systick/cy_systick.h **** *
  47:Generated_Source\PSoC6\pdl\drivers\peripheral\systick/cy_systick.h **** * Refer to the SysTick section of the ARM reference guide for complete details on the registers and
  48:Generated_Source\PSoC6\pdl\drivers\peripheral\systick/cy_systick.h **** * See also the "CPU Subsystem (CPUSS)" chapter of the device technical reference manual (TRM).
  49:Generated_Source\PSoC6\pdl\drivers\peripheral\systick/cy_systick.h **** *
  50:Generated_Source\PSoC6\pdl\drivers\peripheral\systick/cy_systick.h **** * \section group_systick_MISRA MISRA-C Compliance
  51:Generated_Source\PSoC6\pdl\drivers\peripheral\systick/cy_systick.h **** *
  52:Generated_Source\PSoC6\pdl\drivers\peripheral\systick/cy_systick.h **** * <table class="doxtable">
  53:Generated_Source\PSoC6\pdl\drivers\peripheral\systick/cy_systick.h **** *   <tr>
  54:Generated_Source\PSoC6\pdl\drivers\peripheral\systick/cy_systick.h **** *       <th>MISRA Rule</th>
  55:Generated_Source\PSoC6\pdl\drivers\peripheral\systick/cy_systick.h **** *       <th>Rule Class (Required/Advisory)</th>
  56:Generated_Source\PSoC6\pdl\drivers\peripheral\systick/cy_systick.h **** *       <th>Rule Description</th>
  57:Generated_Source\PSoC6\pdl\drivers\peripheral\systick/cy_systick.h **** *       <th>Description of Deviation(s)</th>
  58:Generated_Source\PSoC6\pdl\drivers\peripheral\systick/cy_systick.h **** *   </tr>
  59:Generated_Source\PSoC6\pdl\drivers\peripheral\systick/cy_systick.h **** *   <tr>
  60:Generated_Source\PSoC6\pdl\drivers\peripheral\systick/cy_systick.h **** *       <td>8.12</td>
  61:Generated_Source\PSoC6\pdl\drivers\peripheral\systick/cy_systick.h **** *       <td>Required</td>
  62:Generated_Source\PSoC6\pdl\drivers\peripheral\systick/cy_systick.h **** *       <td>When an array is declared with external linkage, its size shall be
  63:Generated_Source\PSoC6\pdl\drivers\peripheral\systick/cy_systick.h **** *           stated explicitly or defined implicitly by initialization.</td>
  64:Generated_Source\PSoC6\pdl\drivers\peripheral\systick/cy_systick.h **** *       <td>The warning is related to the __ramVectors symbol defined in the assembly startup code.
  65:Generated_Source\PSoC6\pdl\drivers\peripheral\systick/cy_systick.h **** *           It's size is device-specific and unknown to the SysTick driver.</td>
  66:Generated_Source\PSoC6\pdl\drivers\peripheral\systick/cy_systick.h **** *   </tr>
  67:Generated_Source\PSoC6\pdl\drivers\peripheral\systick/cy_systick.h **** * </table>
  68:Generated_Source\PSoC6\pdl\drivers\peripheral\systick/cy_systick.h **** *
  69:Generated_Source\PSoC6\pdl\drivers\peripheral\systick/cy_systick.h **** * \section group_systick_changelog Changelog
  70:Generated_Source\PSoC6\pdl\drivers\peripheral\systick/cy_systick.h **** *
  71:Generated_Source\PSoC6\pdl\drivers\peripheral\systick/cy_systick.h **** * <table class="doxtable">
  72:Generated_Source\PSoC6\pdl\drivers\peripheral\systick/cy_systick.h **** * <tr><th>Version</th><th>Changes</th><th>Reason for Change</th></tr>
  73:Generated_Source\PSoC6\pdl\drivers\peripheral\systick/cy_systick.h **** * <tr>
  74:Generated_Source\PSoC6\pdl\drivers\peripheral\systick/cy_systick.h **** *   <td rowspan="2">1.10</td>
  75:Generated_Source\PSoC6\pdl\drivers\peripheral\systick/cy_systick.h **** *     <td>Flattened the organization of the driver source code into the single 
  76:Generated_Source\PSoC6\pdl\drivers\peripheral\systick/cy_systick.h **** *         source directory and the single include directory.
  77:Generated_Source\PSoC6\pdl\drivers\peripheral\systick/cy_systick.h **** *     </td>
  78:Generated_Source\PSoC6\pdl\drivers\peripheral\systick/cy_systick.h **** *     <td>Driver library directory-structure simplification.</td>
  79:Generated_Source\PSoC6\pdl\drivers\peripheral\systick/cy_systick.h **** * </tr>
  80:Generated_Source\PSoC6\pdl\drivers\peripheral\systick/cy_systick.h **** *   <tr>
  81:Generated_Source\PSoC6\pdl\drivers\peripheral\systick/cy_systick.h **** *     <td>Added register access layer. Use register access macros instead
  82:Generated_Source\PSoC6\pdl\drivers\peripheral\systick/cy_systick.h **** *         of direct register access using dereferenced pointers.</td>
  83:Generated_Source\PSoC6\pdl\drivers\peripheral\systick/cy_systick.h **** *     <td>Makes register access device-independent, so that the PDL does 
  84:Generated_Source\PSoC6\pdl\drivers\peripheral\systick/cy_systick.h **** *         not need to be recompiled for each supported part number.</td>
  85:Generated_Source\PSoC6\pdl\drivers\peripheral\systick/cy_systick.h **** *   </tr>
  86:Generated_Source\PSoC6\pdl\drivers\peripheral\systick/cy_systick.h **** * <tr>
  87:Generated_Source\PSoC6\pdl\drivers\peripheral\systick/cy_systick.h **** * <td>1.0.1</td>
ARM GAS  C:\Users\tmj32\AppData\Local\Temp\cct9Y8Rk.s 			page 3


  88:Generated_Source\PSoC6\pdl\drivers\peripheral\systick/cy_systick.h **** * <td>Fixed a warning issued when the compilation of C++ source code was
  89:Generated_Source\PSoC6\pdl\drivers\peripheral\systick/cy_systick.h **** *     enabled.</td> 
  90:Generated_Source\PSoC6\pdl\drivers\peripheral\systick/cy_systick.h **** * <td></td>
  91:Generated_Source\PSoC6\pdl\drivers\peripheral\systick/cy_systick.h **** * </tr>
  92:Generated_Source\PSoC6\pdl\drivers\peripheral\systick/cy_systick.h **** * <tr>
  93:Generated_Source\PSoC6\pdl\drivers\peripheral\systick/cy_systick.h **** * <td>1.0</td>
  94:Generated_Source\PSoC6\pdl\drivers\peripheral\systick/cy_systick.h **** * <td>Initial version</td>
  95:Generated_Source\PSoC6\pdl\drivers\peripheral\systick/cy_systick.h **** * <td></td>
  96:Generated_Source\PSoC6\pdl\drivers\peripheral\systick/cy_systick.h **** * </tr>
  97:Generated_Source\PSoC6\pdl\drivers\peripheral\systick/cy_systick.h **** * </table>
  98:Generated_Source\PSoC6\pdl\drivers\peripheral\systick/cy_systick.h **** *
  99:Generated_Source\PSoC6\pdl\drivers\peripheral\systick/cy_systick.h **** * \defgroup group_systick_macros Macros
 100:Generated_Source\PSoC6\pdl\drivers\peripheral\systick/cy_systick.h **** * \defgroup group_systick_functions Functions
 101:Generated_Source\PSoC6\pdl\drivers\peripheral\systick/cy_systick.h **** * \defgroup group_systick_data_structures Data Structures
 102:Generated_Source\PSoC6\pdl\drivers\peripheral\systick/cy_systick.h **** */
 103:Generated_Source\PSoC6\pdl\drivers\peripheral\systick/cy_systick.h **** 
 104:Generated_Source\PSoC6\pdl\drivers\peripheral\systick/cy_systick.h **** #include <stdint.h>
 105:Generated_Source\PSoC6\pdl\drivers\peripheral\systick/cy_systick.h **** #include "cy_syslib.h"
 106:Generated_Source\PSoC6\pdl\drivers\peripheral\systick/cy_systick.h **** #include "cy_device.h"
 107:Generated_Source\PSoC6\pdl\drivers\peripheral\systick/cy_systick.h **** 
 108:Generated_Source\PSoC6\pdl\drivers\peripheral\systick/cy_systick.h **** #ifdef __cplusplus
 109:Generated_Source\PSoC6\pdl\drivers\peripheral\systick/cy_systick.h **** extern "C" {
 110:Generated_Source\PSoC6\pdl\drivers\peripheral\systick/cy_systick.h **** #endif
 111:Generated_Source\PSoC6\pdl\drivers\peripheral\systick/cy_systick.h **** 
 112:Generated_Source\PSoC6\pdl\drivers\peripheral\systick/cy_systick.h **** /** \cond */
 113:Generated_Source\PSoC6\pdl\drivers\peripheral\systick/cy_systick.h **** extern cy_israddress __ramVectors[];
 114:Generated_Source\PSoC6\pdl\drivers\peripheral\systick/cy_systick.h **** typedef void (*Cy_SysTick_Callback)(void);
 115:Generated_Source\PSoC6\pdl\drivers\peripheral\systick/cy_systick.h **** /** \endcond */
 116:Generated_Source\PSoC6\pdl\drivers\peripheral\systick/cy_systick.h **** 
 117:Generated_Source\PSoC6\pdl\drivers\peripheral\systick/cy_systick.h **** /**
 118:Generated_Source\PSoC6\pdl\drivers\peripheral\systick/cy_systick.h **** * \addtogroup group_systick_data_structures
 119:Generated_Source\PSoC6\pdl\drivers\peripheral\systick/cy_systick.h **** * \{
 120:Generated_Source\PSoC6\pdl\drivers\peripheral\systick/cy_systick.h **** */
 121:Generated_Source\PSoC6\pdl\drivers\peripheral\systick/cy_systick.h **** /** SysTick clocks sources */
 122:Generated_Source\PSoC6\pdl\drivers\peripheral\systick/cy_systick.h **** typedef enum
 123:Generated_Source\PSoC6\pdl\drivers\peripheral\systick/cy_systick.h **** {
 124:Generated_Source\PSoC6\pdl\drivers\peripheral\systick/cy_systick.h ****     CY_SYSTICK_CLOCK_SOURCE_CLK_LF    = 0u,     /**< The low frequency clock clk_lf is selected. */
 125:Generated_Source\PSoC6\pdl\drivers\peripheral\systick/cy_systick.h ****     CY_SYSTICK_CLOCK_SOURCE_CLK_IMO   = 1u,     /**< The internal main oscillator (IMO) clock clk_i
 126:Generated_Source\PSoC6\pdl\drivers\peripheral\systick/cy_systick.h ****     CY_SYSTICK_CLOCK_SOURCE_CLK_ECO   = 2u,     /**< The external crystal oscillator (ECO) clock cl
 127:Generated_Source\PSoC6\pdl\drivers\peripheral\systick/cy_systick.h ****     CY_SYSTICK_CLOCK_SOURCE_CLK_TIMER = 3u,     /**< The SRSS clk_timer is selected. */
 128:Generated_Source\PSoC6\pdl\drivers\peripheral\systick/cy_systick.h ****     CY_SYSTICK_CLOCK_SOURCE_CLK_CPU   = 4u,     /**< The CPU clock is selected. */
 129:Generated_Source\PSoC6\pdl\drivers\peripheral\systick/cy_systick.h **** } cy_en_systick_clock_source_t;
 130:Generated_Source\PSoC6\pdl\drivers\peripheral\systick/cy_systick.h **** 
 131:Generated_Source\PSoC6\pdl\drivers\peripheral\systick/cy_systick.h **** /** \} group_systick_data_structures */
 132:Generated_Source\PSoC6\pdl\drivers\peripheral\systick/cy_systick.h **** 
 133:Generated_Source\PSoC6\pdl\drivers\peripheral\systick/cy_systick.h **** 
 134:Generated_Source\PSoC6\pdl\drivers\peripheral\systick/cy_systick.h **** /**
 135:Generated_Source\PSoC6\pdl\drivers\peripheral\systick/cy_systick.h **** * \addtogroup group_systick_functions
 136:Generated_Source\PSoC6\pdl\drivers\peripheral\systick/cy_systick.h **** * \{
 137:Generated_Source\PSoC6\pdl\drivers\peripheral\systick/cy_systick.h **** */
 138:Generated_Source\PSoC6\pdl\drivers\peripheral\systick/cy_systick.h **** 
 139:Generated_Source\PSoC6\pdl\drivers\peripheral\systick/cy_systick.h **** void Cy_SysTick_Init(cy_en_systick_clock_source_t clockSource, uint32_t interval);
 140:Generated_Source\PSoC6\pdl\drivers\peripheral\systick/cy_systick.h **** void Cy_SysTick_Enable(void);
 141:Generated_Source\PSoC6\pdl\drivers\peripheral\systick/cy_systick.h **** void Cy_SysTick_Disable(void);
 142:Generated_Source\PSoC6\pdl\drivers\peripheral\systick/cy_systick.h **** Cy_SysTick_Callback Cy_SysTick_SetCallback(uint32_t number, Cy_SysTick_Callback function);
 143:Generated_Source\PSoC6\pdl\drivers\peripheral\systick/cy_systick.h **** Cy_SysTick_Callback Cy_SysTick_GetCallback(uint32_t number);
 144:Generated_Source\PSoC6\pdl\drivers\peripheral\systick/cy_systick.h **** void Cy_SysTick_SetClockSource(cy_en_systick_clock_source_t clockSource);
ARM GAS  C:\Users\tmj32\AppData\Local\Temp\cct9Y8Rk.s 			page 4


 145:Generated_Source\PSoC6\pdl\drivers\peripheral\systick/cy_systick.h **** cy_en_systick_clock_source_t Cy_SysTick_GetClockSource(void);
 146:Generated_Source\PSoC6\pdl\drivers\peripheral\systick/cy_systick.h **** __STATIC_INLINE void Cy_SysTick_EnableInterrupt(void);
 147:Generated_Source\PSoC6\pdl\drivers\peripheral\systick/cy_systick.h **** __STATIC_INLINE void Cy_SysTick_DisableInterrupt(void);
 148:Generated_Source\PSoC6\pdl\drivers\peripheral\systick/cy_systick.h **** __STATIC_INLINE void Cy_SysTick_SetReload(uint32_t value);
 149:Generated_Source\PSoC6\pdl\drivers\peripheral\systick/cy_systick.h **** __STATIC_INLINE uint32_t Cy_SysTick_GetReload(void);
 150:Generated_Source\PSoC6\pdl\drivers\peripheral\systick/cy_systick.h **** __STATIC_INLINE uint32_t Cy_SysTick_GetValue(void);
 151:Generated_Source\PSoC6\pdl\drivers\peripheral\systick/cy_systick.h **** __STATIC_INLINE uint32_t Cy_SysTick_GetCountFlag(void);
 152:Generated_Source\PSoC6\pdl\drivers\peripheral\systick/cy_systick.h **** __STATIC_INLINE void Cy_SysTick_Clear(void);
 153:Generated_Source\PSoC6\pdl\drivers\peripheral\systick/cy_systick.h **** 
 154:Generated_Source\PSoC6\pdl\drivers\peripheral\systick/cy_systick.h **** /** \} group_systick_functions */
 155:Generated_Source\PSoC6\pdl\drivers\peripheral\systick/cy_systick.h **** 
 156:Generated_Source\PSoC6\pdl\drivers\peripheral\systick/cy_systick.h **** 
 157:Generated_Source\PSoC6\pdl\drivers\peripheral\systick/cy_systick.h **** /**
 158:Generated_Source\PSoC6\pdl\drivers\peripheral\systick/cy_systick.h **** * \addtogroup group_systick_macros
 159:Generated_Source\PSoC6\pdl\drivers\peripheral\systick/cy_systick.h **** * \{
 160:Generated_Source\PSoC6\pdl\drivers\peripheral\systick/cy_systick.h **** */
 161:Generated_Source\PSoC6\pdl\drivers\peripheral\systick/cy_systick.h **** 
 162:Generated_Source\PSoC6\pdl\drivers\peripheral\systick/cy_systick.h **** /** Driver major version */
 163:Generated_Source\PSoC6\pdl\drivers\peripheral\systick/cy_systick.h **** #define SYSTICK_DRV_VERSION_MAJOR       1
 164:Generated_Source\PSoC6\pdl\drivers\peripheral\systick/cy_systick.h **** 
 165:Generated_Source\PSoC6\pdl\drivers\peripheral\systick/cy_systick.h **** /** Driver minor version */
 166:Generated_Source\PSoC6\pdl\drivers\peripheral\systick/cy_systick.h **** #define SYSTICK_DRV_VERSION_MINOR       10
 167:Generated_Source\PSoC6\pdl\drivers\peripheral\systick/cy_systick.h **** 
 168:Generated_Source\PSoC6\pdl\drivers\peripheral\systick/cy_systick.h **** /** Number of the callbacks assigned to the SysTick interrupt */
 169:Generated_Source\PSoC6\pdl\drivers\peripheral\systick/cy_systick.h **** #define CY_SYS_SYST_NUM_OF_CALLBACKS         (5u)
 170:Generated_Source\PSoC6\pdl\drivers\peripheral\systick/cy_systick.h **** 
 171:Generated_Source\PSoC6\pdl\drivers\peripheral\systick/cy_systick.h **** /** \} group_systick_macros */
 172:Generated_Source\PSoC6\pdl\drivers\peripheral\systick/cy_systick.h **** 
 173:Generated_Source\PSoC6\pdl\drivers\peripheral\systick/cy_systick.h **** 
 174:Generated_Source\PSoC6\pdl\drivers\peripheral\systick/cy_systick.h **** /** \cond */
 175:Generated_Source\PSoC6\pdl\drivers\peripheral\systick/cy_systick.h **** /** Interrupt number in the vector table */
 176:Generated_Source\PSoC6\pdl\drivers\peripheral\systick/cy_systick.h **** #define CY_SYSTICK_IRQ_NUM                   (15u)
 177:Generated_Source\PSoC6\pdl\drivers\peripheral\systick/cy_systick.h **** /** \endcond */
 178:Generated_Source\PSoC6\pdl\drivers\peripheral\systick/cy_systick.h **** 
 179:Generated_Source\PSoC6\pdl\drivers\peripheral\systick/cy_systick.h **** /**
 180:Generated_Source\PSoC6\pdl\drivers\peripheral\systick/cy_systick.h **** * \addtogroup group_systick_functions
 181:Generated_Source\PSoC6\pdl\drivers\peripheral\systick/cy_systick.h **** * \{
 182:Generated_Source\PSoC6\pdl\drivers\peripheral\systick/cy_systick.h **** */
 183:Generated_Source\PSoC6\pdl\drivers\peripheral\systick/cy_systick.h **** 
 184:Generated_Source\PSoC6\pdl\drivers\peripheral\systick/cy_systick.h **** /*******************************************************************************
 185:Generated_Source\PSoC6\pdl\drivers\peripheral\systick/cy_systick.h **** * Function Name: Cy_SysTick_EnableInterrupt
 186:Generated_Source\PSoC6\pdl\drivers\peripheral\systick/cy_systick.h **** ****************************************************************************//**
 187:Generated_Source\PSoC6\pdl\drivers\peripheral\systick/cy_systick.h **** *
 188:Generated_Source\PSoC6\pdl\drivers\peripheral\systick/cy_systick.h **** * Enables the SysTick interrupt.
 189:Generated_Source\PSoC6\pdl\drivers\peripheral\systick/cy_systick.h **** *
 190:Generated_Source\PSoC6\pdl\drivers\peripheral\systick/cy_systick.h **** * \sideeffect Clears the SysTick count flag if it was set
 191:Generated_Source\PSoC6\pdl\drivers\peripheral\systick/cy_systick.h **** *
 192:Generated_Source\PSoC6\pdl\drivers\peripheral\systick/cy_systick.h **** *******************************************************************************/
 193:Generated_Source\PSoC6\pdl\drivers\peripheral\systick/cy_systick.h **** __STATIC_INLINE void Cy_SysTick_EnableInterrupt(void)
 194:Generated_Source\PSoC6\pdl\drivers\peripheral\systick/cy_systick.h **** {
  28              		.loc 1 194 0
  29              		.cfi_startproc
  30              		@ args = 0, pretend = 0, frame = 0
  31              		@ frame_needed = 1, uses_anonymous_args = 0
  32              		@ link register save eliminated.
  33 0000 80B4     		push	{r7}
  34              		.cfi_def_cfa_offset 4
ARM GAS  C:\Users\tmj32\AppData\Local\Temp\cct9Y8Rk.s 			page 5


  35              		.cfi_offset 7, -4
  36 0002 00AF     		add	r7, sp, #0
  37              		.cfi_def_cfa_register 7
 195:Generated_Source\PSoC6\pdl\drivers\peripheral\systick/cy_systick.h ****     SYSTICK_CTRL = SYSTICK_CTRL | SysTick_CTRL_TICKINT_Msk;
  38              		.loc 1 195 0
  39 0004 054A     		ldr	r2, .L2
  40 0006 054B     		ldr	r3, .L2
  41 0008 1B68     		ldr	r3, [r3]
  42 000a 43F00203 		orr	r3, r3, #2
  43 000e 1360     		str	r3, [r2]
 196:Generated_Source\PSoC6\pdl\drivers\peripheral\systick/cy_systick.h **** }
  44              		.loc 1 196 0
  45 0010 00BF     		nop
  46 0012 BD46     		mov	sp, r7
  47              		.cfi_def_cfa_register 13
  48              		@ sp needed
  49 0014 5DF8047B 		ldr	r7, [sp], #4
  50              		.cfi_restore 7
  51              		.cfi_def_cfa_offset 0
  52 0018 7047     		bx	lr
  53              	.L3:
  54 001a 00BF     		.align	2
  55              	.L2:
  56 001c 10E000E0 		.word	-536813552
  57              		.cfi_endproc
  58              	.LFE132:
  59              		.size	Cy_SysTick_EnableInterrupt, .-Cy_SysTick_EnableInterrupt
  60              		.section	.text.Cy_SysTick_DisableInterrupt,"ax",%progbits
  61              		.align	2
  62              		.thumb
  63              		.thumb_func
  64              		.type	Cy_SysTick_DisableInterrupt, %function
  65              	Cy_SysTick_DisableInterrupt:
  66              	.LFB133:
 197:Generated_Source\PSoC6\pdl\drivers\peripheral\systick/cy_systick.h **** 
 198:Generated_Source\PSoC6\pdl\drivers\peripheral\systick/cy_systick.h **** 
 199:Generated_Source\PSoC6\pdl\drivers\peripheral\systick/cy_systick.h **** /*******************************************************************************
 200:Generated_Source\PSoC6\pdl\drivers\peripheral\systick/cy_systick.h **** * Function Name: Cy_SysTick_DisableInterrupt
 201:Generated_Source\PSoC6\pdl\drivers\peripheral\systick/cy_systick.h **** ****************************************************************************//**
 202:Generated_Source\PSoC6\pdl\drivers\peripheral\systick/cy_systick.h **** *
 203:Generated_Source\PSoC6\pdl\drivers\peripheral\systick/cy_systick.h **** * Disables the SysTick interrupt.
 204:Generated_Source\PSoC6\pdl\drivers\peripheral\systick/cy_systick.h **** *
 205:Generated_Source\PSoC6\pdl\drivers\peripheral\systick/cy_systick.h **** * \sideeffect Clears the SysTick count flag if it was set
 206:Generated_Source\PSoC6\pdl\drivers\peripheral\systick/cy_systick.h **** *
 207:Generated_Source\PSoC6\pdl\drivers\peripheral\systick/cy_systick.h **** *******************************************************************************/
 208:Generated_Source\PSoC6\pdl\drivers\peripheral\systick/cy_systick.h **** __STATIC_INLINE void Cy_SysTick_DisableInterrupt(void)
 209:Generated_Source\PSoC6\pdl\drivers\peripheral\systick/cy_systick.h **** {
  67              		.loc 1 209 0
  68              		.cfi_startproc
  69              		@ args = 0, pretend = 0, frame = 0
  70              		@ frame_needed = 1, uses_anonymous_args = 0
  71              		@ link register save eliminated.
  72 0000 80B4     		push	{r7}
  73              		.cfi_def_cfa_offset 4
  74              		.cfi_offset 7, -4
  75 0002 00AF     		add	r7, sp, #0
  76              		.cfi_def_cfa_register 7
ARM GAS  C:\Users\tmj32\AppData\Local\Temp\cct9Y8Rk.s 			page 6


 210:Generated_Source\PSoC6\pdl\drivers\peripheral\systick/cy_systick.h ****     SYSTICK_CTRL = SYSTICK_CTRL & ~SysTick_CTRL_TICKINT_Msk;
  77              		.loc 1 210 0
  78 0004 054A     		ldr	r2, .L5
  79 0006 054B     		ldr	r3, .L5
  80 0008 1B68     		ldr	r3, [r3]
  81 000a 23F00203 		bic	r3, r3, #2
  82 000e 1360     		str	r3, [r2]
 211:Generated_Source\PSoC6\pdl\drivers\peripheral\systick/cy_systick.h **** }
  83              		.loc 1 211 0
  84 0010 00BF     		nop
  85 0012 BD46     		mov	sp, r7
  86              		.cfi_def_cfa_register 13
  87              		@ sp needed
  88 0014 5DF8047B 		ldr	r7, [sp], #4
  89              		.cfi_restore 7
  90              		.cfi_def_cfa_offset 0
  91 0018 7047     		bx	lr
  92              	.L6:
  93 001a 00BF     		.align	2
  94              	.L5:
  95 001c 10E000E0 		.word	-536813552
  96              		.cfi_endproc
  97              	.LFE133:
  98              		.size	Cy_SysTick_DisableInterrupt, .-Cy_SysTick_DisableInterrupt
  99              		.section	.text.Cy_SysTick_SetReload,"ax",%progbits
 100              		.align	2
 101              		.thumb
 102              		.thumb_func
 103              		.type	Cy_SysTick_SetReload, %function
 104              	Cy_SysTick_SetReload:
 105              	.LFB134:
 212:Generated_Source\PSoC6\pdl\drivers\peripheral\systick/cy_systick.h **** 
 213:Generated_Source\PSoC6\pdl\drivers\peripheral\systick/cy_systick.h **** 
 214:Generated_Source\PSoC6\pdl\drivers\peripheral\systick/cy_systick.h **** /*******************************************************************************
 215:Generated_Source\PSoC6\pdl\drivers\peripheral\systick/cy_systick.h **** * Function Name: Cy_SysTick_SetReload
 216:Generated_Source\PSoC6\pdl\drivers\peripheral\systick/cy_systick.h **** ****************************************************************************//**
 217:Generated_Source\PSoC6\pdl\drivers\peripheral\systick/cy_systick.h **** *
 218:Generated_Source\PSoC6\pdl\drivers\peripheral\systick/cy_systick.h **** * Sets the value the counter is set to on a startup and after it reaches zero.
 219:Generated_Source\PSoC6\pdl\drivers\peripheral\systick/cy_systick.h **** * This function does not change or reset the current sysTick counter value, so
 220:Generated_Source\PSoC6\pdl\drivers\peripheral\systick/cy_systick.h **** * it should be cleared using the Cy_SysTick_Clear() API.
 221:Generated_Source\PSoC6\pdl\drivers\peripheral\systick/cy_systick.h **** *
 222:Generated_Source\PSoC6\pdl\drivers\peripheral\systick/cy_systick.h **** * \param value: The valid range is [0x0-0x00FFFFFF]. The counter reset value.
 223:Generated_Source\PSoC6\pdl\drivers\peripheral\systick/cy_systick.h **** *
 224:Generated_Source\PSoC6\pdl\drivers\peripheral\systick/cy_systick.h **** *******************************************************************************/
 225:Generated_Source\PSoC6\pdl\drivers\peripheral\systick/cy_systick.h **** __STATIC_INLINE void Cy_SysTick_SetReload(uint32_t value)
 226:Generated_Source\PSoC6\pdl\drivers\peripheral\systick/cy_systick.h **** {
 106              		.loc 1 226 0
 107              		.cfi_startproc
 108              		@ args = 0, pretend = 0, frame = 8
 109              		@ frame_needed = 1, uses_anonymous_args = 0
 110              		@ link register save eliminated.
 111 0000 80B4     		push	{r7}
 112              		.cfi_def_cfa_offset 4
 113              		.cfi_offset 7, -4
 114 0002 83B0     		sub	sp, sp, #12
 115              		.cfi_def_cfa_offset 16
 116 0004 00AF     		add	r7, sp, #0
ARM GAS  C:\Users\tmj32\AppData\Local\Temp\cct9Y8Rk.s 			page 7


 117              		.cfi_def_cfa_register 7
 118 0006 7860     		str	r0, [r7, #4]
 227:Generated_Source\PSoC6\pdl\drivers\peripheral\systick/cy_systick.h ****     SYSTICK_LOAD = (value & SysTick_LOAD_RELOAD_Msk);
 119              		.loc 1 227 0
 120 0008 054A     		ldr	r2, .L8
 121 000a 7B68     		ldr	r3, [r7, #4]
 122 000c 23F07F43 		bic	r3, r3, #-16777216
 123 0010 5360     		str	r3, [r2, #4]
 228:Generated_Source\PSoC6\pdl\drivers\peripheral\systick/cy_systick.h **** }
 124              		.loc 1 228 0
 125 0012 00BF     		nop
 126 0014 0C37     		adds	r7, r7, #12
 127              		.cfi_def_cfa_offset 4
 128 0016 BD46     		mov	sp, r7
 129              		.cfi_def_cfa_register 13
 130              		@ sp needed
 131 0018 5DF8047B 		ldr	r7, [sp], #4
 132              		.cfi_restore 7
 133              		.cfi_def_cfa_offset 0
 134 001c 7047     		bx	lr
 135              	.L9:
 136 001e 00BF     		.align	2
 137              	.L8:
 138 0020 10E000E0 		.word	-536813552
 139              		.cfi_endproc
 140              	.LFE134:
 141              		.size	Cy_SysTick_SetReload, .-Cy_SysTick_SetReload
 142              		.section	.text.Cy_SysTick_Clear,"ax",%progbits
 143              		.align	2
 144              		.thumb
 145              		.thumb_func
 146              		.type	Cy_SysTick_Clear, %function
 147              	Cy_SysTick_Clear:
 148              	.LFB137:
 229:Generated_Source\PSoC6\pdl\drivers\peripheral\systick/cy_systick.h **** 
 230:Generated_Source\PSoC6\pdl\drivers\peripheral\systick/cy_systick.h **** 
 231:Generated_Source\PSoC6\pdl\drivers\peripheral\systick/cy_systick.h **** /*******************************************************************************
 232:Generated_Source\PSoC6\pdl\drivers\peripheral\systick/cy_systick.h **** * Function Name: Cy_SysTick_GetReload
 233:Generated_Source\PSoC6\pdl\drivers\peripheral\systick/cy_systick.h **** ****************************************************************************//**
 234:Generated_Source\PSoC6\pdl\drivers\peripheral\systick/cy_systick.h **** *
 235:Generated_Source\PSoC6\pdl\drivers\peripheral\systick/cy_systick.h **** * Gets the value the counter is set to on a startup and after it reaches zero.
 236:Generated_Source\PSoC6\pdl\drivers\peripheral\systick/cy_systick.h **** *
 237:Generated_Source\PSoC6\pdl\drivers\peripheral\systick/cy_systick.h **** * \return The counter reset value.
 238:Generated_Source\PSoC6\pdl\drivers\peripheral\systick/cy_systick.h **** *
 239:Generated_Source\PSoC6\pdl\drivers\peripheral\systick/cy_systick.h **** *******************************************************************************/
 240:Generated_Source\PSoC6\pdl\drivers\peripheral\systick/cy_systick.h **** __STATIC_INLINE uint32_t Cy_SysTick_GetReload(void)
 241:Generated_Source\PSoC6\pdl\drivers\peripheral\systick/cy_systick.h **** {
 242:Generated_Source\PSoC6\pdl\drivers\peripheral\systick/cy_systick.h ****     return (SYSTICK_LOAD);
 243:Generated_Source\PSoC6\pdl\drivers\peripheral\systick/cy_systick.h **** }
 244:Generated_Source\PSoC6\pdl\drivers\peripheral\systick/cy_systick.h **** 
 245:Generated_Source\PSoC6\pdl\drivers\peripheral\systick/cy_systick.h **** 
 246:Generated_Source\PSoC6\pdl\drivers\peripheral\systick/cy_systick.h **** /*******************************************************************************
 247:Generated_Source\PSoC6\pdl\drivers\peripheral\systick/cy_systick.h **** * Function Name: Cy_SysTick_GetValue
 248:Generated_Source\PSoC6\pdl\drivers\peripheral\systick/cy_systick.h **** ****************************************************************************//**
 249:Generated_Source\PSoC6\pdl\drivers\peripheral\systick/cy_systick.h **** *
 250:Generated_Source\PSoC6\pdl\drivers\peripheral\systick/cy_systick.h **** * Gets the current SysTick counter value.
 251:Generated_Source\PSoC6\pdl\drivers\peripheral\systick/cy_systick.h **** *
ARM GAS  C:\Users\tmj32\AppData\Local\Temp\cct9Y8Rk.s 			page 8


 252:Generated_Source\PSoC6\pdl\drivers\peripheral\systick/cy_systick.h **** * \return The current SysTick counter value.
 253:Generated_Source\PSoC6\pdl\drivers\peripheral\systick/cy_systick.h **** *
 254:Generated_Source\PSoC6\pdl\drivers\peripheral\systick/cy_systick.h **** *******************************************************************************/
 255:Generated_Source\PSoC6\pdl\drivers\peripheral\systick/cy_systick.h **** __STATIC_INLINE uint32_t Cy_SysTick_GetValue(void)
 256:Generated_Source\PSoC6\pdl\drivers\peripheral\systick/cy_systick.h **** {
 257:Generated_Source\PSoC6\pdl\drivers\peripheral\systick/cy_systick.h ****     return (SYSTICK_VAL);
 258:Generated_Source\PSoC6\pdl\drivers\peripheral\systick/cy_systick.h **** }
 259:Generated_Source\PSoC6\pdl\drivers\peripheral\systick/cy_systick.h **** 
 260:Generated_Source\PSoC6\pdl\drivers\peripheral\systick/cy_systick.h **** /*******************************************************************************
 261:Generated_Source\PSoC6\pdl\drivers\peripheral\systick/cy_systick.h **** * Function Name: Cy_SysTick_Clear
 262:Generated_Source\PSoC6\pdl\drivers\peripheral\systick/cy_systick.h **** ****************************************************************************//**
 263:Generated_Source\PSoC6\pdl\drivers\peripheral\systick/cy_systick.h **** *
 264:Generated_Source\PSoC6\pdl\drivers\peripheral\systick/cy_systick.h **** * Clears the SysTick counter for a well-defined startup.
 265:Generated_Source\PSoC6\pdl\drivers\peripheral\systick/cy_systick.h **** *
 266:Generated_Source\PSoC6\pdl\drivers\peripheral\systick/cy_systick.h **** *******************************************************************************/
 267:Generated_Source\PSoC6\pdl\drivers\peripheral\systick/cy_systick.h **** __STATIC_INLINE void Cy_SysTick_Clear(void)
 268:Generated_Source\PSoC6\pdl\drivers\peripheral\systick/cy_systick.h **** {
 149              		.loc 1 268 0
 150              		.cfi_startproc
 151              		@ args = 0, pretend = 0, frame = 0
 152              		@ frame_needed = 1, uses_anonymous_args = 0
 153              		@ link register save eliminated.
 154 0000 80B4     		push	{r7}
 155              		.cfi_def_cfa_offset 4
 156              		.cfi_offset 7, -4
 157 0002 00AF     		add	r7, sp, #0
 158              		.cfi_def_cfa_register 7
 269:Generated_Source\PSoC6\pdl\drivers\peripheral\systick/cy_systick.h ****     SYSTICK_VAL = 0u;
 159              		.loc 1 269 0
 160 0004 034B     		ldr	r3, .L11
 161 0006 0022     		movs	r2, #0
 162 0008 9A60     		str	r2, [r3, #8]
 270:Generated_Source\PSoC6\pdl\drivers\peripheral\systick/cy_systick.h **** }
 163              		.loc 1 270 0
 164 000a 00BF     		nop
 165 000c BD46     		mov	sp, r7
 166              		.cfi_def_cfa_register 13
 167              		@ sp needed
 168 000e 5DF8047B 		ldr	r7, [sp], #4
 169              		.cfi_restore 7
 170              		.cfi_def_cfa_offset 0
 171 0012 7047     		bx	lr
 172              	.L12:
 173              		.align	2
 174              	.L11:
 175 0014 10E000E0 		.word	-536813552
 176              		.cfi_endproc
 177              	.LFE137:
 178              		.size	Cy_SysTick_Clear, .-Cy_SysTick_Clear
 179              		.section	.text.Cy_SysTick_GetCountFlag,"ax",%progbits
 180              		.align	2
 181              		.thumb
 182              		.thumb_func
 183              		.type	Cy_SysTick_GetCountFlag, %function
 184              	Cy_SysTick_GetCountFlag:
 185              	.LFB138:
 271:Generated_Source\PSoC6\pdl\drivers\peripheral\systick/cy_systick.h **** 
ARM GAS  C:\Users\tmj32\AppData\Local\Temp\cct9Y8Rk.s 			page 9


 272:Generated_Source\PSoC6\pdl\drivers\peripheral\systick/cy_systick.h **** 
 273:Generated_Source\PSoC6\pdl\drivers\peripheral\systick/cy_systick.h **** /*******************************************************************************
 274:Generated_Source\PSoC6\pdl\drivers\peripheral\systick/cy_systick.h **** * Function Name: Cy_SysTick_GetCountFlag
 275:Generated_Source\PSoC6\pdl\drivers\peripheral\systick/cy_systick.h **** ****************************************************************************//**
 276:Generated_Source\PSoC6\pdl\drivers\peripheral\systick/cy_systick.h **** *
 277:Generated_Source\PSoC6\pdl\drivers\peripheral\systick/cy_systick.h **** * Gets the values of the count flag. The count flag is set once the SysTick
 278:Generated_Source\PSoC6\pdl\drivers\peripheral\systick/cy_systick.h **** * counter reaches zero. The flag is cleared on read.
 279:Generated_Source\PSoC6\pdl\drivers\peripheral\systick/cy_systick.h **** *
 280:Generated_Source\PSoC6\pdl\drivers\peripheral\systick/cy_systick.h **** * \return Returns a non-zero value if a flag is set; otherwise a zero is
 281:Generated_Source\PSoC6\pdl\drivers\peripheral\systick/cy_systick.h **** * returned.
 282:Generated_Source\PSoC6\pdl\drivers\peripheral\systick/cy_systick.h **** *
 283:Generated_Source\PSoC6\pdl\drivers\peripheral\systick/cy_systick.h **** * \sideeffect Clears the SysTick count flag if it was set.
 284:Generated_Source\PSoC6\pdl\drivers\peripheral\systick/cy_systick.h **** *
 285:Generated_Source\PSoC6\pdl\drivers\peripheral\systick/cy_systick.h **** *******************************************************************************/
 286:Generated_Source\PSoC6\pdl\drivers\peripheral\systick/cy_systick.h **** __STATIC_INLINE uint32_t Cy_SysTick_GetCountFlag(void)
 287:Generated_Source\PSoC6\pdl\drivers\peripheral\systick/cy_systick.h **** {
 186              		.loc 1 287 0
 187              		.cfi_startproc
 188              		@ args = 0, pretend = 0, frame = 0
 189              		@ frame_needed = 1, uses_anonymous_args = 0
 190              		@ link register save eliminated.
 191 0000 80B4     		push	{r7}
 192              		.cfi_def_cfa_offset 4
 193              		.cfi_offset 7, -4
 194 0002 00AF     		add	r7, sp, #0
 195              		.cfi_def_cfa_register 7
 288:Generated_Source\PSoC6\pdl\drivers\peripheral\systick/cy_systick.h ****     return (SYSTICK_CTRL & SysTick_CTRL_COUNTFLAG_Msk);
 196              		.loc 1 288 0
 197 0004 044B     		ldr	r3, .L15
 198 0006 1B68     		ldr	r3, [r3]
 199 0008 03F48033 		and	r3, r3, #65536
 289:Generated_Source\PSoC6\pdl\drivers\peripheral\systick/cy_systick.h **** }
 200              		.loc 1 289 0
 201 000c 1846     		mov	r0, r3
 202 000e BD46     		mov	sp, r7
 203              		.cfi_def_cfa_register 13
 204              		@ sp needed
 205 0010 5DF8047B 		ldr	r7, [sp], #4
 206              		.cfi_restore 7
 207              		.cfi_def_cfa_offset 0
 208 0014 7047     		bx	lr
 209              	.L16:
 210 0016 00BF     		.align	2
 211              	.L15:
 212 0018 10E000E0 		.word	-536813552
 213              		.cfi_endproc
 214              	.LFE138:
 215              		.size	Cy_SysTick_GetCountFlag, .-Cy_SysTick_GetCountFlag
 216              		.bss
 217              		.align	2
 218              	Cy_SysTick_Callbacks:
 219 0000 00000000 		.space	20
 219      00000000 
 219      00000000 
 219      00000000 
 219      00000000 
 220              		.section	.text.Cy_SysTick_Init,"ax",%progbits
ARM GAS  C:\Users\tmj32\AppData\Local\Temp\cct9Y8Rk.s 			page 10


 221              		.align	2
 222              		.global	Cy_SysTick_Init
 223              		.thumb
 224              		.thumb_func
 225              		.type	Cy_SysTick_Init, %function
 226              	Cy_SysTick_Init:
 227              	.LFB139:
 228              		.file 2 "Generated_Source\\PSoC6\\pdl\\drivers\\peripheral\\systick\\cy_systick.c"
   1:Generated_Source\PSoC6\pdl\drivers\peripheral\systick/cy_systick.c **** /***************************************************************************//**
   2:Generated_Source\PSoC6\pdl\drivers\peripheral\systick/cy_systick.c **** * \file cy_systick.c
   3:Generated_Source\PSoC6\pdl\drivers\peripheral\systick/cy_systick.c **** * \version 1.10
   4:Generated_Source\PSoC6\pdl\drivers\peripheral\systick/cy_systick.c **** *
   5:Generated_Source\PSoC6\pdl\drivers\peripheral\systick/cy_systick.c **** * Provides the API definitions of the SisTick driver.
   6:Generated_Source\PSoC6\pdl\drivers\peripheral\systick/cy_systick.c **** *
   7:Generated_Source\PSoC6\pdl\drivers\peripheral\systick/cy_systick.c **** ********************************************************************************
   8:Generated_Source\PSoC6\pdl\drivers\peripheral\systick/cy_systick.c **** * \copyright
   9:Generated_Source\PSoC6\pdl\drivers\peripheral\systick/cy_systick.c **** * Copyright 2016-2018, Cypress Semiconductor Corporation.  All rights reserved.
  10:Generated_Source\PSoC6\pdl\drivers\peripheral\systick/cy_systick.c **** * You may use this file only in accordance with the license, terms, conditions,
  11:Generated_Source\PSoC6\pdl\drivers\peripheral\systick/cy_systick.c **** * disclaimers, and limitations in the end user license agreement accompanying
  12:Generated_Source\PSoC6\pdl\drivers\peripheral\systick/cy_systick.c **** * the software package with which this file was provided.
  13:Generated_Source\PSoC6\pdl\drivers\peripheral\systick/cy_systick.c **** *******************************************************************************/
  14:Generated_Source\PSoC6\pdl\drivers\peripheral\systick/cy_systick.c **** 
  15:Generated_Source\PSoC6\pdl\drivers\peripheral\systick/cy_systick.c **** #include "cy_systick.h"
  16:Generated_Source\PSoC6\pdl\drivers\peripheral\systick/cy_systick.c **** #include <stddef.h>     /* for NULL */
  17:Generated_Source\PSoC6\pdl\drivers\peripheral\systick/cy_systick.c **** 
  18:Generated_Source\PSoC6\pdl\drivers\peripheral\systick/cy_systick.c **** 
  19:Generated_Source\PSoC6\pdl\drivers\peripheral\systick/cy_systick.c **** static Cy_SysTick_Callback Cy_SysTick_Callbacks[CY_SYS_SYST_NUM_OF_CALLBACKS];
  20:Generated_Source\PSoC6\pdl\drivers\peripheral\systick/cy_systick.c **** static void Cy_SysTick_ServiceCallbacks(void);
  21:Generated_Source\PSoC6\pdl\drivers\peripheral\systick/cy_systick.c **** 
  22:Generated_Source\PSoC6\pdl\drivers\peripheral\systick/cy_systick.c **** 
  23:Generated_Source\PSoC6\pdl\drivers\peripheral\systick/cy_systick.c **** /*******************************************************************************
  24:Generated_Source\PSoC6\pdl\drivers\peripheral\systick/cy_systick.c **** * Function Name: Cy_SysTick_Init
  25:Generated_Source\PSoC6\pdl\drivers\peripheral\systick/cy_systick.c **** ****************************************************************************//**
  26:Generated_Source\PSoC6\pdl\drivers\peripheral\systick/cy_systick.c **** *
  27:Generated_Source\PSoC6\pdl\drivers\peripheral\systick/cy_systick.c **** * Initializes the SysTick driver:
  28:Generated_Source\PSoC6\pdl\drivers\peripheral\systick/cy_systick.c **** * - Initializes the callback addresses with pointers to NULL
  29:Generated_Source\PSoC6\pdl\drivers\peripheral\systick/cy_systick.c **** * - Associates the SysTick system vector with the callback functions
  30:Generated_Source\PSoC6\pdl\drivers\peripheral\systick/cy_systick.c **** * - Sets the SysTick clock by calling \ref Cy_SysTick_SetClockSource()
  31:Generated_Source\PSoC6\pdl\drivers\peripheral\systick/cy_systick.c **** * - Sets the SysTick reload interval by calling \ref Cy_SysTick_SetReload()
  32:Generated_Source\PSoC6\pdl\drivers\peripheral\systick/cy_systick.c **** * - Clears the SysTick counter value by calling \ref Cy_SysTick_Clear()
  33:Generated_Source\PSoC6\pdl\drivers\peripheral\systick/cy_systick.c **** * - Enables the SysTick by calling \ref Cy_SysTick_Enable(). Note the \ref
  34:Generated_Source\PSoC6\pdl\drivers\peripheral\systick/cy_systick.c **** *   Cy_SysTick_Enable() function also enables the SysTick interrupt by calling
  35:Generated_Source\PSoC6\pdl\drivers\peripheral\systick/cy_systick.c **** *   \ref Cy_SysTick_EnableInterrupt().
  36:Generated_Source\PSoC6\pdl\drivers\peripheral\systick/cy_systick.c **** *
  37:Generated_Source\PSoC6\pdl\drivers\peripheral\systick/cy_systick.c **** * \param clockSource The SysTick clock source \ref cy_en_systick_clock_source_t
  38:Generated_Source\PSoC6\pdl\drivers\peripheral\systick/cy_systick.c **** * \param interval The SysTick reload value.
  39:Generated_Source\PSoC6\pdl\drivers\peripheral\systick/cy_systick.c **** *
  40:Generated_Source\PSoC6\pdl\drivers\peripheral\systick/cy_systick.c **** * \sideeffect Clears the SysTick count flag if it was set.
  41:Generated_Source\PSoC6\pdl\drivers\peripheral\systick/cy_systick.c **** *
  42:Generated_Source\PSoC6\pdl\drivers\peripheral\systick/cy_systick.c **** *******************************************************************************/
  43:Generated_Source\PSoC6\pdl\drivers\peripheral\systick/cy_systick.c **** void Cy_SysTick_Init(cy_en_systick_clock_source_t clockSource, uint32_t interval)
  44:Generated_Source\PSoC6\pdl\drivers\peripheral\systick/cy_systick.c **** {
 229              		.loc 2 44 0
 230              		.cfi_startproc
 231              		@ args = 0, pretend = 0, frame = 16
 232              		@ frame_needed = 1, uses_anonymous_args = 0
 233 0000 80B5     		push	{r7, lr}
ARM GAS  C:\Users\tmj32\AppData\Local\Temp\cct9Y8Rk.s 			page 11


 234              		.cfi_def_cfa_offset 8
 235              		.cfi_offset 7, -8
 236              		.cfi_offset 14, -4
 237 0002 84B0     		sub	sp, sp, #16
 238              		.cfi_def_cfa_offset 24
 239 0004 00AF     		add	r7, sp, #0
 240              		.cfi_def_cfa_register 7
 241 0006 0346     		mov	r3, r0
 242 0008 3960     		str	r1, [r7]
 243 000a FB71     		strb	r3, [r7, #7]
  45:Generated_Source\PSoC6\pdl\drivers\peripheral\systick/cy_systick.c ****     uint32_t i;
  46:Generated_Source\PSoC6\pdl\drivers\peripheral\systick/cy_systick.c **** 
  47:Generated_Source\PSoC6\pdl\drivers\peripheral\systick/cy_systick.c ****     for (i = 0u; i<CY_SYS_SYST_NUM_OF_CALLBACKS; i++)
 244              		.loc 2 47 0
 245 000c 0023     		movs	r3, #0
 246 000e FB60     		str	r3, [r7, #12]
 247 0010 07E0     		b	.L18
 248              	.L19:
  48:Generated_Source\PSoC6\pdl\drivers\peripheral\systick/cy_systick.c ****     {
  49:Generated_Source\PSoC6\pdl\drivers\peripheral\systick/cy_systick.c ****         Cy_SysTick_Callbacks[i] = NULL;
 249              		.loc 2 49 0 discriminator 3
 250 0012 0E4A     		ldr	r2, .L20
 251 0014 FB68     		ldr	r3, [r7, #12]
 252 0016 0021     		movs	r1, #0
 253 0018 42F82310 		str	r1, [r2, r3, lsl #2]
  47:Generated_Source\PSoC6\pdl\drivers\peripheral\systick/cy_systick.c ****     {
 254              		.loc 2 47 0 discriminator 3
 255 001c FB68     		ldr	r3, [r7, #12]
 256 001e 0133     		adds	r3, r3, #1
 257 0020 FB60     		str	r3, [r7, #12]
 258              	.L18:
  47:Generated_Source\PSoC6\pdl\drivers\peripheral\systick/cy_systick.c ****     {
 259              		.loc 2 47 0 is_stmt 0 discriminator 1
 260 0022 FB68     		ldr	r3, [r7, #12]
 261 0024 042B     		cmp	r3, #4
 262 0026 F4D9     		bls	.L19
  50:Generated_Source\PSoC6\pdl\drivers\peripheral\systick/cy_systick.c ****     }
  51:Generated_Source\PSoC6\pdl\drivers\peripheral\systick/cy_systick.c **** 
  52:Generated_Source\PSoC6\pdl\drivers\peripheral\systick/cy_systick.c ****     __ramVectors[CY_SYSTICK_IRQ_NUM] = &Cy_SysTick_ServiceCallbacks;
 263              		.loc 2 52 0 is_stmt 1
 264 0028 094B     		ldr	r3, .L20+4
 265 002a 0A4A     		ldr	r2, .L20+8
 266 002c DA63     		str	r2, [r3, #60]
  53:Generated_Source\PSoC6\pdl\drivers\peripheral\systick/cy_systick.c ****     Cy_SysTick_SetClockSource(clockSource);
 267              		.loc 2 53 0
 268 002e FB79     		ldrb	r3, [r7, #7]	@ zero_extendqisi2
 269 0030 1846     		mov	r0, r3
 270 0032 FFF7FEFF 		bl	Cy_SysTick_SetClockSource
  54:Generated_Source\PSoC6\pdl\drivers\peripheral\systick/cy_systick.c **** 
  55:Generated_Source\PSoC6\pdl\drivers\peripheral\systick/cy_systick.c ****     Cy_SysTick_SetReload(interval);
 271              		.loc 2 55 0
 272 0036 3868     		ldr	r0, [r7]
 273 0038 FFF7FEFF 		bl	Cy_SysTick_SetReload
  56:Generated_Source\PSoC6\pdl\drivers\peripheral\systick/cy_systick.c ****     Cy_SysTick_Clear();
 274              		.loc 2 56 0
 275 003c FFF7FEFF 		bl	Cy_SysTick_Clear
  57:Generated_Source\PSoC6\pdl\drivers\peripheral\systick/cy_systick.c ****     Cy_SysTick_Enable();
ARM GAS  C:\Users\tmj32\AppData\Local\Temp\cct9Y8Rk.s 			page 12


 276              		.loc 2 57 0
 277 0040 FFF7FEFF 		bl	Cy_SysTick_Enable
  58:Generated_Source\PSoC6\pdl\drivers\peripheral\systick/cy_systick.c **** }
 278              		.loc 2 58 0
 279 0044 00BF     		nop
 280 0046 1037     		adds	r7, r7, #16
 281              		.cfi_def_cfa_offset 8
 282 0048 BD46     		mov	sp, r7
 283              		.cfi_def_cfa_register 13
 284              		@ sp needed
 285 004a 80BD     		pop	{r7, pc}
 286              	.L21:
 287              		.align	2
 288              	.L20:
 289 004c 00000000 		.word	Cy_SysTick_Callbacks
 290 0050 00000000 		.word	__ramVectors
 291 0054 00000000 		.word	Cy_SysTick_ServiceCallbacks
 292              		.cfi_endproc
 293              	.LFE139:
 294              		.size	Cy_SysTick_Init, .-Cy_SysTick_Init
 295              		.section	.text.Cy_SysTick_Enable,"ax",%progbits
 296              		.align	2
 297              		.global	Cy_SysTick_Enable
 298              		.thumb
 299              		.thumb_func
 300              		.type	Cy_SysTick_Enable, %function
 301              	Cy_SysTick_Enable:
 302              	.LFB140:
  59:Generated_Source\PSoC6\pdl\drivers\peripheral\systick/cy_systick.c **** 
  60:Generated_Source\PSoC6\pdl\drivers\peripheral\systick/cy_systick.c **** 
  61:Generated_Source\PSoC6\pdl\drivers\peripheral\systick/cy_systick.c **** /*******************************************************************************
  62:Generated_Source\PSoC6\pdl\drivers\peripheral\systick/cy_systick.c **** * Function Name: Cy_SysTick_Enable
  63:Generated_Source\PSoC6\pdl\drivers\peripheral\systick/cy_systick.c **** ****************************************************************************//**
  64:Generated_Source\PSoC6\pdl\drivers\peripheral\systick/cy_systick.c **** *
  65:Generated_Source\PSoC6\pdl\drivers\peripheral\systick/cy_systick.c **** * Enables the SysTick timer and its interrupt.
  66:Generated_Source\PSoC6\pdl\drivers\peripheral\systick/cy_systick.c **** *
  67:Generated_Source\PSoC6\pdl\drivers\peripheral\systick/cy_systick.c **** * \sideeffect Clears the SysTick count flag if it was set
  68:Generated_Source\PSoC6\pdl\drivers\peripheral\systick/cy_systick.c **** *
  69:Generated_Source\PSoC6\pdl\drivers\peripheral\systick/cy_systick.c **** *******************************************************************************/
  70:Generated_Source\PSoC6\pdl\drivers\peripheral\systick/cy_systick.c **** void Cy_SysTick_Enable(void)
  71:Generated_Source\PSoC6\pdl\drivers\peripheral\systick/cy_systick.c **** {
 303              		.loc 2 71 0
 304              		.cfi_startproc
 305              		@ args = 0, pretend = 0, frame = 0
 306              		@ frame_needed = 1, uses_anonymous_args = 0
 307 0000 80B5     		push	{r7, lr}
 308              		.cfi_def_cfa_offset 8
 309              		.cfi_offset 7, -8
 310              		.cfi_offset 14, -4
 311 0002 00AF     		add	r7, sp, #0
 312              		.cfi_def_cfa_register 7
  72:Generated_Source\PSoC6\pdl\drivers\peripheral\systick/cy_systick.c ****     Cy_SysTick_EnableInterrupt();
 313              		.loc 2 72 0
 314 0004 FFF7FEFF 		bl	Cy_SysTick_EnableInterrupt
  73:Generated_Source\PSoC6\pdl\drivers\peripheral\systick/cy_systick.c ****     SYSTICK_CTRL |= SysTick_CTRL_ENABLE_Msk;
 315              		.loc 2 73 0
 316 0008 034A     		ldr	r2, .L23
ARM GAS  C:\Users\tmj32\AppData\Local\Temp\cct9Y8Rk.s 			page 13


 317 000a 034B     		ldr	r3, .L23
 318 000c 1B68     		ldr	r3, [r3]
 319 000e 43F00103 		orr	r3, r3, #1
 320 0012 1360     		str	r3, [r2]
  74:Generated_Source\PSoC6\pdl\drivers\peripheral\systick/cy_systick.c **** }
 321              		.loc 2 74 0
 322 0014 00BF     		nop
 323 0016 80BD     		pop	{r7, pc}
 324              	.L24:
 325              		.align	2
 326              	.L23:
 327 0018 10E000E0 		.word	-536813552
 328              		.cfi_endproc
 329              	.LFE140:
 330              		.size	Cy_SysTick_Enable, .-Cy_SysTick_Enable
 331              		.section	.text.Cy_SysTick_Disable,"ax",%progbits
 332              		.align	2
 333              		.global	Cy_SysTick_Disable
 334              		.thumb
 335              		.thumb_func
 336              		.type	Cy_SysTick_Disable, %function
 337              	Cy_SysTick_Disable:
 338              	.LFB141:
  75:Generated_Source\PSoC6\pdl\drivers\peripheral\systick/cy_systick.c **** 
  76:Generated_Source\PSoC6\pdl\drivers\peripheral\systick/cy_systick.c **** 
  77:Generated_Source\PSoC6\pdl\drivers\peripheral\systick/cy_systick.c **** /*******************************************************************************
  78:Generated_Source\PSoC6\pdl\drivers\peripheral\systick/cy_systick.c **** * Function Name: Cy_SysTick_Disable
  79:Generated_Source\PSoC6\pdl\drivers\peripheral\systick/cy_systick.c **** ****************************************************************************//**
  80:Generated_Source\PSoC6\pdl\drivers\peripheral\systick/cy_systick.c **** *
  81:Generated_Source\PSoC6\pdl\drivers\peripheral\systick/cy_systick.c **** * Disables the SysTick timer and its interrupt.
  82:Generated_Source\PSoC6\pdl\drivers\peripheral\systick/cy_systick.c **** *
  83:Generated_Source\PSoC6\pdl\drivers\peripheral\systick/cy_systick.c **** * \sideeffect Clears the SysTick count flag if it was set
  84:Generated_Source\PSoC6\pdl\drivers\peripheral\systick/cy_systick.c **** *
  85:Generated_Source\PSoC6\pdl\drivers\peripheral\systick/cy_systick.c **** *******************************************************************************/
  86:Generated_Source\PSoC6\pdl\drivers\peripheral\systick/cy_systick.c **** void Cy_SysTick_Disable(void)
  87:Generated_Source\PSoC6\pdl\drivers\peripheral\systick/cy_systick.c **** {
 339              		.loc 2 87 0
 340              		.cfi_startproc
 341              		@ args = 0, pretend = 0, frame = 0
 342              		@ frame_needed = 1, uses_anonymous_args = 0
 343 0000 80B5     		push	{r7, lr}
 344              		.cfi_def_cfa_offset 8
 345              		.cfi_offset 7, -8
 346              		.cfi_offset 14, -4
 347 0002 00AF     		add	r7, sp, #0
 348              		.cfi_def_cfa_register 7
  88:Generated_Source\PSoC6\pdl\drivers\peripheral\systick/cy_systick.c ****     Cy_SysTick_DisableInterrupt();
 349              		.loc 2 88 0
 350 0004 FFF7FEFF 		bl	Cy_SysTick_DisableInterrupt
  89:Generated_Source\PSoC6\pdl\drivers\peripheral\systick/cy_systick.c ****     SYSTICK_CTRL &= ~SysTick_CTRL_ENABLE_Msk;
 351              		.loc 2 89 0
 352 0008 034A     		ldr	r2, .L26
 353 000a 034B     		ldr	r3, .L26
 354 000c 1B68     		ldr	r3, [r3]
 355 000e 23F00103 		bic	r3, r3, #1
 356 0012 1360     		str	r3, [r2]
  90:Generated_Source\PSoC6\pdl\drivers\peripheral\systick/cy_systick.c **** }
ARM GAS  C:\Users\tmj32\AppData\Local\Temp\cct9Y8Rk.s 			page 14


 357              		.loc 2 90 0
 358 0014 00BF     		nop
 359 0016 80BD     		pop	{r7, pc}
 360              	.L27:
 361              		.align	2
 362              	.L26:
 363 0018 10E000E0 		.word	-536813552
 364              		.cfi_endproc
 365              	.LFE141:
 366              		.size	Cy_SysTick_Disable, .-Cy_SysTick_Disable
 367              		.section	.text.Cy_SysTick_SetClockSource,"ax",%progbits
 368              		.align	2
 369              		.global	Cy_SysTick_SetClockSource
 370              		.thumb
 371              		.thumb_func
 372              		.type	Cy_SysTick_SetClockSource, %function
 373              	Cy_SysTick_SetClockSource:
 374              	.LFB142:
  91:Generated_Source\PSoC6\pdl\drivers\peripheral\systick/cy_systick.c **** 
  92:Generated_Source\PSoC6\pdl\drivers\peripheral\systick/cy_systick.c **** 
  93:Generated_Source\PSoC6\pdl\drivers\peripheral\systick/cy_systick.c **** /*******************************************************************************
  94:Generated_Source\PSoC6\pdl\drivers\peripheral\systick/cy_systick.c **** * Function Name: Cy_SysTick_SetClockSource
  95:Generated_Source\PSoC6\pdl\drivers\peripheral\systick/cy_systick.c **** ****************************************************************************//**
  96:Generated_Source\PSoC6\pdl\drivers\peripheral\systick/cy_systick.c **** *
  97:Generated_Source\PSoC6\pdl\drivers\peripheral\systick/cy_systick.c **** * Sets the clock source for the SysTick counter.
  98:Generated_Source\PSoC6\pdl\drivers\peripheral\systick/cy_systick.c **** *
  99:Generated_Source\PSoC6\pdl\drivers\peripheral\systick/cy_systick.c **** * Clears the SysTick count flag if it was set. If the clock source is not ready
 100:Generated_Source\PSoC6\pdl\drivers\peripheral\systick/cy_systick.c **** * this function call will have no effect. After changing the clock source to the
 101:Generated_Source\PSoC6\pdl\drivers\peripheral\systick/cy_systick.c **** * low frequency clock, the counter and reload register values will remain
 102:Generated_Source\PSoC6\pdl\drivers\peripheral\systick/cy_systick.c **** * unchanged so the time to the interrupt will be significantly longer and vice
 103:Generated_Source\PSoC6\pdl\drivers\peripheral\systick/cy_systick.c **** * versa.
 104:Generated_Source\PSoC6\pdl\drivers\peripheral\systick/cy_systick.c **** *
 105:Generated_Source\PSoC6\pdl\drivers\peripheral\systick/cy_systick.c **** * Changing the SysTick clock source and/or its frequency will change
 106:Generated_Source\PSoC6\pdl\drivers\peripheral\systick/cy_systick.c **** * the interrupt interval and Cy_SysTick_SetReload() should be
 107:Generated_Source\PSoC6\pdl\drivers\peripheral\systick/cy_systick.c **** * called to compensate this change.
 108:Generated_Source\PSoC6\pdl\drivers\peripheral\systick/cy_systick.c **** *
 109:Generated_Source\PSoC6\pdl\drivers\peripheral\systick/cy_systick.c **** * \param clockSource \ref cy_en_systick_clock_source_t Clock source.
 110:Generated_Source\PSoC6\pdl\drivers\peripheral\systick/cy_systick.c **** *
 111:Generated_Source\PSoC6\pdl\drivers\peripheral\systick/cy_systick.c **** *******************************************************************************/
 112:Generated_Source\PSoC6\pdl\drivers\peripheral\systick/cy_systick.c **** void Cy_SysTick_SetClockSource(cy_en_systick_clock_source_t clockSource)
 113:Generated_Source\PSoC6\pdl\drivers\peripheral\systick/cy_systick.c **** {
 375              		.loc 2 113 0
 376              		.cfi_startproc
 377              		@ args = 0, pretend = 0, frame = 8
 378              		@ frame_needed = 1, uses_anonymous_args = 0
 379              		@ link register save eliminated.
 380 0000 80B4     		push	{r7}
 381              		.cfi_def_cfa_offset 4
 382              		.cfi_offset 7, -4
 383 0002 83B0     		sub	sp, sp, #12
 384              		.cfi_def_cfa_offset 16
 385 0004 00AF     		add	r7, sp, #0
 386              		.cfi_def_cfa_register 7
 387 0006 0346     		mov	r3, r0
 388 0008 FB71     		strb	r3, [r7, #7]
 114:Generated_Source\PSoC6\pdl\drivers\peripheral\systick/cy_systick.c ****     if (clockSource == CY_SYSTICK_CLOCK_SOURCE_CLK_CPU)
 389              		.loc 2 114 0
ARM GAS  C:\Users\tmj32\AppData\Local\Temp\cct9Y8Rk.s 			page 15


 390 000a FB79     		ldrb	r3, [r7, #7]	@ zero_extendqisi2
 391 000c 042B     		cmp	r3, #4
 392 000e 06D1     		bne	.L29
 115:Generated_Source\PSoC6\pdl\drivers\peripheral\systick/cy_systick.c ****     {
 116:Generated_Source\PSoC6\pdl\drivers\peripheral\systick/cy_systick.c ****         SYSTICK_CTRL |= SysTick_CTRL_CLKSOURCE_Msk;
 393              		.loc 2 116 0
 394 0010 104A     		ldr	r2, .L32
 395 0012 104B     		ldr	r3, .L32
 396 0014 1B68     		ldr	r3, [r3]
 397 0016 43F00403 		orr	r3, r3, #4
 398 001a 1360     		str	r3, [r2]
 117:Generated_Source\PSoC6\pdl\drivers\peripheral\systick/cy_systick.c ****     }
 118:Generated_Source\PSoC6\pdl\drivers\peripheral\systick/cy_systick.c ****     else
 119:Generated_Source\PSoC6\pdl\drivers\peripheral\systick/cy_systick.c ****     {
 120:Generated_Source\PSoC6\pdl\drivers\peripheral\systick/cy_systick.c ****         CPUSS_SYSTICK_CTL = _VAL2FLD(CPUSS_SYSTICK_CTL_CLOCK_SOURCE, (uint32_t) clockSource);
 121:Generated_Source\PSoC6\pdl\drivers\peripheral\systick/cy_systick.c ****         SYSTICK_CTRL &= ~SysTick_CTRL_CLKSOURCE_Msk;
 122:Generated_Source\PSoC6\pdl\drivers\peripheral\systick/cy_systick.c ****     }
 123:Generated_Source\PSoC6\pdl\drivers\peripheral\systick/cy_systick.c **** }
 399              		.loc 2 123 0
 400 001c 13E0     		b	.L31
 401              	.L29:
 120:Generated_Source\PSoC6\pdl\drivers\peripheral\systick/cy_systick.c ****         SYSTICK_CTRL &= ~SysTick_CTRL_CLKSOURCE_Msk;
 402              		.loc 2 120 0
 403 001e 0E4B     		ldr	r3, .L32+4
 404 0020 1B68     		ldr	r3, [r3]
 405 0022 1A68     		ldr	r2, [r3]
 406 0024 0C4B     		ldr	r3, .L32+4
 407 0026 1B68     		ldr	r3, [r3]
 408 0028 D3F8A030 		ldr	r3, [r3, #160]
 409 002c 1344     		add	r3, r3, r2
 410 002e 1A46     		mov	r2, r3
 411 0030 FB79     		ldrb	r3, [r7, #7]	@ zero_extendqisi2
 412 0032 1B06     		lsls	r3, r3, #24
 413 0034 03F04073 		and	r3, r3, #50331648
 414 0038 1360     		str	r3, [r2]
 121:Generated_Source\PSoC6\pdl\drivers\peripheral\systick/cy_systick.c ****     }
 415              		.loc 2 121 0
 416 003a 064A     		ldr	r2, .L32
 417 003c 054B     		ldr	r3, .L32
 418 003e 1B68     		ldr	r3, [r3]
 419 0040 23F00403 		bic	r3, r3, #4
 420 0044 1360     		str	r3, [r2]
 421              	.L31:
 422              		.loc 2 123 0
 423 0046 00BF     		nop
 424 0048 0C37     		adds	r7, r7, #12
 425              		.cfi_def_cfa_offset 4
 426 004a BD46     		mov	sp, r7
 427              		.cfi_def_cfa_register 13
 428              		@ sp needed
 429 004c 5DF8047B 		ldr	r7, [sp], #4
 430              		.cfi_restore 7
 431              		.cfi_def_cfa_offset 0
 432 0050 7047     		bx	lr
 433              	.L33:
 434 0052 00BF     		.align	2
 435              	.L32:
ARM GAS  C:\Users\tmj32\AppData\Local\Temp\cct9Y8Rk.s 			page 16


 436 0054 10E000E0 		.word	-536813552
 437 0058 00000000 		.word	cy_device
 438              		.cfi_endproc
 439              	.LFE142:
 440              		.size	Cy_SysTick_SetClockSource, .-Cy_SysTick_SetClockSource
 441              		.section	.text.Cy_SysTick_GetClockSource,"ax",%progbits
 442              		.align	2
 443              		.global	Cy_SysTick_GetClockSource
 444              		.thumb
 445              		.thumb_func
 446              		.type	Cy_SysTick_GetClockSource, %function
 447              	Cy_SysTick_GetClockSource:
 448              	.LFB143:
 124:Generated_Source\PSoC6\pdl\drivers\peripheral\systick/cy_systick.c **** 
 125:Generated_Source\PSoC6\pdl\drivers\peripheral\systick/cy_systick.c **** 
 126:Generated_Source\PSoC6\pdl\drivers\peripheral\systick/cy_systick.c **** /*******************************************************************************
 127:Generated_Source\PSoC6\pdl\drivers\peripheral\systick/cy_systick.c **** * Function Name: Cy_SysTick_GetClockSource
 128:Generated_Source\PSoC6\pdl\drivers\peripheral\systick/cy_systick.c **** ****************************************************************************//**
 129:Generated_Source\PSoC6\pdl\drivers\peripheral\systick/cy_systick.c **** *
 130:Generated_Source\PSoC6\pdl\drivers\peripheral\systick/cy_systick.c **** * Gets the clock source for the SysTick counter.
 131:Generated_Source\PSoC6\pdl\drivers\peripheral\systick/cy_systick.c **** *
 132:Generated_Source\PSoC6\pdl\drivers\peripheral\systick/cy_systick.c **** * \returns \ref cy_en_systick_clock_source_t Clock source
 133:Generated_Source\PSoC6\pdl\drivers\peripheral\systick/cy_systick.c **** *
 134:Generated_Source\PSoC6\pdl\drivers\peripheral\systick/cy_systick.c **** *******************************************************************************/
 135:Generated_Source\PSoC6\pdl\drivers\peripheral\systick/cy_systick.c **** cy_en_systick_clock_source_t Cy_SysTick_GetClockSource(void)
 136:Generated_Source\PSoC6\pdl\drivers\peripheral\systick/cy_systick.c **** {
 449              		.loc 2 136 0
 450              		.cfi_startproc
 451              		@ args = 0, pretend = 0, frame = 8
 452              		@ frame_needed = 1, uses_anonymous_args = 0
 453              		@ link register save eliminated.
 454 0000 80B4     		push	{r7}
 455              		.cfi_def_cfa_offset 4
 456              		.cfi_offset 7, -4
 457 0002 83B0     		sub	sp, sp, #12
 458              		.cfi_def_cfa_offset 16
 459 0004 00AF     		add	r7, sp, #0
 460              		.cfi_def_cfa_register 7
 137:Generated_Source\PSoC6\pdl\drivers\peripheral\systick/cy_systick.c ****     cy_en_systick_clock_source_t returnValue;
 138:Generated_Source\PSoC6\pdl\drivers\peripheral\systick/cy_systick.c **** 
 139:Generated_Source\PSoC6\pdl\drivers\peripheral\systick/cy_systick.c ****     if ((SYSTICK_CTRL & SysTick_CTRL_CLKSOURCE_Msk) != 0u)
 461              		.loc 2 139 0
 462 0006 0E4B     		ldr	r3, .L38
 463 0008 1B68     		ldr	r3, [r3]
 464 000a 03F00403 		and	r3, r3, #4
 465 000e 002B     		cmp	r3, #0
 466 0010 02D0     		beq	.L35
 140:Generated_Source\PSoC6\pdl\drivers\peripheral\systick/cy_systick.c ****     {
 141:Generated_Source\PSoC6\pdl\drivers\peripheral\systick/cy_systick.c ****         returnValue = CY_SYSTICK_CLOCK_SOURCE_CLK_CPU;
 467              		.loc 2 141 0
 468 0012 0423     		movs	r3, #4
 469 0014 FB71     		strb	r3, [r7, #7]
 470 0016 0CE0     		b	.L36
 471              	.L35:
 142:Generated_Source\PSoC6\pdl\drivers\peripheral\systick/cy_systick.c ****     }
 143:Generated_Source\PSoC6\pdl\drivers\peripheral\systick/cy_systick.c ****     else
 144:Generated_Source\PSoC6\pdl\drivers\peripheral\systick/cy_systick.c ****     {
ARM GAS  C:\Users\tmj32\AppData\Local\Temp\cct9Y8Rk.s 			page 17


 145:Generated_Source\PSoC6\pdl\drivers\peripheral\systick/cy_systick.c ****         returnValue =  (cy_en_systick_clock_source_t) ((uint32_t) _FLD2VAL(CPUSS_SYSTICK_CTL_CLOCK_
 472              		.loc 2 145 0
 473 0018 0A4B     		ldr	r3, .L38+4
 474 001a 1B68     		ldr	r3, [r3]
 475 001c 1A68     		ldr	r2, [r3]
 476 001e 094B     		ldr	r3, .L38+4
 477 0020 1B68     		ldr	r3, [r3]
 478 0022 D3F8A030 		ldr	r3, [r3, #160]
 479 0026 1344     		add	r3, r3, r2
 480 0028 1B68     		ldr	r3, [r3]
 481 002a 03F04073 		and	r3, r3, #50331648
 482 002e 1B0E     		lsrs	r3, r3, #24
 483 0030 FB71     		strb	r3, [r7, #7]
 484              	.L36:
 146:Generated_Source\PSoC6\pdl\drivers\peripheral\systick/cy_systick.c ****     }
 147:Generated_Source\PSoC6\pdl\drivers\peripheral\systick/cy_systick.c **** 
 148:Generated_Source\PSoC6\pdl\drivers\peripheral\systick/cy_systick.c ****     return(returnValue);
 485              		.loc 2 148 0
 486 0032 FB79     		ldrb	r3, [r7, #7]	@ zero_extendqisi2
 149:Generated_Source\PSoC6\pdl\drivers\peripheral\systick/cy_systick.c **** }
 487              		.loc 2 149 0
 488 0034 1846     		mov	r0, r3
 489 0036 0C37     		adds	r7, r7, #12
 490              		.cfi_def_cfa_offset 4
 491 0038 BD46     		mov	sp, r7
 492              		.cfi_def_cfa_register 13
 493              		@ sp needed
 494 003a 5DF8047B 		ldr	r7, [sp], #4
 495              		.cfi_restore 7
 496              		.cfi_def_cfa_offset 0
 497 003e 7047     		bx	lr
 498              	.L39:
 499              		.align	2
 500              	.L38:
 501 0040 10E000E0 		.word	-536813552
 502 0044 00000000 		.word	cy_device
 503              		.cfi_endproc
 504              	.LFE143:
 505              		.size	Cy_SysTick_GetClockSource, .-Cy_SysTick_GetClockSource
 506              		.section	.text.Cy_SysTick_SetCallback,"ax",%progbits
 507              		.align	2
 508              		.global	Cy_SysTick_SetCallback
 509              		.thumb
 510              		.thumb_func
 511              		.type	Cy_SysTick_SetCallback, %function
 512              	Cy_SysTick_SetCallback:
 513              	.LFB144:
 150:Generated_Source\PSoC6\pdl\drivers\peripheral\systick/cy_systick.c **** 
 151:Generated_Source\PSoC6\pdl\drivers\peripheral\systick/cy_systick.c **** 
 152:Generated_Source\PSoC6\pdl\drivers\peripheral\systick/cy_systick.c **** /*******************************************************************************
 153:Generated_Source\PSoC6\pdl\drivers\peripheral\systick/cy_systick.c **** * Function Name: Cy_SysTick_SetCallback
 154:Generated_Source\PSoC6\pdl\drivers\peripheral\systick/cy_systick.c **** ****************************************************************************//**
 155:Generated_Source\PSoC6\pdl\drivers\peripheral\systick/cy_systick.c **** *
 156:Generated_Source\PSoC6\pdl\drivers\peripheral\systick/cy_systick.c **** * Sets the callback function to the specified callback number.
 157:Generated_Source\PSoC6\pdl\drivers\peripheral\systick/cy_systick.c **** *
 158:Generated_Source\PSoC6\pdl\drivers\peripheral\systick/cy_systick.c **** * \param number The number of the callback function addresses to be set.
 159:Generated_Source\PSoC6\pdl\drivers\peripheral\systick/cy_systick.c **** * The valid range is from 0 to \ref CY_SYS_SYST_NUM_OF_CALLBACKS - 1.
ARM GAS  C:\Users\tmj32\AppData\Local\Temp\cct9Y8Rk.s 			page 18


 160:Generated_Source\PSoC6\pdl\drivers\peripheral\systick/cy_systick.c **** *
 161:Generated_Source\PSoC6\pdl\drivers\peripheral\systick/cy_systick.c **** * \param function The pointer to the function that will be associated with the
 162:Generated_Source\PSoC6\pdl\drivers\peripheral\systick/cy_systick.c **** * SysTick ISR for the specified number.
 163:Generated_Source\PSoC6\pdl\drivers\peripheral\systick/cy_systick.c **** *
 164:Generated_Source\PSoC6\pdl\drivers\peripheral\systick/cy_systick.c **** * \return Returns the address of the previous callback function.
 165:Generated_Source\PSoC6\pdl\drivers\peripheral\systick/cy_systick.c **** * The NULL is returned if the specified address in not set or incorrect
 166:Generated_Source\PSoC6\pdl\drivers\peripheral\systick/cy_systick.c **** * parameter is specified.
 167:Generated_Source\PSoC6\pdl\drivers\peripheral\systick/cy_systick.c **** 
 168:Generated_Source\PSoC6\pdl\drivers\peripheral\systick/cy_systick.c **** * \sideeffect
 169:Generated_Source\PSoC6\pdl\drivers\peripheral\systick/cy_systick.c **** * The registered callback functions will be executed in the interrupt.
 170:Generated_Source\PSoC6\pdl\drivers\peripheral\systick/cy_systick.c **** *
 171:Generated_Source\PSoC6\pdl\drivers\peripheral\systick/cy_systick.c **** *******************************************************************************/
 172:Generated_Source\PSoC6\pdl\drivers\peripheral\systick/cy_systick.c **** Cy_SysTick_Callback Cy_SysTick_SetCallback(uint32_t number, Cy_SysTick_Callback function)
 173:Generated_Source\PSoC6\pdl\drivers\peripheral\systick/cy_systick.c **** {
 514              		.loc 2 173 0
 515              		.cfi_startproc
 516              		@ args = 0, pretend = 0, frame = 16
 517              		@ frame_needed = 1, uses_anonymous_args = 0
 518              		@ link register save eliminated.
 519 0000 80B4     		push	{r7}
 520              		.cfi_def_cfa_offset 4
 521              		.cfi_offset 7, -4
 522 0002 85B0     		sub	sp, sp, #20
 523              		.cfi_def_cfa_offset 24
 524 0004 00AF     		add	r7, sp, #0
 525              		.cfi_def_cfa_register 7
 526 0006 7860     		str	r0, [r7, #4]
 527 0008 3960     		str	r1, [r7]
 174:Generated_Source\PSoC6\pdl\drivers\peripheral\systick/cy_systick.c ****     Cy_SysTick_Callback retVal;
 175:Generated_Source\PSoC6\pdl\drivers\peripheral\systick/cy_systick.c **** 
 176:Generated_Source\PSoC6\pdl\drivers\peripheral\systick/cy_systick.c ****     if (number < CY_SYS_SYST_NUM_OF_CALLBACKS)
 528              		.loc 2 176 0
 529 000a 7B68     		ldr	r3, [r7, #4]
 530 000c 042B     		cmp	r3, #4
 531 000e 0AD8     		bhi	.L41
 177:Generated_Source\PSoC6\pdl\drivers\peripheral\systick/cy_systick.c ****     {
 178:Generated_Source\PSoC6\pdl\drivers\peripheral\systick/cy_systick.c ****         retVal = Cy_SysTick_Callbacks[number];
 532              		.loc 2 178 0
 533 0010 094A     		ldr	r2, .L44
 534 0012 7B68     		ldr	r3, [r7, #4]
 535 0014 52F82330 		ldr	r3, [r2, r3, lsl #2]
 536 0018 FB60     		str	r3, [r7, #12]
 179:Generated_Source\PSoC6\pdl\drivers\peripheral\systick/cy_systick.c ****         Cy_SysTick_Callbacks[number] = function;
 537              		.loc 2 179 0
 538 001a 0749     		ldr	r1, .L44
 539 001c 7B68     		ldr	r3, [r7, #4]
 540 001e 3A68     		ldr	r2, [r7]
 541 0020 41F82320 		str	r2, [r1, r3, lsl #2]
 542 0024 01E0     		b	.L42
 543              	.L41:
 180:Generated_Source\PSoC6\pdl\drivers\peripheral\systick/cy_systick.c ****     }
 181:Generated_Source\PSoC6\pdl\drivers\peripheral\systick/cy_systick.c ****     else
 182:Generated_Source\PSoC6\pdl\drivers\peripheral\systick/cy_systick.c ****     {
 183:Generated_Source\PSoC6\pdl\drivers\peripheral\systick/cy_systick.c ****         retVal = NULL;
 544              		.loc 2 183 0
 545 0026 0023     		movs	r3, #0
 546 0028 FB60     		str	r3, [r7, #12]
ARM GAS  C:\Users\tmj32\AppData\Local\Temp\cct9Y8Rk.s 			page 19


 547              	.L42:
 184:Generated_Source\PSoC6\pdl\drivers\peripheral\systick/cy_systick.c ****     }
 185:Generated_Source\PSoC6\pdl\drivers\peripheral\systick/cy_systick.c **** 
 186:Generated_Source\PSoC6\pdl\drivers\peripheral\systick/cy_systick.c ****     return (retVal);
 548              		.loc 2 186 0
 549 002a FB68     		ldr	r3, [r7, #12]
 187:Generated_Source\PSoC6\pdl\drivers\peripheral\systick/cy_systick.c **** }
 550              		.loc 2 187 0
 551 002c 1846     		mov	r0, r3
 552 002e 1437     		adds	r7, r7, #20
 553              		.cfi_def_cfa_offset 4
 554 0030 BD46     		mov	sp, r7
 555              		.cfi_def_cfa_register 13
 556              		@ sp needed
 557 0032 5DF8047B 		ldr	r7, [sp], #4
 558              		.cfi_restore 7
 559              		.cfi_def_cfa_offset 0
 560 0036 7047     		bx	lr
 561              	.L45:
 562              		.align	2
 563              	.L44:
 564 0038 00000000 		.word	Cy_SysTick_Callbacks
 565              		.cfi_endproc
 566              	.LFE144:
 567              		.size	Cy_SysTick_SetCallback, .-Cy_SysTick_SetCallback
 568              		.section	.text.Cy_SysTick_GetCallback,"ax",%progbits
 569              		.align	2
 570              		.global	Cy_SysTick_GetCallback
 571              		.thumb
 572              		.thumb_func
 573              		.type	Cy_SysTick_GetCallback, %function
 574              	Cy_SysTick_GetCallback:
 575              	.LFB145:
 188:Generated_Source\PSoC6\pdl\drivers\peripheral\systick/cy_systick.c **** 
 189:Generated_Source\PSoC6\pdl\drivers\peripheral\systick/cy_systick.c **** 
 190:Generated_Source\PSoC6\pdl\drivers\peripheral\systick/cy_systick.c **** /*******************************************************************************
 191:Generated_Source\PSoC6\pdl\drivers\peripheral\systick/cy_systick.c **** * Function Name: Cy_SysTick_GetCallback
 192:Generated_Source\PSoC6\pdl\drivers\peripheral\systick/cy_systick.c **** ****************************************************************************//**
 193:Generated_Source\PSoC6\pdl\drivers\peripheral\systick/cy_systick.c **** *
 194:Generated_Source\PSoC6\pdl\drivers\peripheral\systick/cy_systick.c **** * Gets the specified callback function address.
 195:Generated_Source\PSoC6\pdl\drivers\peripheral\systick/cy_systick.c **** *
 196:Generated_Source\PSoC6\pdl\drivers\peripheral\systick/cy_systick.c **** * \param number The number of the callback function address to get. The valid
 197:Generated_Source\PSoC6\pdl\drivers\peripheral\systick/cy_systick.c **** * range is from 0 to \ref CY_SYS_SYST_NUM_OF_CALLBACKS - 1.
 198:Generated_Source\PSoC6\pdl\drivers\peripheral\systick/cy_systick.c **** *
 199:Generated_Source\PSoC6\pdl\drivers\peripheral\systick/cy_systick.c **** * \return Returns the address of the specified callback function.
 200:Generated_Source\PSoC6\pdl\drivers\peripheral\systick/cy_systick.c **** * The NULL is returned if the specified address in not initialized or incorrect
 201:Generated_Source\PSoC6\pdl\drivers\peripheral\systick/cy_systick.c **** * parameter is specified.
 202:Generated_Source\PSoC6\pdl\drivers\peripheral\systick/cy_systick.c **** *
 203:Generated_Source\PSoC6\pdl\drivers\peripheral\systick/cy_systick.c **** *******************************************************************************/
 204:Generated_Source\PSoC6\pdl\drivers\peripheral\systick/cy_systick.c **** Cy_SysTick_Callback Cy_SysTick_GetCallback(uint32_t number)
 205:Generated_Source\PSoC6\pdl\drivers\peripheral\systick/cy_systick.c **** {
 576              		.loc 2 205 0
 577              		.cfi_startproc
 578              		@ args = 0, pretend = 0, frame = 16
 579              		@ frame_needed = 1, uses_anonymous_args = 0
 580              		@ link register save eliminated.
 581 0000 80B4     		push	{r7}
ARM GAS  C:\Users\tmj32\AppData\Local\Temp\cct9Y8Rk.s 			page 20


 582              		.cfi_def_cfa_offset 4
 583              		.cfi_offset 7, -4
 584 0002 85B0     		sub	sp, sp, #20
 585              		.cfi_def_cfa_offset 24
 586 0004 00AF     		add	r7, sp, #0
 587              		.cfi_def_cfa_register 7
 588 0006 7860     		str	r0, [r7, #4]
 206:Generated_Source\PSoC6\pdl\drivers\peripheral\systick/cy_systick.c ****     Cy_SysTick_Callback retVal;
 207:Generated_Source\PSoC6\pdl\drivers\peripheral\systick/cy_systick.c **** 
 208:Generated_Source\PSoC6\pdl\drivers\peripheral\systick/cy_systick.c ****     if (number < CY_SYS_SYST_NUM_OF_CALLBACKS)
 589              		.loc 2 208 0
 590 0008 7B68     		ldr	r3, [r7, #4]
 591 000a 042B     		cmp	r3, #4
 592 000c 05D8     		bhi	.L47
 209:Generated_Source\PSoC6\pdl\drivers\peripheral\systick/cy_systick.c ****     {
 210:Generated_Source\PSoC6\pdl\drivers\peripheral\systick/cy_systick.c ****         retVal = Cy_SysTick_Callbacks[number];
 593              		.loc 2 210 0
 594 000e 074A     		ldr	r2, .L50
 595 0010 7B68     		ldr	r3, [r7, #4]
 596 0012 52F82330 		ldr	r3, [r2, r3, lsl #2]
 597 0016 FB60     		str	r3, [r7, #12]
 598 0018 01E0     		b	.L48
 599              	.L47:
 211:Generated_Source\PSoC6\pdl\drivers\peripheral\systick/cy_systick.c ****     }
 212:Generated_Source\PSoC6\pdl\drivers\peripheral\systick/cy_systick.c ****     else
 213:Generated_Source\PSoC6\pdl\drivers\peripheral\systick/cy_systick.c ****     {
 214:Generated_Source\PSoC6\pdl\drivers\peripheral\systick/cy_systick.c ****         retVal = NULL;
 600              		.loc 2 214 0
 601 001a 0023     		movs	r3, #0
 602 001c FB60     		str	r3, [r7, #12]
 603              	.L48:
 215:Generated_Source\PSoC6\pdl\drivers\peripheral\systick/cy_systick.c ****     }
 216:Generated_Source\PSoC6\pdl\drivers\peripheral\systick/cy_systick.c **** 
 217:Generated_Source\PSoC6\pdl\drivers\peripheral\systick/cy_systick.c ****     return (retVal);
 604              		.loc 2 217 0
 605 001e FB68     		ldr	r3, [r7, #12]
 218:Generated_Source\PSoC6\pdl\drivers\peripheral\systick/cy_systick.c **** }
 606              		.loc 2 218 0
 607 0020 1846     		mov	r0, r3
 608 0022 1437     		adds	r7, r7, #20
 609              		.cfi_def_cfa_offset 4
 610 0024 BD46     		mov	sp, r7
 611              		.cfi_def_cfa_register 13
 612              		@ sp needed
 613 0026 5DF8047B 		ldr	r7, [sp], #4
 614              		.cfi_restore 7
 615              		.cfi_def_cfa_offset 0
 616 002a 7047     		bx	lr
 617              	.L51:
 618              		.align	2
 619              	.L50:
 620 002c 00000000 		.word	Cy_SysTick_Callbacks
 621              		.cfi_endproc
 622              	.LFE145:
 623              		.size	Cy_SysTick_GetCallback, .-Cy_SysTick_GetCallback
 624              		.section	.text.Cy_SysTick_ServiceCallbacks,"ax",%progbits
 625              		.align	2
ARM GAS  C:\Users\tmj32\AppData\Local\Temp\cct9Y8Rk.s 			page 21


 626              		.thumb
 627              		.thumb_func
 628              		.type	Cy_SysTick_ServiceCallbacks, %function
 629              	Cy_SysTick_ServiceCallbacks:
 630              	.LFB146:
 219:Generated_Source\PSoC6\pdl\drivers\peripheral\systick/cy_systick.c **** 
 220:Generated_Source\PSoC6\pdl\drivers\peripheral\systick/cy_systick.c **** 
 221:Generated_Source\PSoC6\pdl\drivers\peripheral\systick/cy_systick.c **** /*******************************************************************************
 222:Generated_Source\PSoC6\pdl\drivers\peripheral\systick/cy_systick.c **** * Function Name: Cy_SysTick_ServiceCallbacks
 223:Generated_Source\PSoC6\pdl\drivers\peripheral\systick/cy_systick.c **** ****************************************************************************//**
 224:Generated_Source\PSoC6\pdl\drivers\peripheral\systick/cy_systick.c **** *
 225:Generated_Source\PSoC6\pdl\drivers\peripheral\systick/cy_systick.c **** * The system Tick timer interrupt routine.
 226:Generated_Source\PSoC6\pdl\drivers\peripheral\systick/cy_systick.c **** *
 227:Generated_Source\PSoC6\pdl\drivers\peripheral\systick/cy_systick.c **** *******************************************************************************/
 228:Generated_Source\PSoC6\pdl\drivers\peripheral\systick/cy_systick.c **** static void Cy_SysTick_ServiceCallbacks(void)
 229:Generated_Source\PSoC6\pdl\drivers\peripheral\systick/cy_systick.c **** {
 631              		.loc 2 229 0
 632              		.cfi_startproc
 633              		@ args = 0, pretend = 0, frame = 8
 634              		@ frame_needed = 1, uses_anonymous_args = 0
 635 0000 80B5     		push	{r7, lr}
 636              		.cfi_def_cfa_offset 8
 637              		.cfi_offset 7, -8
 638              		.cfi_offset 14, -4
 639 0002 82B0     		sub	sp, sp, #8
 640              		.cfi_def_cfa_offset 16
 641 0004 00AF     		add	r7, sp, #0
 642              		.cfi_def_cfa_register 7
 230:Generated_Source\PSoC6\pdl\drivers\peripheral\systick/cy_systick.c ****     uint32_t i;
 231:Generated_Source\PSoC6\pdl\drivers\peripheral\systick/cy_systick.c **** 
 232:Generated_Source\PSoC6\pdl\drivers\peripheral\systick/cy_systick.c ****     /* Verify that tick timer flag was set */
 233:Generated_Source\PSoC6\pdl\drivers\peripheral\systick/cy_systick.c ****     if (0u != Cy_SysTick_GetCountFlag())
 643              		.loc 2 233 0
 644 0006 FFF7FEFF 		bl	Cy_SysTick_GetCountFlag
 645 000a 0346     		mov	r3, r0
 646 000c 002B     		cmp	r3, #0
 647 000e 13D0     		beq	.L57
 234:Generated_Source\PSoC6\pdl\drivers\peripheral\systick/cy_systick.c ****     {
 235:Generated_Source\PSoC6\pdl\drivers\peripheral\systick/cy_systick.c ****         for (i=0u; i < CY_SYS_SYST_NUM_OF_CALLBACKS; i++)
 648              		.loc 2 235 0
 649 0010 0023     		movs	r3, #0
 650 0012 7B60     		str	r3, [r7, #4]
 651 0014 0DE0     		b	.L54
 652              	.L56:
 236:Generated_Source\PSoC6\pdl\drivers\peripheral\systick/cy_systick.c ****         {
 237:Generated_Source\PSoC6\pdl\drivers\peripheral\systick/cy_systick.c ****             if (Cy_SysTick_Callbacks[i] != NULL)
 653              		.loc 2 237 0
 654 0016 0A4A     		ldr	r2, .L58
 655 0018 7B68     		ldr	r3, [r7, #4]
 656 001a 52F82330 		ldr	r3, [r2, r3, lsl #2]
 657 001e 002B     		cmp	r3, #0
 658 0020 04D0     		beq	.L55
 238:Generated_Source\PSoC6\pdl\drivers\peripheral\systick/cy_systick.c ****             {
 239:Generated_Source\PSoC6\pdl\drivers\peripheral\systick/cy_systick.c ****                 (void)(Cy_SysTick_Callbacks[i])();
 659              		.loc 2 239 0
 660 0022 074A     		ldr	r2, .L58
 661 0024 7B68     		ldr	r3, [r7, #4]
ARM GAS  C:\Users\tmj32\AppData\Local\Temp\cct9Y8Rk.s 			page 22


 662 0026 52F82330 		ldr	r3, [r2, r3, lsl #2]
 663 002a 9847     		blx	r3
 664              	.L55:
 235:Generated_Source\PSoC6\pdl\drivers\peripheral\systick/cy_systick.c ****         {
 665              		.loc 2 235 0 discriminator 2
 666 002c 7B68     		ldr	r3, [r7, #4]
 667 002e 0133     		adds	r3, r3, #1
 668 0030 7B60     		str	r3, [r7, #4]
 669              	.L54:
 235:Generated_Source\PSoC6\pdl\drivers\peripheral\systick/cy_systick.c ****         {
 670              		.loc 2 235 0 is_stmt 0 discriminator 1
 671 0032 7B68     		ldr	r3, [r7, #4]
 672 0034 042B     		cmp	r3, #4
 673 0036 EED9     		bls	.L56
 674              	.L57:
 240:Generated_Source\PSoC6\pdl\drivers\peripheral\systick/cy_systick.c ****             }
 241:Generated_Source\PSoC6\pdl\drivers\peripheral\systick/cy_systick.c ****         }
 242:Generated_Source\PSoC6\pdl\drivers\peripheral\systick/cy_systick.c ****     }
 243:Generated_Source\PSoC6\pdl\drivers\peripheral\systick/cy_systick.c **** }
 675              		.loc 2 243 0 is_stmt 1
 676 0038 00BF     		nop
 677 003a 0837     		adds	r7, r7, #8
 678              		.cfi_def_cfa_offset 8
 679 003c BD46     		mov	sp, r7
 680              		.cfi_def_cfa_register 13
 681              		@ sp needed
 682 003e 80BD     		pop	{r7, pc}
 683              	.L59:
 684              		.align	2
 685              	.L58:
 686 0040 00000000 		.word	Cy_SysTick_Callbacks
 687              		.cfi_endproc
 688              	.LFE146:
 689              		.size	Cy_SysTick_ServiceCallbacks, .-Cy_SysTick_ServiceCallbacks
 690              		.text
 691              	.Letext0:
 692              		.file 3 "c:\\program files (x86)\\cypress\\psoc creator\\4.3\\psoc creator\\import\\gnu\\arm\\5.4.
 693              		.file 4 "c:\\program files (x86)\\cypress\\psoc creator\\4.3\\psoc creator\\import\\gnu\\arm\\5.4.
 694              		.file 5 "Generated_Source\\PSoC6\\pdl\\drivers/peripheral/device/cy_device.h"
 695              		.file 6 "Generated_Source\\PSoC6\\pdl\\cmsis/include/core_cm4.h"
 696              		.file 7 "Generated_Source\\PSoC6\\pdl\\drivers/peripheral/syslib/cy_syslib.h"