ARM GAS  C:\Users\tmj32\AppData\Local\Temp\ccenHtUU.s 			page 1


   1              		.syntax unified
   2              		.cpu cortex-m4
   3              		.eabi_attribute 27, 1
   4              		.fpu fpv4-sp-d16
   5              		.eabi_attribute 20, 1
   6              		.eabi_attribute 21, 1
   7              		.eabi_attribute 23, 3
   8              		.eabi_attribute 24, 1
   9              		.eabi_attribute 25, 1
  10              		.eabi_attribute 26, 1
  11              		.eabi_attribute 30, 6
  12              		.eabi_attribute 34, 1
  13              		.eabi_attribute 18, 4
  14              		.thumb
  15              		.syntax unified
  16              		.file	"cy_scb_spi.c"
  17              		.text
  18              	.Ltext0:
  19              		.cfi_sections	.debug_frame
  20              		.section	.text.Cy_SCB_ReadRxFifo,"ax",%progbits
  21              		.align	2
  22              		.thumb
  23              		.thumb_func
  24              		.type	Cy_SCB_ReadRxFifo, %function
  25              	Cy_SCB_ReadRxFifo:
  26              	.LFB166:
  27              		.file 1 "Generated_Source\\PSoC6\\pdl\\drivers\\peripheral\\scb\\cy_scb_common.h"
   1:Generated_Source\PSoC6\pdl\drivers\peripheral\scb/cy_scb_common.h **** /***************************************************************************//**
   2:Generated_Source\PSoC6\pdl\drivers\peripheral\scb/cy_scb_common.h **** * \file cy_scb_common.h
   3:Generated_Source\PSoC6\pdl\drivers\peripheral\scb/cy_scb_common.h **** * \version 2.20
   4:Generated_Source\PSoC6\pdl\drivers\peripheral\scb/cy_scb_common.h **** *
   5:Generated_Source\PSoC6\pdl\drivers\peripheral\scb/cy_scb_common.h **** * Provides common API declarations of the SCB driver.
   6:Generated_Source\PSoC6\pdl\drivers\peripheral\scb/cy_scb_common.h **** *
   7:Generated_Source\PSoC6\pdl\drivers\peripheral\scb/cy_scb_common.h **** ********************************************************************************
   8:Generated_Source\PSoC6\pdl\drivers\peripheral\scb/cy_scb_common.h **** * \copyright
   9:Generated_Source\PSoC6\pdl\drivers\peripheral\scb/cy_scb_common.h **** * Copyright 2016-2018, Cypress Semiconductor Corporation.  All rights reserved.
  10:Generated_Source\PSoC6\pdl\drivers\peripheral\scb/cy_scb_common.h **** * You may use this file only in accordance with the license, terms, conditions,
  11:Generated_Source\PSoC6\pdl\drivers\peripheral\scb/cy_scb_common.h **** * disclaimers, and limitations in the end user license agreement accompanying
  12:Generated_Source\PSoC6\pdl\drivers\peripheral\scb/cy_scb_common.h **** * the software package with which this file was provided.
  13:Generated_Source\PSoC6\pdl\drivers\peripheral\scb/cy_scb_common.h **** *******************************************************************************/
  14:Generated_Source\PSoC6\pdl\drivers\peripheral\scb/cy_scb_common.h **** 
  15:Generated_Source\PSoC6\pdl\drivers\peripheral\scb/cy_scb_common.h **** /**
  16:Generated_Source\PSoC6\pdl\drivers\peripheral\scb/cy_scb_common.h **** * \addtogroup group_scb
  17:Generated_Source\PSoC6\pdl\drivers\peripheral\scb/cy_scb_common.h **** * \{
  18:Generated_Source\PSoC6\pdl\drivers\peripheral\scb/cy_scb_common.h **** * The Serial Communications Block (SCB) supports three serial communication 
  19:Generated_Source\PSoC6\pdl\drivers\peripheral\scb/cy_scb_common.h **** * protocols: Serial Peripheral Interface (SPI), Universal Asynchronous Receiver 
  20:Generated_Source\PSoC6\pdl\drivers\peripheral\scb/cy_scb_common.h **** * Transmitter (UART), and Inter Integrated Circuit (I2C or IIC). Only one of 
  21:Generated_Source\PSoC6\pdl\drivers\peripheral\scb/cy_scb_common.h **** * the protocols is supported by an SCB at any given time.
  22:Generated_Source\PSoC6\pdl\drivers\peripheral\scb/cy_scb_common.h **** *
  23:Generated_Source\PSoC6\pdl\drivers\peripheral\scb/cy_scb_common.h **** * The functions and other declarations used in this driver are in cy_scb_spi.h, 
  24:Generated_Source\PSoC6\pdl\drivers\peripheral\scb/cy_scb_common.h **** * cy_scb_uart.h, cy_scb_ezi2c.h, cy_scb_i2c.h respectively. Include cy_pdl.h 
  25:Generated_Source\PSoC6\pdl\drivers\peripheral\scb/cy_scb_common.h **** * (ModusToolbox only) to get access to all functions and declarations in the PDL.
  26:Generated_Source\PSoC6\pdl\drivers\peripheral\scb/cy_scb_common.h **** 
  27:Generated_Source\PSoC6\pdl\drivers\peripheral\scb/cy_scb_common.h **** * \defgroup group_scb_common Common
  28:Generated_Source\PSoC6\pdl\drivers\peripheral\scb/cy_scb_common.h **** * \defgroup group_scb_ezi2c  EZI2C (SCB)
  29:Generated_Source\PSoC6\pdl\drivers\peripheral\scb/cy_scb_common.h **** * \defgroup group_scb_i2c    I2C (SCB)
  30:Generated_Source\PSoC6\pdl\drivers\peripheral\scb/cy_scb_common.h **** * \defgroup group_scb_spi    SPI (SCB)
ARM GAS  C:\Users\tmj32\AppData\Local\Temp\ccenHtUU.s 			page 2


  31:Generated_Source\PSoC6\pdl\drivers\peripheral\scb/cy_scb_common.h **** * \defgroup group_scb_uart   UART (SCB)
  32:Generated_Source\PSoC6\pdl\drivers\peripheral\scb/cy_scb_common.h **** * \} */
  33:Generated_Source\PSoC6\pdl\drivers\peripheral\scb/cy_scb_common.h **** 
  34:Generated_Source\PSoC6\pdl\drivers\peripheral\scb/cy_scb_common.h **** /**
  35:Generated_Source\PSoC6\pdl\drivers\peripheral\scb/cy_scb_common.h **** * \addtogroup group_scb_common
  36:Generated_Source\PSoC6\pdl\drivers\peripheral\scb/cy_scb_common.h **** * \{
  37:Generated_Source\PSoC6\pdl\drivers\peripheral\scb/cy_scb_common.h **** *
  38:Generated_Source\PSoC6\pdl\drivers\peripheral\scb/cy_scb_common.h **** * Common API for the Serial Communication Block.
  39:Generated_Source\PSoC6\pdl\drivers\peripheral\scb/cy_scb_common.h **** *
  40:Generated_Source\PSoC6\pdl\drivers\peripheral\scb/cy_scb_common.h **** * This is the common API that provides an interface to the SCB hardware.
  41:Generated_Source\PSoC6\pdl\drivers\peripheral\scb/cy_scb_common.h **** * The I2C, SPI, and UART drivers use this common API.
  42:Generated_Source\PSoC6\pdl\drivers\peripheral\scb/cy_scb_common.h **** * Most users will use individual drivers and do not need to use the common
  43:Generated_Source\PSoC6\pdl\drivers\peripheral\scb/cy_scb_common.h **** * API for the SCB. However, you can use the common SCB API to implement
  44:Generated_Source\PSoC6\pdl\drivers\peripheral\scb/cy_scb_common.h **** * a custom driver based on the SCB hardware.
  45:Generated_Source\PSoC6\pdl\drivers\peripheral\scb/cy_scb_common.h **** *
  46:Generated_Source\PSoC6\pdl\drivers\peripheral\scb/cy_scb_common.h **** * The functions and other declarations used in this part of the driver are in 
  47:Generated_Source\PSoC6\pdl\drivers\peripheral\scb/cy_scb_common.h **** * cy_scb_common.h. You can include either of cy_scb_spi.h, cy_scb_uart.h, 
  48:Generated_Source\PSoC6\pdl\drivers\peripheral\scb/cy_scb_common.h **** * cy_scb_ezi2c.h, cy_scb_i2c.h depending on the desired functionality. 
  49:Generated_Source\PSoC6\pdl\drivers\peripheral\scb/cy_scb_common.h **** * You can also include cy_pdl.h to get access to all functions and declarations 
  50:Generated_Source\PSoC6\pdl\drivers\peripheral\scb/cy_scb_common.h **** * in the PDL.
  51:Generated_Source\PSoC6\pdl\drivers\peripheral\scb/cy_scb_common.h **** *
  52:Generated_Source\PSoC6\pdl\drivers\peripheral\scb/cy_scb_common.h **** *******************************************************************************
  53:Generated_Source\PSoC6\pdl\drivers\peripheral\scb/cy_scb_common.h **** * \section group_scb_common_configuration Configuration Considerations
  54:Generated_Source\PSoC6\pdl\drivers\peripheral\scb/cy_scb_common.h **** ********************************************************************************
  55:Generated_Source\PSoC6\pdl\drivers\peripheral\scb/cy_scb_common.h **** * This is not a driver and it does not require configuration.
  56:Generated_Source\PSoC6\pdl\drivers\peripheral\scb/cy_scb_common.h **** *
  57:Generated_Source\PSoC6\pdl\drivers\peripheral\scb/cy_scb_common.h **** *******************************************************************************
  58:Generated_Source\PSoC6\pdl\drivers\peripheral\scb/cy_scb_common.h **** * \section group_scb_common_more_information More Information
  59:Generated_Source\PSoC6\pdl\drivers\peripheral\scb/cy_scb_common.h **** *******************************************************************************
  60:Generated_Source\PSoC6\pdl\drivers\peripheral\scb/cy_scb_common.h **** * Refer to the SCB chapter of the technical reference manual (TRM).
  61:Generated_Source\PSoC6\pdl\drivers\peripheral\scb/cy_scb_common.h **** *
  62:Generated_Source\PSoC6\pdl\drivers\peripheral\scb/cy_scb_common.h **** *******************************************************************************
  63:Generated_Source\PSoC6\pdl\drivers\peripheral\scb/cy_scb_common.h **** * \section group_scb_common_MISRA MISRA-C Compliance
  64:Generated_Source\PSoC6\pdl\drivers\peripheral\scb/cy_scb_common.h **** *******************************************************************************
  65:Generated_Source\PSoC6\pdl\drivers\peripheral\scb/cy_scb_common.h **** * <table class="doxtable">
  66:Generated_Source\PSoC6\pdl\drivers\peripheral\scb/cy_scb_common.h **** *   <tr>
  67:Generated_Source\PSoC6\pdl\drivers\peripheral\scb/cy_scb_common.h **** *     <th>MISRA rule</th>
  68:Generated_Source\PSoC6\pdl\drivers\peripheral\scb/cy_scb_common.h **** *     <th>Rule Class (Required/Advisory)</th>
  69:Generated_Source\PSoC6\pdl\drivers\peripheral\scb/cy_scb_common.h **** *     <th>Rule Description</th>
  70:Generated_Source\PSoC6\pdl\drivers\peripheral\scb/cy_scb_common.h **** *     <th>Description of Deviation(s)</th>
  71:Generated_Source\PSoC6\pdl\drivers\peripheral\scb/cy_scb_common.h **** *   </tr>
  72:Generated_Source\PSoC6\pdl\drivers\peripheral\scb/cy_scb_common.h **** *   <tr>
  73:Generated_Source\PSoC6\pdl\drivers\peripheral\scb/cy_scb_common.h **** *     <td>11.4</td>
  74:Generated_Source\PSoC6\pdl\drivers\peripheral\scb/cy_scb_common.h **** *     <td>A</td>
  75:Generated_Source\PSoC6\pdl\drivers\peripheral\scb/cy_scb_common.h **** *     <td>A cast should not be performed between a pointer to object type and
  76:Generated_Source\PSoC6\pdl\drivers\peripheral\scb/cy_scb_common.h **** *         a different pointer to object type.</td>
  77:Generated_Source\PSoC6\pdl\drivers\peripheral\scb/cy_scb_common.h **** *     <td>The pointer to the buffer memory is void to allow handling of
  78:Generated_Source\PSoC6\pdl\drivers\peripheral\scb/cy_scb_common.h **** *         different data types: uint8_t (4-8 bits) or uint16_t (9-16 bits).
  79:Generated_Source\PSoC6\pdl\drivers\peripheral\scb/cy_scb_common.h **** *         The cast operation is safe because the configuration is verified
  80:Generated_Source\PSoC6\pdl\drivers\peripheral\scb/cy_scb_common.h **** *         before operation is performed.
  81:Generated_Source\PSoC6\pdl\drivers\peripheral\scb/cy_scb_common.h **** *         </td>
  82:Generated_Source\PSoC6\pdl\drivers\peripheral\scb/cy_scb_common.h **** *   </tr>
  83:Generated_Source\PSoC6\pdl\drivers\peripheral\scb/cy_scb_common.h **** * </table>
  84:Generated_Source\PSoC6\pdl\drivers\peripheral\scb/cy_scb_common.h **** *
  85:Generated_Source\PSoC6\pdl\drivers\peripheral\scb/cy_scb_common.h **** *******************************************************************************
  86:Generated_Source\PSoC6\pdl\drivers\peripheral\scb/cy_scb_common.h **** * \section group_scb_common_changelog Changelog
  87:Generated_Source\PSoC6\pdl\drivers\peripheral\scb/cy_scb_common.h **** *******************************************************************************
ARM GAS  C:\Users\tmj32\AppData\Local\Temp\ccenHtUU.s 			page 3


  88:Generated_Source\PSoC6\pdl\drivers\peripheral\scb/cy_scb_common.h **** * <table class="doxtable">
  89:Generated_Source\PSoC6\pdl\drivers\peripheral\scb/cy_scb_common.h **** *   <tr><th>Version</th><th>Changes</th><th>Reason for Change</th></tr>
  90:Generated_Source\PSoC6\pdl\drivers\peripheral\scb/cy_scb_common.h **** *   <tr>
  91:Generated_Source\PSoC6\pdl\drivers\peripheral\scb/cy_scb_common.h **** *     <td rowspan="2">2.20</td>
  92:Generated_Source\PSoC6\pdl\drivers\peripheral\scb/cy_scb_common.h **** *     <td>Flattened the organization of the driver source code into the single 
  93:Generated_Source\PSoC6\pdl\drivers\peripheral\scb/cy_scb_common.h **** *         source directory and the single include directory.
  94:Generated_Source\PSoC6\pdl\drivers\peripheral\scb/cy_scb_common.h **** *     </td>
  95:Generated_Source\PSoC6\pdl\drivers\peripheral\scb/cy_scb_common.h **** *     <td>Driver library directory-structure simplification.</td>
  96:Generated_Source\PSoC6\pdl\drivers\peripheral\scb/cy_scb_common.h **** *   </tr>
  97:Generated_Source\PSoC6\pdl\drivers\peripheral\scb/cy_scb_common.h **** *   <tr>
  98:Generated_Source\PSoC6\pdl\drivers\peripheral\scb/cy_scb_common.h **** *     <td>Added register access layer. Use register access macros instead
  99:Generated_Source\PSoC6\pdl\drivers\peripheral\scb/cy_scb_common.h **** *         of direct register access using dereferenced pointers.</td>
 100:Generated_Source\PSoC6\pdl\drivers\peripheral\scb/cy_scb_common.h **** *     <td>Makes register access device-independent, so that the PDL does 
 101:Generated_Source\PSoC6\pdl\drivers\peripheral\scb/cy_scb_common.h **** *         not need to be recompiled for each supported part number.</td>
 102:Generated_Source\PSoC6\pdl\drivers\peripheral\scb/cy_scb_common.h **** *   </tr>
 103:Generated_Source\PSoC6\pdl\drivers\peripheral\scb/cy_scb_common.h **** *   <tr>
 104:Generated_Source\PSoC6\pdl\drivers\peripheral\scb/cy_scb_common.h **** *     <td>2.10</td>
 105:Generated_Source\PSoC6\pdl\drivers\peripheral\scb/cy_scb_common.h **** *     <td>None.</td>
 106:Generated_Source\PSoC6\pdl\drivers\peripheral\scb/cy_scb_common.h **** *     <td>SCB I2C driver updated.</td>
 107:Generated_Source\PSoC6\pdl\drivers\peripheral\scb/cy_scb_common.h **** *   </tr>
 108:Generated_Source\PSoC6\pdl\drivers\peripheral\scb/cy_scb_common.h **** *   <tr>
 109:Generated_Source\PSoC6\pdl\drivers\peripheral\scb/cy_scb_common.h **** *     <td rowspan="2"> 2.0</td>
 110:Generated_Source\PSoC6\pdl\drivers\peripheral\scb/cy_scb_common.h **** *     <td>Added parameters validation for public API.
 111:Generated_Source\PSoC6\pdl\drivers\peripheral\scb/cy_scb_common.h **** *     <td></td>
 112:Generated_Source\PSoC6\pdl\drivers\peripheral\scb/cy_scb_common.h **** *   </tr>
 113:Generated_Source\PSoC6\pdl\drivers\peripheral\scb/cy_scb_common.h **** *   <tr>
 114:Generated_Source\PSoC6\pdl\drivers\peripheral\scb/cy_scb_common.h **** *     <td>Fixed functions which return interrupt status to return only defined
 115:Generated_Source\PSoC6\pdl\drivers\peripheral\scb/cy_scb_common.h **** *         set of interrupt statuses.</td>
 116:Generated_Source\PSoC6\pdl\drivers\peripheral\scb/cy_scb_common.h **** *     <td></td>
 117:Generated_Source\PSoC6\pdl\drivers\peripheral\scb/cy_scb_common.h **** *   </tr>
 118:Generated_Source\PSoC6\pdl\drivers\peripheral\scb/cy_scb_common.h **** *   <tr>
 119:Generated_Source\PSoC6\pdl\drivers\peripheral\scb/cy_scb_common.h **** *     <td>1.0</td>
 120:Generated_Source\PSoC6\pdl\drivers\peripheral\scb/cy_scb_common.h **** *     <td>Initial version.</td>
 121:Generated_Source\PSoC6\pdl\drivers\peripheral\scb/cy_scb_common.h **** *     <td></td>
 122:Generated_Source\PSoC6\pdl\drivers\peripheral\scb/cy_scb_common.h **** *   </tr>
 123:Generated_Source\PSoC6\pdl\drivers\peripheral\scb/cy_scb_common.h **** * </table>
 124:Generated_Source\PSoC6\pdl\drivers\peripheral\scb/cy_scb_common.h **** *
 125:Generated_Source\PSoC6\pdl\drivers\peripheral\scb/cy_scb_common.h **** * \defgroup group_scb_common_macros Macros
 126:Generated_Source\PSoC6\pdl\drivers\peripheral\scb/cy_scb_common.h **** * \defgroup group_scb_common_functions Functions
 127:Generated_Source\PSoC6\pdl\drivers\peripheral\scb/cy_scb_common.h **** * \defgroup group_scb_common_data_structures Data Structures
 128:Generated_Source\PSoC6\pdl\drivers\peripheral\scb/cy_scb_common.h **** *
 129:Generated_Source\PSoC6\pdl\drivers\peripheral\scb/cy_scb_common.h **** */
 130:Generated_Source\PSoC6\pdl\drivers\peripheral\scb/cy_scb_common.h **** 
 131:Generated_Source\PSoC6\pdl\drivers\peripheral\scb/cy_scb_common.h **** #if !defined(CY_SCB_COMMON_H)
 132:Generated_Source\PSoC6\pdl\drivers\peripheral\scb/cy_scb_common.h **** #define CY_SCB_COMMON_H
 133:Generated_Source\PSoC6\pdl\drivers\peripheral\scb/cy_scb_common.h **** 
 134:Generated_Source\PSoC6\pdl\drivers\peripheral\scb/cy_scb_common.h **** #include <stdint.h>
 135:Generated_Source\PSoC6\pdl\drivers\peripheral\scb/cy_scb_common.h **** #include <stddef.h>
 136:Generated_Source\PSoC6\pdl\drivers\peripheral\scb/cy_scb_common.h **** #include <stdbool.h>
 137:Generated_Source\PSoC6\pdl\drivers\peripheral\scb/cy_scb_common.h **** #include "cy_device.h"
 138:Generated_Source\PSoC6\pdl\drivers\peripheral\scb/cy_scb_common.h **** #include "cy_device_headers.h"
 139:Generated_Source\PSoC6\pdl\drivers\peripheral\scb/cy_scb_common.h **** #include "cy_syslib.h"
 140:Generated_Source\PSoC6\pdl\drivers\peripheral\scb/cy_scb_common.h **** #include "cy_syspm.h"
 141:Generated_Source\PSoC6\pdl\drivers\peripheral\scb/cy_scb_common.h **** 
 142:Generated_Source\PSoC6\pdl\drivers\peripheral\scb/cy_scb_common.h **** #ifdef CY_IP_MXSCB
 143:Generated_Source\PSoC6\pdl\drivers\peripheral\scb/cy_scb_common.h **** 
 144:Generated_Source\PSoC6\pdl\drivers\peripheral\scb/cy_scb_common.h **** #if defined(__cplusplus)
ARM GAS  C:\Users\tmj32\AppData\Local\Temp\ccenHtUU.s 			page 4


 145:Generated_Source\PSoC6\pdl\drivers\peripheral\scb/cy_scb_common.h **** extern "C" {
 146:Generated_Source\PSoC6\pdl\drivers\peripheral\scb/cy_scb_common.h **** #endif
 147:Generated_Source\PSoC6\pdl\drivers\peripheral\scb/cy_scb_common.h **** 
 148:Generated_Source\PSoC6\pdl\drivers\peripheral\scb/cy_scb_common.h **** 
 149:Generated_Source\PSoC6\pdl\drivers\peripheral\scb/cy_scb_common.h **** /*******************************************************************************
 150:Generated_Source\PSoC6\pdl\drivers\peripheral\scb/cy_scb_common.h **** *                            Function Prototypes
 151:Generated_Source\PSoC6\pdl\drivers\peripheral\scb/cy_scb_common.h **** *******************************************************************************/
 152:Generated_Source\PSoC6\pdl\drivers\peripheral\scb/cy_scb_common.h **** 
 153:Generated_Source\PSoC6\pdl\drivers\peripheral\scb/cy_scb_common.h **** /**
 154:Generated_Source\PSoC6\pdl\drivers\peripheral\scb/cy_scb_common.h **** * \addtogroup group_scb_common_functions
 155:Generated_Source\PSoC6\pdl\drivers\peripheral\scb/cy_scb_common.h **** * \{
 156:Generated_Source\PSoC6\pdl\drivers\peripheral\scb/cy_scb_common.h **** */
 157:Generated_Source\PSoC6\pdl\drivers\peripheral\scb/cy_scb_common.h **** __STATIC_INLINE uint32_t Cy_SCB_ReadRxFifo    (CySCB_Type const *base);
 158:Generated_Source\PSoC6\pdl\drivers\peripheral\scb/cy_scb_common.h **** __STATIC_INLINE void     Cy_SCB_SetRxFifoLevel(CySCB_Type *base, uint32_t level);
 159:Generated_Source\PSoC6\pdl\drivers\peripheral\scb/cy_scb_common.h **** __STATIC_INLINE uint32_t Cy_SCB_GetNumInRxFifo(CySCB_Type const *base);
 160:Generated_Source\PSoC6\pdl\drivers\peripheral\scb/cy_scb_common.h **** __STATIC_INLINE uint32_t Cy_SCB_GetRxSrValid  (CySCB_Type const *base);
 161:Generated_Source\PSoC6\pdl\drivers\peripheral\scb/cy_scb_common.h **** __STATIC_INLINE void     Cy_SCB_ClearRxFifo   (CySCB_Type *base);
 162:Generated_Source\PSoC6\pdl\drivers\peripheral\scb/cy_scb_common.h **** 
 163:Generated_Source\PSoC6\pdl\drivers\peripheral\scb/cy_scb_common.h **** __STATIC_INLINE void     Cy_SCB_WriteTxFifo   (CySCB_Type *base, uint32_t data);
 164:Generated_Source\PSoC6\pdl\drivers\peripheral\scb/cy_scb_common.h **** __STATIC_INLINE void     Cy_SCB_SetTxFifoLevel(CySCB_Type *base, uint32_t level);
 165:Generated_Source\PSoC6\pdl\drivers\peripheral\scb/cy_scb_common.h **** __STATIC_INLINE uint32_t Cy_SCB_GetNumInTxFifo(CySCB_Type const *base);
 166:Generated_Source\PSoC6\pdl\drivers\peripheral\scb/cy_scb_common.h **** __STATIC_INLINE uint32_t Cy_SCB_GetTxSrValid  (CySCB_Type const *base);
 167:Generated_Source\PSoC6\pdl\drivers\peripheral\scb/cy_scb_common.h **** __STATIC_INLINE bool     Cy_SCB_IsTxComplete  (CySCB_Type const *base);
 168:Generated_Source\PSoC6\pdl\drivers\peripheral\scb/cy_scb_common.h **** __STATIC_INLINE void     Cy_SCB_ClearTxFifo   (CySCB_Type *base);
 169:Generated_Source\PSoC6\pdl\drivers\peripheral\scb/cy_scb_common.h **** 
 170:Generated_Source\PSoC6\pdl\drivers\peripheral\scb/cy_scb_common.h **** __STATIC_INLINE void     Cy_SCB_SetByteMode(CySCB_Type *base, bool byteMode);
 171:Generated_Source\PSoC6\pdl\drivers\peripheral\scb/cy_scb_common.h **** 
 172:Generated_Source\PSoC6\pdl\drivers\peripheral\scb/cy_scb_common.h **** __STATIC_INLINE uint32_t Cy_SCB_GetInterruptCause(CySCB_Type const *base);
 173:Generated_Source\PSoC6\pdl\drivers\peripheral\scb/cy_scb_common.h **** 
 174:Generated_Source\PSoC6\pdl\drivers\peripheral\scb/cy_scb_common.h **** __STATIC_INLINE uint32_t Cy_SCB_GetRxInterruptStatus(CySCB_Type const *base);
 175:Generated_Source\PSoC6\pdl\drivers\peripheral\scb/cy_scb_common.h **** __STATIC_INLINE void     Cy_SCB_SetRxInterruptMask  (CySCB_Type *base, uint32_t interruptMask);
 176:Generated_Source\PSoC6\pdl\drivers\peripheral\scb/cy_scb_common.h **** __STATIC_INLINE uint32_t Cy_SCB_GetRxInterruptMask  (CySCB_Type const *base);
 177:Generated_Source\PSoC6\pdl\drivers\peripheral\scb/cy_scb_common.h **** __STATIC_INLINE uint32_t Cy_SCB_GetRxInterruptStatusMasked(CySCB_Type const *base);
 178:Generated_Source\PSoC6\pdl\drivers\peripheral\scb/cy_scb_common.h **** __STATIC_INLINE void     Cy_SCB_ClearRxInterrupt    (CySCB_Type *base, uint32_t interruptMask);
 179:Generated_Source\PSoC6\pdl\drivers\peripheral\scb/cy_scb_common.h **** __STATIC_INLINE void     Cy_SCB_SetRxInterrupt      (CySCB_Type *base, uint32_t interruptMask);
 180:Generated_Source\PSoC6\pdl\drivers\peripheral\scb/cy_scb_common.h **** 
 181:Generated_Source\PSoC6\pdl\drivers\peripheral\scb/cy_scb_common.h **** __STATIC_INLINE uint32_t Cy_SCB_GetTxInterruptStatus(CySCB_Type const *base);
 182:Generated_Source\PSoC6\pdl\drivers\peripheral\scb/cy_scb_common.h **** __STATIC_INLINE void     Cy_SCB_SetTxInterruptMask  (CySCB_Type *base, uint32_t interruptMask);
 183:Generated_Source\PSoC6\pdl\drivers\peripheral\scb/cy_scb_common.h **** __STATIC_INLINE uint32_t Cy_SCB_GetTxInterruptMask  (CySCB_Type const *base);
 184:Generated_Source\PSoC6\pdl\drivers\peripheral\scb/cy_scb_common.h **** __STATIC_INLINE uint32_t Cy_SCB_GetTxInterruptStatusMasked(CySCB_Type const *base);
 185:Generated_Source\PSoC6\pdl\drivers\peripheral\scb/cy_scb_common.h **** __STATIC_INLINE void     Cy_SCB_ClearTxInterrupt    (CySCB_Type *base, uint32_t interruptMask);
 186:Generated_Source\PSoC6\pdl\drivers\peripheral\scb/cy_scb_common.h **** __STATIC_INLINE void     Cy_SCB_SetTxInterrupt      (CySCB_Type *base, uint32_t interruptMask);
 187:Generated_Source\PSoC6\pdl\drivers\peripheral\scb/cy_scb_common.h **** 
 188:Generated_Source\PSoC6\pdl\drivers\peripheral\scb/cy_scb_common.h **** __STATIC_INLINE uint32_t Cy_SCB_GetMasterInterruptStatus(CySCB_Type const *base);
 189:Generated_Source\PSoC6\pdl\drivers\peripheral\scb/cy_scb_common.h **** __STATIC_INLINE void     Cy_SCB_SetMasterInterruptMask  (CySCB_Type *base, uint32_t interruptMask);
 190:Generated_Source\PSoC6\pdl\drivers\peripheral\scb/cy_scb_common.h **** __STATIC_INLINE uint32_t Cy_SCB_GetMasterInterruptMask  (CySCB_Type const *base);
 191:Generated_Source\PSoC6\pdl\drivers\peripheral\scb/cy_scb_common.h **** __STATIC_INLINE uint32_t Cy_SCB_GetMasterInterruptStatusMasked(CySCB_Type const *base);
 192:Generated_Source\PSoC6\pdl\drivers\peripheral\scb/cy_scb_common.h **** __STATIC_INLINE void     Cy_SCB_ClearMasterInterrupt    (CySCB_Type *base, uint32_t interruptMask);
 193:Generated_Source\PSoC6\pdl\drivers\peripheral\scb/cy_scb_common.h **** __STATIC_INLINE void     Cy_SCB_SetMasterInterrupt      (CySCB_Type *base, uint32_t interruptMask);
 194:Generated_Source\PSoC6\pdl\drivers\peripheral\scb/cy_scb_common.h **** 
 195:Generated_Source\PSoC6\pdl\drivers\peripheral\scb/cy_scb_common.h **** __STATIC_INLINE uint32_t Cy_SCB_GetSlaveInterruptStatus(CySCB_Type const *base);
 196:Generated_Source\PSoC6\pdl\drivers\peripheral\scb/cy_scb_common.h **** __STATIC_INLINE void     Cy_SCB_SetSlaveInterruptMask  (CySCB_Type *base, uint32_t interruptMask);
 197:Generated_Source\PSoC6\pdl\drivers\peripheral\scb/cy_scb_common.h **** __STATIC_INLINE uint32_t Cy_SCB_GetSlaveInterruptMask  (CySCB_Type const *base);
 198:Generated_Source\PSoC6\pdl\drivers\peripheral\scb/cy_scb_common.h **** __STATIC_INLINE uint32_t Cy_SCB_GetSlaveInterruptStatusMasked(CySCB_Type const *base);
 199:Generated_Source\PSoC6\pdl\drivers\peripheral\scb/cy_scb_common.h **** __STATIC_INLINE void     Cy_SCB_ClearSlaveInterrupt    (CySCB_Type *base, uint32_t interruptMask);
 200:Generated_Source\PSoC6\pdl\drivers\peripheral\scb/cy_scb_common.h **** __STATIC_INLINE void     Cy_SCB_SetSlaveInterrupt      (CySCB_Type *base, uint32_t interruptMask);
 201:Generated_Source\PSoC6\pdl\drivers\peripheral\scb/cy_scb_common.h **** 
ARM GAS  C:\Users\tmj32\AppData\Local\Temp\ccenHtUU.s 			page 5


 202:Generated_Source\PSoC6\pdl\drivers\peripheral\scb/cy_scb_common.h **** __STATIC_INLINE uint32_t Cy_SCB_GetI2CInterruptStatus(CySCB_Type const *base);
 203:Generated_Source\PSoC6\pdl\drivers\peripheral\scb/cy_scb_common.h **** __STATIC_INLINE void     Cy_SCB_SetI2CInterruptMask  (CySCB_Type *base, uint32_t interruptMask);
 204:Generated_Source\PSoC6\pdl\drivers\peripheral\scb/cy_scb_common.h **** __STATIC_INLINE uint32_t Cy_SCB_GetI2CInterruptMask  (CySCB_Type const *base);
 205:Generated_Source\PSoC6\pdl\drivers\peripheral\scb/cy_scb_common.h **** __STATIC_INLINE uint32_t Cy_SCB_GetI2CInterruptStatusMasked(CySCB_Type const *base);
 206:Generated_Source\PSoC6\pdl\drivers\peripheral\scb/cy_scb_common.h **** __STATIC_INLINE void     Cy_SCB_ClearI2CInterrupt    (CySCB_Type *base, uint32_t interruptMask);
 207:Generated_Source\PSoC6\pdl\drivers\peripheral\scb/cy_scb_common.h **** 
 208:Generated_Source\PSoC6\pdl\drivers\peripheral\scb/cy_scb_common.h **** __STATIC_INLINE uint32_t Cy_SCB_GetSpiInterruptStatus(CySCB_Type const *base);
 209:Generated_Source\PSoC6\pdl\drivers\peripheral\scb/cy_scb_common.h **** __STATIC_INLINE void     Cy_SCB_SetSpiInterruptMask  (CySCB_Type *base, uint32_t interruptMask);
 210:Generated_Source\PSoC6\pdl\drivers\peripheral\scb/cy_scb_common.h **** __STATIC_INLINE uint32_t Cy_SCB_GetSpiInterruptMask  (CySCB_Type const *base);
 211:Generated_Source\PSoC6\pdl\drivers\peripheral\scb/cy_scb_common.h **** __STATIC_INLINE uint32_t Cy_SCB_GetSpiInterruptStatusMasked(CySCB_Type const *base);
 212:Generated_Source\PSoC6\pdl\drivers\peripheral\scb/cy_scb_common.h **** __STATIC_INLINE void     Cy_SCB_ClearSpiInterrupt    (CySCB_Type *base, uint32_t interruptMask);
 213:Generated_Source\PSoC6\pdl\drivers\peripheral\scb/cy_scb_common.h **** 
 214:Generated_Source\PSoC6\pdl\drivers\peripheral\scb/cy_scb_common.h **** 
 215:Generated_Source\PSoC6\pdl\drivers\peripheral\scb/cy_scb_common.h **** /*******************************************************************************
 216:Generated_Source\PSoC6\pdl\drivers\peripheral\scb/cy_scb_common.h **** *                         Internal Function Prototypes
 217:Generated_Source\PSoC6\pdl\drivers\peripheral\scb/cy_scb_common.h **** *******************************************************************************/
 218:Generated_Source\PSoC6\pdl\drivers\peripheral\scb/cy_scb_common.h **** 
 219:Generated_Source\PSoC6\pdl\drivers\peripheral\scb/cy_scb_common.h **** /** \cond INTERNAL */
 220:Generated_Source\PSoC6\pdl\drivers\peripheral\scb/cy_scb_common.h **** void     Cy_SCB_ReadArrayNoCheck  (CySCB_Type const *base, void *buffer, uint32_t size);
 221:Generated_Source\PSoC6\pdl\drivers\peripheral\scb/cy_scb_common.h **** uint32_t Cy_SCB_ReadArray         (CySCB_Type const *base, void *buffer, uint32_t size);
 222:Generated_Source\PSoC6\pdl\drivers\peripheral\scb/cy_scb_common.h **** void     Cy_SCB_ReadArrayBlocking (CySCB_Type const *base, void *buffer, uint32_t size);
 223:Generated_Source\PSoC6\pdl\drivers\peripheral\scb/cy_scb_common.h **** uint32_t Cy_SCB_Write             (CySCB_Type *base, uint32_t data);
 224:Generated_Source\PSoC6\pdl\drivers\peripheral\scb/cy_scb_common.h **** void     Cy_SCB_WriteArrayNoCheck (CySCB_Type *base, void *buffer, uint32_t size);
 225:Generated_Source\PSoC6\pdl\drivers\peripheral\scb/cy_scb_common.h **** uint32_t Cy_SCB_WriteArray        (CySCB_Type *base, void *buffer, uint32_t size);
 226:Generated_Source\PSoC6\pdl\drivers\peripheral\scb/cy_scb_common.h **** void     Cy_SCB_WriteArrayBlocking(CySCB_Type *base, void *buffer, uint32_t size);
 227:Generated_Source\PSoC6\pdl\drivers\peripheral\scb/cy_scb_common.h **** void     Cy_SCB_WriteString       (CySCB_Type *base, char_t const string[]);
 228:Generated_Source\PSoC6\pdl\drivers\peripheral\scb/cy_scb_common.h **** void     Cy_SCB_WriteDefaultArrayNoCheck(CySCB_Type *base, uint32_t txData, uint32_t size);
 229:Generated_Source\PSoC6\pdl\drivers\peripheral\scb/cy_scb_common.h **** uint32_t Cy_SCB_WriteDefaultArray (CySCB_Type *base, uint32_t txData, uint32_t size);
 230:Generated_Source\PSoC6\pdl\drivers\peripheral\scb/cy_scb_common.h **** 
 231:Generated_Source\PSoC6\pdl\drivers\peripheral\scb/cy_scb_common.h **** __STATIC_INLINE uint32_t Cy_SCB_GetFifoSize (CySCB_Type const *base);
 232:Generated_Source\PSoC6\pdl\drivers\peripheral\scb/cy_scb_common.h **** __STATIC_INLINE void     Cy_SCB_FwBlockReset(CySCB_Type *base);
 233:Generated_Source\PSoC6\pdl\drivers\peripheral\scb/cy_scb_common.h **** __STATIC_INLINE bool     Cy_SCB_IsRxDataWidthByte(CySCB_Type const *base);
 234:Generated_Source\PSoC6\pdl\drivers\peripheral\scb/cy_scb_common.h **** __STATIC_INLINE bool     Cy_SCB_IsTxDataWidthByte(CySCB_Type const *base);
 235:Generated_Source\PSoC6\pdl\drivers\peripheral\scb/cy_scb_common.h **** __STATIC_INLINE uint32_t Cy_SCB_GetRxFifoLevel   (CySCB_Type const *base);
 236:Generated_Source\PSoC6\pdl\drivers\peripheral\scb/cy_scb_common.h **** /** \endcond */
 237:Generated_Source\PSoC6\pdl\drivers\peripheral\scb/cy_scb_common.h **** 
 238:Generated_Source\PSoC6\pdl\drivers\peripheral\scb/cy_scb_common.h **** /** \} group_scb_common_functions */
 239:Generated_Source\PSoC6\pdl\drivers\peripheral\scb/cy_scb_common.h **** 
 240:Generated_Source\PSoC6\pdl\drivers\peripheral\scb/cy_scb_common.h **** 
 241:Generated_Source\PSoC6\pdl\drivers\peripheral\scb/cy_scb_common.h **** /*******************************************************************************
 242:Generated_Source\PSoC6\pdl\drivers\peripheral\scb/cy_scb_common.h **** *                        API Constants
 243:Generated_Source\PSoC6\pdl\drivers\peripheral\scb/cy_scb_common.h **** *******************************************************************************/
 244:Generated_Source\PSoC6\pdl\drivers\peripheral\scb/cy_scb_common.h **** 
 245:Generated_Source\PSoC6\pdl\drivers\peripheral\scb/cy_scb_common.h **** /**
 246:Generated_Source\PSoC6\pdl\drivers\peripheral\scb/cy_scb_common.h **** * \addtogroup group_scb_common_macros
 247:Generated_Source\PSoC6\pdl\drivers\peripheral\scb/cy_scb_common.h **** * \{
 248:Generated_Source\PSoC6\pdl\drivers\peripheral\scb/cy_scb_common.h **** */
 249:Generated_Source\PSoC6\pdl\drivers\peripheral\scb/cy_scb_common.h **** 
 250:Generated_Source\PSoC6\pdl\drivers\peripheral\scb/cy_scb_common.h **** /** Driver major version */
 251:Generated_Source\PSoC6\pdl\drivers\peripheral\scb/cy_scb_common.h **** #define CY_SCB_DRV_VERSION_MAJOR    (2)
 252:Generated_Source\PSoC6\pdl\drivers\peripheral\scb/cy_scb_common.h **** 
 253:Generated_Source\PSoC6\pdl\drivers\peripheral\scb/cy_scb_common.h **** /** Driver minor version */
 254:Generated_Source\PSoC6\pdl\drivers\peripheral\scb/cy_scb_common.h **** #define CY_SCB_DRV_VERSION_MINOR    (20)
 255:Generated_Source\PSoC6\pdl\drivers\peripheral\scb/cy_scb_common.h **** 
 256:Generated_Source\PSoC6\pdl\drivers\peripheral\scb/cy_scb_common.h **** /** SCB driver identifier */
 257:Generated_Source\PSoC6\pdl\drivers\peripheral\scb/cy_scb_common.h **** #define CY_SCB_ID           CY_PDL_DRV_ID(0x2AU)
 258:Generated_Source\PSoC6\pdl\drivers\peripheral\scb/cy_scb_common.h **** 
ARM GAS  C:\Users\tmj32\AppData\Local\Temp\ccenHtUU.s 			page 6


 259:Generated_Source\PSoC6\pdl\drivers\peripheral\scb/cy_scb_common.h **** /** Position for SCB driver sub mode */
 260:Generated_Source\PSoC6\pdl\drivers\peripheral\scb/cy_scb_common.h **** #define CY_SCB_SUB_MODE_Pos (13UL)
 261:Generated_Source\PSoC6\pdl\drivers\peripheral\scb/cy_scb_common.h **** 
 262:Generated_Source\PSoC6\pdl\drivers\peripheral\scb/cy_scb_common.h **** /** EZI2C mode identifier */
 263:Generated_Source\PSoC6\pdl\drivers\peripheral\scb/cy_scb_common.h **** #define CY_SCB_EZI2C_ID     (0x0UL << CY_SCB_SUB_MODE_Pos)
 264:Generated_Source\PSoC6\pdl\drivers\peripheral\scb/cy_scb_common.h **** 
 265:Generated_Source\PSoC6\pdl\drivers\peripheral\scb/cy_scb_common.h **** /** EZI2C mode identifier */
 266:Generated_Source\PSoC6\pdl\drivers\peripheral\scb/cy_scb_common.h **** #define CY_SCB_I2C_ID       (0x1UL << CY_SCB_SUB_MODE_Pos)
 267:Generated_Source\PSoC6\pdl\drivers\peripheral\scb/cy_scb_common.h **** 
 268:Generated_Source\PSoC6\pdl\drivers\peripheral\scb/cy_scb_common.h **** /** EZI2C mode identifier */
 269:Generated_Source\PSoC6\pdl\drivers\peripheral\scb/cy_scb_common.h **** #define CY_SCB_SPI_ID       (0x2UL << CY_SCB_SUB_MODE_Pos)
 270:Generated_Source\PSoC6\pdl\drivers\peripheral\scb/cy_scb_common.h **** 
 271:Generated_Source\PSoC6\pdl\drivers\peripheral\scb/cy_scb_common.h **** /** EZI2C mode identifier */
 272:Generated_Source\PSoC6\pdl\drivers\peripheral\scb/cy_scb_common.h **** #define CY_SCB_UART_ID      (0x3UL << CY_SCB_SUB_MODE_Pos)
 273:Generated_Source\PSoC6\pdl\drivers\peripheral\scb/cy_scb_common.h **** 
 274:Generated_Source\PSoC6\pdl\drivers\peripheral\scb/cy_scb_common.h **** /**
 275:Generated_Source\PSoC6\pdl\drivers\peripheral\scb/cy_scb_common.h **** * \defgroup group_scb_common_macros_intr_cause SCB Interrupt Causes
 276:Generated_Source\PSoC6\pdl\drivers\peripheral\scb/cy_scb_common.h **** * \{
 277:Generated_Source\PSoC6\pdl\drivers\peripheral\scb/cy_scb_common.h **** */
 278:Generated_Source\PSoC6\pdl\drivers\peripheral\scb/cy_scb_common.h **** /** Interrupt from Master interrupt sources */
 279:Generated_Source\PSoC6\pdl\drivers\peripheral\scb/cy_scb_common.h **** #define CY_SCB_MASTER_INTR SCB_INTR_CAUSE_M_Msk
 280:Generated_Source\PSoC6\pdl\drivers\peripheral\scb/cy_scb_common.h **** 
 281:Generated_Source\PSoC6\pdl\drivers\peripheral\scb/cy_scb_common.h **** /** Interrupt from Slave interrupt sources  */
 282:Generated_Source\PSoC6\pdl\drivers\peripheral\scb/cy_scb_common.h **** #define CY_SCB_SLAVE_INTR  SCB_INTR_CAUSE_S_Msk
 283:Generated_Source\PSoC6\pdl\drivers\peripheral\scb/cy_scb_common.h **** 
 284:Generated_Source\PSoC6\pdl\drivers\peripheral\scb/cy_scb_common.h **** /** Interrupt from TX interrupt sources */
 285:Generated_Source\PSoC6\pdl\drivers\peripheral\scb/cy_scb_common.h **** #define CY_SCB_TX_INTR     SCB_INTR_CAUSE_TX_Msk
 286:Generated_Source\PSoC6\pdl\drivers\peripheral\scb/cy_scb_common.h **** 
 287:Generated_Source\PSoC6\pdl\drivers\peripheral\scb/cy_scb_common.h **** /** Interrupt from RX interrupt sources */
 288:Generated_Source\PSoC6\pdl\drivers\peripheral\scb/cy_scb_common.h **** #define CY_SCB_RX_INTR     SCB_INTR_CAUSE_RX_Msk
 289:Generated_Source\PSoC6\pdl\drivers\peripheral\scb/cy_scb_common.h **** 
 290:Generated_Source\PSoC6\pdl\drivers\peripheral\scb/cy_scb_common.h **** /** Interrupt from I2C externally clocked interrupt sources */
 291:Generated_Source\PSoC6\pdl\drivers\peripheral\scb/cy_scb_common.h **** #define CY_SCB_I2C_INTR    SCB_INTR_CAUSE_I2C_EC_Msk
 292:Generated_Source\PSoC6\pdl\drivers\peripheral\scb/cy_scb_common.h **** 
 293:Generated_Source\PSoC6\pdl\drivers\peripheral\scb/cy_scb_common.h **** /** Interrupt from SPI externally clocked interrupt sources */
 294:Generated_Source\PSoC6\pdl\drivers\peripheral\scb/cy_scb_common.h **** #define CY_SCB_SPI_INTR    SCB_INTR_CAUSE_SPI_EC_Msk
 295:Generated_Source\PSoC6\pdl\drivers\peripheral\scb/cy_scb_common.h **** /** \} group_scb_common_macros_intr_cause */
 296:Generated_Source\PSoC6\pdl\drivers\peripheral\scb/cy_scb_common.h **** 
 297:Generated_Source\PSoC6\pdl\drivers\peripheral\scb/cy_scb_common.h **** /**
 298:Generated_Source\PSoC6\pdl\drivers\peripheral\scb/cy_scb_common.h **** * \defgroup group_scb_common_macros_tx_intr TX Interrupt Statuses
 299:Generated_Source\PSoC6\pdl\drivers\peripheral\scb/cy_scb_common.h **** * \{
 300:Generated_Source\PSoC6\pdl\drivers\peripheral\scb/cy_scb_common.h **** */
 301:Generated_Source\PSoC6\pdl\drivers\peripheral\scb/cy_scb_common.h **** /**
 302:Generated_Source\PSoC6\pdl\drivers\peripheral\scb/cy_scb_common.h **** * The number of data elements in the TX FIFO is less than the value
 303:Generated_Source\PSoC6\pdl\drivers\peripheral\scb/cy_scb_common.h **** * of the TX FIFO level
 304:Generated_Source\PSoC6\pdl\drivers\peripheral\scb/cy_scb_common.h **** */
 305:Generated_Source\PSoC6\pdl\drivers\peripheral\scb/cy_scb_common.h **** #define CY_SCB_TX_INTR_LEVEL           SCB_INTR_TX_TRIGGER_Msk
 306:Generated_Source\PSoC6\pdl\drivers\peripheral\scb/cy_scb_common.h **** 
 307:Generated_Source\PSoC6\pdl\drivers\peripheral\scb/cy_scb_common.h **** /** The TX FIFO is not full */
 308:Generated_Source\PSoC6\pdl\drivers\peripheral\scb/cy_scb_common.h **** #define CY_SCB_TX_INTR_NOT_FULL        SCB_INTR_TX_NOT_FULL_Msk
 309:Generated_Source\PSoC6\pdl\drivers\peripheral\scb/cy_scb_common.h **** 
 310:Generated_Source\PSoC6\pdl\drivers\peripheral\scb/cy_scb_common.h **** /** The TX FIFO is empty */
 311:Generated_Source\PSoC6\pdl\drivers\peripheral\scb/cy_scb_common.h **** #define CY_SCB_TX_INTR_EMPTY           SCB_INTR_TX_EMPTY_Msk
 312:Generated_Source\PSoC6\pdl\drivers\peripheral\scb/cy_scb_common.h **** 
 313:Generated_Source\PSoC6\pdl\drivers\peripheral\scb/cy_scb_common.h **** /** An attempt to write to a full TX FIFO */
 314:Generated_Source\PSoC6\pdl\drivers\peripheral\scb/cy_scb_common.h **** #define CY_SCB_TX_INTR_OVERFLOW        SCB_INTR_TX_OVERFLOW_Msk
 315:Generated_Source\PSoC6\pdl\drivers\peripheral\scb/cy_scb_common.h **** 
ARM GAS  C:\Users\tmj32\AppData\Local\Temp\ccenHtUU.s 			page 7


 316:Generated_Source\PSoC6\pdl\drivers\peripheral\scb/cy_scb_common.h **** /** An attempt to read from an empty TX FIFO */
 317:Generated_Source\PSoC6\pdl\drivers\peripheral\scb/cy_scb_common.h **** #define CY_SCB_TX_INTR_UNDERFLOW       SCB_INTR_TX_UNDERFLOW_Msk
 318:Generated_Source\PSoC6\pdl\drivers\peripheral\scb/cy_scb_common.h **** 
 319:Generated_Source\PSoC6\pdl\drivers\peripheral\scb/cy_scb_common.h **** /** The UART transfer is complete: all data elements from the TX FIFO are sent
 320:Generated_Source\PSoC6\pdl\drivers\peripheral\scb/cy_scb_common.h **** */
 321:Generated_Source\PSoC6\pdl\drivers\peripheral\scb/cy_scb_common.h **** #define CY_SCB_TX_INTR_UART_DONE       SCB_INTR_TX_UART_DONE_Msk
 322:Generated_Source\PSoC6\pdl\drivers\peripheral\scb/cy_scb_common.h **** 
 323:Generated_Source\PSoC6\pdl\drivers\peripheral\scb/cy_scb_common.h **** /** SmartCard only: UART received a NACK */
 324:Generated_Source\PSoC6\pdl\drivers\peripheral\scb/cy_scb_common.h **** #define CY_SCB_TX_INTR_UART_NACK       SCB_INTR_TX_UART_NACK_Msk
 325:Generated_Source\PSoC6\pdl\drivers\peripheral\scb/cy_scb_common.h **** 
 326:Generated_Source\PSoC6\pdl\drivers\peripheral\scb/cy_scb_common.h **** /**
 327:Generated_Source\PSoC6\pdl\drivers\peripheral\scb/cy_scb_common.h **** * SmartCard only: the value on the TX line of the UART does not match the
 328:Generated_Source\PSoC6\pdl\drivers\peripheral\scb/cy_scb_common.h **** * value on the RX line
 329:Generated_Source\PSoC6\pdl\drivers\peripheral\scb/cy_scb_common.h **** */
 330:Generated_Source\PSoC6\pdl\drivers\peripheral\scb/cy_scb_common.h **** #define CY_SCB_TX_INTR_UART_ARB_LOST   SCB_INTR_TX_UART_ARB_LOST_Msk
 331:Generated_Source\PSoC6\pdl\drivers\peripheral\scb/cy_scb_common.h **** /** \} group_scb_common_macros_tx_intr */
 332:Generated_Source\PSoC6\pdl\drivers\peripheral\scb/cy_scb_common.h **** 
 333:Generated_Source\PSoC6\pdl\drivers\peripheral\scb/cy_scb_common.h **** /**
 334:Generated_Source\PSoC6\pdl\drivers\peripheral\scb/cy_scb_common.h **** * \defgroup group_scb_common_macros_rx_intr RX Interrupt Statuses
 335:Generated_Source\PSoC6\pdl\drivers\peripheral\scb/cy_scb_common.h **** * \{
 336:Generated_Source\PSoC6\pdl\drivers\peripheral\scb/cy_scb_common.h **** */
 337:Generated_Source\PSoC6\pdl\drivers\peripheral\scb/cy_scb_common.h **** /**
 338:Generated_Source\PSoC6\pdl\drivers\peripheral\scb/cy_scb_common.h **** * The number of data elements in the RX FIFO is greater than the value of the
 339:Generated_Source\PSoC6\pdl\drivers\peripheral\scb/cy_scb_common.h **** * RX FIFO level
 340:Generated_Source\PSoC6\pdl\drivers\peripheral\scb/cy_scb_common.h **** */
 341:Generated_Source\PSoC6\pdl\drivers\peripheral\scb/cy_scb_common.h **** #define CY_SCB_RX_INTR_LEVEL             SCB_INTR_RX_TRIGGER_Msk
 342:Generated_Source\PSoC6\pdl\drivers\peripheral\scb/cy_scb_common.h **** 
 343:Generated_Source\PSoC6\pdl\drivers\peripheral\scb/cy_scb_common.h **** /** The RX FIFO is not empty */
 344:Generated_Source\PSoC6\pdl\drivers\peripheral\scb/cy_scb_common.h **** #define CY_SCB_RX_INTR_NOT_EMPTY         SCB_INTR_RX_NOT_EMPTY_Msk
 345:Generated_Source\PSoC6\pdl\drivers\peripheral\scb/cy_scb_common.h **** 
 346:Generated_Source\PSoC6\pdl\drivers\peripheral\scb/cy_scb_common.h **** /** The RX FIFO is full */
 347:Generated_Source\PSoC6\pdl\drivers\peripheral\scb/cy_scb_common.h **** #define CY_SCB_RX_INTR_FULL              SCB_INTR_RX_FULL_Msk
 348:Generated_Source\PSoC6\pdl\drivers\peripheral\scb/cy_scb_common.h **** 
 349:Generated_Source\PSoC6\pdl\drivers\peripheral\scb/cy_scb_common.h **** /** An attempt to write to a full RX FIFO */
 350:Generated_Source\PSoC6\pdl\drivers\peripheral\scb/cy_scb_common.h **** #define CY_SCB_RX_INTR_OVERFLOW          SCB_INTR_RX_OVERFLOW_Msk
 351:Generated_Source\PSoC6\pdl\drivers\peripheral\scb/cy_scb_common.h **** 
 352:Generated_Source\PSoC6\pdl\drivers\peripheral\scb/cy_scb_common.h **** /** An attempt to read from an empty RX FIFO */
 353:Generated_Source\PSoC6\pdl\drivers\peripheral\scb/cy_scb_common.h **** #define CY_SCB_RX_INTR_UNDERFLOW         SCB_INTR_RX_UNDERFLOW_Msk
 354:Generated_Source\PSoC6\pdl\drivers\peripheral\scb/cy_scb_common.h **** 
 355:Generated_Source\PSoC6\pdl\drivers\peripheral\scb/cy_scb_common.h **** /** A UART framing error detected */
 356:Generated_Source\PSoC6\pdl\drivers\peripheral\scb/cy_scb_common.h **** #define CY_SCB_RX_INTR_UART_FRAME_ERROR  SCB_INTR_RX_FRAME_ERROR_Msk
 357:Generated_Source\PSoC6\pdl\drivers\peripheral\scb/cy_scb_common.h **** 
 358:Generated_Source\PSoC6\pdl\drivers\peripheral\scb/cy_scb_common.h **** /** A UART parity error detected  */
 359:Generated_Source\PSoC6\pdl\drivers\peripheral\scb/cy_scb_common.h **** #define CY_SCB_RX_INTR_UART_PARITY_ERROR SCB_INTR_RX_PARITY_ERROR_Msk
 360:Generated_Source\PSoC6\pdl\drivers\peripheral\scb/cy_scb_common.h **** 
 361:Generated_Source\PSoC6\pdl\drivers\peripheral\scb/cy_scb_common.h **** /** A UART break detected */
 362:Generated_Source\PSoC6\pdl\drivers\peripheral\scb/cy_scb_common.h **** #define CY_SCB_RX_INTR_UART_BREAK_DETECT SCB_INTR_RX_BREAK_DETECT_Msk
 363:Generated_Source\PSoC6\pdl\drivers\peripheral\scb/cy_scb_common.h **** /** \} group_scb_common_macros_rx_intr */
 364:Generated_Source\PSoC6\pdl\drivers\peripheral\scb/cy_scb_common.h **** 
 365:Generated_Source\PSoC6\pdl\drivers\peripheral\scb/cy_scb_common.h **** /**
 366:Generated_Source\PSoC6\pdl\drivers\peripheral\scb/cy_scb_common.h **** * \defgroup group_scb_common_macros_slave_intr Slave Interrupt Statuses
 367:Generated_Source\PSoC6\pdl\drivers\peripheral\scb/cy_scb_common.h **** * \{
 368:Generated_Source\PSoC6\pdl\drivers\peripheral\scb/cy_scb_common.h **** */
 369:Generated_Source\PSoC6\pdl\drivers\peripheral\scb/cy_scb_common.h **** /**
 370:Generated_Source\PSoC6\pdl\drivers\peripheral\scb/cy_scb_common.h **** * I2C slave lost arbitration: the value driven on the SDA line is not the same
 371:Generated_Source\PSoC6\pdl\drivers\peripheral\scb/cy_scb_common.h **** * as the value observed on the SDA line
 372:Generated_Source\PSoC6\pdl\drivers\peripheral\scb/cy_scb_common.h **** */
ARM GAS  C:\Users\tmj32\AppData\Local\Temp\ccenHtUU.s 			page 8


 373:Generated_Source\PSoC6\pdl\drivers\peripheral\scb/cy_scb_common.h **** #define CY_SCB_SLAVE_INTR_I2C_ARB_LOST      SCB_INTR_S_I2C_ARB_LOST_Msk
 374:Generated_Source\PSoC6\pdl\drivers\peripheral\scb/cy_scb_common.h **** 
 375:Generated_Source\PSoC6\pdl\drivers\peripheral\scb/cy_scb_common.h **** /** The I2C slave received a NAK */
 376:Generated_Source\PSoC6\pdl\drivers\peripheral\scb/cy_scb_common.h **** #define CY_SCB_SLAVE_INTR_I2C_NACK          SCB_INTR_S_I2C_NACK_Msk
 377:Generated_Source\PSoC6\pdl\drivers\peripheral\scb/cy_scb_common.h **** 
 378:Generated_Source\PSoC6\pdl\drivers\peripheral\scb/cy_scb_common.h **** /** The I2C slave received  an ACK */
 379:Generated_Source\PSoC6\pdl\drivers\peripheral\scb/cy_scb_common.h **** #define CY_SCB_SLAVE_INTR_I2C_ACK           SCB_INTR_S_I2C_ACK_Msk
 380:Generated_Source\PSoC6\pdl\drivers\peripheral\scb/cy_scb_common.h **** 
 381:Generated_Source\PSoC6\pdl\drivers\peripheral\scb/cy_scb_common.h **** /**
 382:Generated_Source\PSoC6\pdl\drivers\peripheral\scb/cy_scb_common.h **** * A Stop or Repeated Start event for a write transfer intended for this slave
 383:Generated_Source\PSoC6\pdl\drivers\peripheral\scb/cy_scb_common.h **** * was detected.
 384:Generated_Source\PSoC6\pdl\drivers\peripheral\scb/cy_scb_common.h **** */
 385:Generated_Source\PSoC6\pdl\drivers\peripheral\scb/cy_scb_common.h **** #define CY_SCB_SLAVE_INTR_I2C_WRITE_STOP    SCB_INTR_S_I2C_WRITE_STOP_Msk
 386:Generated_Source\PSoC6\pdl\drivers\peripheral\scb/cy_scb_common.h **** 
 387:Generated_Source\PSoC6\pdl\drivers\peripheral\scb/cy_scb_common.h **** /** A Stop or Repeated Start event intended for this slave was detected */
 388:Generated_Source\PSoC6\pdl\drivers\peripheral\scb/cy_scb_common.h **** #define CY_SCB_SLAVE_INTR_I2C_STOP          SCB_INTR_S_I2C_STOP_Msk
 389:Generated_Source\PSoC6\pdl\drivers\peripheral\scb/cy_scb_common.h **** 
 390:Generated_Source\PSoC6\pdl\drivers\peripheral\scb/cy_scb_common.h **** /** The I2C slave received a Start condition */
 391:Generated_Source\PSoC6\pdl\drivers\peripheral\scb/cy_scb_common.h **** #define CY_SCB_SLAVE_INTR_I2C_START         SCB_INTR_S_I2C_START_Msk
 392:Generated_Source\PSoC6\pdl\drivers\peripheral\scb/cy_scb_common.h **** 
 393:Generated_Source\PSoC6\pdl\drivers\peripheral\scb/cy_scb_common.h **** /** The I2C slave received the matching address */
 394:Generated_Source\PSoC6\pdl\drivers\peripheral\scb/cy_scb_common.h **** #define CY_SCB_SLAVE_INTR_I2C_ADDR_MATCH    SCB_INTR_S_I2C_ADDR_MATCH_Msk
 395:Generated_Source\PSoC6\pdl\drivers\peripheral\scb/cy_scb_common.h **** 
 396:Generated_Source\PSoC6\pdl\drivers\peripheral\scb/cy_scb_common.h **** /** The I2C Slave received the general call address */
 397:Generated_Source\PSoC6\pdl\drivers\peripheral\scb/cy_scb_common.h **** #define CY_SCB_SLAVE_INTR_I2C_GENERAL_ADDR  SCB_INTR_S_I2C_GENERAL_Msk
 398:Generated_Source\PSoC6\pdl\drivers\peripheral\scb/cy_scb_common.h **** 
 399:Generated_Source\PSoC6\pdl\drivers\peripheral\scb/cy_scb_common.h **** /** The I2C slave bus error (detection of unexpected Start or Stop condition) */
 400:Generated_Source\PSoC6\pdl\drivers\peripheral\scb/cy_scb_common.h **** #define CY_SCB_SLAVE_INTR_I2C_BUS_ERROR     SCB_INTR_S_I2C_BUS_ERROR_Msk
 401:Generated_Source\PSoC6\pdl\drivers\peripheral\scb/cy_scb_common.h **** 
 402:Generated_Source\PSoC6\pdl\drivers\peripheral\scb/cy_scb_common.h **** /**
 403:Generated_Source\PSoC6\pdl\drivers\peripheral\scb/cy_scb_common.h **** * The SPI slave select line is deselected at an expected time during an
 404:Generated_Source\PSoC6\pdl\drivers\peripheral\scb/cy_scb_common.h **** * SPI transfer.
 405:Generated_Source\PSoC6\pdl\drivers\peripheral\scb/cy_scb_common.h **** */
 406:Generated_Source\PSoC6\pdl\drivers\peripheral\scb/cy_scb_common.h **** #define CY_SCB_SLAVE_INTR_SPI_BUS_ERROR     SCB_INTR_S_SPI_BUS_ERROR_Msk
 407:Generated_Source\PSoC6\pdl\drivers\peripheral\scb/cy_scb_common.h **** /** \} group_scb_common_macros_slave_intr */
 408:Generated_Source\PSoC6\pdl\drivers\peripheral\scb/cy_scb_common.h **** 
 409:Generated_Source\PSoC6\pdl\drivers\peripheral\scb/cy_scb_common.h **** /**
 410:Generated_Source\PSoC6\pdl\drivers\peripheral\scb/cy_scb_common.h **** * \defgroup group_scb_common_macros_master_intr Master Interrupt Statuses
 411:Generated_Source\PSoC6\pdl\drivers\peripheral\scb/cy_scb_common.h **** * \{
 412:Generated_Source\PSoC6\pdl\drivers\peripheral\scb/cy_scb_common.h **** */
 413:Generated_Source\PSoC6\pdl\drivers\peripheral\scb/cy_scb_common.h **** /** The I2C master lost arbitration */
 414:Generated_Source\PSoC6\pdl\drivers\peripheral\scb/cy_scb_common.h **** #define CY_SCB_MASTER_INTR_I2C_ARB_LOST    SCB_INTR_M_I2C_ARB_LOST_Msk
 415:Generated_Source\PSoC6\pdl\drivers\peripheral\scb/cy_scb_common.h **** 
 416:Generated_Source\PSoC6\pdl\drivers\peripheral\scb/cy_scb_common.h **** /** The I2C master received a NACK */
 417:Generated_Source\PSoC6\pdl\drivers\peripheral\scb/cy_scb_common.h **** #define CY_SCB_MASTER_INTR_I2C_NACK        SCB_INTR_M_I2C_NACK_Msk
 418:Generated_Source\PSoC6\pdl\drivers\peripheral\scb/cy_scb_common.h **** 
 419:Generated_Source\PSoC6\pdl\drivers\peripheral\scb/cy_scb_common.h **** /** The I2C master received an ACK */
 420:Generated_Source\PSoC6\pdl\drivers\peripheral\scb/cy_scb_common.h **** #define CY_SCB_MASTER_INTR_I2C_ACK         SCB_INTR_M_I2C_ACK_Msk
 421:Generated_Source\PSoC6\pdl\drivers\peripheral\scb/cy_scb_common.h **** 
 422:Generated_Source\PSoC6\pdl\drivers\peripheral\scb/cy_scb_common.h **** /** The I2C master generated a Stop */
 423:Generated_Source\PSoC6\pdl\drivers\peripheral\scb/cy_scb_common.h **** #define CY_SCB_MASTER_INTR_I2C_STOP        SCB_INTR_M_I2C_STOP_Msk
 424:Generated_Source\PSoC6\pdl\drivers\peripheral\scb/cy_scb_common.h **** 
 425:Generated_Source\PSoC6\pdl\drivers\peripheral\scb/cy_scb_common.h **** /** The I2C master bus error (detection of unexpected START or STOP condition)
 426:Generated_Source\PSoC6\pdl\drivers\peripheral\scb/cy_scb_common.h **** */
 427:Generated_Source\PSoC6\pdl\drivers\peripheral\scb/cy_scb_common.h **** #define CY_SCB_MASTER_INTR_I2C_BUS_ERROR   SCB_INTR_M_I2C_BUS_ERROR_Msk
 428:Generated_Source\PSoC6\pdl\drivers\peripheral\scb/cy_scb_common.h **** 
 429:Generated_Source\PSoC6\pdl\drivers\peripheral\scb/cy_scb_common.h **** /**
ARM GAS  C:\Users\tmj32\AppData\Local\Temp\ccenHtUU.s 			page 9


 430:Generated_Source\PSoC6\pdl\drivers\peripheral\scb/cy_scb_common.h **** * The SPI master transfer is complete: all data elements transferred from the
 431:Generated_Source\PSoC6\pdl\drivers\peripheral\scb/cy_scb_common.h **** * TX FIFO and TX shift register.
 432:Generated_Source\PSoC6\pdl\drivers\peripheral\scb/cy_scb_common.h **** */
 433:Generated_Source\PSoC6\pdl\drivers\peripheral\scb/cy_scb_common.h **** #define CY_SCB_MASTER_INTR_SPI_DONE        SCB_INTR_M_SPI_DONE_Msk
 434:Generated_Source\PSoC6\pdl\drivers\peripheral\scb/cy_scb_common.h **** /** \} group_scb_common_macros_master_intr */
 435:Generated_Source\PSoC6\pdl\drivers\peripheral\scb/cy_scb_common.h **** 
 436:Generated_Source\PSoC6\pdl\drivers\peripheral\scb/cy_scb_common.h **** /**
 437:Generated_Source\PSoC6\pdl\drivers\peripheral\scb/cy_scb_common.h **** * \defgroup group_scb_common_macros_i2c_intr I2C Interrupt Statuses
 438:Generated_Source\PSoC6\pdl\drivers\peripheral\scb/cy_scb_common.h **** * \{
 439:Generated_Source\PSoC6\pdl\drivers\peripheral\scb/cy_scb_common.h **** */
 440:Generated_Source\PSoC6\pdl\drivers\peripheral\scb/cy_scb_common.h **** /**
 441:Generated_Source\PSoC6\pdl\drivers\peripheral\scb/cy_scb_common.h **** * Wake up request: the I2C slave received the matching address.
 442:Generated_Source\PSoC6\pdl\drivers\peripheral\scb/cy_scb_common.h **** * Note that this interrupt source triggers in active mode.
 443:Generated_Source\PSoC6\pdl\drivers\peripheral\scb/cy_scb_common.h **** */
 444:Generated_Source\PSoC6\pdl\drivers\peripheral\scb/cy_scb_common.h **** #define CY_SCB_I2C_INTR_WAKEUP     SCB_INTR_I2C_EC_WAKE_UP_Msk
 445:Generated_Source\PSoC6\pdl\drivers\peripheral\scb/cy_scb_common.h **** /** \} group_scb_common_macros_i2c_intr */
 446:Generated_Source\PSoC6\pdl\drivers\peripheral\scb/cy_scb_common.h **** 
 447:Generated_Source\PSoC6\pdl\drivers\peripheral\scb/cy_scb_common.h **** /**
 448:Generated_Source\PSoC6\pdl\drivers\peripheral\scb/cy_scb_common.h **** * \defgroup group_scb_common_macros_SpiIntrStatuses SPI Interrupt Statuses
 449:Generated_Source\PSoC6\pdl\drivers\peripheral\scb/cy_scb_common.h **** * \{
 450:Generated_Source\PSoC6\pdl\drivers\peripheral\scb/cy_scb_common.h **** */
 451:Generated_Source\PSoC6\pdl\drivers\peripheral\scb/cy_scb_common.h **** /**
 452:Generated_Source\PSoC6\pdl\drivers\peripheral\scb/cy_scb_common.h **** * Wake up request: the SPI slave detects an active edge of the slave select
 453:Generated_Source\PSoC6\pdl\drivers\peripheral\scb/cy_scb_common.h **** * signal. Note that this interrupt source triggers in active mode.
 454:Generated_Source\PSoC6\pdl\drivers\peripheral\scb/cy_scb_common.h **** */
 455:Generated_Source\PSoC6\pdl\drivers\peripheral\scb/cy_scb_common.h **** #define CY_SCB_SPI_INTR_WAKEUP     SCB_INTR_SPI_EC_WAKE_UP_Msk
 456:Generated_Source\PSoC6\pdl\drivers\peripheral\scb/cy_scb_common.h **** /** \} group_scb_common_macros_SpiIntrStatuses */
 457:Generated_Source\PSoC6\pdl\drivers\peripheral\scb/cy_scb_common.h **** 
 458:Generated_Source\PSoC6\pdl\drivers\peripheral\scb/cy_scb_common.h **** 
 459:Generated_Source\PSoC6\pdl\drivers\peripheral\scb/cy_scb_common.h **** /*******************************************************************************
 460:Generated_Source\PSoC6\pdl\drivers\peripheral\scb/cy_scb_common.h **** *                           Internal Constants
 461:Generated_Source\PSoC6\pdl\drivers\peripheral\scb/cy_scb_common.h **** *******************************************************************************/
 462:Generated_Source\PSoC6\pdl\drivers\peripheral\scb/cy_scb_common.h **** 
 463:Generated_Source\PSoC6\pdl\drivers\peripheral\scb/cy_scb_common.h **** /** \cond INTERNAL */
 464:Generated_Source\PSoC6\pdl\drivers\peripheral\scb/cy_scb_common.h **** 
 465:Generated_Source\PSoC6\pdl\drivers\peripheral\scb/cy_scb_common.h **** /* Default registers values */
 466:Generated_Source\PSoC6\pdl\drivers\peripheral\scb/cy_scb_common.h **** #define CY_SCB_CTRL_DEF_VAL         (_VAL2FLD(SCB_CTRL_OVS, 15UL) | \
 467:Generated_Source\PSoC6\pdl\drivers\peripheral\scb/cy_scb_common.h ****                                      _VAL2FLD(SCB_CTRL_MODE, 3UL))
 468:Generated_Source\PSoC6\pdl\drivers\peripheral\scb/cy_scb_common.h **** 
 469:Generated_Source\PSoC6\pdl\drivers\peripheral\scb/cy_scb_common.h **** #define CY_SCB_I2C_CTRL_DEF_VAL     (_VAL2FLD(SCB_I2C_CTRL_HIGH_PHASE_OVS, 8UL)        | \
 470:Generated_Source\PSoC6\pdl\drivers\peripheral\scb/cy_scb_common.h ****                                      _VAL2FLD(SCB_I2C_CTRL_HIGH_PHASE_OVS, 8UL)        | \
 471:Generated_Source\PSoC6\pdl\drivers\peripheral\scb/cy_scb_common.h ****                                      _VAL2FLD(SCB_I2C_CTRL_M_READY_DATA_ACK, 1UL)      | \
 472:Generated_Source\PSoC6\pdl\drivers\peripheral\scb/cy_scb_common.h ****                                      _VAL2FLD(SCB_I2C_CTRL_M_NOT_READY_DATA_NACK, 1UL) | \
 473:Generated_Source\PSoC6\pdl\drivers\peripheral\scb/cy_scb_common.h ****                                      _VAL2FLD(SCB_I2C_CTRL_S_GENERAL_IGNORE, 1UL)      | \
 474:Generated_Source\PSoC6\pdl\drivers\peripheral\scb/cy_scb_common.h ****                                      _VAL2FLD(SCB_I2C_CTRL_S_READY_ADDR_ACK, 1UL)      | \
 475:Generated_Source\PSoC6\pdl\drivers\peripheral\scb/cy_scb_common.h ****                                      _VAL2FLD(SCB_I2C_CTRL_S_READY_DATA_ACK, 1UL)      | \
 476:Generated_Source\PSoC6\pdl\drivers\peripheral\scb/cy_scb_common.h ****                                      _VAL2FLD(SCB_I2C_CTRL_S_NOT_READY_ADDR_NACK, 1UL) | \
 477:Generated_Source\PSoC6\pdl\drivers\peripheral\scb/cy_scb_common.h ****                                      _VAL2FLD(SCB_I2C_CTRL_S_NOT_READY_DATA_NACK, 1UL))
 478:Generated_Source\PSoC6\pdl\drivers\peripheral\scb/cy_scb_common.h **** 
 479:Generated_Source\PSoC6\pdl\drivers\peripheral\scb/cy_scb_common.h **** #define CY_SCB_I2C_CFG_DEF_VAL      (_VAL2FLD(SCB_I2C_CFG_SDA_IN_FILT_TRIM, 3UL)   | \
 480:Generated_Source\PSoC6\pdl\drivers\peripheral\scb/cy_scb_common.h ****                                      _VAL2FLD(SCB_I2C_CFG_SDA_IN_FILT_SEL, 1UL)    | \
 481:Generated_Source\PSoC6\pdl\drivers\peripheral\scb/cy_scb_common.h ****                                      _VAL2FLD(SCB_I2C_CFG_SCL_IN_FILT_SEL, 1UL)    | \
 482:Generated_Source\PSoC6\pdl\drivers\peripheral\scb/cy_scb_common.h ****                                      _VAL2FLD(SCB_I2C_CFG_SDA_OUT_FILT0_TRIM, 2UL) | \
 483:Generated_Source\PSoC6\pdl\drivers\peripheral\scb/cy_scb_common.h ****                                      _VAL2FLD(SCB_I2C_CFG_SDA_OUT_FILT1_TRIM, 2UL) | \
 484:Generated_Source\PSoC6\pdl\drivers\peripheral\scb/cy_scb_common.h ****                                      _VAL2FLD(SCB_I2C_CFG_SDA_OUT_FILT2_TRIM, 2UL))
 485:Generated_Source\PSoC6\pdl\drivers\peripheral\scb/cy_scb_common.h **** 
 486:Generated_Source\PSoC6\pdl\drivers\peripheral\scb/cy_scb_common.h **** #define CY_SCB_SPI_CTRL_DEF_VAL     _VAL2FLD(SCB_SPI_CTRL_MODE, 3UL)
ARM GAS  C:\Users\tmj32\AppData\Local\Temp\ccenHtUU.s 			page 10


 487:Generated_Source\PSoC6\pdl\drivers\peripheral\scb/cy_scb_common.h **** #define CY_SCB_UART_CTRL_DEF_VAL    _VAL2FLD(SCB_UART_CTRL_MODE, 3UL)
 488:Generated_Source\PSoC6\pdl\drivers\peripheral\scb/cy_scb_common.h **** 
 489:Generated_Source\PSoC6\pdl\drivers\peripheral\scb/cy_scb_common.h **** #define CY_SCB_UART_RX_CTRL_DEF_VAL (_VAL2FLD(SCB_UART_RX_CTRL_STOP_BITS, 2UL) | \
 490:Generated_Source\PSoC6\pdl\drivers\peripheral\scb/cy_scb_common.h ****                                      _VAL2FLD(SCB_UART_RX_CTRL_BREAK_WIDTH, 10UL))
 491:Generated_Source\PSoC6\pdl\drivers\peripheral\scb/cy_scb_common.h **** 
 492:Generated_Source\PSoC6\pdl\drivers\peripheral\scb/cy_scb_common.h **** #define CY_SCB_UART_TX_CTRL_DEF_VAL _VAL2FLD(SCB_UART_TX_CTRL_STOP_BITS, 2UL)
 493:Generated_Source\PSoC6\pdl\drivers\peripheral\scb/cy_scb_common.h **** 
 494:Generated_Source\PSoC6\pdl\drivers\peripheral\scb/cy_scb_common.h **** #define CY_SCB_RX_CTRL_DEF_VAL      (_VAL2FLD(SCB_RX_CTRL_DATA_WIDTH, 7UL) | \
 495:Generated_Source\PSoC6\pdl\drivers\peripheral\scb/cy_scb_common.h ****                                      _VAL2FLD(SCB_RX_CTRL_MSB_FIRST,  1UL))
 496:Generated_Source\PSoC6\pdl\drivers\peripheral\scb/cy_scb_common.h **** 
 497:Generated_Source\PSoC6\pdl\drivers\peripheral\scb/cy_scb_common.h **** #define CY_SCB_TX_CTRL_DEF_VAL      (_VAL2FLD(SCB_TX_CTRL_DATA_WIDTH, 7UL) | \
 498:Generated_Source\PSoC6\pdl\drivers\peripheral\scb/cy_scb_common.h ****                                      _VAL2FLD(SCB_TX_CTRL_MSB_FIRST,  1UL))
 499:Generated_Source\PSoC6\pdl\drivers\peripheral\scb/cy_scb_common.h **** 
 500:Generated_Source\PSoC6\pdl\drivers\peripheral\scb/cy_scb_common.h **** /* SCB CTRL modes */
 501:Generated_Source\PSoC6\pdl\drivers\peripheral\scb/cy_scb_common.h **** #define CY_SCB_CTRL_MODE_I2C   (0UL)
 502:Generated_Source\PSoC6\pdl\drivers\peripheral\scb/cy_scb_common.h **** #define CY_SCB_CTRL_MODE_SPI   (1UL)
 503:Generated_Source\PSoC6\pdl\drivers\peripheral\scb/cy_scb_common.h **** #define CY_SCB_CTRL_MODE_UART  (2UL)
 504:Generated_Source\PSoC6\pdl\drivers\peripheral\scb/cy_scb_common.h **** 
 505:Generated_Source\PSoC6\pdl\drivers\peripheral\scb/cy_scb_common.h **** /* The position and mask to set the I2C mode */
 506:Generated_Source\PSoC6\pdl\drivers\peripheral\scb/cy_scb_common.h **** #define CY_SCB_I2C_CTRL_MODE_Pos    SCB_I2C_CTRL_SLAVE_MODE_Pos
 507:Generated_Source\PSoC6\pdl\drivers\peripheral\scb/cy_scb_common.h **** #define CY_SCB_I2C_CTRL_MODE_Msk    (SCB_I2C_CTRL_SLAVE_MODE_Msk | \
 508:Generated_Source\PSoC6\pdl\drivers\peripheral\scb/cy_scb_common.h ****                                      SCB_I2C_CTRL_MASTER_MODE_Msk)
 509:Generated_Source\PSoC6\pdl\drivers\peripheral\scb/cy_scb_common.h **** 
 510:Generated_Source\PSoC6\pdl\drivers\peripheral\scb/cy_scb_common.h **** /* Cypress ID #282226:
 511:Generated_Source\PSoC6\pdl\drivers\peripheral\scb/cy_scb_common.h **** * SCB_I2C_CFG_SDA_IN_FILT_TRIM[1]: SCB clock enable (1), clock disable (0).
 512:Generated_Source\PSoC6\pdl\drivers\peripheral\scb/cy_scb_common.h **** */
 513:Generated_Source\PSoC6\pdl\drivers\peripheral\scb/cy_scb_common.h **** #define CY_SCB_I2C_CFG_CLK_ENABLE_Msk  (_VAL2FLD(SCB_I2C_CFG_SDA_IN_FILT_TRIM, 2UL))
 514:Generated_Source\PSoC6\pdl\drivers\peripheral\scb/cy_scb_common.h **** 
 515:Generated_Source\PSoC6\pdl\drivers\peripheral\scb/cy_scb_common.h **** /* I2C has fixed data width */
 516:Generated_Source\PSoC6\pdl\drivers\peripheral\scb/cy_scb_common.h **** #define CY_SCB_I2C_DATA_WIDTH   (7UL)
 517:Generated_Source\PSoC6\pdl\drivers\peripheral\scb/cy_scb_common.h **** 
 518:Generated_Source\PSoC6\pdl\drivers\peripheral\scb/cy_scb_common.h **** /* RX and TX control register values */
 519:Generated_Source\PSoC6\pdl\drivers\peripheral\scb/cy_scb_common.h **** #define CY_SCB_I2C_RX_CTRL      (_VAL2FLD(SCB_RX_CTRL_DATA_WIDTH, CY_SCB_I2C_DATA_WIDTH) | \
 520:Generated_Source\PSoC6\pdl\drivers\peripheral\scb/cy_scb_common.h ****                                  SCB_RX_CTRL_MSB_FIRST_Msk)
 521:Generated_Source\PSoC6\pdl\drivers\peripheral\scb/cy_scb_common.h **** #define CY_SCB_I2C_TX_CTRL      (_VAL2FLD(SCB_TX_CTRL_DATA_WIDTH, CY_SCB_I2C_DATA_WIDTH) | \
 522:Generated_Source\PSoC6\pdl\drivers\peripheral\scb/cy_scb_common.h ****                                  SCB_TX_CTRL_MSB_FIRST_Msk | SCB_TX_CTRL_OPEN_DRAIN_Msk)
 523:Generated_Source\PSoC6\pdl\drivers\peripheral\scb/cy_scb_common.h **** 
 524:Generated_Source\PSoC6\pdl\drivers\peripheral\scb/cy_scb_common.h **** /* The position and mask to make an address byte */
 525:Generated_Source\PSoC6\pdl\drivers\peripheral\scb/cy_scb_common.h **** #define CY_SCB_I2C_ADDRESS_Pos  (1UL)
 526:Generated_Source\PSoC6\pdl\drivers\peripheral\scb/cy_scb_common.h **** #define CY_SCB_I2C_ADDRESS_Msk  (0xFEUL)
 527:Generated_Source\PSoC6\pdl\drivers\peripheral\scb/cy_scb_common.h **** 
 528:Generated_Source\PSoC6\pdl\drivers\peripheral\scb/cy_scb_common.h **** /* SPI slave select polarity */
 529:Generated_Source\PSoC6\pdl\drivers\peripheral\scb/cy_scb_common.h **** #define CY_SCB_SPI_CTRL_SSEL_POLARITY_Pos   SCB_SPI_CTRL_SSEL_POLARITY0_Pos
 530:Generated_Source\PSoC6\pdl\drivers\peripheral\scb/cy_scb_common.h **** #define CY_SCB_SPI_CTRL_SSEL_POLARITY_Msk   (SCB_SPI_CTRL_SSEL_POLARITY0_Msk | \
 531:Generated_Source\PSoC6\pdl\drivers\peripheral\scb/cy_scb_common.h ****                                              SCB_SPI_CTRL_SSEL_POLARITY1_Msk | \
 532:Generated_Source\PSoC6\pdl\drivers\peripheral\scb/cy_scb_common.h ****                                              SCB_SPI_CTRL_SSEL_POLARITY2_Msk | \
 533:Generated_Source\PSoC6\pdl\drivers\peripheral\scb/cy_scb_common.h ****                                              SCB_SPI_CTRL_SSEL_POLARITY3_Msk)
 534:Generated_Source\PSoC6\pdl\drivers\peripheral\scb/cy_scb_common.h **** 
 535:Generated_Source\PSoC6\pdl\drivers\peripheral\scb/cy_scb_common.h **** /* SPI clock modes: CPHA and CPOL */
 536:Generated_Source\PSoC6\pdl\drivers\peripheral\scb/cy_scb_common.h **** #define CY_SCB_SPI_CTRL_CLK_MODE_Pos    SCB_SPI_CTRL_CPHA_Pos
 537:Generated_Source\PSoC6\pdl\drivers\peripheral\scb/cy_scb_common.h **** #define CY_SCB_SPI_CTRL_CLK_MODE_Msk    (SCB_SPI_CTRL_CPHA_Msk | SCB_SPI_CTRL_CPOL_Msk)
 538:Generated_Source\PSoC6\pdl\drivers\peripheral\scb/cy_scb_common.h **** 
 539:Generated_Source\PSoC6\pdl\drivers\peripheral\scb/cy_scb_common.h **** /* UART parity and parity enable combination */
 540:Generated_Source\PSoC6\pdl\drivers\peripheral\scb/cy_scb_common.h **** #define CY_SCB_UART_RX_CTRL_SET_PARITY_Msk      (SCB_UART_RX_CTRL_PARITY_ENABLED_Msk | \
 541:Generated_Source\PSoC6\pdl\drivers\peripheral\scb/cy_scb_common.h ****                                                  SCB_UART_RX_CTRL_PARITY_Msk)
 542:Generated_Source\PSoC6\pdl\drivers\peripheral\scb/cy_scb_common.h **** #define CY_SCB_UART_RX_CTRL_SET_PARITY_Pos      SCB_UART_RX_CTRL_PARITY_Pos
 543:Generated_Source\PSoC6\pdl\drivers\peripheral\scb/cy_scb_common.h **** 
ARM GAS  C:\Users\tmj32\AppData\Local\Temp\ccenHtUU.s 			page 11


 544:Generated_Source\PSoC6\pdl\drivers\peripheral\scb/cy_scb_common.h **** #define CY_SCB_UART_TX_CTRL_SET_PARITY_Msk      (SCB_UART_TX_CTRL_PARITY_ENABLED_Msk | \
 545:Generated_Source\PSoC6\pdl\drivers\peripheral\scb/cy_scb_common.h ****                                                  SCB_UART_TX_CTRL_PARITY_Msk)
 546:Generated_Source\PSoC6\pdl\drivers\peripheral\scb/cy_scb_common.h **** #define CY_SCB_UART_TX_CTRL_SET_PARITY_Pos      SCB_UART_TX_CTRL_PARITY_Pos
 547:Generated_Source\PSoC6\pdl\drivers\peripheral\scb/cy_scb_common.h **** 
 548:Generated_Source\PSoC6\pdl\drivers\peripheral\scb/cy_scb_common.h **** /* Max number of bits for byte mode */
 549:Generated_Source\PSoC6\pdl\drivers\peripheral\scb/cy_scb_common.h **** #define CY_SCB_BYTE_WIDTH   (8UL)
 550:Generated_Source\PSoC6\pdl\drivers\peripheral\scb/cy_scb_common.h **** 
 551:Generated_Source\PSoC6\pdl\drivers\peripheral\scb/cy_scb_common.h **** /* Single unit to wait */
 552:Generated_Source\PSoC6\pdl\drivers\peripheral\scb/cy_scb_common.h **** #define CY_SCB_WAIT_1_UNIT  (1U)
 553:Generated_Source\PSoC6\pdl\drivers\peripheral\scb/cy_scb_common.h **** 
 554:Generated_Source\PSoC6\pdl\drivers\peripheral\scb/cy_scb_common.h **** /* Clear interrupt sources */
 555:Generated_Source\PSoC6\pdl\drivers\peripheral\scb/cy_scb_common.h **** #define CY_SCB_CLEAR_ALL_INTR_SRC   (0UL)
 556:Generated_Source\PSoC6\pdl\drivers\peripheral\scb/cy_scb_common.h **** 
 557:Generated_Source\PSoC6\pdl\drivers\peripheral\scb/cy_scb_common.h **** /* Hardware FIFO size: EZ_DATA_NR / 4 = (512 / 4) = 128 */
 558:Generated_Source\PSoC6\pdl\drivers\peripheral\scb/cy_scb_common.h **** #define CY_SCB_FIFO_SIZE            (128UL)
 559:Generated_Source\PSoC6\pdl\drivers\peripheral\scb/cy_scb_common.h **** 
 560:Generated_Source\PSoC6\pdl\drivers\peripheral\scb/cy_scb_common.h **** /* Provides a list of allowed sources */
 561:Generated_Source\PSoC6\pdl\drivers\peripheral\scb/cy_scb_common.h **** #define CY_SCB_TX_INTR_MASK     (CY_SCB_TX_INTR_LEVEL     | CY_SCB_TX_INTR_NOT_FULL  | CY_SCB_TX_IN
 562:Generated_Source\PSoC6\pdl\drivers\peripheral\scb/cy_scb_common.h ****                                  CY_SCB_TX_INTR_OVERFLOW  | CY_SCB_TX_INTR_UNDERFLOW | CY_SCB_TX_IN
 563:Generated_Source\PSoC6\pdl\drivers\peripheral\scb/cy_scb_common.h ****                                  CY_SCB_TX_INTR_UART_NACK | CY_SCB_TX_INTR_UART_ARB_LOST)
 564:Generated_Source\PSoC6\pdl\drivers\peripheral\scb/cy_scb_common.h **** 
 565:Generated_Source\PSoC6\pdl\drivers\peripheral\scb/cy_scb_common.h **** #define CY_SCB_RX_INTR_MASK     (CY_SCB_RX_INTR_LEVEL             | CY_SCB_RX_INTR_NOT_EMPTY | CY_S
 566:Generated_Source\PSoC6\pdl\drivers\peripheral\scb/cy_scb_common.h ****                                  CY_SCB_RX_INTR_OVERFLOW          | CY_SCB_RX_INTR_UNDERFLOW       
 567:Generated_Source\PSoC6\pdl\drivers\peripheral\scb/cy_scb_common.h ****                                  CY_SCB_RX_INTR_UART_FRAME_ERROR  | CY_SCB_RX_INTR_UART_PARITY_ERRO
 568:Generated_Source\PSoC6\pdl\drivers\peripheral\scb/cy_scb_common.h ****                                  CY_SCB_RX_INTR_UART_BREAK_DETECT)
 569:Generated_Source\PSoC6\pdl\drivers\peripheral\scb/cy_scb_common.h **** 
 570:Generated_Source\PSoC6\pdl\drivers\peripheral\scb/cy_scb_common.h **** 
 571:Generated_Source\PSoC6\pdl\drivers\peripheral\scb/cy_scb_common.h **** #define CY_SCB_SLAVE_INTR_MASK  (CY_SCB_SLAVE_INTR_I2C_ARB_LOST   | CY_SCB_SLAVE_INTR_I2C_NACK | CY
 572:Generated_Source\PSoC6\pdl\drivers\peripheral\scb/cy_scb_common.h ****                                  CY_SCB_SLAVE_INTR_I2C_WRITE_STOP | CY_SCB_SLAVE_INTR_I2C_STOP | CY
 573:Generated_Source\PSoC6\pdl\drivers\peripheral\scb/cy_scb_common.h ****                                  CY_SCB_SLAVE_INTR_I2C_ADDR_MATCH | CY_SCB_SLAVE_INTR_I2C_GENERAL_A
 574:Generated_Source\PSoC6\pdl\drivers\peripheral\scb/cy_scb_common.h ****                                  CY_SCB_SLAVE_INTR_I2C_BUS_ERROR  | CY_SCB_SLAVE_INTR_SPI_BUS_ERROR
 575:Generated_Source\PSoC6\pdl\drivers\peripheral\scb/cy_scb_common.h **** 
 576:Generated_Source\PSoC6\pdl\drivers\peripheral\scb/cy_scb_common.h **** #define CY_SCB_MASTER_INTR_MASK (CY_SCB_MASTER_INTR_I2C_ARB_LOST  | CY_SCB_MASTER_INTR_I2C_NACK | \
 577:Generated_Source\PSoC6\pdl\drivers\peripheral\scb/cy_scb_common.h ****                                  CY_SCB_MASTER_INTR_I2C_ACK       | CY_SCB_MASTER_INTR_I2C_STOP | \
 578:Generated_Source\PSoC6\pdl\drivers\peripheral\scb/cy_scb_common.h ****                                  CY_SCB_MASTER_INTR_I2C_BUS_ERROR | CY_SCB_MASTER_INTR_SPI_DONE)
 579:Generated_Source\PSoC6\pdl\drivers\peripheral\scb/cy_scb_common.h **** 
 580:Generated_Source\PSoC6\pdl\drivers\peripheral\scb/cy_scb_common.h **** #define CY_SCB_I2C_INTR_MASK    CY_SCB_I2C_INTR_WAKEUP
 581:Generated_Source\PSoC6\pdl\drivers\peripheral\scb/cy_scb_common.h **** 
 582:Generated_Source\PSoC6\pdl\drivers\peripheral\scb/cy_scb_common.h **** #define CY_SCB_SPI_INTR_MASK    CY_SCB_SPI_INTR_WAKEUP
 583:Generated_Source\PSoC6\pdl\drivers\peripheral\scb/cy_scb_common.h **** 
 584:Generated_Source\PSoC6\pdl\drivers\peripheral\scb/cy_scb_common.h **** #define CY_SCB_IS_INTR_VALID(intr, mask)            ( 0UL == ((intr) & ((uint32_t) ~(mask))) )
 585:Generated_Source\PSoC6\pdl\drivers\peripheral\scb/cy_scb_common.h **** #define CY_SCB_IS_TRIGGER_LEVEL_VALID(base, level)  ((level) < Cy_SCB_GetFifoSize(base))
 586:Generated_Source\PSoC6\pdl\drivers\peripheral\scb/cy_scb_common.h **** 
 587:Generated_Source\PSoC6\pdl\drivers\peripheral\scb/cy_scb_common.h **** #define CY_SCB_IS_I2C_ADDR_VALID(addr)              ( (0U == ((addr) & 0x80U)) )
 588:Generated_Source\PSoC6\pdl\drivers\peripheral\scb/cy_scb_common.h **** #define CY_SCB_IS_BUFFER_VALID(buffer, size)        ( (NULL != (buffer)) && ((size) > 0UL) )
 589:Generated_Source\PSoC6\pdl\drivers\peripheral\scb/cy_scb_common.h **** #define CY_SCB_IS_I2C_BUFFER_VALID(buffer, size)    ( (0UL == (size)) ? true : (NULL != (buffer)) )
 590:Generated_Source\PSoC6\pdl\drivers\peripheral\scb/cy_scb_common.h **** /** \endcond */
 591:Generated_Source\PSoC6\pdl\drivers\peripheral\scb/cy_scb_common.h **** 
 592:Generated_Source\PSoC6\pdl\drivers\peripheral\scb/cy_scb_common.h **** /** \} group_scb_common_macros */
 593:Generated_Source\PSoC6\pdl\drivers\peripheral\scb/cy_scb_common.h **** 
 594:Generated_Source\PSoC6\pdl\drivers\peripheral\scb/cy_scb_common.h **** 
 595:Generated_Source\PSoC6\pdl\drivers\peripheral\scb/cy_scb_common.h **** /*******************************************************************************
 596:Generated_Source\PSoC6\pdl\drivers\peripheral\scb/cy_scb_common.h **** *                       In-line Function Implementation
 597:Generated_Source\PSoC6\pdl\drivers\peripheral\scb/cy_scb_common.h **** *******************************************************************************/
 598:Generated_Source\PSoC6\pdl\drivers\peripheral\scb/cy_scb_common.h **** 
 599:Generated_Source\PSoC6\pdl\drivers\peripheral\scb/cy_scb_common.h **** /**
 600:Generated_Source\PSoC6\pdl\drivers\peripheral\scb/cy_scb_common.h **** * \addtogroup group_scb_common_functions
ARM GAS  C:\Users\tmj32\AppData\Local\Temp\ccenHtUU.s 			page 12


 601:Generated_Source\PSoC6\pdl\drivers\peripheral\scb/cy_scb_common.h **** * \{
 602:Generated_Source\PSoC6\pdl\drivers\peripheral\scb/cy_scb_common.h **** */
 603:Generated_Source\PSoC6\pdl\drivers\peripheral\scb/cy_scb_common.h **** 
 604:Generated_Source\PSoC6\pdl\drivers\peripheral\scb/cy_scb_common.h **** /*******************************************************************************
 605:Generated_Source\PSoC6\pdl\drivers\peripheral\scb/cy_scb_common.h **** * Function Name: Cy_SCB_ReadRxFifo
 606:Generated_Source\PSoC6\pdl\drivers\peripheral\scb/cy_scb_common.h **** ****************************************************************************//**
 607:Generated_Source\PSoC6\pdl\drivers\peripheral\scb/cy_scb_common.h **** *
 608:Generated_Source\PSoC6\pdl\drivers\peripheral\scb/cy_scb_common.h **** * Reads a data element directly out of the RX FIFO.
 609:Generated_Source\PSoC6\pdl\drivers\peripheral\scb/cy_scb_common.h **** * This function does not check whether the RX FIFO has data before reading it.
 610:Generated_Source\PSoC6\pdl\drivers\peripheral\scb/cy_scb_common.h **** *
 611:Generated_Source\PSoC6\pdl\drivers\peripheral\scb/cy_scb_common.h **** * \param base
 612:Generated_Source\PSoC6\pdl\drivers\peripheral\scb/cy_scb_common.h **** * The pointer to the SCB instance.
 613:Generated_Source\PSoC6\pdl\drivers\peripheral\scb/cy_scb_common.h **** *
 614:Generated_Source\PSoC6\pdl\drivers\peripheral\scb/cy_scb_common.h **** * \return
 615:Generated_Source\PSoC6\pdl\drivers\peripheral\scb/cy_scb_common.h **** * Data from RX FIFO.
 616:Generated_Source\PSoC6\pdl\drivers\peripheral\scb/cy_scb_common.h **** *
 617:Generated_Source\PSoC6\pdl\drivers\peripheral\scb/cy_scb_common.h **** *******************************************************************************/
 618:Generated_Source\PSoC6\pdl\drivers\peripheral\scb/cy_scb_common.h **** __STATIC_INLINE uint32_t Cy_SCB_ReadRxFifo(CySCB_Type const *base)
 619:Generated_Source\PSoC6\pdl\drivers\peripheral\scb/cy_scb_common.h **** {
  28              		.loc 1 619 0
  29              		.cfi_startproc
  30              		@ args = 0, pretend = 0, frame = 8
  31              		@ frame_needed = 1, uses_anonymous_args = 0
  32              		@ link register save eliminated.
  33 0000 80B4     		push	{r7}
  34              		.cfi_def_cfa_offset 4
  35              		.cfi_offset 7, -4
  36 0002 83B0     		sub	sp, sp, #12
  37              		.cfi_def_cfa_offset 16
  38 0004 00AF     		add	r7, sp, #0
  39              		.cfi_def_cfa_register 7
  40 0006 7860     		str	r0, [r7, #4]
 620:Generated_Source\PSoC6\pdl\drivers\peripheral\scb/cy_scb_common.h ****     return (SCB_RX_FIFO_RD(base));
  41              		.loc 1 620 0
  42 0008 7B68     		ldr	r3, [r7, #4]
  43 000a D3F84033 		ldr	r3, [r3, #832]
 621:Generated_Source\PSoC6\pdl\drivers\peripheral\scb/cy_scb_common.h **** }
  44              		.loc 1 621 0
  45 000e 1846     		mov	r0, r3
  46 0010 0C37     		adds	r7, r7, #12
  47              		.cfi_def_cfa_offset 4
  48 0012 BD46     		mov	sp, r7
  49              		.cfi_def_cfa_register 13
  50              		@ sp needed
  51 0014 5DF8047B 		ldr	r7, [sp], #4
  52              		.cfi_restore 7
  53              		.cfi_def_cfa_offset 0
  54 0018 7047     		bx	lr
  55              		.cfi_endproc
  56              	.LFE166:
  57              		.size	Cy_SCB_ReadRxFifo, .-Cy_SCB_ReadRxFifo
  58 001a 00BF     		.section	.rodata
  59              		.align	2
  60              	.LC0:
  61 0000 47656E65 		.ascii	"Generated_Source\\PSoC6\\pdl\\drivers\\peripheral\\"
  61      72617465 
  61      645F536F 
ARM GAS  C:\Users\tmj32\AppData\Local\Temp\ccenHtUU.s 			page 13


  61      75726365 
  61      5C50536F 
  62 002e 7363625C 		.ascii	"scb\\cy_scb_common.h\000"
  62      63795F73 
  62      63625F63 
  62      6F6D6D6F 
  62      6E2E6800 
  63              		.section	.text.Cy_SCB_SetRxFifoLevel,"ax",%progbits
  64              		.align	2
  65              		.thumb
  66              		.thumb_func
  67              		.type	Cy_SCB_SetRxFifoLevel, %function
  68              	Cy_SCB_SetRxFifoLevel:
  69              	.LFB167:
 622:Generated_Source\PSoC6\pdl\drivers\peripheral\scb/cy_scb_common.h **** 
 623:Generated_Source\PSoC6\pdl\drivers\peripheral\scb/cy_scb_common.h **** /*******************************************************************************
 624:Generated_Source\PSoC6\pdl\drivers\peripheral\scb/cy_scb_common.h **** * Function Name: Cy_SCB_SetRxFifoLevel
 625:Generated_Source\PSoC6\pdl\drivers\peripheral\scb/cy_scb_common.h **** ****************************************************************************//**
 626:Generated_Source\PSoC6\pdl\drivers\peripheral\scb/cy_scb_common.h **** *
 627:Generated_Source\PSoC6\pdl\drivers\peripheral\scb/cy_scb_common.h **** * Sets the RX FIFO level. When there are more data elements in the RX FIFO than
 628:Generated_Source\PSoC6\pdl\drivers\peripheral\scb/cy_scb_common.h **** * this level, the RX FIFO level interrupt is triggered.
 629:Generated_Source\PSoC6\pdl\drivers\peripheral\scb/cy_scb_common.h **** *
 630:Generated_Source\PSoC6\pdl\drivers\peripheral\scb/cy_scb_common.h **** * \param base
 631:Generated_Source\PSoC6\pdl\drivers\peripheral\scb/cy_scb_common.h **** * The pointer to the SCB instance.
 632:Generated_Source\PSoC6\pdl\drivers\peripheral\scb/cy_scb_common.h **** *
 633:Generated_Source\PSoC6\pdl\drivers\peripheral\scb/cy_scb_common.h **** * \param level
 634:Generated_Source\PSoC6\pdl\drivers\peripheral\scb/cy_scb_common.h **** * When there are more data elements in the FIFO than this level, the RX level
 635:Generated_Source\PSoC6\pdl\drivers\peripheral\scb/cy_scb_common.h **** * interrupt is triggered.
 636:Generated_Source\PSoC6\pdl\drivers\peripheral\scb/cy_scb_common.h **** *
 637:Generated_Source\PSoC6\pdl\drivers\peripheral\scb/cy_scb_common.h **** *******************************************************************************/
 638:Generated_Source\PSoC6\pdl\drivers\peripheral\scb/cy_scb_common.h **** __STATIC_INLINE void Cy_SCB_SetRxFifoLevel(CySCB_Type *base, uint32_t level)
 639:Generated_Source\PSoC6\pdl\drivers\peripheral\scb/cy_scb_common.h **** {
  70              		.loc 1 639 0
  71              		.cfi_startproc
  72              		@ args = 0, pretend = 0, frame = 8
  73              		@ frame_needed = 1, uses_anonymous_args = 0
  74 0000 80B5     		push	{r7, lr}
  75              		.cfi_def_cfa_offset 8
  76              		.cfi_offset 7, -8
  77              		.cfi_offset 14, -4
  78 0002 82B0     		sub	sp, sp, #8
  79              		.cfi_def_cfa_offset 16
  80 0004 00AF     		add	r7, sp, #0
  81              		.cfi_def_cfa_register 7
  82 0006 7860     		str	r0, [r7, #4]
  83 0008 3960     		str	r1, [r7]
 640:Generated_Source\PSoC6\pdl\drivers\peripheral\scb/cy_scb_common.h ****     CY_ASSERT_L2(CY_SCB_IS_TRIGGER_LEVEL_VALID(base, level));
  84              		.loc 1 640 0
  85 000a 7868     		ldr	r0, [r7, #4]
  86 000c FFF7FEFF 		bl	Cy_SCB_GetFifoSize
  87 0010 0246     		mov	r2, r0
  88 0012 3B68     		ldr	r3, [r7]
  89 0014 9A42     		cmp	r2, r3
  90 0016 04D8     		bhi	.L4
  91              		.loc 1 640 0 is_stmt 0 discriminator 1
  92 0018 4FF42071 		mov	r1, #640
  93 001c 0848     		ldr	r0, .L5
ARM GAS  C:\Users\tmj32\AppData\Local\Temp\ccenHtUU.s 			page 14


  94 001e FFF7FEFF 		bl	Cy_SysLib_AssertFailed
  95              	.L4:
 641:Generated_Source\PSoC6\pdl\drivers\peripheral\scb/cy_scb_common.h **** 
 642:Generated_Source\PSoC6\pdl\drivers\peripheral\scb/cy_scb_common.h ****     CY_REG32_CLR_SET(SCB_RX_FIFO_CTRL(base), SCB_RX_FIFO_CTRL_TRIGGER_LEVEL, level);
  96              		.loc 1 642 0 is_stmt 1
  97 0022 7B68     		ldr	r3, [r7, #4]
  98 0024 D3F80433 		ldr	r3, [r3, #772]
  99 0028 23F0FF02 		bic	r2, r3, #255
 100 002c 3B68     		ldr	r3, [r7]
 101 002e DBB2     		uxtb	r3, r3
 102 0030 1A43     		orrs	r2, r2, r3
 103 0032 7B68     		ldr	r3, [r7, #4]
 104 0034 C3F80423 		str	r2, [r3, #772]
 643:Generated_Source\PSoC6\pdl\drivers\peripheral\scb/cy_scb_common.h **** }
 105              		.loc 1 643 0
 106 0038 00BF     		nop
 107 003a 0837     		adds	r7, r7, #8
 108              		.cfi_def_cfa_offset 8
 109 003c BD46     		mov	sp, r7
 110              		.cfi_def_cfa_register 13
 111              		@ sp needed
 112 003e 80BD     		pop	{r7, pc}
 113              	.L6:
 114              		.align	2
 115              	.L5:
 116 0040 00000000 		.word	.LC0
 117              		.cfi_endproc
 118              	.LFE167:
 119              		.size	Cy_SCB_SetRxFifoLevel, .-Cy_SCB_SetRxFifoLevel
 120              		.section	.text.Cy_SCB_GetNumInRxFifo,"ax",%progbits
 121              		.align	2
 122              		.thumb
 123              		.thumb_func
 124              		.type	Cy_SCB_GetNumInRxFifo, %function
 125              	Cy_SCB_GetNumInRxFifo:
 126              	.LFB168:
 644:Generated_Source\PSoC6\pdl\drivers\peripheral\scb/cy_scb_common.h **** 
 645:Generated_Source\PSoC6\pdl\drivers\peripheral\scb/cy_scb_common.h **** 
 646:Generated_Source\PSoC6\pdl\drivers\peripheral\scb/cy_scb_common.h **** /*******************************************************************************
 647:Generated_Source\PSoC6\pdl\drivers\peripheral\scb/cy_scb_common.h **** * Function Name: Cy_SCB_GetNumInRxFifo
 648:Generated_Source\PSoC6\pdl\drivers\peripheral\scb/cy_scb_common.h **** ****************************************************************************//**
 649:Generated_Source\PSoC6\pdl\drivers\peripheral\scb/cy_scb_common.h **** *
 650:Generated_Source\PSoC6\pdl\drivers\peripheral\scb/cy_scb_common.h **** * Returns the number of data elements currently in the RX FIFO.
 651:Generated_Source\PSoC6\pdl\drivers\peripheral\scb/cy_scb_common.h **** *
 652:Generated_Source\PSoC6\pdl\drivers\peripheral\scb/cy_scb_common.h **** * \param base
 653:Generated_Source\PSoC6\pdl\drivers\peripheral\scb/cy_scb_common.h **** * The pointer to the SCB instance.
 654:Generated_Source\PSoC6\pdl\drivers\peripheral\scb/cy_scb_common.h **** *
 655:Generated_Source\PSoC6\pdl\drivers\peripheral\scb/cy_scb_common.h **** * \return
 656:Generated_Source\PSoC6\pdl\drivers\peripheral\scb/cy_scb_common.h **** * The number or data elements in RX FIFO.
 657:Generated_Source\PSoC6\pdl\drivers\peripheral\scb/cy_scb_common.h **** *
 658:Generated_Source\PSoC6\pdl\drivers\peripheral\scb/cy_scb_common.h **** *******************************************************************************/
 659:Generated_Source\PSoC6\pdl\drivers\peripheral\scb/cy_scb_common.h **** __STATIC_INLINE uint32_t Cy_SCB_GetNumInRxFifo(CySCB_Type const *base)
 660:Generated_Source\PSoC6\pdl\drivers\peripheral\scb/cy_scb_common.h **** {
 127              		.loc 1 660 0
 128              		.cfi_startproc
 129              		@ args = 0, pretend = 0, frame = 8
 130              		@ frame_needed = 1, uses_anonymous_args = 0
ARM GAS  C:\Users\tmj32\AppData\Local\Temp\ccenHtUU.s 			page 15


 131              		@ link register save eliminated.
 132 0000 80B4     		push	{r7}
 133              		.cfi_def_cfa_offset 4
 134              		.cfi_offset 7, -4
 135 0002 83B0     		sub	sp, sp, #12
 136              		.cfi_def_cfa_offset 16
 137 0004 00AF     		add	r7, sp, #0
 138              		.cfi_def_cfa_register 7
 139 0006 7860     		str	r0, [r7, #4]
 661:Generated_Source\PSoC6\pdl\drivers\peripheral\scb/cy_scb_common.h ****     return _FLD2VAL(SCB_RX_FIFO_STATUS_USED, SCB_RX_FIFO_STATUS(base));
 140              		.loc 1 661 0
 141 0008 7B68     		ldr	r3, [r7, #4]
 142 000a D3F80833 		ldr	r3, [r3, #776]
 143 000e C3F30803 		ubfx	r3, r3, #0, #9
 662:Generated_Source\PSoC6\pdl\drivers\peripheral\scb/cy_scb_common.h **** }
 144              		.loc 1 662 0
 145 0012 1846     		mov	r0, r3
 146 0014 0C37     		adds	r7, r7, #12
 147              		.cfi_def_cfa_offset 4
 148 0016 BD46     		mov	sp, r7
 149              		.cfi_def_cfa_register 13
 150              		@ sp needed
 151 0018 5DF8047B 		ldr	r7, [sp], #4
 152              		.cfi_restore 7
 153              		.cfi_def_cfa_offset 0
 154 001c 7047     		bx	lr
 155              		.cfi_endproc
 156              	.LFE168:
 157              		.size	Cy_SCB_GetNumInRxFifo, .-Cy_SCB_GetNumInRxFifo
 158 001e 00BF     		.section	.text.Cy_SCB_ClearRxFifo,"ax",%progbits
 159              		.align	2
 160              		.thumb
 161              		.thumb_func
 162              		.type	Cy_SCB_ClearRxFifo, %function
 163              	Cy_SCB_ClearRxFifo:
 164              	.LFB170:
 663:Generated_Source\PSoC6\pdl\drivers\peripheral\scb/cy_scb_common.h **** 
 664:Generated_Source\PSoC6\pdl\drivers\peripheral\scb/cy_scb_common.h **** 
 665:Generated_Source\PSoC6\pdl\drivers\peripheral\scb/cy_scb_common.h **** /*******************************************************************************
 666:Generated_Source\PSoC6\pdl\drivers\peripheral\scb/cy_scb_common.h **** * Function Name: Cy_SCB_GetRxSrValid
 667:Generated_Source\PSoC6\pdl\drivers\peripheral\scb/cy_scb_common.h **** ****************************************************************************//**
 668:Generated_Source\PSoC6\pdl\drivers\peripheral\scb/cy_scb_common.h **** *
 669:Generated_Source\PSoC6\pdl\drivers\peripheral\scb/cy_scb_common.h **** * Returns the status of the RX FIFO Shift Register valid bit.
 670:Generated_Source\PSoC6\pdl\drivers\peripheral\scb/cy_scb_common.h **** *
 671:Generated_Source\PSoC6\pdl\drivers\peripheral\scb/cy_scb_common.h **** * \param base
 672:Generated_Source\PSoC6\pdl\drivers\peripheral\scb/cy_scb_common.h **** * The pointer to the SCB instance.
 673:Generated_Source\PSoC6\pdl\drivers\peripheral\scb/cy_scb_common.h **** *
 674:Generated_Source\PSoC6\pdl\drivers\peripheral\scb/cy_scb_common.h **** * \return
 675:Generated_Source\PSoC6\pdl\drivers\peripheral\scb/cy_scb_common.h **** * 1 - RX shift register valid; 0 - RX shift register not valid.
 676:Generated_Source\PSoC6\pdl\drivers\peripheral\scb/cy_scb_common.h **** *
 677:Generated_Source\PSoC6\pdl\drivers\peripheral\scb/cy_scb_common.h **** *******************************************************************************/
 678:Generated_Source\PSoC6\pdl\drivers\peripheral\scb/cy_scb_common.h **** __STATIC_INLINE uint32_t Cy_SCB_GetRxSrValid(CySCB_Type const *base)
 679:Generated_Source\PSoC6\pdl\drivers\peripheral\scb/cy_scb_common.h **** {
 680:Generated_Source\PSoC6\pdl\drivers\peripheral\scb/cy_scb_common.h ****     return _FLD2VAL(SCB_RX_FIFO_STATUS_SR_VALID, SCB_RX_FIFO_STATUS(base));
 681:Generated_Source\PSoC6\pdl\drivers\peripheral\scb/cy_scb_common.h **** }
 682:Generated_Source\PSoC6\pdl\drivers\peripheral\scb/cy_scb_common.h **** 
 683:Generated_Source\PSoC6\pdl\drivers\peripheral\scb/cy_scb_common.h **** 
ARM GAS  C:\Users\tmj32\AppData\Local\Temp\ccenHtUU.s 			page 16


 684:Generated_Source\PSoC6\pdl\drivers\peripheral\scb/cy_scb_common.h **** /*******************************************************************************
 685:Generated_Source\PSoC6\pdl\drivers\peripheral\scb/cy_scb_common.h **** * Function Name: Cy_SCB_ClearRxFifo
 686:Generated_Source\PSoC6\pdl\drivers\peripheral\scb/cy_scb_common.h **** ****************************************************************************//**
 687:Generated_Source\PSoC6\pdl\drivers\peripheral\scb/cy_scb_common.h **** *
 688:Generated_Source\PSoC6\pdl\drivers\peripheral\scb/cy_scb_common.h **** * Clears the RX FIFO and shifter.
 689:Generated_Source\PSoC6\pdl\drivers\peripheral\scb/cy_scb_common.h **** *
 690:Generated_Source\PSoC6\pdl\drivers\peripheral\scb/cy_scb_common.h **** * \param base
 691:Generated_Source\PSoC6\pdl\drivers\peripheral\scb/cy_scb_common.h **** * The pointer to the SCB instance.
 692:Generated_Source\PSoC6\pdl\drivers\peripheral\scb/cy_scb_common.h **** *
 693:Generated_Source\PSoC6\pdl\drivers\peripheral\scb/cy_scb_common.h **** * \note
 694:Generated_Source\PSoC6\pdl\drivers\peripheral\scb/cy_scb_common.h **** * If there is partial data in the shifter, it is cleared and lost.
 695:Generated_Source\PSoC6\pdl\drivers\peripheral\scb/cy_scb_common.h **** *
 696:Generated_Source\PSoC6\pdl\drivers\peripheral\scb/cy_scb_common.h **** *******************************************************************************/
 697:Generated_Source\PSoC6\pdl\drivers\peripheral\scb/cy_scb_common.h **** __STATIC_INLINE void Cy_SCB_ClearRxFifo(CySCB_Type* base)
 698:Generated_Source\PSoC6\pdl\drivers\peripheral\scb/cy_scb_common.h **** {
 165              		.loc 1 698 0
 166              		.cfi_startproc
 167              		@ args = 0, pretend = 0, frame = 8
 168              		@ frame_needed = 1, uses_anonymous_args = 0
 169              		@ link register save eliminated.
 170 0000 80B4     		push	{r7}
 171              		.cfi_def_cfa_offset 4
 172              		.cfi_offset 7, -4
 173 0002 83B0     		sub	sp, sp, #12
 174              		.cfi_def_cfa_offset 16
 175 0004 00AF     		add	r7, sp, #0
 176              		.cfi_def_cfa_register 7
 177 0006 7860     		str	r0, [r7, #4]
 699:Generated_Source\PSoC6\pdl\drivers\peripheral\scb/cy_scb_common.h ****     SCB_RX_FIFO_CTRL(base) |= (uint32_t)  SCB_RX_FIFO_CTRL_CLEAR_Msk;
 178              		.loc 1 699 0
 179 0008 7B68     		ldr	r3, [r7, #4]
 180 000a D3F80433 		ldr	r3, [r3, #772]
 181 000e 43F48032 		orr	r2, r3, #65536
 182 0012 7B68     		ldr	r3, [r7, #4]
 183 0014 C3F80423 		str	r2, [r3, #772]
 700:Generated_Source\PSoC6\pdl\drivers\peripheral\scb/cy_scb_common.h ****     SCB_RX_FIFO_CTRL(base) &= (uint32_t) ~SCB_RX_FIFO_CTRL_CLEAR_Msk;
 184              		.loc 1 700 0
 185 0018 7B68     		ldr	r3, [r7, #4]
 186 001a D3F80433 		ldr	r3, [r3, #772]
 187 001e 23F48032 		bic	r2, r3, #65536
 188 0022 7B68     		ldr	r3, [r7, #4]
 189 0024 C3F80423 		str	r2, [r3, #772]
 701:Generated_Source\PSoC6\pdl\drivers\peripheral\scb/cy_scb_common.h **** 
 702:Generated_Source\PSoC6\pdl\drivers\peripheral\scb/cy_scb_common.h ****     (void) SCB_RX_FIFO_CTRL(base);
 190              		.loc 1 702 0
 191 0028 7B68     		ldr	r3, [r7, #4]
 192 002a D3F80433 		ldr	r3, [r3, #772]
 703:Generated_Source\PSoC6\pdl\drivers\peripheral\scb/cy_scb_common.h **** }
 193              		.loc 1 703 0
 194 002e 00BF     		nop
 195 0030 0C37     		adds	r7, r7, #12
 196              		.cfi_def_cfa_offset 4
 197 0032 BD46     		mov	sp, r7
 198              		.cfi_def_cfa_register 13
 199              		@ sp needed
 200 0034 5DF8047B 		ldr	r7, [sp], #4
 201              		.cfi_restore 7
ARM GAS  C:\Users\tmj32\AppData\Local\Temp\ccenHtUU.s 			page 17


 202              		.cfi_def_cfa_offset 0
 203 0038 7047     		bx	lr
 204              		.cfi_endproc
 205              	.LFE170:
 206              		.size	Cy_SCB_ClearRxFifo, .-Cy_SCB_ClearRxFifo
 207 003a 00BF     		.section	.text.Cy_SCB_SetTxFifoLevel,"ax",%progbits
 208              		.align	2
 209              		.thumb
 210              		.thumb_func
 211              		.type	Cy_SCB_SetTxFifoLevel, %function
 212              	Cy_SCB_SetTxFifoLevel:
 213              	.LFB172:
 704:Generated_Source\PSoC6\pdl\drivers\peripheral\scb/cy_scb_common.h **** 
 705:Generated_Source\PSoC6\pdl\drivers\peripheral\scb/cy_scb_common.h **** 
 706:Generated_Source\PSoC6\pdl\drivers\peripheral\scb/cy_scb_common.h **** /*******************************************************************************
 707:Generated_Source\PSoC6\pdl\drivers\peripheral\scb/cy_scb_common.h **** * Function Name: Cy_SCB_WriteTxFifo
 708:Generated_Source\PSoC6\pdl\drivers\peripheral\scb/cy_scb_common.h **** ****************************************************************************//**
 709:Generated_Source\PSoC6\pdl\drivers\peripheral\scb/cy_scb_common.h **** *
 710:Generated_Source\PSoC6\pdl\drivers\peripheral\scb/cy_scb_common.h **** * Writes data directly into the TX FIFO.
 711:Generated_Source\PSoC6\pdl\drivers\peripheral\scb/cy_scb_common.h **** * This function does not check whether the TX FIFO is not full before writing
 712:Generated_Source\PSoC6\pdl\drivers\peripheral\scb/cy_scb_common.h **** * into it.
 713:Generated_Source\PSoC6\pdl\drivers\peripheral\scb/cy_scb_common.h **** *
 714:Generated_Source\PSoC6\pdl\drivers\peripheral\scb/cy_scb_common.h **** * \param base
 715:Generated_Source\PSoC6\pdl\drivers\peripheral\scb/cy_scb_common.h **** * The pointer to the SCB instance.
 716:Generated_Source\PSoC6\pdl\drivers\peripheral\scb/cy_scb_common.h **** *
 717:Generated_Source\PSoC6\pdl\drivers\peripheral\scb/cy_scb_common.h **** * \param data
 718:Generated_Source\PSoC6\pdl\drivers\peripheral\scb/cy_scb_common.h **** * Data to write to the TX FIFO.
 719:Generated_Source\PSoC6\pdl\drivers\peripheral\scb/cy_scb_common.h **** *
 720:Generated_Source\PSoC6\pdl\drivers\peripheral\scb/cy_scb_common.h **** *******************************************************************************/
 721:Generated_Source\PSoC6\pdl\drivers\peripheral\scb/cy_scb_common.h **** __STATIC_INLINE void Cy_SCB_WriteTxFifo(CySCB_Type* base, uint32_t data)
 722:Generated_Source\PSoC6\pdl\drivers\peripheral\scb/cy_scb_common.h **** {
 723:Generated_Source\PSoC6\pdl\drivers\peripheral\scb/cy_scb_common.h ****     SCB_TX_FIFO_WR(base) = data;
 724:Generated_Source\PSoC6\pdl\drivers\peripheral\scb/cy_scb_common.h **** }
 725:Generated_Source\PSoC6\pdl\drivers\peripheral\scb/cy_scb_common.h **** 
 726:Generated_Source\PSoC6\pdl\drivers\peripheral\scb/cy_scb_common.h **** 
 727:Generated_Source\PSoC6\pdl\drivers\peripheral\scb/cy_scb_common.h **** /*******************************************************************************
 728:Generated_Source\PSoC6\pdl\drivers\peripheral\scb/cy_scb_common.h **** * Function Name: Cy_SCB_SetTxFifoLevel
 729:Generated_Source\PSoC6\pdl\drivers\peripheral\scb/cy_scb_common.h **** ****************************************************************************//**
 730:Generated_Source\PSoC6\pdl\drivers\peripheral\scb/cy_scb_common.h **** *
 731:Generated_Source\PSoC6\pdl\drivers\peripheral\scb/cy_scb_common.h **** * Sets the TX FIFO level. When there are fewer data elements in the TX FIFO than
 732:Generated_Source\PSoC6\pdl\drivers\peripheral\scb/cy_scb_common.h **** * this level, the TX FIFO level interrupt is triggered.
 733:Generated_Source\PSoC6\pdl\drivers\peripheral\scb/cy_scb_common.h **** *
 734:Generated_Source\PSoC6\pdl\drivers\peripheral\scb/cy_scb_common.h **** * \param base
 735:Generated_Source\PSoC6\pdl\drivers\peripheral\scb/cy_scb_common.h **** * The pointer to the SCB instance.
 736:Generated_Source\PSoC6\pdl\drivers\peripheral\scb/cy_scb_common.h **** *
 737:Generated_Source\PSoC6\pdl\drivers\peripheral\scb/cy_scb_common.h **** * \param level
 738:Generated_Source\PSoC6\pdl\drivers\peripheral\scb/cy_scb_common.h **** * When there are fewer data elements in the FIFO than this level, the TX level
 739:Generated_Source\PSoC6\pdl\drivers\peripheral\scb/cy_scb_common.h **** * interrupt is triggered.
 740:Generated_Source\PSoC6\pdl\drivers\peripheral\scb/cy_scb_common.h **** *
 741:Generated_Source\PSoC6\pdl\drivers\peripheral\scb/cy_scb_common.h **** *******************************************************************************/
 742:Generated_Source\PSoC6\pdl\drivers\peripheral\scb/cy_scb_common.h **** __STATIC_INLINE void Cy_SCB_SetTxFifoLevel(CySCB_Type *base, uint32_t level)
 743:Generated_Source\PSoC6\pdl\drivers\peripheral\scb/cy_scb_common.h **** {
 214              		.loc 1 743 0
 215              		.cfi_startproc
 216              		@ args = 0, pretend = 0, frame = 8
 217              		@ frame_needed = 1, uses_anonymous_args = 0
 218 0000 80B5     		push	{r7, lr}
ARM GAS  C:\Users\tmj32\AppData\Local\Temp\ccenHtUU.s 			page 18


 219              		.cfi_def_cfa_offset 8
 220              		.cfi_offset 7, -8
 221              		.cfi_offset 14, -4
 222 0002 82B0     		sub	sp, sp, #8
 223              		.cfi_def_cfa_offset 16
 224 0004 00AF     		add	r7, sp, #0
 225              		.cfi_def_cfa_register 7
 226 0006 7860     		str	r0, [r7, #4]
 227 0008 3960     		str	r1, [r7]
 744:Generated_Source\PSoC6\pdl\drivers\peripheral\scb/cy_scb_common.h ****     CY_ASSERT_L2(CY_SCB_IS_TRIGGER_LEVEL_VALID(base, level));
 228              		.loc 1 744 0
 229 000a 7868     		ldr	r0, [r7, #4]
 230 000c FFF7FEFF 		bl	Cy_SCB_GetFifoSize
 231 0010 0246     		mov	r2, r0
 232 0012 3B68     		ldr	r3, [r7]
 233 0014 9A42     		cmp	r2, r3
 234 0016 04D8     		bhi	.L11
 235              		.loc 1 744 0 is_stmt 0 discriminator 1
 236 0018 4FF43A71 		mov	r1, #744
 237 001c 0848     		ldr	r0, .L12
 238 001e FFF7FEFF 		bl	Cy_SysLib_AssertFailed
 239              	.L11:
 745:Generated_Source\PSoC6\pdl\drivers\peripheral\scb/cy_scb_common.h **** 
 746:Generated_Source\PSoC6\pdl\drivers\peripheral\scb/cy_scb_common.h ****     CY_REG32_CLR_SET(SCB_TX_FIFO_CTRL(base), SCB_TX_FIFO_CTRL_TRIGGER_LEVEL, level);
 240              		.loc 1 746 0 is_stmt 1
 241 0022 7B68     		ldr	r3, [r7, #4]
 242 0024 D3F80432 		ldr	r3, [r3, #516]
 243 0028 23F0FF02 		bic	r2, r3, #255
 244 002c 3B68     		ldr	r3, [r7]
 245 002e DBB2     		uxtb	r3, r3
 246 0030 1A43     		orrs	r2, r2, r3
 247 0032 7B68     		ldr	r3, [r7, #4]
 248 0034 C3F80422 		str	r2, [r3, #516]
 747:Generated_Source\PSoC6\pdl\drivers\peripheral\scb/cy_scb_common.h **** }
 249              		.loc 1 747 0
 250 0038 00BF     		nop
 251 003a 0837     		adds	r7, r7, #8
 252              		.cfi_def_cfa_offset 8
 253 003c BD46     		mov	sp, r7
 254              		.cfi_def_cfa_register 13
 255              		@ sp needed
 256 003e 80BD     		pop	{r7, pc}
 257              	.L13:
 258              		.align	2
 259              	.L12:
 260 0040 00000000 		.word	.LC0
 261              		.cfi_endproc
 262              	.LFE172:
 263              		.size	Cy_SCB_SetTxFifoLevel, .-Cy_SCB_SetTxFifoLevel
 264              		.section	.text.Cy_SCB_GetNumInTxFifo,"ax",%progbits
 265              		.align	2
 266              		.thumb
 267              		.thumb_func
 268              		.type	Cy_SCB_GetNumInTxFifo, %function
 269              	Cy_SCB_GetNumInTxFifo:
 270              	.LFB173:
 748:Generated_Source\PSoC6\pdl\drivers\peripheral\scb/cy_scb_common.h **** 
ARM GAS  C:\Users\tmj32\AppData\Local\Temp\ccenHtUU.s 			page 19


 749:Generated_Source\PSoC6\pdl\drivers\peripheral\scb/cy_scb_common.h **** 
 750:Generated_Source\PSoC6\pdl\drivers\peripheral\scb/cy_scb_common.h **** /*******************************************************************************
 751:Generated_Source\PSoC6\pdl\drivers\peripheral\scb/cy_scb_common.h **** * Function Name: Cy_SCB_GetNumInTxFifo
 752:Generated_Source\PSoC6\pdl\drivers\peripheral\scb/cy_scb_common.h **** ****************************************************************************//**
 753:Generated_Source\PSoC6\pdl\drivers\peripheral\scb/cy_scb_common.h **** *
 754:Generated_Source\PSoC6\pdl\drivers\peripheral\scb/cy_scb_common.h **** * Returns the number of data elements currently in the TX FIFO.
 755:Generated_Source\PSoC6\pdl\drivers\peripheral\scb/cy_scb_common.h **** *
 756:Generated_Source\PSoC6\pdl\drivers\peripheral\scb/cy_scb_common.h **** * \param base
 757:Generated_Source\PSoC6\pdl\drivers\peripheral\scb/cy_scb_common.h **** * The pointer to the SCB instance.
 758:Generated_Source\PSoC6\pdl\drivers\peripheral\scb/cy_scb_common.h **** *
 759:Generated_Source\PSoC6\pdl\drivers\peripheral\scb/cy_scb_common.h **** * \return
 760:Generated_Source\PSoC6\pdl\drivers\peripheral\scb/cy_scb_common.h **** * The number or data elements in the TX FIFO.
 761:Generated_Source\PSoC6\pdl\drivers\peripheral\scb/cy_scb_common.h **** *
 762:Generated_Source\PSoC6\pdl\drivers\peripheral\scb/cy_scb_common.h **** *******************************************************************************/
 763:Generated_Source\PSoC6\pdl\drivers\peripheral\scb/cy_scb_common.h **** __STATIC_INLINE uint32_t Cy_SCB_GetNumInTxFifo(CySCB_Type const *base)
 764:Generated_Source\PSoC6\pdl\drivers\peripheral\scb/cy_scb_common.h **** {
 271              		.loc 1 764 0
 272              		.cfi_startproc
 273              		@ args = 0, pretend = 0, frame = 8
 274              		@ frame_needed = 1, uses_anonymous_args = 0
 275              		@ link register save eliminated.
 276 0000 80B4     		push	{r7}
 277              		.cfi_def_cfa_offset 4
 278              		.cfi_offset 7, -4
 279 0002 83B0     		sub	sp, sp, #12
 280              		.cfi_def_cfa_offset 16
 281 0004 00AF     		add	r7, sp, #0
 282              		.cfi_def_cfa_register 7
 283 0006 7860     		str	r0, [r7, #4]
 765:Generated_Source\PSoC6\pdl\drivers\peripheral\scb/cy_scb_common.h ****     return _FLD2VAL(SCB_TX_FIFO_STATUS_USED, SCB_TX_FIFO_STATUS(base));
 284              		.loc 1 765 0
 285 0008 7B68     		ldr	r3, [r7, #4]
 286 000a D3F80832 		ldr	r3, [r3, #520]
 287 000e C3F30803 		ubfx	r3, r3, #0, #9
 766:Generated_Source\PSoC6\pdl\drivers\peripheral\scb/cy_scb_common.h **** }
 288              		.loc 1 766 0
 289 0012 1846     		mov	r0, r3
 290 0014 0C37     		adds	r7, r7, #12
 291              		.cfi_def_cfa_offset 4
 292 0016 BD46     		mov	sp, r7
 293              		.cfi_def_cfa_register 13
 294              		@ sp needed
 295 0018 5DF8047B 		ldr	r7, [sp], #4
 296              		.cfi_restore 7
 297              		.cfi_def_cfa_offset 0
 298 001c 7047     		bx	lr
 299              		.cfi_endproc
 300              	.LFE173:
 301              		.size	Cy_SCB_GetNumInTxFifo, .-Cy_SCB_GetNumInTxFifo
 302 001e 00BF     		.section	.text.Cy_SCB_GetTxSrValid,"ax",%progbits
 303              		.align	2
 304              		.thumb
 305              		.thumb_func
 306              		.type	Cy_SCB_GetTxSrValid, %function
 307              	Cy_SCB_GetTxSrValid:
 308              	.LFB174:
 767:Generated_Source\PSoC6\pdl\drivers\peripheral\scb/cy_scb_common.h **** 
ARM GAS  C:\Users\tmj32\AppData\Local\Temp\ccenHtUU.s 			page 20


 768:Generated_Source\PSoC6\pdl\drivers\peripheral\scb/cy_scb_common.h **** 
 769:Generated_Source\PSoC6\pdl\drivers\peripheral\scb/cy_scb_common.h **** /*******************************************************************************
 770:Generated_Source\PSoC6\pdl\drivers\peripheral\scb/cy_scb_common.h **** * Function Name: Cy_SCB_GetTxSrValid
 771:Generated_Source\PSoC6\pdl\drivers\peripheral\scb/cy_scb_common.h **** ****************************************************************************//**
 772:Generated_Source\PSoC6\pdl\drivers\peripheral\scb/cy_scb_common.h **** *
 773:Generated_Source\PSoC6\pdl\drivers\peripheral\scb/cy_scb_common.h **** * Returns the status of the TX FIFO Shift Register valid bit.
 774:Generated_Source\PSoC6\pdl\drivers\peripheral\scb/cy_scb_common.h **** *
 775:Generated_Source\PSoC6\pdl\drivers\peripheral\scb/cy_scb_common.h **** * \param base
 776:Generated_Source\PSoC6\pdl\drivers\peripheral\scb/cy_scb_common.h **** * The pointer to the SCB instance.
 777:Generated_Source\PSoC6\pdl\drivers\peripheral\scb/cy_scb_common.h **** *
 778:Generated_Source\PSoC6\pdl\drivers\peripheral\scb/cy_scb_common.h **** * \return
 779:Generated_Source\PSoC6\pdl\drivers\peripheral\scb/cy_scb_common.h **** * 1 - TX shift register valid; 0 - TX shift register not valid.
 780:Generated_Source\PSoC6\pdl\drivers\peripheral\scb/cy_scb_common.h **** *
 781:Generated_Source\PSoC6\pdl\drivers\peripheral\scb/cy_scb_common.h **** *******************************************************************************/
 782:Generated_Source\PSoC6\pdl\drivers\peripheral\scb/cy_scb_common.h **** __STATIC_INLINE uint32_t Cy_SCB_GetTxSrValid(CySCB_Type const *base)
 783:Generated_Source\PSoC6\pdl\drivers\peripheral\scb/cy_scb_common.h **** {
 309              		.loc 1 783 0
 310              		.cfi_startproc
 311              		@ args = 0, pretend = 0, frame = 8
 312              		@ frame_needed = 1, uses_anonymous_args = 0
 313              		@ link register save eliminated.
 314 0000 80B4     		push	{r7}
 315              		.cfi_def_cfa_offset 4
 316              		.cfi_offset 7, -4
 317 0002 83B0     		sub	sp, sp, #12
 318              		.cfi_def_cfa_offset 16
 319 0004 00AF     		add	r7, sp, #0
 320              		.cfi_def_cfa_register 7
 321 0006 7860     		str	r0, [r7, #4]
 784:Generated_Source\PSoC6\pdl\drivers\peripheral\scb/cy_scb_common.h ****     return _FLD2VAL(SCB_TX_FIFO_STATUS_SR_VALID, SCB_TX_FIFO_STATUS(base));
 322              		.loc 1 784 0
 323 0008 7B68     		ldr	r3, [r7, #4]
 324 000a D3F80832 		ldr	r3, [r3, #520]
 325 000e 03F40043 		and	r3, r3, #32768
 326 0012 DB0B     		lsrs	r3, r3, #15
 785:Generated_Source\PSoC6\pdl\drivers\peripheral\scb/cy_scb_common.h **** }
 327              		.loc 1 785 0
 328 0014 1846     		mov	r0, r3
 329 0016 0C37     		adds	r7, r7, #12
 330              		.cfi_def_cfa_offset 4
 331 0018 BD46     		mov	sp, r7
 332              		.cfi_def_cfa_register 13
 333              		@ sp needed
 334 001a 5DF8047B 		ldr	r7, [sp], #4
 335              		.cfi_restore 7
 336              		.cfi_def_cfa_offset 0
 337 001e 7047     		bx	lr
 338              		.cfi_endproc
 339              	.LFE174:
 340              		.size	Cy_SCB_GetTxSrValid, .-Cy_SCB_GetTxSrValid
 341              		.section	.text.Cy_SCB_IsTxComplete,"ax",%progbits
 342              		.align	2
 343              		.thumb
 344              		.thumb_func
 345              		.type	Cy_SCB_IsTxComplete, %function
 346              	Cy_SCB_IsTxComplete:
 347              	.LFB175:
ARM GAS  C:\Users\tmj32\AppData\Local\Temp\ccenHtUU.s 			page 21


 786:Generated_Source\PSoC6\pdl\drivers\peripheral\scb/cy_scb_common.h **** 
 787:Generated_Source\PSoC6\pdl\drivers\peripheral\scb/cy_scb_common.h **** 
 788:Generated_Source\PSoC6\pdl\drivers\peripheral\scb/cy_scb_common.h **** /*******************************************************************************
 789:Generated_Source\PSoC6\pdl\drivers\peripheral\scb/cy_scb_common.h **** * Function Name: Cy_SCB_IsTxComplete
 790:Generated_Source\PSoC6\pdl\drivers\peripheral\scb/cy_scb_common.h **** ****************************************************************************//**
 791:Generated_Source\PSoC6\pdl\drivers\peripheral\scb/cy_scb_common.h **** *
 792:Generated_Source\PSoC6\pdl\drivers\peripheral\scb/cy_scb_common.h **** * Checks whether the TX FIFO and Shifter are empty and there is no more data to send.
 793:Generated_Source\PSoC6\pdl\drivers\peripheral\scb/cy_scb_common.h **** *
 794:Generated_Source\PSoC6\pdl\drivers\peripheral\scb/cy_scb_common.h **** * \param base
 795:Generated_Source\PSoC6\pdl\drivers\peripheral\scb/cy_scb_common.h **** * Pointer to SPI the SCB instance.
 796:Generated_Source\PSoC6\pdl\drivers\peripheral\scb/cy_scb_common.h **** *
 797:Generated_Source\PSoC6\pdl\drivers\peripheral\scb/cy_scb_common.h **** * \return
 798:Generated_Source\PSoC6\pdl\drivers\peripheral\scb/cy_scb_common.h **** * If true, transmission complete. If false, transmission is not complete.
 799:Generated_Source\PSoC6\pdl\drivers\peripheral\scb/cy_scb_common.h **** *
 800:Generated_Source\PSoC6\pdl\drivers\peripheral\scb/cy_scb_common.h **** *******************************************************************************/
 801:Generated_Source\PSoC6\pdl\drivers\peripheral\scb/cy_scb_common.h **** __STATIC_INLINE bool Cy_SCB_IsTxComplete(CySCB_Type const *base)
 802:Generated_Source\PSoC6\pdl\drivers\peripheral\scb/cy_scb_common.h **** {
 348              		.loc 1 802 0
 349              		.cfi_startproc
 350              		@ args = 0, pretend = 0, frame = 8
 351              		@ frame_needed = 1, uses_anonymous_args = 0
 352 0000 90B5     		push	{r4, r7, lr}
 353              		.cfi_def_cfa_offset 12
 354              		.cfi_offset 4, -12
 355              		.cfi_offset 7, -8
 356              		.cfi_offset 14, -4
 357 0002 83B0     		sub	sp, sp, #12
 358              		.cfi_def_cfa_offset 24
 359 0004 00AF     		add	r7, sp, #0
 360              		.cfi_def_cfa_register 7
 361 0006 7860     		str	r0, [r7, #4]
 803:Generated_Source\PSoC6\pdl\drivers\peripheral\scb/cy_scb_common.h ****      return (0UL == (Cy_SCB_GetNumInTxFifo(base) + Cy_SCB_GetTxSrValid(base)));
 362              		.loc 1 803 0
 363 0008 7868     		ldr	r0, [r7, #4]
 364 000a FFF7FEFF 		bl	Cy_SCB_GetNumInTxFifo
 365 000e 0446     		mov	r4, r0
 366 0010 7868     		ldr	r0, [r7, #4]
 367 0012 FFF7FEFF 		bl	Cy_SCB_GetTxSrValid
 368 0016 0346     		mov	r3, r0
 369 0018 2344     		add	r3, r3, r4
 370 001a 002B     		cmp	r3, #0
 371 001c 0CBF     		ite	eq
 372 001e 0123     		moveq	r3, #1
 373 0020 0023     		movne	r3, #0
 374 0022 DBB2     		uxtb	r3, r3
 804:Generated_Source\PSoC6\pdl\drivers\peripheral\scb/cy_scb_common.h **** }
 375              		.loc 1 804 0
 376 0024 1846     		mov	r0, r3
 377 0026 0C37     		adds	r7, r7, #12
 378              		.cfi_def_cfa_offset 12
 379 0028 BD46     		mov	sp, r7
 380              		.cfi_def_cfa_register 13
 381              		@ sp needed
 382 002a 90BD     		pop	{r4, r7, pc}
 383              		.cfi_endproc
 384              	.LFE175:
 385              		.size	Cy_SCB_IsTxComplete, .-Cy_SCB_IsTxComplete
ARM GAS  C:\Users\tmj32\AppData\Local\Temp\ccenHtUU.s 			page 22


 386              		.section	.text.Cy_SCB_ClearTxFifo,"ax",%progbits
 387              		.align	2
 388              		.thumb
 389              		.thumb_func
 390              		.type	Cy_SCB_ClearTxFifo, %function
 391              	Cy_SCB_ClearTxFifo:
 392              	.LFB176:
 805:Generated_Source\PSoC6\pdl\drivers\peripheral\scb/cy_scb_common.h **** 
 806:Generated_Source\PSoC6\pdl\drivers\peripheral\scb/cy_scb_common.h **** 
 807:Generated_Source\PSoC6\pdl\drivers\peripheral\scb/cy_scb_common.h **** /*******************************************************************************
 808:Generated_Source\PSoC6\pdl\drivers\peripheral\scb/cy_scb_common.h **** * Function Name: Cy_SCB_ClearTxFifo
 809:Generated_Source\PSoC6\pdl\drivers\peripheral\scb/cy_scb_common.h **** ****************************************************************************//**
 810:Generated_Source\PSoC6\pdl\drivers\peripheral\scb/cy_scb_common.h **** *
 811:Generated_Source\PSoC6\pdl\drivers\peripheral\scb/cy_scb_common.h **** * Clears the TX FIFO.
 812:Generated_Source\PSoC6\pdl\drivers\peripheral\scb/cy_scb_common.h **** *
 813:Generated_Source\PSoC6\pdl\drivers\peripheral\scb/cy_scb_common.h **** * \param base
 814:Generated_Source\PSoC6\pdl\drivers\peripheral\scb/cy_scb_common.h **** * The pointer to the SCB instance.
 815:Generated_Source\PSoC6\pdl\drivers\peripheral\scb/cy_scb_common.h **** *
 816:Generated_Source\PSoC6\pdl\drivers\peripheral\scb/cy_scb_common.h **** * \note
 817:Generated_Source\PSoC6\pdl\drivers\peripheral\scb/cy_scb_common.h **** * The TX FIFO clear operation also clears the shift register. Thus the shifter
 818:Generated_Source\PSoC6\pdl\drivers\peripheral\scb/cy_scb_common.h **** * could be cleared in the middle of a data element transfer. Thia results in
 819:Generated_Source\PSoC6\pdl\drivers\peripheral\scb/cy_scb_common.h **** * "ones" being sent on the bus for the remainder of the transfer.
 820:Generated_Source\PSoC6\pdl\drivers\peripheral\scb/cy_scb_common.h **** *
 821:Generated_Source\PSoC6\pdl\drivers\peripheral\scb/cy_scb_common.h **** *******************************************************************************/
 822:Generated_Source\PSoC6\pdl\drivers\peripheral\scb/cy_scb_common.h **** __STATIC_INLINE void Cy_SCB_ClearTxFifo(CySCB_Type *base)
 823:Generated_Source\PSoC6\pdl\drivers\peripheral\scb/cy_scb_common.h **** {
 393              		.loc 1 823 0
 394              		.cfi_startproc
 395              		@ args = 0, pretend = 0, frame = 8
 396              		@ frame_needed = 1, uses_anonymous_args = 0
 397              		@ link register save eliminated.
 398 0000 80B4     		push	{r7}
 399              		.cfi_def_cfa_offset 4
 400              		.cfi_offset 7, -4
 401 0002 83B0     		sub	sp, sp, #12
 402              		.cfi_def_cfa_offset 16
 403 0004 00AF     		add	r7, sp, #0
 404              		.cfi_def_cfa_register 7
 405 0006 7860     		str	r0, [r7, #4]
 824:Generated_Source\PSoC6\pdl\drivers\peripheral\scb/cy_scb_common.h ****     SCB_TX_FIFO_CTRL(base) |= (uint32_t)  SCB_TX_FIFO_CTRL_CLEAR_Msk;
 406              		.loc 1 824 0
 407 0008 7B68     		ldr	r3, [r7, #4]
 408 000a D3F80432 		ldr	r3, [r3, #516]
 409 000e 43F48032 		orr	r2, r3, #65536
 410 0012 7B68     		ldr	r3, [r7, #4]
 411 0014 C3F80422 		str	r2, [r3, #516]
 825:Generated_Source\PSoC6\pdl\drivers\peripheral\scb/cy_scb_common.h ****     SCB_TX_FIFO_CTRL(base) &= (uint32_t) ~SCB_TX_FIFO_CTRL_CLEAR_Msk;
 412              		.loc 1 825 0
 413 0018 7B68     		ldr	r3, [r7, #4]
 414 001a D3F80432 		ldr	r3, [r3, #516]
 415 001e 23F48032 		bic	r2, r3, #65536
 416 0022 7B68     		ldr	r3, [r7, #4]
 417 0024 C3F80422 		str	r2, [r3, #516]
 826:Generated_Source\PSoC6\pdl\drivers\peripheral\scb/cy_scb_common.h **** 
 827:Generated_Source\PSoC6\pdl\drivers\peripheral\scb/cy_scb_common.h ****     (void) SCB_TX_FIFO_CTRL(base);
 418              		.loc 1 827 0
 419 0028 7B68     		ldr	r3, [r7, #4]
ARM GAS  C:\Users\tmj32\AppData\Local\Temp\ccenHtUU.s 			page 23


 420 002a D3F80432 		ldr	r3, [r3, #516]
 828:Generated_Source\PSoC6\pdl\drivers\peripheral\scb/cy_scb_common.h **** }
 421              		.loc 1 828 0
 422 002e 00BF     		nop
 423 0030 0C37     		adds	r7, r7, #12
 424              		.cfi_def_cfa_offset 4
 425 0032 BD46     		mov	sp, r7
 426              		.cfi_def_cfa_register 13
 427              		@ sp needed
 428 0034 5DF8047B 		ldr	r7, [sp], #4
 429              		.cfi_restore 7
 430              		.cfi_def_cfa_offset 0
 431 0038 7047     		bx	lr
 432              		.cfi_endproc
 433              	.LFE176:
 434              		.size	Cy_SCB_ClearTxFifo, .-Cy_SCB_ClearTxFifo
 435 003a 00BF     		.section	.text.Cy_SCB_SetRxInterruptMask,"ax",%progbits
 436              		.align	2
 437              		.thumb
 438              		.thumb_func
 439              		.type	Cy_SCB_SetRxInterruptMask, %function
 440              	Cy_SCB_SetRxInterruptMask:
 441              	.LFB180:
 829:Generated_Source\PSoC6\pdl\drivers\peripheral\scb/cy_scb_common.h **** 
 830:Generated_Source\PSoC6\pdl\drivers\peripheral\scb/cy_scb_common.h **** 
 831:Generated_Source\PSoC6\pdl\drivers\peripheral\scb/cy_scb_common.h **** /*******************************************************************************
 832:Generated_Source\PSoC6\pdl\drivers\peripheral\scb/cy_scb_common.h **** * Function Name: Cy_SCB_SetByteMode
 833:Generated_Source\PSoC6\pdl\drivers\peripheral\scb/cy_scb_common.h **** ****************************************************************************//**
 834:Generated_Source\PSoC6\pdl\drivers\peripheral\scb/cy_scb_common.h **** *
 835:Generated_Source\PSoC6\pdl\drivers\peripheral\scb/cy_scb_common.h **** * Sets whether the RX and TX FIFOs are in byte mode.
 836:Generated_Source\PSoC6\pdl\drivers\peripheral\scb/cy_scb_common.h **** * The FIFOs are either 16-bit wide or 8-bit wide (byte mode).
 837:Generated_Source\PSoC6\pdl\drivers\peripheral\scb/cy_scb_common.h **** * When the FIFO is in byte mode it is twice as deep. See the device datasheet
 838:Generated_Source\PSoC6\pdl\drivers\peripheral\scb/cy_scb_common.h **** * for FIFO depths.
 839:Generated_Source\PSoC6\pdl\drivers\peripheral\scb/cy_scb_common.h **** *
 840:Generated_Source\PSoC6\pdl\drivers\peripheral\scb/cy_scb_common.h **** * \param base
 841:Generated_Source\PSoC6\pdl\drivers\peripheral\scb/cy_scb_common.h **** * The pointer to the SCB instance.
 842:Generated_Source\PSoC6\pdl\drivers\peripheral\scb/cy_scb_common.h **** *
 843:Generated_Source\PSoC6\pdl\drivers\peripheral\scb/cy_scb_common.h **** * \param byteMode
 844:Generated_Source\PSoC6\pdl\drivers\peripheral\scb/cy_scb_common.h **** * If true, TX and RX FIFOs are 8-bit wide. If false, the FIFOs are 16-bit wide.
 845:Generated_Source\PSoC6\pdl\drivers\peripheral\scb/cy_scb_common.h **** *
 846:Generated_Source\PSoC6\pdl\drivers\peripheral\scb/cy_scb_common.h **** *******************************************************************************/
 847:Generated_Source\PSoC6\pdl\drivers\peripheral\scb/cy_scb_common.h **** __STATIC_INLINE void Cy_SCB_SetByteMode(CySCB_Type *base, bool byteMode)
 848:Generated_Source\PSoC6\pdl\drivers\peripheral\scb/cy_scb_common.h **** {
 849:Generated_Source\PSoC6\pdl\drivers\peripheral\scb/cy_scb_common.h ****     if (byteMode)
 850:Generated_Source\PSoC6\pdl\drivers\peripheral\scb/cy_scb_common.h ****     {
 851:Generated_Source\PSoC6\pdl\drivers\peripheral\scb/cy_scb_common.h ****         SCB_CTRL(base) |=  SCB_CTRL_BYTE_MODE_Msk;
 852:Generated_Source\PSoC6\pdl\drivers\peripheral\scb/cy_scb_common.h ****     }
 853:Generated_Source\PSoC6\pdl\drivers\peripheral\scb/cy_scb_common.h ****     else
 854:Generated_Source\PSoC6\pdl\drivers\peripheral\scb/cy_scb_common.h ****     {
 855:Generated_Source\PSoC6\pdl\drivers\peripheral\scb/cy_scb_common.h ****         SCB_CTRL(base) &= ~SCB_CTRL_BYTE_MODE_Msk;
 856:Generated_Source\PSoC6\pdl\drivers\peripheral\scb/cy_scb_common.h ****     }
 857:Generated_Source\PSoC6\pdl\drivers\peripheral\scb/cy_scb_common.h **** }
 858:Generated_Source\PSoC6\pdl\drivers\peripheral\scb/cy_scb_common.h **** 
 859:Generated_Source\PSoC6\pdl\drivers\peripheral\scb/cy_scb_common.h **** 
 860:Generated_Source\PSoC6\pdl\drivers\peripheral\scb/cy_scb_common.h **** /*******************************************************************************
 861:Generated_Source\PSoC6\pdl\drivers\peripheral\scb/cy_scb_common.h **** * Function Name: Cy_SCB_GetInterruptCause
 862:Generated_Source\PSoC6\pdl\drivers\peripheral\scb/cy_scb_common.h **** ****************************************************************************//**
ARM GAS  C:\Users\tmj32\AppData\Local\Temp\ccenHtUU.s 			page 24


 863:Generated_Source\PSoC6\pdl\drivers\peripheral\scb/cy_scb_common.h **** *
 864:Generated_Source\PSoC6\pdl\drivers\peripheral\scb/cy_scb_common.h **** * Returns the mask of bits showing the source of the current triggered
 865:Generated_Source\PSoC6\pdl\drivers\peripheral\scb/cy_scb_common.h **** * interrupt. This is useful for modes of operation where an interrupt can
 866:Generated_Source\PSoC6\pdl\drivers\peripheral\scb/cy_scb_common.h **** * be generated by conditions in multiple interrupt source registers.
 867:Generated_Source\PSoC6\pdl\drivers\peripheral\scb/cy_scb_common.h **** *
 868:Generated_Source\PSoC6\pdl\drivers\peripheral\scb/cy_scb_common.h **** * \param base
 869:Generated_Source\PSoC6\pdl\drivers\peripheral\scb/cy_scb_common.h **** * The pointer to the SCB instance.
 870:Generated_Source\PSoC6\pdl\drivers\peripheral\scb/cy_scb_common.h **** *
 871:Generated_Source\PSoC6\pdl\drivers\peripheral\scb/cy_scb_common.h **** * \return
 872:Generated_Source\PSoC6\pdl\drivers\peripheral\scb/cy_scb_common.h **** * The mask with the OR of the following conditions that have been triggered.
 873:Generated_Source\PSoC6\pdl\drivers\peripheral\scb/cy_scb_common.h **** * See \ref group_scb_common_macros_intr_cause for the set of constants.
 874:Generated_Source\PSoC6\pdl\drivers\peripheral\scb/cy_scb_common.h **** *
 875:Generated_Source\PSoC6\pdl\drivers\peripheral\scb/cy_scb_common.h **** *******************************************************************************/
 876:Generated_Source\PSoC6\pdl\drivers\peripheral\scb/cy_scb_common.h **** __STATIC_INLINE uint32_t Cy_SCB_GetInterruptCause(CySCB_Type const *base)
 877:Generated_Source\PSoC6\pdl\drivers\peripheral\scb/cy_scb_common.h **** {
 878:Generated_Source\PSoC6\pdl\drivers\peripheral\scb/cy_scb_common.h ****     return (SCB_INTR_CAUSE(base));
 879:Generated_Source\PSoC6\pdl\drivers\peripheral\scb/cy_scb_common.h **** }
 880:Generated_Source\PSoC6\pdl\drivers\peripheral\scb/cy_scb_common.h **** 
 881:Generated_Source\PSoC6\pdl\drivers\peripheral\scb/cy_scb_common.h **** 
 882:Generated_Source\PSoC6\pdl\drivers\peripheral\scb/cy_scb_common.h **** /*******************************************************************************
 883:Generated_Source\PSoC6\pdl\drivers\peripheral\scb/cy_scb_common.h **** * Function Name: Cy_SCB_GetRxInterruptStatus
 884:Generated_Source\PSoC6\pdl\drivers\peripheral\scb/cy_scb_common.h **** ****************************************************************************//**
 885:Generated_Source\PSoC6\pdl\drivers\peripheral\scb/cy_scb_common.h **** *
 886:Generated_Source\PSoC6\pdl\drivers\peripheral\scb/cy_scb_common.h **** * Returns the RX interrupt request register. This register contains the current
 887:Generated_Source\PSoC6\pdl\drivers\peripheral\scb/cy_scb_common.h **** * status of the RX interrupt sources.
 888:Generated_Source\PSoC6\pdl\drivers\peripheral\scb/cy_scb_common.h **** *
 889:Generated_Source\PSoC6\pdl\drivers\peripheral\scb/cy_scb_common.h **** * \param base
 890:Generated_Source\PSoC6\pdl\drivers\peripheral\scb/cy_scb_common.h **** * The pointer to the SCB instance.
 891:Generated_Source\PSoC6\pdl\drivers\peripheral\scb/cy_scb_common.h **** *
 892:Generated_Source\PSoC6\pdl\drivers\peripheral\scb/cy_scb_common.h **** * \return
 893:Generated_Source\PSoC6\pdl\drivers\peripheral\scb/cy_scb_common.h **** * The current status of the RX interrupt sources. Each constant is a bit field
 894:Generated_Source\PSoC6\pdl\drivers\peripheral\scb/cy_scb_common.h **** * value. The value returned may have multiple bits set to indicate the
 895:Generated_Source\PSoC6\pdl\drivers\peripheral\scb/cy_scb_common.h **** * current status.
 896:Generated_Source\PSoC6\pdl\drivers\peripheral\scb/cy_scb_common.h **** * See \ref group_scb_common_macros_rx_intr for the set of constants.
 897:Generated_Source\PSoC6\pdl\drivers\peripheral\scb/cy_scb_common.h **** *
 898:Generated_Source\PSoC6\pdl\drivers\peripheral\scb/cy_scb_common.h **** *******************************************************************************/
 899:Generated_Source\PSoC6\pdl\drivers\peripheral\scb/cy_scb_common.h **** __STATIC_INLINE uint32_t Cy_SCB_GetRxInterruptStatus(CySCB_Type const *base)
 900:Generated_Source\PSoC6\pdl\drivers\peripheral\scb/cy_scb_common.h **** {
 901:Generated_Source\PSoC6\pdl\drivers\peripheral\scb/cy_scb_common.h ****     return (SCB_INTR_RX(base) & CY_SCB_RX_INTR_MASK);
 902:Generated_Source\PSoC6\pdl\drivers\peripheral\scb/cy_scb_common.h **** }
 903:Generated_Source\PSoC6\pdl\drivers\peripheral\scb/cy_scb_common.h **** 
 904:Generated_Source\PSoC6\pdl\drivers\peripheral\scb/cy_scb_common.h **** 
 905:Generated_Source\PSoC6\pdl\drivers\peripheral\scb/cy_scb_common.h **** /*******************************************************************************
 906:Generated_Source\PSoC6\pdl\drivers\peripheral\scb/cy_scb_common.h **** * Function Name: Cy_SCB_SetRxInterruptMask
 907:Generated_Source\PSoC6\pdl\drivers\peripheral\scb/cy_scb_common.h **** ****************************************************************************//**
 908:Generated_Source\PSoC6\pdl\drivers\peripheral\scb/cy_scb_common.h **** *
 909:Generated_Source\PSoC6\pdl\drivers\peripheral\scb/cy_scb_common.h **** * Writes the RX interrupt mask register. This register configures which bits
 910:Generated_Source\PSoC6\pdl\drivers\peripheral\scb/cy_scb_common.h **** * from the RX interrupt request register can trigger an interrupt event.
 911:Generated_Source\PSoC6\pdl\drivers\peripheral\scb/cy_scb_common.h **** *
 912:Generated_Source\PSoC6\pdl\drivers\peripheral\scb/cy_scb_common.h **** * \param base
 913:Generated_Source\PSoC6\pdl\drivers\peripheral\scb/cy_scb_common.h **** * The pointer to the SCB instance.
 914:Generated_Source\PSoC6\pdl\drivers\peripheral\scb/cy_scb_common.h **** *
 915:Generated_Source\PSoC6\pdl\drivers\peripheral\scb/cy_scb_common.h **** * \param interruptMask
 916:Generated_Source\PSoC6\pdl\drivers\peripheral\scb/cy_scb_common.h **** * Enabled RX interrupt sources.
 917:Generated_Source\PSoC6\pdl\drivers\peripheral\scb/cy_scb_common.h **** * See \ref group_scb_common_macros_rx_intr.
 918:Generated_Source\PSoC6\pdl\drivers\peripheral\scb/cy_scb_common.h **** *
 919:Generated_Source\PSoC6\pdl\drivers\peripheral\scb/cy_scb_common.h **** *******************************************************************************/
ARM GAS  C:\Users\tmj32\AppData\Local\Temp\ccenHtUU.s 			page 25


 920:Generated_Source\PSoC6\pdl\drivers\peripheral\scb/cy_scb_common.h **** __STATIC_INLINE void Cy_SCB_SetRxInterruptMask(CySCB_Type *base, uint32_t interruptMask)
 921:Generated_Source\PSoC6\pdl\drivers\peripheral\scb/cy_scb_common.h **** {
 442              		.loc 1 921 0
 443              		.cfi_startproc
 444              		@ args = 0, pretend = 0, frame = 8
 445              		@ frame_needed = 1, uses_anonymous_args = 0
 446 0000 80B5     		push	{r7, lr}
 447              		.cfi_def_cfa_offset 8
 448              		.cfi_offset 7, -8
 449              		.cfi_offset 14, -4
 450 0002 82B0     		sub	sp, sp, #8
 451              		.cfi_def_cfa_offset 16
 452 0004 00AF     		add	r7, sp, #0
 453              		.cfi_def_cfa_register 7
 454 0006 7860     		str	r0, [r7, #4]
 455 0008 3960     		str	r1, [r7]
 922:Generated_Source\PSoC6\pdl\drivers\peripheral\scb/cy_scb_common.h ****     CY_ASSERT_L2(CY_SCB_IS_INTR_VALID(interruptMask, CY_SCB_RX_INTR_MASK));
 456              		.loc 1 922 0
 457 000a 3B68     		ldr	r3, [r7]
 458 000c 23F43663 		bic	r3, r3, #2912
 459 0010 23F00D03 		bic	r3, r3, #13
 460 0014 002B     		cmp	r3, #0
 461 0016 04D0     		beq	.L22
 462              		.loc 1 922 0 is_stmt 0 discriminator 1
 463 0018 40F29A31 		movw	r1, #922
 464 001c 0548     		ldr	r0, .L23
 465 001e FFF7FEFF 		bl	Cy_SysLib_AssertFailed
 466              	.L22:
 923:Generated_Source\PSoC6\pdl\drivers\peripheral\scb/cy_scb_common.h **** 
 924:Generated_Source\PSoC6\pdl\drivers\peripheral\scb/cy_scb_common.h ****     SCB_INTR_RX_MASK(base) = interruptMask;
 467              		.loc 1 924 0 is_stmt 1
 468 0022 7B68     		ldr	r3, [r7, #4]
 469 0024 3A68     		ldr	r2, [r7]
 470 0026 C3F8C82F 		str	r2, [r3, #4040]
 925:Generated_Source\PSoC6\pdl\drivers\peripheral\scb/cy_scb_common.h **** }
 471              		.loc 1 925 0
 472 002a 00BF     		nop
 473 002c 0837     		adds	r7, r7, #8
 474              		.cfi_def_cfa_offset 8
 475 002e BD46     		mov	sp, r7
 476              		.cfi_def_cfa_register 13
 477              		@ sp needed
 478 0030 80BD     		pop	{r7, pc}
 479              	.L24:
 480 0032 00BF     		.align	2
 481              	.L23:
 482 0034 00000000 		.word	.LC0
 483              		.cfi_endproc
 484              	.LFE180:
 485              		.size	Cy_SCB_SetRxInterruptMask, .-Cy_SCB_SetRxInterruptMask
 486              		.section	.text.Cy_SCB_GetRxInterruptMask,"ax",%progbits
 487              		.align	2
 488              		.thumb
 489              		.thumb_func
 490              		.type	Cy_SCB_GetRxInterruptMask, %function
 491              	Cy_SCB_GetRxInterruptMask:
 492              	.LFB181:
ARM GAS  C:\Users\tmj32\AppData\Local\Temp\ccenHtUU.s 			page 26


 926:Generated_Source\PSoC6\pdl\drivers\peripheral\scb/cy_scb_common.h **** 
 927:Generated_Source\PSoC6\pdl\drivers\peripheral\scb/cy_scb_common.h **** 
 928:Generated_Source\PSoC6\pdl\drivers\peripheral\scb/cy_scb_common.h **** /*******************************************************************************
 929:Generated_Source\PSoC6\pdl\drivers\peripheral\scb/cy_scb_common.h **** * Function Name: Cy_SCB_GetRxInterruptMask
 930:Generated_Source\PSoC6\pdl\drivers\peripheral\scb/cy_scb_common.h **** ****************************************************************************//**
 931:Generated_Source\PSoC6\pdl\drivers\peripheral\scb/cy_scb_common.h **** *
 932:Generated_Source\PSoC6\pdl\drivers\peripheral\scb/cy_scb_common.h **** * Returns the RX interrupt mask register. This register specifies which bits
 933:Generated_Source\PSoC6\pdl\drivers\peripheral\scb/cy_scb_common.h **** * from the RX interrupt request register trigger can an interrupt event.
 934:Generated_Source\PSoC6\pdl\drivers\peripheral\scb/cy_scb_common.h **** *
 935:Generated_Source\PSoC6\pdl\drivers\peripheral\scb/cy_scb_common.h **** * \param base
 936:Generated_Source\PSoC6\pdl\drivers\peripheral\scb/cy_scb_common.h **** * The pointer to the SCB instance.
 937:Generated_Source\PSoC6\pdl\drivers\peripheral\scb/cy_scb_common.h **** *
 938:Generated_Source\PSoC6\pdl\drivers\peripheral\scb/cy_scb_common.h **** * \return
 939:Generated_Source\PSoC6\pdl\drivers\peripheral\scb/cy_scb_common.h **** * Enabled RX interrupt sources.
 940:Generated_Source\PSoC6\pdl\drivers\peripheral\scb/cy_scb_common.h **** * See \ref group_scb_common_macros_rx_intr for the set of constants.
 941:Generated_Source\PSoC6\pdl\drivers\peripheral\scb/cy_scb_common.h **** *
 942:Generated_Source\PSoC6\pdl\drivers\peripheral\scb/cy_scb_common.h **** *******************************************************************************/
 943:Generated_Source\PSoC6\pdl\drivers\peripheral\scb/cy_scb_common.h **** __STATIC_INLINE uint32_t Cy_SCB_GetRxInterruptMask(CySCB_Type const *base)
 944:Generated_Source\PSoC6\pdl\drivers\peripheral\scb/cy_scb_common.h **** {
 493              		.loc 1 944 0
 494              		.cfi_startproc
 495              		@ args = 0, pretend = 0, frame = 8
 496              		@ frame_needed = 1, uses_anonymous_args = 0
 497              		@ link register save eliminated.
 498 0000 80B4     		push	{r7}
 499              		.cfi_def_cfa_offset 4
 500              		.cfi_offset 7, -4
 501 0002 83B0     		sub	sp, sp, #12
 502              		.cfi_def_cfa_offset 16
 503 0004 00AF     		add	r7, sp, #0
 504              		.cfi_def_cfa_register 7
 505 0006 7860     		str	r0, [r7, #4]
 945:Generated_Source\PSoC6\pdl\drivers\peripheral\scb/cy_scb_common.h ****     return (SCB_INTR_RX_MASK(base));
 506              		.loc 1 945 0
 507 0008 7B68     		ldr	r3, [r7, #4]
 508 000a D3F8C83F 		ldr	r3, [r3, #4040]
 946:Generated_Source\PSoC6\pdl\drivers\peripheral\scb/cy_scb_common.h **** }
 509              		.loc 1 946 0
 510 000e 1846     		mov	r0, r3
 511 0010 0C37     		adds	r7, r7, #12
 512              		.cfi_def_cfa_offset 4
 513 0012 BD46     		mov	sp, r7
 514              		.cfi_def_cfa_register 13
 515              		@ sp needed
 516 0014 5DF8047B 		ldr	r7, [sp], #4
 517              		.cfi_restore 7
 518              		.cfi_def_cfa_offset 0
 519 0018 7047     		bx	lr
 520              		.cfi_endproc
 521              	.LFE181:
 522              		.size	Cy_SCB_GetRxInterruptMask, .-Cy_SCB_GetRxInterruptMask
 523 001a 00BF     		.section	.text.Cy_SCB_GetRxInterruptStatusMasked,"ax",%progbits
 524              		.align	2
 525              		.thumb
 526              		.thumb_func
 527              		.type	Cy_SCB_GetRxInterruptStatusMasked, %function
 528              	Cy_SCB_GetRxInterruptStatusMasked:
ARM GAS  C:\Users\tmj32\AppData\Local\Temp\ccenHtUU.s 			page 27


 529              	.LFB182:
 947:Generated_Source\PSoC6\pdl\drivers\peripheral\scb/cy_scb_common.h **** 
 948:Generated_Source\PSoC6\pdl\drivers\peripheral\scb/cy_scb_common.h **** 
 949:Generated_Source\PSoC6\pdl\drivers\peripheral\scb/cy_scb_common.h **** /*******************************************************************************
 950:Generated_Source\PSoC6\pdl\drivers\peripheral\scb/cy_scb_common.h **** * Function Name: Cy_SCB_GetRxInterruptStatusMasked
 951:Generated_Source\PSoC6\pdl\drivers\peripheral\scb/cy_scb_common.h **** ****************************************************************************//**
 952:Generated_Source\PSoC6\pdl\drivers\peripheral\scb/cy_scb_common.h **** *
 953:Generated_Source\PSoC6\pdl\drivers\peripheral\scb/cy_scb_common.h **** * Returns the RX interrupt masked request register. This register contains
 954:Generated_Source\PSoC6\pdl\drivers\peripheral\scb/cy_scb_common.h **** * a logical AND of corresponding bits from the RX interrupt request and
 955:Generated_Source\PSoC6\pdl\drivers\peripheral\scb/cy_scb_common.h **** * mask registers.
 956:Generated_Source\PSoC6\pdl\drivers\peripheral\scb/cy_scb_common.h **** * This function is intended to be used in the interrupt service routine to
 957:Generated_Source\PSoC6\pdl\drivers\peripheral\scb/cy_scb_common.h **** * identify which of the enabled RX interrupt sources caused the interrupt event.
 958:Generated_Source\PSoC6\pdl\drivers\peripheral\scb/cy_scb_common.h **** *
 959:Generated_Source\PSoC6\pdl\drivers\peripheral\scb/cy_scb_common.h **** * \param base
 960:Generated_Source\PSoC6\pdl\drivers\peripheral\scb/cy_scb_common.h **** * The pointer to the SCB instance.
 961:Generated_Source\PSoC6\pdl\drivers\peripheral\scb/cy_scb_common.h **** *
 962:Generated_Source\PSoC6\pdl\drivers\peripheral\scb/cy_scb_common.h **** * \return
 963:Generated_Source\PSoC6\pdl\drivers\peripheral\scb/cy_scb_common.h **** * The current status of enabled RX interrupt sources.
 964:Generated_Source\PSoC6\pdl\drivers\peripheral\scb/cy_scb_common.h **** * See \ref group_scb_common_macros_rx_intr for the set of constants.
 965:Generated_Source\PSoC6\pdl\drivers\peripheral\scb/cy_scb_common.h **** *
 966:Generated_Source\PSoC6\pdl\drivers\peripheral\scb/cy_scb_common.h **** *******************************************************************************/
 967:Generated_Source\PSoC6\pdl\drivers\peripheral\scb/cy_scb_common.h **** __STATIC_INLINE uint32_t Cy_SCB_GetRxInterruptStatusMasked(CySCB_Type const *base)
 968:Generated_Source\PSoC6\pdl\drivers\peripheral\scb/cy_scb_common.h **** {
 530              		.loc 1 968 0
 531              		.cfi_startproc
 532              		@ args = 0, pretend = 0, frame = 8
 533              		@ frame_needed = 1, uses_anonymous_args = 0
 534              		@ link register save eliminated.
 535 0000 80B4     		push	{r7}
 536              		.cfi_def_cfa_offset 4
 537              		.cfi_offset 7, -4
 538 0002 83B0     		sub	sp, sp, #12
 539              		.cfi_def_cfa_offset 16
 540 0004 00AF     		add	r7, sp, #0
 541              		.cfi_def_cfa_register 7
 542 0006 7860     		str	r0, [r7, #4]
 969:Generated_Source\PSoC6\pdl\drivers\peripheral\scb/cy_scb_common.h ****     return (SCB_INTR_RX_MASKED(base));
 543              		.loc 1 969 0
 544 0008 7B68     		ldr	r3, [r7, #4]
 545 000a D3F8CC3F 		ldr	r3, [r3, #4044]
 970:Generated_Source\PSoC6\pdl\drivers\peripheral\scb/cy_scb_common.h **** }
 546              		.loc 1 970 0
 547 000e 1846     		mov	r0, r3
 548 0010 0C37     		adds	r7, r7, #12
 549              		.cfi_def_cfa_offset 4
 550 0012 BD46     		mov	sp, r7
 551              		.cfi_def_cfa_register 13
 552              		@ sp needed
 553 0014 5DF8047B 		ldr	r7, [sp], #4
 554              		.cfi_restore 7
 555              		.cfi_def_cfa_offset 0
 556 0018 7047     		bx	lr
 557              		.cfi_endproc
 558              	.LFE182:
 559              		.size	Cy_SCB_GetRxInterruptStatusMasked, .-Cy_SCB_GetRxInterruptStatusMasked
 560 001a 00BF     		.section	.text.Cy_SCB_ClearRxInterrupt,"ax",%progbits
 561              		.align	2
ARM GAS  C:\Users\tmj32\AppData\Local\Temp\ccenHtUU.s 			page 28


 562              		.thumb
 563              		.thumb_func
 564              		.type	Cy_SCB_ClearRxInterrupt, %function
 565              	Cy_SCB_ClearRxInterrupt:
 566              	.LFB183:
 971:Generated_Source\PSoC6\pdl\drivers\peripheral\scb/cy_scb_common.h **** 
 972:Generated_Source\PSoC6\pdl\drivers\peripheral\scb/cy_scb_common.h **** 
 973:Generated_Source\PSoC6\pdl\drivers\peripheral\scb/cy_scb_common.h **** /*******************************************************************************
 974:Generated_Source\PSoC6\pdl\drivers\peripheral\scb/cy_scb_common.h **** * Function Name: Cy_SCB_ClearRxInterrupt
 975:Generated_Source\PSoC6\pdl\drivers\peripheral\scb/cy_scb_common.h **** ****************************************************************************//**
 976:Generated_Source\PSoC6\pdl\drivers\peripheral\scb/cy_scb_common.h **** *
 977:Generated_Source\PSoC6\pdl\drivers\peripheral\scb/cy_scb_common.h **** * Clears the RX interrupt sources in the interrupt request register.
 978:Generated_Source\PSoC6\pdl\drivers\peripheral\scb/cy_scb_common.h **** *
 979:Generated_Source\PSoC6\pdl\drivers\peripheral\scb/cy_scb_common.h **** * \param base
 980:Generated_Source\PSoC6\pdl\drivers\peripheral\scb/cy_scb_common.h **** * The pointer to the SCB instance.
 981:Generated_Source\PSoC6\pdl\drivers\peripheral\scb/cy_scb_common.h **** *
 982:Generated_Source\PSoC6\pdl\drivers\peripheral\scb/cy_scb_common.h **** * \param interruptMask
 983:Generated_Source\PSoC6\pdl\drivers\peripheral\scb/cy_scb_common.h **** * The RX interrupt sources to be cleared.
 984:Generated_Source\PSoC6\pdl\drivers\peripheral\scb/cy_scb_common.h **** * See \ref group_scb_common_macros_rx_intr for the set of constants.
 985:Generated_Source\PSoC6\pdl\drivers\peripheral\scb/cy_scb_common.h **** *
 986:Generated_Source\PSoC6\pdl\drivers\peripheral\scb/cy_scb_common.h **** * \note
 987:Generated_Source\PSoC6\pdl\drivers\peripheral\scb/cy_scb_common.h **** *  - CY_SCB_INTR_RX_FIFO_LEVEL interrupt source is not cleared when
 988:Generated_Source\PSoC6\pdl\drivers\peripheral\scb/cy_scb_common.h **** *    the RX FIFO has more entries than the level.
 989:Generated_Source\PSoC6\pdl\drivers\peripheral\scb/cy_scb_common.h **** *  - CY_SCB_INTR_RX_NOT_EMPTY interrupt source is not cleared when the
 990:Generated_Source\PSoC6\pdl\drivers\peripheral\scb/cy_scb_common.h **** *    RX FIFO is not empty.
 991:Generated_Source\PSoC6\pdl\drivers\peripheral\scb/cy_scb_common.h **** *  - CY_SCB_INTR_RX_FULL interrupt source is not cleared when the
 992:Generated_Source\PSoC6\pdl\drivers\peripheral\scb/cy_scb_common.h **** *    RX FIFO is full.
 993:Generated_Source\PSoC6\pdl\drivers\peripheral\scb/cy_scb_common.h **** *
 994:Generated_Source\PSoC6\pdl\drivers\peripheral\scb/cy_scb_common.h **** *******************************************************************************/
 995:Generated_Source\PSoC6\pdl\drivers\peripheral\scb/cy_scb_common.h **** __STATIC_INLINE void Cy_SCB_ClearRxInterrupt(CySCB_Type *base, uint32_t interruptMask)
 996:Generated_Source\PSoC6\pdl\drivers\peripheral\scb/cy_scb_common.h **** {
 567              		.loc 1 996 0
 568              		.cfi_startproc
 569              		@ args = 0, pretend = 0, frame = 8
 570              		@ frame_needed = 1, uses_anonymous_args = 0
 571 0000 80B5     		push	{r7, lr}
 572              		.cfi_def_cfa_offset 8
 573              		.cfi_offset 7, -8
 574              		.cfi_offset 14, -4
 575 0002 82B0     		sub	sp, sp, #8
 576              		.cfi_def_cfa_offset 16
 577 0004 00AF     		add	r7, sp, #0
 578              		.cfi_def_cfa_register 7
 579 0006 7860     		str	r0, [r7, #4]
 580 0008 3960     		str	r1, [r7]
 997:Generated_Source\PSoC6\pdl\drivers\peripheral\scb/cy_scb_common.h ****     CY_ASSERT_L2(CY_SCB_IS_INTR_VALID(interruptMask, CY_SCB_RX_INTR_MASK));
 581              		.loc 1 997 0
 582 000a 3B68     		ldr	r3, [r7]
 583 000c 23F43663 		bic	r3, r3, #2912
 584 0010 23F00D03 		bic	r3, r3, #13
 585 0014 002B     		cmp	r3, #0
 586 0016 04D0     		beq	.L30
 587              		.loc 1 997 0 is_stmt 0 discriminator 1
 588 0018 40F2E531 		movw	r1, #997
 589 001c 0648     		ldr	r0, .L31
 590 001e FFF7FEFF 		bl	Cy_SysLib_AssertFailed
 591              	.L30:
ARM GAS  C:\Users\tmj32\AppData\Local\Temp\ccenHtUU.s 			page 29


 998:Generated_Source\PSoC6\pdl\drivers\peripheral\scb/cy_scb_common.h **** 
 999:Generated_Source\PSoC6\pdl\drivers\peripheral\scb/cy_scb_common.h ****     SCB_INTR_RX(base) = interruptMask;
 592              		.loc 1 999 0 is_stmt 1
 593 0022 7B68     		ldr	r3, [r7, #4]
 594 0024 3A68     		ldr	r2, [r7]
 595 0026 C3F8C02F 		str	r2, [r3, #4032]
1000:Generated_Source\PSoC6\pdl\drivers\peripheral\scb/cy_scb_common.h ****     (void) SCB_INTR_RX(base);
 596              		.loc 1 1000 0
 597 002a 7B68     		ldr	r3, [r7, #4]
 598 002c D3F8C03F 		ldr	r3, [r3, #4032]
1001:Generated_Source\PSoC6\pdl\drivers\peripheral\scb/cy_scb_common.h **** }
 599              		.loc 1 1001 0
 600 0030 00BF     		nop
 601 0032 0837     		adds	r7, r7, #8
 602              		.cfi_def_cfa_offset 8
 603 0034 BD46     		mov	sp, r7
 604              		.cfi_def_cfa_register 13
 605              		@ sp needed
 606 0036 80BD     		pop	{r7, pc}
 607              	.L32:
 608              		.align	2
 609              	.L31:
 610 0038 00000000 		.word	.LC0
 611              		.cfi_endproc
 612              	.LFE183:
 613              		.size	Cy_SCB_ClearRxInterrupt, .-Cy_SCB_ClearRxInterrupt
 614              		.section	.text.Cy_SCB_SetTxInterruptMask,"ax",%progbits
 615              		.align	2
 616              		.thumb
 617              		.thumb_func
 618              		.type	Cy_SCB_SetTxInterruptMask, %function
 619              	Cy_SCB_SetTxInterruptMask:
 620              	.LFB186:
1002:Generated_Source\PSoC6\pdl\drivers\peripheral\scb/cy_scb_common.h **** 
1003:Generated_Source\PSoC6\pdl\drivers\peripheral\scb/cy_scb_common.h **** 
1004:Generated_Source\PSoC6\pdl\drivers\peripheral\scb/cy_scb_common.h **** /*******************************************************************************
1005:Generated_Source\PSoC6\pdl\drivers\peripheral\scb/cy_scb_common.h **** * Function Name: Cy_SCB_SetRxInterrupt
1006:Generated_Source\PSoC6\pdl\drivers\peripheral\scb/cy_scb_common.h **** ****************************************************************************//**
1007:Generated_Source\PSoC6\pdl\drivers\peripheral\scb/cy_scb_common.h **** *
1008:Generated_Source\PSoC6\pdl\drivers\peripheral\scb/cy_scb_common.h **** * Sets the RX interrupt sources in the interrupt request register.
1009:Generated_Source\PSoC6\pdl\drivers\peripheral\scb/cy_scb_common.h **** *
1010:Generated_Source\PSoC6\pdl\drivers\peripheral\scb/cy_scb_common.h **** * \param base
1011:Generated_Source\PSoC6\pdl\drivers\peripheral\scb/cy_scb_common.h **** * The pointer to the SCB instance.
1012:Generated_Source\PSoC6\pdl\drivers\peripheral\scb/cy_scb_common.h **** *
1013:Generated_Source\PSoC6\pdl\drivers\peripheral\scb/cy_scb_common.h **** * \param interruptMask
1014:Generated_Source\PSoC6\pdl\drivers\peripheral\scb/cy_scb_common.h **** * The RX interrupt sources to set in the RX interrupt request register.
1015:Generated_Source\PSoC6\pdl\drivers\peripheral\scb/cy_scb_common.h **** * See \ref group_scb_common_macros_rx_intr for the set of constants.
1016:Generated_Source\PSoC6\pdl\drivers\peripheral\scb/cy_scb_common.h **** *
1017:Generated_Source\PSoC6\pdl\drivers\peripheral\scb/cy_scb_common.h **** *******************************************************************************/
1018:Generated_Source\PSoC6\pdl\drivers\peripheral\scb/cy_scb_common.h **** __STATIC_INLINE void Cy_SCB_SetRxInterrupt(CySCB_Type *base, uint32_t interruptMask)
1019:Generated_Source\PSoC6\pdl\drivers\peripheral\scb/cy_scb_common.h **** {
1020:Generated_Source\PSoC6\pdl\drivers\peripheral\scb/cy_scb_common.h ****     CY_ASSERT_L2(CY_SCB_IS_INTR_VALID(interruptMask, CY_SCB_RX_INTR_MASK));
1021:Generated_Source\PSoC6\pdl\drivers\peripheral\scb/cy_scb_common.h **** 
1022:Generated_Source\PSoC6\pdl\drivers\peripheral\scb/cy_scb_common.h ****     SCB_INTR_RX_SET(base) = interruptMask;
1023:Generated_Source\PSoC6\pdl\drivers\peripheral\scb/cy_scb_common.h **** }
1024:Generated_Source\PSoC6\pdl\drivers\peripheral\scb/cy_scb_common.h **** 
1025:Generated_Source\PSoC6\pdl\drivers\peripheral\scb/cy_scb_common.h **** 
ARM GAS  C:\Users\tmj32\AppData\Local\Temp\ccenHtUU.s 			page 30


1026:Generated_Source\PSoC6\pdl\drivers\peripheral\scb/cy_scb_common.h **** /*******************************************************************************
1027:Generated_Source\PSoC6\pdl\drivers\peripheral\scb/cy_scb_common.h **** * Function Name: Cy_SCB_GetTxInterruptStatus
1028:Generated_Source\PSoC6\pdl\drivers\peripheral\scb/cy_scb_common.h **** ****************************************************************************//**
1029:Generated_Source\PSoC6\pdl\drivers\peripheral\scb/cy_scb_common.h **** *
1030:Generated_Source\PSoC6\pdl\drivers\peripheral\scb/cy_scb_common.h **** * Returns the TX interrupt request register. This register contains the current
1031:Generated_Source\PSoC6\pdl\drivers\peripheral\scb/cy_scb_common.h **** * status of the TX interrupt sources.
1032:Generated_Source\PSoC6\pdl\drivers\peripheral\scb/cy_scb_common.h **** *
1033:Generated_Source\PSoC6\pdl\drivers\peripheral\scb/cy_scb_common.h **** * \param base
1034:Generated_Source\PSoC6\pdl\drivers\peripheral\scb/cy_scb_common.h **** * The pointer to the SCB instance.
1035:Generated_Source\PSoC6\pdl\drivers\peripheral\scb/cy_scb_common.h **** *
1036:Generated_Source\PSoC6\pdl\drivers\peripheral\scb/cy_scb_common.h **** * \return
1037:Generated_Source\PSoC6\pdl\drivers\peripheral\scb/cy_scb_common.h **** * The current status of TX interrupt sources.
1038:Generated_Source\PSoC6\pdl\drivers\peripheral\scb/cy_scb_common.h **** * Each constant is a bit field value. The value returned may have multiple
1039:Generated_Source\PSoC6\pdl\drivers\peripheral\scb/cy_scb_common.h **** * bits set to indicate the current status.
1040:Generated_Source\PSoC6\pdl\drivers\peripheral\scb/cy_scb_common.h **** * See \ref group_scb_common_macros_tx_intr for the set of constants.
1041:Generated_Source\PSoC6\pdl\drivers\peripheral\scb/cy_scb_common.h **** *
1042:Generated_Source\PSoC6\pdl\drivers\peripheral\scb/cy_scb_common.h **** *******************************************************************************/
1043:Generated_Source\PSoC6\pdl\drivers\peripheral\scb/cy_scb_common.h **** __STATIC_INLINE uint32_t Cy_SCB_GetTxInterruptStatus(CySCB_Type const *base)
1044:Generated_Source\PSoC6\pdl\drivers\peripheral\scb/cy_scb_common.h **** {
1045:Generated_Source\PSoC6\pdl\drivers\peripheral\scb/cy_scb_common.h ****     return (SCB_INTR_TX(base) & CY_SCB_TX_INTR_MASK);
1046:Generated_Source\PSoC6\pdl\drivers\peripheral\scb/cy_scb_common.h **** }
1047:Generated_Source\PSoC6\pdl\drivers\peripheral\scb/cy_scb_common.h **** 
1048:Generated_Source\PSoC6\pdl\drivers\peripheral\scb/cy_scb_common.h **** 
1049:Generated_Source\PSoC6\pdl\drivers\peripheral\scb/cy_scb_common.h **** /*******************************************************************************
1050:Generated_Source\PSoC6\pdl\drivers\peripheral\scb/cy_scb_common.h **** * Function Name: Cy_SCB_SetTxInterruptMask
1051:Generated_Source\PSoC6\pdl\drivers\peripheral\scb/cy_scb_common.h **** ****************************************************************************//**
1052:Generated_Source\PSoC6\pdl\drivers\peripheral\scb/cy_scb_common.h **** *
1053:Generated_Source\PSoC6\pdl\drivers\peripheral\scb/cy_scb_common.h **** * Writes the TX interrupt mask register. This register configures which bits
1054:Generated_Source\PSoC6\pdl\drivers\peripheral\scb/cy_scb_common.h **** * from the TX interrupt request register can trigger an interrupt event.
1055:Generated_Source\PSoC6\pdl\drivers\peripheral\scb/cy_scb_common.h **** *
1056:Generated_Source\PSoC6\pdl\drivers\peripheral\scb/cy_scb_common.h **** * \param base
1057:Generated_Source\PSoC6\pdl\drivers\peripheral\scb/cy_scb_common.h **** * The pointer to the SCB instance.
1058:Generated_Source\PSoC6\pdl\drivers\peripheral\scb/cy_scb_common.h **** *
1059:Generated_Source\PSoC6\pdl\drivers\peripheral\scb/cy_scb_common.h **** * \param interruptMask
1060:Generated_Source\PSoC6\pdl\drivers\peripheral\scb/cy_scb_common.h **** * Enabled TX interrupt sources.
1061:Generated_Source\PSoC6\pdl\drivers\peripheral\scb/cy_scb_common.h **** * See \ref group_scb_common_macros_tx_intr for the set of constants.
1062:Generated_Source\PSoC6\pdl\drivers\peripheral\scb/cy_scb_common.h **** *
1063:Generated_Source\PSoC6\pdl\drivers\peripheral\scb/cy_scb_common.h **** *******************************************************************************/
1064:Generated_Source\PSoC6\pdl\drivers\peripheral\scb/cy_scb_common.h **** __STATIC_INLINE void Cy_SCB_SetTxInterruptMask(CySCB_Type *base, uint32_t interruptMask)
1065:Generated_Source\PSoC6\pdl\drivers\peripheral\scb/cy_scb_common.h **** {
 621              		.loc 1 1065 0
 622              		.cfi_startproc
 623              		@ args = 0, pretend = 0, frame = 8
 624              		@ frame_needed = 1, uses_anonymous_args = 0
 625 0000 80B5     		push	{r7, lr}
 626              		.cfi_def_cfa_offset 8
 627              		.cfi_offset 7, -8
 628              		.cfi_offset 14, -4
 629 0002 82B0     		sub	sp, sp, #8
 630              		.cfi_def_cfa_offset 16
 631 0004 00AF     		add	r7, sp, #0
 632              		.cfi_def_cfa_register 7
 633 0006 7860     		str	r0, [r7, #4]
 634 0008 3960     		str	r1, [r7]
1066:Generated_Source\PSoC6\pdl\drivers\peripheral\scb/cy_scb_common.h ****     CY_ASSERT_L2(CY_SCB_IS_INTR_VALID(interruptMask, CY_SCB_TX_INTR_MASK));
 635              		.loc 1 1066 0
 636 000a 3B68     		ldr	r3, [r7]
ARM GAS  C:\Users\tmj32\AppData\Local\Temp\ccenHtUU.s 			page 31


 637 000c 23F4EE63 		bic	r3, r3, #1904
 638 0010 23F00303 		bic	r3, r3, #3
 639 0014 002B     		cmp	r3, #0
 640 0016 04D0     		beq	.L34
 641              		.loc 1 1066 0 is_stmt 0 discriminator 1
 642 0018 40F22A41 		movw	r1, #1066
 643 001c 0548     		ldr	r0, .L35
 644 001e FFF7FEFF 		bl	Cy_SysLib_AssertFailed
 645              	.L34:
1067:Generated_Source\PSoC6\pdl\drivers\peripheral\scb/cy_scb_common.h **** 
1068:Generated_Source\PSoC6\pdl\drivers\peripheral\scb/cy_scb_common.h ****     SCB_INTR_TX_MASK(base) = interruptMask;
 646              		.loc 1 1068 0 is_stmt 1
 647 0022 7B68     		ldr	r3, [r7, #4]
 648 0024 3A68     		ldr	r2, [r7]
 649 0026 C3F8882F 		str	r2, [r3, #3976]
1069:Generated_Source\PSoC6\pdl\drivers\peripheral\scb/cy_scb_common.h **** }
 650              		.loc 1 1069 0
 651 002a 00BF     		nop
 652 002c 0837     		adds	r7, r7, #8
 653              		.cfi_def_cfa_offset 8
 654 002e BD46     		mov	sp, r7
 655              		.cfi_def_cfa_register 13
 656              		@ sp needed
 657 0030 80BD     		pop	{r7, pc}
 658              	.L36:
 659 0032 00BF     		.align	2
 660              	.L35:
 661 0034 00000000 		.word	.LC0
 662              		.cfi_endproc
 663              	.LFE186:
 664              		.size	Cy_SCB_SetTxInterruptMask, .-Cy_SCB_SetTxInterruptMask
 665              		.section	.text.Cy_SCB_GetTxInterruptMask,"ax",%progbits
 666              		.align	2
 667              		.thumb
 668              		.thumb_func
 669              		.type	Cy_SCB_GetTxInterruptMask, %function
 670              	Cy_SCB_GetTxInterruptMask:
 671              	.LFB187:
1070:Generated_Source\PSoC6\pdl\drivers\peripheral\scb/cy_scb_common.h **** 
1071:Generated_Source\PSoC6\pdl\drivers\peripheral\scb/cy_scb_common.h **** 
1072:Generated_Source\PSoC6\pdl\drivers\peripheral\scb/cy_scb_common.h **** /*******************************************************************************
1073:Generated_Source\PSoC6\pdl\drivers\peripheral\scb/cy_scb_common.h **** * Function Name: Cy_SCB_GetTxInterruptMask
1074:Generated_Source\PSoC6\pdl\drivers\peripheral\scb/cy_scb_common.h **** ****************************************************************************//**
1075:Generated_Source\PSoC6\pdl\drivers\peripheral\scb/cy_scb_common.h **** *
1076:Generated_Source\PSoC6\pdl\drivers\peripheral\scb/cy_scb_common.h **** * Returns the TX interrupt mask register. This register specifies which
1077:Generated_Source\PSoC6\pdl\drivers\peripheral\scb/cy_scb_common.h **** * bits from the TX interrupt request register can trigger an interrupt event.
1078:Generated_Source\PSoC6\pdl\drivers\peripheral\scb/cy_scb_common.h **** *
1079:Generated_Source\PSoC6\pdl\drivers\peripheral\scb/cy_scb_common.h **** * \param base
1080:Generated_Source\PSoC6\pdl\drivers\peripheral\scb/cy_scb_common.h **** * The pointer to the SCB instance.
1081:Generated_Source\PSoC6\pdl\drivers\peripheral\scb/cy_scb_common.h **** *
1082:Generated_Source\PSoC6\pdl\drivers\peripheral\scb/cy_scb_common.h **** * \return
1083:Generated_Source\PSoC6\pdl\drivers\peripheral\scb/cy_scb_common.h **** * Enabled TX interrupt sources.
1084:Generated_Source\PSoC6\pdl\drivers\peripheral\scb/cy_scb_common.h **** * See \ref group_scb_common_macros_tx_intr for the set of constants.
1085:Generated_Source\PSoC6\pdl\drivers\peripheral\scb/cy_scb_common.h **** *
1086:Generated_Source\PSoC6\pdl\drivers\peripheral\scb/cy_scb_common.h **** *******************************************************************************/
1087:Generated_Source\PSoC6\pdl\drivers\peripheral\scb/cy_scb_common.h **** __STATIC_INLINE uint32_t Cy_SCB_GetTxInterruptMask(CySCB_Type const *base)
1088:Generated_Source\PSoC6\pdl\drivers\peripheral\scb/cy_scb_common.h **** {
ARM GAS  C:\Users\tmj32\AppData\Local\Temp\ccenHtUU.s 			page 32


 672              		.loc 1 1088 0
 673              		.cfi_startproc
 674              		@ args = 0, pretend = 0, frame = 8
 675              		@ frame_needed = 1, uses_anonymous_args = 0
 676              		@ link register save eliminated.
 677 0000 80B4     		push	{r7}
 678              		.cfi_def_cfa_offset 4
 679              		.cfi_offset 7, -4
 680 0002 83B0     		sub	sp, sp, #12
 681              		.cfi_def_cfa_offset 16
 682 0004 00AF     		add	r7, sp, #0
 683              		.cfi_def_cfa_register 7
 684 0006 7860     		str	r0, [r7, #4]
1089:Generated_Source\PSoC6\pdl\drivers\peripheral\scb/cy_scb_common.h ****     return (SCB_INTR_TX_MASK(base));
 685              		.loc 1 1089 0
 686 0008 7B68     		ldr	r3, [r7, #4]
 687 000a D3F8883F 		ldr	r3, [r3, #3976]
1090:Generated_Source\PSoC6\pdl\drivers\peripheral\scb/cy_scb_common.h **** }
 688              		.loc 1 1090 0
 689 000e 1846     		mov	r0, r3
 690 0010 0C37     		adds	r7, r7, #12
 691              		.cfi_def_cfa_offset 4
 692 0012 BD46     		mov	sp, r7
 693              		.cfi_def_cfa_register 13
 694              		@ sp needed
 695 0014 5DF8047B 		ldr	r7, [sp], #4
 696              		.cfi_restore 7
 697              		.cfi_def_cfa_offset 0
 698 0018 7047     		bx	lr
 699              		.cfi_endproc
 700              	.LFE187:
 701              		.size	Cy_SCB_GetTxInterruptMask, .-Cy_SCB_GetTxInterruptMask
 702 001a 00BF     		.section	.text.Cy_SCB_GetTxInterruptStatusMasked,"ax",%progbits
 703              		.align	2
 704              		.thumb
 705              		.thumb_func
 706              		.type	Cy_SCB_GetTxInterruptStatusMasked, %function
 707              	Cy_SCB_GetTxInterruptStatusMasked:
 708              	.LFB188:
1091:Generated_Source\PSoC6\pdl\drivers\peripheral\scb/cy_scb_common.h **** 
1092:Generated_Source\PSoC6\pdl\drivers\peripheral\scb/cy_scb_common.h **** 
1093:Generated_Source\PSoC6\pdl\drivers\peripheral\scb/cy_scb_common.h **** /*******************************************************************************
1094:Generated_Source\PSoC6\pdl\drivers\peripheral\scb/cy_scb_common.h **** * Function Name: Cy_SCB_GetTxInterruptStatusMasked
1095:Generated_Source\PSoC6\pdl\drivers\peripheral\scb/cy_scb_common.h **** ****************************************************************************//**
1096:Generated_Source\PSoC6\pdl\drivers\peripheral\scb/cy_scb_common.h **** *
1097:Generated_Source\PSoC6\pdl\drivers\peripheral\scb/cy_scb_common.h **** * Returns the TX interrupt masked request register. This register contains
1098:Generated_Source\PSoC6\pdl\drivers\peripheral\scb/cy_scb_common.h **** * a logical AND of corresponding bits from the TX interrupt request and
1099:Generated_Source\PSoC6\pdl\drivers\peripheral\scb/cy_scb_common.h **** * mask registers.
1100:Generated_Source\PSoC6\pdl\drivers\peripheral\scb/cy_scb_common.h **** * This function is intended to be used in the interrupt service routine to
1101:Generated_Source\PSoC6\pdl\drivers\peripheral\scb/cy_scb_common.h **** * identify which of enabled TX interrupt sources caused the interrupt event.
1102:Generated_Source\PSoC6\pdl\drivers\peripheral\scb/cy_scb_common.h **** *
1103:Generated_Source\PSoC6\pdl\drivers\peripheral\scb/cy_scb_common.h **** * \param base
1104:Generated_Source\PSoC6\pdl\drivers\peripheral\scb/cy_scb_common.h **** * The pointer to the SCB instance.
1105:Generated_Source\PSoC6\pdl\drivers\peripheral\scb/cy_scb_common.h **** *
1106:Generated_Source\PSoC6\pdl\drivers\peripheral\scb/cy_scb_common.h **** * \return
1107:Generated_Source\PSoC6\pdl\drivers\peripheral\scb/cy_scb_common.h **** * The current status of enabled TX interrupt sources.
1108:Generated_Source\PSoC6\pdl\drivers\peripheral\scb/cy_scb_common.h **** * See \ref group_scb_common_macros_tx_intr for the set of constants.
ARM GAS  C:\Users\tmj32\AppData\Local\Temp\ccenHtUU.s 			page 33


1109:Generated_Source\PSoC6\pdl\drivers\peripheral\scb/cy_scb_common.h **** *
1110:Generated_Source\PSoC6\pdl\drivers\peripheral\scb/cy_scb_common.h **** *******************************************************************************/
1111:Generated_Source\PSoC6\pdl\drivers\peripheral\scb/cy_scb_common.h **** __STATIC_INLINE uint32_t Cy_SCB_GetTxInterruptStatusMasked(CySCB_Type const *base)
1112:Generated_Source\PSoC6\pdl\drivers\peripheral\scb/cy_scb_common.h **** {
 709              		.loc 1 1112 0
 710              		.cfi_startproc
 711              		@ args = 0, pretend = 0, frame = 8
 712              		@ frame_needed = 1, uses_anonymous_args = 0
 713              		@ link register save eliminated.
 714 0000 80B4     		push	{r7}
 715              		.cfi_def_cfa_offset 4
 716              		.cfi_offset 7, -4
 717 0002 83B0     		sub	sp, sp, #12
 718              		.cfi_def_cfa_offset 16
 719 0004 00AF     		add	r7, sp, #0
 720              		.cfi_def_cfa_register 7
 721 0006 7860     		str	r0, [r7, #4]
1113:Generated_Source\PSoC6\pdl\drivers\peripheral\scb/cy_scb_common.h ****     return (SCB_INTR_TX_MASKED(base));
 722              		.loc 1 1113 0
 723 0008 7B68     		ldr	r3, [r7, #4]
 724 000a D3F88C3F 		ldr	r3, [r3, #3980]
1114:Generated_Source\PSoC6\pdl\drivers\peripheral\scb/cy_scb_common.h **** }
 725              		.loc 1 1114 0
 726 000e 1846     		mov	r0, r3
 727 0010 0C37     		adds	r7, r7, #12
 728              		.cfi_def_cfa_offset 4
 729 0012 BD46     		mov	sp, r7
 730              		.cfi_def_cfa_register 13
 731              		@ sp needed
 732 0014 5DF8047B 		ldr	r7, [sp], #4
 733              		.cfi_restore 7
 734              		.cfi_def_cfa_offset 0
 735 0018 7047     		bx	lr
 736              		.cfi_endproc
 737              	.LFE188:
 738              		.size	Cy_SCB_GetTxInterruptStatusMasked, .-Cy_SCB_GetTxInterruptStatusMasked
 739 001a 00BF     		.section	.text.Cy_SCB_ClearTxInterrupt,"ax",%progbits
 740              		.align	2
 741              		.thumb
 742              		.thumb_func
 743              		.type	Cy_SCB_ClearTxInterrupt, %function
 744              	Cy_SCB_ClearTxInterrupt:
 745              	.LFB189:
1115:Generated_Source\PSoC6\pdl\drivers\peripheral\scb/cy_scb_common.h **** 
1116:Generated_Source\PSoC6\pdl\drivers\peripheral\scb/cy_scb_common.h **** 
1117:Generated_Source\PSoC6\pdl\drivers\peripheral\scb/cy_scb_common.h **** /*******************************************************************************
1118:Generated_Source\PSoC6\pdl\drivers\peripheral\scb/cy_scb_common.h **** * Function Name: Cy_SCB_ClearTxInterrupt
1119:Generated_Source\PSoC6\pdl\drivers\peripheral\scb/cy_scb_common.h **** ****************************************************************************//**
1120:Generated_Source\PSoC6\pdl\drivers\peripheral\scb/cy_scb_common.h **** *
1121:Generated_Source\PSoC6\pdl\drivers\peripheral\scb/cy_scb_common.h **** * Clears the TX interrupt sources in the interrupt request register.
1122:Generated_Source\PSoC6\pdl\drivers\peripheral\scb/cy_scb_common.h **** *
1123:Generated_Source\PSoC6\pdl\drivers\peripheral\scb/cy_scb_common.h **** * \param base
1124:Generated_Source\PSoC6\pdl\drivers\peripheral\scb/cy_scb_common.h **** * The pointer to the SCB instance.
1125:Generated_Source\PSoC6\pdl\drivers\peripheral\scb/cy_scb_common.h **** *
1126:Generated_Source\PSoC6\pdl\drivers\peripheral\scb/cy_scb_common.h **** * \param interruptMask
1127:Generated_Source\PSoC6\pdl\drivers\peripheral\scb/cy_scb_common.h **** * The TX interrupt sources to be cleared.
1128:Generated_Source\PSoC6\pdl\drivers\peripheral\scb/cy_scb_common.h **** * See \ref group_scb_common_macros_tx_intr for the set of constants.
ARM GAS  C:\Users\tmj32\AppData\Local\Temp\ccenHtUU.s 			page 34


1129:Generated_Source\PSoC6\pdl\drivers\peripheral\scb/cy_scb_common.h **** *
1130:Generated_Source\PSoC6\pdl\drivers\peripheral\scb/cy_scb_common.h **** * \note
1131:Generated_Source\PSoC6\pdl\drivers\peripheral\scb/cy_scb_common.h **** *  - CY_SCB_INTR_TX_FIFO_LEVEL interrupt source is not cleared when the
1132:Generated_Source\PSoC6\pdl\drivers\peripheral\scb/cy_scb_common.h **** *    TX FIFO has fewer entries than the TX level.
1133:Generated_Source\PSoC6\pdl\drivers\peripheral\scb/cy_scb_common.h **** *  - CY_SCB_INTR_TX_NOT_FULL interrupt source is not cleared when the
1134:Generated_Source\PSoC6\pdl\drivers\peripheral\scb/cy_scb_common.h **** *    TX FIFO has empty entries in the TX FIFO.
1135:Generated_Source\PSoC6\pdl\drivers\peripheral\scb/cy_scb_common.h **** *  - CY_SCB_INTR_TX_EMPTY interrupt source is not cleared when the
1136:Generated_Source\PSoC6\pdl\drivers\peripheral\scb/cy_scb_common.h **** *    TX FIFO is empty.
1137:Generated_Source\PSoC6\pdl\drivers\peripheral\scb/cy_scb_common.h **** *  - CY_SCB_INTR_TX_UNDERFLOW interrupt source is not cleared when the
1138:Generated_Source\PSoC6\pdl\drivers\peripheral\scb/cy_scb_common.h **** *    TX FIFO is empty. Put data into the TX FIFO before clearing it.
1139:Generated_Source\PSoC6\pdl\drivers\peripheral\scb/cy_scb_common.h **** *
1140:Generated_Source\PSoC6\pdl\drivers\peripheral\scb/cy_scb_common.h **** *******************************************************************************/
1141:Generated_Source\PSoC6\pdl\drivers\peripheral\scb/cy_scb_common.h **** __STATIC_INLINE void Cy_SCB_ClearTxInterrupt(CySCB_Type *base, uint32_t interruptMask)
1142:Generated_Source\PSoC6\pdl\drivers\peripheral\scb/cy_scb_common.h **** {
 746              		.loc 1 1142 0
 747              		.cfi_startproc
 748              		@ args = 0, pretend = 0, frame = 8
 749              		@ frame_needed = 1, uses_anonymous_args = 0
 750 0000 80B5     		push	{r7, lr}
 751              		.cfi_def_cfa_offset 8
 752              		.cfi_offset 7, -8
 753              		.cfi_offset 14, -4
 754 0002 82B0     		sub	sp, sp, #8
 755              		.cfi_def_cfa_offset 16
 756 0004 00AF     		add	r7, sp, #0
 757              		.cfi_def_cfa_register 7
 758 0006 7860     		str	r0, [r7, #4]
 759 0008 3960     		str	r1, [r7]
1143:Generated_Source\PSoC6\pdl\drivers\peripheral\scb/cy_scb_common.h ****     CY_ASSERT_L2(CY_SCB_IS_INTR_VALID(interruptMask, CY_SCB_TX_INTR_MASK));
 760              		.loc 1 1143 0
 761 000a 3B68     		ldr	r3, [r7]
 762 000c 23F4EE63 		bic	r3, r3, #1904
 763 0010 23F00303 		bic	r3, r3, #3
 764 0014 002B     		cmp	r3, #0
 765 0016 04D0     		beq	.L42
 766              		.loc 1 1143 0 is_stmt 0 discriminator 1
 767 0018 40F27741 		movw	r1, #1143
 768 001c 0648     		ldr	r0, .L43
 769 001e FFF7FEFF 		bl	Cy_SysLib_AssertFailed
 770              	.L42:
1144:Generated_Source\PSoC6\pdl\drivers\peripheral\scb/cy_scb_common.h **** 
1145:Generated_Source\PSoC6\pdl\drivers\peripheral\scb/cy_scb_common.h ****     SCB_INTR_TX(base) = interruptMask;
 771              		.loc 1 1145 0 is_stmt 1
 772 0022 7B68     		ldr	r3, [r7, #4]
 773 0024 3A68     		ldr	r2, [r7]
 774 0026 C3F8802F 		str	r2, [r3, #3968]
1146:Generated_Source\PSoC6\pdl\drivers\peripheral\scb/cy_scb_common.h ****     (void) SCB_INTR_TX(base);
 775              		.loc 1 1146 0
 776 002a 7B68     		ldr	r3, [r7, #4]
 777 002c D3F8803F 		ldr	r3, [r3, #3968]
1147:Generated_Source\PSoC6\pdl\drivers\peripheral\scb/cy_scb_common.h **** }
 778              		.loc 1 1147 0
 779 0030 00BF     		nop
 780 0032 0837     		adds	r7, r7, #8
 781              		.cfi_def_cfa_offset 8
 782 0034 BD46     		mov	sp, r7
 783              		.cfi_def_cfa_register 13
ARM GAS  C:\Users\tmj32\AppData\Local\Temp\ccenHtUU.s 			page 35


 784              		@ sp needed
 785 0036 80BD     		pop	{r7, pc}
 786              	.L44:
 787              		.align	2
 788              	.L43:
 789 0038 00000000 		.word	.LC0
 790              		.cfi_endproc
 791              	.LFE189:
 792              		.size	Cy_SCB_ClearTxInterrupt, .-Cy_SCB_ClearTxInterrupt
 793              		.section	.text.Cy_SCB_SetMasterInterruptMask,"ax",%progbits
 794              		.align	2
 795              		.thumb
 796              		.thumb_func
 797              		.type	Cy_SCB_SetMasterInterruptMask, %function
 798              	Cy_SCB_SetMasterInterruptMask:
 799              	.LFB192:
1148:Generated_Source\PSoC6\pdl\drivers\peripheral\scb/cy_scb_common.h **** 
1149:Generated_Source\PSoC6\pdl\drivers\peripheral\scb/cy_scb_common.h **** 
1150:Generated_Source\PSoC6\pdl\drivers\peripheral\scb/cy_scb_common.h **** /*******************************************************************************
1151:Generated_Source\PSoC6\pdl\drivers\peripheral\scb/cy_scb_common.h **** * Function Name: Cy_SCB_SetTxInterrupt
1152:Generated_Source\PSoC6\pdl\drivers\peripheral\scb/cy_scb_common.h **** ****************************************************************************//**
1153:Generated_Source\PSoC6\pdl\drivers\peripheral\scb/cy_scb_common.h **** *
1154:Generated_Source\PSoC6\pdl\drivers\peripheral\scb/cy_scb_common.h **** * Sets TX interrupt sources in the interrupt request register.
1155:Generated_Source\PSoC6\pdl\drivers\peripheral\scb/cy_scb_common.h **** *
1156:Generated_Source\PSoC6\pdl\drivers\peripheral\scb/cy_scb_common.h **** * \param base
1157:Generated_Source\PSoC6\pdl\drivers\peripheral\scb/cy_scb_common.h **** * The pointer to the SCB instance.
1158:Generated_Source\PSoC6\pdl\drivers\peripheral\scb/cy_scb_common.h **** *
1159:Generated_Source\PSoC6\pdl\drivers\peripheral\scb/cy_scb_common.h **** * \param interruptMask
1160:Generated_Source\PSoC6\pdl\drivers\peripheral\scb/cy_scb_common.h **** * The TX interrupt sources to set in the TX interrupt request register.
1161:Generated_Source\PSoC6\pdl\drivers\peripheral\scb/cy_scb_common.h **** * See \ref group_scb_common_macros_tx_intr for the set of constants.
1162:Generated_Source\PSoC6\pdl\drivers\peripheral\scb/cy_scb_common.h **** *
1163:Generated_Source\PSoC6\pdl\drivers\peripheral\scb/cy_scb_common.h **** *******************************************************************************/
1164:Generated_Source\PSoC6\pdl\drivers\peripheral\scb/cy_scb_common.h **** __STATIC_INLINE void Cy_SCB_SetTxInterrupt(CySCB_Type *base, uint32_t interruptMask)
1165:Generated_Source\PSoC6\pdl\drivers\peripheral\scb/cy_scb_common.h **** {
1166:Generated_Source\PSoC6\pdl\drivers\peripheral\scb/cy_scb_common.h ****     CY_ASSERT_L2(CY_SCB_IS_INTR_VALID(interruptMask, CY_SCB_TX_INTR_MASK));
1167:Generated_Source\PSoC6\pdl\drivers\peripheral\scb/cy_scb_common.h **** 
1168:Generated_Source\PSoC6\pdl\drivers\peripheral\scb/cy_scb_common.h ****     SCB_INTR_TX_SET(base) = interruptMask;
1169:Generated_Source\PSoC6\pdl\drivers\peripheral\scb/cy_scb_common.h **** }
1170:Generated_Source\PSoC6\pdl\drivers\peripheral\scb/cy_scb_common.h **** 
1171:Generated_Source\PSoC6\pdl\drivers\peripheral\scb/cy_scb_common.h **** 
1172:Generated_Source\PSoC6\pdl\drivers\peripheral\scb/cy_scb_common.h **** /*******************************************************************************
1173:Generated_Source\PSoC6\pdl\drivers\peripheral\scb/cy_scb_common.h **** * Function Name: Cy_SCB_GetMasterInterruptStatus
1174:Generated_Source\PSoC6\pdl\drivers\peripheral\scb/cy_scb_common.h **** ****************************************************************************//**
1175:Generated_Source\PSoC6\pdl\drivers\peripheral\scb/cy_scb_common.h **** *
1176:Generated_Source\PSoC6\pdl\drivers\peripheral\scb/cy_scb_common.h **** * Returns the master interrupt request register. This register contains the current
1177:Generated_Source\PSoC6\pdl\drivers\peripheral\scb/cy_scb_common.h **** * status of the master interrupt sources.
1178:Generated_Source\PSoC6\pdl\drivers\peripheral\scb/cy_scb_common.h **** *
1179:Generated_Source\PSoC6\pdl\drivers\peripheral\scb/cy_scb_common.h **** * \param base
1180:Generated_Source\PSoC6\pdl\drivers\peripheral\scb/cy_scb_common.h **** * The pointer to the SCB instance.
1181:Generated_Source\PSoC6\pdl\drivers\peripheral\scb/cy_scb_common.h **** *
1182:Generated_Source\PSoC6\pdl\drivers\peripheral\scb/cy_scb_common.h **** * \return
1183:Generated_Source\PSoC6\pdl\drivers\peripheral\scb/cy_scb_common.h **** * The current status of the master interrupt sources.
1184:Generated_Source\PSoC6\pdl\drivers\peripheral\scb/cy_scb_common.h **** * Each constant is a bit field value. The value returned may have multiple
1185:Generated_Source\PSoC6\pdl\drivers\peripheral\scb/cy_scb_common.h **** * bits set to indicate the current status.
1186:Generated_Source\PSoC6\pdl\drivers\peripheral\scb/cy_scb_common.h **** * See \ref group_scb_common_macros_master_intr for the set of constants.
1187:Generated_Source\PSoC6\pdl\drivers\peripheral\scb/cy_scb_common.h **** *
1188:Generated_Source\PSoC6\pdl\drivers\peripheral\scb/cy_scb_common.h **** *******************************************************************************/
ARM GAS  C:\Users\tmj32\AppData\Local\Temp\ccenHtUU.s 			page 36


1189:Generated_Source\PSoC6\pdl\drivers\peripheral\scb/cy_scb_common.h **** __STATIC_INLINE uint32_t Cy_SCB_GetMasterInterruptStatus(CySCB_Type const *base)
1190:Generated_Source\PSoC6\pdl\drivers\peripheral\scb/cy_scb_common.h **** {
1191:Generated_Source\PSoC6\pdl\drivers\peripheral\scb/cy_scb_common.h ****     return (SCB_INTR_M(base) & CY_SCB_MASTER_INTR_MASK);
1192:Generated_Source\PSoC6\pdl\drivers\peripheral\scb/cy_scb_common.h **** }
1193:Generated_Source\PSoC6\pdl\drivers\peripheral\scb/cy_scb_common.h **** 
1194:Generated_Source\PSoC6\pdl\drivers\peripheral\scb/cy_scb_common.h **** 
1195:Generated_Source\PSoC6\pdl\drivers\peripheral\scb/cy_scb_common.h **** /*******************************************************************************
1196:Generated_Source\PSoC6\pdl\drivers\peripheral\scb/cy_scb_common.h **** * Function Name: Cy_SCB_SetMasterInterruptMask
1197:Generated_Source\PSoC6\pdl\drivers\peripheral\scb/cy_scb_common.h **** ****************************************************************************//**
1198:Generated_Source\PSoC6\pdl\drivers\peripheral\scb/cy_scb_common.h **** *
1199:Generated_Source\PSoC6\pdl\drivers\peripheral\scb/cy_scb_common.h **** * Writes the master interrupt mask register. This register specifies which bits
1200:Generated_Source\PSoC6\pdl\drivers\peripheral\scb/cy_scb_common.h **** * from the master interrupt request register can trigger an interrupt event.
1201:Generated_Source\PSoC6\pdl\drivers\peripheral\scb/cy_scb_common.h **** *
1202:Generated_Source\PSoC6\pdl\drivers\peripheral\scb/cy_scb_common.h **** * \param base
1203:Generated_Source\PSoC6\pdl\drivers\peripheral\scb/cy_scb_common.h **** * The pointer to the SCB instance.
1204:Generated_Source\PSoC6\pdl\drivers\peripheral\scb/cy_scb_common.h **** *
1205:Generated_Source\PSoC6\pdl\drivers\peripheral\scb/cy_scb_common.h **** * \param interruptMask
1206:Generated_Source\PSoC6\pdl\drivers\peripheral\scb/cy_scb_common.h **** * The master interrupt sources to be enable.
1207:Generated_Source\PSoC6\pdl\drivers\peripheral\scb/cy_scb_common.h **** * See \ref group_scb_common_macros_master_intr for the set of constants.
1208:Generated_Source\PSoC6\pdl\drivers\peripheral\scb/cy_scb_common.h **** *
1209:Generated_Source\PSoC6\pdl\drivers\peripheral\scb/cy_scb_common.h **** *******************************************************************************/
1210:Generated_Source\PSoC6\pdl\drivers\peripheral\scb/cy_scb_common.h **** __STATIC_INLINE void Cy_SCB_SetMasterInterruptMask(CySCB_Type *base, uint32_t interruptMask)
1211:Generated_Source\PSoC6\pdl\drivers\peripheral\scb/cy_scb_common.h **** {
 800              		.loc 1 1211 0
 801              		.cfi_startproc
 802              		@ args = 0, pretend = 0, frame = 8
 803              		@ frame_needed = 1, uses_anonymous_args = 0
 804 0000 80B5     		push	{r7, lr}
 805              		.cfi_def_cfa_offset 8
 806              		.cfi_offset 7, -8
 807              		.cfi_offset 14, -4
 808 0002 82B0     		sub	sp, sp, #8
 809              		.cfi_def_cfa_offset 16
 810 0004 00AF     		add	r7, sp, #0
 811              		.cfi_def_cfa_register 7
 812 0006 7860     		str	r0, [r7, #4]
 813 0008 3960     		str	r1, [r7]
1212:Generated_Source\PSoC6\pdl\drivers\peripheral\scb/cy_scb_common.h ****     CY_ASSERT_L2(CY_SCB_IS_INTR_VALID(interruptMask, CY_SCB_MASTER_INTR_MASK));
 814              		.loc 1 1212 0
 815 000a 3B68     		ldr	r3, [r7]
 816 000c 23F44573 		bic	r3, r3, #788
 817 0010 23F00303 		bic	r3, r3, #3
 818 0014 002B     		cmp	r3, #0
 819 0016 04D0     		beq	.L46
 820              		.loc 1 1212 0 is_stmt 0 discriminator 1
 821 0018 40F2BC41 		movw	r1, #1212
 822 001c 0548     		ldr	r0, .L47
 823 001e FFF7FEFF 		bl	Cy_SysLib_AssertFailed
 824              	.L46:
1213:Generated_Source\PSoC6\pdl\drivers\peripheral\scb/cy_scb_common.h **** 
1214:Generated_Source\PSoC6\pdl\drivers\peripheral\scb/cy_scb_common.h ****     SCB_INTR_M_MASK(base) = interruptMask;
 825              		.loc 1 1214 0 is_stmt 1
 826 0022 7B68     		ldr	r3, [r7, #4]
 827 0024 3A68     		ldr	r2, [r7]
 828 0026 C3F8082F 		str	r2, [r3, #3848]
1215:Generated_Source\PSoC6\pdl\drivers\peripheral\scb/cy_scb_common.h **** }
 829              		.loc 1 1215 0
ARM GAS  C:\Users\tmj32\AppData\Local\Temp\ccenHtUU.s 			page 37


 830 002a 00BF     		nop
 831 002c 0837     		adds	r7, r7, #8
 832              		.cfi_def_cfa_offset 8
 833 002e BD46     		mov	sp, r7
 834              		.cfi_def_cfa_register 13
 835              		@ sp needed
 836 0030 80BD     		pop	{r7, pc}
 837              	.L48:
 838 0032 00BF     		.align	2
 839              	.L47:
 840 0034 00000000 		.word	.LC0
 841              		.cfi_endproc
 842              	.LFE192:
 843              		.size	Cy_SCB_SetMasterInterruptMask, .-Cy_SCB_SetMasterInterruptMask
 844              		.section	.text.Cy_SCB_SetSlaveInterruptMask,"ax",%progbits
 845              		.align	2
 846              		.thumb
 847              		.thumb_func
 848              		.type	Cy_SCB_SetSlaveInterruptMask, %function
 849              	Cy_SCB_SetSlaveInterruptMask:
 850              	.LFB198:
1216:Generated_Source\PSoC6\pdl\drivers\peripheral\scb/cy_scb_common.h **** 
1217:Generated_Source\PSoC6\pdl\drivers\peripheral\scb/cy_scb_common.h **** 
1218:Generated_Source\PSoC6\pdl\drivers\peripheral\scb/cy_scb_common.h **** /*******************************************************************************
1219:Generated_Source\PSoC6\pdl\drivers\peripheral\scb/cy_scb_common.h **** * Function Name: Cy_SCB_GetMasterInterruptMask
1220:Generated_Source\PSoC6\pdl\drivers\peripheral\scb/cy_scb_common.h **** ****************************************************************************//**
1221:Generated_Source\PSoC6\pdl\drivers\peripheral\scb/cy_scb_common.h **** *
1222:Generated_Source\PSoC6\pdl\drivers\peripheral\scb/cy_scb_common.h **** * Returns the master interrupt mask register. This register specifies which bits
1223:Generated_Source\PSoC6\pdl\drivers\peripheral\scb/cy_scb_common.h **** * from the master interrupt request register can trigger an interrupt event.
1224:Generated_Source\PSoC6\pdl\drivers\peripheral\scb/cy_scb_common.h **** *
1225:Generated_Source\PSoC6\pdl\drivers\peripheral\scb/cy_scb_common.h **** * \param base
1226:Generated_Source\PSoC6\pdl\drivers\peripheral\scb/cy_scb_common.h **** * The pointer to the SCB instance.
1227:Generated_Source\PSoC6\pdl\drivers\peripheral\scb/cy_scb_common.h **** *
1228:Generated_Source\PSoC6\pdl\drivers\peripheral\scb/cy_scb_common.h **** * \return
1229:Generated_Source\PSoC6\pdl\drivers\peripheral\scb/cy_scb_common.h **** * Enabled master interrupt sources.
1230:Generated_Source\PSoC6\pdl\drivers\peripheral\scb/cy_scb_common.h **** * See \ref group_scb_common_macros_master_intr for the set of constants.
1231:Generated_Source\PSoC6\pdl\drivers\peripheral\scb/cy_scb_common.h **** *
1232:Generated_Source\PSoC6\pdl\drivers\peripheral\scb/cy_scb_common.h **** *******************************************************************************/
1233:Generated_Source\PSoC6\pdl\drivers\peripheral\scb/cy_scb_common.h **** __STATIC_INLINE uint32_t Cy_SCB_GetMasterInterruptMask(CySCB_Type const *base)
1234:Generated_Source\PSoC6\pdl\drivers\peripheral\scb/cy_scb_common.h **** {
1235:Generated_Source\PSoC6\pdl\drivers\peripheral\scb/cy_scb_common.h ****     return (SCB_INTR_M_MASK(base));
1236:Generated_Source\PSoC6\pdl\drivers\peripheral\scb/cy_scb_common.h **** }
1237:Generated_Source\PSoC6\pdl\drivers\peripheral\scb/cy_scb_common.h **** 
1238:Generated_Source\PSoC6\pdl\drivers\peripheral\scb/cy_scb_common.h **** 
1239:Generated_Source\PSoC6\pdl\drivers\peripheral\scb/cy_scb_common.h **** /*******************************************************************************
1240:Generated_Source\PSoC6\pdl\drivers\peripheral\scb/cy_scb_common.h **** * Function Name: Cy_SCB_GetMasterInterruptStatusMasked
1241:Generated_Source\PSoC6\pdl\drivers\peripheral\scb/cy_scb_common.h **** ****************************************************************************//**
1242:Generated_Source\PSoC6\pdl\drivers\peripheral\scb/cy_scb_common.h **** *
1243:Generated_Source\PSoC6\pdl\drivers\peripheral\scb/cy_scb_common.h **** * Returns the master interrupt masked request register. This register contains a
1244:Generated_Source\PSoC6\pdl\drivers\peripheral\scb/cy_scb_common.h **** * logical AND of corresponding bits from the master interrupt request and mask
1245:Generated_Source\PSoC6\pdl\drivers\peripheral\scb/cy_scb_common.h **** * registers.
1246:Generated_Source\PSoC6\pdl\drivers\peripheral\scb/cy_scb_common.h **** * This function is intended to be used in the interrupt service routine to
1247:Generated_Source\PSoC6\pdl\drivers\peripheral\scb/cy_scb_common.h **** * identify which of the enabled master interrupt sources caused the interrupt
1248:Generated_Source\PSoC6\pdl\drivers\peripheral\scb/cy_scb_common.h **** * event.
1249:Generated_Source\PSoC6\pdl\drivers\peripheral\scb/cy_scb_common.h **** *
1250:Generated_Source\PSoC6\pdl\drivers\peripheral\scb/cy_scb_common.h **** * \param base
1251:Generated_Source\PSoC6\pdl\drivers\peripheral\scb/cy_scb_common.h **** * The pointer to the SCB instance.
ARM GAS  C:\Users\tmj32\AppData\Local\Temp\ccenHtUU.s 			page 38


1252:Generated_Source\PSoC6\pdl\drivers\peripheral\scb/cy_scb_common.h **** *
1253:Generated_Source\PSoC6\pdl\drivers\peripheral\scb/cy_scb_common.h **** * \return
1254:Generated_Source\PSoC6\pdl\drivers\peripheral\scb/cy_scb_common.h **** * The current status of enabled master interrupt sources.
1255:Generated_Source\PSoC6\pdl\drivers\peripheral\scb/cy_scb_common.h **** * See \ref group_scb_common_macros_master_intr for the set of constants.
1256:Generated_Source\PSoC6\pdl\drivers\peripheral\scb/cy_scb_common.h **** *
1257:Generated_Source\PSoC6\pdl\drivers\peripheral\scb/cy_scb_common.h **** *******************************************************************************/
1258:Generated_Source\PSoC6\pdl\drivers\peripheral\scb/cy_scb_common.h **** __STATIC_INLINE uint32_t Cy_SCB_GetMasterInterruptStatusMasked(CySCB_Type const *base)
1259:Generated_Source\PSoC6\pdl\drivers\peripheral\scb/cy_scb_common.h **** {
1260:Generated_Source\PSoC6\pdl\drivers\peripheral\scb/cy_scb_common.h ****     return (SCB_INTR_M_MASKED(base));
1261:Generated_Source\PSoC6\pdl\drivers\peripheral\scb/cy_scb_common.h **** }
1262:Generated_Source\PSoC6\pdl\drivers\peripheral\scb/cy_scb_common.h **** 
1263:Generated_Source\PSoC6\pdl\drivers\peripheral\scb/cy_scb_common.h **** 
1264:Generated_Source\PSoC6\pdl\drivers\peripheral\scb/cy_scb_common.h **** /*******************************************************************************
1265:Generated_Source\PSoC6\pdl\drivers\peripheral\scb/cy_scb_common.h **** * Function Name: Cy_SCB_ClearMasterInterrupt
1266:Generated_Source\PSoC6\pdl\drivers\peripheral\scb/cy_scb_common.h **** ****************************************************************************//**
1267:Generated_Source\PSoC6\pdl\drivers\peripheral\scb/cy_scb_common.h **** *
1268:Generated_Source\PSoC6\pdl\drivers\peripheral\scb/cy_scb_common.h **** * Clears master interrupt sources in the interrupt request register.
1269:Generated_Source\PSoC6\pdl\drivers\peripheral\scb/cy_scb_common.h **** *
1270:Generated_Source\PSoC6\pdl\drivers\peripheral\scb/cy_scb_common.h **** * \param base
1271:Generated_Source\PSoC6\pdl\drivers\peripheral\scb/cy_scb_common.h **** * The pointer to the SCB instance.
1272:Generated_Source\PSoC6\pdl\drivers\peripheral\scb/cy_scb_common.h **** *
1273:Generated_Source\PSoC6\pdl\drivers\peripheral\scb/cy_scb_common.h **** * \param interruptMask
1274:Generated_Source\PSoC6\pdl\drivers\peripheral\scb/cy_scb_common.h **** * The master interrupt sources to be cleared.
1275:Generated_Source\PSoC6\pdl\drivers\peripheral\scb/cy_scb_common.h **** * See \ref group_scb_common_macros_master_intr for the set of constants.
1276:Generated_Source\PSoC6\pdl\drivers\peripheral\scb/cy_scb_common.h **** *
1277:Generated_Source\PSoC6\pdl\drivers\peripheral\scb/cy_scb_common.h **** *******************************************************************************/
1278:Generated_Source\PSoC6\pdl\drivers\peripheral\scb/cy_scb_common.h **** __STATIC_INLINE void Cy_SCB_ClearMasterInterrupt(CySCB_Type *base, uint32_t interruptMask)
1279:Generated_Source\PSoC6\pdl\drivers\peripheral\scb/cy_scb_common.h **** {
1280:Generated_Source\PSoC6\pdl\drivers\peripheral\scb/cy_scb_common.h ****     CY_ASSERT_L2(CY_SCB_IS_INTR_VALID(interruptMask, CY_SCB_MASTER_INTR_MASK));
1281:Generated_Source\PSoC6\pdl\drivers\peripheral\scb/cy_scb_common.h **** 
1282:Generated_Source\PSoC6\pdl\drivers\peripheral\scb/cy_scb_common.h ****     SCB_INTR_M(base) = interruptMask;
1283:Generated_Source\PSoC6\pdl\drivers\peripheral\scb/cy_scb_common.h ****     (void) SCB_INTR_M(base);
1284:Generated_Source\PSoC6\pdl\drivers\peripheral\scb/cy_scb_common.h **** }
1285:Generated_Source\PSoC6\pdl\drivers\peripheral\scb/cy_scb_common.h **** 
1286:Generated_Source\PSoC6\pdl\drivers\peripheral\scb/cy_scb_common.h **** 
1287:Generated_Source\PSoC6\pdl\drivers\peripheral\scb/cy_scb_common.h **** /*******************************************************************************
1288:Generated_Source\PSoC6\pdl\drivers\peripheral\scb/cy_scb_common.h **** * Function Name: Cy_SCB_SetMasterInterrupt
1289:Generated_Source\PSoC6\pdl\drivers\peripheral\scb/cy_scb_common.h **** ****************************************************************************//**
1290:Generated_Source\PSoC6\pdl\drivers\peripheral\scb/cy_scb_common.h **** *
1291:Generated_Source\PSoC6\pdl\drivers\peripheral\scb/cy_scb_common.h **** * Sets master interrupt sources in the interrupt request register.
1292:Generated_Source\PSoC6\pdl\drivers\peripheral\scb/cy_scb_common.h **** *
1293:Generated_Source\PSoC6\pdl\drivers\peripheral\scb/cy_scb_common.h **** * \param base
1294:Generated_Source\PSoC6\pdl\drivers\peripheral\scb/cy_scb_common.h **** * The pointer to the SCB instance.
1295:Generated_Source\PSoC6\pdl\drivers\peripheral\scb/cy_scb_common.h **** *
1296:Generated_Source\PSoC6\pdl\drivers\peripheral\scb/cy_scb_common.h **** * \param interruptMask
1297:Generated_Source\PSoC6\pdl\drivers\peripheral\scb/cy_scb_common.h **** * The master interrupt sources to set in the master interrupt request register.
1298:Generated_Source\PSoC6\pdl\drivers\peripheral\scb/cy_scb_common.h **** * See \ref group_scb_common_macros_master_intr for the set of constants.
1299:Generated_Source\PSoC6\pdl\drivers\peripheral\scb/cy_scb_common.h **** *
1300:Generated_Source\PSoC6\pdl\drivers\peripheral\scb/cy_scb_common.h **** *******************************************************************************/
1301:Generated_Source\PSoC6\pdl\drivers\peripheral\scb/cy_scb_common.h **** __STATIC_INLINE void Cy_SCB_SetMasterInterrupt(CySCB_Type *base, uint32_t interruptMask)
1302:Generated_Source\PSoC6\pdl\drivers\peripheral\scb/cy_scb_common.h **** {
1303:Generated_Source\PSoC6\pdl\drivers\peripheral\scb/cy_scb_common.h ****     CY_ASSERT_L2(CY_SCB_IS_INTR_VALID(interruptMask, CY_SCB_MASTER_INTR_MASK));
1304:Generated_Source\PSoC6\pdl\drivers\peripheral\scb/cy_scb_common.h **** 
1305:Generated_Source\PSoC6\pdl\drivers\peripheral\scb/cy_scb_common.h ****     SCB_INTR_M_SET(base) = interruptMask;
1306:Generated_Source\PSoC6\pdl\drivers\peripheral\scb/cy_scb_common.h **** }
1307:Generated_Source\PSoC6\pdl\drivers\peripheral\scb/cy_scb_common.h **** 
1308:Generated_Source\PSoC6\pdl\drivers\peripheral\scb/cy_scb_common.h **** 
ARM GAS  C:\Users\tmj32\AppData\Local\Temp\ccenHtUU.s 			page 39


1309:Generated_Source\PSoC6\pdl\drivers\peripheral\scb/cy_scb_common.h **** /*******************************************************************************
1310:Generated_Source\PSoC6\pdl\drivers\peripheral\scb/cy_scb_common.h **** * Function Name: Cy_SCB_GetSlaveInterruptStatus
1311:Generated_Source\PSoC6\pdl\drivers\peripheral\scb/cy_scb_common.h **** ****************************************************************************//**
1312:Generated_Source\PSoC6\pdl\drivers\peripheral\scb/cy_scb_common.h **** *
1313:Generated_Source\PSoC6\pdl\drivers\peripheral\scb/cy_scb_common.h **** * Returns the slave interrupt request register. This register contains the current
1314:Generated_Source\PSoC6\pdl\drivers\peripheral\scb/cy_scb_common.h **** * status of the slave interrupt sources.
1315:Generated_Source\PSoC6\pdl\drivers\peripheral\scb/cy_scb_common.h **** *
1316:Generated_Source\PSoC6\pdl\drivers\peripheral\scb/cy_scb_common.h **** * \param base
1317:Generated_Source\PSoC6\pdl\drivers\peripheral\scb/cy_scb_common.h **** * The pointer to the SCB instance.
1318:Generated_Source\PSoC6\pdl\drivers\peripheral\scb/cy_scb_common.h **** *
1319:Generated_Source\PSoC6\pdl\drivers\peripheral\scb/cy_scb_common.h **** * \return
1320:Generated_Source\PSoC6\pdl\drivers\peripheral\scb/cy_scb_common.h **** * The current status of the slave interrupt sources.
1321:Generated_Source\PSoC6\pdl\drivers\peripheral\scb/cy_scb_common.h **** * Each constant is a bit field value. The value returned may have multiple
1322:Generated_Source\PSoC6\pdl\drivers\peripheral\scb/cy_scb_common.h **** * bits set to indicate the current status.
1323:Generated_Source\PSoC6\pdl\drivers\peripheral\scb/cy_scb_common.h **** * See \ref group_scb_common_macros_slave_intr for the set of constants.
1324:Generated_Source\PSoC6\pdl\drivers\peripheral\scb/cy_scb_common.h **** *
1325:Generated_Source\PSoC6\pdl\drivers\peripheral\scb/cy_scb_common.h **** *******************************************************************************/
1326:Generated_Source\PSoC6\pdl\drivers\peripheral\scb/cy_scb_common.h **** __STATIC_INLINE uint32_t Cy_SCB_GetSlaveInterruptStatus(CySCB_Type const *base)
1327:Generated_Source\PSoC6\pdl\drivers\peripheral\scb/cy_scb_common.h **** {
1328:Generated_Source\PSoC6\pdl\drivers\peripheral\scb/cy_scb_common.h ****     return (SCB_INTR_S(base) & CY_SCB_SLAVE_INTR_MASK);
1329:Generated_Source\PSoC6\pdl\drivers\peripheral\scb/cy_scb_common.h **** }
1330:Generated_Source\PSoC6\pdl\drivers\peripheral\scb/cy_scb_common.h **** 
1331:Generated_Source\PSoC6\pdl\drivers\peripheral\scb/cy_scb_common.h **** 
1332:Generated_Source\PSoC6\pdl\drivers\peripheral\scb/cy_scb_common.h **** /*******************************************************************************
1333:Generated_Source\PSoC6\pdl\drivers\peripheral\scb/cy_scb_common.h **** * Function Name: Cy_SCB_SetSlaveInterruptMask
1334:Generated_Source\PSoC6\pdl\drivers\peripheral\scb/cy_scb_common.h **** ****************************************************************************//**
1335:Generated_Source\PSoC6\pdl\drivers\peripheral\scb/cy_scb_common.h **** *
1336:Generated_Source\PSoC6\pdl\drivers\peripheral\scb/cy_scb_common.h **** * Writes slave interrupt mask register.
1337:Generated_Source\PSoC6\pdl\drivers\peripheral\scb/cy_scb_common.h **** * This register specifies which bits from the slave interrupt request register
1338:Generated_Source\PSoC6\pdl\drivers\peripheral\scb/cy_scb_common.h **** * can trigger an interrupt event.
1339:Generated_Source\PSoC6\pdl\drivers\peripheral\scb/cy_scb_common.h **** *
1340:Generated_Source\PSoC6\pdl\drivers\peripheral\scb/cy_scb_common.h **** * \param base
1341:Generated_Source\PSoC6\pdl\drivers\peripheral\scb/cy_scb_common.h **** * The pointer to the SCB instance.
1342:Generated_Source\PSoC6\pdl\drivers\peripheral\scb/cy_scb_common.h **** *
1343:Generated_Source\PSoC6\pdl\drivers\peripheral\scb/cy_scb_common.h **** * \param interruptMask
1344:Generated_Source\PSoC6\pdl\drivers\peripheral\scb/cy_scb_common.h **** * Enabled slave interrupt sources.
1345:Generated_Source\PSoC6\pdl\drivers\peripheral\scb/cy_scb_common.h **** * See \ref group_scb_common_macros_slave_intr for the set of constants.
1346:Generated_Source\PSoC6\pdl\drivers\peripheral\scb/cy_scb_common.h **** *
1347:Generated_Source\PSoC6\pdl\drivers\peripheral\scb/cy_scb_common.h **** *******************************************************************************/
1348:Generated_Source\PSoC6\pdl\drivers\peripheral\scb/cy_scb_common.h **** __STATIC_INLINE void Cy_SCB_SetSlaveInterruptMask(CySCB_Type *base, uint32_t interruptMask)
1349:Generated_Source\PSoC6\pdl\drivers\peripheral\scb/cy_scb_common.h **** {
 851              		.loc 1 1349 0
 852              		.cfi_startproc
 853              		@ args = 0, pretend = 0, frame = 8
 854              		@ frame_needed = 1, uses_anonymous_args = 0
 855 0000 80B5     		push	{r7, lr}
 856              		.cfi_def_cfa_offset 8
 857              		.cfi_offset 7, -8
 858              		.cfi_offset 14, -4
 859 0002 82B0     		sub	sp, sp, #8
 860              		.cfi_def_cfa_offset 16
 861 0004 00AF     		add	r7, sp, #0
 862              		.cfi_def_cfa_register 7
 863 0006 7860     		str	r0, [r7, #4]
 864 0008 3960     		str	r1, [r7]
1350:Generated_Source\PSoC6\pdl\drivers\peripheral\scb/cy_scb_common.h ****     CY_ASSERT_L2(CY_SCB_IS_INTR_VALID(interruptMask, CY_SCB_SLAVE_INTR_MASK));
 865              		.loc 1 1350 0
ARM GAS  C:\Users\tmj32\AppData\Local\Temp\ccenHtUU.s 			page 40


 866 000a 3B68     		ldr	r3, [r7]
 867 000c 23F41F63 		bic	r3, r3, #2544
 868 0010 23F00F03 		bic	r3, r3, #15
 869 0014 002B     		cmp	r3, #0
 870 0016 04D0     		beq	.L50
 871              		.loc 1 1350 0 is_stmt 0 discriminator 1
 872 0018 40F24651 		movw	r1, #1350
 873 001c 0548     		ldr	r0, .L51
 874 001e FFF7FEFF 		bl	Cy_SysLib_AssertFailed
 875              	.L50:
1351:Generated_Source\PSoC6\pdl\drivers\peripheral\scb/cy_scb_common.h **** 
1352:Generated_Source\PSoC6\pdl\drivers\peripheral\scb/cy_scb_common.h ****     SCB_INTR_S_MASK(base) = interruptMask;
 876              		.loc 1 1352 0 is_stmt 1
 877 0022 7B68     		ldr	r3, [r7, #4]
 878 0024 3A68     		ldr	r2, [r7]
 879 0026 C3F8482F 		str	r2, [r3, #3912]
1353:Generated_Source\PSoC6\pdl\drivers\peripheral\scb/cy_scb_common.h **** }
 880              		.loc 1 1353 0
 881 002a 00BF     		nop
 882 002c 0837     		adds	r7, r7, #8
 883              		.cfi_def_cfa_offset 8
 884 002e BD46     		mov	sp, r7
 885              		.cfi_def_cfa_register 13
 886              		@ sp needed
 887 0030 80BD     		pop	{r7, pc}
 888              	.L52:
 889 0032 00BF     		.align	2
 890              	.L51:
 891 0034 00000000 		.word	.LC0
 892              		.cfi_endproc
 893              	.LFE198:
 894              		.size	Cy_SCB_SetSlaveInterruptMask, .-Cy_SCB_SetSlaveInterruptMask
 895              		.section	.text.Cy_SCB_GetSlaveInterruptStatusMasked,"ax",%progbits
 896              		.align	2
 897              		.thumb
 898              		.thumb_func
 899              		.type	Cy_SCB_GetSlaveInterruptStatusMasked, %function
 900              	Cy_SCB_GetSlaveInterruptStatusMasked:
 901              	.LFB200:
1354:Generated_Source\PSoC6\pdl\drivers\peripheral\scb/cy_scb_common.h **** 
1355:Generated_Source\PSoC6\pdl\drivers\peripheral\scb/cy_scb_common.h **** 
1356:Generated_Source\PSoC6\pdl\drivers\peripheral\scb/cy_scb_common.h **** /*******************************************************************************
1357:Generated_Source\PSoC6\pdl\drivers\peripheral\scb/cy_scb_common.h **** * Function Name: Cy_SCB_GetSlaveInterruptMask
1358:Generated_Source\PSoC6\pdl\drivers\peripheral\scb/cy_scb_common.h **** ****************************************************************************//**
1359:Generated_Source\PSoC6\pdl\drivers\peripheral\scb/cy_scb_common.h **** *
1360:Generated_Source\PSoC6\pdl\drivers\peripheral\scb/cy_scb_common.h **** * Returns the slave interrupt mask register.
1361:Generated_Source\PSoC6\pdl\drivers\peripheral\scb/cy_scb_common.h **** * This register specifies which bits from the slave interrupt request register
1362:Generated_Source\PSoC6\pdl\drivers\peripheral\scb/cy_scb_common.h **** * can trigger an interrupt event.
1363:Generated_Source\PSoC6\pdl\drivers\peripheral\scb/cy_scb_common.h **** *
1364:Generated_Source\PSoC6\pdl\drivers\peripheral\scb/cy_scb_common.h **** * \param base
1365:Generated_Source\PSoC6\pdl\drivers\peripheral\scb/cy_scb_common.h **** * The pointer to the SCB instance.
1366:Generated_Source\PSoC6\pdl\drivers\peripheral\scb/cy_scb_common.h **** *
1367:Generated_Source\PSoC6\pdl\drivers\peripheral\scb/cy_scb_common.h **** * \return
1368:Generated_Source\PSoC6\pdl\drivers\peripheral\scb/cy_scb_common.h **** * Enabled slave interrupt sources.
1369:Generated_Source\PSoC6\pdl\drivers\peripheral\scb/cy_scb_common.h **** * See \ref group_scb_common_macros_slave_intr for the set of constants.
1370:Generated_Source\PSoC6\pdl\drivers\peripheral\scb/cy_scb_common.h **** *
1371:Generated_Source\PSoC6\pdl\drivers\peripheral\scb/cy_scb_common.h **** *******************************************************************************/
ARM GAS  C:\Users\tmj32\AppData\Local\Temp\ccenHtUU.s 			page 41


1372:Generated_Source\PSoC6\pdl\drivers\peripheral\scb/cy_scb_common.h **** __STATIC_INLINE uint32_t Cy_SCB_GetSlaveInterruptMask(CySCB_Type const *base)
1373:Generated_Source\PSoC6\pdl\drivers\peripheral\scb/cy_scb_common.h **** {
1374:Generated_Source\PSoC6\pdl\drivers\peripheral\scb/cy_scb_common.h ****     return (SCB_INTR_S_MASK(base));
1375:Generated_Source\PSoC6\pdl\drivers\peripheral\scb/cy_scb_common.h **** }
1376:Generated_Source\PSoC6\pdl\drivers\peripheral\scb/cy_scb_common.h **** 
1377:Generated_Source\PSoC6\pdl\drivers\peripheral\scb/cy_scb_common.h **** 
1378:Generated_Source\PSoC6\pdl\drivers\peripheral\scb/cy_scb_common.h **** /*******************************************************************************
1379:Generated_Source\PSoC6\pdl\drivers\peripheral\scb/cy_scb_common.h **** * Function Name: Cy_SCB_GetSlaveInterruptStatusMasked
1380:Generated_Source\PSoC6\pdl\drivers\peripheral\scb/cy_scb_common.h **** ****************************************************************************//**
1381:Generated_Source\PSoC6\pdl\drivers\peripheral\scb/cy_scb_common.h **** *
1382:Generated_Source\PSoC6\pdl\drivers\peripheral\scb/cy_scb_common.h **** * Returns the slave interrupt masked request register. This register contains a
1383:Generated_Source\PSoC6\pdl\drivers\peripheral\scb/cy_scb_common.h **** * logical AND of corresponding bits from the slave interrupt request and mask
1384:Generated_Source\PSoC6\pdl\drivers\peripheral\scb/cy_scb_common.h **** * registers.
1385:Generated_Source\PSoC6\pdl\drivers\peripheral\scb/cy_scb_common.h **** * This function is intended to be used in the interrupt service routine to
1386:Generated_Source\PSoC6\pdl\drivers\peripheral\scb/cy_scb_common.h **** * identify which of enabled slave interrupt sources caused the interrupt
1387:Generated_Source\PSoC6\pdl\drivers\peripheral\scb/cy_scb_common.h **** * event.
1388:Generated_Source\PSoC6\pdl\drivers\peripheral\scb/cy_scb_common.h **** *
1389:Generated_Source\PSoC6\pdl\drivers\peripheral\scb/cy_scb_common.h **** * \param base
1390:Generated_Source\PSoC6\pdl\drivers\peripheral\scb/cy_scb_common.h **** * The pointer to the SCB instance.
1391:Generated_Source\PSoC6\pdl\drivers\peripheral\scb/cy_scb_common.h **** *
1392:Generated_Source\PSoC6\pdl\drivers\peripheral\scb/cy_scb_common.h **** * \return
1393:Generated_Source\PSoC6\pdl\drivers\peripheral\scb/cy_scb_common.h **** * The current status of enabled slave interrupt sources.
1394:Generated_Source\PSoC6\pdl\drivers\peripheral\scb/cy_scb_common.h **** * See \ref group_scb_common_macros_slave_intr for the set of constants.
1395:Generated_Source\PSoC6\pdl\drivers\peripheral\scb/cy_scb_common.h **** *
1396:Generated_Source\PSoC6\pdl\drivers\peripheral\scb/cy_scb_common.h **** *******************************************************************************/
1397:Generated_Source\PSoC6\pdl\drivers\peripheral\scb/cy_scb_common.h **** __STATIC_INLINE uint32_t Cy_SCB_GetSlaveInterruptStatusMasked(CySCB_Type const *base)
1398:Generated_Source\PSoC6\pdl\drivers\peripheral\scb/cy_scb_common.h **** {
 902              		.loc 1 1398 0
 903              		.cfi_startproc
 904              		@ args = 0, pretend = 0, frame = 8
 905              		@ frame_needed = 1, uses_anonymous_args = 0
 906              		@ link register save eliminated.
 907 0000 80B4     		push	{r7}
 908              		.cfi_def_cfa_offset 4
 909              		.cfi_offset 7, -4
 910 0002 83B0     		sub	sp, sp, #12
 911              		.cfi_def_cfa_offset 16
 912 0004 00AF     		add	r7, sp, #0
 913              		.cfi_def_cfa_register 7
 914 0006 7860     		str	r0, [r7, #4]
1399:Generated_Source\PSoC6\pdl\drivers\peripheral\scb/cy_scb_common.h ****     return (SCB_INTR_S_MASKED(base));
 915              		.loc 1 1399 0
 916 0008 7B68     		ldr	r3, [r7, #4]
 917 000a D3F84C3F 		ldr	r3, [r3, #3916]
1400:Generated_Source\PSoC6\pdl\drivers\peripheral\scb/cy_scb_common.h **** }
 918              		.loc 1 1400 0
 919 000e 1846     		mov	r0, r3
 920 0010 0C37     		adds	r7, r7, #12
 921              		.cfi_def_cfa_offset 4
 922 0012 BD46     		mov	sp, r7
 923              		.cfi_def_cfa_register 13
 924              		@ sp needed
 925 0014 5DF8047B 		ldr	r7, [sp], #4
 926              		.cfi_restore 7
 927              		.cfi_def_cfa_offset 0
 928 0018 7047     		bx	lr
 929              		.cfi_endproc
ARM GAS  C:\Users\tmj32\AppData\Local\Temp\ccenHtUU.s 			page 42


 930              	.LFE200:
 931              		.size	Cy_SCB_GetSlaveInterruptStatusMasked, .-Cy_SCB_GetSlaveInterruptStatusMasked
 932 001a 00BF     		.section	.text.Cy_SCB_ClearSlaveInterrupt,"ax",%progbits
 933              		.align	2
 934              		.thumb
 935              		.thumb_func
 936              		.type	Cy_SCB_ClearSlaveInterrupt, %function
 937              	Cy_SCB_ClearSlaveInterrupt:
 938              	.LFB201:
1401:Generated_Source\PSoC6\pdl\drivers\peripheral\scb/cy_scb_common.h **** 
1402:Generated_Source\PSoC6\pdl\drivers\peripheral\scb/cy_scb_common.h **** 
1403:Generated_Source\PSoC6\pdl\drivers\peripheral\scb/cy_scb_common.h **** /*******************************************************************************
1404:Generated_Source\PSoC6\pdl\drivers\peripheral\scb/cy_scb_common.h **** * Function Name: Cy_SCB_ClearSlaveInterrupt
1405:Generated_Source\PSoC6\pdl\drivers\peripheral\scb/cy_scb_common.h **** ****************************************************************************//**
1406:Generated_Source\PSoC6\pdl\drivers\peripheral\scb/cy_scb_common.h **** *
1407:Generated_Source\PSoC6\pdl\drivers\peripheral\scb/cy_scb_common.h **** * Clears the slave interrupt sources in the interrupt request register.
1408:Generated_Source\PSoC6\pdl\drivers\peripheral\scb/cy_scb_common.h **** *
1409:Generated_Source\PSoC6\pdl\drivers\peripheral\scb/cy_scb_common.h **** * \param base
1410:Generated_Source\PSoC6\pdl\drivers\peripheral\scb/cy_scb_common.h **** * The pointer to the SCB instance.
1411:Generated_Source\PSoC6\pdl\drivers\peripheral\scb/cy_scb_common.h **** *
1412:Generated_Source\PSoC6\pdl\drivers\peripheral\scb/cy_scb_common.h **** * \param interruptMask
1413:Generated_Source\PSoC6\pdl\drivers\peripheral\scb/cy_scb_common.h **** * Slave interrupt sources to be cleared.
1414:Generated_Source\PSoC6\pdl\drivers\peripheral\scb/cy_scb_common.h **** * See \ref group_scb_common_macros_slave_intr for the set of constants.
1415:Generated_Source\PSoC6\pdl\drivers\peripheral\scb/cy_scb_common.h **** *
1416:Generated_Source\PSoC6\pdl\drivers\peripheral\scb/cy_scb_common.h **** *******************************************************************************/
1417:Generated_Source\PSoC6\pdl\drivers\peripheral\scb/cy_scb_common.h **** __STATIC_INLINE void Cy_SCB_ClearSlaveInterrupt(CySCB_Type *base, uint32_t interruptMask)
1418:Generated_Source\PSoC6\pdl\drivers\peripheral\scb/cy_scb_common.h **** {
 939              		.loc 1 1418 0
 940              		.cfi_startproc
 941              		@ args = 0, pretend = 0, frame = 8
 942              		@ frame_needed = 1, uses_anonymous_args = 0
 943 0000 80B5     		push	{r7, lr}
 944              		.cfi_def_cfa_offset 8
 945              		.cfi_offset 7, -8
 946              		.cfi_offset 14, -4
 947 0002 82B0     		sub	sp, sp, #8
 948              		.cfi_def_cfa_offset 16
 949 0004 00AF     		add	r7, sp, #0
 950              		.cfi_def_cfa_register 7
 951 0006 7860     		str	r0, [r7, #4]
 952 0008 3960     		str	r1, [r7]
1419:Generated_Source\PSoC6\pdl\drivers\peripheral\scb/cy_scb_common.h ****     CY_ASSERT_L2(CY_SCB_IS_INTR_VALID(interruptMask, CY_SCB_SLAVE_INTR_MASK));
 953              		.loc 1 1419 0
 954 000a 3B68     		ldr	r3, [r7]
 955 000c 23F41F63 		bic	r3, r3, #2544
 956 0010 23F00F03 		bic	r3, r3, #15
 957 0014 002B     		cmp	r3, #0
 958 0016 04D0     		beq	.L56
 959              		.loc 1 1419 0 is_stmt 0 discriminator 1
 960 0018 40F28B51 		movw	r1, #1419
 961 001c 0648     		ldr	r0, .L57
 962 001e FFF7FEFF 		bl	Cy_SysLib_AssertFailed
 963              	.L56:
1420:Generated_Source\PSoC6\pdl\drivers\peripheral\scb/cy_scb_common.h **** 
1421:Generated_Source\PSoC6\pdl\drivers\peripheral\scb/cy_scb_common.h ****     SCB_INTR_S(base) = interruptMask;
 964              		.loc 1 1421 0 is_stmt 1
 965 0022 7B68     		ldr	r3, [r7, #4]
ARM GAS  C:\Users\tmj32\AppData\Local\Temp\ccenHtUU.s 			page 43


 966 0024 3A68     		ldr	r2, [r7]
 967 0026 C3F8402F 		str	r2, [r3, #3904]
1422:Generated_Source\PSoC6\pdl\drivers\peripheral\scb/cy_scb_common.h ****     (void) SCB_INTR_S(base);
 968              		.loc 1 1422 0
 969 002a 7B68     		ldr	r3, [r7, #4]
 970 002c D3F8403F 		ldr	r3, [r3, #3904]
1423:Generated_Source\PSoC6\pdl\drivers\peripheral\scb/cy_scb_common.h **** }
 971              		.loc 1 1423 0
 972 0030 00BF     		nop
 973 0032 0837     		adds	r7, r7, #8
 974              		.cfi_def_cfa_offset 8
 975 0034 BD46     		mov	sp, r7
 976              		.cfi_def_cfa_register 13
 977              		@ sp needed
 978 0036 80BD     		pop	{r7, pc}
 979              	.L58:
 980              		.align	2
 981              	.L57:
 982 0038 00000000 		.word	.LC0
 983              		.cfi_endproc
 984              	.LFE201:
 985              		.size	Cy_SCB_ClearSlaveInterrupt, .-Cy_SCB_ClearSlaveInterrupt
 986              		.section	.text.Cy_SCB_SetSpiInterruptMask,"ax",%progbits
 987              		.align	2
 988              		.thumb
 989              		.thumb_func
 990              		.type	Cy_SCB_SetSpiInterruptMask, %function
 991              	Cy_SCB_SetSpiInterruptMask:
 992              	.LFB209:
1424:Generated_Source\PSoC6\pdl\drivers\peripheral\scb/cy_scb_common.h **** 
1425:Generated_Source\PSoC6\pdl\drivers\peripheral\scb/cy_scb_common.h **** 
1426:Generated_Source\PSoC6\pdl\drivers\peripheral\scb/cy_scb_common.h **** /*******************************************************************************
1427:Generated_Source\PSoC6\pdl\drivers\peripheral\scb/cy_scb_common.h **** * Function Name: Cy_SCB_SetSlaveInterrupt
1428:Generated_Source\PSoC6\pdl\drivers\peripheral\scb/cy_scb_common.h **** ****************************************************************************//**
1429:Generated_Source\PSoC6\pdl\drivers\peripheral\scb/cy_scb_common.h **** *
1430:Generated_Source\PSoC6\pdl\drivers\peripheral\scb/cy_scb_common.h **** * Sets slave interrupt sources in the interrupt request register.
1431:Generated_Source\PSoC6\pdl\drivers\peripheral\scb/cy_scb_common.h **** *
1432:Generated_Source\PSoC6\pdl\drivers\peripheral\scb/cy_scb_common.h **** * \param base
1433:Generated_Source\PSoC6\pdl\drivers\peripheral\scb/cy_scb_common.h **** * The pointer to the SCB instance.
1434:Generated_Source\PSoC6\pdl\drivers\peripheral\scb/cy_scb_common.h **** *
1435:Generated_Source\PSoC6\pdl\drivers\peripheral\scb/cy_scb_common.h **** * \param interruptMask
1436:Generated_Source\PSoC6\pdl\drivers\peripheral\scb/cy_scb_common.h **** * The slave interrupt sources to set in the slave interrupt request register
1437:Generated_Source\PSoC6\pdl\drivers\peripheral\scb/cy_scb_common.h **** * See \ref group_scb_common_macros_slave_intr for the set of constants.
1438:Generated_Source\PSoC6\pdl\drivers\peripheral\scb/cy_scb_common.h **** *
1439:Generated_Source\PSoC6\pdl\drivers\peripheral\scb/cy_scb_common.h **** *******************************************************************************/
1440:Generated_Source\PSoC6\pdl\drivers\peripheral\scb/cy_scb_common.h **** __STATIC_INLINE void Cy_SCB_SetSlaveInterrupt(CySCB_Type *base, uint32_t interruptMask)
1441:Generated_Source\PSoC6\pdl\drivers\peripheral\scb/cy_scb_common.h **** {
1442:Generated_Source\PSoC6\pdl\drivers\peripheral\scb/cy_scb_common.h ****     CY_ASSERT_L2(CY_SCB_IS_INTR_VALID(interruptMask, CY_SCB_SLAVE_INTR_MASK));
1443:Generated_Source\PSoC6\pdl\drivers\peripheral\scb/cy_scb_common.h **** 
1444:Generated_Source\PSoC6\pdl\drivers\peripheral\scb/cy_scb_common.h ****     SCB_INTR_S_SET(base) = interruptMask;
1445:Generated_Source\PSoC6\pdl\drivers\peripheral\scb/cy_scb_common.h **** }
1446:Generated_Source\PSoC6\pdl\drivers\peripheral\scb/cy_scb_common.h **** 
1447:Generated_Source\PSoC6\pdl\drivers\peripheral\scb/cy_scb_common.h **** 
1448:Generated_Source\PSoC6\pdl\drivers\peripheral\scb/cy_scb_common.h **** /*******************************************************************************
1449:Generated_Source\PSoC6\pdl\drivers\peripheral\scb/cy_scb_common.h **** * Function Name: Cy_SCB_GetI2CInterruptStatus
1450:Generated_Source\PSoC6\pdl\drivers\peripheral\scb/cy_scb_common.h **** ****************************************************************************//**
1451:Generated_Source\PSoC6\pdl\drivers\peripheral\scb/cy_scb_common.h **** *
ARM GAS  C:\Users\tmj32\AppData\Local\Temp\ccenHtUU.s 			page 44


1452:Generated_Source\PSoC6\pdl\drivers\peripheral\scb/cy_scb_common.h **** * Returns the I2C interrupt request register. This register contains the
1453:Generated_Source\PSoC6\pdl\drivers\peripheral\scb/cy_scb_common.h **** * current status of the I2C interrupt sources.
1454:Generated_Source\PSoC6\pdl\drivers\peripheral\scb/cy_scb_common.h **** *
1455:Generated_Source\PSoC6\pdl\drivers\peripheral\scb/cy_scb_common.h **** * \param base
1456:Generated_Source\PSoC6\pdl\drivers\peripheral\scb/cy_scb_common.h **** * The pointer to the SCB instance.
1457:Generated_Source\PSoC6\pdl\drivers\peripheral\scb/cy_scb_common.h **** *
1458:Generated_Source\PSoC6\pdl\drivers\peripheral\scb/cy_scb_common.h **** * \return
1459:Generated_Source\PSoC6\pdl\drivers\peripheral\scb/cy_scb_common.h **** * The current status of the I2C interrupt sources. Each constant is a bit
1460:Generated_Source\PSoC6\pdl\drivers\peripheral\scb/cy_scb_common.h **** * field value.
1461:Generated_Source\PSoC6\pdl\drivers\peripheral\scb/cy_scb_common.h **** * The value returned may have multiple bits set to indicate the current status.
1462:Generated_Source\PSoC6\pdl\drivers\peripheral\scb/cy_scb_common.h **** * See \ref group_scb_common_macros_slave_intr for the set of constants.
1463:Generated_Source\PSoC6\pdl\drivers\peripheral\scb/cy_scb_common.h **** *
1464:Generated_Source\PSoC6\pdl\drivers\peripheral\scb/cy_scb_common.h **** *******************************************************************************/
1465:Generated_Source\PSoC6\pdl\drivers\peripheral\scb/cy_scb_common.h **** __STATIC_INLINE uint32_t Cy_SCB_GetI2CInterruptStatus(CySCB_Type const *base)
1466:Generated_Source\PSoC6\pdl\drivers\peripheral\scb/cy_scb_common.h **** {
1467:Generated_Source\PSoC6\pdl\drivers\peripheral\scb/cy_scb_common.h ****     return (SCB_INTR_I2C_EC(base) & CY_SCB_I2C_INTR_MASK);
1468:Generated_Source\PSoC6\pdl\drivers\peripheral\scb/cy_scb_common.h **** }
1469:Generated_Source\PSoC6\pdl\drivers\peripheral\scb/cy_scb_common.h **** 
1470:Generated_Source\PSoC6\pdl\drivers\peripheral\scb/cy_scb_common.h **** 
1471:Generated_Source\PSoC6\pdl\drivers\peripheral\scb/cy_scb_common.h **** /*******************************************************************************
1472:Generated_Source\PSoC6\pdl\drivers\peripheral\scb/cy_scb_common.h **** * Function Name: Cy_SCB_SetI2CInterruptMask
1473:Generated_Source\PSoC6\pdl\drivers\peripheral\scb/cy_scb_common.h **** ****************************************************************************//**
1474:Generated_Source\PSoC6\pdl\drivers\peripheral\scb/cy_scb_common.h **** *
1475:Generated_Source\PSoC6\pdl\drivers\peripheral\scb/cy_scb_common.h **** * Writes the I2C interrupt mask register. This register specifies which bits
1476:Generated_Source\PSoC6\pdl\drivers\peripheral\scb/cy_scb_common.h **** * from the I2C interrupt request register can trigger an interrupt event.
1477:Generated_Source\PSoC6\pdl\drivers\peripheral\scb/cy_scb_common.h **** *
1478:Generated_Source\PSoC6\pdl\drivers\peripheral\scb/cy_scb_common.h **** * \param base
1479:Generated_Source\PSoC6\pdl\drivers\peripheral\scb/cy_scb_common.h **** * The pointer to the SCB instance.
1480:Generated_Source\PSoC6\pdl\drivers\peripheral\scb/cy_scb_common.h **** *
1481:Generated_Source\PSoC6\pdl\drivers\peripheral\scb/cy_scb_common.h **** * \param interruptMask
1482:Generated_Source\PSoC6\pdl\drivers\peripheral\scb/cy_scb_common.h **** * Enabled I2C interrupt sources.
1483:Generated_Source\PSoC6\pdl\drivers\peripheral\scb/cy_scb_common.h **** * See \ref group_scb_common_macros_i2c_intr for the set of constants.
1484:Generated_Source\PSoC6\pdl\drivers\peripheral\scb/cy_scb_common.h **** *
1485:Generated_Source\PSoC6\pdl\drivers\peripheral\scb/cy_scb_common.h **** *******************************************************************************/
1486:Generated_Source\PSoC6\pdl\drivers\peripheral\scb/cy_scb_common.h **** __STATIC_INLINE void Cy_SCB_SetI2CInterruptMask(CySCB_Type *base, uint32_t interruptMask)
1487:Generated_Source\PSoC6\pdl\drivers\peripheral\scb/cy_scb_common.h **** {
1488:Generated_Source\PSoC6\pdl\drivers\peripheral\scb/cy_scb_common.h ****     CY_ASSERT_L2(CY_SCB_IS_INTR_VALID(interruptMask, CY_SCB_I2C_INTR_MASK));
1489:Generated_Source\PSoC6\pdl\drivers\peripheral\scb/cy_scb_common.h **** 
1490:Generated_Source\PSoC6\pdl\drivers\peripheral\scb/cy_scb_common.h ****     SCB_INTR_I2C_EC_MASK(base) = interruptMask;
1491:Generated_Source\PSoC6\pdl\drivers\peripheral\scb/cy_scb_common.h **** }
1492:Generated_Source\PSoC6\pdl\drivers\peripheral\scb/cy_scb_common.h **** 
1493:Generated_Source\PSoC6\pdl\drivers\peripheral\scb/cy_scb_common.h **** 
1494:Generated_Source\PSoC6\pdl\drivers\peripheral\scb/cy_scb_common.h **** /*******************************************************************************
1495:Generated_Source\PSoC6\pdl\drivers\peripheral\scb/cy_scb_common.h **** * Function Name: Cy_SCB_GetI2CInterruptMask
1496:Generated_Source\PSoC6\pdl\drivers\peripheral\scb/cy_scb_common.h **** ****************************************************************************//**
1497:Generated_Source\PSoC6\pdl\drivers\peripheral\scb/cy_scb_common.h **** *
1498:Generated_Source\PSoC6\pdl\drivers\peripheral\scb/cy_scb_common.h **** * Returns the I2C interrupt mask register. This register specifies which bits
1499:Generated_Source\PSoC6\pdl\drivers\peripheral\scb/cy_scb_common.h **** * from the I2C interrupt request register can trigger an interrupt event.
1500:Generated_Source\PSoC6\pdl\drivers\peripheral\scb/cy_scb_common.h **** *
1501:Generated_Source\PSoC6\pdl\drivers\peripheral\scb/cy_scb_common.h **** * \param base
1502:Generated_Source\PSoC6\pdl\drivers\peripheral\scb/cy_scb_common.h **** * The pointer to the SCB instance.
1503:Generated_Source\PSoC6\pdl\drivers\peripheral\scb/cy_scb_common.h **** *
1504:Generated_Source\PSoC6\pdl\drivers\peripheral\scb/cy_scb_common.h **** * \return
1505:Generated_Source\PSoC6\pdl\drivers\peripheral\scb/cy_scb_common.h **** * Enabled I2C interrupt sources.
1506:Generated_Source\PSoC6\pdl\drivers\peripheral\scb/cy_scb_common.h **** * See \ref group_scb_common_macros_i2c_intr.
1507:Generated_Source\PSoC6\pdl\drivers\peripheral\scb/cy_scb_common.h **** *
1508:Generated_Source\PSoC6\pdl\drivers\peripheral\scb/cy_scb_common.h **** *******************************************************************************/
ARM GAS  C:\Users\tmj32\AppData\Local\Temp\ccenHtUU.s 			page 45


1509:Generated_Source\PSoC6\pdl\drivers\peripheral\scb/cy_scb_common.h **** __STATIC_INLINE uint32_t Cy_SCB_GetI2CInterruptMask(CySCB_Type const *base)
1510:Generated_Source\PSoC6\pdl\drivers\peripheral\scb/cy_scb_common.h **** {
1511:Generated_Source\PSoC6\pdl\drivers\peripheral\scb/cy_scb_common.h ****     return (SCB_INTR_I2C_EC_MASK(base));
1512:Generated_Source\PSoC6\pdl\drivers\peripheral\scb/cy_scb_common.h **** }
1513:Generated_Source\PSoC6\pdl\drivers\peripheral\scb/cy_scb_common.h **** 
1514:Generated_Source\PSoC6\pdl\drivers\peripheral\scb/cy_scb_common.h **** 
1515:Generated_Source\PSoC6\pdl\drivers\peripheral\scb/cy_scb_common.h **** /*******************************************************************************
1516:Generated_Source\PSoC6\pdl\drivers\peripheral\scb/cy_scb_common.h **** * Function Name: Cy_SCB_GetI2CInterruptStatusMasked
1517:Generated_Source\PSoC6\pdl\drivers\peripheral\scb/cy_scb_common.h **** ****************************************************************************//**
1518:Generated_Source\PSoC6\pdl\drivers\peripheral\scb/cy_scb_common.h **** *
1519:Generated_Source\PSoC6\pdl\drivers\peripheral\scb/cy_scb_common.h **** * Returns the I2C interrupt masked request register. This register contains
1520:Generated_Source\PSoC6\pdl\drivers\peripheral\scb/cy_scb_common.h **** * a logical AND of corresponding bits from I2C interrupt request and mask
1521:Generated_Source\PSoC6\pdl\drivers\peripheral\scb/cy_scb_common.h **** * registers.
1522:Generated_Source\PSoC6\pdl\drivers\peripheral\scb/cy_scb_common.h **** * This function is intended to be used in the interrupt service routine to
1523:Generated_Source\PSoC6\pdl\drivers\peripheral\scb/cy_scb_common.h **** * identify which of enabled I2C interrupt sources caused the interrupt event.
1524:Generated_Source\PSoC6\pdl\drivers\peripheral\scb/cy_scb_common.h **** *
1525:Generated_Source\PSoC6\pdl\drivers\peripheral\scb/cy_scb_common.h **** * \param base
1526:Generated_Source\PSoC6\pdl\drivers\peripheral\scb/cy_scb_common.h **** * The pointer to the SCB instance.
1527:Generated_Source\PSoC6\pdl\drivers\peripheral\scb/cy_scb_common.h **** *
1528:Generated_Source\PSoC6\pdl\drivers\peripheral\scb/cy_scb_common.h **** * \return
1529:Generated_Source\PSoC6\pdl\drivers\peripheral\scb/cy_scb_common.h **** * The current status of enabled I2C interrupt sources.
1530:Generated_Source\PSoC6\pdl\drivers\peripheral\scb/cy_scb_common.h **** * See \ref group_scb_common_macros_i2c_intr for the set of constants.
1531:Generated_Source\PSoC6\pdl\drivers\peripheral\scb/cy_scb_common.h **** *
1532:Generated_Source\PSoC6\pdl\drivers\peripheral\scb/cy_scb_common.h **** *******************************************************************************/
1533:Generated_Source\PSoC6\pdl\drivers\peripheral\scb/cy_scb_common.h **** __STATIC_INLINE uint32_t Cy_SCB_GetI2CInterruptStatusMasked(CySCB_Type const *base)
1534:Generated_Source\PSoC6\pdl\drivers\peripheral\scb/cy_scb_common.h **** {
1535:Generated_Source\PSoC6\pdl\drivers\peripheral\scb/cy_scb_common.h ****     return (SCB_INTR_I2C_EC_MASKED(base));
1536:Generated_Source\PSoC6\pdl\drivers\peripheral\scb/cy_scb_common.h **** }
1537:Generated_Source\PSoC6\pdl\drivers\peripheral\scb/cy_scb_common.h **** 
1538:Generated_Source\PSoC6\pdl\drivers\peripheral\scb/cy_scb_common.h **** 
1539:Generated_Source\PSoC6\pdl\drivers\peripheral\scb/cy_scb_common.h **** /*******************************************************************************
1540:Generated_Source\PSoC6\pdl\drivers\peripheral\scb/cy_scb_common.h **** * Function Name: Cy_SCB_ClearI2CInterrupt
1541:Generated_Source\PSoC6\pdl\drivers\peripheral\scb/cy_scb_common.h **** ****************************************************************************//**
1542:Generated_Source\PSoC6\pdl\drivers\peripheral\scb/cy_scb_common.h **** *
1543:Generated_Source\PSoC6\pdl\drivers\peripheral\scb/cy_scb_common.h **** * Clears I2C interrupt sources in the interrupt request register.
1544:Generated_Source\PSoC6\pdl\drivers\peripheral\scb/cy_scb_common.h **** *
1545:Generated_Source\PSoC6\pdl\drivers\peripheral\scb/cy_scb_common.h **** * \param base
1546:Generated_Source\PSoC6\pdl\drivers\peripheral\scb/cy_scb_common.h **** * The pointer to the SCB instance.
1547:Generated_Source\PSoC6\pdl\drivers\peripheral\scb/cy_scb_common.h **** *
1548:Generated_Source\PSoC6\pdl\drivers\peripheral\scb/cy_scb_common.h **** * \param interruptMask
1549:Generated_Source\PSoC6\pdl\drivers\peripheral\scb/cy_scb_common.h **** * The I2C interrupt sources to be cleared.
1550:Generated_Source\PSoC6\pdl\drivers\peripheral\scb/cy_scb_common.h **** * See \ref group_scb_common_macros_i2c_intr for the set of constants.
1551:Generated_Source\PSoC6\pdl\drivers\peripheral\scb/cy_scb_common.h **** *
1552:Generated_Source\PSoC6\pdl\drivers\peripheral\scb/cy_scb_common.h **** *******************************************************************************/
1553:Generated_Source\PSoC6\pdl\drivers\peripheral\scb/cy_scb_common.h **** __STATIC_INLINE void Cy_SCB_ClearI2CInterrupt(CySCB_Type *base, uint32_t interruptMask)
1554:Generated_Source\PSoC6\pdl\drivers\peripheral\scb/cy_scb_common.h **** {
1555:Generated_Source\PSoC6\pdl\drivers\peripheral\scb/cy_scb_common.h ****     CY_ASSERT_L2(CY_SCB_IS_INTR_VALID(interruptMask, CY_SCB_I2C_INTR_MASK));
1556:Generated_Source\PSoC6\pdl\drivers\peripheral\scb/cy_scb_common.h **** 
1557:Generated_Source\PSoC6\pdl\drivers\peripheral\scb/cy_scb_common.h ****     SCB_INTR_I2C_EC(base) = interruptMask;
1558:Generated_Source\PSoC6\pdl\drivers\peripheral\scb/cy_scb_common.h ****     (void) SCB_INTR_I2C_EC(base);
1559:Generated_Source\PSoC6\pdl\drivers\peripheral\scb/cy_scb_common.h **** }
1560:Generated_Source\PSoC6\pdl\drivers\peripheral\scb/cy_scb_common.h **** 
1561:Generated_Source\PSoC6\pdl\drivers\peripheral\scb/cy_scb_common.h **** 
1562:Generated_Source\PSoC6\pdl\drivers\peripheral\scb/cy_scb_common.h **** /*******************************************************************************
1563:Generated_Source\PSoC6\pdl\drivers\peripheral\scb/cy_scb_common.h **** * Function Name: Cy_SCB_GetSpiInterruptStatus
1564:Generated_Source\PSoC6\pdl\drivers\peripheral\scb/cy_scb_common.h **** ****************************************************************************//**
1565:Generated_Source\PSoC6\pdl\drivers\peripheral\scb/cy_scb_common.h **** *
ARM GAS  C:\Users\tmj32\AppData\Local\Temp\ccenHtUU.s 			page 46


1566:Generated_Source\PSoC6\pdl\drivers\peripheral\scb/cy_scb_common.h **** * Returns the SPI interrupt request register. This register contains the current
1567:Generated_Source\PSoC6\pdl\drivers\peripheral\scb/cy_scb_common.h **** * status of the SPI interrupt sources.
1568:Generated_Source\PSoC6\pdl\drivers\peripheral\scb/cy_scb_common.h **** *
1569:Generated_Source\PSoC6\pdl\drivers\peripheral\scb/cy_scb_common.h **** * \param base
1570:Generated_Source\PSoC6\pdl\drivers\peripheral\scb/cy_scb_common.h **** * The pointer to the SCB instance.
1571:Generated_Source\PSoC6\pdl\drivers\peripheral\scb/cy_scb_common.h **** *
1572:Generated_Source\PSoC6\pdl\drivers\peripheral\scb/cy_scb_common.h **** * \return
1573:Generated_Source\PSoC6\pdl\drivers\peripheral\scb/cy_scb_common.h **** * The current status of SPI interrupt sources. Each constant is a bit field value.
1574:Generated_Source\PSoC6\pdl\drivers\peripheral\scb/cy_scb_common.h **** * The value returned may have multiple bits set to indicate the current status
1575:Generated_Source\PSoC6\pdl\drivers\peripheral\scb/cy_scb_common.h **** * See \ref group_scb_common_macros_SpiIntrStatuses for the set of constants.
1576:Generated_Source\PSoC6\pdl\drivers\peripheral\scb/cy_scb_common.h **** *
1577:Generated_Source\PSoC6\pdl\drivers\peripheral\scb/cy_scb_common.h **** *******************************************************************************/
1578:Generated_Source\PSoC6\pdl\drivers\peripheral\scb/cy_scb_common.h **** __STATIC_INLINE uint32_t Cy_SCB_GetSpiInterruptStatus(CySCB_Type const *base)
1579:Generated_Source\PSoC6\pdl\drivers\peripheral\scb/cy_scb_common.h **** {
1580:Generated_Source\PSoC6\pdl\drivers\peripheral\scb/cy_scb_common.h ****     return (SCB_INTR_SPI_EC(base) & CY_SCB_SPI_INTR_MASK);
1581:Generated_Source\PSoC6\pdl\drivers\peripheral\scb/cy_scb_common.h **** }
1582:Generated_Source\PSoC6\pdl\drivers\peripheral\scb/cy_scb_common.h **** 
1583:Generated_Source\PSoC6\pdl\drivers\peripheral\scb/cy_scb_common.h **** 
1584:Generated_Source\PSoC6\pdl\drivers\peripheral\scb/cy_scb_common.h **** /*******************************************************************************
1585:Generated_Source\PSoC6\pdl\drivers\peripheral\scb/cy_scb_common.h **** * Function Name: Cy_SCB_SetSpiInterruptMask
1586:Generated_Source\PSoC6\pdl\drivers\peripheral\scb/cy_scb_common.h **** ****************************************************************************//**
1587:Generated_Source\PSoC6\pdl\drivers\peripheral\scb/cy_scb_common.h **** *
1588:Generated_Source\PSoC6\pdl\drivers\peripheral\scb/cy_scb_common.h **** * Writes the SPI interrupt mask register. This register specifies which
1589:Generated_Source\PSoC6\pdl\drivers\peripheral\scb/cy_scb_common.h **** * bits from the SPI interrupt request register can trigger an interrupt event.
1590:Generated_Source\PSoC6\pdl\drivers\peripheral\scb/cy_scb_common.h **** *
1591:Generated_Source\PSoC6\pdl\drivers\peripheral\scb/cy_scb_common.h **** * \param base
1592:Generated_Source\PSoC6\pdl\drivers\peripheral\scb/cy_scb_common.h **** * The pointer to the SCB instance.
1593:Generated_Source\PSoC6\pdl\drivers\peripheral\scb/cy_scb_common.h **** *
1594:Generated_Source\PSoC6\pdl\drivers\peripheral\scb/cy_scb_common.h **** * \param interruptMask
1595:Generated_Source\PSoC6\pdl\drivers\peripheral\scb/cy_scb_common.h **** * Enabled SPI interrupt sources.
1596:Generated_Source\PSoC6\pdl\drivers\peripheral\scb/cy_scb_common.h **** * See \ref group_scb_common_macros_SpiIntrStatuses for the set of constants.
1597:Generated_Source\PSoC6\pdl\drivers\peripheral\scb/cy_scb_common.h **** *
1598:Generated_Source\PSoC6\pdl\drivers\peripheral\scb/cy_scb_common.h **** *******************************************************************************/
1599:Generated_Source\PSoC6\pdl\drivers\peripheral\scb/cy_scb_common.h **** __STATIC_INLINE void Cy_SCB_SetSpiInterruptMask(CySCB_Type *base, uint32_t interruptMask)
1600:Generated_Source\PSoC6\pdl\drivers\peripheral\scb/cy_scb_common.h **** {
 993              		.loc 1 1600 0
 994              		.cfi_startproc
 995              		@ args = 0, pretend = 0, frame = 8
 996              		@ frame_needed = 1, uses_anonymous_args = 0
 997 0000 80B5     		push	{r7, lr}
 998              		.cfi_def_cfa_offset 8
 999              		.cfi_offset 7, -8
 1000              		.cfi_offset 14, -4
 1001 0002 82B0     		sub	sp, sp, #8
 1002              		.cfi_def_cfa_offset 16
 1003 0004 00AF     		add	r7, sp, #0
 1004              		.cfi_def_cfa_register 7
 1005 0006 7860     		str	r0, [r7, #4]
 1006 0008 3960     		str	r1, [r7]
1601:Generated_Source\PSoC6\pdl\drivers\peripheral\scb/cy_scb_common.h ****     CY_ASSERT_L2(CY_SCB_IS_INTR_VALID(interruptMask, CY_SCB_SPI_INTR_MASK));
 1007              		.loc 1 1601 0
 1008 000a 3B68     		ldr	r3, [r7]
 1009 000c 23F00103 		bic	r3, r3, #1
 1010 0010 002B     		cmp	r3, #0
 1011 0012 04D0     		beq	.L60
 1012              		.loc 1 1601 0 is_stmt 0 discriminator 1
 1013 0014 40F24161 		movw	r1, #1601
ARM GAS  C:\Users\tmj32\AppData\Local\Temp\ccenHtUU.s 			page 47


 1014 0018 0548     		ldr	r0, .L61
 1015 001a FFF7FEFF 		bl	Cy_SysLib_AssertFailed
 1016              	.L60:
1602:Generated_Source\PSoC6\pdl\drivers\peripheral\scb/cy_scb_common.h **** 
1603:Generated_Source\PSoC6\pdl\drivers\peripheral\scb/cy_scb_common.h ****     SCB_INTR_SPI_EC_MASK(base) = interruptMask;
 1017              		.loc 1 1603 0 is_stmt 1
 1018 001e 7B68     		ldr	r3, [r7, #4]
 1019 0020 3A68     		ldr	r2, [r7]
 1020 0022 C3F8C82E 		str	r2, [r3, #3784]
1604:Generated_Source\PSoC6\pdl\drivers\peripheral\scb/cy_scb_common.h **** }
 1021              		.loc 1 1604 0
 1022 0026 00BF     		nop
 1023 0028 0837     		adds	r7, r7, #8
 1024              		.cfi_def_cfa_offset 8
 1025 002a BD46     		mov	sp, r7
 1026              		.cfi_def_cfa_register 13
 1027              		@ sp needed
 1028 002c 80BD     		pop	{r7, pc}
 1029              	.L62:
 1030 002e 00BF     		.align	2
 1031              	.L61:
 1032 0030 00000000 		.word	.LC0
 1033              		.cfi_endproc
 1034              	.LFE209:
 1035              		.size	Cy_SCB_SetSpiInterruptMask, .-Cy_SCB_SetSpiInterruptMask
 1036              		.section	.text.Cy_SCB_GetSpiInterruptStatusMasked,"ax",%progbits
 1037              		.align	2
 1038              		.thumb
 1039              		.thumb_func
 1040              		.type	Cy_SCB_GetSpiInterruptStatusMasked, %function
 1041              	Cy_SCB_GetSpiInterruptStatusMasked:
 1042              	.LFB211:
1605:Generated_Source\PSoC6\pdl\drivers\peripheral\scb/cy_scb_common.h **** 
1606:Generated_Source\PSoC6\pdl\drivers\peripheral\scb/cy_scb_common.h **** 
1607:Generated_Source\PSoC6\pdl\drivers\peripheral\scb/cy_scb_common.h **** /*******************************************************************************
1608:Generated_Source\PSoC6\pdl\drivers\peripheral\scb/cy_scb_common.h **** * Function Name: Cy_SCB_GetSpiInterruptMask
1609:Generated_Source\PSoC6\pdl\drivers\peripheral\scb/cy_scb_common.h **** ****************************************************************************//**
1610:Generated_Source\PSoC6\pdl\drivers\peripheral\scb/cy_scb_common.h **** *
1611:Generated_Source\PSoC6\pdl\drivers\peripheral\scb/cy_scb_common.h **** * Returns the SPI interrupt mask register. This register specifies which bits
1612:Generated_Source\PSoC6\pdl\drivers\peripheral\scb/cy_scb_common.h **** * from the SPI interrupt request register can trigger an interrupt event.
1613:Generated_Source\PSoC6\pdl\drivers\peripheral\scb/cy_scb_common.h **** *
1614:Generated_Source\PSoC6\pdl\drivers\peripheral\scb/cy_scb_common.h **** * \param base
1615:Generated_Source\PSoC6\pdl\drivers\peripheral\scb/cy_scb_common.h **** * The pointer to the SCB instance.
1616:Generated_Source\PSoC6\pdl\drivers\peripheral\scb/cy_scb_common.h **** *
1617:Generated_Source\PSoC6\pdl\drivers\peripheral\scb/cy_scb_common.h **** * \return
1618:Generated_Source\PSoC6\pdl\drivers\peripheral\scb/cy_scb_common.h **** * Enabled SPI interrupt sources.
1619:Generated_Source\PSoC6\pdl\drivers\peripheral\scb/cy_scb_common.h **** * See \ref group_scb_common_macros_SpiIntrStatuses for the set of constants.
1620:Generated_Source\PSoC6\pdl\drivers\peripheral\scb/cy_scb_common.h **** *
1621:Generated_Source\PSoC6\pdl\drivers\peripheral\scb/cy_scb_common.h **** *******************************************************************************/
1622:Generated_Source\PSoC6\pdl\drivers\peripheral\scb/cy_scb_common.h **** __STATIC_INLINE uint32_t Cy_SCB_GetSpiInterruptMask(CySCB_Type const *base)
1623:Generated_Source\PSoC6\pdl\drivers\peripheral\scb/cy_scb_common.h **** {
1624:Generated_Source\PSoC6\pdl\drivers\peripheral\scb/cy_scb_common.h ****     return (SCB_INTR_SPI_EC_MASK(base));
1625:Generated_Source\PSoC6\pdl\drivers\peripheral\scb/cy_scb_common.h **** }
1626:Generated_Source\PSoC6\pdl\drivers\peripheral\scb/cy_scb_common.h **** 
1627:Generated_Source\PSoC6\pdl\drivers\peripheral\scb/cy_scb_common.h **** 
1628:Generated_Source\PSoC6\pdl\drivers\peripheral\scb/cy_scb_common.h **** /*******************************************************************************
1629:Generated_Source\PSoC6\pdl\drivers\peripheral\scb/cy_scb_common.h **** * Function Name: Cy_SCB_GetSpiInterruptStatusMasked
ARM GAS  C:\Users\tmj32\AppData\Local\Temp\ccenHtUU.s 			page 48


1630:Generated_Source\PSoC6\pdl\drivers\peripheral\scb/cy_scb_common.h **** ****************************************************************************//**
1631:Generated_Source\PSoC6\pdl\drivers\peripheral\scb/cy_scb_common.h **** *
1632:Generated_Source\PSoC6\pdl\drivers\peripheral\scb/cy_scb_common.h **** * Returns the SPI interrupt masked request register. This register contains
1633:Generated_Source\PSoC6\pdl\drivers\peripheral\scb/cy_scb_common.h **** * a logical AND of corresponding bits from the SPI interrupt request and
1634:Generated_Source\PSoC6\pdl\drivers\peripheral\scb/cy_scb_common.h **** * mask registers.
1635:Generated_Source\PSoC6\pdl\drivers\peripheral\scb/cy_scb_common.h **** * This function is intended to be used in the interrupt service routine to
1636:Generated_Source\PSoC6\pdl\drivers\peripheral\scb/cy_scb_common.h **** * identify which of enabled SPI interrupt sources caused the interrupt event.
1637:Generated_Source\PSoC6\pdl\drivers\peripheral\scb/cy_scb_common.h **** *
1638:Generated_Source\PSoC6\pdl\drivers\peripheral\scb/cy_scb_common.h **** * \param base
1639:Generated_Source\PSoC6\pdl\drivers\peripheral\scb/cy_scb_common.h **** * The pointer to the SCB instance.
1640:Generated_Source\PSoC6\pdl\drivers\peripheral\scb/cy_scb_common.h **** *
1641:Generated_Source\PSoC6\pdl\drivers\peripheral\scb/cy_scb_common.h **** * \return
1642:Generated_Source\PSoC6\pdl\drivers\peripheral\scb/cy_scb_common.h **** * The current status of enabled SPI interrupt sources.
1643:Generated_Source\PSoC6\pdl\drivers\peripheral\scb/cy_scb_common.h **** * See \ref group_scb_common_macros_SpiIntrStatuses for the set of constants.
1644:Generated_Source\PSoC6\pdl\drivers\peripheral\scb/cy_scb_common.h **** *
1645:Generated_Source\PSoC6\pdl\drivers\peripheral\scb/cy_scb_common.h **** *******************************************************************************/
1646:Generated_Source\PSoC6\pdl\drivers\peripheral\scb/cy_scb_common.h **** __STATIC_INLINE uint32_t Cy_SCB_GetSpiInterruptStatusMasked(CySCB_Type const *base)
1647:Generated_Source\PSoC6\pdl\drivers\peripheral\scb/cy_scb_common.h **** {
 1043              		.loc 1 1647 0
 1044              		.cfi_startproc
 1045              		@ args = 0, pretend = 0, frame = 8
 1046              		@ frame_needed = 1, uses_anonymous_args = 0
 1047              		@ link register save eliminated.
 1048 0000 80B4     		push	{r7}
 1049              		.cfi_def_cfa_offset 4
 1050              		.cfi_offset 7, -4
 1051 0002 83B0     		sub	sp, sp, #12
 1052              		.cfi_def_cfa_offset 16
 1053 0004 00AF     		add	r7, sp, #0
 1054              		.cfi_def_cfa_register 7
 1055 0006 7860     		str	r0, [r7, #4]
1648:Generated_Source\PSoC6\pdl\drivers\peripheral\scb/cy_scb_common.h ****     return (SCB_INTR_SPI_EC_MASKED(base));
 1056              		.loc 1 1648 0
 1057 0008 7B68     		ldr	r3, [r7, #4]
 1058 000a D3F8CC3E 		ldr	r3, [r3, #3788]
1649:Generated_Source\PSoC6\pdl\drivers\peripheral\scb/cy_scb_common.h **** }
 1059              		.loc 1 1649 0
 1060 000e 1846     		mov	r0, r3
 1061 0010 0C37     		adds	r7, r7, #12
 1062              		.cfi_def_cfa_offset 4
 1063 0012 BD46     		mov	sp, r7
 1064              		.cfi_def_cfa_register 13
 1065              		@ sp needed
 1066 0014 5DF8047B 		ldr	r7, [sp], #4
 1067              		.cfi_restore 7
 1068              		.cfi_def_cfa_offset 0
 1069 0018 7047     		bx	lr
 1070              		.cfi_endproc
 1071              	.LFE211:
 1072              		.size	Cy_SCB_GetSpiInterruptStatusMasked, .-Cy_SCB_GetSpiInterruptStatusMasked
 1073 001a 00BF     		.section	.text.Cy_SCB_ClearSpiInterrupt,"ax",%progbits
 1074              		.align	2
 1075              		.thumb
 1076              		.thumb_func
 1077              		.type	Cy_SCB_ClearSpiInterrupt, %function
 1078              	Cy_SCB_ClearSpiInterrupt:
 1079              	.LFB212:
ARM GAS  C:\Users\tmj32\AppData\Local\Temp\ccenHtUU.s 			page 49


1650:Generated_Source\PSoC6\pdl\drivers\peripheral\scb/cy_scb_common.h **** 
1651:Generated_Source\PSoC6\pdl\drivers\peripheral\scb/cy_scb_common.h **** 
1652:Generated_Source\PSoC6\pdl\drivers\peripheral\scb/cy_scb_common.h **** /*******************************************************************************
1653:Generated_Source\PSoC6\pdl\drivers\peripheral\scb/cy_scb_common.h **** * Function Name: Cy_SCB_ClearSpiInterrupt
1654:Generated_Source\PSoC6\pdl\drivers\peripheral\scb/cy_scb_common.h **** ****************************************************************************//**
1655:Generated_Source\PSoC6\pdl\drivers\peripheral\scb/cy_scb_common.h **** *
1656:Generated_Source\PSoC6\pdl\drivers\peripheral\scb/cy_scb_common.h **** * Clears SPI interrupt sources in the interrupt request register.
1657:Generated_Source\PSoC6\pdl\drivers\peripheral\scb/cy_scb_common.h **** *
1658:Generated_Source\PSoC6\pdl\drivers\peripheral\scb/cy_scb_common.h **** * \param base
1659:Generated_Source\PSoC6\pdl\drivers\peripheral\scb/cy_scb_common.h **** * The pointer to the SCB instance.
1660:Generated_Source\PSoC6\pdl\drivers\peripheral\scb/cy_scb_common.h **** *
1661:Generated_Source\PSoC6\pdl\drivers\peripheral\scb/cy_scb_common.h **** * \param interruptMask
1662:Generated_Source\PSoC6\pdl\drivers\peripheral\scb/cy_scb_common.h **** * The SPI interrupt sources to be cleared.
1663:Generated_Source\PSoC6\pdl\drivers\peripheral\scb/cy_scb_common.h **** * See \ref group_scb_common_macros_SpiIntrStatuses for the set of constants.
1664:Generated_Source\PSoC6\pdl\drivers\peripheral\scb/cy_scb_common.h **** *
1665:Generated_Source\PSoC6\pdl\drivers\peripheral\scb/cy_scb_common.h **** *******************************************************************************/
1666:Generated_Source\PSoC6\pdl\drivers\peripheral\scb/cy_scb_common.h **** __STATIC_INLINE void Cy_SCB_ClearSpiInterrupt(CySCB_Type *base, uint32_t interruptMask)
1667:Generated_Source\PSoC6\pdl\drivers\peripheral\scb/cy_scb_common.h **** {
 1080              		.loc 1 1667 0
 1081              		.cfi_startproc
 1082              		@ args = 0, pretend = 0, frame = 8
 1083              		@ frame_needed = 1, uses_anonymous_args = 0
 1084 0000 80B5     		push	{r7, lr}
 1085              		.cfi_def_cfa_offset 8
 1086              		.cfi_offset 7, -8
 1087              		.cfi_offset 14, -4
 1088 0002 82B0     		sub	sp, sp, #8
 1089              		.cfi_def_cfa_offset 16
 1090 0004 00AF     		add	r7, sp, #0
 1091              		.cfi_def_cfa_register 7
 1092 0006 7860     		str	r0, [r7, #4]
 1093 0008 3960     		str	r1, [r7]
1668:Generated_Source\PSoC6\pdl\drivers\peripheral\scb/cy_scb_common.h ****     CY_ASSERT_L2(CY_SCB_IS_INTR_VALID(interruptMask, CY_SCB_SPI_INTR_MASK));
 1094              		.loc 1 1668 0
 1095 000a 3B68     		ldr	r3, [r7]
 1096 000c 23F00103 		bic	r3, r3, #1
 1097 0010 002B     		cmp	r3, #0
 1098 0012 04D0     		beq	.L66
 1099              		.loc 1 1668 0 is_stmt 0 discriminator 1
 1100 0014 40F28461 		movw	r1, #1668
 1101 0018 0648     		ldr	r0, .L67
 1102 001a FFF7FEFF 		bl	Cy_SysLib_AssertFailed
 1103              	.L66:
1669:Generated_Source\PSoC6\pdl\drivers\peripheral\scb/cy_scb_common.h **** 
1670:Generated_Source\PSoC6\pdl\drivers\peripheral\scb/cy_scb_common.h ****     SCB_INTR_SPI_EC(base) = interruptMask;
 1104              		.loc 1 1670 0 is_stmt 1
 1105 001e 7B68     		ldr	r3, [r7, #4]
 1106 0020 3A68     		ldr	r2, [r7]
 1107 0022 C3F8C02E 		str	r2, [r3, #3776]
1671:Generated_Source\PSoC6\pdl\drivers\peripheral\scb/cy_scb_common.h ****     (void) SCB_INTR_SPI_EC(base);
 1108              		.loc 1 1671 0
 1109 0026 7B68     		ldr	r3, [r7, #4]
 1110 0028 D3F8C03E 		ldr	r3, [r3, #3776]
1672:Generated_Source\PSoC6\pdl\drivers\peripheral\scb/cy_scb_common.h **** }
 1111              		.loc 1 1672 0
 1112 002c 00BF     		nop
 1113 002e 0837     		adds	r7, r7, #8
ARM GAS  C:\Users\tmj32\AppData\Local\Temp\ccenHtUU.s 			page 50


 1114              		.cfi_def_cfa_offset 8
 1115 0030 BD46     		mov	sp, r7
 1116              		.cfi_def_cfa_register 13
 1117              		@ sp needed
 1118 0032 80BD     		pop	{r7, pc}
 1119              	.L68:
 1120              		.align	2
 1121              	.L67:
 1122 0034 00000000 		.word	.LC0
 1123              		.cfi_endproc
 1124              	.LFE212:
 1125              		.size	Cy_SCB_ClearSpiInterrupt, .-Cy_SCB_ClearSpiInterrupt
 1126              		.section	.text.Cy_SCB_GetFifoSize,"ax",%progbits
 1127              		.align	2
 1128              		.thumb
 1129              		.thumb_func
 1130              		.type	Cy_SCB_GetFifoSize, %function
 1131              	Cy_SCB_GetFifoSize:
 1132              	.LFB213:
1673:Generated_Source\PSoC6\pdl\drivers\peripheral\scb/cy_scb_common.h **** 
1674:Generated_Source\PSoC6\pdl\drivers\peripheral\scb/cy_scb_common.h **** /** \cond INTERNAL */
1675:Generated_Source\PSoC6\pdl\drivers\peripheral\scb/cy_scb_common.h **** /*******************************************************************************
1676:Generated_Source\PSoC6\pdl\drivers\peripheral\scb/cy_scb_common.h **** * Function Name: Cy_SCB_GetFifoSize
1677:Generated_Source\PSoC6\pdl\drivers\peripheral\scb/cy_scb_common.h **** ****************************************************************************//**
1678:Generated_Source\PSoC6\pdl\drivers\peripheral\scb/cy_scb_common.h **** *
1679:Generated_Source\PSoC6\pdl\drivers\peripheral\scb/cy_scb_common.h **** * Returns the RX and TX FIFO depth.
1680:Generated_Source\PSoC6\pdl\drivers\peripheral\scb/cy_scb_common.h **** *
1681:Generated_Source\PSoC6\pdl\drivers\peripheral\scb/cy_scb_common.h **** * \param base
1682:Generated_Source\PSoC6\pdl\drivers\peripheral\scb/cy_scb_common.h **** * The pointer to the SCB instance.
1683:Generated_Source\PSoC6\pdl\drivers\peripheral\scb/cy_scb_common.h **** *
1684:Generated_Source\PSoC6\pdl\drivers\peripheral\scb/cy_scb_common.h **** * \return
1685:Generated_Source\PSoC6\pdl\drivers\peripheral\scb/cy_scb_common.h **** * FIFO depth.
1686:Generated_Source\PSoC6\pdl\drivers\peripheral\scb/cy_scb_common.h **** *
1687:Generated_Source\PSoC6\pdl\drivers\peripheral\scb/cy_scb_common.h **** *******************************************************************************/
1688:Generated_Source\PSoC6\pdl\drivers\peripheral\scb/cy_scb_common.h **** __STATIC_INLINE uint32_t Cy_SCB_GetFifoSize(CySCB_Type const *base)
1689:Generated_Source\PSoC6\pdl\drivers\peripheral\scb/cy_scb_common.h **** {
 1133              		.loc 1 1689 0
 1134              		.cfi_startproc
 1135              		@ args = 0, pretend = 0, frame = 8
 1136              		@ frame_needed = 1, uses_anonymous_args = 0
 1137              		@ link register save eliminated.
 1138 0000 80B4     		push	{r7}
 1139              		.cfi_def_cfa_offset 4
 1140              		.cfi_offset 7, -4
 1141 0002 83B0     		sub	sp, sp, #12
 1142              		.cfi_def_cfa_offset 16
 1143 0004 00AF     		add	r7, sp, #0
 1144              		.cfi_def_cfa_register 7
 1145 0006 7860     		str	r0, [r7, #4]
1690:Generated_Source\PSoC6\pdl\drivers\peripheral\scb/cy_scb_common.h ****     return (_FLD2BOOL(SCB_CTRL_BYTE_MODE, SCB_CTRL(base)) ?
 1146              		.loc 1 1690 0
 1147 0008 7B68     		ldr	r3, [r7, #4]
 1148 000a 1B68     		ldr	r3, [r3]
 1149 000c 03F40063 		and	r3, r3, #2048
1691:Generated_Source\PSoC6\pdl\drivers\peripheral\scb/cy_scb_common.h ****                 (CY_SCB_FIFO_SIZE) : (CY_SCB_FIFO_SIZE / 2UL));
 1150              		.loc 1 1691 0
 1151 0010 002B     		cmp	r3, #0
ARM GAS  C:\Users\tmj32\AppData\Local\Temp\ccenHtUU.s 			page 51


 1152 0012 01D0     		beq	.L70
 1153              		.loc 1 1691 0 is_stmt 0 discriminator 1
 1154 0014 8023     		movs	r3, #128
1690:Generated_Source\PSoC6\pdl\drivers\peripheral\scb/cy_scb_common.h ****     return (_FLD2BOOL(SCB_CTRL_BYTE_MODE, SCB_CTRL(base)) ?
 1155              		.loc 1 1690 0 is_stmt 1 discriminator 1
 1156 0016 00E0     		b	.L72
 1157              	.L70:
 1158              		.loc 1 1691 0 discriminator 2
 1159 0018 4023     		movs	r3, #64
 1160              	.L72:
1692:Generated_Source\PSoC6\pdl\drivers\peripheral\scb/cy_scb_common.h **** }
 1161              		.loc 1 1692 0 discriminator 1
 1162 001a 1846     		mov	r0, r3
 1163 001c 0C37     		adds	r7, r7, #12
 1164              		.cfi_def_cfa_offset 4
 1165 001e BD46     		mov	sp, r7
 1166              		.cfi_def_cfa_register 13
 1167              		@ sp needed
 1168 0020 5DF8047B 		ldr	r7, [sp], #4
 1169              		.cfi_restore 7
 1170              		.cfi_def_cfa_offset 0
 1171 0024 7047     		bx	lr
 1172              		.cfi_endproc
 1173              	.LFE213:
 1174              		.size	Cy_SCB_GetFifoSize, .-Cy_SCB_GetFifoSize
 1175 0026 00BF     		.section	.text.Cy_SCB_IsRxDataWidthByte,"ax",%progbits
 1176              		.align	2
 1177              		.thumb
 1178              		.thumb_func
 1179              		.type	Cy_SCB_IsRxDataWidthByte, %function
 1180              	Cy_SCB_IsRxDataWidthByte:
 1181              	.LFB214:
1693:Generated_Source\PSoC6\pdl\drivers\peripheral\scb/cy_scb_common.h **** 
1694:Generated_Source\PSoC6\pdl\drivers\peripheral\scb/cy_scb_common.h **** 
1695:Generated_Source\PSoC6\pdl\drivers\peripheral\scb/cy_scb_common.h **** /*******************************************************************************
1696:Generated_Source\PSoC6\pdl\drivers\peripheral\scb/cy_scb_common.h **** * Function Name: Cy_SCB_IsRxDataWidthByte
1697:Generated_Source\PSoC6\pdl\drivers\peripheral\scb/cy_scb_common.h **** ****************************************************************************//**
1698:Generated_Source\PSoC6\pdl\drivers\peripheral\scb/cy_scb_common.h **** *
1699:Generated_Source\PSoC6\pdl\drivers\peripheral\scb/cy_scb_common.h **** * Returns true if the RX data width is a byte (8 bits).
1700:Generated_Source\PSoC6\pdl\drivers\peripheral\scb/cy_scb_common.h **** *
1701:Generated_Source\PSoC6\pdl\drivers\peripheral\scb/cy_scb_common.h **** * \param base
1702:Generated_Source\PSoC6\pdl\drivers\peripheral\scb/cy_scb_common.h **** * The pointer to the SCB instance.
1703:Generated_Source\PSoC6\pdl\drivers\peripheral\scb/cy_scb_common.h **** *
1704:Generated_Source\PSoC6\pdl\drivers\peripheral\scb/cy_scb_common.h **** * \return
1705:Generated_Source\PSoC6\pdl\drivers\peripheral\scb/cy_scb_common.h **** * True if the RX data width is a byte (8 bits).
1706:Generated_Source\PSoC6\pdl\drivers\peripheral\scb/cy_scb_common.h **** *
1707:Generated_Source\PSoC6\pdl\drivers\peripheral\scb/cy_scb_common.h **** *******************************************************************************/
1708:Generated_Source\PSoC6\pdl\drivers\peripheral\scb/cy_scb_common.h **** __STATIC_INLINE bool Cy_SCB_IsRxDataWidthByte(CySCB_Type const *base)
1709:Generated_Source\PSoC6\pdl\drivers\peripheral\scb/cy_scb_common.h **** {
 1182              		.loc 1 1709 0
 1183              		.cfi_startproc
 1184              		@ args = 0, pretend = 0, frame = 8
 1185              		@ frame_needed = 1, uses_anonymous_args = 0
 1186              		@ link register save eliminated.
 1187 0000 80B4     		push	{r7}
 1188              		.cfi_def_cfa_offset 4
 1189              		.cfi_offset 7, -4
ARM GAS  C:\Users\tmj32\AppData\Local\Temp\ccenHtUU.s 			page 52


 1190 0002 83B0     		sub	sp, sp, #12
 1191              		.cfi_def_cfa_offset 16
 1192 0004 00AF     		add	r7, sp, #0
 1193              		.cfi_def_cfa_register 7
 1194 0006 7860     		str	r0, [r7, #4]
1710:Generated_Source\PSoC6\pdl\drivers\peripheral\scb/cy_scb_common.h ****     return (_FLD2VAL(SCB_RX_CTRL_DATA_WIDTH, SCB_RX_CTRL(base)) < CY_SCB_BYTE_WIDTH);
 1195              		.loc 1 1710 0
 1196 0008 7B68     		ldr	r3, [r7, #4]
 1197 000a D3F80033 		ldr	r3, [r3, #768]
 1198 000e 03F00F03 		and	r3, r3, #15
 1199 0012 072B     		cmp	r3, #7
 1200 0014 94BF     		ite	ls
 1201 0016 0123     		movls	r3, #1
 1202 0018 0023     		movhi	r3, #0
 1203 001a DBB2     		uxtb	r3, r3
1711:Generated_Source\PSoC6\pdl\drivers\peripheral\scb/cy_scb_common.h **** }
 1204              		.loc 1 1711 0
 1205 001c 1846     		mov	r0, r3
 1206 001e 0C37     		adds	r7, r7, #12
 1207              		.cfi_def_cfa_offset 4
 1208 0020 BD46     		mov	sp, r7
 1209              		.cfi_def_cfa_register 13
 1210              		@ sp needed
 1211 0022 5DF8047B 		ldr	r7, [sp], #4
 1212              		.cfi_restore 7
 1213              		.cfi_def_cfa_offset 0
 1214 0026 7047     		bx	lr
 1215              		.cfi_endproc
 1216              	.LFE214:
 1217              		.size	Cy_SCB_IsRxDataWidthByte, .-Cy_SCB_IsRxDataWidthByte
 1218              		.section	.text.Cy_SCB_IsTxDataWidthByte,"ax",%progbits
 1219              		.align	2
 1220              		.thumb
 1221              		.thumb_func
 1222              		.type	Cy_SCB_IsTxDataWidthByte, %function
 1223              	Cy_SCB_IsTxDataWidthByte:
 1224              	.LFB215:
1712:Generated_Source\PSoC6\pdl\drivers\peripheral\scb/cy_scb_common.h **** 
1713:Generated_Source\PSoC6\pdl\drivers\peripheral\scb/cy_scb_common.h **** 
1714:Generated_Source\PSoC6\pdl\drivers\peripheral\scb/cy_scb_common.h **** /*******************************************************************************
1715:Generated_Source\PSoC6\pdl\drivers\peripheral\scb/cy_scb_common.h **** * Function Name: Cy_SCB_IsTxDataWidthByte
1716:Generated_Source\PSoC6\pdl\drivers\peripheral\scb/cy_scb_common.h **** ****************************************************************************//**
1717:Generated_Source\PSoC6\pdl\drivers\peripheral\scb/cy_scb_common.h **** *
1718:Generated_Source\PSoC6\pdl\drivers\peripheral\scb/cy_scb_common.h **** * Returns true if the TX data width is a byte (8 bits).
1719:Generated_Source\PSoC6\pdl\drivers\peripheral\scb/cy_scb_common.h **** *
1720:Generated_Source\PSoC6\pdl\drivers\peripheral\scb/cy_scb_common.h **** * \param base
1721:Generated_Source\PSoC6\pdl\drivers\peripheral\scb/cy_scb_common.h **** * The pointer to the SCB instance.
1722:Generated_Source\PSoC6\pdl\drivers\peripheral\scb/cy_scb_common.h **** *
1723:Generated_Source\PSoC6\pdl\drivers\peripheral\scb/cy_scb_common.h **** * \return
1724:Generated_Source\PSoC6\pdl\drivers\peripheral\scb/cy_scb_common.h **** * If true, the TX data width is a byte (8 bits). Otherwise, false.
1725:Generated_Source\PSoC6\pdl\drivers\peripheral\scb/cy_scb_common.h **** *
1726:Generated_Source\PSoC6\pdl\drivers\peripheral\scb/cy_scb_common.h **** *******************************************************************************/
1727:Generated_Source\PSoC6\pdl\drivers\peripheral\scb/cy_scb_common.h **** __STATIC_INLINE bool Cy_SCB_IsTxDataWidthByte(CySCB_Type const *base)
1728:Generated_Source\PSoC6\pdl\drivers\peripheral\scb/cy_scb_common.h **** {
 1225              		.loc 1 1728 0
 1226              		.cfi_startproc
 1227              		@ args = 0, pretend = 0, frame = 8
ARM GAS  C:\Users\tmj32\AppData\Local\Temp\ccenHtUU.s 			page 53


 1228              		@ frame_needed = 1, uses_anonymous_args = 0
 1229              		@ link register save eliminated.
 1230 0000 80B4     		push	{r7}
 1231              		.cfi_def_cfa_offset 4
 1232              		.cfi_offset 7, -4
 1233 0002 83B0     		sub	sp, sp, #12
 1234              		.cfi_def_cfa_offset 16
 1235 0004 00AF     		add	r7, sp, #0
 1236              		.cfi_def_cfa_register 7
 1237 0006 7860     		str	r0, [r7, #4]
1729:Generated_Source\PSoC6\pdl\drivers\peripheral\scb/cy_scb_common.h ****     return (_FLD2VAL(SCB_TX_CTRL_DATA_WIDTH, SCB_TX_CTRL(base)) < CY_SCB_BYTE_WIDTH);
 1238              		.loc 1 1729 0
 1239 0008 7B68     		ldr	r3, [r7, #4]
 1240 000a D3F80032 		ldr	r3, [r3, #512]
