ARM GAS  C:\Users\tmj32\AppData\Local\Temp\ccNWe9JJ.s 			page 1


   1              		.syntax unified
   2              		.cpu cortex-m4
   3              		.eabi_attribute 27, 1
   4              		.fpu fpv4-sp-d16
   5              		.eabi_attribute 20, 1
   6              		.eabi_attribute 21, 1
   7              		.eabi_attribute 23, 3
   8              		.eabi_attribute 24, 1
   9              		.eabi_attribute 25, 1
  10              		.eabi_attribute 26, 1
  11              		.eabi_attribute 30, 6
  12              		.eabi_attribute 34, 1
  13              		.eabi_attribute 18, 4
  14              		.thumb
  15              		.syntax unified
  16              		.file	"cy_tcpwm_quaddec.c"
  17              		.text
  18              	.Ltext0:
  19              		.cfi_sections	.debug_frame
  20              		.section	.text.Cy_TCPWM_QuadDec_Init,"ax",%progbits
  21              		.align	2
  22              		.global	Cy_TCPWM_QuadDec_Init
  23              		.thumb
  24              		.thumb_func
  25              		.type	Cy_TCPWM_QuadDec_Init, %function
  26              	Cy_TCPWM_QuadDec_Init:
  27              	.LFB151:
  28              		.file 1 "Generated_Source\\PSoC6\\pdl\\drivers\\peripheral\\tcpwm\\cy_tcpwm_quaddec.c"
   1:Generated_Source\PSoC6\pdl\drivers\peripheral\tcpwm/cy_tcpwm_quaddec.c **** /***************************************************************************//**
   2:Generated_Source\PSoC6\pdl\drivers\peripheral\tcpwm/cy_tcpwm_quaddec.c **** * \file cy_tcpwm_quaddec.c
   3:Generated_Source\PSoC6\pdl\drivers\peripheral\tcpwm/cy_tcpwm_quaddec.c **** * \version 1.10
   4:Generated_Source\PSoC6\pdl\drivers\peripheral\tcpwm/cy_tcpwm_quaddec.c **** *
   5:Generated_Source\PSoC6\pdl\drivers\peripheral\tcpwm/cy_tcpwm_quaddec.c **** * \brief
   6:Generated_Source\PSoC6\pdl\drivers\peripheral\tcpwm/cy_tcpwm_quaddec.c **** *  The source file of the tcpwm driver.
   7:Generated_Source\PSoC6\pdl\drivers\peripheral\tcpwm/cy_tcpwm_quaddec.c **** *
   8:Generated_Source\PSoC6\pdl\drivers\peripheral\tcpwm/cy_tcpwm_quaddec.c **** ********************************************************************************
   9:Generated_Source\PSoC6\pdl\drivers\peripheral\tcpwm/cy_tcpwm_quaddec.c **** * \copyright
  10:Generated_Source\PSoC6\pdl\drivers\peripheral\tcpwm/cy_tcpwm_quaddec.c **** * Copyright 2016-2018, Cypress Semiconductor Corporation.  All rights reserved.
  11:Generated_Source\PSoC6\pdl\drivers\peripheral\tcpwm/cy_tcpwm_quaddec.c **** * You may use this file only in accordance with the license, terms, conditions,
  12:Generated_Source\PSoC6\pdl\drivers\peripheral\tcpwm/cy_tcpwm_quaddec.c **** * disclaimers, and limitations in the end user license agreement accompanying
  13:Generated_Source\PSoC6\pdl\drivers\peripheral\tcpwm/cy_tcpwm_quaddec.c **** * the software package with which this file was provided.
  14:Generated_Source\PSoC6\pdl\drivers\peripheral\tcpwm/cy_tcpwm_quaddec.c **** *******************************************************************************/
  15:Generated_Source\PSoC6\pdl\drivers\peripheral\tcpwm/cy_tcpwm_quaddec.c **** 
  16:Generated_Source\PSoC6\pdl\drivers\peripheral\tcpwm/cy_tcpwm_quaddec.c **** #include "cy_tcpwm_quaddec.h"
  17:Generated_Source\PSoC6\pdl\drivers\peripheral\tcpwm/cy_tcpwm_quaddec.c **** 
  18:Generated_Source\PSoC6\pdl\drivers\peripheral\tcpwm/cy_tcpwm_quaddec.c **** #ifdef CY_IP_MXTCPWM
  19:Generated_Source\PSoC6\pdl\drivers\peripheral\tcpwm/cy_tcpwm_quaddec.c **** 
  20:Generated_Source\PSoC6\pdl\drivers\peripheral\tcpwm/cy_tcpwm_quaddec.c **** #if defined(__cplusplus)
  21:Generated_Source\PSoC6\pdl\drivers\peripheral\tcpwm/cy_tcpwm_quaddec.c **** extern "C" {
  22:Generated_Source\PSoC6\pdl\drivers\peripheral\tcpwm/cy_tcpwm_quaddec.c **** #endif
  23:Generated_Source\PSoC6\pdl\drivers\peripheral\tcpwm/cy_tcpwm_quaddec.c **** 
  24:Generated_Source\PSoC6\pdl\drivers\peripheral\tcpwm/cy_tcpwm_quaddec.c **** 
  25:Generated_Source\PSoC6\pdl\drivers\peripheral\tcpwm/cy_tcpwm_quaddec.c **** /*******************************************************************************
  26:Generated_Source\PSoC6\pdl\drivers\peripheral\tcpwm/cy_tcpwm_quaddec.c **** * Function Name: Cy_TCPWM_QuadDec_Init
  27:Generated_Source\PSoC6\pdl\drivers\peripheral\tcpwm/cy_tcpwm_quaddec.c **** ****************************************************************************//**
  28:Generated_Source\PSoC6\pdl\drivers\peripheral\tcpwm/cy_tcpwm_quaddec.c **** *
  29:Generated_Source\PSoC6\pdl\drivers\peripheral\tcpwm/cy_tcpwm_quaddec.c **** * Initializes the counter in the TCPWM block for the QuadDec operation.
ARM GAS  C:\Users\tmj32\AppData\Local\Temp\ccNWe9JJ.s 			page 2


  30:Generated_Source\PSoC6\pdl\drivers\peripheral\tcpwm/cy_tcpwm_quaddec.c **** *
  31:Generated_Source\PSoC6\pdl\drivers\peripheral\tcpwm/cy_tcpwm_quaddec.c **** * \param base
  32:Generated_Source\PSoC6\pdl\drivers\peripheral\tcpwm/cy_tcpwm_quaddec.c **** * The pointer to a TCPWM instance.
  33:Generated_Source\PSoC6\pdl\drivers\peripheral\tcpwm/cy_tcpwm_quaddec.c **** *
  34:Generated_Source\PSoC6\pdl\drivers\peripheral\tcpwm/cy_tcpwm_quaddec.c **** * \param cntNum
  35:Generated_Source\PSoC6\pdl\drivers\peripheral\tcpwm/cy_tcpwm_quaddec.c **** * The Counter instance number in the selected TCPWM.
  36:Generated_Source\PSoC6\pdl\drivers\peripheral\tcpwm/cy_tcpwm_quaddec.c **** *
  37:Generated_Source\PSoC6\pdl\drivers\peripheral\tcpwm/cy_tcpwm_quaddec.c **** * \param config
  38:Generated_Source\PSoC6\pdl\drivers\peripheral\tcpwm/cy_tcpwm_quaddec.c **** * The pointer to a configuration structure. See \ref cy_stc_tcpwm_quaddec_config_t.
  39:Generated_Source\PSoC6\pdl\drivers\peripheral\tcpwm/cy_tcpwm_quaddec.c **** *
  40:Generated_Source\PSoC6\pdl\drivers\peripheral\tcpwm/cy_tcpwm_quaddec.c **** * \return error / status code. See \ref cy_en_tcpwm_status_t.
  41:Generated_Source\PSoC6\pdl\drivers\peripheral\tcpwm/cy_tcpwm_quaddec.c **** *
  42:Generated_Source\PSoC6\pdl\drivers\peripheral\tcpwm/cy_tcpwm_quaddec.c **** * \funcusage
  43:Generated_Source\PSoC6\pdl\drivers\peripheral\tcpwm/cy_tcpwm_quaddec.c **** * \snippet tcpwm\1.10\quaddec\snippet\main.c snippet_Cy_TCPWM_QuadDec_Config
  44:Generated_Source\PSoC6\pdl\drivers\peripheral\tcpwm/cy_tcpwm_quaddec.c **** * \snippet tcpwm\1.10\quaddec\snippet\main.c snippet_Cy_TCPWM_QuadDec_Init
  45:Generated_Source\PSoC6\pdl\drivers\peripheral\tcpwm/cy_tcpwm_quaddec.c **** *
  46:Generated_Source\PSoC6\pdl\drivers\peripheral\tcpwm/cy_tcpwm_quaddec.c **** *******************************************************************************/
  47:Generated_Source\PSoC6\pdl\drivers\peripheral\tcpwm/cy_tcpwm_quaddec.c **** cy_en_tcpwm_status_t Cy_TCPWM_QuadDec_Init(TCPWM_Type *base, uint32_t cntNum, 
  48:Generated_Source\PSoC6\pdl\drivers\peripheral\tcpwm/cy_tcpwm_quaddec.c ****                                            cy_stc_tcpwm_quaddec_config_t const *config)
  49:Generated_Source\PSoC6\pdl\drivers\peripheral\tcpwm/cy_tcpwm_quaddec.c **** {
  29              		.loc 1 49 0
  30              		.cfi_startproc
  31              		@ args = 0, pretend = 0, frame = 24
  32              		@ frame_needed = 1, uses_anonymous_args = 0
  33              		@ link register save eliminated.
  34 0000 80B4     		push	{r7}
  35              		.cfi_def_cfa_offset 4
  36              		.cfi_offset 7, -4
  37 0002 87B0     		sub	sp, sp, #28
  38              		.cfi_def_cfa_offset 32
  39 0004 00AF     		add	r7, sp, #0
  40              		.cfi_def_cfa_register 7
  41 0006 F860     		str	r0, [r7, #12]
  42 0008 B960     		str	r1, [r7, #8]
  43 000a 7A60     		str	r2, [r7, #4]
  50:Generated_Source\PSoC6\pdl\drivers\peripheral\tcpwm/cy_tcpwm_quaddec.c ****     cy_en_tcpwm_status_t status = CY_TCPWM_BAD_PARAM;
  44              		.loc 1 50 0
  45 000c 2E4B     		ldr	r3, .L5
  46 000e 7B61     		str	r3, [r7, #20]
  51:Generated_Source\PSoC6\pdl\drivers\peripheral\tcpwm/cy_tcpwm_quaddec.c **** 
  52:Generated_Source\PSoC6\pdl\drivers\peripheral\tcpwm/cy_tcpwm_quaddec.c ****     if ((NULL != base) && (NULL != config))
  47              		.loc 1 52 0
  48 0010 FB68     		ldr	r3, [r7, #12]
  49 0012 002B     		cmp	r3, #0
  50 0014 50D0     		beq	.L2
  51              		.loc 1 52 0 is_stmt 0 discriminator 1
  52 0016 7B68     		ldr	r3, [r7, #4]
  53 0018 002B     		cmp	r3, #0
  54 001a 4DD0     		beq	.L2
  53:Generated_Source\PSoC6\pdl\drivers\peripheral\tcpwm/cy_tcpwm_quaddec.c ****     {
  54:Generated_Source\PSoC6\pdl\drivers\peripheral\tcpwm/cy_tcpwm_quaddec.c ****         TCPWM_CNT_CTRL(base, cntNum) = ( _VAL2FLD(TCPWM_CNT_CTRL_QUADRATURE_MODE, config->resolutio
  55              		.loc 1 54 0 is_stmt 1
  56 001c 7B68     		ldr	r3, [r7, #4]
  57 001e 1B68     		ldr	r3, [r3]
  58 0020 1B05     		lsls	r3, r3, #20
  59 0022 03F44013 		and	r3, r3, #3145728
  60 0026 43F04072 		orr	r2, r3, #50331648
ARM GAS  C:\Users\tmj32\AppData\Local\Temp\ccNWe9JJ.s 			page 3


  61 002a F968     		ldr	r1, [r7, #12]
  62 002c BB68     		ldr	r3, [r7, #8]
  63 002e 0433     		adds	r3, r3, #4
  64 0030 9B01     		lsls	r3, r3, #6
  65 0032 0B44     		add	r3, r3, r1
  66 0034 1A60     		str	r2, [r3]
  55:Generated_Source\PSoC6\pdl\drivers\peripheral\tcpwm/cy_tcpwm_quaddec.c ****                             _VAL2FLD(TCPWM_CNT_CTRL_MODE, CY_TCPWM_QUADDEC_CTRL_QUADDEC_MODE));
  56:Generated_Source\PSoC6\pdl\drivers\peripheral\tcpwm/cy_tcpwm_quaddec.c **** 
  57:Generated_Source\PSoC6\pdl\drivers\peripheral\tcpwm/cy_tcpwm_quaddec.c ****         if (CY_TCPWM_INPUT_CREATOR != config->phiAInput)
  67              		.loc 1 57 0
  68 0036 7B68     		ldr	r3, [r7, #4]
  69 0038 9B69     		ldr	r3, [r3, #24]
  70 003a B3F1FF3F 		cmp	r3, #-1
  71 003e 1BD0     		beq	.L3
  58:Generated_Source\PSoC6\pdl\drivers\peripheral\tcpwm/cy_tcpwm_quaddec.c ****         {        
  59:Generated_Source\PSoC6\pdl\drivers\peripheral\tcpwm/cy_tcpwm_quaddec.c ****             TCPWM_CNT_TR_CTRL0(base, cntNum) = (_VAL2FLD(TCPWM_CNT_TR_CTRL0_COUNT_SEL, config->phiA
  72              		.loc 1 59 0
  73 0040 7B68     		ldr	r3, [r7, #4]
  74 0042 9B69     		ldr	r3, [r3, #24]
  75 0044 1B01     		lsls	r3, r3, #4
  76 0046 DAB2     		uxtb	r2, r3
  60:Generated_Source\PSoC6\pdl\drivers\peripheral\tcpwm/cy_tcpwm_quaddec.c ****                                               _VAL2FLD(TCPWM_CNT_TR_CTRL0_START_SEL, config->phiBIn
  77              		.loc 1 60 0
  78 0048 7B68     		ldr	r3, [r7, #4]
  79 004a DB69     		ldr	r3, [r3, #28]
  80 004c 1B04     		lsls	r3, r3, #16
  81 004e 03F47023 		and	r3, r3, #983040
  59:Generated_Source\PSoC6\pdl\drivers\peripheral\tcpwm/cy_tcpwm_quaddec.c ****                                               _VAL2FLD(TCPWM_CNT_TR_CTRL0_START_SEL, config->phiBIn
  82              		.loc 1 59 0
  83 0052 1A43     		orrs	r2, r2, r3
  61:Generated_Source\PSoC6\pdl\drivers\peripheral\tcpwm/cy_tcpwm_quaddec.c ****                                               _VAL2FLD(TCPWM_CNT_TR_CTRL0_RELOAD_SEL, config->index
  84              		.loc 1 61 0
  85 0054 7B68     		ldr	r3, [r7, #4]
  86 0056 DB68     		ldr	r3, [r3, #12]
  87 0058 1B02     		lsls	r3, r3, #8
  88 005a 03F47063 		and	r3, r3, #3840
  60:Generated_Source\PSoC6\pdl\drivers\peripheral\tcpwm/cy_tcpwm_quaddec.c ****                                               _VAL2FLD(TCPWM_CNT_TR_CTRL0_START_SEL, config->phiBIn
  89              		.loc 1 60 0
  90 005e 1A43     		orrs	r2, r2, r3
  62:Generated_Source\PSoC6\pdl\drivers\peripheral\tcpwm/cy_tcpwm_quaddec.c ****                                               _VAL2FLD(TCPWM_CNT_TR_CTRL0_STOP_SEL, config->stopInp
  91              		.loc 1 62 0
  92 0060 7B68     		ldr	r3, [r7, #4]
  93 0062 5B69     		ldr	r3, [r3, #20]
  94 0064 1B03     		lsls	r3, r3, #12
  95 0066 9BB2     		uxth	r3, r3
  61:Generated_Source\PSoC6\pdl\drivers\peripheral\tcpwm/cy_tcpwm_quaddec.c ****                                               _VAL2FLD(TCPWM_CNT_TR_CTRL0_RELOAD_SEL, config->index
  96              		.loc 1 61 0
  97 0068 1A43     		orrs	r2, r2, r3
  59:Generated_Source\PSoC6\pdl\drivers\peripheral\tcpwm/cy_tcpwm_quaddec.c ****                                               _VAL2FLD(TCPWM_CNT_TR_CTRL0_START_SEL, config->phiBIn
  98              		.loc 1 59 0
  99 006a F968     		ldr	r1, [r7, #12]
 100 006c BB68     		ldr	r3, [r7, #8]
 101 006e 9B01     		lsls	r3, r3, #6
 102 0070 0B44     		add	r3, r3, r1
 103 0072 03F59073 		add	r3, r3, #288
 104 0076 1A60     		str	r2, [r3]
 105              	.L3:
ARM GAS  C:\Users\tmj32\AppData\Local\Temp\ccNWe9JJ.s 			page 4


  63:Generated_Source\PSoC6\pdl\drivers\peripheral\tcpwm/cy_tcpwm_quaddec.c ****         }
  64:Generated_Source\PSoC6\pdl\drivers\peripheral\tcpwm/cy_tcpwm_quaddec.c ****         
  65:Generated_Source\PSoC6\pdl\drivers\peripheral\tcpwm/cy_tcpwm_quaddec.c ****         TCPWM_CNT_TR_CTRL1(base, cntNum) = (_VAL2FLD(TCPWM_CNT_TR_CTRL1_CAPTURE_EDGE, CY_TCPWM_INPU
  66:Generated_Source\PSoC6\pdl\drivers\peripheral\tcpwm/cy_tcpwm_quaddec.c ****                                           _VAL2FLD(TCPWM_CNT_TR_CTRL1_COUNT_EDGE, CY_TCPWM_INPUT_LE
  67:Generated_Source\PSoC6\pdl\drivers\peripheral\tcpwm/cy_tcpwm_quaddec.c ****                                           _VAL2FLD(TCPWM_CNT_TR_CTRL1_START_EDGE, CY_TCPWM_INPUT_LE
  68:Generated_Source\PSoC6\pdl\drivers\peripheral\tcpwm/cy_tcpwm_quaddec.c ****                                           _VAL2FLD(TCPWM_CNT_TR_CTRL1_RELOAD_EDGE, config->indexInp
 106              		.loc 1 68 0
 107 0078 7B68     		ldr	r3, [r7, #4]
 108 007a 9B68     		ldr	r3, [r3, #8]
 109 007c 1B01     		lsls	r3, r3, #4
 110 007e 03F03002 		and	r2, r3, #48
  69:Generated_Source\PSoC6\pdl\drivers\peripheral\tcpwm/cy_tcpwm_quaddec.c ****                                           _VAL2FLD(TCPWM_CNT_TR_CTRL1_STOP_EDGE, config->stopInputM
 111              		.loc 1 69 0
 112 0082 7B68     		ldr	r3, [r7, #4]
 113 0084 1B69     		ldr	r3, [r3, #16]
 114 0086 9B01     		lsls	r3, r3, #6
 115 0088 DBB2     		uxtb	r3, r3
  68:Generated_Source\PSoC6\pdl\drivers\peripheral\tcpwm/cy_tcpwm_quaddec.c ****                                           _VAL2FLD(TCPWM_CNT_TR_CTRL1_STOP_EDGE, config->stopInputM
 116              		.loc 1 68 0
 117 008a 1343     		orrs	r3, r3, r2
 118 008c 43F44373 		orr	r3, r3, #780
 119 0090 43F00303 		orr	r3, r3, #3
  65:Generated_Source\PSoC6\pdl\drivers\peripheral\tcpwm/cy_tcpwm_quaddec.c ****                                           _VAL2FLD(TCPWM_CNT_TR_CTRL1_COUNT_EDGE, CY_TCPWM_INPUT_LE
 120              		.loc 1 65 0
 121 0094 F968     		ldr	r1, [r7, #12]
 122 0096 BA68     		ldr	r2, [r7, #8]
 123 0098 9201     		lsls	r2, r2, #6
 124 009a 0A44     		add	r2, r2, r1
 125 009c 02F59272 		add	r2, r2, #292
 126 00a0 1360     		str	r3, [r2]
  70:Generated_Source\PSoC6\pdl\drivers\peripheral\tcpwm/cy_tcpwm_quaddec.c **** 
  71:Generated_Source\PSoC6\pdl\drivers\peripheral\tcpwm/cy_tcpwm_quaddec.c ****         TCPWM_CNT_INTR_MASK(base, cntNum) = config->interruptSources;
 127              		.loc 1 71 0
 128 00a2 7B68     		ldr	r3, [r7, #4]
 129 00a4 5A68     		ldr	r2, [r3, #4]
 130 00a6 F968     		ldr	r1, [r7, #12]
 131 00a8 BB68     		ldr	r3, [r7, #8]
 132 00aa 9B01     		lsls	r3, r3, #6
 133 00ac 0B44     		add	r3, r3, r1
 134 00ae 03F59C73 		add	r3, r3, #312
 135 00b2 1A60     		str	r2, [r3]
  72:Generated_Source\PSoC6\pdl\drivers\peripheral\tcpwm/cy_tcpwm_quaddec.c **** 
  73:Generated_Source\PSoC6\pdl\drivers\peripheral\tcpwm/cy_tcpwm_quaddec.c ****         status = CY_TCPWM_SUCCESS;
 136              		.loc 1 73 0
 137 00b4 0023     		movs	r3, #0
 138 00b6 7B61     		str	r3, [r7, #20]
 139              	.L2:
  74:Generated_Source\PSoC6\pdl\drivers\peripheral\tcpwm/cy_tcpwm_quaddec.c ****     }
  75:Generated_Source\PSoC6\pdl\drivers\peripheral\tcpwm/cy_tcpwm_quaddec.c **** 
  76:Generated_Source\PSoC6\pdl\drivers\peripheral\tcpwm/cy_tcpwm_quaddec.c ****     return(status);
 140              		.loc 1 76 0
 141 00b8 7B69     		ldr	r3, [r7, #20]
  77:Generated_Source\PSoC6\pdl\drivers\peripheral\tcpwm/cy_tcpwm_quaddec.c **** }
 142              		.loc 1 77 0
 143 00ba 1846     		mov	r0, r3
 144 00bc 1C37     		adds	r7, r7, #28
 145              		.cfi_def_cfa_offset 4
ARM GAS  C:\Users\tmj32\AppData\Local\Temp\ccNWe9JJ.s 			page 5


 146 00be BD46     		mov	sp, r7
 147              		.cfi_def_cfa_register 13
 148              		@ sp needed
 149 00c0 5DF8047B 		ldr	r7, [sp], #4
 150              		.cfi_restore 7
 151              		.cfi_def_cfa_offset 0
 152 00c4 7047     		bx	lr
 153              	.L6:
 154 00c6 00BF     		.align	2
 155              	.L5:
 156 00c8 0100B600 		.word	11927553
 157              		.cfi_endproc
 158              	.LFE151:
 159              		.size	Cy_TCPWM_QuadDec_Init, .-Cy_TCPWM_QuadDec_Init
 160              		.section	.text.Cy_TCPWM_QuadDec_DeInit,"ax",%progbits
 161              		.align	2
 162              		.global	Cy_TCPWM_QuadDec_DeInit
 163              		.thumb
 164              		.thumb_func
 165              		.type	Cy_TCPWM_QuadDec_DeInit, %function
 166              	Cy_TCPWM_QuadDec_DeInit:
 167              	.LFB152:
  78:Generated_Source\PSoC6\pdl\drivers\peripheral\tcpwm/cy_tcpwm_quaddec.c **** 
  79:Generated_Source\PSoC6\pdl\drivers\peripheral\tcpwm/cy_tcpwm_quaddec.c **** 
  80:Generated_Source\PSoC6\pdl\drivers\peripheral\tcpwm/cy_tcpwm_quaddec.c **** /*******************************************************************************
  81:Generated_Source\PSoC6\pdl\drivers\peripheral\tcpwm/cy_tcpwm_quaddec.c **** * Function Name: Cy_TCPWM_QuadDec_DeInit
  82:Generated_Source\PSoC6\pdl\drivers\peripheral\tcpwm/cy_tcpwm_quaddec.c **** ****************************************************************************//**
  83:Generated_Source\PSoC6\pdl\drivers\peripheral\tcpwm/cy_tcpwm_quaddec.c **** *
  84:Generated_Source\PSoC6\pdl\drivers\peripheral\tcpwm/cy_tcpwm_quaddec.c **** * De-initializes the counter in the TCPWM block, returns register values to 
  85:Generated_Source\PSoC6\pdl\drivers\peripheral\tcpwm/cy_tcpwm_quaddec.c **** * default.
  86:Generated_Source\PSoC6\pdl\drivers\peripheral\tcpwm/cy_tcpwm_quaddec.c **** *
  87:Generated_Source\PSoC6\pdl\drivers\peripheral\tcpwm/cy_tcpwm_quaddec.c **** * \param base
  88:Generated_Source\PSoC6\pdl\drivers\peripheral\tcpwm/cy_tcpwm_quaddec.c **** * The pointer to a TCPWM instance.
  89:Generated_Source\PSoC6\pdl\drivers\peripheral\tcpwm/cy_tcpwm_quaddec.c **** *
  90:Generated_Source\PSoC6\pdl\drivers\peripheral\tcpwm/cy_tcpwm_quaddec.c **** * \param cntNum
  91:Generated_Source\PSoC6\pdl\drivers\peripheral\tcpwm/cy_tcpwm_quaddec.c **** * The Counter instance number in the selected TCPWM.
  92:Generated_Source\PSoC6\pdl\drivers\peripheral\tcpwm/cy_tcpwm_quaddec.c **** *
  93:Generated_Source\PSoC6\pdl\drivers\peripheral\tcpwm/cy_tcpwm_quaddec.c **** * \param config
  94:Generated_Source\PSoC6\pdl\drivers\peripheral\tcpwm/cy_tcpwm_quaddec.c **** * The pointer to a configuration structure. See \ref cy_stc_tcpwm_quaddec_config_t.
  95:Generated_Source\PSoC6\pdl\drivers\peripheral\tcpwm/cy_tcpwm_quaddec.c **** *
  96:Generated_Source\PSoC6\pdl\drivers\peripheral\tcpwm/cy_tcpwm_quaddec.c **** * \funcusage
  97:Generated_Source\PSoC6\pdl\drivers\peripheral\tcpwm/cy_tcpwm_quaddec.c **** * \snippet tcpwm\1.10\quaddec\snippet\main.c snippet_Cy_TCPWM_QuadDec_DeInit
  98:Generated_Source\PSoC6\pdl\drivers\peripheral\tcpwm/cy_tcpwm_quaddec.c **** *
  99:Generated_Source\PSoC6\pdl\drivers\peripheral\tcpwm/cy_tcpwm_quaddec.c **** *******************************************************************************/
 100:Generated_Source\PSoC6\pdl\drivers\peripheral\tcpwm/cy_tcpwm_quaddec.c **** void Cy_TCPWM_QuadDec_DeInit(TCPWM_Type *base, uint32_t cntNum, cy_stc_tcpwm_quaddec_config_t const
 101:Generated_Source\PSoC6\pdl\drivers\peripheral\tcpwm/cy_tcpwm_quaddec.c **** {
 168              		.loc 1 101 0
 169              		.cfi_startproc
 170              		@ args = 0, pretend = 0, frame = 16
 171              		@ frame_needed = 1, uses_anonymous_args = 0
 172              		@ link register save eliminated.
 173 0000 80B4     		push	{r7}
 174              		.cfi_def_cfa_offset 4
 175              		.cfi_offset 7, -4
 176 0002 85B0     		sub	sp, sp, #20
 177              		.cfi_def_cfa_offset 24
 178 0004 00AF     		add	r7, sp, #0
ARM GAS  C:\Users\tmj32\AppData\Local\Temp\ccNWe9JJ.s 			page 6


 179              		.cfi_def_cfa_register 7
 180 0006 F860     		str	r0, [r7, #12]
 181 0008 B960     		str	r1, [r7, #8]
 182 000a 7A60     		str	r2, [r7, #4]
 102:Generated_Source\PSoC6\pdl\drivers\peripheral\tcpwm/cy_tcpwm_quaddec.c ****     TCPWM_CNT_CTRL(base, cntNum) = CY_TCPWM_CNT_CTRL_DEFAULT;
 183              		.loc 1 102 0
 184 000c FA68     		ldr	r2, [r7, #12]
 185 000e BB68     		ldr	r3, [r7, #8]
 186 0010 0433     		adds	r3, r3, #4
 187 0012 9B01     		lsls	r3, r3, #6
 188 0014 1344     		add	r3, r3, r2
 189 0016 0022     		movs	r2, #0
 190 0018 1A60     		str	r2, [r3]
 103:Generated_Source\PSoC6\pdl\drivers\peripheral\tcpwm/cy_tcpwm_quaddec.c ****     TCPWM_CNT_COUNTER(base, cntNum) = CY_TCPWM_CNT_COUNTER_DEFAULT;
 191              		.loc 1 103 0
 192 001a FA68     		ldr	r2, [r7, #12]
 193 001c BB68     		ldr	r3, [r7, #8]
 194 001e 9B01     		lsls	r3, r3, #6
 195 0020 1344     		add	r3, r3, r2
 196 0022 03F58473 		add	r3, r3, #264
 197 0026 0022     		movs	r2, #0
 198 0028 1A60     		str	r2, [r3]
 104:Generated_Source\PSoC6\pdl\drivers\peripheral\tcpwm/cy_tcpwm_quaddec.c ****     TCPWM_CNT_CC(base, cntNum) = CY_TCPWM_CNT_CC_DEFAULT;
 199              		.loc 1 104 0
 200 002a FA68     		ldr	r2, [r7, #12]
 201 002c BB68     		ldr	r3, [r7, #8]
 202 002e 9B01     		lsls	r3, r3, #6
 203 0030 1344     		add	r3, r3, r2
 204 0032 03F58673 		add	r3, r3, #268
 205 0036 4FF0FF32 		mov	r2, #-1
 206 003a 1A60     		str	r2, [r3]
 105:Generated_Source\PSoC6\pdl\drivers\peripheral\tcpwm/cy_tcpwm_quaddec.c ****     TCPWM_CNT_CC_BUFF(base, cntNum) = CY_TCPWM_CNT_CC_BUFF_DEFAULT;
 207              		.loc 1 105 0
 208 003c FA68     		ldr	r2, [r7, #12]
 209 003e BB68     		ldr	r3, [r7, #8]
 210 0040 9B01     		lsls	r3, r3, #6
 211 0042 1344     		add	r3, r3, r2
 212 0044 03F58873 		add	r3, r3, #272
 213 0048 4FF0FF32 		mov	r2, #-1
 214 004c 1A60     		str	r2, [r3]
 106:Generated_Source\PSoC6\pdl\drivers\peripheral\tcpwm/cy_tcpwm_quaddec.c ****     TCPWM_CNT_PERIOD(base, cntNum) = CY_TCPWM_CNT_PERIOD_DEFAULT;
 215              		.loc 1 106 0
 216 004e FA68     		ldr	r2, [r7, #12]
 217 0050 BB68     		ldr	r3, [r7, #8]
 218 0052 9B01     		lsls	r3, r3, #6
 219 0054 1344     		add	r3, r3, r2
 220 0056 03F58A73 		add	r3, r3, #276
 221 005a 4FF0FF32 		mov	r2, #-1
 222 005e 1A60     		str	r2, [r3]
 107:Generated_Source\PSoC6\pdl\drivers\peripheral\tcpwm/cy_tcpwm_quaddec.c ****     TCPWM_CNT_PERIOD_BUFF(base, cntNum) = CY_TCPWM_CNT_PERIOD_BUFF_DEFAULT;
 223              		.loc 1 107 0
 224 0060 FA68     		ldr	r2, [r7, #12]
 225 0062 BB68     		ldr	r3, [r7, #8]
 226 0064 9B01     		lsls	r3, r3, #6
 227 0066 1344     		add	r3, r3, r2
 228 0068 03F58C73 		add	r3, r3, #280
 229 006c 4FF0FF32 		mov	r2, #-1
ARM GAS  C:\Users\tmj32\AppData\Local\Temp\ccNWe9JJ.s 			page 7


 230 0070 1A60     		str	r2, [r3]
 108:Generated_Source\PSoC6\pdl\drivers\peripheral\tcpwm/cy_tcpwm_quaddec.c ****     TCPWM_CNT_TR_CTRL1(base, cntNum) = CY_TCPWM_CNT_TR_CTRL1_DEFAULT;
 231              		.loc 1 108 0
 232 0072 FA68     		ldr	r2, [r7, #12]
 233 0074 BB68     		ldr	r3, [r7, #8]
 234 0076 9B01     		lsls	r3, r3, #6
 235 0078 1344     		add	r3, r3, r2
 236 007a 03F59273 		add	r3, r3, #292
 237 007e 40F2FF32 		movw	r2, #1023
 238 0082 1A60     		str	r2, [r3]
 109:Generated_Source\PSoC6\pdl\drivers\peripheral\tcpwm/cy_tcpwm_quaddec.c ****     TCPWM_CNT_TR_CTRL2(base, cntNum) = CY_TCPWM_CNT_TR_CTRL2_DEFAULT;
 239              		.loc 1 109 0
 240 0084 FA68     		ldr	r2, [r7, #12]
 241 0086 BB68     		ldr	r3, [r7, #8]
 242 0088 9B01     		lsls	r3, r3, #6
 243 008a 1344     		add	r3, r3, r2
 244 008c 03F59473 		add	r3, r3, #296
 245 0090 3F22     		movs	r2, #63
 246 0092 1A60     		str	r2, [r3]
 110:Generated_Source\PSoC6\pdl\drivers\peripheral\tcpwm/cy_tcpwm_quaddec.c ****     TCPWM_CNT_INTR(base, cntNum) = CY_TCPWM_CNT_INTR_DEFAULT;
 247              		.loc 1 110 0
 248 0094 FA68     		ldr	r2, [r7, #12]
 249 0096 BB68     		ldr	r3, [r7, #8]
 250 0098 9B01     		lsls	r3, r3, #6
 251 009a 1344     		add	r3, r3, r2
 252 009c 03F59873 		add	r3, r3, #304
 253 00a0 0322     		movs	r2, #3
 254 00a2 1A60     		str	r2, [r3]
 111:Generated_Source\PSoC6\pdl\drivers\peripheral\tcpwm/cy_tcpwm_quaddec.c ****     TCPWM_CNT_INTR_SET(base, cntNum) = CY_TCPWM_CNT_INTR_SET_DEFAULT;
 255              		.loc 1 111 0
 256 00a4 FA68     		ldr	r2, [r7, #12]
 257 00a6 BB68     		ldr	r3, [r7, #8]
 258 00a8 9B01     		lsls	r3, r3, #6
 259 00aa 1344     		add	r3, r3, r2
 260 00ac 03F59A73 		add	r3, r3, #308
 261 00b0 0022     		movs	r2, #0
 262 00b2 1A60     		str	r2, [r3]
 112:Generated_Source\PSoC6\pdl\drivers\peripheral\tcpwm/cy_tcpwm_quaddec.c ****     TCPWM_CNT_INTR_MASK(base, cntNum) = CY_TCPWM_CNT_INTR_MASK_DEFAULT;
 263              		.loc 1 112 0
 264 00b4 FA68     		ldr	r2, [r7, #12]
 265 00b6 BB68     		ldr	r3, [r7, #8]
 266 00b8 9B01     		lsls	r3, r3, #6
 267 00ba 1344     		add	r3, r3, r2
 268 00bc 03F59C73 		add	r3, r3, #312
 269 00c0 0022     		movs	r2, #0
 270 00c2 1A60     		str	r2, [r3]
 113:Generated_Source\PSoC6\pdl\drivers\peripheral\tcpwm/cy_tcpwm_quaddec.c **** 
 114:Generated_Source\PSoC6\pdl\drivers\peripheral\tcpwm/cy_tcpwm_quaddec.c ****     if (CY_TCPWM_INPUT_CREATOR != config->phiAInput)
 271              		.loc 1 114 0
 272 00c4 7B68     		ldr	r3, [r7, #4]
 273 00c6 9B69     		ldr	r3, [r3, #24]
 274 00c8 B3F1FF3F 		cmp	r3, #-1
 275 00cc 07D0     		beq	.L9
 115:Generated_Source\PSoC6\pdl\drivers\peripheral\tcpwm/cy_tcpwm_quaddec.c ****     {        
 116:Generated_Source\PSoC6\pdl\drivers\peripheral\tcpwm/cy_tcpwm_quaddec.c ****         TCPWM_CNT_TR_CTRL0(base, cntNum) = CY_TCPWM_CNT_TR_CTRL0_DEFAULT;
 276              		.loc 1 116 0
 277 00ce FA68     		ldr	r2, [r7, #12]
ARM GAS  C:\Users\tmj32\AppData\Local\Temp\ccNWe9JJ.s 			page 8


 278 00d0 BB68     		ldr	r3, [r7, #8]
 279 00d2 9B01     		lsls	r3, r3, #6
 280 00d4 1344     		add	r3, r3, r2
 281 00d6 03F59073 		add	r3, r3, #288
 282 00da 1022     		movs	r2, #16
 283 00dc 1A60     		str	r2, [r3]
 284              	.L9:
 117:Generated_Source\PSoC6\pdl\drivers\peripheral\tcpwm/cy_tcpwm_quaddec.c ****     }
 118:Generated_Source\PSoC6\pdl\drivers\peripheral\tcpwm/cy_tcpwm_quaddec.c **** }
 285              		.loc 1 118 0
 286 00de 00BF     		nop
 287 00e0 1437     		adds	r7, r7, #20
 288              		.cfi_def_cfa_offset 4
 289 00e2 BD46     		mov	sp, r7
 290              		.cfi_def_cfa_register 13
 291              		@ sp needed
 292 00e4 5DF8047B 		ldr	r7, [sp], #4
 293              		.cfi_restore 7
 294              		.cfi_def_cfa_offset 0
 295 00e8 7047     		bx	lr
 296              		.cfi_endproc
 297              	.LFE152:
 298              		.size	Cy_TCPWM_QuadDec_DeInit, .-Cy_TCPWM_QuadDec_DeInit
 299 00ea 00BF     		.text
 300              	.Letext0:
 301              		.file 2 "c:\\program files (x86)\\cypress\\psoc creator\\4.3\\psoc creator\\import\\gnu\\arm\\5.4.
 302              		.file 3 "c:\\program files (x86)\\cypress\\psoc creator\\4.3\\psoc creator\\import\\gnu\\arm\\5.4.
 303              		.file 4 "Generated_Source\\PSoC6\\pdl\\devices/psoc6/include/ip/cyip_tcpwm.h"
 304              		.file 5 "Generated_Source\\PSoC6\\pdl\\devices/psoc6/include/psoc6_01_config.h"
 305              		.file 6 "Generated_Source\\PSoC6\\pdl\\drivers\\peripheral\\tcpwm\\cy_tcpwm.h"
 306              		.file 7 "Generated_Source\\PSoC6\\pdl\\drivers\\peripheral\\tcpwm\\cy_tcpwm_quaddec.h"
 307              		.file 8 "Generated_Source\\PSoC6\\pdl\\cmsis/include/core_cm4.h"