ARM GAS  C:\Users\tmj32\AppData\Local\Temp\ccNz9fkw.s 			page 1


   1              		.syntax unified
   2              		.cpu cortex-m4
   3              		.eabi_attribute 27, 1
   4              		.fpu fpv4-sp-d16
   5              		.eabi_attribute 20, 1
   6              		.eabi_attribute 21, 1
   7              		.eabi_attribute 23, 3
   8              		.eabi_attribute 24, 1
   9              		.eabi_attribute 25, 1
  10              		.eabi_attribute 26, 1
  11              		.eabi_attribute 30, 6
  12              		.eabi_attribute 34, 1
  13              		.eabi_attribute 18, 4
  14              		.thumb
  15              		.syntax unified
  16              		.file	"cy_trigmux.c"
  17              		.text
  18              	.Ltext0:
  19              		.cfi_sections	.debug_frame
  20              		.section	.rodata
  21              		.align	2
  22              	.LC0:
  23 0000 47656E65 		.ascii	"Generated_Source\\PSoC6\\pdl\\drivers\\peripheral\\"
  23      72617465 
  23      645F536F 
  23      75726365 
  23      5C50536F 
  24 002e 74726967 		.ascii	"trigmux\\cy_trigmux.c\000"
  24      6D75785C 
  24      63795F74 
  24      7269676D 
  24      75782E63 
  25              		.section	.text.Cy_TrigMux_Connect,"ax",%progbits
  26              		.align	2
  27              		.global	Cy_TrigMux_Connect
  28              		.thumb
  29              		.thumb_func
  30              		.type	Cy_TrigMux_Connect, %function
  31              	Cy_TrigMux_Connect:
  32              	.LFB132:
  33              		.file 1 "Generated_Source\\PSoC6\\pdl\\drivers\\peripheral\\trigmux\\cy_trigmux.c"
   1:Generated_Source\PSoC6\pdl\drivers\peripheral\trigmux/cy_trigmux.c **** /***************************************************************************//**
   2:Generated_Source\PSoC6\pdl\drivers\peripheral\trigmux/cy_trigmux.c **** * \file cy_trigmux.c
   3:Generated_Source\PSoC6\pdl\drivers\peripheral\trigmux/cy_trigmux.c **** * \version 1.20
   4:Generated_Source\PSoC6\pdl\drivers\peripheral\trigmux/cy_trigmux.c **** *
   5:Generated_Source\PSoC6\pdl\drivers\peripheral\trigmux/cy_trigmux.c **** * \brief Trigger mux API.
   6:Generated_Source\PSoC6\pdl\drivers\peripheral\trigmux/cy_trigmux.c **** *
   7:Generated_Source\PSoC6\pdl\drivers\peripheral\trigmux/cy_trigmux.c **** ********************************************************************************
   8:Generated_Source\PSoC6\pdl\drivers\peripheral\trigmux/cy_trigmux.c **** * \copyright
   9:Generated_Source\PSoC6\pdl\drivers\peripheral\trigmux/cy_trigmux.c **** * Copyright 2016-2018, Cypress Semiconductor Corporation.  All rights reserved.
  10:Generated_Source\PSoC6\pdl\drivers\peripheral\trigmux/cy_trigmux.c **** * You may use this file only in accordance with the license, terms, conditions,
  11:Generated_Source\PSoC6\pdl\drivers\peripheral\trigmux/cy_trigmux.c **** * disclaimers, and limitations in the end user license agreement accompanying
  12:Generated_Source\PSoC6\pdl\drivers\peripheral\trigmux/cy_trigmux.c **** * the software package with which this file was provided.
  13:Generated_Source\PSoC6\pdl\drivers\peripheral\trigmux/cy_trigmux.c **** *******************************************************************************/
  14:Generated_Source\PSoC6\pdl\drivers\peripheral\trigmux/cy_trigmux.c **** 
  15:Generated_Source\PSoC6\pdl\drivers\peripheral\trigmux/cy_trigmux.c **** #include "cy_trigmux.h"
  16:Generated_Source\PSoC6\pdl\drivers\peripheral\trigmux/cy_trigmux.c **** #include "cy_device.h"
ARM GAS  C:\Users\tmj32\AppData\Local\Temp\ccNz9fkw.s 			page 2


  17:Generated_Source\PSoC6\pdl\drivers\peripheral\trigmux/cy_trigmux.c **** 
  18:Generated_Source\PSoC6\pdl\drivers\peripheral\trigmux/cy_trigmux.c **** 
  19:Generated_Source\PSoC6\pdl\drivers\peripheral\trigmux/cy_trigmux.c **** #define CY_TRIGMUX_IS_TRIGTYPE_VALID(trigType)  (((trigType) == TRIGGER_TYPE_EDGE) || \
  20:Generated_Source\PSoC6\pdl\drivers\peripheral\trigmux/cy_trigmux.c ****                                                  ((trigType) == TRIGGER_TYPE_LEVEL))
  21:Generated_Source\PSoC6\pdl\drivers\peripheral\trigmux/cy_trigmux.c **** 
  22:Generated_Source\PSoC6\pdl\drivers\peripheral\trigmux/cy_trigmux.c **** #define CY_TRIGMUX_V1_IS_CYCLES_VALID(cycles)   (CY_TRIGGER_INFINITE >= (cycles))
  23:Generated_Source\PSoC6\pdl\drivers\peripheral\trigmux/cy_trigmux.c **** #define CY_TRIGMUX_V2_IS_CYCLES_VALID(cycles)   ((CY_TRIGGER_DEACTIVATE == (cycles)) || \
  24:Generated_Source\PSoC6\pdl\drivers\peripheral\trigmux/cy_trigmux.c ****                                                  (CY_TRIGGER_TWO_CYCLES == (cycles)) || \
  25:Generated_Source\PSoC6\pdl\drivers\peripheral\trigmux/cy_trigmux.c ****                                                  (CY_TRIGGER_INFINITE   == (cycles)))
  26:Generated_Source\PSoC6\pdl\drivers\peripheral\trigmux/cy_trigmux.c **** #define CY_TRIGMUX_IS_CYCLES_VALID(cycles)      ((CY_PERI_V1 && CY_TRIGMUX_V1_IS_CYCLES_VALID(cycle
  27:Generated_Source\PSoC6\pdl\drivers\peripheral\trigmux/cy_trigmux.c ****                                                                 CY_TRIGMUX_V2_IS_CYCLES_VALID(cycle
  28:Generated_Source\PSoC6\pdl\drivers\peripheral\trigmux/cy_trigmux.c **** 
  29:Generated_Source\PSoC6\pdl\drivers\peripheral\trigmux/cy_trigmux.c **** #define CY_TRIGMUX_INTRIG_MASK                  (PERI_TR_CMD_GROUP_SEL_Msk | PERI_TR_GR_TR_OUT_CTL_
  30:Generated_Source\PSoC6\pdl\drivers\peripheral\trigmux/cy_trigmux.c **** #define CY_TRIGMUX_IS_INTRIG_VALID(inTrg)       (0UL == ((inTrg) & (uint32_t)~CY_TRIGMUX_INTRIG_MAS
  31:Generated_Source\PSoC6\pdl\drivers\peripheral\trigmux/cy_trigmux.c **** 
  32:Generated_Source\PSoC6\pdl\drivers\peripheral\trigmux/cy_trigmux.c **** #define CY_TRIGMUX_OUTTRIG_MASK                 (PERI_TR_CMD_OUT_SEL_Msk | PERI_TR_CMD_GROUP_SEL_Ms
  33:Generated_Source\PSoC6\pdl\drivers\peripheral\trigmux/cy_trigmux.c **** #define CY_TRIGMUX_IS_OUTTRIG_VALID(outTrg)     ((0UL == ((outTrg) & (uint32_t)~CY_TRIGMUX_OUTTRIG_
  34:Generated_Source\PSoC6\pdl\drivers\peripheral\trigmux/cy_trigmux.c ****                                                  (0UL != ((outTrg) & PERI_TR_CMD_OUT_SEL_Msk)))
  35:Generated_Source\PSoC6\pdl\drivers\peripheral\trigmux/cy_trigmux.c **** 
  36:Generated_Source\PSoC6\pdl\drivers\peripheral\trigmux/cy_trigmux.c **** #define CY_TRIGMUX_ONETRIG_MASK                 (PERI_V2_TR_CMD_OUT_SEL_Msk | PERI_V2_TR_CMD_GROUP_
  37:Generated_Source\PSoC6\pdl\drivers\peripheral\trigmux/cy_trigmux.c **** #define CY_TRIGMUX_IS_ONETRIG_VALID(oneTrg)     ((0UL == ((oneTrg) & (uint32_t)~CY_TRIGMUX_ONETRIG_
  38:Generated_Source\PSoC6\pdl\drivers\peripheral\trigmux/cy_trigmux.c ****                                                  (0UL != ((oneTrg) & PERI_V2_TR_CMD_OUT_SEL_Msk)) &
  39:Generated_Source\PSoC6\pdl\drivers\peripheral\trigmux/cy_trigmux.c ****                                                  (0UL != ((oneTrg) & (PERI_V2_TR_CMD_GROUP_SEL_Msk 
  40:Generated_Source\PSoC6\pdl\drivers\peripheral\trigmux/cy_trigmux.c **** 
  41:Generated_Source\PSoC6\pdl\drivers\peripheral\trigmux/cy_trigmux.c **** #define CY_TRIGMUX_TRIGLINE_MASK                (PERI_TR_CMD_OUT_SEL_Msk | CY_PERI_TR_CMD_GROUP_SEL
  42:Generated_Source\PSoC6\pdl\drivers\peripheral\trigmux/cy_trigmux.c **** #define CY_TRIGMUX_IS_TRIGLINE_VALID(trgLn)     (0U == ((trgLn) & (uint32_t)~CY_TRIGMUX_TRIGLINE_MA
  43:Generated_Source\PSoC6\pdl\drivers\peripheral\trigmux/cy_trigmux.c **** 
  44:Generated_Source\PSoC6\pdl\drivers\peripheral\trigmux/cy_trigmux.c **** #define CY_TRIGMUX_TR_CTL(outTrig)              (PERI_TR_GR_TR_CTL(_FLD2VAL(CY_PERI_TR_CMD_GROUP_SE
  45:Generated_Source\PSoC6\pdl\drivers\peripheral\trigmux/cy_trigmux.c ****                                                                    _FLD2VAL(CY_PERI_TR_CTL_SEL,    
  46:Generated_Source\PSoC6\pdl\drivers\peripheral\trigmux/cy_trigmux.c **** 
  47:Generated_Source\PSoC6\pdl\drivers\peripheral\trigmux/cy_trigmux.c **** 
  48:Generated_Source\PSoC6\pdl\drivers\peripheral\trigmux/cy_trigmux.c **** /*******************************************************************************
  49:Generated_Source\PSoC6\pdl\drivers\peripheral\trigmux/cy_trigmux.c **** * Function Name: Cy_TrigMux_Connect
  50:Generated_Source\PSoC6\pdl\drivers\peripheral\trigmux/cy_trigmux.c **** ****************************************************************************//**
  51:Generated_Source\PSoC6\pdl\drivers\peripheral\trigmux/cy_trigmux.c **** *
  52:Generated_Source\PSoC6\pdl\drivers\peripheral\trigmux/cy_trigmux.c **** * Connects an input trigger source and output trigger.
  53:Generated_Source\PSoC6\pdl\drivers\peripheral\trigmux/cy_trigmux.c **** *
  54:Generated_Source\PSoC6\pdl\drivers\peripheral\trigmux/cy_trigmux.c **** * \param inTrig
  55:Generated_Source\PSoC6\pdl\drivers\peripheral\trigmux/cy_trigmux.c **** * An input selection for the trigger mux.
  56:Generated_Source\PSoC6\pdl\drivers\peripheral\trigmux/cy_trigmux.c **** * - Bit 30 should be cleared.
  57:Generated_Source\PSoC6\pdl\drivers\peripheral\trigmux/cy_trigmux.c **** * - Bit 12 should be cleared.
  58:Generated_Source\PSoC6\pdl\drivers\peripheral\trigmux/cy_trigmux.c **** * - Bits 11:8 represent the trigger group selection.
  59:Generated_Source\PSoC6\pdl\drivers\peripheral\trigmux/cy_trigmux.c **** * - Bits 7:0 select the input trigger signal for the specified trigger multiplexer.
  60:Generated_Source\PSoC6\pdl\drivers\peripheral\trigmux/cy_trigmux.c **** *
  61:Generated_Source\PSoC6\pdl\drivers\peripheral\trigmux/cy_trigmux.c **** * \param outTrig
  62:Generated_Source\PSoC6\pdl\drivers\peripheral\trigmux/cy_trigmux.c **** * The output of the trigger mux. This refers to the consumer of the trigger mux.
  63:Generated_Source\PSoC6\pdl\drivers\peripheral\trigmux/cy_trigmux.c **** * - Bit 30 should be set.
  64:Generated_Source\PSoC6\pdl\drivers\peripheral\trigmux/cy_trigmux.c **** * - Bit 12 should be cleared.
  65:Generated_Source\PSoC6\pdl\drivers\peripheral\trigmux/cy_trigmux.c **** * - Bits 11:8 represent the trigger group selection.<br>
  66:Generated_Source\PSoC6\pdl\drivers\peripheral\trigmux/cy_trigmux.c **** *  For PERI_ver1:
  67:Generated_Source\PSoC6\pdl\drivers\peripheral\trigmux/cy_trigmux.c **** * - Bits 6:0 select the output trigger number in the trigger group.<br>
  68:Generated_Source\PSoC6\pdl\drivers\peripheral\trigmux/cy_trigmux.c **** *  For PERI_ver2:
  69:Generated_Source\PSoC6\pdl\drivers\peripheral\trigmux/cy_trigmux.c **** * - Bits 7:0 select the output trigger number in the trigger group.
  70:Generated_Source\PSoC6\pdl\drivers\peripheral\trigmux/cy_trigmux.c **** *
  71:Generated_Source\PSoC6\pdl\drivers\peripheral\trigmux/cy_trigmux.c **** * \param invert
  72:Generated_Source\PSoC6\pdl\drivers\peripheral\trigmux/cy_trigmux.c **** * - true: The output trigger is inverted.
  73:Generated_Source\PSoC6\pdl\drivers\peripheral\trigmux/cy_trigmux.c **** * - false: The output trigger is not inverted.
ARM GAS  C:\Users\tmj32\AppData\Local\Temp\ccNz9fkw.s 			page 3


  74:Generated_Source\PSoC6\pdl\drivers\peripheral\trigmux/cy_trigmux.c **** *
  75:Generated_Source\PSoC6\pdl\drivers\peripheral\trigmux/cy_trigmux.c **** * \param trigType The trigger signal type.
  76:Generated_Source\PSoC6\pdl\drivers\peripheral\trigmux/cy_trigmux.c **** * - TRIGGER_TYPE_EDGE: The trigger is synchronized to the consumer blocks clock
  77:Generated_Source\PSoC6\pdl\drivers\peripheral\trigmux/cy_trigmux.c **** *   and a two-cycle pulse is generated on this clock.
  78:Generated_Source\PSoC6\pdl\drivers\peripheral\trigmux/cy_trigmux.c **** * - TRIGGER_TYPE_LEVEL: The trigger is a simple level output.
  79:Generated_Source\PSoC6\pdl\drivers\peripheral\trigmux/cy_trigmux.c **** *
  80:Generated_Source\PSoC6\pdl\drivers\peripheral\trigmux/cy_trigmux.c **** * \return status:
  81:Generated_Source\PSoC6\pdl\drivers\peripheral\trigmux/cy_trigmux.c **** * - CY_TRIGMUX_SUCCESS: The connection is made successfully.
  82:Generated_Source\PSoC6\pdl\drivers\peripheral\trigmux/cy_trigmux.c **** * - CY_TRIGMUX_BAD_PARAM: Some parameter is invalid.
  83:Generated_Source\PSoC6\pdl\drivers\peripheral\trigmux/cy_trigmux.c **** *
  84:Generated_Source\PSoC6\pdl\drivers\peripheral\trigmux/cy_trigmux.c **** * \funcusage
  85:Generated_Source\PSoC6\pdl\drivers\peripheral\trigmux/cy_trigmux.c **** * \snippet trigmux\1.20\snippet\main.c snippet_Cy_TrigMux_Connect
  86:Generated_Source\PSoC6\pdl\drivers\peripheral\trigmux/cy_trigmux.c **** *  
  87:Generated_Source\PSoC6\pdl\drivers\peripheral\trigmux/cy_trigmux.c **** *******************************************************************************/
  88:Generated_Source\PSoC6\pdl\drivers\peripheral\trigmux/cy_trigmux.c **** cy_en_trigmux_status_t Cy_TrigMux_Connect(uint32_t inTrig, uint32_t outTrig, bool invert, en_trig_t
  89:Generated_Source\PSoC6\pdl\drivers\peripheral\trigmux/cy_trigmux.c **** {
  34              		.loc 1 89 0
  35              		.cfi_startproc
  36              		@ args = 0, pretend = 0, frame = 24
  37              		@ frame_needed = 1, uses_anonymous_args = 0
  38 0000 90B5     		push	{r4, r7, lr}
  39              		.cfi_def_cfa_offset 12
  40              		.cfi_offset 4, -12
  41              		.cfi_offset 7, -8
  42              		.cfi_offset 14, -4
  43 0002 87B0     		sub	sp, sp, #28
  44              		.cfi_def_cfa_offset 40
  45 0004 00AF     		add	r7, sp, #0
  46              		.cfi_def_cfa_register 7
  47 0006 F860     		str	r0, [r7, #12]
  48 0008 B960     		str	r1, [r7, #8]
  49 000a 1146     		mov	r1, r2
  50 000c 1A46     		mov	r2, r3
  51 000e 0B46     		mov	r3, r1
  52 0010 FB71     		strb	r3, [r7, #7]
  53 0012 1346     		mov	r3, r2
  54 0014 BB71     		strb	r3, [r7, #6]
  90:Generated_Source\PSoC6\pdl\drivers\peripheral\trigmux/cy_trigmux.c ****     cy_en_trigmux_status_t retVal = CY_TRIGMUX_BAD_PARAM;
  55              		.loc 1 90 0
  56 0016 4F4B     		ldr	r3, .L10
  57 0018 7B61     		str	r3, [r7, #20]
  91:Generated_Source\PSoC6\pdl\drivers\peripheral\trigmux/cy_trigmux.c ****     CY_ASSERT_L3(CY_TRIGMUX_IS_TRIGTYPE_VALID(trigType));
  58              		.loc 1 91 0
  59 001a BB79     		ldrb	r3, [r7, #6]	@ zero_extendqisi2
  60 001c 012B     		cmp	r3, #1
  61 001e 06D0     		beq	.L2
  62              		.loc 1 91 0 is_stmt 0 discriminator 1
  63 0020 BB79     		ldrb	r3, [r7, #6]	@ zero_extendqisi2
  64 0022 002B     		cmp	r3, #0
  65 0024 03D0     		beq	.L2
  66              		.loc 1 91 0 discriminator 2
  67 0026 5B21     		movs	r1, #91
  68 0028 4B48     		ldr	r0, .L10+4
  69 002a FFF7FEFF 		bl	Cy_SysLib_AssertFailed
  70              	.L2:
  92:Generated_Source\PSoC6\pdl\drivers\peripheral\trigmux/cy_trigmux.c ****     CY_ASSERT_L2(CY_TRIGMUX_IS_INTRIG_VALID(inTrig));
  71              		.loc 1 92 0 is_stmt 1
ARM GAS  C:\Users\tmj32\AppData\Local\Temp\ccNz9fkw.s 			page 4


  72 002e FB68     		ldr	r3, [r7, #12]
  73 0030 23F47F63 		bic	r3, r3, #4080
  74 0034 23F00F03 		bic	r3, r3, #15
  75 0038 002B     		cmp	r3, #0
  76 003a 03D0     		beq	.L3
  77              		.loc 1 92 0 is_stmt 0 discriminator 1
  78 003c 5C21     		movs	r1, #92
  79 003e 4648     		ldr	r0, .L10+4
  80 0040 FFF7FEFF 		bl	Cy_SysLib_AssertFailed
  81              	.L3:
  93:Generated_Source\PSoC6\pdl\drivers\peripheral\trigmux/cy_trigmux.c ****     CY_ASSERT_L2(CY_TRIGMUX_IS_OUTTRIG_VALID(outTrig));
  82              		.loc 1 93 0 is_stmt 1
  83 0044 454B     		ldr	r3, .L10+8
  84 0046 1B68     		ldr	r3, [r3]
  85 0048 B3F86E30 		ldrh	r3, [r3, #110]
  86 004c 9B08     		lsrs	r3, r3, #2
  87 004e 9BB2     		uxth	r3, r3
  88 0050 013B     		subs	r3, r3, #1
  89 0052 43F08043 		orr	r3, r3, #1073741824
  90 0056 43F47063 		orr	r3, r3, #3840
  91 005a DA43     		mvns	r2, r3
  92 005c BB68     		ldr	r3, [r7, #8]
  93 005e 1340     		ands	r3, r3, r2
  94 0060 002B     		cmp	r3, #0
  95 0062 04D1     		bne	.L4
  96              		.loc 1 93 0 is_stmt 0 discriminator 2
  97 0064 BB68     		ldr	r3, [r7, #8]
  98 0066 03F08043 		and	r3, r3, #1073741824
  99 006a 002B     		cmp	r3, #0
 100 006c 03D1     		bne	.L5
 101              	.L4:
 102              		.loc 1 93 0 discriminator 3
 103 006e 5D21     		movs	r1, #93
 104 0070 3948     		ldr	r0, .L10+4
 105 0072 FFF7FEFF 		bl	Cy_SysLib_AssertFailed
 106              	.L5:
  94:Generated_Source\PSoC6\pdl\drivers\peripheral\trigmux/cy_trigmux.c **** 
  95:Generated_Source\PSoC6\pdl\drivers\peripheral\trigmux/cy_trigmux.c ****     /* inTrig and outTrig should be in the same group */
  96:Generated_Source\PSoC6\pdl\drivers\peripheral\trigmux/cy_trigmux.c ****     if ((inTrig & PERI_TR_CMD_GROUP_SEL_Msk) == (outTrig & PERI_TR_CMD_GROUP_SEL_Msk))
 107              		.loc 1 96 0 is_stmt 1
 108 0076 FA68     		ldr	r2, [r7, #12]
 109 0078 BB68     		ldr	r3, [r7, #8]
 110 007a 5340     		eors	r3, r3, r2
 111 007c 03F47063 		and	r3, r3, #3840
 112 0080 002B     		cmp	r3, #0
 113 0082 62D1     		bne	.L6
 114              	.LBB2:
  97:Generated_Source\PSoC6\pdl\drivers\peripheral\trigmux/cy_trigmux.c ****     {
  98:Generated_Source\PSoC6\pdl\drivers\peripheral\trigmux/cy_trigmux.c ****         uint32_t interruptState = Cy_SysLib_EnterCriticalSection();
 115              		.loc 1 98 0
 116 0084 FFF7FEFF 		bl	Cy_SysLib_EnterCriticalSection
 117 0088 3861     		str	r0, [r7, #16]
  99:Generated_Source\PSoC6\pdl\drivers\peripheral\trigmux/cy_trigmux.c **** 
 100:Generated_Source\PSoC6\pdl\drivers\peripheral\trigmux/cy_trigmux.c ****         CY_TRIGMUX_TR_CTL(outTrig) = (CY_TRIGMUX_TR_CTL(outTrig) &
 118              		.loc 1 100 0
 119 008a 344B     		ldr	r3, .L10+8
 120 008c 1B68     		ldr	r3, [r3]
ARM GAS  C:\Users\tmj32\AppData\Local\Temp\ccNz9fkw.s 			page 5


 121 008e 9B68     		ldr	r3, [r3, #8]
 122 0090 324A     		ldr	r2, .L10+8
 123 0092 1268     		ldr	r2, [r2]
 124 0094 B2F86C20 		ldrh	r2, [r2, #108]
 125 0098 1A44     		add	r2, r2, r3
 126 009a 304B     		ldr	r3, .L10+8
 127 009c 1B68     		ldr	r3, [r3]
 128 009e B3F86E30 		ldrh	r3, [r3, #110]
 129 00a2 9B08     		lsrs	r3, r3, #2
 130 00a4 9BB2     		uxth	r3, r3
 131 00a6 591E     		subs	r1, r3, #1
 132 00a8 BB68     		ldr	r3, [r7, #8]
 133 00aa 0B40     		ands	r3, r3, r1
 134 00ac 9900     		lsls	r1, r3, #2
 135 00ae 2B4B     		ldr	r3, .L10+8
 136 00b0 1B68     		ldr	r3, [r3]
 137 00b2 B3F86A30 		ldrh	r3, [r3, #106]
 138 00b6 1846     		mov	r0, r3
 139 00b8 BB68     		ldr	r3, [r7, #8]
 140 00ba 0340     		ands	r3, r3, r0
 141 00bc 1B0A     		lsrs	r3, r3, #8
 142 00be 2748     		ldr	r0, .L10+8
 143 00c0 0068     		ldr	r0, [r0]
 144 00c2 B0F86E00 		ldrh	r0, [r0, #110]
 145 00c6 00FB03F3 		mul	r3, r0, r3
 146 00ca 0B44     		add	r3, r3, r1
 147 00cc 1344     		add	r3, r3, r2
 148 00ce 1C46     		mov	r4, r3
 149 00d0 224B     		ldr	r3, .L10+8
 150 00d2 1B68     		ldr	r3, [r3]
 151 00d4 9B68     		ldr	r3, [r3, #8]
 152 00d6 214A     		ldr	r2, .L10+8
 153 00d8 1268     		ldr	r2, [r2]
 154 00da B2F86C20 		ldrh	r2, [r2, #108]
 155 00de 1A44     		add	r2, r2, r3
 156 00e0 1E4B     		ldr	r3, .L10+8
 157 00e2 1B68     		ldr	r3, [r3]
 158 00e4 B3F86E30 		ldrh	r3, [r3, #110]
 159 00e8 9B08     		lsrs	r3, r3, #2
 160 00ea 9BB2     		uxth	r3, r3
 161 00ec 591E     		subs	r1, r3, #1
 162 00ee BB68     		ldr	r3, [r7, #8]
 163 00f0 0B40     		ands	r3, r3, r1
 164 00f2 9900     		lsls	r1, r3, #2
 165 00f4 194B     		ldr	r3, .L10+8
 166 00f6 1B68     		ldr	r3, [r3]
 167 00f8 B3F86A30 		ldrh	r3, [r3, #106]
 168 00fc 1846     		mov	r0, r3
 169 00fe BB68     		ldr	r3, [r7, #8]
 170 0100 0340     		ands	r3, r3, r0
 171 0102 1B0A     		lsrs	r3, r3, #8
 172 0104 1548     		ldr	r0, .L10+8
 173 0106 0068     		ldr	r0, [r0]
 174 0108 B0F86E00 		ldrh	r0, [r0, #110]
 175 010c 00FB03F3 		mul	r3, r0, r3
 176 0110 0B44     		add	r3, r3, r1
 177 0112 1344     		add	r3, r3, r2
ARM GAS  C:\Users\tmj32\AppData\Local\Temp\ccNz9fkw.s 			page 6


 178 0114 1B68     		ldr	r3, [r3]
 179 0116 23F47F73 		bic	r3, r3, #1020
 180 011a 23F00303 		bic	r3, r3, #3
 101:Generated_Source\PSoC6\pdl\drivers\peripheral\trigmux/cy_trigmux.c ****                                       (uint32_t)~(PERI_TR_GR_TR_OUT_CTL_TR_SEL_Msk |
 102:Generated_Source\PSoC6\pdl\drivers\peripheral\trigmux/cy_trigmux.c ****                                                   PERI_TR_GR_TR_OUT_CTL_TR_INV_Msk |
 103:Generated_Source\PSoC6\pdl\drivers\peripheral\trigmux/cy_trigmux.c ****                                                   PERI_TR_GR_TR_OUT_CTL_TR_EDGE_Msk)) |
 104:Generated_Source\PSoC6\pdl\drivers\peripheral\trigmux/cy_trigmux.c ****                                         (_VAL2FLD(PERI_TR_GR_TR_OUT_CTL_TR_SEL, inTrig) |
 181              		.loc 1 104 0
 182 011e FA68     		ldr	r2, [r7, #12]
 183 0120 D1B2     		uxtb	r1, r2
 105:Generated_Source\PSoC6\pdl\drivers\peripheral\trigmux/cy_trigmux.c ****                                         _BOOL2FLD(PERI_TR_GR_TR_OUT_CTL_TR_INV, invert) |
 184              		.loc 1 105 0
 185 0122 FA79     		ldrb	r2, [r7, #7]	@ zero_extendqisi2
 186 0124 002A     		cmp	r2, #0
 187 0126 02D0     		beq	.L7
 188              		.loc 1 105 0 is_stmt 0 discriminator 1
 189 0128 4FF48072 		mov	r2, #256
 190 012c 00E0     		b	.L8
 191              	.L7:
 192              		.loc 1 105 0 discriminator 2
 193 012e 0022     		movs	r2, #0
 194              	.L8:
 104:Generated_Source\PSoC6\pdl\drivers\peripheral\trigmux/cy_trigmux.c ****                                         _BOOL2FLD(PERI_TR_GR_TR_OUT_CTL_TR_INV, invert) |
 195              		.loc 1 104 0 is_stmt 1
 196 0130 1143     		orrs	r1, r1, r2
 106:Generated_Source\PSoC6\pdl\drivers\peripheral\trigmux/cy_trigmux.c ****                                          _VAL2FLD(PERI_TR_GR_TR_OUT_CTL_TR_EDGE, trigType));
 197              		.loc 1 106 0
 198 0132 BA79     		ldrb	r2, [r7, #6]	@ zero_extendqisi2
 199 0134 5202     		lsls	r2, r2, #9
 200 0136 02F40072 		and	r2, r2, #512
 105:Generated_Source\PSoC6\pdl\drivers\peripheral\trigmux/cy_trigmux.c ****                                         _BOOL2FLD(PERI_TR_GR_TR_OUT_CTL_TR_INV, invert) |
 201              		.loc 1 105 0
 202 013a 0A43     		orrs	r2, r2, r1
 103:Generated_Source\PSoC6\pdl\drivers\peripheral\trigmux/cy_trigmux.c ****                                         (_VAL2FLD(PERI_TR_GR_TR_OUT_CTL_TR_SEL, inTrig) |
 203              		.loc 1 103 0
 204 013c 1343     		orrs	r3, r3, r2
 100:Generated_Source\PSoC6\pdl\drivers\peripheral\trigmux/cy_trigmux.c ****                                       (uint32_t)~(PERI_TR_GR_TR_OUT_CTL_TR_SEL_Msk |
 205              		.loc 1 100 0
 206 013e 2360     		str	r3, [r4]
 107:Generated_Source\PSoC6\pdl\drivers\peripheral\trigmux/cy_trigmux.c **** 
 108:Generated_Source\PSoC6\pdl\drivers\peripheral\trigmux/cy_trigmux.c ****         Cy_SysLib_ExitCriticalSection(interruptState);
 207              		.loc 1 108 0
 208 0140 3869     		ldr	r0, [r7, #16]
 209 0142 FFF7FEFF 		bl	Cy_SysLib_ExitCriticalSection
 109:Generated_Source\PSoC6\pdl\drivers\peripheral\trigmux/cy_trigmux.c **** 
 110:Generated_Source\PSoC6\pdl\drivers\peripheral\trigmux/cy_trigmux.c ****         retVal = CY_TRIGMUX_SUCCESS;
 210              		.loc 1 110 0
 211 0146 0023     		movs	r3, #0
 212 0148 7B61     		str	r3, [r7, #20]
 213              	.L6:
 214              	.LBE2:
 111:Generated_Source\PSoC6\pdl\drivers\peripheral\trigmux/cy_trigmux.c ****     }
 112:Generated_Source\PSoC6\pdl\drivers\peripheral\trigmux/cy_trigmux.c **** 
 113:Generated_Source\PSoC6\pdl\drivers\peripheral\trigmux/cy_trigmux.c ****     return retVal;
 215              		.loc 1 113 0
 216 014a 7B69     		ldr	r3, [r7, #20]
 114:Generated_Source\PSoC6\pdl\drivers\peripheral\trigmux/cy_trigmux.c **** }
ARM GAS  C:\Users\tmj32\AppData\Local\Temp\ccNz9fkw.s 			page 7


 217              		.loc 1 114 0
 218 014c 1846     		mov	r0, r3
 219 014e 1C37     		adds	r7, r7, #28
 220              		.cfi_def_cfa_offset 12
 221 0150 BD46     		mov	sp, r7
 222              		.cfi_def_cfa_register 13
 223              		@ sp needed
 224 0152 90BD     		pop	{r4, r7, pc}
 225              	.L11:
 226              		.align	2
 227              	.L10:
 228 0154 0100CE00 		.word	13500417
 229 0158 00000000 		.word	.LC0
 230 015c 00000000 		.word	cy_device
 231              		.cfi_endproc
 232              	.LFE132:
 233              		.size	Cy_TrigMux_Connect, .-Cy_TrigMux_Connect
 234              		.section	.text.Cy_TrigMux_Select,"ax",%progbits
 235              		.align	2
 236              		.global	Cy_TrigMux_Select
 237              		.thumb
 238              		.thumb_func
 239              		.type	Cy_TrigMux_Select, %function
 240              	Cy_TrigMux_Select:
 241              	.LFB133:
 115:Generated_Source\PSoC6\pdl\drivers\peripheral\trigmux/cy_trigmux.c **** 
 116:Generated_Source\PSoC6\pdl\drivers\peripheral\trigmux/cy_trigmux.c **** 
 117:Generated_Source\PSoC6\pdl\drivers\peripheral\trigmux/cy_trigmux.c **** /*******************************************************************************
 118:Generated_Source\PSoC6\pdl\drivers\peripheral\trigmux/cy_trigmux.c **** * Function Name: Cy_TrigMux_Select
 119:Generated_Source\PSoC6\pdl\drivers\peripheral\trigmux/cy_trigmux.c **** ****************************************************************************//**
 120:Generated_Source\PSoC6\pdl\drivers\peripheral\trigmux/cy_trigmux.c **** *
 121:Generated_Source\PSoC6\pdl\drivers\peripheral\trigmux/cy_trigmux.c **** * Enables and configures the specified 1-to-1 trigger line. For PERI_ver2 only.
 122:Generated_Source\PSoC6\pdl\drivers\peripheral\trigmux/cy_trigmux.c **** *
 123:Generated_Source\PSoC6\pdl\drivers\peripheral\trigmux/cy_trigmux.c **** * \param outTrig
 124:Generated_Source\PSoC6\pdl\drivers\peripheral\trigmux/cy_trigmux.c **** * The 1to1 trigger line.
 125:Generated_Source\PSoC6\pdl\drivers\peripheral\trigmux/cy_trigmux.c **** * - Bit 30 should be set.
 126:Generated_Source\PSoC6\pdl\drivers\peripheral\trigmux/cy_trigmux.c **** * - Bit 12 should be set.
 127:Generated_Source\PSoC6\pdl\drivers\peripheral\trigmux/cy_trigmux.c **** * - Bits 11:8 represent the 1-to-1 trigger group selection.
 128:Generated_Source\PSoC6\pdl\drivers\peripheral\trigmux/cy_trigmux.c **** * - Bits 7:0 select the trigger line number in the trigger group.
 129:Generated_Source\PSoC6\pdl\drivers\peripheral\trigmux/cy_trigmux.c **** *
 130:Generated_Source\PSoC6\pdl\drivers\peripheral\trigmux/cy_trigmux.c **** * \param invert
 131:Generated_Source\PSoC6\pdl\drivers\peripheral\trigmux/cy_trigmux.c **** * - true: The trigger signal is inverted.
 132:Generated_Source\PSoC6\pdl\drivers\peripheral\trigmux/cy_trigmux.c **** * - false: The trigger signal is not inverted.
 133:Generated_Source\PSoC6\pdl\drivers\peripheral\trigmux/cy_trigmux.c **** *
 134:Generated_Source\PSoC6\pdl\drivers\peripheral\trigmux/cy_trigmux.c **** * \param trigType The trigger signal type.
 135:Generated_Source\PSoC6\pdl\drivers\peripheral\trigmux/cy_trigmux.c **** * - TRIGGER_TYPE_EDGE: The trigger is synchronized to the consumer blocks clock
 136:Generated_Source\PSoC6\pdl\drivers\peripheral\trigmux/cy_trigmux.c **** *   and a two-cycle pulse is generated on this clock.
 137:Generated_Source\PSoC6\pdl\drivers\peripheral\trigmux/cy_trigmux.c **** * - TRIGGER_TYPE_LEVEL: The trigger is a simple level output.
 138:Generated_Source\PSoC6\pdl\drivers\peripheral\trigmux/cy_trigmux.c **** *
 139:Generated_Source\PSoC6\pdl\drivers\peripheral\trigmux/cy_trigmux.c **** * \return status:
 140:Generated_Source\PSoC6\pdl\drivers\peripheral\trigmux/cy_trigmux.c **** * - CY_TRIGMUX_SUCCESS: The selection is made successfully.
 141:Generated_Source\PSoC6\pdl\drivers\peripheral\trigmux/cy_trigmux.c **** * - CY_TRIGMUX_BAD_PARAM: Some parameter is invalid.
 142:Generated_Source\PSoC6\pdl\drivers\peripheral\trigmux/cy_trigmux.c **** *
 143:Generated_Source\PSoC6\pdl\drivers\peripheral\trigmux/cy_trigmux.c **** * \funcusage
 144:Generated_Source\PSoC6\pdl\drivers\peripheral\trigmux/cy_trigmux.c **** * \snippet trigmux\1.20\snippet\main.c snippet_Cy_TrigMux_Select
 145:Generated_Source\PSoC6\pdl\drivers\peripheral\trigmux/cy_trigmux.c **** *  
 146:Generated_Source\PSoC6\pdl\drivers\peripheral\trigmux/cy_trigmux.c **** *******************************************************************************/
ARM GAS  C:\Users\tmj32\AppData\Local\Temp\ccNz9fkw.s 			page 8


 147:Generated_Source\PSoC6\pdl\drivers\peripheral\trigmux/cy_trigmux.c **** cy_en_trigmux_status_t Cy_TrigMux_Select(uint32_t outTrig, bool invert, en_trig_type_t trigType)
 148:Generated_Source\PSoC6\pdl\drivers\peripheral\trigmux/cy_trigmux.c **** {
 242              		.loc 1 148 0
 243              		.cfi_startproc
 244              		@ args = 0, pretend = 0, frame = 16
 245              		@ frame_needed = 1, uses_anonymous_args = 0
 246 0000 90B5     		push	{r4, r7, lr}
 247              		.cfi_def_cfa_offset 12
 248              		.cfi_offset 4, -12
 249              		.cfi_offset 7, -8
 250              		.cfi_offset 14, -4
 251 0002 85B0     		sub	sp, sp, #20
 252              		.cfi_def_cfa_offset 32
 253 0004 00AF     		add	r7, sp, #0
 254              		.cfi_def_cfa_register 7
 255 0006 7860     		str	r0, [r7, #4]
 256 0008 0B46     		mov	r3, r1
 257 000a FB70     		strb	r3, [r7, #3]
 258 000c 1346     		mov	r3, r2
 259 000e BB70     		strb	r3, [r7, #2]
 149:Generated_Source\PSoC6\pdl\drivers\peripheral\trigmux/cy_trigmux.c ****     cy_en_trigmux_status_t retVal = CY_TRIGMUX_BAD_PARAM;
 260              		.loc 1 149 0
 261 0010 494B     		ldr	r3, .L20
 262 0012 FB60     		str	r3, [r7, #12]
 150:Generated_Source\PSoC6\pdl\drivers\peripheral\trigmux/cy_trigmux.c ****     
 151:Generated_Source\PSoC6\pdl\drivers\peripheral\trigmux/cy_trigmux.c ****     CY_ASSERT_L3(CY_TRIGMUX_IS_TRIGTYPE_VALID(trigType));
 263              		.loc 1 151 0
 264 0014 BB78     		ldrb	r3, [r7, #2]	@ zero_extendqisi2
 265 0016 012B     		cmp	r3, #1
 266 0018 06D0     		beq	.L13
 267              		.loc 1 151 0 is_stmt 0 discriminator 1
 268 001a BB78     		ldrb	r3, [r7, #2]	@ zero_extendqisi2
 269 001c 002B     		cmp	r3, #0
 270 001e 03D0     		beq	.L13
 271              		.loc 1 151 0 discriminator 2
 272 0020 9721     		movs	r1, #151
 273 0022 4648     		ldr	r0, .L20+4
 274 0024 FFF7FEFF 		bl	Cy_SysLib_AssertFailed
 275              	.L13:
 152:Generated_Source\PSoC6\pdl\drivers\peripheral\trigmux/cy_trigmux.c ****     CY_ASSERT_L2(CY_TRIGMUX_IS_ONETRIG_VALID(outTrig));
 276              		.loc 1 152 0 is_stmt 1
 277 0028 454B     		ldr	r3, .L20+8
 278 002a 1B68     		ldr	r3, [r3]
 279 002c B3F86E30 		ldrh	r3, [r3, #110]
 280 0030 9B08     		lsrs	r3, r3, #2
 281 0032 9BB2     		uxth	r3, r3
 282 0034 013B     		subs	r3, r3, #1
 283 0036 43F08043 		orr	r3, r3, #1073741824
 284 003a 43F4F853 		orr	r3, r3, #7936
 285 003e DA43     		mvns	r2, r3
 286 0040 7B68     		ldr	r3, [r7, #4]
 287 0042 1340     		ands	r3, r3, r2
 288 0044 002B     		cmp	r3, #0
 289 0046 09D1     		bne	.L14
 290              		.loc 1 152 0 is_stmt 0 discriminator 2
 291 0048 7B68     		ldr	r3, [r7, #4]
 292 004a 03F08043 		and	r3, r3, #1073741824
ARM GAS  C:\Users\tmj32\AppData\Local\Temp\ccNz9fkw.s 			page 9


 293 004e 002B     		cmp	r3, #0
 294 0050 04D0     		beq	.L14
 295              		.loc 1 152 0 discriminator 4
 296 0052 7B68     		ldr	r3, [r7, #4]
 297 0054 03F48053 		and	r3, r3, #4096
 298 0058 002B     		cmp	r3, #0
 299 005a 03D1     		bne	.L15
 300              	.L14:
 301              		.loc 1 152 0 discriminator 5
 302 005c 9821     		movs	r1, #152
 303 005e 3748     		ldr	r0, .L20+4
 304 0060 FFF7FEFF 		bl	Cy_SysLib_AssertFailed
 305              	.L15:
 153:Generated_Source\PSoC6\pdl\drivers\peripheral\trigmux/cy_trigmux.c **** 
 154:Generated_Source\PSoC6\pdl\drivers\peripheral\trigmux/cy_trigmux.c ****     if (!CY_PERI_V1)
 306              		.loc 1 154 0 is_stmt 1
 307 0064 364B     		ldr	r3, .L20+8
 308 0066 1B68     		ldr	r3, [r3]
 309 0068 93F82F30 		ldrb	r3, [r3, #47]	@ zero_extendqisi2
 310 006c 012B     		cmp	r3, #1
 311 006e 5DD0     		beq	.L16
 312              	.LBB3:
 155:Generated_Source\PSoC6\pdl\drivers\peripheral\trigmux/cy_trigmux.c ****     {
 156:Generated_Source\PSoC6\pdl\drivers\peripheral\trigmux/cy_trigmux.c ****         uint32_t interruptState;
 157:Generated_Source\PSoC6\pdl\drivers\peripheral\trigmux/cy_trigmux.c **** 
 158:Generated_Source\PSoC6\pdl\drivers\peripheral\trigmux/cy_trigmux.c ****         interruptState = Cy_SysLib_EnterCriticalSection();
 313              		.loc 1 158 0
 314 0070 FFF7FEFF 		bl	Cy_SysLib_EnterCriticalSection
 315 0074 B860     		str	r0, [r7, #8]
 159:Generated_Source\PSoC6\pdl\drivers\peripheral\trigmux/cy_trigmux.c **** 
 160:Generated_Source\PSoC6\pdl\drivers\peripheral\trigmux/cy_trigmux.c ****         CY_TRIGMUX_TR_CTL(outTrig) = (CY_TRIGMUX_TR_CTL(outTrig) &
 316              		.loc 1 160 0
 317 0076 324B     		ldr	r3, .L20+8
 318 0078 1B68     		ldr	r3, [r3]
 319 007a 9B68     		ldr	r3, [r3, #8]
 320 007c 304A     		ldr	r2, .L20+8
 321 007e 1268     		ldr	r2, [r2]
 322 0080 B2F86C20 		ldrh	r2, [r2, #108]
 323 0084 1A44     		add	r2, r2, r3
 324 0086 2E4B     		ldr	r3, .L20+8
 325 0088 1B68     		ldr	r3, [r3]
 326 008a B3F86E30 		ldrh	r3, [r3, #110]
 327 008e 9B08     		lsrs	r3, r3, #2
 328 0090 9BB2     		uxth	r3, r3
 329 0092 591E     		subs	r1, r3, #1
 330 0094 7B68     		ldr	r3, [r7, #4]
 331 0096 0B40     		ands	r3, r3, r1
 332 0098 9900     		lsls	r1, r3, #2
 333 009a 294B     		ldr	r3, .L20+8
 334 009c 1B68     		ldr	r3, [r3]
 335 009e B3F86A30 		ldrh	r3, [r3, #106]
 336 00a2 1846     		mov	r0, r3
 337 00a4 7B68     		ldr	r3, [r7, #4]
 338 00a6 0340     		ands	r3, r3, r0
 339 00a8 1B0A     		lsrs	r3, r3, #8
 340 00aa 2548     		ldr	r0, .L20+8
 341 00ac 0068     		ldr	r0, [r0]
ARM GAS  C:\Users\tmj32\AppData\Local\Temp\ccNz9fkw.s 			page 10


 342 00ae B0F86E00 		ldrh	r0, [r0, #110]
 343 00b2 00FB03F3 		mul	r3, r0, r3
 344 00b6 0B44     		add	r3, r3, r1
 345 00b8 1344     		add	r3, r3, r2
 346 00ba 1C46     		mov	r4, r3
 347 00bc 204B     		ldr	r3, .L20+8
 348 00be 1B68     		ldr	r3, [r3]
 349 00c0 9B68     		ldr	r3, [r3, #8]
 350 00c2 1F4A     		ldr	r2, .L20+8
 351 00c4 1268     		ldr	r2, [r2]
 352 00c6 B2F86C20 		ldrh	r2, [r2, #108]
 353 00ca 1A44     		add	r2, r2, r3
 354 00cc 1C4B     		ldr	r3, .L20+8
 355 00ce 1B68     		ldr	r3, [r3]
 356 00d0 B3F86E30 		ldrh	r3, [r3, #110]
 357 00d4 9B08     		lsrs	r3, r3, #2
 358 00d6 9BB2     		uxth	r3, r3
 359 00d8 591E     		subs	r1, r3, #1
 360 00da 7B68     		ldr	r3, [r7, #4]
 361 00dc 0B40     		ands	r3, r3, r1
 362 00de 9900     		lsls	r1, r3, #2
 363 00e0 174B     		ldr	r3, .L20+8
 364 00e2 1B68     		ldr	r3, [r3]
 365 00e4 B3F86A30 		ldrh	r3, [r3, #106]
 366 00e8 1846     		mov	r0, r3
 367 00ea 7B68     		ldr	r3, [r7, #4]
 368 00ec 0340     		ands	r3, r3, r0
 369 00ee 1B0A     		lsrs	r3, r3, #8
 370 00f0 1348     		ldr	r0, .L20+8
 371 00f2 0068     		ldr	r0, [r0]
 372 00f4 B0F86E00 		ldrh	r0, [r0, #110]
 373 00f8 00FB03F3 		mul	r3, r0, r3
 374 00fc 0B44     		add	r3, r3, r1
 375 00fe 1344     		add	r3, r3, r2
 376 0100 1B68     		ldr	r3, [r3]
 377 0102 23F44072 		bic	r2, r3, #768
 161:Generated_Source\PSoC6\pdl\drivers\peripheral\trigmux/cy_trigmux.c ****                           (uint32_t)~(PERI_TR_1TO1_GR_V2_TR_CTL_TR_INV_Msk |
 162:Generated_Source\PSoC6\pdl\drivers\peripheral\trigmux/cy_trigmux.c ****                                       PERI_TR_1TO1_GR_V2_TR_CTL_TR_EDGE_Msk)) |
 163:Generated_Source\PSoC6\pdl\drivers\peripheral\trigmux/cy_trigmux.c ****                                      (PERI_TR_1TO1_GR_V2_TR_CTL_TR_SEL_Msk      |
 378              		.loc 1 163 0
 379 0106 FB78     		ldrb	r3, [r7, #3]	@ zero_extendqisi2
 380 0108 002B     		cmp	r3, #0
 381 010a 02D0     		beq	.L17
 382              		.loc 1 163 0 is_stmt 0 discriminator 1
 383 010c 40F20111 		movw	r1, #257
 384 0110 00E0     		b	.L18
 385              	.L17:
 386              		.loc 1 163 0 discriminator 2
 387 0112 0121     		movs	r1, #1
 388              	.L18:
 164:Generated_Source\PSoC6\pdl\drivers\peripheral\trigmux/cy_trigmux.c ****                             _BOOL2FLD(PERI_TR_1TO1_GR_V2_TR_CTL_TR_INV, invert) |
 165:Generated_Source\PSoC6\pdl\drivers\peripheral\trigmux/cy_trigmux.c ****                              _VAL2FLD(PERI_TR_1TO1_GR_V2_TR_CTL_TR_EDGE, trigType));
 389              		.loc 1 165 0 is_stmt 1
 390 0114 BB78     		ldrb	r3, [r7, #2]	@ zero_extendqisi2
 391 0116 5B02     		lsls	r3, r3, #9
 392 0118 03F40073 		and	r3, r3, #512
 164:Generated_Source\PSoC6\pdl\drivers\peripheral\trigmux/cy_trigmux.c ****                             _BOOL2FLD(PERI_TR_1TO1_GR_V2_TR_CTL_TR_INV, invert) |
ARM GAS  C:\Users\tmj32\AppData\Local\Temp\ccNz9fkw.s 			page 11


 393              		.loc 1 164 0
 394 011c 0B43     		orrs	r3, r3, r1
 162:Generated_Source\PSoC6\pdl\drivers\peripheral\trigmux/cy_trigmux.c ****                                      (PERI_TR_1TO1_GR_V2_TR_CTL_TR_SEL_Msk      |
 395              		.loc 1 162 0
 396 011e 1343     		orrs	r3, r3, r2
 160:Generated_Source\PSoC6\pdl\drivers\peripheral\trigmux/cy_trigmux.c ****                           (uint32_t)~(PERI_TR_1TO1_GR_V2_TR_CTL_TR_INV_Msk |
 397              		.loc 1 160 0
 398 0120 2360     		str	r3, [r4]
 166:Generated_Source\PSoC6\pdl\drivers\peripheral\trigmux/cy_trigmux.c **** 
 167:Generated_Source\PSoC6\pdl\drivers\peripheral\trigmux/cy_trigmux.c ****         Cy_SysLib_ExitCriticalSection(interruptState);
 399              		.loc 1 167 0
 400 0122 B868     		ldr	r0, [r7, #8]
 401 0124 FFF7FEFF 		bl	Cy_SysLib_ExitCriticalSection
 168:Generated_Source\PSoC6\pdl\drivers\peripheral\trigmux/cy_trigmux.c **** 
 169:Generated_Source\PSoC6\pdl\drivers\peripheral\trigmux/cy_trigmux.c ****         retVal = CY_TRIGMUX_SUCCESS;
 402              		.loc 1 169 0
 403 0128 0023     		movs	r3, #0
 404 012a FB60     		str	r3, [r7, #12]
 405              	.L16:
 406              	.LBE3:
 170:Generated_Source\PSoC6\pdl\drivers\peripheral\trigmux/cy_trigmux.c ****     }
 171:Generated_Source\PSoC6\pdl\drivers\peripheral\trigmux/cy_trigmux.c **** 
 172:Generated_Source\PSoC6\pdl\drivers\peripheral\trigmux/cy_trigmux.c ****     return retVal;
 407              		.loc 1 172 0
 408 012c FB68     		ldr	r3, [r7, #12]
 173:Generated_Source\PSoC6\pdl\drivers\peripheral\trigmux/cy_trigmux.c **** }
 409              		.loc 1 173 0
 410 012e 1846     		mov	r0, r3
 411 0130 1437     		adds	r7, r7, #20
 412              		.cfi_def_cfa_offset 12
 413 0132 BD46     		mov	sp, r7
 414              		.cfi_def_cfa_register 13
 415              		@ sp needed
 416 0134 90BD     		pop	{r4, r7, pc}
 417              	.L21:
 418 0136 00BF     		.align	2
 419              	.L20:
 420 0138 0100CE00 		.word	13500417
 421 013c 00000000 		.word	.LC0
 422 0140 00000000 		.word	cy_device
 423              		.cfi_endproc
 424              	.LFE133:
 425              		.size	Cy_TrigMux_Select, .-Cy_TrigMux_Select
 426              		.section	.text.Cy_TrigMux_Deselect,"ax",%progbits
 427              		.align	2
 428              		.global	Cy_TrigMux_Deselect
 429              		.thumb
 430              		.thumb_func
 431              		.type	Cy_TrigMux_Deselect, %function
 432              	Cy_TrigMux_Deselect:
 433              	.LFB134:
 174:Generated_Source\PSoC6\pdl\drivers\peripheral\trigmux/cy_trigmux.c **** 
 175:Generated_Source\PSoC6\pdl\drivers\peripheral\trigmux/cy_trigmux.c **** 
 176:Generated_Source\PSoC6\pdl\drivers\peripheral\trigmux/cy_trigmux.c **** /*******************************************************************************
 177:Generated_Source\PSoC6\pdl\drivers\peripheral\trigmux/cy_trigmux.c **** * Function Name: Cy_TrigMux_Deselect
 178:Generated_Source\PSoC6\pdl\drivers\peripheral\trigmux/cy_trigmux.c **** ****************************************************************************//**
 179:Generated_Source\PSoC6\pdl\drivers\peripheral\trigmux/cy_trigmux.c **** *
ARM GAS  C:\Users\tmj32\AppData\Local\Temp\ccNz9fkw.s 			page 12


 180:Generated_Source\PSoC6\pdl\drivers\peripheral\trigmux/cy_trigmux.c **** * Disables the specified 1-to-1 trigger line. For PERI_ver2 only.
 181:Generated_Source\PSoC6\pdl\drivers\peripheral\trigmux/cy_trigmux.c **** *
 182:Generated_Source\PSoC6\pdl\drivers\peripheral\trigmux/cy_trigmux.c **** * \param outTrig
 183:Generated_Source\PSoC6\pdl\drivers\peripheral\trigmux/cy_trigmux.c **** * The 1to1 trigger line.
 184:Generated_Source\PSoC6\pdl\drivers\peripheral\trigmux/cy_trigmux.c **** * - Bit 30 should be set.
 185:Generated_Source\PSoC6\pdl\drivers\peripheral\trigmux/cy_trigmux.c **** * - Bit 12 should be set.
 186:Generated_Source\PSoC6\pdl\drivers\peripheral\trigmux/cy_trigmux.c **** * - Bits 11:8 represent the 1-to-1 trigger group selection.
 187:Generated_Source\PSoC6\pdl\drivers\peripheral\trigmux/cy_trigmux.c **** * - Bits 7:0 select the trigger line number in the trigger group.
 188:Generated_Source\PSoC6\pdl\drivers\peripheral\trigmux/cy_trigmux.c **** *
 189:Generated_Source\PSoC6\pdl\drivers\peripheral\trigmux/cy_trigmux.c **** * \return status:
 190:Generated_Source\PSoC6\pdl\drivers\peripheral\trigmux/cy_trigmux.c **** * - CY_TRIGMUX_SUCCESS: The deselection is made successfully.
 191:Generated_Source\PSoC6\pdl\drivers\peripheral\trigmux/cy_trigmux.c **** * - CY_TRIGMUX_BAD_PARAM: Some parameter is invalid.
 192:Generated_Source\PSoC6\pdl\drivers\peripheral\trigmux/cy_trigmux.c **** *
 193:Generated_Source\PSoC6\pdl\drivers\peripheral\trigmux/cy_trigmux.c **** * \funcusage
 194:Generated_Source\PSoC6\pdl\drivers\peripheral\trigmux/cy_trigmux.c **** * \snippet trigmux\1.20\snippet\main.c snippet_Cy_TrigMux_Deselect
 195:Generated_Source\PSoC6\pdl\drivers\peripheral\trigmux/cy_trigmux.c **** *  
 196:Generated_Source\PSoC6\pdl\drivers\peripheral\trigmux/cy_trigmux.c **** *******************************************************************************/
 197:Generated_Source\PSoC6\pdl\drivers\peripheral\trigmux/cy_trigmux.c **** cy_en_trigmux_status_t Cy_TrigMux_Deselect(uint32_t outTrig)
 198:Generated_Source\PSoC6\pdl\drivers\peripheral\trigmux/cy_trigmux.c **** {
 434              		.loc 1 198 0
 435              		.cfi_startproc
 436              		@ args = 0, pretend = 0, frame = 16
 437              		@ frame_needed = 1, uses_anonymous_args = 0
 438 0000 90B5     		push	{r4, r7, lr}
 439              		.cfi_def_cfa_offset 12
 440              		.cfi_offset 4, -12
 441              		.cfi_offset 7, -8
 442              		.cfi_offset 14, -4
 443 0002 85B0     		sub	sp, sp, #20
 444              		.cfi_def_cfa_offset 32
 445 0004 00AF     		add	r7, sp, #0
 446              		.cfi_def_cfa_register 7
 447 0006 7860     		str	r0, [r7, #4]
 199:Generated_Source\PSoC6\pdl\drivers\peripheral\trigmux/cy_trigmux.c ****     cy_en_trigmux_status_t retVal = CY_TRIGMUX_BAD_PARAM;
 448              		.loc 1 199 0
 449 0008 3E4B     		ldr	r3, .L27
 450 000a FB60     		str	r3, [r7, #12]
 200:Generated_Source\PSoC6\pdl\drivers\peripheral\trigmux/cy_trigmux.c **** 
 201:Generated_Source\PSoC6\pdl\drivers\peripheral\trigmux/cy_trigmux.c ****     CY_ASSERT_L2(CY_TRIGMUX_IS_ONETRIG_VALID(outTrig));
 451              		.loc 1 201 0
 452 000c 3E4B     		ldr	r3, .L27+4
 453 000e 1B68     		ldr	r3, [r3]
 454 0010 B3F86E30 		ldrh	r3, [r3, #110]
 455 0014 9B08     		lsrs	r3, r3, #2
 456 0016 9BB2     		uxth	r3, r3
 457 0018 013B     		subs	r3, r3, #1
 458 001a 43F08043 		orr	r3, r3, #1073741824
 459 001e 43F4F853 		orr	r3, r3, #7936
 460 0022 DA43     		mvns	r2, r3
 461 0024 7B68     		ldr	r3, [r7, #4]
 462 0026 1340     		ands	r3, r3, r2
 463 0028 002B     		cmp	r3, #0
 464 002a 09D1     		bne	.L23
 465              		.loc 1 201 0 is_stmt 0 discriminator 2
 466 002c 7B68     		ldr	r3, [r7, #4]
 467 002e 03F08043 		and	r3, r3, #1073741824
 468 0032 002B     		cmp	r3, #0
ARM GAS  C:\Users\tmj32\AppData\Local\Temp\ccNz9fkw.s 			page 13


 469 0034 04D0     		beq	.L23
 470              		.loc 1 201 0 discriminator 4
 471 0036 7B68     		ldr	r3, [r7, #4]
 472 0038 03F48053 		and	r3, r3, #4096
 473 003c 002B     		cmp	r3, #0
 474 003e 03D1     		bne	.L24
 475              	.L23:
 476              		.loc 1 201 0 discriminator 5
 477 0040 C921     		movs	r1, #201
 478 0042 3248     		ldr	r0, .L27+8
 479 0044 FFF7FEFF 		bl	Cy_SysLib_AssertFailed
 480              	.L24:
 202:Generated_Source\PSoC6\pdl\drivers\peripheral\trigmux/cy_trigmux.c **** 
 203:Generated_Source\PSoC6\pdl\drivers\peripheral\trigmux/cy_trigmux.c ****     if (!CY_PERI_V1)
 481              		.loc 1 203 0 is_stmt 1
 482 0048 2F4B     		ldr	r3, .L27+4
 483 004a 1B68     		ldr	r3, [r3]
 484 004c 93F82F30 		ldrb	r3, [r3, #47]	@ zero_extendqisi2
 485 0050 012B     		cmp	r3, #1
 486 0052 52D0     		beq	.L25
 487              	.LBB4:
 204:Generated_Source\PSoC6\pdl\drivers\peripheral\trigmux/cy_trigmux.c ****     {
 205:Generated_Source\PSoC6\pdl\drivers\peripheral\trigmux/cy_trigmux.c ****         uint32_t interruptState;
 206:Generated_Source\PSoC6\pdl\drivers\peripheral\trigmux/cy_trigmux.c **** 
 207:Generated_Source\PSoC6\pdl\drivers\peripheral\trigmux/cy_trigmux.c ****         interruptState = Cy_SysLib_EnterCriticalSection();
 488              		.loc 1 207 0
 489 0054 FFF7FEFF 		bl	Cy_SysLib_EnterCriticalSection
 490 0058 B860     		str	r0, [r7, #8]
 208:Generated_Source\PSoC6\pdl\drivers\peripheral\trigmux/cy_trigmux.c **** 
 209:Generated_Source\PSoC6\pdl\drivers\peripheral\trigmux/cy_trigmux.c ****         CY_TRIGMUX_TR_CTL(outTrig) &= (uint32_t)~(PERI_TR_1TO1_GR_V2_TR_CTL_TR_SEL_Msk |
 491              		.loc 1 209 0
 492 005a 2B4B     		ldr	r3, .L27+4
 493 005c 1B68     		ldr	r3, [r3]
 494 005e 9B68     		ldr	r3, [r3, #8]
 495 0060 294A     		ldr	r2, .L27+4
 496 0062 1268     		ldr	r2, [r2]
 497 0064 B2F86C20 		ldrh	r2, [r2, #108]
 498 0068 1A44     		add	r2, r2, r3
 499 006a 274B     		ldr	r3, .L27+4
 500 006c 1B68     		ldr	r3, [r3]
 501 006e B3F86E30 		ldrh	r3, [r3, #110]
 502 0072 9B08     		lsrs	r3, r3, #2
 503 0074 9BB2     		uxth	r3, r3
 504 0076 591E     		subs	r1, r3, #1
 505 0078 7B68     		ldr	r3, [r7, #4]
 506 007a 0B40     		ands	r3, r3, r1
 507 007c 9900     		lsls	r1, r3, #2
 508 007e 224B     		ldr	r3, .L27+4
 509 0080 1B68     		ldr	r3, [r3]
 510 0082 B3F86A30 		ldrh	r3, [r3, #106]
 511 0086 1846     		mov	r0, r3
 512 0088 7B68     		ldr	r3, [r7, #4]
 513 008a 0340     		ands	r3, r3, r0
 514 008c 1B0A     		lsrs	r3, r3, #8
 515 008e 1E48     		ldr	r0, .L27+4
 516 0090 0068     		ldr	r0, [r0]
 517 0092 B0F86E00 		ldrh	r0, [r0, #110]
ARM GAS  C:\Users\tmj32\AppData\Local\Temp\ccNz9fkw.s 			page 14


 518 0096 00FB03F3 		mul	r3, r0, r3
 519 009a 0B44     		add	r3, r3, r1
 520 009c 1344     		add	r3, r3, r2
 521 009e 1C46     		mov	r4, r3
 522 00a0 194B     		ldr	r3, .L27+4
 523 00a2 1B68     		ldr	r3, [r3]
 524 00a4 9B68     		ldr	r3, [r3, #8]
 525 00a6 184A     		ldr	r2, .L27+4
 526 00a8 1268     		ldr	r2, [r2]
 527 00aa B2F86C20 		ldrh	r2, [r2, #108]
 528 00ae 1A44     		add	r2, r2, r3
 529 00b0 154B     		ldr	r3, .L27+4
 530 00b2 1B68     		ldr	r3, [r3]
 531 00b4 B3F86E30 		ldrh	r3, [r3, #110]
 532 00b8 9B08     		lsrs	r3, r3, #2
 533 00ba 9BB2     		uxth	r3, r3
 534 00bc 591E     		subs	r1, r3, #1
 535 00be 7B68     		ldr	r3, [r7, #4]
 536 00c0 0B40     		ands	r3, r3, r1
 537 00c2 9900     		lsls	r1, r3, #2
 538 00c4 104B     		ldr	r3, .L27+4
 539 00c6 1B68     		ldr	r3, [r3]
 540 00c8 B3F86A30 		ldrh	r3, [r3, #106]
 541 00cc 1846     		mov	r0, r3
 542 00ce 7B68     		ldr	r3, [r7, #4]
 543 00d0 0340     		ands	r3, r3, r0
 544 00d2 1B0A     		lsrs	r3, r3, #8
 545 00d4 0C48     		ldr	r0, .L27+4
 546 00d6 0068     		ldr	r0, [r0]
 547 00d8 B0F86E00 		ldrh	r0, [r0, #110]
 548 00dc 00FB03F3 		mul	r3, r0, r3
 549 00e0 0B44     		add	r3, r3, r1
 550 00e2 1344     		add	r3, r3, r2
 551 00e4 1B68     		ldr	r3, [r3]
 552 00e6 23F44073 		bic	r3, r3, #768
 553 00ea 23F00103 		bic	r3, r3, #1
 554 00ee 2360     		str	r3, [r4]
 210:Generated_Source\PSoC6\pdl\drivers\peripheral\trigmux/cy_trigmux.c ****                                                   PERI_TR_1TO1_GR_V2_TR_CTL_TR_INV_Msk |
 211:Generated_Source\PSoC6\pdl\drivers\peripheral\trigmux/cy_trigmux.c ****                                                   PERI_TR_1TO1_GR_V2_TR_CTL_TR_EDGE_Msk);
 212:Generated_Source\PSoC6\pdl\drivers\peripheral\trigmux/cy_trigmux.c **** 
 213:Generated_Source\PSoC6\pdl\drivers\peripheral\trigmux/cy_trigmux.c ****         Cy_SysLib_ExitCriticalSection(interruptState);
 555              		.loc 1 213 0
 556 00f0 B868     		ldr	r0, [r7, #8]
 557 00f2 FFF7FEFF 		bl	Cy_SysLib_ExitCriticalSection
 214:Generated_Source\PSoC6\pdl\drivers\peripheral\trigmux/cy_trigmux.c **** 
 215:Generated_Source\PSoC6\pdl\drivers\peripheral\trigmux/cy_trigmux.c ****         retVal = CY_TRIGMUX_SUCCESS;
 558              		.loc 1 215 0
 559 00f6 0023     		movs	r3, #0
 560 00f8 FB60     		str	r3, [r7, #12]
 561              	.L25:
 562              	.LBE4:
 216:Generated_Source\PSoC6\pdl\drivers\peripheral\trigmux/cy_trigmux.c ****     }
 217:Generated_Source\PSoC6\pdl\drivers\peripheral\trigmux/cy_trigmux.c **** 
 218:Generated_Source\PSoC6\pdl\drivers\peripheral\trigmux/cy_trigmux.c ****     return retVal;
 563              		.loc 1 218 0
 564 00fa FB68     		ldr	r3, [r7, #12]
 219:Generated_Source\PSoC6\pdl\drivers\peripheral\trigmux/cy_trigmux.c **** }
ARM GAS  C:\Users\tmj32\AppData\Local\Temp\ccNz9fkw.s 			page 15


 565              		.loc 1 219 0
 566 00fc 1846     		mov	r0, r3
 567 00fe 1437     		adds	r7, r7, #20
 568              		.cfi_def_cfa_offset 12
 569 0100 BD46     		mov	sp, r7
 570              		.cfi_def_cfa_register 13
 571              		@ sp needed
 572 0102 90BD     		pop	{r4, r7, pc}
 573              	.L28:
 574              		.align	2
 575              	.L27:
 576 0104 0100CE00 		.word	13500417
 577 0108 00000000 		.word	cy_device
 578 010c 00000000 		.word	.LC0
 579              		.cfi_endproc
 580              	.LFE134:
 581              		.size	Cy_TrigMux_Deselect, .-Cy_TrigMux_Deselect
 582              		.section	.text.Cy_TrigMux_SetDebugFreeze,"ax",%progbits
 583              		.align	2
 584              		.global	Cy_TrigMux_SetDebugFreeze
 585              		.thumb
 586              		.thumb_func
 587              		.type	Cy_TrigMux_SetDebugFreeze, %function
 588              	Cy_TrigMux_SetDebugFreeze:
 589              	.LFB135:
 220:Generated_Source\PSoC6\pdl\drivers\peripheral\trigmux/cy_trigmux.c **** 
 221:Generated_Source\PSoC6\pdl\drivers\peripheral\trigmux/cy_trigmux.c **** 
 222:Generated_Source\PSoC6\pdl\drivers\peripheral\trigmux/cy_trigmux.c **** /*******************************************************************************
 223:Generated_Source\PSoC6\pdl\drivers\peripheral\trigmux/cy_trigmux.c **** * Function Name: Cy_TrigMux_SetDebugFreeze
 224:Generated_Source\PSoC6\pdl\drivers\peripheral\trigmux/cy_trigmux.c **** ****************************************************************************//**
 225:Generated_Source\PSoC6\pdl\drivers\peripheral\trigmux/cy_trigmux.c **** *
 226:Generated_Source\PSoC6\pdl\drivers\peripheral\trigmux/cy_trigmux.c **** * Enables/disables the Debug Freeze feature for the specified trigger 
 227:Generated_Source\PSoC6\pdl\drivers\peripheral\trigmux/cy_trigmux.c **** * multiplexer or 1-to-1 trigger line. For PERI_ver2 only.
 228:Generated_Source\PSoC6\pdl\drivers\peripheral\trigmux/cy_trigmux.c **** *
 229:Generated_Source\PSoC6\pdl\drivers\peripheral\trigmux/cy_trigmux.c **** * \param outTrig
 230:Generated_Source\PSoC6\pdl\drivers\peripheral\trigmux/cy_trigmux.c **** * The output of the trigger mux or dedicated 1-to-1 trigger line.
 231:Generated_Source\PSoC6\pdl\drivers\peripheral\trigmux/cy_trigmux.c **** * - Bit 30 should be set.
 232:Generated_Source\PSoC6\pdl\drivers\peripheral\trigmux/cy_trigmux.c **** * - Bits 12:8 represent the trigger group selection.
 233:Generated_Source\PSoC6\pdl\drivers\peripheral\trigmux/cy_trigmux.c **** * - Bits 7:0 select the output trigger number in the trigger group.
 234:Generated_Source\PSoC6\pdl\drivers\peripheral\trigmux/cy_trigmux.c **** *
 235:Generated_Source\PSoC6\pdl\drivers\peripheral\trigmux/cy_trigmux.c **** * \param enable
 236:Generated_Source\PSoC6\pdl\drivers\peripheral\trigmux/cy_trigmux.c **** * - true: The Debug Freeze feature is enabled.
 237:Generated_Source\PSoC6\pdl\drivers\peripheral\trigmux/cy_trigmux.c **** * - false: The Debug Freeze feature is disabled.
 238:Generated_Source\PSoC6\pdl\drivers\peripheral\trigmux/cy_trigmux.c **** *
 239:Generated_Source\PSoC6\pdl\drivers\peripheral\trigmux/cy_trigmux.c **** * \return status:
 240:Generated_Source\PSoC6\pdl\drivers\peripheral\trigmux/cy_trigmux.c **** * - CY_TRIGMUX_SUCCESS: The operation is made successfully.
 241:Generated_Source\PSoC6\pdl\drivers\peripheral\trigmux/cy_trigmux.c **** * - CY_TRIGMUX_BAD_PARAM: The outTrig parameter is invalid.
 242:Generated_Source\PSoC6\pdl\drivers\peripheral\trigmux/cy_trigmux.c **** *
 243:Generated_Source\PSoC6\pdl\drivers\peripheral\trigmux/cy_trigmux.c **** * \funcusage
 244:Generated_Source\PSoC6\pdl\drivers\peripheral\trigmux/cy_trigmux.c **** * \snippet trigmux\1.20\snippet\main.c snippet_Cy_TrigMux_SetDebugFreeze
 245:Generated_Source\PSoC6\pdl\drivers\peripheral\trigmux/cy_trigmux.c **** *  
 246:Generated_Source\PSoC6\pdl\drivers\peripheral\trigmux/cy_trigmux.c **** *******************************************************************************/
 247:Generated_Source\PSoC6\pdl\drivers\peripheral\trigmux/cy_trigmux.c **** cy_en_trigmux_status_t Cy_TrigMux_SetDebugFreeze(uint32_t outTrig, bool enable)
 248:Generated_Source\PSoC6\pdl\drivers\peripheral\trigmux/cy_trigmux.c **** {    
 590              		.loc 1 248 0
 591              		.cfi_startproc
 592              		@ args = 0, pretend = 0, frame = 16
ARM GAS  C:\Users\tmj32\AppData\Local\Temp\ccNz9fkw.s 			page 16


 593              		@ frame_needed = 1, uses_anonymous_args = 0
 594 0000 90B5     		push	{r4, r7, lr}
 595              		.cfi_def_cfa_offset 12
 596              		.cfi_offset 4, -12
 597              		.cfi_offset 7, -8
 598              		.cfi_offset 14, -4
 599 0002 85B0     		sub	sp, sp, #20
 600              		.cfi_def_cfa_offset 32
 601 0004 00AF     		add	r7, sp, #0
 602              		.cfi_def_cfa_register 7
 603 0006 7860     		str	r0, [r7, #4]
 604 0008 0B46     		mov	r3, r1
 605 000a FB70     		strb	r3, [r7, #3]
 249:Generated_Source\PSoC6\pdl\drivers\peripheral\trigmux/cy_trigmux.c ****     cy_en_trigmux_status_t retVal = CY_TRIGMUX_BAD_PARAM;
 606              		.loc 1 249 0
 607 000c 554B     		ldr	r3, .L34
 608 000e FB60     		str	r3, [r7, #12]
 250:Generated_Source\PSoC6\pdl\drivers\peripheral\trigmux/cy_trigmux.c **** 
 251:Generated_Source\PSoC6\pdl\drivers\peripheral\trigmux/cy_trigmux.c ****     if (!CY_PERI_V1)
 609              		.loc 1 251 0
 610 0010 554B     		ldr	r3, .L34+4
 611 0012 1B68     		ldr	r3, [r3]
 612 0014 93F82F30 		ldrb	r3, [r3, #47]	@ zero_extendqisi2
 613 0018 012B     		cmp	r3, #1
 614 001a 00F09E80 		beq	.L30
 615              	.LBB5:
 252:Generated_Source\PSoC6\pdl\drivers\peripheral\trigmux/cy_trigmux.c ****     {
 253:Generated_Source\PSoC6\pdl\drivers\peripheral\trigmux/cy_trigmux.c ****         uint32_t interruptState;
 254:Generated_Source\PSoC6\pdl\drivers\peripheral\trigmux/cy_trigmux.c **** 
 255:Generated_Source\PSoC6\pdl\drivers\peripheral\trigmux/cy_trigmux.c ****         interruptState = Cy_SysLib_EnterCriticalSection();
 616              		.loc 1 255 0
 617 001e FFF7FEFF 		bl	Cy_SysLib_EnterCriticalSection
 618 0022 B860     		str	r0, [r7, #8]
 256:Generated_Source\PSoC6\pdl\drivers\peripheral\trigmux/cy_trigmux.c **** 
 257:Generated_Source\PSoC6\pdl\drivers\peripheral\trigmux/cy_trigmux.c ****         if (enable)
 619              		.loc 1 257 0
 620 0024 FB78     		ldrb	r3, [r7, #3]	@ zero_extendqisi2
 621 0026 002B     		cmp	r3, #0
 622 0028 49D0     		beq	.L31
 258:Generated_Source\PSoC6\pdl\drivers\peripheral\trigmux/cy_trigmux.c ****         {
 259:Generated_Source\PSoC6\pdl\drivers\peripheral\trigmux/cy_trigmux.c ****             CY_TRIGMUX_TR_CTL(outTrig) |= PERI_TR_GR_V2_TR_CTL_DBG_FREEZE_EN_Msk;
 623              		.loc 1 259 0
 624 002a 4F4B     		ldr	r3, .L34+4
 625 002c 1B68     		ldr	r3, [r3]
 626 002e 9B68     		ldr	r3, [r3, #8]
 627 0030 4D4A     		ldr	r2, .L34+4
 628 0032 1268     		ldr	r2, [r2]
 629 0034 B2F86C20 		ldrh	r2, [r2, #108]
 630 0038 1A44     		add	r2, r2, r3
 631 003a 4B4B     		ldr	r3, .L34+4
 632 003c 1B68     		ldr	r3, [r3]
 633 003e B3F86E30 		ldrh	r3, [r3, #110]
 634 0042 9B08     		lsrs	r3, r3, #2
 635 0044 9BB2     		uxth	r3, r3
 636 0046 591E     		subs	r1, r3, #1
 637 0048 7B68     		ldr	r3, [r7, #4]
 638 004a 0B40     		ands	r3, r3, r1
ARM GAS  C:\Users\tmj32\AppData\Local\Temp\ccNz9fkw.s 			page 17


 639 004c 9900     		lsls	r1, r3, #2
 640 004e 464B     		ldr	r3, .L34+4
 641 0050 1B68     		ldr	r3, [r3]
 642 0052 B3F86A30 		ldrh	r3, [r3, #106]
 643 0056 1846     		mov	r0, r3
 644 0058 7B68     		ldr	r3, [r7, #4]
 645 005a 0340     		ands	r3, r3, r0
 646 005c 1B0A     		lsrs	r3, r3, #8
 647 005e 4248     		ldr	r0, .L34+4
 648 0060 0068     		ldr	r0, [r0]
 649 0062 B0F86E00 		ldrh	r0, [r0, #110]
 650 0066 00FB03F3 		mul	r3, r0, r3
 651 006a 0B44     		add	r3, r3, r1
 652 006c 1344     		add	r3, r3, r2
 653 006e 1C46     		mov	r4, r3
 654 0070 3D4B     		ldr	r3, .L34+4
 655 0072 1B68     		ldr	r3, [r3]
 656 0074 9B68     		ldr	r3, [r3, #8]
 657 0076 3C4A     		ldr	r2, .L34+4
 658 0078 1268     		ldr	r2, [r2]
 659 007a B2F86C20 		ldrh	r2, [r2, #108]
 660 007e 1A44     		add	r2, r2, r3
 661 0080 394B     		ldr	r3, .L34+4
 662 0082 1B68     		ldr	r3, [r3]
 663 0084 B3F86E30 		ldrh	r3, [r3, #110]
 664 0088 9B08     		lsrs	r3, r3, #2
 665 008a 9BB2     		uxth	r3, r3
 666 008c 591E     		subs	r1, r3, #1
 667 008e 7B68     		ldr	r3, [r7, #4]
 668 0090 0B40     		ands	r3, r3, r1
 669 0092 9900     		lsls	r1, r3, #2
 670 0094 344B     		ldr	r3, .L34+4
 671 0096 1B68     		ldr	r3, [r3]
 672 0098 B3F86A30 		ldrh	r3, [r3, #106]
 673 009c 1846     		mov	r0, r3
 674 009e 7B68     		ldr	r3, [r7, #4]
 675 00a0 0340     		ands	r3, r3, r0
 676 00a2 1B0A     		lsrs	r3, r3, #8
 677 00a4 3048     		ldr	r0, .L34+4
 678 00a6 0068     		ldr	r0, [r0]
 679 00a8 B0F86E00 		ldrh	r0, [r0, #110]
 680 00ac 00FB03F3 		mul	r3, r0, r3
 681 00b0 0B44     		add	r3, r3, r1
 682 00b2 1344     		add	r3, r3, r2
 683 00b4 1B68     		ldr	r3, [r3]
 684 00b6 43F48053 		orr	r3, r3, #4096
 685 00ba 2360     		str	r3, [r4]
 686 00bc 48E0     		b	.L32
 687              	.L31:
 260:Generated_Source\PSoC6\pdl\drivers\peripheral\trigmux/cy_trigmux.c ****         }
 261:Generated_Source\PSoC6\pdl\drivers\peripheral\trigmux/cy_trigmux.c ****         else
 262:Generated_Source\PSoC6\pdl\drivers\peripheral\trigmux/cy_trigmux.c ****         {
 263:Generated_Source\PSoC6\pdl\drivers\peripheral\trigmux/cy_trigmux.c ****             CY_TRIGMUX_TR_CTL(outTrig) &= (uint32_t)~PERI_TR_GR_V2_TR_CTL_DBG_FREEZE_EN_Msk;
 688              		.loc 1 263 0
 689 00be 2A4B     		ldr	r3, .L34+4
 690 00c0 1B68     		ldr	r3, [r3]
 691 00c2 9B68     		ldr	r3, [r3, #8]
ARM GAS  C:\Users\tmj32\AppData\Local\Temp\ccNz9fkw.s 			page 18


 692 00c4 284A     		ldr	r2, .L34+4
 693 00c6 1268     		ldr	r2, [r2]
 694 00c8 B2F86C20 		ldrh	r2, [r2, #108]
 695 00cc 1A44     		add	r2, r2, r3
 696 00ce 264B     		ldr	r3, .L34+4
 697 00d0 1B68     		ldr	r3, [r3]
 698 00d2 B3F86E30 		ldrh	r3, [r3, #110]
 699 00d6 9B08     		lsrs	r3, r3, #2
 700 00d8 9BB2     		uxth	r3, r3
 701 00da 591E     		subs	r1, r3, #1
 702 00dc 7B68     		ldr	r3, [r7, #4]
 703 00de 0B40     		ands	r3, r3, r1
 704 00e0 9900     		lsls	r1, r3, #2
 705 00e2 214B     		ldr	r3, .L34+4
 706 00e4 1B68     		ldr	r3, [r3]
 707 00e6 B3F86A30 		ldrh	r3, [r3, #106]
 708 00ea 1846     		mov	r0, r3
 709 00ec 7B68     		ldr	r3, [r7, #4]
 710 00ee 0340     		ands	r3, r3, r0
 711 00f0 1B0A     		lsrs	r3, r3, #8
 712 00f2 1D48     		ldr	r0, .L34+4
 713 00f4 0068     		ldr	r0, [r0]
 714 00f6 B0F86E00 		ldrh	r0, [r0, #110]
 715 00fa 00FB03F3 		mul	r3, r0, r3
 716 00fe 0B44     		add	r3, r3, r1
 717 0100 1344     		add	r3, r3, r2
 718 0102 1C46     		mov	r4, r3
 719 0104 184B     		ldr	r3, .L34+4
 720 0106 1B68     		ldr	r3, [r3]
 721 0108 9B68     		ldr	r3, [r3, #8]
 722 010a 174A     		ldr	r2, .L34+4
 723 010c 1268     		ldr	r2, [r2]
 724 010e B2F86C20 		ldrh	r2, [r2, #108]
 725 0112 1A44     		add	r2, r2, r3
 726 0114 144B     		ldr	r3, .L34+4
 727 0116 1B68     		ldr	r3, [r3]
 728 0118 B3F86E30 		ldrh	r3, [r3, #110]
 729 011c 9B08     		lsrs	r3, r3, #2
 730 011e 9BB2     		uxth	r3, r3
 731 0120 591E     		subs	r1, r3, #1
 732 0122 7B68     		ldr	r3, [r7, #4]
 733 0124 0B40     		ands	r3, r3, r1
 734 0126 9900     		lsls	r1, r3, #2
 735 0128 0F4B     		ldr	r3, .L34+4
 736 012a 1B68     		ldr	r3, [r3]
 737 012c B3F86A30 		ldrh	r3, [r3, #106]
 738 0130 1846     		mov	r0, r3
 739 0132 7B68     		ldr	r3, [r7, #4]
 740 0134 0340     		ands	r3, r3, r0
 741 0136 1B0A     		lsrs	r3, r3, #8
 742 0138 0B48     		ldr	r0, .L34+4
 743 013a 0068     		ldr	r0, [r0]
 744 013c B0F86E00 		ldrh	r0, [r0, #110]
 745 0140 00FB03F3 		mul	r3, r0, r3
 746 0144 0B44     		add	r3, r3, r1
 747 0146 1344     		add	r3, r3, r2
 748 0148 1B68     		ldr	r3, [r3]
ARM GAS  C:\Users\tmj32\AppData\Local\Temp\ccNz9fkw.s 			page 19


 749 014a 23F48053 		bic	r3, r3, #4096
 750 014e 2360     		str	r3, [r4]
 751              	.L32:
 264:Generated_Source\PSoC6\pdl\drivers\peripheral\trigmux/cy_trigmux.c ****         }
 265:Generated_Source\PSoC6\pdl\drivers\peripheral\trigmux/cy_trigmux.c **** 
 266:Generated_Source\PSoC6\pdl\drivers\peripheral\trigmux/cy_trigmux.c ****         Cy_SysLib_ExitCriticalSection(interruptState);
 752              		.loc 1 266 0
 753 0150 B868     		ldr	r0, [r7, #8]
 754 0152 FFF7FEFF 		bl	Cy_SysLib_ExitCriticalSection
 267:Generated_Source\PSoC6\pdl\drivers\peripheral\trigmux/cy_trigmux.c **** 
 268:Generated_Source\PSoC6\pdl\drivers\peripheral\trigmux/cy_trigmux.c ****         retVal = CY_TRIGMUX_SUCCESS;
 755              		.loc 1 268 0
 756 0156 0023     		movs	r3, #0
 757 0158 FB60     		str	r3, [r7, #12]
 758              	.L30:
 759              	.LBE5:
 269:Generated_Source\PSoC6\pdl\drivers\peripheral\trigmux/cy_trigmux.c ****     }
 270:Generated_Source\PSoC6\pdl\drivers\peripheral\trigmux/cy_trigmux.c **** 
 271:Generated_Source\PSoC6\pdl\drivers\peripheral\trigmux/cy_trigmux.c ****     return retVal;
 760              		.loc 1 271 0
 761 015a FB68     		ldr	r3, [r7, #12]
 272:Generated_Source\PSoC6\pdl\drivers\peripheral\trigmux/cy_trigmux.c **** }
 762              		.loc 1 272 0
 763 015c 1846     		mov	r0, r3
 764 015e 1437     		adds	r7, r7, #20
 765              		.cfi_def_cfa_offset 12
 766 0160 BD46     		mov	sp, r7
 767              		.cfi_def_cfa_register 13
 768              		@ sp needed
 769 0162 90BD     		pop	{r4, r7, pc}
 770              	.L35:
 771              		.align	2
 772              	.L34:
 773 0164 0100CE00 		.word	13500417
 774 0168 00000000 		.word	cy_device
 775              		.cfi_endproc
 776              	.LFE135:
 777              		.size	Cy_TrigMux_SetDebugFreeze, .-Cy_TrigMux_SetDebugFreeze
 778              		.section	.text.Cy_TrigMux_SwTrigger,"ax",%progbits
 779              		.align	2
 780              		.global	Cy_TrigMux_SwTrigger
 781              		.thumb
 782              		.thumb_func
 783              		.type	Cy_TrigMux_SwTrigger, %function
 784              	Cy_TrigMux_SwTrigger:
 785              	.LFB136:
 273:Generated_Source\PSoC6\pdl\drivers\peripheral\trigmux/cy_trigmux.c **** 
 274:Generated_Source\PSoC6\pdl\drivers\peripheral\trigmux/cy_trigmux.c **** 
 275:Generated_Source\PSoC6\pdl\drivers\peripheral\trigmux/cy_trigmux.c **** /*******************************************************************************
 276:Generated_Source\PSoC6\pdl\drivers\peripheral\trigmux/cy_trigmux.c **** * Function Name: Cy_TrigMux_SwTrigger
 277:Generated_Source\PSoC6\pdl\drivers\peripheral\trigmux/cy_trigmux.c **** ****************************************************************************//**
 278:Generated_Source\PSoC6\pdl\drivers\peripheral\trigmux/cy_trigmux.c **** *
 279:Generated_Source\PSoC6\pdl\drivers\peripheral\trigmux/cy_trigmux.c **** * This function generates a software trigger on an input trigger line. 
 280:Generated_Source\PSoC6\pdl\drivers\peripheral\trigmux/cy_trigmux.c **** * All output triggers connected to this input trigger will be triggered. 
 281:Generated_Source\PSoC6\pdl\drivers\peripheral\trigmux/cy_trigmux.c **** * The function also verifies that there is no activated trigger before 
 282:Generated_Source\PSoC6\pdl\drivers\peripheral\trigmux/cy_trigmux.c **** * generating another activation. 
 283:Generated_Source\PSoC6\pdl\drivers\peripheral\trigmux/cy_trigmux.c **** *
ARM GAS  C:\Users\tmj32\AppData\Local\Temp\ccNz9fkw.s 			page 20


 284:Generated_Source\PSoC6\pdl\drivers\peripheral\trigmux/cy_trigmux.c **** * \param trigLine
 285:Generated_Source\PSoC6\pdl\drivers\peripheral\trigmux/cy_trigmux.c **** * The input of the trigger mux.
 286:Generated_Source\PSoC6\pdl\drivers\peripheral\trigmux/cy_trigmux.c **** * - Bit 30 represents if the signal is an input/output. When this bit is set, 
 287:Generated_Source\PSoC6\pdl\drivers\peripheral\trigmux/cy_trigmux.c **** *   the trigger activation is for an output trigger from the trigger multiplexer.
 288:Generated_Source\PSoC6\pdl\drivers\peripheral\trigmux/cy_trigmux.c **** *   When this bit is reset, the trigger activation is for an input trigger to 
 289:Generated_Source\PSoC6\pdl\drivers\peripheral\trigmux/cy_trigmux.c **** *   the trigger multiplexer.
 290:Generated_Source\PSoC6\pdl\drivers\peripheral\trigmux/cy_trigmux.c **** * - Bits 12:8 represent the trigger group selection.<br>
 291:Generated_Source\PSoC6\pdl\drivers\peripheral\trigmux/cy_trigmux.c **** * In case of output trigger line (bit 30 is set):
 292:Generated_Source\PSoC6\pdl\drivers\peripheral\trigmux/cy_trigmux.c **** *  For PERI_ver1:
 293:Generated_Source\PSoC6\pdl\drivers\peripheral\trigmux/cy_trigmux.c **** * - Bits 6:0 select the output trigger number in the trigger group.<br>
 294:Generated_Source\PSoC6\pdl\drivers\peripheral\trigmux/cy_trigmux.c **** *  For PERI_ver2:
 295:Generated_Source\PSoC6\pdl\drivers\peripheral\trigmux/cy_trigmux.c **** * - Bits 7:0 select the output trigger number in the trigger group.
 296:Generated_Source\PSoC6\pdl\drivers\peripheral\trigmux/cy_trigmux.c **** * In case of input trigger line (bit 30 is unset):
 297:Generated_Source\PSoC6\pdl\drivers\peripheral\trigmux/cy_trigmux.c **** * - Bits 7:0 select the input trigger signal for the trigger multiplexer.
 298:Generated_Source\PSoC6\pdl\drivers\peripheral\trigmux/cy_trigmux.c **** *
 299:Generated_Source\PSoC6\pdl\drivers\peripheral\trigmux/cy_trigmux.c **** * \param cycles
 300:Generated_Source\PSoC6\pdl\drivers\peripheral\trigmux/cy_trigmux.c **** *  The number of "Clk_Peri" cycles during which the trigger remains activated.<br>
 301:Generated_Source\PSoC6\pdl\drivers\peripheral\trigmux/cy_trigmux.c **** *  For PERI_ver1: The valid range of cycles is 1 ... 254.<br>
 302:Generated_Source\PSoC6\pdl\drivers\peripheral\trigmux/cy_trigmux.c **** *  For PERI_ver2: The only valid value of cycles is 2 (\ref CY_TRIGGER_TWO_CYCLES).<br>
 303:Generated_Source\PSoC6\pdl\drivers\peripheral\trigmux/cy_trigmux.c **** *  Also there are special values (supported with both PERI_ver1 and PERI_ver2):
 304:Generated_Source\PSoC6\pdl\drivers\peripheral\trigmux/cy_trigmux.c **** *   - CY_TRIGGER_INFINITE - trigger remains activated until the user deactivates it by
 305:Generated_Source\PSoC6\pdl\drivers\peripheral\trigmux/cy_trigmux.c **** *   calling this function with CY_TRIGGER_DEACTIVATE parameter.
 306:Generated_Source\PSoC6\pdl\drivers\peripheral\trigmux/cy_trigmux.c **** *   - CY_TRIGGER_DEACTIVATE - this is used to deactivate the trigger activated by
 307:Generated_Source\PSoC6\pdl\drivers\peripheral\trigmux/cy_trigmux.c **** *   calling this function with CY_TRIGGER_INFINITE parameter.
 308:Generated_Source\PSoC6\pdl\drivers\peripheral\trigmux/cy_trigmux.c **** * 
 309:Generated_Source\PSoC6\pdl\drivers\peripheral\trigmux/cy_trigmux.c **** * \return status:
 310:Generated_Source\PSoC6\pdl\drivers\peripheral\trigmux/cy_trigmux.c **** * - CY_TRIGMUX_SUCCESS: The trigger is successfully activated/deactivated.
 311:Generated_Source\PSoC6\pdl\drivers\peripheral\trigmux/cy_trigmux.c **** * - CY_TRIGMUX_INVALID_STATE: The trigger is already activated/not active.
 312:Generated_Source\PSoC6\pdl\drivers\peripheral\trigmux/cy_trigmux.c **** * - CY_TRIGMUX_BAD_PARAM: Some parameter is invalid.
 313:Generated_Source\PSoC6\pdl\drivers\peripheral\trigmux/cy_trigmux.c **** *
 314:Generated_Source\PSoC6\pdl\drivers\peripheral\trigmux/cy_trigmux.c **** * \funcusage
 315:Generated_Source\PSoC6\pdl\drivers\peripheral\trigmux/cy_trigmux.c **** * \snippet trigmux\1.20\snippet\main.c snippet_Cy_TrigMux_SwTrigger
 316:Generated_Source\PSoC6\pdl\drivers\peripheral\trigmux/cy_trigmux.c **** *
 317:Generated_Source\PSoC6\pdl\drivers\peripheral\trigmux/cy_trigmux.c **** *******************************************************************************/
 318:Generated_Source\PSoC6\pdl\drivers\peripheral\trigmux/cy_trigmux.c **** cy_en_trigmux_status_t Cy_TrigMux_SwTrigger(uint32_t trigLine, uint32_t cycles)
 319:Generated_Source\PSoC6\pdl\drivers\peripheral\trigmux/cy_trigmux.c **** {
 786              		.loc 1 319 0
 787              		.cfi_startproc
 788              		@ args = 0, pretend = 0, frame = 16
 789              		@ frame_needed = 1, uses_anonymous_args = 0
 790 0000 80B5     		push	{r7, lr}
 791              		.cfi_def_cfa_offset 8
 792              		.cfi_offset 7, -8
 793              		.cfi_offset 14, -4
 794 0002 84B0     		sub	sp, sp, #16
 795              		.cfi_def_cfa_offset 24
 796 0004 00AF     		add	r7, sp, #0
 797              		.cfi_def_cfa_register 7
 798 0006 7860     		str	r0, [r7, #4]
 799 0008 3960     		str	r1, [r7]
 320:Generated_Source\PSoC6\pdl\drivers\peripheral\trigmux/cy_trigmux.c ****     cy_en_trigmux_status_t retVal = CY_TRIGMUX_INVALID_STATE;
 800              		.loc 1 320 0
 801 000a 534B     		ldr	r3, .L47
 802 000c FB60     		str	r3, [r7, #12]
 321:Generated_Source\PSoC6\pdl\drivers\peripheral\trigmux/cy_trigmux.c **** 
 322:Generated_Source\PSoC6\pdl\drivers\peripheral\trigmux/cy_trigmux.c ****     CY_ASSERT_L2(CY_TRIGMUX_IS_TRIGLINE_VALID(trigLine));
 803              		.loc 1 322 0
ARM GAS  C:\Users\tmj32\AppData\Local\Temp\ccNz9fkw.s 			page 21


 804 000e 534B     		ldr	r3, .L47+4
 805 0010 1B68     		ldr	r3, [r3]
 806 0012 B3F86A30 		ldrh	r3, [r3, #106]
 807 0016 1A46     		mov	r2, r3
 808 0018 504B     		ldr	r3, .L47+4
 809 001a 1B68     		ldr	r3, [r3]
 810 001c B3F86E30 		ldrh	r3, [r3, #110]
 811 0020 9B08     		lsrs	r3, r3, #2
 812 0022 9BB2     		uxth	r3, r3
 813 0024 013B     		subs	r3, r3, #1
 814 0026 1343     		orrs	r3, r3, r2
 815 0028 43F08043 		orr	r3, r3, #1073741824
 816 002c DA43     		mvns	r2, r3
 817 002e 7B68     		ldr	r3, [r7, #4]
 818 0030 1340     		ands	r3, r3, r2
 819 0032 002B     		cmp	r3, #0
 820 0034 04D0     		beq	.L37
 821              		.loc 1 322 0 is_stmt 0 discriminator 1
 822 0036 4FF4A171 		mov	r1, #322
 823 003a 4948     		ldr	r0, .L47+8
 824 003c FFF7FEFF 		bl	Cy_SysLib_AssertFailed
 825              	.L37:
 323:Generated_Source\PSoC6\pdl\drivers\peripheral\trigmux/cy_trigmux.c ****     CY_ASSERT_L2(CY_TRIGMUX_IS_CYCLES_VALID(cycles));
 826              		.loc 1 323 0 is_stmt 1
 827 0040 464B     		ldr	r3, .L47+4
 828 0042 1B68     		ldr	r3, [r3]
 829 0044 93F82F30 		ldrb	r3, [r3, #47]	@ zero_extendqisi2
 830 0048 012B     		cmp	r3, #1
 831 004a 02D1     		bne	.L38
 832              		.loc 1 323 0 is_stmt 0 discriminator 2
 833 004c 3B68     		ldr	r3, [r7]
 834 004e FF2B     		cmp	r3, #255
 835 0050 0DD9     		bls	.L39
 836              	.L38:
 837              		.loc 1 323 0 discriminator 3
 838 0052 3B68     		ldr	r3, [r7]
 839 0054 002B     		cmp	r3, #0
 840 0056 0AD0     		beq	.L39
 841              		.loc 1 323 0 discriminator 4
 842 0058 3B68     		ldr	r3, [r7]
 843 005a 022B     		cmp	r3, #2
 844 005c 07D0     		beq	.L39
 845              		.loc 1 323 0 discriminator 5
 846 005e 3B68     		ldr	r3, [r7]
 847 0060 FF2B     		cmp	r3, #255
 848 0062 04D0     		beq	.L39
 849              		.loc 1 323 0 discriminator 6
 850 0064 40F24311 		movw	r1, #323
 851 0068 3D48     		ldr	r0, .L47+8
 852 006a FFF7FEFF 		bl	Cy_SysLib_AssertFailed
 853              	.L39:
 324:Generated_Source\PSoC6\pdl\drivers\peripheral\trigmux/cy_trigmux.c **** 
 325:Generated_Source\PSoC6\pdl\drivers\peripheral\trigmux/cy_trigmux.c ****     if (CY_TRIGGER_DEACTIVATE != cycles)
 854              		.loc 1 325 0 is_stmt 1
 855 006e 3B68     		ldr	r3, [r7]
 856 0070 002B     		cmp	r3, #0
 857 0072 53D0     		beq	.L40
ARM GAS  C:\Users\tmj32\AppData\Local\Temp\ccNz9fkw.s 			page 22


 326:Generated_Source\PSoC6\pdl\drivers\peripheral\trigmux/cy_trigmux.c ****     {
 327:Generated_Source\PSoC6\pdl\drivers\peripheral\trigmux/cy_trigmux.c ****         /* Activate the trigger if it is not in the active state. */
 328:Generated_Source\PSoC6\pdl\drivers\peripheral\trigmux/cy_trigmux.c ****         if (PERI_TR_CMD_ACTIVATE_Msk != (PERI_TR_CMD & PERI_TR_CMD_ACTIVATE_Msk))
 858              		.loc 1 328 0
 859 0074 394B     		ldr	r3, .L47+4
 860 0076 1B68     		ldr	r3, [r3]
 861 0078 9B68     		ldr	r3, [r3, #8]
 862 007a 384A     		ldr	r2, .L47+4
 863 007c 1268     		ldr	r2, [r2]
 864 007e B2F86820 		ldrh	r2, [r2, #104]
 865 0082 1344     		add	r3, r3, r2
 866 0084 1B68     		ldr	r3, [r3]
 867 0086 002B     		cmp	r3, #0
 868 0088 60DB     		blt	.L45
 869              	.LBB6:
 329:Generated_Source\PSoC6\pdl\drivers\peripheral\trigmux/cy_trigmux.c ****         {
 330:Generated_Source\PSoC6\pdl\drivers\peripheral\trigmux/cy_trigmux.c **** 
 331:Generated_Source\PSoC6\pdl\drivers\peripheral\trigmux/cy_trigmux.c ****             uint32_t trCmd = (trigLine & (PERI_TR_CMD_TR_SEL_Msk |
 332:Generated_Source\PSoC6\pdl\drivers\peripheral\trigmux/cy_trigmux.c ****                                           PERI_TR_CMD_OUT_SEL_Msk |
 333:Generated_Source\PSoC6\pdl\drivers\peripheral\trigmux/cy_trigmux.c ****                                        CY_PERI_TR_CMD_GROUP_SEL_Msk)) |
 870              		.loc 1 333 0
 871 008a 344B     		ldr	r3, .L47+4
 872 008c 1B68     		ldr	r3, [r3]
 873 008e B3F86A30 		ldrh	r3, [r3, #106]
 332:Generated_Source\PSoC6\pdl\drivers\peripheral\trigmux/cy_trigmux.c ****                                        CY_PERI_TR_CMD_GROUP_SEL_Msk)) |
 874              		.loc 1 332 0
 875 0092 43F08043 		orr	r3, r3, #1073741824
 876 0096 43F0FF03 		orr	r3, r3, #255
 331:Generated_Source\PSoC6\pdl\drivers\peripheral\trigmux/cy_trigmux.c ****                                           PERI_TR_CMD_OUT_SEL_Msk |
 877              		.loc 1 331 0
 878 009a 7A68     		ldr	r2, [r7, #4]
 879 009c 1340     		ands	r3, r3, r2
 880 009e 43F00043 		orr	r3, r3, #-2147483648
 881 00a2 BB60     		str	r3, [r7, #8]
 334:Generated_Source\PSoC6\pdl\drivers\peripheral\trigmux/cy_trigmux.c ****                                           PERI_TR_CMD_ACTIVATE_Msk;
 335:Generated_Source\PSoC6\pdl\drivers\peripheral\trigmux/cy_trigmux.c ****             
 336:Generated_Source\PSoC6\pdl\drivers\peripheral\trigmux/cy_trigmux.c ****             retVal = CY_TRIGMUX_SUCCESS;
 882              		.loc 1 336 0
 883 00a4 0023     		movs	r3, #0
 884 00a6 FB60     		str	r3, [r7, #12]
 337:Generated_Source\PSoC6\pdl\drivers\peripheral\trigmux/cy_trigmux.c ****             
 338:Generated_Source\PSoC6\pdl\drivers\peripheral\trigmux/cy_trigmux.c ****             if (CY_PERI_V1) /* mxperi_v1 */
 885              		.loc 1 338 0
 886 00a8 2C4B     		ldr	r3, .L47+4
 887 00aa 1B68     		ldr	r3, [r3]
 888 00ac 93F82F30 		ldrb	r3, [r3, #47]	@ zero_extendqisi2
 889 00b0 012B     		cmp	r3, #1
 890 00b2 10D1     		bne	.L42
 339:Generated_Source\PSoC6\pdl\drivers\peripheral\trigmux/cy_trigmux.c ****             {
 340:Generated_Source\PSoC6\pdl\drivers\peripheral\trigmux/cy_trigmux.c ****                 PERI_TR_CMD = trCmd | _VAL2FLD(PERI_TR_CMD_COUNT, cycles);
 891              		.loc 1 340 0
 892 00b4 294B     		ldr	r3, .L47+4
 893 00b6 1B68     		ldr	r3, [r3]
 894 00b8 9B68     		ldr	r3, [r3, #8]
 895 00ba 284A     		ldr	r2, .L47+4
 896 00bc 1268     		ldr	r2, [r2]
 897 00be B2F86820 		ldrh	r2, [r2, #104]
ARM GAS  C:\Users\tmj32\AppData\Local\Temp\ccNz9fkw.s 			page 23


 898 00c2 1344     		add	r3, r3, r2
 899 00c4 1946     		mov	r1, r3
 900 00c6 3B68     		ldr	r3, [r7]
 901 00c8 1B04     		lsls	r3, r3, #16
 902 00ca 03F47F02 		and	r2, r3, #16711680
 903 00ce BB68     		ldr	r3, [r7, #8]
 904 00d0 1343     		orrs	r3, r3, r2
 905 00d2 0B60     		str	r3, [r1]
 906 00d4 3AE0     		b	.L45
 907              	.L42:
 341:Generated_Source\PSoC6\pdl\drivers\peripheral\trigmux/cy_trigmux.c ****             }
 342:Generated_Source\PSoC6\pdl\drivers\peripheral\trigmux/cy_trigmux.c ****             else if (CY_TRIGGER_TWO_CYCLES == cycles) /* mxperi_v2 or later, 2 cycles pulse */
 908              		.loc 1 342 0
 909 00d6 3B68     		ldr	r3, [r7]
 910 00d8 022B     		cmp	r3, #2
 911 00da 0DD1     		bne	.L43
 343:Generated_Source\PSoC6\pdl\drivers\peripheral\trigmux/cy_trigmux.c ****             {
 344:Generated_Source\PSoC6\pdl\drivers\peripheral\trigmux/cy_trigmux.c ****                 PERI_TR_CMD = trCmd | PERI_V2_TR_CMD_TR_EDGE_Msk;
 912              		.loc 1 344 0
 913 00dc 1F4B     		ldr	r3, .L47+4
 914 00de 1B68     		ldr	r3, [r3]
 915 00e0 9B68     		ldr	r3, [r3, #8]
 916 00e2 1E4A     		ldr	r2, .L47+4
 917 00e4 1268     		ldr	r2, [r2]
 918 00e6 B2F86820 		ldrh	r2, [r2, #104]
 919 00ea 1344     		add	r3, r3, r2
 920 00ec 1A46     		mov	r2, r3
 921 00ee BB68     		ldr	r3, [r7, #8]
 922 00f0 43F00053 		orr	r3, r3, #536870912
 923 00f4 1360     		str	r3, [r2]
 924 00f6 29E0     		b	.L45
 925              	.L43:
 345:Generated_Source\PSoC6\pdl\drivers\peripheral\trigmux/cy_trigmux.c ****             }
 346:Generated_Source\PSoC6\pdl\drivers\peripheral\trigmux/cy_trigmux.c ****             else if (CY_TRIGGER_INFINITE == cycles) /* mxperi_v2 or later, infinite activating */
 926              		.loc 1 346 0
 927 00f8 3B68     		ldr	r3, [r7]
 928 00fa FF2B     		cmp	r3, #255
 929 00fc 0BD1     		bne	.L44
 347:Generated_Source\PSoC6\pdl\drivers\peripheral\trigmux/cy_trigmux.c ****             {
 348:Generated_Source\PSoC6\pdl\drivers\peripheral\trigmux/cy_trigmux.c ****                 PERI_TR_CMD = trCmd;
 930              		.loc 1 348 0
 931 00fe 174B     		ldr	r3, .L47+4
 932 0100 1B68     		ldr	r3, [r3]
 933 0102 9B68     		ldr	r3, [r3, #8]
 934 0104 154A     		ldr	r2, .L47+4
 935 0106 1268     		ldr	r2, [r2]
 936 0108 B2F86820 		ldrh	r2, [r2, #104]
 937 010c 1344     		add	r3, r3, r2
 938 010e 1A46     		mov	r2, r3
 939 0110 BB68     		ldr	r3, [r7, #8]
 940 0112 1360     		str	r3, [r2]
 941 0114 1AE0     		b	.L45
 942              	.L44:
 349:Generated_Source\PSoC6\pdl\drivers\peripheral\trigmux/cy_trigmux.c ****             }
 350:Generated_Source\PSoC6\pdl\drivers\peripheral\trigmux/cy_trigmux.c ****             else /* mxperi_v2 or later, invalid cycles value */
 351:Generated_Source\PSoC6\pdl\drivers\peripheral\trigmux/cy_trigmux.c ****             {
 352:Generated_Source\PSoC6\pdl\drivers\peripheral\trigmux/cy_trigmux.c ****                 retVal = CY_TRIGMUX_BAD_PARAM;
ARM GAS  C:\Users\tmj32\AppData\Local\Temp\ccNz9fkw.s 			page 24


 943              		.loc 1 352 0
 944 0116 134B     		ldr	r3, .L47+12
 945 0118 FB60     		str	r3, [r7, #12]
 946 011a 17E0     		b	.L45
 947              	.L40:
 948              	.LBE6:
 353:Generated_Source\PSoC6\pdl\drivers\peripheral\trigmux/cy_trigmux.c ****             }
 354:Generated_Source\PSoC6\pdl\drivers\peripheral\trigmux/cy_trigmux.c ****         }
 355:Generated_Source\PSoC6\pdl\drivers\peripheral\trigmux/cy_trigmux.c ****     }
 356:Generated_Source\PSoC6\pdl\drivers\peripheral\trigmux/cy_trigmux.c ****     else
 357:Generated_Source\PSoC6\pdl\drivers\peripheral\trigmux/cy_trigmux.c ****     {
 358:Generated_Source\PSoC6\pdl\drivers\peripheral\trigmux/cy_trigmux.c ****         /* Forcibly deactivate the trigger if it is in the active state. */
 359:Generated_Source\PSoC6\pdl\drivers\peripheral\trigmux/cy_trigmux.c ****         if (PERI_TR_CMD_ACTIVATE_Msk == (PERI_TR_CMD & PERI_TR_CMD_ACTIVATE_Msk))
 949              		.loc 1 359 0
 950 011c 0F4B     		ldr	r3, .L47+4
 951 011e 1B68     		ldr	r3, [r3]
 952 0120 9B68     		ldr	r3, [r3, #8]
 953 0122 0E4A     		ldr	r2, .L47+4
 954 0124 1268     		ldr	r2, [r2]
 955 0126 B2F86820 		ldrh	r2, [r2, #104]
 956 012a 1344     		add	r3, r3, r2
 957 012c 1B68     		ldr	r3, [r3]
 958 012e 002B     		cmp	r3, #0
 959 0130 0CDA     		bge	.L45
 360:Generated_Source\PSoC6\pdl\drivers\peripheral\trigmux/cy_trigmux.c ****         {
 361:Generated_Source\PSoC6\pdl\drivers\peripheral\trigmux/cy_trigmux.c ****             PERI_TR_CMD = 0UL;
 960              		.loc 1 361 0
 961 0132 0A4B     		ldr	r3, .L47+4
 962 0134 1B68     		ldr	r3, [r3]
 963 0136 9B68     		ldr	r3, [r3, #8]
 964 0138 084A     		ldr	r2, .L47+4
 965 013a 1268     		ldr	r2, [r2]
 966 013c B2F86820 		ldrh	r2, [r2, #104]
 967 0140 1344     		add	r3, r3, r2
 968 0142 1A46     		mov	r2, r3
 969 0144 0023     		movs	r3, #0
 970 0146 1360     		str	r3, [r2]
 362:Generated_Source\PSoC6\pdl\drivers\peripheral\trigmux/cy_trigmux.c **** 
 363:Generated_Source\PSoC6\pdl\drivers\peripheral\trigmux/cy_trigmux.c ****             retVal = CY_TRIGMUX_SUCCESS;
 971              		.loc 1 363 0
 972 0148 0023     		movs	r3, #0
 973 014a FB60     		str	r3, [r7, #12]
 974              	.L45:
 364:Generated_Source\PSoC6\pdl\drivers\peripheral\trigmux/cy_trigmux.c ****         }
 365:Generated_Source\PSoC6\pdl\drivers\peripheral\trigmux/cy_trigmux.c ****     }
 366:Generated_Source\PSoC6\pdl\drivers\peripheral\trigmux/cy_trigmux.c **** 
 367:Generated_Source\PSoC6\pdl\drivers\peripheral\trigmux/cy_trigmux.c ****     return retVal;
 975              		.loc 1 367 0
 976 014c FB68     		ldr	r3, [r7, #12]
 368:Generated_Source\PSoC6\pdl\drivers\peripheral\trigmux/cy_trigmux.c **** }
 977              		.loc 1 368 0
 978 014e 1846     		mov	r0, r3
 979 0150 1037     		adds	r7, r7, #16
 980              		.cfi_def_cfa_offset 8
 981 0152 BD46     		mov	sp, r7
 982              		.cfi_def_cfa_register 13
 983              		@ sp needed
ARM GAS  C:\Users\tmj32\AppData\Local\Temp\ccNz9fkw.s 			page 25


 984 0154 80BD     		pop	{r7, pc}
 985              	.L48:
 986 0156 00BF     		.align	2
 987              	.L47:
 988 0158 0200CE00 		.word	13500418
 989 015c 00000000 		.word	cy_device
 990 0160 00000000 		.word	.LC0
 991 0164 0100CE00 		.word	13500417
 992              		.cfi_endproc
 993              	.LFE136:
 994              		.size	Cy_TrigMux_SwTrigger, .-Cy_TrigMux_SwTrigger
 995              		.text
 996              	.Letext0:
 997              		.file 2 "c:\\program files (x86)\\cypress\\psoc creator\\4.3\\psoc creator\\import\\gnu\\arm\\5.4.
 998              		.file 3 "c:\\program files (x86)\\cypress\\psoc creator\\4.3\\psoc creator\\import\\gnu\\arm\\5.4.
 999              		.file 4 "Generated_Source\\PSoC6\\pdl\\drivers/peripheral/device/cy_device.h"
 1000              		.file 5 "Generated_Source\\PSoC6\\pdl\\devices/psoc6/include/psoc6_01_config.h"
 1001              		.file 6 "Generated_Source\\PSoC6\\pdl\\drivers/peripheral/syslib/cy_syslib.h"
 1002              		.file 7 "Generated_Source\\PSoC6\\pdl\\drivers\\peripheral\\trigmux\\cy_trigmux.h"
 1003              		.file 8 "Generated_Source\\PSoC6\\pdl\\cmsis/include/core_cm4.h"