ARM GAS  C:\Users\chris\AppData\Local\Temp\ccS6AR6W.s 			page 1


   1              		.syntax unified
   2              		.cpu cortex-m4
   3              		.eabi_attribute 27, 1
   4              		.fpu fpv4-sp-d16
   5              		.eabi_attribute 20, 1
   6              		.eabi_attribute 21, 1
   7              		.eabi_attribute 23, 3
   8              		.eabi_attribute 24, 1
   9              		.eabi_attribute 25, 1
  10              		.eabi_attribute 26, 1
  11              		.eabi_attribute 30, 6
  12              		.eabi_attribute 34, 1
  13              		.eabi_attribute 18, 4
  14              		.thumb
  15              		.syntax unified
  16              		.file	"display_glue.c"
  17              		.text
  18              	.Ltext0:
  19              		.cfi_sections	.debug_frame
  20              		.comm	cm4,16,4
  21              		.section	.text.ili9488_init,"ax",%progbits
  22              		.align	2
  23              		.global	ili9488_init
  24              		.thumb
  25              		.thumb_func
  26              		.type	ili9488_init, %function
  27              	ili9488_init:
  28              	.LFB717:
  29              		.file 1 "display_glue.c"
   1:display_glue.c **** #include <stdio.h>
   2:display_glue.c **** #include "project.h"
   3:display_glue.c **** #include "lvgl.h"
   4:display_glue.c **** #include "my_macros.h"
   5:display_glue.c **** #include "display_glue.h"
   6:display_glue.c **** 
   7:display_glue.c **** // Call `lv_tick_inc(x)` every `x` milliseconds **in a Timer or Task** (`x` should be between 1 and
   8:display_glue.c **** // Call `lv_task_handler()` periodically every few milliseconds in the main `while(1)` loop, in Tim
   9:display_glue.c **** 
  10:display_glue.c **** #define DLY (0)
  11:display_glue.c **** #define DSPL_READ_MADCTL    (0x0B)
  12:display_glue.c **** #define DSPL_SLEEP_OUT      (0x11)
  13:display_glue.c **** #define DSPL_DISPLAY_ON     (0x29)
  14:display_glue.c **** #define DSPL_COL_ADDR_SET   (0x2A)
  15:display_glue.c **** #define DSPL_PAG_ADDR_SET   (0x2B)
  16:display_glue.c **** #define DSPL_MEM_WR         (0x2C)
  17:display_glue.c **** #define DSPL_MEM_RD         (0x2E)
  18:display_glue.c **** #define DSPL_MEM_ACC_CTL    (0x36)
  19:display_glue.c **** 
  20:display_glue.c **** void
  21:display_glue.c **** ili9488_init()
  22:display_glue.c **** {
  30              		.loc 1 22 0
  31              		.cfi_startproc
  32              		@ args = 0, pretend = 0, frame = 8
  33              		@ frame_needed = 1, uses_anonymous_args = 0
  34 0000 80B5     		push	{r7, lr}
  35              		.cfi_def_cfa_offset 8
ARM GAS  C:\Users\chris\AppData\Local\Temp\ccS6AR6W.s 			page 2


  36              		.cfi_offset 7, -8
  37              		.cfi_offset 14, -4
  38 0002 82B0     		sub	sp, sp, #8
  39              		.cfi_def_cfa_offset 16
  40 0004 00AF     		add	r7, sp, #0
  41              		.cfi_def_cfa_register 7
  23:display_glue.c ****     int     D_CX;
  24:display_glue.c ****     LCD_INTERFACE_Start();
  42              		.loc 1 24 0
  43 0006 FFF7FEFF 		bl	LCD_INTERFACE_Start
  25:display_glue.c ****     CyDelay(10);
  44              		.loc 1 25 0
  45 000a 0A20     		movs	r0, #10
  46 000c FFF7FEFF 		bl	Cy_SysLib_Delay
  26:display_glue.c ****     
  27:display_glue.c ****     D_CX = 0;   LCD_INTERFACE_Write8(D_CX, DSPL_SLEEP_OUT);
  47              		.loc 1 27 0
  48 0010 0023     		movs	r3, #0
  49 0012 7B60     		str	r3, [r7, #4]
  50 0014 7B68     		ldr	r3, [r7, #4]
  51 0016 DBB2     		uxtb	r3, r3
  52 0018 1121     		movs	r1, #17
  53 001a 1846     		mov	r0, r3
  54 001c FFF7FEFF 		bl	LCD_INTERFACE_Write8
  28:display_glue.c ****     CyDelay(10);
  55              		.loc 1 28 0
  56 0020 0A20     		movs	r0, #10
  57 0022 FFF7FEFF 		bl	Cy_SysLib_Delay
  29:display_glue.c ****     
  30:display_glue.c ****     D_CX = 0;   LCD_INTERFACE_Write8(D_CX, DSPL_DISPLAY_ON);
  58              		.loc 1 30 0
  59 0026 0023     		movs	r3, #0
  60 0028 7B60     		str	r3, [r7, #4]
  61 002a 7B68     		ldr	r3, [r7, #4]
  62 002c DBB2     		uxtb	r3, r3
  63 002e 2921     		movs	r1, #41
  64 0030 1846     		mov	r0, r3
  65 0032 FFF7FEFF 		bl	LCD_INTERFACE_Write8
  31:display_glue.c ****     CyDelay(10);
  66              		.loc 1 31 0
  67 0036 0A20     		movs	r0, #10
  68 0038 FFF7FEFF 		bl	Cy_SysLib_Delay
  32:display_glue.c ****     
  33:display_glue.c ****     D_CX = 0;   LCD_INTERFACE_Write8(D_CX, DSPL_MEM_ACC_CTL);
  69              		.loc 1 33 0
  70 003c 0023     		movs	r3, #0
  71 003e 7B60     		str	r3, [r7, #4]
  72 0040 7B68     		ldr	r3, [r7, #4]
  73 0042 DBB2     		uxtb	r3, r3
  74 0044 3621     		movs	r1, #54
  75 0046 1846     		mov	r0, r3
  76 0048 FFF7FEFF 		bl	LCD_INTERFACE_Write8
  34:display_glue.c ****     D_CX = 1;   LCD_INTERFACE_Write8(D_CX, 0x44);               // set MX & MH bits to '1' to mirro
  77              		.loc 1 34 0
  78 004c 0123     		movs	r3, #1
  79 004e 7B60     		str	r3, [r7, #4]
  80 0050 7B68     		ldr	r3, [r7, #4]
ARM GAS  C:\Users\chris\AppData\Local\Temp\ccS6AR6W.s 			page 3


  81 0052 DBB2     		uxtb	r3, r3
  82 0054 4421     		movs	r1, #68
  83 0056 1846     		mov	r0, r3
  84 0058 FFF7FEFF 		bl	LCD_INTERFACE_Write8
  35:display_glue.c **** }
  85              		.loc 1 35 0
  86 005c 00BF     		nop
  87 005e 0837     		adds	r7, r7, #8
  88              		.cfi_def_cfa_offset 8
  89 0060 BD46     		mov	sp, r7
  90              		.cfi_def_cfa_register 13
  91              		@ sp needed
  92 0062 80BD     		pop	{r7, pc}
  93              		.cfi_endproc
  94              	.LFE717:
  95              		.size	ili9488_init, .-ili9488_init
  96              		.bss
  97              		.align	2
  98              	linebuf:
  99 0000 00000000 		.space	960
  99      00000000 
  99      00000000 
  99      00000000 
  99      00000000 
 100              		.section	.text.ili9488_map,"ax",%progbits
 101              		.align	2
 102              		.global	ili9488_map
 103              		.thumb
 104              		.thumb_func
 105              		.type	ili9488_map, %function
 106              	ili9488_map:
 107              	.LFB718:
  36:display_glue.c **** 
  37:display_glue.c **** static uint8_t linebuf[LV_HOR_RES_MAX*3];
  38:display_glue.c **** 
  39:display_glue.c **** //I swapped the x's and y's in the below
  40:display_glue.c **** //original:   ili9488_map(int32_t x1, int32_t y1, int32_t x2, int32_t y2, const lv_color_t *color_p
  41:display_glue.c **** //Pearlstein: ili9488_map(int32_t y2, int32_t x1, int32_t y1, int32_t x2, const lv_color_t *color_p
  42:display_glue.c **** 
  43:display_glue.c **** void
  44:display_glue.c **** ili9488_map(int32_t x1, int32_t y1, int32_t x2, int32_t y2, const lv_color_t *color_p)
  45:display_glue.c **** {
 108              		.loc 1 45 0
 109              		.cfi_startproc
 110              		@ args = 4, pretend = 0, frame = 40
 111              		@ frame_needed = 1, uses_anonymous_args = 0
 112 0000 80B5     		push	{r7, lr}
 113              		.cfi_def_cfa_offset 8
 114              		.cfi_offset 7, -8
 115              		.cfi_offset 14, -4
 116 0002 8AB0     		sub	sp, sp, #40
 117              		.cfi_def_cfa_offset 48
 118 0004 00AF     		add	r7, sp, #0
 119              		.cfi_def_cfa_register 7
 120 0006 F860     		str	r0, [r7, #12]
 121 0008 B960     		str	r1, [r7, #8]
 122 000a 7A60     		str	r2, [r7, #4]
ARM GAS  C:\Users\chris\AppData\Local\Temp\ccS6AR6W.s 			page 4


 123 000c 3B60     		str	r3, [r7]
  46:display_glue.c ****     int     D_CX;
  47:display_glue.c ****     int     y;
  48:display_glue.c ****     int     x;
  49:display_glue.c ****     
  50:display_glue.c ****     uint8_t *lbuf;
  51:display_glue.c ****     
  52:display_glue.c ****     D_CX = 0;   LCD_INTERFACE_Write8(D_CX, DSPL_COL_ADDR_SET);
 124              		.loc 1 52 0
 125 000e 0023     		movs	r3, #0
 126 0010 BB61     		str	r3, [r7, #24]
 127 0012 BB69     		ldr	r3, [r7, #24]
 128 0014 DBB2     		uxtb	r3, r3
 129 0016 2A21     		movs	r1, #42
 130 0018 1846     		mov	r0, r3
 131 001a FFF7FEFF 		bl	LCD_INTERFACE_Write8
  53:display_glue.c ****     D_CX = 1;   LCD_INTERFACE_Write8(D_CX, BYTE_HI(x1));
 132              		.loc 1 53 0
 133 001e 0123     		movs	r3, #1
 134 0020 BB61     		str	r3, [r7, #24]
 135 0022 BB69     		ldr	r3, [r7, #24]
 136 0024 DAB2     		uxtb	r2, r3
 137 0026 FB68     		ldr	r3, [r7, #12]
 138 0028 1B12     		asrs	r3, r3, #8
 139 002a DBB2     		uxtb	r3, r3
 140 002c 1946     		mov	r1, r3
 141 002e 1046     		mov	r0, r2
 142 0030 FFF7FEFF 		bl	LCD_INTERFACE_Write8
  54:display_glue.c ****                 LCD_INTERFACE_Write8(D_CX, BYTE_LO(x1));
 143              		.loc 1 54 0
 144 0034 BB69     		ldr	r3, [r7, #24]
 145 0036 DBB2     		uxtb	r3, r3
 146 0038 FA68     		ldr	r2, [r7, #12]
 147 003a D2B2     		uxtb	r2, r2
 148 003c 1146     		mov	r1, r2
 149 003e 1846     		mov	r0, r3
 150 0040 FFF7FEFF 		bl	LCD_INTERFACE_Write8
  55:display_glue.c ****                 LCD_INTERFACE_Write8(D_CX, BYTE_HI(x2));
 151              		.loc 1 55 0
 152 0044 BB69     		ldr	r3, [r7, #24]
 153 0046 DAB2     		uxtb	r2, r3
 154 0048 7B68     		ldr	r3, [r7, #4]
 155 004a 1B12     		asrs	r3, r3, #8
 156 004c DBB2     		uxtb	r3, r3
 157 004e 1946     		mov	r1, r3
 158 0050 1046     		mov	r0, r2
 159 0052 FFF7FEFF 		bl	LCD_INTERFACE_Write8
  56:display_glue.c ****                 LCD_INTERFACE_Write8(D_CX, BYTE_LO(x2));
 160              		.loc 1 56 0
 161 0056 BB69     		ldr	r3, [r7, #24]
 162 0058 DBB2     		uxtb	r3, r3
 163 005a 7A68     		ldr	r2, [r7, #4]
 164 005c D2B2     		uxtb	r2, r2
 165 005e 1146     		mov	r1, r2
 166 0060 1846     		mov	r0, r3
 167 0062 FFF7FEFF 		bl	LCD_INTERFACE_Write8
  57:display_glue.c **** 
ARM GAS  C:\Users\chris\AppData\Local\Temp\ccS6AR6W.s 			page 5


  58:display_glue.c ****     D_CX = 0;   LCD_INTERFACE_Write8(D_CX, DSPL_PAG_ADDR_SET);
 168              		.loc 1 58 0
 169 0066 0023     		movs	r3, #0
 170 0068 BB61     		str	r3, [r7, #24]
 171 006a BB69     		ldr	r3, [r7, #24]
 172 006c DBB2     		uxtb	r3, r3
 173 006e 2B21     		movs	r1, #43
 174 0070 1846     		mov	r0, r3
 175 0072 FFF7FEFF 		bl	LCD_INTERFACE_Write8
  59:display_glue.c ****     D_CX = 1;   LCD_INTERFACE_Write8(D_CX, BYTE_HI(y1));
 176              		.loc 1 59 0
 177 0076 0123     		movs	r3, #1
 178 0078 BB61     		str	r3, [r7, #24]
 179 007a BB69     		ldr	r3, [r7, #24]
 180 007c DAB2     		uxtb	r2, r3
 181 007e BB68     		ldr	r3, [r7, #8]
 182 0080 1B12     		asrs	r3, r3, #8
 183 0082 DBB2     		uxtb	r3, r3
 184 0084 1946     		mov	r1, r3
 185 0086 1046     		mov	r0, r2
 186 0088 FFF7FEFF 		bl	LCD_INTERFACE_Write8
  60:display_glue.c ****                 LCD_INTERFACE_Write8(D_CX, BYTE_LO(y1));
 187              		.loc 1 60 0
 188 008c BB69     		ldr	r3, [r7, #24]
 189 008e DBB2     		uxtb	r3, r3
 190 0090 BA68     		ldr	r2, [r7, #8]
 191 0092 D2B2     		uxtb	r2, r2
 192 0094 1146     		mov	r1, r2
 193 0096 1846     		mov	r0, r3
 194 0098 FFF7FEFF 		bl	LCD_INTERFACE_Write8
  61:display_glue.c ****                 LCD_INTERFACE_Write8(D_CX, BYTE_HI(y2));
 195              		.loc 1 61 0
 196 009c BB69     		ldr	r3, [r7, #24]
 197 009e DAB2     		uxtb	r2, r3
 198 00a0 3B68     		ldr	r3, [r7]
 199 00a2 1B12     		asrs	r3, r3, #8
 200 00a4 DBB2     		uxtb	r3, r3
 201 00a6 1946     		mov	r1, r3
 202 00a8 1046     		mov	r0, r2
 203 00aa FFF7FEFF 		bl	LCD_INTERFACE_Write8
  62:display_glue.c ****                 LCD_INTERFACE_Write8(D_CX, BYTE_LO(y2));
 204              		.loc 1 62 0
 205 00ae BB69     		ldr	r3, [r7, #24]
 206 00b0 DBB2     		uxtb	r3, r3
 207 00b2 3A68     		ldr	r2, [r7]
 208 00b4 D2B2     		uxtb	r2, r2
 209 00b6 1146     		mov	r1, r2
 210 00b8 1846     		mov	r0, r3
 211 00ba FFF7FEFF 		bl	LCD_INTERFACE_Write8
  63:display_glue.c **** 
  64:display_glue.c ****     D_CX = 0;   LCD_INTERFACE_Write8(D_CX, DSPL_MEM_WR);
 212              		.loc 1 64 0
 213 00be 0023     		movs	r3, #0
 214 00c0 BB61     		str	r3, [r7, #24]
 215 00c2 BB69     		ldr	r3, [r7, #24]
 216 00c4 DBB2     		uxtb	r3, r3
 217 00c6 2C21     		movs	r1, #44
ARM GAS  C:\Users\chris\AppData\Local\Temp\ccS6AR6W.s 			page 6


 218 00c8 1846     		mov	r0, r3
 219 00ca FFF7FEFF 		bl	LCD_INTERFACE_Write8
  65:display_glue.c ****     D_CX = 1;
 220              		.loc 1 65 0
 221 00ce 0123     		movs	r3, #1
 222 00d0 BB61     		str	r3, [r7, #24]
  66:display_glue.c **** 
  67:display_glue.c ****     for(y = y1; y <= y2; y++) 
 223              		.loc 1 67 0
 224 00d2 BB68     		ldr	r3, [r7, #8]
 225 00d4 7B62     		str	r3, [r7, #36]
 226 00d6 33E0     		b	.L3
 227              	.L6:
  68:display_glue.c ****     {
  69:display_glue.c ****         lbuf = linebuf;
 228              		.loc 1 69 0
 229 00d8 1D4B     		ldr	r3, .L7
 230 00da FB61     		str	r3, [r7, #28]
  70:display_glue.c ****         
  71:display_glue.c ****         for(x = x1; x <= x2; x++) 
 231              		.loc 1 71 0
 232 00dc FB68     		ldr	r3, [r7, #12]
 233 00de 3B62     		str	r3, [r7, #32]
 234 00e0 1CE0     		b	.L4
 235              	.L5:
 236              	.LBB2:
  72:display_glue.c ****         {
  73:display_glue.c **** //            uint8_t r;
  74:display_glue.c **** //            uint8_t g;
  75:display_glue.c **** //            uint8_t b;
  76:display_glue.c ****             
  77:display_glue.c ****             uint32_t val;
  78:display_glue.c ****             
  79:display_glue.c ****             val = (*color_p).full;
 237              		.loc 1 79 0 discriminator 3
 238 00e2 3B6B     		ldr	r3, [r7, #48]
 239 00e4 1B68     		ldr	r3, [r3]
 240 00e6 7B61     		str	r3, [r7, #20]
  80:display_glue.c ****             
  81:display_glue.c ****             *lbuf++ = (val >>  0) & 0xFF;
 241              		.loc 1 81 0 discriminator 3
 242 00e8 FB69     		ldr	r3, [r7, #28]
 243 00ea 5A1C     		adds	r2, r3, #1
 244 00ec FA61     		str	r2, [r7, #28]
 245 00ee 7A69     		ldr	r2, [r7, #20]
 246 00f0 D2B2     		uxtb	r2, r2
 247 00f2 1A70     		strb	r2, [r3]
  82:display_glue.c ****             *lbuf++ = (val >>  8) & 0xFF;
 248              		.loc 1 82 0 discriminator 3
 249 00f4 FB69     		ldr	r3, [r7, #28]
 250 00f6 5A1C     		adds	r2, r3, #1
 251 00f8 FA61     		str	r2, [r7, #28]
 252 00fa 7A69     		ldr	r2, [r7, #20]
 253 00fc 120A     		lsrs	r2, r2, #8
 254 00fe D2B2     		uxtb	r2, r2
 255 0100 1A70     		strb	r2, [r3]
  83:display_glue.c ****             *lbuf++ = (val >> 16) & 0xFF;
ARM GAS  C:\Users\chris\AppData\Local\Temp\ccS6AR6W.s 			page 7


 256              		.loc 1 83 0 discriminator 3
 257 0102 FB69     		ldr	r3, [r7, #28]
 258 0104 5A1C     		adds	r2, r3, #1
 259 0106 FA61     		str	r2, [r7, #28]
 260 0108 7A69     		ldr	r2, [r7, #20]
 261 010a 120C     		lsrs	r2, r2, #16
 262 010c D2B2     		uxtb	r2, r2
 263 010e 1A70     		strb	r2, [r3]
  84:display_glue.c **** 
  85:display_glue.c ****             //r = (val >> 16) & 0xFF;
  86:display_glue.c ****             //g = (val >>  8) & 0xFF;
  87:display_glue.c ****             //b = (val >>  0) & 0xFF;
  88:display_glue.c ****             
  89:display_glue.c ****             //LCD_INTERFACE_Write8(D_CX, b);
  90:display_glue.c ****             //LCD_INTERFACE_Write8(D_CX, g);
  91:display_glue.c ****             //LCD_INTERFACE_Write8(D_CX, r);
  92:display_glue.c ****             
  93:display_glue.c ****             color_p++;
 264              		.loc 1 93 0 discriminator 3
 265 0110 3B6B     		ldr	r3, [r7, #48]
 266 0112 0433     		adds	r3, r3, #4
 267 0114 3B63     		str	r3, [r7, #48]
 268              	.LBE2:
  71:display_glue.c ****         {
 269              		.loc 1 71 0 discriminator 3
 270 0116 3B6A     		ldr	r3, [r7, #32]
 271 0118 0133     		adds	r3, r3, #1
 272 011a 3B62     		str	r3, [r7, #32]
 273              	.L4:
  71:display_glue.c ****         {
 274              		.loc 1 71 0 is_stmt 0 discriminator 1
 275 011c 3A6A     		ldr	r2, [r7, #32]
 276 011e 7B68     		ldr	r3, [r7, #4]
 277 0120 9A42     		cmp	r2, r3
 278 0122 DEDD     		ble	.L5
  94:display_glue.c ****         }
  95:display_glue.c ****         LCD_INTERFACE_WriteM8_A1(linebuf, (x2-x1+1)*3);
 279              		.loc 1 95 0 is_stmt 1 discriminator 2
 280 0124 7A68     		ldr	r2, [r7, #4]
 281 0126 FB68     		ldr	r3, [r7, #12]
 282 0128 D31A     		subs	r3, r2, r3
 283 012a 5A1C     		adds	r2, r3, #1
 284 012c 1346     		mov	r3, r2
 285 012e 5B00     		lsls	r3, r3, #1
 286 0130 1344     		add	r3, r3, r2
 287 0132 1946     		mov	r1, r3
 288 0134 0648     		ldr	r0, .L7
 289 0136 FFF7FEFF 		bl	LCD_INTERFACE_WriteM8_A1
  67:display_glue.c ****     {
 290              		.loc 1 67 0 discriminator 2
 291 013a 7B6A     		ldr	r3, [r7, #36]
 292 013c 0133     		adds	r3, r3, #1
 293 013e 7B62     		str	r3, [r7, #36]
 294              	.L3:
  67:display_glue.c ****     {
 295              		.loc 1 67 0 is_stmt 0 discriminator 1
 296 0140 7A6A     		ldr	r2, [r7, #36]
ARM GAS  C:\Users\chris\AppData\Local\Temp\ccS6AR6W.s 			page 8


 297 0142 3B68     		ldr	r3, [r7]
 298 0144 9A42     		cmp	r2, r3
 299 0146 C7DD     		ble	.L6
  96:display_glue.c ****     }    
  97:display_glue.c **** }
 300              		.loc 1 97 0 is_stmt 1
 301 0148 00BF     		nop
 302 014a 2837     		adds	r7, r7, #40
 303              		.cfi_def_cfa_offset 8
 304 014c BD46     		mov	sp, r7
 305              		.cfi_def_cfa_register 13
 306              		@ sp needed
 307 014e 80BD     		pop	{r7, pc}
 308              	.L8:
 309              		.align	2
 310              	.L7:
 311 0150 00000000 		.word	linebuf
 312              		.cfi_endproc
 313              	.LFE718:
 314              		.size	ili9488_map, .-ili9488_map
 315              		.section	.text.ili9488_zoom,"ax",%progbits
 316              		.align	2
 317              		.global	ili9488_zoom
 318              		.thumb
 319              		.thumb_func
 320              		.type	ili9488_zoom, %function
 321              	ili9488_zoom:
 322              	.LFB719:
  98:display_glue.c **** 
  99:display_glue.c **** 
 100:display_glue.c **** void
 101:display_glue.c **** ili9488_zoom(int32_t x1, int32_t y1, int32_t wid, int32_t hgt, const lv_color_t *color_p)
 102:display_glue.c **** {
 323              		.loc 1 102 0
 324              		.cfi_startproc
 325              		@ args = 4, pretend = 0, frame = 48
 326              		@ frame_needed = 1, uses_anonymous_args = 0
 327 0000 80B5     		push	{r7, lr}
 328              		.cfi_def_cfa_offset 8
 329              		.cfi_offset 7, -8
 330              		.cfi_offset 14, -4
 331 0002 8CB0     		sub	sp, sp, #48
 332              		.cfi_def_cfa_offset 56
 333 0004 00AF     		add	r7, sp, #0
 334              		.cfi_def_cfa_register 7
 335 0006 F860     		str	r0, [r7, #12]
 336 0008 B960     		str	r1, [r7, #8]
 337 000a 7A60     		str	r2, [r7, #4]
 338 000c 3B60     		str	r3, [r7]
 103:display_glue.c ****     int     D_CX;
 104:display_glue.c ****     int     x2;
 105:display_glue.c ****     int     y2;
 106:display_glue.c ****     int     y;
 107:display_glue.c ****     int     x;
 108:display_glue.c ****     
 109:display_glue.c ****     x2 = x1 + wid - 1;
 339              		.loc 1 109 0
ARM GAS  C:\Users\chris\AppData\Local\Temp\ccS6AR6W.s 			page 9


 340 000e FA68     		ldr	r2, [r7, #12]
 341 0010 7B68     		ldr	r3, [r7, #4]
 342 0012 1344     		add	r3, r3, r2
 343 0014 013B     		subs	r3, r3, #1
 344 0016 3B62     		str	r3, [r7, #32]
 110:display_glue.c ****     y2 = y1 + hgt - 1;
 345              		.loc 1 110 0
 346 0018 BA68     		ldr	r2, [r7, #8]
 347 001a 3B68     		ldr	r3, [r7]
 348 001c 1344     		add	r3, r3, r2
 349 001e 013B     		subs	r3, r3, #1
 350 0020 FB61     		str	r3, [r7, #28]
 111:display_glue.c ****     
 112:display_glue.c ****     D_CX = 0;   LCD_INTERFACE_Write8(D_CX, DSPL_COL_ADDR_SET);
 351              		.loc 1 112 0
 352 0022 0023     		movs	r3, #0
 353 0024 BB61     		str	r3, [r7, #24]
 354 0026 BB69     		ldr	r3, [r7, #24]
 355 0028 DBB2     		uxtb	r3, r3
 356 002a 2A21     		movs	r1, #42
 357 002c 1846     		mov	r0, r3
 358 002e FFF7FEFF 		bl	LCD_INTERFACE_Write8
 113:display_glue.c ****     D_CX = 1;   LCD_INTERFACE_Write8(D_CX, BYTE_HI(x1));
 359              		.loc 1 113 0
 360 0032 0123     		movs	r3, #1
 361 0034 BB61     		str	r3, [r7, #24]
 362 0036 BB69     		ldr	r3, [r7, #24]
 363 0038 DAB2     		uxtb	r2, r3
 364 003a FB68     		ldr	r3, [r7, #12]
 365 003c 1B12     		asrs	r3, r3, #8
 366 003e DBB2     		uxtb	r3, r3
 367 0040 1946     		mov	r1, r3
 368 0042 1046     		mov	r0, r2
 369 0044 FFF7FEFF 		bl	LCD_INTERFACE_Write8
 114:display_glue.c ****                 LCD_INTERFACE_Write8(D_CX, BYTE_LO(x1));
 370              		.loc 1 114 0
 371 0048 BB69     		ldr	r3, [r7, #24]
 372 004a DBB2     		uxtb	r3, r3
 373 004c FA68     		ldr	r2, [r7, #12]
 374 004e D2B2     		uxtb	r2, r2
 375 0050 1146     		mov	r1, r2
 376 0052 1846     		mov	r0, r3
 377 0054 FFF7FEFF 		bl	LCD_INTERFACE_Write8
 115:display_glue.c ****                 LCD_INTERFACE_Write8(D_CX, BYTE_HI(x2));
 378              		.loc 1 115 0
 379 0058 BB69     		ldr	r3, [r7, #24]
 380 005a DAB2     		uxtb	r2, r3
 381 005c 3B6A     		ldr	r3, [r7, #32]
 382 005e 1B12     		asrs	r3, r3, #8
 383 0060 DBB2     		uxtb	r3, r3
 384 0062 1946     		mov	r1, r3
 385 0064 1046     		mov	r0, r2
 386 0066 FFF7FEFF 		bl	LCD_INTERFACE_Write8
 116:display_glue.c ****                 LCD_INTERFACE_Write8(D_CX, BYTE_LO(x2));
 387              		.loc 1 116 0
 388 006a BB69     		ldr	r3, [r7, #24]
 389 006c DBB2     		uxtb	r3, r3
ARM GAS  C:\Users\chris\AppData\Local\Temp\ccS6AR6W.s 			page 10


 390 006e 3A6A     		ldr	r2, [r7, #32]
 391 0070 D2B2     		uxtb	r2, r2
 392 0072 1146     		mov	r1, r2
 393 0074 1846     		mov	r0, r3
 394 0076 FFF7FEFF 		bl	LCD_INTERFACE_Write8
 117:display_glue.c **** 
 118:display_glue.c ****     D_CX = 0;   LCD_INTERFACE_Write8(D_CX, DSPL_PAG_ADDR_SET);
 395              		.loc 1 118 0
 396 007a 0023     		movs	r3, #0
 397 007c BB61     		str	r3, [r7, #24]
 398 007e BB69     		ldr	r3, [r7, #24]
 399 0080 DBB2     		uxtb	r3, r3
 400 0082 2B21     		movs	r1, #43
 401 0084 1846     		mov	r0, r3
 402 0086 FFF7FEFF 		bl	LCD_INTERFACE_Write8
 119:display_glue.c ****     D_CX = 1;   LCD_INTERFACE_Write8(D_CX, BYTE_HI(y1));
 403              		.loc 1 119 0
 404 008a 0123     		movs	r3, #1
 405 008c BB61     		str	r3, [r7, #24]
 406 008e BB69     		ldr	r3, [r7, #24]
 407 0090 DAB2     		uxtb	r2, r3
 408 0092 BB68     		ldr	r3, [r7, #8]
 409 0094 1B12     		asrs	r3, r3, #8
 410 0096 DBB2     		uxtb	r3, r3
 411 0098 1946     		mov	r1, r3
 412 009a 1046     		mov	r0, r2
 413 009c FFF7FEFF 		bl	LCD_INTERFACE_Write8
 120:display_glue.c ****                 LCD_INTERFACE_Write8(D_CX, BYTE_LO(y1));
 414              		.loc 1 120 0
 415 00a0 BB69     		ldr	r3, [r7, #24]
 416 00a2 DBB2     		uxtb	r3, r3
 417 00a4 BA68     		ldr	r2, [r7, #8]
 418 00a6 D2B2     		uxtb	r2, r2
 419 00a8 1146     		mov	r1, r2
 420 00aa 1846     		mov	r0, r3
 421 00ac FFF7FEFF 		bl	LCD_INTERFACE_Write8
 121:display_glue.c ****                 LCD_INTERFACE_Write8(D_CX, BYTE_HI(y2));
 422              		.loc 1 121 0
 423 00b0 BB69     		ldr	r3, [r7, #24]
 424 00b2 DAB2     		uxtb	r2, r3
 425 00b4 FB69     		ldr	r3, [r7, #28]
 426 00b6 1B12     		asrs	r3, r3, #8
 427 00b8 DBB2     		uxtb	r3, r3
 428 00ba 1946     		mov	r1, r3
 429 00bc 1046     		mov	r0, r2
 430 00be FFF7FEFF 		bl	LCD_INTERFACE_Write8
 122:display_glue.c ****                 LCD_INTERFACE_Write8(D_CX, BYTE_LO(y2));
 431              		.loc 1 122 0
 432 00c2 BB69     		ldr	r3, [r7, #24]
 433 00c4 DBB2     		uxtb	r3, r3
 434 00c6 FA69     		ldr	r2, [r7, #28]
 435 00c8 D2B2     		uxtb	r2, r2
 436 00ca 1146     		mov	r1, r2
 437 00cc 1846     		mov	r0, r3
 438 00ce FFF7FEFF 		bl	LCD_INTERFACE_Write8
 123:display_glue.c **** 
 124:display_glue.c ****     D_CX = 0;   LCD_INTERFACE_Write8(D_CX, DSPL_MEM_WR);
ARM GAS  C:\Users\chris\AppData\Local\Temp\ccS6AR6W.s 			page 11


 439              		.loc 1 124 0
 440 00d2 0023     		movs	r3, #0
 441 00d4 BB61     		str	r3, [r7, #24]
 442 00d6 BB69     		ldr	r3, [r7, #24]
 443 00d8 DBB2     		uxtb	r3, r3
 444 00da 2C21     		movs	r1, #44
 445 00dc 1846     		mov	r0, r3
 446 00de FFF7FEFF 		bl	LCD_INTERFACE_Write8
 125:display_glue.c ****     D_CX = 1;
 447              		.loc 1 125 0
 448 00e2 0123     		movs	r3, #1
 449 00e4 BB61     		str	r3, [r7, #24]
 126:display_glue.c **** 
 127:display_glue.c ****     for(y = y1; y < y2+1; y+=2) 
 450              		.loc 1 127 0
 451 00e6 BB68     		ldr	r3, [r7, #8]
 452 00e8 FB62     		str	r3, [r7, #44]
 453 00ea 5AE0     		b	.L10
 454              	.L15:
 455              	.LBB3:
 128:display_glue.c ****     {
 129:display_glue.c ****         for (int zoom_idx = 0; zoom_idx < 2; ++zoom_idx)
 456              		.loc 1 129 0
 457 00ec 0023     		movs	r3, #0
 458 00ee 7B62     		str	r3, [r7, #36]
 459 00f0 48E0     		b	.L11
 460              	.L14:
 130:display_glue.c ****         {
 131:display_glue.c ****             for(x = x1; x < x2+1; x+=2) 
 461              		.loc 1 131 0
 462 00f2 FB68     		ldr	r3, [r7, #12]
 463 00f4 BB62     		str	r3, [r7, #40]
 464 00f6 3DE0     		b	.L12
 465              	.L13:
 466              	.LBB4:
 132:display_glue.c ****             {
 133:display_glue.c ****                 uint8_t r;
 134:display_glue.c ****                 uint8_t g;
 135:display_glue.c ****                 uint8_t b;
 136:display_glue.c ****                 
 137:display_glue.c ****                 uint32_t val;
 138:display_glue.c ****                 
 139:display_glue.c ****                 val = color_p[(x-x1)>>1].full;
 467              		.loc 1 139 0 discriminator 3
 468 00f8 BA6A     		ldr	r2, [r7, #40]
 469 00fa FB68     		ldr	r3, [r7, #12]
 470 00fc D31A     		subs	r3, r2, r3
 471 00fe 5B10     		asrs	r3, r3, #1
 472 0100 9B00     		lsls	r3, r3, #2
 473 0102 BA6B     		ldr	r2, [r7, #56]
 474 0104 1344     		add	r3, r3, r2
 475 0106 1B68     		ldr	r3, [r3]
 476 0108 7B61     		str	r3, [r7, #20]
 140:display_glue.c ****                 
 141:display_glue.c ****                 r = (val >> 16) & 0xFF;
 477              		.loc 1 141 0 discriminator 3
 478 010a 7B69     		ldr	r3, [r7, #20]
ARM GAS  C:\Users\chris\AppData\Local\Temp\ccS6AR6W.s 			page 12


 479 010c 1B0C     		lsrs	r3, r3, #16
 480 010e FB74     		strb	r3, [r7, #19]
 142:display_glue.c ****                 g = (val >>  8) & 0xFF;
 481              		.loc 1 142 0 discriminator 3
 482 0110 7B69     		ldr	r3, [r7, #20]
 483 0112 1B0A     		lsrs	r3, r3, #8
 484 0114 BB74     		strb	r3, [r7, #18]
 143:display_glue.c ****                 b = (val >>  0) & 0xFF;
 485              		.loc 1 143 0 discriminator 3
 486 0116 7B69     		ldr	r3, [r7, #20]
 487 0118 7B74     		strb	r3, [r7, #17]
 144:display_glue.c ****                 
 145:display_glue.c ****                 LCD_INTERFACE_Write8(D_CX, b);
 488              		.loc 1 145 0 discriminator 3
 489 011a BB69     		ldr	r3, [r7, #24]
 490 011c DBB2     		uxtb	r3, r3
 491 011e 7A7C     		ldrb	r2, [r7, #17]	@ zero_extendqisi2
 492 0120 1146     		mov	r1, r2
 493 0122 1846     		mov	r0, r3
 494 0124 FFF7FEFF 		bl	LCD_INTERFACE_Write8
 146:display_glue.c ****                 LCD_INTERFACE_Write8(D_CX, g);
 495              		.loc 1 146 0 discriminator 3
 496 0128 BB69     		ldr	r3, [r7, #24]
 497 012a DBB2     		uxtb	r3, r3
 498 012c BA7C     		ldrb	r2, [r7, #18]	@ zero_extendqisi2
 499 012e 1146     		mov	r1, r2
 500 0130 1846     		mov	r0, r3
 501 0132 FFF7FEFF 		bl	LCD_INTERFACE_Write8
 147:display_glue.c ****                 LCD_INTERFACE_Write8(D_CX, r);
 502              		.loc 1 147 0 discriminator 3
 503 0136 BB69     		ldr	r3, [r7, #24]
 504 0138 DBB2     		uxtb	r3, r3
 505 013a FA7C     		ldrb	r2, [r7, #19]	@ zero_extendqisi2
 506 013c 1146     		mov	r1, r2
 507 013e 1846     		mov	r0, r3
 508 0140 FFF7FEFF 		bl	LCD_INTERFACE_Write8
 148:display_glue.c ****                 LCD_INTERFACE_Write8(D_CX, b);
 509              		.loc 1 148 0 discriminator 3
 510 0144 BB69     		ldr	r3, [r7, #24]
 511 0146 DBB2     		uxtb	r3, r3
 512 0148 7A7C     		ldrb	r2, [r7, #17]	@ zero_extendqisi2
 513 014a 1146     		mov	r1, r2
 514 014c 1846     		mov	r0, r3
 515 014e FFF7FEFF 		bl	LCD_INTERFACE_Write8
 149:display_glue.c ****                 LCD_INTERFACE_Write8(D_CX, g);
 516              		.loc 1 149 0 discriminator 3
 517 0152 BB69     		ldr	r3, [r7, #24]
 518 0154 DBB2     		uxtb	r3, r3
 519 0156 BA7C     		ldrb	r2, [r7, #18]	@ zero_extendqisi2
 520 0158 1146     		mov	r1, r2
 521 015a 1846     		mov	r0, r3
 522 015c FFF7FEFF 		bl	LCD_INTERFACE_Write8
 150:display_glue.c ****                 LCD_INTERFACE_Write8(D_CX, r);
 523              		.loc 1 150 0 discriminator 3
 524 0160 BB69     		ldr	r3, [r7, #24]
 525 0162 DBB2     		uxtb	r3, r3
 526 0164 FA7C     		ldrb	r2, [r7, #19]	@ zero_extendqisi2
ARM GAS  C:\Users\chris\AppData\Local\Temp\ccS6AR6W.s 			page 13


 527 0166 1146     		mov	r1, r2
 528 0168 1846     		mov	r0, r3
 529 016a FFF7FEFF 		bl	LCD_INTERFACE_Write8
 530              	.LBE4:
 131:display_glue.c ****             {
 531              		.loc 1 131 0 discriminator 3
 532 016e BB6A     		ldr	r3, [r7, #40]
 533 0170 0233     		adds	r3, r3, #2
 534 0172 BB62     		str	r3, [r7, #40]
 535              	.L12:
 131:display_glue.c ****             {
 536              		.loc 1 131 0 is_stmt 0 discriminator 1
 537 0174 3B6A     		ldr	r3, [r7, #32]
 538 0176 5A1C     		adds	r2, r3, #1
 539 0178 BB6A     		ldr	r3, [r7, #40]
 540 017a 9A42     		cmp	r2, r3
 541 017c BCDC     		bgt	.L13
 129:display_glue.c ****         {
 542              		.loc 1 129 0 is_stmt 1 discriminator 2
 543 017e 7B6A     		ldr	r3, [r7, #36]
 544 0180 0133     		adds	r3, r3, #1
 545 0182 7B62     		str	r3, [r7, #36]
 546              	.L11:
 129:display_glue.c ****         {
 547              		.loc 1 129 0 is_stmt 0 discriminator 1
 548 0184 7B6A     		ldr	r3, [r7, #36]
 549 0186 012B     		cmp	r3, #1
 550 0188 B3DD     		ble	.L14
 551              	.LBE3:
 151:display_glue.c ****             }
 152:display_glue.c ****         }
 153:display_glue.c ****         color_p += ((x2-x1+1)>>1);
 552              		.loc 1 153 0 is_stmt 1 discriminator 2
 553 018a 3A6A     		ldr	r2, [r7, #32]
 554 018c FB68     		ldr	r3, [r7, #12]
 555 018e D31A     		subs	r3, r2, r3
 556 0190 0133     		adds	r3, r3, #1
 557 0192 5B10     		asrs	r3, r3, #1
 558 0194 9B00     		lsls	r3, r3, #2
 559 0196 BA6B     		ldr	r2, [r7, #56]
 560 0198 1344     		add	r3, r3, r2
 561 019a BB63     		str	r3, [r7, #56]
 127:display_glue.c ****     {
 562              		.loc 1 127 0 discriminator 2
 563 019c FB6A     		ldr	r3, [r7, #44]
 564 019e 0233     		adds	r3, r3, #2
 565 01a0 FB62     		str	r3, [r7, #44]
 566              	.L10:
 127:display_glue.c ****     {
 567              		.loc 1 127 0 is_stmt 0 discriminator 1
 568 01a2 FB69     		ldr	r3, [r7, #28]
 569 01a4 5A1C     		adds	r2, r3, #1
 570 01a6 FB6A     		ldr	r3, [r7, #44]
 571 01a8 9A42     		cmp	r2, r3
 572 01aa 9FDC     		bgt	.L15
 154:display_glue.c ****     }    
 155:display_glue.c **** }
ARM GAS  C:\Users\chris\AppData\Local\Temp\ccS6AR6W.s 			page 14


 573              		.loc 1 155 0 is_stmt 1
 574 01ac 00BF     		nop
 575 01ae 3037     		adds	r7, r7, #48
 576              		.cfi_def_cfa_offset 8
 577 01b0 BD46     		mov	sp, r7
 578              		.cfi_def_cfa_register 13
 579              		@ sp needed
 580 01b2 80BD     		pop	{r7, pc}
 581              		.cfi_endproc
 582              	.LFE719:
 583              		.size	ili9488_zoom, .-ili9488_zoom
 584              		.section	.text.ili9488_fill,"ax",%progbits
 585              		.align	2
 586              		.global	ili9488_fill
 587              		.thumb
 588              		.thumb_func
 589              		.type	ili9488_fill, %function
 590              	ili9488_fill:
 591              	.LFB720:
 156:display_glue.c **** 
 157:display_glue.c **** 
 158:display_glue.c **** void
 159:display_glue.c **** ili9488_fill(int32_t x1, int32_t y1, int32_t x2, int32_t y2, lv_color_t color_p)
 160:display_glue.c **** {
 592              		.loc 1 160 0
 593              		.cfi_startproc
 594              		@ args = 4, pretend = 0, frame = 40
 595              		@ frame_needed = 1, uses_anonymous_args = 0
 596 0000 80B5     		push	{r7, lr}
 597              		.cfi_def_cfa_offset 8
 598              		.cfi_offset 7, -8
 599              		.cfi_offset 14, -4
 600 0002 8AB0     		sub	sp, sp, #40
 601              		.cfi_def_cfa_offset 48
 602 0004 00AF     		add	r7, sp, #0
 603              		.cfi_def_cfa_register 7
 604 0006 F860     		str	r0, [r7, #12]
 605 0008 B960     		str	r1, [r7, #8]
 606 000a 7A60     		str	r2, [r7, #4]
 607 000c 3B60     		str	r3, [r7]
 161:display_glue.c ****     int     D_CX;
 162:display_glue.c ****     int     y;
 163:display_glue.c ****     int     x;
 164:display_glue.c ****     uint8_t r;
 165:display_glue.c ****     uint8_t g;
 166:display_glue.c ****     uint8_t b;
 167:display_glue.c ****     uint32_t val;
 168:display_glue.c ****     
 169:display_glue.c ****     val = color_p.full;
 608              		.loc 1 169 0
 609 000e 3B6B     		ldr	r3, [r7, #48]
 610 0010 FB61     		str	r3, [r7, #28]
 170:display_glue.c **** 
 171:display_glue.c ****     r = (val >> 16) & 0xFF;
 611              		.loc 1 171 0
 612 0012 FB69     		ldr	r3, [r7, #28]
 613 0014 1B0C     		lsrs	r3, r3, #16
ARM GAS  C:\Users\chris\AppData\Local\Temp\ccS6AR6W.s 			page 15


 614 0016 FB76     		strb	r3, [r7, #27]
 172:display_glue.c ****     g = (val >>  8) & 0xFF;
 615              		.loc 1 172 0
 616 0018 FB69     		ldr	r3, [r7, #28]
 617 001a 1B0A     		lsrs	r3, r3, #8
 618 001c BB76     		strb	r3, [r7, #26]
 173:display_glue.c ****     b = (val >>  0) & 0xFF;
 619              		.loc 1 173 0
 620 001e FB69     		ldr	r3, [r7, #28]
 621 0020 7B76     		strb	r3, [r7, #25]
 174:display_glue.c **** 
 175:display_glue.c ****     D_CX = 0;   LCD_INTERFACE_Write8(D_CX, DSPL_COL_ADDR_SET);
 622              		.loc 1 175 0
 623 0022 0023     		movs	r3, #0
 624 0024 7B61     		str	r3, [r7, #20]
 625 0026 7B69     		ldr	r3, [r7, #20]
 626 0028 DBB2     		uxtb	r3, r3
 627 002a 2A21     		movs	r1, #42
 628 002c 1846     		mov	r0, r3
 629 002e FFF7FEFF 		bl	LCD_INTERFACE_Write8
 176:display_glue.c ****     D_CX = 1;   LCD_INTERFACE_Write8(D_CX, BYTE_HI(x1));
 630              		.loc 1 176 0
 631 0032 0123     		movs	r3, #1
 632 0034 7B61     		str	r3, [r7, #20]
 633 0036 7B69     		ldr	r3, [r7, #20]
 634 0038 DAB2     		uxtb	r2, r3
 635 003a FB68     		ldr	r3, [r7, #12]
 636 003c 1B12     		asrs	r3, r3, #8
 637 003e DBB2     		uxtb	r3, r3
 638 0040 1946     		mov	r1, r3
 639 0042 1046     		mov	r0, r2
 640 0044 FFF7FEFF 		bl	LCD_INTERFACE_Write8
 177:display_glue.c ****                 LCD_INTERFACE_Write8(D_CX, BYTE_LO(x1));
 641              		.loc 1 177 0
 642 0048 7B69     		ldr	r3, [r7, #20]
 643 004a DBB2     		uxtb	r3, r3
 644 004c FA68     		ldr	r2, [r7, #12]
 645 004e D2B2     		uxtb	r2, r2
 646 0050 1146     		mov	r1, r2
 647 0052 1846     		mov	r0, r3
 648 0054 FFF7FEFF 		bl	LCD_INTERFACE_Write8
 178:display_glue.c ****                 LCD_INTERFACE_Write8(D_CX, BYTE_HI(x2));
 649              		.loc 1 178 0
 650 0058 7B69     		ldr	r3, [r7, #20]
 651 005a DAB2     		uxtb	r2, r3
 652 005c 7B68     		ldr	r3, [r7, #4]
 653 005e 1B12     		asrs	r3, r3, #8
 654 0060 DBB2     		uxtb	r3, r3
 655 0062 1946     		mov	r1, r3
 656 0064 1046     		mov	r0, r2
 657 0066 FFF7FEFF 		bl	LCD_INTERFACE_Write8
 179:display_glue.c ****                 LCD_INTERFACE_Write8(D_CX, BYTE_LO(x2));
 658              		.loc 1 179 0
 659 006a 7B69     		ldr	r3, [r7, #20]
 660 006c DBB2     		uxtb	r3, r3
 661 006e 7A68     		ldr	r2, [r7, #4]
 662 0070 D2B2     		uxtb	r2, r2
ARM GAS  C:\Users\chris\AppData\Local\Temp\ccS6AR6W.s 			page 16


 663 0072 1146     		mov	r1, r2
 664 0074 1846     		mov	r0, r3
 665 0076 FFF7FEFF 		bl	LCD_INTERFACE_Write8
 180:display_glue.c **** 
 181:display_glue.c ****     D_CX = 0;   LCD_INTERFACE_Write8(D_CX, DSPL_PAG_ADDR_SET);
 666              		.loc 1 181 0
 667 007a 0023     		movs	r3, #0
 668 007c 7B61     		str	r3, [r7, #20]
 669 007e 7B69     		ldr	r3, [r7, #20]
 670 0080 DBB2     		uxtb	r3, r3
 671 0082 2B21     		movs	r1, #43
 672 0084 1846     		mov	r0, r3
 673 0086 FFF7FEFF 		bl	LCD_INTERFACE_Write8
 182:display_glue.c ****     D_CX = 1;   LCD_INTERFACE_Write8(D_CX, BYTE_HI(y1));
 674              		.loc 1 182 0
 675 008a 0123     		movs	r3, #1
 676 008c 7B61     		str	r3, [r7, #20]
 677 008e 7B69     		ldr	r3, [r7, #20]
 678 0090 DAB2     		uxtb	r2, r3
 679 0092 BB68     		ldr	r3, [r7, #8]
 680 0094 1B12     		asrs	r3, r3, #8
 681 0096 DBB2     		uxtb	r3, r3
 682 0098 1946     		mov	r1, r3
 683 009a 1046     		mov	r0, r2
 684 009c FFF7FEFF 		bl	LCD_INTERFACE_Write8
 183:display_glue.c ****                 LCD_INTERFACE_Write8(D_CX, BYTE_LO(y1));
 685              		.loc 1 183 0
 686 00a0 7B69     		ldr	r3, [r7, #20]
 687 00a2 DBB2     		uxtb	r3, r3
 688 00a4 BA68     		ldr	r2, [r7, #8]
 689 00a6 D2B2     		uxtb	r2, r2
 690 00a8 1146     		mov	r1, r2
 691 00aa 1846     		mov	r0, r3
 692 00ac FFF7FEFF 		bl	LCD_INTERFACE_Write8
 184:display_glue.c ****                 LCD_INTERFACE_Write8(D_CX, BYTE_HI(y2));
 693              		.loc 1 184 0
 694 00b0 7B69     		ldr	r3, [r7, #20]
 695 00b2 DAB2     		uxtb	r2, r3
 696 00b4 3B68     		ldr	r3, [r7]
 697 00b6 1B12     		asrs	r3, r3, #8
 698 00b8 DBB2     		uxtb	r3, r3
 699 00ba 1946     		mov	r1, r3
 700 00bc 1046     		mov	r0, r2
 701 00be FFF7FEFF 		bl	LCD_INTERFACE_Write8
 185:display_glue.c ****                 LCD_INTERFACE_Write8(D_CX, BYTE_LO(y2));
 702              		.loc 1 185 0
 703 00c2 7B69     		ldr	r3, [r7, #20]
 704 00c4 DBB2     		uxtb	r3, r3
 705 00c6 3A68     		ldr	r2, [r7]
 706 00c8 D2B2     		uxtb	r2, r2
 707 00ca 1146     		mov	r1, r2
 708 00cc 1846     		mov	r0, r3
 709 00ce FFF7FEFF 		bl	LCD_INTERFACE_Write8
 186:display_glue.c **** 
 187:display_glue.c ****     D_CX = 0;   LCD_INTERFACE_Write8(D_CX, DSPL_MEM_WR);
 710              		.loc 1 187 0
 711 00d2 0023     		movs	r3, #0
ARM GAS  C:\Users\chris\AppData\Local\Temp\ccS6AR6W.s 			page 17


 712 00d4 7B61     		str	r3, [r7, #20]
 713 00d6 7B69     		ldr	r3, [r7, #20]
 714 00d8 DBB2     		uxtb	r3, r3
 715 00da 2C21     		movs	r1, #44
 716 00dc 1846     		mov	r0, r3
 717 00de FFF7FEFF 		bl	LCD_INTERFACE_Write8
 188:display_glue.c ****     D_CX = 1;
 718              		.loc 1 188 0
 719 00e2 0123     		movs	r3, #1
 720 00e4 7B61     		str	r3, [r7, #20]
 189:display_glue.c **** 
 190:display_glue.c ****     for(y = y1; y <= y2; y++) 
 721              		.loc 1 190 0
 722 00e6 BB68     		ldr	r3, [r7, #8]
 723 00e8 7B62     		str	r3, [r7, #36]
 724 00ea 21E0     		b	.L17
 725              	.L20:
 191:display_glue.c ****     {
 192:display_glue.c ****         for(x = x1; x <= x2; x++) 
 726              		.loc 1 192 0
 727 00ec FB68     		ldr	r3, [r7, #12]
 728 00ee 3B62     		str	r3, [r7, #32]
 729 00f0 17E0     		b	.L18
 730              	.L19:
 193:display_glue.c ****         {
 194:display_glue.c ****             LCD_INTERFACE_Write8(D_CX, r);
 731              		.loc 1 194 0 discriminator 3
 732 00f2 7B69     		ldr	r3, [r7, #20]
 733 00f4 DBB2     		uxtb	r3, r3
 734 00f6 FA7E     		ldrb	r2, [r7, #27]	@ zero_extendqisi2
 735 00f8 1146     		mov	r1, r2
 736 00fa 1846     		mov	r0, r3
 737 00fc FFF7FEFF 		bl	LCD_INTERFACE_Write8
 195:display_glue.c ****             LCD_INTERFACE_Write8(D_CX, g);
 738              		.loc 1 195 0 discriminator 3
 739 0100 7B69     		ldr	r3, [r7, #20]
 740 0102 DBB2     		uxtb	r3, r3
 741 0104 BA7E     		ldrb	r2, [r7, #26]	@ zero_extendqisi2
 742 0106 1146     		mov	r1, r2
 743 0108 1846     		mov	r0, r3
 744 010a FFF7FEFF 		bl	LCD_INTERFACE_Write8
 196:display_glue.c ****             LCD_INTERFACE_Write8(D_CX, b);
 745              		.loc 1 196 0 discriminator 3
 746 010e 7B69     		ldr	r3, [r7, #20]
 747 0110 DBB2     		uxtb	r3, r3
 748 0112 7A7E     		ldrb	r2, [r7, #25]	@ zero_extendqisi2
 749 0114 1146     		mov	r1, r2
 750 0116 1846     		mov	r0, r3
 751 0118 FFF7FEFF 		bl	LCD_INTERFACE_Write8
 192:display_glue.c ****         {
 752              		.loc 1 192 0 discriminator 3
 753 011c 3B6A     		ldr	r3, [r7, #32]
 754 011e 0133     		adds	r3, r3, #1
 755 0120 3B62     		str	r3, [r7, #32]
 756              	.L18:
 192:display_glue.c ****         {
 757              		.loc 1 192 0 is_stmt 0 discriminator 1
ARM GAS  C:\Users\chris\AppData\Local\Temp\ccS6AR6W.s 			page 18


 758 0122 3A6A     		ldr	r2, [r7, #32]
 759 0124 7B68     		ldr	r3, [r7, #4]
 760 0126 9A42     		cmp	r2, r3
 761 0128 E3DD     		ble	.L19
 190:display_glue.c ****     {
 762              		.loc 1 190 0 is_stmt 1 discriminator 2
 763 012a 7B6A     		ldr	r3, [r7, #36]
 764 012c 0133     		adds	r3, r3, #1
 765 012e 7B62     		str	r3, [r7, #36]
 766              	.L17:
 190:display_glue.c ****     {
 767              		.loc 1 190 0 is_stmt 0 discriminator 1
 768 0130 7A6A     		ldr	r2, [r7, #36]
 769 0132 3B68     		ldr	r3, [r7]
 770 0134 9A42     		cmp	r2, r3
 771 0136 D9DD     		ble	.L20
 197:display_glue.c ****         }
 198:display_glue.c ****     }    
 199:display_glue.c **** }
 772              		.loc 1 199 0 is_stmt 1
 773 0138 00BF     		nop
 774 013a 2837     		adds	r7, r7, #40
 775              		.cfi_def_cfa_offset 8
 776 013c BD46     		mov	sp, r7
 777              		.cfi_def_cfa_register 13
 778              		@ sp needed
 779 013e 80BD     		pop	{r7, pc}
 780              		.cfi_endproc
 781              	.LFE720:
 782              		.size	ili9488_fill, .-ili9488_fill
 783              		.section	.text.my_flush_cb,"ax",%progbits
 784              		.align	2
 785              		.global	my_flush_cb
 786              		.thumb
 787              		.thumb_func
 788              		.type	my_flush_cb, %function
 789              	my_flush_cb:
 790              	.LFB721:
 200:display_glue.c **** 
 201:display_glue.c **** /** MANDATORY: Write the internal buffer (VDB) to the display. 'lv_disp_flush_ready()' has to be
 202:display_glue.c ****  * called when finished */
 203:display_glue.c **** void my_flush_cb(struct _disp_drv_t * disp_drv, const lv_area_t * area, lv_color_t * color_p)
 204:display_glue.c **** {
 791              		.loc 1 204 0
 792              		.cfi_startproc
 793              		@ args = 0, pretend = 0, frame = 16
 794              		@ frame_needed = 1, uses_anonymous_args = 0
 795 0000 90B5     		push	{r4, r7, lr}
 796              		.cfi_def_cfa_offset 12
 797              		.cfi_offset 4, -12
 798              		.cfi_offset 7, -8
 799              		.cfi_offset 14, -4
 800 0002 87B0     		sub	sp, sp, #28
 801              		.cfi_def_cfa_offset 40
 802 0004 02AF     		add	r7, sp, #8
 803              		.cfi_def_cfa 7, 32
 804 0006 F860     		str	r0, [r7, #12]
ARM GAS  C:\Users\chris\AppData\Local\Temp\ccS6AR6W.s 			page 19


 805 0008 B960     		str	r1, [r7, #8]
 806 000a 7A60     		str	r2, [r7, #4]
 205:display_glue.c ****     ili9488_map(area->x1, area->y1, area->x2, area->y2, color_p);
 807              		.loc 1 205 0
 808 000c BB68     		ldr	r3, [r7, #8]
 809 000e B3F90030 		ldrsh	r3, [r3]
 810 0012 1846     		mov	r0, r3
 811 0014 BB68     		ldr	r3, [r7, #8]
 812 0016 B3F90230 		ldrsh	r3, [r3, #2]
 813 001a 1946     		mov	r1, r3
 814 001c BB68     		ldr	r3, [r7, #8]
 815 001e B3F90430 		ldrsh	r3, [r3, #4]
 816 0022 1A46     		mov	r2, r3
 817 0024 BB68     		ldr	r3, [r7, #8]
 818 0026 B3F90630 		ldrsh	r3, [r3, #6]
 819 002a 1C46     		mov	r4, r3
 820 002c 7B68     		ldr	r3, [r7, #4]
 821 002e 0093     		str	r3, [sp]
 822 0030 2346     		mov	r3, r4
 823 0032 FFF7FEFF 		bl	ili9488_map
 206:display_glue.c ****     //for (int src_row = area->y1; src_row <= area->y2; ++src_row)
 207:display_glue.c ****     //{  
 208:display_glue.c ****         // Draw a column on the display according to a row in the buffer passed to my_flush_cb
 209:display_glue.c ****         //ili9488_map(area->x1, area->y1, area->x2, area->y2, color_p);
 210:display_glue.c ****     //    ili9488_map(LV_VER_RES_MAX-1-src_row, area->x1, LV_VER_RES_MAX-src_row, area->x2, color_p
 211:display_glue.c ****         
 212:display_glue.c ****     //    color_p += (area->x2 - area->x1 + 1);       // advance the pointer to the next source row
 213:display_glue.c ****     //}
 214:display_glue.c ****     
 215:display_glue.c ****     lv_disp_flush_ready(disp_drv);
 824              		.loc 1 215 0
 825 0036 F868     		ldr	r0, [r7, #12]
 826 0038 FFF7FEFF 		bl	lv_disp_flush_ready
 216:display_glue.c **** }
 827              		.loc 1 216 0
 828 003c 00BF     		nop
 829 003e 1437     		adds	r7, r7, #20
 830              		.cfi_def_cfa_offset 12
 831 0040 BD46     		mov	sp, r7
 832              		.cfi_def_cfa_register 13
 833              		@ sp needed
 834 0042 90BD     		pop	{r4, r7, pc}
 835              		.cfi_endproc
 836              	.LFE721:
 837              		.size	my_flush_cb, .-my_flush_cb
 838              		.text
 839              	.Letext0:
 840              		.file 2 "e:\\applications\\psoc\\psoc creator\\4.3\\psoc creator\\import\\gnu\\arm\\5.4.1\\arm-non
 841              		.file 3 "e:\\applications\\psoc\\psoc creator\\4.3\\psoc creator\\import\\gnu\\arm\\5.4.1\\arm-non
 842              		.file 4 "Generated_Source\\PSoC6\\pdl\\drivers/peripheral/device/cy_device.h"
 843              		.file 5 "Generated_Source\\PSoC6\\pdl\\drivers/peripheral/scb/cy_scb_i2c.h"
 844              		.file 6 "Generated_Source\\PSoC6\\pdl\\drivers/peripheral/scb/cy_scb_spi.h"
 845              		.file 7 "Generated_Source\\PSoC6\\pdl\\drivers/peripheral/tcpwm/cy_tcpwm_counter.h"
 846              		.file 8 "Generated_Source\\PSoC6/project.h"
 847              		.file 9 "..\\..\\..\\lvgl\\version_6.1.2\\lvgl/src/lv_misc/../../../lv_conf.h"
 848              		.file 10 "..\\..\\..\\lvgl\\version_6.1.2\\lvgl/src/lv_hal/../lv_misc/lv_color.h"
 849              		.file 11 "..\\..\\..\\lvgl\\version_6.1.2\\lvgl/src/lv_hal/../lv_misc/lv_area.h"
ARM GAS  C:\Users\chris\AppData\Local\Temp\ccS6AR6W.s 			page 20


 850              		.file 12 "..\\..\\..\\lvgl\\version_6.1.2\\lvgl/src/lv_hal/lv_hal_disp.h"
 851              		.file 13 "..\\..\\..\\lvgl\\version_6.1.2\\lvgl/src/lv_objx/lv_btn.h"
 852              		.file 14 "Generated_Source\\PSoC6\\pdl\\cmsis/include/core_cm4.h"
 853              		.file 15 "Generated_Source\\PSoC6/DISP_TICK_TIMER.h"
 854              		.file 16 "Generated_Source\\PSoC6/I2C_MASTER.h"
 855              		.file 17 "Generated_Source\\PSoC6/SPIM.h"