ARM GAS  C:\Users\pearlstl\AppData\Local\Temp\cc9vcmrU.s 			page 1


   1              		.syntax unified
   2              		.cpu cortex-m4
   3              		.eabi_attribute 27, 1
   4              		.fpu fpv4-sp-d16
   5              		.eabi_attribute 20, 1
   6              		.eabi_attribute 21, 1
   7              		.eabi_attribute 23, 3
   8              		.eabi_attribute 24, 1
   9              		.eabi_attribute 25, 1
  10              		.eabi_attribute 26, 1
  11              		.eabi_attribute 30, 1
  12              		.eabi_attribute 34, 1
  13              		.eabi_attribute 18, 4
  14              		.thumb
  15              		.syntax unified
  16              		.file	"GraphicLCDIntf_1.c"
  17              		.text
  18              	.Ltext0:
  19              		.cfi_sections	.debug_frame
  20              		.section	.text.GraphicLCDIntf_1_Enable,"ax",%progbits
  21              		.align	2
  22              		.global	GraphicLCDIntf_1_Enable
  23              		.thumb
  24              		.thumb_func
  25              		.type	GraphicLCDIntf_1_Enable, %function
  26              	GraphicLCDIntf_1_Enable:
  27              	.LFB132:
  28              		.file 1 "Generated_Source\\PSoC6\\GraphicLCDIntf_1.c"
   1:Generated_Source\PSoC6/GraphicLCDIntf_1.c **** /*******************************************************************************
   2:Generated_Source\PSoC6/GraphicLCDIntf_1.c **** * File Name: GraphicLCDIntf_1.c  
   3:Generated_Source\PSoC6/GraphicLCDIntf_1.c **** * Version 1.80
   4:Generated_Source\PSoC6/GraphicLCDIntf_1.c **** *
   5:Generated_Source\PSoC6/GraphicLCDIntf_1.c **** * Description:
   6:Generated_Source\PSoC6/GraphicLCDIntf_1.c **** *  This file contains the setup, control and status commands for the 
   7:Generated_Source\PSoC6/GraphicLCDIntf_1.c **** *  GraphicLCDIntf component.   
   8:Generated_Source\PSoC6/GraphicLCDIntf_1.c **** *
   9:Generated_Source\PSoC6/GraphicLCDIntf_1.c **** *******************************************************************************
  10:Generated_Source\PSoC6/GraphicLCDIntf_1.c **** * Copyright 2008-2018, Cypress Semiconductor Corporation.  All rights reserved.
  11:Generated_Source\PSoC6/GraphicLCDIntf_1.c **** * You may use this file only in accordance with the license, terms, conditions, 
  12:Generated_Source\PSoC6/GraphicLCDIntf_1.c **** * disclaimers, and limitations in the end user license agreement accompanying 
  13:Generated_Source\PSoC6/GraphicLCDIntf_1.c **** * the software package with which this file was provided.
  14:Generated_Source\PSoC6/GraphicLCDIntf_1.c **** ********************************************************************************/
  15:Generated_Source\PSoC6/GraphicLCDIntf_1.c **** 
  16:Generated_Source\PSoC6/GraphicLCDIntf_1.c **** #include "GraphicLCDIntf_1.h"  
  17:Generated_Source\PSoC6/GraphicLCDIntf_1.c **** 
  18:Generated_Source\PSoC6/GraphicLCDIntf_1.c **** uint8 GraphicLCDIntf_1_initVar = 0u;
  19:Generated_Source\PSoC6/GraphicLCDIntf_1.c **** 
  20:Generated_Source\PSoC6/GraphicLCDIntf_1.c **** 
  21:Generated_Source\PSoC6/GraphicLCDIntf_1.c **** /*******************************************************************************
  22:Generated_Source\PSoC6/GraphicLCDIntf_1.c **** * Function Name: GraphicLCDIntf_1_Enable
  23:Generated_Source\PSoC6/GraphicLCDIntf_1.c **** ********************************************************************************
  24:Generated_Source\PSoC6/GraphicLCDIntf_1.c **** *
  25:Generated_Source\PSoC6/GraphicLCDIntf_1.c **** * Summary:
  26:Generated_Source\PSoC6/GraphicLCDIntf_1.c **** *  There is no need to reset or enable this component.  This component is 
  27:Generated_Source\PSoC6/GraphicLCDIntf_1.c **** *  naturally a slave that waits for the API calls to perform any 
  28:Generated_Source\PSoC6/GraphicLCDIntf_1.c **** *  function and after a request is made that request will always complete in 
  29:Generated_Source\PSoC6/GraphicLCDIntf_1.c **** *  finite time as long as a clock is provided. The only thing provided
ARM GAS  C:\Users\pearlstl\AppData\Local\Temp\cc9vcmrU.s 			page 2


  30:Generated_Source\PSoC6/GraphicLCDIntf_1.c **** *  by this API is setting the Command FIFO to drive at least the half-empty status
  31:Generated_Source\PSoC6/GraphicLCDIntf_1.c **** *  from the FIFO.
  32:Generated_Source\PSoC6/GraphicLCDIntf_1.c **** *
  33:Generated_Source\PSoC6/GraphicLCDIntf_1.c **** *******************************************************************************/
  34:Generated_Source\PSoC6/GraphicLCDIntf_1.c **** void GraphicLCDIntf_1_Enable(void) 
  35:Generated_Source\PSoC6/GraphicLCDIntf_1.c **** {   
  29              		.loc 1 35 0
  30              		.cfi_startproc
  31              		@ args = 0, pretend = 0, frame = 0
  32              		@ frame_needed = 0, uses_anonymous_args = 0
  33              		@ link register save eliminated.
  34 0000 7047     		bx	lr
  35              		.cfi_endproc
  36              	.LFE132:
  37              		.size	GraphicLCDIntf_1_Enable, .-GraphicLCDIntf_1_Enable
  38 0002 00BF     		.section	.text.GraphicLCDIntf_1_Init,"ax",%progbits
  39              		.align	2
  40              		.global	GraphicLCDIntf_1_Init
  41              		.thumb
  42              		.thumb_func
  43              		.type	GraphicLCDIntf_1_Init, %function
  44              	GraphicLCDIntf_1_Init:
  45              	.LFB133:
  36:Generated_Source\PSoC6/GraphicLCDIntf_1.c ****     /* Nothing to enable */
  37:Generated_Source\PSoC6/GraphicLCDIntf_1.c **** }
  38:Generated_Source\PSoC6/GraphicLCDIntf_1.c **** 
  39:Generated_Source\PSoC6/GraphicLCDIntf_1.c **** 
  40:Generated_Source\PSoC6/GraphicLCDIntf_1.c **** /*******************************************************************************
  41:Generated_Source\PSoC6/GraphicLCDIntf_1.c **** * Function Name: GraphicLCDIntf_1_Init
  42:Generated_Source\PSoC6/GraphicLCDIntf_1.c **** ********************************************************************************
  43:Generated_Source\PSoC6/GraphicLCDIntf_1.c **** *
  44:Generated_Source\PSoC6/GraphicLCDIntf_1.c **** * Summary:
  45:Generated_Source\PSoC6/GraphicLCDIntf_1.c **** *  Inits/Restores default GraphicLCDIntf configuration provided with the customizer.
  46:Generated_Source\PSoC6/GraphicLCDIntf_1.c **** * 
  47:Generated_Source\PSoC6/GraphicLCDIntf_1.c **** *******************************************************************************/
  48:Generated_Source\PSoC6/GraphicLCDIntf_1.c **** void GraphicLCDIntf_1_Init(void) 
  49:Generated_Source\PSoC6/GraphicLCDIntf_1.c **** {
  46              		.loc 1 49 0
  47              		.cfi_startproc
  48              		@ args = 0, pretend = 0, frame = 0
  49              		@ frame_needed = 0, uses_anonymous_args = 0
  50              		@ link register save eliminated.
  50:Generated_Source\PSoC6/GraphicLCDIntf_1.c ****     /* Set low and high pulse widths for a read transaction */
  51:Generated_Source\PSoC6/GraphicLCDIntf_1.c ****     GraphicLCDIntf_1_READ_LO_PULSE_REG = GraphicLCDIntf_1_READ_LOW_PULSE;
  51              		.loc 1 51 0
  52 0000 0722     		movs	r2, #7
  53 0002 034B     		ldr	r3, .L3
  54 0004 1A70     		strb	r2, [r3]
  52:Generated_Source\PSoC6/GraphicLCDIntf_1.c ****     GraphicLCDIntf_1_READ_HI_PULSE_REG = GraphicLCDIntf_1_READ_HIGH_PULSE;
  55              		.loc 1 52 0
  56 0006 0222     		movs	r2, #2
  57 0008 03F58073 		add	r3, r3, #256
  58 000c 1A70     		strb	r2, [r3]
  59 000e 7047     		bx	lr
  60              	.L4:
  61              		.align	2
  62              	.L3:
ARM GAS  C:\Users\pearlstl\AppData\Local\Temp\cc9vcmrU.s 			page 3


  63 0010 20123440 		.word	1077154336
  64              		.cfi_endproc
  65              	.LFE133:
  66              		.size	GraphicLCDIntf_1_Init, .-GraphicLCDIntf_1_Init
  67              		.section	.text.GraphicLCDIntf_1_Start,"ax",%progbits
  68              		.align	2
  69              		.global	GraphicLCDIntf_1_Start
  70              		.thumb
  71              		.thumb_func
  72              		.type	GraphicLCDIntf_1_Start, %function
  73              	GraphicLCDIntf_1_Start:
  74              	.LFB134:
  53:Generated_Source\PSoC6/GraphicLCDIntf_1.c **** }
  54:Generated_Source\PSoC6/GraphicLCDIntf_1.c **** 
  55:Generated_Source\PSoC6/GraphicLCDIntf_1.c **** 
  56:Generated_Source\PSoC6/GraphicLCDIntf_1.c **** /*******************************************************************************
  57:Generated_Source\PSoC6/GraphicLCDIntf_1.c **** * Function Name: GraphicLCDIntf_1_Start
  58:Generated_Source\PSoC6/GraphicLCDIntf_1.c **** ********************************************************************************
  59:Generated_Source\PSoC6/GraphicLCDIntf_1.c **** *
  60:Generated_Source\PSoC6/GraphicLCDIntf_1.c **** * Summary:
  61:Generated_Source\PSoC6/GraphicLCDIntf_1.c **** *  Starts the GraphicLCDIntf interface.
  62:Generated_Source\PSoC6/GraphicLCDIntf_1.c **** *
  63:Generated_Source\PSoC6/GraphicLCDIntf_1.c **** * Global Variables:
  64:Generated_Source\PSoC6/GraphicLCDIntf_1.c **** *  GraphicLCDIntf_1_initVar - Used to check the initial configuration, modified on 
  65:Generated_Source\PSoC6/GraphicLCDIntf_1.c **** *  the first function call.
  66:Generated_Source\PSoC6/GraphicLCDIntf_1.c **** *
  67:Generated_Source\PSoC6/GraphicLCDIntf_1.c **** *******************************************************************************/
  68:Generated_Source\PSoC6/GraphicLCDIntf_1.c **** void GraphicLCDIntf_1_Start(void) 
  69:Generated_Source\PSoC6/GraphicLCDIntf_1.c **** {
  75              		.loc 1 69 0
  76              		.cfi_startproc
  77              		@ args = 0, pretend = 0, frame = 0
  78              		@ frame_needed = 0, uses_anonymous_args = 0
  79 0000 08B5     		push	{r3, lr}
  80              		.cfi_def_cfa_offset 8
  81              		.cfi_offset 3, -8
  82              		.cfi_offset 14, -4
  70:Generated_Source\PSoC6/GraphicLCDIntf_1.c ****     if (GraphicLCDIntf_1_initVar == 0u)
  83              		.loc 1 70 0
  84 0002 044B     		ldr	r3, .L8
  85 0004 1B78     		ldrb	r3, [r3]	@ zero_extendqisi2
  86 0006 23B9     		cbnz	r3, .L5
  71:Generated_Source\PSoC6/GraphicLCDIntf_1.c ****     {
  72:Generated_Source\PSoC6/GraphicLCDIntf_1.c ****         GraphicLCDIntf_1_Init();
  87              		.loc 1 72 0
  88 0008 FFF7FEFF 		bl	GraphicLCDIntf_1_Init
  89              	.LVL0:
  73:Generated_Source\PSoC6/GraphicLCDIntf_1.c ****         GraphicLCDIntf_1_initVar = 1u;
  90              		.loc 1 73 0
  91 000c 0122     		movs	r2, #1
  92 000e 014B     		ldr	r3, .L8
  93 0010 1A70     		strb	r2, [r3]
  94              	.L5:
  95 0012 08BD     		pop	{r3, pc}
  96              	.L9:
  97              		.align	2
  98              	.L8:
ARM GAS  C:\Users\pearlstl\AppData\Local\Temp\cc9vcmrU.s 			page 4


  99 0014 00000000 		.word	.LANCHOR0
 100              		.cfi_endproc
 101              	.LFE134:
 102              		.size	GraphicLCDIntf_1_Start, .-GraphicLCDIntf_1_Start
 103              		.section	.text.GraphicLCDIntf_1_Stop,"ax",%progbits
 104              		.align	2
 105              		.global	GraphicLCDIntf_1_Stop
 106              		.thumb
 107              		.thumb_func
 108              		.type	GraphicLCDIntf_1_Stop, %function
 109              	GraphicLCDIntf_1_Stop:
 110              	.LFB135:
  74:Generated_Source\PSoC6/GraphicLCDIntf_1.c ****     }
  75:Generated_Source\PSoC6/GraphicLCDIntf_1.c ****       
  76:Generated_Source\PSoC6/GraphicLCDIntf_1.c ****     GraphicLCDIntf_1_Enable();
  77:Generated_Source\PSoC6/GraphicLCDIntf_1.c **** }
  78:Generated_Source\PSoC6/GraphicLCDIntf_1.c **** 
  79:Generated_Source\PSoC6/GraphicLCDIntf_1.c **** 
  80:Generated_Source\PSoC6/GraphicLCDIntf_1.c **** /*******************************************************************************
  81:Generated_Source\PSoC6/GraphicLCDIntf_1.c **** * Function Name: GraphicLCDIntf_1_Stop
  82:Generated_Source\PSoC6/GraphicLCDIntf_1.c **** ********************************************************************************
  83:Generated_Source\PSoC6/GraphicLCDIntf_1.c **** *
  84:Generated_Source\PSoC6/GraphicLCDIntf_1.c **** * Summary:
  85:Generated_Source\PSoC6/GraphicLCDIntf_1.c **** *  Disables the GraphicLCDIntf interface.
  86:Generated_Source\PSoC6/GraphicLCDIntf_1.c **** *
  87:Generated_Source\PSoC6/GraphicLCDIntf_1.c **** *******************************************************************************/
  88:Generated_Source\PSoC6/GraphicLCDIntf_1.c **** void GraphicLCDIntf_1_Stop(void) 
  89:Generated_Source\PSoC6/GraphicLCDIntf_1.c **** {
 111              		.loc 1 89 0
 112              		.cfi_startproc
 113              		@ args = 0, pretend = 0, frame = 0
 114              		@ frame_needed = 0, uses_anonymous_args = 0
 115              		@ link register save eliminated.
 116 0000 7047     		bx	lr
 117              		.cfi_endproc
 118              	.LFE135:
 119              		.size	GraphicLCDIntf_1_Stop, .-GraphicLCDIntf_1_Stop
 120 0002 00BF     		.section	.text.GraphicLCDIntf_1_Write8,"ax",%progbits
 121              		.align	2
 122              		.global	GraphicLCDIntf_1_Write8
 123              		.thumb
 124              		.thumb_func
 125              		.type	GraphicLCDIntf_1_Write8, %function
 126              	GraphicLCDIntf_1_Write8:
 127              	.LFB136:
  90:Generated_Source\PSoC6/GraphicLCDIntf_1.c ****     /* Nothing to stop */
  91:Generated_Source\PSoC6/GraphicLCDIntf_1.c **** }
  92:Generated_Source\PSoC6/GraphicLCDIntf_1.c **** 
  93:Generated_Source\PSoC6/GraphicLCDIntf_1.c **** 
  94:Generated_Source\PSoC6/GraphicLCDIntf_1.c **** /*******************************************************************************
  95:Generated_Source\PSoC6/GraphicLCDIntf_1.c **** * Function Name: GraphicLCDIntf_1_Write8
  96:Generated_Source\PSoC6/GraphicLCDIntf_1.c **** ********************************************************************************
  97:Generated_Source\PSoC6/GraphicLCDIntf_1.c **** *
  98:Generated_Source\PSoC6/GraphicLCDIntf_1.c **** * Summary:
  99:Generated_Source\PSoC6/GraphicLCDIntf_1.c **** *  Initiates a write transaction on the 8-bit parallel
 100:Generated_Source\PSoC6/GraphicLCDIntf_1.c **** *  interface.
 101:Generated_Source\PSoC6/GraphicLCDIntf_1.c **** *  The write is a posted write, so this function will return before the write 
ARM GAS  C:\Users\pearlstl\AppData\Local\Temp\cc9vcmrU.s 			page 5


 102:Generated_Source\PSoC6/GraphicLCDIntf_1.c **** *  has actually completed on the interface. If the command queue is full, this 
 103:Generated_Source\PSoC6/GraphicLCDIntf_1.c **** *  function will not return until space is available to queue this write request.
 104:Generated_Source\PSoC6/GraphicLCDIntf_1.c **** *
 105:Generated_Source\PSoC6/GraphicLCDIntf_1.c **** * Parameters:
 106:Generated_Source\PSoC6/GraphicLCDIntf_1.c **** *  d_c:  Data(1) or Command(0) indication. Passed to the d_c pin.
 107:Generated_Source\PSoC6/GraphicLCDIntf_1.c **** *
 108:Generated_Source\PSoC6/GraphicLCDIntf_1.c **** *  wrData: Data sent to the do_msb[7:0] (most significant byte) 
 109:Generated_Source\PSoC6/GraphicLCDIntf_1.c **** *          and do_lsb[7:0] (least significant byte) pins. do_msb[7:0]
 110:Generated_Source\PSoC6/GraphicLCDIntf_1.c **** *          presents only for the 16-bit interface.
 111:Generated_Source\PSoC6/GraphicLCDIntf_1.c **** *
 112:Generated_Source\PSoC6/GraphicLCDIntf_1.c **** *******************************************************************************/
 113:Generated_Source\PSoC6/GraphicLCDIntf_1.c **** void GraphicLCDIntf_1_Write8(uint8 d_c, uint8 wrData) 
 114:Generated_Source\PSoC6/GraphicLCDIntf_1.c **** {
 128              		.loc 1 114 0
 129              		.cfi_startproc
 130              		@ args = 0, pretend = 0, frame = 0
 131              		@ frame_needed = 0, uses_anonymous_args = 0
 132              		@ link register save eliminated.
 133              	.LVL1:
 134              	.L12:
 115:Generated_Source\PSoC6/GraphicLCDIntf_1.c ****     while((GraphicLCDIntf_1_STATUS_REG & GraphicLCDIntf_1_CMD_QUEUE_FULL) != 0u)
 135              		.loc 1 115 0 discriminator 1
 136 0000 054B     		ldr	r3, .L13
 137 0002 1B78     		ldrb	r3, [r3]	@ zero_extendqisi2
 138 0004 13F0010F 		tst	r3, #1
 139 0008 FAD1     		bne	.L12
 116:Generated_Source\PSoC6/GraphicLCDIntf_1.c ****     {
 117:Generated_Source\PSoC6/GraphicLCDIntf_1.c ****         /* The command queue is full */
 118:Generated_Source\PSoC6/GraphicLCDIntf_1.c ****     }   
 119:Generated_Source\PSoC6/GraphicLCDIntf_1.c ****     GraphicLCDIntf_1_CMD_FIFO_REG = d_c;
 140              		.loc 1 119 0
 141 000a 044B     		ldr	r3, .L13+4
 142 000c 1870     		strb	r0, [r3]
 120:Generated_Source\PSoC6/GraphicLCDIntf_1.c ****     #if (GraphicLCDIntf_1_BUS_WIDTH == 16u)
 121:Generated_Source\PSoC6/GraphicLCDIntf_1.c ****         CY_SET_REG16(GraphicLCDIntf_1_DATA_FIFO_PTR, wrData);
 122:Generated_Source\PSoC6/GraphicLCDIntf_1.c ****     #else /* 8-bit interface */
 123:Generated_Source\PSoC6/GraphicLCDIntf_1.c ****         GraphicLCDIntf_1_DATA_FIFO_REG = wrData;
 143              		.loc 1 123 0
 144 000e 03F58073 		add	r3, r3, #256
 145 0012 1970     		strb	r1, [r3]
 146 0014 7047     		bx	lr
 147              	.L14:
 148 0016 00BF     		.align	2
 149              	.L13:
 150 0018 24163440 		.word	1077155364
 151 001c 20143440 		.word	1077154848
 152              		.cfi_endproc
 153              	.LFE136:
 154              		.size	GraphicLCDIntf_1_Write8, .-GraphicLCDIntf_1_Write8
 155              		.section	.text.GraphicLCDIntf_1_WriteM8,"ax",%progbits
 156              		.align	2
 157              		.global	GraphicLCDIntf_1_WriteM8
 158              		.thumb
 159              		.thumb_func
 160              		.type	GraphicLCDIntf_1_WriteM8, %function
 161              	GraphicLCDIntf_1_WriteM8:
 162              	.LFB137:
ARM GAS  C:\Users\pearlstl\AppData\Local\Temp\cc9vcmrU.s 			page 6


 124:Generated_Source\PSoC6/GraphicLCDIntf_1.c ****     #endif /* GraphicLCDIntf_1_BUS_WIDTH == 16u */
 125:Generated_Source\PSoC6/GraphicLCDIntf_1.c **** }
 126:Generated_Source\PSoC6/GraphicLCDIntf_1.c **** 	
 127:Generated_Source\PSoC6/GraphicLCDIntf_1.c **** 
 128:Generated_Source\PSoC6/GraphicLCDIntf_1.c **** /*******************************************************************************
 129:Generated_Source\PSoC6/GraphicLCDIntf_1.c **** * Function Name: GraphicLCDIntf_1_WriteM8
 130:Generated_Source\PSoC6/GraphicLCDIntf_1.c **** ********************************************************************************
 131:Generated_Source\PSoC6/GraphicLCDIntf_1.c **** *
 132:Generated_Source\PSoC6/GraphicLCDIntf_1.c **** * Summary:
 133:Generated_Source\PSoC6/GraphicLCDIntf_1.c **** *  Initiates multiple write transactions on the 8-bit 
 134:Generated_Source\PSoC6/GraphicLCDIntf_1.c **** *  parallel interface. The write is a posted write, so this function will return
 135:Generated_Source\PSoC6/GraphicLCDIntf_1.c **** *  before the write has actually completed on the interface. If the command 
 136:Generated_Source\PSoC6/GraphicLCDIntf_1.c **** *  queue is full, this function will not return until space is available to queue
 137:Generated_Source\PSoC6/GraphicLCDIntf_1.c **** *  this write request.
 138:Generated_Source\PSoC6/GraphicLCDIntf_1.c **** *
 139:Generated_Source\PSoC6/GraphicLCDIntf_1.c **** * Parameters:
 140:Generated_Source\PSoC6/GraphicLCDIntf_1.c **** *  d_c:    The Data(1) or Command(0) indication. Passed to the d_c pin.
 141:Generated_Source\PSoC6/GraphicLCDIntf_1.c **** *
 142:Generated_Source\PSoC6/GraphicLCDIntf_1.c **** *  wrData: The pointer to the the first element of a data buffer sent to the do_msb[7:0]
 143:Generated_Source\PSoC6/GraphicLCDIntf_1.c **** *          (most significant byte) and do_lsb[7:0] (least significant byte) pins. 
 144:Generated_Source\PSoC6/GraphicLCDIntf_1.c **** *          do_msb[7:0] presents only for the 16-bit interface.
 145:Generated_Source\PSoC6/GraphicLCDIntf_1.c **** *
 146:Generated_Source\PSoC6/GraphicLCDIntf_1.c **** *  num:    The number of words/bytes to write.
 147:Generated_Source\PSoC6/GraphicLCDIntf_1.c **** *
 148:Generated_Source\PSoC6/GraphicLCDIntf_1.c **** *******************************************************************************/
 149:Generated_Source\PSoC6/GraphicLCDIntf_1.c **** void GraphicLCDIntf_1_WriteM8(uint8 d_c, uint8 wrData[], uint16 num) 
 150:Generated_Source\PSoC6/GraphicLCDIntf_1.c **** {
 163              		.loc 1 150 0
 164              		.cfi_startproc
 165              		@ args = 0, pretend = 0, frame = 0
 166              		@ frame_needed = 0, uses_anonymous_args = 0
 167              		@ link register save eliminated.
 168              	.LVL2:
 169 0000 30B4     		push	{r4, r5}
 170              		.cfi_def_cfa_offset 8
 171              		.cfi_offset 4, -8
 172              		.cfi_offset 5, -4
 173              	.LVL3:
 151:Generated_Source\PSoC6/GraphicLCDIntf_1.c ****     uint32 i;
 152:Generated_Source\PSoC6/GraphicLCDIntf_1.c ****     
 153:Generated_Source\PSoC6/GraphicLCDIntf_1.c ****     for(i = 0u; i < num; i++)
 174              		.loc 1 153 0
 175 0002 0024     		movs	r4, #0
 176 0004 0BE0     		b	.L16
 177              	.LVL4:
 178              	.L17:
 154:Generated_Source\PSoC6/GraphicLCDIntf_1.c ****     {
 155:Generated_Source\PSoC6/GraphicLCDIntf_1.c ****         while((GraphicLCDIntf_1_STATUS_REG & GraphicLCDIntf_1_CMD_QUEUE_FULL) != 0u)
 179              		.loc 1 155 0 discriminator 1
 180 0006 084B     		ldr	r3, .L19
 181 0008 1B78     		ldrb	r3, [r3]	@ zero_extendqisi2
 182 000a 13F0010F 		tst	r3, #1
 183 000e FAD1     		bne	.L17
 156:Generated_Source\PSoC6/GraphicLCDIntf_1.c ****         {
 157:Generated_Source\PSoC6/GraphicLCDIntf_1.c ****             /* The command queue is full */
 158:Generated_Source\PSoC6/GraphicLCDIntf_1.c ****         }   
 159:Generated_Source\PSoC6/GraphicLCDIntf_1.c ****         GraphicLCDIntf_1_CMD_FIFO_REG = d_c;  
ARM GAS  C:\Users\pearlstl\AppData\Local\Temp\cc9vcmrU.s 			page 7


 184              		.loc 1 159 0 discriminator 2
 185 0010 064B     		ldr	r3, .L19+4
 186 0012 1870     		strb	r0, [r3]
 160:Generated_Source\PSoC6/GraphicLCDIntf_1.c ****  
 161:Generated_Source\PSoC6/GraphicLCDIntf_1.c ****         #if (GraphicLCDIntf_1_BUS_WIDTH == 16u)
 162:Generated_Source\PSoC6/GraphicLCDIntf_1.c ****             CY_SET_REG16(GraphicLCDIntf_1_DATA_FIFO_PTR, wrData[i]);
 163:Generated_Source\PSoC6/GraphicLCDIntf_1.c ****         #else /* 8-bit interface */
 164:Generated_Source\PSoC6/GraphicLCDIntf_1.c ****             GraphicLCDIntf_1_DATA_FIFO_REG = wrData[i];
 187              		.loc 1 164 0 discriminator 2
 188 0014 0D5D     		ldrb	r5, [r1, r4]	@ zero_extendqisi2
 189 0016 03F58073 		add	r3, r3, #256
 190 001a 1D70     		strb	r5, [r3]
 153:Generated_Source\PSoC6/GraphicLCDIntf_1.c ****     {
 191              		.loc 1 153 0 discriminator 2
 192 001c 0134     		adds	r4, r4, #1
 193              	.LVL5:
 194              	.L16:
 153:Generated_Source\PSoC6/GraphicLCDIntf_1.c ****     {
 195              		.loc 1 153 0 is_stmt 0 discriminator 1
 196 001e 9442     		cmp	r4, r2
 197 0020 F1D3     		bcc	.L17
 165:Generated_Source\PSoC6/GraphicLCDIntf_1.c ****         #endif /* GraphicLCDIntf_1_BUS_WIDTH == 16u */
 166:Generated_Source\PSoC6/GraphicLCDIntf_1.c ****     }
 167:Generated_Source\PSoC6/GraphicLCDIntf_1.c **** }
 198              		.loc 1 167 0 is_stmt 1
 199 0022 30BC     		pop	{r4, r5}
 200              		.cfi_restore 5
 201              		.cfi_restore 4
 202              		.cfi_def_cfa_offset 0
 203              	.LVL6:
 204 0024 7047     		bx	lr
 205              	.L20:
 206 0026 00BF     		.align	2
 207              	.L19:
 208 0028 24163440 		.word	1077155364
 209 002c 20143440 		.word	1077154848
 210              		.cfi_endproc
 211              	.LFE137:
 212              		.size	GraphicLCDIntf_1_WriteM8, .-GraphicLCDIntf_1_WriteM8
 213              		.section	.text.GraphicLCDIntf_1_Read8,"ax",%progbits
 214              		.align	2
 215              		.global	GraphicLCDIntf_1_Read8
 216              		.thumb
 217              		.thumb_func
 218              		.type	GraphicLCDIntf_1_Read8, %function
 219              	GraphicLCDIntf_1_Read8:
 220              	.LFB138:
 168:Generated_Source\PSoC6/GraphicLCDIntf_1.c **** 
 169:Generated_Source\PSoC6/GraphicLCDIntf_1.c **** 
 170:Generated_Source\PSoC6/GraphicLCDIntf_1.c **** /*******************************************************************************
 171:Generated_Source\PSoC6/GraphicLCDIntf_1.c **** * Function Name: GraphicLCDIntf_1_Read8
 172:Generated_Source\PSoC6/GraphicLCDIntf_1.c **** ********************************************************************************
 173:Generated_Source\PSoC6/GraphicLCDIntf_1.c **** *
 174:Generated_Source\PSoC6/GraphicLCDIntf_1.c **** * Summary:
 175:Generated_Source\PSoC6/GraphicLCDIntf_1.c **** *  Initiates a read transaction on the 8-bit parallel interface.
 176:Generated_Source\PSoC6/GraphicLCDIntf_1.c **** *  The read will execute after all currently posted writes have completed. This 
 177:Generated_Source\PSoC6/GraphicLCDIntf_1.c **** *  function will wait until the read completes and then returns the read value.
ARM GAS  C:\Users\pearlstl\AppData\Local\Temp\cc9vcmrU.s 			page 8


 178:Generated_Source\PSoC6/GraphicLCDIntf_1.c **** *
 179:Generated_Source\PSoC6/GraphicLCDIntf_1.c **** * Parameters:
 180:Generated_Source\PSoC6/GraphicLCDIntf_1.c **** *  d_c: Data(1) or Command(0) indication. Passed to the d_c pin.
 181:Generated_Source\PSoC6/GraphicLCDIntf_1.c **** *
 182:Generated_Source\PSoC6/GraphicLCDIntf_1.c **** * Return:
 183:Generated_Source\PSoC6/GraphicLCDIntf_1.c **** *  The 16-bit read value from the di_msb[7:0] (most significant byte) and 
 184:Generated_Source\PSoC6/GraphicLCDIntf_1.c **** *  di_lsb[7:0] (least significant byte) pins for the 16-bit interface or the 
 185:Generated_Source\PSoC6/GraphicLCDIntf_1.c **** *  8-bit read value from the di_lsb[7:0] for 8-bit interface.
 186:Generated_Source\PSoC6/GraphicLCDIntf_1.c **** *
 187:Generated_Source\PSoC6/GraphicLCDIntf_1.c **** *******************************************************************************/
 188:Generated_Source\PSoC6/GraphicLCDIntf_1.c **** uint8 GraphicLCDIntf_1_Read8(uint8 d_c) 
 189:Generated_Source\PSoC6/GraphicLCDIntf_1.c **** {
 221              		.loc 1 189 0
 222              		.cfi_startproc
 223              		@ args = 0, pretend = 0, frame = 0
 224              		@ frame_needed = 0, uses_anonymous_args = 0
 225              		@ link register save eliminated.
 226              	.LVL7:
 227              	.L22:
 190:Generated_Source\PSoC6/GraphicLCDIntf_1.c ****     while((GraphicLCDIntf_1_STATUS_REG & GraphicLCDIntf_1_CMD_QUEUE_FULL) != 0u)
 228              		.loc 1 190 0 discriminator 1
 229 0000 084B     		ldr	r3, .L24
 230 0002 1B78     		ldrb	r3, [r3]	@ zero_extendqisi2
 231 0004 13F0010F 		tst	r3, #1
 232 0008 FAD1     		bne	.L22
 191:Generated_Source\PSoC6/GraphicLCDIntf_1.c ****     {
 192:Generated_Source\PSoC6/GraphicLCDIntf_1.c ****         /* The command queue is full */
 193:Generated_Source\PSoC6/GraphicLCDIntf_1.c ****     }   
 194:Generated_Source\PSoC6/GraphicLCDIntf_1.c ****     GraphicLCDIntf_1_CMD_FIFO_REG = d_c | GraphicLCDIntf_1_READ_COMMAND;
 233              		.loc 1 194 0
 234 000a 40F00200 		orr	r0, r0, #2
 235              	.LVL8:
 236 000e 064B     		ldr	r3, .L24+4
 237 0010 1870     		strb	r0, [r3]
 238              	.L23:
 195:Generated_Source\PSoC6/GraphicLCDIntf_1.c ****     
 196:Generated_Source\PSoC6/GraphicLCDIntf_1.c ****     while((GraphicLCDIntf_1_STATUS_REG & GraphicLCDIntf_1_DATA_VALID) != GraphicLCDIntf_1_DATA_VALI
 239              		.loc 1 196 0 discriminator 1
 240 0012 044B     		ldr	r3, .L24
 241 0014 1B78     		ldrb	r3, [r3]	@ zero_extendqisi2
 242 0016 13F0020F 		tst	r3, #2
 243 001a FAD0     		beq	.L23
 197:Generated_Source\PSoC6/GraphicLCDIntf_1.c ****     {
 198:Generated_Source\PSoC6/GraphicLCDIntf_1.c ****         /* Wait until input data is valid */
 199:Generated_Source\PSoC6/GraphicLCDIntf_1.c ****     }
 200:Generated_Source\PSoC6/GraphicLCDIntf_1.c ****     
 201:Generated_Source\PSoC6/GraphicLCDIntf_1.c ****     #if (GraphicLCDIntf_1_BUS_WIDTH == 8u)  /* 8-bit interface */
 202:Generated_Source\PSoC6/GraphicLCDIntf_1.c ****         return (GraphicLCDIntf_1_DIN_LSB_DATA_REG);
 244              		.loc 1 202 0
 245 001c 034B     		ldr	r3, .L24+8
 246 001e 1878     		ldrb	r0, [r3]	@ zero_extendqisi2
 203:Generated_Source\PSoC6/GraphicLCDIntf_1.c ****     #else   /* 16-bit interface */
 204:Generated_Source\PSoC6/GraphicLCDIntf_1.c ****         return (uint16)((uint16)GraphicLCDIntf_1_DIN_MSB_DATA_REG << 8u) | GraphicLCDIntf_1_DIN_LSB
 205:Generated_Source\PSoC6/GraphicLCDIntf_1.c ****     #endif /* GraphicLCDIntf_1_BUS_WIDTH == 8u */
 206:Generated_Source\PSoC6/GraphicLCDIntf_1.c **** }
 247              		.loc 1 206 0
 248 0020 7047     		bx	lr
ARM GAS  C:\Users\pearlstl\AppData\Local\Temp\cc9vcmrU.s 			page 9


 249              	.L25:
 250 0022 00BF     		.align	2
 251              	.L24:
 252 0024 24163440 		.word	1077155364
 253 0028 20143440 		.word	1077154848
 254 002c 20163440 		.word	1077155360
 255              		.cfi_endproc
 256              	.LFE138:
 257              		.size	GraphicLCDIntf_1_Read8, .-GraphicLCDIntf_1_Read8
 258              		.section	.text.GraphicLCDIntf_1_ReadM8,"ax",%progbits
 259              		.align	2
 260              		.global	GraphicLCDIntf_1_ReadM8
 261              		.thumb
 262              		.thumb_func
 263              		.type	GraphicLCDIntf_1_ReadM8, %function
 264              	GraphicLCDIntf_1_ReadM8:
 265              	.LFB139:
 207:Generated_Source\PSoC6/GraphicLCDIntf_1.c **** 
 208:Generated_Source\PSoC6/GraphicLCDIntf_1.c **** 
 209:Generated_Source\PSoC6/GraphicLCDIntf_1.c **** /*******************************************************************************
 210:Generated_Source\PSoC6/GraphicLCDIntf_1.c **** * Function Name: GraphicLCDIntf_1_ReadM8
 211:Generated_Source\PSoC6/GraphicLCDIntf_1.c **** ********************************************************************************
 212:Generated_Source\PSoC6/GraphicLCDIntf_1.c **** *
 213:Generated_Source\PSoC6/GraphicLCDIntf_1.c **** * Summary:
 214:Generated_Source\PSoC6/GraphicLCDIntf_1.c **** *  Initiates multiple read transactions on the 8-bit 
 215:Generated_Source\PSoC6/GraphicLCDIntf_1.c **** *  parallel interface. The read will execute after all currently posted writes 
 216:Generated_Source\PSoC6/GraphicLCDIntf_1.c **** *  have completed. This function will wait until the read completes and then 
 217:Generated_Source\PSoC6/GraphicLCDIntf_1.c **** *  returns the read value.
 218:Generated_Source\PSoC6/GraphicLCDIntf_1.c **** *
 219:Generated_Source\PSoC6/GraphicLCDIntf_1.c **** * Parameters:
 220:Generated_Source\PSoC6/GraphicLCDIntf_1.c **** *  d_c:    The Data(1) or Command(0) indication. Passed to the d_c pin.
 221:Generated_Source\PSoC6/GraphicLCDIntf_1.c **** *
 222:Generated_Source\PSoC6/GraphicLCDIntf_1.c **** *  rdData: The pointer to the the first element of a data buffer read from the do_msb[7:0]
 223:Generated_Source\PSoC6/GraphicLCDIntf_1.c **** *          (most significant byte) and do_lsb[7:0] (least significant byte) pins. 
 224:Generated_Source\PSoC6/GraphicLCDIntf_1.c **** *          do_msb[7:0] presents only for the 16-bit interface.
 225:Generated_Source\PSoC6/GraphicLCDIntf_1.c **** *
 226:Generated_Source\PSoC6/GraphicLCDIntf_1.c **** *  num:    The number of words/bytes to read.
 227:Generated_Source\PSoC6/GraphicLCDIntf_1.c **** *
 228:Generated_Source\PSoC6/GraphicLCDIntf_1.c **** *******************************************************************************/
 229:Generated_Source\PSoC6/GraphicLCDIntf_1.c **** void GraphicLCDIntf_1_ReadM8(uint8 d_c, uint8 rdData[], uint16 num) 
 230:Generated_Source\PSoC6/GraphicLCDIntf_1.c **** {
 266              		.loc 1 230 0
 267              		.cfi_startproc
 268              		@ args = 0, pretend = 0, frame = 0
 269              		@ frame_needed = 0, uses_anonymous_args = 0
 270              	.LVL9:
 271 0000 F8B5     		push	{r3, r4, r5, r6, r7, lr}
 272              		.cfi_def_cfa_offset 24
 273              		.cfi_offset 3, -24
 274              		.cfi_offset 4, -20
 275              		.cfi_offset 5, -16
 276              		.cfi_offset 6, -12
 277              		.cfi_offset 7, -8
 278              		.cfi_offset 14, -4
 279 0002 0746     		mov	r7, r0
 280 0004 0E46     		mov	r6, r1
 281 0006 1546     		mov	r5, r2
ARM GAS  C:\Users\pearlstl\AppData\Local\Temp\cc9vcmrU.s 			page 10


 282              	.LVL10:
 231:Generated_Source\PSoC6/GraphicLCDIntf_1.c ****     uint32 i;
 232:Generated_Source\PSoC6/GraphicLCDIntf_1.c ****     
 233:Generated_Source\PSoC6/GraphicLCDIntf_1.c ****     for(i = 0u; i < num; i++)
 283              		.loc 1 233 0
 284 0008 0024     		movs	r4, #0
 285 000a 04E0     		b	.L27
 286              	.LVL11:
 287              	.L28:
 234:Generated_Source\PSoC6/GraphicLCDIntf_1.c ****     {
 235:Generated_Source\PSoC6/GraphicLCDIntf_1.c ****         rdData[i] = GraphicLCDIntf_1_Read8(d_c);
 288              		.loc 1 235 0 discriminator 3
 289 000c 3846     		mov	r0, r7
 290 000e FFF7FEFF 		bl	GraphicLCDIntf_1_Read8
 291              	.LVL12:
 292 0012 3055     		strb	r0, [r6, r4]
 233:Generated_Source\PSoC6/GraphicLCDIntf_1.c ****     {
 293              		.loc 1 233 0 discriminator 3
 294 0014 0134     		adds	r4, r4, #1
 295              	.LVL13:
 296              	.L27:
 233:Generated_Source\PSoC6/GraphicLCDIntf_1.c ****     {
 297              		.loc 1 233 0 is_stmt 0 discriminator 1
 298 0016 AC42     		cmp	r4, r5
 299 0018 F8D3     		bcc	.L28
 236:Generated_Source\PSoC6/GraphicLCDIntf_1.c ****     }
 237:Generated_Source\PSoC6/GraphicLCDIntf_1.c **** }
 300              		.loc 1 237 0 is_stmt 1
 301 001a F8BD     		pop	{r3, r4, r5, r6, r7, pc}
 302              		.cfi_endproc
 303              	.LFE139:
 304              		.size	GraphicLCDIntf_1_ReadM8, .-GraphicLCDIntf_1_ReadM8
 305              		.section	.text.GraphicLCDIntf_1_Write8_A0,"ax",%progbits
 306              		.align	2
 307              		.global	GraphicLCDIntf_1_Write8_A0
 308              		.thumb
 309              		.thumb_func
 310              		.type	GraphicLCDIntf_1_Write8_A0, %function
 311              	GraphicLCDIntf_1_Write8_A0:
 312              	.LFB140:
 238:Generated_Source\PSoC6/GraphicLCDIntf_1.c **** 
 239:Generated_Source\PSoC6/GraphicLCDIntf_1.c **** 
 240:Generated_Source\PSoC6/GraphicLCDIntf_1.c **** /*******************************************************************************
 241:Generated_Source\PSoC6/GraphicLCDIntf_1.c **** * Function Name: GraphicLCDIntf_1_Write8_A0
 242:Generated_Source\PSoC6/GraphicLCDIntf_1.c **** ********************************************************************************
 243:Generated_Source\PSoC6/GraphicLCDIntf_1.c **** *
 244:Generated_Source\PSoC6/GraphicLCDIntf_1.c **** * Summary:
 245:Generated_Source\PSoC6/GraphicLCDIntf_1.c **** *  Initiates a write transaction on the 8-bit parallel
 246:Generated_Source\PSoC6/GraphicLCDIntf_1.c **** *  interface with the d_c pin set to 0.
 247:Generated_Source\PSoC6/GraphicLCDIntf_1.c **** *  The write is a posted write, so this function will return before the write 
 248:Generated_Source\PSoC6/GraphicLCDIntf_1.c **** *  has actually completed on the interface. If the command queue is full, this 
 249:Generated_Source\PSoC6/GraphicLCDIntf_1.c **** *  function will not return until space is availale to queue this write request.
 250:Generated_Source\PSoC6/GraphicLCDIntf_1.c **** *
 251:Generated_Source\PSoC6/GraphicLCDIntf_1.c **** * Parameters:
 252:Generated_Source\PSoC6/GraphicLCDIntf_1.c **** *  wrData: Data sent on the do_msb[7:0] (most significant byte) 
 253:Generated_Source\PSoC6/GraphicLCDIntf_1.c **** *         and do_lsb[7:0] (least significant byte) pins. do_msb[7:0]
 254:Generated_Source\PSoC6/GraphicLCDIntf_1.c **** *         presents only for 16-bit interface.
ARM GAS  C:\Users\pearlstl\AppData\Local\Temp\cc9vcmrU.s 			page 11


 255:Generated_Source\PSoC6/GraphicLCDIntf_1.c **** *
 256:Generated_Source\PSoC6/GraphicLCDIntf_1.c **** *******************************************************************************/
 257:Generated_Source\PSoC6/GraphicLCDIntf_1.c **** void GraphicLCDIntf_1_Write8_A0(uint8 wrData) 
 258:Generated_Source\PSoC6/GraphicLCDIntf_1.c **** {
 313              		.loc 1 258 0
 314              		.cfi_startproc
 315              		@ args = 0, pretend = 0, frame = 0
 316              		@ frame_needed = 0, uses_anonymous_args = 0
 317              		@ link register save eliminated.
 318              	.LVL14:
 319              	.L31:
 259:Generated_Source\PSoC6/GraphicLCDIntf_1.c ****     while((GraphicLCDIntf_1_STATUS_REG & GraphicLCDIntf_1_CMD_QUEUE_FULL) != 0u)
 320              		.loc 1 259 0 discriminator 1
 321 0000 054B     		ldr	r3, .L32
 322 0002 1B78     		ldrb	r3, [r3]	@ zero_extendqisi2
 323 0004 13F0010F 		tst	r3, #1
 324 0008 FAD1     		bne	.L31
 260:Generated_Source\PSoC6/GraphicLCDIntf_1.c ****     {
 261:Generated_Source\PSoC6/GraphicLCDIntf_1.c ****         /* Command queue is full */
 262:Generated_Source\PSoC6/GraphicLCDIntf_1.c ****     }   
 263:Generated_Source\PSoC6/GraphicLCDIntf_1.c ****     GraphicLCDIntf_1_CMD_FIFO_REG = 0u;
 325              		.loc 1 263 0
 326 000a 0022     		movs	r2, #0
 327 000c 034B     		ldr	r3, .L32+4
 328 000e 1A70     		strb	r2, [r3]
 264:Generated_Source\PSoC6/GraphicLCDIntf_1.c ****     #if (GraphicLCDIntf_1_BUS_WIDTH == 16u)
 265:Generated_Source\PSoC6/GraphicLCDIntf_1.c ****         CY_SET_REG16(GraphicLCDIntf_1_DATA_FIFO_PTR, wrData);
 266:Generated_Source\PSoC6/GraphicLCDIntf_1.c ****     #else /* 8-bit interface */
 267:Generated_Source\PSoC6/GraphicLCDIntf_1.c ****         GraphicLCDIntf_1_DATA_FIFO_REG = wrData;
 329              		.loc 1 267 0
 330 0010 03F58073 		add	r3, r3, #256
 331 0014 1870     		strb	r0, [r3]
 332 0016 7047     		bx	lr
 333              	.L33:
 334              		.align	2
 335              	.L32:
 336 0018 24163440 		.word	1077155364
 337 001c 20143440 		.word	1077154848
 338              		.cfi_endproc
 339              	.LFE140:
 340              		.size	GraphicLCDIntf_1_Write8_A0, .-GraphicLCDIntf_1_Write8_A0
 341              		.section	.text.GraphicLCDIntf_1_Write8_A1,"ax",%progbits
 342              		.align	2
 343              		.global	GraphicLCDIntf_1_Write8_A1
 344              		.thumb
 345              		.thumb_func
 346              		.type	GraphicLCDIntf_1_Write8_A1, %function
 347              	GraphicLCDIntf_1_Write8_A1:
 348              	.LFB141:
 268:Generated_Source\PSoC6/GraphicLCDIntf_1.c ****     #endif /* GraphicLCDIntf_1_BUS_WIDTH == 16u */
 269:Generated_Source\PSoC6/GraphicLCDIntf_1.c **** }
 270:Generated_Source\PSoC6/GraphicLCDIntf_1.c **** 
 271:Generated_Source\PSoC6/GraphicLCDIntf_1.c **** 
 272:Generated_Source\PSoC6/GraphicLCDIntf_1.c **** /*******************************************************************************
 273:Generated_Source\PSoC6/GraphicLCDIntf_1.c **** * Function Name: GraphicLCDIntf_1_Write8_A1
 274:Generated_Source\PSoC6/GraphicLCDIntf_1.c **** ********************************************************************************
 275:Generated_Source\PSoC6/GraphicLCDIntf_1.c **** *
ARM GAS  C:\Users\pearlstl\AppData\Local\Temp\cc9vcmrU.s 			page 12


 276:Generated_Source\PSoC6/GraphicLCDIntf_1.c **** * Summary:
 277:Generated_Source\PSoC6/GraphicLCDIntf_1.c **** *  Initiates a write transaction on the 8-bit 
 278:Generated_Source\PSoC6/GraphicLCDIntf_1.c **** *  parallel interface with the d_c pin set to 1. The write is a posted write, 
 279:Generated_Source\PSoC6/GraphicLCDIntf_1.c **** *  so this function will return before the write has actually completed on the 
 280:Generated_Source\PSoC6/GraphicLCDIntf_1.c **** *  interface. If the command queue is full, this function will not return until
 281:Generated_Source\PSoC6/GraphicLCDIntf_1.c **** *  space is availale to queue this write request.
 282:Generated_Source\PSoC6/GraphicLCDIntf_1.c **** *
 283:Generated_Source\PSoC6/GraphicLCDIntf_1.c **** * Parameters:
 284:Generated_Source\PSoC6/GraphicLCDIntf_1.c **** *  wrData: Data sent on the do_msb[7:0] (most significant byte) 
 285:Generated_Source\PSoC6/GraphicLCDIntf_1.c **** *          and do_lsb[7:0] (least significant byte) pins. do_msb[7:0]
 286:Generated_Source\PSoC6/GraphicLCDIntf_1.c **** *          presents only for 16-bit interface.
 287:Generated_Source\PSoC6/GraphicLCDIntf_1.c **** *
 288:Generated_Source\PSoC6/GraphicLCDIntf_1.c **** *******************************************************************************/
 289:Generated_Source\PSoC6/GraphicLCDIntf_1.c **** void GraphicLCDIntf_1_Write8_A1(uint8 wrData) 
 290:Generated_Source\PSoC6/GraphicLCDIntf_1.c **** {
 349              		.loc 1 290 0
 350              		.cfi_startproc
 351              		@ args = 0, pretend = 0, frame = 0
 352              		@ frame_needed = 0, uses_anonymous_args = 0
 353              		@ link register save eliminated.
 354              	.LVL15:
 355              	.L35:
 291:Generated_Source\PSoC6/GraphicLCDIntf_1.c ****     while((GraphicLCDIntf_1_STATUS_REG & GraphicLCDIntf_1_CMD_QUEUE_FULL) != 0u)
 356              		.loc 1 291 0 discriminator 1
 357 0000 054B     		ldr	r3, .L36
 358 0002 1B78     		ldrb	r3, [r3]	@ zero_extendqisi2
 359 0004 13F0010F 		tst	r3, #1
 360 0008 FAD1     		bne	.L35
 292:Generated_Source\PSoC6/GraphicLCDIntf_1.c ****     {
 293:Generated_Source\PSoC6/GraphicLCDIntf_1.c ****         /* Command queue is full */
 294:Generated_Source\PSoC6/GraphicLCDIntf_1.c ****     }   
 295:Generated_Source\PSoC6/GraphicLCDIntf_1.c ****     GraphicLCDIntf_1_CMD_FIFO_REG = 1u;
 361              		.loc 1 295 0
 362 000a 0122     		movs	r2, #1
 363 000c 034B     		ldr	r3, .L36+4
 364 000e 1A70     		strb	r2, [r3]
 296:Generated_Source\PSoC6/GraphicLCDIntf_1.c ****     #if (GraphicLCDIntf_1_BUS_WIDTH == 16u)
 297:Generated_Source\PSoC6/GraphicLCDIntf_1.c ****         CY_SET_REG16(GraphicLCDIntf_1_DATA_FIFO_PTR, wrData);
 298:Generated_Source\PSoC6/GraphicLCDIntf_1.c ****     #else /* 8-bit interface */
 299:Generated_Source\PSoC6/GraphicLCDIntf_1.c ****         GraphicLCDIntf_1_DATA_FIFO_REG = wrData;
 365              		.loc 1 299 0
 366 0010 03F58073 		add	r3, r3, #256
 367 0014 1870     		strb	r0, [r3]
 368 0016 7047     		bx	lr
 369              	.L37:
 370              		.align	2
 371              	.L36:
 372 0018 24163440 		.word	1077155364
 373 001c 20143440 		.word	1077154848
 374              		.cfi_endproc
 375              	.LFE141:
 376              		.size	GraphicLCDIntf_1_Write8_A1, .-GraphicLCDIntf_1_Write8_A1
 377              		.section	.text.GraphicLCDIntf_1_WriteM8_A0,"ax",%progbits
 378              		.align	2
 379              		.global	GraphicLCDIntf_1_WriteM8_A0
 380              		.thumb
 381              		.thumb_func
ARM GAS  C:\Users\pearlstl\AppData\Local\Temp\cc9vcmrU.s 			page 13


 382              		.type	GraphicLCDIntf_1_WriteM8_A0, %function
 383              	GraphicLCDIntf_1_WriteM8_A0:
 384              	.LFB142:
 300:Generated_Source\PSoC6/GraphicLCDIntf_1.c ****     #endif /* GraphicLCDIntf_1_BUS_WIDTH == 16u */
 301:Generated_Source\PSoC6/GraphicLCDIntf_1.c **** }
 302:Generated_Source\PSoC6/GraphicLCDIntf_1.c **** 
 303:Generated_Source\PSoC6/GraphicLCDIntf_1.c **** 
 304:Generated_Source\PSoC6/GraphicLCDIntf_1.c **** /*******************************************************************************
 305:Generated_Source\PSoC6/GraphicLCDIntf_1.c **** * Function Name: GraphicLCDIntf_1_WriteM8_A0
 306:Generated_Source\PSoC6/GraphicLCDIntf_1.c **** ********************************************************************************
 307:Generated_Source\PSoC6/GraphicLCDIntf_1.c **** *
 308:Generated_Source\PSoC6/GraphicLCDIntf_1.c **** * Summary:
 309:Generated_Source\PSoC6/GraphicLCDIntf_1.c **** *  Initiates multiple write transactions on the 8-bit 
 310:Generated_Source\PSoC6/GraphicLCDIntf_1.c **** *  parallel interface with the d_c pin set to 0. The write is a posted write, 
 311:Generated_Source\PSoC6/GraphicLCDIntf_1.c **** *  so this function will return before the write has actually completed on the 
 312:Generated_Source\PSoC6/GraphicLCDIntf_1.c **** *  interface. If the command queue is full, this function will not return until
 313:Generated_Source\PSoC6/GraphicLCDIntf_1.c **** *  space is availale to queue this write request.
 314:Generated_Source\PSoC6/GraphicLCDIntf_1.c **** *
 315:Generated_Source\PSoC6/GraphicLCDIntf_1.c **** * Parameters:
 316:Generated_Source\PSoC6/GraphicLCDIntf_1.c **** *  wrData: Pointer to the the first element of a data buffer sent on the 
 317:Generated_Source\PSoC6/GraphicLCDIntf_1.c **** *          do_msb[7:0] (most significant byte) and do_lsb[7:0] (least significant
 318:Generated_Source\PSoC6/GraphicLCDIntf_1.c **** *          byte) pins. do_msb[7:0] presents only for 16-bit interface.
 319:Generated_Source\PSoC6/GraphicLCDIntf_1.c **** *
 320:Generated_Source\PSoC6/GraphicLCDIntf_1.c **** *  num:  Number of words/bytes to write.
 321:Generated_Source\PSoC6/GraphicLCDIntf_1.c **** *
 322:Generated_Source\PSoC6/GraphicLCDIntf_1.c **** *******************************************************************************/
 323:Generated_Source\PSoC6/GraphicLCDIntf_1.c **** void GraphicLCDIntf_1_WriteM8_A0(uint8 wrData[], int num) 
 324:Generated_Source\PSoC6/GraphicLCDIntf_1.c **** {
 385              		.loc 1 324 0
 386              		.cfi_startproc
 387              		@ args = 0, pretend = 0, frame = 0
 388              		@ frame_needed = 0, uses_anonymous_args = 0
 389              	.LVL16:
 390 0000 08B5     		push	{r3, lr}
 391              		.cfi_def_cfa_offset 8
 392              		.cfi_offset 3, -8
 393              		.cfi_offset 14, -4
 325:Generated_Source\PSoC6/GraphicLCDIntf_1.c ****     GraphicLCDIntf_1_WriteM8(0u, wrData, (uint16)num);
 394              		.loc 1 325 0
 395 0002 8AB2     		uxth	r2, r1
 396 0004 0146     		mov	r1, r0
 397              	.LVL17:
 398 0006 0020     		movs	r0, #0
 399              	.LVL18:
 400 0008 FFF7FEFF 		bl	GraphicLCDIntf_1_WriteM8
 401              	.LVL19:
 402 000c 08BD     		pop	{r3, pc}
 403              		.cfi_endproc
 404              	.LFE142:
 405              		.size	GraphicLCDIntf_1_WriteM8_A0, .-GraphicLCDIntf_1_WriteM8_A0
 406 000e 00BF     		.section	.text.GraphicLCDIntf_1_WriteM8_A1,"ax",%progbits
 407              		.align	2
 408              		.global	GraphicLCDIntf_1_WriteM8_A1
 409              		.thumb
 410              		.thumb_func
 411              		.type	GraphicLCDIntf_1_WriteM8_A1, %function
 412              	GraphicLCDIntf_1_WriteM8_A1:
ARM GAS  C:\Users\pearlstl\AppData\Local\Temp\cc9vcmrU.s 			page 14


 413              	.LFB143:
 326:Generated_Source\PSoC6/GraphicLCDIntf_1.c **** }
 327:Generated_Source\PSoC6/GraphicLCDIntf_1.c **** 
 328:Generated_Source\PSoC6/GraphicLCDIntf_1.c **** 
 329:Generated_Source\PSoC6/GraphicLCDIntf_1.c **** /*******************************************************************************
 330:Generated_Source\PSoC6/GraphicLCDIntf_1.c **** * Function Name: GraphicLCDIntf_1_WriteM8_A1
 331:Generated_Source\PSoC6/GraphicLCDIntf_1.c **** ********************************************************************************
 332:Generated_Source\PSoC6/GraphicLCDIntf_1.c **** *
 333:Generated_Source\PSoC6/GraphicLCDIntf_1.c **** * Summary:
 334:Generated_Source\PSoC6/GraphicLCDIntf_1.c **** *  Initiates multiple data write transactions on the 8-bit 
 335:Generated_Source\PSoC6/GraphicLCDIntf_1.c **** *  parallel interface with the d_c pin set to 1. The write is a posted write, 
 336:Generated_Source\PSoC6/GraphicLCDIntf_1.c **** *  so this function will return before the write has actually completed on the 
 337:Generated_Source\PSoC6/GraphicLCDIntf_1.c **** *  interface. If the command queue is full, this function will not return until
 338:Generated_Source\PSoC6/GraphicLCDIntf_1.c **** *  space is availale to queue this write request.
 339:Generated_Source\PSoC6/GraphicLCDIntf_1.c **** *
 340:Generated_Source\PSoC6/GraphicLCDIntf_1.c **** * Parameters:
 341:Generated_Source\PSoC6/GraphicLCDIntf_1.c **** *  wrData: Pointer to the the first element of a data buffer sent on the 
 342:Generated_Source\PSoC6/GraphicLCDIntf_1.c **** *          do_msb[7:0] (most significant byte) and do_lsb[7:0] (least significant
 343:Generated_Source\PSoC6/GraphicLCDIntf_1.c **** *          byte) pins. do_msb[7:0] presents only for 16-bit interface.
 344:Generated_Source\PSoC6/GraphicLCDIntf_1.c **** *
 345:Generated_Source\PSoC6/GraphicLCDIntf_1.c **** *  num:  Number of words/bytes to write.
 346:Generated_Source\PSoC6/GraphicLCDIntf_1.c **** *
 347:Generated_Source\PSoC6/GraphicLCDIntf_1.c **** *******************************************************************************/
 348:Generated_Source\PSoC6/GraphicLCDIntf_1.c **** void GraphicLCDIntf_1_WriteM8_A1(uint8 wrData[], int num) 
 349:Generated_Source\PSoC6/GraphicLCDIntf_1.c **** {
 414              		.loc 1 349 0
 415              		.cfi_startproc
 416              		@ args = 0, pretend = 0, frame = 0
 417              		@ frame_needed = 0, uses_anonymous_args = 0
 418              	.LVL20:
 419 0000 08B5     		push	{r3, lr}
 420              		.cfi_def_cfa_offset 8
 421              		.cfi_offset 3, -8
 422              		.cfi_offset 14, -4
 350:Generated_Source\PSoC6/GraphicLCDIntf_1.c ****     GraphicLCDIntf_1_WriteM8(1u, wrData, (uint16)num);
 423              		.loc 1 350 0
 424 0002 8AB2     		uxth	r2, r1
 425 0004 0146     		mov	r1, r0
 426              	.LVL21:
 427 0006 0120     		movs	r0, #1
 428              	.LVL22:
 429 0008 FFF7FEFF 		bl	GraphicLCDIntf_1_WriteM8
 430              	.LVL23:
 431 000c 08BD     		pop	{r3, pc}
 432              		.cfi_endproc
 433              	.LFE143:
 434              		.size	GraphicLCDIntf_1_WriteM8_A1, .-GraphicLCDIntf_1_WriteM8_A1
 435 000e 00BF     		.section	.text.GraphicLCDIntf_1_Read8_A1,"ax",%progbits
 436              		.align	2
 437              		.global	GraphicLCDIntf_1_Read8_A1
 438              		.thumb
 439              		.thumb_func
 440              		.type	GraphicLCDIntf_1_Read8_A1, %function
 441              	GraphicLCDIntf_1_Read8_A1:
 442              	.LFB144:
 351:Generated_Source\PSoC6/GraphicLCDIntf_1.c **** }
 352:Generated_Source\PSoC6/GraphicLCDIntf_1.c **** 
ARM GAS  C:\Users\pearlstl\AppData\Local\Temp\cc9vcmrU.s 			page 15


 353:Generated_Source\PSoC6/GraphicLCDIntf_1.c **** 
 354:Generated_Source\PSoC6/GraphicLCDIntf_1.c **** /*******************************************************************************
 355:Generated_Source\PSoC6/GraphicLCDIntf_1.c **** * Function Name: GraphicLCDIntf_1_Read8_A1
 356:Generated_Source\PSoC6/GraphicLCDIntf_1.c **** ********************************************************************************
 357:Generated_Source\PSoC6/GraphicLCDIntf_1.c **** *
 358:Generated_Source\PSoC6/GraphicLCDIntf_1.c **** * Summary:
 359:Generated_Source\PSoC6/GraphicLCDIntf_1.c **** *  Initiates data read transaction on the 8-bit 
 360:Generated_Source\PSoC6/GraphicLCDIntf_1.c **** *  parallel interface with the d_c pin set to 1. The read will execute after 
 361:Generated_Source\PSoC6/GraphicLCDIntf_1.c **** *  all currently posted writes have completed. This function will wait until 
 362:Generated_Source\PSoC6/GraphicLCDIntf_1.c **** *  the read completes and then returns the read value.
 363:Generated_Source\PSoC6/GraphicLCDIntf_1.c **** *
 364:Generated_Source\PSoC6/GraphicLCDIntf_1.c **** * Return:
 365:Generated_Source\PSoC6/GraphicLCDIntf_1.c **** *  The 16-bit read value from the di_msb[7:0] (most significant byte) and 
 366:Generated_Source\PSoC6/GraphicLCDIntf_1.c **** *  di_lsb[7:0] (least significant byte) pins for the 16-bit interface or the 
 367:Generated_Source\PSoC6/GraphicLCDIntf_1.c **** *  8-bit read value from the di_lsb[7:0] for 8-bit interface.
 368:Generated_Source\PSoC6/GraphicLCDIntf_1.c **** *
 369:Generated_Source\PSoC6/GraphicLCDIntf_1.c **** *******************************************************************************/
 370:Generated_Source\PSoC6/GraphicLCDIntf_1.c **** uint8 GraphicLCDIntf_1_Read8_A1(void) 
 371:Generated_Source\PSoC6/GraphicLCDIntf_1.c **** {
 443              		.loc 1 371 0
 444              		.cfi_startproc
 445              		@ args = 0, pretend = 0, frame = 0
 446              		@ frame_needed = 0, uses_anonymous_args = 0
 447 0000 08B5     		push	{r3, lr}
 448              		.cfi_def_cfa_offset 8
 449              		.cfi_offset 3, -8
 450              		.cfi_offset 14, -4
 372:Generated_Source\PSoC6/GraphicLCDIntf_1.c ****     return GraphicLCDIntf_1_Read8(1u);
 451              		.loc 1 372 0
 452 0002 0120     		movs	r0, #1
 453 0004 FFF7FEFF 		bl	GraphicLCDIntf_1_Read8
 454              	.LVL24:
 373:Generated_Source\PSoC6/GraphicLCDIntf_1.c **** }
 455              		.loc 1 373 0
 456 0008 08BD     		pop	{r3, pc}
 457              		.cfi_endproc
 458              	.LFE144:
 459              		.size	GraphicLCDIntf_1_Read8_A1, .-GraphicLCDIntf_1_Read8_A1
 460 000a 00BF     		.section	.text.GraphicLCDIntf_1_ReadM8_A1,"ax",%progbits
 461              		.align	2
 462              		.global	GraphicLCDIntf_1_ReadM8_A1
 463              		.thumb
 464              		.thumb_func
 465              		.type	GraphicLCDIntf_1_ReadM8_A1, %function
 466              	GraphicLCDIntf_1_ReadM8_A1:
 467              	.LFB145:
 374:Generated_Source\PSoC6/GraphicLCDIntf_1.c **** 
 375:Generated_Source\PSoC6/GraphicLCDIntf_1.c **** 
 376:Generated_Source\PSoC6/GraphicLCDIntf_1.c **** /*******************************************************************************
 377:Generated_Source\PSoC6/GraphicLCDIntf_1.c **** * Function Name: GraphicLCDIntf_1_ReadM8_A1
 378:Generated_Source\PSoC6/GraphicLCDIntf_1.c **** ********************************************************************************
 379:Generated_Source\PSoC6/GraphicLCDIntf_1.c **** *
 380:Generated_Source\PSoC6/GraphicLCDIntf_1.c **** * Summary:
 381:Generated_Source\PSoC6/GraphicLCDIntf_1.c **** *  Initiates multiple data read transactions on the 8-bit 
 382:Generated_Source\PSoC6/GraphicLCDIntf_1.c **** *  parallel interface with the d_c pin set to 1. The read will execute after all 
 383:Generated_Source\PSoC6/GraphicLCDIntf_1.c **** *  currently posted writes have completed. This function will wait until the 
 384:Generated_Source\PSoC6/GraphicLCDIntf_1.c **** *  read completes and then returns the read value.
ARM GAS  C:\Users\pearlstl\AppData\Local\Temp\cc9vcmrU.s 			page 16


 385:Generated_Source\PSoC6/GraphicLCDIntf_1.c **** *
 386:Generated_Source\PSoC6/GraphicLCDIntf_1.c **** * Parameters:
 387:Generated_Source\PSoC6/GraphicLCDIntf_1.c **** *  rdData: Pointer to the the first element of a data buffer read from the do_msb[7:0]
 388:Generated_Source\PSoC6/GraphicLCDIntf_1.c **** *        (most significant byte) and do_lsb[7:0] (least significant byte) pins. 
 389:Generated_Source\PSoC6/GraphicLCDIntf_1.c **** *        do_msb[7:0] presents only for 16-bit interface.
 390:Generated_Source\PSoC6/GraphicLCDIntf_1.c **** *
 391:Generated_Source\PSoC6/GraphicLCDIntf_1.c **** *  num:  Number of words/bytes to read.
 392:Generated_Source\PSoC6/GraphicLCDIntf_1.c **** *
 393:Generated_Source\PSoC6/GraphicLCDIntf_1.c **** *******************************************************************************/
 394:Generated_Source\PSoC6/GraphicLCDIntf_1.c **** void GraphicLCDIntf_1_ReadM8_A1(uint8 rdData[], int num) 
 395:Generated_Source\PSoC6/GraphicLCDIntf_1.c **** {
 468              		.loc 1 395 0
 469              		.cfi_startproc
 470              		@ args = 0, pretend = 0, frame = 0
 471              		@ frame_needed = 0, uses_anonymous_args = 0
 472              	.LVL25:
 473 0000 08B5     		push	{r3, lr}
 474              		.cfi_def_cfa_offset 8
 475              		.cfi_offset 3, -8
 476              		.cfi_offset 14, -4
 396:Generated_Source\PSoC6/GraphicLCDIntf_1.c ****     GraphicLCDIntf_1_ReadM8(1u, rdData, (uint16)num);
 477              		.loc 1 396 0
 478 0002 8AB2     		uxth	r2, r1
 479 0004 0146     		mov	r1, r0
 480              	.LVL26:
 481 0006 0120     		movs	r0, #1
 482              	.LVL27:
 483 0008 FFF7FEFF 		bl	GraphicLCDIntf_1_ReadM8
 484              	.LVL28:
 485 000c 08BD     		pop	{r3, pc}
 486              		.cfi_endproc
 487              	.LFE145:
 488              		.size	GraphicLCDIntf_1_ReadM8_A1, .-GraphicLCDIntf_1_ReadM8_A1
 489              		.global	GraphicLCDIntf_1_initVar
 490 000e 00BF     		.bss
 491              		.set	.LANCHOR0,. + 0
 492              		.type	GraphicLCDIntf_1_initVar, %object
 493              		.size	GraphicLCDIntf_1_initVar, 1
 494              	GraphicLCDIntf_1_initVar:
 495 0000 00       		.space	1
 496              		.text
 497              	.Letext0:
 498              		.file 2 "c:\\program files (x86)\\cypress\\psoc creator\\4.2\\psoc creator\\import\\gnu\\arm\\5.4.
 499              		.file 3 "c:\\program files (x86)\\cypress\\psoc creator\\4.2\\psoc creator\\import\\gnu\\arm\\5.4.
 500              		.file 4 "Generated_Source\\PSoC6\\pdl\\drivers/peripheral/syslib/cy_syslib.h"
 501              		.file 5 "Generated_Source\\PSoC6\\pdl\\cmsis/include/core_cm4.h"