ARM GAS  C:\Users\pearlstl\AppData\Local\Temp\ccxmfpW4.s 			page 1


   1              		.syntax unified
   2              		.cpu cortex-m4
   3              		.eabi_attribute 27, 1
   4              		.fpu fpv4-sp-d16
   5              		.eabi_attribute 20, 1
   6              		.eabi_attribute 21, 1
   7              		.eabi_attribute 23, 3
   8              		.eabi_attribute 24, 1
   9              		.eabi_attribute 25, 1
  10              		.eabi_attribute 26, 1
  11              		.eabi_attribute 30, 1
  12              		.eabi_attribute 34, 1
  13              		.eabi_attribute 18, 4
  14              		.thumb
  15              		.syntax unified
  16              		.file	"GraphicLCDIntf_1_PM.c"
  17              		.text
  18              	.Ltext0:
  19              		.cfi_sections	.debug_frame
  20              		.section	.text.GraphicLCDIntf_1_SaveConfig,"ax",%progbits
  21              		.align	2
  22              		.global	GraphicLCDIntf_1_SaveConfig
  23              		.thumb
  24              		.thumb_func
  25              		.type	GraphicLCDIntf_1_SaveConfig, %function
  26              	GraphicLCDIntf_1_SaveConfig:
  27              	.LFB132:
  28              		.file 1 "Generated_Source\\PSoC6\\GraphicLCDIntf_1_PM.c"
   1:Generated_Source\PSoC6/GraphicLCDIntf_1_PM.c **** /*******************************************************************************
   2:Generated_Source\PSoC6/GraphicLCDIntf_1_PM.c **** * File Name: GraphicLCDIntf_1_PM.c
   3:Generated_Source\PSoC6/GraphicLCDIntf_1_PM.c **** * Version 1.80
   4:Generated_Source\PSoC6/GraphicLCDIntf_1_PM.c **** *
   5:Generated_Source\PSoC6/GraphicLCDIntf_1_PM.c **** * Description:
   6:Generated_Source\PSoC6/GraphicLCDIntf_1_PM.c **** *  This file contains the setup, control and status commands to support 
   7:Generated_Source\PSoC6/GraphicLCDIntf_1_PM.c **** *  the component operations in Low-power mode.  
   8:Generated_Source\PSoC6/GraphicLCDIntf_1_PM.c **** *
   9:Generated_Source\PSoC6/GraphicLCDIntf_1_PM.c **** ********************************************************************************
  10:Generated_Source\PSoC6/GraphicLCDIntf_1_PM.c **** * Copyright 2008-2018, Cypress Semiconductor Corporation.  All rights reserved.
  11:Generated_Source\PSoC6/GraphicLCDIntf_1_PM.c **** * You may use this file only in accordance with the license, terms, conditions,
  12:Generated_Source\PSoC6/GraphicLCDIntf_1_PM.c **** * disclaimers, and limitations in the end user license agreement accompanying
  13:Generated_Source\PSoC6/GraphicLCDIntf_1_PM.c **** * the software package with which this file was provided.
  14:Generated_Source\PSoC6/GraphicLCDIntf_1_PM.c **** *******************************************************************************/
  15:Generated_Source\PSoC6/GraphicLCDIntf_1_PM.c **** 
  16:Generated_Source\PSoC6/GraphicLCDIntf_1_PM.c **** #include "GraphicLCDIntf_1.h" 
  17:Generated_Source\PSoC6/GraphicLCDIntf_1_PM.c **** 
  18:Generated_Source\PSoC6/GraphicLCDIntf_1_PM.c **** 
  19:Generated_Source\PSoC6/GraphicLCDIntf_1_PM.c **** /*******************************************************************************
  20:Generated_Source\PSoC6/GraphicLCDIntf_1_PM.c **** * Function Name: GraphicLCDIntf_1_SaveConfig
  21:Generated_Source\PSoC6/GraphicLCDIntf_1_PM.c **** ********************************************************************************
  22:Generated_Source\PSoC6/GraphicLCDIntf_1_PM.c **** *
  23:Generated_Source\PSoC6/GraphicLCDIntf_1_PM.c **** * Summary:
  24:Generated_Source\PSoC6/GraphicLCDIntf_1_PM.c **** *  All configuration registers are retention. Nothing to save here.
  25:Generated_Source\PSoC6/GraphicLCDIntf_1_PM.c **** *
  26:Generated_Source\PSoC6/GraphicLCDIntf_1_PM.c **** *******************************************************************************/
  27:Generated_Source\PSoC6/GraphicLCDIntf_1_PM.c **** void GraphicLCDIntf_1_SaveConfig(void) 
  28:Generated_Source\PSoC6/GraphicLCDIntf_1_PM.c **** {   
  29              		.loc 1 28 0
ARM GAS  C:\Users\pearlstl\AppData\Local\Temp\ccxmfpW4.s 			page 2


  30              		.cfi_startproc
  31              		@ args = 0, pretend = 0, frame = 0
  32              		@ frame_needed = 0, uses_anonymous_args = 0
  33              		@ link register save eliminated.
  34 0000 7047     		bx	lr
  35              		.cfi_endproc
  36              	.LFE132:
  37              		.size	GraphicLCDIntf_1_SaveConfig, .-GraphicLCDIntf_1_SaveConfig
  38 0002 00BF     		.section	.text.GraphicLCDIntf_1_RestoreConfig,"ax",%progbits
  39              		.align	2
  40              		.global	GraphicLCDIntf_1_RestoreConfig
  41              		.thumb
  42              		.thumb_func
  43              		.type	GraphicLCDIntf_1_RestoreConfig, %function
  44              	GraphicLCDIntf_1_RestoreConfig:
  45              	.LFB133:
  29:Generated_Source\PSoC6/GraphicLCDIntf_1_PM.c ****     
  30:Generated_Source\PSoC6/GraphicLCDIntf_1_PM.c **** }
  31:Generated_Source\PSoC6/GraphicLCDIntf_1_PM.c **** 
  32:Generated_Source\PSoC6/GraphicLCDIntf_1_PM.c **** 
  33:Generated_Source\PSoC6/GraphicLCDIntf_1_PM.c **** /*******************************************************************************
  34:Generated_Source\PSoC6/GraphicLCDIntf_1_PM.c **** * Function Name: GraphicLCDIntf_1_RestoreConfig
  35:Generated_Source\PSoC6/GraphicLCDIntf_1_PM.c **** ********************************************************************************
  36:Generated_Source\PSoC6/GraphicLCDIntf_1_PM.c **** *
  37:Generated_Source\PSoC6/GraphicLCDIntf_1_PM.c **** * Summary:
  38:Generated_Source\PSoC6/GraphicLCDIntf_1_PM.c **** *  All configuration registers are retention. Nothing to restore here.
  39:Generated_Source\PSoC6/GraphicLCDIntf_1_PM.c **** *
  40:Generated_Source\PSoC6/GraphicLCDIntf_1_PM.c **** *******************************************************************************/
  41:Generated_Source\PSoC6/GraphicLCDIntf_1_PM.c **** void GraphicLCDIntf_1_RestoreConfig(void) 
  42:Generated_Source\PSoC6/GraphicLCDIntf_1_PM.c **** {    
  46              		.loc 1 42 0
  47              		.cfi_startproc
  48              		@ args = 0, pretend = 0, frame = 0
  49              		@ frame_needed = 0, uses_anonymous_args = 0
  50              		@ link register save eliminated.
  51 0000 7047     		bx	lr
  52              		.cfi_endproc
  53              	.LFE133:
  54              		.size	GraphicLCDIntf_1_RestoreConfig, .-GraphicLCDIntf_1_RestoreConfig
  55 0002 00BF     		.section	.text.GraphicLCDIntf_1_Sleep,"ax",%progbits
  56              		.align	2
  57              		.global	GraphicLCDIntf_1_Sleep
  58              		.thumb
  59              		.thumb_func
  60              		.type	GraphicLCDIntf_1_Sleep, %function
  61              	GraphicLCDIntf_1_Sleep:
  62              	.LFB134:
  43:Generated_Source\PSoC6/GraphicLCDIntf_1_PM.c ****     
  44:Generated_Source\PSoC6/GraphicLCDIntf_1_PM.c **** }
  45:Generated_Source\PSoC6/GraphicLCDIntf_1_PM.c **** 
  46:Generated_Source\PSoC6/GraphicLCDIntf_1_PM.c **** 
  47:Generated_Source\PSoC6/GraphicLCDIntf_1_PM.c **** /*******************************************************************************
  48:Generated_Source\PSoC6/GraphicLCDIntf_1_PM.c **** * Function Name: GraphicLCDIntf_1_Sleep
  49:Generated_Source\PSoC6/GraphicLCDIntf_1_PM.c **** ********************************************************************************
  50:Generated_Source\PSoC6/GraphicLCDIntf_1_PM.c **** *
  51:Generated_Source\PSoC6/GraphicLCDIntf_1_PM.c **** * Summary:
  52:Generated_Source\PSoC6/GraphicLCDIntf_1_PM.c **** *  Disables block's operation and saves its configuration. Should be called 
ARM GAS  C:\Users\pearlstl\AppData\Local\Temp\ccxmfpW4.s 			page 3


  53:Generated_Source\PSoC6/GraphicLCDIntf_1_PM.c **** *  prior to entering Sleep.
  54:Generated_Source\PSoC6/GraphicLCDIntf_1_PM.c **** *
  55:Generated_Source\PSoC6/GraphicLCDIntf_1_PM.c **** *******************************************************************************/
  56:Generated_Source\PSoC6/GraphicLCDIntf_1_PM.c **** void GraphicLCDIntf_1_Sleep(void) 
  57:Generated_Source\PSoC6/GraphicLCDIntf_1_PM.c **** {
  63              		.loc 1 57 0
  64              		.cfi_startproc
  65              		@ args = 0, pretend = 0, frame = 0
  66              		@ frame_needed = 0, uses_anonymous_args = 0
  67              		.loc 1 57 0
  68 0000 08B5     		push	{r3, lr}
  69              		.cfi_def_cfa_offset 8
  70              		.cfi_offset 3, -8
  71              		.cfi_offset 14, -4
  58:Generated_Source\PSoC6/GraphicLCDIntf_1_PM.c ****     GraphicLCDIntf_1_Stop();
  72              		.loc 1 58 0
  73 0002 FFF7FEFF 		bl	GraphicLCDIntf_1_Stop
  74              	.LVL0:
  75 0006 08BD     		pop	{r3, pc}
  76              		.cfi_endproc
  77              	.LFE134:
  78              		.size	GraphicLCDIntf_1_Sleep, .-GraphicLCDIntf_1_Sleep
  79              		.section	.text.GraphicLCDIntf_1_Wakeup,"ax",%progbits
  80              		.align	2
  81              		.global	GraphicLCDIntf_1_Wakeup
  82              		.thumb
  83              		.thumb_func
  84              		.type	GraphicLCDIntf_1_Wakeup, %function
  85              	GraphicLCDIntf_1_Wakeup:
  86              	.LFB135:
  59:Generated_Source\PSoC6/GraphicLCDIntf_1_PM.c **** }
  60:Generated_Source\PSoC6/GraphicLCDIntf_1_PM.c **** 
  61:Generated_Source\PSoC6/GraphicLCDIntf_1_PM.c **** 
  62:Generated_Source\PSoC6/GraphicLCDIntf_1_PM.c **** /*******************************************************************************
  63:Generated_Source\PSoC6/GraphicLCDIntf_1_PM.c **** * Function Name: GraphicLCDIntf_1_Wakeup
  64:Generated_Source\PSoC6/GraphicLCDIntf_1_PM.c **** ********************************************************************************
  65:Generated_Source\PSoC6/GraphicLCDIntf_1_PM.c **** *
  66:Generated_Source\PSoC6/GraphicLCDIntf_1_PM.c **** * Summary:
  67:Generated_Source\PSoC6/GraphicLCDIntf_1_PM.c **** *  Enables block's operation and restores its configuration. Should be called
  68:Generated_Source\PSoC6/GraphicLCDIntf_1_PM.c **** *  after awaking from Sleep.
  69:Generated_Source\PSoC6/GraphicLCDIntf_1_PM.c **** *
  70:Generated_Source\PSoC6/GraphicLCDIntf_1_PM.c **** *******************************************************************************/
  71:Generated_Source\PSoC6/GraphicLCDIntf_1_PM.c **** void GraphicLCDIntf_1_Wakeup(void) 
  72:Generated_Source\PSoC6/GraphicLCDIntf_1_PM.c **** {
  87              		.loc 1 72 0
  88              		.cfi_startproc
  89              		@ args = 0, pretend = 0, frame = 0
  90              		@ frame_needed = 0, uses_anonymous_args = 0
  91 0000 08B5     		push	{r3, lr}
  92              		.cfi_def_cfa_offset 8
  93              		.cfi_offset 3, -8
  94              		.cfi_offset 14, -4
  73:Generated_Source\PSoC6/GraphicLCDIntf_1_PM.c ****     GraphicLCDIntf_1_Enable();
  95              		.loc 1 73 0
  96 0002 FFF7FEFF 		bl	GraphicLCDIntf_1_Enable
  97              	.LVL1:
  98 0006 08BD     		pop	{r3, pc}
ARM GAS  C:\Users\pearlstl\AppData\Local\Temp\ccxmfpW4.s 			page 4


  99              		.cfi_endproc
 100              	.LFE135:
 101              		.size	GraphicLCDIntf_1_Wakeup, .-GraphicLCDIntf_1_Wakeup
 102              		.text
 103              	.Letext0:
 104              		.file 2 "c:\\program files (x86)\\cypress\\psoc creator\\4.2\\psoc creator\\import\\gnu\\arm\\5.4.
 105              		.file 3 "c:\\program files (x86)\\cypress\\psoc creator\\4.2\\psoc creator\\import\\gnu\\arm\\5.4.
 106              		.file 4 "Generated_Source\\PSoC6\\GraphicLCDIntf_1.h"
 107              		.file 5 "Generated_Source\\PSoC6\\pdl\\cmsis/include/core_cm4.h"