ARM GAS  C:\Users\tmj32\AppData\Local\Temp\ccoOIND8.s 			page 1


   1              		.syntax unified
   2              		.cpu cortex-m4
   3              		.eabi_attribute 27, 1
   4              		.fpu fpv4-sp-d16
   5              		.eabi_attribute 20, 1
   6              		.eabi_attribute 21, 1
   7              		.eabi_attribute 23, 3
   8              		.eabi_attribute 24, 1
   9              		.eabi_attribute 25, 1
  10              		.eabi_attribute 26, 1
  11              		.eabi_attribute 30, 6
  12              		.eabi_attribute 34, 1
  13              		.eabi_attribute 18, 4
  14              		.thumb
  15              		.syntax unified
  16              		.file	"home_screen.c"
  17              		.text
  18              	.Ltext0:
  19              		.cfi_sections	.debug_frame
  20              		.comm	cm4,2112,4
  21              		.section	.text.lv_color_make,"ax",%progbits
  22              		.align	2
  23              		.thumb
  24              		.thumb_func
  25              		.type	lv_color_make, %function
  26              	lv_color_make:
  27              	.LFB588:
  28              		.file 1 "..\\..\\..\\lvgl\\version_6.1.2\\lvgl/src/lv_hal/../lv_misc/lv_color.h"
   1:..\..\..\lvgl\version_6.1.2\lvgl/src/lv_hal/../lv_misc/lv_color.h **** /**
   2:..\..\..\lvgl\version_6.1.2\lvgl/src/lv_hal/../lv_misc/lv_color.h ****  * @file lv_color.h
   3:..\..\..\lvgl\version_6.1.2\lvgl/src/lv_hal/../lv_misc/lv_color.h ****  *
   4:..\..\..\lvgl\version_6.1.2\lvgl/src/lv_hal/../lv_misc/lv_color.h ****  */
   5:..\..\..\lvgl\version_6.1.2\lvgl/src/lv_hal/../lv_misc/lv_color.h **** 
   6:..\..\..\lvgl\version_6.1.2\lvgl/src/lv_hal/../lv_misc/lv_color.h **** #ifndef LV_COLOR_H
   7:..\..\..\lvgl\version_6.1.2\lvgl/src/lv_hal/../lv_misc/lv_color.h **** #define LV_COLOR_H
   8:..\..\..\lvgl\version_6.1.2\lvgl/src/lv_hal/../lv_misc/lv_color.h **** 
   9:..\..\..\lvgl\version_6.1.2\lvgl/src/lv_hal/../lv_misc/lv_color.h **** #ifdef __cplusplus
  10:..\..\..\lvgl\version_6.1.2\lvgl/src/lv_hal/../lv_misc/lv_color.h **** extern "C" {
  11:..\..\..\lvgl\version_6.1.2\lvgl/src/lv_hal/../lv_misc/lv_color.h **** #endif
  12:..\..\..\lvgl\version_6.1.2\lvgl/src/lv_hal/../lv_misc/lv_color.h **** 
  13:..\..\..\lvgl\version_6.1.2\lvgl/src/lv_hal/../lv_misc/lv_color.h **** /*********************
  14:..\..\..\lvgl\version_6.1.2\lvgl/src/lv_hal/../lv_misc/lv_color.h ****  *      INCLUDES
  15:..\..\..\lvgl\version_6.1.2\lvgl/src/lv_hal/../lv_misc/lv_color.h ****  *********************/
  16:..\..\..\lvgl\version_6.1.2\lvgl/src/lv_hal/../lv_misc/lv_color.h **** #ifdef LV_CONF_INCLUDE_SIMPLE
  17:..\..\..\lvgl\version_6.1.2\lvgl/src/lv_hal/../lv_misc/lv_color.h **** #include "lv_conf.h"
  18:..\..\..\lvgl\version_6.1.2\lvgl/src/lv_hal/../lv_misc/lv_color.h **** #else
  19:..\..\..\lvgl\version_6.1.2\lvgl/src/lv_hal/../lv_misc/lv_color.h **** #include "../../../lv_conf.h"
  20:..\..\..\lvgl\version_6.1.2\lvgl/src/lv_hal/../lv_misc/lv_color.h **** #endif
  21:..\..\..\lvgl\version_6.1.2\lvgl/src/lv_hal/../lv_misc/lv_color.h **** 
  22:..\..\..\lvgl\version_6.1.2\lvgl/src/lv_hal/../lv_misc/lv_color.h **** /*Error checking*/
  23:..\..\..\lvgl\version_6.1.2\lvgl/src/lv_hal/../lv_misc/lv_color.h **** #if LV_COLOR_DEPTH == 24
  24:..\..\..\lvgl\version_6.1.2\lvgl/src/lv_hal/../lv_misc/lv_color.h **** #error "LV_COLOR_DEPTH  24 is deprecated. Use LV_COLOR_DEPTH  32 instead (lv_conf.h)"
  25:..\..\..\lvgl\version_6.1.2\lvgl/src/lv_hal/../lv_misc/lv_color.h **** #endif
  26:..\..\..\lvgl\version_6.1.2\lvgl/src/lv_hal/../lv_misc/lv_color.h **** 
  27:..\..\..\lvgl\version_6.1.2\lvgl/src/lv_hal/../lv_misc/lv_color.h **** #if LV_COLOR_DEPTH != 32 && LV_COLOR_SCREEN_TRANSP != 0
  28:..\..\..\lvgl\version_6.1.2\lvgl/src/lv_hal/../lv_misc/lv_color.h **** #error "LV_COLOR_SCREEN_TRANSP requires LV_COLOR_DEPTH == 32. Set it in lv_conf.h"
  29:..\..\..\lvgl\version_6.1.2\lvgl/src/lv_hal/../lv_misc/lv_color.h **** #endif
ARM GAS  C:\Users\tmj32\AppData\Local\Temp\ccoOIND8.s 			page 2


  30:..\..\..\lvgl\version_6.1.2\lvgl/src/lv_hal/../lv_misc/lv_color.h **** 
  31:..\..\..\lvgl\version_6.1.2\lvgl/src/lv_hal/../lv_misc/lv_color.h **** #if LV_COLOR_DEPTH != 16 && LV_COLOR_16_SWAP != 0
  32:..\..\..\lvgl\version_6.1.2\lvgl/src/lv_hal/../lv_misc/lv_color.h **** #error "LV_COLOR_16_SWAP requires LV_COLOR_DEPTH == 16. Set it in lv_conf.h"
  33:..\..\..\lvgl\version_6.1.2\lvgl/src/lv_hal/../lv_misc/lv_color.h **** #endif
  34:..\..\..\lvgl\version_6.1.2\lvgl/src/lv_hal/../lv_misc/lv_color.h **** 
  35:..\..\..\lvgl\version_6.1.2\lvgl/src/lv_hal/../lv_misc/lv_color.h **** #include <stdint.h>
  36:..\..\..\lvgl\version_6.1.2\lvgl/src/lv_hal/../lv_misc/lv_color.h **** 
  37:..\..\..\lvgl\version_6.1.2\lvgl/src/lv_hal/../lv_misc/lv_color.h **** /*********************
  38:..\..\..\lvgl\version_6.1.2\lvgl/src/lv_hal/../lv_misc/lv_color.h ****  *      DEFINES
  39:..\..\..\lvgl\version_6.1.2\lvgl/src/lv_hal/../lv_misc/lv_color.h ****  *********************/
  40:..\..\..\lvgl\version_6.1.2\lvgl/src/lv_hal/../lv_misc/lv_color.h **** #define LV_COLOR_WHITE LV_COLOR_MAKE(0xFF, 0xFF, 0xFF)
  41:..\..\..\lvgl\version_6.1.2\lvgl/src/lv_hal/../lv_misc/lv_color.h **** #define LV_COLOR_SILVER LV_COLOR_MAKE(0xC0, 0xC0, 0xC0)
  42:..\..\..\lvgl\version_6.1.2\lvgl/src/lv_hal/../lv_misc/lv_color.h **** #define LV_COLOR_GRAY LV_COLOR_MAKE(0x80, 0x80, 0x80)
  43:..\..\..\lvgl\version_6.1.2\lvgl/src/lv_hal/../lv_misc/lv_color.h **** #define LV_COLOR_BLACK LV_COLOR_MAKE(0x00, 0x00, 0x00)
  44:..\..\..\lvgl\version_6.1.2\lvgl/src/lv_hal/../lv_misc/lv_color.h **** #define LV_COLOR_RED LV_COLOR_MAKE(0xFF, 0x00, 0x00)
  45:..\..\..\lvgl\version_6.1.2\lvgl/src/lv_hal/../lv_misc/lv_color.h **** #define LV_COLOR_MAROON LV_COLOR_MAKE(0x80, 0x00, 0x00)
  46:..\..\..\lvgl\version_6.1.2\lvgl/src/lv_hal/../lv_misc/lv_color.h **** #define LV_COLOR_YELLOW LV_COLOR_MAKE(0xFF, 0xFF, 0x00)
  47:..\..\..\lvgl\version_6.1.2\lvgl/src/lv_hal/../lv_misc/lv_color.h **** #define LV_COLOR_OLIVE LV_COLOR_MAKE(0x80, 0x80, 0x00)
  48:..\..\..\lvgl\version_6.1.2\lvgl/src/lv_hal/../lv_misc/lv_color.h **** #define LV_COLOR_LIME LV_COLOR_MAKE(0x00, 0xFF, 0x00)
  49:..\..\..\lvgl\version_6.1.2\lvgl/src/lv_hal/../lv_misc/lv_color.h **** #define LV_COLOR_GREEN LV_COLOR_MAKE(0x00, 0x80, 0x00)
  50:..\..\..\lvgl\version_6.1.2\lvgl/src/lv_hal/../lv_misc/lv_color.h **** #define LV_COLOR_CYAN LV_COLOR_MAKE(0x00, 0xFF, 0xFF)
  51:..\..\..\lvgl\version_6.1.2\lvgl/src/lv_hal/../lv_misc/lv_color.h **** #define LV_COLOR_AQUA LV_COLOR_CYAN
  52:..\..\..\lvgl\version_6.1.2\lvgl/src/lv_hal/../lv_misc/lv_color.h **** #define LV_COLOR_TEAL LV_COLOR_MAKE(0x00, 0x80, 0x80)
  53:..\..\..\lvgl\version_6.1.2\lvgl/src/lv_hal/../lv_misc/lv_color.h **** #define LV_COLOR_BLUE LV_COLOR_MAKE(0x00, 0x00, 0xFF)
  54:..\..\..\lvgl\version_6.1.2\lvgl/src/lv_hal/../lv_misc/lv_color.h **** #define LV_COLOR_NAVY LV_COLOR_MAKE(0x00, 0x00, 0x80)
  55:..\..\..\lvgl\version_6.1.2\lvgl/src/lv_hal/../lv_misc/lv_color.h **** #define LV_COLOR_MAGENTA LV_COLOR_MAKE(0xFF, 0x00, 0xFF)
  56:..\..\..\lvgl\version_6.1.2\lvgl/src/lv_hal/../lv_misc/lv_color.h **** #define LV_COLOR_PURPLE LV_COLOR_MAKE(0x80, 0x00, 0x80)
  57:..\..\..\lvgl\version_6.1.2\lvgl/src/lv_hal/../lv_misc/lv_color.h **** #define LV_COLOR_ORANGE LV_COLOR_MAKE(0xFF, 0xA5, 0x00)
  58:..\..\..\lvgl\version_6.1.2\lvgl/src/lv_hal/../lv_misc/lv_color.h **** 
  59:..\..\..\lvgl\version_6.1.2\lvgl/src/lv_hal/../lv_misc/lv_color.h **** /**
  60:..\..\..\lvgl\version_6.1.2\lvgl/src/lv_hal/../lv_misc/lv_color.h ****  * Opacity percentages.
  61:..\..\..\lvgl\version_6.1.2\lvgl/src/lv_hal/../lv_misc/lv_color.h ****  */
  62:..\..\..\lvgl\version_6.1.2\lvgl/src/lv_hal/../lv_misc/lv_color.h **** enum {
  63:..\..\..\lvgl\version_6.1.2\lvgl/src/lv_hal/../lv_misc/lv_color.h ****     LV_OPA_TRANSP = 0,
  64:..\..\..\lvgl\version_6.1.2\lvgl/src/lv_hal/../lv_misc/lv_color.h ****     LV_OPA_0      = 0,
  65:..\..\..\lvgl\version_6.1.2\lvgl/src/lv_hal/../lv_misc/lv_color.h ****     LV_OPA_10     = 25,
  66:..\..\..\lvgl\version_6.1.2\lvgl/src/lv_hal/../lv_misc/lv_color.h ****     LV_OPA_20     = 51,
  67:..\..\..\lvgl\version_6.1.2\lvgl/src/lv_hal/../lv_misc/lv_color.h ****     LV_OPA_30     = 76,
  68:..\..\..\lvgl\version_6.1.2\lvgl/src/lv_hal/../lv_misc/lv_color.h ****     LV_OPA_40     = 102,
  69:..\..\..\lvgl\version_6.1.2\lvgl/src/lv_hal/../lv_misc/lv_color.h ****     LV_OPA_50     = 127,
  70:..\..\..\lvgl\version_6.1.2\lvgl/src/lv_hal/../lv_misc/lv_color.h ****     LV_OPA_60     = 153,
  71:..\..\..\lvgl\version_6.1.2\lvgl/src/lv_hal/../lv_misc/lv_color.h ****     LV_OPA_70     = 178,
  72:..\..\..\lvgl\version_6.1.2\lvgl/src/lv_hal/../lv_misc/lv_color.h ****     LV_OPA_80     = 204,
  73:..\..\..\lvgl\version_6.1.2\lvgl/src/lv_hal/../lv_misc/lv_color.h ****     LV_OPA_90     = 229,
  74:..\..\..\lvgl\version_6.1.2\lvgl/src/lv_hal/../lv_misc/lv_color.h ****     LV_OPA_100    = 255,
  75:..\..\..\lvgl\version_6.1.2\lvgl/src/lv_hal/../lv_misc/lv_color.h ****     LV_OPA_COVER  = 255,
  76:..\..\..\lvgl\version_6.1.2\lvgl/src/lv_hal/../lv_misc/lv_color.h **** };
  77:..\..\..\lvgl\version_6.1.2\lvgl/src/lv_hal/../lv_misc/lv_color.h **** 
  78:..\..\..\lvgl\version_6.1.2\lvgl/src/lv_hal/../lv_misc/lv_color.h **** #define LV_OPA_MIN 16  /*Opacities below this will be transparent*/
  79:..\..\..\lvgl\version_6.1.2\lvgl/src/lv_hal/../lv_misc/lv_color.h **** #define LV_OPA_MAX 251 /*Opacities above this will fully cover*/
  80:..\..\..\lvgl\version_6.1.2\lvgl/src/lv_hal/../lv_misc/lv_color.h **** 
  81:..\..\..\lvgl\version_6.1.2\lvgl/src/lv_hal/../lv_misc/lv_color.h **** #if LV_COLOR_DEPTH == 1
  82:..\..\..\lvgl\version_6.1.2\lvgl/src/lv_hal/../lv_misc/lv_color.h **** #define LV_COLOR_SIZE 8
  83:..\..\..\lvgl\version_6.1.2\lvgl/src/lv_hal/../lv_misc/lv_color.h **** #elif LV_COLOR_DEPTH == 8
  84:..\..\..\lvgl\version_6.1.2\lvgl/src/lv_hal/../lv_misc/lv_color.h **** #define LV_COLOR_SIZE 8
  85:..\..\..\lvgl\version_6.1.2\lvgl/src/lv_hal/../lv_misc/lv_color.h **** #elif LV_COLOR_DEPTH == 16
  86:..\..\..\lvgl\version_6.1.2\lvgl/src/lv_hal/../lv_misc/lv_color.h **** #define LV_COLOR_SIZE 16
ARM GAS  C:\Users\tmj32\AppData\Local\Temp\ccoOIND8.s 			page 3


  87:..\..\..\lvgl\version_6.1.2\lvgl/src/lv_hal/../lv_misc/lv_color.h **** #elif LV_COLOR_DEPTH == 32
  88:..\..\..\lvgl\version_6.1.2\lvgl/src/lv_hal/../lv_misc/lv_color.h **** #define LV_COLOR_SIZE 32
  89:..\..\..\lvgl\version_6.1.2\lvgl/src/lv_hal/../lv_misc/lv_color.h **** #else
  90:..\..\..\lvgl\version_6.1.2\lvgl/src/lv_hal/../lv_misc/lv_color.h **** #error "Invalid LV_COLOR_DEPTH in lv_conf.h! Set it to 1, 8, 16 or 32!"
  91:..\..\..\lvgl\version_6.1.2\lvgl/src/lv_hal/../lv_misc/lv_color.h **** #endif
  92:..\..\..\lvgl\version_6.1.2\lvgl/src/lv_hal/../lv_misc/lv_color.h **** 
  93:..\..\..\lvgl\version_6.1.2\lvgl/src/lv_hal/../lv_misc/lv_color.h **** /*---------------------------------------
  94:..\..\..\lvgl\version_6.1.2\lvgl/src/lv_hal/../lv_misc/lv_color.h ****  * Macros for all existing  color depths
  95:..\..\..\lvgl\version_6.1.2\lvgl/src/lv_hal/../lv_misc/lv_color.h ****  * to set/get values of the color channels
  96:..\..\..\lvgl\version_6.1.2\lvgl/src/lv_hal/../lv_misc/lv_color.h ****  *------------------------------------------*/
  97:..\..\..\lvgl\version_6.1.2\lvgl/src/lv_hal/../lv_misc/lv_color.h **** # define LV_COLOR_SET_R1(c, v) (c).ch.red = (uint8_t)((v) & 0x1);
  98:..\..\..\lvgl\version_6.1.2\lvgl/src/lv_hal/../lv_misc/lv_color.h **** # define LV_COLOR_SET_G1(c, v) (c).ch.green = (uint8_t)((v) & 0x1);
  99:..\..\..\lvgl\version_6.1.2\lvgl/src/lv_hal/../lv_misc/lv_color.h **** # define LV_COLOR_SET_B1(c, v) (c).ch.blue = (uint8_t)((v) & 0x1);
 100:..\..\..\lvgl\version_6.1.2\lvgl/src/lv_hal/../lv_misc/lv_color.h **** # define LV_COLOR_SET_A1(c, v)
 101:..\..\..\lvgl\version_6.1.2\lvgl/src/lv_hal/../lv_misc/lv_color.h **** 
 102:..\..\..\lvgl\version_6.1.2\lvgl/src/lv_hal/../lv_misc/lv_color.h **** # define LV_COLOR_GET_R1(c) (c).ch.red
 103:..\..\..\lvgl\version_6.1.2\lvgl/src/lv_hal/../lv_misc/lv_color.h **** # define LV_COLOR_GET_G1(c) (c).ch.green
 104:..\..\..\lvgl\version_6.1.2\lvgl/src/lv_hal/../lv_misc/lv_color.h **** # define LV_COLOR_GET_B1(c) (c).ch.blue
 105:..\..\..\lvgl\version_6.1.2\lvgl/src/lv_hal/../lv_misc/lv_color.h **** # define LV_COLOR_GET_A1(c) 1
 106:..\..\..\lvgl\version_6.1.2\lvgl/src/lv_hal/../lv_misc/lv_color.h **** 
 107:..\..\..\lvgl\version_6.1.2\lvgl/src/lv_hal/../lv_misc/lv_color.h **** # define LV_COLOR_SET_R8(c, v) (c).ch.red = (uint8_t)(v) & 0x7U;
 108:..\..\..\lvgl\version_6.1.2\lvgl/src/lv_hal/../lv_misc/lv_color.h **** # define LV_COLOR_SET_G8(c, v) (c).ch.green = (uint8_t)(v) & 0x7U;
 109:..\..\..\lvgl\version_6.1.2\lvgl/src/lv_hal/../lv_misc/lv_color.h **** # define LV_COLOR_SET_B8(c, v) (c).ch.blue = (uint8_t)(v) & 0x3U;
 110:..\..\..\lvgl\version_6.1.2\lvgl/src/lv_hal/../lv_misc/lv_color.h **** # define LV_COLOR_SET_A8(c, v) do {} while(0)
 111:..\..\..\lvgl\version_6.1.2\lvgl/src/lv_hal/../lv_misc/lv_color.h **** 
 112:..\..\..\lvgl\version_6.1.2\lvgl/src/lv_hal/../lv_misc/lv_color.h **** # define LV_COLOR_GET_R8(c) (c).ch.red
 113:..\..\..\lvgl\version_6.1.2\lvgl/src/lv_hal/../lv_misc/lv_color.h **** # define LV_COLOR_GET_G8(c) (c).ch.green
 114:..\..\..\lvgl\version_6.1.2\lvgl/src/lv_hal/../lv_misc/lv_color.h **** # define LV_COLOR_GET_B8(c) (c).ch.blue
 115:..\..\..\lvgl\version_6.1.2\lvgl/src/lv_hal/../lv_misc/lv_color.h **** # define LV_COLOR_GET_A8(c) 0xFF
 116:..\..\..\lvgl\version_6.1.2\lvgl/src/lv_hal/../lv_misc/lv_color.h **** 
 117:..\..\..\lvgl\version_6.1.2\lvgl/src/lv_hal/../lv_misc/lv_color.h **** # define LV_COLOR_SET_R16(c, v) (c).ch.red = (uint8_t)(v) & 0x1FU;
 118:..\..\..\lvgl\version_6.1.2\lvgl/src/lv_hal/../lv_misc/lv_color.h **** # define LV_COLOR_SET_G16(c, v) (c).ch.green = (uint8_t)(v) & 0x3FU;
 119:..\..\..\lvgl\version_6.1.2\lvgl/src/lv_hal/../lv_misc/lv_color.h **** # define LV_COLOR_SET_G16_SWAP(c, v) {(c).ch.green_h = (uint8_t)(((v) >> 3) & 0x7); (c).ch.green_l 
 120:..\..\..\lvgl\version_6.1.2\lvgl/src/lv_hal/../lv_misc/lv_color.h **** # define LV_COLOR_SET_B16(c, v) (c).ch.blue = (uint8_t)(v) & 0x1FU;
 121:..\..\..\lvgl\version_6.1.2\lvgl/src/lv_hal/../lv_misc/lv_color.h **** # define LV_COLOR_SET_A16(c, v) do {} while(0)
 122:..\..\..\lvgl\version_6.1.2\lvgl/src/lv_hal/../lv_misc/lv_color.h **** 
 123:..\..\..\lvgl\version_6.1.2\lvgl/src/lv_hal/../lv_misc/lv_color.h **** # define LV_COLOR_GET_R16(c) (c).ch.red
 124:..\..\..\lvgl\version_6.1.2\lvgl/src/lv_hal/../lv_misc/lv_color.h **** # define LV_COLOR_GET_G16(c) (c).ch.green
 125:..\..\..\lvgl\version_6.1.2\lvgl/src/lv_hal/../lv_misc/lv_color.h **** # define LV_COLOR_GET_G16_SWAP(c) (((c).ch.green_h << 3) + (c).ch.green_l)
 126:..\..\..\lvgl\version_6.1.2\lvgl/src/lv_hal/../lv_misc/lv_color.h **** # define LV_COLOR_GET_B16(c) (c).ch.blue
 127:..\..\..\lvgl\version_6.1.2\lvgl/src/lv_hal/../lv_misc/lv_color.h **** # define LV_COLOR_GET_A16(c) 0xFF
 128:..\..\..\lvgl\version_6.1.2\lvgl/src/lv_hal/../lv_misc/lv_color.h **** 
 129:..\..\..\lvgl\version_6.1.2\lvgl/src/lv_hal/../lv_misc/lv_color.h **** # define LV_COLOR_SET_R32(c, v) (c).ch.red = (uint32_t)((v) & 0xFF);
 130:..\..\..\lvgl\version_6.1.2\lvgl/src/lv_hal/../lv_misc/lv_color.h **** # define LV_COLOR_SET_G32(c, v) (c).ch.green = (uint32_t)((v) & 0xFF);
 131:..\..\..\lvgl\version_6.1.2\lvgl/src/lv_hal/../lv_misc/lv_color.h **** # define LV_COLOR_SET_B32(c, v) (c).ch.blue = (uint32_t)((v) & 0xFF);
 132:..\..\..\lvgl\version_6.1.2\lvgl/src/lv_hal/../lv_misc/lv_color.h **** # define LV_COLOR_SET_A32(c, v) (c).ch.alpha = (uint32_t)((v) & 0xFF);
 133:..\..\..\lvgl\version_6.1.2\lvgl/src/lv_hal/../lv_misc/lv_color.h **** 
 134:..\..\..\lvgl\version_6.1.2\lvgl/src/lv_hal/../lv_misc/lv_color.h **** # define LV_COLOR_GET_R32(c) (c).ch.red
 135:..\..\..\lvgl\version_6.1.2\lvgl/src/lv_hal/../lv_misc/lv_color.h **** # define LV_COLOR_GET_G32(c) (c).ch.green
 136:..\..\..\lvgl\version_6.1.2\lvgl/src/lv_hal/../lv_misc/lv_color.h **** # define LV_COLOR_GET_B32(c) (c).ch.blue
 137:..\..\..\lvgl\version_6.1.2\lvgl/src/lv_hal/../lv_misc/lv_color.h **** # define LV_COLOR_GET_A32(c) (c).ch.alpha
 138:..\..\..\lvgl\version_6.1.2\lvgl/src/lv_hal/../lv_misc/lv_color.h **** 
 139:..\..\..\lvgl\version_6.1.2\lvgl/src/lv_hal/../lv_misc/lv_color.h **** 
 140:..\..\..\lvgl\version_6.1.2\lvgl/src/lv_hal/../lv_misc/lv_color.h **** /*---------------------------------------
 141:..\..\..\lvgl\version_6.1.2\lvgl/src/lv_hal/../lv_misc/lv_color.h ****  * Macros for the current color depth
 142:..\..\..\lvgl\version_6.1.2\lvgl/src/lv_hal/../lv_misc/lv_color.h ****  * to set/get values of the color channels
 143:..\..\..\lvgl\version_6.1.2\lvgl/src/lv_hal/../lv_misc/lv_color.h ****  *------------------------------------------*/
ARM GAS  C:\Users\tmj32\AppData\Local\Temp\ccoOIND8.s 			page 4


 144:..\..\..\lvgl\version_6.1.2\lvgl/src/lv_hal/../lv_misc/lv_color.h **** #if LV_COLOR_DEPTH == 1
 145:..\..\..\lvgl\version_6.1.2\lvgl/src/lv_hal/../lv_misc/lv_color.h **** # define LV_COLOR_SET_R(c, v) LV_COLOR_SET_R1(c,v)
 146:..\..\..\lvgl\version_6.1.2\lvgl/src/lv_hal/../lv_misc/lv_color.h **** # define LV_COLOR_SET_G(c, v) LV_COLOR_SET_G1(c,v)
 147:..\..\..\lvgl\version_6.1.2\lvgl/src/lv_hal/../lv_misc/lv_color.h **** # define LV_COLOR_SET_B(c, v) LV_COLOR_SET_B1(c,v)
 148:..\..\..\lvgl\version_6.1.2\lvgl/src/lv_hal/../lv_misc/lv_color.h **** # define LV_COLOR_SET_A(c, v) LV_COLOR_SET_A1(c,v)
 149:..\..\..\lvgl\version_6.1.2\lvgl/src/lv_hal/../lv_misc/lv_color.h **** 
 150:..\..\..\lvgl\version_6.1.2\lvgl/src/lv_hal/../lv_misc/lv_color.h **** # define LV_COLOR_GET_R(c) LV_COLOR_GET_R1(c)
 151:..\..\..\lvgl\version_6.1.2\lvgl/src/lv_hal/../lv_misc/lv_color.h **** # define LV_COLOR_GET_G(c) LV_COLOR_GET_G1(c)
 152:..\..\..\lvgl\version_6.1.2\lvgl/src/lv_hal/../lv_misc/lv_color.h **** # define LV_COLOR_GET_B(c) LV_COLOR_GET_B1(c)
 153:..\..\..\lvgl\version_6.1.2\lvgl/src/lv_hal/../lv_misc/lv_color.h **** # define LV_COLOR_GET_A(c) LV_COLOR_GET_A1(c)
 154:..\..\..\lvgl\version_6.1.2\lvgl/src/lv_hal/../lv_misc/lv_color.h **** 
 155:..\..\..\lvgl\version_6.1.2\lvgl/src/lv_hal/../lv_misc/lv_color.h **** #elif LV_COLOR_DEPTH == 8
 156:..\..\..\lvgl\version_6.1.2\lvgl/src/lv_hal/../lv_misc/lv_color.h **** # define LV_COLOR_SET_R(c, v) LV_COLOR_SET_R8(c,v)
 157:..\..\..\lvgl\version_6.1.2\lvgl/src/lv_hal/../lv_misc/lv_color.h **** # define LV_COLOR_SET_G(c, v) LV_COLOR_SET_G8(c,v)
 158:..\..\..\lvgl\version_6.1.2\lvgl/src/lv_hal/../lv_misc/lv_color.h **** # define LV_COLOR_SET_B(c, v) LV_COLOR_SET_B8(c,v)
 159:..\..\..\lvgl\version_6.1.2\lvgl/src/lv_hal/../lv_misc/lv_color.h **** # define LV_COLOR_SET_A(c, v) LV_COLOR_SET_A8(c,v)
 160:..\..\..\lvgl\version_6.1.2\lvgl/src/lv_hal/../lv_misc/lv_color.h **** 
 161:..\..\..\lvgl\version_6.1.2\lvgl/src/lv_hal/../lv_misc/lv_color.h **** # define LV_COLOR_GET_R(c) LV_COLOR_GET_R8(c)
 162:..\..\..\lvgl\version_6.1.2\lvgl/src/lv_hal/../lv_misc/lv_color.h **** # define LV_COLOR_GET_G(c) LV_COLOR_GET_G8(c)
 163:..\..\..\lvgl\version_6.1.2\lvgl/src/lv_hal/../lv_misc/lv_color.h **** # define LV_COLOR_GET_B(c) LV_COLOR_GET_B8(c)
 164:..\..\..\lvgl\version_6.1.2\lvgl/src/lv_hal/../lv_misc/lv_color.h **** # define LV_COLOR_GET_A(c) LV_COLOR_GET_A8(c)
 165:..\..\..\lvgl\version_6.1.2\lvgl/src/lv_hal/../lv_misc/lv_color.h **** 
 166:..\..\..\lvgl\version_6.1.2\lvgl/src/lv_hal/../lv_misc/lv_color.h **** #elif LV_COLOR_DEPTH == 16
 167:..\..\..\lvgl\version_6.1.2\lvgl/src/lv_hal/../lv_misc/lv_color.h **** # define LV_COLOR_SET_R(c, v) LV_COLOR_SET_R16(c,v)
 168:..\..\..\lvgl\version_6.1.2\lvgl/src/lv_hal/../lv_misc/lv_color.h **** # if LV_COLOR_16_SWAP == 0
 169:..\..\..\lvgl\version_6.1.2\lvgl/src/lv_hal/../lv_misc/lv_color.h **** #   define LV_COLOR_SET_G(c, v) LV_COLOR_SET_G16(c,v)
 170:..\..\..\lvgl\version_6.1.2\lvgl/src/lv_hal/../lv_misc/lv_color.h **** # else
 171:..\..\..\lvgl\version_6.1.2\lvgl/src/lv_hal/../lv_misc/lv_color.h **** #   define LV_COLOR_SET_G(c, v) LV_COLOR_SET_G16_SWAP(c,v)
 172:..\..\..\lvgl\version_6.1.2\lvgl/src/lv_hal/../lv_misc/lv_color.h **** # endif
 173:..\..\..\lvgl\version_6.1.2\lvgl/src/lv_hal/../lv_misc/lv_color.h **** # define LV_COLOR_SET_B(c, v) LV_COLOR_SET_B16(c,v)
 174:..\..\..\lvgl\version_6.1.2\lvgl/src/lv_hal/../lv_misc/lv_color.h **** # define LV_COLOR_SET_A(c, v) LV_COLOR_SET_A16(c,v)
 175:..\..\..\lvgl\version_6.1.2\lvgl/src/lv_hal/../lv_misc/lv_color.h **** 
 176:..\..\..\lvgl\version_6.1.2\lvgl/src/lv_hal/../lv_misc/lv_color.h **** # define LV_COLOR_GET_R(c) LV_COLOR_GET_R16(c)
 177:..\..\..\lvgl\version_6.1.2\lvgl/src/lv_hal/../lv_misc/lv_color.h **** # if LV_COLOR_16_SWAP == 0
 178:..\..\..\lvgl\version_6.1.2\lvgl/src/lv_hal/../lv_misc/lv_color.h **** #   define LV_COLOR_GET_G(c) LV_COLOR_GET_G16(c)
 179:..\..\..\lvgl\version_6.1.2\lvgl/src/lv_hal/../lv_misc/lv_color.h **** # else
 180:..\..\..\lvgl\version_6.1.2\lvgl/src/lv_hal/../lv_misc/lv_color.h **** #   define LV_COLOR_GET_G(c) LV_COLOR_GET_G16_SWAP(c)
 181:..\..\..\lvgl\version_6.1.2\lvgl/src/lv_hal/../lv_misc/lv_color.h **** # endif
 182:..\..\..\lvgl\version_6.1.2\lvgl/src/lv_hal/../lv_misc/lv_color.h **** # define LV_COLOR_GET_B(c)   LV_COLOR_GET_B16(c)
 183:..\..\..\lvgl\version_6.1.2\lvgl/src/lv_hal/../lv_misc/lv_color.h **** # define LV_COLOR_GET_A(c)   LV_COLOR_GET_A16(c)
 184:..\..\..\lvgl\version_6.1.2\lvgl/src/lv_hal/../lv_misc/lv_color.h **** 
 185:..\..\..\lvgl\version_6.1.2\lvgl/src/lv_hal/../lv_misc/lv_color.h **** #elif LV_COLOR_DEPTH == 32
 186:..\..\..\lvgl\version_6.1.2\lvgl/src/lv_hal/../lv_misc/lv_color.h **** # define LV_COLOR_SET_R(c, v) LV_COLOR_SET_R32(c,v)
 187:..\..\..\lvgl\version_6.1.2\lvgl/src/lv_hal/../lv_misc/lv_color.h **** # define LV_COLOR_SET_G(c, v) LV_COLOR_SET_G32(c,v)
 188:..\..\..\lvgl\version_6.1.2\lvgl/src/lv_hal/../lv_misc/lv_color.h **** # define LV_COLOR_SET_B(c, v) LV_COLOR_SET_B32(c,v)
 189:..\..\..\lvgl\version_6.1.2\lvgl/src/lv_hal/../lv_misc/lv_color.h **** # define LV_COLOR_SET_A(c, v) LV_COLOR_SET_A32(c,v)
 190:..\..\..\lvgl\version_6.1.2\lvgl/src/lv_hal/../lv_misc/lv_color.h **** 
 191:..\..\..\lvgl\version_6.1.2\lvgl/src/lv_hal/../lv_misc/lv_color.h **** # define LV_COLOR_GET_R(c) LV_COLOR_GET_R32(c)
 192:..\..\..\lvgl\version_6.1.2\lvgl/src/lv_hal/../lv_misc/lv_color.h **** # define LV_COLOR_GET_G(c) LV_COLOR_GET_G32(c)
 193:..\..\..\lvgl\version_6.1.2\lvgl/src/lv_hal/../lv_misc/lv_color.h **** # define LV_COLOR_GET_B(c) LV_COLOR_GET_B32(c)
 194:..\..\..\lvgl\version_6.1.2\lvgl/src/lv_hal/../lv_misc/lv_color.h **** # define LV_COLOR_GET_A(c) LV_COLOR_GET_A32(c)
 195:..\..\..\lvgl\version_6.1.2\lvgl/src/lv_hal/../lv_misc/lv_color.h **** #endif
 196:..\..\..\lvgl\version_6.1.2\lvgl/src/lv_hal/../lv_misc/lv_color.h **** 
 197:..\..\..\lvgl\version_6.1.2\lvgl/src/lv_hal/../lv_misc/lv_color.h **** /**********************
 198:..\..\..\lvgl\version_6.1.2\lvgl/src/lv_hal/../lv_misc/lv_color.h ****  *      TYPEDEFS
 199:..\..\..\lvgl\version_6.1.2\lvgl/src/lv_hal/../lv_misc/lv_color.h ****  **********************/
 200:..\..\..\lvgl\version_6.1.2\lvgl/src/lv_hal/../lv_misc/lv_color.h **** 
ARM GAS  C:\Users\tmj32\AppData\Local\Temp\ccoOIND8.s 			page 5


 201:..\..\..\lvgl\version_6.1.2\lvgl/src/lv_hal/../lv_misc/lv_color.h **** typedef union
 202:..\..\..\lvgl\version_6.1.2\lvgl/src/lv_hal/../lv_misc/lv_color.h **** {
 203:..\..\..\lvgl\version_6.1.2\lvgl/src/lv_hal/../lv_misc/lv_color.h ****     struct
 204:..\..\..\lvgl\version_6.1.2\lvgl/src/lv_hal/../lv_misc/lv_color.h ****     {
 205:..\..\..\lvgl\version_6.1.2\lvgl/src/lv_hal/../lv_misc/lv_color.h ****         uint8_t blue : 1;
 206:..\..\..\lvgl\version_6.1.2\lvgl/src/lv_hal/../lv_misc/lv_color.h ****         uint8_t green : 1;
 207:..\..\..\lvgl\version_6.1.2\lvgl/src/lv_hal/../lv_misc/lv_color.h ****         uint8_t red : 1;
 208:..\..\..\lvgl\version_6.1.2\lvgl/src/lv_hal/../lv_misc/lv_color.h ****     } ch;
 209:..\..\..\lvgl\version_6.1.2\lvgl/src/lv_hal/../lv_misc/lv_color.h ****     uint8_t full;
 210:..\..\..\lvgl\version_6.1.2\lvgl/src/lv_hal/../lv_misc/lv_color.h **** } lv_color1_t;
 211:..\..\..\lvgl\version_6.1.2\lvgl/src/lv_hal/../lv_misc/lv_color.h **** 
 212:..\..\..\lvgl\version_6.1.2\lvgl/src/lv_hal/../lv_misc/lv_color.h **** typedef union
 213:..\..\..\lvgl\version_6.1.2\lvgl/src/lv_hal/../lv_misc/lv_color.h **** {
 214:..\..\..\lvgl\version_6.1.2\lvgl/src/lv_hal/../lv_misc/lv_color.h ****     struct
 215:..\..\..\lvgl\version_6.1.2\lvgl/src/lv_hal/../lv_misc/lv_color.h ****     {
 216:..\..\..\lvgl\version_6.1.2\lvgl/src/lv_hal/../lv_misc/lv_color.h ****         uint8_t blue : 2;
 217:..\..\..\lvgl\version_6.1.2\lvgl/src/lv_hal/../lv_misc/lv_color.h ****         uint8_t green : 3;
 218:..\..\..\lvgl\version_6.1.2\lvgl/src/lv_hal/../lv_misc/lv_color.h ****         uint8_t red : 3;
 219:..\..\..\lvgl\version_6.1.2\lvgl/src/lv_hal/../lv_misc/lv_color.h ****     } ch;
 220:..\..\..\lvgl\version_6.1.2\lvgl/src/lv_hal/../lv_misc/lv_color.h ****     uint8_t full;
 221:..\..\..\lvgl\version_6.1.2\lvgl/src/lv_hal/../lv_misc/lv_color.h **** } lv_color8_t;
 222:..\..\..\lvgl\version_6.1.2\lvgl/src/lv_hal/../lv_misc/lv_color.h **** 
 223:..\..\..\lvgl\version_6.1.2\lvgl/src/lv_hal/../lv_misc/lv_color.h **** typedef union
 224:..\..\..\lvgl\version_6.1.2\lvgl/src/lv_hal/../lv_misc/lv_color.h **** {
 225:..\..\..\lvgl\version_6.1.2\lvgl/src/lv_hal/../lv_misc/lv_color.h ****     struct
 226:..\..\..\lvgl\version_6.1.2\lvgl/src/lv_hal/../lv_misc/lv_color.h ****     {
 227:..\..\..\lvgl\version_6.1.2\lvgl/src/lv_hal/../lv_misc/lv_color.h **** #if LV_COLOR_16_SWAP == 0
 228:..\..\..\lvgl\version_6.1.2\lvgl/src/lv_hal/../lv_misc/lv_color.h ****         uint16_t blue : 5;
 229:..\..\..\lvgl\version_6.1.2\lvgl/src/lv_hal/../lv_misc/lv_color.h ****         uint16_t green : 6;
 230:..\..\..\lvgl\version_6.1.2\lvgl/src/lv_hal/../lv_misc/lv_color.h ****         uint16_t red : 5;
 231:..\..\..\lvgl\version_6.1.2\lvgl/src/lv_hal/../lv_misc/lv_color.h **** #else
 232:..\..\..\lvgl\version_6.1.2\lvgl/src/lv_hal/../lv_misc/lv_color.h ****         uint16_t green_h : 3;
 233:..\..\..\lvgl\version_6.1.2\lvgl/src/lv_hal/../lv_misc/lv_color.h ****         uint16_t red : 5;
 234:..\..\..\lvgl\version_6.1.2\lvgl/src/lv_hal/../lv_misc/lv_color.h ****         uint16_t blue : 5;
 235:..\..\..\lvgl\version_6.1.2\lvgl/src/lv_hal/../lv_misc/lv_color.h ****         uint16_t green_l : 3;
 236:..\..\..\lvgl\version_6.1.2\lvgl/src/lv_hal/../lv_misc/lv_color.h **** #endif
 237:..\..\..\lvgl\version_6.1.2\lvgl/src/lv_hal/../lv_misc/lv_color.h ****     } ch;
 238:..\..\..\lvgl\version_6.1.2\lvgl/src/lv_hal/../lv_misc/lv_color.h ****     uint16_t full;
 239:..\..\..\lvgl\version_6.1.2\lvgl/src/lv_hal/../lv_misc/lv_color.h **** } lv_color16_t;
 240:..\..\..\lvgl\version_6.1.2\lvgl/src/lv_hal/../lv_misc/lv_color.h **** 
 241:..\..\..\lvgl\version_6.1.2\lvgl/src/lv_hal/../lv_misc/lv_color.h **** typedef union
 242:..\..\..\lvgl\version_6.1.2\lvgl/src/lv_hal/../lv_misc/lv_color.h **** {
 243:..\..\..\lvgl\version_6.1.2\lvgl/src/lv_hal/../lv_misc/lv_color.h ****     struct
 244:..\..\..\lvgl\version_6.1.2\lvgl/src/lv_hal/../lv_misc/lv_color.h ****     {
 245:..\..\..\lvgl\version_6.1.2\lvgl/src/lv_hal/../lv_misc/lv_color.h ****         uint8_t blue;
 246:..\..\..\lvgl\version_6.1.2\lvgl/src/lv_hal/../lv_misc/lv_color.h ****         uint8_t green;
 247:..\..\..\lvgl\version_6.1.2\lvgl/src/lv_hal/../lv_misc/lv_color.h ****         uint8_t red;
 248:..\..\..\lvgl\version_6.1.2\lvgl/src/lv_hal/../lv_misc/lv_color.h ****         uint8_t alpha;
 249:..\..\..\lvgl\version_6.1.2\lvgl/src/lv_hal/../lv_misc/lv_color.h ****     } ch;
 250:..\..\..\lvgl\version_6.1.2\lvgl/src/lv_hal/../lv_misc/lv_color.h ****     uint32_t full;
 251:..\..\..\lvgl\version_6.1.2\lvgl/src/lv_hal/../lv_misc/lv_color.h **** } lv_color32_t;
 252:..\..\..\lvgl\version_6.1.2\lvgl/src/lv_hal/../lv_misc/lv_color.h **** 
 253:..\..\..\lvgl\version_6.1.2\lvgl/src/lv_hal/../lv_misc/lv_color.h **** #if LV_COLOR_DEPTH == 1
 254:..\..\..\lvgl\version_6.1.2\lvgl/src/lv_hal/../lv_misc/lv_color.h **** typedef uint8_t lv_color_int_t;
 255:..\..\..\lvgl\version_6.1.2\lvgl/src/lv_hal/../lv_misc/lv_color.h **** typedef lv_color1_t lv_color_t;
 256:..\..\..\lvgl\version_6.1.2\lvgl/src/lv_hal/../lv_misc/lv_color.h **** #elif LV_COLOR_DEPTH == 8
 257:..\..\..\lvgl\version_6.1.2\lvgl/src/lv_hal/../lv_misc/lv_color.h **** typedef uint8_t lv_color_int_t;
ARM GAS  C:\Users\tmj32\AppData\Local\Temp\ccoOIND8.s 			page 6


 258:..\..\..\lvgl\version_6.1.2\lvgl/src/lv_hal/../lv_misc/lv_color.h **** typedef lv_color8_t lv_color_t;
 259:..\..\..\lvgl\version_6.1.2\lvgl/src/lv_hal/../lv_misc/lv_color.h **** #elif LV_COLOR_DEPTH == 16
 260:..\..\..\lvgl\version_6.1.2\lvgl/src/lv_hal/../lv_misc/lv_color.h **** typedef uint16_t lv_color_int_t;
 261:..\..\..\lvgl\version_6.1.2\lvgl/src/lv_hal/../lv_misc/lv_color.h **** typedef lv_color16_t lv_color_t;
 262:..\..\..\lvgl\version_6.1.2\lvgl/src/lv_hal/../lv_misc/lv_color.h **** #elif LV_COLOR_DEPTH == 32
 263:..\..\..\lvgl\version_6.1.2\lvgl/src/lv_hal/../lv_misc/lv_color.h **** typedef uint32_t lv_color_int_t;
 264:..\..\..\lvgl\version_6.1.2\lvgl/src/lv_hal/../lv_misc/lv_color.h **** typedef lv_color32_t lv_color_t;
 265:..\..\..\lvgl\version_6.1.2\lvgl/src/lv_hal/../lv_misc/lv_color.h **** #else
 266:..\..\..\lvgl\version_6.1.2\lvgl/src/lv_hal/../lv_misc/lv_color.h **** #error "Invalid LV_COLOR_DEPTH in lv_conf.h! Set it to 1, 8, 16 or 32!"
 267:..\..\..\lvgl\version_6.1.2\lvgl/src/lv_hal/../lv_misc/lv_color.h **** #endif
 268:..\..\..\lvgl\version_6.1.2\lvgl/src/lv_hal/../lv_misc/lv_color.h **** 
 269:..\..\..\lvgl\version_6.1.2\lvgl/src/lv_hal/../lv_misc/lv_color.h **** typedef uint8_t lv_opa_t;
 270:..\..\..\lvgl\version_6.1.2\lvgl/src/lv_hal/../lv_misc/lv_color.h **** 
 271:..\..\..\lvgl\version_6.1.2\lvgl/src/lv_hal/../lv_misc/lv_color.h **** typedef struct
 272:..\..\..\lvgl\version_6.1.2\lvgl/src/lv_hal/../lv_misc/lv_color.h **** {
 273:..\..\..\lvgl\version_6.1.2\lvgl/src/lv_hal/../lv_misc/lv_color.h ****     uint16_t h;
 274:..\..\..\lvgl\version_6.1.2\lvgl/src/lv_hal/../lv_misc/lv_color.h ****     uint8_t s;
 275:..\..\..\lvgl\version_6.1.2\lvgl/src/lv_hal/../lv_misc/lv_color.h ****     uint8_t v;
 276:..\..\..\lvgl\version_6.1.2\lvgl/src/lv_hal/../lv_misc/lv_color.h **** } lv_color_hsv_t;
 277:..\..\..\lvgl\version_6.1.2\lvgl/src/lv_hal/../lv_misc/lv_color.h **** 
 278:..\..\..\lvgl\version_6.1.2\lvgl/src/lv_hal/../lv_misc/lv_color.h **** /**********************
 279:..\..\..\lvgl\version_6.1.2\lvgl/src/lv_hal/../lv_misc/lv_color.h ****  * GLOBAL PROTOTYPES
 280:..\..\..\lvgl\version_6.1.2\lvgl/src/lv_hal/../lv_misc/lv_color.h ****  **********************/
 281:..\..\..\lvgl\version_6.1.2\lvgl/src/lv_hal/../lv_misc/lv_color.h **** 
 282:..\..\..\lvgl\version_6.1.2\lvgl/src/lv_hal/../lv_misc/lv_color.h **** /*In color conversations:
 283:..\..\..\lvgl\version_6.1.2\lvgl/src/lv_hal/../lv_misc/lv_color.h ****  * - When converting to bigger color type the LSB weight of 1 LSB is calculated
 284:..\..\..\lvgl\version_6.1.2\lvgl/src/lv_hal/../lv_misc/lv_color.h ****  *   E.g. 16 bit Red has 5 bits
 285:..\..\..\lvgl\version_6.1.2\lvgl/src/lv_hal/../lv_misc/lv_color.h ****  *         8 bit Red has 2 bits
 286:..\..\..\lvgl\version_6.1.2\lvgl/src/lv_hal/../lv_misc/lv_color.h ****  *        ----------------------
 287:..\..\..\lvgl\version_6.1.2\lvgl/src/lv_hal/../lv_misc/lv_color.h ****  *        8 bit red LSB = (2^5 - 1) / (2^2 - 1) = 31 / 3 = 10
 288:..\..\..\lvgl\version_6.1.2\lvgl/src/lv_hal/../lv_misc/lv_color.h ****  *
 289:..\..\..\lvgl\version_6.1.2\lvgl/src/lv_hal/../lv_misc/lv_color.h ****  * - When calculating to smaller color type simply shift out the LSBs
 290:..\..\..\lvgl\version_6.1.2\lvgl/src/lv_hal/../lv_misc/lv_color.h ****  *   E.g.  8 bit Red has 2 bits
 291:..\..\..\lvgl\version_6.1.2\lvgl/src/lv_hal/../lv_misc/lv_color.h ****  *        16 bit Red has 5 bits
 292:..\..\..\lvgl\version_6.1.2\lvgl/src/lv_hal/../lv_misc/lv_color.h ****  *        ----------------------
 293:..\..\..\lvgl\version_6.1.2\lvgl/src/lv_hal/../lv_misc/lv_color.h ****  *         Shift right with 5 - 3 = 2
 294:..\..\..\lvgl\version_6.1.2\lvgl/src/lv_hal/../lv_misc/lv_color.h ****  */
 295:..\..\..\lvgl\version_6.1.2\lvgl/src/lv_hal/../lv_misc/lv_color.h **** 
 296:..\..\..\lvgl\version_6.1.2\lvgl/src/lv_hal/../lv_misc/lv_color.h **** static inline uint8_t lv_color_to1(lv_color_t color)
 297:..\..\..\lvgl\version_6.1.2\lvgl/src/lv_hal/../lv_misc/lv_color.h **** {
 298:..\..\..\lvgl\version_6.1.2\lvgl/src/lv_hal/../lv_misc/lv_color.h **** #if LV_COLOR_DEPTH == 1
 299:..\..\..\lvgl\version_6.1.2\lvgl/src/lv_hal/../lv_misc/lv_color.h ****     return color.full;
 300:..\..\..\lvgl\version_6.1.2\lvgl/src/lv_hal/../lv_misc/lv_color.h **** #elif LV_COLOR_DEPTH == 8
 301:..\..\..\lvgl\version_6.1.2\lvgl/src/lv_hal/../lv_misc/lv_color.h ****     if((LV_COLOR_GET_R(color) & 0x4) || (LV_COLOR_GET_G(color) & 0x4) || (LV_COLOR_GET_B(color) & 0
 302:..\..\..\lvgl\version_6.1.2\lvgl/src/lv_hal/../lv_misc/lv_color.h ****         return 1;
 303:..\..\..\lvgl\version_6.1.2\lvgl/src/lv_hal/../lv_misc/lv_color.h ****     } else {
 304:..\..\..\lvgl\version_6.1.2\lvgl/src/lv_hal/../lv_misc/lv_color.h ****         return 0;
 305:..\..\..\lvgl\version_6.1.2\lvgl/src/lv_hal/../lv_misc/lv_color.h ****     }
 306:..\..\..\lvgl\version_6.1.2\lvgl/src/lv_hal/../lv_misc/lv_color.h **** #elif LV_COLOR_DEPTH == 16
 307:..\..\..\lvgl\version_6.1.2\lvgl/src/lv_hal/../lv_misc/lv_color.h ****     if((LV_COLOR_GET_R(color) & 0x10) || (LV_COLOR_GET_G(color) & 0x20) || (LV_COLOR_GET_B(color) &
 308:..\..\..\lvgl\version_6.1.2\lvgl/src/lv_hal/../lv_misc/lv_color.h ****         return 1;
 309:..\..\..\lvgl\version_6.1.2\lvgl/src/lv_hal/../lv_misc/lv_color.h ****     } else {
 310:..\..\..\lvgl\version_6.1.2\lvgl/src/lv_hal/../lv_misc/lv_color.h ****         return 0;
 311:..\..\..\lvgl\version_6.1.2\lvgl/src/lv_hal/../lv_misc/lv_color.h ****     }
 312:..\..\..\lvgl\version_6.1.2\lvgl/src/lv_hal/../lv_misc/lv_color.h **** #elif LV_COLOR_DEPTH == 32
 313:..\..\..\lvgl\version_6.1.2\lvgl/src/lv_hal/../lv_misc/lv_color.h ****     if((LV_COLOR_GET_R(color) & 0x80) || (LV_COLOR_GET_G(color) & 0x80) || (LV_COLOR_GET_B(color) &
 314:..\..\..\lvgl\version_6.1.2\lvgl/src/lv_hal/../lv_misc/lv_color.h ****         return 1;
ARM GAS  C:\Users\tmj32\AppData\Local\Temp\ccoOIND8.s 			page 7


 315:..\..\..\lvgl\version_6.1.2\lvgl/src/lv_hal/../lv_misc/lv_color.h ****     } else {
 316:..\..\..\lvgl\version_6.1.2\lvgl/src/lv_hal/../lv_misc/lv_color.h ****         return 0;
 317:..\..\..\lvgl\version_6.1.2\lvgl/src/lv_hal/../lv_misc/lv_color.h ****     }
 318:..\..\..\lvgl\version_6.1.2\lvgl/src/lv_hal/../lv_misc/lv_color.h **** #endif
 319:..\..\..\lvgl\version_6.1.2\lvgl/src/lv_hal/../lv_misc/lv_color.h **** }
 320:..\..\..\lvgl\version_6.1.2\lvgl/src/lv_hal/../lv_misc/lv_color.h **** 
 321:..\..\..\lvgl\version_6.1.2\lvgl/src/lv_hal/../lv_misc/lv_color.h **** static inline uint8_t lv_color_to8(lv_color_t color)
 322:..\..\..\lvgl\version_6.1.2\lvgl/src/lv_hal/../lv_misc/lv_color.h **** {
 323:..\..\..\lvgl\version_6.1.2\lvgl/src/lv_hal/../lv_misc/lv_color.h **** #if LV_COLOR_DEPTH == 1
 324:..\..\..\lvgl\version_6.1.2\lvgl/src/lv_hal/../lv_misc/lv_color.h ****     if(color.full == 0)
 325:..\..\..\lvgl\version_6.1.2\lvgl/src/lv_hal/../lv_misc/lv_color.h ****         return 0;
 326:..\..\..\lvgl\version_6.1.2\lvgl/src/lv_hal/../lv_misc/lv_color.h ****     else
 327:..\..\..\lvgl\version_6.1.2\lvgl/src/lv_hal/../lv_misc/lv_color.h ****         return 0xFF;
 328:..\..\..\lvgl\version_6.1.2\lvgl/src/lv_hal/../lv_misc/lv_color.h **** #elif LV_COLOR_DEPTH == 8
 329:..\..\..\lvgl\version_6.1.2\lvgl/src/lv_hal/../lv_misc/lv_color.h ****     return color.full;
 330:..\..\..\lvgl\version_6.1.2\lvgl/src/lv_hal/../lv_misc/lv_color.h **** #elif LV_COLOR_DEPTH == 16
 331:..\..\..\lvgl\version_6.1.2\lvgl/src/lv_hal/../lv_misc/lv_color.h ****     lv_color8_t ret;
 332:..\..\..\lvgl\version_6.1.2\lvgl/src/lv_hal/../lv_misc/lv_color.h ****     LV_COLOR_SET_R8(ret, LV_COLOR_GET_R(color) >> 2);   /* 5 - 3  = 2*/
 333:..\..\..\lvgl\version_6.1.2\lvgl/src/lv_hal/../lv_misc/lv_color.h ****     LV_COLOR_SET_G8(ret, LV_COLOR_GET_G(color) >> 3); /* 6 - 3  = 3*/
 334:..\..\..\lvgl\version_6.1.2\lvgl/src/lv_hal/../lv_misc/lv_color.h ****     LV_COLOR_SET_B8(ret, LV_COLOR_GET_B(color) >> 3);  /* 5 - 2  = 3*/
 335:..\..\..\lvgl\version_6.1.2\lvgl/src/lv_hal/../lv_misc/lv_color.h ****     return ret.full;
 336:..\..\..\lvgl\version_6.1.2\lvgl/src/lv_hal/../lv_misc/lv_color.h **** #elif LV_COLOR_DEPTH == 32
 337:..\..\..\lvgl\version_6.1.2\lvgl/src/lv_hal/../lv_misc/lv_color.h ****     lv_color8_t ret;
 338:..\..\..\lvgl\version_6.1.2\lvgl/src/lv_hal/../lv_misc/lv_color.h ****     LV_COLOR_SET_R8(ret, LV_COLOR_GET_R(color) >> 5);   /* 8 - 3  = 5*/
 339:..\..\..\lvgl\version_6.1.2\lvgl/src/lv_hal/../lv_misc/lv_color.h ****     LV_COLOR_SET_G8(ret, LV_COLOR_GET_G(color) >> 5); /* 8 - 3  = 5*/
 340:..\..\..\lvgl\version_6.1.2\lvgl/src/lv_hal/../lv_misc/lv_color.h ****     LV_COLOR_SET_B8(ret, LV_COLOR_GET_B(color) >> 6);  /* 8 - 2  = 6*/
 341:..\..\..\lvgl\version_6.1.2\lvgl/src/lv_hal/../lv_misc/lv_color.h ****     return ret.full;
 342:..\..\..\lvgl\version_6.1.2\lvgl/src/lv_hal/../lv_misc/lv_color.h **** #endif
 343:..\..\..\lvgl\version_6.1.2\lvgl/src/lv_hal/../lv_misc/lv_color.h **** }
 344:..\..\..\lvgl\version_6.1.2\lvgl/src/lv_hal/../lv_misc/lv_color.h **** 
 345:..\..\..\lvgl\version_6.1.2\lvgl/src/lv_hal/../lv_misc/lv_color.h **** static inline uint16_t lv_color_to16(lv_color_t color)
 346:..\..\..\lvgl\version_6.1.2\lvgl/src/lv_hal/../lv_misc/lv_color.h **** {
 347:..\..\..\lvgl\version_6.1.2\lvgl/src/lv_hal/../lv_misc/lv_color.h **** #if LV_COLOR_DEPTH == 1
 348:..\..\..\lvgl\version_6.1.2\lvgl/src/lv_hal/../lv_misc/lv_color.h ****     if(color.full == 0)
 349:..\..\..\lvgl\version_6.1.2\lvgl/src/lv_hal/../lv_misc/lv_color.h ****         return 0;
 350:..\..\..\lvgl\version_6.1.2\lvgl/src/lv_hal/../lv_misc/lv_color.h ****     else
 351:..\..\..\lvgl\version_6.1.2\lvgl/src/lv_hal/../lv_misc/lv_color.h ****         return 0xFFFF;
 352:..\..\..\lvgl\version_6.1.2\lvgl/src/lv_hal/../lv_misc/lv_color.h **** #elif LV_COLOR_DEPTH == 8
 353:..\..\..\lvgl\version_6.1.2\lvgl/src/lv_hal/../lv_misc/lv_color.h ****     lv_color16_t ret;
 354:..\..\..\lvgl\version_6.1.2\lvgl/src/lv_hal/../lv_misc/lv_color.h ****     LV_COLOR_SET_R16(ret, LV_COLOR_GET_R(color) * 4);     /*(2^5 - 1)/(2^3 - 1) = 31/7 = 4*/
 355:..\..\..\lvgl\version_6.1.2\lvgl/src/lv_hal/../lv_misc/lv_color.h **** #if LV_COLOR_16_SWAP == 0
 356:..\..\..\lvgl\version_6.1.2\lvgl/src/lv_hal/../lv_misc/lv_color.h ****     LV_COLOR_SET_G16(ret,  LV_COLOR_GET_G(color) * 9); /*(2^6 - 1)/(2^3 - 1) = 63/7 = 9*/
 357:..\..\..\lvgl\version_6.1.2\lvgl/src/lv_hal/../lv_misc/lv_color.h **** #else
 358:..\..\..\lvgl\version_6.1.2\lvgl/src/lv_hal/../lv_misc/lv_color.h ****     LV_COLOR_SET_G16_SWAP(ret, (LV_COLOR_GET_G(color) * 9)); /*(2^6 - 1)/(2^3 - 1) = 63/7 = 9*/
 359:..\..\..\lvgl\version_6.1.2\lvgl/src/lv_hal/../lv_misc/lv_color.h **** #endif
 360:..\..\..\lvgl\version_6.1.2\lvgl/src/lv_hal/../lv_misc/lv_color.h ****     LV_COLOR_SET_B16(ret, LV_COLOR_GET_B(color) * 10);  /*(2^5 - 1)/(2^2 - 1) = 31/3 = 10*/
 361:..\..\..\lvgl\version_6.1.2\lvgl/src/lv_hal/../lv_misc/lv_color.h ****     return ret.full;
 362:..\..\..\lvgl\version_6.1.2\lvgl/src/lv_hal/../lv_misc/lv_color.h **** #elif LV_COLOR_DEPTH == 16
 363:..\..\..\lvgl\version_6.1.2\lvgl/src/lv_hal/../lv_misc/lv_color.h ****     return color.full;
 364:..\..\..\lvgl\version_6.1.2\lvgl/src/lv_hal/../lv_misc/lv_color.h **** #elif LV_COLOR_DEPTH == 32
 365:..\..\..\lvgl\version_6.1.2\lvgl/src/lv_hal/../lv_misc/lv_color.h ****     lv_color16_t ret;
 366:..\..\..\lvgl\version_6.1.2\lvgl/src/lv_hal/../lv_misc/lv_color.h ****     LV_COLOR_SET_R16(ret, LV_COLOR_GET_R(color) >> 3);   /* 8 - 5  = 3*/
 367:..\..\..\lvgl\version_6.1.2\lvgl/src/lv_hal/../lv_misc/lv_color.h **** 
 368:..\..\..\lvgl\version_6.1.2\lvgl/src/lv_hal/../lv_misc/lv_color.h **** #if LV_COLOR_16_SWAP == 0
 369:..\..\..\lvgl\version_6.1.2\lvgl/src/lv_hal/../lv_misc/lv_color.h ****     LV_COLOR_SET_G16(ret, LV_COLOR_GET_G(color) >> 2); /* 8 - 6  = 2*/
 370:..\..\..\lvgl\version_6.1.2\lvgl/src/lv_hal/../lv_misc/lv_color.h **** #else
 371:..\..\..\lvgl\version_6.1.2\lvgl/src/lv_hal/../lv_misc/lv_color.h ****     LV_COLOR_SET_G16_SWAP(ret, ret.ch.green_h = (LV_COLOR_GET_G(color) >> 2); /*(2^6 - 1)/(2^3 - 1)
ARM GAS  C:\Users\tmj32\AppData\Local\Temp\ccoOIND8.s 			page 8


 372:..\..\..\lvgl\version_6.1.2\lvgl/src/lv_hal/../lv_misc/lv_color.h **** #endif
 373:..\..\..\lvgl\version_6.1.2\lvgl/src/lv_hal/../lv_misc/lv_color.h ****     LV_COLOR_SET_B16(ret, LV_COLOR_GET_B(color) >> 3);  /* 8 - 5  = 3*/
 374:..\..\..\lvgl\version_6.1.2\lvgl/src/lv_hal/../lv_misc/lv_color.h ****     return ret.full;
 375:..\..\..\lvgl\version_6.1.2\lvgl/src/lv_hal/../lv_misc/lv_color.h **** #endif                         
 376:..\..\..\lvgl\version_6.1.2\lvgl/src/lv_hal/../lv_misc/lv_color.h **** }
 377:..\..\..\lvgl\version_6.1.2\lvgl/src/lv_hal/../lv_misc/lv_color.h **** 
 378:..\..\..\lvgl\version_6.1.2\lvgl/src/lv_hal/../lv_misc/lv_color.h **** static inline uint32_t lv_color_to32(lv_color_t color)
 379:..\..\..\lvgl\version_6.1.2\lvgl/src/lv_hal/../lv_misc/lv_color.h **** {
 380:..\..\..\lvgl\version_6.1.2\lvgl/src/lv_hal/../lv_misc/lv_color.h **** #if LV_COLOR_DEPTH == 1
 381:..\..\..\lvgl\version_6.1.2\lvgl/src/lv_hal/../lv_misc/lv_color.h ****     if(color.full == 0)
 382:..\..\..\lvgl\version_6.1.2\lvgl/src/lv_hal/../lv_misc/lv_color.h ****         return 0;
 383:..\..\..\lvgl\version_6.1.2\lvgl/src/lv_hal/../lv_misc/lv_color.h ****     else
 384:..\..\..\lvgl\version_6.1.2\lvgl/src/lv_hal/../lv_misc/lv_color.h ****         return 0xFFFFFFFF;
 385:..\..\..\lvgl\version_6.1.2\lvgl/src/lv_hal/../lv_misc/lv_color.h **** #elif LV_COLOR_DEPTH == 8
 386:..\..\..\lvgl\version_6.1.2\lvgl/src/lv_hal/../lv_misc/lv_color.h ****     lv_color32_t ret;
 387:..\..\..\lvgl\version_6.1.2\lvgl/src/lv_hal/../lv_misc/lv_color.h ****     LV_COLOR_SET_R32(ret, LV_COLOR_GET_R(color) * 36);     /*(2^8 - 1)/(2^3 - 1) = 255/7 = 36*/
 388:..\..\..\lvgl\version_6.1.2\lvgl/src/lv_hal/../lv_misc/lv_color.h ****     LV_COLOR_SET_G32(ret, LV_COLOR_GET_G(color) * 36); /*(2^8 - 1)/(2^3 - 1) = 255/7 = 36*/
 389:..\..\..\lvgl\version_6.1.2\lvgl/src/lv_hal/../lv_misc/lv_color.h ****     LV_COLOR_SET_B32(ret, LV_COLOR_GET_B(color) * 85);   /*(2^8 - 1)/(2^2 - 1) = 255/3 = 85*/
 390:..\..\..\lvgl\version_6.1.2\lvgl/src/lv_hal/../lv_misc/lv_color.h ****     LV_COLOR_SET_A32(ret, 0xFF);
 391:..\..\..\lvgl\version_6.1.2\lvgl/src/lv_hal/../lv_misc/lv_color.h ****     return ret.full;
 392:..\..\..\lvgl\version_6.1.2\lvgl/src/lv_hal/../lv_misc/lv_color.h **** #elif LV_COLOR_DEPTH == 16
 393:..\..\..\lvgl\version_6.1.2\lvgl/src/lv_hal/../lv_misc/lv_color.h ****     /**
 394:..\..\..\lvgl\version_6.1.2\lvgl/src/lv_hal/../lv_misc/lv_color.h ****      * The floating point math for conversion is:
 395:..\..\..\lvgl\version_6.1.2\lvgl/src/lv_hal/../lv_misc/lv_color.h ****      *  valueto = valuefrom * ( (2^bitsto - 1) / (float)(2^bitsfrom - 1) )
 396:..\..\..\lvgl\version_6.1.2\lvgl/src/lv_hal/../lv_misc/lv_color.h ****      * The faster integer math for conversion is:
 397:..\..\..\lvgl\version_6.1.2\lvgl/src/lv_hal/../lv_misc/lv_color.h ****      *  valueto = ( valuefrom * multiplier + adder ) >> divisor
 398:..\..\..\lvgl\version_6.1.2\lvgl/src/lv_hal/../lv_misc/lv_color.h ****      *   multiplier = FLOOR( ( (2^bitsto - 1) << divisor ) / (float)(2^bitsfrom - 1) )
 399:..\..\..\lvgl\version_6.1.2\lvgl/src/lv_hal/../lv_misc/lv_color.h ****      * 
 400:..\..\..\lvgl\version_6.1.2\lvgl/src/lv_hal/../lv_misc/lv_color.h ****      * Find the first divisor where ( adder >> divisor ) <= 0
 401:..\..\..\lvgl\version_6.1.2\lvgl/src/lv_hal/../lv_misc/lv_color.h ****      * 
 402:..\..\..\lvgl\version_6.1.2\lvgl/src/lv_hal/../lv_misc/lv_color.h ****      * 5-bit to 8-bit: ( 31 * multiplier + adder ) >> divisor = 255
 403:..\..\..\lvgl\version_6.1.2\lvgl/src/lv_hal/../lv_misc/lv_color.h ****      * divisor  multiplier  adder  min (0)  max (31)
 404:..\..\..\lvgl\version_6.1.2\lvgl/src/lv_hal/../lv_misc/lv_color.h ****      *       0           8      7        7       255
 405:..\..\..\lvgl\version_6.1.2\lvgl/src/lv_hal/../lv_misc/lv_color.h ****      *       1          16     14        7       255
 406:..\..\..\lvgl\version_6.1.2\lvgl/src/lv_hal/../lv_misc/lv_color.h ****      *       2          32     28        7       255
 407:..\..\..\lvgl\version_6.1.2\lvgl/src/lv_hal/../lv_misc/lv_color.h ****      *       3          65     25        3       255
 408:..\..\..\lvgl\version_6.1.2\lvgl/src/lv_hal/../lv_misc/lv_color.h ****      *       4         131     19        1       255
 409:..\..\..\lvgl\version_6.1.2\lvgl/src/lv_hal/../lv_misc/lv_color.h ****      *       5         263      7        0       255
 410:..\..\..\lvgl\version_6.1.2\lvgl/src/lv_hal/../lv_misc/lv_color.h ****      * 
 411:..\..\..\lvgl\version_6.1.2\lvgl/src/lv_hal/../lv_misc/lv_color.h ****      * 6-bit to 8-bit: 255 = ( 63 * multiplier + adder ) >> divisor
 412:..\..\..\lvgl\version_6.1.2\lvgl/src/lv_hal/../lv_misc/lv_color.h ****      * divisor  multiplier  adder  min (0)  max (63)
 413:..\..\..\lvgl\version_6.1.2\lvgl/src/lv_hal/../lv_misc/lv_color.h ****      *       0           4      3        3       255
 414:..\..\..\lvgl\version_6.1.2\lvgl/src/lv_hal/../lv_misc/lv_color.h ****      *       1           8      6        3       255
 415:..\..\..\lvgl\version_6.1.2\lvgl/src/lv_hal/../lv_misc/lv_color.h ****      *       2          16     12        3       255
 416:..\..\..\lvgl\version_6.1.2\lvgl/src/lv_hal/../lv_misc/lv_color.h ****      *       3          32     24        3       255
 417:..\..\..\lvgl\version_6.1.2\lvgl/src/lv_hal/../lv_misc/lv_color.h ****      *       4          64     48        3       255
 418:..\..\..\lvgl\version_6.1.2\lvgl/src/lv_hal/../lv_misc/lv_color.h ****      *       5         129     33        1       255
 419:..\..\..\lvgl\version_6.1.2\lvgl/src/lv_hal/../lv_misc/lv_color.h ****      *       6         259      3        0       255
 420:..\..\..\lvgl\version_6.1.2\lvgl/src/lv_hal/../lv_misc/lv_color.h ****      */
 421:..\..\..\lvgl\version_6.1.2\lvgl/src/lv_hal/../lv_misc/lv_color.h ****     lv_color32_t ret;
 422:..\..\..\lvgl\version_6.1.2\lvgl/src/lv_hal/../lv_misc/lv_color.h ****     LV_COLOR_SET_R32(ret, (LV_COLOR_GET_R(color) * 263 + 7 ) >> 5);
 423:..\..\..\lvgl\version_6.1.2\lvgl/src/lv_hal/../lv_misc/lv_color.h ****     LV_COLOR_SET_G32(ret, (LV_COLOR_GET_G(color) * 259 + 3 ) >> 6);
 424:..\..\..\lvgl\version_6.1.2\lvgl/src/lv_hal/../lv_misc/lv_color.h ****     LV_COLOR_SET_B32(ret, (LV_COLOR_GET_B(color) * 263 + 7 ) >> 5);
 425:..\..\..\lvgl\version_6.1.2\lvgl/src/lv_hal/../lv_misc/lv_color.h ****     LV_COLOR_SET_A32(ret, 0xFF);
 426:..\..\..\lvgl\version_6.1.2\lvgl/src/lv_hal/../lv_misc/lv_color.h ****     return ret.full;
 427:..\..\..\lvgl\version_6.1.2\lvgl/src/lv_hal/../lv_misc/lv_color.h **** #elif LV_COLOR_DEPTH == 32
 428:..\..\..\lvgl\version_6.1.2\lvgl/src/lv_hal/../lv_misc/lv_color.h ****     return color.full;
ARM GAS  C:\Users\tmj32\AppData\Local\Temp\ccoOIND8.s 			page 9


 429:..\..\..\lvgl\version_6.1.2\lvgl/src/lv_hal/../lv_misc/lv_color.h **** #endif
 430:..\..\..\lvgl\version_6.1.2\lvgl/src/lv_hal/../lv_misc/lv_color.h **** }
 431:..\..\..\lvgl\version_6.1.2\lvgl/src/lv_hal/../lv_misc/lv_color.h **** 
 432:..\..\..\lvgl\version_6.1.2\lvgl/src/lv_hal/../lv_misc/lv_color.h **** static inline lv_color_t lv_color_mix(lv_color_t c1, lv_color_t c2, uint8_t mix)
 433:..\..\..\lvgl\version_6.1.2\lvgl/src/lv_hal/../lv_misc/lv_color.h **** {
 434:..\..\..\lvgl\version_6.1.2\lvgl/src/lv_hal/../lv_misc/lv_color.h ****     lv_color_t ret;
 435:..\..\..\lvgl\version_6.1.2\lvgl/src/lv_hal/../lv_misc/lv_color.h **** #if LV_COLOR_DEPTH != 1
 436:..\..\..\lvgl\version_6.1.2\lvgl/src/lv_hal/../lv_misc/lv_color.h ****     /*LV_COLOR_DEPTH == 8, 16 or 32*/
 437:..\..\..\lvgl\version_6.1.2\lvgl/src/lv_hal/../lv_misc/lv_color.h ****     LV_COLOR_SET_R(ret, (uint16_t)((uint16_t) LV_COLOR_GET_R(c1) * mix + LV_COLOR_GET_R(c2) * (255 
 438:..\..\..\lvgl\version_6.1.2\lvgl/src/lv_hal/../lv_misc/lv_color.h ****     LV_COLOR_SET_G(ret, (uint16_t)((uint16_t) LV_COLOR_GET_G(c1) * mix + LV_COLOR_GET_G(c2) * (255 
 439:..\..\..\lvgl\version_6.1.2\lvgl/src/lv_hal/../lv_misc/lv_color.h ****     LV_COLOR_SET_B(ret, (uint16_t)((uint16_t) LV_COLOR_GET_B(c1) * mix + LV_COLOR_GET_B(c2) * (255 
 440:..\..\..\lvgl\version_6.1.2\lvgl/src/lv_hal/../lv_misc/lv_color.h ****     LV_COLOR_SET_A(ret, 0xFF);
 441:..\..\..\lvgl\version_6.1.2\lvgl/src/lv_hal/../lv_misc/lv_color.h **** #else
 442:..\..\..\lvgl\version_6.1.2\lvgl/src/lv_hal/../lv_misc/lv_color.h ****     /*LV_COLOR_DEPTH == 1*/
 443:..\..\..\lvgl\version_6.1.2\lvgl/src/lv_hal/../lv_misc/lv_color.h ****     ret.full = mix > LV_OPA_50 ? c1.full : c2.full;
 444:..\..\..\lvgl\version_6.1.2\lvgl/src/lv_hal/../lv_misc/lv_color.h **** #endif
 445:..\..\..\lvgl\version_6.1.2\lvgl/src/lv_hal/../lv_misc/lv_color.h **** 
 446:..\..\..\lvgl\version_6.1.2\lvgl/src/lv_hal/../lv_misc/lv_color.h ****     return ret;
 447:..\..\..\lvgl\version_6.1.2\lvgl/src/lv_hal/../lv_misc/lv_color.h **** }
 448:..\..\..\lvgl\version_6.1.2\lvgl/src/lv_hal/../lv_misc/lv_color.h **** 
 449:..\..\..\lvgl\version_6.1.2\lvgl/src/lv_hal/../lv_misc/lv_color.h **** /**
 450:..\..\..\lvgl\version_6.1.2\lvgl/src/lv_hal/../lv_misc/lv_color.h ****  * Get the brightness of a color
 451:..\..\..\lvgl\version_6.1.2\lvgl/src/lv_hal/../lv_misc/lv_color.h ****  * @param color a color
 452:..\..\..\lvgl\version_6.1.2\lvgl/src/lv_hal/../lv_misc/lv_color.h ****  * @return the brightness [0..255]
 453:..\..\..\lvgl\version_6.1.2\lvgl/src/lv_hal/../lv_misc/lv_color.h ****  */
 454:..\..\..\lvgl\version_6.1.2\lvgl/src/lv_hal/../lv_misc/lv_color.h **** static inline uint8_t lv_color_brightness(lv_color_t color)
 455:..\..\..\lvgl\version_6.1.2\lvgl/src/lv_hal/../lv_misc/lv_color.h **** {
 456:..\..\..\lvgl\version_6.1.2\lvgl/src/lv_hal/../lv_misc/lv_color.h ****     lv_color32_t c32;
 457:..\..\..\lvgl\version_6.1.2\lvgl/src/lv_hal/../lv_misc/lv_color.h ****     c32.full        = lv_color_to32(color);
 458:..\..\..\lvgl\version_6.1.2\lvgl/src/lv_hal/../lv_misc/lv_color.h ****     uint16_t bright = (uint16_t)(3u * LV_COLOR_GET_R32(c32) + LV_COLOR_GET_B32(c32) + 4u * LV_COLOR
 459:..\..\..\lvgl\version_6.1.2\lvgl/src/lv_hal/../lv_misc/lv_color.h ****     return (uint8_t)(bright >> 3);
 460:..\..\..\lvgl\version_6.1.2\lvgl/src/lv_hal/../lv_misc/lv_color.h **** }
 461:..\..\..\lvgl\version_6.1.2\lvgl/src/lv_hal/../lv_misc/lv_color.h **** 
 462:..\..\..\lvgl\version_6.1.2\lvgl/src/lv_hal/../lv_misc/lv_color.h **** /* The most simple macro to create a color from R,G and B values */
 463:..\..\..\lvgl\version_6.1.2\lvgl/src/lv_hal/../lv_misc/lv_color.h **** #if LV_COLOR_DEPTH == 1
 464:..\..\..\lvgl\version_6.1.2\lvgl/src/lv_hal/../lv_misc/lv_color.h **** #define LV_COLOR_MAKE(r8, g8, b8) ((lv_color_t){.full = (uint8_t)((b8 >> 7) | (g8 >> 7) | (r8 >> 7)
 465:..\..\..\lvgl\version_6.1.2\lvgl/src/lv_hal/../lv_misc/lv_color.h **** #elif LV_COLOR_DEPTH == 8
 466:..\..\..\lvgl\version_6.1.2\lvgl/src/lv_hal/../lv_misc/lv_color.h **** #define LV_COLOR_MAKE(r8, g8, b8) ((lv_color_t){{(uint8_t)((b8 >> 6) & 0x3U), (uint8_t)((g8 >> 5) &
 467:..\..\..\lvgl\version_6.1.2\lvgl/src/lv_hal/../lv_misc/lv_color.h **** #elif LV_COLOR_DEPTH == 16
 468:..\..\..\lvgl\version_6.1.2\lvgl/src/lv_hal/../lv_misc/lv_color.h **** #if LV_COLOR_16_SWAP == 0
 469:..\..\..\lvgl\version_6.1.2\lvgl/src/lv_hal/../lv_misc/lv_color.h **** #define LV_COLOR_MAKE(r8, g8, b8) ((lv_color_t){{(uint16_t)((b8 >> 3) & 0x1FU), (uint16_t)((g8 >> 2
 470:..\..\..\lvgl\version_6.1.2\lvgl/src/lv_hal/../lv_misc/lv_color.h **** #else
 471:..\..\..\lvgl\version_6.1.2\lvgl/src/lv_hal/../lv_misc/lv_color.h **** #define LV_COLOR_MAKE(r8, g8, b8) ((lv_color_t){{(uint16_t)((g8 >> 5) & 0x7U), (uint16_t)((r8 >> 3)
 472:..\..\..\lvgl\version_6.1.2\lvgl/src/lv_hal/../lv_misc/lv_color.h **** #endif
 473:..\..\..\lvgl\version_6.1.2\lvgl/src/lv_hal/../lv_misc/lv_color.h **** #elif LV_COLOR_DEPTH == 32
 474:..\..\..\lvgl\version_6.1.2\lvgl/src/lv_hal/../lv_misc/lv_color.h **** #define LV_COLOR_MAKE(r8, g8, b8) ((lv_color_t){{b8, g8, r8, 0xff}}) /*Fix 0xff alpha*/
 475:..\..\..\lvgl\version_6.1.2\lvgl/src/lv_hal/../lv_misc/lv_color.h **** #endif
 476:..\..\..\lvgl\version_6.1.2\lvgl/src/lv_hal/../lv_misc/lv_color.h **** 
 477:..\..\..\lvgl\version_6.1.2\lvgl/src/lv_hal/../lv_misc/lv_color.h **** static inline lv_color_t lv_color_make(uint8_t r, uint8_t g, uint8_t b)
 478:..\..\..\lvgl\version_6.1.2\lvgl/src/lv_hal/../lv_misc/lv_color.h **** {
  29              		.loc 1 478 0
  30              		.cfi_startproc
  31              		@ args = 0, pretend = 0, frame = 8
  32              		@ frame_needed = 1, uses_anonymous_args = 0
  33              		@ link register save eliminated.
  34 0000 90B4     		push	{r4, r7}
  35              		.cfi_def_cfa_offset 8
ARM GAS  C:\Users\tmj32\AppData\Local\Temp\ccoOIND8.s 			page 10


  36              		.cfi_offset 4, -8
  37              		.cfi_offset 7, -4
  38 0002 82B0     		sub	sp, sp, #8
  39              		.cfi_def_cfa_offset 16
  40 0004 00AF     		add	r7, sp, #0
  41              		.cfi_def_cfa_register 7
  42 0006 0446     		mov	r4, r0
  43 0008 0846     		mov	r0, r1
  44 000a 1146     		mov	r1, r2
  45 000c 2246     		mov	r2, r4
  46 000e FA71     		strb	r2, [r7, #7]
  47 0010 0246     		mov	r2, r0
  48 0012 BA71     		strb	r2, [r7, #6]
  49 0014 0A46     		mov	r2, r1
  50 0016 7A71     		strb	r2, [r7, #5]
 479:..\..\..\lvgl\version_6.1.2\lvgl/src/lv_hal/../lv_misc/lv_color.h ****     return LV_COLOR_MAKE(r, g, b);
  51              		.loc 1 479 0
  52 0018 7A79     		ldrb	r2, [r7, #5]
  53 001a 62F30703 		bfi	r3, r2, #0, #8
  54 001e BA79     		ldrb	r2, [r7, #6]
  55 0020 62F30F23 		bfi	r3, r2, #8, #8
  56 0024 FA79     		ldrb	r2, [r7, #7]
  57 0026 62F31743 		bfi	r3, r2, #16, #8
  58 002a 43F07F43 		orr	r3, r3, #-16777216
 480:..\..\..\lvgl\version_6.1.2\lvgl/src/lv_hal/../lv_misc/lv_color.h **** }
  59              		.loc 1 480 0
  60 002e 1846     		mov	r0, r3
  61 0030 0837     		adds	r7, r7, #8
  62              		.cfi_def_cfa_offset 8
  63 0032 BD46     		mov	sp, r7
  64              		.cfi_def_cfa_register 13
  65              		@ sp needed
  66 0034 90BC     		pop	{r4, r7}
  67              		.cfi_restore 7
  68              		.cfi_restore 4
  69              		.cfi_def_cfa_offset 0
  70 0036 7047     		bx	lr
  71              		.cfi_endproc
  72              	.LFE588:
  73              		.size	lv_color_make, .-lv_color_make
  74              		.section	.text.lv_color_hex,"ax",%progbits
  75              		.align	2
  76              		.thumb
  77              		.thumb_func
  78              		.type	lv_color_hex, %function
  79              	lv_color_hex:
  80              	.LFB589:
 481:..\..\..\lvgl\version_6.1.2\lvgl/src/lv_hal/../lv_misc/lv_color.h **** 
 482:..\..\..\lvgl\version_6.1.2\lvgl/src/lv_hal/../lv_misc/lv_color.h **** static inline lv_color_t lv_color_hex(uint32_t c)
 483:..\..\..\lvgl\version_6.1.2\lvgl/src/lv_hal/../lv_misc/lv_color.h **** {
  81              		.loc 1 483 0
  82              		.cfi_startproc
  83              		@ args = 0, pretend = 0, frame = 8
  84              		@ frame_needed = 1, uses_anonymous_args = 0
  85 0000 80B5     		push	{r7, lr}
  86              		.cfi_def_cfa_offset 8
  87              		.cfi_offset 7, -8
ARM GAS  C:\Users\tmj32\AppData\Local\Temp\ccoOIND8.s 			page 11


  88              		.cfi_offset 14, -4
  89 0002 82B0     		sub	sp, sp, #8
  90              		.cfi_def_cfa_offset 16
  91 0004 00AF     		add	r7, sp, #0
  92              		.cfi_def_cfa_register 7
  93 0006 7860     		str	r0, [r7, #4]
 484:..\..\..\lvgl\version_6.1.2\lvgl/src/lv_hal/../lv_misc/lv_color.h ****     return lv_color_make((uint8_t)((c >> 16) & 0xFF), (uint8_t)((c >> 8) & 0xFF), (uint8_t)(c & 0xF
  94              		.loc 1 484 0
  95 0008 7B68     		ldr	r3, [r7, #4]
  96 000a 1B0C     		lsrs	r3, r3, #16
  97 000c D8B2     		uxtb	r0, r3
  98 000e 7B68     		ldr	r3, [r7, #4]
  99 0010 1B0A     		lsrs	r3, r3, #8
 100 0012 DBB2     		uxtb	r3, r3
 101 0014 7A68     		ldr	r2, [r7, #4]
 102 0016 D2B2     		uxtb	r2, r2
 103 0018 1946     		mov	r1, r3
 104 001a FFF7FEFF 		bl	lv_color_make
 105 001e 0346     		mov	r3, r0
 485:..\..\..\lvgl\version_6.1.2\lvgl/src/lv_hal/../lv_misc/lv_color.h **** }
 106              		.loc 1 485 0
 107 0020 1846     		mov	r0, r3
 108 0022 0837     		adds	r7, r7, #8
 109              		.cfi_def_cfa_offset 8
 110 0024 BD46     		mov	sp, r7
 111              		.cfi_def_cfa_register 13
 112              		@ sp needed
 113 0026 80BD     		pop	{r7, pc}
 114              		.cfi_endproc
 115              	.LFE589:
 116              		.size	lv_color_hex, .-lv_color_hex
 117              		.section	.text.lv_scr_act,"ax",%progbits
 118              		.align	2
 119              		.thumb
 120              		.thumb_func
 121              		.type	lv_scr_act, %function
 122              	lv_scr_act:
 123              	.LFB613:
 124              		.file 2 "..\\..\\..\\lvgl\\version_6.1.2\\lvgl/src/lv_core/lv_disp.h"
   1:..\..\..\lvgl\version_6.1.2\lvgl/src/lv_core/lv_disp.h **** /**
   2:..\..\..\lvgl\version_6.1.2\lvgl/src/lv_core/lv_disp.h ****  * @file lv_disp.h
   3:..\..\..\lvgl\version_6.1.2\lvgl/src/lv_core/lv_disp.h ****  *
   4:..\..\..\lvgl\version_6.1.2\lvgl/src/lv_core/lv_disp.h ****  */
   5:..\..\..\lvgl\version_6.1.2\lvgl/src/lv_core/lv_disp.h **** 
   6:..\..\..\lvgl\version_6.1.2\lvgl/src/lv_core/lv_disp.h **** #ifndef LV_DISP_H
   7:..\..\..\lvgl\version_6.1.2\lvgl/src/lv_core/lv_disp.h **** #define LV_DISP_H
   8:..\..\..\lvgl\version_6.1.2\lvgl/src/lv_core/lv_disp.h **** 
   9:..\..\..\lvgl\version_6.1.2\lvgl/src/lv_core/lv_disp.h **** #ifdef __cplusplus
  10:..\..\..\lvgl\version_6.1.2\lvgl/src/lv_core/lv_disp.h **** extern "C" {
  11:..\..\..\lvgl\version_6.1.2\lvgl/src/lv_core/lv_disp.h **** #endif
  12:..\..\..\lvgl\version_6.1.2\lvgl/src/lv_core/lv_disp.h **** 
  13:..\..\..\lvgl\version_6.1.2\lvgl/src/lv_core/lv_disp.h **** /*********************
  14:..\..\..\lvgl\version_6.1.2\lvgl/src/lv_core/lv_disp.h ****  *      INCLUDES
  15:..\..\..\lvgl\version_6.1.2\lvgl/src/lv_core/lv_disp.h ****  *********************/
  16:..\..\..\lvgl\version_6.1.2\lvgl/src/lv_core/lv_disp.h **** #include "../lv_hal/lv_hal.h"
  17:..\..\..\lvgl\version_6.1.2\lvgl/src/lv_core/lv_disp.h **** #include "lv_obj.h"
  18:..\..\..\lvgl\version_6.1.2\lvgl/src/lv_core/lv_disp.h **** 
ARM GAS  C:\Users\tmj32\AppData\Local\Temp\ccoOIND8.s 			page 12


  19:..\..\..\lvgl\version_6.1.2\lvgl/src/lv_core/lv_disp.h **** /*********************
  20:..\..\..\lvgl\version_6.1.2\lvgl/src/lv_core/lv_disp.h ****  *      DEFINES
  21:..\..\..\lvgl\version_6.1.2\lvgl/src/lv_core/lv_disp.h ****  *********************/
  22:..\..\..\lvgl\version_6.1.2\lvgl/src/lv_core/lv_disp.h **** 
  23:..\..\..\lvgl\version_6.1.2\lvgl/src/lv_core/lv_disp.h **** /**********************
  24:..\..\..\lvgl\version_6.1.2\lvgl/src/lv_core/lv_disp.h ****  *      TYPEDEFS
  25:..\..\..\lvgl\version_6.1.2\lvgl/src/lv_core/lv_disp.h ****  **********************/
  26:..\..\..\lvgl\version_6.1.2\lvgl/src/lv_core/lv_disp.h **** 
  27:..\..\..\lvgl\version_6.1.2\lvgl/src/lv_core/lv_disp.h **** /**********************
  28:..\..\..\lvgl\version_6.1.2\lvgl/src/lv_core/lv_disp.h ****  * GLOBAL PROTOTYPES
  29:..\..\..\lvgl\version_6.1.2\lvgl/src/lv_core/lv_disp.h ****  **********************/
  30:..\..\..\lvgl\version_6.1.2\lvgl/src/lv_core/lv_disp.h **** 
  31:..\..\..\lvgl\version_6.1.2\lvgl/src/lv_core/lv_disp.h **** /**
  32:..\..\..\lvgl\version_6.1.2\lvgl/src/lv_core/lv_disp.h ****  * Return with a pointer to the active screen
  33:..\..\..\lvgl\version_6.1.2\lvgl/src/lv_core/lv_disp.h ****  * @param disp pointer to display which active screen should be get. (NULL to use the default
  34:..\..\..\lvgl\version_6.1.2\lvgl/src/lv_core/lv_disp.h ****  * screen)
  35:..\..\..\lvgl\version_6.1.2\lvgl/src/lv_core/lv_disp.h ****  * @return pointer to the active screen object (loaded by 'lv_scr_load()')
  36:..\..\..\lvgl\version_6.1.2\lvgl/src/lv_core/lv_disp.h ****  */
  37:..\..\..\lvgl\version_6.1.2\lvgl/src/lv_core/lv_disp.h **** lv_obj_t * lv_disp_get_scr_act(lv_disp_t * disp);
  38:..\..\..\lvgl\version_6.1.2\lvgl/src/lv_core/lv_disp.h **** 
  39:..\..\..\lvgl\version_6.1.2\lvgl/src/lv_core/lv_disp.h **** /**
  40:..\..\..\lvgl\version_6.1.2\lvgl/src/lv_core/lv_disp.h ****  * Make a screen active
  41:..\..\..\lvgl\version_6.1.2\lvgl/src/lv_core/lv_disp.h ****  * @param scr pointer to a screen
  42:..\..\..\lvgl\version_6.1.2\lvgl/src/lv_core/lv_disp.h ****  */
  43:..\..\..\lvgl\version_6.1.2\lvgl/src/lv_core/lv_disp.h **** void lv_disp_load_scr(lv_obj_t * scr);
  44:..\..\..\lvgl\version_6.1.2\lvgl/src/lv_core/lv_disp.h **** 
  45:..\..\..\lvgl\version_6.1.2\lvgl/src/lv_core/lv_disp.h **** /**
  46:..\..\..\lvgl\version_6.1.2\lvgl/src/lv_core/lv_disp.h ****  * Return with the top layer. (Same on every screen and it is above the normal screen layer)
  47:..\..\..\lvgl\version_6.1.2\lvgl/src/lv_core/lv_disp.h ****  * @param disp pointer to display which top layer should be get. (NULL to use the default screen)
  48:..\..\..\lvgl\version_6.1.2\lvgl/src/lv_core/lv_disp.h ****  * @return pointer to the top layer object  (transparent screen sized lv_obj)
  49:..\..\..\lvgl\version_6.1.2\lvgl/src/lv_core/lv_disp.h ****  */
  50:..\..\..\lvgl\version_6.1.2\lvgl/src/lv_core/lv_disp.h **** lv_obj_t * lv_disp_get_layer_top(lv_disp_t * disp);
  51:..\..\..\lvgl\version_6.1.2\lvgl/src/lv_core/lv_disp.h **** 
  52:..\..\..\lvgl\version_6.1.2\lvgl/src/lv_core/lv_disp.h **** /**
  53:..\..\..\lvgl\version_6.1.2\lvgl/src/lv_core/lv_disp.h ****  * Return with the sys. layer. (Same on every screen and it is above the normal screen and the top
  54:..\..\..\lvgl\version_6.1.2\lvgl/src/lv_core/lv_disp.h ****  * layer)
  55:..\..\..\lvgl\version_6.1.2\lvgl/src/lv_core/lv_disp.h ****  * @param disp pointer to display which sys. layer  should be get. (NULL to use the default screen)
  56:..\..\..\lvgl\version_6.1.2\lvgl/src/lv_core/lv_disp.h ****  * @return pointer to the sys layer object  (transparent screen sized lv_obj)
  57:..\..\..\lvgl\version_6.1.2\lvgl/src/lv_core/lv_disp.h ****  */
  58:..\..\..\lvgl\version_6.1.2\lvgl/src/lv_core/lv_disp.h **** lv_obj_t * lv_disp_get_layer_sys(lv_disp_t * disp);
  59:..\..\..\lvgl\version_6.1.2\lvgl/src/lv_core/lv_disp.h **** 
  60:..\..\..\lvgl\version_6.1.2\lvgl/src/lv_core/lv_disp.h **** /**
  61:..\..\..\lvgl\version_6.1.2\lvgl/src/lv_core/lv_disp.h ****  * Assign a screen to a display.
  62:..\..\..\lvgl\version_6.1.2\lvgl/src/lv_core/lv_disp.h ****  * @param disp pointer to a display where to assign the screen
  63:..\..\..\lvgl\version_6.1.2\lvgl/src/lv_core/lv_disp.h ****  * @param scr pointer to a screen object to assign
  64:..\..\..\lvgl\version_6.1.2\lvgl/src/lv_core/lv_disp.h ****  */
  65:..\..\..\lvgl\version_6.1.2\lvgl/src/lv_core/lv_disp.h **** void lv_disp_assign_screen(lv_disp_t * disp, lv_obj_t * scr);
  66:..\..\..\lvgl\version_6.1.2\lvgl/src/lv_core/lv_disp.h **** 
  67:..\..\..\lvgl\version_6.1.2\lvgl/src/lv_core/lv_disp.h **** /**
  68:..\..\..\lvgl\version_6.1.2\lvgl/src/lv_core/lv_disp.h ****  * Get a pointer to the screen refresher task to
  69:..\..\..\lvgl\version_6.1.2\lvgl/src/lv_core/lv_disp.h ****  * modify its parameters with `lv_task_...` functions.
  70:..\..\..\lvgl\version_6.1.2\lvgl/src/lv_core/lv_disp.h ****  * @param disp pointer to a display
  71:..\..\..\lvgl\version_6.1.2\lvgl/src/lv_core/lv_disp.h ****  * @return pointer to the display refresher task. (NULL on error)
  72:..\..\..\lvgl\version_6.1.2\lvgl/src/lv_core/lv_disp.h ****  */
  73:..\..\..\lvgl\version_6.1.2\lvgl/src/lv_core/lv_disp.h **** lv_task_t * lv_disp_get_refr_task(lv_disp_t * disp);
  74:..\..\..\lvgl\version_6.1.2\lvgl/src/lv_core/lv_disp.h **** 
  75:..\..\..\lvgl\version_6.1.2\lvgl/src/lv_core/lv_disp.h **** /**
ARM GAS  C:\Users\tmj32\AppData\Local\Temp\ccoOIND8.s 			page 13


  76:..\..\..\lvgl\version_6.1.2\lvgl/src/lv_core/lv_disp.h ****  * Get elapsed time since last user activity on a display (e.g. click)
  77:..\..\..\lvgl\version_6.1.2\lvgl/src/lv_core/lv_disp.h ****  * @param disp pointer to an display (NULL to get the overall smallest inactivity)
  78:..\..\..\lvgl\version_6.1.2\lvgl/src/lv_core/lv_disp.h ****  * @return elapsed ticks (milliseconds) since the last activity
  79:..\..\..\lvgl\version_6.1.2\lvgl/src/lv_core/lv_disp.h ****  */
  80:..\..\..\lvgl\version_6.1.2\lvgl/src/lv_core/lv_disp.h **** uint32_t lv_disp_get_inactive_time(const lv_disp_t * disp);
  81:..\..\..\lvgl\version_6.1.2\lvgl/src/lv_core/lv_disp.h **** 
  82:..\..\..\lvgl\version_6.1.2\lvgl/src/lv_core/lv_disp.h **** /**
  83:..\..\..\lvgl\version_6.1.2\lvgl/src/lv_core/lv_disp.h ****  * Manually trigger an activity on a display
  84:..\..\..\lvgl\version_6.1.2\lvgl/src/lv_core/lv_disp.h ****  * @param disp pointer to an display (NULL to use the default display)
  85:..\..\..\lvgl\version_6.1.2\lvgl/src/lv_core/lv_disp.h ****  */
  86:..\..\..\lvgl\version_6.1.2\lvgl/src/lv_core/lv_disp.h **** void lv_disp_trig_activity(lv_disp_t * disp);
  87:..\..\..\lvgl\version_6.1.2\lvgl/src/lv_core/lv_disp.h **** 
  88:..\..\..\lvgl\version_6.1.2\lvgl/src/lv_core/lv_disp.h **** /*------------------------------------------------
  89:..\..\..\lvgl\version_6.1.2\lvgl/src/lv_core/lv_disp.h ****  * To improve backward compatibility
  90:..\..\..\lvgl\version_6.1.2\lvgl/src/lv_core/lv_disp.h ****  * Recommended only if you have one display
  91:..\..\..\lvgl\version_6.1.2\lvgl/src/lv_core/lv_disp.h ****  *------------------------------------------------*/
  92:..\..\..\lvgl\version_6.1.2\lvgl/src/lv_core/lv_disp.h **** 
  93:..\..\..\lvgl\version_6.1.2\lvgl/src/lv_core/lv_disp.h **** /**
  94:..\..\..\lvgl\version_6.1.2\lvgl/src/lv_core/lv_disp.h ****  * Get the active screen of the default display
  95:..\..\..\lvgl\version_6.1.2\lvgl/src/lv_core/lv_disp.h ****  * @return pointer to the active screen
  96:..\..\..\lvgl\version_6.1.2\lvgl/src/lv_core/lv_disp.h ****  */
  97:..\..\..\lvgl\version_6.1.2\lvgl/src/lv_core/lv_disp.h **** static inline lv_obj_t * lv_scr_act(void)
  98:..\..\..\lvgl\version_6.1.2\lvgl/src/lv_core/lv_disp.h **** {
 125              		.loc 2 98 0
 126              		.cfi_startproc
 127              		@ args = 0, pretend = 0, frame = 0
 128              		@ frame_needed = 1, uses_anonymous_args = 0
 129 0000 80B5     		push	{r7, lr}
 130              		.cfi_def_cfa_offset 8
 131              		.cfi_offset 7, -8
 132              		.cfi_offset 14, -4
 133 0002 00AF     		add	r7, sp, #0
 134              		.cfi_def_cfa_register 7
  99:..\..\..\lvgl\version_6.1.2\lvgl/src/lv_core/lv_disp.h ****     return lv_disp_get_scr_act(lv_disp_get_default());
 135              		.loc 2 99 0
 136 0004 FFF7FEFF 		bl	lv_disp_get_default
 137 0008 0346     		mov	r3, r0
 138 000a 1846     		mov	r0, r3
 139 000c FFF7FEFF 		bl	lv_disp_get_scr_act
 140 0010 0346     		mov	r3, r0
 100:..\..\..\lvgl\version_6.1.2\lvgl/src/lv_core/lv_disp.h **** }
 141              		.loc 2 100 0
 142 0012 1846     		mov	r0, r3
 143 0014 80BD     		pop	{r7, pc}
 144              		.cfi_endproc
 145              	.LFE613:
 146              		.size	lv_scr_act, .-lv_scr_act
 147 0016 00BF     		.section	.text.lv_slider_set_value,"ax",%progbits
 148              		.align	2
 149              		.thumb
 150              		.thumb_func
 151              		.type	lv_slider_set_value, %function
 152              	lv_slider_set_value:
 153              	.LFB668:
 154              		.file 3 "..\\..\\..\\lvgl\\version_6.1.2\\lvgl/src/lv_objx/lv_slider.h"
   1:..\..\..\lvgl\version_6.1.2\lvgl/src/lv_objx/lv_slider.h **** /**
   2:..\..\..\lvgl\version_6.1.2\lvgl/src/lv_objx/lv_slider.h ****  * @file lv_slider.h
ARM GAS  C:\Users\tmj32\AppData\Local\Temp\ccoOIND8.s 			page 14


   3:..\..\..\lvgl\version_6.1.2\lvgl/src/lv_objx/lv_slider.h ****  *
   4:..\..\..\lvgl\version_6.1.2\lvgl/src/lv_objx/lv_slider.h ****  */
   5:..\..\..\lvgl\version_6.1.2\lvgl/src/lv_objx/lv_slider.h **** 
   6:..\..\..\lvgl\version_6.1.2\lvgl/src/lv_objx/lv_slider.h **** #ifndef LV_SLIDER_H
   7:..\..\..\lvgl\version_6.1.2\lvgl/src/lv_objx/lv_slider.h **** #define LV_SLIDER_H
   8:..\..\..\lvgl\version_6.1.2\lvgl/src/lv_objx/lv_slider.h **** 
   9:..\..\..\lvgl\version_6.1.2\lvgl/src/lv_objx/lv_slider.h **** #ifdef __cplusplus
  10:..\..\..\lvgl\version_6.1.2\lvgl/src/lv_objx/lv_slider.h **** extern "C" {
  11:..\..\..\lvgl\version_6.1.2\lvgl/src/lv_objx/lv_slider.h **** #endif
  12:..\..\..\lvgl\version_6.1.2\lvgl/src/lv_objx/lv_slider.h **** 
  13:..\..\..\lvgl\version_6.1.2\lvgl/src/lv_objx/lv_slider.h **** /*********************
  14:..\..\..\lvgl\version_6.1.2\lvgl/src/lv_objx/lv_slider.h ****  *      INCLUDES
  15:..\..\..\lvgl\version_6.1.2\lvgl/src/lv_objx/lv_slider.h ****  *********************/
  16:..\..\..\lvgl\version_6.1.2\lvgl/src/lv_objx/lv_slider.h **** #ifdef LV_CONF_INCLUDE_SIMPLE
  17:..\..\..\lvgl\version_6.1.2\lvgl/src/lv_objx/lv_slider.h **** #include "lv_conf.h"
  18:..\..\..\lvgl\version_6.1.2\lvgl/src/lv_objx/lv_slider.h **** #else
  19:..\..\..\lvgl\version_6.1.2\lvgl/src/lv_objx/lv_slider.h **** #include "../../../lv_conf.h"
  20:..\..\..\lvgl\version_6.1.2\lvgl/src/lv_objx/lv_slider.h **** #endif
  21:..\..\..\lvgl\version_6.1.2\lvgl/src/lv_objx/lv_slider.h **** 
  22:..\..\..\lvgl\version_6.1.2\lvgl/src/lv_objx/lv_slider.h **** #if LV_USE_SLIDER != 0
  23:..\..\..\lvgl\version_6.1.2\lvgl/src/lv_objx/lv_slider.h **** 
  24:..\..\..\lvgl\version_6.1.2\lvgl/src/lv_objx/lv_slider.h **** /*Testing of dependencies*/
  25:..\..\..\lvgl\version_6.1.2\lvgl/src/lv_objx/lv_slider.h **** #if LV_USE_BAR == 0
  26:..\..\..\lvgl\version_6.1.2\lvgl/src/lv_objx/lv_slider.h **** #error "lv_slider: lv_bar is required. Enable it in lv_conf.h (LV_USE_BAR  1) "
  27:..\..\..\lvgl\version_6.1.2\lvgl/src/lv_objx/lv_slider.h **** #endif
  28:..\..\..\lvgl\version_6.1.2\lvgl/src/lv_objx/lv_slider.h **** 
  29:..\..\..\lvgl\version_6.1.2\lvgl/src/lv_objx/lv_slider.h **** #include "../lv_core/lv_obj.h"
  30:..\..\..\lvgl\version_6.1.2\lvgl/src/lv_objx/lv_slider.h **** #include "lv_bar.h"
  31:..\..\..\lvgl\version_6.1.2\lvgl/src/lv_objx/lv_slider.h **** 
  32:..\..\..\lvgl\version_6.1.2\lvgl/src/lv_objx/lv_slider.h **** /*********************
  33:..\..\..\lvgl\version_6.1.2\lvgl/src/lv_objx/lv_slider.h ****  *      DEFINES
  34:..\..\..\lvgl\version_6.1.2\lvgl/src/lv_objx/lv_slider.h ****  *********************/
  35:..\..\..\lvgl\version_6.1.2\lvgl/src/lv_objx/lv_slider.h **** 
  36:..\..\..\lvgl\version_6.1.2\lvgl/src/lv_objx/lv_slider.h **** /**********************
  37:..\..\..\lvgl\version_6.1.2\lvgl/src/lv_objx/lv_slider.h ****  *      TYPEDEFS
  38:..\..\..\lvgl\version_6.1.2\lvgl/src/lv_objx/lv_slider.h ****  **********************/
  39:..\..\..\lvgl\version_6.1.2\lvgl/src/lv_objx/lv_slider.h **** /*Data of slider*/
  40:..\..\..\lvgl\version_6.1.2\lvgl/src/lv_objx/lv_slider.h **** typedef struct
  41:..\..\..\lvgl\version_6.1.2\lvgl/src/lv_objx/lv_slider.h **** {
  42:..\..\..\lvgl\version_6.1.2\lvgl/src/lv_objx/lv_slider.h ****     lv_bar_ext_t bar; /*Ext. of ancestor*/
  43:..\..\..\lvgl\version_6.1.2\lvgl/src/lv_objx/lv_slider.h ****     /*New data for this type */
  44:..\..\..\lvgl\version_6.1.2\lvgl/src/lv_objx/lv_slider.h ****     const lv_style_t * style_knob; /*Style of the knob*/
  45:..\..\..\lvgl\version_6.1.2\lvgl/src/lv_objx/lv_slider.h ****     int16_t drag_value;            /*Store a temporal value during press until release (Handled by 
  46:..\..\..\lvgl\version_6.1.2\lvgl/src/lv_objx/lv_slider.h ****     uint8_t knob_in : 1;           /*1: Draw the knob inside the bar*/
  47:..\..\..\lvgl\version_6.1.2\lvgl/src/lv_objx/lv_slider.h **** } lv_slider_ext_t;
  48:..\..\..\lvgl\version_6.1.2\lvgl/src/lv_objx/lv_slider.h **** 
  49:..\..\..\lvgl\version_6.1.2\lvgl/src/lv_objx/lv_slider.h **** /** Built-in styles of slider*/
  50:..\..\..\lvgl\version_6.1.2\lvgl/src/lv_objx/lv_slider.h **** enum {
  51:..\..\..\lvgl\version_6.1.2\lvgl/src/lv_objx/lv_slider.h ****     LV_SLIDER_STYLE_BG, /** Slider background style. */
  52:..\..\..\lvgl\version_6.1.2\lvgl/src/lv_objx/lv_slider.h ****     LV_SLIDER_STYLE_INDIC, /** Slider indicator (filled area) style. */
  53:..\..\..\lvgl\version_6.1.2\lvgl/src/lv_objx/lv_slider.h ****     LV_SLIDER_STYLE_KNOB, /** Slider knob style. */
  54:..\..\..\lvgl\version_6.1.2\lvgl/src/lv_objx/lv_slider.h **** };
  55:..\..\..\lvgl\version_6.1.2\lvgl/src/lv_objx/lv_slider.h **** typedef uint8_t lv_slider_style_t;
  56:..\..\..\lvgl\version_6.1.2\lvgl/src/lv_objx/lv_slider.h **** 
  57:..\..\..\lvgl\version_6.1.2\lvgl/src/lv_objx/lv_slider.h **** /**********************
  58:..\..\..\lvgl\version_6.1.2\lvgl/src/lv_objx/lv_slider.h ****  * GLOBAL PROTOTYPES
  59:..\..\..\lvgl\version_6.1.2\lvgl/src/lv_objx/lv_slider.h ****  **********************/
ARM GAS  C:\Users\tmj32\AppData\Local\Temp\ccoOIND8.s 			page 15


  60:..\..\..\lvgl\version_6.1.2\lvgl/src/lv_objx/lv_slider.h **** 
  61:..\..\..\lvgl\version_6.1.2\lvgl/src/lv_objx/lv_slider.h **** /**
  62:..\..\..\lvgl\version_6.1.2\lvgl/src/lv_objx/lv_slider.h ****  * Create a slider objects
  63:..\..\..\lvgl\version_6.1.2\lvgl/src/lv_objx/lv_slider.h ****  * @param par pointer to an object, it will be the parent of the new slider
  64:..\..\..\lvgl\version_6.1.2\lvgl/src/lv_objx/lv_slider.h ****  * @param copy pointer to a slider object, if not NULL then the new object will be copied from it
  65:..\..\..\lvgl\version_6.1.2\lvgl/src/lv_objx/lv_slider.h ****  * @return pointer to the created slider
  66:..\..\..\lvgl\version_6.1.2\lvgl/src/lv_objx/lv_slider.h ****  */
  67:..\..\..\lvgl\version_6.1.2\lvgl/src/lv_objx/lv_slider.h **** lv_obj_t * lv_slider_create(lv_obj_t * par, const lv_obj_t * copy);
  68:..\..\..\lvgl\version_6.1.2\lvgl/src/lv_objx/lv_slider.h **** 
  69:..\..\..\lvgl\version_6.1.2\lvgl/src/lv_objx/lv_slider.h **** /*=====================
  70:..\..\..\lvgl\version_6.1.2\lvgl/src/lv_objx/lv_slider.h ****  * Setter functions
  71:..\..\..\lvgl\version_6.1.2\lvgl/src/lv_objx/lv_slider.h ****  *====================*/
  72:..\..\..\lvgl\version_6.1.2\lvgl/src/lv_objx/lv_slider.h **** 
  73:..\..\..\lvgl\version_6.1.2\lvgl/src/lv_objx/lv_slider.h **** /**
  74:..\..\..\lvgl\version_6.1.2\lvgl/src/lv_objx/lv_slider.h ****  * Set a new value on the slider
  75:..\..\..\lvgl\version_6.1.2\lvgl/src/lv_objx/lv_slider.h ****  * @param slider pointer to a slider object
  76:..\..\..\lvgl\version_6.1.2\lvgl/src/lv_objx/lv_slider.h ****  * @param value new value
  77:..\..\..\lvgl\version_6.1.2\lvgl/src/lv_objx/lv_slider.h ****  * @param anim LV_ANIM_ON: set the value with an animation; LV_ANIM_OFF: change the value immediate
  78:..\..\..\lvgl\version_6.1.2\lvgl/src/lv_objx/lv_slider.h ****  */
  79:..\..\..\lvgl\version_6.1.2\lvgl/src/lv_objx/lv_slider.h **** static inline void lv_slider_set_value(lv_obj_t * slider, int16_t value, lv_anim_enable_t anim)
  80:..\..\..\lvgl\version_6.1.2\lvgl/src/lv_objx/lv_slider.h **** {
 155              		.loc 3 80 0
 156              		.cfi_startproc
 157              		@ args = 0, pretend = 0, frame = 8
 158              		@ frame_needed = 1, uses_anonymous_args = 0
 159 0000 80B5     		push	{r7, lr}
 160              		.cfi_def_cfa_offset 8
 161              		.cfi_offset 7, -8
 162              		.cfi_offset 14, -4
 163 0002 82B0     		sub	sp, sp, #8
 164              		.cfi_def_cfa_offset 16
 165 0004 00AF     		add	r7, sp, #0
 166              		.cfi_def_cfa_register 7
 167 0006 7860     		str	r0, [r7, #4]
 168 0008 0B46     		mov	r3, r1
 169 000a 7B80     		strh	r3, [r7, #2]	@ movhi
 170 000c 1346     		mov	r3, r2
 171 000e 7B70     		strb	r3, [r7, #1]
  81:..\..\..\lvgl\version_6.1.2\lvgl/src/lv_objx/lv_slider.h ****     lv_bar_set_value(slider, value, anim);
 172              		.loc 3 81 0
 173 0010 7A78     		ldrb	r2, [r7, #1]	@ zero_extendqisi2
 174 0012 B7F90230 		ldrsh	r3, [r7, #2]
 175 0016 1946     		mov	r1, r3
 176 0018 7868     		ldr	r0, [r7, #4]
 177 001a FFF7FEFF 		bl	lv_bar_set_value
  82:..\..\..\lvgl\version_6.1.2\lvgl/src/lv_objx/lv_slider.h **** }
 178              		.loc 3 82 0
 179 001e 00BF     		nop
 180 0020 0837     		adds	r7, r7, #8
 181              		.cfi_def_cfa_offset 8
 182 0022 BD46     		mov	sp, r7
 183              		.cfi_def_cfa_register 13
 184              		@ sp needed
 185 0024 80BD     		pop	{r7, pc}
 186              		.cfi_endproc
 187              	.LFE668:
 188              		.size	lv_slider_set_value, .-lv_slider_set_value
ARM GAS  C:\Users\tmj32\AppData\Local\Temp\ccoOIND8.s 			page 16


 189 0026 00BF     		.section	.text.lv_slider_set_range,"ax",%progbits
 190              		.align	2
 191              		.thumb
 192              		.thumb_func
 193              		.type	lv_slider_set_range, %function
 194              	lv_slider_set_range:
 195              	.LFB669:
  83:..\..\..\lvgl\version_6.1.2\lvgl/src/lv_objx/lv_slider.h **** 
  84:..\..\..\lvgl\version_6.1.2\lvgl/src/lv_objx/lv_slider.h **** /**
  85:..\..\..\lvgl\version_6.1.2\lvgl/src/lv_objx/lv_slider.h ****  * Set minimum and the maximum values of a bar
  86:..\..\..\lvgl\version_6.1.2\lvgl/src/lv_objx/lv_slider.h ****  * @param slider pointer to the slider object
  87:..\..\..\lvgl\version_6.1.2\lvgl/src/lv_objx/lv_slider.h ****  * @param min minimum value
  88:..\..\..\lvgl\version_6.1.2\lvgl/src/lv_objx/lv_slider.h ****  * @param max maximum value
  89:..\..\..\lvgl\version_6.1.2\lvgl/src/lv_objx/lv_slider.h ****  */
  90:..\..\..\lvgl\version_6.1.2\lvgl/src/lv_objx/lv_slider.h **** static inline void lv_slider_set_range(lv_obj_t * slider, int16_t min, int16_t max)
  91:..\..\..\lvgl\version_6.1.2\lvgl/src/lv_objx/lv_slider.h **** {
 196              		.loc 3 91 0
 197              		.cfi_startproc
 198              		@ args = 0, pretend = 0, frame = 8
 199              		@ frame_needed = 1, uses_anonymous_args = 0
 200 0000 80B5     		push	{r7, lr}
 201              		.cfi_def_cfa_offset 8
 202              		.cfi_offset 7, -8
 203              		.cfi_offset 14, -4
 204 0002 82B0     		sub	sp, sp, #8
 205              		.cfi_def_cfa_offset 16
 206 0004 00AF     		add	r7, sp, #0
 207              		.cfi_def_cfa_register 7
 208 0006 7860     		str	r0, [r7, #4]
 209 0008 0B46     		mov	r3, r1
 210 000a 7B80     		strh	r3, [r7, #2]	@ movhi
 211 000c 1346     		mov	r3, r2	@ movhi
 212 000e 3B80     		strh	r3, [r7]	@ movhi
  92:..\..\..\lvgl\version_6.1.2\lvgl/src/lv_objx/lv_slider.h ****     lv_bar_set_range(slider, min, max);
 213              		.loc 3 92 0
 214 0010 B7F90020 		ldrsh	r2, [r7]
 215 0014 B7F90230 		ldrsh	r3, [r7, #2]
 216 0018 1946     		mov	r1, r3
 217 001a 7868     		ldr	r0, [r7, #4]
 218 001c FFF7FEFF 		bl	lv_bar_set_range
  93:..\..\..\lvgl\version_6.1.2\lvgl/src/lv_objx/lv_slider.h **** }
 219              		.loc 3 93 0
 220 0020 00BF     		nop
 221 0022 0837     		adds	r7, r7, #8
 222              		.cfi_def_cfa_offset 8
 223 0024 BD46     		mov	sp, r7
 224              		.cfi_def_cfa_register 13
 225              		@ sp needed
 226 0026 80BD     		pop	{r7, pc}
 227              		.cfi_endproc
 228              	.LFE669:
 229              		.size	lv_slider_set_range, .-lv_slider_set_range
 230              		.section	.text.lv_roller_get_selected_str,"ax",%progbits
 231              		.align	2
 232              		.thumb
 233              		.thumb_func
 234              		.type	lv_roller_get_selected_str, %function
ARM GAS  C:\Users\tmj32\AppData\Local\Temp\ccoOIND8.s 			page 17


 235              	lv_roller_get_selected_str:
 236              	.LFB687:
 237              		.file 4 "..\\..\\..\\lvgl\\version_6.1.2\\lvgl/src/lv_objx/lv_roller.h"
   1:..\..\..\lvgl\version_6.1.2\lvgl/src/lv_objx/lv_roller.h **** /**
   2:..\..\..\lvgl\version_6.1.2\lvgl/src/lv_objx/lv_roller.h ****  * @file lv_roller.h
   3:..\..\..\lvgl\version_6.1.2\lvgl/src/lv_objx/lv_roller.h ****  *
   4:..\..\..\lvgl\version_6.1.2\lvgl/src/lv_objx/lv_roller.h ****  */
   5:..\..\..\lvgl\version_6.1.2\lvgl/src/lv_objx/lv_roller.h **** 
   6:..\..\..\lvgl\version_6.1.2\lvgl/src/lv_objx/lv_roller.h **** #ifndef LV_ROLLER_H
   7:..\..\..\lvgl\version_6.1.2\lvgl/src/lv_objx/lv_roller.h **** #define LV_ROLLER_H
   8:..\..\..\lvgl\version_6.1.2\lvgl/src/lv_objx/lv_roller.h **** 
   9:..\..\..\lvgl\version_6.1.2\lvgl/src/lv_objx/lv_roller.h **** #ifdef __cplusplus
  10:..\..\..\lvgl\version_6.1.2\lvgl/src/lv_objx/lv_roller.h **** extern "C" {
  11:..\..\..\lvgl\version_6.1.2\lvgl/src/lv_objx/lv_roller.h **** #endif
  12:..\..\..\lvgl\version_6.1.2\lvgl/src/lv_objx/lv_roller.h **** 
  13:..\..\..\lvgl\version_6.1.2\lvgl/src/lv_objx/lv_roller.h **** /*********************
  14:..\..\..\lvgl\version_6.1.2\lvgl/src/lv_objx/lv_roller.h ****  *      INCLUDES
  15:..\..\..\lvgl\version_6.1.2\lvgl/src/lv_objx/lv_roller.h ****  *********************/
  16:..\..\..\lvgl\version_6.1.2\lvgl/src/lv_objx/lv_roller.h **** #ifdef LV_CONF_INCLUDE_SIMPLE
  17:..\..\..\lvgl\version_6.1.2\lvgl/src/lv_objx/lv_roller.h **** #include "lv_conf.h"
  18:..\..\..\lvgl\version_6.1.2\lvgl/src/lv_objx/lv_roller.h **** #else
  19:..\..\..\lvgl\version_6.1.2\lvgl/src/lv_objx/lv_roller.h **** #include "../../../lv_conf.h"
  20:..\..\..\lvgl\version_6.1.2\lvgl/src/lv_objx/lv_roller.h **** #endif
  21:..\..\..\lvgl\version_6.1.2\lvgl/src/lv_objx/lv_roller.h **** 
  22:..\..\..\lvgl\version_6.1.2\lvgl/src/lv_objx/lv_roller.h **** #if LV_USE_ROLLER != 0
  23:..\..\..\lvgl\version_6.1.2\lvgl/src/lv_objx/lv_roller.h **** 
  24:..\..\..\lvgl\version_6.1.2\lvgl/src/lv_objx/lv_roller.h **** /*Testing of dependencies*/
  25:..\..\..\lvgl\version_6.1.2\lvgl/src/lv_objx/lv_roller.h **** #if LV_USE_DDLIST == 0
  26:..\..\..\lvgl\version_6.1.2\lvgl/src/lv_objx/lv_roller.h **** #error "lv_roller: lv_ddlist is required. Enable it in lv_conf.h (LV_USE_DDLIST  1) "
  27:..\..\..\lvgl\version_6.1.2\lvgl/src/lv_objx/lv_roller.h **** #endif
  28:..\..\..\lvgl\version_6.1.2\lvgl/src/lv_objx/lv_roller.h **** 
  29:..\..\..\lvgl\version_6.1.2\lvgl/src/lv_objx/lv_roller.h **** #include "../lv_core/lv_obj.h"
  30:..\..\..\lvgl\version_6.1.2\lvgl/src/lv_objx/lv_roller.h **** #include "lv_ddlist.h"
  31:..\..\..\lvgl\version_6.1.2\lvgl/src/lv_objx/lv_roller.h **** #include "lv_label.h"
  32:..\..\..\lvgl\version_6.1.2\lvgl/src/lv_objx/lv_roller.h **** 
  33:..\..\..\lvgl\version_6.1.2\lvgl/src/lv_objx/lv_roller.h **** /*********************
  34:..\..\..\lvgl\version_6.1.2\lvgl/src/lv_objx/lv_roller.h ****  *      DEFINES
  35:..\..\..\lvgl\version_6.1.2\lvgl/src/lv_objx/lv_roller.h ****  *********************/
  36:..\..\..\lvgl\version_6.1.2\lvgl/src/lv_objx/lv_roller.h **** 
  37:..\..\..\lvgl\version_6.1.2\lvgl/src/lv_objx/lv_roller.h **** /**********************
  38:..\..\..\lvgl\version_6.1.2\lvgl/src/lv_objx/lv_roller.h ****  *      TYPEDEFS
  39:..\..\..\lvgl\version_6.1.2\lvgl/src/lv_objx/lv_roller.h ****  **********************/
  40:..\..\..\lvgl\version_6.1.2\lvgl/src/lv_objx/lv_roller.h **** 
  41:..\..\..\lvgl\version_6.1.2\lvgl/src/lv_objx/lv_roller.h **** /** Roller mode. */
  42:..\..\..\lvgl\version_6.1.2\lvgl/src/lv_objx/lv_roller.h **** enum {
  43:..\..\..\lvgl\version_6.1.2\lvgl/src/lv_objx/lv_roller.h ****     LV_ROLLER_MODE_NORMAL, /**< Normal mode (roller ends at the end of the options). */
  44:..\..\..\lvgl\version_6.1.2\lvgl/src/lv_objx/lv_roller.h ****     LV_ROLLER_MODE_INIFINITE, /**< Infinite mode (roller can be scrolled forever). */
  45:..\..\..\lvgl\version_6.1.2\lvgl/src/lv_objx/lv_roller.h **** };
  46:..\..\..\lvgl\version_6.1.2\lvgl/src/lv_objx/lv_roller.h **** 
  47:..\..\..\lvgl\version_6.1.2\lvgl/src/lv_objx/lv_roller.h **** typedef uint8_t lv_roller_mode_t;
  48:..\..\..\lvgl\version_6.1.2\lvgl/src/lv_objx/lv_roller.h **** 
  49:..\..\..\lvgl\version_6.1.2\lvgl/src/lv_objx/lv_roller.h **** 
  50:..\..\..\lvgl\version_6.1.2\lvgl/src/lv_objx/lv_roller.h **** 
  51:..\..\..\lvgl\version_6.1.2\lvgl/src/lv_objx/lv_roller.h **** /*Data of roller*/
  52:..\..\..\lvgl\version_6.1.2\lvgl/src/lv_objx/lv_roller.h **** typedef struct
  53:..\..\..\lvgl\version_6.1.2\lvgl/src/lv_objx/lv_roller.h **** {
  54:..\..\..\lvgl\version_6.1.2\lvgl/src/lv_objx/lv_roller.h ****     lv_ddlist_ext_t ddlist; /*Ext. of ancestor*/
ARM GAS  C:\Users\tmj32\AppData\Local\Temp\ccoOIND8.s 			page 18


  55:..\..\..\lvgl\version_6.1.2\lvgl/src/lv_objx/lv_roller.h ****     /*New data for this type */
  56:..\..\..\lvgl\version_6.1.2\lvgl/src/lv_objx/lv_roller.h ****     lv_roller_mode_t mode : 1;
  57:..\..\..\lvgl\version_6.1.2\lvgl/src/lv_objx/lv_roller.h **** } lv_roller_ext_t;
  58:..\..\..\lvgl\version_6.1.2\lvgl/src/lv_objx/lv_roller.h **** 
  59:..\..\..\lvgl\version_6.1.2\lvgl/src/lv_objx/lv_roller.h **** enum {
  60:..\..\..\lvgl\version_6.1.2\lvgl/src/lv_objx/lv_roller.h ****     LV_ROLLER_STYLE_BG,
  61:..\..\..\lvgl\version_6.1.2\lvgl/src/lv_objx/lv_roller.h ****     LV_ROLLER_STYLE_SEL,
  62:..\..\..\lvgl\version_6.1.2\lvgl/src/lv_objx/lv_roller.h **** };
  63:..\..\..\lvgl\version_6.1.2\lvgl/src/lv_objx/lv_roller.h **** typedef uint8_t lv_roller_style_t;
  64:..\..\..\lvgl\version_6.1.2\lvgl/src/lv_objx/lv_roller.h **** 
  65:..\..\..\lvgl\version_6.1.2\lvgl/src/lv_objx/lv_roller.h **** /**********************
  66:..\..\..\lvgl\version_6.1.2\lvgl/src/lv_objx/lv_roller.h ****  * GLOBAL PROTOTYPES
  67:..\..\..\lvgl\version_6.1.2\lvgl/src/lv_objx/lv_roller.h ****  **********************/
  68:..\..\..\lvgl\version_6.1.2\lvgl/src/lv_objx/lv_roller.h **** 
  69:..\..\..\lvgl\version_6.1.2\lvgl/src/lv_objx/lv_roller.h **** /**
  70:..\..\..\lvgl\version_6.1.2\lvgl/src/lv_objx/lv_roller.h ****  * Create a roller object
  71:..\..\..\lvgl\version_6.1.2\lvgl/src/lv_objx/lv_roller.h ****  * @param par pointer to an object, it will be the parent of the new roller
  72:..\..\..\lvgl\version_6.1.2\lvgl/src/lv_objx/lv_roller.h ****  * @param copy pointer to a roller object, if not NULL then the new object will be copied from it
  73:..\..\..\lvgl\version_6.1.2\lvgl/src/lv_objx/lv_roller.h ****  * @return pointer to the created roller
  74:..\..\..\lvgl\version_6.1.2\lvgl/src/lv_objx/lv_roller.h ****  */
  75:..\..\..\lvgl\version_6.1.2\lvgl/src/lv_objx/lv_roller.h **** lv_obj_t * lv_roller_create(lv_obj_t * par, const lv_obj_t * copy);
  76:..\..\..\lvgl\version_6.1.2\lvgl/src/lv_objx/lv_roller.h **** 
  77:..\..\..\lvgl\version_6.1.2\lvgl/src/lv_objx/lv_roller.h **** /*=====================
  78:..\..\..\lvgl\version_6.1.2\lvgl/src/lv_objx/lv_roller.h ****  * Setter functions
  79:..\..\..\lvgl\version_6.1.2\lvgl/src/lv_objx/lv_roller.h ****  *====================*/
  80:..\..\..\lvgl\version_6.1.2\lvgl/src/lv_objx/lv_roller.h **** 
  81:..\..\..\lvgl\version_6.1.2\lvgl/src/lv_objx/lv_roller.h **** /**
  82:..\..\..\lvgl\version_6.1.2\lvgl/src/lv_objx/lv_roller.h ****  * Set the options on a roller
  83:..\..\..\lvgl\version_6.1.2\lvgl/src/lv_objx/lv_roller.h ****  * @param roller pointer to roller object
  84:..\..\..\lvgl\version_6.1.2\lvgl/src/lv_objx/lv_roller.h ****  * @param options a string with '\n' separated options. E.g. "One\nTwo\nThree"
  85:..\..\..\lvgl\version_6.1.2\lvgl/src/lv_objx/lv_roller.h ****  * @param mode `LV_ROLLER_MODE_NORMAL` or `LV_ROLLER_MODE_INFINITE`
  86:..\..\..\lvgl\version_6.1.2\lvgl/src/lv_objx/lv_roller.h ****  */
  87:..\..\..\lvgl\version_6.1.2\lvgl/src/lv_objx/lv_roller.h **** void lv_roller_set_options(lv_obj_t * roller, const char * options, lv_roller_mode_t mode);
  88:..\..\..\lvgl\version_6.1.2\lvgl/src/lv_objx/lv_roller.h **** 
  89:..\..\..\lvgl\version_6.1.2\lvgl/src/lv_objx/lv_roller.h **** /**
  90:..\..\..\lvgl\version_6.1.2\lvgl/src/lv_objx/lv_roller.h ****  * Set the align of the roller's options (left, right or center[default])
  91:..\..\..\lvgl\version_6.1.2\lvgl/src/lv_objx/lv_roller.h ****  * @param roller - pointer to a roller object
  92:..\..\..\lvgl\version_6.1.2\lvgl/src/lv_objx/lv_roller.h ****  * @param align - one of lv_label_align_t values (left, right, center)
  93:..\..\..\lvgl\version_6.1.2\lvgl/src/lv_objx/lv_roller.h ****  */
  94:..\..\..\lvgl\version_6.1.2\lvgl/src/lv_objx/lv_roller.h **** void lv_roller_set_align(lv_obj_t * roller, lv_label_align_t align);
  95:..\..\..\lvgl\version_6.1.2\lvgl/src/lv_objx/lv_roller.h **** 
  96:..\..\..\lvgl\version_6.1.2\lvgl/src/lv_objx/lv_roller.h **** /**
  97:..\..\..\lvgl\version_6.1.2\lvgl/src/lv_objx/lv_roller.h ****  * Set the selected option
  98:..\..\..\lvgl\version_6.1.2\lvgl/src/lv_objx/lv_roller.h ****  * @param roller pointer to a roller object
  99:..\..\..\lvgl\version_6.1.2\lvgl/src/lv_objx/lv_roller.h ****  * @param sel_opt id of the selected option (0 ... number of option - 1);
 100:..\..\..\lvgl\version_6.1.2\lvgl/src/lv_objx/lv_roller.h ****  * @param anim LV_ANOM_ON: set with animation; LV_ANIM_OFF set immediately
 101:..\..\..\lvgl\version_6.1.2\lvgl/src/lv_objx/lv_roller.h ****  */
 102:..\..\..\lvgl\version_6.1.2\lvgl/src/lv_objx/lv_roller.h **** void lv_roller_set_selected(lv_obj_t * roller, uint16_t sel_opt, lv_anim_enable_t anim);
 103:..\..\..\lvgl\version_6.1.2\lvgl/src/lv_objx/lv_roller.h **** 
 104:..\..\..\lvgl\version_6.1.2\lvgl/src/lv_objx/lv_roller.h **** /**
 105:..\..\..\lvgl\version_6.1.2\lvgl/src/lv_objx/lv_roller.h ****  * Set the height to show the given number of rows (options)
 106:..\..\..\lvgl\version_6.1.2\lvgl/src/lv_objx/lv_roller.h ****  * @param roller pointer to a roller object
 107:..\..\..\lvgl\version_6.1.2\lvgl/src/lv_objx/lv_roller.h ****  * @param row_cnt number of desired visible rows
 108:..\..\..\lvgl\version_6.1.2\lvgl/src/lv_objx/lv_roller.h ****  */
 109:..\..\..\lvgl\version_6.1.2\lvgl/src/lv_objx/lv_roller.h **** void lv_roller_set_visible_row_count(lv_obj_t * roller, uint8_t row_cnt);
 110:..\..\..\lvgl\version_6.1.2\lvgl/src/lv_objx/lv_roller.h **** 
 111:..\..\..\lvgl\version_6.1.2\lvgl/src/lv_objx/lv_roller.h **** /**
ARM GAS  C:\Users\tmj32\AppData\Local\Temp\ccoOIND8.s 			page 19


 112:..\..\..\lvgl\version_6.1.2\lvgl/src/lv_objx/lv_roller.h ****  * Set a fix width for the drop down list
 113:..\..\..\lvgl\version_6.1.2\lvgl/src/lv_objx/lv_roller.h ****  * @param roller pointer to a roller obejct
 114:..\..\..\lvgl\version_6.1.2\lvgl/src/lv_objx/lv_roller.h ****  * @param w the width when the list is opened (0: auto size)
 115:..\..\..\lvgl\version_6.1.2\lvgl/src/lv_objx/lv_roller.h ****  */
 116:..\..\..\lvgl\version_6.1.2\lvgl/src/lv_objx/lv_roller.h **** static inline void lv_roller_set_fix_width(lv_obj_t * roller, lv_coord_t w)
 117:..\..\..\lvgl\version_6.1.2\lvgl/src/lv_objx/lv_roller.h **** {
 118:..\..\..\lvgl\version_6.1.2\lvgl/src/lv_objx/lv_roller.h ****     lv_ddlist_set_fix_width(roller, w);
 119:..\..\..\lvgl\version_6.1.2\lvgl/src/lv_objx/lv_roller.h **** }
 120:..\..\..\lvgl\version_6.1.2\lvgl/src/lv_objx/lv_roller.h **** 
 121:..\..\..\lvgl\version_6.1.2\lvgl/src/lv_objx/lv_roller.h **** /**
 122:..\..\..\lvgl\version_6.1.2\lvgl/src/lv_objx/lv_roller.h ****  * Set the open/close animation time.
 123:..\..\..\lvgl\version_6.1.2\lvgl/src/lv_objx/lv_roller.h ****  * @param roller pointer to a roller object
 124:..\..\..\lvgl\version_6.1.2\lvgl/src/lv_objx/lv_roller.h ****  * @param anim_time: open/close animation time [ms]
 125:..\..\..\lvgl\version_6.1.2\lvgl/src/lv_objx/lv_roller.h ****  */
 126:..\..\..\lvgl\version_6.1.2\lvgl/src/lv_objx/lv_roller.h **** static inline void lv_roller_set_anim_time(lv_obj_t * roller, uint16_t anim_time)
 127:..\..\..\lvgl\version_6.1.2\lvgl/src/lv_objx/lv_roller.h **** {
 128:..\..\..\lvgl\version_6.1.2\lvgl/src/lv_objx/lv_roller.h ****     lv_ddlist_set_anim_time(roller, anim_time);
 129:..\..\..\lvgl\version_6.1.2\lvgl/src/lv_objx/lv_roller.h **** }
 130:..\..\..\lvgl\version_6.1.2\lvgl/src/lv_objx/lv_roller.h **** 
 131:..\..\..\lvgl\version_6.1.2\lvgl/src/lv_objx/lv_roller.h **** /**
 132:..\..\..\lvgl\version_6.1.2\lvgl/src/lv_objx/lv_roller.h ****  * Set a style of a roller
 133:..\..\..\lvgl\version_6.1.2\lvgl/src/lv_objx/lv_roller.h ****  * @param roller pointer to a roller object
 134:..\..\..\lvgl\version_6.1.2\lvgl/src/lv_objx/lv_roller.h ****  * @param type which style should be set
 135:..\..\..\lvgl\version_6.1.2\lvgl/src/lv_objx/lv_roller.h ****  * @param style pointer to a style
 136:..\..\..\lvgl\version_6.1.2\lvgl/src/lv_objx/lv_roller.h ****  */
 137:..\..\..\lvgl\version_6.1.2\lvgl/src/lv_objx/lv_roller.h **** void lv_roller_set_style(lv_obj_t * roller, lv_roller_style_t type, const lv_style_t * style);
 138:..\..\..\lvgl\version_6.1.2\lvgl/src/lv_objx/lv_roller.h **** 
 139:..\..\..\lvgl\version_6.1.2\lvgl/src/lv_objx/lv_roller.h **** /*=====================
 140:..\..\..\lvgl\version_6.1.2\lvgl/src/lv_objx/lv_roller.h ****  * Getter functions
 141:..\..\..\lvgl\version_6.1.2\lvgl/src/lv_objx/lv_roller.h ****  *====================*/
 142:..\..\..\lvgl\version_6.1.2\lvgl/src/lv_objx/lv_roller.h **** /**
 143:..\..\..\lvgl\version_6.1.2\lvgl/src/lv_objx/lv_roller.h ****  * Get the id of the selected option
 144:..\..\..\lvgl\version_6.1.2\lvgl/src/lv_objx/lv_roller.h ****  * @param roller pointer to a roller object
 145:..\..\..\lvgl\version_6.1.2\lvgl/src/lv_objx/lv_roller.h ****  * @return id of the selected option (0 ... number of option - 1);
 146:..\..\..\lvgl\version_6.1.2\lvgl/src/lv_objx/lv_roller.h ****  */
 147:..\..\..\lvgl\version_6.1.2\lvgl/src/lv_objx/lv_roller.h **** uint16_t lv_roller_get_selected(const lv_obj_t * roller);
 148:..\..\..\lvgl\version_6.1.2\lvgl/src/lv_objx/lv_roller.h **** 
 149:..\..\..\lvgl\version_6.1.2\lvgl/src/lv_objx/lv_roller.h **** /**
 150:..\..\..\lvgl\version_6.1.2\lvgl/src/lv_objx/lv_roller.h ****  * Get the current selected option as a string
 151:..\..\..\lvgl\version_6.1.2\lvgl/src/lv_objx/lv_roller.h ****  * @param roller pointer to roller object
 152:..\..\..\lvgl\version_6.1.2\lvgl/src/lv_objx/lv_roller.h ****  * @param buf pointer to an array to store the string
 153:..\..\..\lvgl\version_6.1.2\lvgl/src/lv_objx/lv_roller.h ****  * @param buf_size size of `buf` in bytes. 0: to ignore it.
 154:..\..\..\lvgl\version_6.1.2\lvgl/src/lv_objx/lv_roller.h ****  */
 155:..\..\..\lvgl\version_6.1.2\lvgl/src/lv_objx/lv_roller.h **** static inline void lv_roller_get_selected_str(const lv_obj_t * roller, char * buf, uint16_t buf_siz
 156:..\..\..\lvgl\version_6.1.2\lvgl/src/lv_objx/lv_roller.h **** {
 238              		.loc 4 156 0
 239              		.cfi_startproc
 240              		@ args = 0, pretend = 0, frame = 16
 241              		@ frame_needed = 1, uses_anonymous_args = 0
 242 0000 80B5     		push	{r7, lr}
 243              		.cfi_def_cfa_offset 8
 244              		.cfi_offset 7, -8
 245              		.cfi_offset 14, -4
 246 0002 84B0     		sub	sp, sp, #16
 247              		.cfi_def_cfa_offset 24
 248 0004 00AF     		add	r7, sp, #0
 249              		.cfi_def_cfa_register 7
ARM GAS  C:\Users\tmj32\AppData\Local\Temp\ccoOIND8.s 			page 20


 250 0006 F860     		str	r0, [r7, #12]
 251 0008 B960     		str	r1, [r7, #8]
 252 000a 1346     		mov	r3, r2
 253 000c FB80     		strh	r3, [r7, #6]	@ movhi
 157:..\..\..\lvgl\version_6.1.2\lvgl/src/lv_objx/lv_roller.h ****     lv_ddlist_get_selected_str(roller, buf, buf_size);
 254              		.loc 4 157 0
 255 000e FB88     		ldrh	r3, [r7, #6]
 256 0010 1A46     		mov	r2, r3
 257 0012 B968     		ldr	r1, [r7, #8]
 258 0014 F868     		ldr	r0, [r7, #12]
 259 0016 FFF7FEFF 		bl	lv_ddlist_get_selected_str
 158:..\..\..\lvgl\version_6.1.2\lvgl/src/lv_objx/lv_roller.h **** }
 260              		.loc 4 158 0
 261 001a 00BF     		nop
 262 001c 1037     		adds	r7, r7, #16
 263              		.cfi_def_cfa_offset 8
 264 001e BD46     		mov	sp, r7
 265              		.cfi_def_cfa_register 13
 266              		@ sp needed
 267 0020 80BD     		pop	{r7, pc}
 268              		.cfi_endproc
 269              	.LFE687:
 270              		.size	lv_roller_get_selected_str, .-lv_roller_get_selected_str
 271 0022 00BF     		.section	.text.lv_sw_get_state,"ax",%progbits
 272              		.align	2
 273              		.thumb
 274              		.thumb_func
 275              		.type	lv_sw_get_state, %function
 276              	lv_sw_get_state:
 277              	.LFB714:
 278              		.file 5 "..\\..\\..\\lvgl\\version_6.1.2\\lvgl/src/lv_objx/lv_sw.h"
   1:..\..\..\lvgl\version_6.1.2\lvgl/src/lv_objx/lv_sw.h **** /**
   2:..\..\..\lvgl\version_6.1.2\lvgl/src/lv_objx/lv_sw.h ****  * @file lv_sw.h
   3:..\..\..\lvgl\version_6.1.2\lvgl/src/lv_objx/lv_sw.h ****  *
   4:..\..\..\lvgl\version_6.1.2\lvgl/src/lv_objx/lv_sw.h ****  */
   5:..\..\..\lvgl\version_6.1.2\lvgl/src/lv_objx/lv_sw.h **** 
   6:..\..\..\lvgl\version_6.1.2\lvgl/src/lv_objx/lv_sw.h **** #ifndef LV_SW_H
   7:..\..\..\lvgl\version_6.1.2\lvgl/src/lv_objx/lv_sw.h **** #define LV_SW_H
   8:..\..\..\lvgl\version_6.1.2\lvgl/src/lv_objx/lv_sw.h **** 
   9:..\..\..\lvgl\version_6.1.2\lvgl/src/lv_objx/lv_sw.h **** #ifdef __cplusplus
  10:..\..\..\lvgl\version_6.1.2\lvgl/src/lv_objx/lv_sw.h **** extern "C" {
  11:..\..\..\lvgl\version_6.1.2\lvgl/src/lv_objx/lv_sw.h **** #endif
  12:..\..\..\lvgl\version_6.1.2\lvgl/src/lv_objx/lv_sw.h **** 
  13:..\..\..\lvgl\version_6.1.2\lvgl/src/lv_objx/lv_sw.h **** /*********************
  14:..\..\..\lvgl\version_6.1.2\lvgl/src/lv_objx/lv_sw.h ****  *      INCLUDES
  15:..\..\..\lvgl\version_6.1.2\lvgl/src/lv_objx/lv_sw.h ****  *********************/
  16:..\..\..\lvgl\version_6.1.2\lvgl/src/lv_objx/lv_sw.h **** #ifdef LV_CONF_INCLUDE_SIMPLE
  17:..\..\..\lvgl\version_6.1.2\lvgl/src/lv_objx/lv_sw.h **** #include "lv_conf.h"
  18:..\..\..\lvgl\version_6.1.2\lvgl/src/lv_objx/lv_sw.h **** #else
  19:..\..\..\lvgl\version_6.1.2\lvgl/src/lv_objx/lv_sw.h **** #include "../../../lv_conf.h"
  20:..\..\..\lvgl\version_6.1.2\lvgl/src/lv_objx/lv_sw.h **** #endif
  21:..\..\..\lvgl\version_6.1.2\lvgl/src/lv_objx/lv_sw.h **** 
  22:..\..\..\lvgl\version_6.1.2\lvgl/src/lv_objx/lv_sw.h **** #if LV_USE_SW != 0
  23:..\..\..\lvgl\version_6.1.2\lvgl/src/lv_objx/lv_sw.h **** 
  24:..\..\..\lvgl\version_6.1.2\lvgl/src/lv_objx/lv_sw.h **** /*Testing of dependencies*/
  25:..\..\..\lvgl\version_6.1.2\lvgl/src/lv_objx/lv_sw.h **** #if LV_USE_SLIDER == 0
  26:..\..\..\lvgl\version_6.1.2\lvgl/src/lv_objx/lv_sw.h **** #error "lv_sw: lv_slider is required. Enable it in lv_conf.h (LV_USE_SLIDER  1)"
ARM GAS  C:\Users\tmj32\AppData\Local\Temp\ccoOIND8.s 			page 21


  27:..\..\..\lvgl\version_6.1.2\lvgl/src/lv_objx/lv_sw.h **** #endif
  28:..\..\..\lvgl\version_6.1.2\lvgl/src/lv_objx/lv_sw.h **** 
  29:..\..\..\lvgl\version_6.1.2\lvgl/src/lv_objx/lv_sw.h **** #include "../lv_core/lv_obj.h"
  30:..\..\..\lvgl\version_6.1.2\lvgl/src/lv_objx/lv_sw.h **** #include "lv_slider.h"
  31:..\..\..\lvgl\version_6.1.2\lvgl/src/lv_objx/lv_sw.h **** 
  32:..\..\..\lvgl\version_6.1.2\lvgl/src/lv_objx/lv_sw.h **** /*********************
  33:..\..\..\lvgl\version_6.1.2\lvgl/src/lv_objx/lv_sw.h ****  *      DEFINES
  34:..\..\..\lvgl\version_6.1.2\lvgl/src/lv_objx/lv_sw.h ****  *********************/
  35:..\..\..\lvgl\version_6.1.2\lvgl/src/lv_objx/lv_sw.h **** #define LV_SW_MAX_VALUE 100
  36:..\..\..\lvgl\version_6.1.2\lvgl/src/lv_objx/lv_sw.h **** 
  37:..\..\..\lvgl\version_6.1.2\lvgl/src/lv_objx/lv_sw.h **** /**********************
  38:..\..\..\lvgl\version_6.1.2\lvgl/src/lv_objx/lv_sw.h ****  *      TYPEDEFS
  39:..\..\..\lvgl\version_6.1.2\lvgl/src/lv_objx/lv_sw.h ****  **********************/
  40:..\..\..\lvgl\version_6.1.2\lvgl/src/lv_objx/lv_sw.h **** /*Data of switch*/
  41:..\..\..\lvgl\version_6.1.2\lvgl/src/lv_objx/lv_sw.h **** typedef struct
  42:..\..\..\lvgl\version_6.1.2\lvgl/src/lv_objx/lv_sw.h **** {
  43:..\..\..\lvgl\version_6.1.2\lvgl/src/lv_objx/lv_sw.h ****     lv_slider_ext_t slider; /*Ext. of ancestor*/
  44:..\..\..\lvgl\version_6.1.2\lvgl/src/lv_objx/lv_sw.h ****     /*New data for this type */
  45:..\..\..\lvgl\version_6.1.2\lvgl/src/lv_objx/lv_sw.h ****     const lv_style_t * style_knob_off; /**< Style of the knob when the switch is OFF*/
  46:..\..\..\lvgl\version_6.1.2\lvgl/src/lv_objx/lv_sw.h ****     const lv_style_t * style_knob_on;  /**< Style of the knob when the switch is ON (NULL to use th
  47:..\..\..\lvgl\version_6.1.2\lvgl/src/lv_objx/lv_sw.h ****     lv_coord_t start_x;
  48:..\..\..\lvgl\version_6.1.2\lvgl/src/lv_objx/lv_sw.h ****     uint8_t changed : 1; /*Indicates the switch state explicitly changed by drag*/
  49:..\..\..\lvgl\version_6.1.2\lvgl/src/lv_objx/lv_sw.h ****     uint8_t slided : 1;
  50:..\..\..\lvgl\version_6.1.2\lvgl/src/lv_objx/lv_sw.h **** #if LV_USE_ANIMATION
  51:..\..\..\lvgl\version_6.1.2\lvgl/src/lv_objx/lv_sw.h ****     uint16_t anim_time; /*switch animation time */
  52:..\..\..\lvgl\version_6.1.2\lvgl/src/lv_objx/lv_sw.h **** #endif
  53:..\..\..\lvgl\version_6.1.2\lvgl/src/lv_objx/lv_sw.h **** } lv_sw_ext_t;
  54:..\..\..\lvgl\version_6.1.2\lvgl/src/lv_objx/lv_sw.h **** 
  55:..\..\..\lvgl\version_6.1.2\lvgl/src/lv_objx/lv_sw.h **** /**
  56:..\..\..\lvgl\version_6.1.2\lvgl/src/lv_objx/lv_sw.h ****  * Switch styles.
  57:..\..\..\lvgl\version_6.1.2\lvgl/src/lv_objx/lv_sw.h ****  */
  58:..\..\..\lvgl\version_6.1.2\lvgl/src/lv_objx/lv_sw.h **** enum {
  59:..\..\..\lvgl\version_6.1.2\lvgl/src/lv_objx/lv_sw.h ****     LV_SW_STYLE_BG, /**< Switch background. */
  60:..\..\..\lvgl\version_6.1.2\lvgl/src/lv_objx/lv_sw.h ****     LV_SW_STYLE_INDIC, /**< Switch fill area. */
  61:..\..\..\lvgl\version_6.1.2\lvgl/src/lv_objx/lv_sw.h ****     LV_SW_STYLE_KNOB_OFF, /**< Switch knob (when off). */
  62:..\..\..\lvgl\version_6.1.2\lvgl/src/lv_objx/lv_sw.h ****     LV_SW_STYLE_KNOB_ON, /**< Switch knob (when on). */
  63:..\..\..\lvgl\version_6.1.2\lvgl/src/lv_objx/lv_sw.h **** };
  64:..\..\..\lvgl\version_6.1.2\lvgl/src/lv_objx/lv_sw.h **** typedef uint8_t lv_sw_style_t;
  65:..\..\..\lvgl\version_6.1.2\lvgl/src/lv_objx/lv_sw.h **** 
  66:..\..\..\lvgl\version_6.1.2\lvgl/src/lv_objx/lv_sw.h **** /**********************
  67:..\..\..\lvgl\version_6.1.2\lvgl/src/lv_objx/lv_sw.h ****  * GLOBAL PROTOTYPES
  68:..\..\..\lvgl\version_6.1.2\lvgl/src/lv_objx/lv_sw.h ****  **********************/
  69:..\..\..\lvgl\version_6.1.2\lvgl/src/lv_objx/lv_sw.h **** 
  70:..\..\..\lvgl\version_6.1.2\lvgl/src/lv_objx/lv_sw.h **** /**
  71:..\..\..\lvgl\version_6.1.2\lvgl/src/lv_objx/lv_sw.h ****  * Create a switch objects
  72:..\..\..\lvgl\version_6.1.2\lvgl/src/lv_objx/lv_sw.h ****  * @param par pointer to an object, it will be the parent of the new switch
  73:..\..\..\lvgl\version_6.1.2\lvgl/src/lv_objx/lv_sw.h ****  * @param copy pointer to a switch object, if not NULL then the new object will be copied from it
  74:..\..\..\lvgl\version_6.1.2\lvgl/src/lv_objx/lv_sw.h ****  * @return pointer to the created switch
  75:..\..\..\lvgl\version_6.1.2\lvgl/src/lv_objx/lv_sw.h ****  */
  76:..\..\..\lvgl\version_6.1.2\lvgl/src/lv_objx/lv_sw.h **** lv_obj_t * lv_sw_create(lv_obj_t * par, const lv_obj_t * copy);
  77:..\..\..\lvgl\version_6.1.2\lvgl/src/lv_objx/lv_sw.h **** 
  78:..\..\..\lvgl\version_6.1.2\lvgl/src/lv_objx/lv_sw.h **** /*=====================
  79:..\..\..\lvgl\version_6.1.2\lvgl/src/lv_objx/lv_sw.h ****  * Setter functions
  80:..\..\..\lvgl\version_6.1.2\lvgl/src/lv_objx/lv_sw.h ****  *====================*/
  81:..\..\..\lvgl\version_6.1.2\lvgl/src/lv_objx/lv_sw.h **** 
  82:..\..\..\lvgl\version_6.1.2\lvgl/src/lv_objx/lv_sw.h **** /**
  83:..\..\..\lvgl\version_6.1.2\lvgl/src/lv_objx/lv_sw.h ****  * Turn ON the switch
ARM GAS  C:\Users\tmj32\AppData\Local\Temp\ccoOIND8.s 			page 22


  84:..\..\..\lvgl\version_6.1.2\lvgl/src/lv_objx/lv_sw.h ****  * @param sw pointer to a switch object
  85:..\..\..\lvgl\version_6.1.2\lvgl/src/lv_objx/lv_sw.h ****  * @param anim LV_ANIM_ON: set the value with an animation; LV_ANIM_OFF: change the value immediate
  86:..\..\..\lvgl\version_6.1.2\lvgl/src/lv_objx/lv_sw.h ****  */
  87:..\..\..\lvgl\version_6.1.2\lvgl/src/lv_objx/lv_sw.h **** void lv_sw_on(lv_obj_t * sw, lv_anim_enable_t anim);
  88:..\..\..\lvgl\version_6.1.2\lvgl/src/lv_objx/lv_sw.h **** 
  89:..\..\..\lvgl\version_6.1.2\lvgl/src/lv_objx/lv_sw.h **** /**
  90:..\..\..\lvgl\version_6.1.2\lvgl/src/lv_objx/lv_sw.h ****  * Turn OFF the switch
  91:..\..\..\lvgl\version_6.1.2\lvgl/src/lv_objx/lv_sw.h ****  * @param sw pointer to a switch object
  92:..\..\..\lvgl\version_6.1.2\lvgl/src/lv_objx/lv_sw.h ****  * @param anim LV_ANIM_ON: set the value with an animation; LV_ANIM_OFF: change the value immediate
  93:..\..\..\lvgl\version_6.1.2\lvgl/src/lv_objx/lv_sw.h ****  */
  94:..\..\..\lvgl\version_6.1.2\lvgl/src/lv_objx/lv_sw.h **** void lv_sw_off(lv_obj_t * sw, lv_anim_enable_t anim);
  95:..\..\..\lvgl\version_6.1.2\lvgl/src/lv_objx/lv_sw.h **** 
  96:..\..\..\lvgl\version_6.1.2\lvgl/src/lv_objx/lv_sw.h **** /**
  97:..\..\..\lvgl\version_6.1.2\lvgl/src/lv_objx/lv_sw.h ****  * Toggle the position of the switch
  98:..\..\..\lvgl\version_6.1.2\lvgl/src/lv_objx/lv_sw.h ****  * @param sw pointer to a switch object
  99:..\..\..\lvgl\version_6.1.2\lvgl/src/lv_objx/lv_sw.h ****  * @param anim LV_ANIM_ON: set the value with an animation; LV_ANIM_OFF: change the value immediate
 100:..\..\..\lvgl\version_6.1.2\lvgl/src/lv_objx/lv_sw.h ****  * @return resulting state of the switch.
 101:..\..\..\lvgl\version_6.1.2\lvgl/src/lv_objx/lv_sw.h ****  */
 102:..\..\..\lvgl\version_6.1.2\lvgl/src/lv_objx/lv_sw.h **** bool lv_sw_toggle(lv_obj_t * sw, lv_anim_enable_t anim);
 103:..\..\..\lvgl\version_6.1.2\lvgl/src/lv_objx/lv_sw.h **** 
 104:..\..\..\lvgl\version_6.1.2\lvgl/src/lv_objx/lv_sw.h **** /**
 105:..\..\..\lvgl\version_6.1.2\lvgl/src/lv_objx/lv_sw.h ****  * Set a style of a switch
 106:..\..\..\lvgl\version_6.1.2\lvgl/src/lv_objx/lv_sw.h ****  * @param sw pointer to a switch object
 107:..\..\..\lvgl\version_6.1.2\lvgl/src/lv_objx/lv_sw.h ****  * @param type which style should be set
 108:..\..\..\lvgl\version_6.1.2\lvgl/src/lv_objx/lv_sw.h ****  * @param style pointer to a style
 109:..\..\..\lvgl\version_6.1.2\lvgl/src/lv_objx/lv_sw.h ****  */
 110:..\..\..\lvgl\version_6.1.2\lvgl/src/lv_objx/lv_sw.h **** void lv_sw_set_style(lv_obj_t * sw, lv_sw_style_t type, const lv_style_t * style);
 111:..\..\..\lvgl\version_6.1.2\lvgl/src/lv_objx/lv_sw.h **** 
 112:..\..\..\lvgl\version_6.1.2\lvgl/src/lv_objx/lv_sw.h **** /**
 113:..\..\..\lvgl\version_6.1.2\lvgl/src/lv_objx/lv_sw.h ****  * Set the animation time of the switch
 114:..\..\..\lvgl\version_6.1.2\lvgl/src/lv_objx/lv_sw.h ****  * @param sw pointer to a  switch object
 115:..\..\..\lvgl\version_6.1.2\lvgl/src/lv_objx/lv_sw.h ****  * @param anim_time animation time
 116:..\..\..\lvgl\version_6.1.2\lvgl/src/lv_objx/lv_sw.h ****  * @return style pointer to a style
 117:..\..\..\lvgl\version_6.1.2\lvgl/src/lv_objx/lv_sw.h ****  */
 118:..\..\..\lvgl\version_6.1.2\lvgl/src/lv_objx/lv_sw.h **** void lv_sw_set_anim_time(lv_obj_t * sw, uint16_t anim_time);
 119:..\..\..\lvgl\version_6.1.2\lvgl/src/lv_objx/lv_sw.h **** 
 120:..\..\..\lvgl\version_6.1.2\lvgl/src/lv_objx/lv_sw.h **** /*=====================
 121:..\..\..\lvgl\version_6.1.2\lvgl/src/lv_objx/lv_sw.h ****  * Getter functions
 122:..\..\..\lvgl\version_6.1.2\lvgl/src/lv_objx/lv_sw.h ****  *====================*/
 123:..\..\..\lvgl\version_6.1.2\lvgl/src/lv_objx/lv_sw.h **** 
 124:..\..\..\lvgl\version_6.1.2\lvgl/src/lv_objx/lv_sw.h **** /**
 125:..\..\..\lvgl\version_6.1.2\lvgl/src/lv_objx/lv_sw.h ****  * Get the state of a switch
 126:..\..\..\lvgl\version_6.1.2\lvgl/src/lv_objx/lv_sw.h ****  * @param sw pointer to a switch object
 127:..\..\..\lvgl\version_6.1.2\lvgl/src/lv_objx/lv_sw.h ****  * @return false: OFF; true: ON
 128:..\..\..\lvgl\version_6.1.2\lvgl/src/lv_objx/lv_sw.h ****  */
 129:..\..\..\lvgl\version_6.1.2\lvgl/src/lv_objx/lv_sw.h **** static inline bool lv_sw_get_state(const lv_obj_t * sw)
 130:..\..\..\lvgl\version_6.1.2\lvgl/src/lv_objx/lv_sw.h **** {
 279              		.loc 5 130 0
 280              		.cfi_startproc
 281              		@ args = 0, pretend = 0, frame = 8
 282              		@ frame_needed = 1, uses_anonymous_args = 0
 283 0000 80B5     		push	{r7, lr}
 284              		.cfi_def_cfa_offset 8
 285              		.cfi_offset 7, -8
 286              		.cfi_offset 14, -4
 287 0002 82B0     		sub	sp, sp, #8
 288              		.cfi_def_cfa_offset 16
ARM GAS  C:\Users\tmj32\AppData\Local\Temp\ccoOIND8.s 			page 23


 289 0004 00AF     		add	r7, sp, #0
 290              		.cfi_def_cfa_register 7
 291 0006 7860     		str	r0, [r7, #4]
 131:..\..\..\lvgl\version_6.1.2\lvgl/src/lv_objx/lv_sw.h ****     return lv_bar_get_value(sw) < LV_SW_MAX_VALUE / 2 ? false : true;
 292              		.loc 5 131 0
 293 0008 7868     		ldr	r0, [r7, #4]
 294 000a FFF7FEFF 		bl	lv_bar_get_value
 295 000e 0346     		mov	r3, r0
 296 0010 312B     		cmp	r3, #49
 297 0012 CCBF     		ite	gt
 298 0014 0123     		movgt	r3, #1
 299 0016 0023     		movle	r3, #0
 300 0018 DBB2     		uxtb	r3, r3
 132:..\..\..\lvgl\version_6.1.2\lvgl/src/lv_objx/lv_sw.h **** }
 301              		.loc 5 132 0
 302 001a 1846     		mov	r0, r3
 303 001c 0837     		adds	r7, r7, #8
 304              		.cfi_def_cfa_offset 8
 305 001e BD46     		mov	sp, r7
 306              		.cfi_def_cfa_register 13
 307              		@ sp needed
 308 0020 80BD     		pop	{r7, pc}
 309              		.cfi_endproc
 310              	.LFE714:
 311              		.size	lv_sw_get_state, .-lv_sw_get_state
 312              		.global	tcnj_blue
 313 0022 00BF     		.section	.rodata
 314              		.align	2
 315              		.type	tcnj_blue, %object
 316              		.size	tcnj_blue, 3
 317              	tcnj_blue:
 318 0000 29       		.byte	41
 319 0001 3F       		.byte	63
 320 0002 6F       		.byte	111
 321              		.global	tcnj_gold
 322 0003 00       		.align	2
 323              		.type	tcnj_gold, %object
 324              		.size	tcnj_gold, 3
 325              	tcnj_gold:
 326 0004 A6       		.byte	-90
 327 0005 7A       		.byte	122
 328 0006 00       		.byte	0
 329              		.bss
 330              		.align	2
 331              	offsetLabel:
 332 0000 00000000 		.space	4
 333              		.align	2
 334              	triggerLabel:
 335 0004 00000000 		.space	4
 336              		.align	2
 337              	horiLabel1:
 338 0008 00000000 		.space	4
 339              		.align	2
 340              	vertLabel1:
 341 000c 00000000 		.space	4
 342              		.global	startup
 343              		.align	2
ARM GAS  C:\Users\tmj32\AppData\Local\Temp\ccoOIND8.s 			page 24


 344              		.type	startup, %object
 345              		.size	startup, 4
 346              	startup:
 347 0010 00000000 		.space	4
 348              		.global	__aeabi_i2d
 349              		.global	__aeabi_dmul
 350              		.global	__aeabi_ddiv
 351              		.global	__aeabi_dadd
 352              		.global	__aeabi_d2iz
 353              		.section	.text.chart_actions,"ax",%progbits
 354              		.align	2
 355              		.thumb
 356              		.thumb_func
 357              		.type	chart_actions, %function
 358              	chart_actions:
 359              	.LFB717:
 360              		.file 6 "home_screen.c"
   1:home_screen.c **** #include <stdio.h>
   2:home_screen.c **** 
   3:home_screen.c **** #include "project.h"
   4:home_screen.c **** #include "globalStruct.h"
   5:home_screen.c **** #include "lvgl.h"
   6:home_screen.c **** #include "home_screen.h"
   7:home_screen.c **** #include "slider_activity.h"
   8:home_screen.c **** #include "math.h"
   9:home_screen.c **** 
  10:home_screen.c **** const uint8_t tcnj_blue[] = { 41, 63, 111 };
  11:home_screen.c **** const uint8_t tcnj_gold[] = { 166, 122, 0 };
  12:home_screen.c **** 
  13:home_screen.c **** static lv_obj_t * offsetLabel;
  14:home_screen.c **** static lv_obj_t * triggerLabel;
  15:home_screen.c **** static lv_obj_t * horiLabel1;
  16:home_screen.c **** static lv_obj_t * vertLabel1;
  17:home_screen.c **** //static lv_obj_t * windowLabel;
  18:home_screen.c **** 
  19:home_screen.c **** int startup = 0;
  20:home_screen.c **** 
  21:home_screen.c **** static void chart_actions()
  22:home_screen.c **** {    
 361              		.loc 6 22 0
 362              		.cfi_startproc
 363              		@ args = 0, pretend = 0, frame = 48
 364              		@ frame_needed = 1, uses_anonymous_args = 0
 365 0000 90B5     		push	{r4, r7, lr}
 366              		.cfi_def_cfa_offset 12
 367              		.cfi_offset 4, -12
 368              		.cfi_offset 7, -8
 369              		.cfi_offset 14, -4
 370 0002 8DB0     		sub	sp, sp, #52
 371              		.cfi_def_cfa_offset 64
 372 0004 00AF     		add	r7, sp, #0
 373              		.cfi_def_cfa_register 7
  23:home_screen.c ****     const int chart_width = 280;
 374              		.loc 6 23 0
 375 0006 4FF48C73 		mov	r3, #280
 376 000a FB61     		str	r3, [r7, #28]
  24:home_screen.c ****     const int chart_heigth = 200;
ARM GAS  C:\Users\tmj32\AppData\Local\Temp\ccoOIND8.s 			page 25


 377              		.loc 6 24 0
 378 000c C823     		movs	r3, #200
 379 000e BB61     		str	r3, [r7, #24]
  25:home_screen.c ****     const int chart_vertPos = 20;
 380              		.loc 6 25 0
 381 0010 1423     		movs	r3, #20
 382 0012 7B61     		str	r3, [r7, #20]
  26:home_screen.c ****     const int chart_horiPos = 20; 
 383              		.loc 6 26 0
 384 0014 1423     		movs	r3, #20
 385 0016 3B61     		str	r3, [r7, #16]
  27:home_screen.c ****     int windowSize;
  28:home_screen.c ****     
  29:home_screen.c ****     static lv_obj_t *chart1;        //declaring the chart
  30:home_screen.c ****     if(startup == 1){
 386              		.loc 6 30 0
 387 0018 A94B     		ldr	r3, .L34+16
 388 001a 1B68     		ldr	r3, [r3]
 389 001c 012B     		cmp	r3, #1
 390 001e 04D1     		bne	.L13
  31:home_screen.c ****         lv_obj_del(chart1);
 391              		.loc 6 31 0
 392 0020 A84B     		ldr	r3, .L34+20
 393 0022 1B68     		ldr	r3, [r3]
 394 0024 1846     		mov	r0, r3
 395 0026 FFF7FEFF 		bl	lv_obj_del
 396              	.L13:
  32:home_screen.c ****     }   
  33:home_screen.c ****     
  34:home_screen.c ****     /* Display chart                         */        
  35:home_screen.c ****     chart1 = lv_chart_create(lv_scr_act(), NULL);                     //Add a chart to the current 
 397              		.loc 6 35 0
 398 002a FFF7FEFF 		bl	lv_scr_act
 399 002e 0346     		mov	r3, r0
 400 0030 0021     		movs	r1, #0
 401 0032 1846     		mov	r0, r3
 402 0034 FFF7FEFF 		bl	lv_chart_create
 403 0038 0246     		mov	r2, r0
 404 003a A24B     		ldr	r3, .L34+20
 405 003c 1A60     		str	r2, [r3]
  36:home_screen.c ****     lv_obj_set_pos(chart1, chart_horiPos, chart_vertPos);             /*Set its position*/
 406              		.loc 6 36 0
 407 003e A14B     		ldr	r3, .L34+20
 408 0040 1B68     		ldr	r3, [r3]
 409 0042 3A69     		ldr	r2, [r7, #16]
 410 0044 11B2     		sxth	r1, r2
 411 0046 7A69     		ldr	r2, [r7, #20]
 412 0048 12B2     		sxth	r2, r2
 413 004a 1846     		mov	r0, r3
 414 004c FFF7FEFF 		bl	lv_obj_set_pos
  37:home_screen.c ****     lv_obj_set_size(chart1, chart_width, chart_heigth);               /*Set its size*/ 
 415              		.loc 6 37 0
 416 0050 9C4B     		ldr	r3, .L34+20
 417 0052 1B68     		ldr	r3, [r3]
 418 0054 FA69     		ldr	r2, [r7, #28]
 419 0056 11B2     		sxth	r1, r2
 420 0058 BA69     		ldr	r2, [r7, #24]
ARM GAS  C:\Users\tmj32\AppData\Local\Temp\ccoOIND8.s 			page 26


 421 005a 12B2     		sxth	r2, r2
 422 005c 1846     		mov	r0, r3
 423 005e FFF7FEFF 		bl	lv_obj_set_size
  38:home_screen.c ****     
  39:home_screen.c ****     //sets the grid lines, hori, verti
  40:home_screen.c ****     lv_chart_set_div_line_count(chart1, 7, 5);
 424              		.loc 6 40 0
 425 0062 984B     		ldr	r3, .L34+20
 426 0064 1B68     		ldr	r3, [r3]
 427 0066 0522     		movs	r2, #5
 428 0068 0721     		movs	r1, #7
 429 006a 1846     		mov	r0, r3
 430 006c FFF7FEFF 		bl	lv_chart_set_div_line_count
  41:home_screen.c ****     
  42:home_screen.c ****     //determine the vertical limits of the chart
  43:home_screen.c ****     //lv_chart_set_range(chart1, y_min, y_max);
  44:home_screen.c ****     switch(cm4.VertScale){
 431              		.loc 6 44 0
 432 0070 954B     		ldr	r3, .L34+24
 433 0072 5B7C     		ldrb	r3, [r3, #17]	@ zero_extendqisi2
 434 0074 033B     		subs	r3, r3, #3
 435 0076 042B     		cmp	r3, #4
 436 0078 3CD8     		bhi	.L14
 437 007a 01A2     		adr	r2, .L16
 438 007c 52F823F0 		ldr	pc, [r2, r3, lsl #2]
 439              		.p2align 2
 440              	.L16:
 441 0080 95000000 		.word	.L15+1
 442 0084 A9000000 		.word	.L17+1
 443 0088 BD000000 		.word	.L18+1
 444 008c D1000000 		.word	.L19+1
 445 0090 E3000000 		.word	.L20+1
 446              		.p2align 1
 447              	.L15:
  45:home_screen.c ****     case 3 :
  46:home_screen.c ****         lv_chart_set_range(chart1, 475, 525);
 448              		.loc 6 46 0
 449 0094 8B4B     		ldr	r3, .L34+20
 450 0096 1B68     		ldr	r3, [r3]
 451 0098 40F20D22 		movw	r2, #525
 452 009c 40F2DB11 		movw	r1, #475
 453 00a0 1846     		mov	r0, r3
 454 00a2 FFF7FEFF 		bl	lv_chart_set_range
  47:home_screen.c ****         break;
 455              		.loc 6 47 0
 456 00a6 2DE0     		b	.L21
 457              	.L17:
  48:home_screen.c ****     case 4 :
  49:home_screen.c ****         lv_chart_set_range(chart1, 450, 550);
 458              		.loc 6 49 0
 459 00a8 864B     		ldr	r3, .L34+20
 460 00aa 1B68     		ldr	r3, [r3]
 461 00ac 40F22622 		movw	r2, #550
 462 00b0 4FF4E171 		mov	r1, #450
 463 00b4 1846     		mov	r0, r3
 464 00b6 FFF7FEFF 		bl	lv_chart_set_range
  50:home_screen.c ****         break;
ARM GAS  C:\Users\tmj32\AppData\Local\Temp\ccoOIND8.s 			page 27


 465              		.loc 6 50 0
 466 00ba 23E0     		b	.L21
 467              	.L18:
  51:home_screen.c ****     case 5 :
  52:home_screen.c ****         lv_chart_set_range(chart1, 375, 625);
 468              		.loc 6 52 0
 469 00bc 814B     		ldr	r3, .L34+20
 470 00be 1B68     		ldr	r3, [r3]
 471 00c0 40F27122 		movw	r2, #625
 472 00c4 40F27711 		movw	r1, #375
 473 00c8 1846     		mov	r0, r3
 474 00ca FFF7FEFF 		bl	lv_chart_set_range
  53:home_screen.c ****         break;
 475              		.loc 6 53 0
 476 00ce 19E0     		b	.L21
 477              	.L19:
  54:home_screen.c ****     case 6 :
  55:home_screen.c ****         lv_chart_set_range(chart1, 250, 750);
 478              		.loc 6 55 0
 479 00d0 7C4B     		ldr	r3, .L34+20
 480 00d2 1B68     		ldr	r3, [r3]
 481 00d4 40F2EE22 		movw	r2, #750
 482 00d8 FA21     		movs	r1, #250
 483 00da 1846     		mov	r0, r3
 484 00dc FFF7FEFF 		bl	lv_chart_set_range
  56:home_screen.c ****         break;
 485              		.loc 6 56 0
 486 00e0 10E0     		b	.L21
 487              	.L20:
  57:home_screen.c ****     case 7 :
  58:home_screen.c ****         lv_chart_set_range(chart1, 0, 1000);
 488              		.loc 6 58 0
 489 00e2 784B     		ldr	r3, .L34+20
 490 00e4 1B68     		ldr	r3, [r3]
 491 00e6 4FF47A72 		mov	r2, #1000
 492 00ea 0021     		movs	r1, #0
 493 00ec 1846     		mov	r0, r3
 494 00ee FFF7FEFF 		bl	lv_chart_set_range
  59:home_screen.c ****         break;
 495              		.loc 6 59 0
 496 00f2 07E0     		b	.L21
 497              	.L14:
  60:home_screen.c ****     default:
  61:home_screen.c ****         lv_chart_set_range(chart1, 0, 100);
 498              		.loc 6 61 0
 499 00f4 734B     		ldr	r3, .L34+20
 500 00f6 1B68     		ldr	r3, [r3]
 501 00f8 6422     		movs	r2, #100
 502 00fa 0021     		movs	r1, #0
 503 00fc 1846     		mov	r0, r3
 504 00fe FFF7FEFF 		bl	lv_chart_set_range
  62:home_screen.c ****         break;
 505              		.loc 6 62 0
 506 0102 00BF     		nop
 507              	.L21:
  63:home_screen.c ****     }
  64:home_screen.c ****     
ARM GAS  C:\Users\tmj32\AppData\Local\Temp\ccoOIND8.s 			page 28


  65:home_screen.c ****     
  66:home_screen.c ****     //determine horizontal limits of the chart 
  67:home_screen.c ****     switch(cm4.HoriScale){
 508              		.loc 6 67 0
 509 0104 704B     		ldr	r3, .L34+24
 510 0106 1B7C     		ldrb	r3, [r3, #16]	@ zero_extendqisi2
 511 0108 033B     		subs	r3, r3, #3
 512 010a 042B     		cmp	r3, #4
 513 010c 1ED8     		bhi	.L22
 514 010e 01A2     		adr	r2, .L24
 515 0110 52F823F0 		ldr	pc, [r2, r3, lsl #2]
 516              		.p2align 2
 517              	.L24:
 518 0114 29010000 		.word	.L23+1
 519 0118 2F010000 		.word	.L25+1
 520 011c 35010000 		.word	.L26+1
 521 0120 3D010000 		.word	.L27+1
 522 0124 45010000 		.word	.L28+1
 523              		.p2align 1
 524              	.L23:
  68:home_screen.c ****     case 3 :
  69:home_screen.c ****         windowSize = 100;
 525              		.loc 6 69 0
 526 0128 6423     		movs	r3, #100
 527 012a FB62     		str	r3, [r7, #44]
  70:home_screen.c ****         break;
 528              		.loc 6 70 0
 529 012c 11E0     		b	.L29
 530              	.L25:
  71:home_screen.c ****     case 4 :
  72:home_screen.c ****         windowSize = 200;
 531              		.loc 6 72 0
 532 012e C823     		movs	r3, #200
 533 0130 FB62     		str	r3, [r7, #44]
  73:home_screen.c ****         break;
 534              		.loc 6 73 0
 535 0132 0EE0     		b	.L29
 536              	.L26:
  74:home_screen.c ****     case 5 :
  75:home_screen.c ****         windowSize = 500;
 537              		.loc 6 75 0
 538 0134 4FF4FA73 		mov	r3, #500
 539 0138 FB62     		str	r3, [r7, #44]
  76:home_screen.c ****         break;
 540              		.loc 6 76 0
 541 013a 0AE0     		b	.L29
 542              	.L27:
  77:home_screen.c ****     case 6 :
  78:home_screen.c ****         windowSize = 1000;
 543              		.loc 6 78 0
 544 013c 4FF47A73 		mov	r3, #1000
 545 0140 FB62     		str	r3, [r7, #44]
  79:home_screen.c ****         break;
 546              		.loc 6 79 0
 547 0142 06E0     		b	.L29
 548              	.L28:
  80:home_screen.c ****     case 7 :
ARM GAS  C:\Users\tmj32\AppData\Local\Temp\ccoOIND8.s 			page 29


  81:home_screen.c ****         windowSize = 2000;
 549              		.loc 6 81 0
 550 0144 4FF4FA63 		mov	r3, #2000
 551 0148 FB62     		str	r3, [r7, #44]
  82:home_screen.c ****         break;
 552              		.loc 6 82 0
 553 014a 02E0     		b	.L29
 554              	.L22:
  83:home_screen.c ****     default:
  84:home_screen.c ****         windowSize = 100;
 555              		.loc 6 84 0
 556 014c 6423     		movs	r3, #100
 557 014e FB62     		str	r3, [r7, #44]
  85:home_screen.c ****         break;
 558              		.loc 6 85 0
 559 0150 00BF     		nop
 560              	.L29:
  86:home_screen.c ****     }    
  87:home_screen.c ****     lv_chart_set_point_count(chart1, windowSize);                  //setting the number of points o
 561              		.loc 6 87 0
 562 0152 5C4B     		ldr	r3, .L34+20
 563 0154 1B68     		ldr	r3, [r3]
 564 0156 FA6A     		ldr	r2, [r7, #44]
 565 0158 92B2     		uxth	r2, r2
 566 015a 1146     		mov	r1, r2
 567 015c 1846     		mov	r0, r3
 568 015e FFF7FEFF 		bl	lv_chart_set_point_count
  88:home_screen.c ****     lv_chart_set_type(chart1, LV_CHART_TYPE_POINT);                    //set graph to points, as op
 569              		.loc 6 88 0
 570 0162 584B     		ldr	r3, .L34+20
 571 0164 1B68     		ldr	r3, [r3]
 572 0166 0421     		movs	r1, #4
 573 0168 1846     		mov	r0, r3
 574 016a FFF7FEFF 		bl	lv_chart_set_type
  89:home_screen.c ****     
  90:home_screen.c ****     //Add series to the chart
  91:home_screen.c ****     lv_chart_series_t * s1 = lv_chart_add_series(chart1, lv_color_hex(0x01a2b1));
 575              		.loc 6 91 0
 576 016e 554B     		ldr	r3, .L34+20
 577 0170 1C68     		ldr	r4, [r3]
 578 0172 5648     		ldr	r0, .L34+28
 579 0174 FFF7FEFF 		bl	lv_color_hex
 580 0178 0346     		mov	r3, r0
 581 017a 1946     		mov	r1, r3
 582 017c 2046     		mov	r0, r4
 583 017e FFF7FEFF 		bl	lv_chart_add_series
 584 0182 F860     		str	r0, [r7, #12]
  92:home_screen.c ****     
  93:home_screen.c ****     lv_chart_clear_serie(chart1, s1);
 585              		.loc 6 93 0
 586 0184 4F4B     		ldr	r3, .L34+20
 587 0186 1B68     		ldr	r3, [r3]
 588 0188 F968     		ldr	r1, [r7, #12]
 589 018a 1846     		mov	r0, r3
 590 018c FFF7FEFF 		bl	lv_chart_clear_serie
  94:home_screen.c ****     lv_chart_refresh(chart1);
 591              		.loc 6 94 0
ARM GAS  C:\Users\tmj32\AppData\Local\Temp\ccoOIND8.s 			page 30


 592 0190 4C4B     		ldr	r3, .L34+20
 593 0192 1B68     		ldr	r3, [r3]
 594 0194 1846     		mov	r0, r3
 595 0196 FFF7FEFF 		bl	lv_chart_refresh
  95:home_screen.c ****     
  96:home_screen.c ****     // Need to calculate the desired indexes in RxBuffer, Based on HoriScale
  97:home_screen.c ****     int bufferFirst = cm4.windowPos - windowSize/2;
 596              		.loc 6 97 0
 597 019a 4B4B     		ldr	r3, .L34+24
 598 019c DA68     		ldr	r2, [r3, #12]
 599 019e FB6A     		ldr	r3, [r7, #44]
 600 01a0 D90F     		lsrs	r1, r3, #31
 601 01a2 0B44     		add	r3, r3, r1
 602 01a4 5B10     		asrs	r3, r3, #1
 603 01a6 D31A     		subs	r3, r2, r3
 604 01a8 BB62     		str	r3, [r7, #40]
  98:home_screen.c ****     int bufferLast = cm4.windowPos + windowSize/2;
 605              		.loc 6 98 0
 606 01aa 474B     		ldr	r3, .L34+24
 607 01ac DA68     		ldr	r2, [r3, #12]
 608 01ae FB6A     		ldr	r3, [r7, #44]
 609 01b0 D90F     		lsrs	r1, r3, #31
 610 01b2 0B44     		add	r3, r3, r1
 611 01b4 5B10     		asrs	r3, r3, #1
 612 01b6 1344     		add	r3, r3, r2
 613 01b8 7B62     		str	r3, [r7, #36]
  99:home_screen.c ****     
 100:home_screen.c ****     //handle negative edge cases
 101:home_screen.c ****     if(bufferFirst < 0){
 614              		.loc 6 101 0
 615 01ba BB6A     		ldr	r3, [r7, #40]
 616 01bc 002B     		cmp	r3, #0
 617 01be 03DA     		bge	.L30
 102:home_screen.c ****         bufferFirst = 0;
 618              		.loc 6 102 0
 619 01c0 0023     		movs	r3, #0
 620 01c2 BB62     		str	r3, [r7, #40]
 103:home_screen.c ****         bufferLast = windowSize;
 621              		.loc 6 103 0
 622 01c4 FB6A     		ldr	r3, [r7, #44]
 623 01c6 7B62     		str	r3, [r7, #36]
 624              	.L30:
 104:home_screen.c ****     }
 105:home_screen.c ****     
 106:home_screen.c ****     //handle overflow edge cases
 107:home_screen.c ****     if(bufferLast < 2048){
 625              		.loc 6 107 0
 626 01c8 7B6A     		ldr	r3, [r7, #36]
 627 01ca B3F5006F 		cmp	r3, #2048
 628 01ce 06DA     		bge	.L31
 108:home_screen.c ****         bufferLast = 2048;
 629              		.loc 6 108 0
 630 01d0 4FF40063 		mov	r3, #2048
 631 01d4 7B62     		str	r3, [r7, #36]
 109:home_screen.c ****         bufferFirst = 2048 - windowSize;
 632              		.loc 6 109 0
 633 01d6 FB6A     		ldr	r3, [r7, #44]
ARM GAS  C:\Users\tmj32\AppData\Local\Temp\ccoOIND8.s 			page 31


 634 01d8 C3F50063 		rsb	r3, r3, #2048
 635 01dc BB62     		str	r3, [r7, #40]
 636              	.L31:
 110:home_screen.c ****     }    
 111:home_screen.c **** 
 112:home_screen.c ****     //draw the series
 113:home_screen.c ****     double voltage = 0; //convert the code from brian to voltage using:
 637              		.loc 6 113 0
 638 01de 4FF00003 		mov	r3, #0
 639 01e2 4FF00004 		mov	r4, #0
 640 01e6 C7E90034 		strd	r3, [r7]
 641              	.LBB2:
 114:home_screen.c ****     //voltage = ((code*0.5)/128)+1.45
 115:home_screen.c ****     for(int i = bufferFirst; i < bufferLast; ++i){
 642              		.loc 6 115 0
 643 01ea BB6A     		ldr	r3, [r7, #40]
 644 01ec 3B62     		str	r3, [r7, #32]
 645 01ee 52E0     		b	.L32
 646              	.L33:
 116:home_screen.c ****         /*        |---------code to voltage equation-----------------|* show decimals| + internal o
 117:home_screen.c ****         voltage = (((cm4.RamReadBuffer[i]*0.5)/128)+1.45)*100;
 647              		.loc 6 117 0 discriminator 3
 648 01f0 354A     		ldr	r2, .L34+24
 649 01f2 3B6A     		ldr	r3, [r7, #32]
 650 01f4 1344     		add	r3, r3, r2
 651 01f6 3E33     		adds	r3, r3, #62
 652 01f8 93F90030 		ldrsb	r3, [r3]
 653 01fc 1846     		mov	r0, r3
 654 01fe FFF7FEFF 		bl	__aeabi_i2d
 655 0202 4FF00002 		mov	r2, #0
 656 0206 324B     		ldr	r3, .L34+32
 657 0208 FFF7FEFF 		bl	__aeabi_dmul
 658 020c 0346     		mov	r3, r0
 659 020e 0C46     		mov	r4, r1
 660 0210 1846     		mov	r0, r3
 661 0212 2146     		mov	r1, r4
 662 0214 4FF00002 		mov	r2, #0
 663 0218 2E4B     		ldr	r3, .L34+36
 664 021a FFF7FEFF 		bl	__aeabi_ddiv
 665 021e 0346     		mov	r3, r0
 666 0220 0C46     		mov	r4, r1
 667 0222 1846     		mov	r0, r3
 668 0224 2146     		mov	r1, r4
 669 0226 22A3     		adr	r3, .L34
 670 0228 D3E90023 		ldrd	r2, [r3]
 671 022c FFF7FEFF 		bl	__aeabi_dadd
 672 0230 0346     		mov	r3, r0
 673 0232 0C46     		mov	r4, r1
 674 0234 1846     		mov	r0, r3
 675 0236 2146     		mov	r1, r4
 676 0238 4FF00002 		mov	r2, #0
 677 023c 264B     		ldr	r3, .L34+40
 678 023e FFF7FEFF 		bl	__aeabi_dmul
 679 0242 0346     		mov	r3, r0
 680 0244 0C46     		mov	r4, r1
 681 0246 C7E90034 		strd	r3, [r7]
 118:home_screen.c ****         voltage = voltage + cm4.Offset + 355;
ARM GAS  C:\Users\tmj32\AppData\Local\Temp\ccoOIND8.s 			page 32


 682              		.loc 6 118 0 discriminator 3
 683 024a 1F4B     		ldr	r3, .L34+24
 684 024c 9B7A     		ldrb	r3, [r3, #10]	@ zero_extendqisi2
 685 024e 1846     		mov	r0, r3
 686 0250 FFF7FEFF 		bl	__aeabi_i2d
 687 0254 D7E90023 		ldrd	r2, [r7]
 688 0258 FFF7FEFF 		bl	__aeabi_dadd
 689 025c 0346     		mov	r3, r0
 690 025e 0C46     		mov	r4, r1
 691 0260 1846     		mov	r0, r3
 692 0262 2146     		mov	r1, r4
 693 0264 14A3     		adr	r3, .L34+8
 694 0266 D3E90023 		ldrd	r2, [r3]
 695 026a FFF7FEFF 		bl	__aeabi_dadd
 696 026e 0346     		mov	r3, r0
 697 0270 0C46     		mov	r4, r1
 698 0272 C7E90034 		strd	r3, [r7]
 119:home_screen.c ****         lv_chart_set_next(chart1, s1, voltage);
 699              		.loc 6 119 0 discriminator 3
 700 0276 134B     		ldr	r3, .L34+20
 701 0278 1C68     		ldr	r4, [r3]
 702 027a D7E90001 		ldrd	r0, [r7]
 703 027e FFF7FEFF 		bl	__aeabi_d2iz
 704 0282 0346     		mov	r3, r0
 705 0284 1BB2     		sxth	r3, r3
 706 0286 1A46     		mov	r2, r3
 707 0288 F968     		ldr	r1, [r7, #12]
 708 028a 2046     		mov	r0, r4
 709 028c FFF7FEFF 		bl	lv_chart_set_next
 115:home_screen.c ****         /*        |---------code to voltage equation-----------------|* show decimals| + internal o
 710              		.loc 6 115 0 discriminator 3
 711 0290 3B6A     		ldr	r3, [r7, #32]
 712 0292 0133     		adds	r3, r3, #1
 713 0294 3B62     		str	r3, [r7, #32]
 714              	.L32:
 115:home_screen.c ****         /*        |---------code to voltage equation-----------------|* show decimals| + internal o
 715              		.loc 6 115 0 is_stmt 0 discriminator 1
 716 0296 3A6A     		ldr	r2, [r7, #32]
 717 0298 7B6A     		ldr	r3, [r7, #36]
 718 029a 9A42     		cmp	r2, r3
 719 029c A8DB     		blt	.L33
 720              	.LBE2:
 120:home_screen.c ****     }   
 121:home_screen.c ****     startup = 1;
 721              		.loc 6 121 0 is_stmt 1
 722 029e 084B     		ldr	r3, .L34+16
 723 02a0 0122     		movs	r2, #1
 724 02a2 1A60     		str	r2, [r3]
 122:home_screen.c **** }
 725              		.loc 6 122 0
 726 02a4 00BF     		nop
 727 02a6 3437     		adds	r7, r7, #52
 728              		.cfi_def_cfa_offset 12
 729 02a8 BD46     		mov	sp, r7
 730              		.cfi_def_cfa_register 13
 731              		@ sp needed
 732 02aa 90BD     		pop	{r4, r7, pc}
ARM GAS  C:\Users\tmj32\AppData\Local\Temp\ccoOIND8.s 			page 33


 733              	.L35:
 734 02ac AFF30080 		.align	3
 735              	.L34:
 736 02b0 33333333 		.word	858993459
 737 02b4 3333F73F 		.word	1073165107
 738 02b8 00000000 		.word	0
 739 02bc 00307640 		.word	1081487360
 740 02c0 00000000 		.word	startup
 741 02c4 14000000 		.word	chart1.20844
 742 02c8 00000000 		.word	cm4
 743 02cc B1A20100 		.word	107185
 744 02d0 0000E03F 		.word	1071644672
 745 02d4 00006040 		.word	1080033280
 746 02d8 00005940 		.word	1079574528
 747              		.cfi_endproc
 748              	.LFE717:
 749              		.size	chart_actions, .-chart_actions
 750              		.section	.text.roller1_event,"ax",%progbits
 751              		.align	2
 752              		.thumb
 753              		.thumb_func
 754              		.type	roller1_event, %function
 755              	roller1_event:
 756              	.LFB718:
 123:home_screen.c **** 
 124:home_screen.c **** static void roller1_event(lv_obj_t * obj, lv_event_t event)
 125:home_screen.c **** {
 757              		.loc 6 125 0
 758              		.cfi_startproc
 759              		@ args = 0, pretend = 0, frame = 40
 760              		@ frame_needed = 1, uses_anonymous_args = 0
 761 0000 80B5     		push	{r7, lr}
 762              		.cfi_def_cfa_offset 8
 763              		.cfi_offset 7, -8
 764              		.cfi_offset 14, -4
 765 0002 8AB0     		sub	sp, sp, #40
 766              		.cfi_def_cfa_offset 48
 767 0004 00AF     		add	r7, sp, #0
 768              		.cfi_def_cfa_register 7
 769 0006 7860     		str	r0, [r7, #4]
 770 0008 0B46     		mov	r3, r1
 771 000a FB70     		strb	r3, [r7, #3]
 126:home_screen.c ****     if(event == (LV_EVENT_VALUE_CHANGED)) {
 772              		.loc 6 126 0
 773 000c FB78     		ldrb	r3, [r7, #3]	@ zero_extendqisi2
 774 000e 0E2B     		cmp	r3, #14
 775 0010 06D1     		bne	.L38
 776              	.LBB3:
 127:home_screen.c ****         char buf[32];
 128:home_screen.c ****         lv_roller_get_selected_str(obj, buf, sizeof(buf));
 777              		.loc 6 128 0
 778 0012 07F10803 		add	r3, r7, #8
 779 0016 2022     		movs	r2, #32
 780 0018 1946     		mov	r1, r3
 781 001a 7868     		ldr	r0, [r7, #4]
 782 001c FFF7FEFF 		bl	lv_roller_get_selected_str
 783              	.L38:
ARM GAS  C:\Users\tmj32\AppData\Local\Temp\ccoOIND8.s 			page 34


 784              	.LBE3:
 129:home_screen.c ****     }
 130:home_screen.c **** }
 785              		.loc 6 130 0
 786 0020 00BF     		nop
 787 0022 2837     		adds	r7, r7, #40
 788              		.cfi_def_cfa_offset 8
 789 0024 BD46     		mov	sp, r7
 790              		.cfi_def_cfa_register 13
 791              		@ sp needed
 792 0026 80BD     		pop	{r7, pc}
 793              		.cfi_endproc
 794              	.LFE718:
 795              		.size	roller1_event, .-roller1_event
 796              		.section	.text.roller2_event,"ax",%progbits
 797              		.align	2
 798              		.thumb
 799              		.thumb_func
 800              		.type	roller2_event, %function
 801              	roller2_event:
 802              	.LFB719:
 131:home_screen.c **** static void roller2_event(lv_obj_t * obj, lv_event_t event)
 132:home_screen.c **** {
 803              		.loc 6 132 0
 804              		.cfi_startproc
 805              		@ args = 0, pretend = 0, frame = 40
 806              		@ frame_needed = 1, uses_anonymous_args = 0
 807 0000 80B5     		push	{r7, lr}
 808              		.cfi_def_cfa_offset 8
 809              		.cfi_offset 7, -8
 810              		.cfi_offset 14, -4
 811 0002 8AB0     		sub	sp, sp, #40
 812              		.cfi_def_cfa_offset 48
 813 0004 00AF     		add	r7, sp, #0
 814              		.cfi_def_cfa_register 7
 815 0006 7860     		str	r0, [r7, #4]
 816 0008 0B46     		mov	r3, r1
 817 000a FB70     		strb	r3, [r7, #3]
 133:home_screen.c ****     if(event == (LV_EVENT_VALUE_CHANGED)) {
 818              		.loc 6 133 0
 819 000c FB78     		ldrb	r3, [r7, #3]	@ zero_extendqisi2
 820 000e 0E2B     		cmp	r3, #14
 821 0010 06D1     		bne	.L41
 822              	.LBB4:
 134:home_screen.c ****         char buf[32];
 135:home_screen.c ****         lv_roller_get_selected_str(obj, buf, sizeof(buf));
 823              		.loc 6 135 0
 824 0012 07F10803 		add	r3, r7, #8
 825 0016 2022     		movs	r2, #32
 826 0018 1946     		mov	r1, r3
 827 001a 7868     		ldr	r0, [r7, #4]
 828 001c FFF7FEFF 		bl	lv_roller_get_selected_str
 829              	.L41:
 830              	.LBE4:
 136:home_screen.c ****     }
 137:home_screen.c **** }
 831              		.loc 6 137 0
ARM GAS  C:\Users\tmj32\AppData\Local\Temp\ccoOIND8.s 			page 35


 832 0020 00BF     		nop
 833 0022 2837     		adds	r7, r7, #40
 834              		.cfi_def_cfa_offset 8
 835 0024 BD46     		mov	sp, r7
 836              		.cfi_def_cfa_register 13
 837              		@ sp needed
 838 0026 80BD     		pop	{r7, pc}
 839              		.cfi_endproc
 840              	.LFE719:
 841              		.size	roller2_event, .-roller2_event
 842              		.section	.rodata
 843 0007 00       		.align	2
 844              	.LC0:
 845 0008 4F6E00   		.ascii	"On\000"
 846 000b 00       		.align	2
 847              	.LC1:
 848 000c 4F666600 		.ascii	"Off\000"
 849              		.align	2
 850              	.LC2:
 851 0010 53746174 		.ascii	"State: %s\012\000"
 851      653A2025 
 851      730A00
 852              		.section	.text.sw_event_handler,"ax",%progbits
 853              		.align	2
 854              		.thumb
 855              		.thumb_func
 856              		.type	sw_event_handler, %function
 857              	sw_event_handler:
 858              	.LFB720:
 138:home_screen.c **** static void sw_event_handler(lv_obj_t * obj, lv_event_t event)
 139:home_screen.c **** {
 859              		.loc 6 139 0
 860              		.cfi_startproc
 861              		@ args = 0, pretend = 0, frame = 8
 862              		@ frame_needed = 1, uses_anonymous_args = 0
 863 0000 80B5     		push	{r7, lr}
 864              		.cfi_def_cfa_offset 8
 865              		.cfi_offset 7, -8
 866              		.cfi_offset 14, -4
 867 0002 82B0     		sub	sp, sp, #8
 868              		.cfi_def_cfa_offset 16
 869 0004 00AF     		add	r7, sp, #0
 870              		.cfi_def_cfa_register 7
 871 0006 7860     		str	r0, [r7, #4]
 872 0008 0B46     		mov	r3, r1
 873 000a FB70     		strb	r3, [r7, #3]
 140:home_screen.c ****     if(event == (LV_EVENT_VALUE_CHANGED)) {
 874              		.loc 6 140 0
 875 000c FB78     		ldrb	r3, [r7, #3]	@ zero_extendqisi2
 876 000e 0E2B     		cmp	r3, #14
 877 0010 0CD1     		bne	.L46
 141:home_screen.c ****         printf("State: %s\n", lv_sw_get_state(obj) ? "On" : "Off");
 878              		.loc 6 141 0
 879 0012 7868     		ldr	r0, [r7, #4]
 880 0014 FFF7FEFF 		bl	lv_sw_get_state
 881 0018 0346     		mov	r3, r0
 882 001a 002B     		cmp	r3, #0
ARM GAS  C:\Users\tmj32\AppData\Local\Temp\ccoOIND8.s 			page 36


 883 001c 01D0     		beq	.L44
 884              		.loc 6 141 0 is_stmt 0 discriminator 1
 885 001e 054B     		ldr	r3, .L47
 886 0020 00E0     		b	.L45
 887              	.L44:
 888              		.loc 6 141 0 discriminator 2
 889 0022 054B     		ldr	r3, .L47+4
 890              	.L45:
 891              		.loc 6 141 0 discriminator 4
 892 0024 1946     		mov	r1, r3
 893 0026 0548     		ldr	r0, .L47+8
 894 0028 FFF7FEFF 		bl	printf
 895              	.L46:
 142:home_screen.c ****         //cm4.onBit = !cm4.onBit;
 143:home_screen.c ****     }
 144:home_screen.c **** }
 896              		.loc 6 144 0 is_stmt 1
 897 002c 00BF     		nop
 898 002e 0837     		adds	r7, r7, #8
 899              		.cfi_def_cfa_offset 8
 900 0030 BD46     		mov	sp, r7
 901              		.cfi_def_cfa_register 13
 902              		@ sp needed
 903 0032 80BD     		pop	{r7, pc}
 904              	.L48:
 905              		.align	2
 906              	.L47:
 907 0034 08000000 		.word	.LC0
 908 0038 0C000000 		.word	.LC1
 909 003c 10000000 		.word	.LC2
 910              		.cfi_endproc
 911              	.LFE720:
 912              		.size	sw_event_handler, .-sw_event_handler
 913              		.section	.rodata
 914 001b 00       		.align	2
 915              	.LC3:
 916 001c 257500   		.ascii	"%u\000"
 917              		.section	.text.offset_slider_event_cb,"ax",%progbits
 918              		.align	2
 919              		.thumb
 920              		.thumb_func
 921              		.type	offset_slider_event_cb, %function
 922              	offset_slider_event_cb:
 923              	.LFB721:
 145:home_screen.c **** static void offset_slider_event_cb(lv_obj_t * slider, lv_event_t event)
 146:home_screen.c **** {
 924              		.loc 6 146 0
 925              		.cfi_startproc
 926              		@ args = 0, pretend = 0, frame = 8
 927              		@ frame_needed = 1, uses_anonymous_args = 0
 928 0000 80B5     		push	{r7, lr}
 929              		.cfi_def_cfa_offset 8
 930              		.cfi_offset 7, -8
 931              		.cfi_offset 14, -4
 932 0002 82B0     		sub	sp, sp, #8
 933              		.cfi_def_cfa_offset 16
 934 0004 00AF     		add	r7, sp, #0
ARM GAS  C:\Users\tmj32\AppData\Local\Temp\ccoOIND8.s 			page 37


 935              		.cfi_def_cfa_register 7
 936 0006 7860     		str	r0, [r7, #4]
 937 0008 0B46     		mov	r3, r1
 938 000a FB70     		strb	r3, [r7, #3]
 147:home_screen.c ****     if(event == (LV_EVENT_VALUE_CHANGED)) {
 939              		.loc 6 147 0
 940 000c FB78     		ldrb	r3, [r7, #3]	@ zero_extendqisi2
 941 000e 0E2B     		cmp	r3, #14
 942 0010 17D1     		bne	.L51
 943              	.LBB5:
 148:home_screen.c ****         static char buf[4]; /* max 3 bytes for number plus 1 null terminating byte */
 149:home_screen.c ****         snprintf(buf, 4, "%u", lv_slider_get_value(slider));
 944              		.loc 6 149 0
 945 0012 7868     		ldr	r0, [r7, #4]
 946 0014 FFF7FEFF 		bl	lv_slider_get_value
 947 0018 0346     		mov	r3, r0
 948 001a 0C4A     		ldr	r2, .L52
 949 001c 0421     		movs	r1, #4
 950 001e 0C48     		ldr	r0, .L52+4
 951 0020 FFF7FEFF 		bl	snprintf
 150:home_screen.c ****         lv_label_set_text(offsetLabel, buf);
 952              		.loc 6 150 0
 953 0024 0B4B     		ldr	r3, .L52+8
 954 0026 1B68     		ldr	r3, [r3]
 955 0028 0949     		ldr	r1, .L52+4
 956 002a 1846     		mov	r0, r3
 957 002c FFF7FEFF 		bl	lv_label_set_text
 151:home_screen.c ****         cm4.Offset = lv_slider_get_value(slider);
 958              		.loc 6 151 0
 959 0030 7868     		ldr	r0, [r7, #4]
 960 0032 FFF7FEFF 		bl	lv_slider_get_value
 961 0036 0346     		mov	r3, r0
 962 0038 DAB2     		uxtb	r2, r3
 963 003a 074B     		ldr	r3, .L52+12
 964 003c 9A72     		strb	r2, [r3, #10]
 152:home_screen.c ****         chart_actions();    //call to update the chart
 965              		.loc 6 152 0
 966 003e FFF7FEFF 		bl	chart_actions
 967              	.L51:
 968              	.LBE5:
 153:home_screen.c ****     }
 154:home_screen.c **** }
 969              		.loc 6 154 0
 970 0042 00BF     		nop
 971 0044 0837     		adds	r7, r7, #8
 972              		.cfi_def_cfa_offset 8
 973 0046 BD46     		mov	sp, r7
 974              		.cfi_def_cfa_register 13
 975              		@ sp needed
 976 0048 80BD     		pop	{r7, pc}
 977              	.L53:
 978 004a 00BF     		.align	2
 979              	.L52:
 980 004c 1C000000 		.word	.LC3
 981 0050 18000000 		.word	buf.20885
 982 0054 00000000 		.word	offsetLabel
 983 0058 00000000 		.word	cm4
ARM GAS  C:\Users\tmj32\AppData\Local\Temp\ccoOIND8.s 			page 38


 984              		.cfi_endproc
 985              	.LFE721:
 986              		.size	offset_slider_event_cb, .-offset_slider_event_cb
 987              		.section	.text.trigger_slider_event_cb,"ax",%progbits
 988              		.align	2
 989              		.thumb
 990              		.thumb_func
 991              		.type	trigger_slider_event_cb, %function
 992              	trigger_slider_event_cb:
 993              	.LFB722:
 155:home_screen.c **** static void trigger_slider_event_cb(lv_obj_t * slider, lv_event_t event)
 156:home_screen.c **** {
 994              		.loc 6 156 0
 995              		.cfi_startproc
 996              		@ args = 0, pretend = 0, frame = 8
 997              		@ frame_needed = 1, uses_anonymous_args = 0
 998 0000 80B5     		push	{r7, lr}
 999              		.cfi_def_cfa_offset 8
 1000              		.cfi_offset 7, -8
 1001              		.cfi_offset 14, -4
 1002 0002 82B0     		sub	sp, sp, #8
 1003              		.cfi_def_cfa_offset 16
 1004 0004 00AF     		add	r7, sp, #0
 1005              		.cfi_def_cfa_register 7
 1006 0006 7860     		str	r0, [r7, #4]
 1007 0008 0B46     		mov	r3, r1
 1008 000a FB70     		strb	r3, [r7, #3]
 157:home_screen.c ****     if(event == (LV_EVENT_VALUE_CHANGED)) {
 1009              		.loc 6 157 0
 1010 000c FB78     		ldrb	r3, [r7, #3]	@ zero_extendqisi2
 1011 000e 0E2B     		cmp	r3, #14
 1012 0010 17D1     		bne	.L56
 1013              	.LBB6:
 158:home_screen.c ****         static char buf[4]; /* max 3 bytes for number plus 1 null terminating byte */
 159:home_screen.c ****         snprintf(buf, 4, "%u", lv_slider_get_value(slider));
 1014              		.loc 6 159 0
 1015 0012 7868     		ldr	r0, [r7, #4]
 1016 0014 FFF7FEFF 		bl	lv_slider_get_value
 1017 0018 0346     		mov	r3, r0
 1018 001a 0C4A     		ldr	r2, .L57
 1019 001c 0421     		movs	r1, #4
 1020 001e 0C48     		ldr	r0, .L57+4
 1021 0020 FFF7FEFF 		bl	snprintf
 160:home_screen.c ****         lv_label_set_text(triggerLabel, buf);
 1022              		.loc 6 160 0
 1023 0024 0B4B     		ldr	r3, .L57+8
 1024 0026 1B68     		ldr	r3, [r3]
 1025 0028 0949     		ldr	r1, .L57+4
 1026 002a 1846     		mov	r0, r3
 1027 002c FFF7FEFF 		bl	lv_label_set_text
 161:home_screen.c ****         cm4.Trigger = lv_slider_get_value(slider);
 1028              		.loc 6 161 0
 1029 0030 7868     		ldr	r0, [r7, #4]
 1030 0032 FFF7FEFF 		bl	lv_slider_get_value
 1031 0036 0346     		mov	r3, r0
 1032 0038 DAB2     		uxtb	r2, r3
 1033 003a 074B     		ldr	r3, .L57+12
ARM GAS  C:\Users\tmj32\AppData\Local\Temp\ccoOIND8.s 			page 39


 1034 003c 1A71     		strb	r2, [r3, #4]
 162:home_screen.c ****         chart_actions();    //call to update the chart
 1035              		.loc 6 162 0
 1036 003e FFF7FEFF 		bl	chart_actions
 1037              	.L56:
 1038              	.LBE6:
 163:home_screen.c ****     }
 164:home_screen.c **** }
 1039              		.loc 6 164 0
 1040 0042 00BF     		nop
 1041 0044 0837     		adds	r7, r7, #8
 1042              		.cfi_def_cfa_offset 8
 1043 0046 BD46     		mov	sp, r7
 1044              		.cfi_def_cfa_register 13
 1045              		@ sp needed
 1046 0048 80BD     		pop	{r7, pc}
 1047              	.L58:
 1048 004a 00BF     		.align	2
 1049              	.L57:
 1050 004c 1C000000 		.word	.LC3
 1051 0050 1C000000 		.word	buf.20890
 1052 0054 04000000 		.word	triggerLabel
 1053 0058 00000000 		.word	cm4
 1054              		.cfi_endproc
 1055              	.LFE722:
 1056              		.size	trigger_slider_event_cb, .-trigger_slider_event_cb
 1057              		.section	.rodata
 1058 001f 00       		.align	2
 1059              	.LC4:
 1060 0020 3130306D 		.ascii	"100mV\000"
 1060      5600
 1061 0026 0000     		.align	2
 1062              	.LC5:
 1063 0028 3230306D 		.ascii	"200mV\000"
 1063      5600
 1064 002e 0000     		.align	2
 1065              	.LC6:
 1066 0030 3530306D 		.ascii	"500mV\000"
 1066      5600
 1067 0036 0000     		.align	2
 1068              	.LC7:
 1069 0038 315600   		.ascii	"1V\000"
 1070 003b 00       		.align	2
 1071              	.LC8:
 1072 003c 325600   		.ascii	"2V\000"
 1073 003f 00       		.align	2
 1074              	.LC9:
 1075 0040 48656C6C 		.ascii	"Hello World\000"
 1075      6F20576F 
 1075      726C6400 
 1076              		.section	.text.hori_slider_event_cb,"ax",%progbits
 1077              		.align	2
 1078              		.thumb
 1079              		.thumb_func
 1080              		.type	hori_slider_event_cb, %function
 1081              	hori_slider_event_cb:
 1082              	.LFB723:
ARM GAS  C:\Users\tmj32\AppData\Local\Temp\ccoOIND8.s 			page 40


 165:home_screen.c **** static void hori_slider_event_cb(lv_obj_t * slider, lv_event_t event)
 166:home_screen.c **** {
 1083              		.loc 6 166 0
 1084              		.cfi_startproc
 1085              		@ args = 0, pretend = 0, frame = 8
 1086              		@ frame_needed = 1, uses_anonymous_args = 0
 1087 0000 80B5     		push	{r7, lr}
 1088              		.cfi_def_cfa_offset 8
 1089              		.cfi_offset 7, -8
 1090              		.cfi_offset 14, -4
 1091 0002 82B0     		sub	sp, sp, #8
 1092              		.cfi_def_cfa_offset 16
 1093 0004 00AF     		add	r7, sp, #0
 1094              		.cfi_def_cfa_register 7
 1095 0006 7860     		str	r0, [r7, #4]
 1096 0008 0B46     		mov	r3, r1
 1097 000a FB70     		strb	r3, [r7, #3]
 167:home_screen.c ****     if(event == (LV_EVENT_VALUE_CHANGED)) {
 1098              		.loc 6 167 0
 1099 000c FB78     		ldrb	r3, [r7, #3]	@ zero_extendqisi2
 1100 000e 0E2B     		cmp	r3, #14
 1101 0010 50D1     		bne	.L69
 1102              	.LBB7:
 168:home_screen.c ****         static char buf[10]; /* max 3 bytes for number plus 1 null terminating byte */
 169:home_screen.c ****         //snprintf(buf, 10, "%u", lv_slider_get_value(slider));
 170:home_screen.c ****         //lv_label_set_text(horiLabel1, buf);
 171:home_screen.c ****         cm4.HoriScale = lv_slider_get_value(slider);
 1103              		.loc 6 171 0
 1104 0012 7868     		ldr	r0, [r7, #4]
 1105 0014 FFF7FEFF 		bl	lv_slider_get_value
 1106 0018 0346     		mov	r3, r0
 1107 001a DAB2     		uxtb	r2, r3
 1108 001c 274B     		ldr	r3, .L70
 1109 001e 1A74     		strb	r2, [r3, #16]
 172:home_screen.c ****         
 173:home_screen.c ****         switch(cm4.HoriScale){
 1110              		.loc 6 173 0
 1111 0020 264B     		ldr	r3, .L70
 1112 0022 1B7C     		ldrb	r3, [r3, #16]	@ zero_extendqisi2
 1113 0024 053B     		subs	r3, r3, #5
 1114 0026 042B     		cmp	r3, #4
 1115 0028 36D8     		bhi	.L61
 1116 002a 01A2     		adr	r2, .L63
 1117 002c 52F823F0 		ldr	pc, [r2, r3, lsl #2]
 1118              		.p2align 2
 1119              	.L63:
 1120 0030 45000000 		.word	.L62+1
 1121 0034 55000000 		.word	.L64+1
 1122 0038 65000000 		.word	.L65+1
 1123 003c 75000000 		.word	.L66+1
 1124 0040 87000000 		.word	.L67+1
 1125              		.p2align 1
 1126              	.L62:
 174:home_screen.c **** 
 175:home_screen.c ****             case 5 :
 176:home_screen.c ****                 snprintf(buf, 10, "100mV");
 1127              		.loc 6 176 0
ARM GAS  C:\Users\tmj32\AppData\Local\Temp\ccoOIND8.s 			page 41


 1128 0044 1E4B     		ldr	r3, .L70+4
 1129 0046 1F4A     		ldr	r2, .L70+8
 1130 0048 92E80300 		ldmia	r2, {r0, r1}
 1131 004c 1860     		str	r0, [r3]
 1132 004e 0433     		adds	r3, r3, #4
 1133 0050 1980     		strh	r1, [r3]	@ movhi
 177:home_screen.c ****                 break;
 1134              		.loc 6 177 0
 1135 0052 27E0     		b	.L68
 1136              	.L64:
 178:home_screen.c ****             case 6 :
 179:home_screen.c ****                 snprintf(buf, 10, "200mV");
 1137              		.loc 6 179 0
 1138 0054 1A4B     		ldr	r3, .L70+4
 1139 0056 1C4A     		ldr	r2, .L70+12
 1140 0058 92E80300 		ldmia	r2, {r0, r1}
 1141 005c 1860     		str	r0, [r3]
 1142 005e 0433     		adds	r3, r3, #4
 1143 0060 1980     		strh	r1, [r3]	@ movhi
 180:home_screen.c ****                 break;
 1144              		.loc 6 180 0
 1145 0062 1FE0     		b	.L68
 1146              	.L65:
 181:home_screen.c ****             case 7 :
 182:home_screen.c ****                 snprintf(buf, 10, "500mV");
 1147              		.loc 6 182 0
 1148 0064 164B     		ldr	r3, .L70+4
 1149 0066 194A     		ldr	r2, .L70+16
 1150 0068 92E80300 		ldmia	r2, {r0, r1}
 1151 006c 1860     		str	r0, [r3]
 1152 006e 0433     		adds	r3, r3, #4
 1153 0070 1980     		strh	r1, [r3]	@ movhi
 183:home_screen.c ****                 break;            
 1154              		.loc 6 183 0
 1155 0072 17E0     		b	.L68
 1156              	.L66:
 184:home_screen.c ****             case 8 :
 185:home_screen.c ****                 snprintf(buf, 10, "1V");
 1157              		.loc 6 185 0
 1158 0074 124B     		ldr	r3, .L70+4
 1159 0076 164A     		ldr	r2, .L70+20
 1160 0078 1268     		ldr	r2, [r2]
 1161 007a 1146     		mov	r1, r2	@ movhi
 1162 007c 1980     		strh	r1, [r3]	@ movhi
 1163 007e 0233     		adds	r3, r3, #2
 1164 0080 120C     		lsrs	r2, r2, #16
 1165 0082 1A70     		strb	r2, [r3]
 186:home_screen.c ****                 break;
 1166              		.loc 6 186 0
 1167 0084 0EE0     		b	.L68
 1168              	.L67:
 187:home_screen.c ****             case 9 :
 188:home_screen.c ****                 snprintf(buf, 10, "2V");
 1169              		.loc 6 188 0
 1170 0086 0E4B     		ldr	r3, .L70+4
 1171 0088 124A     		ldr	r2, .L70+24
 1172 008a 1268     		ldr	r2, [r2]
ARM GAS  C:\Users\tmj32\AppData\Local\Temp\ccoOIND8.s 			page 42


 1173 008c 1146     		mov	r1, r2	@ movhi
 1174 008e 1980     		strh	r1, [r3]	@ movhi
 1175 0090 0233     		adds	r3, r3, #2
 1176 0092 120C     		lsrs	r2, r2, #16
 1177 0094 1A70     		strb	r2, [r3]
 189:home_screen.c ****                 break;
 1178              		.loc 6 189 0
 1179 0096 05E0     		b	.L68
 1180              	.L61:
 190:home_screen.c ****             default:
 191:home_screen.c ****                 snprintf(buf, 10, "Hello World");
 1181              		.loc 6 191 0
 1182 0098 0F4A     		ldr	r2, .L70+28
 1183 009a 0A21     		movs	r1, #10
 1184 009c 0848     		ldr	r0, .L70+4
 1185 009e FFF7FEFF 		bl	snprintf
 192:home_screen.c ****                 break;
 1186              		.loc 6 192 0
 1187 00a2 00BF     		nop
 1188              	.L68:
 193:home_screen.c ****         }        
 194:home_screen.c ****         lv_label_set_text(horiLabel1, buf);
 1189              		.loc 6 194 0
 1190 00a4 0D4B     		ldr	r3, .L70+32
 1191 00a6 1B68     		ldr	r3, [r3]
 1192 00a8 0549     		ldr	r1, .L70+4
 1193 00aa 1846     		mov	r0, r3
 1194 00ac FFF7FEFF 		bl	lv_label_set_text
 195:home_screen.c ****         chart_actions();    //call to update the chart
 1195              		.loc 6 195 0
 1196 00b0 FFF7FEFF 		bl	chart_actions
 1197              	.L69:
 1198              	.LBE7:
 196:home_screen.c ****     }
 197:home_screen.c **** }
 1199              		.loc 6 197 0
 1200 00b4 00BF     		nop
 1201 00b6 0837     		adds	r7, r7, #8
 1202              		.cfi_def_cfa_offset 8
 1203 00b8 BD46     		mov	sp, r7
 1204              		.cfi_def_cfa_register 13
 1205              		@ sp needed
 1206 00ba 80BD     		pop	{r7, pc}
 1207              	.L71:
 1208              		.align	2
 1209              	.L70:
 1210 00bc 00000000 		.word	cm4
 1211 00c0 20000000 		.word	buf.20895
 1212 00c4 20000000 		.word	.LC4
 1213 00c8 28000000 		.word	.LC5
 1214 00cc 30000000 		.word	.LC6
 1215 00d0 38000000 		.word	.LC7
 1216 00d4 3C000000 		.word	.LC8
 1217 00d8 40000000 		.word	.LC9
 1218 00dc 08000000 		.word	horiLabel1
 1219              		.cfi_endproc
 1220              	.LFE723:
ARM GAS  C:\Users\tmj32\AppData\Local\Temp\ccoOIND8.s 			page 43


 1221              		.size	hori_slider_event_cb, .-hori_slider_event_cb
 1222              		.section	.text.verti_slider_event_cb,"ax",%progbits
 1223              		.align	2
 1224              		.thumb
 1225              		.thumb_func
 1226              		.type	verti_slider_event_cb, %function
 1227              	verti_slider_event_cb:
 1228              	.LFB724:
 198:home_screen.c **** static void verti_slider_event_cb(lv_obj_t * slider, lv_event_t event)
 199:home_screen.c **** {
 1229              		.loc 6 199 0
 1230              		.cfi_startproc
 1231              		@ args = 0, pretend = 0, frame = 8
 1232              		@ frame_needed = 1, uses_anonymous_args = 0
 1233 0000 80B5     		push	{r7, lr}
 1234              		.cfi_def_cfa_offset 8
 1235              		.cfi_offset 7, -8
 1236              		.cfi_offset 14, -4
 1237 0002 82B0     		sub	sp, sp, #8
 1238              		.cfi_def_cfa_offset 16
 1239 0004 00AF     		add	r7, sp, #0
 1240              		.cfi_def_cfa_register 7
 1241 0006 7860     		str	r0, [r7, #4]
 1242 0008 0B46     		mov	r3, r1
 1243 000a FB70     		strb	r3, [r7, #3]
 200:home_screen.c ****     if(event == (LV_EVENT_VALUE_CHANGED)) {
 1244              		.loc 6 200 0
 1245 000c FB78     		ldrb	r3, [r7, #3]	@ zero_extendqisi2
 1246 000e 0E2B     		cmp	r3, #14
 1247 0010 50D1     		bne	.L82
 1248              	.LBB8:
 201:home_screen.c ****         static char buf[10]; /* max 3 bytes for number plus 1 null terminating byte */
 202:home_screen.c ****         cm4.VertScale = lv_slider_get_value(slider);
 1249              		.loc 6 202 0
 1250 0012 7868     		ldr	r0, [r7, #4]
 1251 0014 FFF7FEFF 		bl	lv_slider_get_value
 1252 0018 0346     		mov	r3, r0
 1253 001a DAB2     		uxtb	r2, r3
 1254 001c 274B     		ldr	r3, .L83
 1255 001e 5A74     		strb	r2, [r3, #17]
 203:home_screen.c ****         switch(cm4.VertScale){
 1256              		.loc 6 203 0
 1257 0020 264B     		ldr	r3, .L83
 1258 0022 5B7C     		ldrb	r3, [r3, #17]	@ zero_extendqisi2
 1259 0024 033B     		subs	r3, r3, #3
 1260 0026 042B     		cmp	r3, #4
 1261 0028 36D8     		bhi	.L74
 1262 002a 01A2     		adr	r2, .L76
 1263 002c 52F823F0 		ldr	pc, [r2, r3, lsl #2]
 1264              		.p2align 2
 1265              	.L76:
 1266 0030 45000000 		.word	.L75+1
 1267 0034 55000000 		.word	.L77+1
 1268 0038 65000000 		.word	.L78+1
 1269 003c 75000000 		.word	.L79+1
 1270 0040 87000000 		.word	.L80+1
 1271              		.p2align 1
ARM GAS  C:\Users\tmj32\AppData\Local\Temp\ccoOIND8.s 			page 44


 1272              	.L75:
 204:home_screen.c ****             case 3 :
 205:home_screen.c ****                 snprintf(buf, 10, "100mV");
 1273              		.loc 6 205 0
 1274 0044 1E4B     		ldr	r3, .L83+4
 1275 0046 1F4A     		ldr	r2, .L83+8
 1276 0048 92E80300 		ldmia	r2, {r0, r1}
 1277 004c 1860     		str	r0, [r3]
 1278 004e 0433     		adds	r3, r3, #4
 1279 0050 1980     		strh	r1, [r3]	@ movhi
 206:home_screen.c ****                 break;
 1280              		.loc 6 206 0
 1281 0052 27E0     		b	.L81
 1282              	.L77:
 207:home_screen.c ****             case 4 :
 208:home_screen.c ****                 snprintf(buf, 10, "200mV");
 1283              		.loc 6 208 0
 1284 0054 1A4B     		ldr	r3, .L83+4
 1285 0056 1C4A     		ldr	r2, .L83+12
 1286 0058 92E80300 		ldmia	r2, {r0, r1}
 1287 005c 1860     		str	r0, [r3]
 1288 005e 0433     		adds	r3, r3, #4
 1289 0060 1980     		strh	r1, [r3]	@ movhi
 209:home_screen.c ****                 break;
 1290              		.loc 6 209 0
 1291 0062 1FE0     		b	.L81
 1292              	.L78:
 210:home_screen.c ****             case 5 :
 211:home_screen.c ****                 snprintf(buf, 10, "500mV");
 1293              		.loc 6 211 0
 1294 0064 164B     		ldr	r3, .L83+4
 1295 0066 194A     		ldr	r2, .L83+16
 1296 0068 92E80300 		ldmia	r2, {r0, r1}
 1297 006c 1860     		str	r0, [r3]
 1298 006e 0433     		adds	r3, r3, #4
 1299 0070 1980     		strh	r1, [r3]	@ movhi
 212:home_screen.c ****                 break;
 1300              		.loc 6 212 0
 1301 0072 17E0     		b	.L81
 1302              	.L79:
 213:home_screen.c ****             case 6 :
 214:home_screen.c ****                 snprintf(buf, 10, "1V");
 1303              		.loc 6 214 0
 1304 0074 124B     		ldr	r3, .L83+4
 1305 0076 164A     		ldr	r2, .L83+20
 1306 0078 1268     		ldr	r2, [r2]
 1307 007a 1146     		mov	r1, r2	@ movhi
 1308 007c 1980     		strh	r1, [r3]	@ movhi
 1309 007e 0233     		adds	r3, r3, #2
 1310 0080 120C     		lsrs	r2, r2, #16
 1311 0082 1A70     		strb	r2, [r3]
 215:home_screen.c ****                 break;
 1312              		.loc 6 215 0
 1313 0084 0EE0     		b	.L81
 1314              	.L80:
 216:home_screen.c ****             case 7 :
 217:home_screen.c ****                 snprintf(buf, 10, "2V");
ARM GAS  C:\Users\tmj32\AppData\Local\Temp\ccoOIND8.s 			page 45


 1315              		.loc 6 217 0
 1316 0086 0E4B     		ldr	r3, .L83+4
 1317 0088 124A     		ldr	r2, .L83+24
 1318 008a 1268     		ldr	r2, [r2]
 1319 008c 1146     		mov	r1, r2	@ movhi
 1320 008e 1980     		strh	r1, [r3]	@ movhi
 1321 0090 0233     		adds	r3, r3, #2
 1322 0092 120C     		lsrs	r2, r2, #16
 1323 0094 1A70     		strb	r2, [r3]
 218:home_screen.c ****                 break;
 1324              		.loc 6 218 0
 1325 0096 05E0     		b	.L81
 1326              	.L74:
 219:home_screen.c ****             default:
 220:home_screen.c ****                 snprintf(buf, 10, "Hello World");
 1327              		.loc 6 220 0
 1328 0098 0F4A     		ldr	r2, .L83+28
 1329 009a 0A21     		movs	r1, #10
 1330 009c 0848     		ldr	r0, .L83+4
 1331 009e FFF7FEFF 		bl	snprintf
 221:home_screen.c ****                 break;
 1332              		.loc 6 221 0
 1333 00a2 00BF     		nop
 1334              	.L81:
 222:home_screen.c ****         }
 223:home_screen.c ****         lv_label_set_text(vertLabel1, buf);
 1335              		.loc 6 223 0
 1336 00a4 0D4B     		ldr	r3, .L83+32
 1337 00a6 1B68     		ldr	r3, [r3]
 1338 00a8 0549     		ldr	r1, .L83+4
 1339 00aa 1846     		mov	r0, r3
 1340 00ac FFF7FEFF 		bl	lv_label_set_text
 224:home_screen.c ****         chart_actions();    //call to update the chart
 1341              		.loc 6 224 0
 1342 00b0 FFF7FEFF 		bl	chart_actions
 1343              	.L82:
 1344              	.LBE8:
 225:home_screen.c ****     }
 226:home_screen.c **** }
 1345              		.loc 6 226 0
 1346 00b4 00BF     		nop
 1347 00b6 0837     		adds	r7, r7, #8
 1348              		.cfi_def_cfa_offset 8
 1349 00b8 BD46     		mov	sp, r7
 1350              		.cfi_def_cfa_register 13
 1351              		@ sp needed
 1352 00ba 80BD     		pop	{r7, pc}
 1353              	.L84:
 1354              		.align	2
 1355              	.L83:
 1356 00bc 00000000 		.word	cm4
 1357 00c0 2C000000 		.word	buf.20907
 1358 00c4 20000000 		.word	.LC4
 1359 00c8 28000000 		.word	.LC5
 1360 00cc 30000000 		.word	.LC6
 1361 00d0 38000000 		.word	.LC7
 1362 00d4 3C000000 		.word	.LC8
ARM GAS  C:\Users\tmj32\AppData\Local\Temp\ccoOIND8.s 			page 46


 1363 00d8 40000000 		.word	.LC9
 1364 00dc 0C000000 		.word	vertLabel1
 1365              		.cfi_endproc
 1366              	.LFE724:
 1367              		.size	verti_slider_event_cb, .-verti_slider_event_cb
 1368              		.section	.text.window_slider_event_cb,"ax",%progbits
 1369              		.align	2
 1370              		.thumb
 1371              		.thumb_func
 1372              		.type	window_slider_event_cb, %function
 1373              	window_slider_event_cb:
 1374              	.LFB725:
 227:home_screen.c **** static void window_slider_event_cb(lv_obj_t * slider, lv_event_t event)
 228:home_screen.c **** {
 1375              		.loc 6 228 0
 1376              		.cfi_startproc
 1377              		@ args = 0, pretend = 0, frame = 8
 1378              		@ frame_needed = 1, uses_anonymous_args = 0
 1379 0000 80B5     		push	{r7, lr}
 1380              		.cfi_def_cfa_offset 8
 1381              		.cfi_offset 7, -8
 1382              		.cfi_offset 14, -4
 1383 0002 82B0     		sub	sp, sp, #8
 1384              		.cfi_def_cfa_offset 16
 1385 0004 00AF     		add	r7, sp, #0
 1386              		.cfi_def_cfa_register 7
 1387 0006 7860     		str	r0, [r7, #4]
 1388 0008 0B46     		mov	r3, r1
 1389 000a FB70     		strb	r3, [r7, #3]
 229:home_screen.c ****     if(event == (LV_EVENT_VALUE_CHANGED)) {
 1390              		.loc 6 229 0
 1391 000c FB78     		ldrb	r3, [r7, #3]	@ zero_extendqisi2
 1392 000e 0E2B     		cmp	r3, #14
 1393 0010 08D1     		bne	.L87
 230:home_screen.c ****         //static char buf[6]; /* max 3 bytes for number plus 1 null terminating byte */
 231:home_screen.c ****         //snprintf(buf, 6, "%u", lv_slider_get_value(slider));
 232:home_screen.c ****         //lv_label_set_text(windowLabel, buf);
 233:home_screen.c ****         cm4.windowPos = lv_slider_get_value(slider);
 1394              		.loc 6 233 0
 1395 0012 7868     		ldr	r0, [r7, #4]
 1396 0014 FFF7FEFF 		bl	lv_slider_get_value
 1397 0018 0346     		mov	r3, r0
 1398 001a 1A46     		mov	r2, r3
 1399 001c 034B     		ldr	r3, .L88
 1400 001e DA60     		str	r2, [r3, #12]
 234:home_screen.c ****         chart_actions();    //call to update the chart
 1401              		.loc 6 234 0
 1402 0020 FFF7FEFF 		bl	chart_actions
 1403              	.L87:
 235:home_screen.c ****     }
 236:home_screen.c **** }
 1404              		.loc 6 236 0
 1405 0024 00BF     		nop
 1406 0026 0837     		adds	r7, r7, #8
 1407              		.cfi_def_cfa_offset 8
 1408 0028 BD46     		mov	sp, r7
 1409              		.cfi_def_cfa_register 13
ARM GAS  C:\Users\tmj32\AppData\Local\Temp\ccoOIND8.s 			page 47


 1410              		@ sp needed
 1411 002a 80BD     		pop	{r7, pc}
 1412              	.L89:
 1413              		.align	2
 1414              	.L88:
 1415 002c 00000000 		.word	cm4
 1416              		.cfi_endproc
 1417              	.LFE725:
 1418              		.size	window_slider_event_cb, .-window_slider_event_cb
 1419              		.section	.rodata
 1420              		.align	2
 1421              	.LC10:
 1422 004c 3000     		.ascii	"0\000"
 1423 004e 0000     		.align	2
 1424              	.LC11:
 1425 0050 4F666673 		.ascii	"Offset:\000"
 1425      65743A00 
 1426              		.align	2
 1427              	.LC12:
 1428 0058 31343530 		.ascii	"1450mV\000"
 1428      6D5600
 1429 005f 00       		.align	2
 1430              	.LC13:
 1431 0060 54726967 		.ascii	"Trigger: \000"
 1431      6765723A 
 1431      2000
 1432 006a 0000     		.align	2
 1433              	.LC14:
 1434 006c 48205363 		.ascii	"H Scale: \000"
 1434      616C653A 
 1434      2000
 1435 0076 0000     		.align	2
 1436              	.LC15:
 1437 0078 56205363 		.ascii	"V Scale: \000"
 1437      616C653A 
 1437      2000
 1438 0082 0000     		.align	2
 1439              	.LC16:
 1440 0084 4F6E5C4F 		.ascii	"On\\Off\000"
 1440      666600
 1441 008b 00       		.align	2
 1442              	.LC17:
 1443 008c 52697369 		.ascii	"Rising\012Falling\012Threshold\000"
 1443      6E670A46 
 1443      616C6C69 
 1443      6E670A54 
 1443      68726573 
 1444 00a5 000000   		.align	2
 1445              	.LC18:
 1446 00a8 53696E67 		.ascii	"Single\012Auto\012Normal\000"
 1446      6C650A41 
 1446      75746F0A 
 1446      4E6F726D 
 1446      616C00
 1447              		.section	.text.home_screen,"ax",%progbits
 1448              		.align	2
 1449              		.global	home_screen
ARM GAS  C:\Users\tmj32\AppData\Local\Temp\ccoOIND8.s 			page 48


 1450              		.thumb
 1451              		.thumb_func
 1452              		.type	home_screen, %function
 1453              	home_screen:
 1454              	.LFB726:
 237:home_screen.c **** 
 238:home_screen.c **** void home_screen()
 239:home_screen.c **** {   
 1455              		.loc 6 239 0
 1456              		.cfi_startproc
 1457              		@ args = 0, pretend = 0, frame = 56
 1458              		@ frame_needed = 1, uses_anonymous_args = 0
 1459 0000 80B5     		push	{r7, lr}
 1460              		.cfi_def_cfa_offset 8
 1461              		.cfi_offset 7, -8
 1462              		.cfi_offset 14, -4
 1463 0002 90B0     		sub	sp, sp, #64
 1464              		.cfi_def_cfa_offset 72
 1465 0004 02AF     		add	r7, sp, #8
 1466              		.cfi_def_cfa 7, 64
 240:home_screen.c ****     /* First Slider: Offset */
 241:home_screen.c ****     lv_obj_t * offsetSlider = lv_slider_create(lv_scr_act(), NULL);
 1467              		.loc 6 241 0
 1468 0006 FFF7FEFF 		bl	lv_scr_act
 1469 000a 0346     		mov	r3, r0
 1470 000c 0021     		movs	r1, #0
 1471 000e 1846     		mov	r0, r3
 1472 0010 FFF7FEFF 		bl	lv_slider_create
 1473 0014 7863     		str	r0, [r7, #52]
 242:home_screen.c ****     lv_obj_set_pos(offsetSlider, 20, 290);                         /*Set its position*/
 1474              		.loc 6 242 0
 1475 0016 4FF49172 		mov	r2, #290
 1476 001a 1421     		movs	r1, #20
 1477 001c 786B     		ldr	r0, [r7, #52]
 1478 001e FFF7FEFF 		bl	lv_obj_set_pos
 243:home_screen.c ****     lv_obj_set_size(offsetSlider, 130, 30);                        /*Set its size*/
 1479              		.loc 6 243 0
 1480 0022 1E22     		movs	r2, #30
 1481 0024 8221     		movs	r1, #130
 1482 0026 786B     		ldr	r0, [r7, #52]
 1483 0028 FFF7FEFF 		bl	lv_obj_set_size
 244:home_screen.c ****     lv_slider_set_value(offsetSlider, 0, LV_ANIM_ON);
 1484              		.loc 6 244 0
 1485 002c 0122     		movs	r2, #1
 1486 002e 0021     		movs	r1, #0
 1487 0030 786B     		ldr	r0, [r7, #52]
 1488 0032 FFF7FEFF 		bl	lv_slider_set_value
 245:home_screen.c ****     lv_obj_set_event_cb(offsetSlider, offset_slider_event_cb);
 1489              		.loc 6 245 0
 1490 0036 C749     		ldr	r1, .L91
 1491 0038 786B     		ldr	r0, [r7, #52]
 1492 003a FFF7FEFF 		bl	lv_obj_set_event_cb
 246:home_screen.c ****     lv_slider_set_range(offsetSlider, 0, 100);
 1493              		.loc 6 246 0
 1494 003e 6422     		movs	r2, #100
 1495 0040 0021     		movs	r1, #0
 1496 0042 786B     		ldr	r0, [r7, #52]
ARM GAS  C:\Users\tmj32\AppData\Local\Temp\ccoOIND8.s 			page 49


 1497 0044 FFF7FEFF 		bl	lv_slider_set_range
 247:home_screen.c **** 
 248:home_screen.c ****             /* Create a label below the slider */
 249:home_screen.c ****             offsetLabel = lv_label_create(lv_scr_act(), NULL);
 1498              		.loc 6 249 0
 1499 0048 FFF7FEFF 		bl	lv_scr_act
 1500 004c 0346     		mov	r3, r0
 1501 004e 0021     		movs	r1, #0
 1502 0050 1846     		mov	r0, r3
 1503 0052 FFF7FEFF 		bl	lv_label_create
 1504 0056 0246     		mov	r2, r0
 1505 0058 BF4B     		ldr	r3, .L91+4
 1506 005a 1A60     		str	r2, [r3]
 250:home_screen.c ****             lv_label_set_text(offsetLabel, "0");
 1507              		.loc 6 250 0
 1508 005c BE4B     		ldr	r3, .L91+4
 1509 005e 1B68     		ldr	r3, [r3]
 1510 0060 BE49     		ldr	r1, .L91+8
 1511 0062 1846     		mov	r0, r3
 1512 0064 FFF7FEFF 		bl	lv_label_set_text
 251:home_screen.c ****             lv_obj_set_auto_realign(offsetLabel, true);
 1513              		.loc 6 251 0
 1514 0068 BB4B     		ldr	r3, .L91+4
 1515 006a 1B68     		ldr	r3, [r3]
 1516 006c 0121     		movs	r1, #1
 1517 006e 1846     		mov	r0, r3
 1518 0070 FFF7FEFF 		bl	lv_obj_set_auto_realign
 252:home_screen.c ****             lv_obj_align(offsetLabel, offsetSlider, LV_ALIGN_OUT_TOP_MID, 0, 0);
 1519              		.loc 6 252 0
 1520 0074 B84B     		ldr	r3, .L91+4
 1521 0076 1868     		ldr	r0, [r3]
 1522 0078 0023     		movs	r3, #0
 1523 007a 0093     		str	r3, [sp]
 1524 007c 0023     		movs	r3, #0
 1525 007e 0A22     		movs	r2, #10
 1526 0080 796B     		ldr	r1, [r7, #52]
 1527 0082 FFF7FEFF 		bl	lv_obj_align
 253:home_screen.c ****         
 254:home_screen.c ****             /* Create a label above the slider */
 255:home_screen.c ****         	lv_obj_t* offsetLabel2 = lv_label_create(lv_scr_act(), NULL);
 1528              		.loc 6 255 0
 1529 0086 FFF7FEFF 		bl	lv_scr_act
 1530 008a 0346     		mov	r3, r0
 1531 008c 0021     		movs	r1, #0
 1532 008e 1846     		mov	r0, r3
 1533 0090 FFF7FEFF 		bl	lv_label_create
 1534 0094 3863     		str	r0, [r7, #48]
 256:home_screen.c ****         	lv_obj_set_drag(offsetLabel2, false);
 1535              		.loc 6 256 0
 1536 0096 0021     		movs	r1, #0
 1537 0098 386B     		ldr	r0, [r7, #48]
 1538 009a FFF7FEFF 		bl	lv_obj_set_drag
 257:home_screen.c ****             lv_label_set_text(offsetLabel2, "Offset:");
 1539              		.loc 6 257 0
 1540 009e B049     		ldr	r1, .L91+12
 1541 00a0 386B     		ldr	r0, [r7, #48]
 1542 00a2 FFF7FEFF 		bl	lv_label_set_text
ARM GAS  C:\Users\tmj32\AppData\Local\Temp\ccoOIND8.s 			page 50


 258:home_screen.c ****             lv_label_set_long_mode(offsetLabel2, LV_LABEL_LONG_EXPAND);
 1543              		.loc 6 258 0
 1544 00a6 0021     		movs	r1, #0
 1545 00a8 386B     		ldr	r0, [r7, #48]
 1546 00aa FFF7FEFF 		bl	lv_label_set_long_mode
 259:home_screen.c ****             lv_obj_align(offsetLabel2, offsetSlider, LV_ALIGN_OUT_TOP_LEFT, 0, 0);                 
 1547              		.loc 6 259 0
 1548 00ae 0023     		movs	r3, #0
 1549 00b0 0093     		str	r3, [sp]
 1550 00b2 0023     		movs	r3, #0
 1551 00b4 0922     		movs	r2, #9
 1552 00b6 796B     		ldr	r1, [r7, #52]
 1553 00b8 386B     		ldr	r0, [r7, #48]
 1554 00ba FFF7FEFF 		bl	lv_obj_align
 260:home_screen.c ****     
 261:home_screen.c ****             
 262:home_screen.c ****             
 263:home_screen.c ****     /* Second Slider: Trigger */
 264:home_screen.c ****     lv_obj_t * triggerSlider = lv_slider_create(lv_scr_act(), NULL);
 1555              		.loc 6 264 0
 1556 00be FFF7FEFF 		bl	lv_scr_act
 1557 00c2 0346     		mov	r3, r0
 1558 00c4 0021     		movs	r1, #0
 1559 00c6 1846     		mov	r0, r3
 1560 00c8 FFF7FEFF 		bl	lv_slider_create
 1561 00cc F862     		str	r0, [r7, #44]
 265:home_screen.c ****     lv_obj_set_pos(triggerSlider, 170, 290);                         /*Set its position*/
 1562              		.loc 6 265 0
 1563 00ce 4FF49172 		mov	r2, #290
 1564 00d2 AA21     		movs	r1, #170
 1565 00d4 F86A     		ldr	r0, [r7, #44]
 1566 00d6 FFF7FEFF 		bl	lv_obj_set_pos
 266:home_screen.c ****     lv_obj_set_size(triggerSlider, 130, 30);                        /*Set its size*/
 1567              		.loc 6 266 0
 1568 00da 1E22     		movs	r2, #30
 1569 00dc 8221     		movs	r1, #130
 1570 00de F86A     		ldr	r0, [r7, #44]
 1571 00e0 FFF7FEFF 		bl	lv_obj_set_size
 267:home_screen.c ****     lv_obj_set_event_cb(triggerSlider, trigger_slider_event_cb);
 1572              		.loc 6 267 0
 1573 00e4 9F49     		ldr	r1, .L91+16
 1574 00e6 F86A     		ldr	r0, [r7, #44]
 1575 00e8 FFF7FEFF 		bl	lv_obj_set_event_cb
 268:home_screen.c ****     lv_slider_set_range(triggerSlider, 375, 625);
 1576              		.loc 6 268 0
 1577 00ec 40F27122 		movw	r2, #625
 1578 00f0 40F27711 		movw	r1, #375
 1579 00f4 F86A     		ldr	r0, [r7, #44]
 1580 00f6 FFF7FEFF 		bl	lv_slider_set_range
 269:home_screen.c ****     lv_slider_set_value(triggerSlider, 500, LV_ANIM_ON);
 1581              		.loc 6 269 0
 1582 00fa 0122     		movs	r2, #1
 1583 00fc 4FF4FA71 		mov	r1, #500
 1584 0100 F86A     		ldr	r0, [r7, #44]
 1585 0102 FFF7FEFF 		bl	lv_slider_set_value
 270:home_screen.c ****             
 271:home_screen.c ****             /* Create a label below the slider */
ARM GAS  C:\Users\tmj32\AppData\Local\Temp\ccoOIND8.s 			page 51


 272:home_screen.c ****             triggerLabel = lv_label_create(lv_scr_act(), NULL);
 1586              		.loc 6 272 0
 1587 0106 FFF7FEFF 		bl	lv_scr_act
 1588 010a 0346     		mov	r3, r0
 1589 010c 0021     		movs	r1, #0
 1590 010e 1846     		mov	r0, r3
 1591 0110 FFF7FEFF 		bl	lv_label_create
 1592 0114 0246     		mov	r2, r0
 1593 0116 944B     		ldr	r3, .L91+20
 1594 0118 1A60     		str	r2, [r3]
 273:home_screen.c ****             lv_label_set_text(triggerLabel, "1450mV");
 1595              		.loc 6 273 0
 1596 011a 934B     		ldr	r3, .L91+20
 1597 011c 1B68     		ldr	r3, [r3]
 1598 011e 9349     		ldr	r1, .L91+24
 1599 0120 1846     		mov	r0, r3
 1600 0122 FFF7FEFF 		bl	lv_label_set_text
 274:home_screen.c ****             lv_obj_set_auto_realign(triggerLabel, true);
 1601              		.loc 6 274 0
 1602 0126 904B     		ldr	r3, .L91+20
 1603 0128 1B68     		ldr	r3, [r3]
 1604 012a 0121     		movs	r1, #1
 1605 012c 1846     		mov	r0, r3
 1606 012e FFF7FEFF 		bl	lv_obj_set_auto_realign
 275:home_screen.c ****             lv_obj_align(triggerLabel, triggerSlider, LV_ALIGN_OUT_TOP_RIGHT, 0, 0);
 1607              		.loc 6 275 0
 1608 0132 8D4B     		ldr	r3, .L91+20
 1609 0134 1868     		ldr	r0, [r3]
 1610 0136 0023     		movs	r3, #0
 1611 0138 0093     		str	r3, [sp]
 1612 013a 0023     		movs	r3, #0
 1613 013c 0B22     		movs	r2, #11
 1614 013e F96A     		ldr	r1, [r7, #44]
 1615 0140 FFF7FEFF 		bl	lv_obj_align
 276:home_screen.c ****             
 277:home_screen.c ****             /* Create a label above the slider */
 278:home_screen.c ****         	lv_obj_t* triggerLabel2 = lv_label_create(lv_scr_act(), NULL);
 1616              		.loc 6 278 0
 1617 0144 FFF7FEFF 		bl	lv_scr_act
 1618 0148 0346     		mov	r3, r0
 1619 014a 0021     		movs	r1, #0
 1620 014c 1846     		mov	r0, r3
 1621 014e FFF7FEFF 		bl	lv_label_create
 1622 0152 B862     		str	r0, [r7, #40]
 279:home_screen.c ****         	lv_obj_set_drag(triggerLabel2, false);
 1623              		.loc 6 279 0
 1624 0154 0021     		movs	r1, #0
 1625 0156 B86A     		ldr	r0, [r7, #40]
 1626 0158 FFF7FEFF 		bl	lv_obj_set_drag
 280:home_screen.c ****             lv_label_set_text(triggerLabel2, "Trigger: ");
 1627              		.loc 6 280 0
 1628 015c 8449     		ldr	r1, .L91+28
 1629 015e B86A     		ldr	r0, [r7, #40]
 1630 0160 FFF7FEFF 		bl	lv_label_set_text
 281:home_screen.c ****             lv_obj_align(triggerLabel2, triggerSlider, LV_ALIGN_OUT_TOP_LEFT, 0, 0); 
 1631              		.loc 6 281 0
 1632 0164 0023     		movs	r3, #0
ARM GAS  C:\Users\tmj32\AppData\Local\Temp\ccoOIND8.s 			page 52


 1633 0166 0093     		str	r3, [sp]
 1634 0168 0023     		movs	r3, #0
 1635 016a 0922     		movs	r2, #9
 1636 016c F96A     		ldr	r1, [r7, #44]
 1637 016e B86A     		ldr	r0, [r7, #40]
 1638 0170 FFF7FEFF 		bl	lv_obj_align
 282:home_screen.c **** 
 283:home_screen.c ****     
 284:home_screen.c ****             
 285:home_screen.c ****     /* Third Slider: Hori. Scale */
 286:home_screen.c ****     lv_obj_t * horiSlider = lv_slider_create(lv_scr_act(), NULL);
 1639              		.loc 6 286 0
 1640 0174 FFF7FEFF 		bl	lv_scr_act
 1641 0178 0346     		mov	r3, r0
 1642 017a 0021     		movs	r1, #0
 1643 017c 1846     		mov	r0, r3
 1644 017e FFF7FEFF 		bl	lv_slider_create
 1645 0182 7862     		str	r0, [r7, #36]
 287:home_screen.c ****     lv_obj_set_pos(horiSlider, 20, 365);                         /*Set its position*/
 1646              		.loc 6 287 0
 1647 0184 40F26D12 		movw	r2, #365
 1648 0188 1421     		movs	r1, #20
 1649 018a 786A     		ldr	r0, [r7, #36]
 1650 018c FFF7FEFF 		bl	lv_obj_set_pos
 288:home_screen.c ****     lv_obj_set_size(horiSlider, 130, 30);                        /*Set its size*/
 1651              		.loc 6 288 0
 1652 0190 1E22     		movs	r2, #30
 1653 0192 8221     		movs	r1, #130
 1654 0194 786A     		ldr	r0, [r7, #36]
 1655 0196 FFF7FEFF 		bl	lv_obj_set_size
 289:home_screen.c ****     lv_slider_set_value(horiSlider, 7, LV_ANIM_ON);
 1656              		.loc 6 289 0
 1657 019a 0122     		movs	r2, #1
 1658 019c 0721     		movs	r1, #7
 1659 019e 786A     		ldr	r0, [r7, #36]
 1660 01a0 FFF7FEFF 		bl	lv_slider_set_value
 290:home_screen.c ****     lv_obj_set_event_cb(horiSlider, hori_slider_event_cb);
 1661              		.loc 6 290 0
 1662 01a4 7349     		ldr	r1, .L91+32
 1663 01a6 786A     		ldr	r0, [r7, #36]
 1664 01a8 FFF7FEFF 		bl	lv_obj_set_event_cb
 291:home_screen.c ****     lv_slider_set_range(horiSlider, 5, 9);                      // 11 options for the 11 different 
 1665              		.loc 6 291 0
 1666 01ac 0922     		movs	r2, #9
 1667 01ae 0521     		movs	r1, #5
 1668 01b0 786A     		ldr	r0, [r7, #36]
 1669 01b2 FFF7FEFF 		bl	lv_slider_set_range
 292:home_screen.c ****     
 293:home_screen.c ****             /* Create a label below the slider */
 294:home_screen.c ****             horiLabel1 = lv_label_create(lv_scr_act(), NULL);
 1670              		.loc 6 294 0
 1671 01b6 FFF7FEFF 		bl	lv_scr_act
 1672 01ba 0346     		mov	r3, r0
 1673 01bc 0021     		movs	r1, #0
 1674 01be 1846     		mov	r0, r3
 1675 01c0 FFF7FEFF 		bl	lv_label_create
 1676 01c4 0246     		mov	r2, r0
ARM GAS  C:\Users\tmj32\AppData\Local\Temp\ccoOIND8.s 			page 53


 1677 01c6 6C4B     		ldr	r3, .L91+36
 1678 01c8 1A60     		str	r2, [r3]
 295:home_screen.c ****             lv_label_set_text(horiLabel1, "500mV");
 1679              		.loc 6 295 0
 1680 01ca 6B4B     		ldr	r3, .L91+36
 1681 01cc 1B68     		ldr	r3, [r3]
 1682 01ce 6B49     		ldr	r1, .L91+40
 1683 01d0 1846     		mov	r0, r3
 1684 01d2 FFF7FEFF 		bl	lv_label_set_text
 296:home_screen.c ****             lv_obj_set_auto_realign(horiLabel1, true);
 1685              		.loc 6 296 0
 1686 01d6 684B     		ldr	r3, .L91+36
 1687 01d8 1B68     		ldr	r3, [r3]
 1688 01da 0121     		movs	r1, #1
 1689 01dc 1846     		mov	r0, r3
 1690 01de FFF7FEFF 		bl	lv_obj_set_auto_realign
 297:home_screen.c ****             lv_obj_align(horiLabel1, horiSlider, LV_ALIGN_OUT_TOP_RIGHT, 0, 0);
 1691              		.loc 6 297 0
 1692 01e2 654B     		ldr	r3, .L91+36
 1693 01e4 1868     		ldr	r0, [r3]
 1694 01e6 0023     		movs	r3, #0
 1695 01e8 0093     		str	r3, [sp]
 1696 01ea 0023     		movs	r3, #0
 1697 01ec 0B22     		movs	r2, #11
 1698 01ee 796A     		ldr	r1, [r7, #36]
 1699 01f0 FFF7FEFF 		bl	lv_obj_align
 298:home_screen.c ****             
 299:home_screen.c ****             /* Create a label above the slider */
 300:home_screen.c ****         	lv_obj_t* horiLabel2 = lv_label_create(lv_scr_act(), NULL);
 1700              		.loc 6 300 0
 1701 01f4 FFF7FEFF 		bl	lv_scr_act
 1702 01f8 0346     		mov	r3, r0
 1703 01fa 0021     		movs	r1, #0
 1704 01fc 1846     		mov	r0, r3
 1705 01fe FFF7FEFF 		bl	lv_label_create
 1706 0202 3862     		str	r0, [r7, #32]
 301:home_screen.c ****         	lv_obj_set_drag(horiLabel2, false);
 1707              		.loc 6 301 0
 1708 0204 0021     		movs	r1, #0
 1709 0206 386A     		ldr	r0, [r7, #32]
 1710 0208 FFF7FEFF 		bl	lv_obj_set_drag
 302:home_screen.c ****             lv_label_set_text(horiLabel2, "H Scale: ");
 1711              		.loc 6 302 0
 1712 020c 5C49     		ldr	r1, .L91+44
 1713 020e 386A     		ldr	r0, [r7, #32]
 1714 0210 FFF7FEFF 		bl	lv_label_set_text
 303:home_screen.c ****             lv_obj_align(horiLabel2, horiSlider, LV_ALIGN_OUT_TOP_LEFT, 0, 0);
 1715              		.loc 6 303 0
 1716 0214 0023     		movs	r3, #0
 1717 0216 0093     		str	r3, [sp]
 1718 0218 0023     		movs	r3, #0
 1719 021a 0922     		movs	r2, #9
 1720 021c 796A     		ldr	r1, [r7, #36]
 1721 021e 386A     		ldr	r0, [r7, #32]
 1722 0220 FFF7FEFF 		bl	lv_obj_align
 304:home_screen.c ****     
 305:home_screen.c ****             
ARM GAS  C:\Users\tmj32\AppData\Local\Temp\ccoOIND8.s 			page 54


 306:home_screen.c ****             
 307:home_screen.c ****     /* Fourth Slider: Vert. Scale */
 308:home_screen.c ****     lv_obj_t * vertSlider = lv_slider_create(lv_scr_act(), NULL);
 1723              		.loc 6 308 0
 1724 0224 FFF7FEFF 		bl	lv_scr_act
 1725 0228 0346     		mov	r3, r0
 1726 022a 0021     		movs	r1, #0
 1727 022c 1846     		mov	r0, r3
 1728 022e FFF7FEFF 		bl	lv_slider_create
 1729 0232 F861     		str	r0, [r7, #28]
 309:home_screen.c ****     lv_obj_set_pos(vertSlider, 170, 365);                         /*Set its position*/
 1730              		.loc 6 309 0
 1731 0234 40F26D12 		movw	r2, #365
 1732 0238 AA21     		movs	r1, #170
 1733 023a F869     		ldr	r0, [r7, #28]
 1734 023c FFF7FEFF 		bl	lv_obj_set_pos
 310:home_screen.c ****     lv_obj_set_size(vertSlider, 130, 30);                        /*Set its size*/
 1735              		.loc 6 310 0
 1736 0240 1E22     		movs	r2, #30
 1737 0242 8221     		movs	r1, #130
 1738 0244 F869     		ldr	r0, [r7, #28]
 1739 0246 FFF7FEFF 		bl	lv_obj_set_size
 311:home_screen.c ****     lv_slider_set_value(vertSlider, 5, LV_ANIM_ON);
 1740              		.loc 6 311 0
 1741 024a 0122     		movs	r2, #1
 1742 024c 0521     		movs	r1, #5
 1743 024e F869     		ldr	r0, [r7, #28]
 1744 0250 FFF7FEFF 		bl	lv_slider_set_value
 312:home_screen.c ****     lv_obj_set_event_cb(vertSlider, verti_slider_event_cb);
 1745              		.loc 6 312 0
 1746 0254 4B49     		ldr	r1, .L91+48
 1747 0256 F869     		ldr	r0, [r7, #28]
 1748 0258 FFF7FEFF 		bl	lv_obj_set_event_cb
 313:home_screen.c ****     lv_slider_set_range(vertSlider, 3, 7);
 1749              		.loc 6 313 0
 1750 025c 0722     		movs	r2, #7
 1751 025e 0321     		movs	r1, #3
 1752 0260 F869     		ldr	r0, [r7, #28]
 1753 0262 FFF7FEFF 		bl	lv_slider_set_range
 314:home_screen.c **** 
 315:home_screen.c ****             /* Create a label below the slider */
 316:home_screen.c ****             vertLabel1 = lv_label_create(lv_scr_act(), NULL);
 1754              		.loc 6 316 0
 1755 0266 FFF7FEFF 		bl	lv_scr_act
 1756 026a 0346     		mov	r3, r0
 1757 026c 0021     		movs	r1, #0
 1758 026e 1846     		mov	r0, r3
 1759 0270 FFF7FEFF 		bl	lv_label_create
 1760 0274 0246     		mov	r2, r0
 1761 0276 444B     		ldr	r3, .L91+52
 1762 0278 1A60     		str	r2, [r3]
 317:home_screen.c ****             lv_label_set_text(vertLabel1, "500mV");
 1763              		.loc 6 317 0
 1764 027a 434B     		ldr	r3, .L91+52
 1765 027c 1B68     		ldr	r3, [r3]
 1766 027e 3F49     		ldr	r1, .L91+40
 1767 0280 1846     		mov	r0, r3
ARM GAS  C:\Users\tmj32\AppData\Local\Temp\ccoOIND8.s 			page 55


 1768 0282 FFF7FEFF 		bl	lv_label_set_text
 318:home_screen.c ****             lv_obj_set_auto_realign(vertLabel1, true);
 1769              		.loc 6 318 0
 1770 0286 404B     		ldr	r3, .L91+52
 1771 0288 1B68     		ldr	r3, [r3]
 1772 028a 0121     		movs	r1, #1
 1773 028c 1846     		mov	r0, r3
 1774 028e FFF7FEFF 		bl	lv_obj_set_auto_realign
 319:home_screen.c ****             lv_obj_align(vertLabel1, vertSlider, LV_ALIGN_OUT_TOP_RIGHT, 0, 0);
 1775              		.loc 6 319 0
 1776 0292 3D4B     		ldr	r3, .L91+52
 1777 0294 1868     		ldr	r0, [r3]
 1778 0296 0023     		movs	r3, #0
 1779 0298 0093     		str	r3, [sp]
 1780 029a 0023     		movs	r3, #0
 1781 029c 0B22     		movs	r2, #11
 1782 029e F969     		ldr	r1, [r7, #28]
 1783 02a0 FFF7FEFF 		bl	lv_obj_align
 320:home_screen.c ****             
 321:home_screen.c ****             /* Create a label above the slider */
 322:home_screen.c ****         	lv_obj_t* vertLabel2 = lv_label_create(lv_scr_act(), NULL);
 1784              		.loc 6 322 0
 1785 02a4 FFF7FEFF 		bl	lv_scr_act
 1786 02a8 0346     		mov	r3, r0
 1787 02aa 0021     		movs	r1, #0
 1788 02ac 1846     		mov	r0, r3
 1789 02ae FFF7FEFF 		bl	lv_label_create
 1790 02b2 B861     		str	r0, [r7, #24]
 323:home_screen.c ****         	lv_obj_set_drag(vertLabel2, false);
 1791              		.loc 6 323 0
 1792 02b4 0021     		movs	r1, #0
 1793 02b6 B869     		ldr	r0, [r7, #24]
 1794 02b8 FFF7FEFF 		bl	lv_obj_set_drag
 324:home_screen.c ****             lv_label_set_text(vertLabel2, "V Scale: ");
 1795              		.loc 6 324 0
 1796 02bc 3349     		ldr	r1, .L91+56
 1797 02be B869     		ldr	r0, [r7, #24]
 1798 02c0 FFF7FEFF 		bl	lv_label_set_text
 325:home_screen.c ****             lv_obj_align(vertLabel2, vertSlider, LV_ALIGN_OUT_TOP_LEFT, 0, 0);
 1799              		.loc 6 325 0
 1800 02c4 0023     		movs	r3, #0
 1801 02c6 0093     		str	r3, [sp]
 1802 02c8 0023     		movs	r3, #0
 1803 02ca 0922     		movs	r2, #9
 1804 02cc F969     		ldr	r1, [r7, #28]
 1805 02ce B869     		ldr	r0, [r7, #24]
 1806 02d0 FFF7FEFF 		bl	lv_obj_align
 326:home_screen.c ****     
 327:home_screen.c ****         
 328:home_screen.c ****             
 329:home_screen.c ****     /* Fifth Slider: Horizontal Window      Control Range of Points shown */
 330:home_screen.c ****     lv_obj_t * windowSlider = lv_slider_create(lv_scr_act(), NULL);
 1807              		.loc 6 330 0
 1808 02d4 FFF7FEFF 		bl	lv_scr_act
 1809 02d8 0346     		mov	r3, r0
 1810 02da 0021     		movs	r1, #0
 1811 02dc 1846     		mov	r0, r3
ARM GAS  C:\Users\tmj32\AppData\Local\Temp\ccoOIND8.s 			page 56


 1812 02de FFF7FEFF 		bl	lv_slider_create
 1813 02e2 7861     		str	r0, [r7, #20]
 331:home_screen.c ****     lv_obj_set_pos(windowSlider, 20, 225);                         /*Set its position*/
 1814              		.loc 6 331 0
 1815 02e4 E122     		movs	r2, #225
 1816 02e6 1421     		movs	r1, #20
 1817 02e8 7869     		ldr	r0, [r7, #20]
 1818 02ea FFF7FEFF 		bl	lv_obj_set_pos
 332:home_screen.c ****     lv_obj_set_size(windowSlider, 280, 30);                        /*Set its size*/
 1819              		.loc 6 332 0
 1820 02ee 1E22     		movs	r2, #30
 1821 02f0 4FF48C71 		mov	r1, #280
 1822 02f4 7869     		ldr	r0, [r7, #20]
 1823 02f6 FFF7FEFF 		bl	lv_obj_set_size
 333:home_screen.c ****     lv_obj_set_event_cb(windowSlider, window_slider_event_cb);
 1824              		.loc 6 333 0
 1825 02fa 2549     		ldr	r1, .L91+60
 1826 02fc 7869     		ldr	r0, [r7, #20]
 1827 02fe FFF7FEFF 		bl	lv_obj_set_event_cb
 334:home_screen.c ****     lv_slider_set_range(windowSlider, 0, 2048);        
 1828              		.loc 6 334 0
 1829 0302 4FF40062 		mov	r2, #2048
 1830 0306 0021     		movs	r1, #0
 1831 0308 7869     		ldr	r0, [r7, #20]
 1832 030a FFF7FEFF 		bl	lv_slider_set_range
 335:home_screen.c ****     lv_slider_set_value(windowSlider, 1024, LV_ANIM_ON);
 1833              		.loc 6 335 0
 1834 030e 0122     		movs	r2, #1
 1835 0310 4FF48061 		mov	r1, #1024
 1836 0314 7869     		ldr	r0, [r7, #20]
 1837 0316 FFF7FEFF 		bl	lv_slider_set_value
 336:home_screen.c ****     
 337:home_screen.c ****             
 338:home_screen.c ****     //Draw the ogriginal chart... should be empty or zeroes
 339:home_screen.c ****     chart_actions();
 1838              		.loc 6 339 0
 1839 031a FFF7FEFF 		bl	chart_actions
 340:home_screen.c ****             
 341:home_screen.c ****     
 342:home_screen.c ****     //Adding an on/off switch 
 343:home_screen.c ****     lv_obj_t * sw1 = lv_sw_create(lv_scr_act(), NULL);
 1840              		.loc 6 343 0
 1841 031e FFF7FEFF 		bl	lv_scr_act
 1842 0322 0346     		mov	r3, r0
 1843 0324 0021     		movs	r1, #0
 1844 0326 1846     		mov	r0, r3
 1845 0328 FFF7FEFF 		bl	lv_sw_create
 1846 032c 3861     		str	r0, [r7, #16]
 344:home_screen.c ****     lv_obj_align(sw1, NULL, LV_ALIGN_CENTER, 0, -50);
 1847              		.loc 6 344 0
 1848 032e 6FF03103 		mvn	r3, #49
 1849 0332 0093     		str	r3, [sp]
 1850 0334 0023     		movs	r3, #0
 1851 0336 0022     		movs	r2, #0
 1852 0338 0021     		movs	r1, #0
 1853 033a 3869     		ldr	r0, [r7, #16]
 1854 033c FFF7FEFF 		bl	lv_obj_align
ARM GAS  C:\Users\tmj32\AppData\Local\Temp\ccoOIND8.s 			page 57


 345:home_screen.c ****     lv_obj_set_event_cb(sw1, sw_event_handler);
 1855              		.loc 6 345 0
 1856 0340 1449     		ldr	r1, .L91+64
 1857 0342 3869     		ldr	r0, [r7, #16]
 1858 0344 FFF7FEFF 		bl	lv_obj_set_event_cb
 346:home_screen.c ****     lv_obj_set_pos(sw1, 20, 430);                         /*Set its position*/
 1859              		.loc 6 346 0
 1860 0348 4FF4D772 		mov	r2, #430
 1861 034c 1421     		movs	r1, #20
 1862 034e 3869     		ldr	r0, [r7, #16]
 1863 0350 22E0     		b	.L92
 1864              	.L93:
 1865 0352 00BF     		.align	2
 1866              	.L91:
 1867 0354 00000000 		.word	offset_slider_event_cb
 1868 0358 00000000 		.word	offsetLabel
 1869 035c 4C000000 		.word	.LC10
 1870 0360 50000000 		.word	.LC11
 1871 0364 00000000 		.word	trigger_slider_event_cb
 1872 0368 04000000 		.word	triggerLabel
 1873 036c 58000000 		.word	.LC12
 1874 0370 60000000 		.word	.LC13
 1875 0374 00000000 		.word	hori_slider_event_cb
 1876 0378 08000000 		.word	horiLabel1
 1877 037c 30000000 		.word	.LC6
 1878 0380 6C000000 		.word	.LC14
 1879 0384 00000000 		.word	verti_slider_event_cb
 1880 0388 0C000000 		.word	vertLabel1
 1881 038c 78000000 		.word	.LC15
 1882 0390 00000000 		.word	window_slider_event_cb
 1883 0394 00000000 		.word	sw_event_handler
 1884              	.L92:
 1885 0398 FFF7FEFF 		bl	lv_obj_set_pos
 347:home_screen.c ****     lv_obj_set_size(sw1, 90, 30);               /*Set its size*/ 
 1886              		.loc 6 347 0
 1887 039c 1E22     		movs	r2, #30
 1888 039e 5A21     		movs	r1, #90
 1889 03a0 3869     		ldr	r0, [r7, #16]
 1890 03a2 FFF7FEFF 		bl	lv_obj_set_size
 348:home_screen.c ****     
 349:home_screen.c ****     lv_obj_t * switchLabel = lv_label_create(lv_scr_act(), NULL);
 1891              		.loc 6 349 0
 1892 03a6 FFF7FEFF 		bl	lv_scr_act
 1893 03aa 0346     		mov	r3, r0
 1894 03ac 0021     		movs	r1, #0
 1895 03ae 1846     		mov	r0, r3
 1896 03b0 FFF7FEFF 		bl	lv_label_create
 1897 03b4 F860     		str	r0, [r7, #12]
 350:home_screen.c **** 	lv_obj_set_drag(switchLabel, false);
 1898              		.loc 6 350 0
 1899 03b6 0021     		movs	r1, #0
 1900 03b8 F868     		ldr	r0, [r7, #12]
 1901 03ba FFF7FEFF 		bl	lv_obj_set_drag
 351:home_screen.c ****     lv_label_set_text(switchLabel, "On\\Off");
 1902              		.loc 6 351 0
 1903 03be 2349     		ldr	r1, .L94
 1904 03c0 F868     		ldr	r0, [r7, #12]
ARM GAS  C:\Users\tmj32\AppData\Local\Temp\ccoOIND8.s 			page 58


 1905 03c2 FFF7FEFF 		bl	lv_label_set_text
 352:home_screen.c ****     //lv_obj_set_pos(switchLabel, 15, 445);
 353:home_screen.c ****     lv_obj_align(switchLabel, sw1, LV_ALIGN_OUT_TOP_MID, 0, 0);
 1906              		.loc 6 353 0
 1907 03c6 0023     		movs	r3, #0
 1908 03c8 0093     		str	r3, [sp]
 1909 03ca 0023     		movs	r3, #0
 1910 03cc 0A22     		movs	r2, #10
 1911 03ce 3969     		ldr	r1, [r7, #16]
 1912 03d0 F868     		ldr	r0, [r7, #12]
 1913 03d2 FFF7FEFF 		bl	lv_obj_align
 354:home_screen.c ****     
 355:home_screen.c ****     
 356:home_screen.c ****     
 357:home_screen.c ****     //Adding a drop down menu for the trigger slope
 358:home_screen.c ****     lv_obj_t * roller1 = lv_roller_create(lv_scr_act(),NULL);
 1914              		.loc 6 358 0
 1915 03d6 FFF7FEFF 		bl	lv_scr_act
 1916 03da 0346     		mov	r3, r0
 1917 03dc 0021     		movs	r1, #0
 1918 03de 1846     		mov	r0, r3
 1919 03e0 FFF7FEFF 		bl	lv_roller_create
 1920 03e4 B860     		str	r0, [r7, #8]
 359:home_screen.c ****     lv_roller_set_options(roller1, "Rising\n"
 1921              		.loc 6 359 0
 1922 03e6 0122     		movs	r2, #1
 1923 03e8 1949     		ldr	r1, .L94+4
 1924 03ea B868     		ldr	r0, [r7, #8]
 1925 03ec FFF7FEFF 		bl	lv_roller_set_options
 360:home_screen.c ****                                    "Falling\n"
 361:home_screen.c ****                                    "Threshold",
 362:home_screen.c ****                                    LV_ROLLER_MODE_INIFINITE);
 363:home_screen.c ****     lv_roller_set_visible_row_count(roller1, 1);
 1926              		.loc 6 363 0
 1927 03f0 0121     		movs	r1, #1
 1928 03f2 B868     		ldr	r0, [r7, #8]
 1929 03f4 FFF7FEFF 		bl	lv_roller_set_visible_row_count
 364:home_screen.c ****     lv_obj_set_pos(roller1, 200, 425);                         /*Set its position*/
 1930              		.loc 6 364 0
 1931 03f8 40F2A912 		movw	r2, #425
 1932 03fc C821     		movs	r1, #200
 1933 03fe B868     		ldr	r0, [r7, #8]
 1934 0400 FFF7FEFF 		bl	lv_obj_set_pos
 365:home_screen.c ****     lv_obj_set_event_cb(roller1, roller1_event);
 1935              		.loc 6 365 0
 1936 0404 1349     		ldr	r1, .L94+8
 1937 0406 B868     		ldr	r0, [r7, #8]
 1938 0408 FFF7FEFF 		bl	lv_obj_set_event_cb
 366:home_screen.c ****     
 367:home_screen.c ****     //Adding a drop down menu for the trigger type
 368:home_screen.c ****     lv_obj_t * roller2 = lv_roller_create(lv_scr_act(),NULL);
 1939              		.loc 6 368 0
 1940 040c FFF7FEFF 		bl	lv_scr_act
 1941 0410 0346     		mov	r3, r0
 1942 0412 0021     		movs	r1, #0
 1943 0414 1846     		mov	r0, r3
 1944 0416 FFF7FEFF 		bl	lv_roller_create
ARM GAS  C:\Users\tmj32\AppData\Local\Temp\ccoOIND8.s 			page 59


 1945 041a 7860     		str	r0, [r7, #4]
 369:home_screen.c ****     lv_roller_set_options(roller2, "Single\n"
 1946              		.loc 6 369 0
 1947 041c 0122     		movs	r2, #1
 1948 041e 0E49     		ldr	r1, .L94+12
 1949 0420 7868     		ldr	r0, [r7, #4]
 1950 0422 FFF7FEFF 		bl	lv_roller_set_options
 370:home_screen.c ****                                    "Auto\n"
 371:home_screen.c ****                                    "Normal",
 372:home_screen.c ****                                    LV_ROLLER_MODE_INIFINITE);
 373:home_screen.c ****     lv_roller_set_visible_row_count(roller2, 1);
 1951              		.loc 6 373 0
 1952 0426 0121     		movs	r1, #1
 1953 0428 7868     		ldr	r0, [r7, #4]
 1954 042a FFF7FEFF 		bl	lv_roller_set_visible_row_count
 374:home_screen.c ****     lv_obj_set_pos(roller2, 115, 425);                         /*Set its position*/
 1955              		.loc 6 374 0
 1956 042e 40F2A912 		movw	r2, #425
 1957 0432 7321     		movs	r1, #115
 1958 0434 7868     		ldr	r0, [r7, #4]
 1959 0436 FFF7FEFF 		bl	lv_obj_set_pos
 375:home_screen.c ****     lv_obj_set_event_cb(roller2, roller2_event);
 1960              		.loc 6 375 0
 1961 043a 0849     		ldr	r1, .L94+16
 1962 043c 7868     		ldr	r0, [r7, #4]
 1963 043e FFF7FEFF 		bl	lv_obj_set_event_cb
 376:home_screen.c ****    
 377:home_screen.c **** }...
 1964              		.loc 6 377 0
 1965 0442 00BF     		nop
 1966 0444 3837     		adds	r7, r7, #56
 1967              		.cfi_def_cfa_offset 8
 1968 0446 BD46     		mov	sp, r7
 1969              		.cfi_def_cfa_register 13
 1970              		@ sp needed
 1971 0448 80BD     		pop	{r7, pc}
 1972              	.L95:
 1973 044a 00BF     		.align	2
 1974              	.L94:
 1975 044c 84000000 		.word	.LC16
 1976 0450 8C000000 		.word	.LC17
 1977 0454 00000000 		.word	roller1_event
 1978 0458 A8000000 		.word	.LC18
 1979 045c 00000000 		.word	roller2_event
 1980              		.cfi_endproc
 1981              	.LFE726:
 1982              		.size	home_screen, .-home_screen
 1983              		.bss
 1984              		.align	2
 1985              	chart1.20844:
 1986 0014 00000000 		.space	4
 1987              		.align	2
 1988              	buf.20885:
 1989 0018 00000000 		.space	4
 1990              		.align	2
 1991              	buf.20890:
 1992 001c 00000000 		.space	4
ARM GAS  C:\Users\tmj32\AppData\Local\Temp\ccoOIND8.s 			page 60


 1993              		.align	2
 1994              	buf.20895:
 1995 0020 00000000 		.space	10
 1995      00000000 
 1995      0000
 1996 002a 0000     		.align	2
 1997              	buf.20907:
 1998 002c 00000000 		.space	10
 1998      00000000 
 1998      0000
 1999              		.text
 2000              	.Letext0:
 2001              		.file 7 "c:\\program files (x86)\\cypress\\psoc creator\\4.3\\psoc creator\\import\\gnu\\arm\\5.4.
 2002              		.file 8 "c:\\program files (x86)\\cypress\\psoc creator\\4.3\\psoc creator\\import\\gnu\\arm\\5.4.
 2003              		.file 9 "Generated_Source\\PSoC6\\pdl\\drivers/peripheral/device/cy_device.h"
 2004              		.file 10 "Generated_Source\\PSoC6\\pdl\\drivers/peripheral/scb/cy_scb_i2c.h"
 2005              		.file 11 "Generated_Source\\PSoC6\\pdl\\drivers/peripheral/scb/cy_scb_spi.h"
 2006              		.file 12 "Generated_Source\\PSoC6\\pdl\\drivers/peripheral/tcpwm/cy_tcpwm_counter.h"
 2007              		.file 13 "globalStruct.h"
 2008              		.file 14 "..\\..\\..\\lvgl\\version_6.1.2\\lvgl/src/lv_misc/../../../lv_conf.h"
 2009              		.file 15 "..\\..\\..\\lvgl\\version_6.1.2\\lvgl/src/lv_misc/lv_types.h"
 2010              		.file 16 "..\\..\\..\\lvgl\\version_6.1.2\\lvgl/src/lv_misc/lv_ll.h"
 2011              		.file 17 "..\\..\\..\\lvgl\\version_6.1.2\\lvgl/src/lv_hal/../lv_misc/lv_area.h"
 2012              		.file 18 "..\\..\\..\\lvgl\\version_6.1.2\\lvgl/src/lv_core/lv_obj.h"
 2013              		.file 19 "..\\..\\..\\lvgl\\version_6.1.2\\lvgl/src/lv_core/../lv_font/lv_font.h"
 2014              		.file 20 "..\\..\\..\\lvgl\\version_6.1.2\\lvgl/src/lv_core/../lv_misc/lv_anim.h"
 2015              		.file 21 "..\\..\\..\\lvgl\\version_6.1.2\\lvgl/src/lv_core/lv_style.h"
 2016              		.file 22 "..\\..\\..\\lvgl\\version_6.1.2\\lvgl/src/lv_core/../lv_misc/lv_bidi.h"
 2017              		.file 23 "..\\..\\..\\lvgl\\version_6.1.2\\lvgl/src/lv_objx/lv_btn.h"
 2018              		.file 24 "..\\..\\..\\lvgl\\version_6.1.2\\lvgl/src/lv_objx/lv_label.h"
 2019              		.file 25 "..\\..\\..\\lvgl\\version_6.1.2\\lvgl/src/lv_objx/lv_chart.h"
 2020              		.file 26 "Generated_Source\\PSoC6\\pdl\\cmsis/include/core_cm4.h"
 2021              		.file 27 "Generated_Source\\PSoC6/DISP_TICK_TIMER.h"
 2022              		.file 28 "Generated_Source\\PSoC6/I2C_MASTER.h"
 2023              		.file 29 "Generated_Source\\PSoC6/SPIM.h"