ARM GAS  C:\Users\tmj32\AppData\Local\Temp\cch6Xcfo.s 			page 1


   1              		.syntax unified
   2              		.cpu cortex-m4
   3              		.eabi_attribute 27, 1
   4              		.fpu fpv4-sp-d16
   5              		.eabi_attribute 20, 1
   6              		.eabi_attribute 21, 1
   7              		.eabi_attribute 23, 3
   8              		.eabi_attribute 24, 1
   9              		.eabi_attribute 25, 1
  10              		.eabi_attribute 26, 1
  11              		.eabi_attribute 30, 6
  12              		.eabi_attribute 34, 1
  13              		.eabi_attribute 18, 4
  14              		.thumb
  15              		.syntax unified
  16              		.file	"home_screen.c"
  17              		.text
  18              	.Ltext0:
  19              		.cfi_sections	.debug_frame
  20              		.comm	cm4,2116,4
  21              		.section	.text.lv_color_make,"ax",%progbits
  22              		.align	2
  23              		.thumb
  24              		.thumb_func
  25              		.type	lv_color_make, %function
  26              	lv_color_make:
  27              	.LFB588:
  28              		.file 1 "..\\..\\..\\lvgl\\version_6.1.2\\lvgl/src/lv_hal/../lv_misc/lv_color.h"
   1:..\..\..\lvgl\version_6.1.2\lvgl/src/lv_hal/../lv_misc/lv_color.h **** /**
   2:..\..\..\lvgl\version_6.1.2\lvgl/src/lv_hal/../lv_misc/lv_color.h ****  * @file lv_color.h
   3:..\..\..\lvgl\version_6.1.2\lvgl/src/lv_hal/../lv_misc/lv_color.h ****  *
   4:..\..\..\lvgl\version_6.1.2\lvgl/src/lv_hal/../lv_misc/lv_color.h ****  */
   5:..\..\..\lvgl\version_6.1.2\lvgl/src/lv_hal/../lv_misc/lv_color.h **** 
   6:..\..\..\lvgl\version_6.1.2\lvgl/src/lv_hal/../lv_misc/lv_color.h **** #ifndef LV_COLOR_H
   7:..\..\..\lvgl\version_6.1.2\lvgl/src/lv_hal/../lv_misc/lv_color.h **** #define LV_COLOR_H
   8:..\..\..\lvgl\version_6.1.2\lvgl/src/lv_hal/../lv_misc/lv_color.h **** 
   9:..\..\..\lvgl\version_6.1.2\lvgl/src/lv_hal/../lv_misc/lv_color.h **** #ifdef __cplusplus
  10:..\..\..\lvgl\version_6.1.2\lvgl/src/lv_hal/../lv_misc/lv_color.h **** extern "C" {
  11:..\..\..\lvgl\version_6.1.2\lvgl/src/lv_hal/../lv_misc/lv_color.h **** #endif
  12:..\..\..\lvgl\version_6.1.2\lvgl/src/lv_hal/../lv_misc/lv_color.h **** 
  13:..\..\..\lvgl\version_6.1.2\lvgl/src/lv_hal/../lv_misc/lv_color.h **** /*********************
  14:..\..\..\lvgl\version_6.1.2\lvgl/src/lv_hal/../lv_misc/lv_color.h ****  *      INCLUDES
  15:..\..\..\lvgl\version_6.1.2\lvgl/src/lv_hal/../lv_misc/lv_color.h ****  *********************/
  16:..\..\..\lvgl\version_6.1.2\lvgl/src/lv_hal/../lv_misc/lv_color.h **** #ifdef LV_CONF_INCLUDE_SIMPLE
  17:..\..\..\lvgl\version_6.1.2\lvgl/src/lv_hal/../lv_misc/lv_color.h **** #include "lv_conf.h"
  18:..\..\..\lvgl\version_6.1.2\lvgl/src/lv_hal/../lv_misc/lv_color.h **** #else
  19:..\..\..\lvgl\version_6.1.2\lvgl/src/lv_hal/../lv_misc/lv_color.h **** #include "../../../lv_conf.h"
  20:..\..\..\lvgl\version_6.1.2\lvgl/src/lv_hal/../lv_misc/lv_color.h **** #endif
  21:..\..\..\lvgl\version_6.1.2\lvgl/src/lv_hal/../lv_misc/lv_color.h **** 
  22:..\..\..\lvgl\version_6.1.2\lvgl/src/lv_hal/../lv_misc/lv_color.h **** /*Error checking*/
  23:..\..\..\lvgl\version_6.1.2\lvgl/src/lv_hal/../lv_misc/lv_color.h **** #if LV_COLOR_DEPTH == 24
  24:..\..\..\lvgl\version_6.1.2\lvgl/src/lv_hal/../lv_misc/lv_color.h **** #error "LV_COLOR_DEPTH  24 is deprecated. Use LV_COLOR_DEPTH  32 instead (lv_conf.h)"
  25:..\..\..\lvgl\version_6.1.2\lvgl/src/lv_hal/../lv_misc/lv_color.h **** #endif
  26:..\..\..\lvgl\version_6.1.2\lvgl/src/lv_hal/../lv_misc/lv_color.h **** 
  27:..\..\..\lvgl\version_6.1.2\lvgl/src/lv_hal/../lv_misc/lv_color.h **** #if LV_COLOR_DEPTH != 32 && LV_COLOR_SCREEN_TRANSP != 0
  28:..\..\..\lvgl\version_6.1.2\lvgl/src/lv_hal/../lv_misc/lv_color.h **** #error "LV_COLOR_SCREEN_TRANSP requires LV_COLOR_DEPTH == 32. Set it in lv_conf.h"
  29:..\..\..\lvgl\version_6.1.2\lvgl/src/lv_hal/../lv_misc/lv_color.h **** #endif
ARM GAS  C:\Users\tmj32\AppData\Local\Temp\cch6Xcfo.s 			page 2


  30:..\..\..\lvgl\version_6.1.2\lvgl/src/lv_hal/../lv_misc/lv_color.h **** 
  31:..\..\..\lvgl\version_6.1.2\lvgl/src/lv_hal/../lv_misc/lv_color.h **** #if LV_COLOR_DEPTH != 16 && LV_COLOR_16_SWAP != 0
  32:..\..\..\lvgl\version_6.1.2\lvgl/src/lv_hal/../lv_misc/lv_color.h **** #error "LV_COLOR_16_SWAP requires LV_COLOR_DEPTH == 16. Set it in lv_conf.h"
  33:..\..\..\lvgl\version_6.1.2\lvgl/src/lv_hal/../lv_misc/lv_color.h **** #endif
  34:..\..\..\lvgl\version_6.1.2\lvgl/src/lv_hal/../lv_misc/lv_color.h **** 
  35:..\..\..\lvgl\version_6.1.2\lvgl/src/lv_hal/../lv_misc/lv_color.h **** #include <stdint.h>
  36:..\..\..\lvgl\version_6.1.2\lvgl/src/lv_hal/../lv_misc/lv_color.h **** 
  37:..\..\..\lvgl\version_6.1.2\lvgl/src/lv_hal/../lv_misc/lv_color.h **** /*********************
  38:..\..\..\lvgl\version_6.1.2\lvgl/src/lv_hal/../lv_misc/lv_color.h ****  *      DEFINES
  39:..\..\..\lvgl\version_6.1.2\lvgl/src/lv_hal/../lv_misc/lv_color.h ****  *********************/
  40:..\..\..\lvgl\version_6.1.2\lvgl/src/lv_hal/../lv_misc/lv_color.h **** #define LV_COLOR_WHITE LV_COLOR_MAKE(0xFF, 0xFF, 0xFF)
  41:..\..\..\lvgl\version_6.1.2\lvgl/src/lv_hal/../lv_misc/lv_color.h **** #define LV_COLOR_SILVER LV_COLOR_MAKE(0xC0, 0xC0, 0xC0)
  42:..\..\..\lvgl\version_6.1.2\lvgl/src/lv_hal/../lv_misc/lv_color.h **** #define LV_COLOR_GRAY LV_COLOR_MAKE(0x80, 0x80, 0x80)
  43:..\..\..\lvgl\version_6.1.2\lvgl/src/lv_hal/../lv_misc/lv_color.h **** #define LV_COLOR_BLACK LV_COLOR_MAKE(0x00, 0x00, 0x00)
  44:..\..\..\lvgl\version_6.1.2\lvgl/src/lv_hal/../lv_misc/lv_color.h **** #define LV_COLOR_RED LV_COLOR_MAKE(0xFF, 0x00, 0x00)
  45:..\..\..\lvgl\version_6.1.2\lvgl/src/lv_hal/../lv_misc/lv_color.h **** #define LV_COLOR_MAROON LV_COLOR_MAKE(0x80, 0x00, 0x00)
  46:..\..\..\lvgl\version_6.1.2\lvgl/src/lv_hal/../lv_misc/lv_color.h **** #define LV_COLOR_YELLOW LV_COLOR_MAKE(0xFF, 0xFF, 0x00)
  47:..\..\..\lvgl\version_6.1.2\lvgl/src/lv_hal/../lv_misc/lv_color.h **** #define LV_COLOR_OLIVE LV_COLOR_MAKE(0x80, 0x80, 0x00)
  48:..\..\..\lvgl\version_6.1.2\lvgl/src/lv_hal/../lv_misc/lv_color.h **** #define LV_COLOR_LIME LV_COLOR_MAKE(0x00, 0xFF, 0x00)
  49:..\..\..\lvgl\version_6.1.2\lvgl/src/lv_hal/../lv_misc/lv_color.h **** #define LV_COLOR_GREEN LV_COLOR_MAKE(0x00, 0x80, 0x00)
  50:..\..\..\lvgl\version_6.1.2\lvgl/src/lv_hal/../lv_misc/lv_color.h **** #define LV_COLOR_CYAN LV_COLOR_MAKE(0x00, 0xFF, 0xFF)
  51:..\..\..\lvgl\version_6.1.2\lvgl/src/lv_hal/../lv_misc/lv_color.h **** #define LV_COLOR_AQUA LV_COLOR_CYAN
  52:..\..\..\lvgl\version_6.1.2\lvgl/src/lv_hal/../lv_misc/lv_color.h **** #define LV_COLOR_TEAL LV_COLOR_MAKE(0x00, 0x80, 0x80)
  53:..\..\..\lvgl\version_6.1.2\lvgl/src/lv_hal/../lv_misc/lv_color.h **** #define LV_COLOR_BLUE LV_COLOR_MAKE(0x00, 0x00, 0xFF)
  54:..\..\..\lvgl\version_6.1.2\lvgl/src/lv_hal/../lv_misc/lv_color.h **** #define LV_COLOR_NAVY LV_COLOR_MAKE(0x00, 0x00, 0x80)
  55:..\..\..\lvgl\version_6.1.2\lvgl/src/lv_hal/../lv_misc/lv_color.h **** #define LV_COLOR_MAGENTA LV_COLOR_MAKE(0xFF, 0x00, 0xFF)
  56:..\..\..\lvgl\version_6.1.2\lvgl/src/lv_hal/../lv_misc/lv_color.h **** #define LV_COLOR_PURPLE LV_COLOR_MAKE(0x80, 0x00, 0x80)
  57:..\..\..\lvgl\version_6.1.2\lvgl/src/lv_hal/../lv_misc/lv_color.h **** #define LV_COLOR_ORANGE LV_COLOR_MAKE(0xFF, 0xA5, 0x00)
  58:..\..\..\lvgl\version_6.1.2\lvgl/src/lv_hal/../lv_misc/lv_color.h **** 
  59:..\..\..\lvgl\version_6.1.2\lvgl/src/lv_hal/../lv_misc/lv_color.h **** /**
  60:..\..\..\lvgl\version_6.1.2\lvgl/src/lv_hal/../lv_misc/lv_color.h ****  * Opacity percentages.
  61:..\..\..\lvgl\version_6.1.2\lvgl/src/lv_hal/../lv_misc/lv_color.h ****  */
  62:..\..\..\lvgl\version_6.1.2\lvgl/src/lv_hal/../lv_misc/lv_color.h **** enum {
  63:..\..\..\lvgl\version_6.1.2\lvgl/src/lv_hal/../lv_misc/lv_color.h ****     LV_OPA_TRANSP = 0,
  64:..\..\..\lvgl\version_6.1.2\lvgl/src/lv_hal/../lv_misc/lv_color.h ****     LV_OPA_0      = 0,
  65:..\..\..\lvgl\version_6.1.2\lvgl/src/lv_hal/../lv_misc/lv_color.h ****     LV_OPA_10     = 25,
  66:..\..\..\lvgl\version_6.1.2\lvgl/src/lv_hal/../lv_misc/lv_color.h ****     LV_OPA_20     = 51,
  67:..\..\..\lvgl\version_6.1.2\lvgl/src/lv_hal/../lv_misc/lv_color.h ****     LV_OPA_30     = 76,
  68:..\..\..\lvgl\version_6.1.2\lvgl/src/lv_hal/../lv_misc/lv_color.h ****     LV_OPA_40     = 102,
  69:..\..\..\lvgl\version_6.1.2\lvgl/src/lv_hal/../lv_misc/lv_color.h ****     LV_OPA_50     = 127,
  70:..\..\..\lvgl\version_6.1.2\lvgl/src/lv_hal/../lv_misc/lv_color.h ****     LV_OPA_60     = 153,
  71:..\..\..\lvgl\version_6.1.2\lvgl/src/lv_hal/../lv_misc/lv_color.h ****     LV_OPA_70     = 178,
  72:..\..\..\lvgl\version_6.1.2\lvgl/src/lv_hal/../lv_misc/lv_color.h ****     LV_OPA_80     = 204,
  73:..\..\..\lvgl\version_6.1.2\lvgl/src/lv_hal/../lv_misc/lv_color.h ****     LV_OPA_90     = 229,
  74:..\..\..\lvgl\version_6.1.2\lvgl/src/lv_hal/../lv_misc/lv_color.h ****     LV_OPA_100    = 255,
  75:..\..\..\lvgl\version_6.1.2\lvgl/src/lv_hal/../lv_misc/lv_color.h ****     LV_OPA_COVER  = 255,
  76:..\..\..\lvgl\version_6.1.2\lvgl/src/lv_hal/../lv_misc/lv_color.h **** };
  77:..\..\..\lvgl\version_6.1.2\lvgl/src/lv_hal/../lv_misc/lv_color.h **** 
  78:..\..\..\lvgl\version_6.1.2\lvgl/src/lv_hal/../lv_misc/lv_color.h **** #define LV_OPA_MIN 16  /*Opacities below this will be transparent*/
  79:..\..\..\lvgl\version_6.1.2\lvgl/src/lv_hal/../lv_misc/lv_color.h **** #define LV_OPA_MAX 251 /*Opacities above this will fully cover*/
  80:..\..\..\lvgl\version_6.1.2\lvgl/src/lv_hal/../lv_misc/lv_color.h **** 
  81:..\..\..\lvgl\version_6.1.2\lvgl/src/lv_hal/../lv_misc/lv_color.h **** #if LV_COLOR_DEPTH == 1
  82:..\..\..\lvgl\version_6.1.2\lvgl/src/lv_hal/../lv_misc/lv_color.h **** #define LV_COLOR_SIZE 8
  83:..\..\..\lvgl\version_6.1.2\lvgl/src/lv_hal/../lv_misc/lv_color.h **** #elif LV_COLOR_DEPTH == 8
  84:..\..\..\lvgl\version_6.1.2\lvgl/src/lv_hal/../lv_misc/lv_color.h **** #define LV_COLOR_SIZE 8
  85:..\..\..\lvgl\version_6.1.2\lvgl/src/lv_hal/../lv_misc/lv_color.h **** #elif LV_COLOR_DEPTH == 16
  86:..\..\..\lvgl\version_6.1.2\lvgl/src/lv_hal/../lv_misc/lv_color.h **** #define LV_COLOR_SIZE 16
ARM GAS  C:\Users\tmj32\AppData\Local\Temp\cch6Xcfo.s 			page 3


  87:..\..\..\lvgl\version_6.1.2\lvgl/src/lv_hal/../lv_misc/lv_color.h **** #elif LV_COLOR_DEPTH == 32
  88:..\..\..\lvgl\version_6.1.2\lvgl/src/lv_hal/../lv_misc/lv_color.h **** #define LV_COLOR_SIZE 32
  89:..\..\..\lvgl\version_6.1.2\lvgl/src/lv_hal/../lv_misc/lv_color.h **** #else
  90:..\..\..\lvgl\version_6.1.2\lvgl/src/lv_hal/../lv_misc/lv_color.h **** #error "Invalid LV_COLOR_DEPTH in lv_conf.h! Set it to 1, 8, 16 or 32!"
  91:..\..\..\lvgl\version_6.1.2\lvgl/src/lv_hal/../lv_misc/lv_color.h **** #endif
  92:..\..\..\lvgl\version_6.1.2\lvgl/src/lv_hal/../lv_misc/lv_color.h **** 
  93:..\..\..\lvgl\version_6.1.2\lvgl/src/lv_hal/../lv_misc/lv_color.h **** /*---------------------------------------
  94:..\..\..\lvgl\version_6.1.2\lvgl/src/lv_hal/../lv_misc/lv_color.h ****  * Macros for all existing  color depths
  95:..\..\..\lvgl\version_6.1.2\lvgl/src/lv_hal/../lv_misc/lv_color.h ****  * to set/get values of the color channels
  96:..\..\..\lvgl\version_6.1.2\lvgl/src/lv_hal/../lv_misc/lv_color.h ****  *------------------------------------------*/
  97:..\..\..\lvgl\version_6.1.2\lvgl/src/lv_hal/../lv_misc/lv_color.h **** # define LV_COLOR_SET_R1(c, v) (c).ch.red = (uint8_t)((v) & 0x1);
  98:..\..\..\lvgl\version_6.1.2\lvgl/src/lv_hal/../lv_misc/lv_color.h **** # define LV_COLOR_SET_G1(c, v) (c).ch.green = (uint8_t)((v) & 0x1);
  99:..\..\..\lvgl\version_6.1.2\lvgl/src/lv_hal/../lv_misc/lv_color.h **** # define LV_COLOR_SET_B1(c, v) (c).ch.blue = (uint8_t)((v) & 0x1);
 100:..\..\..\lvgl\version_6.1.2\lvgl/src/lv_hal/../lv_misc/lv_color.h **** # define LV_COLOR_SET_A1(c, v)
 101:..\..\..\lvgl\version_6.1.2\lvgl/src/lv_hal/../lv_misc/lv_color.h **** 
 102:..\..\..\lvgl\version_6.1.2\lvgl/src/lv_hal/../lv_misc/lv_color.h **** # define LV_COLOR_GET_R1(c) (c).ch.red
 103:..\..\..\lvgl\version_6.1.2\lvgl/src/lv_hal/../lv_misc/lv_color.h **** # define LV_COLOR_GET_G1(c) (c).ch.green
 104:..\..\..\lvgl\version_6.1.2\lvgl/src/lv_hal/../lv_misc/lv_color.h **** # define LV_COLOR_GET_B1(c) (c).ch.blue
 105:..\..\..\lvgl\version_6.1.2\lvgl/src/lv_hal/../lv_misc/lv_color.h **** # define LV_COLOR_GET_A1(c) 1
 106:..\..\..\lvgl\version_6.1.2\lvgl/src/lv_hal/../lv_misc/lv_color.h **** 
 107:..\..\..\lvgl\version_6.1.2\lvgl/src/lv_hal/../lv_misc/lv_color.h **** # define LV_COLOR_SET_R8(c, v) (c).ch.red = (uint8_t)(v) & 0x7U;
 108:..\..\..\lvgl\version_6.1.2\lvgl/src/lv_hal/../lv_misc/lv_color.h **** # define LV_COLOR_SET_G8(c, v) (c).ch.green = (uint8_t)(v) & 0x7U;
 109:..\..\..\lvgl\version_6.1.2\lvgl/src/lv_hal/../lv_misc/lv_color.h **** # define LV_COLOR_SET_B8(c, v) (c).ch.blue = (uint8_t)(v) & 0x3U;
 110:..\..\..\lvgl\version_6.1.2\lvgl/src/lv_hal/../lv_misc/lv_color.h **** # define LV_COLOR_SET_A8(c, v) do {} while(0)
 111:..\..\..\lvgl\version_6.1.2\lvgl/src/lv_hal/../lv_misc/lv_color.h **** 
 112:..\..\..\lvgl\version_6.1.2\lvgl/src/lv_hal/../lv_misc/lv_color.h **** # define LV_COLOR_GET_R8(c) (c).ch.red
 113:..\..\..\lvgl\version_6.1.2\lvgl/src/lv_hal/../lv_misc/lv_color.h **** # define LV_COLOR_GET_G8(c) (c).ch.green
 114:..\..\..\lvgl\version_6.1.2\lvgl/src/lv_hal/../lv_misc/lv_color.h **** # define LV_COLOR_GET_B8(c) (c).ch.blue
 115:..\..\..\lvgl\version_6.1.2\lvgl/src/lv_hal/../lv_misc/lv_color.h **** # define LV_COLOR_GET_A8(c) 0xFF
 116:..\..\..\lvgl\version_6.1.2\lvgl/src/lv_hal/../lv_misc/lv_color.h **** 
 117:..\..\..\lvgl\version_6.1.2\lvgl/src/lv_hal/../lv_misc/lv_color.h **** # define LV_COLOR_SET_R16(c, v) (c).ch.red = (uint8_t)(v) & 0x1FU;
 118:..\..\..\lvgl\version_6.1.2\lvgl/src/lv_hal/../lv_misc/lv_color.h **** # define LV_COLOR_SET_G16(c, v) (c).ch.green = (uint8_t)(v) & 0x3FU;
 119:..\..\..\lvgl\version_6.1.2\lvgl/src/lv_hal/../lv_misc/lv_color.h **** # define LV_COLOR_SET_G16_SWAP(c, v) {(c).ch.green_h = (uint8_t)(((v) >> 3) & 0x7); (c).ch.green_l 
 120:..\..\..\lvgl\version_6.1.2\lvgl/src/lv_hal/../lv_misc/lv_color.h **** # define LV_COLOR_SET_B16(c, v) (c).ch.blue = (uint8_t)(v) & 0x1FU;
 121:..\..\..\lvgl\version_6.1.2\lvgl/src/lv_hal/../lv_misc/lv_color.h **** # define LV_COLOR_SET_A16(c, v) do {} while(0)
 122:..\..\..\lvgl\version_6.1.2\lvgl/src/lv_hal/../lv_misc/lv_color.h **** 
 123:..\..\..\lvgl\version_6.1.2\lvgl/src/lv_hal/../lv_misc/lv_color.h **** # define LV_COLOR_GET_R16(c) (c).ch.red
 124:..\..\..\lvgl\version_6.1.2\lvgl/src/lv_hal/../lv_misc/lv_color.h **** # define LV_COLOR_GET_G16(c) (c).ch.green
 125:..\..\..\lvgl\version_6.1.2\lvgl/src/lv_hal/../lv_misc/lv_color.h **** # define LV_COLOR_GET_G16_SWAP(c) (((c).ch.green_h << 3) + (c).ch.green_l)
 126:..\..\..\lvgl\version_6.1.2\lvgl/src/lv_hal/../lv_misc/lv_color.h **** # define LV_COLOR_GET_B16(c) (c).ch.blue
 127:..\..\..\lvgl\version_6.1.2\lvgl/src/lv_hal/../lv_misc/lv_color.h **** # define LV_COLOR_GET_A16(c) 0xFF
 128:..\..\..\lvgl\version_6.1.2\lvgl/src/lv_hal/../lv_misc/lv_color.h **** 
 129:..\..\..\lvgl\version_6.1.2\lvgl/src/lv_hal/../lv_misc/lv_color.h **** # define LV_COLOR_SET_R32(c, v) (c).ch.red = (uint32_t)((v) & 0xFF);
 130:..\..\..\lvgl\version_6.1.2\lvgl/src/lv_hal/../lv_misc/lv_color.h **** # define LV_COLOR_SET_G32(c, v) (c).ch.green = (uint32_t)((v) & 0xFF);
 131:..\..\..\lvgl\version_6.1.2\lvgl/src/lv_hal/../lv_misc/lv_color.h **** # define LV_COLOR_SET_B32(c, v) (c).ch.blue = (uint32_t)((v) & 0xFF);
 132:..\..\..\lvgl\version_6.1.2\lvgl/src/lv_hal/../lv_misc/lv_color.h **** # define LV_COLOR_SET_A32(c, v) (c).ch.alpha = (uint32_t)((v) & 0xFF);
 133:..\..\..\lvgl\version_6.1.2\lvgl/src/lv_hal/../lv_misc/lv_color.h **** 
 134:..\..\..\lvgl\version_6.1.2\lvgl/src/lv_hal/../lv_misc/lv_color.h **** # define LV_COLOR_GET_R32(c) (c).ch.red
 135:..\..\..\lvgl\version_6.1.2\lvgl/src/lv_hal/../lv_misc/lv_color.h **** # define LV_COLOR_GET_G32(c) (c).ch.green
 136:..\..\..\lvgl\version_6.1.2\lvgl/src/lv_hal/../lv_misc/lv_color.h **** # define LV_COLOR_GET_B32(c) (c).ch.blue
 137:..\..\..\lvgl\version_6.1.2\lvgl/src/lv_hal/../lv_misc/lv_color.h **** # define LV_COLOR_GET_A32(c) (c).ch.alpha
 138:..\..\..\lvgl\version_6.1.2\lvgl/src/lv_hal/../lv_misc/lv_color.h **** 
 139:..\..\..\lvgl\version_6.1.2\lvgl/src/lv_hal/../lv_misc/lv_color.h **** 
 140:..\..\..\lvgl\version_6.1.2\lvgl/src/lv_hal/../lv_misc/lv_color.h **** /*---------------------------------------
 141:..\..\..\lvgl\version_6.1.2\lvgl/src/lv_hal/../lv_misc/lv_color.h ****  * Macros for the current color depth
 142:..\..\..\lvgl\version_6.1.2\lvgl/src/lv_hal/../lv_misc/lv_color.h ****  * to set/get values of the color channels
 143:..\..\..\lvgl\version_6.1.2\lvgl/src/lv_hal/../lv_misc/lv_color.h ****  *------------------------------------------*/
ARM GAS  C:\Users\tmj32\AppData\Local\Temp\cch6Xcfo.s 			page 4


 144:..\..\..\lvgl\version_6.1.2\lvgl/src/lv_hal/../lv_misc/lv_color.h **** #if LV_COLOR_DEPTH == 1
 145:..\..\..\lvgl\version_6.1.2\lvgl/src/lv_hal/../lv_misc/lv_color.h **** # define LV_COLOR_SET_R(c, v) LV_COLOR_SET_R1(c,v)
 146:..\..\..\lvgl\version_6.1.2\lvgl/src/lv_hal/../lv_misc/lv_color.h **** # define LV_COLOR_SET_G(c, v) LV_COLOR_SET_G1(c,v)
 147:..\..\..\lvgl\version_6.1.2\lvgl/src/lv_hal/../lv_misc/lv_color.h **** # define LV_COLOR_SET_B(c, v) LV_COLOR_SET_B1(c,v)
 148:..\..\..\lvgl\version_6.1.2\lvgl/src/lv_hal/../lv_misc/lv_color.h **** # define LV_COLOR_SET_A(c, v) LV_COLOR_SET_A1(c,v)
 149:..\..\..\lvgl\version_6.1.2\lvgl/src/lv_hal/../lv_misc/lv_color.h **** 
 150:..\..\..\lvgl\version_6.1.2\lvgl/src/lv_hal/../lv_misc/lv_color.h **** # define LV_COLOR_GET_R(c) LV_COLOR_GET_R1(c)
 151:..\..\..\lvgl\version_6.1.2\lvgl/src/lv_hal/../lv_misc/lv_color.h **** # define LV_COLOR_GET_G(c) LV_COLOR_GET_G1(c)
 152:..\..\..\lvgl\version_6.1.2\lvgl/src/lv_hal/../lv_misc/lv_color.h **** # define LV_COLOR_GET_B(c) LV_COLOR_GET_B1(c)
 153:..\..\..\lvgl\version_6.1.2\lvgl/src/lv_hal/../lv_misc/lv_color.h **** # define LV_COLOR_GET_A(c) LV_COLOR_GET_A1(c)
 154:..\..\..\lvgl\version_6.1.2\lvgl/src/lv_hal/../lv_misc/lv_color.h **** 
 155:..\..\..\lvgl\version_6.1.2\lvgl/src/lv_hal/../lv_misc/lv_color.h **** #elif LV_COLOR_DEPTH == 8
 156:..\..\..\lvgl\version_6.1.2\lvgl/src/lv_hal/../lv_misc/lv_color.h **** # define LV_COLOR_SET_R(c, v) LV_COLOR_SET_R8(c,v)
 157:..\..\..\lvgl\version_6.1.2\lvgl/src/lv_hal/../lv_misc/lv_color.h **** # define LV_COLOR_SET_G(c, v) LV_COLOR_SET_G8(c,v)
 158:..\..\..\lvgl\version_6.1.2\lvgl/src/lv_hal/../lv_misc/lv_color.h **** # define LV_COLOR_SET_B(c, v) LV_COLOR_SET_B8(c,v)
 159:..\..\..\lvgl\version_6.1.2\lvgl/src/lv_hal/../lv_misc/lv_color.h **** # define LV_COLOR_SET_A(c, v) LV_COLOR_SET_A8(c,v)
 160:..\..\..\lvgl\version_6.1.2\lvgl/src/lv_hal/../lv_misc/lv_color.h **** 
 161:..\..\..\lvgl\version_6.1.2\lvgl/src/lv_hal/../lv_misc/lv_color.h **** # define LV_COLOR_GET_R(c) LV_COLOR_GET_R8(c)
 162:..\..\..\lvgl\version_6.1.2\lvgl/src/lv_hal/../lv_misc/lv_color.h **** # define LV_COLOR_GET_G(c) LV_COLOR_GET_G8(c)
 163:..\..\..\lvgl\version_6.1.2\lvgl/src/lv_hal/../lv_misc/lv_color.h **** # define LV_COLOR_GET_B(c) LV_COLOR_GET_B8(c)
 164:..\..\..\lvgl\version_6.1.2\lvgl/src/lv_hal/../lv_misc/lv_color.h **** # define LV_COLOR_GET_A(c) LV_COLOR_GET_A8(c)
 165:..\..\..\lvgl\version_6.1.2\lvgl/src/lv_hal/../lv_misc/lv_color.h **** 
 166:..\..\..\lvgl\version_6.1.2\lvgl/src/lv_hal/../lv_misc/lv_color.h **** #elif LV_COLOR_DEPTH == 16
 167:..\..\..\lvgl\version_6.1.2\lvgl/src/lv_hal/../lv_misc/lv_color.h **** # define LV_COLOR_SET_R(c, v) LV_COLOR_SET_R16(c,v)
 168:..\..\..\lvgl\version_6.1.2\lvgl/src/lv_hal/../lv_misc/lv_color.h **** # if LV_COLOR_16_SWAP == 0
 169:..\..\..\lvgl\version_6.1.2\lvgl/src/lv_hal/../lv_misc/lv_color.h **** #   define LV_COLOR_SET_G(c, v) LV_COLOR_SET_G16(c,v)
 170:..\..\..\lvgl\version_6.1.2\lvgl/src/lv_hal/../lv_misc/lv_color.h **** # else
 171:..\..\..\lvgl\version_6.1.2\lvgl/src/lv_hal/../lv_misc/lv_color.h **** #   define LV_COLOR_SET_G(c, v) LV_COLOR_SET_G16_SWAP(c,v)
 172:..\..\..\lvgl\version_6.1.2\lvgl/src/lv_hal/../lv_misc/lv_color.h **** # endif
 173:..\..\..\lvgl\version_6.1.2\lvgl/src/lv_hal/../lv_misc/lv_color.h **** # define LV_COLOR_SET_B(c, v) LV_COLOR_SET_B16(c,v)
 174:..\..\..\lvgl\version_6.1.2\lvgl/src/lv_hal/../lv_misc/lv_color.h **** # define LV_COLOR_SET_A(c, v) LV_COLOR_SET_A16(c,v)
 175:..\..\..\lvgl\version_6.1.2\lvgl/src/lv_hal/../lv_misc/lv_color.h **** 
 176:..\..\..\lvgl\version_6.1.2\lvgl/src/lv_hal/../lv_misc/lv_color.h **** # define LV_COLOR_GET_R(c) LV_COLOR_GET_R16(c)
 177:..\..\..\lvgl\version_6.1.2\lvgl/src/lv_hal/../lv_misc/lv_color.h **** # if LV_COLOR_16_SWAP == 0
 178:..\..\..\lvgl\version_6.1.2\lvgl/src/lv_hal/../lv_misc/lv_color.h **** #   define LV_COLOR_GET_G(c) LV_COLOR_GET_G16(c)
 179:..\..\..\lvgl\version_6.1.2\lvgl/src/lv_hal/../lv_misc/lv_color.h **** # else
 180:..\..\..\lvgl\version_6.1.2\lvgl/src/lv_hal/../lv_misc/lv_color.h **** #   define LV_COLOR_GET_G(c) LV_COLOR_GET_G16_SWAP(c)
 181:..\..\..\lvgl\version_6.1.2\lvgl/src/lv_hal/../lv_misc/lv_color.h **** # endif
 182:..\..\..\lvgl\version_6.1.2\lvgl/src/lv_hal/../lv_misc/lv_color.h **** # define LV_COLOR_GET_B(c)   LV_COLOR_GET_B16(c)
 183:..\..\..\lvgl\version_6.1.2\lvgl/src/lv_hal/../lv_misc/lv_color.h **** # define LV_COLOR_GET_A(c)   LV_COLOR_GET_A16(c)
 184:..\..\..\lvgl\version_6.1.2\lvgl/src/lv_hal/../lv_misc/lv_color.h **** 
 185:..\..\..\lvgl\version_6.1.2\lvgl/src/lv_hal/../lv_misc/lv_color.h **** #elif LV_COLOR_DEPTH == 32
 186:..\..\..\lvgl\version_6.1.2\lvgl/src/lv_hal/../lv_misc/lv_color.h **** # define LV_COLOR_SET_R(c, v) LV_COLOR_SET_R32(c,v)
 187:..\..\..\lvgl\version_6.1.2\lvgl/src/lv_hal/../lv_misc/lv_color.h **** # define LV_COLOR_SET_G(c, v) LV_COLOR_SET_G32(c,v)
 188:..\..\..\lvgl\version_6.1.2\lvgl/src/lv_hal/../lv_misc/lv_color.h **** # define LV_COLOR_SET_B(c, v) LV_COLOR_SET_B32(c,v)
 189:..\..\..\lvgl\version_6.1.2\lvgl/src/lv_hal/../lv_misc/lv_color.h **** # define LV_COLOR_SET_A(c, v) LV_COLOR_SET_A32(c,v)
 190:..\..\..\lvgl\version_6.1.2\lvgl/src/lv_hal/../lv_misc/lv_color.h **** 
 191:..\..\..\lvgl\version_6.1.2\lvgl/src/lv_hal/../lv_misc/lv_color.h **** # define LV_COLOR_GET_R(c) LV_COLOR_GET_R32(c)
 192:..\..\..\lvgl\version_6.1.2\lvgl/src/lv_hal/../lv_misc/lv_color.h **** # define LV_COLOR_GET_G(c) LV_COLOR_GET_G32(c)
 193:..\..\..\lvgl\version_6.1.2\lvgl/src/lv_hal/../lv_misc/lv_color.h **** # define LV_COLOR_GET_B(c) LV_COLOR_GET_B32(c)
 194:..\..\..\lvgl\version_6.1.2\lvgl/src/lv_hal/../lv_misc/lv_color.h **** # define LV_COLOR_GET_A(c) LV_COLOR_GET_A32(c)
 195:..\..\..\lvgl\version_6.1.2\lvgl/src/lv_hal/../lv_misc/lv_color.h **** #endif
 196:..\..\..\lvgl\version_6.1.2\lvgl/src/lv_hal/../lv_misc/lv_color.h **** 
 197:..\..\..\lvgl\version_6.1.2\lvgl/src/lv_hal/../lv_misc/lv_color.h **** /**********************
 198:..\..\..\lvgl\version_6.1.2\lvgl/src/lv_hal/../lv_misc/lv_color.h ****  *      TYPEDEFS
 199:..\..\..\lvgl\version_6.1.2\lvgl/src/lv_hal/../lv_misc/lv_color.h ****  **********************/
 200:..\..\..\lvgl\version_6.1.2\lvgl/src/lv_hal/../lv_misc/lv_color.h **** 
ARM GAS  C:\Users\tmj32\AppData\Local\Temp\cch6Xcfo.s 			page 5


 201:..\..\..\lvgl\version_6.1.2\lvgl/src/lv_hal/../lv_misc/lv_color.h **** typedef union
 202:..\..\..\lvgl\version_6.1.2\lvgl/src/lv_hal/../lv_misc/lv_color.h **** {
 203:..\..\..\lvgl\version_6.1.2\lvgl/src/lv_hal/../lv_misc/lv_color.h ****     struct
 204:..\..\..\lvgl\version_6.1.2\lvgl/src/lv_hal/../lv_misc/lv_color.h ****     {
 205:..\..\..\lvgl\version_6.1.2\lvgl/src/lv_hal/../lv_misc/lv_color.h ****         uint8_t blue : 1;
 206:..\..\..\lvgl\version_6.1.2\lvgl/src/lv_hal/../lv_misc/lv_color.h ****         uint8_t green : 1;
 207:..\..\..\lvgl\version_6.1.2\lvgl/src/lv_hal/../lv_misc/lv_color.h ****         uint8_t red : 1;
 208:..\..\..\lvgl\version_6.1.2\lvgl/src/lv_hal/../lv_misc/lv_color.h ****     } ch;
 209:..\..\..\lvgl\version_6.1.2\lvgl/src/lv_hal/../lv_misc/lv_color.h ****     uint8_t full;
 210:..\..\..\lvgl\version_6.1.2\lvgl/src/lv_hal/../lv_misc/lv_color.h **** } lv_color1_t;
 211:..\..\..\lvgl\version_6.1.2\lvgl/src/lv_hal/../lv_misc/lv_color.h **** 
 212:..\..\..\lvgl\version_6.1.2\lvgl/src/lv_hal/../lv_misc/lv_color.h **** typedef union
 213:..\..\..\lvgl\version_6.1.2\lvgl/src/lv_hal/../lv_misc/lv_color.h **** {
 214:..\..\..\lvgl\version_6.1.2\lvgl/src/lv_hal/../lv_misc/lv_color.h ****     struct
 215:..\..\..\lvgl\version_6.1.2\lvgl/src/lv_hal/../lv_misc/lv_color.h ****     {
 216:..\..\..\lvgl\version_6.1.2\lvgl/src/lv_hal/../lv_misc/lv_color.h ****         uint8_t blue : 2;
 217:..\..\..\lvgl\version_6.1.2\lvgl/src/lv_hal/../lv_misc/lv_color.h ****         uint8_t green : 3;
 218:..\..\..\lvgl\version_6.1.2\lvgl/src/lv_hal/../lv_misc/lv_color.h ****         uint8_t red : 3;
 219:..\..\..\lvgl\version_6.1.2\lvgl/src/lv_hal/../lv_misc/lv_color.h ****     } ch;
 220:..\..\..\lvgl\version_6.1.2\lvgl/src/lv_hal/../lv_misc/lv_color.h ****     uint8_t full;
 221:..\..\..\lvgl\version_6.1.2\lvgl/src/lv_hal/../lv_misc/lv_color.h **** } lv_color8_t;
 222:..\..\..\lvgl\version_6.1.2\lvgl/src/lv_hal/../lv_misc/lv_color.h **** 
 223:..\..\..\lvgl\version_6.1.2\lvgl/src/lv_hal/../lv_misc/lv_color.h **** typedef union
 224:..\..\..\lvgl\version_6.1.2\lvgl/src/lv_hal/../lv_misc/lv_color.h **** {
 225:..\..\..\lvgl\version_6.1.2\lvgl/src/lv_hal/../lv_misc/lv_color.h ****     struct
 226:..\..\..\lvgl\version_6.1.2\lvgl/src/lv_hal/../lv_misc/lv_color.h ****     {
 227:..\..\..\lvgl\version_6.1.2\lvgl/src/lv_hal/../lv_misc/lv_color.h **** #if LV_COLOR_16_SWAP == 0
 228:..\..\..\lvgl\version_6.1.2\lvgl/src/lv_hal/../lv_misc/lv_color.h ****         uint16_t blue : 5;
 229:..\..\..\lvgl\version_6.1.2\lvgl/src/lv_hal/../lv_misc/lv_color.h ****         uint16_t green : 6;
 230:..\..\..\lvgl\version_6.1.2\lvgl/src/lv_hal/../lv_misc/lv_color.h ****         uint16_t red : 5;
 231:..\..\..\lvgl\version_6.1.2\lvgl/src/lv_hal/../lv_misc/lv_color.h **** #else
 232:..\..\..\lvgl\version_6.1.2\lvgl/src/lv_hal/../lv_misc/lv_color.h ****         uint16_t green_h : 3;
 233:..\..\..\lvgl\version_6.1.2\lvgl/src/lv_hal/../lv_misc/lv_color.h ****         uint16_t red : 5;
 234:..\..\..\lvgl\version_6.1.2\lvgl/src/lv_hal/../lv_misc/lv_color.h ****         uint16_t blue : 5;
 235:..\..\..\lvgl\version_6.1.2\lvgl/src/lv_hal/../lv_misc/lv_color.h ****         uint16_t green_l : 3;
 236:..\..\..\lvgl\version_6.1.2\lvgl/src/lv_hal/../lv_misc/lv_color.h **** #endif
 237:..\..\..\lvgl\version_6.1.2\lvgl/src/lv_hal/../lv_misc/lv_color.h ****     } ch;
 238:..\..\..\lvgl\version_6.1.2\lvgl/src/lv_hal/../lv_misc/lv_color.h ****     uint16_t full;
 239:..\..\..\lvgl\version_6.1.2\lvgl/src/lv_hal/../lv_misc/lv_color.h **** } lv_color16_t;
 240:..\..\..\lvgl\version_6.1.2\lvgl/src/lv_hal/../lv_misc/lv_color.h **** 
 241:..\..\..\lvgl\version_6.1.2\lvgl/src/lv_hal/../lv_misc/lv_color.h **** typedef union
 242:..\..\..\lvgl\version_6.1.2\lvgl/src/lv_hal/../lv_misc/lv_color.h **** {
 243:..\..\..\lvgl\version_6.1.2\lvgl/src/lv_hal/../lv_misc/lv_color.h ****     struct
 244:..\..\..\lvgl\version_6.1.2\lvgl/src/lv_hal/../lv_misc/lv_color.h ****     {
 245:..\..\..\lvgl\version_6.1.2\lvgl/src/lv_hal/../lv_misc/lv_color.h ****         uint8_t blue;
 246:..\..\..\lvgl\version_6.1.2\lvgl/src/lv_hal/../lv_misc/lv_color.h ****         uint8_t green;
 247:..\..\..\lvgl\version_6.1.2\lvgl/src/lv_hal/../lv_misc/lv_color.h ****         uint8_t red;
 248:..\..\..\lvgl\version_6.1.2\lvgl/src/lv_hal/../lv_misc/lv_color.h ****         uint8_t alpha;
 249:..\..\..\lvgl\version_6.1.2\lvgl/src/lv_hal/../lv_misc/lv_color.h ****     } ch;
 250:..\..\..\lvgl\version_6.1.2\lvgl/src/lv_hal/../lv_misc/lv_color.h ****     uint32_t full;
 251:..\..\..\lvgl\version_6.1.2\lvgl/src/lv_hal/../lv_misc/lv_color.h **** } lv_color32_t;
 252:..\..\..\lvgl\version_6.1.2\lvgl/src/lv_hal/../lv_misc/lv_color.h **** 
 253:..\..\..\lvgl\version_6.1.2\lvgl/src/lv_hal/../lv_misc/lv_color.h **** #if LV_COLOR_DEPTH == 1
 254:..\..\..\lvgl\version_6.1.2\lvgl/src/lv_hal/../lv_misc/lv_color.h **** typedef uint8_t lv_color_int_t;
 255:..\..\..\lvgl\version_6.1.2\lvgl/src/lv_hal/../lv_misc/lv_color.h **** typedef lv_color1_t lv_color_t;
 256:..\..\..\lvgl\version_6.1.2\lvgl/src/lv_hal/../lv_misc/lv_color.h **** #elif LV_COLOR_DEPTH == 8
 257:..\..\..\lvgl\version_6.1.2\lvgl/src/lv_hal/../lv_misc/lv_color.h **** typedef uint8_t lv_color_int_t;
ARM GAS  C:\Users\tmj32\AppData\Local\Temp\cch6Xcfo.s 			page 6


 258:..\..\..\lvgl\version_6.1.2\lvgl/src/lv_hal/../lv_misc/lv_color.h **** typedef lv_color8_t lv_color_t;
 259:..\..\..\lvgl\version_6.1.2\lvgl/src/lv_hal/../lv_misc/lv_color.h **** #elif LV_COLOR_DEPTH == 16
 260:..\..\..\lvgl\version_6.1.2\lvgl/src/lv_hal/../lv_misc/lv_color.h **** typedef uint16_t lv_color_int_t;
 261:..\..\..\lvgl\version_6.1.2\lvgl/src/lv_hal/../lv_misc/lv_color.h **** typedef lv_color16_t lv_color_t;
 262:..\..\..\lvgl\version_6.1.2\lvgl/src/lv_hal/../lv_misc/lv_color.h **** #elif LV_COLOR_DEPTH == 32
 263:..\..\..\lvgl\version_6.1.2\lvgl/src/lv_hal/../lv_misc/lv_color.h **** typedef uint32_t lv_color_int_t;
 264:..\..\..\lvgl\version_6.1.2\lvgl/src/lv_hal/../lv_misc/lv_color.h **** typedef lv_color32_t lv_color_t;
 265:..\..\..\lvgl\version_6.1.2\lvgl/src/lv_hal/../lv_misc/lv_color.h **** #else
 266:..\..\..\lvgl\version_6.1.2\lvgl/src/lv_hal/../lv_misc/lv_color.h **** #error "Invalid LV_COLOR_DEPTH in lv_conf.h! Set it to 1, 8, 16 or 32!"
 267:..\..\..\lvgl\version_6.1.2\lvgl/src/lv_hal/../lv_misc/lv_color.h **** #endif
 268:..\..\..\lvgl\version_6.1.2\lvgl/src/lv_hal/../lv_misc/lv_color.h **** 
 269:..\..\..\lvgl\version_6.1.2\lvgl/src/lv_hal/../lv_misc/lv_color.h **** typedef uint8_t lv_opa_t;
 270:..\..\..\lvgl\version_6.1.2\lvgl/src/lv_hal/../lv_misc/lv_color.h **** 
 271:..\..\..\lvgl\version_6.1.2\lvgl/src/lv_hal/../lv_misc/lv_color.h **** typedef struct
 272:..\..\..\lvgl\version_6.1.2\lvgl/src/lv_hal/../lv_misc/lv_color.h **** {
 273:..\..\..\lvgl\version_6.1.2\lvgl/src/lv_hal/../lv_misc/lv_color.h ****     uint16_t h;
 274:..\..\..\lvgl\version_6.1.2\lvgl/src/lv_hal/../lv_misc/lv_color.h ****     uint8_t s;
 275:..\..\..\lvgl\version_6.1.2\lvgl/src/lv_hal/../lv_misc/lv_color.h ****     uint8_t v;
 276:..\..\..\lvgl\version_6.1.2\lvgl/src/lv_hal/../lv_misc/lv_color.h **** } lv_color_hsv_t;
 277:..\..\..\lvgl\version_6.1.2\lvgl/src/lv_hal/../lv_misc/lv_color.h **** 
 278:..\..\..\lvgl\version_6.1.2\lvgl/src/lv_hal/../lv_misc/lv_color.h **** /**********************
 279:..\..\..\lvgl\version_6.1.2\lvgl/src/lv_hal/../lv_misc/lv_color.h ****  * GLOBAL PROTOTYPES
 280:..\..\..\lvgl\version_6.1.2\lvgl/src/lv_hal/../lv_misc/lv_color.h ****  **********************/
 281:..\..\..\lvgl\version_6.1.2\lvgl/src/lv_hal/../lv_misc/lv_color.h **** 
 282:..\..\..\lvgl\version_6.1.2\lvgl/src/lv_hal/../lv_misc/lv_color.h **** /*In color conversations:
 283:..\..\..\lvgl\version_6.1.2\lvgl/src/lv_hal/../lv_misc/lv_color.h ****  * - When converting to bigger color type the LSB weight of 1 LSB is calculated
 284:..\..\..\lvgl\version_6.1.2\lvgl/src/lv_hal/../lv_misc/lv_color.h ****  *   E.g. 16 bit Red has 5 bits
 285:..\..\..\lvgl\version_6.1.2\lvgl/src/lv_hal/../lv_misc/lv_color.h ****  *         8 bit Red has 2 bits
 286:..\..\..\lvgl\version_6.1.2\lvgl/src/lv_hal/../lv_misc/lv_color.h ****  *        ----------------------
 287:..\..\..\lvgl\version_6.1.2\lvgl/src/lv_hal/../lv_misc/lv_color.h ****  *        8 bit red LSB = (2^5 - 1) / (2^2 - 1) = 31 / 3 = 10
 288:..\..\..\lvgl\version_6.1.2\lvgl/src/lv_hal/../lv_misc/lv_color.h ****  *
 289:..\..\..\lvgl\version_6.1.2\lvgl/src/lv_hal/../lv_misc/lv_color.h ****  * - When calculating to smaller color type simply shift out the LSBs
 290:..\..\..\lvgl\version_6.1.2\lvgl/src/lv_hal/../lv_misc/lv_color.h ****  *   E.g.  8 bit Red has 2 bits
 291:..\..\..\lvgl\version_6.1.2\lvgl/src/lv_hal/../lv_misc/lv_color.h ****  *        16 bit Red has 5 bits
 292:..\..\..\lvgl\version_6.1.2\lvgl/src/lv_hal/../lv_misc/lv_color.h ****  *        ----------------------
 293:..\..\..\lvgl\version_6.1.2\lvgl/src/lv_hal/../lv_misc/lv_color.h ****  *         Shift right with 5 - 3 = 2
 294:..\..\..\lvgl\version_6.1.2\lvgl/src/lv_hal/../lv_misc/lv_color.h ****  */
 295:..\..\..\lvgl\version_6.1.2\lvgl/src/lv_hal/../lv_misc/lv_color.h **** 
 296:..\..\..\lvgl\version_6.1.2\lvgl/src/lv_hal/../lv_misc/lv_color.h **** static inline uint8_t lv_color_to1(lv_color_t color)
 297:..\..\..\lvgl\version_6.1.2\lvgl/src/lv_hal/../lv_misc/lv_color.h **** {
 298:..\..\..\lvgl\version_6.1.2\lvgl/src/lv_hal/../lv_misc/lv_color.h **** #if LV_COLOR_DEPTH == 1
 299:..\..\..\lvgl\version_6.1.2\lvgl/src/lv_hal/../lv_misc/lv_color.h ****     return color.full;
 300:..\..\..\lvgl\version_6.1.2\lvgl/src/lv_hal/../lv_misc/lv_color.h **** #elif LV_COLOR_DEPTH == 8
 301:..\..\..\lvgl\version_6.1.2\lvgl/src/lv_hal/../lv_misc/lv_color.h ****     if((LV_COLOR_GET_R(color) & 0x4) || (LV_COLOR_GET_G(color) & 0x4) || (LV_COLOR_GET_B(color) & 0
 302:..\..\..\lvgl\version_6.1.2\lvgl/src/lv_hal/../lv_misc/lv_color.h ****         return 1;
 303:..\..\..\lvgl\version_6.1.2\lvgl/src/lv_hal/../lv_misc/lv_color.h ****     } else {
 304:..\..\..\lvgl\version_6.1.2\lvgl/src/lv_hal/../lv_misc/lv_color.h ****         return 0;
 305:..\..\..\lvgl\version_6.1.2\lvgl/src/lv_hal/../lv_misc/lv_color.h ****     }
 306:..\..\..\lvgl\version_6.1.2\lvgl/src/lv_hal/../lv_misc/lv_color.h **** #elif LV_COLOR_DEPTH == 16
 307:..\..\..\lvgl\version_6.1.2\lvgl/src/lv_hal/../lv_misc/lv_color.h ****     if((LV_COLOR_GET_R(color) & 0x10) || (LV_COLOR_GET_G(color) & 0x20) || (LV_COLOR_GET_B(color) &
 308:..\..\..\lvgl\version_6.1.2\lvgl/src/lv_hal/../lv_misc/lv_color.h ****         return 1;
 309:..\..\..\lvgl\version_6.1.2\lvgl/src/lv_hal/../lv_misc/lv_color.h ****     } else {
 310:..\..\..\lvgl\version_6.1.2\lvgl/src/lv_hal/../lv_misc/lv_color.h ****         return 0;
 311:..\..\..\lvgl\version_6.1.2\lvgl/src/lv_hal/../lv_misc/lv_color.h ****     }
 312:..\..\..\lvgl\version_6.1.2\lvgl/src/lv_hal/../lv_misc/lv_color.h **** #elif LV_COLOR_DEPTH == 32
 313:..\..\..\lvgl\version_6.1.2\lvgl/src/lv_hal/../lv_misc/lv_color.h ****     if((LV_COLOR_GET_R(color) & 0x80) || (LV_COLOR_GET_G(color) & 0x80) || (LV_COLOR_GET_B(color) &
 314:..\..\..\lvgl\version_6.1.2\lvgl/src/lv_hal/../lv_misc/lv_color.h ****         return 1;
ARM GAS  C:\Users\tmj32\AppData\Local\Temp\cch6Xcfo.s 			page 7


 315:..\..\..\lvgl\version_6.1.2\lvgl/src/lv_hal/../lv_misc/lv_color.h ****     } else {
 316:..\..\..\lvgl\version_6.1.2\lvgl/src/lv_hal/../lv_misc/lv_color.h ****         return 0;
 317:..\..\..\lvgl\version_6.1.2\lvgl/src/lv_hal/../lv_misc/lv_color.h ****     }
 318:..\..\..\lvgl\version_6.1.2\lvgl/src/lv_hal/../lv_misc/lv_color.h **** #endif
 319:..\..\..\lvgl\version_6.1.2\lvgl/src/lv_hal/../lv_misc/lv_color.h **** }
 320:..\..\..\lvgl\version_6.1.2\lvgl/src/lv_hal/../lv_misc/lv_color.h **** 
 321:..\..\..\lvgl\version_6.1.2\lvgl/src/lv_hal/../lv_misc/lv_color.h **** static inline uint8_t lv_color_to8(lv_color_t color)
 322:..\..\..\lvgl\version_6.1.2\lvgl/src/lv_hal/../lv_misc/lv_color.h **** {
 323:..\..\..\lvgl\version_6.1.2\lvgl/src/lv_hal/../lv_misc/lv_color.h **** #if LV_COLOR_DEPTH == 1
 324:..\..\..\lvgl\version_6.1.2\lvgl/src/lv_hal/../lv_misc/lv_color.h ****     if(color.full == 0)
 325:..\..\..\lvgl\version_6.1.2\lvgl/src/lv_hal/../lv_misc/lv_color.h ****         return 0;
 326:..\..\..\lvgl\version_6.1.2\lvgl/src/lv_hal/../lv_misc/lv_color.h ****     else
 327:..\..\..\lvgl\version_6.1.2\lvgl/src/lv_hal/../lv_misc/lv_color.h ****         return 0xFF;
 328:..\..\..\lvgl\version_6.1.2\lvgl/src/lv_hal/../lv_misc/lv_color.h **** #elif LV_COLOR_DEPTH == 8
 329:..\..\..\lvgl\version_6.1.2\lvgl/src/lv_hal/../lv_misc/lv_color.h ****     return color.full;
 330:..\..\..\lvgl\version_6.1.2\lvgl/src/lv_hal/../lv_misc/lv_color.h **** #elif LV_COLOR_DEPTH == 16
 331:..\..\..\lvgl\version_6.1.2\lvgl/src/lv_hal/../lv_misc/lv_color.h ****     lv_color8_t ret;
 332:..\..\..\lvgl\version_6.1.2\lvgl/src/lv_hal/../lv_misc/lv_color.h ****     LV_COLOR_SET_R8(ret, LV_COLOR_GET_R(color) >> 2);   /* 5 - 3  = 2*/
 333:..\..\..\lvgl\version_6.1.2\lvgl/src/lv_hal/../lv_misc/lv_color.h ****     LV_COLOR_SET_G8(ret, LV_COLOR_GET_G(color) >> 3); /* 6 - 3  = 3*/
 334:..\..\..\lvgl\version_6.1.2\lvgl/src/lv_hal/../lv_misc/lv_color.h ****     LV_COLOR_SET_B8(ret, LV_COLOR_GET_B(color) >> 3);  /* 5 - 2  = 3*/
 335:..\..\..\lvgl\version_6.1.2\lvgl/src/lv_hal/../lv_misc/lv_color.h ****     return ret.full;
 336:..\..\..\lvgl\version_6.1.2\lvgl/src/lv_hal/../lv_misc/lv_color.h **** #elif LV_COLOR_DEPTH == 32
 337:..\..\..\lvgl\version_6.1.2\lvgl/src/lv_hal/../lv_misc/lv_color.h ****     lv_color8_t ret;
 338:..\..\..\lvgl\version_6.1.2\lvgl/src/lv_hal/../lv_misc/lv_color.h ****     LV_COLOR_SET_R8(ret, LV_COLOR_GET_R(color) >> 5);   /* 8 - 3  = 5*/
 339:..\..\..\lvgl\version_6.1.2\lvgl/src/lv_hal/../lv_misc/lv_color.h ****     LV_COLOR_SET_G8(ret, LV_COLOR_GET_G(color) >> 5); /* 8 - 3  = 5*/
 340:..\..\..\lvgl\version_6.1.2\lvgl/src/lv_hal/../lv_misc/lv_color.h ****     LV_COLOR_SET_B8(ret, LV_COLOR_GET_B(color) >> 6);  /* 8 - 2  = 6*/
 341:..\..\..\lvgl\version_6.1.2\lvgl/src/lv_hal/../lv_misc/lv_color.h ****     return ret.full;
 342:..\..\..\lvgl\version_6.1.2\lvgl/src/lv_hal/../lv_misc/lv_color.h **** #endif
 343:..\..\..\lvgl\version_6.1.2\lvgl/src/lv_hal/../lv_misc/lv_color.h **** }
 344:..\..\..\lvgl\version_6.1.2\lvgl/src/lv_hal/../lv_misc/lv_color.h **** 
 345:..\..\..\lvgl\version_6.1.2\lvgl/src/lv_hal/../lv_misc/lv_color.h **** static inline uint16_t lv_color_to16(lv_color_t color)
 346:..\..\..\lvgl\version_6.1.2\lvgl/src/lv_hal/../lv_misc/lv_color.h **** {
 347:..\..\..\lvgl\version_6.1.2\lvgl/src/lv_hal/../lv_misc/lv_color.h **** #if LV_COLOR_DEPTH == 1
 348:..\..\..\lvgl\version_6.1.2\lvgl/src/lv_hal/../lv_misc/lv_color.h ****     if(color.full == 0)
 349:..\..\..\lvgl\version_6.1.2\lvgl/src/lv_hal/../lv_misc/lv_color.h ****         return 0;
 350:..\..\..\lvgl\version_6.1.2\lvgl/src/lv_hal/../lv_misc/lv_color.h ****     else
 351:..\..\..\lvgl\version_6.1.2\lvgl/src/lv_hal/../lv_misc/lv_color.h ****         return 0xFFFF;
 352:..\..\..\lvgl\version_6.1.2\lvgl/src/lv_hal/../lv_misc/lv_color.h **** #elif LV_COLOR_DEPTH == 8
 353:..\..\..\lvgl\version_6.1.2\lvgl/src/lv_hal/../lv_misc/lv_color.h ****     lv_color16_t ret;
 354:..\..\..\lvgl\version_6.1.2\lvgl/src/lv_hal/../lv_misc/lv_color.h ****     LV_COLOR_SET_R16(ret, LV_COLOR_GET_R(color) * 4);     /*(2^5 - 1)/(2^3 - 1) = 31/7 = 4*/
 355:..\..\..\lvgl\version_6.1.2\lvgl/src/lv_hal/../lv_misc/lv_color.h **** #if LV_COLOR_16_SWAP == 0
 356:..\..\..\lvgl\version_6.1.2\lvgl/src/lv_hal/../lv_misc/lv_color.h ****     LV_COLOR_SET_G16(ret,  LV_COLOR_GET_G(color) * 9); /*(2^6 - 1)/(2^3 - 1) = 63/7 = 9*/
 357:..\..\..\lvgl\version_6.1.2\lvgl/src/lv_hal/../lv_misc/lv_color.h **** #else
 358:..\..\..\lvgl\version_6.1.2\lvgl/src/lv_hal/../lv_misc/lv_color.h ****     LV_COLOR_SET_G16_SWAP(ret, (LV_COLOR_GET_G(color) * 9)); /*(2^6 - 1)/(2^3 - 1) = 63/7 = 9*/
 359:..\..\..\lvgl\version_6.1.2\lvgl/src/lv_hal/../lv_misc/lv_color.h **** #endif
 360:..\..\..\lvgl\version_6.1.2\lvgl/src/lv_hal/../lv_misc/lv_color.h ****     LV_COLOR_SET_B16(ret, LV_COLOR_GET_B(color) * 10);  /*(2^5 - 1)/(2^2 - 1) = 31/3 = 10*/
 361:..\..\..\lvgl\version_6.1.2\lvgl/src/lv_hal/../lv_misc/lv_color.h ****     return ret.full;
 362:..\..\..\lvgl\version_6.1.2\lvgl/src/lv_hal/../lv_misc/lv_color.h **** #elif LV_COLOR_DEPTH == 16
 363:..\..\..\lvgl\version_6.1.2\lvgl/src/lv_hal/../lv_misc/lv_color.h ****     return color.full;
 364:..\..\..\lvgl\version_6.1.2\lvgl/src/lv_hal/../lv_misc/lv_color.h **** #elif LV_COLOR_DEPTH == 32
 365:..\..\..\lvgl\version_6.1.2\lvgl/src/lv_hal/../lv_misc/lv_color.h ****     lv_color16_t ret;
 366:..\..\..\lvgl\version_6.1.2\lvgl/src/lv_hal/../lv_misc/lv_color.h ****     LV_COLOR_SET_R16(ret, LV_COLOR_GET_R(color) >> 3);   /* 8 - 5  = 3*/
 367:..\..\..\lvgl\version_6.1.2\lvgl/src/lv_hal/../lv_misc/lv_color.h **** 
 368:..\..\..\lvgl\version_6.1.2\lvgl/src/lv_hal/../lv_misc/lv_color.h **** #if LV_COLOR_16_SWAP == 0
 369:..\..\..\lvgl\version_6.1.2\lvgl/src/lv_hal/../lv_misc/lv_color.h ****     LV_COLOR_SET_G16(ret, LV_COLOR_GET_G(color) >> 2); /* 8 - 6  = 2*/
 370:..\..\..\lvgl\version_6.1.2\lvgl/src/lv_hal/../lv_misc/lv_color.h **** #else
 371:..\..\..\lvgl\version_6.1.2\lvgl/src/lv_hal/../lv_misc/lv_color.h ****     LV_COLOR_SET_G16_SWAP(ret, ret.ch.green_h = (LV_COLOR_GET_G(color) >> 2); /*(2^6 - 1)/(2^3 - 1)
ARM GAS  C:\Users\tmj32\AppData\Local\Temp\cch6Xcfo.s 			page 8


 372:..\..\..\lvgl\version_6.1.2\lvgl/src/lv_hal/../lv_misc/lv_color.h **** #endif
 373:..\..\..\lvgl\version_6.1.2\lvgl/src/lv_hal/../lv_misc/lv_color.h ****     LV_COLOR_SET_B16(ret, LV_COLOR_GET_B(color) >> 3);  /* 8 - 5  = 3*/
 374:..\..\..\lvgl\version_6.1.2\lvgl/src/lv_hal/../lv_misc/lv_color.h ****     return ret.full;
 375:..\..\..\lvgl\version_6.1.2\lvgl/src/lv_hal/../lv_misc/lv_color.h **** #endif                         
 376:..\..\..\lvgl\version_6.1.2\lvgl/src/lv_hal/../lv_misc/lv_color.h **** }
 377:..\..\..\lvgl\version_6.1.2\lvgl/src/lv_hal/../lv_misc/lv_color.h **** 
 378:..\..\..\lvgl\version_6.1.2\lvgl/src/lv_hal/../lv_misc/lv_color.h **** static inline uint32_t lv_color_to32(lv_color_t color)
 379:..\..\..\lvgl\version_6.1.2\lvgl/src/lv_hal/../lv_misc/lv_color.h **** {
 380:..\..\..\lvgl\version_6.1.2\lvgl/src/lv_hal/../lv_misc/lv_color.h **** #if LV_COLOR_DEPTH == 1
 381:..\..\..\lvgl\version_6.1.2\lvgl/src/lv_hal/../lv_misc/lv_color.h ****     if(color.full == 0)
 382:..\..\..\lvgl\version_6.1.2\lvgl/src/lv_hal/../lv_misc/lv_color.h ****         return 0;
 383:..\..\..\lvgl\version_6.1.2\lvgl/src/lv_hal/../lv_misc/lv_color.h ****     else
 384:..\..\..\lvgl\version_6.1.2\lvgl/src/lv_hal/../lv_misc/lv_color.h ****         return 0xFFFFFFFF;
 385:..\..\..\lvgl\version_6.1.2\lvgl/src/lv_hal/../lv_misc/lv_color.h **** #elif LV_COLOR_DEPTH == 8
 386:..\..\..\lvgl\version_6.1.2\lvgl/src/lv_hal/../lv_misc/lv_color.h ****     lv_color32_t ret;
 387:..\..\..\lvgl\version_6.1.2\lvgl/src/lv_hal/../lv_misc/lv_color.h ****     LV_COLOR_SET_R32(ret, LV_COLOR_GET_R(color) * 36);     /*(2^8 - 1)/(2^3 - 1) = 255/7 = 36*/
 388:..\..\..\lvgl\version_6.1.2\lvgl/src/lv_hal/../lv_misc/lv_color.h ****     LV_COLOR_SET_G32(ret, LV_COLOR_GET_G(color) * 36); /*(2^8 - 1)/(2^3 - 1) = 255/7 = 36*/
 389:..\..\..\lvgl\version_6.1.2\lvgl/src/lv_hal/../lv_misc/lv_color.h ****     LV_COLOR_SET_B32(ret, LV_COLOR_GET_B(color) * 85);   /*(2^8 - 1)/(2^2 - 1) = 255/3 = 85*/
 390:..\..\..\lvgl\version_6.1.2\lvgl/src/lv_hal/../lv_misc/lv_color.h ****     LV_COLOR_SET_A32(ret, 0xFF);
 391:..\..\..\lvgl\version_6.1.2\lvgl/src/lv_hal/../lv_misc/lv_color.h ****     return ret.full;
 392:..\..\..\lvgl\version_6.1.2\lvgl/src/lv_hal/../lv_misc/lv_color.h **** #elif LV_COLOR_DEPTH == 16
 393:..\..\..\lvgl\version_6.1.2\lvgl/src/lv_hal/../lv_misc/lv_color.h ****     /**
 394:..\..\..\lvgl\version_6.1.2\lvgl/src/lv_hal/../lv_misc/lv_color.h ****      * The floating point math for conversion is:
 395:..\..\..\lvgl\version_6.1.2\lvgl/src/lv_hal/../lv_misc/lv_color.h ****      *  valueto = valuefrom * ( (2^bitsto - 1) / (float)(2^bitsfrom - 1) )
 396:..\..\..\lvgl\version_6.1.2\lvgl/src/lv_hal/../lv_misc/lv_color.h ****      * The faster integer math for conversion is:
 397:..\..\..\lvgl\version_6.1.2\lvgl/src/lv_hal/../lv_misc/lv_color.h ****      *  valueto = ( valuefrom * multiplier + adder ) >> divisor
 398:..\..\..\lvgl\version_6.1.2\lvgl/src/lv_hal/../lv_misc/lv_color.h ****      *   multiplier = FLOOR( ( (2^bitsto - 1) << divisor ) / (float)(2^bitsfrom - 1) )
 399:..\..\..\lvgl\version_6.1.2\lvgl/src/lv_hal/../lv_misc/lv_color.h ****      * 
 400:..\..\..\lvgl\version_6.1.2\lvgl/src/lv_hal/../lv_misc/lv_color.h ****      * Find the first divisor where ( adder >> divisor ) <= 0
 401:..\..\..\lvgl\version_6.1.2\lvgl/src/lv_hal/../lv_misc/lv_color.h ****      * 
 402:..\..\..\lvgl\version_6.1.2\lvgl/src/lv_hal/../lv_misc/lv_color.h ****      * 5-bit to 8-bit: ( 31 * multiplier + adder ) >> divisor = 255
 403:..\..\..\lvgl\version_6.1.2\lvgl/src/lv_hal/../lv_misc/lv_color.h ****      * divisor  multiplier  adder  min (0)  max (31)
 404:..\..\..\lvgl\version_6.1.2\lvgl/src/lv_hal/../lv_misc/lv_color.h ****      *       0           8      7        7       255
 405:..\..\..\lvgl\version_6.1.2\lvgl/src/lv_hal/../lv_misc/lv_color.h ****      *       1          16     14        7       255
 406:..\..\..\lvgl\version_6.1.2\lvgl/src/lv_hal/../lv_misc/lv_color.h ****      *       2          32     28        7       255
 407:..\..\..\lvgl\version_6.1.2\lvgl/src/lv_hal/../lv_misc/lv_color.h ****      *       3          65     25        3       255
 408:..\..\..\lvgl\version_6.1.2\lvgl/src/lv_hal/../lv_misc/lv_color.h ****      *       4         131     19        1       255
 409:..\..\..\lvgl\version_6.1.2\lvgl/src/lv_hal/../lv_misc/lv_color.h ****      *       5         263      7        0       255
 410:..\..\..\lvgl\version_6.1.2\lvgl/src/lv_hal/../lv_misc/lv_color.h ****      * 
 411:..\..\..\lvgl\version_6.1.2\lvgl/src/lv_hal/../lv_misc/lv_color.h ****      * 6-bit to 8-bit: 255 = ( 63 * multiplier + adder ) >> divisor
 412:..\..\..\lvgl\version_6.1.2\lvgl/src/lv_hal/../lv_misc/lv_color.h ****      * divisor  multiplier  adder  min (0)  max (63)
 413:..\..\..\lvgl\version_6.1.2\lvgl/src/lv_hal/../lv_misc/lv_color.h ****      *       0           4      3        3       255
 414:..\..\..\lvgl\version_6.1.2\lvgl/src/lv_hal/../lv_misc/lv_color.h ****      *       1           8      6        3       255
 415:..\..\..\lvgl\version_6.1.2\lvgl/src/lv_hal/../lv_misc/lv_color.h ****      *       2          16     12        3       255
 416:..\..\..\lvgl\version_6.1.2\lvgl/src/lv_hal/../lv_misc/lv_color.h ****      *       3          32     24        3       255
 417:..\..\..\lvgl\version_6.1.2\lvgl/src/lv_hal/../lv_misc/lv_color.h ****      *       4          64     48        3       255
 418:..\..\..\lvgl\version_6.1.2\lvgl/src/lv_hal/../lv_misc/lv_color.h ****      *       5         129     33        1       255
 419:..\..\..\lvgl\version_6.1.2\lvgl/src/lv_hal/../lv_misc/lv_color.h ****      *       6         259      3        0       255
 420:..\..\..\lvgl\version_6.1.2\lvgl/src/lv_hal/../lv_misc/lv_color.h ****      */
 421:..\..\..\lvgl\version_6.1.2\lvgl/src/lv_hal/../lv_misc/lv_color.h ****     lv_color32_t ret;
 422:..\..\..\lvgl\version_6.1.2\lvgl/src/lv_hal/../lv_misc/lv_color.h ****     LV_COLOR_SET_R32(ret, (LV_COLOR_GET_R(color) * 263 + 7 ) >> 5);
 423:..\..\..\lvgl\version_6.1.2\lvgl/src/lv_hal/../lv_misc/lv_color.h ****     LV_COLOR_SET_G32(ret, (LV_COLOR_GET_G(color) * 259 + 3 ) >> 6);
 424:..\..\..\lvgl\version_6.1.2\lvgl/src/lv_hal/../lv_misc/lv_color.h ****     LV_COLOR_SET_B32(ret, (LV_COLOR_GET_B(color) * 263 + 7 ) >> 5);
 425:..\..\..\lvgl\version_6.1.2\lvgl/src/lv_hal/../lv_misc/lv_color.h ****     LV_COLOR_SET_A32(ret, 0xFF);
 426:..\..\..\lvgl\version_6.1.2\lvgl/src/lv_hal/../lv_misc/lv_color.h ****     return ret.full;
 427:..\..\..\lvgl\version_6.1.2\lvgl/src/lv_hal/../lv_misc/lv_color.h **** #elif LV_COLOR_DEPTH == 32
 428:..\..\..\lvgl\version_6.1.2\lvgl/src/lv_hal/../lv_misc/lv_color.h ****     return color.full;
ARM GAS  C:\Users\tmj32\AppData\Local\Temp\cch6Xcfo.s 			page 9


 429:..\..\..\lvgl\version_6.1.2\lvgl/src/lv_hal/../lv_misc/lv_color.h **** #endif
 430:..\..\..\lvgl\version_6.1.2\lvgl/src/lv_hal/../lv_misc/lv_color.h **** }
 431:..\..\..\lvgl\version_6.1.2\lvgl/src/lv_hal/../lv_misc/lv_color.h **** 
 432:..\..\..\lvgl\version_6.1.2\lvgl/src/lv_hal/../lv_misc/lv_color.h **** static inline lv_color_t lv_color_mix(lv_color_t c1, lv_color_t c2, uint8_t mix)
 433:..\..\..\lvgl\version_6.1.2\lvgl/src/lv_hal/../lv_misc/lv_color.h **** {
 434:..\..\..\lvgl\version_6.1.2\lvgl/src/lv_hal/../lv_misc/lv_color.h ****     lv_color_t ret;
 435:..\..\..\lvgl\version_6.1.2\lvgl/src/lv_hal/../lv_misc/lv_color.h **** #if LV_COLOR_DEPTH != 1
 436:..\..\..\lvgl\version_6.1.2\lvgl/src/lv_hal/../lv_misc/lv_color.h ****     /*LV_COLOR_DEPTH == 8, 16 or 32*/
 437:..\..\..\lvgl\version_6.1.2\lvgl/src/lv_hal/../lv_misc/lv_color.h ****     LV_COLOR_SET_R(ret, (uint16_t)((uint16_t) LV_COLOR_GET_R(c1) * mix + LV_COLOR_GET_R(c2) * (255 
 438:..\..\..\lvgl\version_6.1.2\lvgl/src/lv_hal/../lv_misc/lv_color.h ****     LV_COLOR_SET_G(ret, (uint16_t)((uint16_t) LV_COLOR_GET_G(c1) * mix + LV_COLOR_GET_G(c2) * (255 
 439:..\..\..\lvgl\version_6.1.2\lvgl/src/lv_hal/../lv_misc/lv_color.h ****     LV_COLOR_SET_B(ret, (uint16_t)((uint16_t) LV_COLOR_GET_B(c1) * mix + LV_COLOR_GET_B(c2) * (255 
 440:..\..\..\lvgl\version_6.1.2\lvgl/src/lv_hal/../lv_misc/lv_color.h ****     LV_COLOR_SET_A(ret, 0xFF);
 441:..\..\..\lvgl\version_6.1.2\lvgl/src/lv_hal/../lv_misc/lv_color.h **** #else
 442:..\..\..\lvgl\version_6.1.2\lvgl/src/lv_hal/../lv_misc/lv_color.h ****     /*LV_COLOR_DEPTH == 1*/
 443:..\..\..\lvgl\version_6.1.2\lvgl/src/lv_hal/../lv_misc/lv_color.h ****     ret.full = mix > LV_OPA_50 ? c1.full : c2.full;
 444:..\..\..\lvgl\version_6.1.2\lvgl/src/lv_hal/../lv_misc/lv_color.h **** #endif
 445:..\..\..\lvgl\version_6.1.2\lvgl/src/lv_hal/../lv_misc/lv_color.h **** 
 446:..\..\..\lvgl\version_6.1.2\lvgl/src/lv_hal/../lv_misc/lv_color.h ****     return ret;
 447:..\..\..\lvgl\version_6.1.2\lvgl/src/lv_hal/../lv_misc/lv_color.h **** }
 448:..\..\..\lvgl\version_6.1.2\lvgl/src/lv_hal/../lv_misc/lv_color.h **** 
 449:..\..\..\lvgl\version_6.1.2\lvgl/src/lv_hal/../lv_misc/lv_color.h **** /**
 450:..\..\..\lvgl\version_6.1.2\lvgl/src/lv_hal/../lv_misc/lv_color.h ****  * Get the brightness of a color
 451:..\..\..\lvgl\version_6.1.2\lvgl/src/lv_hal/../lv_misc/lv_color.h ****  * @param color a color
 452:..\..\..\lvgl\version_6.1.2\lvgl/src/lv_hal/../lv_misc/lv_color.h ****  * @return the brightness [0..255]
 453:..\..\..\lvgl\version_6.1.2\lvgl/src/lv_hal/../lv_misc/lv_color.h ****  */
 454:..\..\..\lvgl\version_6.1.2\lvgl/src/lv_hal/../lv_misc/lv_color.h **** static inline uint8_t lv_color_brightness(lv_color_t color)
 455:..\..\..\lvgl\version_6.1.2\lvgl/src/lv_hal/../lv_misc/lv_color.h **** {
 456:..\..\..\lvgl\version_6.1.2\lvgl/src/lv_hal/../lv_misc/lv_color.h ****     lv_color32_t c32;
 457:..\..\..\lvgl\version_6.1.2\lvgl/src/lv_hal/../lv_misc/lv_color.h ****     c32.full        = lv_color_to32(color);
 458:..\..\..\lvgl\version_6.1.2\lvgl/src/lv_hal/../lv_misc/lv_color.h ****     uint16_t bright = (uint16_t)(3u * LV_COLOR_GET_R32(c32) + LV_COLOR_GET_B32(c32) + 4u * LV_COLOR
 459:..\..\..\lvgl\version_6.1.2\lvgl/src/lv_hal/../lv_misc/lv_color.h ****     return (uint8_t)(bright >> 3);
 460:..\..\..\lvgl\version_6.1.2\lvgl/src/lv_hal/../lv_misc/lv_color.h **** }
 461:..\..\..\lvgl\version_6.1.2\lvgl/src/lv_hal/../lv_misc/lv_color.h **** 
 462:..\..\..\lvgl\version_6.1.2\lvgl/src/lv_hal/../lv_misc/lv_color.h **** /* The most simple macro to create a color from R,G and B values */
 463:..\..\..\lvgl\version_6.1.2\lvgl/src/lv_hal/../lv_misc/lv_color.h **** #if LV_COLOR_DEPTH == 1
 464:..\..\..\lvgl\version_6.1.2\lvgl/src/lv_hal/../lv_misc/lv_color.h **** #define LV_COLOR_MAKE(r8, g8, b8) ((lv_color_t){.full = (uint8_t)((b8 >> 7) | (g8 >> 7) | (r8 >> 7)
 465:..\..\..\lvgl\version_6.1.2\lvgl/src/lv_hal/../lv_misc/lv_color.h **** #elif LV_COLOR_DEPTH == 8
 466:..\..\..\lvgl\version_6.1.2\lvgl/src/lv_hal/../lv_misc/lv_color.h **** #define LV_COLOR_MAKE(r8, g8, b8) ((lv_color_t){{(uint8_t)((b8 >> 6) & 0x3U), (uint8_t)((g8 >> 5) &
 467:..\..\..\lvgl\version_6.1.2\lvgl/src/lv_hal/../lv_misc/lv_color.h **** #elif LV_COLOR_DEPTH == 16
 468:..\..\..\lvgl\version_6.1.2\lvgl/src/lv_hal/../lv_misc/lv_color.h **** #if LV_COLOR_16_SWAP == 0
 469:..\..\..\lvgl\version_6.1.2\lvgl/src/lv_hal/../lv_misc/lv_color.h **** #define LV_COLOR_MAKE(r8, g8, b8) ((lv_color_t){{(uint16_t)((b8 >> 3) & 0x1FU), (uint16_t)((g8 >> 2
 470:..\..\..\lvgl\version_6.1.2\lvgl/src/lv_hal/../lv_misc/lv_color.h **** #else
 471:..\..\..\lvgl\version_6.1.2\lvgl/src/lv_hal/../lv_misc/lv_color.h **** #define LV_COLOR_MAKE(r8, g8, b8) ((lv_color_t){{(uint16_t)((g8 >> 5) & 0x7U), (uint16_t)((r8 >> 3)
 472:..\..\..\lvgl\version_6.1.2\lvgl/src/lv_hal/../lv_misc/lv_color.h **** #endif
 473:..\..\..\lvgl\version_6.1.2\lvgl/src/lv_hal/../lv_misc/lv_color.h **** #elif LV_COLOR_DEPTH == 32
 474:..\..\..\lvgl\version_6.1.2\lvgl/src/lv_hal/../lv_misc/lv_color.h **** #define LV_COLOR_MAKE(r8, g8, b8) ((lv_color_t){{b8, g8, r8, 0xff}}) /*Fix 0xff alpha*/
 475:..\..\..\lvgl\version_6.1.2\lvgl/src/lv_hal/../lv_misc/lv_color.h **** #endif
 476:..\..\..\lvgl\version_6.1.2\lvgl/src/lv_hal/../lv_misc/lv_color.h **** 
 477:..\..\..\lvgl\version_6.1.2\lvgl/src/lv_hal/../lv_misc/lv_color.h **** static inline lv_color_t lv_color_make(uint8_t r, uint8_t g, uint8_t b)
 478:..\..\..\lvgl\version_6.1.2\lvgl/src/lv_hal/../lv_misc/lv_color.h **** {
  29              		.loc 1 478 0
  30              		.cfi_startproc
  31              		@ args = 0, pretend = 0, frame = 8
  32              		@ frame_needed = 1, uses_anonymous_args = 0
  33              		@ link register save eliminated.
  34 0000 90B4     		push	{r4, r7}
  35              		.cfi_def_cfa_offset 8
ARM GAS  C:\Users\tmj32\AppData\Local\Temp\cch6Xcfo.s 			page 10


  36              		.cfi_offset 4, -8
  37              		.cfi_offset 7, -4
  38 0002 82B0     		sub	sp, sp, #8
  39              		.cfi_def_cfa_offset 16
  40 0004 00AF     		add	r7, sp, #0
  41              		.cfi_def_cfa_register 7
  42 0006 0446     		mov	r4, r0
  43 0008 0846     		mov	r0, r1
  44 000a 1146     		mov	r1, r2
  45 000c 2246     		mov	r2, r4
  46 000e FA71     		strb	r2, [r7, #7]
  47 0010 0246     		mov	r2, r0
  48 0012 BA71     		strb	r2, [r7, #6]
  49 0014 0A46     		mov	r2, r1
  50 0016 7A71     		strb	r2, [r7, #5]
 479:..\..\..\lvgl\version_6.1.2\lvgl/src/lv_hal/../lv_misc/lv_color.h ****     return LV_COLOR_MAKE(r, g, b);
  51              		.loc 1 479 0
  52 0018 7A79     		ldrb	r2, [r7, #5]
  53 001a 62F30703 		bfi	r3, r2, #0, #8
  54 001e BA79     		ldrb	r2, [r7, #6]
  55 0020 62F30F23 		bfi	r3, r2, #8, #8
  56 0024 FA79     		ldrb	r2, [r7, #7]
  57 0026 62F31743 		bfi	r3, r2, #16, #8
  58 002a 43F07F43 		orr	r3, r3, #-16777216
 480:..\..\..\lvgl\version_6.1.2\lvgl/src/lv_hal/../lv_misc/lv_color.h **** }
  59              		.loc 1 480 0
  60 002e 1846     		mov	r0, r3
  61 0030 0837     		adds	r7, r7, #8
  62              		.cfi_def_cfa_offset 8
  63 0032 BD46     		mov	sp, r7
  64              		.cfi_def_cfa_register 13
  65              		@ sp needed
  66 0034 90BC     		pop	{r4, r7}
  67              		.cfi_restore 7
  68              		.cfi_restore 4
  69              		.cfi_def_cfa_offset 0
  70 0036 7047     		bx	lr
  71              		.cfi_endproc
  72              	.LFE588:
  73              		.size	lv_color_make, .-lv_color_make
  74              		.section	.text.lv_color_hex,"ax",%progbits
  75              		.align	2
  76              		.thumb
  77              		.thumb_func
  78              		.type	lv_color_hex, %function
  79              	lv_color_hex:
  80              	.LFB589:
 481:..\..\..\lvgl\version_6.1.2\lvgl/src/lv_hal/../lv_misc/lv_color.h **** 
 482:..\..\..\lvgl\version_6.1.2\lvgl/src/lv_hal/../lv_misc/lv_color.h **** static inline lv_color_t lv_color_hex(uint32_t c)
 483:..\..\..\lvgl\version_6.1.2\lvgl/src/lv_hal/../lv_misc/lv_color.h **** {
  81              		.loc 1 483 0
  82              		.cfi_startproc
  83              		@ args = 0, pretend = 0, frame = 8
  84              		@ frame_needed = 1, uses_anonymous_args = 0
  85 0000 80B5     		push	{r7, lr}
  86              		.cfi_def_cfa_offset 8
  87              		.cfi_offset 7, -8
ARM GAS  C:\Users\tmj32\AppData\Local\Temp\cch6Xcfo.s 			page 11


  88              		.cfi_offset 14, -4
  89 0002 82B0     		sub	sp, sp, #8
  90              		.cfi_def_cfa_offset 16
  91 0004 00AF     		add	r7, sp, #0
  92              		.cfi_def_cfa_register 7
  93 0006 7860     		str	r0, [r7, #4]
 484:..\..\..\lvgl\version_6.1.2\lvgl/src/lv_hal/../lv_misc/lv_color.h ****     return lv_color_make((uint8_t)((c >> 16) & 0xFF), (uint8_t)((c >> 8) & 0xFF), (uint8_t)(c & 0xF
  94              		.loc 1 484 0
  95 0008 7B68     		ldr	r3, [r7, #4]
  96 000a 1B0C     		lsrs	r3, r3, #16
  97 000c D8B2     		uxtb	r0, r3
  98 000e 7B68     		ldr	r3, [r7, #4]
  99 0010 1B0A     		lsrs	r3, r3, #8
 100 0012 DBB2     		uxtb	r3, r3
 101 0014 7A68     		ldr	r2, [r7, #4]
 102 0016 D2B2     		uxtb	r2, r2
 103 0018 1946     		mov	r1, r3
 104 001a FFF7FEFF 		bl	lv_color_make
 105 001e 0346     		mov	r3, r0
 485:..\..\..\lvgl\version_6.1.2\lvgl/src/lv_hal/../lv_misc/lv_color.h **** }
 106              		.loc 1 485 0
 107 0020 1846     		mov	r0, r3
 108 0022 0837     		adds	r7, r7, #8
 109              		.cfi_def_cfa_offset 8
 110 0024 BD46     		mov	sp, r7
 111              		.cfi_def_cfa_register 13
 112              		@ sp needed
 113 0026 80BD     		pop	{r7, pc}
 114              		.cfi_endproc
 115              	.LFE589:
 116              		.size	lv_color_hex, .-lv_color_hex
 117              		.section	.text.lv_scr_act,"ax",%progbits
 118              		.align	2
 119              		.thumb
 120              		.thumb_func
 121              		.type	lv_scr_act, %function
 122              	lv_scr_act:
 123              	.LFB613:
 124              		.file 2 "..\\..\\..\\lvgl\\version_6.1.2\\lvgl/src/lv_core/lv_disp.h"
   1:..\..\..\lvgl\version_6.1.2\lvgl/src/lv_core/lv_disp.h **** /**
   2:..\..\..\lvgl\version_6.1.2\lvgl/src/lv_core/lv_disp.h ****  * @file lv_disp.h
   3:..\..\..\lvgl\version_6.1.2\lvgl/src/lv_core/lv_disp.h ****  *
   4:..\..\..\lvgl\version_6.1.2\lvgl/src/lv_core/lv_disp.h ****  */
   5:..\..\..\lvgl\version_6.1.2\lvgl/src/lv_core/lv_disp.h **** 
   6:..\..\..\lvgl\version_6.1.2\lvgl/src/lv_core/lv_disp.h **** #ifndef LV_DISP_H
   7:..\..\..\lvgl\version_6.1.2\lvgl/src/lv_core/lv_disp.h **** #define LV_DISP_H
   8:..\..\..\lvgl\version_6.1.2\lvgl/src/lv_core/lv_disp.h **** 
   9:..\..\..\lvgl\version_6.1.2\lvgl/src/lv_core/lv_disp.h **** #ifdef __cplusplus
  10:..\..\..\lvgl\version_6.1.2\lvgl/src/lv_core/lv_disp.h **** extern "C" {
  11:..\..\..\lvgl\version_6.1.2\lvgl/src/lv_core/lv_disp.h **** #endif
  12:..\..\..\lvgl\version_6.1.2\lvgl/src/lv_core/lv_disp.h **** 
  13:..\..\..\lvgl\version_6.1.2\lvgl/src/lv_core/lv_disp.h **** /*********************
  14:..\..\..\lvgl\version_6.1.2\lvgl/src/lv_core/lv_disp.h ****  *      INCLUDES
  15:..\..\..\lvgl\version_6.1.2\lvgl/src/lv_core/lv_disp.h ****  *********************/
  16:..\..\..\lvgl\version_6.1.2\lvgl/src/lv_core/lv_disp.h **** #include "../lv_hal/lv_hal.h"
  17:..\..\..\lvgl\version_6.1.2\lvgl/src/lv_core/lv_disp.h **** #include "lv_obj.h"
  18:..\..\..\lvgl\version_6.1.2\lvgl/src/lv_core/lv_disp.h **** 
ARM GAS  C:\Users\tmj32\AppData\Local\Temp\cch6Xcfo.s 			page 12


  19:..\..\..\lvgl\version_6.1.2\lvgl/src/lv_core/lv_disp.h **** /*********************
  20:..\..\..\lvgl\version_6.1.2\lvgl/src/lv_core/lv_disp.h ****  *      DEFINES
  21:..\..\..\lvgl\version_6.1.2\lvgl/src/lv_core/lv_disp.h ****  *********************/
  22:..\..\..\lvgl\version_6.1.2\lvgl/src/lv_core/lv_disp.h **** 
  23:..\..\..\lvgl\version_6.1.2\lvgl/src/lv_core/lv_disp.h **** /**********************
  24:..\..\..\lvgl\version_6.1.2\lvgl/src/lv_core/lv_disp.h ****  *      TYPEDEFS
  25:..\..\..\lvgl\version_6.1.2\lvgl/src/lv_core/lv_disp.h ****  **********************/
  26:..\..\..\lvgl\version_6.1.2\lvgl/src/lv_core/lv_disp.h **** 
  27:..\..\..\lvgl\version_6.1.2\lvgl/src/lv_core/lv_disp.h **** /**********************
  28:..\..\..\lvgl\version_6.1.2\lvgl/src/lv_core/lv_disp.h ****  * GLOBAL PROTOTYPES
  29:..\..\..\lvgl\version_6.1.2\lvgl/src/lv_core/lv_disp.h ****  **********************/
  30:..\..\..\lvgl\version_6.1.2\lvgl/src/lv_core/lv_disp.h **** 
  31:..\..\..\lvgl\version_6.1.2\lvgl/src/lv_core/lv_disp.h **** /**
  32:..\..\..\lvgl\version_6.1.2\lvgl/src/lv_core/lv_disp.h ****  * Return with a pointer to the active screen
  33:..\..\..\lvgl\version_6.1.2\lvgl/src/lv_core/lv_disp.h ****  * @param disp pointer to display which active screen should be get. (NULL to use the default
  34:..\..\..\lvgl\version_6.1.2\lvgl/src/lv_core/lv_disp.h ****  * screen)
  35:..\..\..\lvgl\version_6.1.2\lvgl/src/lv_core/lv_disp.h ****  * @return pointer to the active screen object (loaded by 'lv_scr_load()')
  36:..\..\..\lvgl\version_6.1.2\lvgl/src/lv_core/lv_disp.h ****  */
  37:..\..\..\lvgl\version_6.1.2\lvgl/src/lv_core/lv_disp.h **** lv_obj_t * lv_disp_get_scr_act(lv_disp_t * disp);
  38:..\..\..\lvgl\version_6.1.2\lvgl/src/lv_core/lv_disp.h **** 
  39:..\..\..\lvgl\version_6.1.2\lvgl/src/lv_core/lv_disp.h **** /**
  40:..\..\..\lvgl\version_6.1.2\lvgl/src/lv_core/lv_disp.h ****  * Make a screen active
  41:..\..\..\lvgl\version_6.1.2\lvgl/src/lv_core/lv_disp.h ****  * @param scr pointer to a screen
  42:..\..\..\lvgl\version_6.1.2\lvgl/src/lv_core/lv_disp.h ****  */
  43:..\..\..\lvgl\version_6.1.2\lvgl/src/lv_core/lv_disp.h **** void lv_disp_load_scr(lv_obj_t * scr);
  44:..\..\..\lvgl\version_6.1.2\lvgl/src/lv_core/lv_disp.h **** 
  45:..\..\..\lvgl\version_6.1.2\lvgl/src/lv_core/lv_disp.h **** /**
  46:..\..\..\lvgl\version_6.1.2\lvgl/src/lv_core/lv_disp.h ****  * Return with the top layer. (Same on every screen and it is above the normal screen layer)
  47:..\..\..\lvgl\version_6.1.2\lvgl/src/lv_core/lv_disp.h ****  * @param disp pointer to display which top layer should be get. (NULL to use the default screen)
  48:..\..\..\lvgl\version_6.1.2\lvgl/src/lv_core/lv_disp.h ****  * @return pointer to the top layer object  (transparent screen sized lv_obj)
  49:..\..\..\lvgl\version_6.1.2\lvgl/src/lv_core/lv_disp.h ****  */
  50:..\..\..\lvgl\version_6.1.2\lvgl/src/lv_core/lv_disp.h **** lv_obj_t * lv_disp_get_layer_top(lv_disp_t * disp);
  51:..\..\..\lvgl\version_6.1.2\lvgl/src/lv_core/lv_disp.h **** 
  52:..\..\..\lvgl\version_6.1.2\lvgl/src/lv_core/lv_disp.h **** /**
  53:..\..\..\lvgl\version_6.1.2\lvgl/src/lv_core/lv_disp.h ****  * Return with the sys. layer. (Same on every screen and it is above the normal screen and the top
  54:..\..\..\lvgl\version_6.1.2\lvgl/src/lv_core/lv_disp.h ****  * layer)
  55:..\..\..\lvgl\version_6.1.2\lvgl/src/lv_core/lv_disp.h ****  * @param disp pointer to display which sys. layer  should be get. (NULL to use the default screen)
  56:..\..\..\lvgl\version_6.1.2\lvgl/src/lv_core/lv_disp.h ****  * @return pointer to the sys layer object  (transparent screen sized lv_obj)
  57:..\..\..\lvgl\version_6.1.2\lvgl/src/lv_core/lv_disp.h ****  */
  58:..\..\..\lvgl\version_6.1.2\lvgl/src/lv_core/lv_disp.h **** lv_obj_t * lv_disp_get_layer_sys(lv_disp_t * disp);
  59:..\..\..\lvgl\version_6.1.2\lvgl/src/lv_core/lv_disp.h **** 
  60:..\..\..\lvgl\version_6.1.2\lvgl/src/lv_core/lv_disp.h **** /**
  61:..\..\..\lvgl\version_6.1.2\lvgl/src/lv_core/lv_disp.h ****  * Assign a screen to a display.
  62:..\..\..\lvgl\version_6.1.2\lvgl/src/lv_core/lv_disp.h ****  * @param disp pointer to a display where to assign the screen
  63:..\..\..\lvgl\version_6.1.2\lvgl/src/lv_core/lv_disp.h ****  * @param scr pointer to a screen object to assign
  64:..\..\..\lvgl\version_6.1.2\lvgl/src/lv_core/lv_disp.h ****  */
  65:..\..\..\lvgl\version_6.1.2\lvgl/src/lv_core/lv_disp.h **** void lv_disp_assign_screen(lv_disp_t * disp, lv_obj_t * scr);
  66:..\..\..\lvgl\version_6.1.2\lvgl/src/lv_core/lv_disp.h **** 
  67:..\..\..\lvgl\version_6.1.2\lvgl/src/lv_core/lv_disp.h **** /**
  68:..\..\..\lvgl\version_6.1.2\lvgl/src/lv_core/lv_disp.h ****  * Get a pointer to the screen refresher task to
  69:..\..\..\lvgl\version_6.1.2\lvgl/src/lv_core/lv_disp.h ****  * modify its parameters with `lv_task_...` functions.
  70:..\..\..\lvgl\version_6.1.2\lvgl/src/lv_core/lv_disp.h ****  * @param disp pointer to a display
  71:..\..\..\lvgl\version_6.1.2\lvgl/src/lv_core/lv_disp.h ****  * @return pointer to the display refresher task. (NULL on error)
  72:..\..\..\lvgl\version_6.1.2\lvgl/src/lv_core/lv_disp.h ****  */
  73:..\..\..\lvgl\version_6.1.2\lvgl/src/lv_core/lv_disp.h **** lv_task_t * lv_disp_get_refr_task(lv_disp_t * disp);
  74:..\..\..\lvgl\version_6.1.2\lvgl/src/lv_core/lv_disp.h **** 
  75:..\..\..\lvgl\version_6.1.2\lvgl/src/lv_core/lv_disp.h **** /**
ARM GAS  C:\Users\tmj32\AppData\Local\Temp\cch6Xcfo.s 			page 13


  76:..\..\..\lvgl\version_6.1.2\lvgl/src/lv_core/lv_disp.h ****  * Get elapsed time since last user activity on a display (e.g. click)
  77:..\..\..\lvgl\version_6.1.2\lvgl/src/lv_core/lv_disp.h ****  * @param disp pointer to an display (NULL to get the overall smallest inactivity)
  78:..\..\..\lvgl\version_6.1.2\lvgl/src/lv_core/lv_disp.h ****  * @return elapsed ticks (milliseconds) since the last activity
  79:..\..\..\lvgl\version_6.1.2\lvgl/src/lv_core/lv_disp.h ****  */
  80:..\..\..\lvgl\version_6.1.2\lvgl/src/lv_core/lv_disp.h **** uint32_t lv_disp_get_inactive_time(const lv_disp_t * disp);
  81:..\..\..\lvgl\version_6.1.2\lvgl/src/lv_core/lv_disp.h **** 
  82:..\..\..\lvgl\version_6.1.2\lvgl/src/lv_core/lv_disp.h **** /**
  83:..\..\..\lvgl\version_6.1.2\lvgl/src/lv_core/lv_disp.h ****  * Manually trigger an activity on a display
  84:..\..\..\lvgl\version_6.1.2\lvgl/src/lv_core/lv_disp.h ****  * @param disp pointer to an display (NULL to use the default display)
  85:..\..\..\lvgl\version_6.1.2\lvgl/src/lv_core/lv_disp.h ****  */
  86:..\..\..\lvgl\version_6.1.2\lvgl/src/lv_core/lv_disp.h **** void lv_disp_trig_activity(lv_disp_t * disp);
  87:..\..\..\lvgl\version_6.1.2\lvgl/src/lv_core/lv_disp.h **** 
  88:..\..\..\lvgl\version_6.1.2\lvgl/src/lv_core/lv_disp.h **** /*------------------------------------------------
  89:..\..\..\lvgl\version_6.1.2\lvgl/src/lv_core/lv_disp.h ****  * To improve backward compatibility
  90:..\..\..\lvgl\version_6.1.2\lvgl/src/lv_core/lv_disp.h ****  * Recommended only if you have one display
  91:..\..\..\lvgl\version_6.1.2\lvgl/src/lv_core/lv_disp.h ****  *------------------------------------------------*/
  92:..\..\..\lvgl\version_6.1.2\lvgl/src/lv_core/lv_disp.h **** 
  93:..\..\..\lvgl\version_6.1.2\lvgl/src/lv_core/lv_disp.h **** /**
  94:..\..\..\lvgl\version_6.1.2\lvgl/src/lv_core/lv_disp.h ****  * Get the active screen of the default display
  95:..\..\..\lvgl\version_6.1.2\lvgl/src/lv_core/lv_disp.h ****  * @return pointer to the active screen
  96:..\..\..\lvgl\version_6.1.2\lvgl/src/lv_core/lv_disp.h ****  */
  97:..\..\..\lvgl\version_6.1.2\lvgl/src/lv_core/lv_disp.h **** static inline lv_obj_t * lv_scr_act(void)
  98:..\..\..\lvgl\version_6.1.2\lvgl/src/lv_core/lv_disp.h **** {
 125              		.loc 2 98 0
 126              		.cfi_startproc
 127              		@ args = 0, pretend = 0, frame = 0
 128              		@ frame_needed = 1, uses_anonymous_args = 0
 129 0000 80B5     		push	{r7, lr}
 130              		.cfi_def_cfa_offset 8
 131              		.cfi_offset 7, -8
 132              		.cfi_offset 14, -4
 133 0002 00AF     		add	r7, sp, #0
 134              		.cfi_def_cfa_register 7
  99:..\..\..\lvgl\version_6.1.2\lvgl/src/lv_core/lv_disp.h ****     return lv_disp_get_scr_act(lv_disp_get_default());
 135              		.loc 2 99 0
 136 0004 FFF7FEFF 		bl	lv_disp_get_default
 137 0008 0346     		mov	r3, r0
 138 000a 1846     		mov	r0, r3
 139 000c FFF7FEFF 		bl	lv_disp_get_scr_act
 140 0010 0346     		mov	r3, r0
 100:..\..\..\lvgl\version_6.1.2\lvgl/src/lv_core/lv_disp.h **** }
 141              		.loc 2 100 0
 142 0012 1846     		mov	r0, r3
 143 0014 80BD     		pop	{r7, pc}
 144              		.cfi_endproc
 145              	.LFE613:
 146              		.size	lv_scr_act, .-lv_scr_act
 147 0016 00BF     		.section	.text.lv_slider_set_value,"ax",%progbits
 148              		.align	2
 149              		.thumb
 150              		.thumb_func
 151              		.type	lv_slider_set_value, %function
 152              	lv_slider_set_value:
 153              	.LFB668:
 154              		.file 3 "..\\..\\..\\lvgl\\version_6.1.2\\lvgl/src/lv_objx/lv_slider.h"
   1:..\..\..\lvgl\version_6.1.2\lvgl/src/lv_objx/lv_slider.h **** /**
   2:..\..\..\lvgl\version_6.1.2\lvgl/src/lv_objx/lv_slider.h ****  * @file lv_slider.h
ARM GAS  C:\Users\tmj32\AppData\Local\Temp\cch6Xcfo.s 			page 14


   3:..\..\..\lvgl\version_6.1.2\lvgl/src/lv_objx/lv_slider.h ****  *
   4:..\..\..\lvgl\version_6.1.2\lvgl/src/lv_objx/lv_slider.h ****  */
   5:..\..\..\lvgl\version_6.1.2\lvgl/src/lv_objx/lv_slider.h **** 
   6:..\..\..\lvgl\version_6.1.2\lvgl/src/lv_objx/lv_slider.h **** #ifndef LV_SLIDER_H
   7:..\..\..\lvgl\version_6.1.2\lvgl/src/lv_objx/lv_slider.h **** #define LV_SLIDER_H
   8:..\..\..\lvgl\version_6.1.2\lvgl/src/lv_objx/lv_slider.h **** 
   9:..\..\..\lvgl\version_6.1.2\lvgl/src/lv_objx/lv_slider.h **** #ifdef __cplusplus
  10:..\..\..\lvgl\version_6.1.2\lvgl/src/lv_objx/lv_slider.h **** extern "C" {
  11:..\..\..\lvgl\version_6.1.2\lvgl/src/lv_objx/lv_slider.h **** #endif
  12:..\..\..\lvgl\version_6.1.2\lvgl/src/lv_objx/lv_slider.h **** 
  13:..\..\..\lvgl\version_6.1.2\lvgl/src/lv_objx/lv_slider.h **** /*********************
  14:..\..\..\lvgl\version_6.1.2\lvgl/src/lv_objx/lv_slider.h ****  *      INCLUDES
  15:..\..\..\lvgl\version_6.1.2\lvgl/src/lv_objx/lv_slider.h ****  *********************/
  16:..\..\..\lvgl\version_6.1.2\lvgl/src/lv_objx/lv_slider.h **** #ifdef LV_CONF_INCLUDE_SIMPLE
  17:..\..\..\lvgl\version_6.1.2\lvgl/src/lv_objx/lv_slider.h **** #include "lv_conf.h"
  18:..\..\..\lvgl\version_6.1.2\lvgl/src/lv_objx/lv_slider.h **** #else
  19:..\..\..\lvgl\version_6.1.2\lvgl/src/lv_objx/lv_slider.h **** #include "../../../lv_conf.h"
  20:..\..\..\lvgl\version_6.1.2\lvgl/src/lv_objx/lv_slider.h **** #endif
  21:..\..\..\lvgl\version_6.1.2\lvgl/src/lv_objx/lv_slider.h **** 
  22:..\..\..\lvgl\version_6.1.2\lvgl/src/lv_objx/lv_slider.h **** #if LV_USE_SLIDER != 0
  23:..\..\..\lvgl\version_6.1.2\lvgl/src/lv_objx/lv_slider.h **** 
  24:..\..\..\lvgl\version_6.1.2\lvgl/src/lv_objx/lv_slider.h **** /*Testing of dependencies*/
  25:..\..\..\lvgl\version_6.1.2\lvgl/src/lv_objx/lv_slider.h **** #if LV_USE_BAR == 0
  26:..\..\..\lvgl\version_6.1.2\lvgl/src/lv_objx/lv_slider.h **** #error "lv_slider: lv_bar is required. Enable it in lv_conf.h (LV_USE_BAR  1) "
  27:..\..\..\lvgl\version_6.1.2\lvgl/src/lv_objx/lv_slider.h **** #endif
  28:..\..\..\lvgl\version_6.1.2\lvgl/src/lv_objx/lv_slider.h **** 
  29:..\..\..\lvgl\version_6.1.2\lvgl/src/lv_objx/lv_slider.h **** #include "../lv_core/lv_obj.h"
  30:..\..\..\lvgl\version_6.1.2\lvgl/src/lv_objx/lv_slider.h **** #include "lv_bar.h"
  31:..\..\..\lvgl\version_6.1.2\lvgl/src/lv_objx/lv_slider.h **** 
  32:..\..\..\lvgl\version_6.1.2\lvgl/src/lv_objx/lv_slider.h **** /*********************
  33:..\..\..\lvgl\version_6.1.2\lvgl/src/lv_objx/lv_slider.h ****  *      DEFINES
  34:..\..\..\lvgl\version_6.1.2\lvgl/src/lv_objx/lv_slider.h ****  *********************/
  35:..\..\..\lvgl\version_6.1.2\lvgl/src/lv_objx/lv_slider.h **** 
  36:..\..\..\lvgl\version_6.1.2\lvgl/src/lv_objx/lv_slider.h **** /**********************
  37:..\..\..\lvgl\version_6.1.2\lvgl/src/lv_objx/lv_slider.h ****  *      TYPEDEFS
  38:..\..\..\lvgl\version_6.1.2\lvgl/src/lv_objx/lv_slider.h ****  **********************/
  39:..\..\..\lvgl\version_6.1.2\lvgl/src/lv_objx/lv_slider.h **** /*Data of slider*/
  40:..\..\..\lvgl\version_6.1.2\lvgl/src/lv_objx/lv_slider.h **** typedef struct
  41:..\..\..\lvgl\version_6.1.2\lvgl/src/lv_objx/lv_slider.h **** {
  42:..\..\..\lvgl\version_6.1.2\lvgl/src/lv_objx/lv_slider.h ****     lv_bar_ext_t bar; /*Ext. of ancestor*/
  43:..\..\..\lvgl\version_6.1.2\lvgl/src/lv_objx/lv_slider.h ****     /*New data for this type */
  44:..\..\..\lvgl\version_6.1.2\lvgl/src/lv_objx/lv_slider.h ****     const lv_style_t * style_knob; /*Style of the knob*/
  45:..\..\..\lvgl\version_6.1.2\lvgl/src/lv_objx/lv_slider.h ****     int16_t drag_value;            /*Store a temporal value during press until release (Handled by 
  46:..\..\..\lvgl\version_6.1.2\lvgl/src/lv_objx/lv_slider.h ****     uint8_t knob_in : 1;           /*1: Draw the knob inside the bar*/
  47:..\..\..\lvgl\version_6.1.2\lvgl/src/lv_objx/lv_slider.h **** } lv_slider_ext_t;
  48:..\..\..\lvgl\version_6.1.2\lvgl/src/lv_objx/lv_slider.h **** 
  49:..\..\..\lvgl\version_6.1.2\lvgl/src/lv_objx/lv_slider.h **** /** Built-in styles of slider*/
  50:..\..\..\lvgl\version_6.1.2\lvgl/src/lv_objx/lv_slider.h **** enum {
  51:..\..\..\lvgl\version_6.1.2\lvgl/src/lv_objx/lv_slider.h ****     LV_SLIDER_STYLE_BG, /** Slider background style. */
  52:..\..\..\lvgl\version_6.1.2\lvgl/src/lv_objx/lv_slider.h ****     LV_SLIDER_STYLE_INDIC, /** Slider indicator (filled area) style. */
  53:..\..\..\lvgl\version_6.1.2\lvgl/src/lv_objx/lv_slider.h ****     LV_SLIDER_STYLE_KNOB, /** Slider knob style. */
  54:..\..\..\lvgl\version_6.1.2\lvgl/src/lv_objx/lv_slider.h **** };
  55:..\..\..\lvgl\version_6.1.2\lvgl/src/lv_objx/lv_slider.h **** typedef uint8_t lv_slider_style_t;
  56:..\..\..\lvgl\version_6.1.2\lvgl/src/lv_objx/lv_slider.h **** 
  57:..\..\..\lvgl\version_6.1.2\lvgl/src/lv_objx/lv_slider.h **** /**********************
  58:..\..\..\lvgl\version_6.1.2\lvgl/src/lv_objx/lv_slider.h ****  * GLOBAL PROTOTYPES
  59:..\..\..\lvgl\version_6.1.2\lvgl/src/lv_objx/lv_slider.h ****  **********************/
ARM GAS  C:\Users\tmj32\AppData\Local\Temp\cch6Xcfo.s 			page 15


  60:..\..\..\lvgl\version_6.1.2\lvgl/src/lv_objx/lv_slider.h **** 
  61:..\..\..\lvgl\version_6.1.2\lvgl/src/lv_objx/lv_slider.h **** /**
  62:..\..\..\lvgl\version_6.1.2\lvgl/src/lv_objx/lv_slider.h ****  * Create a slider objects
  63:..\..\..\lvgl\version_6.1.2\lvgl/src/lv_objx/lv_slider.h ****  * @param par pointer to an object, it will be the parent of the new slider
  64:..\..\..\lvgl\version_6.1.2\lvgl/src/lv_objx/lv_slider.h ****  * @param copy pointer to a slider object, if not NULL then the new object will be copied from it
  65:..\..\..\lvgl\version_6.1.2\lvgl/src/lv_objx/lv_slider.h ****  * @return pointer to the created slider
  66:..\..\..\lvgl\version_6.1.2\lvgl/src/lv_objx/lv_slider.h ****  */
  67:..\..\..\lvgl\version_6.1.2\lvgl/src/lv_objx/lv_slider.h **** lv_obj_t * lv_slider_create(lv_obj_t * par, const lv_obj_t * copy);
  68:..\..\..\lvgl\version_6.1.2\lvgl/src/lv_objx/lv_slider.h **** 
  69:..\..\..\lvgl\version_6.1.2\lvgl/src/lv_objx/lv_slider.h **** /*=====================
  70:..\..\..\lvgl\version_6.1.2\lvgl/src/lv_objx/lv_slider.h ****  * Setter functions
  71:..\..\..\lvgl\version_6.1.2\lvgl/src/lv_objx/lv_slider.h ****  *====================*/
  72:..\..\..\lvgl\version_6.1.2\lvgl/src/lv_objx/lv_slider.h **** 
  73:..\..\..\lvgl\version_6.1.2\lvgl/src/lv_objx/lv_slider.h **** /**
  74:..\..\..\lvgl\version_6.1.2\lvgl/src/lv_objx/lv_slider.h ****  * Set a new value on the slider
  75:..\..\..\lvgl\version_6.1.2\lvgl/src/lv_objx/lv_slider.h ****  * @param slider pointer to a slider object
  76:..\..\..\lvgl\version_6.1.2\lvgl/src/lv_objx/lv_slider.h ****  * @param value new value
  77:..\..\..\lvgl\version_6.1.2\lvgl/src/lv_objx/lv_slider.h ****  * @param anim LV_ANIM_ON: set the value with an animation; LV_ANIM_OFF: change the value immediate
  78:..\..\..\lvgl\version_6.1.2\lvgl/src/lv_objx/lv_slider.h ****  */
  79:..\..\..\lvgl\version_6.1.2\lvgl/src/lv_objx/lv_slider.h **** static inline void lv_slider_set_value(lv_obj_t * slider, int16_t value, lv_anim_enable_t anim)
  80:..\..\..\lvgl\version_6.1.2\lvgl/src/lv_objx/lv_slider.h **** {
 155              		.loc 3 80 0
 156              		.cfi_startproc
 157              		@ args = 0, pretend = 0, frame = 8
 158              		@ frame_needed = 1, uses_anonymous_args = 0
 159 0000 80B5     		push	{r7, lr}
 160              		.cfi_def_cfa_offset 8
 161              		.cfi_offset 7, -8
 162              		.cfi_offset 14, -4
 163 0002 82B0     		sub	sp, sp, #8
 164              		.cfi_def_cfa_offset 16
 165 0004 00AF     		add	r7, sp, #0
 166              		.cfi_def_cfa_register 7
 167 0006 7860     		str	r0, [r7, #4]
 168 0008 0B46     		mov	r3, r1
 169 000a 7B80     		strh	r3, [r7, #2]	@ movhi
 170 000c 1346     		mov	r3, r2
 171 000e 7B70     		strb	r3, [r7, #1]
  81:..\..\..\lvgl\version_6.1.2\lvgl/src/lv_objx/lv_slider.h ****     lv_bar_set_value(slider, value, anim);
 172              		.loc 3 81 0
 173 0010 7A78     		ldrb	r2, [r7, #1]	@ zero_extendqisi2
 174 0012 B7F90230 		ldrsh	r3, [r7, #2]
 175 0016 1946     		mov	r1, r3
 176 0018 7868     		ldr	r0, [r7, #4]
 177 001a FFF7FEFF 		bl	lv_bar_set_value
  82:..\..\..\lvgl\version_6.1.2\lvgl/src/lv_objx/lv_slider.h **** }
 178              		.loc 3 82 0
 179 001e 00BF     		nop
 180 0020 0837     		adds	r7, r7, #8
 181              		.cfi_def_cfa_offset 8
 182 0022 BD46     		mov	sp, r7
 183              		.cfi_def_cfa_register 13
 184              		@ sp needed
 185 0024 80BD     		pop	{r7, pc}
 186              		.cfi_endproc
 187              	.LFE668:
 188              		.size	lv_slider_set_value, .-lv_slider_set_value
ARM GAS  C:\Users\tmj32\AppData\Local\Temp\cch6Xcfo.s 			page 16


 189 0026 00BF     		.section	.text.lv_slider_set_range,"ax",%progbits
 190              		.align	2
 191              		.thumb
 192              		.thumb_func
 193              		.type	lv_slider_set_range, %function
 194              	lv_slider_set_range:
 195              	.LFB669:
  83:..\..\..\lvgl\version_6.1.2\lvgl/src/lv_objx/lv_slider.h **** 
  84:..\..\..\lvgl\version_6.1.2\lvgl/src/lv_objx/lv_slider.h **** /**
  85:..\..\..\lvgl\version_6.1.2\lvgl/src/lv_objx/lv_slider.h ****  * Set minimum and the maximum values of a bar
  86:..\..\..\lvgl\version_6.1.2\lvgl/src/lv_objx/lv_slider.h ****  * @param slider pointer to the slider object
  87:..\..\..\lvgl\version_6.1.2\lvgl/src/lv_objx/lv_slider.h ****  * @param min minimum value
  88:..\..\..\lvgl\version_6.1.2\lvgl/src/lv_objx/lv_slider.h ****  * @param max maximum value
  89:..\..\..\lvgl\version_6.1.2\lvgl/src/lv_objx/lv_slider.h ****  */
  90:..\..\..\lvgl\version_6.1.2\lvgl/src/lv_objx/lv_slider.h **** static inline void lv_slider_set_range(lv_obj_t * slider, int16_t min, int16_t max)
  91:..\..\..\lvgl\version_6.1.2\lvgl/src/lv_objx/lv_slider.h **** {
 196              		.loc 3 91 0
 197              		.cfi_startproc
 198              		@ args = 0, pretend = 0, frame = 8
 199              		@ frame_needed = 1, uses_anonymous_args = 0
 200 0000 80B5     		push	{r7, lr}
 201              		.cfi_def_cfa_offset 8
 202              		.cfi_offset 7, -8
 203              		.cfi_offset 14, -4
 204 0002 82B0     		sub	sp, sp, #8
 205              		.cfi_def_cfa_offset 16
 206 0004 00AF     		add	r7, sp, #0
 207              		.cfi_def_cfa_register 7
 208 0006 7860     		str	r0, [r7, #4]
 209 0008 0B46     		mov	r3, r1
 210 000a 7B80     		strh	r3, [r7, #2]	@ movhi
 211 000c 1346     		mov	r3, r2	@ movhi
 212 000e 3B80     		strh	r3, [r7]	@ movhi
  92:..\..\..\lvgl\version_6.1.2\lvgl/src/lv_objx/lv_slider.h ****     lv_bar_set_range(slider, min, max);
 213              		.loc 3 92 0
 214 0010 B7F90020 		ldrsh	r2, [r7]
 215 0014 B7F90230 		ldrsh	r3, [r7, #2]
 216 0018 1946     		mov	r1, r3
 217 001a 7868     		ldr	r0, [r7, #4]
 218 001c FFF7FEFF 		bl	lv_bar_set_range
  93:..\..\..\lvgl\version_6.1.2\lvgl/src/lv_objx/lv_slider.h **** }
 219              		.loc 3 93 0
 220 0020 00BF     		nop
 221 0022 0837     		adds	r7, r7, #8
 222              		.cfi_def_cfa_offset 8
 223 0024 BD46     		mov	sp, r7
 224              		.cfi_def_cfa_register 13
 225              		@ sp needed
 226 0026 80BD     		pop	{r7, pc}
 227              		.cfi_endproc
 228              	.LFE669:
 229              		.size	lv_slider_set_range, .-lv_slider_set_range
 230              		.section	.text.lv_roller_get_selected_str,"ax",%progbits
 231              		.align	2
 232              		.thumb
 233              		.thumb_func
 234              		.type	lv_roller_get_selected_str, %function
ARM GAS  C:\Users\tmj32\AppData\Local\Temp\cch6Xcfo.s 			page 17


 235              	lv_roller_get_selected_str:
 236              	.LFB687:
 237              		.file 4 "..\\..\\..\\lvgl\\version_6.1.2\\lvgl/src/lv_objx/lv_roller.h"
   1:..\..\..\lvgl\version_6.1.2\lvgl/src/lv_objx/lv_roller.h **** /**
   2:..\..\..\lvgl\version_6.1.2\lvgl/src/lv_objx/lv_roller.h ****  * @file lv_roller.h
   3:..\..\..\lvgl\version_6.1.2\lvgl/src/lv_objx/lv_roller.h ****  *
   4:..\..\..\lvgl\version_6.1.2\lvgl/src/lv_objx/lv_roller.h ****  */
   5:..\..\..\lvgl\version_6.1.2\lvgl/src/lv_objx/lv_roller.h **** 
   6:..\..\..\lvgl\version_6.1.2\lvgl/src/lv_objx/lv_roller.h **** #ifndef LV_ROLLER_H
   7:..\..\..\lvgl\version_6.1.2\lvgl/src/lv_objx/lv_roller.h **** #define LV_ROLLER_H
   8:..\..\..\lvgl\version_6.1.2\lvgl/src/lv_objx/lv_roller.h **** 
   9:..\..\..\lvgl\version_6.1.2\lvgl/src/lv_objx/lv_roller.h **** #ifdef __cplusplus
  10:..\..\..\lvgl\version_6.1.2\lvgl/src/lv_objx/lv_roller.h **** extern "C" {
  11:..\..\..\lvgl\version_6.1.2\lvgl/src/lv_objx/lv_roller.h **** #endif
  12:..\..\..\lvgl\version_6.1.2\lvgl/src/lv_objx/lv_roller.h **** 
  13:..\..\..\lvgl\version_6.1.2\lvgl/src/lv_objx/lv_roller.h **** /*********************
  14:..\..\..\lvgl\version_6.1.2\lvgl/src/lv_objx/lv_roller.h ****  *      INCLUDES
  15:..\..\..\lvgl\version_6.1.2\lvgl/src/lv_objx/lv_roller.h ****  *********************/
  16:..\..\..\lvgl\version_6.1.2\lvgl/src/lv_objx/lv_roller.h **** #ifdef LV_CONF_INCLUDE_SIMPLE
  17:..\..\..\lvgl\version_6.1.2\lvgl/src/lv_objx/lv_roller.h **** #include "lv_conf.h"
  18:..\..\..\lvgl\version_6.1.2\lvgl/src/lv_objx/lv_roller.h **** #else
  19:..\..\..\lvgl\version_6.1.2\lvgl/src/lv_objx/lv_roller.h **** #include "../../../lv_conf.h"
  20:..\..\..\lvgl\version_6.1.2\lvgl/src/lv_objx/lv_roller.h **** #endif
  21:..\..\..\lvgl\version_6.1.2\lvgl/src/lv_objx/lv_roller.h **** 
  22:..\..\..\lvgl\version_6.1.2\lvgl/src/lv_objx/lv_roller.h **** #if LV_USE_ROLLER != 0
  23:..\..\..\lvgl\version_6.1.2\lvgl/src/lv_objx/lv_roller.h **** 
  24:..\..\..\lvgl\version_6.1.2\lvgl/src/lv_objx/lv_roller.h **** /*Testing of dependencies*/
  25:..\..\..\lvgl\version_6.1.2\lvgl/src/lv_objx/lv_roller.h **** #if LV_USE_DDLIST == 0
  26:..\..\..\lvgl\version_6.1.2\lvgl/src/lv_objx/lv_roller.h **** #error "lv_roller: lv_ddlist is required. Enable it in lv_conf.h (LV_USE_DDLIST  1) "
  27:..\..\..\lvgl\version_6.1.2\lvgl/src/lv_objx/lv_roller.h **** #endif
  28:..\..\..\lvgl\version_6.1.2\lvgl/src/lv_objx/lv_roller.h **** 
  29:..\..\..\lvgl\version_6.1.2\lvgl/src/lv_objx/lv_roller.h **** #include "../lv_core/lv_obj.h"
  30:..\..\..\lvgl\version_6.1.2\lvgl/src/lv_objx/lv_roller.h **** #include "lv_ddlist.h"
  31:..\..\..\lvgl\version_6.1.2\lvgl/src/lv_objx/lv_roller.h **** #include "lv_label.h"
  32:..\..\..\lvgl\version_6.1.2\lvgl/src/lv_objx/lv_roller.h **** 
  33:..\..\..\lvgl\version_6.1.2\lvgl/src/lv_objx/lv_roller.h **** /*********************
  34:..\..\..\lvgl\version_6.1.2\lvgl/src/lv_objx/lv_roller.h ****  *      DEFINES
  35:..\..\..\lvgl\version_6.1.2\lvgl/src/lv_objx/lv_roller.h ****  *********************/
  36:..\..\..\lvgl\version_6.1.2\lvgl/src/lv_objx/lv_roller.h **** 
  37:..\..\..\lvgl\version_6.1.2\lvgl/src/lv_objx/lv_roller.h **** /**********************
  38:..\..\..\lvgl\version_6.1.2\lvgl/src/lv_objx/lv_roller.h ****  *      TYPEDEFS
  39:..\..\..\lvgl\version_6.1.2\lvgl/src/lv_objx/lv_roller.h ****  **********************/
  40:..\..\..\lvgl\version_6.1.2\lvgl/src/lv_objx/lv_roller.h **** 
  41:..\..\..\lvgl\version_6.1.2\lvgl/src/lv_objx/lv_roller.h **** /** Roller mode. */
  42:..\..\..\lvgl\version_6.1.2\lvgl/src/lv_objx/lv_roller.h **** enum {
  43:..\..\..\lvgl\version_6.1.2\lvgl/src/lv_objx/lv_roller.h ****     LV_ROLLER_MODE_NORMAL, /**< Normal mode (roller ends at the end of the options). */
  44:..\..\..\lvgl\version_6.1.2\lvgl/src/lv_objx/lv_roller.h ****     LV_ROLLER_MODE_INIFINITE, /**< Infinite mode (roller can be scrolled forever). */
  45:..\..\..\lvgl\version_6.1.2\lvgl/src/lv_objx/lv_roller.h **** };
  46:..\..\..\lvgl\version_6.1.2\lvgl/src/lv_objx/lv_roller.h **** 
  47:..\..\..\lvgl\version_6.1.2\lvgl/src/lv_objx/lv_roller.h **** typedef uint8_t lv_roller_mode_t;
  48:..\..\..\lvgl\version_6.1.2\lvgl/src/lv_objx/lv_roller.h **** 
  49:..\..\..\lvgl\version_6.1.2\lvgl/src/lv_objx/lv_roller.h **** 
  50:..\..\..\lvgl\version_6.1.2\lvgl/src/lv_objx/lv_roller.h **** 
  51:..\..\..\lvgl\version_6.1.2\lvgl/src/lv_objx/lv_roller.h **** /*Data of roller*/
  52:..\..\..\lvgl\version_6.1.2\lvgl/src/lv_objx/lv_roller.h **** typedef struct
  53:..\..\..\lvgl\version_6.1.2\lvgl/src/lv_objx/lv_roller.h **** {
  54:..\..\..\lvgl\version_6.1.2\lvgl/src/lv_objx/lv_roller.h ****     lv_ddlist_ext_t ddlist; /*Ext. of ancestor*/
ARM GAS  C:\Users\tmj32\AppData\Local\Temp\cch6Xcfo.s 			page 18


  55:..\..\..\lvgl\version_6.1.2\lvgl/src/lv_objx/lv_roller.h ****     /*New data for this type */
  56:..\..\..\lvgl\version_6.1.2\lvgl/src/lv_objx/lv_roller.h ****     lv_roller_mode_t mode : 1;
  57:..\..\..\lvgl\version_6.1.2\lvgl/src/lv_objx/lv_roller.h **** } lv_roller_ext_t;
  58:..\..\..\lvgl\version_6.1.2\lvgl/src/lv_objx/lv_roller.h **** 
  59:..\..\..\lvgl\version_6.1.2\lvgl/src/lv_objx/lv_roller.h **** enum {
  60:..\..\..\lvgl\version_6.1.2\lvgl/src/lv_objx/lv_roller.h ****     LV_ROLLER_STYLE_BG,
  61:..\..\..\lvgl\version_6.1.2\lvgl/src/lv_objx/lv_roller.h ****     LV_ROLLER_STYLE_SEL,
  62:..\..\..\lvgl\version_6.1.2\lvgl/src/lv_objx/lv_roller.h **** };
  63:..\..\..\lvgl\version_6.1.2\lvgl/src/lv_objx/lv_roller.h **** typedef uint8_t lv_roller_style_t;
  64:..\..\..\lvgl\version_6.1.2\lvgl/src/lv_objx/lv_roller.h **** 
  65:..\..\..\lvgl\version_6.1.2\lvgl/src/lv_objx/lv_roller.h **** /**********************
  66:..\..\..\lvgl\version_6.1.2\lvgl/src/lv_objx/lv_roller.h ****  * GLOBAL PROTOTYPES
  67:..\..\..\lvgl\version_6.1.2\lvgl/src/lv_objx/lv_roller.h ****  **********************/
  68:..\..\..\lvgl\version_6.1.2\lvgl/src/lv_objx/lv_roller.h **** 
  69:..\..\..\lvgl\version_6.1.2\lvgl/src/lv_objx/lv_roller.h **** /**
  70:..\..\..\lvgl\version_6.1.2\lvgl/src/lv_objx/lv_roller.h ****  * Create a roller object
  71:..\..\..\lvgl\version_6.1.2\lvgl/src/lv_objx/lv_roller.h ****  * @param par pointer to an object, it will be the parent of the new roller
  72:..\..\..\lvgl\version_6.1.2\lvgl/src/lv_objx/lv_roller.h ****  * @param copy pointer to a roller object, if not NULL then the new object will be copied from it
  73:..\..\..\lvgl\version_6.1.2\lvgl/src/lv_objx/lv_roller.h ****  * @return pointer to the created roller
  74:..\..\..\lvgl\version_6.1.2\lvgl/src/lv_objx/lv_roller.h ****  */
  75:..\..\..\lvgl\version_6.1.2\lvgl/src/lv_objx/lv_roller.h **** lv_obj_t * lv_roller_create(lv_obj_t * par, const lv_obj_t * copy);
  76:..\..\..\lvgl\version_6.1.2\lvgl/src/lv_objx/lv_roller.h **** 
  77:..\..\..\lvgl\version_6.1.2\lvgl/src/lv_objx/lv_roller.h **** /*=====================
  78:..\..\..\lvgl\version_6.1.2\lvgl/src/lv_objx/lv_roller.h ****  * Setter functions
  79:..\..\..\lvgl\version_6.1.2\lvgl/src/lv_objx/lv_roller.h ****  *====================*/
  80:..\..\..\lvgl\version_6.1.2\lvgl/src/lv_objx/lv_roller.h **** 
  81:..\..\..\lvgl\version_6.1.2\lvgl/src/lv_objx/lv_roller.h **** /**
  82:..\..\..\lvgl\version_6.1.2\lvgl/src/lv_objx/lv_roller.h ****  * Set the options on a roller
  83:..\..\..\lvgl\version_6.1.2\lvgl/src/lv_objx/lv_roller.h ****  * @param roller pointer to roller object
  84:..\..\..\lvgl\version_6.1.2\lvgl/src/lv_objx/lv_roller.h ****  * @param options a string with '\n' separated options. E.g. "One\nTwo\nThree"
  85:..\..\..\lvgl\version_6.1.2\lvgl/src/lv_objx/lv_roller.h ****  * @param mode `LV_ROLLER_MODE_NORMAL` or `LV_ROLLER_MODE_INFINITE`
  86:..\..\..\lvgl\version_6.1.2\lvgl/src/lv_objx/lv_roller.h ****  */
  87:..\..\..\lvgl\version_6.1.2\lvgl/src/lv_objx/lv_roller.h **** void lv_roller_set_options(lv_obj_t * roller, const char * options, lv_roller_mode_t mode);
  88:..\..\..\lvgl\version_6.1.2\lvgl/src/lv_objx/lv_roller.h **** 
  89:..\..\..\lvgl\version_6.1.2\lvgl/src/lv_objx/lv_roller.h **** /**
  90:..\..\..\lvgl\version_6.1.2\lvgl/src/lv_objx/lv_roller.h ****  * Set the align of the roller's options (left, right or center[default])
  91:..\..\..\lvgl\version_6.1.2\lvgl/src/lv_objx/lv_roller.h ****  * @param roller - pointer to a roller object
  92:..\..\..\lvgl\version_6.1.2\lvgl/src/lv_objx/lv_roller.h ****  * @param align - one of lv_label_align_t values (left, right, center)
  93:..\..\..\lvgl\version_6.1.2\lvgl/src/lv_objx/lv_roller.h ****  */
  94:..\..\..\lvgl\version_6.1.2\lvgl/src/lv_objx/lv_roller.h **** void lv_roller_set_align(lv_obj_t * roller, lv_label_align_t align);
  95:..\..\..\lvgl\version_6.1.2\lvgl/src/lv_objx/lv_roller.h **** 
  96:..\..\..\lvgl\version_6.1.2\lvgl/src/lv_objx/lv_roller.h **** /**
  97:..\..\..\lvgl\version_6.1.2\lvgl/src/lv_objx/lv_roller.h ****  * Set the selected option
  98:..\..\..\lvgl\version_6.1.2\lvgl/src/lv_objx/lv_roller.h ****  * @param roller pointer to a roller object
  99:..\..\..\lvgl\version_6.1.2\lvgl/src/lv_objx/lv_roller.h ****  * @param sel_opt id of the selected option (0 ... number of option - 1);
 100:..\..\..\lvgl\version_6.1.2\lvgl/src/lv_objx/lv_roller.h ****  * @param anim LV_ANOM_ON: set with animation; LV_ANIM_OFF set immediately
 101:..\..\..\lvgl\version_6.1.2\lvgl/src/lv_objx/lv_roller.h ****  */
 102:..\..\..\lvgl\version_6.1.2\lvgl/src/lv_objx/lv_roller.h **** void lv_roller_set_selected(lv_obj_t * roller, uint16_t sel_opt, lv_anim_enable_t anim);
 103:..\..\..\lvgl\version_6.1.2\lvgl/src/lv_objx/lv_roller.h **** 
 104:..\..\..\lvgl\version_6.1.2\lvgl/src/lv_objx/lv_roller.h **** /**
 105:..\..\..\lvgl\version_6.1.2\lvgl/src/lv_objx/lv_roller.h ****  * Set the height to show the given number of rows (options)
 106:..\..\..\lvgl\version_6.1.2\lvgl/src/lv_objx/lv_roller.h ****  * @param roller pointer to a roller object
 107:..\..\..\lvgl\version_6.1.2\lvgl/src/lv_objx/lv_roller.h ****  * @param row_cnt number of desired visible rows
 108:..\..\..\lvgl\version_6.1.2\lvgl/src/lv_objx/lv_roller.h ****  */
 109:..\..\..\lvgl\version_6.1.2\lvgl/src/lv_objx/lv_roller.h **** void lv_roller_set_visible_row_count(lv_obj_t * roller, uint8_t row_cnt);
 110:..\..\..\lvgl\version_6.1.2\lvgl/src/lv_objx/lv_roller.h **** 
 111:..\..\..\lvgl\version_6.1.2\lvgl/src/lv_objx/lv_roller.h **** /**
ARM GAS  C:\Users\tmj32\AppData\Local\Temp\cch6Xcfo.s 			page 19


 112:..\..\..\lvgl\version_6.1.2\lvgl/src/lv_objx/lv_roller.h ****  * Set a fix width for the drop down list
 113:..\..\..\lvgl\version_6.1.2\lvgl/src/lv_objx/lv_roller.h ****  * @param roller pointer to a roller obejct
 114:..\..\..\lvgl\version_6.1.2\lvgl/src/lv_objx/lv_roller.h ****  * @param w the width when the list is opened (0: auto size)
 115:..\..\..\lvgl\version_6.1.2\lvgl/src/lv_objx/lv_roller.h ****  */
 116:..\..\..\lvgl\version_6.1.2\lvgl/src/lv_objx/lv_roller.h **** static inline void lv_roller_set_fix_width(lv_obj_t * roller, lv_coord_t w)
 117:..\..\..\lvgl\version_6.1.2\lvgl/src/lv_objx/lv_roller.h **** {
 118:..\..\..\lvgl\version_6.1.2\lvgl/src/lv_objx/lv_roller.h ****     lv_ddlist_set_fix_width(roller, w);
 119:..\..\..\lvgl\version_6.1.2\lvgl/src/lv_objx/lv_roller.h **** }
 120:..\..\..\lvgl\version_6.1.2\lvgl/src/lv_objx/lv_roller.h **** 
 121:..\..\..\lvgl\version_6.1.2\lvgl/src/lv_objx/lv_roller.h **** /**
 122:..\..\..\lvgl\version_6.1.2\lvgl/src/lv_objx/lv_roller.h ****  * Set the open/close animation time.
 123:..\..\..\lvgl\version_6.1.2\lvgl/src/lv_objx/lv_roller.h ****  * @param roller pointer to a roller object
 124:..\..\..\lvgl\version_6.1.2\lvgl/src/lv_objx/lv_roller.h ****  * @param anim_time: open/close animation time [ms]
 125:..\..\..\lvgl\version_6.1.2\lvgl/src/lv_objx/lv_roller.h ****  */
 126:..\..\..\lvgl\version_6.1.2\lvgl/src/lv_objx/lv_roller.h **** static inline void lv_roller_set_anim_time(lv_obj_t * roller, uint16_t anim_time)
 127:..\..\..\lvgl\version_6.1.2\lvgl/src/lv_objx/lv_roller.h **** {
 128:..\..\..\lvgl\version_6.1.2\lvgl/src/lv_objx/lv_roller.h ****     lv_ddlist_set_anim_time(roller, anim_time);
 129:..\..\..\lvgl\version_6.1.2\lvgl/src/lv_objx/lv_roller.h **** }
 130:..\..\..\lvgl\version_6.1.2\lvgl/src/lv_objx/lv_roller.h **** 
 131:..\..\..\lvgl\version_6.1.2\lvgl/src/lv_objx/lv_roller.h **** /**
 132:..\..\..\lvgl\version_6.1.2\lvgl/src/lv_objx/lv_roller.h ****  * Set a style of a roller
 133:..\..\..\lvgl\version_6.1.2\lvgl/src/lv_objx/lv_roller.h ****  * @param roller pointer to a roller object
 134:..\..\..\lvgl\version_6.1.2\lvgl/src/lv_objx/lv_roller.h ****  * @param type which style should be set
 135:..\..\..\lvgl\version_6.1.2\lvgl/src/lv_objx/lv_roller.h ****  * @param style pointer to a style
 136:..\..\..\lvgl\version_6.1.2\lvgl/src/lv_objx/lv_roller.h ****  */
 137:..\..\..\lvgl\version_6.1.2\lvgl/src/lv_objx/lv_roller.h **** void lv_roller_set_style(lv_obj_t * roller, lv_roller_style_t type, const lv_style_t * style);
 138:..\..\..\lvgl\version_6.1.2\lvgl/src/lv_objx/lv_roller.h **** 
 139:..\..\..\lvgl\version_6.1.2\lvgl/src/lv_objx/lv_roller.h **** /*=====================
 140:..\..\..\lvgl\version_6.1.2\lvgl/src/lv_objx/lv_roller.h ****  * Getter functions
 141:..\..\..\lvgl\version_6.1.2\lvgl/src/lv_objx/lv_roller.h ****  *====================*/
 142:..\..\..\lvgl\version_6.1.2\lvgl/src/lv_objx/lv_roller.h **** /**
 143:..\..\..\lvgl\version_6.1.2\lvgl/src/lv_objx/lv_roller.h ****  * Get the id of the selected option
 144:..\..\..\lvgl\version_6.1.2\lvgl/src/lv_objx/lv_roller.h ****  * @param roller pointer to a roller object
 145:..\..\..\lvgl\version_6.1.2\lvgl/src/lv_objx/lv_roller.h ****  * @return id of the selected option (0 ... number of option - 1);
 146:..\..\..\lvgl\version_6.1.2\lvgl/src/lv_objx/lv_roller.h ****  */
 147:..\..\..\lvgl\version_6.1.2\lvgl/src/lv_objx/lv_roller.h **** uint16_t lv_roller_get_selected(const lv_obj_t * roller);
 148:..\..\..\lvgl\version_6.1.2\lvgl/src/lv_objx/lv_roller.h **** 
 149:..\..\..\lvgl\version_6.1.2\lvgl/src/lv_objx/lv_roller.h **** /**
 150:..\..\..\lvgl\version_6.1.2\lvgl/src/lv_objx/lv_roller.h ****  * Get the current selected option as a string
 151:..\..\..\lvgl\version_6.1.2\lvgl/src/lv_objx/lv_roller.h ****  * @param roller pointer to roller object
 152:..\..\..\lvgl\version_6.1.2\lvgl/src/lv_objx/lv_roller.h ****  * @param buf pointer to an array to store the string
 153:..\..\..\lvgl\version_6.1.2\lvgl/src/lv_objx/lv_roller.h ****  * @param buf_size size of `buf` in bytes. 0: to ignore it.
 154:..\..\..\lvgl\version_6.1.2\lvgl/src/lv_objx/lv_roller.h ****  */
 155:..\..\..\lvgl\version_6.1.2\lvgl/src/lv_objx/lv_roller.h **** static inline void lv_roller_get_selected_str(const lv_obj_t * roller, char * buf, uint16_t buf_siz
 156:..\..\..\lvgl\version_6.1.2\lvgl/src/lv_objx/lv_roller.h **** {
 238              		.loc 4 156 0
 239              		.cfi_startproc
 240              		@ args = 0, pretend = 0, frame = 16
 241              		@ frame_needed = 1, uses_anonymous_args = 0
 242 0000 80B5     		push	{r7, lr}
 243              		.cfi_def_cfa_offset 8
 244              		.cfi_offset 7, -8
 245              		.cfi_offset 14, -4
 246 0002 84B0     		sub	sp, sp, #16
 247              		.cfi_def_cfa_offset 24
 248 0004 00AF     		add	r7, sp, #0
 249              		.cfi_def_cfa_register 7
ARM GAS  C:\Users\tmj32\AppData\Local\Temp\cch6Xcfo.s 			page 20


 250 0006 F860     		str	r0, [r7, #12]
 251 0008 B960     		str	r1, [r7, #8]
 252 000a 1346     		mov	r3, r2
 253 000c FB80     		strh	r3, [r7, #6]	@ movhi
 157:..\..\..\lvgl\version_6.1.2\lvgl/src/lv_objx/lv_roller.h ****     lv_ddlist_get_selected_str(roller, buf, buf_size);
 254              		.loc 4 157 0
 255 000e FB88     		ldrh	r3, [r7, #6]
 256 0010 1A46     		mov	r2, r3
 257 0012 B968     		ldr	r1, [r7, #8]
 258 0014 F868     		ldr	r0, [r7, #12]
 259 0016 FFF7FEFF 		bl	lv_ddlist_get_selected_str
 158:..\..\..\lvgl\version_6.1.2\lvgl/src/lv_objx/lv_roller.h **** }
 260              		.loc 4 158 0
 261 001a 00BF     		nop
 262 001c 1037     		adds	r7, r7, #16
 263              		.cfi_def_cfa_offset 8
 264 001e BD46     		mov	sp, r7
 265              		.cfi_def_cfa_register 13
 266              		@ sp needed
 267 0020 80BD     		pop	{r7, pc}
 268              		.cfi_endproc
 269              	.LFE687:
 270              		.size	lv_roller_get_selected_str, .-lv_roller_get_selected_str
 271 0022 00BF     		.section	.text.lv_sw_get_state,"ax",%progbits
 272              		.align	2
 273              		.thumb
 274              		.thumb_func
 275              		.type	lv_sw_get_state, %function
 276              	lv_sw_get_state:
 277              	.LFB714:
 278              		.file 5 "..\\..\\..\\lvgl\\version_6.1.2\\lvgl/src/lv_objx/lv_sw.h"
   1:..\..\..\lvgl\version_6.1.2\lvgl/src/lv_objx/lv_sw.h **** /**
   2:..\..\..\lvgl\version_6.1.2\lvgl/src/lv_objx/lv_sw.h ****  * @file lv_sw.h
   3:..\..\..\lvgl\version_6.1.2\lvgl/src/lv_objx/lv_sw.h ****  *
   4:..\..\..\lvgl\version_6.1.2\lvgl/src/lv_objx/lv_sw.h ****  */
   5:..\..\..\lvgl\version_6.1.2\lvgl/src/lv_objx/lv_sw.h **** 
   6:..\..\..\lvgl\version_6.1.2\lvgl/src/lv_objx/lv_sw.h **** #ifndef LV_SW_H
   7:..\..\..\lvgl\version_6.1.2\lvgl/src/lv_objx/lv_sw.h **** #define LV_SW_H
   8:..\..\..\lvgl\version_6.1.2\lvgl/src/lv_objx/lv_sw.h **** 
   9:..\..\..\lvgl\version_6.1.2\lvgl/src/lv_objx/lv_sw.h **** #ifdef __cplusplus
  10:..\..\..\lvgl\version_6.1.2\lvgl/src/lv_objx/lv_sw.h **** extern "C" {
  11:..\..\..\lvgl\version_6.1.2\lvgl/src/lv_objx/lv_sw.h **** #endif
  12:..\..\..\lvgl\version_6.1.2\lvgl/src/lv_objx/lv_sw.h **** 
  13:..\..\..\lvgl\version_6.1.2\lvgl/src/lv_objx/lv_sw.h **** /*********************
  14:..\..\..\lvgl\version_6.1.2\lvgl/src/lv_objx/lv_sw.h ****  *      INCLUDES
  15:..\..\..\lvgl\version_6.1.2\lvgl/src/lv_objx/lv_sw.h ****  *********************/
  16:..\..\..\lvgl\version_6.1.2\lvgl/src/lv_objx/lv_sw.h **** #ifdef LV_CONF_INCLUDE_SIMPLE
  17:..\..\..\lvgl\version_6.1.2\lvgl/src/lv_objx/lv_sw.h **** #include "lv_conf.h"
  18:..\..\..\lvgl\version_6.1.2\lvgl/src/lv_objx/lv_sw.h **** #else
  19:..\..\..\lvgl\version_6.1.2\lvgl/src/lv_objx/lv_sw.h **** #include "../../../lv_conf.h"
  20:..\..\..\lvgl\version_6.1.2\lvgl/src/lv_objx/lv_sw.h **** #endif
  21:..\..\..\lvgl\version_6.1.2\lvgl/src/lv_objx/lv_sw.h **** 
  22:..\..\..\lvgl\version_6.1.2\lvgl/src/lv_objx/lv_sw.h **** #if LV_USE_SW != 0
  23:..\..\..\lvgl\version_6.1.2\lvgl/src/lv_objx/lv_sw.h **** 
  24:..\..\..\lvgl\version_6.1.2\lvgl/src/lv_objx/lv_sw.h **** /*Testing of dependencies*/
  25:..\..\..\lvgl\version_6.1.2\lvgl/src/lv_objx/lv_sw.h **** #if LV_USE_SLIDER == 0
  26:..\..\..\lvgl\version_6.1.2\lvgl/src/lv_objx/lv_sw.h **** #error "lv_sw: lv_slider is required. Enable it in lv_conf.h (LV_USE_SLIDER  1)"
ARM GAS  C:\Users\tmj32\AppData\Local\Temp\cch6Xcfo.s 			page 21


  27:..\..\..\lvgl\version_6.1.2\lvgl/src/lv_objx/lv_sw.h **** #endif
  28:..\..\..\lvgl\version_6.1.2\lvgl/src/lv_objx/lv_sw.h **** 
  29:..\..\..\lvgl\version_6.1.2\lvgl/src/lv_objx/lv_sw.h **** #include "../lv_core/lv_obj.h"
  30:..\..\..\lvgl\version_6.1.2\lvgl/src/lv_objx/lv_sw.h **** #include "lv_slider.h"
  31:..\..\..\lvgl\version_6.1.2\lvgl/src/lv_objx/lv_sw.h **** 
  32:..\..\..\lvgl\version_6.1.2\lvgl/src/lv_objx/lv_sw.h **** /*********************
  33:..\..\..\lvgl\version_6.1.2\lvgl/src/lv_objx/lv_sw.h ****  *      DEFINES
  34:..\..\..\lvgl\version_6.1.2\lvgl/src/lv_objx/lv_sw.h ****  *********************/
  35:..\..\..\lvgl\version_6.1.2\lvgl/src/lv_objx/lv_sw.h **** #define LV_SW_MAX_VALUE 100
  36:..\..\..\lvgl\version_6.1.2\lvgl/src/lv_objx/lv_sw.h **** 
  37:..\..\..\lvgl\version_6.1.2\lvgl/src/lv_objx/lv_sw.h **** /**********************
  38:..\..\..\lvgl\version_6.1.2\lvgl/src/lv_objx/lv_sw.h ****  *      TYPEDEFS
  39:..\..\..\lvgl\version_6.1.2\lvgl/src/lv_objx/lv_sw.h ****  **********************/
  40:..\..\..\lvgl\version_6.1.2\lvgl/src/lv_objx/lv_sw.h **** /*Data of switch*/
  41:..\..\..\lvgl\version_6.1.2\lvgl/src/lv_objx/lv_sw.h **** typedef struct
  42:..\..\..\lvgl\version_6.1.2\lvgl/src/lv_objx/lv_sw.h **** {
  43:..\..\..\lvgl\version_6.1.2\lvgl/src/lv_objx/lv_sw.h ****     lv_slider_ext_t slider; /*Ext. of ancestor*/
  44:..\..\..\lvgl\version_6.1.2\lvgl/src/lv_objx/lv_sw.h ****     /*New data for this type */
  45:..\..\..\lvgl\version_6.1.2\lvgl/src/lv_objx/lv_sw.h ****     const lv_style_t * style_knob_off; /**< Style of the knob when the switch is OFF*/
  46:..\..\..\lvgl\version_6.1.2\lvgl/src/lv_objx/lv_sw.h ****     const lv_style_t * style_knob_on;  /**< Style of the knob when the switch is ON (NULL to use th
  47:..\..\..\lvgl\version_6.1.2\lvgl/src/lv_objx/lv_sw.h ****     lv_coord_t start_x;
  48:..\..\..\lvgl\version_6.1.2\lvgl/src/lv_objx/lv_sw.h ****     uint8_t changed : 1; /*Indicates the switch state explicitly changed by drag*/
  49:..\..\..\lvgl\version_6.1.2\lvgl/src/lv_objx/lv_sw.h ****     uint8_t slided : 1;
  50:..\..\..\lvgl\version_6.1.2\lvgl/src/lv_objx/lv_sw.h **** #if LV_USE_ANIMATION
  51:..\..\..\lvgl\version_6.1.2\lvgl/src/lv_objx/lv_sw.h ****     uint16_t anim_time; /*switch animation time */
  52:..\..\..\lvgl\version_6.1.2\lvgl/src/lv_objx/lv_sw.h **** #endif
  53:..\..\..\lvgl\version_6.1.2\lvgl/src/lv_objx/lv_sw.h **** } lv_sw_ext_t;
  54:..\..\..\lvgl\version_6.1.2\lvgl/src/lv_objx/lv_sw.h **** 
  55:..\..\..\lvgl\version_6.1.2\lvgl/src/lv_objx/lv_sw.h **** /**
  56:..\..\..\lvgl\version_6.1.2\lvgl/src/lv_objx/lv_sw.h ****  * Switch styles.
  57:..\..\..\lvgl\version_6.1.2\lvgl/src/lv_objx/lv_sw.h ****  */
  58:..\..\..\lvgl\version_6.1.2\lvgl/src/lv_objx/lv_sw.h **** enum {
  59:..\..\..\lvgl\version_6.1.2\lvgl/src/lv_objx/lv_sw.h ****     LV_SW_STYLE_BG, /**< Switch background. */
  60:..\..\..\lvgl\version_6.1.2\lvgl/src/lv_objx/lv_sw.h ****     LV_SW_STYLE_INDIC, /**< Switch fill area. */
  61:..\..\..\lvgl\version_6.1.2\lvgl/src/lv_objx/lv_sw.h ****     LV_SW_STYLE_KNOB_OFF, /**< Switch knob (when off). */
  62:..\..\..\lvgl\version_6.1.2\lvgl/src/lv_objx/lv_sw.h ****     LV_SW_STYLE_KNOB_ON, /**< Switch knob (when on). */
  63:..\..\..\lvgl\version_6.1.2\lvgl/src/lv_objx/lv_sw.h **** };
  64:..\..\..\lvgl\version_6.1.2\lvgl/src/lv_objx/lv_sw.h **** typedef uint8_t lv_sw_style_t;
  65:..\..\..\lvgl\version_6.1.2\lvgl/src/lv_objx/lv_sw.h **** 
  66:..\..\..\lvgl\version_6.1.2\lvgl/src/lv_objx/lv_sw.h **** /**********************
  67:..\..\..\lvgl\version_6.1.2\lvgl/src/lv_objx/lv_sw.h ****  * GLOBAL PROTOTYPES
  68:..\..\..\lvgl\version_6.1.2\lvgl/src/lv_objx/lv_sw.h ****  **********************/
  69:..\..\..\lvgl\version_6.1.2\lvgl/src/lv_objx/lv_sw.h **** 
  70:..\..\..\lvgl\version_6.1.2\lvgl/src/lv_objx/lv_sw.h **** /**
  71:..\..\..\lvgl\version_6.1.2\lvgl/src/lv_objx/lv_sw.h ****  * Create a switch objects
  72:..\..\..\lvgl\version_6.1.2\lvgl/src/lv_objx/lv_sw.h ****  * @param par pointer to an object, it will be the parent of the new switch
  73:..\..\..\lvgl\version_6.1.2\lvgl/src/lv_objx/lv_sw.h ****  * @param copy pointer to a switch object, if not NULL then the new object will be copied from it
  74:..\..\..\lvgl\version_6.1.2\lvgl/src/lv_objx/lv_sw.h ****  * @return pointer to the created switch
  75:..\..\..\lvgl\version_6.1.2\lvgl/src/lv_objx/lv_sw.h ****  */
  76:..\..\..\lvgl\version_6.1.2\lvgl/src/lv_objx/lv_sw.h **** lv_obj_t * lv_sw_create(lv_obj_t * par, const lv_obj_t * copy);
  77:..\..\..\lvgl\version_6.1.2\lvgl/src/lv_objx/lv_sw.h **** 
  78:..\..\..\lvgl\version_6.1.2\lvgl/src/lv_objx/lv_sw.h **** /*=====================
  79:..\..\..\lvgl\version_6.1.2\lvgl/src/lv_objx/lv_sw.h ****  * Setter functions
  80:..\..\..\lvgl\version_6.1.2\lvgl/src/lv_objx/lv_sw.h ****  *====================*/
  81:..\..\..\lvgl\version_6.1.2\lvgl/src/lv_objx/lv_sw.h **** 
  82:..\..\..\lvgl\version_6.1.2\lvgl/src/lv_objx/lv_sw.h **** /**
  83:..\..\..\lvgl\version_6.1.2\lvgl/src/lv_objx/lv_sw.h ****  * Turn ON the switch
ARM GAS  C:\Users\tmj32\AppData\Local\Temp\cch6Xcfo.s 			page 22


  84:..\..\..\lvgl\version_6.1.2\lvgl/src/lv_objx/lv_sw.h ****  * @param sw pointer to a switch object
  85:..\..\..\lvgl\version_6.1.2\lvgl/src/lv_objx/lv_sw.h ****  * @param anim LV_ANIM_ON: set the value with an animation; LV_ANIM_OFF: change the value immediate
  86:..\..\..\lvgl\version_6.1.2\lvgl/src/lv_objx/lv_sw.h ****  */
  87:..\..\..\lvgl\version_6.1.2\lvgl/src/lv_objx/lv_sw.h **** void lv_sw_on(lv_obj_t * sw, lv_anim_enable_t anim);
  88:..\..\..\lvgl\version_6.1.2\lvgl/src/lv_objx/lv_sw.h **** 
  89:..\..\..\lvgl\version_6.1.2\lvgl/src/lv_objx/lv_sw.h **** /**
  90:..\..\..\lvgl\version_6.1.2\lvgl/src/lv_objx/lv_sw.h ****  * Turn OFF the switch
  91:..\..\..\lvgl\version_6.1.2\lvgl/src/lv_objx/lv_sw.h ****  * @param sw pointer to a switch object
  92:..\..\..\lvgl\version_6.1.2\lvgl/src/lv_objx/lv_sw.h ****  * @param anim LV_ANIM_ON: set the value with an animation; LV_ANIM_OFF: change the value immediate
  93:..\..\..\lvgl\version_6.1.2\lvgl/src/lv_objx/lv_sw.h ****  */
  94:..\..\..\lvgl\version_6.1.2\lvgl/src/lv_objx/lv_sw.h **** void lv_sw_off(lv_obj_t * sw, lv_anim_enable_t anim);
  95:..\..\..\lvgl\version_6.1.2\lvgl/src/lv_objx/lv_sw.h **** 
  96:..\..\..\lvgl\version_6.1.2\lvgl/src/lv_objx/lv_sw.h **** /**
  97:..\..\..\lvgl\version_6.1.2\lvgl/src/lv_objx/lv_sw.h ****  * Toggle the position of the switch
  98:..\..\..\lvgl\version_6.1.2\lvgl/src/lv_objx/lv_sw.h ****  * @param sw pointer to a switch object
  99:..\..\..\lvgl\version_6.1.2\lvgl/src/lv_objx/lv_sw.h ****  * @param anim LV_ANIM_ON: set the value with an animation; LV_ANIM_OFF: change the value immediate
 100:..\..\..\lvgl\version_6.1.2\lvgl/src/lv_objx/lv_sw.h ****  * @return resulting state of the switch.
 101:..\..\..\lvgl\version_6.1.2\lvgl/src/lv_objx/lv_sw.h ****  */
 102:..\..\..\lvgl\version_6.1.2\lvgl/src/lv_objx/lv_sw.h **** bool lv_sw_toggle(lv_obj_t * sw, lv_anim_enable_t anim);
 103:..\..\..\lvgl\version_6.1.2\lvgl/src/lv_objx/lv_sw.h **** 
 104:..\..\..\lvgl\version_6.1.2\lvgl/src/lv_objx/lv_sw.h **** /**
 105:..\..\..\lvgl\version_6.1.2\lvgl/src/lv_objx/lv_sw.h ****  * Set a style of a switch
 106:..\..\..\lvgl\version_6.1.2\lvgl/src/lv_objx/lv_sw.h ****  * @param sw pointer to a switch object
 107:..\..\..\lvgl\version_6.1.2\lvgl/src/lv_objx/lv_sw.h ****  * @param type which style should be set
 108:..\..\..\lvgl\version_6.1.2\lvgl/src/lv_objx/lv_sw.h ****  * @param style pointer to a style
 109:..\..\..\lvgl\version_6.1.2\lvgl/src/lv_objx/lv_sw.h ****  */
 110:..\..\..\lvgl\version_6.1.2\lvgl/src/lv_objx/lv_sw.h **** void lv_sw_set_style(lv_obj_t * sw, lv_sw_style_t type, const lv_style_t * style);
 111:..\..\..\lvgl\version_6.1.2\lvgl/src/lv_objx/lv_sw.h **** 
 112:..\..\..\lvgl\version_6.1.2\lvgl/src/lv_objx/lv_sw.h **** /**
 113:..\..\..\lvgl\version_6.1.2\lvgl/src/lv_objx/lv_sw.h ****  * Set the animation time of the switch
 114:..\..\..\lvgl\version_6.1.2\lvgl/src/lv_objx/lv_sw.h ****  * @param sw pointer to a  switch object
 115:..\..\..\lvgl\version_6.1.2\lvgl/src/lv_objx/lv_sw.h ****  * @param anim_time animation time
 116:..\..\..\lvgl\version_6.1.2\lvgl/src/lv_objx/lv_sw.h ****  * @return style pointer to a style
 117:..\..\..\lvgl\version_6.1.2\lvgl/src/lv_objx/lv_sw.h ****  */
 118:..\..\..\lvgl\version_6.1.2\lvgl/src/lv_objx/lv_sw.h **** void lv_sw_set_anim_time(lv_obj_t * sw, uint16_t anim_time);
 119:..\..\..\lvgl\version_6.1.2\lvgl/src/lv_objx/lv_sw.h **** 
 120:..\..\..\lvgl\version_6.1.2\lvgl/src/lv_objx/lv_sw.h **** /*=====================
 121:..\..\..\lvgl\version_6.1.2\lvgl/src/lv_objx/lv_sw.h ****  * Getter functions
 122:..\..\..\lvgl\version_6.1.2\lvgl/src/lv_objx/lv_sw.h ****  *====================*/
 123:..\..\..\lvgl\version_6.1.2\lvgl/src/lv_objx/lv_sw.h **** 
 124:..\..\..\lvgl\version_6.1.2\lvgl/src/lv_objx/lv_sw.h **** /**
 125:..\..\..\lvgl\version_6.1.2\lvgl/src/lv_objx/lv_sw.h ****  * Get the state of a switch
 126:..\..\..\lvgl\version_6.1.2\lvgl/src/lv_objx/lv_sw.h ****  * @param sw pointer to a switch object
 127:..\..\..\lvgl\version_6.1.2\lvgl/src/lv_objx/lv_sw.h ****  * @return false: OFF; true: ON
 128:..\..\..\lvgl\version_6.1.2\lvgl/src/lv_objx/lv_sw.h ****  */
 129:..\..\..\lvgl\version_6.1.2\lvgl/src/lv_objx/lv_sw.h **** static inline bool lv_sw_get_state(const lv_obj_t * sw)
 130:..\..\..\lvgl\version_6.1.2\lvgl/src/lv_objx/lv_sw.h **** {
 279              		.loc 5 130 0
 280              		.cfi_startproc
 281              		@ args = 0, pretend = 0, frame = 8
 282              		@ frame_needed = 1, uses_anonymous_args = 0
 283 0000 80B5     		push	{r7, lr}
 284              		.cfi_def_cfa_offset 8
 285              		.cfi_offset 7, -8
 286              		.cfi_offset 14, -4
 287 0002 82B0     		sub	sp, sp, #8
 288              		.cfi_def_cfa_offset 16
ARM GAS  C:\Users\tmj32\AppData\Local\Temp\cch6Xcfo.s 			page 23


 289 0004 00AF     		add	r7, sp, #0
 290              		.cfi_def_cfa_register 7
 291 0006 7860     		str	r0, [r7, #4]
 131:..\..\..\lvgl\version_6.1.2\lvgl/src/lv_objx/lv_sw.h ****     return lv_bar_get_value(sw) < LV_SW_MAX_VALUE / 2 ? false : true;
 292              		.loc 5 131 0
 293 0008 7868     		ldr	r0, [r7, #4]
 294 000a FFF7FEFF 		bl	lv_bar_get_value
 295 000e 0346     		mov	r3, r0
 296 0010 312B     		cmp	r3, #49
 297 0012 CCBF     		ite	gt
 298 0014 0123     		movgt	r3, #1
 299 0016 0023     		movle	r3, #0
 300 0018 DBB2     		uxtb	r3, r3
 132:..\..\..\lvgl\version_6.1.2\lvgl/src/lv_objx/lv_sw.h **** }
 301              		.loc 5 132 0
 302 001a 1846     		mov	r0, r3
 303 001c 0837     		adds	r7, r7, #8
 304              		.cfi_def_cfa_offset 8
 305 001e BD46     		mov	sp, r7
 306              		.cfi_def_cfa_register 13
 307              		@ sp needed
 308 0020 80BD     		pop	{r7, pc}
 309              		.cfi_endproc
 310              	.LFE714:
 311              		.size	lv_sw_get_state, .-lv_sw_get_state
 312              		.global	tcnj_blue
 313 0022 00BF     		.section	.rodata
 314              		.align	2
 315              		.type	tcnj_blue, %object
 316              		.size	tcnj_blue, 3
 317              	tcnj_blue:
 318 0000 29       		.byte	41
 319 0001 3F       		.byte	63
 320 0002 6F       		.byte	111
 321              		.global	tcnj_gold
 322 0003 00       		.align	2
 323              		.type	tcnj_gold, %object
 324              		.size	tcnj_gold, 3
 325              	tcnj_gold:
 326 0004 A6       		.byte	-90
 327 0005 7A       		.byte	122
 328 0006 00       		.byte	0
 329              		.bss
 330              		.align	2
 331              	offsetLabel:
 332 0000 00000000 		.space	4
 333              		.align	2
 334              	triggerLabel:
 335 0004 00000000 		.space	4
 336              		.align	2
 337              	horiLabel1:
 338 0008 00000000 		.space	4
 339              		.align	2
 340              	vertLabel1:
 341 000c 00000000 		.space	4
 342              		.global	startup
 343              		.align	2
ARM GAS  C:\Users\tmj32\AppData\Local\Temp\cch6Xcfo.s 			page 24


 344              		.type	startup, %object
 345              		.size	startup, 4
 346              	startup:
 347 0010 00000000 		.space	4
 348              		.global	__aeabi_i2d
 349              		.global	__aeabi_dsub
 350              		.global	__aeabi_ddiv
 351              		.global	__aeabi_dmul
 352              		.global	__aeabi_d2uiz
 353              		.global	__aeabi_dadd
 354              		.global	__aeabi_d2iz
 355              		.section	.text.chart_actions,"ax",%progbits
 356              		.align	2
 357              		.thumb
 358              		.thumb_func
 359              		.type	chart_actions, %function
 360              	chart_actions:
 361              	.LFB717:
 362              		.file 6 "home_screen.c"
   1:home_screen.c **** #include <stdio.h>
   2:home_screen.c **** 
   3:home_screen.c **** #include "project.h"
   4:home_screen.c **** #include "globalStruct.h"
   5:home_screen.c **** #include "lvgl.h"
   6:home_screen.c **** #include "home_screen.h"
   7:home_screen.c **** #include "slider_activity.h"
   8:home_screen.c **** #include "math.h"
   9:home_screen.c **** #include "string.h"
  10:home_screen.c **** 
  11:home_screen.c **** const uint8_t tcnj_blue[] = { 41, 63, 111 };
  12:home_screen.c **** const uint8_t tcnj_gold[] = { 166, 122, 0 };
  13:home_screen.c **** 
  14:home_screen.c **** static lv_obj_t * offsetLabel;
  15:home_screen.c **** static lv_obj_t * triggerLabel;
  16:home_screen.c **** static lv_obj_t * horiLabel1;
  17:home_screen.c **** static lv_obj_t * vertLabel1;
  18:home_screen.c **** //static lv_obj_t * windowLabel;
  19:home_screen.c **** 
  20:home_screen.c **** int startup = 0;
  21:home_screen.c **** 
  22:home_screen.c **** static void chart_actions()
  23:home_screen.c **** {    
 363              		.loc 6 23 0
 364              		.cfi_startproc
 365              		@ args = 0, pretend = 0, frame = 56
 366              		@ frame_needed = 1, uses_anonymous_args = 0
 367 0000 90B5     		push	{r4, r7, lr}
 368              		.cfi_def_cfa_offset 12
 369              		.cfi_offset 4, -12
 370              		.cfi_offset 7, -8
 371              		.cfi_offset 14, -4
 372 0002 8FB0     		sub	sp, sp, #60
 373              		.cfi_def_cfa_offset 72
 374 0004 00AF     		add	r7, sp, #0
 375              		.cfi_def_cfa_register 7
  24:home_screen.c ****     const int chart_width = 280;
 376              		.loc 6 24 0
ARM GAS  C:\Users\tmj32\AppData\Local\Temp\cch6Xcfo.s 			page 25


 377 0006 4FF48C73 		mov	r3, #280
 378 000a 7B62     		str	r3, [r7, #36]
  25:home_screen.c ****     const int chart_heigth = 200;
 379              		.loc 6 25 0
 380 000c C823     		movs	r3, #200
 381 000e 3B62     		str	r3, [r7, #32]
  26:home_screen.c ****     const int chart_vertPos = 20;
 382              		.loc 6 26 0
 383 0010 1423     		movs	r3, #20
 384 0012 FB61     		str	r3, [r7, #28]
  27:home_screen.c ****     const int chart_horiPos = 20; 
 385              		.loc 6 27 0
 386 0014 1423     		movs	r3, #20
 387 0016 BB61     		str	r3, [r7, #24]
  28:home_screen.c ****     int windowSize;
  29:home_screen.c ****     
  30:home_screen.c ****     static lv_obj_t *chart1;        //declaring the chart
  31:home_screen.c ****     if(startup == 1){
 388              		.loc 6 31 0
 389 0018 994B     		ldr	r3, .L34+8
 390 001a 1B68     		ldr	r3, [r3]
 391 001c 012B     		cmp	r3, #1
 392 001e 04D1     		bne	.L13
  32:home_screen.c ****         lv_obj_del(chart1);
 393              		.loc 6 32 0
 394 0020 984B     		ldr	r3, .L34+12
 395 0022 1B68     		ldr	r3, [r3]
 396 0024 1846     		mov	r0, r3
 397 0026 FFF7FEFF 		bl	lv_obj_del
 398              	.L13:
  33:home_screen.c ****     }   
  34:home_screen.c ****     
  35:home_screen.c ****     /* Display chart                         */        
  36:home_screen.c ****     chart1 = lv_chart_create(lv_scr_act(), NULL);                     //Add a chart to the current 
 399              		.loc 6 36 0
 400 002a FFF7FEFF 		bl	lv_scr_act
 401 002e 0346     		mov	r3, r0
 402 0030 0021     		movs	r1, #0
 403 0032 1846     		mov	r0, r3
 404 0034 FFF7FEFF 		bl	lv_chart_create
 405 0038 0246     		mov	r2, r0
 406 003a 924B     		ldr	r3, .L34+12
 407 003c 1A60     		str	r2, [r3]
  37:home_screen.c ****     //lv_obj_set_pos(chart1, chart_horiPos, chart_vertPos);             /*Set its position*/
  38:home_screen.c ****     lv_obj_set_pos(chart1, chart_horiPos, 50); 
 408              		.loc 6 38 0
 409 003e 914B     		ldr	r3, .L34+12
 410 0040 1B68     		ldr	r3, [r3]
 411 0042 BA69     		ldr	r2, [r7, #24]
 412 0044 11B2     		sxth	r1, r2
 413 0046 3222     		movs	r2, #50
 414 0048 1846     		mov	r0, r3
 415 004a FFF7FEFF 		bl	lv_obj_set_pos
  39:home_screen.c ****     lv_obj_set_size(chart1, chart_width, chart_heigth);               /*Set its size*/ 
 416              		.loc 6 39 0
 417 004e 8D4B     		ldr	r3, .L34+12
 418 0050 1B68     		ldr	r3, [r3]
ARM GAS  C:\Users\tmj32\AppData\Local\Temp\cch6Xcfo.s 			page 26


 419 0052 7A6A     		ldr	r2, [r7, #36]
 420 0054 11B2     		sxth	r1, r2
 421 0056 3A6A     		ldr	r2, [r7, #32]
 422 0058 12B2     		sxth	r2, r2
 423 005a 1846     		mov	r0, r3
 424 005c FFF7FEFF 		bl	lv_obj_set_size
  40:home_screen.c ****     
  41:home_screen.c ****     //sets the grid lines, hori, verti
  42:home_screen.c ****     lv_chart_set_div_line_count(chart1, 7, 5);
 425              		.loc 6 42 0
 426 0060 884B     		ldr	r3, .L34+12
 427 0062 1B68     		ldr	r3, [r3]
 428 0064 0522     		movs	r2, #5
 429 0066 0721     		movs	r1, #7
 430 0068 1846     		mov	r0, r3
 431 006a FFF7FEFF 		bl	lv_chart_set_div_line_count
  43:home_screen.c ****     
  44:home_screen.c ****     //determine the vertical limits of the chart
  45:home_screen.c ****     //lv_chart_set_range(chart1, y_min, y_max);
  46:home_screen.c ****     switch(cm4.VertScale){
 432              		.loc 6 46 0
 433 006e 864B     		ldr	r3, .L34+16
 434 0070 5B7D     		ldrb	r3, [r3, #21]	@ zero_extendqisi2
 435 0072 033B     		subs	r3, r3, #3
 436 0074 042B     		cmp	r3, #4
 437 0076 3DD8     		bhi	.L14
 438 0078 01A2     		adr	r2, .L16
 439 007a 52F823F0 		ldr	pc, [r2, r3, lsl #2]
 440 007e 00BF     		.p2align 2
 441              	.L16:
 442 0080 95000000 		.word	.L15+1
 443 0084 A9000000 		.word	.L17+1
 444 0088 BD000000 		.word	.L18+1
 445 008c D1000000 		.word	.L19+1
 446 0090 E3000000 		.word	.L20+1
 447              		.p2align 1
 448              	.L15:
  47:home_screen.c ****     case 3 :
  48:home_screen.c ****         lv_chart_set_range(chart1, 475, 525);
 449              		.loc 6 48 0
 450 0094 7B4B     		ldr	r3, .L34+12
 451 0096 1B68     		ldr	r3, [r3]
 452 0098 40F20D22 		movw	r2, #525
 453 009c 40F2DB11 		movw	r1, #475
 454 00a0 1846     		mov	r0, r3
 455 00a2 FFF7FEFF 		bl	lv_chart_set_range
  49:home_screen.c ****         break;
 456              		.loc 6 49 0
 457 00a6 2DE0     		b	.L21
 458              	.L17:
  50:home_screen.c ****     case 4 :
  51:home_screen.c ****         lv_chart_set_range(chart1, 450, 550);
 459              		.loc 6 51 0
 460 00a8 764B     		ldr	r3, .L34+12
 461 00aa 1B68     		ldr	r3, [r3]
 462 00ac 40F22622 		movw	r2, #550
 463 00b0 4FF4E171 		mov	r1, #450
ARM GAS  C:\Users\tmj32\AppData\Local\Temp\cch6Xcfo.s 			page 27


 464 00b4 1846     		mov	r0, r3
 465 00b6 FFF7FEFF 		bl	lv_chart_set_range
  52:home_screen.c ****         break;
 466              		.loc 6 52 0
 467 00ba 23E0     		b	.L21
 468              	.L18:
  53:home_screen.c ****     case 5 :
  54:home_screen.c ****         lv_chart_set_range(chart1, 375, 625);
 469              		.loc 6 54 0
 470 00bc 714B     		ldr	r3, .L34+12
 471 00be 1B68     		ldr	r3, [r3]
 472 00c0 40F27122 		movw	r2, #625
 473 00c4 40F27711 		movw	r1, #375
 474 00c8 1846     		mov	r0, r3
 475 00ca FFF7FEFF 		bl	lv_chart_set_range
  55:home_screen.c ****         break;
 476              		.loc 6 55 0
 477 00ce 19E0     		b	.L21
 478              	.L19:
  56:home_screen.c ****     case 6 :
  57:home_screen.c ****         lv_chart_set_range(chart1, 250, 750);
 479              		.loc 6 57 0
 480 00d0 6C4B     		ldr	r3, .L34+12
 481 00d2 1B68     		ldr	r3, [r3]
 482 00d4 40F2EE22 		movw	r2, #750
 483 00d8 FA21     		movs	r1, #250
 484 00da 1846     		mov	r0, r3
 485 00dc FFF7FEFF 		bl	lv_chart_set_range
  58:home_screen.c ****         break;
 486              		.loc 6 58 0
 487 00e0 10E0     		b	.L21
 488              	.L20:
  59:home_screen.c ****     case 7 :
  60:home_screen.c ****         lv_chart_set_range(chart1, 0, 1000);
 489              		.loc 6 60 0
 490 00e2 684B     		ldr	r3, .L34+12
 491 00e4 1B68     		ldr	r3, [r3]
 492 00e6 4FF47A72 		mov	r2, #1000
 493 00ea 0021     		movs	r1, #0
 494 00ec 1846     		mov	r0, r3
 495 00ee FFF7FEFF 		bl	lv_chart_set_range
  61:home_screen.c ****         break;
 496              		.loc 6 61 0
 497 00f2 07E0     		b	.L21
 498              	.L14:
  62:home_screen.c ****     default:
  63:home_screen.c ****         lv_chart_set_range(chart1, 0, 100);
 499              		.loc 6 63 0
 500 00f4 634B     		ldr	r3, .L34+12
 501 00f6 1B68     		ldr	r3, [r3]
 502 00f8 6422     		movs	r2, #100
 503 00fa 0021     		movs	r1, #0
 504 00fc 1846     		mov	r0, r3
 505 00fe FFF7FEFF 		bl	lv_chart_set_range
  64:home_screen.c ****         break;
 506              		.loc 6 64 0
 507 0102 00BF     		nop
ARM GAS  C:\Users\tmj32\AppData\Local\Temp\cch6Xcfo.s 			page 28


 508              	.L21:
  65:home_screen.c ****     }
  66:home_screen.c ****     
  67:home_screen.c ****     
  68:home_screen.c ****     //determine horizontal limits of the chart 
  69:home_screen.c ****     switch(cm4.HoriScale){
 509              		.loc 6 69 0
 510 0104 604B     		ldr	r3, .L34+16
 511 0106 1B7D     		ldrb	r3, [r3, #20]	@ zero_extendqisi2
 512 0108 053B     		subs	r3, r3, #5
 513 010a 042B     		cmp	r3, #4
 514 010c 1ED8     		bhi	.L22
 515 010e 01A2     		adr	r2, .L24
 516 0110 52F823F0 		ldr	pc, [r2, r3, lsl #2]
 517              		.p2align 2
 518              	.L24:
 519 0114 29010000 		.word	.L23+1
 520 0118 2F010000 		.word	.L25+1
 521 011c 35010000 		.word	.L26+1
 522 0120 3D010000 		.word	.L27+1
 523 0124 45010000 		.word	.L28+1
 524              		.p2align 1
 525              	.L23:
  70:home_screen.c ****     case 5 :
  71:home_screen.c ****         windowSize = 100;
 526              		.loc 6 71 0
 527 0128 6423     		movs	r3, #100
 528 012a 7B63     		str	r3, [r7, #52]
  72:home_screen.c ****         break;
 529              		.loc 6 72 0
 530 012c 12E0     		b	.L29
 531              	.L25:
  73:home_screen.c ****     case 6 :
  74:home_screen.c ****         windowSize = 200;
 532              		.loc 6 74 0
 533 012e C823     		movs	r3, #200
 534 0130 7B63     		str	r3, [r7, #52]
  75:home_screen.c ****         break;
 535              		.loc 6 75 0
 536 0132 0FE0     		b	.L29
 537              	.L26:
  76:home_screen.c ****     case 7 :
  77:home_screen.c ****         windowSize = 500;
 538              		.loc 6 77 0
 539 0134 4FF4FA73 		mov	r3, #500
 540 0138 7B63     		str	r3, [r7, #52]
  78:home_screen.c ****         break;
 541              		.loc 6 78 0
 542 013a 0BE0     		b	.L29
 543              	.L27:
  79:home_screen.c ****     case 8 :
  80:home_screen.c ****         windowSize = 1000;
 544              		.loc 6 80 0
 545 013c 4FF47A73 		mov	r3, #1000
 546 0140 7B63     		str	r3, [r7, #52]
  81:home_screen.c ****         break;
 547              		.loc 6 81 0
ARM GAS  C:\Users\tmj32\AppData\Local\Temp\cch6Xcfo.s 			page 29


 548 0142 07E0     		b	.L29
 549              	.L28:
  82:home_screen.c ****     case 9 :
  83:home_screen.c ****         windowSize = 2000;
 550              		.loc 6 83 0
 551 0144 4FF4FA63 		mov	r3, #2000
 552 0148 7B63     		str	r3, [r7, #52]
  84:home_screen.c ****         break;
 553              		.loc 6 84 0
 554 014a 03E0     		b	.L29
 555              	.L22:
  85:home_screen.c ****     default:
  86:home_screen.c ****         windowSize = 500;
 556              		.loc 6 86 0
 557 014c 4FF4FA73 		mov	r3, #500
 558 0150 7B63     		str	r3, [r7, #52]
  87:home_screen.c ****         break;
 559              		.loc 6 87 0
 560 0152 00BF     		nop
 561              	.L29:
  88:home_screen.c ****     }    
  89:home_screen.c ****     lv_chart_set_point_count(chart1, windowSize);                  //setting the number of points o
 562              		.loc 6 89 0
 563 0154 4B4B     		ldr	r3, .L34+12
 564 0156 1B68     		ldr	r3, [r3]
 565 0158 7A6B     		ldr	r2, [r7, #52]
 566 015a 92B2     		uxth	r2, r2
 567 015c 1146     		mov	r1, r2
 568 015e 1846     		mov	r0, r3
 569 0160 FFF7FEFF 		bl	lv_chart_set_point_count
  90:home_screen.c ****     lv_chart_set_type(chart1, LV_CHART_TYPE_LINE);                    //set graph to points, as opp
 570              		.loc 6 90 0
 571 0164 474B     		ldr	r3, .L34+12
 572 0166 1B68     		ldr	r3, [r3]
 573 0168 0121     		movs	r1, #1
 574 016a 1846     		mov	r0, r3
 575 016c FFF7FEFF 		bl	lv_chart_set_type
  91:home_screen.c ****     
  92:home_screen.c ****     //Add series to the chart
  93:home_screen.c ****     lv_chart_series_t * s1 = lv_chart_add_series(chart1, lv_color_hex(0x01a2b1));
 576              		.loc 6 93 0
 577 0170 444B     		ldr	r3, .L34+12
 578 0172 1C68     		ldr	r4, [r3]
 579 0174 4548     		ldr	r0, .L34+20
 580 0176 FFF7FEFF 		bl	lv_color_hex
 581 017a 0346     		mov	r3, r0
 582 017c 1946     		mov	r1, r3
 583 017e 2046     		mov	r0, r4
 584 0180 FFF7FEFF 		bl	lv_chart_add_series
 585 0184 7861     		str	r0, [r7, #20]
  94:home_screen.c ****     lv_chart_series_t * s2 = lv_chart_add_series(chart1, lv_color_hex(0xCC));
 586              		.loc 6 94 0
 587 0186 3F4B     		ldr	r3, .L34+12
 588 0188 1C68     		ldr	r4, [r3]
 589 018a CC20     		movs	r0, #204
 590 018c FFF7FEFF 		bl	lv_color_hex
 591 0190 0346     		mov	r3, r0
ARM GAS  C:\Users\tmj32\AppData\Local\Temp\cch6Xcfo.s 			page 30


 592 0192 1946     		mov	r1, r3
 593 0194 2046     		mov	r0, r4
 594 0196 FFF7FEFF 		bl	lv_chart_add_series
 595 019a 3861     		str	r0, [r7, #16]
  95:home_screen.c ****     
  96:home_screen.c ****     lv_chart_clear_serie(chart1, s1);
 596              		.loc 6 96 0
 597 019c 394B     		ldr	r3, .L34+12
 598 019e 1B68     		ldr	r3, [r3]
 599 01a0 7969     		ldr	r1, [r7, #20]
 600 01a2 1846     		mov	r0, r3
 601 01a4 FFF7FEFF 		bl	lv_chart_clear_serie
  97:home_screen.c ****     lv_chart_clear_serie(chart1, s2);
 602              		.loc 6 97 0
 603 01a8 364B     		ldr	r3, .L34+12
 604 01aa 1B68     		ldr	r3, [r3]
 605 01ac 3969     		ldr	r1, [r7, #16]
 606 01ae 1846     		mov	r0, r3
 607 01b0 FFF7FEFF 		bl	lv_chart_clear_serie
  98:home_screen.c ****     lv_chart_refresh(chart1);
 608              		.loc 6 98 0
 609 01b4 334B     		ldr	r3, .L34+12
 610 01b6 1B68     		ldr	r3, [r3]
 611 01b8 1846     		mov	r0, r3
 612 01ba FFF7FEFF 		bl	lv_chart_refresh
  99:home_screen.c ****     
 100:home_screen.c ****     // Need to calculate the desired indexes in RxBuffer, Based on HoriScale => window size
 101:home_screen.c ****     int bufferFirst = cm4.windowPos - windowSize/2;
 613              		.loc 6 101 0
 614 01be 324B     		ldr	r3, .L34+16
 615 01c0 1A69     		ldr	r2, [r3, #16]
 616 01c2 7B6B     		ldr	r3, [r7, #52]
 617 01c4 D90F     		lsrs	r1, r3, #31
 618 01c6 0B44     		add	r3, r3, r1
 619 01c8 5B10     		asrs	r3, r3, #1
 620 01ca D31A     		subs	r3, r2, r3
 621 01cc 3B63     		str	r3, [r7, #48]
 102:home_screen.c ****     int bufferLast = cm4.windowPos + windowSize/2;
 622              		.loc 6 102 0
 623 01ce 2E4B     		ldr	r3, .L34+16
 624 01d0 1A69     		ldr	r2, [r3, #16]
 625 01d2 7B6B     		ldr	r3, [r7, #52]
 626 01d4 D90F     		lsrs	r1, r3, #31
 627 01d6 0B44     		add	r3, r3, r1
 628 01d8 5B10     		asrs	r3, r3, #1
 629 01da 1344     		add	r3, r3, r2
 630 01dc FB62     		str	r3, [r7, #44]
 103:home_screen.c ****     
 104:home_screen.c ****     //handle negative edge cases
 105:home_screen.c ****     if(bufferFirst < 0){
 631              		.loc 6 105 0
 632 01de 3B6B     		ldr	r3, [r7, #48]
 633 01e0 002B     		cmp	r3, #0
 634 01e2 03DA     		bge	.L30
 106:home_screen.c ****         bufferLast = windowSize;
 635              		.loc 6 106 0
 636 01e4 7B6B     		ldr	r3, [r7, #52]
ARM GAS  C:\Users\tmj32\AppData\Local\Temp\cch6Xcfo.s 			page 31


 637 01e6 FB62     		str	r3, [r7, #44]
 107:home_screen.c ****         bufferFirst = 0;
 638              		.loc 6 107 0
 639 01e8 0023     		movs	r3, #0
 640 01ea 3B63     		str	r3, [r7, #48]
 641              	.L30:
 108:home_screen.c ****     }
 109:home_screen.c ****     
 110:home_screen.c ****     //handle overflow edge cases
 111:home_screen.c ****     if(bufferLast > 2048){
 642              		.loc 6 111 0
 643 01ec FB6A     		ldr	r3, [r7, #44]
 644 01ee B3F5006F 		cmp	r3, #2048
 645 01f2 06DD     		ble	.L31
 112:home_screen.c ****         bufferFirst = 2048 - windowSize;
 646              		.loc 6 112 0
 647 01f4 7B6B     		ldr	r3, [r7, #52]
 648 01f6 C3F50063 		rsb	r3, r3, #2048
 649 01fa 3B63     		str	r3, [r7, #48]
 113:home_screen.c ****         bufferLast = 2048;
 650              		.loc 6 113 0
 651 01fc 4FF40063 		mov	r3, #2048
 652 0200 FB62     		str	r3, [r7, #44]
 653              	.L31:
 114:home_screen.c ****     }    
 115:home_screen.c **** 
 116:home_screen.c ****     double voltage = 0; //convert the code from brian to voltage using:
 654              		.loc 6 116 0
 655 0202 4FF00003 		mov	r3, #0
 656 0206 4FF00004 		mov	r4, #0
 657 020a C7E90234 		strd	r3, [r7, #8]
 117:home_screen.c ****     //voltage = ((code*0.5)/128)+1.45
 118:home_screen.c **** 
 119:home_screen.c ****     double triggerTemp = cm4.Trigger/1000;
 658              		.loc 6 119 0
 659 020e 1E4B     		ldr	r3, .L34+16
 660 0210 9B88     		ldrh	r3, [r3, #4]
 661 0212 1F4A     		ldr	r2, .L34+24
 662 0214 A2FB0323 		umull	r2, r3, r2, r3
 663 0218 9B09     		lsrs	r3, r3, #6
 664 021a 9BB2     		uxth	r3, r3
 665 021c 1846     		mov	r0, r3
 666 021e FFF7FEFF 		bl	__aeabi_i2d
 667 0222 0346     		mov	r3, r0
 668 0224 0C46     		mov	r4, r1
 669 0226 C7E90034 		strd	r3, [r7]
 120:home_screen.c ****     cm4.TriggerCode = (((triggerTemp-1.45)/0.5)*128); //convert the voltage from trigger to code us
 670              		.loc 6 120 0
 671 022a 13A3     		adr	r3, .L34
 672 022c D3E90023 		ldrd	r2, [r3]
 673 0230 D7E90001 		ldrd	r0, [r7]
 674 0234 FFF7FEFF 		bl	__aeabi_dsub
 675 0238 0346     		mov	r3, r0
 676 023a 0C46     		mov	r4, r1
 677 023c 1846     		mov	r0, r3
 678 023e 2146     		mov	r1, r4
 679 0240 4FF00002 		mov	r2, #0
ARM GAS  C:\Users\tmj32\AppData\Local\Temp\cch6Xcfo.s 			page 32


 680 0244 134B     		ldr	r3, .L34+28
 681 0246 FFF7FEFF 		bl	__aeabi_ddiv
 682 024a 0346     		mov	r3, r0
 683 024c 0C46     		mov	r4, r1
 684 024e 1846     		mov	r0, r3
 685 0250 2146     		mov	r1, r4
 686 0252 4FF00002 		mov	r2, #0
 687 0256 104B     		ldr	r3, .L34+32
 688 0258 FFF7FEFF 		bl	__aeabi_dmul
 689 025c 0346     		mov	r3, r0
 690 025e 0C46     		mov	r4, r1
 691 0260 1846     		mov	r0, r3
 692 0262 2146     		mov	r1, r4
 693 0264 FFF7FEFF 		bl	__aeabi_d2uiz
 694 0268 0346     		mov	r3, r0
 695 026a DAB2     		uxtb	r2, r3
 696 026c 064B     		ldr	r3, .L34+16
 697 026e 9A71     		strb	r2, [r3, #6]
 698              	.LBB2:
 121:home_screen.c ****     //triggerCode = ((voltage -1.45)/0.5)*128
 122:home_screen.c **** 
 123:home_screen.c ****     //draw the series
 124:home_screen.c ****     for(int i = bufferFirst; i < bufferLast; ++i){
 699              		.loc 6 124 0
 700 0270 3B6B     		ldr	r3, [r7, #48]
 701 0272 BB62     		str	r3, [r7, #40]
 702 0274 7AE0     		b	.L32
 703              	.L35:
 704 0276 00BF     		.align	3
 705              	.L34:
 706 0278 33333333 		.word	858993459
 707 027c 3333F73F 		.word	1073165107
 708 0280 00000000 		.word	startup
 709 0284 14000000 		.word	chart1.20846
 710 0288 00000000 		.word	cm4
 711 028c B1A20100 		.word	107185
 712 0290 D34D6210 		.word	274877907
 713 0294 0000E03F 		.word	1071644672
 714 0298 00006040 		.word	1080033280
 715              	.L33:
 125:home_screen.c ****         /*        |------code to voltage equation-------|* show decimals| */
 126:home_screen.c ****         voltage = (((cm4.RamReadBuffer[i]*0.5)/128)+1.45)*100;
 716              		.loc 6 126 0 discriminator 3
 717 029c 3E4A     		ldr	r2, .L36+16
 718 029e BB6A     		ldr	r3, [r7, #40]
 719 02a0 1344     		add	r3, r3, r2
 720 02a2 4233     		adds	r3, r3, #66
 721 02a4 93F90030 		ldrsb	r3, [r3]
 722 02a8 1846     		mov	r0, r3
 723 02aa FFF7FEFF 		bl	__aeabi_i2d
 724 02ae 4FF00002 		mov	r2, #0
 725 02b2 3A4B     		ldr	r3, .L36+20
 726 02b4 FFF7FEFF 		bl	__aeabi_dmul
 727 02b8 0346     		mov	r3, r0
 728 02ba 0C46     		mov	r4, r1
 729 02bc 1846     		mov	r0, r3
 730 02be 2146     		mov	r1, r4
ARM GAS  C:\Users\tmj32\AppData\Local\Temp\cch6Xcfo.s 			page 33


 731 02c0 4FF00002 		mov	r2, #0
 732 02c4 364B     		ldr	r3, .L36+24
 733 02c6 FFF7FEFF 		bl	__aeabi_ddiv
 734 02ca 0346     		mov	r3, r0
 735 02cc 0C46     		mov	r4, r1
 736 02ce 1846     		mov	r0, r3
 737 02d0 2146     		mov	r1, r4
 738 02d2 2DA3     		adr	r3, .L36
 739 02d4 D3E90023 		ldrd	r2, [r3]
 740 02d8 FFF7FEFF 		bl	__aeabi_dadd
 741 02dc 0346     		mov	r3, r0
 742 02de 0C46     		mov	r4, r1
 743 02e0 1846     		mov	r0, r3
 744 02e2 2146     		mov	r1, r4
 745 02e4 4FF00002 		mov	r2, #0
 746 02e8 2E4B     		ldr	r3, .L36+28
 747 02ea FFF7FEFF 		bl	__aeabi_dmul
 748 02ee 0346     		mov	r3, r0
 749 02f0 0C46     		mov	r4, r1
 750 02f2 C7E90234 		strd	r3, [r7, #8]
 127:home_screen.c ****         /*       |orginal|+|user offset|+|internal offset to account for negatives|*/
 128:home_screen.c ****         voltage = voltage + cm4.Offset/15 + 355;
 751              		.loc 6 128 0 discriminator 3
 752 02f6 284B     		ldr	r3, .L36+16
 753 02f8 B3F90E30 		ldrsh	r3, [r3, #14]
 754 02fc 2A4A     		ldr	r2, .L36+32
 755 02fe 82FB0312 		smull	r1, r2, r2, r3
 756 0302 1A44     		add	r2, r2, r3
 757 0304 D210     		asrs	r2, r2, #3
 758 0306 DB17     		asrs	r3, r3, #31
 759 0308 D31A     		subs	r3, r2, r3
 760 030a 1BB2     		sxth	r3, r3
 761 030c 1846     		mov	r0, r3
 762 030e FFF7FEFF 		bl	__aeabi_i2d
 763 0312 D7E90223 		ldrd	r2, [r7, #8]
 764 0316 FFF7FEFF 		bl	__aeabi_dadd
 765 031a 0346     		mov	r3, r0
 766 031c 0C46     		mov	r4, r1
 767 031e 1846     		mov	r0, r3
 768 0320 2146     		mov	r1, r4
 769 0322 1BA3     		adr	r3, .L36+8
 770 0324 D3E90023 		ldrd	r2, [r3]
 771 0328 FFF7FEFF 		bl	__aeabi_dadd
 772 032c 0346     		mov	r3, r0
 773 032e 0C46     		mov	r4, r1
 774 0330 C7E90234 		strd	r3, [r7, #8]
 129:home_screen.c ****         lv_chart_set_next(chart1, s1, voltage);
 775              		.loc 6 129 0 discriminator 3
 776 0334 1D4B     		ldr	r3, .L36+36
 777 0336 1C68     		ldr	r4, [r3]
 778 0338 D7E90201 		ldrd	r0, [r7, #8]
 779 033c FFF7FEFF 		bl	__aeabi_d2iz
 780 0340 0346     		mov	r3, r0
 781 0342 1BB2     		sxth	r3, r3
 782 0344 1A46     		mov	r2, r3
 783 0346 7969     		ldr	r1, [r7, #20]
 784 0348 2046     		mov	r0, r4
ARM GAS  C:\Users\tmj32\AppData\Local\Temp\cch6Xcfo.s 			page 34


 785 034a FFF7FEFF 		bl	lv_chart_set_next
 130:home_screen.c ****         lv_chart_set_next(chart1, s2, cm4.Trigger + 355);
 786              		.loc 6 130 0 discriminator 3
 787 034e 174B     		ldr	r3, .L36+36
 788 0350 1868     		ldr	r0, [r3]
 789 0352 114B     		ldr	r3, .L36+16
 790 0354 9B88     		ldrh	r3, [r3, #4]
 791 0356 03F26313 		addw	r3, r3, #355
 792 035a 9BB2     		uxth	r3, r3
 793 035c 1BB2     		sxth	r3, r3
 794 035e 1A46     		mov	r2, r3
 795 0360 3969     		ldr	r1, [r7, #16]
 796 0362 FFF7FEFF 		bl	lv_chart_set_next
 124:home_screen.c ****         /*        |------code to voltage equation-------|* show decimals| */
 797              		.loc 6 124 0 discriminator 3
 798 0366 BB6A     		ldr	r3, [r7, #40]
 799 0368 0133     		adds	r3, r3, #1
 800 036a BB62     		str	r3, [r7, #40]
 801              	.L32:
 124:home_screen.c ****         /*        |------code to voltage equation-------|* show decimals| */
 802              		.loc 6 124 0 is_stmt 0 discriminator 1
 803 036c BA6A     		ldr	r2, [r7, #40]
 804 036e FB6A     		ldr	r3, [r7, #44]
 805 0370 9A42     		cmp	r2, r3
 806 0372 93DB     		blt	.L33
 807              	.LBE2:
 131:home_screen.c ****     }   
 132:home_screen.c ****     startup = 1;
 808              		.loc 6 132 0 is_stmt 1
 809 0374 0E4B     		ldr	r3, .L36+40
 810 0376 0122     		movs	r2, #1
 811 0378 1A60     		str	r2, [r3]
 133:home_screen.c **** }
 812              		.loc 6 133 0
 813 037a 00BF     		nop
 814 037c 3C37     		adds	r7, r7, #60
 815              		.cfi_def_cfa_offset 12
 816 037e BD46     		mov	sp, r7
 817              		.cfi_def_cfa_register 13
 818              		@ sp needed
 819 0380 90BD     		pop	{r4, r7, pc}
 820              	.L37:
 821 0382 00BFAFF3 		.align	3
 821      0080
 822              	.L36:
 823 0388 33333333 		.word	858993459
 824 038c 3333F73F 		.word	1073165107
 825 0390 00000000 		.word	0
 826 0394 00307640 		.word	1081487360
 827 0398 00000000 		.word	cm4
 828 039c 0000E03F 		.word	1071644672
 829 03a0 00006040 		.word	1080033280
 830 03a4 00005940 		.word	1079574528
 831 03a8 89888888 		.word	-2004318071
 832 03ac 14000000 		.word	chart1.20846
 833 03b0 00000000 		.word	startup
 834              		.cfi_endproc
ARM GAS  C:\Users\tmj32\AppData\Local\Temp\cch6Xcfo.s 			page 35


 835              	.LFE717:
 836              		.size	chart_actions, .-chart_actions
 837              		.section	.rodata
 838 0007 00       		.align	2
 839              	.LC0:
 840 0008 46616C6C 		.ascii	"Falling\000"
 840      696E6700 
 841              		.align	2
 842              	.LC1:
 843 0010 52697369 		.ascii	"Rising\000"
 843      6E6700
 844 0017 00       		.align	2
 845              	.LC2:
 846 0018 54687265 		.ascii	"Threshold\000"
 846      73686F6C 
 846      6400
 847              		.section	.text.roller1_event,"ax",%progbits
 848              		.align	2
 849              		.thumb
 850              		.thumb_func
 851              		.type	roller1_event, %function
 852              	roller1_event:
 853              	.LFB718:
 134:home_screen.c **** 
 135:home_screen.c **** static void roller1_event(lv_obj_t * obj, lv_event_t event)
 136:home_screen.c **** {
 854              		.loc 6 136 0
 855              		.cfi_startproc
 856              		@ args = 0, pretend = 0, frame = 40
 857              		@ frame_needed = 1, uses_anonymous_args = 0
 858 0000 80B5     		push	{r7, lr}
 859              		.cfi_def_cfa_offset 8
 860              		.cfi_offset 7, -8
 861              		.cfi_offset 14, -4
 862 0002 8AB0     		sub	sp, sp, #40
 863              		.cfi_def_cfa_offset 48
 864 0004 00AF     		add	r7, sp, #0
 865              		.cfi_def_cfa_register 7
 866 0006 7860     		str	r0, [r7, #4]
 867 0008 0B46     		mov	r3, r1
 868 000a FB70     		strb	r3, [r7, #3]
 137:home_screen.c ****     if(event == (LV_EVENT_VALUE_CHANGED)) {
 869              		.loc 6 137 0
 870 000c FB78     		ldrb	r3, [r7, #3]	@ zero_extendqisi2
 871 000e 0E2B     		cmp	r3, #14
 872 0010 2CD1     		bne	.L43
 873              	.LBB3:
 138:home_screen.c ****         char buf[32];
 139:home_screen.c ****         lv_roller_get_selected_str(obj, buf, sizeof(buf));
 874              		.loc 6 139 0
 875 0012 07F10803 		add	r3, r7, #8
 876 0016 2022     		movs	r2, #32
 877 0018 1946     		mov	r1, r3
 878 001a 7868     		ldr	r0, [r7, #4]
 879 001c FFF7FEFF 		bl	lv_roller_get_selected_str
 140:home_screen.c ****         
 141:home_screen.c ****         if(strcmp("Falling", buf) == 0){
ARM GAS  C:\Users\tmj32\AppData\Local\Temp\cch6Xcfo.s 			page 36


 880              		.loc 6 141 0
 881 0020 07F10803 		add	r3, r7, #8
 882 0024 1946     		mov	r1, r3
 883 0026 1348     		ldr	r0, .L44
 884 0028 FFF7FEFF 		bl	strcmp
 885 002c 0346     		mov	r3, r0
 886 002e 002B     		cmp	r3, #0
 887 0030 03D1     		bne	.L40
 142:home_screen.c ****             cm4.TriggerSlope = 0b00000000;
 888              		.loc 6 142 0
 889 0032 114B     		ldr	r3, .L44+4
 890 0034 0022     		movs	r2, #0
 891 0036 DA71     		strb	r2, [r3, #7]
 892              	.LBE3:
 143:home_screen.c ****         }
 144:home_screen.c ****         else if(strcmp("Rising", buf) == 0){
 145:home_screen.c ****             cm4.TriggerSlope = 0b00000001;
 146:home_screen.c ****         }
 147:home_screen.c ****         else if(strcmp("Threshold", buf) == 0){
 148:home_screen.c ****             cm4.TriggerSlope = 0b00000011;
 149:home_screen.c ****         }
 150:home_screen.c ****     }
 151:home_screen.c **** }
 893              		.loc 6 151 0
 894 0038 18E0     		b	.L43
 895              	.L40:
 896              	.LBB4:
 144:home_screen.c ****             cm4.TriggerSlope = 0b00000001;
 897              		.loc 6 144 0
 898 003a 07F10803 		add	r3, r7, #8
 899 003e 1946     		mov	r1, r3
 900 0040 0E48     		ldr	r0, .L44+8
 901 0042 FFF7FEFF 		bl	strcmp
 902 0046 0346     		mov	r3, r0
 903 0048 002B     		cmp	r3, #0
 904 004a 03D1     		bne	.L42
 145:home_screen.c ****         }
 905              		.loc 6 145 0
 906 004c 0A4B     		ldr	r3, .L44+4
 907 004e 0122     		movs	r2, #1
 908 0050 DA71     		strb	r2, [r3, #7]
 909              	.LBE4:
 910              		.loc 6 151 0
 911 0052 0BE0     		b	.L43
 912              	.L42:
 913              	.LBB5:
 147:home_screen.c ****             cm4.TriggerSlope = 0b00000011;
 914              		.loc 6 147 0
 915 0054 07F10803 		add	r3, r7, #8
 916 0058 1946     		mov	r1, r3
 917 005a 0948     		ldr	r0, .L44+12
 918 005c FFF7FEFF 		bl	strcmp
 919 0060 0346     		mov	r3, r0
 920 0062 002B     		cmp	r3, #0
 921 0064 02D1     		bne	.L43
 148:home_screen.c ****         }
 922              		.loc 6 148 0
ARM GAS  C:\Users\tmj32\AppData\Local\Temp\cch6Xcfo.s 			page 37


 923 0066 044B     		ldr	r3, .L44+4
 924 0068 0322     		movs	r2, #3
 925 006a DA71     		strb	r2, [r3, #7]
 926              	.L43:
 927              	.LBE5:
 928              		.loc 6 151 0
 929 006c 00BF     		nop
 930 006e 2837     		adds	r7, r7, #40
 931              		.cfi_def_cfa_offset 8
 932 0070 BD46     		mov	sp, r7
 933              		.cfi_def_cfa_register 13
 934              		@ sp needed
 935 0072 80BD     		pop	{r7, pc}
 936              	.L45:
 937              		.align	2
 938              	.L44:
 939 0074 08000000 		.word	.LC0
 940 0078 00000000 		.word	cm4
 941 007c 10000000 		.word	.LC1
 942 0080 18000000 		.word	.LC2
 943              		.cfi_endproc
 944              	.LFE718:
 945              		.size	roller1_event, .-roller1_event
 946              		.section	.text.roller2_event,"ax",%progbits
 947              		.align	2
 948              		.thumb
 949              		.thumb_func
 950              		.type	roller2_event, %function
 951              	roller2_event:
 952              	.LFB719:
 152:home_screen.c **** static void roller2_event(lv_obj_t * obj, lv_event_t event)
 153:home_screen.c **** {
 953              		.loc 6 153 0
 954              		.cfi_startproc
 955              		@ args = 0, pretend = 0, frame = 40
 956              		@ frame_needed = 1, uses_anonymous_args = 0
 957 0000 80B5     		push	{r7, lr}
 958              		.cfi_def_cfa_offset 8
 959              		.cfi_offset 7, -8
 960              		.cfi_offset 14, -4
 961 0002 8AB0     		sub	sp, sp, #40
 962              		.cfi_def_cfa_offset 48
 963 0004 00AF     		add	r7, sp, #0
 964              		.cfi_def_cfa_register 7
 965 0006 7860     		str	r0, [r7, #4]
 966 0008 0B46     		mov	r3, r1
 967 000a FB70     		strb	r3, [r7, #3]
 154:home_screen.c ****     if(event == (LV_EVENT_VALUE_CHANGED)) {
 968              		.loc 6 154 0
 969 000c FB78     		ldrb	r3, [r7, #3]	@ zero_extendqisi2
 970 000e 0E2B     		cmp	r3, #14
 971 0010 06D1     		bne	.L48
 972              	.LBB6:
 155:home_screen.c ****         char buf[32];
 156:home_screen.c ****         lv_roller_get_selected_str(obj, buf, sizeof(buf));
 973              		.loc 6 156 0
 974 0012 07F10803 		add	r3, r7, #8
ARM GAS  C:\Users\tmj32\AppData\Local\Temp\cch6Xcfo.s 			page 38


 975 0016 2022     		movs	r2, #32
 976 0018 1946     		mov	r1, r3
 977 001a 7868     		ldr	r0, [r7, #4]
 978 001c FFF7FEFF 		bl	lv_roller_get_selected_str
 979              	.L48:
 980              	.LBE6:
 157:home_screen.c ****     }
 158:home_screen.c **** }
 981              		.loc 6 158 0
 982 0020 00BF     		nop
 983 0022 2837     		adds	r7, r7, #40
 984              		.cfi_def_cfa_offset 8
 985 0024 BD46     		mov	sp, r7
 986              		.cfi_def_cfa_register 13
 987              		@ sp needed
 988 0026 80BD     		pop	{r7, pc}
 989              		.cfi_endproc
 990              	.LFE719:
 991              		.size	roller2_event, .-roller2_event
 992              		.section	.rodata
 993 0022 0000     		.align	2
 994              	.LC3:
 995 0024 4F6E00   		.ascii	"On\000"
 996 0027 00       		.align	2
 997              	.LC4:
 998 0028 4F666600 		.ascii	"Off\000"
 999              		.align	2
 1000              	.LC5:
 1001 002c 53746174 		.ascii	"State: %s\012\000"
 1001      653A2025 
 1001      730A00
 1002              		.section	.text.sw_event_handler,"ax",%progbits
 1003              		.align	2
 1004              		.thumb
 1005              		.thumb_func
 1006              		.type	sw_event_handler, %function
 1007              	sw_event_handler:
 1008              	.LFB720:
 159:home_screen.c **** static void sw_event_handler(lv_obj_t * obj, lv_event_t event)
 160:home_screen.c **** {
 1009              		.loc 6 160 0
 1010              		.cfi_startproc
 1011              		@ args = 0, pretend = 0, frame = 8
 1012              		@ frame_needed = 1, uses_anonymous_args = 0
 1013 0000 80B5     		push	{r7, lr}
 1014              		.cfi_def_cfa_offset 8
 1015              		.cfi_offset 7, -8
 1016              		.cfi_offset 14, -4
 1017 0002 82B0     		sub	sp, sp, #8
 1018              		.cfi_def_cfa_offset 16
 1019 0004 00AF     		add	r7, sp, #0
 1020              		.cfi_def_cfa_register 7
 1021 0006 7860     		str	r0, [r7, #4]
 1022 0008 0B46     		mov	r3, r1
 1023 000a FB70     		strb	r3, [r7, #3]
 161:home_screen.c ****     if(event == (LV_EVENT_VALUE_CHANGED)) {
 1024              		.loc 6 161 0
ARM GAS  C:\Users\tmj32\AppData\Local\Temp\cch6Xcfo.s 			page 39


 1025 000c FB78     		ldrb	r3, [r7, #3]	@ zero_extendqisi2
 1026 000e 0E2B     		cmp	r3, #14
 1027 0010 0CD1     		bne	.L53
 162:home_screen.c ****         printf("State: %s\n", lv_sw_get_state(obj) ? "On" : "Off");
 1028              		.loc 6 162 0
 1029 0012 7868     		ldr	r0, [r7, #4]
 1030 0014 FFF7FEFF 		bl	lv_sw_get_state
 1031 0018 0346     		mov	r3, r0
 1032 001a 002B     		cmp	r3, #0
 1033 001c 01D0     		beq	.L51
 1034              		.loc 6 162 0 is_stmt 0 discriminator 1
 1035 001e 054B     		ldr	r3, .L54
 1036 0020 00E0     		b	.L52
 1037              	.L51:
 1038              		.loc 6 162 0 discriminator 2
 1039 0022 054B     		ldr	r3, .L54+4
 1040              	.L52:
 1041              		.loc 6 162 0 discriminator 4
 1042 0024 1946     		mov	r1, r3
 1043 0026 0548     		ldr	r0, .L54+8
 1044 0028 FFF7FEFF 		bl	printf
 1045              	.L53:
 163:home_screen.c ****         //cm4.onBit = !cm4.onBit;
 164:home_screen.c ****     }
 165:home_screen.c **** }
 1046              		.loc 6 165 0 is_stmt 1
 1047 002c 00BF     		nop
 1048 002e 0837     		adds	r7, r7, #8
 1049              		.cfi_def_cfa_offset 8
 1050 0030 BD46     		mov	sp, r7
 1051              		.cfi_def_cfa_register 13
 1052              		@ sp needed
 1053 0032 80BD     		pop	{r7, pc}
 1054              	.L55:
 1055              		.align	2
 1056              	.L54:
 1057 0034 24000000 		.word	.LC3
 1058 0038 28000000 		.word	.LC4
 1059 003c 2C000000 		.word	.LC5
 1060              		.cfi_endproc
 1061              	.LFE720:
 1062              		.size	sw_event_handler, .-sw_event_handler
 1063              		.section	.rodata
 1064 0037 00       		.align	2
 1065              	.LC6:
 1066 0038 256400   		.ascii	"%d\000"
 1067              		.section	.text.offset_slider_event_cb,"ax",%progbits
 1068              		.align	2
 1069              		.thumb
 1070              		.thumb_func
 1071              		.type	offset_slider_event_cb, %function
 1072              	offset_slider_event_cb:
 1073              	.LFB721:
 166:home_screen.c **** 
 167:home_screen.c **** //NOTE: this function does not scale correctly
 168:home_screen.c **** static void offset_slider_event_cb(lv_obj_t * slider, lv_event_t event)
 169:home_screen.c **** {
ARM GAS  C:\Users\tmj32\AppData\Local\Temp\cch6Xcfo.s 			page 40


 1074              		.loc 6 169 0
 1075              		.cfi_startproc
 1076              		@ args = 0, pretend = 0, frame = 8
 1077              		@ frame_needed = 1, uses_anonymous_args = 0
 1078 0000 80B5     		push	{r7, lr}
 1079              		.cfi_def_cfa_offset 8
 1080              		.cfi_offset 7, -8
 1081              		.cfi_offset 14, -4
 1082 0002 82B0     		sub	sp, sp, #8
 1083              		.cfi_def_cfa_offset 16
 1084 0004 00AF     		add	r7, sp, #0
 1085              		.cfi_def_cfa_register 7
 1086 0006 7860     		str	r0, [r7, #4]
 1087 0008 0B46     		mov	r3, r1
 1088 000a FB70     		strb	r3, [r7, #3]
 170:home_screen.c ****     if(event == (LV_EVENT_VALUE_CHANGED)) {
 1089              		.loc 6 170 0
 1090 000c FB78     		ldrb	r3, [r7, #3]	@ zero_extendqisi2
 1091 000e 0E2B     		cmp	r3, #14
 1092 0010 21D1     		bne	.L58
 1093              	.LBB7:
 171:home_screen.c ****         static char buf[8]; /* max 3 bytes for number plus 1 null terminating byte */
 172:home_screen.c ****         static char units[4] = "mV";
 173:home_screen.c ****         snprintf(buf, 8, "%d", lv_slider_get_value(slider)-1000);
 1094              		.loc 6 173 0
 1095 0012 7868     		ldr	r0, [r7, #4]
 1096 0014 FFF7FEFF 		bl	lv_slider_get_value
 1097 0018 0346     		mov	r3, r0
 1098 001a A3F57A73 		sub	r3, r3, #1000
 1099 001e 104A     		ldr	r2, .L59
 1100 0020 0821     		movs	r1, #8
 1101 0022 1048     		ldr	r0, .L59+4
 1102 0024 FFF7FEFF 		bl	snprintf
 174:home_screen.c ****         strcat(buf, units);
 1103              		.loc 6 174 0
 1104 0028 0F49     		ldr	r1, .L59+8
 1105 002a 0E48     		ldr	r0, .L59+4
 1106 002c FFF7FEFF 		bl	strcat
 175:home_screen.c ****         lv_label_set_text(offsetLabel, buf);
 1107              		.loc 6 175 0
 1108 0030 0E4B     		ldr	r3, .L59+12
 1109 0032 1B68     		ldr	r3, [r3]
 1110 0034 0B49     		ldr	r1, .L59+4
 1111 0036 1846     		mov	r0, r3
 1112 0038 FFF7FEFF 		bl	lv_label_set_text
 176:home_screen.c ****         cm4.Offset = lv_slider_get_value(slider)-1000;
 1113              		.loc 6 176 0
 1114 003c 7868     		ldr	r0, [r7, #4]
 1115 003e FFF7FEFF 		bl	lv_slider_get_value
 1116 0042 0346     		mov	r3, r0
 1117 0044 9BB2     		uxth	r3, r3
 1118 0046 A3F57A73 		sub	r3, r3, #1000
 1119 004a 9BB2     		uxth	r3, r3
 1120 004c 1AB2     		sxth	r2, r3
 1121 004e 084B     		ldr	r3, .L59+16
 1122 0050 DA81     		strh	r2, [r3, #14]	@ movhi
 177:home_screen.c ****         chart_actions();    //call to update the chart
ARM GAS  C:\Users\tmj32\AppData\Local\Temp\cch6Xcfo.s 			page 41


 1123              		.loc 6 177 0
 1124 0052 FFF7FEFF 		bl	chart_actions
 1125              	.L58:
 1126              	.LBE7:
 178:home_screen.c ****     }
 179:home_screen.c **** }
 1127              		.loc 6 179 0
 1128 0056 00BF     		nop
 1129 0058 0837     		adds	r7, r7, #8
 1130              		.cfi_def_cfa_offset 8
 1131 005a BD46     		mov	sp, r7
 1132              		.cfi_def_cfa_register 13
 1133              		@ sp needed
 1134 005c 80BD     		pop	{r7, pc}
 1135              	.L60:
 1136 005e 00BF     		.align	2
 1137              	.L59:
 1138 0060 38000000 		.word	.LC6
 1139 0064 18000000 		.word	buf.20889
 1140 0068 00000000 		.word	units.20890
 1141 006c 00000000 		.word	offsetLabel
 1142 0070 00000000 		.word	cm4
 1143              		.cfi_endproc
 1144              	.LFE721:
 1145              		.size	offset_slider_event_cb, .-offset_slider_event_cb
 1146              		.section	.rodata
 1147 003b 00       		.align	2
 1148              	.LC7:
 1149 003c 257500   		.ascii	"%u\000"
 1150              		.section	.text.trigger_slider_event_cb,"ax",%progbits
 1151              		.align	2
 1152              		.thumb
 1153              		.thumb_func
 1154              		.type	trigger_slider_event_cb, %function
 1155              	trigger_slider_event_cb:
 1156              	.LFB722:
 180:home_screen.c **** static void trigger_slider_event_cb(lv_obj_t * slider, lv_event_t event)
 181:home_screen.c **** {
 1157              		.loc 6 181 0
 1158              		.cfi_startproc
 1159              		@ args = 0, pretend = 0, frame = 8
 1160              		@ frame_needed = 1, uses_anonymous_args = 0
 1161 0000 80B5     		push	{r7, lr}
 1162              		.cfi_def_cfa_offset 8
 1163              		.cfi_offset 7, -8
 1164              		.cfi_offset 14, -4
 1165 0002 82B0     		sub	sp, sp, #8
 1166              		.cfi_def_cfa_offset 16
 1167 0004 00AF     		add	r7, sp, #0
 1168              		.cfi_def_cfa_register 7
 1169 0006 7860     		str	r0, [r7, #4]
 1170 0008 0B46     		mov	r3, r1
 1171 000a FB70     		strb	r3, [r7, #3]
 182:home_screen.c ****     if(event == (LV_EVENT_VALUE_CHANGED)) {
 1172              		.loc 6 182 0
 1173 000c FB78     		ldrb	r3, [r7, #3]	@ zero_extendqisi2
 1174 000e 0E2B     		cmp	r3, #14
ARM GAS  C:\Users\tmj32\AppData\Local\Temp\cch6Xcfo.s 			page 42


 1175 0010 22D1     		bne	.L63
 1176              	.LBB8:
 183:home_screen.c ****         static char buf[8]; /* max 3 bytes for number plus 1 null terminating byte */
 184:home_screen.c ****         static char units[4] = "mV";
 185:home_screen.c ****         snprintf(buf, 8, "%u", lv_slider_get_value(slider));
 1177              		.loc 6 185 0
 1178 0012 7868     		ldr	r0, [r7, #4]
 1179 0014 FFF7FEFF 		bl	lv_slider_get_value
 1180 0018 0346     		mov	r3, r0
 1181 001a 114A     		ldr	r2, .L64
 1182 001c 0821     		movs	r1, #8
 1183 001e 1148     		ldr	r0, .L64+4
 1184 0020 FFF7FEFF 		bl	snprintf
 186:home_screen.c ****         strcat(buf, units);
 1185              		.loc 6 186 0
 1186 0024 1049     		ldr	r1, .L64+8
 1187 0026 0F48     		ldr	r0, .L64+4
 1188 0028 FFF7FEFF 		bl	strcat
 187:home_screen.c ****         lv_label_set_text(triggerLabel, buf);
 1189              		.loc 6 187 0
 1190 002c 0F4B     		ldr	r3, .L64+12
 1191 002e 1B68     		ldr	r3, [r3]
 1192 0030 0C49     		ldr	r1, .L64+4
 1193 0032 1846     		mov	r0, r3
 1194 0034 FFF7FEFF 		bl	lv_label_set_text
 188:home_screen.c ****         cm4.Trigger = lv_slider_get_value(slider)/10; //scaled down for the chart
 1195              		.loc 6 188 0
 1196 0038 7868     		ldr	r0, [r7, #4]
 1197 003a FFF7FEFF 		bl	lv_slider_get_value
 1198 003e 0346     		mov	r3, r0
 1199 0040 0B4A     		ldr	r2, .L64+16
 1200 0042 82FB0312 		smull	r1, r2, r2, r3
 1201 0046 9210     		asrs	r2, r2, #2
 1202 0048 DB17     		asrs	r3, r3, #31
 1203 004a D31A     		subs	r3, r2, r3
 1204 004c 1BB2     		sxth	r3, r3
 1205 004e 9AB2     		uxth	r2, r3
 1206 0050 084B     		ldr	r3, .L64+20
 1207 0052 9A80     		strh	r2, [r3, #4]	@ movhi
 189:home_screen.c ****         chart_actions();    //call to update the chart
 1208              		.loc 6 189 0
 1209 0054 FFF7FEFF 		bl	chart_actions
 1210              	.L63:
 1211              	.LBE8:
 190:home_screen.c ****     }
 191:home_screen.c **** }
 1212              		.loc 6 191 0
 1213 0058 00BF     		nop
 1214 005a 0837     		adds	r7, r7, #8
 1215              		.cfi_def_cfa_offset 8
 1216 005c BD46     		mov	sp, r7
 1217              		.cfi_def_cfa_register 13
 1218              		@ sp needed
 1219 005e 80BD     		pop	{r7, pc}
 1220              	.L65:
 1221              		.align	2
 1222              	.L64:
ARM GAS  C:\Users\tmj32\AppData\Local\Temp\cch6Xcfo.s 			page 43


 1223 0060 3C000000 		.word	.LC7
 1224 0064 20000000 		.word	buf.20895
 1225 0068 04000000 		.word	units.20896
 1226 006c 04000000 		.word	triggerLabel
 1227 0070 67666666 		.word	1717986919
 1228 0074 00000000 		.word	cm4
 1229              		.cfi_endproc
 1230              	.LFE722:
 1231              		.size	trigger_slider_event_cb, .-trigger_slider_event_cb
 1232              		.section	.rodata
 1233 003f 00       		.align	2
 1234              	.LC8:
 1235 0040 3130306D 		.ascii	"100mS\000"
 1235      5300
 1236 0046 0000     		.align	2
 1237              	.LC9:
 1238 0048 3230306D 		.ascii	"200mS\000"
 1238      5300
 1239 004e 0000     		.align	2
 1240              	.LC10:
 1241 0050 3530306D 		.ascii	"500mS\000"
 1241      5300
 1242 0056 0000     		.align	2
 1243              	.LC11:
 1244 0058 315300   		.ascii	"1S\000"
 1245 005b 00       		.align	2
 1246              	.LC12:
 1247 005c 325300   		.ascii	"2S\000"
 1248 005f 00       		.align	2
 1249              	.LC13:
 1250 0060 48656C6C 		.ascii	"Hello World\000"
 1250      6F20576F 
 1250      726C6400 
 1251              		.section	.text.hori_slider_event_cb,"ax",%progbits
 1252              		.align	2
 1253              		.thumb
 1254              		.thumb_func
 1255              		.type	hori_slider_event_cb, %function
 1256              	hori_slider_event_cb:
 1257              	.LFB723:
 192:home_screen.c **** static void hori_slider_event_cb(lv_obj_t * slider, lv_event_t event)
 193:home_screen.c **** {
 1258              		.loc 6 193 0
 1259              		.cfi_startproc
 1260              		@ args = 0, pretend = 0, frame = 8
 1261              		@ frame_needed = 1, uses_anonymous_args = 0
 1262 0000 80B5     		push	{r7, lr}
 1263              		.cfi_def_cfa_offset 8
 1264              		.cfi_offset 7, -8
 1265              		.cfi_offset 14, -4
 1266 0002 82B0     		sub	sp, sp, #8
 1267              		.cfi_def_cfa_offset 16
 1268 0004 00AF     		add	r7, sp, #0
 1269              		.cfi_def_cfa_register 7
 1270 0006 7860     		str	r0, [r7, #4]
 1271 0008 0B46     		mov	r3, r1
 1272 000a FB70     		strb	r3, [r7, #3]
ARM GAS  C:\Users\tmj32\AppData\Local\Temp\cch6Xcfo.s 			page 44


 194:home_screen.c ****     if(event == (LV_EVENT_VALUE_CHANGED)) {
 1273              		.loc 6 194 0
 1274 000c FB78     		ldrb	r3, [r7, #3]	@ zero_extendqisi2
 1275 000e 0E2B     		cmp	r3, #14
 1276 0010 50D1     		bne	.L76
 1277              	.LBB9:
 195:home_screen.c ****         static char buf[10]; /* max 3 bytes for number plus 1 null terminating byte */
 196:home_screen.c ****         //snprintf(buf, 10, "%u", lv_slider_get_value(slider));
 197:home_screen.c ****         //lv_label_set_text(horiLabel1, buf);
 198:home_screen.c ****         cm4.HoriScale = lv_slider_get_value(slider);
 1278              		.loc 6 198 0
 1279 0012 7868     		ldr	r0, [r7, #4]
 1280 0014 FFF7FEFF 		bl	lv_slider_get_value
 1281 0018 0346     		mov	r3, r0
 1282 001a DAB2     		uxtb	r2, r3
 1283 001c 274B     		ldr	r3, .L77
 1284 001e 1A75     		strb	r2, [r3, #20]
 199:home_screen.c ****         
 200:home_screen.c ****         switch(cm4.HoriScale){
 1285              		.loc 6 200 0
 1286 0020 264B     		ldr	r3, .L77
 1287 0022 1B7D     		ldrb	r3, [r3, #20]	@ zero_extendqisi2
 1288 0024 053B     		subs	r3, r3, #5
 1289 0026 042B     		cmp	r3, #4
 1290 0028 36D8     		bhi	.L68
 1291 002a 01A2     		adr	r2, .L70
 1292 002c 52F823F0 		ldr	pc, [r2, r3, lsl #2]
 1293              		.p2align 2
 1294              	.L70:
 1295 0030 45000000 		.word	.L69+1
 1296 0034 55000000 		.word	.L71+1
 1297 0038 65000000 		.word	.L72+1
 1298 003c 75000000 		.word	.L73+1
 1299 0040 87000000 		.word	.L74+1
 1300              		.p2align 1
 1301              	.L69:
 201:home_screen.c **** 
 202:home_screen.c ****             case 5 :
 203:home_screen.c ****                 snprintf(buf, 10, "100mS");
 1302              		.loc 6 203 0
 1303 0044 1E4B     		ldr	r3, .L77+4
 1304 0046 1F4A     		ldr	r2, .L77+8
 1305 0048 92E80300 		ldmia	r2, {r0, r1}
 1306 004c 1860     		str	r0, [r3]
 1307 004e 0433     		adds	r3, r3, #4
 1308 0050 1980     		strh	r1, [r3]	@ movhi
 204:home_screen.c ****                 break;
 1309              		.loc 6 204 0
 1310 0052 27E0     		b	.L75
 1311              	.L71:
 205:home_screen.c ****             case 6 :
 206:home_screen.c ****                 snprintf(buf, 10, "200mS");
 1312              		.loc 6 206 0
 1313 0054 1A4B     		ldr	r3, .L77+4
 1314 0056 1C4A     		ldr	r2, .L77+12
 1315 0058 92E80300 		ldmia	r2, {r0, r1}
 1316 005c 1860     		str	r0, [r3]
ARM GAS  C:\Users\tmj32\AppData\Local\Temp\cch6Xcfo.s 			page 45


 1317 005e 0433     		adds	r3, r3, #4
 1318 0060 1980     		strh	r1, [r3]	@ movhi
 207:home_screen.c ****                 break;
 1319              		.loc 6 207 0
 1320 0062 1FE0     		b	.L75
 1321              	.L72:
 208:home_screen.c ****             case 7 :
 209:home_screen.c ****                 snprintf(buf, 10, "500mS");
 1322              		.loc 6 209 0
 1323 0064 164B     		ldr	r3, .L77+4
 1324 0066 194A     		ldr	r2, .L77+16
 1325 0068 92E80300 		ldmia	r2, {r0, r1}
 1326 006c 1860     		str	r0, [r3]
 1327 006e 0433     		adds	r3, r3, #4
 1328 0070 1980     		strh	r1, [r3]	@ movhi
 210:home_screen.c ****                 break;            
 1329              		.loc 6 210 0
 1330 0072 17E0     		b	.L75
 1331              	.L73:
 211:home_screen.c ****             case 8 :
 212:home_screen.c ****                 snprintf(buf, 10, "1S");
 1332              		.loc 6 212 0
 1333 0074 124B     		ldr	r3, .L77+4
 1334 0076 164A     		ldr	r2, .L77+20
 1335 0078 1268     		ldr	r2, [r2]
 1336 007a 1146     		mov	r1, r2	@ movhi
 1337 007c 1980     		strh	r1, [r3]	@ movhi
 1338 007e 0233     		adds	r3, r3, #2
 1339 0080 120C     		lsrs	r2, r2, #16
 1340 0082 1A70     		strb	r2, [r3]
 213:home_screen.c ****                 break;
 1341              		.loc 6 213 0
 1342 0084 0EE0     		b	.L75
 1343              	.L74:
 214:home_screen.c ****             case 9 :
 215:home_screen.c ****                 snprintf(buf, 10, "2S");
 1344              		.loc 6 215 0
 1345 0086 0E4B     		ldr	r3, .L77+4
 1346 0088 124A     		ldr	r2, .L77+24
 1347 008a 1268     		ldr	r2, [r2]
 1348 008c 1146     		mov	r1, r2	@ movhi
 1349 008e 1980     		strh	r1, [r3]	@ movhi
 1350 0090 0233     		adds	r3, r3, #2
 1351 0092 120C     		lsrs	r2, r2, #16
 1352 0094 1A70     		strb	r2, [r3]
 216:home_screen.c ****                 break;
 1353              		.loc 6 216 0
 1354 0096 05E0     		b	.L75
 1355              	.L68:
 217:home_screen.c ****             default:
 218:home_screen.c ****                 snprintf(buf, 10, "Hello World");
 1356              		.loc 6 218 0
 1357 0098 0F4A     		ldr	r2, .L77+28
 1358 009a 0A21     		movs	r1, #10
 1359 009c 0848     		ldr	r0, .L77+4
 1360 009e FFF7FEFF 		bl	snprintf
 219:home_screen.c ****                 break;
ARM GAS  C:\Users\tmj32\AppData\Local\Temp\cch6Xcfo.s 			page 46


 1361              		.loc 6 219 0
 1362 00a2 00BF     		nop
 1363              	.L75:
 220:home_screen.c ****         }        
 221:home_screen.c ****         lv_label_set_text(horiLabel1, buf);
 1364              		.loc 6 221 0
 1365 00a4 0D4B     		ldr	r3, .L77+32
 1366 00a6 1B68     		ldr	r3, [r3]
 1367 00a8 0549     		ldr	r1, .L77+4
 1368 00aa 1846     		mov	r0, r3
 1369 00ac FFF7FEFF 		bl	lv_label_set_text
 222:home_screen.c ****         chart_actions();    //call to update the chart
 1370              		.loc 6 222 0
 1371 00b0 FFF7FEFF 		bl	chart_actions
 1372              	.L76:
 1373              	.LBE9:
 223:home_screen.c ****     }
 224:home_screen.c **** }
 1374              		.loc 6 224 0
 1375 00b4 00BF     		nop
 1376 00b6 0837     		adds	r7, r7, #8
 1377              		.cfi_def_cfa_offset 8
 1378 00b8 BD46     		mov	sp, r7
 1379              		.cfi_def_cfa_register 13
 1380              		@ sp needed
 1381 00ba 80BD     		pop	{r7, pc}
 1382              	.L78:
 1383              		.align	2
 1384              	.L77:
 1385 00bc 00000000 		.word	cm4
 1386 00c0 28000000 		.word	buf.20901
 1387 00c4 40000000 		.word	.LC8
 1388 00c8 48000000 		.word	.LC9
 1389 00cc 50000000 		.word	.LC10
 1390 00d0 58000000 		.word	.LC11
 1391 00d4 5C000000 		.word	.LC12
 1392 00d8 60000000 		.word	.LC13
 1393 00dc 08000000 		.word	horiLabel1
 1394              		.cfi_endproc
 1395              	.LFE723:
 1396              		.size	hori_slider_event_cb, .-hori_slider_event_cb
 1397              		.section	.rodata
 1398              		.align	2
 1399              	.LC14:
 1400 006c 3130306D 		.ascii	"100mV\000"
 1400      5600
 1401 0072 0000     		.align	2
 1402              	.LC15:
 1403 0074 3230306D 		.ascii	"200mV\000"
 1403      5600
 1404 007a 0000     		.align	2
 1405              	.LC16:
 1406 007c 3530306D 		.ascii	"500mV\000"
 1406      5600
 1407 0082 0000     		.align	2
 1408              	.LC17:
 1409 0084 315600   		.ascii	"1V\000"
ARM GAS  C:\Users\tmj32\AppData\Local\Temp\cch6Xcfo.s 			page 47


 1410 0087 00       		.align	2
 1411              	.LC18:
 1412 0088 325600   		.ascii	"2V\000"
 1413              		.section	.text.verti_slider_event_cb,"ax",%progbits
 1414              		.align	2
 1415              		.thumb
 1416              		.thumb_func
 1417              		.type	verti_slider_event_cb, %function
 1418              	verti_slider_event_cb:
 1419              	.LFB724:
 225:home_screen.c **** static void verti_slider_event_cb(lv_obj_t * slider, lv_event_t event)
 226:home_screen.c **** {
 1420              		.loc 6 226 0
 1421              		.cfi_startproc
 1422              		@ args = 0, pretend = 0, frame = 8
 1423              		@ frame_needed = 1, uses_anonymous_args = 0
 1424 0000 80B5     		push	{r7, lr}
 1425              		.cfi_def_cfa_offset 8
 1426              		.cfi_offset 7, -8
 1427              		.cfi_offset 14, -4
 1428 0002 82B0     		sub	sp, sp, #8
 1429              		.cfi_def_cfa_offset 16
 1430 0004 00AF     		add	r7, sp, #0
 1431              		.cfi_def_cfa_register 7
 1432 0006 7860     		str	r0, [r7, #4]
 1433 0008 0B46     		mov	r3, r1
 1434 000a FB70     		strb	r3, [r7, #3]
 227:home_screen.c ****     if(event == (LV_EVENT_VALUE_CHANGED)) {
 1435              		.loc 6 227 0
 1436 000c FB78     		ldrb	r3, [r7, #3]	@ zero_extendqisi2
 1437 000e 0E2B     		cmp	r3, #14
 1438 0010 50D1     		bne	.L89
 1439              	.LBB10:
 228:home_screen.c ****         static char buf[10]; /* max 3 bytes for number plus 1 null terminating byte */
 229:home_screen.c ****         cm4.VertScale = lv_slider_get_value(slider);
 1440              		.loc 6 229 0
 1441 0012 7868     		ldr	r0, [r7, #4]
 1442 0014 FFF7FEFF 		bl	lv_slider_get_value
 1443 0018 0346     		mov	r3, r0
 1444 001a DAB2     		uxtb	r2, r3
 1445 001c 274B     		ldr	r3, .L90
 1446 001e 5A75     		strb	r2, [r3, #21]
 230:home_screen.c ****         switch(cm4.VertScale){
 1447              		.loc 6 230 0
 1448 0020 264B     		ldr	r3, .L90
 1449 0022 5B7D     		ldrb	r3, [r3, #21]	@ zero_extendqisi2
 1450 0024 033B     		subs	r3, r3, #3
 1451 0026 042B     		cmp	r3, #4
 1452 0028 36D8     		bhi	.L81
 1453 002a 01A2     		adr	r2, .L83
 1454 002c 52F823F0 		ldr	pc, [r2, r3, lsl #2]
 1455              		.p2align 2
 1456              	.L83:
 1457 0030 45000000 		.word	.L82+1
 1458 0034 55000000 		.word	.L84+1
 1459 0038 65000000 		.word	.L85+1
 1460 003c 75000000 		.word	.L86+1
ARM GAS  C:\Users\tmj32\AppData\Local\Temp\cch6Xcfo.s 			page 48


 1461 0040 87000000 		.word	.L87+1
 1462              		.p2align 1
 1463              	.L82:
 231:home_screen.c ****             case 3 :
 232:home_screen.c ****                 snprintf(buf, 10, "100mV");
 1464              		.loc 6 232 0
 1465 0044 1E4B     		ldr	r3, .L90+4
 1466 0046 1F4A     		ldr	r2, .L90+8
 1467 0048 92E80300 		ldmia	r2, {r0, r1}
 1468 004c 1860     		str	r0, [r3]
 1469 004e 0433     		adds	r3, r3, #4
 1470 0050 1980     		strh	r1, [r3]	@ movhi
 233:home_screen.c ****                 break;
 1471              		.loc 6 233 0
 1472 0052 27E0     		b	.L88
 1473              	.L84:
 234:home_screen.c ****             case 4 :
 235:home_screen.c ****                 snprintf(buf, 10, "200mV");
 1474              		.loc 6 235 0
 1475 0054 1A4B     		ldr	r3, .L90+4
 1476 0056 1C4A     		ldr	r2, .L90+12
 1477 0058 92E80300 		ldmia	r2, {r0, r1}
 1478 005c 1860     		str	r0, [r3]
 1479 005e 0433     		adds	r3, r3, #4
 1480 0060 1980     		strh	r1, [r3]	@ movhi
 236:home_screen.c ****                 break;
 1481              		.loc 6 236 0
 1482 0062 1FE0     		b	.L88
 1483              	.L85:
 237:home_screen.c ****             case 5 :
 238:home_screen.c ****                 snprintf(buf, 10, "500mV");
 1484              		.loc 6 238 0
 1485 0064 164B     		ldr	r3, .L90+4
 1486 0066 194A     		ldr	r2, .L90+16
 1487 0068 92E80300 		ldmia	r2, {r0, r1}
 1488 006c 1860     		str	r0, [r3]
 1489 006e 0433     		adds	r3, r3, #4
 1490 0070 1980     		strh	r1, [r3]	@ movhi
 239:home_screen.c ****                 break;
 1491              		.loc 6 239 0
 1492 0072 17E0     		b	.L88
 1493              	.L86:
 240:home_screen.c ****             case 6 :
 241:home_screen.c ****                 snprintf(buf, 10, "1V");
 1494              		.loc 6 241 0
 1495 0074 124B     		ldr	r3, .L90+4
 1496 0076 164A     		ldr	r2, .L90+20
 1497 0078 1268     		ldr	r2, [r2]
 1498 007a 1146     		mov	r1, r2	@ movhi
 1499 007c 1980     		strh	r1, [r3]	@ movhi
 1500 007e 0233     		adds	r3, r3, #2
 1501 0080 120C     		lsrs	r2, r2, #16
 1502 0082 1A70     		strb	r2, [r3]
 242:home_screen.c ****                 break;
 1503              		.loc 6 242 0
 1504 0084 0EE0     		b	.L88
 1505              	.L87:
ARM GAS  C:\Users\tmj32\AppData\Local\Temp\cch6Xcfo.s 			page 49


 243:home_screen.c ****             case 7 :
 244:home_screen.c ****                 snprintf(buf, 10, "2V");
 1506              		.loc 6 244 0
 1507 0086 0E4B     		ldr	r3, .L90+4
 1508 0088 124A     		ldr	r2, .L90+24
 1509 008a 1268     		ldr	r2, [r2]
 1510 008c 1146     		mov	r1, r2	@ movhi
 1511 008e 1980     		strh	r1, [r3]	@ movhi
 1512 0090 0233     		adds	r3, r3, #2
 1513 0092 120C     		lsrs	r2, r2, #16
 1514 0094 1A70     		strb	r2, [r3]
 245:home_screen.c ****                 break;
 1515              		.loc 6 245 0
 1516 0096 05E0     		b	.L88
 1517              	.L81:
 246:home_screen.c ****             default:
 247:home_screen.c ****                 snprintf(buf, 10, "Hello World");
 1518              		.loc 6 247 0
 1519 0098 0F4A     		ldr	r2, .L90+28
 1520 009a 0A21     		movs	r1, #10
 1521 009c 0848     		ldr	r0, .L90+4
 1522 009e FFF7FEFF 		bl	snprintf
 248:home_screen.c ****                 break;
 1523              		.loc 6 248 0
 1524 00a2 00BF     		nop
 1525              	.L88:
 249:home_screen.c ****         }
 250:home_screen.c ****         lv_label_set_text(vertLabel1, buf);
 1526              		.loc 6 250 0
 1527 00a4 0D4B     		ldr	r3, .L90+32
 1528 00a6 1B68     		ldr	r3, [r3]
 1529 00a8 0549     		ldr	r1, .L90+4
 1530 00aa 1846     		mov	r0, r3
 1531 00ac FFF7FEFF 		bl	lv_label_set_text
 251:home_screen.c ****         chart_actions();    //call to update the chart
 1532              		.loc 6 251 0
 1533 00b0 FFF7FEFF 		bl	chart_actions
 1534              	.L89:
 1535              	.LBE10:
 252:home_screen.c ****     }
 253:home_screen.c **** }
 1536              		.loc 6 253 0
 1537 00b4 00BF     		nop
 1538 00b6 0837     		adds	r7, r7, #8
 1539              		.cfi_def_cfa_offset 8
 1540 00b8 BD46     		mov	sp, r7
 1541              		.cfi_def_cfa_register 13
 1542              		@ sp needed
 1543 00ba 80BD     		pop	{r7, pc}
 1544              	.L91:
 1545              		.align	2
 1546              	.L90:
 1547 00bc 00000000 		.word	cm4
 1548 00c0 34000000 		.word	buf.20913
 1549 00c4 6C000000 		.word	.LC14
 1550 00c8 74000000 		.word	.LC15
 1551 00cc 7C000000 		.word	.LC16
ARM GAS  C:\Users\tmj32\AppData\Local\Temp\cch6Xcfo.s 			page 50


 1552 00d0 84000000 		.word	.LC17
 1553 00d4 88000000 		.word	.LC18
 1554 00d8 60000000 		.word	.LC13
 1555 00dc 0C000000 		.word	vertLabel1
 1556              		.cfi_endproc
 1557              	.LFE724:
 1558              		.size	verti_slider_event_cb, .-verti_slider_event_cb
 1559              		.section	.text.window_slider_event_cb,"ax",%progbits
 1560              		.align	2
 1561              		.thumb
 1562              		.thumb_func
 1563              		.type	window_slider_event_cb, %function
 1564              	window_slider_event_cb:
 1565              	.LFB725:
 254:home_screen.c **** static void window_slider_event_cb(lv_obj_t * slider, lv_event_t event)
 255:home_screen.c **** {
 1566              		.loc 6 255 0
 1567              		.cfi_startproc
 1568              		@ args = 0, pretend = 0, frame = 8
 1569              		@ frame_needed = 1, uses_anonymous_args = 0
 1570 0000 80B5     		push	{r7, lr}
 1571              		.cfi_def_cfa_offset 8
 1572              		.cfi_offset 7, -8
 1573              		.cfi_offset 14, -4
 1574 0002 82B0     		sub	sp, sp, #8
 1575              		.cfi_def_cfa_offset 16
 1576 0004 00AF     		add	r7, sp, #0
 1577              		.cfi_def_cfa_register 7
 1578 0006 7860     		str	r0, [r7, #4]
 1579 0008 0B46     		mov	r3, r1
 1580 000a FB70     		strb	r3, [r7, #3]
 256:home_screen.c ****     if(event == (LV_EVENT_VALUE_CHANGED)) {
 1581              		.loc 6 256 0
 1582 000c FB78     		ldrb	r3, [r7, #3]	@ zero_extendqisi2
 1583 000e 0E2B     		cmp	r3, #14
 1584 0010 08D1     		bne	.L94
 257:home_screen.c ****         //static char buf[6]; /* max 3 bytes for number plus 1 null terminating byte */
 258:home_screen.c ****         //snprintf(buf, 6, "%u", lv_slider_get_value(slider));
 259:home_screen.c ****         //lv_label_set_text(windowLabel, buf);
 260:home_screen.c ****         cm4.windowPos = lv_slider_get_value(slider);
 1585              		.loc 6 260 0
 1586 0012 7868     		ldr	r0, [r7, #4]
 1587 0014 FFF7FEFF 		bl	lv_slider_get_value
 1588 0018 0346     		mov	r3, r0
 1589 001a 1A46     		mov	r2, r3
 1590 001c 034B     		ldr	r3, .L95
 1591 001e 1A61     		str	r2, [r3, #16]
 261:home_screen.c ****         chart_actions();    //call to update the chart
 1592              		.loc 6 261 0
 1593 0020 FFF7FEFF 		bl	chart_actions
 1594              	.L94:
 262:home_screen.c ****     }
 263:home_screen.c **** }
 1595              		.loc 6 263 0
 1596 0024 00BF     		nop
 1597 0026 0837     		adds	r7, r7, #8
 1598              		.cfi_def_cfa_offset 8
ARM GAS  C:\Users\tmj32\AppData\Local\Temp\cch6Xcfo.s 			page 51


 1599 0028 BD46     		mov	sp, r7
 1600              		.cfi_def_cfa_register 13
 1601              		@ sp needed
 1602 002a 80BD     		pop	{r7, pc}
 1603              	.L96:
 1604              		.align	2
 1605              	.L95:
 1606 002c 00000000 		.word	cm4
 1607              		.cfi_endproc
 1608              	.LFE725:
 1609              		.size	window_slider_event_cb, .-window_slider_event_cb
 1610              		.section	.rodata
 1611 008b 00       		.align	2
 1612              	.LC19:
 1613 008c 306D5600 		.ascii	"0mV\000"
 1614              		.align	2
 1615              	.LC20:
 1616 0090 4F666673 		.ascii	"Offset:\000"
 1616      65743A00 
 1617              		.align	2
 1618              	.LC21:
 1619 0098 31343530 		.ascii	"1450mV\000"
 1619      6D5600
 1620 009f 00       		.align	2
 1621              	.LC22:
 1622 00a0 54726967 		.ascii	"Trigger: \000"
 1622      6765723A 
 1622      2000
 1623 00aa 0000     		.align	2
 1624              	.LC23:
 1625 00ac 48205363 		.ascii	"H Scale: \000"
 1625      616C653A 
 1625      2000
 1626 00b6 0000     		.align	2
 1627              	.LC24:
 1628 00b8 56205363 		.ascii	"V Scale: \000"
 1628      616C653A 
 1628      2000
 1629 00c2 0000     		.align	2
 1630              	.LC25:
 1631 00c4 52756E5C 		.ascii	"Run\\Stop\000"
 1631      53746F70 
 1631      00
 1632 00cd 000000   		.align	2
 1633              	.LC26:
 1634 00d0 54726967 		.ascii	"Trigger Settings:\000"
 1634      67657220 
 1634      53657474 
 1634      696E6773 
 1634      3A00
 1635 00e2 0000     		.align	2
 1636              	.LC27:
 1637 00e4 46616C6C 		.ascii	"Falling\012Rising\012Threshold\000"
 1637      696E670A 
 1637      52697369 
 1637      6E670A54 
 1637      68726573 
ARM GAS  C:\Users\tmj32\AppData\Local\Temp\cch6Xcfo.s 			page 52


 1638 00fd 000000   		.align	2
 1639              	.LC28:
 1640 0100 53696E67 		.ascii	"Single\012Auto\012Normal\000"
 1640      6C650A41 
 1640      75746F0A 
 1640      4E6F726D 
 1640      616C00
 1641              		.section	.text.home_screen,"ax",%progbits
 1642              		.align	2
 1643              		.global	home_screen
 1644              		.thumb
 1645              		.thumb_func
 1646              		.type	home_screen, %function
 1647              	home_screen:
 1648              	.LFB726:
 264:home_screen.c **** 
 265:home_screen.c **** void home_screen()
 266:home_screen.c **** {   
 1649              		.loc 6 266 0
 1650              		.cfi_startproc
 1651              		@ args = 0, pretend = 0, frame = 56
 1652              		@ frame_needed = 1, uses_anonymous_args = 0
 1653 0000 80B5     		push	{r7, lr}
 1654              		.cfi_def_cfa_offset 8
 1655              		.cfi_offset 7, -8
 1656              		.cfi_offset 14, -4
 1657 0002 90B0     		sub	sp, sp, #64
 1658              		.cfi_def_cfa_offset 72
 1659 0004 02AF     		add	r7, sp, #8
 1660              		.cfi_def_cfa 7, 64
 267:home_screen.c ****     /* First Slider: Offset */
 268:home_screen.c ****     lv_obj_t * offsetSlider = lv_slider_create(lv_scr_act(), NULL);
 1661              		.loc 6 268 0
 1662 0006 FFF7FEFF 		bl	lv_scr_act
 1663 000a 0346     		mov	r3, r0
 1664 000c 0021     		movs	r1, #0
 1665 000e 1846     		mov	r0, r3
 1666 0010 FFF7FEFF 		bl	lv_slider_create
 1667 0014 7863     		str	r0, [r7, #52]
 269:home_screen.c ****     lv_obj_set_pos(offsetSlider, 20, 290);                         /*Set its position*/
 1668              		.loc 6 269 0
 1669 0016 4FF49172 		mov	r2, #290
 1670 001a 1421     		movs	r1, #20
 1671 001c 786B     		ldr	r0, [r7, #52]
 1672 001e FFF7FEFF 		bl	lv_obj_set_pos
 270:home_screen.c ****     lv_obj_set_size(offsetSlider, 130, 30);                        /*Set its size*/
 1673              		.loc 6 270 0
 1674 0022 1E22     		movs	r2, #30
 1675 0024 8221     		movs	r1, #130
 1676 0026 786B     		ldr	r0, [r7, #52]
 1677 0028 FFF7FEFF 		bl	lv_obj_set_size
 271:home_screen.c ****     lv_obj_set_event_cb(offsetSlider, offset_slider_event_cb);
 1678              		.loc 6 271 0
 1679 002c C649     		ldr	r1, .L98
 1680 002e 786B     		ldr	r0, [r7, #52]
 1681 0030 FFF7FEFF 		bl	lv_obj_set_event_cb
 272:home_screen.c ****     lv_slider_set_range(offsetSlider, 0, 2000);
ARM GAS  C:\Users\tmj32\AppData\Local\Temp\cch6Xcfo.s 			page 53


 1682              		.loc 6 272 0
 1683 0034 4FF4FA62 		mov	r2, #2000
 1684 0038 0021     		movs	r1, #0
 1685 003a 786B     		ldr	r0, [r7, #52]
 1686 003c FFF7FEFF 		bl	lv_slider_set_range
 273:home_screen.c ****     lv_slider_set_value(offsetSlider, 1000, LV_ANIM_ON);
 1687              		.loc 6 273 0
 1688 0040 0122     		movs	r2, #1
 1689 0042 4FF47A71 		mov	r1, #1000
 1690 0046 786B     		ldr	r0, [r7, #52]
 1691 0048 FFF7FEFF 		bl	lv_slider_set_value
 274:home_screen.c **** 
 275:home_screen.c ****             /* Create a label below the slider */
 276:home_screen.c ****             offsetLabel = lv_label_create(lv_scr_act(), NULL);
 1692              		.loc 6 276 0
 1693 004c FFF7FEFF 		bl	lv_scr_act
 1694 0050 0346     		mov	r3, r0
 1695 0052 0021     		movs	r1, #0
 1696 0054 1846     		mov	r0, r3
 1697 0056 FFF7FEFF 		bl	lv_label_create
 1698 005a 0246     		mov	r2, r0
 1699 005c BB4B     		ldr	r3, .L98+4
 1700 005e 1A60     		str	r2, [r3]
 277:home_screen.c ****             lv_label_set_text(offsetLabel, "0mV");
 1701              		.loc 6 277 0
 1702 0060 BA4B     		ldr	r3, .L98+4
 1703 0062 1B68     		ldr	r3, [r3]
 1704 0064 BA49     		ldr	r1, .L98+8
 1705 0066 1846     		mov	r0, r3
 1706 0068 FFF7FEFF 		bl	lv_label_set_text
 278:home_screen.c ****             lv_obj_set_auto_realign(offsetLabel, true);
 1707              		.loc 6 278 0
 1708 006c B74B     		ldr	r3, .L98+4
 1709 006e 1B68     		ldr	r3, [r3]
 1710 0070 0121     		movs	r1, #1
 1711 0072 1846     		mov	r0, r3
 1712 0074 FFF7FEFF 		bl	lv_obj_set_auto_realign
 279:home_screen.c ****             lv_obj_align(offsetLabel, offsetSlider, LV_ALIGN_OUT_TOP_RIGHT, 0, 0);
 1713              		.loc 6 279 0
 1714 0078 B44B     		ldr	r3, .L98+4
 1715 007a 1868     		ldr	r0, [r3]
 1716 007c 0023     		movs	r3, #0
 1717 007e 0093     		str	r3, [sp]
 1718 0080 0023     		movs	r3, #0
 1719 0082 0B22     		movs	r2, #11
 1720 0084 796B     		ldr	r1, [r7, #52]
 1721 0086 FFF7FEFF 		bl	lv_obj_align
 280:home_screen.c ****         
 281:home_screen.c ****             /* Create a label above the slider */
 282:home_screen.c ****         	lv_obj_t* offsetLabel2 = lv_label_create(lv_scr_act(), NULL);
 1722              		.loc 6 282 0
 1723 008a FFF7FEFF 		bl	lv_scr_act
 1724 008e 0346     		mov	r3, r0
 1725 0090 0021     		movs	r1, #0
 1726 0092 1846     		mov	r0, r3
 1727 0094 FFF7FEFF 		bl	lv_label_create
 1728 0098 3863     		str	r0, [r7, #48]
ARM GAS  C:\Users\tmj32\AppData\Local\Temp\cch6Xcfo.s 			page 54


 283:home_screen.c ****         	lv_obj_set_drag(offsetLabel2, false);
 1729              		.loc 6 283 0
 1730 009a 0021     		movs	r1, #0
 1731 009c 386B     		ldr	r0, [r7, #48]
 1732 009e FFF7FEFF 		bl	lv_obj_set_drag
 284:home_screen.c ****             lv_label_set_text(offsetLabel2, "Offset:");
 1733              		.loc 6 284 0
 1734 00a2 AC49     		ldr	r1, .L98+12
 1735 00a4 386B     		ldr	r0, [r7, #48]
 1736 00a6 FFF7FEFF 		bl	lv_label_set_text
 285:home_screen.c ****             lv_label_set_long_mode(offsetLabel2, LV_LABEL_LONG_EXPAND);
 1737              		.loc 6 285 0
 1738 00aa 0021     		movs	r1, #0
 1739 00ac 386B     		ldr	r0, [r7, #48]
 1740 00ae FFF7FEFF 		bl	lv_label_set_long_mode
 286:home_screen.c ****             lv_obj_align(offsetLabel2, offsetSlider, LV_ALIGN_OUT_TOP_LEFT, 0, 0);                 
 1741              		.loc 6 286 0
 1742 00b2 0023     		movs	r3, #0
 1743 00b4 0093     		str	r3, [sp]
 1744 00b6 0023     		movs	r3, #0
 1745 00b8 0922     		movs	r2, #9
 1746 00ba 796B     		ldr	r1, [r7, #52]
 1747 00bc 386B     		ldr	r0, [r7, #48]
 1748 00be FFF7FEFF 		bl	lv_obj_align
 287:home_screen.c ****     
 288:home_screen.c ****             
 289:home_screen.c ****             
 290:home_screen.c ****     /* Second Slider: Trigger */
 291:home_screen.c ****     lv_obj_t * triggerSlider = lv_slider_create(lv_scr_act(), NULL);
 1749              		.loc 6 291 0
 1750 00c2 FFF7FEFF 		bl	lv_scr_act
 1751 00c6 0346     		mov	r3, r0
 1752 00c8 0021     		movs	r1, #0
 1753 00ca 1846     		mov	r0, r3
 1754 00cc FFF7FEFF 		bl	lv_slider_create
 1755 00d0 F862     		str	r0, [r7, #44]
 292:home_screen.c ****     lv_obj_set_pos(triggerSlider, 170, 365);                         /*Set its position*/ // 170,29
 1756              		.loc 6 292 0
 1757 00d2 40F26D12 		movw	r2, #365
 1758 00d6 AA21     		movs	r1, #170
 1759 00d8 F86A     		ldr	r0, [r7, #44]
 1760 00da FFF7FEFF 		bl	lv_obj_set_pos
 293:home_screen.c ****     lv_obj_set_size(triggerSlider, 130, 30);                        /*Set its size*/
 1761              		.loc 6 293 0
 1762 00de 1E22     		movs	r2, #30
 1763 00e0 8221     		movs	r1, #130
 1764 00e2 F86A     		ldr	r0, [r7, #44]
 1765 00e4 FFF7FEFF 		bl	lv_obj_set_size
 294:home_screen.c ****     lv_obj_set_event_cb(triggerSlider, trigger_slider_event_cb);
 1766              		.loc 6 294 0
 1767 00e8 9B49     		ldr	r1, .L98+16
 1768 00ea F86A     		ldr	r0, [r7, #44]
 1769 00ec FFF7FEFF 		bl	lv_obj_set_event_cb
 295:home_screen.c ****     lv_slider_set_range(triggerSlider, 800, 2100);
 1770              		.loc 6 295 0
 1771 00f0 40F63402 		movw	r2, #2100
 1772 00f4 4FF44871 		mov	r1, #800
ARM GAS  C:\Users\tmj32\AppData\Local\Temp\cch6Xcfo.s 			page 55


 1773 00f8 F86A     		ldr	r0, [r7, #44]
 1774 00fa FFF7FEFF 		bl	lv_slider_set_range
 296:home_screen.c ****     lv_slider_set_value(triggerSlider, 1450, LV_ANIM_ON);
 1775              		.loc 6 296 0
 1776 00fe 0122     		movs	r2, #1
 1777 0100 40F2AA51 		movw	r1, #1450
 1778 0104 F86A     		ldr	r0, [r7, #44]
 1779 0106 FFF7FEFF 		bl	lv_slider_set_value
 297:home_screen.c ****             
 298:home_screen.c ****             /* Create a label below the slider */
 299:home_screen.c ****             triggerLabel = lv_label_create(lv_scr_act(), NULL);
 1780              		.loc 6 299 0
 1781 010a FFF7FEFF 		bl	lv_scr_act
 1782 010e 0346     		mov	r3, r0
 1783 0110 0021     		movs	r1, #0
 1784 0112 1846     		mov	r0, r3
 1785 0114 FFF7FEFF 		bl	lv_label_create
 1786 0118 0246     		mov	r2, r0
 1787 011a 904B     		ldr	r3, .L98+20
 1788 011c 1A60     		str	r2, [r3]
 300:home_screen.c ****             lv_label_set_text(triggerLabel, "1450mV");
 1789              		.loc 6 300 0
 1790 011e 8F4B     		ldr	r3, .L98+20
 1791 0120 1B68     		ldr	r3, [r3]
 1792 0122 8F49     		ldr	r1, .L98+24
 1793 0124 1846     		mov	r0, r3
 1794 0126 FFF7FEFF 		bl	lv_label_set_text
 301:home_screen.c ****             lv_obj_set_auto_realign(triggerLabel, true);
 1795              		.loc 6 301 0
 1796 012a 8C4B     		ldr	r3, .L98+20
 1797 012c 1B68     		ldr	r3, [r3]
 1798 012e 0121     		movs	r1, #1
 1799 0130 1846     		mov	r0, r3
 1800 0132 FFF7FEFF 		bl	lv_obj_set_auto_realign
 302:home_screen.c ****             lv_obj_align(triggerLabel, triggerSlider, LV_ALIGN_OUT_TOP_RIGHT, 0, 0);
 1801              		.loc 6 302 0
 1802 0136 894B     		ldr	r3, .L98+20
 1803 0138 1868     		ldr	r0, [r3]
 1804 013a 0023     		movs	r3, #0
 1805 013c 0093     		str	r3, [sp]
 1806 013e 0023     		movs	r3, #0
 1807 0140 0B22     		movs	r2, #11
 1808 0142 F96A     		ldr	r1, [r7, #44]
 1809 0144 FFF7FEFF 		bl	lv_obj_align
 303:home_screen.c ****             
 304:home_screen.c ****             /* Create a label above the slider */
 305:home_screen.c ****         	lv_obj_t* triggerLabel2 = lv_label_create(lv_scr_act(), NULL);
 1810              		.loc 6 305 0
 1811 0148 FFF7FEFF 		bl	lv_scr_act
 1812 014c 0346     		mov	r3, r0
 1813 014e 0021     		movs	r1, #0
 1814 0150 1846     		mov	r0, r3
 1815 0152 FFF7FEFF 		bl	lv_label_create
 1816 0156 B862     		str	r0, [r7, #40]
 306:home_screen.c ****         	lv_obj_set_drag(triggerLabel2, false);
 1817              		.loc 6 306 0
 1818 0158 0021     		movs	r1, #0
ARM GAS  C:\Users\tmj32\AppData\Local\Temp\cch6Xcfo.s 			page 56


 1819 015a B86A     		ldr	r0, [r7, #40]
 1820 015c FFF7FEFF 		bl	lv_obj_set_drag
 307:home_screen.c ****             lv_label_set_text(triggerLabel2, "Trigger: ");
 1821              		.loc 6 307 0
 1822 0160 8049     		ldr	r1, .L98+28
 1823 0162 B86A     		ldr	r0, [r7, #40]
 1824 0164 FFF7FEFF 		bl	lv_label_set_text
 308:home_screen.c ****             lv_obj_align(triggerLabel2, triggerSlider, LV_ALIGN_OUT_TOP_LEFT, 0, 0); 
 1825              		.loc 6 308 0
 1826 0168 0023     		movs	r3, #0
 1827 016a 0093     		str	r3, [sp]
 1828 016c 0023     		movs	r3, #0
 1829 016e 0922     		movs	r2, #9
 1830 0170 F96A     		ldr	r1, [r7, #44]
 1831 0172 B86A     		ldr	r0, [r7, #40]
 1832 0174 FFF7FEFF 		bl	lv_obj_align
 309:home_screen.c **** 
 310:home_screen.c ****     
 311:home_screen.c ****             
 312:home_screen.c ****     /* Third Slider: Hori. Scale */
 313:home_screen.c ****     lv_obj_t * horiSlider = lv_slider_create(lv_scr_act(), NULL);
 1833              		.loc 6 313 0
 1834 0178 FFF7FEFF 		bl	lv_scr_act
 1835 017c 0346     		mov	r3, r0
 1836 017e 0021     		movs	r1, #0
 1837 0180 1846     		mov	r0, r3
 1838 0182 FFF7FEFF 		bl	lv_slider_create
 1839 0186 7862     		str	r0, [r7, #36]
 314:home_screen.c ****     lv_obj_set_pos(horiSlider, 20, 365);                         /*Set its position*/
 1840              		.loc 6 314 0
 1841 0188 40F26D12 		movw	r2, #365
 1842 018c 1421     		movs	r1, #20
 1843 018e 786A     		ldr	r0, [r7, #36]
 1844 0190 FFF7FEFF 		bl	lv_obj_set_pos
 315:home_screen.c ****     lv_obj_set_size(horiSlider, 130, 30);                        /*Set its size*/
 1845              		.loc 6 315 0
 1846 0194 1E22     		movs	r2, #30
 1847 0196 8221     		movs	r1, #130
 1848 0198 786A     		ldr	r0, [r7, #36]
 1849 019a FFF7FEFF 		bl	lv_obj_set_size
 316:home_screen.c ****     lv_slider_set_value(horiSlider, 7, LV_ANIM_ON);
 1850              		.loc 6 316 0
 1851 019e 0122     		movs	r2, #1
 1852 01a0 0721     		movs	r1, #7
 1853 01a2 786A     		ldr	r0, [r7, #36]
 1854 01a4 FFF7FEFF 		bl	lv_slider_set_value
 317:home_screen.c ****     lv_obj_set_event_cb(horiSlider, hori_slider_event_cb);
 1855              		.loc 6 317 0
 1856 01a8 6F49     		ldr	r1, .L98+32
 1857 01aa 786A     		ldr	r0, [r7, #36]
 1858 01ac FFF7FEFF 		bl	lv_obj_set_event_cb
 318:home_screen.c ****     lv_slider_set_range(horiSlider, 5, 9);                      // 11 options for the 11 different 
 1859              		.loc 6 318 0
 1860 01b0 0922     		movs	r2, #9
 1861 01b2 0521     		movs	r1, #5
 1862 01b4 786A     		ldr	r0, [r7, #36]
 1863 01b6 FFF7FEFF 		bl	lv_slider_set_range
ARM GAS  C:\Users\tmj32\AppData\Local\Temp\cch6Xcfo.s 			page 57


 319:home_screen.c ****     
 320:home_screen.c ****             /* Create a label below the slider */
 321:home_screen.c ****             horiLabel1 = lv_label_create(lv_scr_act(), NULL);
 1864              		.loc 6 321 0
 1865 01ba FFF7FEFF 		bl	lv_scr_act
 1866 01be 0346     		mov	r3, r0
 1867 01c0 0021     		movs	r1, #0
 1868 01c2 1846     		mov	r0, r3
 1869 01c4 FFF7FEFF 		bl	lv_label_create
 1870 01c8 0246     		mov	r2, r0
 1871 01ca 684B     		ldr	r3, .L98+36
 1872 01cc 1A60     		str	r2, [r3]
 322:home_screen.c ****             lv_label_set_text(horiLabel1, "500mS");
 1873              		.loc 6 322 0
 1874 01ce 674B     		ldr	r3, .L98+36
 1875 01d0 1B68     		ldr	r3, [r3]
 1876 01d2 6749     		ldr	r1, .L98+40
 1877 01d4 1846     		mov	r0, r3
 1878 01d6 FFF7FEFF 		bl	lv_label_set_text
 323:home_screen.c ****             lv_obj_set_auto_realign(horiLabel1, true);
 1879              		.loc 6 323 0
 1880 01da 644B     		ldr	r3, .L98+36
 1881 01dc 1B68     		ldr	r3, [r3]
 1882 01de 0121     		movs	r1, #1
 1883 01e0 1846     		mov	r0, r3
 1884 01e2 FFF7FEFF 		bl	lv_obj_set_auto_realign
 324:home_screen.c ****             lv_obj_align(horiLabel1, horiSlider, LV_ALIGN_OUT_TOP_RIGHT, 0, 0);
 1885              		.loc 6 324 0
 1886 01e6 614B     		ldr	r3, .L98+36
 1887 01e8 1868     		ldr	r0, [r3]
 1888 01ea 0023     		movs	r3, #0
 1889 01ec 0093     		str	r3, [sp]
 1890 01ee 0023     		movs	r3, #0
 1891 01f0 0B22     		movs	r2, #11
 1892 01f2 796A     		ldr	r1, [r7, #36]
 1893 01f4 FFF7FEFF 		bl	lv_obj_align
 325:home_screen.c ****             
 326:home_screen.c ****             /* Create a label above the slider */
 327:home_screen.c ****         	lv_obj_t* horiLabel2 = lv_label_create(lv_scr_act(), NULL);
 1894              		.loc 6 327 0
 1895 01f8 FFF7FEFF 		bl	lv_scr_act
 1896 01fc 0346     		mov	r3, r0
 1897 01fe 0021     		movs	r1, #0
 1898 0200 1846     		mov	r0, r3
 1899 0202 FFF7FEFF 		bl	lv_label_create
 1900 0206 3862     		str	r0, [r7, #32]
 328:home_screen.c ****         	lv_obj_set_drag(horiLabel2, false);
 1901              		.loc 6 328 0
 1902 0208 0021     		movs	r1, #0
 1903 020a 386A     		ldr	r0, [r7, #32]
 1904 020c FFF7FEFF 		bl	lv_obj_set_drag
 329:home_screen.c ****             lv_label_set_text(horiLabel2, "H Scale: ");
 1905              		.loc 6 329 0
 1906 0210 5849     		ldr	r1, .L98+44
 1907 0212 386A     		ldr	r0, [r7, #32]
 1908 0214 FFF7FEFF 		bl	lv_label_set_text
 330:home_screen.c ****             lv_obj_align(horiLabel2, horiSlider, LV_ALIGN_OUT_TOP_LEFT, 0, 0);
ARM GAS  C:\Users\tmj32\AppData\Local\Temp\cch6Xcfo.s 			page 58


 1909              		.loc 6 330 0
 1910 0218 0023     		movs	r3, #0
 1911 021a 0093     		str	r3, [sp]
 1912 021c 0023     		movs	r3, #0
 1913 021e 0922     		movs	r2, #9
 1914 0220 796A     		ldr	r1, [r7, #36]
 1915 0222 386A     		ldr	r0, [r7, #32]
 1916 0224 FFF7FEFF 		bl	lv_obj_align
 331:home_screen.c ****     
 332:home_screen.c ****             
 333:home_screen.c ****             
 334:home_screen.c ****     /* Fourth Slider: Vert. Scale */
 335:home_screen.c ****     lv_obj_t * vertSlider = lv_slider_create(lv_scr_act(), NULL);
 1917              		.loc 6 335 0
 1918 0228 FFF7FEFF 		bl	lv_scr_act
 1919 022c 0346     		mov	r3, r0
 1920 022e 0021     		movs	r1, #0
 1921 0230 1846     		mov	r0, r3
 1922 0232 FFF7FEFF 		bl	lv_slider_create
 1923 0236 F861     		str	r0, [r7, #28]
 336:home_screen.c ****     lv_obj_set_pos(vertSlider, 170, 290);                         /*Set its position*/ // 170, 365
 1924              		.loc 6 336 0
 1925 0238 4FF49172 		mov	r2, #290
 1926 023c AA21     		movs	r1, #170
 1927 023e F869     		ldr	r0, [r7, #28]
 1928 0240 FFF7FEFF 		bl	lv_obj_set_pos
 337:home_screen.c ****     lv_obj_set_size(vertSlider, 130, 30);                        /*Set its size*/
 1929              		.loc 6 337 0
 1930 0244 1E22     		movs	r2, #30
 1931 0246 8221     		movs	r1, #130
 1932 0248 F869     		ldr	r0, [r7, #28]
 1933 024a FFF7FEFF 		bl	lv_obj_set_size
 338:home_screen.c ****     lv_slider_set_value(vertSlider, 5, LV_ANIM_ON);
 1934              		.loc 6 338 0
 1935 024e 0122     		movs	r2, #1
 1936 0250 0521     		movs	r1, #5
 1937 0252 F869     		ldr	r0, [r7, #28]
 1938 0254 FFF7FEFF 		bl	lv_slider_set_value
 339:home_screen.c ****     lv_obj_set_event_cb(vertSlider, verti_slider_event_cb);
 1939              		.loc 6 339 0
 1940 0258 4749     		ldr	r1, .L98+48
 1941 025a F869     		ldr	r0, [r7, #28]
 1942 025c FFF7FEFF 		bl	lv_obj_set_event_cb
 340:home_screen.c ****     lv_slider_set_range(vertSlider, 3, 7);
 1943              		.loc 6 340 0
 1944 0260 0722     		movs	r2, #7
 1945 0262 0321     		movs	r1, #3
 1946 0264 F869     		ldr	r0, [r7, #28]
 1947 0266 FFF7FEFF 		bl	lv_slider_set_range
 341:home_screen.c **** 
 342:home_screen.c ****             /* Create a label below the slider */
 343:home_screen.c ****             vertLabel1 = lv_label_create(lv_scr_act(), NULL);
 1948              		.loc 6 343 0
 1949 026a FFF7FEFF 		bl	lv_scr_act
 1950 026e 0346     		mov	r3, r0
 1951 0270 0021     		movs	r1, #0
 1952 0272 1846     		mov	r0, r3
ARM GAS  C:\Users\tmj32\AppData\Local\Temp\cch6Xcfo.s 			page 59


 1953 0274 FFF7FEFF 		bl	lv_label_create
 1954 0278 0246     		mov	r2, r0
 1955 027a 404B     		ldr	r3, .L98+52
 1956 027c 1A60     		str	r2, [r3]
 344:home_screen.c ****             lv_label_set_text(vertLabel1, "500mV");
 1957              		.loc 6 344 0
 1958 027e 3F4B     		ldr	r3, .L98+52
 1959 0280 1B68     		ldr	r3, [r3]
 1960 0282 3F49     		ldr	r1, .L98+56
 1961 0284 1846     		mov	r0, r3
 1962 0286 FFF7FEFF 		bl	lv_label_set_text
 345:home_screen.c ****             lv_obj_set_auto_realign(vertLabel1, true);
 1963              		.loc 6 345 0
 1964 028a 3C4B     		ldr	r3, .L98+52
 1965 028c 1B68     		ldr	r3, [r3]
 1966 028e 0121     		movs	r1, #1
 1967 0290 1846     		mov	r0, r3
 1968 0292 FFF7FEFF 		bl	lv_obj_set_auto_realign
 346:home_screen.c ****             lv_obj_align(vertLabel1, vertSlider, LV_ALIGN_OUT_TOP_RIGHT, 0, 0);
 1969              		.loc 6 346 0
 1970 0296 394B     		ldr	r3, .L98+52
 1971 0298 1868     		ldr	r0, [r3]
 1972 029a 0023     		movs	r3, #0
 1973 029c 0093     		str	r3, [sp]
 1974 029e 0023     		movs	r3, #0
 1975 02a0 0B22     		movs	r2, #11
 1976 02a2 F969     		ldr	r1, [r7, #28]
 1977 02a4 FFF7FEFF 		bl	lv_obj_align
 347:home_screen.c ****             
 348:home_screen.c ****             /* Create a label above the slider */
 349:home_screen.c ****         	lv_obj_t* vertLabel2 = lv_label_create(lv_scr_act(), NULL);
 1978              		.loc 6 349 0
 1979 02a8 FFF7FEFF 		bl	lv_scr_act
 1980 02ac 0346     		mov	r3, r0
 1981 02ae 0021     		movs	r1, #0
 1982 02b0 1846     		mov	r0, r3
 1983 02b2 FFF7FEFF 		bl	lv_label_create
 1984 02b6 B861     		str	r0, [r7, #24]
 350:home_screen.c ****         	lv_obj_set_drag(vertLabel2, false);
 1985              		.loc 6 350 0
 1986 02b8 0021     		movs	r1, #0
 1987 02ba B869     		ldr	r0, [r7, #24]
 1988 02bc FFF7FEFF 		bl	lv_obj_set_drag
 351:home_screen.c ****             lv_label_set_text(vertLabel2, "V Scale: ");
 1989              		.loc 6 351 0
 1990 02c0 3049     		ldr	r1, .L98+60
 1991 02c2 B869     		ldr	r0, [r7, #24]
 1992 02c4 FFF7FEFF 		bl	lv_label_set_text
 352:home_screen.c ****             lv_obj_align(vertLabel2, vertSlider, LV_ALIGN_OUT_TOP_LEFT, 0, 0);
 1993              		.loc 6 352 0
 1994 02c8 0023     		movs	r3, #0
 1995 02ca 0093     		str	r3, [sp]
 1996 02cc 0023     		movs	r3, #0
 1997 02ce 0922     		movs	r2, #9
 1998 02d0 F969     		ldr	r1, [r7, #28]
 1999 02d2 B869     		ldr	r0, [r7, #24]
 2000 02d4 FFF7FEFF 		bl	lv_obj_align
ARM GAS  C:\Users\tmj32\AppData\Local\Temp\cch6Xcfo.s 			page 60


 353:home_screen.c ****     
 354:home_screen.c ****         
 355:home_screen.c ****             
 356:home_screen.c ****     /* Fifth Slider: Horizontal Window      Control Range of Points shown */
 357:home_screen.c ****     lv_obj_t * windowSlider = lv_slider_create(lv_scr_act(), NULL);
 2001              		.loc 6 357 0
 2002 02d8 FFF7FEFF 		bl	lv_scr_act
 2003 02dc 0346     		mov	r3, r0
 2004 02de 0021     		movs	r1, #0
 2005 02e0 1846     		mov	r0, r3
 2006 02e2 FFF7FEFF 		bl	lv_slider_create
 2007 02e6 7861     		str	r0, [r7, #20]
 358:home_screen.c ****     lv_obj_set_pos(windowSlider, 20, 10);                         /*Set its position 20, 225*/
 2008              		.loc 6 358 0
 2009 02e8 0A22     		movs	r2, #10
 2010 02ea 1421     		movs	r1, #20
 2011 02ec 7869     		ldr	r0, [r7, #20]
 2012 02ee FFF7FEFF 		bl	lv_obj_set_pos
 359:home_screen.c ****     lv_obj_set_size(windowSlider, 280, 30);                        /*Set its size*/
 2013              		.loc 6 359 0
 2014 02f2 1E22     		movs	r2, #30
 2015 02f4 4FF48C71 		mov	r1, #280
 2016 02f8 7869     		ldr	r0, [r7, #20]
 2017 02fa FFF7FEFF 		bl	lv_obj_set_size
 360:home_screen.c ****     lv_obj_set_event_cb(windowSlider, window_slider_event_cb);
 2018              		.loc 6 360 0
 2019 02fe 2249     		ldr	r1, .L98+64
 2020 0300 7869     		ldr	r0, [r7, #20]
 2021 0302 FFF7FEFF 		bl	lv_obj_set_event_cb
 361:home_screen.c ****     lv_slider_set_range(windowSlider, 0, 2048);        
 2022              		.loc 6 361 0
 2023 0306 4FF40062 		mov	r2, #2048
 2024 030a 0021     		movs	r1, #0
 2025 030c 7869     		ldr	r0, [r7, #20]
 2026 030e FFF7FEFF 		bl	lv_slider_set_range
 362:home_screen.c ****     lv_slider_set_value(windowSlider, cm4.windowPos, LV_ANIM_ON);
 2027              		.loc 6 362 0
 2028 0312 1E4B     		ldr	r3, .L98+68
 2029 0314 1B69     		ldr	r3, [r3, #16]
 2030 0316 1BB2     		sxth	r3, r3
 2031 0318 0122     		movs	r2, #1
 2032 031a 1946     		mov	r1, r3
 2033 031c 7869     		ldr	r0, [r7, #20]
 2034 031e FFF7FEFF 		bl	lv_slider_set_value
 363:home_screen.c ****     
 364:home_screen.c ****             
 365:home_screen.c ****     //Adding an on/off switch 
 366:home_screen.c ****     lv_obj_t * sw1 = lv_sw_create(lv_scr_act(), NULL);
 2035              		.loc 6 366 0
 2036 0322 FFF7FEFF 		bl	lv_scr_act
 2037 0326 0346     		mov	r3, r0
 2038 0328 0021     		movs	r1, #0
 2039 032a 1846     		mov	r0, r3
 2040 032c FFF7FEFF 		bl	lv_sw_create
 2041 0330 3861     		str	r0, [r7, #16]
 367:home_screen.c ****     lv_obj_align(sw1, NULL, LV_ALIGN_CENTER, 0, -50);
 2042              		.loc 6 367 0
ARM GAS  C:\Users\tmj32\AppData\Local\Temp\cch6Xcfo.s 			page 61


 2043 0332 6FF03103 		mvn	r3, #49
 2044 0336 0093     		str	r3, [sp]
 2045 0338 0023     		movs	r3, #0
 2046 033a 0022     		movs	r2, #0
 2047 033c 0021     		movs	r1, #0
 2048 033e 3869     		ldr	r0, [r7, #16]
 2049 0340 FFF7FEFF 		bl	lv_obj_align
 2050 0344 24E0     		b	.L99
 2051              	.L100:
 2052 0346 00BF     		.align	2
 2053              	.L98:
 2054 0348 00000000 		.word	offset_slider_event_cb
 2055 034c 00000000 		.word	offsetLabel
 2056 0350 8C000000 		.word	.LC19
 2057 0354 90000000 		.word	.LC20
 2058 0358 00000000 		.word	trigger_slider_event_cb
 2059 035c 04000000 		.word	triggerLabel
 2060 0360 98000000 		.word	.LC21
 2061 0364 A0000000 		.word	.LC22
 2062 0368 00000000 		.word	hori_slider_event_cb
 2063 036c 08000000 		.word	horiLabel1
 2064 0370 50000000 		.word	.LC10
 2065 0374 AC000000 		.word	.LC23
 2066 0378 00000000 		.word	verti_slider_event_cb
 2067 037c 0C000000 		.word	vertLabel1
 2068 0380 7C000000 		.word	.LC16
 2069 0384 B8000000 		.word	.LC24
 2070 0388 00000000 		.word	window_slider_event_cb
 2071 038c 00000000 		.word	cm4
 2072              	.L99:
 368:home_screen.c ****     lv_obj_set_event_cb(sw1, sw_event_handler);
 2073              		.loc 6 368 0
 2074 0390 3C49     		ldr	r1, .L101
 2075 0392 3869     		ldr	r0, [r7, #16]
 2076 0394 FFF7FEFF 		bl	lv_obj_set_event_cb
 369:home_screen.c ****     lv_obj_set_pos(sw1, 20, 430);                         /*Set its position*/
 2077              		.loc 6 369 0
 2078 0398 4FF4D772 		mov	r2, #430
 2079 039c 1421     		movs	r1, #20
 2080 039e 3869     		ldr	r0, [r7, #16]
 2081 03a0 FFF7FEFF 		bl	lv_obj_set_pos
 370:home_screen.c ****     lv_obj_set_size(sw1, 90, 30);               /*Set its size*/ 
 2082              		.loc 6 370 0
 2083 03a4 1E22     		movs	r2, #30
 2084 03a6 5A21     		movs	r1, #90
 2085 03a8 3869     		ldr	r0, [r7, #16]
 2086 03aa FFF7FEFF 		bl	lv_obj_set_size
 371:home_screen.c ****     
 372:home_screen.c ****     lv_obj_t * switchLabel = lv_label_create(lv_scr_act(), NULL);
 2087              		.loc 6 372 0
 2088 03ae FFF7FEFF 		bl	lv_scr_act
 2089 03b2 0346     		mov	r3, r0
 2090 03b4 0021     		movs	r1, #0
 2091 03b6 1846     		mov	r0, r3
 2092 03b8 FFF7FEFF 		bl	lv_label_create
 2093 03bc F860     		str	r0, [r7, #12]
 373:home_screen.c **** 	lv_obj_set_drag(switchLabel, false);
ARM GAS  C:\Users\tmj32\AppData\Local\Temp\cch6Xcfo.s 			page 62


 2094              		.loc 6 373 0
 2095 03be 0021     		movs	r1, #0
 2096 03c0 F868     		ldr	r0, [r7, #12]
 2097 03c2 FFF7FEFF 		bl	lv_obj_set_drag
 374:home_screen.c ****     lv_label_set_text(switchLabel, "Run\\Stop");
 2098              		.loc 6 374 0
 2099 03c6 3049     		ldr	r1, .L101+4
 2100 03c8 F868     		ldr	r0, [r7, #12]
 2101 03ca FFF7FEFF 		bl	lv_label_set_text
 375:home_screen.c ****     //lv_obj_set_pos(switchLabel, 15, 445);
 376:home_screen.c ****     lv_obj_align(switchLabel, sw1, LV_ALIGN_OUT_TOP_MID, 0, 0);
 2102              		.loc 6 376 0
 2103 03ce 0023     		movs	r3, #0
 2104 03d0 0093     		str	r3, [sp]
 2105 03d2 0023     		movs	r3, #0
 2106 03d4 0A22     		movs	r2, #10
 2107 03d6 3969     		ldr	r1, [r7, #16]
 2108 03d8 F868     		ldr	r0, [r7, #12]
 2109 03da FFF7FEFF 		bl	lv_obj_align
 377:home_screen.c ****     
 378:home_screen.c ****     
 379:home_screen.c ****     
 380:home_screen.c ****     //Adding a drop down menu for the trigger slope
 381:home_screen.c ****     lv_obj_t * rollerLabel = lv_label_create(lv_scr_act(), NULL);
 2110              		.loc 6 381 0
 2111 03de FFF7FEFF 		bl	lv_scr_act
 2112 03e2 0346     		mov	r3, r0
 2113 03e4 0021     		movs	r1, #0
 2114 03e6 1846     		mov	r0, r3
 2115 03e8 FFF7FEFF 		bl	lv_label_create
 2116 03ec B860     		str	r0, [r7, #8]
 382:home_screen.c **** 	lv_obj_set_drag(rollerLabel, false);
 2117              		.loc 6 382 0
 2118 03ee 0021     		movs	r1, #0
 2119 03f0 B868     		ldr	r0, [r7, #8]
 2120 03f2 FFF7FEFF 		bl	lv_obj_set_drag
 383:home_screen.c ****     lv_label_set_text(rollerLabel, "Trigger Settings:");
 2121              		.loc 6 383 0
 2122 03f6 2549     		ldr	r1, .L101+8
 2123 03f8 B868     		ldr	r0, [r7, #8]
 2124 03fa FFF7FEFF 		bl	lv_label_set_text
 384:home_screen.c ****     lv_obj_set_pos(rollerLabel, 155, 410);
 2125              		.loc 6 384 0
 2126 03fe 4FF4CD72 		mov	r2, #410
 2127 0402 9B21     		movs	r1, #155
 2128 0404 B868     		ldr	r0, [r7, #8]
 2129 0406 FFF7FEFF 		bl	lv_obj_set_pos
 385:home_screen.c ****     
 386:home_screen.c ****     lv_obj_t * roller1 = lv_roller_create(lv_scr_act(),NULL);
 2130              		.loc 6 386 0
 2131 040a FFF7FEFF 		bl	lv_scr_act
 2132 040e 0346     		mov	r3, r0
 2133 0410 0021     		movs	r1, #0
 2134 0412 1846     		mov	r0, r3
 2135 0414 FFF7FEFF 		bl	lv_roller_create
 2136 0418 7860     		str	r0, [r7, #4]
 387:home_screen.c ****     lv_roller_set_options(roller1, "Falling\n"
ARM GAS  C:\Users\tmj32\AppData\Local\Temp\cch6Xcfo.s 			page 63


 2137              		.loc 6 387 0
 2138 041a 0122     		movs	r2, #1
 2139 041c 1C49     		ldr	r1, .L101+12
 2140 041e 7868     		ldr	r0, [r7, #4]
 2141 0420 FFF7FEFF 		bl	lv_roller_set_options
 388:home_screen.c ****                                    "Rising\n"
 389:home_screen.c ****                                    "Threshold",
 390:home_screen.c ****                                    LV_ROLLER_MODE_INIFINITE);
 391:home_screen.c ****     lv_roller_set_visible_row_count(roller1, 1);
 2142              		.loc 6 391 0
 2143 0424 0121     		movs	r1, #1
 2144 0426 7868     		ldr	r0, [r7, #4]
 2145 0428 FFF7FEFF 		bl	lv_roller_set_visible_row_count
 392:home_screen.c ****     lv_obj_set_pos(roller1, 200, 425);                         /*Set its position*/
 2146              		.loc 6 392 0
 2147 042c 40F2A912 		movw	r2, #425
 2148 0430 C821     		movs	r1, #200
 2149 0432 7868     		ldr	r0, [r7, #4]
 2150 0434 FFF7FEFF 		bl	lv_obj_set_pos
 393:home_screen.c ****     lv_obj_set_event_cb(roller1, roller1_event);
 2151              		.loc 6 393 0
 2152 0438 1649     		ldr	r1, .L101+16
 2153 043a 7868     		ldr	r0, [r7, #4]
 2154 043c FFF7FEFF 		bl	lv_obj_set_event_cb
 394:home_screen.c ****     
 395:home_screen.c ****     //Adding a drop down menu for the trigger type
 396:home_screen.c ****     lv_obj_t * roller2 = lv_roller_create(lv_scr_act(),NULL);
 2155              		.loc 6 396 0
 2156 0440 FFF7FEFF 		bl	lv_scr_act
 2157 0444 0346     		mov	r3, r0
 2158 0446 0021     		movs	r1, #0
 2159 0448 1846     		mov	r0, r3
 2160 044a FFF7FEFF 		bl	lv_roller_create
 2161 044e 3860     		str	r0, [r7]
 397:home_screen.c ****     lv_roller_set_options(roller2, "Single\n"
 2162              		.loc 6 397 0
 2163 0450 0122     		movs	r2, #1
 2164 0452 1149     		ldr	r1, .L101+20
 2165 0454 3868     		ldr	r0, [r7]
 2166 0456 FFF7FEFF 		bl	lv_roller_set_options
 398:home_screen.c ****                                    "Auto\n"
 399:home_screen.c ****                                    "Normal",
 400:home_screen.c ****                                    LV_ROLLER_MODE_INIFINITE);
 401:home_screen.c ****     lv_roller_set_visible_row_count(roller2, 1);
 2167              		.loc 6 401 0
 2168 045a 0121     		movs	r1, #1
 2169 045c 3868     		ldr	r0, [r7]
 2170 045e FFF7FEFF 		bl	lv_roller_set_visible_row_count
 402:home_screen.c ****     lv_obj_set_pos(roller2, 115, 425);                         /*Set its position*/
 2171              		.loc 6 402 0
 2172 0462 40F2A912 		movw	r2, #425
 2173 0466 7321     		movs	r1, #115
 2174 0468 3868     		ldr	r0, [r7]
 2175 046a FFF7FEFF 		bl	lv_obj_set_pos
 403:home_screen.c ****     lv_obj_set_event_cb(roller2, roller2_event);
 2176              		.loc 6 403 0
 2177 046e 0B49     		ldr	r1, .L101+24
ARM GAS  C:\Users\tmj32\AppData\Local\Temp\cch6Xcfo.s 			page 64


 2178 0470 3868     		ldr	r0, [r7]
 2179 0472 FFF7FEFF 		bl	lv_obj_set_event_cb
 404:home_screen.c ****     
 405:home_screen.c ****     
 406:home_screen.c ****     //Draw the ogriginal chart... should be empty or zeroes
 407:home_screen.c ****     chart_actions();
 2180              		.loc 6 407 0
 2181 0476 FFF7FEFF 		bl	chart_actions
 408:home_screen.c **** }...
 2182              		.loc 6 408 0
 2183 047a 00BF     		nop
 2184 047c 3837     		adds	r7, r7, #56
 2185              		.cfi_def_cfa_offset 8
 2186 047e BD46     		mov	sp, r7
 2187              		.cfi_def_cfa_register 13
 2188              		@ sp needed
 2189 0480 80BD     		pop	{r7, pc}
 2190              	.L102:
 2191 0482 00BF     		.align	2
 2192              	.L101:
 2193 0484 00000000 		.word	sw_event_handler
 2194 0488 C4000000 		.word	.LC25
 2195 048c D0000000 		.word	.LC26
 2196 0490 E4000000 		.word	.LC27
 2197 0494 00000000 		.word	roller1_event
 2198 0498 00010000 		.word	.LC28
 2199 049c 00000000 		.word	roller2_event
 2200              		.cfi_endproc
 2201              	.LFE726:
 2202              		.size	home_screen, .-home_screen
 2203              		.bss
 2204              		.align	2
 2205              	chart1.20846:
 2206 0014 00000000 		.space	4
 2207              		.align	2
 2208              	buf.20889:
 2209 0018 00000000 		.space	8
 2209      00000000 
 2210              		.data
 2211              		.align	2
 2212              		.type	units.20890, %object
 2213              		.size	units.20890, 4
 2214              	units.20890:
 2215 0000 6D5600   		.ascii	"mV\000"
 2216 0003 00       		.space	1
 2217              		.bss
 2218              		.align	2
 2219              	buf.20895:
 2220 0020 00000000 		.space	8
 2220      00000000 
 2221              		.data
 2222              		.align	2
 2223              		.type	units.20896, %object
 2224              		.size	units.20896, 4
 2225              	units.20896:
 2226 0004 6D5600   		.ascii	"mV\000"
 2227 0007 00       		.space	1
ARM GAS  C:\Users\tmj32\AppData\Local\Temp\cch6Xcfo.s 			page 65


 2228              		.bss
 2229              		.align	2
 2230              	buf.20901:
 2231 0028 00000000 		.space	10
 2231      00000000 
 2231      0000
 2232 0032 0000     		.align	2
 2233              	buf.20913:
 2234 0034 00000000 		.space	10
 2234      00000000 
 2234      0000
 2235              		.text
 2236              	.Letext0:
 2237              		.file 7 "c:\\program files (x86)\\cypress\\psoc creator\\4.3\\psoc creator\\import\\gnu\\arm\\5.4.
 2238              		.file 8 "c:\\program files (x86)\\cypress\\psoc creator\\4.3\\psoc creator\\import\\gnu\\arm\\5.4.
 2239              		.file 9 "Generated_Source\\PSoC6\\pdl\\drivers/peripheral/device/cy_device.h"
 2240              		.file 10 "Generated_Source\\PSoC6\\pdl\\drivers/peripheral/scb/cy_scb_i2c.h"
 2241              		.file 11 "Generated_Source\\PSoC6\\pdl\\drivers/peripheral/scb/cy_scb_spi.h"
 2242              		.file 12 "Generated_Source\\PSoC6\\pdl\\drivers/peripheral/tcpwm/cy_tcpwm_counter.h"
 2243              		.file 13 "globalStruct.h"
 2244              		.file 14 "..\\..\\..\\lvgl\\version_6.1.2\\lvgl/src/lv_misc/../../../lv_conf.h"
 2245              		.file 15 "..\\..\\..\\lvgl\\version_6.1.2\\lvgl/src/lv_misc/lv_types.h"
 2246              		.file 16 "..\\..\\..\\lvgl\\version_6.1.2\\lvgl/src/lv_misc/lv_ll.h"
 2247              		.file 17 "..\\..\\..\\lvgl\\version_6.1.2\\lvgl/src/lv_hal/../lv_misc/lv_area.h"
 2248              		.file 18 "..\\..\\..\\lvgl\\version_6.1.2\\lvgl/src/lv_core/lv_obj.h"
 2249              		.file 19 "..\\..\\..\\lvgl\\version_6.1.2\\lvgl/src/lv_core/../lv_font/lv_font.h"
 2250              		.file 20 "..\\..\\..\\lvgl\\version_6.1.2\\lvgl/src/lv_core/../lv_misc/lv_anim.h"
 2251              		.file 21 "..\\..\\..\\lvgl\\version_6.1.2\\lvgl/src/lv_core/lv_style.h"
 2252              		.file 22 "..\\..\\..\\lvgl\\version_6.1.2\\lvgl/src/lv_core/../lv_misc/lv_bidi.h"
 2253              		.file 23 "..\\..\\..\\lvgl\\version_6.1.2\\lvgl/src/lv_objx/lv_btn.h"
 2254              		.file 24 "..\\..\\..\\lvgl\\version_6.1.2\\lvgl/src/lv_objx/lv_label.h"
 2255              		.file 25 "..\\..\\..\\lvgl\\version_6.1.2\\lvgl/src/lv_objx/lv_chart.h"
 2256              		.file 26 "Generated_Source\\PSoC6\\pdl\\cmsis/include/core_cm4.h"
 2257              		.file 27 "Generated_Source\\PSoC6/DISP_TICK_TIMER.h"
 2258              		.file 28 "Generated_Source\\PSoC6/I2C_MASTER.h"
 2259              		.file 29 "Generated_Source\\PSoC6/SPIM.h"
 2260              		.section	.debug_info,"",%progbits
 2261              	.Ldebug_info0:
 2262 0000 6C190000 		.4byte	0x196c
 2263 0004 0400     		.2byte	0x4
 2264 0006 00000000 		.4byte	.Ldebug_abbrev0
 2265 000a 04       		.byte	0x4
 2266 000b 01       		.uleb128 0x1
 2267 000c 5C160000 		.4byte	.LASF412
 2268 0010 0C       		.byte	0xc
 2269 0011 EF120000 		.4byte	.LASF413
 2270 0015 2E040000 		.4byte	.LASF414
 2271 0019 20000000 		.4byte	.Ldebug_ranges0+0x20
 2272 001d 00000000 		.4byte	0
 2273 0021 00000000 		.4byte	.Ldebug_line0
 2274 0025 02       		.uleb128 0x2
 2275 0026 10150000 		.4byte	.LASF0
 2276 002a 07       		.byte	0x7
 2277 002b 1B       		.byte	0x1b
 2278 002c 30000000 		.4byte	0x30
 2279 0030 03       		.uleb128 0x3
 2280 0031 01       		.byte	0x1
ARM GAS  C:\Users\tmj32\AppData\Local\Temp\cch6Xcfo.s 			page 66


 2281 0032 06       		.byte	0x6
 2282 0033 9E140000 		.4byte	.LASF2
 2283 0037 02       		.uleb128 0x2
 2284 0038 96110000 		.4byte	.LASF1
 2285 003c 07       		.byte	0x7
 2286 003d 1D       		.byte	0x1d
 2287 003e 42000000 		.4byte	0x42
 2288 0042 03       		.uleb128 0x3
 2289 0043 01       		.byte	0x1
 2290 0044 08       		.byte	0x8
 2291 0045 20130000 		.4byte	.LASF3
 2292 0049 02       		.uleb128 0x2
 2293 004a 320C0000 		.4byte	.LASF4
 2294 004e 07       		.byte	0x7
 2295 004f 29       		.byte	0x29
 2296 0050 54000000 		.4byte	0x54
 2297 0054 03       		.uleb128 0x3
 2298 0055 02       		.byte	0x2
 2299 0056 05       		.byte	0x5
 2300 0057 03100000 		.4byte	.LASF5
 2301 005b 02       		.uleb128 0x2
 2302 005c 1B090000 		.4byte	.LASF6
 2303 0060 07       		.byte	0x7
 2304 0061 2B       		.byte	0x2b
 2305 0062 66000000 		.4byte	0x66
 2306 0066 03       		.uleb128 0x3
 2307 0067 02       		.byte	0x2
 2308 0068 07       		.byte	0x7
 2309 0069 580E0000 		.4byte	.LASF7
 2310 006d 02       		.uleb128 0x2
 2311 006e 06020000 		.4byte	.LASF8
 2312 0072 07       		.byte	0x7
 2313 0073 3F       		.byte	0x3f
 2314 0074 78000000 		.4byte	0x78
 2315 0078 03       		.uleb128 0x3
 2316 0079 04       		.byte	0x4
 2317 007a 05       		.byte	0x5
 2318 007b 05000000 		.4byte	.LASF9
 2319 007f 02       		.uleb128 0x2
 2320 0080 2E130000 		.4byte	.LASF10
 2321 0084 07       		.byte	0x7
 2322 0085 41       		.byte	0x41
 2323 0086 8A000000 		.4byte	0x8a
 2324 008a 03       		.uleb128 0x3
 2325 008b 04       		.byte	0x4
 2326 008c 07       		.byte	0x7
 2327 008d 5C120000 		.4byte	.LASF11
 2328 0091 03       		.uleb128 0x3
 2329 0092 08       		.byte	0x8
 2330 0093 05       		.byte	0x5
 2331 0094 570B0000 		.4byte	.LASF12
 2332 0098 03       		.uleb128 0x3
 2333 0099 08       		.byte	0x8
 2334 009a 07       		.byte	0x7
 2335 009b 03060000 		.4byte	.LASF13
 2336 009f 04       		.uleb128 0x4
 2337 00a0 04       		.byte	0x4
ARM GAS  C:\Users\tmj32\AppData\Local\Temp\cch6Xcfo.s 			page 67


 2338 00a1 05       		.byte	0x5
 2339 00a2 696E7400 		.ascii	"int\000"
 2340 00a6 03       		.uleb128 0x3
 2341 00a7 04       		.byte	0x4
 2342 00a8 07       		.byte	0x7
 2343 00a9 9D010000 		.4byte	.LASF14
 2344 00ad 03       		.uleb128 0x3
 2345 00ae 08       		.byte	0x8
 2346 00af 04       		.byte	0x4
 2347 00b0 6B0E0000 		.4byte	.LASF15
 2348 00b4 05       		.uleb128 0x5
 2349 00b5 04       		.byte	0x4
 2350 00b6 03       		.uleb128 0x3
 2351 00b7 04       		.byte	0x4
 2352 00b8 07       		.byte	0x7
 2353 00b9 8B0F0000 		.4byte	.LASF16
 2354 00bd 06       		.uleb128 0x6
 2355 00be 04       		.byte	0x4
 2356 00bf C3000000 		.4byte	0xc3
 2357 00c3 03       		.uleb128 0x3
 2358 00c4 01       		.byte	0x1
 2359 00c5 08       		.byte	0x8
 2360 00c6 80090000 		.4byte	.LASF17
 2361 00ca 07       		.uleb128 0x7
 2362 00cb C3000000 		.4byte	0xc3
 2363 00cf DA000000 		.4byte	0xda
 2364 00d3 08       		.uleb128 0x8
 2365 00d4 B6000000 		.4byte	0xb6
 2366 00d8 07       		.byte	0x7
 2367 00d9 00       		.byte	0
 2368 00da 02       		.uleb128 0x2
 2369 00db 16050000 		.4byte	.LASF18
 2370 00df 08       		.byte	0x8
 2371 00e0 14       		.byte	0x14
 2372 00e1 25000000 		.4byte	0x25
 2373 00e5 02       		.uleb128 0x2
 2374 00e6 920A0000 		.4byte	.LASF19
 2375 00ea 08       		.byte	0x8
 2376 00eb 18       		.byte	0x18
 2377 00ec 37000000 		.4byte	0x37
 2378 00f0 02       		.uleb128 0x2
 2379 00f1 CC050000 		.4byte	.LASF20
 2380 00f5 08       		.byte	0x8
 2381 00f6 20       		.byte	0x20
 2382 00f7 49000000 		.4byte	0x49
 2383 00fb 02       		.uleb128 0x2
 2384 00fc 770E0000 		.4byte	.LASF21
 2385 0100 08       		.byte	0x8
 2386 0101 24       		.byte	0x24
 2387 0102 5B000000 		.4byte	0x5b
 2388 0106 02       		.uleb128 0x2
 2389 0107 7B060000 		.4byte	.LASF22
 2390 010b 08       		.byte	0x8
 2391 010c 2C       		.byte	0x2c
 2392 010d 6D000000 		.4byte	0x6d
 2393 0111 02       		.uleb128 0x2
 2394 0112 0D050000 		.4byte	.LASF23
ARM GAS  C:\Users\tmj32\AppData\Local\Temp\cch6Xcfo.s 			page 68


 2395 0116 08       		.byte	0x8
 2396 0117 30       		.byte	0x30
 2397 0118 7F000000 		.4byte	0x7f
 2398 011c 09       		.uleb128 0x9
 2399 011d 11010000 		.4byte	0x111
 2400 0121 0A       		.uleb128 0xa
 2401 0122 B8       		.byte	0xb8
 2402 0123 09       		.byte	0x9
 2403 0124 34       		.byte	0x34
 2404 0125 32050000 		.4byte	0x532
 2405 0129 0B       		.uleb128 0xb
 2406 012a 39020000 		.4byte	.LASF24
 2407 012e 09       		.byte	0x9
 2408 012f 37       		.byte	0x37
 2409 0130 11010000 		.4byte	0x111
 2410 0134 00       		.byte	0
 2411 0135 0B       		.uleb128 0xb
 2412 0136 15140000 		.4byte	.LASF25
 2413 013a 09       		.byte	0x9
 2414 013b 38       		.byte	0x38
 2415 013c 11010000 		.4byte	0x111
 2416 0140 04       		.byte	0x4
 2417 0141 0B       		.uleb128 0xb
 2418 0142 21010000 		.4byte	.LASF26
 2419 0146 09       		.byte	0x9
 2420 0147 39       		.byte	0x39
 2421 0148 11010000 		.4byte	0x111
 2422 014c 08       		.byte	0x8
 2423 014d 0B       		.uleb128 0xb
 2424 014e 02010000 		.4byte	.LASF27
 2425 0152 09       		.byte	0x9
 2426 0153 3A       		.byte	0x3a
 2427 0154 11010000 		.4byte	0x111
 2428 0158 0C       		.byte	0xc
 2429 0159 0B       		.uleb128 0xb
 2430 015a 800E0000 		.4byte	.LASF28
 2431 015e 09       		.byte	0x9
 2432 015f 3B       		.byte	0x3b
 2433 0160 11010000 		.4byte	0x111
 2434 0164 10       		.byte	0x10
 2435 0165 0B       		.uleb128 0xb
 2436 0166 450C0000 		.4byte	.LASF29
 2437 016a 09       		.byte	0x9
 2438 016b 3C       		.byte	0x3c
 2439 016c 11010000 		.4byte	0x111
 2440 0170 14       		.byte	0x14
 2441 0171 0B       		.uleb128 0xb
 2442 0172 7B070000 		.4byte	.LASF30
 2443 0176 09       		.byte	0x9
 2444 0177 3D       		.byte	0x3d
 2445 0178 11010000 		.4byte	0x111
 2446 017c 18       		.byte	0x18
 2447 017d 0B       		.uleb128 0xb
 2448 017e C00A0000 		.4byte	.LASF31
 2449 0182 09       		.byte	0x9
 2450 0183 3E       		.byte	0x3e
 2451 0184 11010000 		.4byte	0x111
ARM GAS  C:\Users\tmj32\AppData\Local\Temp\cch6Xcfo.s 			page 69


 2452 0188 1C       		.byte	0x1c
 2453 0189 0B       		.uleb128 0xb
 2454 018a 26070000 		.4byte	.LASF32
 2455 018e 09       		.byte	0x9
 2456 018f 3F       		.byte	0x3f
 2457 0190 11010000 		.4byte	0x111
 2458 0194 20       		.byte	0x20
 2459 0195 0B       		.uleb128 0xb
 2460 0196 8B0B0000 		.4byte	.LASF33
 2461 019a 09       		.byte	0x9
 2462 019b 40       		.byte	0x40
 2463 019c 11010000 		.4byte	0x111
 2464 01a0 24       		.byte	0x24
 2465 01a1 0B       		.uleb128 0xb
 2466 01a2 7B170000 		.4byte	.LASF34
 2467 01a6 09       		.byte	0x9
 2468 01a7 43       		.byte	0x43
 2469 01a8 E5000000 		.4byte	0xe5
 2470 01ac 28       		.byte	0x28
 2471 01ad 0B       		.uleb128 0xb
 2472 01ae 5D100000 		.4byte	.LASF35
 2473 01b2 09       		.byte	0x9
 2474 01b3 44       		.byte	0x44
 2475 01b4 E5000000 		.4byte	0xe5
 2476 01b8 29       		.byte	0x29
 2477 01b9 0B       		.uleb128 0xb
 2478 01ba 16130000 		.4byte	.LASF36
 2479 01be 09       		.byte	0x9
 2480 01bf 45       		.byte	0x45
 2481 01c0 E5000000 		.4byte	0xe5
 2482 01c4 2A       		.byte	0x2a
 2483 01c5 0B       		.uleb128 0xb
 2484 01c6 B3100000 		.4byte	.LASF37
 2485 01ca 09       		.byte	0x9
 2486 01cb 46       		.byte	0x46
 2487 01cc E5000000 		.4byte	0xe5
 2488 01d0 2B       		.byte	0x2b
 2489 01d1 0B       		.uleb128 0xb
 2490 01d2 A7100000 		.4byte	.LASF38
 2491 01d6 09       		.byte	0x9
 2492 01d7 47       		.byte	0x47
 2493 01d8 E5000000 		.4byte	0xe5
 2494 01dc 2C       		.byte	0x2c
 2495 01dd 0B       		.uleb128 0xb
 2496 01de 45120000 		.4byte	.LASF39
 2497 01e2 09       		.byte	0x9
 2498 01e3 48       		.byte	0x48
 2499 01e4 E5000000 		.4byte	0xe5
 2500 01e8 2D       		.byte	0x2d
 2501 01e9 0B       		.uleb128 0xb
 2502 01ea 1F0F0000 		.4byte	.LASF40
 2503 01ee 09       		.byte	0x9
 2504 01ef 49       		.byte	0x49
 2505 01f0 E5000000 		.4byte	0xe5
 2506 01f4 2E       		.byte	0x2e
 2507 01f5 0B       		.uleb128 0xb
 2508 01f6 79020000 		.4byte	.LASF41
ARM GAS  C:\Users\tmj32\AppData\Local\Temp\cch6Xcfo.s 			page 70


 2509 01fa 09       		.byte	0x9
 2510 01fb 4A       		.byte	0x4a
 2511 01fc E5000000 		.4byte	0xe5
 2512 0200 2F       		.byte	0x2f
 2513 0201 0B       		.uleb128 0xb
 2514 0202 D30D0000 		.4byte	.LASF42
 2515 0206 09       		.byte	0x9
 2516 0207 4B       		.byte	0x4b
 2517 0208 E5000000 		.4byte	0xe5
 2518 020c 30       		.byte	0x30
 2519 020d 0B       		.uleb128 0xb
 2520 020e 1E0D0000 		.4byte	.LASF43
 2521 0212 09       		.byte	0x9
 2522 0213 4E       		.byte	0x4e
 2523 0214 E5000000 		.4byte	0xe5
 2524 0218 31       		.byte	0x31
 2525 0219 0B       		.uleb128 0xb
 2526 021a C3140000 		.4byte	.LASF44
 2527 021e 09       		.byte	0x9
 2528 021f 4F       		.byte	0x4f
 2529 0220 E5000000 		.4byte	0xe5
 2530 0224 32       		.byte	0x32
 2531 0225 0B       		.uleb128 0xb
 2532 0226 DA150000 		.4byte	.LASF45
 2533 022a 09       		.byte	0x9
 2534 022b 50       		.byte	0x50
 2535 022c E5000000 		.4byte	0xe5
 2536 0230 33       		.byte	0x33
 2537 0231 0B       		.uleb128 0xb
 2538 0232 3E090000 		.4byte	.LASF46
 2539 0236 09       		.byte	0x9
 2540 0237 51       		.byte	0x51
 2541 0238 E5000000 		.4byte	0xe5
 2542 023c 34       		.byte	0x34
 2543 023d 0B       		.uleb128 0xb
 2544 023e 91140000 		.4byte	.LASF47
 2545 0242 09       		.byte	0x9
 2546 0243 52       		.byte	0x52
 2547 0244 F0000000 		.4byte	0xf0
 2548 0248 36       		.byte	0x36
 2549 0249 0B       		.uleb128 0xb
 2550 024a 49030000 		.4byte	.LASF48
 2551 024e 09       		.byte	0x9
 2552 024f 53       		.byte	0x53
 2553 0250 F0000000 		.4byte	0xf0
 2554 0254 38       		.byte	0x38
 2555 0255 0B       		.uleb128 0xb
 2556 0256 830C0000 		.4byte	.LASF49
 2557 025a 09       		.byte	0x9
 2558 025b 54       		.byte	0x54
 2559 025c F0000000 		.4byte	0xf0
 2560 0260 3A       		.byte	0x3a
 2561 0261 0B       		.uleb128 0xb
 2562 0262 10020000 		.4byte	.LASF50
 2563 0266 09       		.byte	0x9
 2564 0267 55       		.byte	0x55
 2565 0268 E5000000 		.4byte	0xe5
ARM GAS  C:\Users\tmj32\AppData\Local\Temp\cch6Xcfo.s 			page 71


 2566 026c 3C       		.byte	0x3c
 2567 026d 0B       		.uleb128 0xb
 2568 026e 52070000 		.4byte	.LASF51
 2569 0272 09       		.byte	0x9
 2570 0273 56       		.byte	0x56
 2571 0274 E5000000 		.4byte	0xe5
 2572 0278 3D       		.byte	0x3d
 2573 0279 0B       		.uleb128 0xb
 2574 027a 5C060000 		.4byte	.LASF52
 2575 027e 09       		.byte	0x9
 2576 027f 57       		.byte	0x57
 2577 0280 E5000000 		.4byte	0xe5
 2578 0284 3E       		.byte	0x3e
 2579 0285 0B       		.uleb128 0xb
 2580 0286 DF000000 		.4byte	.LASF53
 2581 028a 09       		.byte	0x9
 2582 028b 58       		.byte	0x58
 2583 028c E5000000 		.4byte	0xe5
 2584 0290 3F       		.byte	0x3f
 2585 0291 0B       		.uleb128 0xb
 2586 0292 C6010000 		.4byte	.LASF54
 2587 0296 09       		.byte	0x9
 2588 0297 59       		.byte	0x59
 2589 0298 E5000000 		.4byte	0xe5
 2590 029c 40       		.byte	0x40
 2591 029d 0B       		.uleb128 0xb
 2592 029e 650D0000 		.4byte	.LASF55
 2593 02a2 09       		.byte	0x9
 2594 02a3 5A       		.byte	0x5a
 2595 02a4 E5000000 		.4byte	0xe5
 2596 02a8 41       		.byte	0x41
 2597 02a9 0B       		.uleb128 0xb
 2598 02aa 98050000 		.4byte	.LASF56
 2599 02ae 09       		.byte	0x9
 2600 02af 5B       		.byte	0x5b
 2601 02b0 E5000000 		.4byte	0xe5
 2602 02b4 42       		.byte	0x42
 2603 02b5 0B       		.uleb128 0xb
 2604 02b6 EB080000 		.4byte	.LASF57
 2605 02ba 09       		.byte	0x9
 2606 02bb 5C       		.byte	0x5c
 2607 02bc E5000000 		.4byte	0xe5
 2608 02c0 43       		.byte	0x43
 2609 02c1 0B       		.uleb128 0xb
 2610 02c2 D4090000 		.4byte	.LASF58
 2611 02c6 09       		.byte	0x9
 2612 02c7 5D       		.byte	0x5d
 2613 02c8 E5000000 		.4byte	0xe5
 2614 02cc 44       		.byte	0x44
 2615 02cd 0B       		.uleb128 0xb
 2616 02ce C1100000 		.4byte	.LASF59
 2617 02d2 09       		.byte	0x9
 2618 02d3 5E       		.byte	0x5e
 2619 02d4 11010000 		.4byte	0x111
 2620 02d8 48       		.byte	0x48
 2621 02d9 0B       		.uleb128 0xb
 2622 02da 10030000 		.4byte	.LASF60
ARM GAS  C:\Users\tmj32\AppData\Local\Temp\cch6Xcfo.s 			page 72


 2623 02de 09       		.byte	0x9
 2624 02df 5F       		.byte	0x5f
 2625 02e0 11010000 		.4byte	0x111
 2626 02e4 4C       		.byte	0x4c
 2627 02e5 0B       		.uleb128 0xb
 2628 02e6 46140000 		.4byte	.LASF61
 2629 02ea 09       		.byte	0x9
 2630 02eb 60       		.byte	0x60
 2631 02ec E5000000 		.4byte	0xe5
 2632 02f0 50       		.byte	0x50
 2633 02f1 0B       		.uleb128 0xb
 2634 02f2 AB070000 		.4byte	.LASF62
 2635 02f6 09       		.byte	0x9
 2636 02f7 61       		.byte	0x61
 2637 02f8 E5000000 		.4byte	0xe5
 2638 02fc 51       		.byte	0x51
 2639 02fd 0B       		.uleb128 0xb
 2640 02fe D30B0000 		.4byte	.LASF63
 2641 0302 09       		.byte	0x9
 2642 0303 62       		.byte	0x62
 2643 0304 E5000000 		.4byte	0xe5
 2644 0308 52       		.byte	0x52
 2645 0309 0B       		.uleb128 0xb
 2646 030a 0B0E0000 		.4byte	.LASF64
 2647 030e 09       		.byte	0x9
 2648 030f 63       		.byte	0x63
 2649 0310 E5000000 		.4byte	0xe5
 2650 0314 53       		.byte	0x53
 2651 0315 0B       		.uleb128 0xb
 2652 0316 B4130000 		.4byte	.LASF65
 2653 031a 09       		.byte	0x9
 2654 031b 64       		.byte	0x64
 2655 031c E5000000 		.4byte	0xe5
 2656 0320 54       		.byte	0x54
 2657 0321 0B       		.uleb128 0xb
 2658 0322 34080000 		.4byte	.LASF66
 2659 0326 09       		.byte	0x9
 2660 0327 65       		.byte	0x65
 2661 0328 E5000000 		.4byte	0xe5
 2662 032c 55       		.byte	0x55
 2663 032d 0B       		.uleb128 0xb
 2664 032e 77140000 		.4byte	.LASF67
 2665 0332 09       		.byte	0x9
 2666 0333 66       		.byte	0x66
 2667 0334 E5000000 		.4byte	0xe5
 2668 0338 56       		.byte	0x56
 2669 0339 0B       		.uleb128 0xb
 2670 033a 320F0000 		.4byte	.LASF68
 2671 033e 09       		.byte	0x9
 2672 033f 67       		.byte	0x67
 2673 0340 E5000000 		.4byte	0xe5
 2674 0344 57       		.byte	0x57
 2675 0345 0B       		.uleb128 0xb
 2676 0346 3E070000 		.4byte	.LASF69
 2677 034a 09       		.byte	0x9
 2678 034b 68       		.byte	0x68
 2679 034c E5000000 		.4byte	0xe5
ARM GAS  C:\Users\tmj32\AppData\Local\Temp\cch6Xcfo.s 			page 73


 2680 0350 58       		.byte	0x58
 2681 0351 0B       		.uleb128 0xb
 2682 0352 09160000 		.4byte	.LASF70
 2683 0356 09       		.byte	0x9
 2684 0357 69       		.byte	0x69
 2685 0358 E5000000 		.4byte	0xe5
 2686 035c 59       		.byte	0x59
 2687 035d 0B       		.uleb128 0xb
 2688 035e B8140000 		.4byte	.LASF71
 2689 0362 09       		.byte	0x9
 2690 0363 6E       		.byte	0x6e
 2691 0364 FB000000 		.4byte	0xfb
 2692 0368 5A       		.byte	0x5a
 2693 0369 0B       		.uleb128 0xb
 2694 036a 70010000 		.4byte	.LASF72
 2695 036e 09       		.byte	0x9
 2696 036f 6F       		.byte	0x6f
 2697 0370 FB000000 		.4byte	0xfb
 2698 0374 5C       		.byte	0x5c
 2699 0375 0B       		.uleb128 0xb
 2700 0376 EC010000 		.4byte	.LASF73
 2701 037a 09       		.byte	0x9
 2702 037b 70       		.byte	0x70
 2703 037c E5000000 		.4byte	0xe5
 2704 0380 5E       		.byte	0x5e
 2705 0381 0B       		.uleb128 0xb
 2706 0382 ED140000 		.4byte	.LASF74
 2707 0386 09       		.byte	0x9
 2708 0387 71       		.byte	0x71
 2709 0388 E5000000 		.4byte	0xe5
 2710 038c 5F       		.byte	0x5f
 2711 038d 0B       		.uleb128 0xb
 2712 038e 0A090000 		.4byte	.LASF75
 2713 0392 09       		.byte	0x9
 2714 0393 72       		.byte	0x72
 2715 0394 E5000000 		.4byte	0xe5
 2716 0398 60       		.byte	0x60
 2717 0399 0B       		.uleb128 0xb
 2718 039a 680A0000 		.4byte	.LASF76
 2719 039e 09       		.byte	0x9
 2720 039f 73       		.byte	0x73
 2721 03a0 11010000 		.4byte	0x111
 2722 03a4 64       		.byte	0x64
 2723 03a5 0B       		.uleb128 0xb
 2724 03a6 460F0000 		.4byte	.LASF77
 2725 03aa 09       		.byte	0x9
 2726 03ab 76       		.byte	0x76
 2727 03ac FB000000 		.4byte	0xfb
 2728 03b0 68       		.byte	0x68
 2729 03b1 0B       		.uleb128 0xb
 2730 03b2 A70E0000 		.4byte	.LASF78
 2731 03b6 09       		.byte	0x9
 2732 03b7 77       		.byte	0x77
 2733 03b8 FB000000 		.4byte	0xfb
 2734 03bc 6A       		.byte	0x6a
 2735 03bd 0B       		.uleb128 0xb
 2736 03be 740C0000 		.4byte	.LASF79
ARM GAS  C:\Users\tmj32\AppData\Local\Temp\cch6Xcfo.s 			page 74


 2737 03c2 09       		.byte	0x9
 2738 03c3 78       		.byte	0x78
 2739 03c4 FB000000 		.4byte	0xfb
 2740 03c8 6C       		.byte	0x6c
 2741 03c9 0B       		.uleb128 0xb
 2742 03ca 03030000 		.4byte	.LASF80
 2743 03ce 09       		.byte	0x9
 2744 03cf 79       		.byte	0x79
 2745 03d0 FB000000 		.4byte	0xfb
 2746 03d4 6E       		.byte	0x6e
 2747 03d5 0B       		.uleb128 0xb
 2748 03d6 C90A0000 		.4byte	.LASF81
 2749 03da 09       		.byte	0x9
 2750 03db 7B       		.byte	0x7b
 2751 03dc E5000000 		.4byte	0xe5
 2752 03e0 70       		.byte	0x70
 2753 03e1 0B       		.uleb128 0xb
 2754 03e2 BB030000 		.4byte	.LASF82
 2755 03e6 09       		.byte	0x9
 2756 03e7 7C       		.byte	0x7c
 2757 03e8 E5000000 		.4byte	0xe5
 2758 03ec 71       		.byte	0x71
 2759 03ed 0B       		.uleb128 0xb
 2760 03ee B1060000 		.4byte	.LASF83
 2761 03f2 09       		.byte	0x9
 2762 03f3 7D       		.byte	0x7d
 2763 03f4 E5000000 		.4byte	0xe5
 2764 03f8 72       		.byte	0x72
 2765 03f9 0B       		.uleb128 0xb
 2766 03fa A8090000 		.4byte	.LASF84
 2767 03fe 09       		.byte	0x9
 2768 03ff 7E       		.byte	0x7e
 2769 0400 E5000000 		.4byte	0xe5
 2770 0404 73       		.byte	0x73
 2771 0405 0B       		.uleb128 0xb
 2772 0406 CB0F0000 		.4byte	.LASF85
 2773 040a 09       		.byte	0x9
 2774 040b 80       		.byte	0x80
 2775 040c FB000000 		.4byte	0xfb
 2776 0410 74       		.byte	0x74
 2777 0411 0B       		.uleb128 0xb
 2778 0412 0D100000 		.4byte	.LASF86
 2779 0416 09       		.byte	0x9
 2780 0417 81       		.byte	0x81
 2781 0418 FB000000 		.4byte	0xfb
 2782 041c 76       		.byte	0x76
 2783 041d 0B       		.uleb128 0xb
 2784 041e C5150000 		.4byte	.LASF87
 2785 0422 09       		.byte	0x9
 2786 0423 82       		.byte	0x82
 2787 0424 FB000000 		.4byte	0xfb
 2788 0428 78       		.byte	0x78
 2789 0429 0B       		.uleb128 0xb
 2790 042a A80B0000 		.4byte	.LASF88
 2791 042e 09       		.byte	0x9
 2792 042f 83       		.byte	0x83
 2793 0430 FB000000 		.4byte	0xfb
ARM GAS  C:\Users\tmj32\AppData\Local\Temp\cch6Xcfo.s 			page 75


 2794 0434 7A       		.byte	0x7a
 2795 0435 0B       		.uleb128 0xb
 2796 0436 B9110000 		.4byte	.LASF89
 2797 043a 09       		.byte	0x9
 2798 043b 86       		.byte	0x86
 2799 043c E5000000 		.4byte	0xe5
 2800 0440 7C       		.byte	0x7c
 2801 0441 0B       		.uleb128 0xb
 2802 0442 57140000 		.4byte	.LASF90
 2803 0446 09       		.byte	0x9
 2804 0447 87       		.byte	0x87
 2805 0448 E5000000 		.4byte	0xe5
 2806 044c 7D       		.byte	0x7d
 2807 044d 0B       		.uleb128 0xb
 2808 044e D4050000 		.4byte	.LASF91
 2809 0452 09       		.byte	0x9
 2810 0453 88       		.byte	0x88
 2811 0454 E5000000 		.4byte	0xe5
 2812 0458 7E       		.byte	0x7e
 2813 0459 0B       		.uleb128 0xb
 2814 045a 43050000 		.4byte	.LASF92
 2815 045e 09       		.byte	0x9
 2816 045f 89       		.byte	0x89
 2817 0460 E5000000 		.4byte	0xe5
 2818 0464 7F       		.byte	0x7f
 2819 0465 0B       		.uleb128 0xb
 2820 0466 29060000 		.4byte	.LASF93
 2821 046a 09       		.byte	0x9
 2822 046b 8A       		.byte	0x8a
 2823 046c E5000000 		.4byte	0xe5
 2824 0470 80       		.byte	0x80
 2825 0471 0B       		.uleb128 0xb
 2826 0472 C8000000 		.4byte	.LASF94
 2827 0476 09       		.byte	0x9
 2828 0477 8D       		.byte	0x8d
 2829 0478 11010000 		.4byte	0x111
 2830 047c 84       		.byte	0x84
 2831 047d 0B       		.uleb128 0xb
 2832 047e 01120000 		.4byte	.LASF95
 2833 0482 09       		.byte	0x9
 2834 0483 8E       		.byte	0x8e
 2835 0484 11010000 		.4byte	0x111
 2836 0488 88       		.byte	0x88
 2837 0489 0B       		.uleb128 0xb
 2838 048a 500D0000 		.4byte	.LASF96
 2839 048e 09       		.byte	0x9
 2840 048f 8F       		.byte	0x8f
 2841 0490 11010000 		.4byte	0x111
 2842 0494 8C       		.byte	0x8c
 2843 0495 0B       		.uleb128 0xb
 2844 0496 26170000 		.4byte	.LASF97
 2845 049a 09       		.byte	0x9
 2846 049b 90       		.byte	0x90
 2847 049c 11010000 		.4byte	0x111
 2848 04a0 90       		.byte	0x90
 2849 04a1 0B       		.uleb128 0xb
 2850 04a2 81110000 		.4byte	.LASF98
ARM GAS  C:\Users\tmj32\AppData\Local\Temp\cch6Xcfo.s 			page 76


 2851 04a6 09       		.byte	0x9
 2852 04a7 91       		.byte	0x91
 2853 04a8 11010000 		.4byte	0x111
 2854 04ac 94       		.byte	0x94
 2855 04ad 0B       		.uleb128 0xb
 2856 04ae D0030000 		.4byte	.LASF99
 2857 04b2 09       		.byte	0x9
 2858 04b3 92       		.byte	0x92
 2859 04b4 11010000 		.4byte	0x111
 2860 04b8 98       		.byte	0x98
 2861 04b9 0B       		.uleb128 0xb
 2862 04ba 2F120000 		.4byte	.LASF100
 2863 04be 09       		.byte	0x9
 2864 04bf 93       		.byte	0x93
 2865 04c0 11010000 		.4byte	0x111
 2866 04c4 9C       		.byte	0x9c
 2867 04c5 0B       		.uleb128 0xb
 2868 04c6 D5080000 		.4byte	.LASF101
 2869 04ca 09       		.byte	0x9
 2870 04cb 94       		.byte	0x94
 2871 04cc 11010000 		.4byte	0x111
 2872 04d0 A0       		.byte	0xa0
 2873 04d1 0B       		.uleb128 0xb
 2874 04d2 E6030000 		.4byte	.LASF102
 2875 04d6 09       		.byte	0x9
 2876 04d7 95       		.byte	0x95
 2877 04d8 FB000000 		.4byte	0xfb
 2878 04dc A4       		.byte	0xa4
 2879 04dd 0B       		.uleb128 0xb
 2880 04de AB0F0000 		.4byte	.LASF103
 2881 04e2 09       		.byte	0x9
 2882 04e3 96       		.byte	0x96
 2883 04e4 FB000000 		.4byte	0xfb
 2884 04e8 A6       		.byte	0xa6
 2885 04e9 0B       		.uleb128 0xb
 2886 04ea 77120000 		.4byte	.LASF104
 2887 04ee 09       		.byte	0x9
 2888 04ef 97       		.byte	0x97
 2889 04f0 FB000000 		.4byte	0xfb
 2890 04f4 A8       		.byte	0xa8
 2891 04f5 0B       		.uleb128 0xb
 2892 04f6 490B0000 		.4byte	.LASF105
 2893 04fa 09       		.byte	0x9
 2894 04fb 98       		.byte	0x98
 2895 04fc FB000000 		.4byte	0xfb
 2896 0500 AA       		.byte	0xaa
 2897 0501 0B       		.uleb128 0xb
 2898 0502 1E030000 		.4byte	.LASF106
 2899 0506 09       		.byte	0x9
 2900 0507 99       		.byte	0x99
 2901 0508 FB000000 		.4byte	0xfb
 2902 050c AC       		.byte	0xac
 2903 050d 0B       		.uleb128 0xb
 2904 050e 860D0000 		.4byte	.LASF107
 2905 0512 09       		.byte	0x9
 2906 0513 9A       		.byte	0x9a
 2907 0514 FB000000 		.4byte	0xfb
ARM GAS  C:\Users\tmj32\AppData\Local\Temp\cch6Xcfo.s 			page 77


 2908 0518 AE       		.byte	0xae
 2909 0519 0B       		.uleb128 0xb
 2910 051a 2C030000 		.4byte	.LASF108
 2911 051e 09       		.byte	0x9
 2912 051f 9D       		.byte	0x9d
 2913 0520 FB000000 		.4byte	0xfb
 2914 0524 B0       		.byte	0xb0
 2915 0525 0B       		.uleb128 0xb
 2916 0526 A7080000 		.4byte	.LASF109
 2917 052a 09       		.byte	0x9
 2918 052b 9E       		.byte	0x9e
 2919 052c 11010000 		.4byte	0x111
 2920 0530 B4       		.byte	0xb4
 2921 0531 00       		.byte	0
 2922 0532 02       		.uleb128 0x2
 2923 0533 42150000 		.4byte	.LASF110
 2924 0537 09       		.byte	0x9
 2925 0538 9F       		.byte	0x9f
 2926 0539 21010000 		.4byte	0x121
 2927 053d 03       		.uleb128 0x3
 2928 053e 04       		.byte	0x4
 2929 053f 04       		.byte	0x4
 2930 0540 71050000 		.4byte	.LASF111
 2931 0544 03       		.uleb128 0x3
 2932 0545 08       		.byte	0x8
 2933 0546 04       		.byte	0x4
 2934 0547 AB150000 		.4byte	.LASF112
 2935 054b 03       		.uleb128 0x3
 2936 054c 01       		.byte	0x1
 2937 054d 02       		.byte	0x2
 2938 054e 24080000 		.4byte	.LASF113
 2939 0552 0C       		.uleb128 0xc
 2940 0553 01       		.byte	0x1
 2941 0554 42000000 		.4byte	0x42
 2942 0558 0A       		.byte	0xa
 2943 0559 2402     		.2byte	0x224
 2944 055b 6C050000 		.4byte	0x56c
 2945 055f 0D       		.uleb128 0xd
 2946 0560 71090000 		.4byte	.LASF114
 2947 0564 00       		.byte	0
 2948 0565 0D       		.uleb128 0xd
 2949 0566 3A030000 		.4byte	.LASF115
 2950 056a 01       		.byte	0x1
 2951 056b 00       		.byte	0
 2952 056c 0E       		.uleb128 0xe
 2953 056d D4020000 		.4byte	.LASF116
 2954 0571 0A       		.byte	0xa
 2955 0572 2702     		.2byte	0x227
 2956 0574 52050000 		.4byte	0x552
 2957 0578 0E       		.uleb128 0xe
 2958 0579 140C0000 		.4byte	.LASF117
 2959 057d 0A       		.byte	0xa
 2960 057e 3902     		.2byte	0x239
 2961 0580 84050000 		.4byte	0x584
 2962 0584 06       		.uleb128 0x6
 2963 0585 04       		.byte	0x4
 2964 0586 8A050000 		.4byte	0x58a
ARM GAS  C:\Users\tmj32\AppData\Local\Temp\cch6Xcfo.s 			page 78


 2965 058a 0F       		.uleb128 0xf
 2966 058b 95050000 		.4byte	0x595
 2967 058f 10       		.uleb128 0x10
 2968 0590 11010000 		.4byte	0x111
 2969 0594 00       		.byte	0
 2970 0595 0E       		.uleb128 0xe
 2971 0596 54030000 		.4byte	.LASF118
 2972 059a 0A       		.byte	0xa
 2973 059b 4402     		.2byte	0x244
 2974 059d A1050000 		.4byte	0x5a1
 2975 05a1 06       		.uleb128 0x6
 2976 05a2 04       		.byte	0x4
 2977 05a3 A7050000 		.4byte	0x5a7
 2978 05a7 11       		.uleb128 0x11
 2979 05a8 6C050000 		.4byte	0x56c
 2980 05ac B6050000 		.4byte	0x5b6
 2981 05b0 10       		.uleb128 0x10
 2982 05b1 11010000 		.4byte	0x111
 2983 05b5 00       		.byte	0
 2984 05b6 12       		.uleb128 0x12
 2985 05b7 94030000 		.4byte	.LASF142
 2986 05bb 4C       		.byte	0x4c
 2987 05bc 0A       		.byte	0xa
 2988 05bd C302     		.2byte	0x2c3
 2989 05bf D5060000 		.4byte	0x6d5
 2990 05c3 13       		.uleb128 0x13
 2991 05c4 48080000 		.4byte	.LASF119
 2992 05c8 0A       		.byte	0xa
 2993 05c9 C602     		.2byte	0x2c6
 2994 05cb 4B050000 		.4byte	0x54b
 2995 05cf 00       		.byte	0
 2996 05d0 13       		.uleb128 0x13
 2997 05d1 050C0000 		.4byte	.LASF120
 2998 05d5 0A       		.byte	0xa
 2999 05d6 C702     		.2byte	0x2c7
 3000 05d8 4B050000 		.4byte	0x54b
 3001 05dc 01       		.byte	0x1
 3002 05dd 13       		.uleb128 0x13
 3003 05de F2130000 		.4byte	.LASF121
 3004 05e2 0A       		.byte	0xa
 3005 05e3 C902     		.2byte	0x2c9
 3006 05e5 1C010000 		.4byte	0x11c
 3007 05e9 04       		.byte	0x4
 3008 05ea 13       		.uleb128 0x13
 3009 05eb EB000000 		.4byte	.LASF122
 3010 05ef 0A       		.byte	0xa
 3011 05f0 CB02     		.2byte	0x2cb
 3012 05f2 1C010000 		.4byte	0x11c
 3013 05f6 08       		.byte	0x8
 3014 05f7 13       		.uleb128 0x13
 3015 05f8 9F0D0000 		.4byte	.LASF123
 3016 05fc 0A       		.byte	0xa
 3017 05fd CC02     		.2byte	0x2cc
 3018 05ff 4B050000 		.4byte	0x54b
 3019 0603 0C       		.byte	0xc
 3020 0604 13       		.uleb128 0x13
 3021 0605 4F0C0000 		.4byte	.LASF124
ARM GAS  C:\Users\tmj32\AppData\Local\Temp\cch6Xcfo.s 			page 79


 3022 0609 0A       		.byte	0xa
 3023 060a CD02     		.2byte	0x2cd
 3024 060c 4B050000 		.4byte	0x54b
 3025 0610 0D       		.byte	0xd
 3026 0611 13       		.uleb128 0x13
 3027 0612 B90E0000 		.4byte	.LASF125
 3028 0616 0A       		.byte	0xa
 3029 0617 CF02     		.2byte	0x2cf
 3030 0619 D5060000 		.4byte	0x6d5
 3031 061d 10       		.byte	0x10
 3032 061e 13       		.uleb128 0x13
 3033 061f E5090000 		.4byte	.LASF126
 3034 0623 0A       		.byte	0xa
 3035 0624 D002     		.2byte	0x2d0
 3036 0626 11010000 		.4byte	0x111
 3037 062a 14       		.byte	0x14
 3038 062b 13       		.uleb128 0x13
 3039 062c B6010000 		.4byte	.LASF127
 3040 0630 0A       		.byte	0xa
 3041 0631 D102     		.2byte	0x2d1
 3042 0633 1C010000 		.4byte	0x11c
 3043 0637 18       		.byte	0x18
 3044 0638 13       		.uleb128 0x13
 3045 0639 BD070000 		.4byte	.LASF128
 3046 063d 0A       		.byte	0xa
 3047 063e D202     		.2byte	0x2d2
 3048 0640 1C010000 		.4byte	0x11c
 3049 0644 1C       		.byte	0x1c
 3050 0645 13       		.uleb128 0x13
 3051 0646 A5170000 		.4byte	.LASF129
 3052 064a 0A       		.byte	0xa
 3053 064b D402     		.2byte	0x2d4
 3054 064d 1C010000 		.4byte	0x11c
 3055 0651 20       		.byte	0x20
 3056 0652 13       		.uleb128 0x13
 3057 0653 F3020000 		.4byte	.LASF130
 3058 0657 0A       		.byte	0xa
 3059 0658 D502     		.2byte	0x2d5
 3060 065a DB060000 		.4byte	0x6db
 3061 065e 24       		.byte	0x24
 3062 065f 13       		.uleb128 0x13
 3063 0660 20040000 		.4byte	.LASF131
 3064 0664 0A       		.byte	0xa
 3065 0665 D702     		.2byte	0x2d7
 3066 0667 D5060000 		.4byte	0x6d5
 3067 066b 28       		.byte	0x28
 3068 066c 13       		.uleb128 0x13
 3069 066d 91060000 		.4byte	.LASF132
 3070 0671 0A       		.byte	0xa
 3071 0672 D802     		.2byte	0x2d8
 3072 0674 11010000 		.4byte	0x111
 3073 0678 2C       		.byte	0x2c
 3074 0679 13       		.uleb128 0x13
 3075 067a E5040000 		.4byte	.LASF133
 3076 067e 0A       		.byte	0xa
 3077 067f D902     		.2byte	0x2d9
 3078 0681 1C010000 		.4byte	0x11c
ARM GAS  C:\Users\tmj32\AppData\Local\Temp\cch6Xcfo.s 			page 80


 3079 0685 30       		.byte	0x30
 3080 0686 13       		.uleb128 0x13
 3081 0687 A60A0000 		.4byte	.LASF134
 3082 068b 0A       		.byte	0xa
 3083 068c DA02     		.2byte	0x2da
 3084 068e 1C010000 		.4byte	0x11c
 3085 0692 34       		.byte	0x34
 3086 0693 13       		.uleb128 0x13
 3087 0694 52020000 		.4byte	.LASF135
 3088 0698 0A       		.byte	0xa
 3089 0699 DC02     		.2byte	0x2dc
 3090 069b D5060000 		.4byte	0x6d5
 3091 069f 38       		.byte	0x38
 3092 06a0 13       		.uleb128 0x13
 3093 06a1 230E0000 		.4byte	.LASF136
 3094 06a5 0A       		.byte	0xa
 3095 06a6 DD02     		.2byte	0x2dd
 3096 06a8 11010000 		.4byte	0x111
 3097 06ac 3C       		.byte	0x3c
 3098 06ad 13       		.uleb128 0x13
 3099 06ae 750D0000 		.4byte	.LASF137
 3100 06b2 0A       		.byte	0xa
 3101 06b3 DE02     		.2byte	0x2de
 3102 06b5 1C010000 		.4byte	0x11c
 3103 06b9 40       		.byte	0x40
 3104 06ba 13       		.uleb128 0x13
 3105 06bb D7070000 		.4byte	.LASF138
 3106 06bf 0A       		.byte	0xa
 3107 06c0 E402     		.2byte	0x2e4
 3108 06c2 78050000 		.4byte	0x578
 3109 06c6 44       		.byte	0x44
 3110 06c7 13       		.uleb128 0x13
 3111 06c8 8A020000 		.4byte	.LASF139
 3112 06cc 0A       		.byte	0xa
 3113 06cd EB02     		.2byte	0x2eb
 3114 06cf 95050000 		.4byte	0x595
 3115 06d3 48       		.byte	0x48
 3116 06d4 00       		.byte	0
 3117 06d5 06       		.uleb128 0x6
 3118 06d6 04       		.byte	0x4
 3119 06d7 E5000000 		.4byte	0xe5
 3120 06db 09       		.uleb128 0x9
 3121 06dc 4B050000 		.4byte	0x54b
 3122 06e0 0E       		.uleb128 0xe
 3123 06e1 E6150000 		.4byte	.LASF140
 3124 06e5 0A       		.byte	0xa
 3125 06e6 EE02     		.2byte	0x2ee
 3126 06e8 B6050000 		.4byte	0x5b6
 3127 06ec 0E       		.uleb128 0xe
 3128 06ed 2F000000 		.4byte	.LASF141
 3129 06f1 0B       		.byte	0xb
 3130 06f2 F201     		.2byte	0x1f2
 3131 06f4 84050000 		.4byte	0x584
 3132 06f8 12       		.uleb128 0x12
 3133 06f9 94150000 		.4byte	.LASF143
 3134 06fd 24       		.byte	0x24
 3135 06fe 0B       		.byte	0xb
ARM GAS  C:\Users\tmj32\AppData\Local\Temp\cch6Xcfo.s 			page 81


 3136 06ff 7402     		.2byte	0x274
 3137 0701 7B070000 		.4byte	0x77b
 3138 0705 13       		.uleb128 0x13
 3139 0706 9A0A0000 		.4byte	.LASF144
 3140 070a 0B       		.byte	0xb
 3141 070b 7702     		.2byte	0x277
 3142 070d 1C010000 		.4byte	0x11c
 3143 0711 00       		.byte	0
 3144 0712 13       		.uleb128 0x13
 3145 0713 20070000 		.4byte	.LASF145
 3146 0717 0B       		.byte	0xb
 3147 0718 7902     		.2byte	0x279
 3148 071a B4000000 		.4byte	0xb4
 3149 071e 04       		.byte	0x4
 3150 071f 13       		.uleb128 0x13
 3151 0720 95170000 		.4byte	.LASF146
 3152 0724 0B       		.byte	0xb
 3153 0725 7A02     		.2byte	0x27a
 3154 0727 11010000 		.4byte	0x111
 3155 072b 08       		.byte	0x8
 3156 072c 13       		.uleb128 0x13
 3157 072d 370A0000 		.4byte	.LASF147
 3158 0731 0B       		.byte	0xb
 3159 0732 7B02     		.2byte	0x27b
 3160 0734 1C010000 		.4byte	0x11c
 3161 0738 0C       		.byte	0xc
 3162 0739 13       		.uleb128 0x13
 3163 073a ED0D0000 		.4byte	.LASF148
 3164 073e 0B       		.byte	0xb
 3165 073f 7D02     		.2byte	0x27d
 3166 0741 B4000000 		.4byte	0xb4
 3167 0745 10       		.byte	0x10
 3168 0746 13       		.uleb128 0x13
 3169 0747 140D0000 		.4byte	.LASF149
 3170 074b 0B       		.byte	0xb
 3171 074c 7E02     		.2byte	0x27e
 3172 074e 11010000 		.4byte	0x111
 3173 0752 14       		.byte	0x14
 3174 0753 13       		.uleb128 0x13
 3175 0754 FC0B0000 		.4byte	.LASF150
 3176 0758 0B       		.byte	0xb
 3177 0759 7F02     		.2byte	0x27f
 3178 075b 1C010000 		.4byte	0x11c
 3179 075f 18       		.byte	0x18
 3180 0760 13       		.uleb128 0x13
 3181 0761 D7070000 		.4byte	.LASF138
 3182 0765 0B       		.byte	0xb
 3183 0766 8502     		.2byte	0x285
 3184 0768 EC060000 		.4byte	0x6ec
 3185 076c 1C       		.byte	0x1c
 3186 076d 13       		.uleb128 0x13
 3187 076e 540A0000 		.4byte	.LASF151
 3188 0772 0B       		.byte	0xb
 3189 0773 8802     		.2byte	0x288
 3190 0775 11010000 		.4byte	0x111
 3191 0779 20       		.byte	0x20
 3192 077a 00       		.byte	0
ARM GAS  C:\Users\tmj32\AppData\Local\Temp\cch6Xcfo.s 			page 82


 3193 077b 0E       		.uleb128 0xe
 3194 077c A40C0000 		.4byte	.LASF152
 3195 0780 0B       		.byte	0xb
 3196 0781 8B02     		.2byte	0x28b
 3197 0783 F8060000 		.4byte	0x6f8
 3198 0787 14       		.uleb128 0x14
 3199 0788 D1140000 		.4byte	.LASF153
 3200 078c 4C       		.byte	0x4c
 3201 078d 0C       		.byte	0xc
 3202 078e 2F       		.byte	0x2f
 3203 078f 78080000 		.4byte	0x878
 3204 0793 0B       		.uleb128 0xb
 3205 0794 AA140000 		.4byte	.LASF154
 3206 0798 0C       		.byte	0xc
 3207 0799 31       		.byte	0x31
 3208 079a 11010000 		.4byte	0x111
 3209 079e 00       		.byte	0
 3210 079f 0B       		.uleb128 0xb
 3211 07a0 1B0A0000 		.4byte	.LASF155
 3212 07a4 0C       		.byte	0xc
 3213 07a5 33       		.byte	0x33
 3214 07a6 11010000 		.4byte	0x111
 3215 07aa 04       		.byte	0x4
 3216 07ab 0B       		.uleb128 0xb
 3217 07ac 9F0E0000 		.4byte	.LASF156
 3218 07b0 0C       		.byte	0xc
 3219 07b1 34       		.byte	0x34
 3220 07b2 11010000 		.4byte	0x111
 3221 07b6 08       		.byte	0x8
 3222 07b7 0B       		.uleb128 0xb
 3223 07b8 E5100000 		.4byte	.LASF157
 3224 07bc 0C       		.byte	0xc
 3225 07bd 35       		.byte	0x35
 3226 07be 11010000 		.4byte	0x111
 3227 07c2 0C       		.byte	0xc
 3228 07c3 0B       		.uleb128 0xb
 3229 07c4 0A0A0000 		.4byte	.LASF158
 3230 07c8 0C       		.byte	0xc
 3231 07c9 37       		.byte	0x37
 3232 07ca 11010000 		.4byte	0x111
 3233 07ce 10       		.byte	0x10
 3234 07cf 0B       		.uleb128 0xb
 3235 07d0 70030000 		.4byte	.LASF159
 3236 07d4 0C       		.byte	0xc
 3237 07d5 38       		.byte	0x38
 3238 07d6 11010000 		.4byte	0x111
 3239 07da 14       		.byte	0x14
 3240 07db 0B       		.uleb128 0xb
 3241 07dc 79030000 		.4byte	.LASF160
 3242 07e0 0C       		.byte	0xc
 3243 07e1 39       		.byte	0x39
 3244 07e2 11010000 		.4byte	0x111
 3245 07e6 18       		.byte	0x18
 3246 07e7 0B       		.uleb128 0xb
 3247 07e8 AB0D0000 		.4byte	.LASF161
 3248 07ec 0C       		.byte	0xc
 3249 07ed 3A       		.byte	0x3a
ARM GAS  C:\Users\tmj32\AppData\Local\Temp\cch6Xcfo.s 			page 83


 3250 07ee 4B050000 		.4byte	0x54b
 3251 07f2 1C       		.byte	0x1c
 3252 07f3 0B       		.uleb128 0xb
 3253 07f4 27100000 		.4byte	.LASF162
 3254 07f8 0C       		.byte	0xc
 3255 07f9 3C       		.byte	0x3c
 3256 07fa 11010000 		.4byte	0x111
 3257 07fe 20       		.byte	0x20
 3258 07ff 0B       		.uleb128 0xb
 3259 0800 DC060000 		.4byte	.LASF163
 3260 0804 0C       		.byte	0xc
 3261 0805 3D       		.byte	0x3d
 3262 0806 11010000 		.4byte	0x111
 3263 080a 24       		.byte	0x24
 3264 080b 0B       		.uleb128 0xb
 3265 080c 4F090000 		.4byte	.LASF164
 3266 0810 0C       		.byte	0xc
 3267 0811 3F       		.byte	0x3f
 3268 0812 11010000 		.4byte	0x111
 3269 0816 28       		.byte	0x28
 3270 0817 0B       		.uleb128 0xb
 3271 0818 C60C0000 		.4byte	.LASF165
 3272 081c 0C       		.byte	0xc
 3273 081d 40       		.byte	0x40
 3274 081e 11010000 		.4byte	0x111
 3275 0822 2C       		.byte	0x2c
 3276 0823 0B       		.uleb128 0xb
 3277 0824 C0050000 		.4byte	.LASF166
 3278 0828 0C       		.byte	0xc
 3279 0829 42       		.byte	0x42
 3280 082a 11010000 		.4byte	0x111
 3281 082e 30       		.byte	0x30
 3282 082f 0B       		.uleb128 0xb
 3283 0830 C7060000 		.4byte	.LASF167
 3284 0834 0C       		.byte	0xc
 3285 0835 43       		.byte	0x43
 3286 0836 11010000 		.4byte	0x111
 3287 083a 34       		.byte	0x34
 3288 083b 0B       		.uleb128 0xb
 3289 083c FB010000 		.4byte	.LASF168
 3290 0840 0C       		.byte	0xc
 3291 0841 45       		.byte	0x45
 3292 0842 11010000 		.4byte	0x111
 3293 0846 38       		.byte	0x38
 3294 0847 0B       		.uleb128 0xb
 3295 0848 69000000 		.4byte	.LASF169
 3296 084c 0C       		.byte	0xc
 3297 084d 46       		.byte	0x46
 3298 084e 11010000 		.4byte	0x111
 3299 0852 3C       		.byte	0x3c
 3300 0853 0B       		.uleb128 0xb
 3301 0854 B1020000 		.4byte	.LASF170
 3302 0858 0C       		.byte	0xc
 3303 0859 48       		.byte	0x48
 3304 085a 11010000 		.4byte	0x111
 3305 085e 40       		.byte	0x40
 3306 085f 0B       		.uleb128 0xb
ARM GAS  C:\Users\tmj32\AppData\Local\Temp\cch6Xcfo.s 			page 84


 3307 0860 98100000 		.4byte	.LASF171
 3308 0864 0C       		.byte	0xc
 3309 0865 49       		.byte	0x49
 3310 0866 11010000 		.4byte	0x111
 3311 086a 44       		.byte	0x44
 3312 086b 0B       		.uleb128 0xb
 3313 086c 71130000 		.4byte	.LASF172
 3314 0870 0C       		.byte	0xc
 3315 0871 4B       		.byte	0x4b
 3316 0872 11010000 		.4byte	0x111
 3317 0876 48       		.byte	0x48
 3318 0877 00       		.byte	0
 3319 0878 02       		.uleb128 0x2
 3320 0879 010F0000 		.4byte	.LASF173
 3321 087d 0C       		.byte	0xc
 3322 087e 4C       		.byte	0x4c
 3323 087f 87070000 		.4byte	0x787
 3324 0883 15       		.uleb128 0x15
 3325 0884 5D130000 		.4byte	.LASF174
 3326 0888 4408     		.2byte	0x844
 3327 088a 0D       		.byte	0xd
 3328 088b 05       		.byte	0x5
 3329 088c 81090000 		.4byte	0x981
 3330 0890 0B       		.uleb128 0xb
 3331 0891 3C0C0000 		.4byte	.LASF175
 3332 0895 0D       		.byte	0xd
 3333 0896 07       		.byte	0x7
 3334 0897 E5000000 		.4byte	0xe5
 3335 089b 00       		.byte	0
 3336 089c 0B       		.uleb128 0xb
 3337 089d 6E120000 		.4byte	.LASF176
 3338 08a1 0D       		.byte	0xd
 3339 08a2 08       		.byte	0x8
 3340 08a3 E5000000 		.4byte	0xe5
 3341 08a7 01       		.byte	0x1
 3342 08a8 0B       		.uleb128 0xb
 3343 08a9 15170000 		.4byte	.LASF177
 3344 08ad 0D       		.byte	0xd
 3345 08ae 09       		.byte	0x9
 3346 08af E5000000 		.4byte	0xe5
 3347 08b3 02       		.byte	0x2
 3348 08b4 0B       		.uleb128 0xb
 3349 08b5 2A010000 		.4byte	.LASF178
 3350 08b9 0D       		.byte	0xd
 3351 08ba 0B       		.byte	0xb
 3352 08bb E5000000 		.4byte	0xe5
 3353 08bf 03       		.byte	0x3
 3354 08c0 0B       		.uleb128 0xb
 3355 08c1 B1110000 		.4byte	.LASF179
 3356 08c5 0D       		.byte	0xd
 3357 08c6 0C       		.byte	0xc
 3358 08c7 FB000000 		.4byte	0xfb
 3359 08cb 04       		.byte	0x4
 3360 08cc 0B       		.uleb128 0xb
 3361 08cd D60C0000 		.4byte	.LASF180
 3362 08d1 0D       		.byte	0xd
 3363 08d2 0D       		.byte	0xd
ARM GAS  C:\Users\tmj32\AppData\Local\Temp\cch6Xcfo.s 			page 85


 3364 08d3 E5000000 		.4byte	0xe5
 3365 08d7 06       		.byte	0x6
 3366 08d8 0B       		.uleb128 0xb
 3367 08d9 03150000 		.4byte	.LASF181
 3368 08dd 0D       		.byte	0xd
 3369 08de 0E       		.byte	0xe
 3370 08df E5000000 		.4byte	0xe5
 3371 08e3 07       		.byte	0x7
 3372 08e4 0B       		.uleb128 0xb
 3373 08e5 3C0B0000 		.4byte	.LASF182
 3374 08e9 0D       		.byte	0xd
 3375 08ea 0F       		.byte	0xf
 3376 08eb E5000000 		.4byte	0xe5
 3377 08ef 08       		.byte	0x8
 3378 08f0 0B       		.uleb128 0xb
 3379 08f1 ED0A0000 		.4byte	.LASF183
 3380 08f5 0D       		.byte	0xd
 3381 08f6 10       		.byte	0x10
 3382 08f7 E5000000 		.4byte	0xe5
 3383 08fb 09       		.byte	0x9
 3384 08fc 0B       		.uleb128 0xb
 3385 08fd 8B140000 		.4byte	.LASF184
 3386 0901 0D       		.byte	0xd
 3387 0902 11       		.byte	0x11
 3388 0903 E5000000 		.4byte	0xe5
 3389 0907 0A       		.byte	0xa
 3390 0908 0B       		.uleb128 0xb
 3391 0909 1D0E0000 		.4byte	.LASF185
 3392 090d 0D       		.byte	0xd
 3393 090e 12       		.byte	0x12
 3394 090f E5000000 		.4byte	0xe5
 3395 0913 0B       		.byte	0xb
 3396 0914 16       		.uleb128 0x16
 3397 0915 49525300 		.ascii	"IRS\000"
 3398 0919 0D       		.byte	0xd
 3399 091a 13       		.byte	0x13
 3400 091b E5000000 		.4byte	0xe5
 3401 091f 0C       		.byte	0xc
 3402 0920 0B       		.uleb128 0xb
 3403 0921 BB020000 		.4byte	.LASF186
 3404 0925 0D       		.byte	0xd
 3405 0926 14       		.byte	0x14
 3406 0927 F0000000 		.4byte	0xf0
 3407 092b 0E       		.byte	0xe
 3408 092c 0B       		.uleb128 0xb
 3409 092d 2E070000 		.4byte	.LASF187
 3410 0931 0D       		.byte	0xd
 3411 0932 17       		.byte	0x17
 3412 0933 9F000000 		.4byte	0x9f
 3413 0937 10       		.byte	0x10
 3414 0938 0B       		.uleb128 0xb
 3415 0939 53130000 		.4byte	.LASF188
 3416 093d 0D       		.byte	0xd
 3417 093e 19       		.byte	0x19
 3418 093f E5000000 		.4byte	0xe5
 3419 0943 14       		.byte	0x14
 3420 0944 0B       		.uleb128 0xb
ARM GAS  C:\Users\tmj32\AppData\Local\Temp\cch6Xcfo.s 			page 86


 3421 0945 F8000000 		.4byte	.LASF189
 3422 0949 0D       		.byte	0xd
 3423 094a 1A       		.byte	0x1a
 3424 094b E5000000 		.4byte	0xe5
 3425 094f 15       		.byte	0x15
 3426 0950 0B       		.uleb128 0xb
 3427 0951 00000000 		.4byte	.LASF190
 3428 0955 0D       		.byte	0xd
 3429 0956 1B       		.byte	0x1b
 3430 0957 E5000000 		.4byte	0xe5
 3431 095b 16       		.byte	0x16
 3432 095c 0B       		.uleb128 0xb
 3433 095d 79010000 		.4byte	.LASF191
 3434 0961 0D       		.byte	0xd
 3435 0962 1E       		.byte	0x1e
 3436 0963 81090000 		.4byte	0x981
 3437 0967 18       		.byte	0x18
 3438 0968 0B       		.uleb128 0xb
 3439 0969 CB090000 		.4byte	.LASF192
 3440 096d 0D       		.byte	0xd
 3441 096e 1F       		.byte	0x1f
 3442 096f 91090000 		.4byte	0x991
 3443 0973 32       		.byte	0x32
 3444 0974 0B       		.uleb128 0xb
 3445 0975 6B100000 		.4byte	.LASF193
 3446 0979 0D       		.byte	0xd
 3447 097a 20       		.byte	0x20
 3448 097b A1090000 		.4byte	0x9a1
 3449 097f 42       		.byte	0x42
 3450 0980 00       		.byte	0
 3451 0981 07       		.uleb128 0x7
 3452 0982 FB000000 		.4byte	0xfb
 3453 0986 91090000 		.4byte	0x991
 3454 098a 08       		.uleb128 0x8
 3455 098b B6000000 		.4byte	0xb6
 3456 098f 0C       		.byte	0xc
 3457 0990 00       		.byte	0
 3458 0991 07       		.uleb128 0x7
 3459 0992 F0000000 		.4byte	0xf0
 3460 0996 A1090000 		.4byte	0x9a1
 3461 099a 08       		.uleb128 0x8
 3462 099b B6000000 		.4byte	0xb6
 3463 099f 07       		.byte	0x7
 3464 09a0 00       		.byte	0
 3465 09a1 07       		.uleb128 0x7
 3466 09a2 DA000000 		.4byte	0xda
 3467 09a6 B2090000 		.4byte	0x9b2
 3468 09aa 17       		.uleb128 0x17
 3469 09ab B6000000 		.4byte	0xb6
 3470 09af FF07     		.2byte	0x7ff
 3471 09b1 00       		.byte	0
 3472 09b2 02       		.uleb128 0x2
 3473 09b3 3F110000 		.4byte	.LASF194
 3474 09b7 0E       		.byte	0xe
 3475 09b8 3C       		.byte	0x3c
 3476 09b9 F0000000 		.4byte	0xf0
 3477 09bd 02       		.uleb128 0x2
ARM GAS  C:\Users\tmj32\AppData\Local\Temp\cch6Xcfo.s 			page 87


 3478 09be BD0C0000 		.4byte	.LASF195
 3479 09c2 0F       		.byte	0xf
 3480 09c3 2C       		.byte	0x2c
 3481 09c4 E5000000 		.4byte	0xe5
 3482 09c8 02       		.uleb128 0x2
 3483 09c9 F0070000 		.4byte	.LASF196
 3484 09cd 10       		.byte	0x10
 3485 09ce 1E       		.byte	0x1e
 3486 09cf E5000000 		.4byte	0xe5
 3487 09d3 0A       		.uleb128 0xa
 3488 09d4 0C       		.byte	0xc
 3489 09d5 10       		.byte	0x10
 3490 09d6 21       		.byte	0x21
 3491 09d7 000A0000 		.4byte	0xa00
 3492 09db 0B       		.uleb128 0xb
 3493 09dc EC020000 		.4byte	.LASF197
 3494 09e0 10       		.byte	0x10
 3495 09e1 23       		.byte	0x23
 3496 09e2 11010000 		.4byte	0x111
 3497 09e6 00       		.byte	0
 3498 09e7 0B       		.uleb128 0xb
 3499 09e8 6A060000 		.4byte	.LASF198
 3500 09ec 10       		.byte	0x10
 3501 09ed 24       		.byte	0x24
 3502 09ee 000A0000 		.4byte	0xa00
 3503 09f2 04       		.byte	0x4
 3504 09f3 0B       		.uleb128 0xb
 3505 09f4 AF130000 		.4byte	.LASF199
 3506 09f8 10       		.byte	0x10
 3507 09f9 25       		.byte	0x25
 3508 09fa 000A0000 		.4byte	0xa00
 3509 09fe 08       		.byte	0x8
 3510 09ff 00       		.byte	0
 3511 0a00 06       		.uleb128 0x6
 3512 0a01 04       		.byte	0x4
 3513 0a02 C8090000 		.4byte	0x9c8
 3514 0a06 02       		.uleb128 0x2
 3515 0a07 FB050000 		.4byte	.LASF200
 3516 0a0b 10       		.byte	0x10
 3517 0a0c 26       		.byte	0x26
 3518 0a0d D3090000 		.4byte	0x9d3
 3519 0a11 0A       		.uleb128 0xa
 3520 0a12 04       		.byte	0x4
 3521 0a13 01       		.byte	0x1
 3522 0a14 F3       		.byte	0xf3
 3523 0a15 4A0A0000 		.4byte	0xa4a
 3524 0a19 0B       		.uleb128 0xb
 3525 0a1a 0D110000 		.4byte	.LASF201
 3526 0a1e 01       		.byte	0x1
 3527 0a1f F5       		.byte	0xf5
 3528 0a20 E5000000 		.4byte	0xe5
 3529 0a24 00       		.byte	0
 3530 0a25 0B       		.uleb128 0xb
 3531 0a26 520E0000 		.4byte	.LASF202
 3532 0a2a 01       		.byte	0x1
 3533 0a2b F6       		.byte	0xf6
 3534 0a2c E5000000 		.4byte	0xe5
ARM GAS  C:\Users\tmj32\AppData\Local\Temp\cch6Xcfo.s 			page 88


 3535 0a30 01       		.byte	0x1
 3536 0a31 16       		.uleb128 0x16
 3537 0a32 72656400 		.ascii	"red\000"
 3538 0a36 01       		.byte	0x1
 3539 0a37 F7       		.byte	0xf7
 3540 0a38 E5000000 		.4byte	0xe5
 3541 0a3c 02       		.byte	0x2
 3542 0a3d 0B       		.uleb128 0xb
 3543 0a3e D6060000 		.4byte	.LASF203
 3544 0a42 01       		.byte	0x1
 3545 0a43 F8       		.byte	0xf8
 3546 0a44 E5000000 		.4byte	0xe5
 3547 0a48 03       		.byte	0x3
 3548 0a49 00       		.byte	0
 3549 0a4a 18       		.uleb128 0x18
 3550 0a4b 04       		.byte	0x4
 3551 0a4c 01       		.byte	0x1
 3552 0a4d F1       		.byte	0xf1
 3553 0a4e 680A0000 		.4byte	0xa68
 3554 0a52 19       		.uleb128 0x19
 3555 0a53 636800   		.ascii	"ch\000"
 3556 0a56 01       		.byte	0x1
 3557 0a57 F9       		.byte	0xf9
 3558 0a58 110A0000 		.4byte	0xa11
 3559 0a5c 1A       		.uleb128 0x1a
 3560 0a5d 64000000 		.4byte	.LASF204
 3561 0a61 01       		.byte	0x1
 3562 0a62 FA       		.byte	0xfa
 3563 0a63 11010000 		.4byte	0x111
 3564 0a67 00       		.byte	0
 3565 0a68 02       		.uleb128 0x2
 3566 0a69 1D050000 		.4byte	.LASF205
 3567 0a6d 01       		.byte	0x1
 3568 0a6e FB       		.byte	0xfb
 3569 0a6f 4A0A0000 		.4byte	0xa4a
 3570 0a73 0E       		.uleb128 0xe
 3571 0a74 F90D0000 		.4byte	.LASF206
 3572 0a78 01       		.byte	0x1
 3573 0a79 0801     		.2byte	0x108
 3574 0a7b 680A0000 		.4byte	0xa68
 3575 0a7f 0E       		.uleb128 0xe
 3576 0a80 4D100000 		.4byte	.LASF207
 3577 0a84 01       		.byte	0x1
 3578 0a85 0D01     		.2byte	0x10d
 3579 0a87 E5000000 		.4byte	0xe5
 3580 0a8b 0A       		.uleb128 0xa
 3581 0a8c 08       		.byte	0x8
 3582 0a8d 11       		.byte	0x11
 3583 0a8e 31       		.byte	0x31
 3584 0a8f C00A0000 		.4byte	0xac0
 3585 0a93 16       		.uleb128 0x16
 3586 0a94 783100   		.ascii	"x1\000"
 3587 0a97 11       		.byte	0x11
 3588 0a98 33       		.byte	0x33
 3589 0a99 B2090000 		.4byte	0x9b2
 3590 0a9d 00       		.byte	0
 3591 0a9e 16       		.uleb128 0x16
ARM GAS  C:\Users\tmj32\AppData\Local\Temp\cch6Xcfo.s 			page 89


 3592 0a9f 793100   		.ascii	"y1\000"
 3593 0aa2 11       		.byte	0x11
 3594 0aa3 34       		.byte	0x34
 3595 0aa4 B2090000 		.4byte	0x9b2
 3596 0aa8 02       		.byte	0x2
 3597 0aa9 16       		.uleb128 0x16
 3598 0aaa 783200   		.ascii	"x2\000"
 3599 0aad 11       		.byte	0x11
 3600 0aae 35       		.byte	0x35
 3601 0aaf B2090000 		.4byte	0x9b2
 3602 0ab3 04       		.byte	0x4
 3603 0ab4 16       		.uleb128 0x16
 3604 0ab5 793200   		.ascii	"y2\000"
 3605 0ab8 11       		.byte	0x11
 3606 0ab9 36       		.byte	0x36
 3607 0aba B2090000 		.4byte	0x9b2
 3608 0abe 06       		.byte	0x6
 3609 0abf 00       		.byte	0
 3610 0ac0 02       		.uleb128 0x2
 3611 0ac1 52120000 		.4byte	.LASF208
 3612 0ac5 11       		.byte	0x11
 3613 0ac6 37       		.byte	0x37
 3614 0ac7 8B0A0000 		.4byte	0xa8b
 3615 0acb 06       		.uleb128 0x6
 3616 0acc 04       		.byte	0x4
 3617 0acd D10A0000 		.4byte	0xad1
 3618 0ad1 1B       		.uleb128 0x1b
 3619 0ad2 C00A0000 		.4byte	0xac0
 3620 0ad6 14       		.uleb128 0x14
 3621 0ad7 25000000 		.4byte	.LASF209
 3622 0adb 40       		.byte	0x40
 3623 0adc 12       		.byte	0x12
 3624 0add BB       		.byte	0xbb
 3625 0ade 180C0000 		.4byte	0xc18
 3626 0ae2 16       		.uleb128 0x16
 3627 0ae3 70617200 		.ascii	"par\000"
 3628 0ae7 12       		.byte	0x12
 3629 0ae8 BD       		.byte	0xbd
 3630 0ae9 180C0000 		.4byte	0xc18
 3631 0aed 00       		.byte	0
 3632 0aee 0B       		.uleb128 0xb
 3633 0aef C4130000 		.4byte	.LASF210
 3634 0af3 12       		.byte	0x12
 3635 0af4 BE       		.byte	0xbe
 3636 0af5 060A0000 		.4byte	0xa06
 3637 0af9 04       		.byte	0x4
 3638 0afa 0B       		.uleb128 0xb
 3639 0afb 20100000 		.4byte	.LASF211
 3640 0aff 12       		.byte	0x12
 3641 0b00 C0       		.byte	0xc0
 3642 0b01 C00A0000 		.4byte	0xac0
 3643 0b05 10       		.byte	0x10
 3644 0b06 0B       		.uleb128 0xb
 3645 0b07 33140000 		.4byte	.LASF212
 3646 0b0b 12       		.byte	0x12
 3647 0b0c C2       		.byte	0xc2
 3648 0b0d 61100000 		.4byte	0x1061
ARM GAS  C:\Users\tmj32\AppData\Local\Temp\cch6Xcfo.s 			page 90


 3649 0b11 18       		.byte	0x18
 3650 0b12 0B       		.uleb128 0xb
 3651 0b13 FF150000 		.4byte	.LASF213
 3652 0b17 12       		.byte	0x12
 3653 0b18 C3       		.byte	0xc3
 3654 0b19 8D100000 		.4byte	0x108d
 3655 0b1d 1C       		.byte	0x1c
 3656 0b1e 0B       		.uleb128 0xb
 3657 0b1f 3C140000 		.4byte	.LASF214
 3658 0b23 12       		.byte	0x12
 3659 0b24 C4       		.byte	0xc4
 3660 0b25 A70F0000 		.4byte	0xfa7
 3661 0b29 20       		.byte	0x20
 3662 0b2a 0B       		.uleb128 0xb
 3663 0b2b 6E140000 		.4byte	.LASF215
 3664 0b2f 12       		.byte	0x12
 3665 0b30 C6       		.byte	0xc6
 3666 0b31 B4000000 		.4byte	0xb4
 3667 0b35 24       		.byte	0x24
 3668 0b36 0B       		.uleb128 0xb
 3669 0b37 84070000 		.4byte	.LASF216
 3670 0b3b 12       		.byte	0x12
 3671 0b3c C7       		.byte	0xc7
 3672 0b3d C5110000 		.4byte	0x11c5
 3673 0b41 28       		.byte	0x28
 3674 0b42 1C       		.uleb128 0x1c
 3675 0b43 81050000 		.4byte	.LASF217
 3676 0b47 12       		.byte	0x12
 3677 0b48 D7       		.byte	0xd7
 3678 0b49 E5000000 		.4byte	0xe5
 3679 0b4d 01       		.byte	0x1
 3680 0b4e 01       		.byte	0x1
 3681 0b4f 07       		.byte	0x7
 3682 0b50 2C       		.byte	0x2c
 3683 0b51 1C       		.uleb128 0x1c
 3684 0b52 B2150000 		.4byte	.LASF218
 3685 0b56 12       		.byte	0x12
 3686 0b57 D8       		.byte	0xd8
 3687 0b58 E5000000 		.4byte	0xe5
 3688 0b5c 01       		.byte	0x1
 3689 0b5d 01       		.byte	0x1
 3690 0b5e 06       		.byte	0x6
 3691 0b5f 2C       		.byte	0x2c
 3692 0b60 1C       		.uleb128 0x1c
 3693 0b61 92010000 		.4byte	.LASF219
 3694 0b65 12       		.byte	0x12
 3695 0b66 D9       		.byte	0xd9
 3696 0b67 E5000000 		.4byte	0xe5
 3697 0b6b 01       		.byte	0x1
 3698 0b6c 01       		.byte	0x1
 3699 0b6d 05       		.byte	0x5
 3700 0b6e 2C       		.byte	0x2c
 3701 0b6f 1C       		.uleb128 0x1c
 3702 0b70 BF090000 		.4byte	.LASF220
 3703 0b74 12       		.byte	0x12
 3704 0b75 DA       		.byte	0xda
 3705 0b76 E5000000 		.4byte	0xe5
ARM GAS  C:\Users\tmj32\AppData\Local\Temp\cch6Xcfo.s 			page 91


 3706 0b7a 01       		.byte	0x1
 3707 0b7b 01       		.byte	0x1
 3708 0b7c 04       		.byte	0x4
 3709 0b7d 2C       		.byte	0x2c
 3710 0b7e 1C       		.uleb128 0x1c
 3711 0b7f B1140000 		.4byte	.LASF221
 3712 0b83 12       		.byte	0x12
 3713 0b84 DB       		.byte	0xdb
 3714 0b85 E5000000 		.4byte	0xe5
 3715 0b89 01       		.byte	0x1
 3716 0b8a 01       		.byte	0x1
 3717 0b8b 03       		.byte	0x3
 3718 0b8c 2C       		.byte	0x2c
 3719 0b8d 1D       		.uleb128 0x1d
 3720 0b8e 746F7000 		.ascii	"top\000"
 3721 0b92 12       		.byte	0x12
 3722 0b93 DC       		.byte	0xdc
 3723 0b94 E5000000 		.4byte	0xe5
 3724 0b98 01       		.byte	0x1
 3725 0b99 01       		.byte	0x1
 3726 0b9a 02       		.byte	0x2
 3727 0b9b 2C       		.byte	0x2c
 3728 0b9c 1C       		.uleb128 0x1c
 3729 0b9d 4A110000 		.4byte	.LASF222
 3730 0ba1 12       		.byte	0x12
 3731 0ba2 DD       		.byte	0xdd
 3732 0ba3 E5000000 		.4byte	0xe5
 3733 0ba7 01       		.byte	0x1
 3734 0ba8 01       		.byte	0x1
 3735 0ba9 01       		.byte	0x1
 3736 0baa 2C       		.byte	0x2c
 3737 0bab 1C       		.uleb128 0x1c
 3738 0bac 63010000 		.4byte	.LASF223
 3739 0bb0 12       		.byte	0x12
 3740 0bb1 DE       		.byte	0xde
 3741 0bb2 E5000000 		.4byte	0xe5
 3742 0bb6 01       		.byte	0x1
 3743 0bb7 01       		.byte	0x1
 3744 0bb8 00       		.byte	0
 3745 0bb9 2C       		.byte	0x2c
 3746 0bba 1C       		.uleb128 0x1c
 3747 0bbb B70A0000 		.4byte	.LASF224
 3748 0bbf 12       		.byte	0x12
 3749 0bc0 DF       		.byte	0xdf
 3750 0bc1 BA110000 		.4byte	0x11ba
 3751 0bc5 01       		.byte	0x1
 3752 0bc6 02       		.byte	0x2
 3753 0bc7 06       		.byte	0x6
 3754 0bc8 2D       		.byte	0x2d
 3755 0bc9 1C       		.uleb128 0x1c
 3756 0bca 5A010000 		.4byte	.LASF225
 3757 0bce 12       		.byte	0x12
 3758 0bcf E0       		.byte	0xe0
 3759 0bd0 910F0000 		.4byte	0xf91
 3760 0bd4 01       		.byte	0x1
 3761 0bd5 02       		.byte	0x2
 3762 0bd6 04       		.byte	0x4
ARM GAS  C:\Users\tmj32\AppData\Local\Temp\cch6Xcfo.s 			page 92


 3763 0bd7 2D       		.byte	0x2d
 3764 0bd8 1C       		.uleb128 0x1c
 3765 0bd9 52150000 		.4byte	.LASF226
 3766 0bdd 12       		.byte	0x12
 3767 0bde E1       		.byte	0xe1
 3768 0bdf E5000000 		.4byte	0xe5
 3769 0be3 01       		.byte	0x1
 3770 0be4 03       		.byte	0x3
 3771 0be5 01       		.byte	0x1
 3772 0be6 2D       		.byte	0x2d
 3773 0be7 0B       		.uleb128 0xb
 3774 0be8 0E130000 		.4byte	.LASF227
 3775 0bec 12       		.byte	0x12
 3776 0bed E2       		.byte	0xe2
 3777 0bee E5000000 		.4byte	0xe5
 3778 0bf2 2E       		.byte	0x2e
 3779 0bf3 0B       		.uleb128 0xb
 3780 0bf4 D4120000 		.4byte	.LASF228
 3781 0bf8 12       		.byte	0x12
 3782 0bf9 E4       		.byte	0xe4
 3783 0bfa 7F0A0000 		.4byte	0xa7f
 3784 0bfe 2F       		.byte	0x2f
 3785 0bff 0B       		.uleb128 0xb
 3786 0c00 F6090000 		.4byte	.LASF229
 3787 0c04 12       		.byte	0x12
 3788 0c05 E6       		.byte	0xe6
 3789 0c06 B2090000 		.4byte	0x9b2
 3790 0c0a 30       		.byte	0x30
 3791 0c0b 0B       		.uleb128 0xb
 3792 0c0c CB040000 		.4byte	.LASF230
 3793 0c10 12       		.byte	0x12
 3794 0c11 E9       		.byte	0xe9
 3795 0c12 AF110000 		.4byte	0x11af
 3796 0c16 34       		.byte	0x34
 3797 0c17 00       		.byte	0
 3798 0c18 06       		.uleb128 0x6
 3799 0c19 04       		.byte	0x4
 3800 0c1a D60A0000 		.4byte	0xad6
 3801 0c1e 0A       		.uleb128 0xa
 3802 0c1f 08       		.byte	0x8
 3803 0c20 13       		.byte	0x13
 3804 0c21 2E       		.byte	0x2e
 3805 0c22 6F0C0000 		.4byte	0xc6f
 3806 0c26 0B       		.uleb128 0xb
 3807 0c27 9F170000 		.4byte	.LASF231
 3808 0c2b 13       		.byte	0x13
 3809 0c2c 30       		.byte	0x30
 3810 0c2d FB000000 		.4byte	0xfb
 3811 0c31 00       		.byte	0
 3812 0c32 0B       		.uleb128 0xb
 3813 0c33 83120000 		.4byte	.LASF232
 3814 0c37 13       		.byte	0x13
 3815 0c38 31       		.byte	0x31
 3816 0c39 E5000000 		.4byte	0xe5
 3817 0c3d 02       		.byte	0x2
 3818 0c3e 0B       		.uleb128 0xb
 3819 0c3f EA110000 		.4byte	.LASF233
ARM GAS  C:\Users\tmj32\AppData\Local\Temp\cch6Xcfo.s 			page 93


 3820 0c43 13       		.byte	0x13
 3821 0c44 32       		.byte	0x32
 3822 0c45 E5000000 		.4byte	0xe5
 3823 0c49 03       		.byte	0x3
 3824 0c4a 0B       		.uleb128 0xb
 3825 0c4b AA010000 		.4byte	.LASF234
 3826 0c4f 13       		.byte	0x13
 3827 0c50 33       		.byte	0x33
 3828 0c51 DA000000 		.4byte	0xda
 3829 0c55 04       		.byte	0x4
 3830 0c56 0B       		.uleb128 0xb
 3831 0c57 B0010000 		.4byte	.LASF235
 3832 0c5b 13       		.byte	0x13
 3833 0c5c 34       		.byte	0x34
 3834 0c5d DA000000 		.4byte	0xda
 3835 0c61 05       		.byte	0x5
 3836 0c62 16       		.uleb128 0x16
 3837 0c63 62707000 		.ascii	"bpp\000"
 3838 0c67 13       		.byte	0x13
 3839 0c68 35       		.byte	0x35
 3840 0c69 E5000000 		.4byte	0xe5
 3841 0c6d 06       		.byte	0x6
 3842 0c6e 00       		.byte	0
 3843 0c6f 02       		.uleb128 0x2
 3844 0c70 400A0000 		.4byte	.LASF236
 3845 0c74 13       		.byte	0x13
 3846 0c75 36       		.byte	0x36
 3847 0c76 1E0C0000 		.4byte	0xc1e
 3848 0c7a 14       		.uleb128 0x14
 3849 0c7b 52080000 		.4byte	.LASF237
 3850 0c7f 10       		.byte	0x10
 3851 0c80 13       		.byte	0x13
 3852 0c81 44       		.byte	0x44
 3853 0c82 D20C0000 		.4byte	0xcd2
 3854 0c86 0B       		.uleb128 0xb
 3855 0c87 D3010000 		.4byte	.LASF238
 3856 0c8b 13       		.byte	0x13
 3857 0c8c 47       		.byte	0x47
 3858 0c8d 010D0000 		.4byte	0xd01
 3859 0c91 00       		.byte	0
 3860 0c92 0B       		.uleb128 0xb
 3861 0c93 9E130000 		.4byte	.LASF239
 3862 0c97 13       		.byte	0x13
 3863 0c98 4A       		.byte	0x4a
 3864 0c99 260D0000 		.4byte	0xd26
 3865 0c9d 04       		.byte	0x4
 3866 0c9e 0B       		.uleb128 0xb
 3867 0c9f C9080000 		.4byte	.LASF240
 3868 0ca3 13       		.byte	0x13
 3869 0ca4 4D       		.byte	0x4d
 3870 0ca5 E5000000 		.4byte	0xe5
 3871 0ca9 08       		.byte	0x8
 3872 0caa 0B       		.uleb128 0xb
 3873 0cab B7120000 		.4byte	.LASF241
 3874 0caf 13       		.byte	0x13
 3875 0cb0 4E       		.byte	0x4e
 3876 0cb1 DA000000 		.4byte	0xda
ARM GAS  C:\Users\tmj32\AppData\Local\Temp\cch6Xcfo.s 			page 94


 3877 0cb5 09       		.byte	0x9
 3878 0cb6 1C       		.uleb128 0x1c
 3879 0cb7 F30D0000 		.4byte	.LASF242
 3880 0cbb 13       		.byte	0x13
 3881 0cbc 4F       		.byte	0x4f
 3882 0cbd E5000000 		.4byte	0xe5
 3883 0cc1 01       		.byte	0x1
 3884 0cc2 02       		.byte	0x2
 3885 0cc3 06       		.byte	0x6
 3886 0cc4 0A       		.byte	0xa
 3887 0cc5 16       		.uleb128 0x16
 3888 0cc6 64736300 		.ascii	"dsc\000"
 3889 0cca 13       		.byte	0x13
 3890 0ccb 50       		.byte	0x50
 3891 0ccc B4000000 		.4byte	0xb4
 3892 0cd0 0C       		.byte	0xc
 3893 0cd1 00       		.byte	0
 3894 0cd2 11       		.uleb128 0x11
 3895 0cd3 4B050000 		.4byte	0x54b
 3896 0cd7 F00C0000 		.4byte	0xcf0
 3897 0cdb 10       		.uleb128 0x10
 3898 0cdc F00C0000 		.4byte	0xcf0
 3899 0ce0 10       		.uleb128 0x10
 3900 0ce1 FB0C0000 		.4byte	0xcfb
 3901 0ce5 10       		.uleb128 0x10
 3902 0ce6 11010000 		.4byte	0x111
 3903 0cea 10       		.uleb128 0x10
 3904 0ceb 11010000 		.4byte	0x111
 3905 0cef 00       		.byte	0
 3906 0cf0 06       		.uleb128 0x6
 3907 0cf1 04       		.byte	0x4
 3908 0cf2 F60C0000 		.4byte	0xcf6
 3909 0cf6 1B       		.uleb128 0x1b
 3910 0cf7 7A0C0000 		.4byte	0xc7a
 3911 0cfb 06       		.uleb128 0x6
 3912 0cfc 04       		.byte	0x4
 3913 0cfd 6F0C0000 		.4byte	0xc6f
 3914 0d01 06       		.uleb128 0x6
 3915 0d02 04       		.byte	0x4
 3916 0d03 D20C0000 		.4byte	0xcd2
 3917 0d07 11       		.uleb128 0x11
 3918 0d08 1B0D0000 		.4byte	0xd1b
 3919 0d0c 1B0D0000 		.4byte	0xd1b
 3920 0d10 10       		.uleb128 0x10
 3921 0d11 F00C0000 		.4byte	0xcf0
 3922 0d15 10       		.uleb128 0x10
 3923 0d16 11010000 		.4byte	0x111
 3924 0d1a 00       		.byte	0
 3925 0d1b 06       		.uleb128 0x6
 3926 0d1c 04       		.byte	0x4
 3927 0d1d 210D0000 		.4byte	0xd21
 3928 0d21 1B       		.uleb128 0x1b
 3929 0d22 E5000000 		.4byte	0xe5
 3930 0d26 06       		.uleb128 0x6
 3931 0d27 04       		.byte	0x4
 3932 0d28 070D0000 		.4byte	0xd07
 3933 0d2c 02       		.uleb128 0x2
ARM GAS  C:\Users\tmj32\AppData\Local\Temp\cch6Xcfo.s 			page 95


 3934 0d2d 940F0000 		.4byte	.LASF243
 3935 0d31 13       		.byte	0x13
 3936 0d32 56       		.byte	0x56
 3937 0d33 7A0C0000 		.4byte	0xc7a
 3938 0d37 1E       		.uleb128 0x1e
 3939 0d38 01       		.byte	0x1
 3940 0d39 42000000 		.4byte	0x42
 3941 0d3d 14       		.byte	0x14
 3942 0d3e 23       		.byte	0x23
 3943 0d3f 500D0000 		.4byte	0xd50
 3944 0d43 0D       		.uleb128 0xd
 3945 0d44 C1120000 		.4byte	.LASF244
 3946 0d48 00       		.byte	0
 3947 0d49 0D       		.uleb128 0xd
 3948 0d4a 940D0000 		.4byte	.LASF245
 3949 0d4e 01       		.byte	0x1
 3950 0d4f 00       		.byte	0
 3951 0d50 02       		.uleb128 0x2
 3952 0d51 FD120000 		.4byte	.LASF246
 3953 0d55 14       		.byte	0x14
 3954 0d56 28       		.byte	0x28
 3955 0d57 E5000000 		.4byte	0xe5
 3956 0d5b 02       		.uleb128 0x2
 3957 0d5c 63110000 		.4byte	.LASF247
 3958 0d60 15       		.byte	0x15
 3959 0d61 2C       		.byte	0x2c
 3960 0d62 E5000000 		.4byte	0xe5
 3961 0d66 02       		.uleb128 0x2
 3962 0d67 F80A0000 		.4byte	.LASF248
 3963 0d6b 15       		.byte	0x15
 3964 0d6c 33       		.byte	0x33
 3965 0d6d E5000000 		.4byte	0xe5
 3966 0d71 0A       		.uleb128 0xa
 3967 0d72 08       		.byte	0x8
 3968 0d73 15       		.byte	0x15
 3969 0d74 48       		.byte	0x48
 3970 0d75 AA0D0000 		.4byte	0xdaa
 3971 0d79 0B       		.uleb128 0xb
 3972 0d7a 38070000 		.4byte	.LASF249
 3973 0d7e 15       		.byte	0x15
 3974 0d7f 4A       		.byte	0x4a
 3975 0d80 730A0000 		.4byte	0xa73
 3976 0d84 00       		.byte	0
 3977 0d85 0B       		.uleb128 0xb
 3978 0d86 A5070000 		.4byte	.LASF250
 3979 0d8a 15       		.byte	0x15
 3980 0d8b 4B       		.byte	0x4b
 3981 0d8c B2090000 		.4byte	0x9b2
 3982 0d90 04       		.byte	0x4
 3983 0d91 0B       		.uleb128 0xb
 3984 0d92 3D060000 		.4byte	.LASF251
 3985 0d96 15       		.byte	0x15
 3986 0d97 4C       		.byte	0x4c
 3987 0d98 5B0D0000 		.4byte	0xd5b
 3988 0d9c 06       		.byte	0x6
 3989 0d9d 16       		.uleb128 0x16
 3990 0d9e 6F706100 		.ascii	"opa\000"
ARM GAS  C:\Users\tmj32\AppData\Local\Temp\cch6Xcfo.s 			page 96


 3991 0da2 15       		.byte	0x15
 3992 0da3 4D       		.byte	0x4d
 3993 0da4 7F0A0000 		.4byte	0xa7f
 3994 0da8 07       		.byte	0x7
 3995 0da9 00       		.byte	0
 3996 0daa 0A       		.uleb128 0xa
 3997 0dab 08       		.byte	0x8
 3998 0dac 15       		.byte	0x15
 3999 0dad 51       		.byte	0x51
 4000 0dae D70D0000 		.4byte	0xdd7
 4001 0db2 0B       		.uleb128 0xb
 4002 0db3 38070000 		.4byte	.LASF249
 4003 0db7 15       		.byte	0x15
 4004 0db8 53       		.byte	0x53
 4005 0db9 730A0000 		.4byte	0xa73
 4006 0dbd 00       		.byte	0
 4007 0dbe 0B       		.uleb128 0xb
 4008 0dbf A5070000 		.4byte	.LASF250
 4009 0dc3 15       		.byte	0x15
 4010 0dc4 54       		.byte	0x54
 4011 0dc5 B2090000 		.4byte	0x9b2
 4012 0dc9 04       		.byte	0x4
 4013 0dca 0B       		.uleb128 0xb
 4014 0dcb A10A0000 		.4byte	.LASF252
 4015 0dcf 15       		.byte	0x15
 4016 0dd0 55       		.byte	0x55
 4017 0dd1 660D0000 		.4byte	0xd66
 4018 0dd5 06       		.byte	0x6
 4019 0dd6 00       		.byte	0
 4020 0dd7 0A       		.uleb128 0xa
 4021 0dd8 0A       		.byte	0xa
 4022 0dd9 15       		.byte	0x15
 4023 0dda 58       		.byte	0x58
 4024 0ddb 1C0E0000 		.4byte	0xe1c
 4025 0ddf 16       		.uleb128 0x16
 4026 0de0 746F7000 		.ascii	"top\000"
 4027 0de4 15       		.byte	0x15
 4028 0de5 5A       		.byte	0x5a
 4029 0de6 B2090000 		.4byte	0x9b2
 4030 0dea 00       		.byte	0
 4031 0deb 0B       		.uleb128 0xb
 4032 0dec 030A0000 		.4byte	.LASF253
 4033 0df0 15       		.byte	0x15
 4034 0df1 5B       		.byte	0x5b
 4035 0df2 B2090000 		.4byte	0x9b2
 4036 0df6 02       		.byte	0x2
 4037 0df7 0B       		.uleb128 0xb
 4038 0df8 74110000 		.4byte	.LASF254
 4039 0dfc 15       		.byte	0x15
 4040 0dfd 5C       		.byte	0x5c
 4041 0dfe B2090000 		.4byte	0x9b2
 4042 0e02 04       		.byte	0x4
 4043 0e03 0B       		.uleb128 0xb
 4044 0e04 360B0000 		.4byte	.LASF255
 4045 0e08 15       		.byte	0x15
 4046 0e09 5D       		.byte	0x5d
 4047 0e0a B2090000 		.4byte	0x9b2
ARM GAS  C:\Users\tmj32\AppData\Local\Temp\cch6Xcfo.s 			page 97


 4048 0e0e 06       		.byte	0x6
 4049 0e0f 0B       		.uleb128 0xb
 4050 0e10 DF040000 		.4byte	.LASF256
 4051 0e14 15       		.byte	0x15
 4052 0e15 5E       		.byte	0x5e
 4053 0e16 B2090000 		.4byte	0x9b2
 4054 0e1a 08       		.byte	0x8
 4055 0e1b 00       		.byte	0
 4056 0e1c 0A       		.uleb128 0xa
 4057 0e1d 28       		.byte	0x28
 4058 0e1e 15       		.byte	0x15
 4059 0e1f 41       		.byte	0x41
 4060 0e20 790E0000 		.4byte	0xe79
 4061 0e24 0B       		.uleb128 0xb
 4062 0e25 C00F0000 		.4byte	.LASF257
 4063 0e29 15       		.byte	0x15
 4064 0e2a 43       		.byte	0x43
 4065 0e2b 730A0000 		.4byte	0xa73
 4066 0e2f 00       		.byte	0
 4067 0e30 0B       		.uleb128 0xb
 4068 0e31 33090000 		.4byte	.LASF258
 4069 0e35 15       		.byte	0x15
 4070 0e36 44       		.byte	0x44
 4071 0e37 730A0000 		.4byte	0xa73
 4072 0e3b 04       		.byte	0x4
 4073 0e3c 0B       		.uleb128 0xb
 4074 0e3d CD120000 		.4byte	.LASF259
 4075 0e41 15       		.byte	0x15
 4076 0e42 45       		.byte	0x45
 4077 0e43 B2090000 		.4byte	0x9b2
 4078 0e47 08       		.byte	0x8
 4079 0e48 16       		.uleb128 0x16
 4080 0e49 6F706100 		.ascii	"opa\000"
 4081 0e4d 15       		.byte	0x15
 4082 0e4e 46       		.byte	0x46
 4083 0e4f 7F0A0000 		.4byte	0xa7f
 4084 0e53 0A       		.byte	0xa
 4085 0e54 0B       		.uleb128 0xb
 4086 0e55 F4100000 		.4byte	.LASF260
 4087 0e59 15       		.byte	0x15
 4088 0e5a 4E       		.byte	0x4e
 4089 0e5b 710D0000 		.4byte	0xd71
 4090 0e5f 0C       		.byte	0xc
 4091 0e60 0B       		.uleb128 0xb
 4092 0e61 040E0000 		.4byte	.LASF261
 4093 0e65 15       		.byte	0x15
 4094 0e66 56       		.byte	0x56
 4095 0e67 AA0D0000 		.4byte	0xdaa
 4096 0e6b 14       		.byte	0x14
 4097 0e6c 0B       		.uleb128 0xb
 4098 0e6d BD0B0000 		.4byte	.LASF262
 4099 0e71 15       		.byte	0x15
 4100 0e72 5F       		.byte	0x5f
 4101 0e73 D70D0000 		.4byte	0xdd7
 4102 0e77 1C       		.byte	0x1c
 4103 0e78 00       		.byte	0
 4104 0e79 0A       		.uleb128 0xa
ARM GAS  C:\Users\tmj32\AppData\Local\Temp\cch6Xcfo.s 			page 98


 4105 0e7a 14       		.byte	0x14
 4106 0e7b 15       		.byte	0x15
 4107 0e7c 63       		.byte	0x63
 4108 0e7d CA0E0000 		.4byte	0xeca
 4109 0e81 0B       		.uleb128 0xb
 4110 0e82 38070000 		.4byte	.LASF249
 4111 0e86 15       		.byte	0x15
 4112 0e87 65       		.byte	0x65
 4113 0e88 730A0000 		.4byte	0xa73
 4114 0e8c 00       		.byte	0
 4115 0e8d 0B       		.uleb128 0xb
 4116 0e8e 77050000 		.4byte	.LASF263
 4117 0e92 15       		.byte	0x15
 4118 0e93 66       		.byte	0x66
 4119 0e94 730A0000 		.4byte	0xa73
 4120 0e98 04       		.byte	0x4
 4121 0e99 0B       		.uleb128 0xb
 4122 0e9a 85020000 		.4byte	.LASF264
 4123 0e9e 15       		.byte	0x15
 4124 0e9f 67       		.byte	0x67
 4125 0ea0 CA0E0000 		.4byte	0xeca
 4126 0ea4 08       		.byte	0x8
 4127 0ea5 0B       		.uleb128 0xb
 4128 0ea6 9E0F0000 		.4byte	.LASF265
 4129 0eaa 15       		.byte	0x15
 4130 0eab 68       		.byte	0x68
 4131 0eac B2090000 		.4byte	0x9b2
 4132 0eb0 0C       		.byte	0xc
 4133 0eb1 0B       		.uleb128 0xb
 4134 0eb2 CE110000 		.4byte	.LASF266
 4135 0eb6 15       		.byte	0x15
 4136 0eb7 69       		.byte	0x69
 4137 0eb8 B2090000 		.4byte	0x9b2
 4138 0ebc 0E       		.byte	0xe
 4139 0ebd 16       		.uleb128 0x16
 4140 0ebe 6F706100 		.ascii	"opa\000"
 4141 0ec2 15       		.byte	0x15
 4142 0ec3 6A       		.byte	0x6a
 4143 0ec4 7F0A0000 		.4byte	0xa7f
 4144 0ec8 10       		.byte	0x10
 4145 0ec9 00       		.byte	0
 4146 0eca 06       		.uleb128 0x6
 4147 0ecb 04       		.byte	0x4
 4148 0ecc D00E0000 		.4byte	0xed0
 4149 0ed0 1B       		.uleb128 0x1b
 4150 0ed1 2C0D0000 		.4byte	0xd2c
 4151 0ed5 0A       		.uleb128 0xa
 4152 0ed6 08       		.byte	0x8
 4153 0ed7 15       		.byte	0x15
 4154 0ed8 6E       		.byte	0x6e
 4155 0ed9 020F0000 		.4byte	0xf02
 4156 0edd 0B       		.uleb128 0xb
 4157 0ede 38070000 		.4byte	.LASF249
 4158 0ee2 15       		.byte	0x15
 4159 0ee3 70       		.byte	0x70
 4160 0ee4 730A0000 		.4byte	0xa73
 4161 0ee8 00       		.byte	0
ARM GAS  C:\Users\tmj32\AppData\Local\Temp\cch6Xcfo.s 			page 99


 4162 0ee9 0B       		.uleb128 0xb
 4163 0eea 79110000 		.4byte	.LASF267
 4164 0eee 15       		.byte	0x15
 4165 0eef 71       		.byte	0x71
 4166 0ef0 7F0A0000 		.4byte	0xa7f
 4167 0ef4 04       		.byte	0x4
 4168 0ef5 16       		.uleb128 0x16
 4169 0ef6 6F706100 		.ascii	"opa\000"
 4170 0efa 15       		.byte	0x15
 4171 0efb 72       		.byte	0x72
 4172 0efc 7F0A0000 		.4byte	0xa7f
 4173 0f00 05       		.byte	0x5
 4174 0f01 00       		.byte	0
 4175 0f02 0A       		.uleb128 0xa
 4176 0f03 08       		.byte	0x8
 4177 0f04 15       		.byte	0x15
 4178 0f05 76       		.byte	0x76
 4179 0f06 3E0F0000 		.4byte	0xf3e
 4180 0f0a 0B       		.uleb128 0xb
 4181 0f0b 38070000 		.4byte	.LASF249
 4182 0f0f 15       		.byte	0x15
 4183 0f10 78       		.byte	0x78
 4184 0f11 730A0000 		.4byte	0xa73
 4185 0f15 00       		.byte	0
 4186 0f16 0B       		.uleb128 0xb
 4187 0f17 A5070000 		.4byte	.LASF250
 4188 0f1b 15       		.byte	0x15
 4189 0f1c 79       		.byte	0x79
 4190 0f1d B2090000 		.4byte	0x9b2
 4191 0f21 04       		.byte	0x4
 4192 0f22 16       		.uleb128 0x16
 4193 0f23 6F706100 		.ascii	"opa\000"
 4194 0f27 15       		.byte	0x15
 4195 0f28 7A       		.byte	0x7a
 4196 0f29 7F0A0000 		.4byte	0xa7f
 4197 0f2d 06       		.byte	0x6
 4198 0f2e 1C       		.uleb128 0x1c
 4199 0f2f 5D070000 		.4byte	.LASF268
 4200 0f33 15       		.byte	0x15
 4201 0f34 7B       		.byte	0x7b
 4202 0f35 E5000000 		.4byte	0xe5
 4203 0f39 01       		.byte	0x1
 4204 0f3a 01       		.byte	0x1
 4205 0f3b 07       		.byte	0x7
 4206 0f3c 07       		.byte	0x7
 4207 0f3d 00       		.byte	0
 4208 0f3e 0A       		.uleb128 0xa
 4209 0f3f 50       		.byte	0x50
 4210 0f40 15       		.byte	0x15
 4211 0f41 3C       		.byte	0x3c
 4212 0f42 860F0000 		.4byte	0xf86
 4213 0f46 1C       		.uleb128 0x1c
 4214 0f47 20170000 		.4byte	.LASF269
 4215 0f4b 15       		.byte	0x15
 4216 0f4c 3E       		.byte	0x3e
 4217 0f4d E5000000 		.4byte	0xe5
 4218 0f51 01       		.byte	0x1
ARM GAS  C:\Users\tmj32\AppData\Local\Temp\cch6Xcfo.s 			page 100


 4219 0f52 01       		.byte	0x1
 4220 0f53 07       		.byte	0x7
 4221 0f54 00       		.byte	0
 4222 0f55 0B       		.uleb128 0xb
 4223 0f56 DE120000 		.4byte	.LASF270
 4224 0f5a 15       		.byte	0x15
 4225 0f5b 60       		.byte	0x60
 4226 0f5c 1C0E0000 		.4byte	0xe1c
 4227 0f60 04       		.byte	0x4
 4228 0f61 0B       		.uleb128 0xb
 4229 0f62 960B0000 		.4byte	.LASF271
 4230 0f66 15       		.byte	0x15
 4231 0f67 6B       		.byte	0x6b
 4232 0f68 790E0000 		.4byte	0xe79
 4233 0f6c 2C       		.byte	0x2c
 4234 0f6d 0B       		.uleb128 0xb
 4235 0f6e 1A040000 		.4byte	.LASF272
 4236 0f72 15       		.byte	0x15
 4237 0f73 73       		.byte	0x73
 4238 0f74 D50E0000 		.4byte	0xed5
 4239 0f78 40       		.byte	0x40
 4240 0f79 0B       		.uleb128 0xb
 4241 0f7a 6C130000 		.4byte	.LASF273
 4242 0f7e 15       		.byte	0x15
 4243 0f7f 7C       		.byte	0x7c
 4244 0f80 020F0000 		.4byte	0xf02
 4245 0f84 48       		.byte	0x48
 4246 0f85 00       		.byte	0
 4247 0f86 02       		.uleb128 0x2
 4248 0f87 E1010000 		.4byte	.LASF274
 4249 0f8b 15       		.byte	0x15
 4250 0f8c 84       		.byte	0x84
 4251 0f8d 3E0F0000 		.4byte	0xf3e
 4252 0f91 02       		.uleb128 0x2
 4253 0f92 5B0C0000 		.4byte	.LASF275
 4254 0f96 16       		.byte	0x16
 4255 0f97 30       		.byte	0x30
 4256 0f98 E5000000 		.4byte	0xe5
 4257 0f9c 02       		.uleb128 0x2
 4258 0f9d F8130000 		.4byte	.LASF276
 4259 0fa1 12       		.byte	0x12
 4260 0fa2 42       		.byte	0x42
 4261 0fa3 E5000000 		.4byte	0xe5
 4262 0fa7 02       		.uleb128 0x2
 4263 0fa8 43020000 		.4byte	.LASF277
 4264 0fac 12       		.byte	0x12
 4265 0fad 48       		.byte	0x48
 4266 0fae B20F0000 		.4byte	0xfb2
 4267 0fb2 06       		.uleb128 0x6
 4268 0fb3 04       		.byte	0x4
 4269 0fb4 B80F0000 		.4byte	0xfb8
 4270 0fb8 11       		.uleb128 0x11
 4271 0fb9 4B050000 		.4byte	0x54b
 4272 0fbd D10F0000 		.4byte	0xfd1
 4273 0fc1 10       		.uleb128 0x10
 4274 0fc2 180C0000 		.4byte	0xc18
 4275 0fc6 10       		.uleb128 0x10
ARM GAS  C:\Users\tmj32\AppData\Local\Temp\cch6Xcfo.s 			page 101


 4276 0fc7 CB0A0000 		.4byte	0xacb
 4277 0fcb 10       		.uleb128 0x10
 4278 0fcc 9C0F0000 		.4byte	0xf9c
 4279 0fd0 00       		.byte	0
 4280 0fd1 1E       		.uleb128 0x1e
 4281 0fd2 01       		.byte	0x1
 4282 0fd3 42000000 		.4byte	0x42
 4283 0fd7 12       		.byte	0x12
 4284 0fd8 4A       		.byte	0x4a
 4285 0fd9 56100000 		.4byte	0x1056
 4286 0fdd 0D       		.uleb128 0xd
 4287 0fde 77080000 		.4byte	.LASF278
 4288 0fe2 00       		.byte	0
 4289 0fe3 0D       		.uleb128 0xd
 4290 0fe4 FB100000 		.4byte	.LASF279
 4291 0fe8 01       		.byte	0x1
 4292 0fe9 0D       		.uleb128 0xd
 4293 0fea 10080000 		.4byte	.LASF280
 4294 0fee 02       		.byte	0x2
 4295 0fef 0D       		.uleb128 0xd
 4296 0ff0 32160000 		.4byte	.LASF281
 4297 0ff4 03       		.byte	0x3
 4298 0ff5 0D       		.uleb128 0xd
 4299 0ff6 57170000 		.4byte	.LASF282
 4300 0ffa 04       		.byte	0x4
 4301 0ffb 0D       		.uleb128 0xd
 4302 0ffc 5B150000 		.4byte	.LASF283
 4303 1000 05       		.byte	0x5
 4304 1001 0D       		.uleb128 0xd
 4305 1002 350E0000 		.4byte	.LASF284
 4306 1006 06       		.byte	0x6
 4307 1007 0D       		.uleb128 0xd
 4308 1008 DD0F0000 		.4byte	.LASF285
 4309 100c 07       		.byte	0x7
 4310 100d 0D       		.uleb128 0xd
 4311 100e 3C0D0000 		.4byte	.LASF286
 4312 1012 08       		.byte	0x8
 4313 1013 0D       		.uleb128 0xd
 4314 1014 C2020000 		.4byte	.LASF287
 4315 1018 09       		.byte	0x9
 4316 1019 0D       		.uleb128 0xd
 4317 101a 39130000 		.4byte	.LASF288
 4318 101e 0A       		.byte	0xa
 4319 101f 0D       		.uleb128 0xd
 4320 1020 82030000 		.4byte	.LASF289
 4321 1024 0B       		.byte	0xb
 4322 1025 0D       		.uleb128 0xd
 4323 1026 F0110000 		.4byte	.LASF290
 4324 102a 0C       		.byte	0xc
 4325 102b 0D       		.uleb128 0xd
 4326 102c 290D0000 		.4byte	.LASF291
 4327 1030 0D       		.byte	0xd
 4328 1031 0D       		.uleb128 0xd
 4329 1032 0A010000 		.4byte	.LASF292
 4330 1036 0E       		.byte	0xe
 4331 1037 0D       		.uleb128 0xd
 4332 1038 33050000 		.4byte	.LASF293
ARM GAS  C:\Users\tmj32\AppData\Local\Temp\cch6Xcfo.s 			page 102


 4333 103c 0F       		.byte	0xf
 4334 103d 0D       		.uleb128 0xd
 4335 103e 49010000 		.4byte	.LASF294
 4336 1042 10       		.byte	0x10
 4337 1043 0D       		.uleb128 0xd
 4338 1044 A2020000 		.4byte	.LASF295
 4339 1048 11       		.byte	0x11
 4340 1049 0D       		.uleb128 0xd
 4341 104a DD0A0000 		.4byte	.LASF296
 4342 104e 12       		.byte	0x12
 4343 104f 0D       		.uleb128 0xd
 4344 1050 E0070000 		.4byte	.LASF297
 4345 1054 13       		.byte	0x13
 4346 1055 00       		.byte	0
 4347 1056 02       		.uleb128 0x2
 4348 1057 690C0000 		.4byte	.LASF298
 4349 105b 12       		.byte	0x12
 4350 105c 61       		.byte	0x61
 4351 105d E5000000 		.4byte	0xe5
 4352 1061 02       		.uleb128 0x2
 4353 1062 6D170000 		.4byte	.LASF299
 4354 1066 12       		.byte	0x12
 4355 1067 68       		.byte	0x68
 4356 1068 6C100000 		.4byte	0x106c
 4357 106c 06       		.uleb128 0x6
 4358 106d 04       		.byte	0x4
 4359 106e 72100000 		.4byte	0x1072
 4360 1072 0F       		.uleb128 0xf
 4361 1073 82100000 		.4byte	0x1082
 4362 1077 10       		.uleb128 0x10
 4363 1078 180C0000 		.4byte	0xc18
 4364 107c 10       		.uleb128 0x10
 4365 107d 56100000 		.4byte	0x1056
 4366 1081 00       		.byte	0
 4367 1082 02       		.uleb128 0x2
 4368 1083 E3120000 		.4byte	.LASF300
 4369 1087 12       		.byte	0x12
 4370 1088 88       		.byte	0x88
 4371 1089 E5000000 		.4byte	0xe5
 4372 108d 02       		.uleb128 0x2
 4373 108e 1A060000 		.4byte	.LASF301
 4374 1092 12       		.byte	0x12
 4375 1093 8A       		.byte	0x8a
 4376 1094 98100000 		.4byte	0x1098
 4377 1098 06       		.uleb128 0x6
 4378 1099 04       		.byte	0x4
 4379 109a 9E100000 		.4byte	0x109e
 4380 109e 11       		.uleb128 0x11
 4381 109f BD090000 		.4byte	0x9bd
 4382 10a3 B7100000 		.4byte	0x10b7
 4383 10a7 10       		.uleb128 0x10
 4384 10a8 180C0000 		.4byte	0xc18
 4385 10ac 10       		.uleb128 0x10
 4386 10ad 82100000 		.4byte	0x1082
 4387 10b1 10       		.uleb128 0x10
 4388 10b2 B4000000 		.4byte	0xb4
 4389 10b6 00       		.byte	0
ARM GAS  C:\Users\tmj32\AppData\Local\Temp\cch6Xcfo.s 			page 103


 4390 10b7 1E       		.uleb128 0x1e
 4391 10b8 01       		.byte	0x1
 4392 10b9 42000000 		.4byte	0x42
 4393 10bd 12       		.byte	0x12
 4394 10be 8D       		.byte	0x8d
 4395 10bf 42110000 		.4byte	0x1142
 4396 10c3 0D       		.uleb128 0xd
 4397 10c4 82010000 		.4byte	.LASF302
 4398 10c8 00       		.byte	0
 4399 10c9 0D       		.uleb128 0xd
 4400 10ca 42170000 		.4byte	.LASF303
 4401 10ce 01       		.byte	0x1
 4402 10cf 0D       		.uleb128 0xd
 4403 10d0 EF0F0000 		.4byte	.LASF304
 4404 10d4 02       		.byte	0x2
 4405 10d5 0D       		.uleb128 0xd
 4406 10d6 A1120000 		.4byte	.LASF305
 4407 10da 03       		.byte	0x3
 4408 10db 0D       		.uleb128 0xd
 4409 10dc 89120000 		.4byte	.LASF306
 4410 10e0 04       		.byte	0x4
 4411 10e1 0D       		.uleb128 0xd
 4412 10e2 F00C0000 		.4byte	.LASF307
 4413 10e6 05       		.byte	0x5
 4414 10e7 0D       		.uleb128 0xd
 4415 10e8 790A0000 		.4byte	.LASF308
 4416 10ec 06       		.byte	0x6
 4417 10ed 0D       		.uleb128 0xd
 4418 10ee 1F020000 		.4byte	.LASF309
 4419 10f2 07       		.byte	0x7
 4420 10f3 0D       		.uleb128 0xd
 4421 10f4 BD0D0000 		.4byte	.LASF310
 4422 10f8 08       		.byte	0x8
 4423 10f9 0D       		.uleb128 0xd
 4424 10fa EB0E0000 		.4byte	.LASF311
 4425 10fe 09       		.byte	0x9
 4426 10ff 0D       		.uleb128 0xd
 4427 1100 38100000 		.4byte	.LASF312
 4428 1104 0A       		.byte	0xa
 4429 1105 0D       		.uleb128 0xd
 4430 1106 87130000 		.4byte	.LASF313
 4431 110a 0B       		.byte	0xb
 4432 110b 0D       		.uleb128 0xd
 4433 110c 60020000 		.4byte	.LASF314
 4434 1110 0C       		.byte	0xc
 4435 1111 0D       		.uleb128 0xd
 4436 1112 ED060000 		.4byte	.LASF315
 4437 1116 0D       		.byte	0xd
 4438 1117 0D       		.uleb128 0xd
 4439 1118 57050000 		.4byte	.LASF316
 4440 111c 0E       		.byte	0xe
 4441 111d 0D       		.uleb128 0xd
 4442 111e 750B0000 		.4byte	.LASF317
 4443 1122 0F       		.byte	0xf
 4444 1123 0D       		.uleb128 0xd
 4445 1124 65070000 		.4byte	.LASF318
 4446 1128 10       		.byte	0x10
ARM GAS  C:\Users\tmj32\AppData\Local\Temp\cch6Xcfo.s 			page 104


 4447 1129 0D       		.uleb128 0xd
 4448 112a 29150000 		.4byte	.LASF319
 4449 112e 11       		.byte	0x11
 4450 112f 0D       		.uleb128 0xd
 4451 1130 F6040000 		.4byte	.LASF320
 4452 1134 12       		.byte	0x12
 4453 1135 0D       		.uleb128 0xd
 4454 1136 18120000 		.4byte	.LASF321
 4455 113a 13       		.byte	0x13
 4456 113b 0D       		.uleb128 0xd
 4457 113c 42060000 		.4byte	.LASF322
 4458 1140 14       		.byte	0x14
 4459 1141 00       		.byte	0
 4460 1142 02       		.uleb128 0x2
 4461 1143 87050000 		.4byte	.LASF323
 4462 1147 12       		.byte	0x12
 4463 1148 A4       		.byte	0xa4
 4464 1149 E5000000 		.4byte	0xe5
 4465 114d 0A       		.uleb128 0xa
 4466 114e 0C       		.byte	0xc
 4467 114f 12       		.byte	0x12
 4468 1150 A7       		.byte	0xa7
 4469 1151 A4110000 		.4byte	0x11a4
 4470 1155 0B       		.uleb128 0xb
 4471 1156 A4050000 		.4byte	.LASF324
 4472 115a 12       		.byte	0x12
 4473 115b A9       		.byte	0xa9
 4474 115c A4110000 		.4byte	0x11a4
 4475 1160 00       		.byte	0
 4476 1161 0B       		.uleb128 0xb
 4477 1162 0F0C0000 		.4byte	.LASF325
 4478 1166 12       		.byte	0x12
 4479 1167 AA       		.byte	0xaa
 4480 1168 B2090000 		.4byte	0x9b2
 4481 116c 04       		.byte	0x4
 4482 116d 0B       		.uleb128 0xb
 4483 116e 34020000 		.4byte	.LASF326
 4484 1172 12       		.byte	0x12
 4485 1173 AB       		.byte	0xab
 4486 1174 B2090000 		.4byte	0x9b2
 4487 1178 06       		.byte	0x6
 4488 1179 0B       		.uleb128 0xb
 4489 117a 0F170000 		.4byte	.LASF327
 4490 117e 12       		.byte	0x12
 4491 117f AC       		.byte	0xac
 4492 1180 42110000 		.4byte	0x1142
 4493 1184 08       		.byte	0x8
 4494 1185 1C       		.uleb128 0x1c
 4495 1186 9B0B0000 		.4byte	.LASF328
 4496 118a 12       		.byte	0x12
 4497 118b AD       		.byte	0xad
 4498 118c E5000000 		.4byte	0xe5
 4499 1190 01       		.byte	0x1
 4500 1191 01       		.byte	0x1
 4501 1192 07       		.byte	0x7
 4502 1193 09       		.byte	0x9
 4503 1194 1C       		.uleb128 0x1c
ARM GAS  C:\Users\tmj32\AppData\Local\Temp\cch6Xcfo.s 			page 105


 4504 1195 980C0000 		.4byte	.LASF329
 4505 1199 12       		.byte	0x12
 4506 119a AE       		.byte	0xae
 4507 119b E5000000 		.4byte	0xe5
 4508 119f 01       		.byte	0x1
 4509 11a0 01       		.byte	0x1
 4510 11a1 06       		.byte	0x6
 4511 11a2 09       		.byte	0x9
 4512 11a3 00       		.byte	0
 4513 11a4 06       		.uleb128 0x6
 4514 11a5 04       		.byte	0x4
 4515 11a6 AA110000 		.4byte	0x11aa
 4516 11aa 1B       		.uleb128 0x1b
 4517 11ab D60A0000 		.4byte	0xad6
 4518 11af 02       		.uleb128 0x2
 4519 11b0 88170000 		.4byte	.LASF330
 4520 11b4 12       		.byte	0x12
 4521 11b5 B0       		.byte	0xb0
 4522 11b6 4D110000 		.4byte	0x114d
 4523 11ba 02       		.uleb128 0x2
 4524 11bb E20C0000 		.4byte	.LASF331
 4525 11bf 12       		.byte	0x12
 4526 11c0 B9       		.byte	0xb9
 4527 11c1 E5000000 		.4byte	0xe5
 4528 11c5 06       		.uleb128 0x6
 4529 11c6 04       		.byte	0x4
 4530 11c7 CB110000 		.4byte	0x11cb
 4531 11cb 1B       		.uleb128 0x1b
 4532 11cc 860F0000 		.4byte	0xf86
 4533 11d0 02       		.uleb128 0x2
 4534 11d1 FB030000 		.4byte	.LASF332
 4535 11d5 12       		.byte	0x12
 4536 11d6 F0       		.byte	0xf0
 4537 11d7 D60A0000 		.4byte	0xad6
 4538 11db 1E       		.uleb128 0x1e
 4539 11dc 01       		.byte	0x1
 4540 11dd 42000000 		.4byte	0x42
 4541 11e1 17       		.byte	0x17
 4542 11e2 2A       		.byte	0x2a
 4543 11e3 0C120000 		.4byte	0x120c
 4544 11e7 0D       		.uleb128 0xd
 4545 11e8 A0110000 		.4byte	.LASF333
 4546 11ec 00       		.byte	0
 4547 11ed 0D       		.uleb128 0xd
 4548 11ee AB030000 		.4byte	.LASF334
 4549 11f2 01       		.byte	0x1
 4550 11f3 0D       		.uleb128 0xd
 4551 11f4 1D160000 		.4byte	.LASF335
 4552 11f8 02       		.byte	0x2
 4553 11f9 0D       		.uleb128 0xd
 4554 11fa 93080000 		.4byte	.LASF336
 4555 11fe 03       		.byte	0x3
 4556 11ff 0D       		.uleb128 0xd
 4557 1200 D9110000 		.4byte	.LASF337
 4558 1204 04       		.byte	0x4
 4559 1205 0D       		.uleb128 0xd
 4560 1206 79100000 		.4byte	.LASF338
ARM GAS  C:\Users\tmj32\AppData\Local\Temp\cch6Xcfo.s 			page 106


 4561 120a 05       		.byte	0x5
 4562 120b 00       		.byte	0
 4563 120c 1E       		.uleb128 0x1e
 4564 120d 01       		.byte	0x1
 4565 120e 42000000 		.4byte	0x42
 4566 1212 18       		.byte	0x18
 4567 1213 2F       		.byte	0x2f
 4568 1214 3D120000 		.4byte	0x123d
 4569 1218 0D       		.uleb128 0xd
 4570 1219 62080000 		.4byte	.LASF339
 4571 121d 00       		.byte	0
 4572 121e 0D       		.uleb128 0xd
 4573 121f 170B0000 		.4byte	.LASF340
 4574 1223 01       		.byte	0x1
 4575 1224 0D       		.uleb128 0xd
 4576 1225 B6000000 		.4byte	.LASF341
 4577 1229 02       		.byte	0x2
 4578 122a 0D       		.uleb128 0xd
 4579 122b E7050000 		.4byte	.LASF342
 4580 122f 03       		.byte	0x3
 4581 1230 0D       		.uleb128 0xd
 4582 1231 E30B0000 		.4byte	.LASF343
 4583 1235 04       		.byte	0x4
 4584 1236 0D       		.uleb128 0xd
 4585 1237 20140000 		.4byte	.LASF344
 4586 123b 05       		.byte	0x5
 4587 123c 00       		.byte	0
 4588 123d 07       		.uleb128 0x7
 4589 123e C3000000 		.4byte	0xc3
 4590 1242 4D120000 		.4byte	0x124d
 4591 1246 08       		.uleb128 0x8
 4592 1247 B6000000 		.4byte	0xb6
 4593 124b 03       		.byte	0x3
 4594 124c 00       		.byte	0
 4595 124d 06       		.uleb128 0x6
 4596 124e 04       		.byte	0x4
 4597 124f D0110000 		.4byte	0x11d0
 4598 1253 1E       		.uleb128 0x1e
 4599 1254 01       		.byte	0x1
 4600 1255 42000000 		.4byte	0x42
 4601 1259 19       		.byte	0x19
 4602 125a 2D       		.byte	0x2d
 4603 125b 84120000 		.4byte	0x1284
 4604 125f 0D       		.uleb128 0xd
 4605 1260 DF130000 		.4byte	.LASF345
 4606 1264 00       		.byte	0
 4607 1265 0D       		.uleb128 0xd
 4608 1266 FD070000 		.4byte	.LASF346
 4609 126a 01       		.byte	0x1
 4610 126b 0D       		.uleb128 0xd
 4611 126c 5C090000 		.4byte	.LASF347
 4612 1270 02       		.byte	0x2
 4613 1271 0D       		.uleb128 0xd
 4614 1272 2B110000 		.4byte	.LASF348
 4615 1276 04       		.byte	0x4
 4616 1277 0D       		.uleb128 0xd
 4617 1278 78150000 		.4byte	.LASF349
ARM GAS  C:\Users\tmj32\AppData\Local\Temp\cch6Xcfo.s 			page 107


 4618 127c 08       		.byte	0x8
 4619 127d 0D       		.uleb128 0xd
 4620 127e 49160000 		.4byte	.LASF350
 4621 1282 10       		.byte	0x10
 4622 1283 00       		.byte	0
 4623 1284 0A       		.uleb128 0xa
 4624 1285 0C       		.byte	0xc
 4625 1286 19       		.byte	0x19
 4626 1287 3E       		.byte	0x3e
 4627 1288 B1120000 		.4byte	0x12b1
 4628 128c 0B       		.uleb128 0xb
 4629 128d 3B170000 		.4byte	.LASF351
 4630 1291 19       		.byte	0x19
 4631 1292 40       		.byte	0x40
 4632 1293 B1120000 		.4byte	0x12b1
 4633 1297 00       		.byte	0
 4634 1298 0B       		.uleb128 0xb
 4635 1299 38070000 		.4byte	.LASF249
 4636 129d 19       		.byte	0x19
 4637 129e 41       		.byte	0x41
 4638 129f 730A0000 		.4byte	0xa73
 4639 12a3 04       		.byte	0x4
 4640 12a4 0B       		.uleb128 0xb
 4641 12a5 57110000 		.4byte	.LASF352
 4642 12a9 19       		.byte	0x19
 4643 12aa 42       		.byte	0x42
 4644 12ab FB000000 		.4byte	0xfb
 4645 12af 08       		.byte	0x8
 4646 12b0 00       		.byte	0
 4647 12b1 06       		.uleb128 0x6
 4648 12b2 04       		.byte	0x4
 4649 12b3 B2090000 		.4byte	0x9b2
 4650 12b7 02       		.uleb128 0x2
 4651 12b8 D3100000 		.4byte	.LASF353
 4652 12bc 19       		.byte	0x19
 4653 12bd 43       		.byte	0x43
 4654 12be 84120000 		.4byte	0x1284
 4655 12c2 1E       		.uleb128 0x1e
 4656 12c3 01       		.byte	0x1
 4657 12c4 42000000 		.4byte	0x42
 4658 12c8 04       		.byte	0x4
 4659 12c9 2A       		.byte	0x2a
 4660 12ca DB120000 		.4byte	0x12db
 4661 12ce 0D       		.uleb128 0xd
 4662 12cf 890E0000 		.4byte	.LASF354
 4663 12d3 00       		.byte	0
 4664 12d4 0D       		.uleb128 0xd
 4665 12d5 8C070000 		.4byte	.LASF355
 4666 12d9 01       		.byte	0x1
 4667 12da 00       		.byte	0
 4668 12db 1F       		.uleb128 0x1f
 4669 12dc 090B0000 		.4byte	.LASF356
 4670 12e0 01       		.byte	0x1
 4671 12e1 DD01     		.2byte	0x1dd
 4672 12e3 730A0000 		.4byte	0xa73
 4673 12e7 00000000 		.4byte	.LFB588
 4674 12eb 38000000 		.4byte	.LFE588-.LFB588
ARM GAS  C:\Users\tmj32\AppData\Local\Temp\cch6Xcfo.s 			page 108


 4675 12ef 01       		.uleb128 0x1
 4676 12f0 9C       		.byte	0x9c
 4677 12f1 1D130000 		.4byte	0x131d
 4678 12f5 20       		.uleb128 0x20
 4679 12f6 7200     		.ascii	"r\000"
 4680 12f8 01       		.byte	0x1
 4681 12f9 DD01     		.2byte	0x1dd
 4682 12fb E5000000 		.4byte	0xe5
 4683 12ff 02       		.uleb128 0x2
 4684 1300 91       		.byte	0x91
 4685 1301 77       		.sleb128 -9
 4686 1302 20       		.uleb128 0x20
 4687 1303 6700     		.ascii	"g\000"
 4688 1305 01       		.byte	0x1
 4689 1306 DD01     		.2byte	0x1dd
 4690 1308 E5000000 		.4byte	0xe5
 4691 130c 02       		.uleb128 0x2
 4692 130d 91       		.byte	0x91
 4693 130e 76       		.sleb128 -10
 4694 130f 20       		.uleb128 0x20
 4695 1310 6200     		.ascii	"b\000"
 4696 1312 01       		.byte	0x1
 4697 1313 DD01     		.2byte	0x1dd
 4698 1315 E5000000 		.4byte	0xe5
 4699 1319 02       		.uleb128 0x2
 4700 131a 91       		.byte	0x91
 4701 131b 75       		.sleb128 -11
 4702 131c 00       		.byte	0
 4703 131d 21       		.uleb128 0x21
 4704 131e 26090000 		.4byte	.LASF357
 4705 1322 01       		.byte	0x1
 4706 1323 E201     		.2byte	0x1e2
 4707 1325 730A0000 		.4byte	0xa73
 4708 1329 00000000 		.4byte	.LFB589
 4709 132d 28000000 		.4byte	.LFE589-.LFB589
 4710 1331 01       		.uleb128 0x1
 4711 1332 9C       		.byte	0x9c
 4712 1333 45130000 		.4byte	0x1345
 4713 1337 20       		.uleb128 0x20
 4714 1338 6300     		.ascii	"c\000"
 4715 133a 01       		.byte	0x1
 4716 133b E201     		.2byte	0x1e2
 4717 133d 11010000 		.4byte	0x111
 4718 1341 02       		.uleb128 0x2
 4719 1342 91       		.byte	0x91
 4720 1343 74       		.sleb128 -12
 4721 1344 00       		.byte	0
 4722 1345 22       		.uleb128 0x22
 4723 1346 2B0B0000 		.4byte	.LASF415
 4724 134a 02       		.byte	0x2
 4725 134b 61       		.byte	0x61
 4726 134c 4D120000 		.4byte	0x124d
 4727 1350 00000000 		.4byte	.LFB613
 4728 1354 16000000 		.4byte	.LFE613-.LFB613
 4729 1358 01       		.uleb128 0x1
 4730 1359 9C       		.byte	0x9c
 4731 135a 23       		.uleb128 0x23
ARM GAS  C:\Users\tmj32\AppData\Local\Temp\cch6Xcfo.s 			page 109


 4732 135b F6080000 		.4byte	.LASF361
 4733 135f 03       		.byte	0x3
 4734 1360 4F       		.byte	0x4f
 4735 1361 00000000 		.4byte	.LFB668
 4736 1365 26000000 		.4byte	.LFE668-.LFB668
 4737 1369 01       		.uleb128 0x1
 4738 136a 9C       		.byte	0x9c
 4739 136b 9A130000 		.4byte	0x139a
 4740 136f 24       		.uleb128 0x24
 4741 1370 19070000 		.4byte	.LASF358
 4742 1374 03       		.byte	0x3
 4743 1375 4F       		.byte	0x4f
 4744 1376 4D120000 		.4byte	0x124d
 4745 137a 02       		.uleb128 0x2
 4746 137b 91       		.byte	0x91
 4747 137c 74       		.sleb128 -12
 4748 137d 24       		.uleb128 0x24
 4749 137e 13070000 		.4byte	.LASF359
 4750 1382 03       		.byte	0x3
 4751 1383 4F       		.byte	0x4f
 4752 1384 F0000000 		.4byte	0xf0
 4753 1388 02       		.uleb128 0x2
 4754 1389 91       		.byte	0x91
 4755 138a 72       		.sleb128 -14
 4756 138b 24       		.uleb128 0x24
 4757 138c 8F030000 		.4byte	.LASF360
 4758 1390 03       		.byte	0x3
 4759 1391 4F       		.byte	0x4f
 4760 1392 500D0000 		.4byte	0xd50
 4761 1396 02       		.uleb128 0x2
 4762 1397 91       		.byte	0x91
 4763 1398 71       		.sleb128 -15
 4764 1399 00       		.byte	0
 4765 139a 23       		.uleb128 0x23
 4766 139b 560F0000 		.4byte	.LASF362
 4767 139f 03       		.byte	0x3
 4768 13a0 5A       		.byte	0x5a
 4769 13a1 00000000 		.4byte	.LFB669
 4770 13a5 28000000 		.4byte	.LFE669-.LFB669
 4771 13a9 01       		.uleb128 0x1
 4772 13aa 9C       		.byte	0x9c
 4773 13ab DA130000 		.4byte	0x13da
 4774 13af 24       		.uleb128 0x24
 4775 13b0 19070000 		.4byte	.LASF358
 4776 13b4 03       		.byte	0x3
 4777 13b5 5A       		.byte	0x5a
 4778 13b6 4D120000 		.4byte	0x124d
 4779 13ba 02       		.uleb128 0x2
 4780 13bb 91       		.byte	0x91
 4781 13bc 74       		.sleb128 -12
 4782 13bd 25       		.uleb128 0x25
 4783 13be 6D696E00 		.ascii	"min\000"
 4784 13c2 03       		.byte	0x3
 4785 13c3 5A       		.byte	0x5a
 4786 13c4 F0000000 		.4byte	0xf0
 4787 13c8 02       		.uleb128 0x2
 4788 13c9 91       		.byte	0x91
ARM GAS  C:\Users\tmj32\AppData\Local\Temp\cch6Xcfo.s 			page 110


 4789 13ca 72       		.sleb128 -14
 4790 13cb 25       		.uleb128 0x25
 4791 13cc 6D617800 		.ascii	"max\000"
 4792 13d0 03       		.byte	0x3
 4793 13d1 5A       		.byte	0x5a
 4794 13d2 F0000000 		.4byte	0xf0
 4795 13d6 02       		.uleb128 0x2
 4796 13d7 91       		.byte	0x91
 4797 13d8 70       		.sleb128 -16
 4798 13d9 00       		.byte	0
 4799 13da 23       		.uleb128 0x23
 4800 13db 77000000 		.4byte	.LASF363
 4801 13df 04       		.byte	0x4
 4802 13e0 9B       		.byte	0x9b
 4803 13e1 00000000 		.4byte	.LFB687
 4804 13e5 22000000 		.4byte	.LFE687-.LFB687
 4805 13e9 01       		.uleb128 0x1
 4806 13ea 9C       		.byte	0x9c
 4807 13eb 1A140000 		.4byte	0x141a
 4808 13ef 24       		.uleb128 0x24
 4809 13f0 56100000 		.4byte	.LASF364
 4810 13f4 04       		.byte	0x4
 4811 13f5 9B       		.byte	0x9b
 4812 13f6 1A140000 		.4byte	0x141a
 4813 13fa 02       		.uleb128 0x2
 4814 13fb 91       		.byte	0x91
 4815 13fc 74       		.sleb128 -12
 4816 13fd 25       		.uleb128 0x25
 4817 13fe 62756600 		.ascii	"buf\000"
 4818 1402 04       		.byte	0x4
 4819 1403 9B       		.byte	0x9b
 4820 1404 BD000000 		.4byte	0xbd
 4821 1408 02       		.uleb128 0x2
 4822 1409 91       		.byte	0x91
 4823 140a 70       		.sleb128 -16
 4824 140b 24       		.uleb128 0x24
 4825 140c 2A050000 		.4byte	.LASF365
 4826 1410 04       		.byte	0x4
 4827 1411 9B       		.byte	0x9b
 4828 1412 FB000000 		.4byte	0xfb
 4829 1416 02       		.uleb128 0x2
 4830 1417 91       		.byte	0x91
 4831 1418 6E       		.sleb128 -18
 4832 1419 00       		.byte	0
 4833 141a 06       		.uleb128 0x6
 4834 141b 04       		.byte	0x4
 4835 141c 20140000 		.4byte	0x1420
 4836 1420 1B       		.uleb128 0x1b
 4837 1421 D0110000 		.4byte	0x11d0
 4838 1425 26       		.uleb128 0x26
 4839 1426 19150000 		.4byte	.LASF366
 4840 142a 05       		.byte	0x5
 4841 142b 81       		.byte	0x81
 4842 142c 4B050000 		.4byte	0x54b
 4843 1430 00000000 		.4byte	.LFB714
 4844 1434 22000000 		.4byte	.LFE714-.LFB714
 4845 1438 01       		.uleb128 0x1
ARM GAS  C:\Users\tmj32\AppData\Local\Temp\cch6Xcfo.s 			page 111


 4846 1439 9C       		.byte	0x9c
 4847 143a 4C140000 		.4byte	0x144c
 4848 143e 25       		.uleb128 0x25
 4849 143f 737700   		.ascii	"sw\000"
 4850 1442 05       		.byte	0x5
 4851 1443 81       		.byte	0x81
 4852 1444 1A140000 		.4byte	0x141a
 4853 1448 02       		.uleb128 0x2
 4854 1449 91       		.byte	0x91
 4855 144a 74       		.sleb128 -12
 4856 144b 00       		.byte	0
 4857 144c 27       		.uleb128 0x27
 4858 144d 05070000 		.4byte	.LASF416
 4859 1451 06       		.byte	0x6
 4860 1452 16       		.byte	0x16
 4861 1453 00000000 		.4byte	.LFB717
 4862 1457 B4030000 		.4byte	.LFE717-.LFB717
 4863 145b 01       		.uleb128 0x1
 4864 145c 9C       		.byte	0x9c
 4865 145d 22150000 		.4byte	0x1522
 4866 1461 28       		.uleb128 0x28
 4867 1462 D3040000 		.4byte	.LASF367
 4868 1466 06       		.byte	0x6
 4869 1467 18       		.byte	0x18
 4870 1468 22150000 		.4byte	0x1522
 4871 146c 02       		.uleb128 0x2
 4872 146d 91       		.byte	0x91
 4873 146e 5C       		.sleb128 -36
 4874 146f 28       		.uleb128 0x28
 4875 1470 DE0E0000 		.4byte	.LASF368
 4876 1474 06       		.byte	0x6
 4877 1475 19       		.byte	0x19
 4878 1476 22150000 		.4byte	0x1522
 4879 147a 02       		.uleb128 0x2
 4880 147b 91       		.byte	0x91
 4881 147c 58       		.sleb128 -40
 4882 147d 28       		.uleb128 0x28
 4883 147e BB080000 		.4byte	.LASF369
 4884 1482 06       		.byte	0x6
 4885 1483 1A       		.byte	0x1a
 4886 1484 22150000 		.4byte	0x1522
 4887 1488 02       		.uleb128 0x2
 4888 1489 91       		.byte	0x91
 4889 148a 54       		.sleb128 -44
 4890 148b 28       		.uleb128 0x28
 4891 148c A3060000 		.4byte	.LASF370
 4892 1490 06       		.byte	0x6
 4893 1491 1B       		.byte	0x1b
 4894 1492 22150000 		.4byte	0x1522
 4895 1496 02       		.uleb128 0x2
 4896 1497 91       		.byte	0x91
 4897 1498 50       		.sleb128 -48
 4898 1499 28       		.uleb128 0x28
 4899 149a 6A0F0000 		.4byte	.LASF371
 4900 149e 06       		.byte	0x6
 4901 149f 1C       		.byte	0x1c
 4902 14a0 9F000000 		.4byte	0x9f
ARM GAS  C:\Users\tmj32\AppData\Local\Temp\cch6Xcfo.s 			page 112


 4903 14a4 02       		.uleb128 0x2
 4904 14a5 91       		.byte	0x91
 4905 14a6 6C       		.sleb128 -20
 4906 14a7 28       		.uleb128 0x28
 4907 14a8 AF000000 		.4byte	.LASF372
 4908 14ac 06       		.byte	0x6
 4909 14ad 1E       		.byte	0x1e
 4910 14ae 4D120000 		.4byte	0x124d
 4911 14b2 05       		.uleb128 0x5
 4912 14b3 03       		.byte	0x3
 4913 14b4 14000000 		.4byte	chart1.20846
 4914 14b8 29       		.uleb128 0x29
 4915 14b9 733100   		.ascii	"s1\000"
 4916 14bc 06       		.byte	0x6
 4917 14bd 5D       		.byte	0x5d
 4918 14be 27150000 		.4byte	0x1527
 4919 14c2 02       		.uleb128 0x2
 4920 14c3 91       		.byte	0x91
 4921 14c4 4C       		.sleb128 -52
 4922 14c5 29       		.uleb128 0x29
 4923 14c6 733200   		.ascii	"s2\000"
 4924 14c9 06       		.byte	0x6
 4925 14ca 5E       		.byte	0x5e
 4926 14cb 27150000 		.4byte	0x1527
 4927 14cf 02       		.uleb128 0x2
 4928 14d0 91       		.byte	0x91
 4929 14d1 48       		.sleb128 -56
 4930 14d2 28       		.uleb128 0x28
 4931 14d3 6F060000 		.4byte	.LASF373
 4932 14d7 06       		.byte	0x6
 4933 14d8 65       		.byte	0x65
 4934 14d9 9F000000 		.4byte	0x9f
 4935 14dd 02       		.uleb128 0x2
 4936 14de 91       		.byte	0x91
 4937 14df 68       		.sleb128 -24
 4938 14e0 28       		.uleb128 0x28
 4939 14e1 88080000 		.4byte	.LASF374
 4940 14e5 06       		.byte	0x6
 4941 14e6 66       		.byte	0x66
 4942 14e7 9F000000 		.4byte	0x9f
 4943 14eb 02       		.uleb128 0x2
 4944 14ec 91       		.byte	0x91
 4945 14ed 64       		.sleb128 -28
 4946 14ee 28       		.uleb128 0x28
 4947 14ef CD130000 		.4byte	.LASF375
 4948 14f3 06       		.byte	0x6
 4949 14f4 74       		.byte	0x74
 4950 14f5 44050000 		.4byte	0x544
 4951 14f9 02       		.uleb128 0x2
 4952 14fa 91       		.byte	0x91
 4953 14fb 40       		.sleb128 -64
 4954 14fc 28       		.uleb128 0x28
 4955 14fd 09140000 		.4byte	.LASF376
 4956 1501 06       		.byte	0x6
 4957 1502 77       		.byte	0x77
 4958 1503 44050000 		.4byte	0x544
 4959 1507 03       		.uleb128 0x3
ARM GAS  C:\Users\tmj32\AppData\Local\Temp\cch6Xcfo.s 			page 113


 4960 1508 91       		.byte	0x91
 4961 1509 B87F     		.sleb128 -72
 4962 150b 2A       		.uleb128 0x2a
 4963 150c 70020000 		.4byte	.LBB2
 4964 1510 04010000 		.4byte	.LBE2-.LBB2
 4965 1514 29       		.uleb128 0x29
 4966 1515 6900     		.ascii	"i\000"
 4967 1517 06       		.byte	0x6
 4968 1518 7C       		.byte	0x7c
 4969 1519 9F000000 		.4byte	0x9f
 4970 151d 02       		.uleb128 0x2
 4971 151e 91       		.byte	0x91
 4972 151f 60       		.sleb128 -32
 4973 1520 00       		.byte	0
 4974 1521 00       		.byte	0
 4975 1522 1B       		.uleb128 0x1b
 4976 1523 9F000000 		.4byte	0x9f
 4977 1527 06       		.uleb128 0x6
 4978 1528 04       		.byte	0x4
 4979 1529 B7120000 		.4byte	0x12b7
 4980 152d 23       		.uleb128 0x23
 4981 152e B7150000 		.4byte	.LASF377
 4982 1532 06       		.byte	0x6
 4983 1533 87       		.byte	0x87
 4984 1534 00000000 		.4byte	.LFB718
 4985 1538 84000000 		.4byte	.LFE718-.LFB718
 4986 153c 01       		.uleb128 0x1
 4987 153d 9C       		.byte	0x9c
 4988 153e 73150000 		.4byte	0x1573
 4989 1542 25       		.uleb128 0x25
 4990 1543 6F626A00 		.ascii	"obj\000"
 4991 1547 06       		.byte	0x6
 4992 1548 87       		.byte	0x87
 4993 1549 4D120000 		.4byte	0x124d
 4994 154d 02       		.uleb128 0x2
 4995 154e 91       		.byte	0x91
 4996 154f 54       		.sleb128 -44
 4997 1550 24       		.uleb128 0x24
 4998 1551 92050000 		.4byte	.LASF378
 4999 1555 06       		.byte	0x6
 5000 1556 87       		.byte	0x87
 5001 1557 56100000 		.4byte	0x1056
 5002 155b 02       		.uleb128 0x2
 5003 155c 91       		.byte	0x91
 5004 155d 53       		.sleb128 -45
 5005 155e 2B       		.uleb128 0x2b
 5006 155f 00000000 		.4byte	.Ldebug_ranges0+0
 5007 1563 29       		.uleb128 0x29
 5008 1564 62756600 		.ascii	"buf\000"
 5009 1568 06       		.byte	0x6
 5010 1569 8A       		.byte	0x8a
 5011 156a 73150000 		.4byte	0x1573
 5012 156e 02       		.uleb128 0x2
 5013 156f 91       		.byte	0x91
 5014 1570 58       		.sleb128 -40
 5015 1571 00       		.byte	0
 5016 1572 00       		.byte	0
ARM GAS  C:\Users\tmj32\AppData\Local\Temp\cch6Xcfo.s 			page 114


 5017 1573 07       		.uleb128 0x7
 5018 1574 C3000000 		.4byte	0xc3
 5019 1578 83150000 		.4byte	0x1583
 5020 157c 08       		.uleb128 0x8
 5021 157d B6000000 		.4byte	0xb6
 5022 1581 1F       		.byte	0x1f
 5023 1582 00       		.byte	0
 5024 1583 23       		.uleb128 0x23
 5025 1584 C50B0000 		.4byte	.LASF379
 5026 1588 06       		.byte	0x6
 5027 1589 98       		.byte	0x98
 5028 158a 00000000 		.4byte	.LFB719
 5029 158e 28000000 		.4byte	.LFE719-.LFB719
 5030 1592 01       		.uleb128 0x1
 5031 1593 9C       		.byte	0x9c
 5032 1594 CD150000 		.4byte	0x15cd
 5033 1598 25       		.uleb128 0x25
 5034 1599 6F626A00 		.ascii	"obj\000"
 5035 159d 06       		.byte	0x6
 5036 159e 98       		.byte	0x98
 5037 159f 4D120000 		.4byte	0x124d
 5038 15a3 02       		.uleb128 0x2
 5039 15a4 91       		.byte	0x91
 5040 15a5 54       		.sleb128 -44
 5041 15a6 24       		.uleb128 0x24
 5042 15a7 92050000 		.4byte	.LASF378
 5043 15ab 06       		.byte	0x6
 5044 15ac 98       		.byte	0x98
 5045 15ad 56100000 		.4byte	0x1056
 5046 15b1 02       		.uleb128 0x2
 5047 15b2 91       		.byte	0x91
 5048 15b3 53       		.sleb128 -45
 5049 15b4 2A       		.uleb128 0x2a
 5050 15b5 12000000 		.4byte	.LBB6
 5051 15b9 0E000000 		.4byte	.LBE6-.LBB6
 5052 15bd 29       		.uleb128 0x29
 5053 15be 62756600 		.ascii	"buf\000"
 5054 15c2 06       		.byte	0x6
 5055 15c3 9B       		.byte	0x9b
 5056 15c4 73150000 		.4byte	0x1573
 5057 15c8 02       		.uleb128 0x2
 5058 15c9 91       		.byte	0x91
 5059 15ca 58       		.sleb128 -40
 5060 15cb 00       		.byte	0
 5061 15cc 00       		.byte	0
 5062 15cd 23       		.uleb128 0x23
 5063 15ce 91020000 		.4byte	.LASF380
 5064 15d2 06       		.byte	0x6
 5065 15d3 9F       		.byte	0x9f
 5066 15d4 00000000 		.4byte	.LFB720
 5067 15d8 40000000 		.4byte	.LFE720-.LFB720
 5068 15dc 01       		.uleb128 0x1
 5069 15dd 9C       		.byte	0x9c
 5070 15de FF150000 		.4byte	0x15ff
 5071 15e2 25       		.uleb128 0x25
 5072 15e3 6F626A00 		.ascii	"obj\000"
 5073 15e7 06       		.byte	0x6
ARM GAS  C:\Users\tmj32\AppData\Local\Temp\cch6Xcfo.s 			page 115


 5074 15e8 9F       		.byte	0x9f
 5075 15e9 4D120000 		.4byte	0x124d
 5076 15ed 02       		.uleb128 0x2
 5077 15ee 91       		.byte	0x91
 5078 15ef 74       		.sleb128 -12
 5079 15f0 24       		.uleb128 0x24
 5080 15f1 92050000 		.4byte	.LASF378
 5081 15f5 06       		.byte	0x6
 5082 15f6 9F       		.byte	0x9f
 5083 15f7 56100000 		.4byte	0x1056
 5084 15fb 02       		.uleb128 0x2
 5085 15fc 91       		.byte	0x91
 5086 15fd 73       		.sleb128 -13
 5087 15fe 00       		.byte	0
 5088 15ff 23       		.uleb128 0x23
 5089 1600 0E000000 		.4byte	.LASF381
 5090 1604 06       		.byte	0x6
 5091 1605 A8       		.byte	0xa8
 5092 1606 00000000 		.4byte	.LFB721
 5093 160a 74000000 		.4byte	.LFE721-.LFB721
 5094 160e 01       		.uleb128 0x1
 5095 160f 9C       		.byte	0x9c
 5096 1610 5D160000 		.4byte	0x165d
 5097 1614 24       		.uleb128 0x24
 5098 1615 19070000 		.4byte	.LASF358
 5099 1619 06       		.byte	0x6
 5100 161a A8       		.byte	0xa8
 5101 161b 4D120000 		.4byte	0x124d
 5102 161f 02       		.uleb128 0x2
 5103 1620 91       		.byte	0x91
 5104 1621 74       		.sleb128 -12
 5105 1622 24       		.uleb128 0x24
 5106 1623 92050000 		.4byte	.LASF378
 5107 1627 06       		.byte	0x6
 5108 1628 A8       		.byte	0xa8
 5109 1629 56100000 		.4byte	0x1056
 5110 162d 02       		.uleb128 0x2
 5111 162e 91       		.byte	0x91
 5112 162f 73       		.sleb128 -13
 5113 1630 2A       		.uleb128 0x2a
 5114 1631 12000000 		.4byte	.LBB7
 5115 1635 44000000 		.4byte	.LBE7-.LBB7
 5116 1639 29       		.uleb128 0x29
 5117 163a 62756600 		.ascii	"buf\000"
 5118 163e 06       		.byte	0x6
 5119 163f AB       		.byte	0xab
 5120 1640 CA000000 		.4byte	0xca
 5121 1644 05       		.uleb128 0x5
 5122 1645 03       		.byte	0x3
 5123 1646 18000000 		.4byte	buf.20889
 5124 164a 28       		.uleb128 0x28
 5125 164b 68140000 		.4byte	.LASF382
 5126 164f 06       		.byte	0x6
 5127 1650 AC       		.byte	0xac
 5128 1651 3D120000 		.4byte	0x123d
 5129 1655 05       		.uleb128 0x5
 5130 1656 03       		.byte	0x3
ARM GAS  C:\Users\tmj32\AppData\Local\Temp\cch6Xcfo.s 			page 116


 5131 1657 00000000 		.4byte	units.20890
 5132 165b 00       		.byte	0
 5133 165c 00       		.byte	0
 5134 165d 23       		.uleb128 0x23
 5135 165e C60E0000 		.4byte	.LASF383
 5136 1662 06       		.byte	0x6
 5137 1663 B4       		.byte	0xb4
 5138 1664 00000000 		.4byte	.LFB722
 5139 1668 78000000 		.4byte	.LFE722-.LFB722
 5140 166c 01       		.uleb128 0x1
 5141 166d 9C       		.byte	0x9c
 5142 166e BB160000 		.4byte	0x16bb
 5143 1672 24       		.uleb128 0x24
 5144 1673 19070000 		.4byte	.LASF358
 5145 1677 06       		.byte	0x6
 5146 1678 B4       		.byte	0xb4
 5147 1679 4D120000 		.4byte	0x124d
 5148 167d 02       		.uleb128 0x2
 5149 167e 91       		.byte	0x91
 5150 167f 74       		.sleb128 -12
 5151 1680 24       		.uleb128 0x24
 5152 1681 92050000 		.4byte	.LASF378
 5153 1685 06       		.byte	0x6
 5154 1686 B4       		.byte	0xb4
 5155 1687 56100000 		.4byte	0x1056
 5156 168b 02       		.uleb128 0x2
 5157 168c 91       		.byte	0x91
 5158 168d 73       		.sleb128 -13
 5159 168e 2A       		.uleb128 0x2a
 5160 168f 12000000 		.4byte	.LBB8
 5161 1693 46000000 		.4byte	.LBE8-.LBB8
 5162 1697 29       		.uleb128 0x29
 5163 1698 62756600 		.ascii	"buf\000"
 5164 169c 06       		.byte	0x6
 5165 169d B7       		.byte	0xb7
 5166 169e CA000000 		.4byte	0xca
 5167 16a2 05       		.uleb128 0x5
 5168 16a3 03       		.byte	0x3
 5169 16a4 20000000 		.4byte	buf.20895
 5170 16a8 28       		.uleb128 0x28
 5171 16a9 68140000 		.4byte	.LASF382
 5172 16ad 06       		.byte	0x6
 5173 16ae B8       		.byte	0xb8
 5174 16af 3D120000 		.4byte	0x123d
 5175 16b3 05       		.uleb128 0x5
 5176 16b4 03       		.byte	0x3
 5177 16b5 04000000 		.4byte	units.20896
 5178 16b9 00       		.byte	0
 5179 16ba 00       		.byte	0
 5180 16bb 23       		.uleb128 0x23
 5181 16bc 34010000 		.4byte	.LASF384
 5182 16c0 06       		.byte	0x6
 5183 16c1 C0       		.byte	0xc0
 5184 16c2 00000000 		.4byte	.LFB723
 5185 16c6 E0000000 		.4byte	.LFE723-.LFB723
 5186 16ca 01       		.uleb128 0x1
 5187 16cb 9C       		.byte	0x9c
ARM GAS  C:\Users\tmj32\AppData\Local\Temp\cch6Xcfo.s 			page 117


 5188 16cc 08170000 		.4byte	0x1708
 5189 16d0 24       		.uleb128 0x24
 5190 16d1 19070000 		.4byte	.LASF358
 5191 16d5 06       		.byte	0x6
 5192 16d6 C0       		.byte	0xc0
 5193 16d7 4D120000 		.4byte	0x124d
 5194 16db 02       		.uleb128 0x2
 5195 16dc 91       		.byte	0x91
 5196 16dd 74       		.sleb128 -12
 5197 16de 24       		.uleb128 0x24
 5198 16df 92050000 		.4byte	.LASF378
 5199 16e3 06       		.byte	0x6
 5200 16e4 C0       		.byte	0xc0
 5201 16e5 56100000 		.4byte	0x1056
 5202 16e9 02       		.uleb128 0x2
 5203 16ea 91       		.byte	0x91
 5204 16eb 73       		.sleb128 -13
 5205 16ec 2A       		.uleb128 0x2a
 5206 16ed 12000000 		.4byte	.LBB9
 5207 16f1 A2000000 		.4byte	.LBE9-.LBB9
 5208 16f5 29       		.uleb128 0x29
 5209 16f6 62756600 		.ascii	"buf\000"
 5210 16fa 06       		.byte	0x6
 5211 16fb C3       		.byte	0xc3
 5212 16fc 08170000 		.4byte	0x1708
 5213 1700 05       		.uleb128 0x5
 5214 1701 03       		.byte	0x3
 5215 1702 28000000 		.4byte	buf.20901
 5216 1706 00       		.byte	0
 5217 1707 00       		.byte	0
 5218 1708 07       		.uleb128 0x7
 5219 1709 C3000000 		.4byte	0xc3
 5220 170d 18170000 		.4byte	0x1718
 5221 1711 08       		.uleb128 0x8
 5222 1712 B6000000 		.4byte	0xb6
 5223 1716 09       		.byte	0x9
 5224 1717 00       		.byte	0
 5225 1718 23       		.uleb128 0x23
 5226 1719 85090000 		.4byte	.LASF385
 5227 171d 06       		.byte	0x6
 5228 171e E1       		.byte	0xe1
 5229 171f 00000000 		.4byte	.LFB724
 5230 1723 E0000000 		.4byte	.LFE724-.LFB724
 5231 1727 01       		.uleb128 0x1
 5232 1728 9C       		.byte	0x9c
 5233 1729 65170000 		.4byte	0x1765
 5234 172d 24       		.uleb128 0x24
 5235 172e 19070000 		.4byte	.LASF358
 5236 1732 06       		.byte	0x6
 5237 1733 E1       		.byte	0xe1
 5238 1734 4D120000 		.4byte	0x124d
 5239 1738 02       		.uleb128 0x2
 5240 1739 91       		.byte	0x91
 5241 173a 74       		.sleb128 -12
 5242 173b 24       		.uleb128 0x24
 5243 173c 92050000 		.4byte	.LASF378
 5244 1740 06       		.byte	0x6
ARM GAS  C:\Users\tmj32\AppData\Local\Temp\cch6Xcfo.s 			page 118


 5245 1741 E1       		.byte	0xe1
 5246 1742 56100000 		.4byte	0x1056
 5247 1746 02       		.uleb128 0x2
 5248 1747 91       		.byte	0x91
 5249 1748 73       		.sleb128 -13
 5250 1749 2A       		.uleb128 0x2a
 5251 174a 12000000 		.4byte	.LBB10
 5252 174e A2000000 		.4byte	.LBE10-.LBB10
 5253 1752 29       		.uleb128 0x29
 5254 1753 62756600 		.ascii	"buf\000"
 5255 1757 06       		.byte	0x6
 5256 1758 E4       		.byte	0xe4
 5257 1759 08170000 		.4byte	0x1708
 5258 175d 05       		.uleb128 0x5
 5259 175e 03       		.byte	0x3
 5260 175f 34000000 		.4byte	buf.20913
 5261 1763 00       		.byte	0
 5262 1764 00       		.byte	0
 5263 1765 23       		.uleb128 0x23
 5264 1766 A9050000 		.4byte	.LASF386
 5265 176a 06       		.byte	0x6
 5266 176b FE       		.byte	0xfe
 5267 176c 00000000 		.4byte	.LFB725
 5268 1770 30000000 		.4byte	.LFE725-.LFB725
 5269 1774 01       		.uleb128 0x1
 5270 1775 9C       		.byte	0x9c
 5271 1776 97170000 		.4byte	0x1797
 5272 177a 24       		.uleb128 0x24
 5273 177b 19070000 		.4byte	.LASF358
 5274 177f 06       		.byte	0x6
 5275 1780 FE       		.byte	0xfe
 5276 1781 4D120000 		.4byte	0x124d
 5277 1785 02       		.uleb128 0x2
 5278 1786 91       		.byte	0x91
 5279 1787 74       		.sleb128 -12
 5280 1788 24       		.uleb128 0x24
 5281 1789 92050000 		.4byte	.LASF378
 5282 178d 06       		.byte	0x6
 5283 178e FE       		.byte	0xfe
 5284 178f 56100000 		.4byte	0x1056
 5285 1793 02       		.uleb128 0x2
 5286 1794 91       		.byte	0x91
 5287 1795 73       		.sleb128 -13
 5288 1796 00       		.byte	0
 5289 1797 2C       		.uleb128 0x2c
 5290 1798 12110000 		.4byte	.LASF417
 5291 179c 06       		.byte	0x6
 5292 179d 0901     		.2byte	0x109
 5293 179f 00000000 		.4byte	.LFB726
 5294 17a3 A0040000 		.4byte	.LFE726-.LFB726
 5295 17a7 01       		.uleb128 0x1
 5296 17a8 9C       		.byte	0x9c
 5297 17a9 80180000 		.4byte	0x1880
 5298 17ad 2D       		.uleb128 0x2d
 5299 17ae 070D0000 		.4byte	.LASF387
 5300 17b2 06       		.byte	0x6
 5301 17b3 0C01     		.2byte	0x10c
ARM GAS  C:\Users\tmj32\AppData\Local\Temp\cch6Xcfo.s 			page 119


 5302 17b5 4D120000 		.4byte	0x124d
 5303 17b9 02       		.uleb128 0x2
 5304 17ba 91       		.byte	0x91
 5305 17bb 74       		.sleb128 -12
 5306 17bc 2D       		.uleb128 0x2d
 5307 17bd BD170000 		.4byte	.LASF388
 5308 17c1 06       		.byte	0x6
 5309 17c2 1A01     		.2byte	0x11a
 5310 17c4 4D120000 		.4byte	0x124d
 5311 17c8 02       		.uleb128 0x2
 5312 17c9 91       		.byte	0x91
 5313 17ca 70       		.sleb128 -16
 5314 17cb 2D       		.uleb128 0x2d
 5315 17cc 83060000 		.4byte	.LASF389
 5316 17d0 06       		.byte	0x6
 5317 17d1 2301     		.2byte	0x123
 5318 17d3 4D120000 		.4byte	0x124d
 5319 17d7 02       		.uleb128 0x2
 5320 17d8 91       		.byte	0x91
 5321 17d9 6C       		.sleb128 -20
 5322 17da 2D       		.uleb128 0x2d
 5323 17db DF0D0000 		.4byte	.LASF390
 5324 17df 06       		.byte	0x6
 5325 17e0 3101     		.2byte	0x131
 5326 17e2 4D120000 		.4byte	0x124d
 5327 17e6 02       		.uleb128 0x2
 5328 17e7 91       		.byte	0x91
 5329 17e8 68       		.sleb128 -24
 5330 17e9 2D       		.uleb128 0x2d
 5331 17ea CC070000 		.4byte	.LASF391
 5332 17ee 06       		.byte	0x6
 5333 17ef 3901     		.2byte	0x139
 5334 17f1 4D120000 		.4byte	0x124d
 5335 17f5 02       		.uleb128 0x2
 5336 17f6 91       		.byte	0x91
 5337 17f7 64       		.sleb128 -28
 5338 17f8 2D       		.uleb128 0x2d
 5339 17f9 800F0000 		.4byte	.LASF392
 5340 17fd 06       		.byte	0x6
 5341 17fe 4701     		.2byte	0x147
 5342 1800 4D120000 		.4byte	0x124d
 5343 1804 02       		.uleb128 0x2
 5344 1805 91       		.byte	0x91
 5345 1806 60       		.sleb128 -32
 5346 1807 2D       		.uleb128 0x2d
 5347 1808 7C130000 		.4byte	.LASF393
 5348 180c 06       		.byte	0x6
 5349 180d 4F01     		.2byte	0x14f
 5350 180f 4D120000 		.4byte	0x124d
 5351 1813 02       		.uleb128 0x2
 5352 1814 91       		.byte	0x91
 5353 1815 5C       		.sleb128 -36
 5354 1816 2D       		.uleb128 0x2d
 5355 1817 0F040000 		.4byte	.LASF394
 5356 181b 06       		.byte	0x6
 5357 181c 5D01     		.2byte	0x15d
 5358 181e 4D120000 		.4byte	0x124d
ARM GAS  C:\Users\tmj32\AppData\Local\Temp\cch6Xcfo.s 			page 120


 5359 1822 02       		.uleb128 0x2
 5360 1823 91       		.byte	0x91
 5361 1824 58       		.sleb128 -40
 5362 1825 2D       		.uleb128 0x2d
 5363 1826 1E110000 		.4byte	.LASF395
 5364 182a 06       		.byte	0x6
 5365 182b 6501     		.2byte	0x165
 5366 182d 4D120000 		.4byte	0x124d
 5367 1831 02       		.uleb128 0x2
 5368 1832 91       		.byte	0x91
 5369 1833 54       		.sleb128 -44
 5370 1834 2E       		.uleb128 0x2e
 5371 1835 73773100 		.ascii	"sw1\000"
 5372 1839 06       		.byte	0x6
 5373 183a 6E01     		.2byte	0x16e
 5374 183c 4D120000 		.4byte	0x124d
 5375 1840 02       		.uleb128 0x2
 5376 1841 91       		.byte	0x91
 5377 1842 50       		.sleb128 -48
 5378 1843 2D       		.uleb128 0x2d
 5379 1844 460E0000 		.4byte	.LASF396
 5380 1848 06       		.byte	0x6
 5381 1849 7401     		.2byte	0x174
 5382 184b 4D120000 		.4byte	0x124d
 5383 184f 02       		.uleb128 0x2
 5384 1850 91       		.byte	0x91
 5385 1851 4C       		.sleb128 -52
 5386 1852 2D       		.uleb128 0x2d
 5387 1853 B1170000 		.4byte	.LASF397
 5388 1857 06       		.byte	0x6
 5389 1858 7D01     		.2byte	0x17d
 5390 185a 4D120000 		.4byte	0x124d
 5391 185e 02       		.uleb128 0x2
 5392 185f 91       		.byte	0x91
 5393 1860 48       		.sleb128 -56
 5394 1861 2D       		.uleb128 0x2d
 5395 1862 650B0000 		.4byte	.LASF398
 5396 1866 06       		.byte	0x6
 5397 1867 8201     		.2byte	0x182
 5398 1869 4D120000 		.4byte	0x124d
 5399 186d 02       		.uleb128 0x2
 5400 186e 91       		.byte	0x91
 5401 186f 44       		.sleb128 -60
 5402 1870 2D       		.uleb128 0x2d
 5403 1871 6D0B0000 		.4byte	.LASF399
 5404 1875 06       		.byte	0x6
 5405 1876 8C01     		.2byte	0x18c
 5406 1878 4D120000 		.4byte	0x124d
 5407 187c 02       		.uleb128 0x2
 5408 187d 91       		.byte	0x91
 5409 187e 40       		.sleb128 -64
 5410 187f 00       		.byte	0
 5411 1880 28       		.uleb128 0x28
 5412 1881 5C0A0000 		.4byte	.LASF400
 5413 1885 06       		.byte	0x6
 5414 1886 0E       		.byte	0xe
 5415 1887 4D120000 		.4byte	0x124d
ARM GAS  C:\Users\tmj32\AppData\Local\Temp\cch6Xcfo.s 			page 121


 5416 188b 05       		.uleb128 0x5
 5417 188c 03       		.byte	0x3
 5418 188d 00000000 		.4byte	offsetLabel
 5419 1891 28       		.uleb128 0x28
 5420 1892 9B090000 		.4byte	.LASF401
 5421 1896 06       		.byte	0x6
 5422 1897 0F       		.byte	0xf
 5423 1898 4D120000 		.4byte	0x124d
 5424 189c 05       		.uleb128 0x5
 5425 189d 03       		.byte	0x3
 5426 189e 04000000 		.4byte	triggerLabel
 5427 18a2 28       		.uleb128 0x28
 5428 18a3 750F0000 		.4byte	.LASF402
 5429 18a7 06       		.byte	0x6
 5430 18a8 10       		.byte	0x10
 5431 18a9 4D120000 		.4byte	0x124d
 5432 18ad 05       		.uleb128 0x5
 5433 18ae 03       		.byte	0x3
 5434 18af 08000000 		.4byte	horiLabel1
 5435 18b3 28       		.uleb128 0x28
 5436 18b4 04040000 		.4byte	.LASF403
 5437 18b8 06       		.byte	0x6
 5438 18b9 11       		.byte	0x11
 5439 18ba 4D120000 		.4byte	0x124d
 5440 18be 05       		.uleb128 0x5
 5441 18bf 03       		.byte	0x3
 5442 18c0 0C000000 		.4byte	vertLabel1
 5443 18c4 2F       		.uleb128 0x2f
 5444 18c5 8B100000 		.4byte	.LASF404
 5445 18c9 1A       		.byte	0x1a
 5446 18ca F907     		.2byte	0x7f9
 5447 18cc D0180000 		.4byte	0x18d0
 5448 18d0 09       		.uleb128 0x9
 5449 18d1 06010000 		.4byte	0x106
 5450 18d5 30       		.uleb128 0x30
 5451 18d6 92000000 		.4byte	.LASF405
 5452 18da 09       		.byte	0x9
 5453 18db A7       		.byte	0xa7
 5454 18dc E0180000 		.4byte	0x18e0
 5455 18e0 06       		.uleb128 0x6
 5456 18e1 04       		.byte	0x4
 5457 18e2 E6180000 		.4byte	0x18e6
 5458 18e6 1B       		.uleb128 0x1b
 5459 18e7 32050000 		.4byte	0x532
 5460 18eb 30       		.uleb128 0x30
 5461 18ec 4D000000 		.4byte	.LASF406
 5462 18f0 1B       		.byte	0x1b
 5463 18f1 1F       		.byte	0x1f
 5464 18f2 F6180000 		.4byte	0x18f6
 5465 18f6 1B       		.uleb128 0x1b
 5466 18f7 78080000 		.4byte	0x878
 5467 18fb 30       		.uleb128 0x30
 5468 18fc 9C000000 		.4byte	.LASF407
 5469 1900 1C       		.byte	0x1c
 5470 1901 7F       		.byte	0x7f
 5471 1902 E0060000 		.4byte	0x6e0
 5472 1906 30       		.uleb128 0x30
ARM GAS  C:\Users\tmj32\AppData\Local\Temp\cch6Xcfo.s 			page 122


 5473 1907 2A0A0000 		.4byte	.LASF408
 5474 190b 1D       		.byte	0x1d
 5475 190c 5E       		.byte	0x5e
 5476 190d 7B070000 		.4byte	0x77b
 5477 1911 31       		.uleb128 0x31
 5478 1912 636D3400 		.ascii	"cm4\000"
 5479 1916 0D       		.byte	0xd
 5480 1917 22       		.byte	0x22
 5481 1918 83080000 		.4byte	0x883
 5482 191c 05       		.uleb128 0x5
 5483 191d 03       		.byte	0x3
 5484 191e 00000000 		.4byte	cm4
 5485 1922 07       		.uleb128 0x7
 5486 1923 210D0000 		.4byte	0xd21
 5487 1927 32190000 		.4byte	0x1932
 5488 192b 08       		.uleb128 0x8
 5489 192c B6000000 		.4byte	0xb6
 5490 1930 02       		.byte	0x2
 5491 1931 00       		.byte	0
 5492 1932 32       		.uleb128 0x32
 5493 1933 D5130000 		.4byte	.LASF409
 5494 1937 06       		.byte	0x6
 5495 1938 0B       		.byte	0xb
 5496 1939 43190000 		.4byte	0x1943
 5497 193d 05       		.uleb128 0x5
 5498 193e 03       		.byte	0x3
 5499 193f 00000000 		.4byte	tcnj_blue
 5500 1943 1B       		.uleb128 0x1b
 5501 1944 22190000 		.4byte	0x1922
 5502 1948 32       		.uleb128 0x32
 5503 1949 2A080000 		.4byte	.LASF410
 5504 194d 06       		.byte	0x6
 5505 194e 0C       		.byte	0xc
 5506 194f 59190000 		.4byte	0x1959
 5507 1953 05       		.uleb128 0x5
 5508 1954 03       		.byte	0x3
 5509 1955 00000000 		.4byte	tcnj_gold
 5510 1959 1B       		.uleb128 0x1b
 5511 195a 22190000 		.4byte	0x1922
 5512 195e 32       		.uleb128 0x32
 5513 195f 2A0F0000 		.4byte	.LASF411
 5514 1963 06       		.byte	0x6
 5515 1964 14       		.byte	0x14
 5516 1965 9F000000 		.4byte	0x9f
 5517 1969 05       		.uleb128 0x5
 5518 196a 03       		.byte	0x3
 5519 196b 00000000 		.4byte	startup
 5520 196f 00       		.byte	0
 5521              		.section	.debug_abbrev,"",%progbits
 5522              	.Ldebug_abbrev0:
 5523 0000 01       		.uleb128 0x1
 5524 0001 11       		.uleb128 0x11
 5525 0002 01       		.byte	0x1
 5526 0003 25       		.uleb128 0x25
 5527 0004 0E       		.uleb128 0xe
 5528 0005 13       		.uleb128 0x13
 5529 0006 0B       		.uleb128 0xb
ARM GAS  C:\Users\tmj32\AppData\Local\Temp\cch6Xcfo.s 			page 123


 5530 0007 03       		.uleb128 0x3
 5531 0008 0E       		.uleb128 0xe
 5532 0009 1B       		.uleb128 0x1b
 5533 000a 0E       		.uleb128 0xe
 5534 000b 55       		.uleb128 0x55
 5535 000c 17       		.uleb128 0x17
 5536 000d 11       		.uleb128 0x11
 5537 000e 01       		.uleb128 0x1
 5538 000f 10       		.uleb128 0x10
 5539 0010 17       		.uleb128 0x17
 5540 0011 00       		.byte	0
 5541 0012 00       		.byte	0
 5542 0013 02       		.uleb128 0x2
 5543 0014 16       		.uleb128 0x16
 5544 0015 00       		.byte	0
 5545 0016 03       		.uleb128 0x3
 5546 0017 0E       		.uleb128 0xe
 5547 0018 3A       		.uleb128 0x3a
 5548 0019 0B       		.uleb128 0xb
 5549 001a 3B       		.uleb128 0x3b
 5550 001b 0B       		.uleb128 0xb
 5551 001c 49       		.uleb128 0x49
 5552 001d 13       		.uleb128 0x13
 5553 001e 00       		.byte	0
 5554 001f 00       		.byte	0
 5555 0020 03       		.uleb128 0x3
 5556 0021 24       		.uleb128 0x24
 5557 0022 00       		.byte	0
 5558 0023 0B       		.uleb128 0xb
 5559 0024 0B       		.uleb128 0xb
 5560 0025 3E       		.uleb128 0x3e
 5561 0026 0B       		.uleb128 0xb
 5562 0027 03       		.uleb128 0x3
 5563 0028 0E       		.uleb128 0xe
 5564 0029 00       		.byte	0
 5565 002a 00       		.byte	0
 5566 002b 04       		.uleb128 0x4
 5567 002c 24       		.uleb128 0x24
 5568 002d 00       		.byte	0
 5569 002e 0B       		.uleb128 0xb
 5570 002f 0B       		.uleb128 0xb
 5571 0030 3E       		.uleb128 0x3e
 5572 0031 0B       		.uleb128 0xb
 5573 0032 03       		.uleb128 0x3
 5574 0033 08       		.uleb128 0x8
 5575 0034 00       		.byte	0
 5576 0035 00       		.byte	0
 5577 0036 05       		.uleb128 0x5
 5578 0037 0F       		.uleb128 0xf
 5579 0038 00       		.byte	0
 5580 0039 0B       		.uleb128 0xb
 5581 003a 0B       		.uleb128 0xb
 5582 003b 00       		.byte	0
 5583 003c 00       		.byte	0
 5584 003d 06       		.uleb128 0x6
 5585 003e 0F       		.uleb128 0xf
 5586 003f 00       		.byte	0
ARM GAS  C:\Users\tmj32\AppData\Local\Temp\cch6Xcfo.s 			page 124


 5587 0040 0B       		.uleb128 0xb
 5588 0041 0B       		.uleb128 0xb
 5589 0042 49       		.uleb128 0x49
 5590 0043 13       		.uleb128 0x13
 5591 0044 00       		.byte	0
 5592 0045 00       		.byte	0
 5593 0046 07       		.uleb128 0x7
 5594 0047 01       		.uleb128 0x1
 5595 0048 01       		.byte	0x1
 5596 0049 49       		.uleb128 0x49
 5597 004a 13       		.uleb128 0x13
 5598 004b 01       		.uleb128 0x1
 5599 004c 13       		.uleb128 0x13
 5600 004d 00       		.byte	0
 5601 004e 00       		.byte	0
 5602 004f 08       		.uleb128 0x8
 5603 0050 21       		.uleb128 0x21
 5604 0051 00       		.byte	0
 5605 0052 49       		.uleb128 0x49
 5606 0053 13       		.uleb128 0x13
 5607 0054 2F       		.uleb128 0x2f
 5608 0055 0B       		.uleb128 0xb
 5609 0056 00       		.byte	0
 5610 0057 00       		.byte	0
 5611 0058 09       		.uleb128 0x9
 5612 0059 35       		.uleb128 0x35
 5613 005a 00       		.byte	0
 5614 005b 49       		.uleb128 0x49
 5615 005c 13       		.uleb128 0x13
 5616 005d 00       		.byte	0
 5617 005e 00       		.byte	0
 5618 005f 0A       		.uleb128 0xa
 5619 0060 13       		.uleb128 0x13
 5620 0061 01       		.byte	0x1
 5621 0062 0B       		.uleb128 0xb
 5622 0063 0B       		.uleb128 0xb
 5623 0064 3A       		.uleb128 0x3a
 5624 0065 0B       		.uleb128 0xb
 5625 0066 3B       		.uleb128 0x3b
 5626 0067 0B       		.uleb128 0xb
 5627 0068 01       		.uleb128 0x1
 5628 0069 13       		.uleb128 0x13
 5629 006a 00       		.byte	0
 5630 006b 00       		.byte	0
 5631 006c 0B       		.uleb128 0xb
 5632 006d 0D       		.uleb128 0xd
 5633 006e 00       		.byte	0
 5634 006f 03       		.uleb128 0x3
 5635 0070 0E       		.uleb128 0xe
 5636 0071 3A       		.uleb128 0x3a
 5637 0072 0B       		.uleb128 0xb
 5638 0073 3B       		.uleb128 0x3b
 5639 0074 0B       		.uleb128 0xb
 5640 0075 49       		.uleb128 0x49
 5641 0076 13       		.uleb128 0x13
 5642 0077 38       		.uleb128 0x38
 5643 0078 0B       		.uleb128 0xb
ARM GAS  C:\Users\tmj32\AppData\Local\Temp\cch6Xcfo.s 			page 125


 5644 0079 00       		.byte	0
 5645 007a 00       		.byte	0
 5646 007b 0C       		.uleb128 0xc
 5647 007c 04       		.uleb128 0x4
 5648 007d 01       		.byte	0x1
 5649 007e 0B       		.uleb128 0xb
 5650 007f 0B       		.uleb128 0xb
 5651 0080 49       		.uleb128 0x49
 5652 0081 13       		.uleb128 0x13
 5653 0082 3A       		.uleb128 0x3a
 5654 0083 0B       		.uleb128 0xb
 5655 0084 3B       		.uleb128 0x3b
 5656 0085 05       		.uleb128 0x5
 5657 0086 01       		.uleb128 0x1
 5658 0087 13       		.uleb128 0x13
 5659 0088 00       		.byte	0
 5660 0089 00       		.byte	0
 5661 008a 0D       		.uleb128 0xd
 5662 008b 28       		.uleb128 0x28
 5663 008c 00       		.byte	0
 5664 008d 03       		.uleb128 0x3
 5665 008e 0E       		.uleb128 0xe
 5666 008f 1C       		.uleb128 0x1c
 5667 0090 0B       		.uleb128 0xb
 5668 0091 00       		.byte	0
 5669 0092 00       		.byte	0
 5670 0093 0E       		.uleb128 0xe
 5671 0094 16       		.uleb128 0x16
 5672 0095 00       		.byte	0
 5673 0096 03       		.uleb128 0x3
 5674 0097 0E       		.uleb128 0xe
 5675 0098 3A       		.uleb128 0x3a
 5676 0099 0B       		.uleb128 0xb
 5677 009a 3B       		.uleb128 0x3b
 5678 009b 05       		.uleb128 0x5
 5679 009c 49       		.uleb128 0x49
 5680 009d 13       		.uleb128 0x13
 5681 009e 00       		.byte	0
 5682 009f 00       		.byte	0
 5683 00a0 0F       		.uleb128 0xf
 5684 00a1 15       		.uleb128 0x15
 5685 00a2 01       		.byte	0x1
 5686 00a3 27       		.uleb128 0x27
 5687 00a4 19       		.uleb128 0x19
 5688 00a5 01       		.uleb128 0x1
 5689 00a6 13       		.uleb128 0x13
 5690 00a7 00       		.byte	0
 5691 00a8 00       		.byte	0
 5692 00a9 10       		.uleb128 0x10
 5693 00aa 05       		.uleb128 0x5
 5694 00ab 00       		.byte	0
 5695 00ac 49       		.uleb128 0x49
 5696 00ad 13       		.uleb128 0x13
 5697 00ae 00       		.byte	0
 5698 00af 00       		.byte	0
 5699 00b0 11       		.uleb128 0x11
 5700 00b1 15       		.uleb128 0x15
ARM GAS  C:\Users\tmj32\AppData\Local\Temp\cch6Xcfo.s 			page 126


 5701 00b2 01       		.byte	0x1
 5702 00b3 27       		.uleb128 0x27
 5703 00b4 19       		.uleb128 0x19
 5704 00b5 49       		.uleb128 0x49
 5705 00b6 13       		.uleb128 0x13
 5706 00b7 01       		.uleb128 0x1
 5707 00b8 13       		.uleb128 0x13
 5708 00b9 00       		.byte	0
 5709 00ba 00       		.byte	0
 5710 00bb 12       		.uleb128 0x12
 5711 00bc 13       		.uleb128 0x13
 5712 00bd 01       		.byte	0x1
 5713 00be 03       		.uleb128 0x3
 5714 00bf 0E       		.uleb128 0xe
 5715 00c0 0B       		.uleb128 0xb
 5716 00c1 0B       		.uleb128 0xb
 5717 00c2 3A       		.uleb128 0x3a
 5718 00c3 0B       		.uleb128 0xb
 5719 00c4 3B       		.uleb128 0x3b
 5720 00c5 05       		.uleb128 0x5
 5721 00c6 01       		.uleb128 0x1
 5722 00c7 13       		.uleb128 0x13
 5723 00c8 00       		.byte	0
 5724 00c9 00       		.byte	0
 5725 00ca 13       		.uleb128 0x13
 5726 00cb 0D       		.uleb128 0xd
 5727 00cc 00       		.byte	0
 5728 00cd 03       		.uleb128 0x3
 5729 00ce 0E       		.uleb128 0xe
 5730 00cf 3A       		.uleb128 0x3a
 5731 00d0 0B       		.uleb128 0xb
 5732 00d1 3B       		.uleb128 0x3b
 5733 00d2 05       		.uleb128 0x5
 5734 00d3 49       		.uleb128 0x49
 5735 00d4 13       		.uleb128 0x13
 5736 00d5 38       		.uleb128 0x38
 5737 00d6 0B       		.uleb128 0xb
 5738 00d7 00       		.byte	0
 5739 00d8 00       		.byte	0
 5740 00d9 14       		.uleb128 0x14
 5741 00da 13       		.uleb128 0x13
 5742 00db 01       		.byte	0x1
 5743 00dc 03       		.uleb128 0x3
 5744 00dd 0E       		.uleb128 0xe
 5745 00de 0B       		.uleb128 0xb
 5746 00df 0B       		.uleb128 0xb
 5747 00e0 3A       		.uleb128 0x3a
 5748 00e1 0B       		.uleb128 0xb
 5749 00e2 3B       		.uleb128 0x3b
 5750 00e3 0B       		.uleb128 0xb
 5751 00e4 01       		.uleb128 0x1
 5752 00e5 13       		.uleb128 0x13
 5753 00e6 00       		.byte	0
 5754 00e7 00       		.byte	0
 5755 00e8 15       		.uleb128 0x15
 5756 00e9 13       		.uleb128 0x13
 5757 00ea 01       		.byte	0x1
ARM GAS  C:\Users\tmj32\AppData\Local\Temp\cch6Xcfo.s 			page 127


 5758 00eb 03       		.uleb128 0x3
 5759 00ec 0E       		.uleb128 0xe
 5760 00ed 0B       		.uleb128 0xb
 5761 00ee 05       		.uleb128 0x5
 5762 00ef 3A       		.uleb128 0x3a
 5763 00f0 0B       		.uleb128 0xb
 5764 00f1 3B       		.uleb128 0x3b
 5765 00f2 0B       		.uleb128 0xb
 5766 00f3 01       		.uleb128 0x1
 5767 00f4 13       		.uleb128 0x13
 5768 00f5 00       		.byte	0
 5769 00f6 00       		.byte	0
 5770 00f7 16       		.uleb128 0x16
 5771 00f8 0D       		.uleb128 0xd
 5772 00f9 00       		.byte	0
 5773 00fa 03       		.uleb128 0x3
 5774 00fb 08       		.uleb128 0x8
 5775 00fc 3A       		.uleb128 0x3a
 5776 00fd 0B       		.uleb128 0xb
 5777 00fe 3B       		.uleb128 0x3b
 5778 00ff 0B       		.uleb128 0xb
 5779 0100 49       		.uleb128 0x49
 5780 0101 13       		.uleb128 0x13
 5781 0102 38       		.uleb128 0x38
 5782 0103 0B       		.uleb128 0xb
 5783 0104 00       		.byte	0
 5784 0105 00       		.byte	0
 5785 0106 17       		.uleb128 0x17
 5786 0107 21       		.uleb128 0x21
 5787 0108 00       		.byte	0
 5788 0109 49       		.uleb128 0x49
 5789 010a 13       		.uleb128 0x13
 5790 010b 2F       		.uleb128 0x2f
 5791 010c 05       		.uleb128 0x5
 5792 010d 00       		.byte	0
 5793 010e 00       		.byte	0
 5794 010f 18       		.uleb128 0x18
 5795 0110 17       		.uleb128 0x17
 5796 0111 01       		.byte	0x1
 5797 0112 0B       		.uleb128 0xb
 5798 0113 0B       		.uleb128 0xb
 5799 0114 3A       		.uleb128 0x3a
 5800 0115 0B       		.uleb128 0xb
 5801 0116 3B       		.uleb128 0x3b
 5802 0117 0B       		.uleb128 0xb
 5803 0118 01       		.uleb128 0x1
 5804 0119 13       		.uleb128 0x13
 5805 011a 00       		.byte	0
 5806 011b 00       		.byte	0
 5807 011c 19       		.uleb128 0x19
 5808 011d 0D       		.uleb128 0xd
 5809 011e 00       		.byte	0
 5810 011f 03       		.uleb128 0x3
 5811 0120 08       		.uleb128 0x8
 5812 0121 3A       		.uleb128 0x3a
 5813 0122 0B       		.uleb128 0xb
 5814 0123 3B       		.uleb128 0x3b
ARM GAS  C:\Users\tmj32\AppData\Local\Temp\cch6Xcfo.s 			page 128


 5815 0124 0B       		.uleb128 0xb
 5816 0125 49       		.uleb128 0x49
 5817 0126 13       		.uleb128 0x13
 5818 0127 00       		.byte	0
 5819 0128 00       		.byte	0
 5820 0129 1A       		.uleb128 0x1a
 5821 012a 0D       		.uleb128 0xd
 5822 012b 00       		.byte	0
 5823 012c 03       		.uleb128 0x3
 5824 012d 0E       		.uleb128 0xe
 5825 012e 3A       		.uleb128 0x3a
 5826 012f 0B       		.uleb128 0xb
 5827 0130 3B       		.uleb128 0x3b
 5828 0131 0B       		.uleb128 0xb
 5829 0132 49       		.uleb128 0x49
 5830 0133 13       		.uleb128 0x13
 5831 0134 00       		.byte	0
 5832 0135 00       		.byte	0
 5833 0136 1B       		.uleb128 0x1b
 5834 0137 26       		.uleb128 0x26
 5835 0138 00       		.byte	0
 5836 0139 49       		.uleb128 0x49
 5837 013a 13       		.uleb128 0x13
 5838 013b 00       		.byte	0
 5839 013c 00       		.byte	0
 5840 013d 1C       		.uleb128 0x1c
 5841 013e 0D       		.uleb128 0xd
 5842 013f 00       		.byte	0
 5843 0140 03       		.uleb128 0x3
 5844 0141 0E       		.uleb128 0xe
 5845 0142 3A       		.uleb128 0x3a
 5846 0143 0B       		.uleb128 0xb
 5847 0144 3B       		.uleb128 0x3b
 5848 0145 0B       		.uleb128 0xb
 5849 0146 49       		.uleb128 0x49
 5850 0147 13       		.uleb128 0x13
 5851 0148 0B       		.uleb128 0xb
 5852 0149 0B       		.uleb128 0xb
 5853 014a 0D       		.uleb128 0xd
 5854 014b 0B       		.uleb128 0xb
 5855 014c 0C       		.uleb128 0xc
 5856 014d 0B       		.uleb128 0xb
 5857 014e 38       		.uleb128 0x38
 5858 014f 0B       		.uleb128 0xb
 5859 0150 00       		.byte	0
 5860 0151 00       		.byte	0
 5861 0152 1D       		.uleb128 0x1d
 5862 0153 0D       		.uleb128 0xd
 5863 0154 00       		.byte	0
 5864 0155 03       		.uleb128 0x3
 5865 0156 08       		.uleb128 0x8
 5866 0157 3A       		.uleb128 0x3a
 5867 0158 0B       		.uleb128 0xb
 5868 0159 3B       		.uleb128 0x3b
 5869 015a 0B       		.uleb128 0xb
 5870 015b 49       		.uleb128 0x49
 5871 015c 13       		.uleb128 0x13
ARM GAS  C:\Users\tmj32\AppData\Local\Temp\cch6Xcfo.s 			page 129


 5872 015d 0B       		.uleb128 0xb
 5873 015e 0B       		.uleb128 0xb
 5874 015f 0D       		.uleb128 0xd
 5875 0160 0B       		.uleb128 0xb
 5876 0161 0C       		.uleb128 0xc
 5877 0162 0B       		.uleb128 0xb
 5878 0163 38       		.uleb128 0x38
 5879 0164 0B       		.uleb128 0xb
 5880 0165 00       		.byte	0
 5881 0166 00       		.byte	0
 5882 0167 1E       		.uleb128 0x1e
 5883 0168 04       		.uleb128 0x4
 5884 0169 01       		.byte	0x1
 5885 016a 0B       		.uleb128 0xb
 5886 016b 0B       		.uleb128 0xb
 5887 016c 49       		.uleb128 0x49
 5888 016d 13       		.uleb128 0x13
 5889 016e 3A       		.uleb128 0x3a
 5890 016f 0B       		.uleb128 0xb
 5891 0170 3B       		.uleb128 0x3b
 5892 0171 0B       		.uleb128 0xb
 5893 0172 01       		.uleb128 0x1
 5894 0173 13       		.uleb128 0x13
 5895 0174 00       		.byte	0
 5896 0175 00       		.byte	0
 5897 0176 1F       		.uleb128 0x1f
 5898 0177 2E       		.uleb128 0x2e
 5899 0178 01       		.byte	0x1
 5900 0179 03       		.uleb128 0x3
 5901 017a 0E       		.uleb128 0xe
 5902 017b 3A       		.uleb128 0x3a
 5903 017c 0B       		.uleb128 0xb
 5904 017d 3B       		.uleb128 0x3b
 5905 017e 05       		.uleb128 0x5
 5906 017f 27       		.uleb128 0x27
 5907 0180 19       		.uleb128 0x19
 5908 0181 49       		.uleb128 0x49
 5909 0182 13       		.uleb128 0x13
 5910 0183 11       		.uleb128 0x11
 5911 0184 01       		.uleb128 0x1
 5912 0185 12       		.uleb128 0x12
 5913 0186 06       		.uleb128 0x6
 5914 0187 40       		.uleb128 0x40
 5915 0188 18       		.uleb128 0x18
 5916 0189 9742     		.uleb128 0x2117
 5917 018b 19       		.uleb128 0x19
 5918 018c 01       		.uleb128 0x1
 5919 018d 13       		.uleb128 0x13
 5920 018e 00       		.byte	0
 5921 018f 00       		.byte	0
 5922 0190 20       		.uleb128 0x20
 5923 0191 05       		.uleb128 0x5
 5924 0192 00       		.byte	0
 5925 0193 03       		.uleb128 0x3
 5926 0194 08       		.uleb128 0x8
 5927 0195 3A       		.uleb128 0x3a
 5928 0196 0B       		.uleb128 0xb
ARM GAS  C:\Users\tmj32\AppData\Local\Temp\cch6Xcfo.s 			page 130


 5929 0197 3B       		.uleb128 0x3b
 5930 0198 05       		.uleb128 0x5
 5931 0199 49       		.uleb128 0x49
 5932 019a 13       		.uleb128 0x13
 5933 019b 02       		.uleb128 0x2
 5934 019c 18       		.uleb128 0x18
 5935 019d 00       		.byte	0
 5936 019e 00       		.byte	0
 5937 019f 21       		.uleb128 0x21
 5938 01a0 2E       		.uleb128 0x2e
 5939 01a1 01       		.byte	0x1
 5940 01a2 03       		.uleb128 0x3
 5941 01a3 0E       		.uleb128 0xe
 5942 01a4 3A       		.uleb128 0x3a
 5943 01a5 0B       		.uleb128 0xb
 5944 01a6 3B       		.uleb128 0x3b
 5945 01a7 05       		.uleb128 0x5
 5946 01a8 27       		.uleb128 0x27
 5947 01a9 19       		.uleb128 0x19
 5948 01aa 49       		.uleb128 0x49
 5949 01ab 13       		.uleb128 0x13
 5950 01ac 11       		.uleb128 0x11
 5951 01ad 01       		.uleb128 0x1
 5952 01ae 12       		.uleb128 0x12
 5953 01af 06       		.uleb128 0x6
 5954 01b0 40       		.uleb128 0x40
 5955 01b1 18       		.uleb128 0x18
 5956 01b2 9642     		.uleb128 0x2116
 5957 01b4 19       		.uleb128 0x19
 5958 01b5 01       		.uleb128 0x1
 5959 01b6 13       		.uleb128 0x13
 5960 01b7 00       		.byte	0
 5961 01b8 00       		.byte	0
 5962 01b9 22       		.uleb128 0x22
 5963 01ba 2E       		.uleb128 0x2e
 5964 01bb 00       		.byte	0
 5965 01bc 03       		.uleb128 0x3
 5966 01bd 0E       		.uleb128 0xe
 5967 01be 3A       		.uleb128 0x3a
 5968 01bf 0B       		.uleb128 0xb
 5969 01c0 3B       		.uleb128 0x3b
 5970 01c1 0B       		.uleb128 0xb
 5971 01c2 27       		.uleb128 0x27
 5972 01c3 19       		.uleb128 0x19
 5973 01c4 49       		.uleb128 0x49
 5974 01c5 13       		.uleb128 0x13
 5975 01c6 11       		.uleb128 0x11
 5976 01c7 01       		.uleb128 0x1
 5977 01c8 12       		.uleb128 0x12
 5978 01c9 06       		.uleb128 0x6
 5979 01ca 40       		.uleb128 0x40
 5980 01cb 18       		.uleb128 0x18
 5981 01cc 9642     		.uleb128 0x2116
 5982 01ce 19       		.uleb128 0x19
 5983 01cf 00       		.byte	0
 5984 01d0 00       		.byte	0
 5985 01d1 23       		.uleb128 0x23
ARM GAS  C:\Users\tmj32\AppData\Local\Temp\cch6Xcfo.s 			page 131


 5986 01d2 2E       		.uleb128 0x2e
 5987 01d3 01       		.byte	0x1
 5988 01d4 03       		.uleb128 0x3
 5989 01d5 0E       		.uleb128 0xe
 5990 01d6 3A       		.uleb128 0x3a
 5991 01d7 0B       		.uleb128 0xb
 5992 01d8 3B       		.uleb128 0x3b
 5993 01d9 0B       		.uleb128 0xb
 5994 01da 27       		.uleb128 0x27
 5995 01db 19       		.uleb128 0x19
 5996 01dc 11       		.uleb128 0x11
 5997 01dd 01       		.uleb128 0x1
 5998 01de 12       		.uleb128 0x12
 5999 01df 06       		.uleb128 0x6
 6000 01e0 40       		.uleb128 0x40
 6001 01e1 18       		.uleb128 0x18
 6002 01e2 9642     		.uleb128 0x2116
 6003 01e4 19       		.uleb128 0x19
 6004 01e5 01       		.uleb128 0x1
 6005 01e6 13       		.uleb128 0x13
 6006 01e7 00       		.byte	0
 6007 01e8 00       		.byte	0
 6008 01e9 24       		.uleb128 0x24
 6009 01ea 05       		.uleb128 0x5
 6010 01eb 00       		.byte	0
 6011 01ec 03       		.uleb128 0x3
 6012 01ed 0E       		.uleb128 0xe
 6013 01ee 3A       		.uleb128 0x3a
 6014 01ef 0B       		.uleb128 0xb
 6015 01f0 3B       		.uleb128 0x3b
 6016 01f1 0B       		.uleb128 0xb
 6017 01f2 49       		.uleb128 0x49
 6018 01f3 13       		.uleb128 0x13
 6019 01f4 02       		.uleb128 0x2
 6020 01f5 18       		.uleb128 0x18
 6021 01f6 00       		.byte	0
 6022 01f7 00       		.byte	0
 6023 01f8 25       		.uleb128 0x25
 6024 01f9 05       		.uleb128 0x5
 6025 01fa 00       		.byte	0
 6026 01fb 03       		.uleb128 0x3
 6027 01fc 08       		.uleb128 0x8
 6028 01fd 3A       		.uleb128 0x3a
 6029 01fe 0B       		.uleb128 0xb
 6030 01ff 3B       		.uleb128 0x3b
 6031 0200 0B       		.uleb128 0xb
 6032 0201 49       		.uleb128 0x49
 6033 0202 13       		.uleb128 0x13
 6034 0203 02       		.uleb128 0x2
 6035 0204 18       		.uleb128 0x18
 6036 0205 00       		.byte	0
 6037 0206 00       		.byte	0
 6038 0207 26       		.uleb128 0x26
 6039 0208 2E       		.uleb128 0x2e
 6040 0209 01       		.byte	0x1
 6041 020a 03       		.uleb128 0x3
 6042 020b 0E       		.uleb128 0xe
ARM GAS  C:\Users\tmj32\AppData\Local\Temp\cch6Xcfo.s 			page 132


 6043 020c 3A       		.uleb128 0x3a
 6044 020d 0B       		.uleb128 0xb
 6045 020e 3B       		.uleb128 0x3b
 6046 020f 0B       		.uleb128 0xb
 6047 0210 27       		.uleb128 0x27
 6048 0211 19       		.uleb128 0x19
 6049 0212 49       		.uleb128 0x49
 6050 0213 13       		.uleb128 0x13
 6051 0214 11       		.uleb128 0x11
 6052 0215 01       		.uleb128 0x1
 6053 0216 12       		.uleb128 0x12
 6054 0217 06       		.uleb128 0x6
 6055 0218 40       		.uleb128 0x40
 6056 0219 18       		.uleb128 0x18
 6057 021a 9642     		.uleb128 0x2116
 6058 021c 19       		.uleb128 0x19
 6059 021d 01       		.uleb128 0x1
 6060 021e 13       		.uleb128 0x13
 6061 021f 00       		.byte	0
 6062 0220 00       		.byte	0
 6063 0221 27       		.uleb128 0x27
 6064 0222 2E       		.uleb128 0x2e
 6065 0223 01       		.byte	0x1
 6066 0224 03       		.uleb128 0x3
 6067 0225 0E       		.uleb128 0xe
 6068 0226 3A       		.uleb128 0x3a
 6069 0227 0B       		.uleb128 0xb
 6070 0228 3B       		.uleb128 0x3b
 6071 0229 0B       		.uleb128 0xb
 6072 022a 11       		.uleb128 0x11
 6073 022b 01       		.uleb128 0x1
 6074 022c 12       		.uleb128 0x12
 6075 022d 06       		.uleb128 0x6
 6076 022e 40       		.uleb128 0x40
 6077 022f 18       		.uleb128 0x18
 6078 0230 9642     		.uleb128 0x2116
 6079 0232 19       		.uleb128 0x19
 6080 0233 01       		.uleb128 0x1
 6081 0234 13       		.uleb128 0x13
 6082 0235 00       		.byte	0
 6083 0236 00       		.byte	0
 6084 0237 28       		.uleb128 0x28
 6085 0238 34       		.uleb128 0x34
 6086 0239 00       		.byte	0
 6087 023a 03       		.uleb128 0x3
 6088 023b 0E       		.uleb128 0xe
 6089 023c 3A       		.uleb128 0x3a
 6090 023d 0B       		.uleb128 0xb
 6091 023e 3B       		.uleb128 0x3b
 6092 023f 0B       		.uleb128 0xb
 6093 0240 49       		.uleb128 0x49
 6094 0241 13       		.uleb128 0x13
 6095 0242 02       		.uleb128 0x2
 6096 0243 18       		.uleb128 0x18
 6097 0244 00       		.byte	0
 6098 0245 00       		.byte	0
 6099 0246 29       		.uleb128 0x29
ARM GAS  C:\Users\tmj32\AppData\Local\Temp\cch6Xcfo.s 			page 133


 6100 0247 34       		.uleb128 0x34
 6101 0248 00       		.byte	0
 6102 0249 03       		.uleb128 0x3
 6103 024a 08       		.uleb128 0x8
 6104 024b 3A       		.uleb128 0x3a
 6105 024c 0B       		.uleb128 0xb
 6106 024d 3B       		.uleb128 0x3b
 6107 024e 0B       		.uleb128 0xb
 6108 024f 49       		.uleb128 0x49
 6109 0250 13       		.uleb128 0x13
 6110 0251 02       		.uleb128 0x2
 6111 0252 18       		.uleb128 0x18
 6112 0253 00       		.byte	0
 6113 0254 00       		.byte	0
 6114 0255 2A       		.uleb128 0x2a
 6115 0256 0B       		.uleb128 0xb
 6116 0257 01       		.byte	0x1
 6117 0258 11       		.uleb128 0x11
 6118 0259 01       		.uleb128 0x1
 6119 025a 12       		.uleb128 0x12
 6120 025b 06       		.uleb128 0x6
 6121 025c 00       		.byte	0
 6122 025d 00       		.byte	0
 6123 025e 2B       		.uleb128 0x2b
 6124 025f 0B       		.uleb128 0xb
 6125 0260 01       		.byte	0x1
 6126 0261 55       		.uleb128 0x55
 6127 0262 17       		.uleb128 0x17
 6128 0263 00       		.byte	0
 6129 0264 00       		.byte	0
 6130 0265 2C       		.uleb128 0x2c
 6131 0266 2E       		.uleb128 0x2e
 6132 0267 01       		.byte	0x1
 6133 0268 3F       		.uleb128 0x3f
 6134 0269 19       		.uleb128 0x19
 6135 026a 03       		.uleb128 0x3
 6136 026b 0E       		.uleb128 0xe
 6137 026c 3A       		.uleb128 0x3a
 6138 026d 0B       		.uleb128 0xb
 6139 026e 3B       		.uleb128 0x3b
 6140 026f 05       		.uleb128 0x5
 6141 0270 11       		.uleb128 0x11
 6142 0271 01       		.uleb128 0x1
 6143 0272 12       		.uleb128 0x12
 6144 0273 06       		.uleb128 0x6
 6145 0274 40       		.uleb128 0x40
 6146 0275 18       		.uleb128 0x18
 6147 0276 9642     		.uleb128 0x2116
 6148 0278 19       		.uleb128 0x19
 6149 0279 01       		.uleb128 0x1
 6150 027a 13       		.uleb128 0x13
 6151 027b 00       		.byte	0
 6152 027c 00       		.byte	0
 6153 027d 2D       		.uleb128 0x2d
 6154 027e 34       		.uleb128 0x34
 6155 027f 00       		.byte	0
 6156 0280 03       		.uleb128 0x3
ARM GAS  C:\Users\tmj32\AppData\Local\Temp\cch6Xcfo.s 			page 134


 6157 0281 0E       		.uleb128 0xe
 6158 0282 3A       		.uleb128 0x3a
 6159 0283 0B       		.uleb128 0xb
 6160 0284 3B       		.uleb128 0x3b
 6161 0285 05       		.uleb128 0x5
 6162 0286 49       		.uleb128 0x49
 6163 0287 13       		.uleb128 0x13
 6164 0288 02       		.uleb128 0x2
 6165 0289 18       		.uleb128 0x18
 6166 028a 00       		.byte	0
 6167 028b 00       		.byte	0
 6168 028c 2E       		.uleb128 0x2e
 6169 028d 34       		.uleb128 0x34
 6170 028e 00       		.byte	0
 6171 028f 03       		.uleb128 0x3
 6172 0290 08       		.uleb128 0x8
 6173 0291 3A       		.uleb128 0x3a
 6174 0292 0B       		.uleb128 0xb
 6175 0293 3B       		.uleb128 0x3b
 6176 0294 05       		.uleb128 0x5
 6177 0295 49       		.uleb128 0x49
 6178 0296 13       		.uleb128 0x13
 6179 0297 02       		.uleb128 0x2
 6180 0298 18       		.uleb128 0x18
 6181 0299 00       		.byte	0
 6182 029a 00       		.byte	0
 6183 029b 2F       		.uleb128 0x2f
 6184 029c 34       		.uleb128 0x34
 6185 029d 00       		.byte	0
 6186 029e 03       		.uleb128 0x3
 6187 029f 0E       		.uleb128 0xe
 6188 02a0 3A       		.uleb128 0x3a
 6189 02a1 0B       		.uleb128 0xb
 6190 02a2 3B       		.uleb128 0x3b
 6191 02a3 05       		.uleb128 0x5
 6192 02a4 49       		.uleb128 0x49
 6193 02a5 13       		.uleb128 0x13
 6194 02a6 3F       		.uleb128 0x3f
 6195 02a7 19       		.uleb128 0x19
 6196 02a8 3C       		.uleb128 0x3c
 6197 02a9 19       		.uleb128 0x19
 6198 02aa 00       		.byte	0
 6199 02ab 00       		.byte	0
 6200 02ac 30       		.uleb128 0x30
 6201 02ad 34       		.uleb128 0x34
 6202 02ae 00       		.byte	0
 6203 02af 03       		.uleb128 0x3
 6204 02b0 0E       		.uleb128 0xe
 6205 02b1 3A       		.uleb128 0x3a
 6206 02b2 0B       		.uleb128 0xb
 6207 02b3 3B       		.uleb128 0x3b
 6208 02b4 0B       		.uleb128 0xb
 6209 02b5 49       		.uleb128 0x49
 6210 02b6 13       		.uleb128 0x13
 6211 02b7 3F       		.uleb128 0x3f
 6212 02b8 19       		.uleb128 0x19
 6213 02b9 3C       		.uleb128 0x3c
ARM GAS  C:\Users\tmj32\AppData\Local\Temp\cch6Xcfo.s 			page 135


 6214 02ba 19       		.uleb128 0x19
 6215 02bb 00       		.byte	0
 6216 02bc 00       		.byte	0
 6217 02bd 31       		.uleb128 0x31
 6218 02be 34       		.uleb128 0x34
 6219 02bf 00       		.byte	0
 6220 02c0 03       		.uleb128 0x3
 6221 02c1 08       		.uleb128 0x8
 6222 02c2 3A       		.uleb128 0x3a
 6223 02c3 0B       		.uleb128 0xb
 6224 02c4 3B       		.uleb128 0x3b
 6225 02c5 0B       		.uleb128 0xb
 6226 02c6 49       		.uleb128 0x49
 6227 02c7 13       		.uleb128 0x13
 6228 02c8 3F       		.uleb128 0x3f
 6229 02c9 19       		.uleb128 0x19
 6230 02ca 02       		.uleb128 0x2
 6231 02cb 18       		.uleb128 0x18
 6232 02cc 00       		.byte	0
 6233 02cd 00       		.byte	0
 6234 02ce 32       		.uleb128 0x32
 6235 02cf 34       		.uleb128 0x34
 6236 02d0 00       		.byte	0
 6237 02d1 03       		.uleb128 0x3
 6238 02d2 0E       		.uleb128 0xe
 6239 02d3 3A       		.uleb128 0x3a
 6240 02d4 0B       		.uleb128 0xb
 6241 02d5 3B       		.uleb128 0x3b
 6242 02d6 0B       		.uleb128 0xb
 6243 02d7 49       		.uleb128 0x49
 6244 02d8 13       		.uleb128 0x13
 6245 02d9 3F       		.uleb128 0x3f
 6246 02da 19       		.uleb128 0x19
 6247 02db 02       		.uleb128 0x2
 6248 02dc 18       		.uleb128 0x18
 6249 02dd 00       		.byte	0
 6250 02de 00       		.byte	0
 6251 02df 00       		.byte	0
 6252              		.section	.debug_aranges,"",%progbits
 6253 0000 9C000000 		.4byte	0x9c
 6254 0004 0200     		.2byte	0x2
 6255 0006 00000000 		.4byte	.Ldebug_info0
 6256 000a 04       		.byte	0x4
 6257 000b 00       		.byte	0
 6258 000c 0000     		.2byte	0
 6259 000e 0000     		.2byte	0
 6260 0010 00000000 		.4byte	.LFB588
 6261 0014 38000000 		.4byte	.LFE588-.LFB588
 6262 0018 00000000 		.4byte	.LFB589
 6263 001c 28000000 		.4byte	.LFE589-.LFB589
 6264 0020 00000000 		.4byte	.LFB613
 6265 0024 16000000 		.4byte	.LFE613-.LFB613
 6266 0028 00000000 		.4byte	.LFB668
 6267 002c 26000000 		.4byte	.LFE668-.LFB668
 6268 0030 00000000 		.4byte	.LFB669
 6269 0034 28000000 		.4byte	.LFE669-.LFB669
 6270 0038 00000000 		.4byte	.LFB687
ARM GAS  C:\Users\tmj32\AppData\Local\Temp\cch6Xcfo.s 			page 136


 6271 003c 22000000 		.4byte	.LFE687-.LFB687
 6272 0040 00000000 		.4byte	.LFB714
 6273 0044 22000000 		.4byte	.LFE714-.LFB714
 6274 0048 00000000 		.4byte	.LFB717
 6275 004c B4030000 		.4byte	.LFE717-.LFB717
 6276 0050 00000000 		.4byte	.LFB718
 6277 0054 84000000 		.4byte	.LFE718-.LFB718
 6278 0058 00000000 		.4byte	.LFB719
 6279 005c 28000000 		.4byte	.LFE719-.LFB719
 6280 0060 00000000 		.4byte	.LFB720
 6281 0064 40000000 		.4byte	.LFE720-.LFB720
 6282 0068 00000000 		.4byte	.LFB721
 6283 006c 74000000 		.4byte	.LFE721-.LFB721
 6284 0070 00000000 		.4byte	.LFB722
 6285 0074 78000000 		.4byte	.LFE722-.LFB722
 6286 0078 00000000 		.4byte	.LFB723
 6287 007c E0000000 		.4byte	.LFE723-.LFB723
 6288 0080 00000000 		.4byte	.LFB724
 6289 0084 E0000000 		.4byte	.LFE724-.LFB724
 6290 0088 00000000 		.4byte	.LFB725
 6291 008c 30000000 		.4byte	.LFE725-.LFB725
 6292 0090 00000000 		.4byte	.LFB726
 6293 0094 A0040000 		.4byte	.LFE726-.LFB726
 6294 0098 00000000 		.4byte	0
 6295 009c 00000000 		.4byte	0
 6296              		.section	.debug_ranges,"",%progbits
 6297              	.Ldebug_ranges0:
 6298 0000 12000000 		.4byte	.LBB3
 6299 0004 38000000 		.4byte	.LBE3
 6300 0008 3A000000 		.4byte	.LBB4
 6301 000c 52000000 		.4byte	.LBE4
 6302 0010 54000000 		.4byte	.LBB5
 6303 0014 6C000000 		.4byte	.LBE5
 6304 0018 00000000 		.4byte	0
 6305 001c 00000000 		.4byte	0
 6306 0020 00000000 		.4byte	.LFB588
 6307 0024 38000000 		.4byte	.LFE588
 6308 0028 00000000 		.4byte	.LFB589
 6309 002c 28000000 		.4byte	.LFE589
 6310 0030 00000000 		.4byte	.LFB613
 6311 0034 16000000 		.4byte	.LFE613
 6312 0038 00000000 		.4byte	.LFB668
 6313 003c 26000000 		.4byte	.LFE668
 6314 0040 00000000 		.4byte	.LFB669
 6315 0044 28000000 		.4byte	.LFE669
 6316 0048 00000000 		.4byte	.LFB687
 6317 004c 22000000 		.4byte	.LFE687
 6318 0050 00000000 		.4byte	.LFB714
 6319 0054 22000000 		.4byte	.LFE714
 6320 0058 00000000 		.4byte	.LFB717
 6321 005c B4030000 		.4byte	.LFE717
 6322 0060 00000000 		.4byte	.LFB718
 6323 0064 84000000 		.4byte	.LFE718
 6324 0068 00000000 		.4byte	.LFB719
 6325 006c 28000000 		.4byte	.LFE719
 6326 0070 00000000 		.4byte	.LFB720
 6327 0074 40000000 		.4byte	.LFE720
ARM GAS  C:\Users\tmj32\AppData\Local\Temp\cch6Xcfo.s 			page 137


 6328 0078 00000000 		.4byte	.LFB721
 6329 007c 74000000 		.4byte	.LFE721
 6330 0080 00000000 		.4byte	.LFB722
 6331 0084 78000000 		.4byte	.LFE722
 6332 0088 00000000 		.4byte	.LFB723
 6333 008c E0000000 		.4byte	.LFE723
 6334 0090 00000000 		.4byte	.LFB724
 6335 0094 E0000000 		.4byte	.LFE724
 6336 0098 00000000 		.4byte	.LFB725
 6337 009c 30000000 		.4byte	.LFE725
 6338 00a0 00000000 		.4byte	.LFB726
 6339 00a4 A0040000 		.4byte	.LFE726
 6340 00a8 00000000 		.4byte	0
 6341 00ac 00000000 		.4byte	0
 6342              		.section	.debug_line,"",%progbits
 6343              	.Ldebug_line0:
 6344 0000 30070000 		.section	.debug_str,"MS",%progbits,1
 6344      0200D404 
 6344      00000201 
 6344      FB0E0D00 
 6344      01010101 
 6345              	.LASF190:
 6346 0000 4761696E 		.ascii	"Gain\000"
 6346      00
 6347              	.LASF9:
 6348 0005 6C6F6E67 		.ascii	"long int\000"
 6348      20696E74 
 6348      00
 6349              	.LASF381:
 6350 000e 6F666673 		.ascii	"offset_slider_event_cb\000"
 6350      65745F73 
 6350      6C696465 
 6350      725F6576 
 6350      656E745F 
 6351              	.LASF209:
 6352 0025 5F6C765F 		.ascii	"_lv_obj_t\000"
 6352      6F626A5F 
 6352      7400
 6353              	.LASF141:
 6354 002f 63795F63 		.ascii	"cy_cb_scb_spi_handle_events_t\000"
 6354      625F7363 
 6354      625F7370 
 6354      695F6861 
 6354      6E646C65 
 6355              	.LASF406:
 6356 004d 44495350 		.ascii	"DISP_TICK_TIMER_config\000"
 6356      5F544943 
 6356      4B5F5449 
 6356      4D45525F 
 6356      636F6E66 
 6357              	.LASF204:
 6358 0064 66756C6C 		.ascii	"full\000"
 6358      00
 6359              	.LASF169:
 6360 0069 73746F70 		.ascii	"stopInputMode\000"
 6360      496E7075 
 6360      744D6F64 
ARM GAS  C:\Users\tmj32\AppData\Local\Temp\cch6Xcfo.s 			page 138


 6360      6500
 6361              	.LASF363:
 6362 0077 6C765F72 		.ascii	"lv_roller_get_selected_str\000"
 6362      6F6C6C65 
 6362      725F6765 
 6362      745F7365 
 6362      6C656374 
 6363              	.LASF405:
 6364 0092 63795F64 		.ascii	"cy_device\000"
 6364      65766963 
 6364      6500
 6365              	.LASF407:
 6366 009c 4932435F 		.ascii	"I2C_MASTER_context\000"
 6366      4D415354 
 6366      45525F63 
 6366      6F6E7465 
 6366      787400
 6367              	.LASF372:
 6368 00af 63686172 		.ascii	"chart1\000"
 6368      743100
 6369              	.LASF341:
 6370 00b6 4C565F4C 		.ascii	"LV_LABEL_LONG_DOT\000"
 6370      4142454C 
 6370      5F4C4F4E 
 6370      475F444F 
 6370      5400
 6371              	.LASF94:
 6372 00c8 63707573 		.ascii	"cpussCm0ClockCtlOffset\000"
 6372      73436D30 
 6372      436C6F63 
 6372      6B43746C 
 6372      4F666673 
 6373              	.LASF53:
 6374 00df 70657269 		.ascii	"periClockNr\000"
 6374      436C6F63 
 6374      6B4E7200 
 6375              	.LASF122:
 6376 00eb 6D617374 		.ascii	"masterStatus\000"
 6376      65725374 
 6376      61747573 
 6376      00
 6377              	.LASF189:
 6378 00f8 56657274 		.ascii	"VertScale\000"
 6378      5363616C 
 6378      6500
 6379              	.LASF27:
 6380 0102 75646242 		.ascii	"udbBase\000"
 6380      61736500 
 6381              	.LASF292:
 6382 010a 4C565F45 		.ascii	"LV_EVENT_VALUE_CHANGED\000"
 6382      56454E54 
 6382      5F56414C 
 6382      55455F43 
 6382      48414E47 
 6383              	.LASF26:
 6384 0121 70657269 		.ascii	"periBase\000"
 6384      42617365 
ARM GAS  C:\Users\tmj32\AppData\Local\Temp\cch6Xcfo.s 			page 139


 6384      00
 6385              	.LASF178:
 6386 012a 56657273 		.ascii	"VersionID\000"
 6386      696F6E49 
 6386      4400
 6387              	.LASF384:
 6388 0134 686F7269 		.ascii	"hori_slider_event_cb\000"
 6388      5F736C69 
 6388      6465725F 
 6388      6576656E 
 6388      745F6362 
 6389              	.LASF294:
 6390 0149 4C565F45 		.ascii	"LV_EVENT_REFRESH\000"
 6390      56454E54 
 6390      5F524546 
 6390      52455348 
 6390      00
 6391              	.LASF225:
 6392 015a 62617365 		.ascii	"base_dir\000"
 6392      5F646972 
 6392      00
 6393              	.LASF223:
 6394 0163 70617265 		.ascii	"parent_event\000"
 6394      6E745F65 
 6394      76656E74 
 6394      00
 6395              	.LASF72:
 6396 0170 64774368 		.ascii	"dwChSize\000"
 6396      53697A65 
 6396      00
 6397              	.LASF191:
 6398 0179 54784275 		.ascii	"TxBuffer\000"
 6398      66666572 
 6398      00
 6399              	.LASF302:
 6400 0182 4C565F41 		.ascii	"LV_ALIGN_CENTER\000"
 6400      4C49474E 
 6400      5F43454E 
 6400      54455200 
 6401              	.LASF219:
 6402 0192 64726167 		.ascii	"drag_throw\000"
 6402      5F746872 
 6402      6F7700
 6403              	.LASF14:
 6404 019d 756E7369 		.ascii	"unsigned int\000"
 6404      676E6564 
 6404      20696E74 
 6404      00
 6405              	.LASF234:
 6406 01aa 6F66735F 		.ascii	"ofs_x\000"
 6406      7800
 6407              	.LASF235:
 6408 01b0 6F66735F 		.ascii	"ofs_y\000"
 6408      7900
 6409              	.LASF127:
 6410 01b6 6D617374 		.ascii	"masterBufferIdx\000"
 6410      65724275 
ARM GAS  C:\Users\tmj32\AppData\Local\Temp\cch6Xcfo.s 			page 140


 6410      66666572 
 6410      49647800 
 6411              	.LASF54:
 6412 01c6 736D6966 		.ascii	"smifDeviceNr\000"
 6412      44657669 
 6412      63654E72 
 6412      00
 6413              	.LASF238:
 6414 01d3 6765745F 		.ascii	"get_glyph_dsc\000"
 6414      676C7970 
 6414      685F6473 
 6414      6300
 6415              	.LASF274:
 6416 01e1 6C765F73 		.ascii	"lv_style_t\000"
 6416      74796C65 
 6416      5F7400
 6417              	.LASF73:
 6418 01ec 64774368 		.ascii	"dwChCtlPrioPos\000"
 6418      43746C50 
 6418      72696F50 
 6418      6F7300
 6419              	.LASF168:
 6420 01fb 73746172 		.ascii	"startInput\000"
 6420      74496E70 
 6420      757400
 6421              	.LASF8:
 6422 0206 5F5F696E 		.ascii	"__int32_t\000"
 6422      7433325F 
 6422      7400
 6423              	.LASF50:
 6424 0210 73727373 		.ascii	"srssNumClkpath\000"
 6424      4E756D43 
 6424      6C6B7061 
 6424      746800
 6425              	.LASF309:
 6426 021f 4C565F41 		.ascii	"LV_ALIGN_IN_LEFT_MID\000"
 6426      4C49474E 
 6426      5F494E5F 
 6426      4C454654 
 6426      5F4D4944 
 6427              	.LASF326:
 6428 0234 796F6673 		.ascii	"yofs\000"
 6428      00
 6429              	.LASF24:
 6430 0239 63707573 		.ascii	"cpussBase\000"
 6430      73426173 
 6430      6500
 6431              	.LASF277:
 6432 0243 6C765F64 		.ascii	"lv_design_cb_t\000"
 6432      65736967 
 6432      6E5F6362 
 6432      5F7400
 6433              	.LASF135:
 6434 0252 736C6176 		.ascii	"slaveRxBuffer\000"
 6434      65527842 
 6434      75666665 
 6434      7200
ARM GAS  C:\Users\tmj32\AppData\Local\Temp\cch6Xcfo.s 			page 141


 6435              	.LASF314:
 6436 0260 4C565F41 		.ascii	"LV_ALIGN_OUT_BOTTOM_LEFT\000"
 6436      4C49474E 
 6436      5F4F5554 
 6436      5F424F54 
 6436      544F4D5F 
 6437              	.LASF41:
 6438 0279 70657269 		.ascii	"periVersion\000"
 6438      56657273 
 6438      696F6E00 
 6439              	.LASF264:
 6440 0285 666F6E74 		.ascii	"font\000"
 6440      00
 6441              	.LASF139:
 6442 028a 63624164 		.ascii	"cbAddr\000"
 6442      647200
 6443              	.LASF380:
 6444 0291 73775F65 		.ascii	"sw_event_handler\000"
 6444      76656E74 
 6444      5F68616E 
 6444      646C6572 
 6444      00
 6445              	.LASF295:
 6446 02a2 4C565F45 		.ascii	"LV_EVENT_APPLY\000"
 6446      56454E54 
 6446      5F415050 
 6446      4C5900
 6447              	.LASF170:
 6448 02b1 73746F70 		.ascii	"stopInput\000"
 6448      496E7075 
 6448      7400
 6449              	.LASF186:
 6450 02bb 4F666673 		.ascii	"Offset\000"
 6450      657400
 6451              	.LASF287:
 6452 02c2 4C565F45 		.ascii	"LV_EVENT_DRAG_END\000"
 6452      56454E54 
 6452      5F445241 
 6452      475F454E 
 6452      4400
 6453              	.LASF116:
 6454 02d4 63795F65 		.ascii	"cy_en_scb_i2c_command_t\000"
 6454      6E5F7363 
 6454      625F6932 
 6454      635F636F 
 6454      6D6D616E 
 6455              	.LASF197:
 6456 02ec 6E5F7369 		.ascii	"n_size\000"
 6456      7A6500
 6457              	.LASF130:
 6458 02f3 736C6176 		.ascii	"slaveRdBufEmpty\000"
 6458      65526442 
 6458      7566456D 
 6458      70747900 
 6459              	.LASF80:
 6460 0303 70657269 		.ascii	"periTrGrSize\000"
 6460      54724772 
ARM GAS  C:\Users\tmj32\AppData\Local\Temp\cch6Xcfo.s 			page 142


 6460      53697A65 
 6460      00
 6461              	.LASF60:
 6462 0310 63727970 		.ascii	"cryptoMemSize\000"
 6462      746F4D65 
 6462      6D53697A 
 6462      6500
 6463              	.LASF106:
 6464 031e 63707573 		.ascii	"cpussRam1Ctl0\000"
 6464      7352616D 
 6464      3143746C 
 6464      3000
 6465              	.LASF108:
 6466 032c 69706353 		.ascii	"ipcStructSize\000"
 6466      74727563 
 6466      7453697A 
 6466      6500
 6467              	.LASF115:
 6468 033a 43595F53 		.ascii	"CY_SCB_I2C_NAK\000"
 6468      43425F49 
 6468      32435F4E 
 6468      414B00
 6469              	.LASF48:
 6470 0349 63707573 		.ascii	"cpussFmIrq\000"
 6470      73466D49 
 6470      727100
 6471              	.LASF118:
 6472 0354 63795F63 		.ascii	"cy_cb_scb_i2c_handle_addr_t\000"
 6472      625F7363 
 6472      625F6932 
 6472      635F6861 
 6472      6E646C65 
 6473              	.LASF159:
 6474 0370 636F6D70 		.ascii	"compare0\000"
 6474      61726530 
 6474      00
 6475              	.LASF160:
 6476 0379 636F6D70 		.ascii	"compare1\000"
 6476      61726531 
 6476      00
 6477              	.LASF289:
 6478 0382 4C565F45 		.ascii	"LV_EVENT_KEY\000"
 6478      56454E54 
 6478      5F4B4559 
 6478      00
 6479              	.LASF360:
 6480 038f 616E696D 		.ascii	"anim\000"
 6480      00
 6481              	.LASF142:
 6482 0394 63795F73 		.ascii	"cy_stc_scb_i2c_context\000"
 6482      74635F73 
 6482      63625F69 
 6482      32635F63 
 6482      6F6E7465 
 6483              	.LASF334:
 6484 03ab 4C565F42 		.ascii	"LV_BTN_STATE_PR\000"
 6484      544E5F53 
ARM GAS  C:\Users\tmj32\AppData\Local\Temp\cch6Xcfo.s 			page 143


 6484      54415445 
 6484      5F505200 
 6485              	.LASF82:
 6486 03bb 70657269 		.ascii	"periDivCmdTypeSelPos\000"
 6486      44697643 
 6486      6D645479 
 6486      70655365 
 6486      6C506F73 
 6487              	.LASF99:
 6488 03d0 63707573 		.ascii	"cpussTrimRamCtlOffset\000"
 6488      73547269 
 6488      6D52616D 
 6488      43746C4F 
 6488      66667365 
 6489              	.LASF102:
 6490 03e6 63707573 		.ascii	"cpussCm0NmiCtlOffset\000"
 6490      73436D30 
 6490      4E6D6943 
 6490      746C4F66 
 6490      66736574 
 6491              	.LASF332:
 6492 03fb 6C765F6F 		.ascii	"lv_obj_t\000"
 6492      626A5F74 
 6492      00
 6493              	.LASF403:
 6494 0404 76657274 		.ascii	"vertLabel1\000"
 6494      4C616265 
 6494      6C3100
 6495              	.LASF394:
 6496 040f 76657274 		.ascii	"vertLabel2\000"
 6496      4C616265 
 6496      6C3200
 6497              	.LASF272:
 6498 041a 696D6167 		.ascii	"image\000"
 6498      6500
 6499              	.LASF131:
 6500 0420 736C6176 		.ascii	"slaveTxBuffer\000"
 6500      65547842 
 6500      75666665 
 6500      7200
 6501              	.LASF414:
 6502 042e 433A5C55 		.ascii	"C:\\Users\\tmj32\\Documents\\TCNJ\\Senior_Project\\"
 6502      73657273 
 6502      5C746D6A 
 6502      33325C44 
 6502      6F63756D 
 6503 045b 4F736369 		.ascii	"Oscilloscope_Senior_Project\\tcom_engineering\\embe"
 6503      6C6C6F73 
 6503      636F7065 
 6503      5F53656E 
 6503      696F725F 
 6504 048c 645F7377 		.ascii	"d_sw\\tcom_app\\tcom_app_psoc6_lvgl6\\tcom_displ_te"
 6504      5C74636F 
 6504      6D5F6170 
 6504      705C7463 
 6504      6F6D5F61 
 6505 04bc 73745F70 		.ascii	"st_psoc6.cydsn\000"
ARM GAS  C:\Users\tmj32\AppData\Local\Temp\cch6Xcfo.s 			page 144


 6505      736F6336 
 6505      2E637964 
 6505      736E00
 6506              	.LASF230:
 6507 04cb 7265616C 		.ascii	"realign\000"
 6507      69676E00 
 6508              	.LASF367:
 6509 04d3 63686172 		.ascii	"chart_width\000"
 6509      745F7769 
 6509      64746800 
 6510              	.LASF256:
 6511 04df 696E6E65 		.ascii	"inner\000"
 6511      7200
 6512              	.LASF133:
 6513 04e5 736C6176 		.ascii	"slaveTxBufferIdx\000"
 6513      65547842 
 6513      75666665 
 6513      72496478 
 6513      00
 6514              	.LASF320:
 6515 04f6 4C565F41 		.ascii	"LV_ALIGN_OUT_RIGHT_TOP\000"
 6515      4C49474E 
 6515      5F4F5554 
 6515      5F524947 
 6515      48545F54 
 6516              	.LASF23:
 6517 050d 75696E74 		.ascii	"uint32_t\000"
 6517      33325F74 
 6517      00
 6518              	.LASF18:
 6519 0516 696E7438 		.ascii	"int8_t\000"
 6519      5F7400
 6520              	.LASF205:
 6521 051d 6C765F63 		.ascii	"lv_color32_t\000"
 6521      6F6C6F72 
 6521      33325F74 
 6521      00
 6522              	.LASF365:
 6523 052a 6275665F 		.ascii	"buf_size\000"
 6523      73697A65 
 6523      00
 6524              	.LASF293:
 6525 0533 4C565F45 		.ascii	"LV_EVENT_INSERT\000"
 6525      56454E54 
 6525      5F494E53 
 6525      45525400 
 6526              	.LASF92:
 6527 0543 6770696F 		.ascii	"gpioPrtCfgOutOffset\000"
 6527      50727443 
 6527      66674F75 
 6527      744F6666 
 6527      73657400 
 6528              	.LASF316:
 6529 0557 4C565F41 		.ascii	"LV_ALIGN_OUT_BOTTOM_RIGHT\000"
 6529      4C49474E 
 6529      5F4F5554 
 6529      5F424F54 
ARM GAS  C:\Users\tmj32\AppData\Local\Temp\cch6Xcfo.s 			page 145


 6529      544F4D5F 
 6530              	.LASF111:
 6531 0571 666C6F61 		.ascii	"float\000"
 6531      7400
 6532              	.LASF263:
 6533 0577 73656C5F 		.ascii	"sel_color\000"
 6533      636F6C6F 
 6533      7200
 6534              	.LASF217:
 6535 0581 636C6963 		.ascii	"click\000"
 6535      6B00
 6536              	.LASF323:
 6537 0587 6C765F61 		.ascii	"lv_align_t\000"
 6537      6C69676E 
 6537      5F7400
 6538              	.LASF378:
 6539 0592 6576656E 		.ascii	"event\000"
 6539      7400
 6540              	.LASF56:
 6541 0598 65704D6F 		.ascii	"epMonitorNr\000"
 6541      6E69746F 
 6541      724E7200 
 6542              	.LASF324:
 6543 05a4 62617365 		.ascii	"base\000"
 6543      00
 6544              	.LASF386:
 6545 05a9 77696E64 		.ascii	"window_slider_event_cb\000"
 6545      6F775F73 
 6545      6C696465 
 6545      725F6576 
 6545      656E745F 
 6546              	.LASF166:
 6547 05c0 72656C6F 		.ascii	"reloadInput\000"
 6547      6164496E 
 6547      70757400 
 6548              	.LASF20:
 6549 05cc 696E7431 		.ascii	"int16_t\000"
 6549      365F7400 
 6550              	.LASF91:
 6551 05d4 6770696F 		.ascii	"gpioPrtCfgInOffset\000"
 6551      50727443 
 6551      6667496E 
 6551      4F666673 
 6551      657400
 6552              	.LASF342:
 6553 05e7 4C565F4C 		.ascii	"LV_LABEL_LONG_SROLL\000"
 6553      4142454C 
 6553      5F4C4F4E 
 6553      475F5352 
 6553      4F4C4C00 
 6554              	.LASF200:
 6555 05fb 6C765F6C 		.ascii	"lv_ll_t\000"
 6555      6C5F7400 
 6556              	.LASF13:
 6557 0603 6C6F6E67 		.ascii	"long long unsigned int\000"
 6557      206C6F6E 
 6557      6720756E 
ARM GAS  C:\Users\tmj32\AppData\Local\Temp\cch6Xcfo.s 			page 146


 6557      7369676E 
 6557      65642069 
 6558              	.LASF301:
 6559 061a 6C765F73 		.ascii	"lv_signal_cb_t\000"
 6559      69676E61 
 6559      6C5F6362 
 6559      5F7400
 6560              	.LASF93:
 6561 0629 6770696F 		.ascii	"gpioPrtCfgSioOffset\000"
 6561      50727443 
 6561      66675369 
 6561      6F4F6666 
 6561      73657400 
 6562              	.LASF251:
 6563 063d 70617274 		.ascii	"part\000"
 6563      00
 6564              	.LASF322:
 6565 0642 4C565F41 		.ascii	"LV_ALIGN_OUT_RIGHT_BOTTOM\000"
 6565      4C49474E 
 6565      5F4F5554 
 6565      5F524947 
 6565      48545F42 
 6566              	.LASF52:
 6567 065c 73727373 		.ascii	"srssNumHfroot\000"
 6567      4E756D48 
 6567      66726F6F 
 6567      7400
 6568              	.LASF198:
 6569 066a 68656164 		.ascii	"head\000"
 6569      00
 6570              	.LASF373:
 6571 066f 62756666 		.ascii	"bufferFirst\000"
 6571      65724669 
 6571      72737400 
 6572              	.LASF22:
 6573 067b 696E7433 		.ascii	"int32_t\000"
 6573      325F7400 
 6574              	.LASF389:
 6575 0683 74726967 		.ascii	"triggerSlider\000"
 6575      67657253 
 6575      6C696465 
 6575      7200
 6576              	.LASF132:
 6577 0691 736C6176 		.ascii	"slaveTxBufferSize\000"
 6577      65547842 
 6577      75666665 
 6577      7253697A 
 6577      6500
 6578              	.LASF370:
 6579 06a3 63686172 		.ascii	"chart_horiPos\000"
 6579      745F686F 
 6579      7269506F 
 6579      7300
 6580              	.LASF83:
 6581 06b1 70657269 		.ascii	"periDivCmdPaDivSelPos\000"
 6581      44697643 
 6581      6D645061 
ARM GAS  C:\Users\tmj32\AppData\Local\Temp\cch6Xcfo.s 			page 147


 6581      44697653 
 6581      656C506F 
 6582              	.LASF167:
 6583 06c7 73746172 		.ascii	"startInputMode\000"
 6583      74496E70 
 6583      75744D6F 
 6583      646500
 6584              	.LASF203:
 6585 06d6 616C7068 		.ascii	"alpha\000"
 6585      6100
 6586              	.LASF163:
 6587 06dc 63617074 		.ascii	"captureInputMode\000"
 6587      75726549 
 6587      6E707574 
 6587      4D6F6465 
 6587      00
 6588              	.LASF315:
 6589 06ed 4C565F41 		.ascii	"LV_ALIGN_OUT_BOTTOM_MID\000"
 6589      4C49474E 
 6589      5F4F5554 
 6589      5F424F54 
 6589      544F4D5F 
 6590              	.LASF416:
 6591 0705 63686172 		.ascii	"chart_actions\000"
 6591      745F6163 
 6591      74696F6E 
 6591      7300
 6592              	.LASF359:
 6593 0713 76616C75 		.ascii	"value\000"
 6593      6500
 6594              	.LASF358:
 6595 0719 736C6964 		.ascii	"slider\000"
 6595      657200
 6596              	.LASF145:
 6597 0720 72784275 		.ascii	"rxBuf\000"
 6597      6600
 6598              	.LASF32:
 6599 0726 69706342 		.ascii	"ipcBase\000"
 6599      61736500 
 6600              	.LASF187:
 6601 072e 77696E64 		.ascii	"windowPos\000"
 6601      6F77506F 
 6601      7300
 6602              	.LASF249:
 6603 0738 636F6C6F 		.ascii	"color\000"
 6603      7200
 6604              	.LASF69:
 6605 073e 666C6173 		.ascii	"flashCtlMainWs3Freq\000"
 6605      6843746C 
 6605      4D61696E 
 6605      57733346 
 6605      72657100 
 6606              	.LASF51:
 6607 0752 73727373 		.ascii	"srssNumPll\000"
 6607      4E756D50 
 6607      6C6C00
 6608              	.LASF268:
ARM GAS  C:\Users\tmj32\AppData\Local\Temp\cch6Xcfo.s 			page 148


 6609 075d 726F756E 		.ascii	"rounded\000"
 6609      64656400 
 6610              	.LASF318:
 6611 0765 4C565F41 		.ascii	"LV_ALIGN_OUT_LEFT_MID\000"
 6611      4C49474E 
 6611      5F4F5554 
 6611      5F4C4546 
 6611      545F4D49 
 6612              	.LASF30:
 6613 077b 6770696F 		.ascii	"gpioBase\000"
 6613      42617365 
 6613      00
 6614              	.LASF216:
 6615 0784 7374796C 		.ascii	"style_p\000"
 6615      655F7000 
 6616              	.LASF355:
 6617 078c 4C565F52 		.ascii	"LV_ROLLER_MODE_INIFINITE\000"
 6617      4F4C4C45 
 6617      525F4D4F 
 6617      44455F49 
 6617      4E494649 
 6618              	.LASF250:
 6619 07a5 77696474 		.ascii	"width\000"
 6619      6800
 6620              	.LASF62:
 6621 07ab 666C6173 		.ascii	"flashPipeRequired\000"
 6621      68506970 
 6621      65526571 
 6621      75697265 
 6621      6400
 6622              	.LASF128:
 6623 07bd 6D617374 		.ascii	"masterNumBytes\000"
 6623      65724E75 
 6623      6D427974 
 6623      657300
 6624              	.LASF391:
 6625 07cc 686F7269 		.ascii	"horiSlider\000"
 6625      536C6964 
 6625      657200
 6626              	.LASF138:
 6627 07d7 63624576 		.ascii	"cbEvents\000"
 6627      656E7473 
 6627      00
 6628              	.LASF297:
 6629 07e0 4C565F45 		.ascii	"LV_EVENT_DELETE\000"
 6629      56454E54 
 6629      5F44454C 
 6629      45544500 
 6630              	.LASF196:
 6631 07f0 6C765F6C 		.ascii	"lv_ll_node_t\000"
 6631      6C5F6E6F 
 6631      64655F74 
 6631      00
 6632              	.LASF346:
 6633 07fd 4C565F43 		.ascii	"LV_CHART_TYPE_LINE\000"
 6633      48415254 
 6633      5F545950 
ARM GAS  C:\Users\tmj32\AppData\Local\Temp\cch6Xcfo.s 			page 149


 6633      455F4C49 
 6633      4E4500
 6634              	.LASF280:
 6635 0810 4C565F45 		.ascii	"LV_EVENT_PRESS_LOST\000"
 6635      56454E54 
 6635      5F505245 
 6635      53535F4C 
 6635      4F535400 
 6636              	.LASF113:
 6637 0824 5F426F6F 		.ascii	"_Bool\000"
 6637      6C00
 6638              	.LASF410:
 6639 082a 74636E6A 		.ascii	"tcnj_gold\000"
 6639      5F676F6C 
 6639      6400
 6640              	.LASF66:
 6641 0834 666C6173 		.ascii	"flashCtlMainWs0Freq\000"
 6641      6843746C 
 6641      4D61696E 
 6641      57733046 
 6641      72657100 
 6642              	.LASF119:
 6643 0848 75736552 		.ascii	"useRxFifo\000"
 6643      78466966 
 6643      6F00
 6644              	.LASF237:
 6645 0852 5F6C765F 		.ascii	"_lv_font_struct\000"
 6645      666F6E74 
 6645      5F737472 
 6645      75637400 
 6646              	.LASF339:
 6647 0862 4C565F4C 		.ascii	"LV_LABEL_LONG_EXPAND\000"
 6647      4142454C 
 6647      5F4C4F4E 
 6647      475F4558 
 6647      50414E44 
 6648              	.LASF278:
 6649 0877 4C565F45 		.ascii	"LV_EVENT_PRESSED\000"
 6649      56454E54 
 6649      5F505245 
 6649      53534544 
 6649      00
 6650              	.LASF374:
 6651 0888 62756666 		.ascii	"bufferLast\000"
 6651      65724C61 
 6651      737400
 6652              	.LASF336:
 6653 0893 4C565F42 		.ascii	"LV_BTN_STATE_TGL_PR\000"
 6653      544E5F53 
 6653      54415445 
 6653      5F54474C 
 6653      5F505200 
 6654              	.LASF109:
 6655 08a7 6970634C 		.ascii	"ipcLockStatusOffset\000"
 6655      6F636B53 
 6655      74617475 
 6655      734F6666 
ARM GAS  C:\Users\tmj32\AppData\Local\Temp\cch6Xcfo.s 			page 150


 6655      73657400 
 6656              	.LASF369:
 6657 08bb 63686172 		.ascii	"chart_vertPos\000"
 6657      745F7665 
 6657      7274506F 
 6657      7300
 6658              	.LASF240:
 6659 08c9 6C696E65 		.ascii	"line_height\000"
 6659      5F686569 
 6659      67687400 
 6660              	.LASF101:
 6661 08d5 63707573 		.ascii	"cpussSysTickCtlOffset\000"
 6661      73537973 
 6661      5469636B 
 6661      43746C4F 
 6661      66667365 
 6662              	.LASF57:
 6663 08eb 75646250 		.ascii	"udbPresent\000"
 6663      72657365 
 6663      6E7400
 6664              	.LASF361:
 6665 08f6 6C765F73 		.ascii	"lv_slider_set_value\000"
 6665      6C696465 
 6665      725F7365 
 6665      745F7661 
 6665      6C756500 
 6666              	.LASF75:
 6667 090a 64775374 		.ascii	"dwStatusChIdxPos\000"
 6667      61747573 
 6667      43684964 
 6667      78506F73 
 6667      00
 6668              	.LASF6:
 6669 091b 5F5F7569 		.ascii	"__uint16_t\000"
 6669      6E743136 
 6669      5F7400
 6670              	.LASF357:
 6671 0926 6C765F63 		.ascii	"lv_color_hex\000"
 6671      6F6C6F72 
 6671      5F686578 
 6671      00
 6672              	.LASF258:
 6673 0933 67726164 		.ascii	"grad_color\000"
 6673      5F636F6C 
 6673      6F7200
 6674              	.LASF46:
 6675 093e 63707573 		.ascii	"cpussFlashPaSize\000"
 6675      73466C61 
 6675      73685061 
 6675      53697A65 
 6675      00
 6676              	.LASF164:
 6677 094f 63617074 		.ascii	"captureInput\000"
 6677      75726549 
 6677      6E707574 
 6677      00
 6678              	.LASF347:
ARM GAS  C:\Users\tmj32\AppData\Local\Temp\cch6Xcfo.s 			page 151


 6679 095c 4C565F43 		.ascii	"LV_CHART_TYPE_COLUMN\000"
 6679      48415254 
 6679      5F545950 
 6679      455F434F 
 6679      4C554D4E 
 6680              	.LASF114:
 6681 0971 43595F53 		.ascii	"CY_SCB_I2C_ACK\000"
 6681      43425F49 
 6681      32435F41 
 6681      434B00
 6682              	.LASF17:
 6683 0980 63686172 		.ascii	"char\000"
 6683      00
 6684              	.LASF385:
 6685 0985 76657274 		.ascii	"verti_slider_event_cb\000"
 6685      695F736C 
 6685      69646572 
 6685      5F657665 
 6685      6E745F63 
 6686              	.LASF401:
 6687 099b 74726967 		.ascii	"triggerLabel\000"
 6687      6765724C 
 6687      6162656C 
 6687      00
 6688              	.LASF84:
 6689 09a8 70657269 		.ascii	"periDivCmdPaTypeSelPos\000"
 6689      44697643 
 6689      6D645061 
 6689      54797065 
 6689      53656C50 
 6690              	.LASF220:
 6691 09bf 64726167 		.ascii	"drag_parent\000"
 6691      5F706172 
 6691      656E7400 
 6692              	.LASF192:
 6693 09cb 52784275 		.ascii	"RxBuffer\000"
 6693      66666572 
 6693      00
 6694              	.LASF58:
 6695 09d4 73797350 		.ascii	"sysPmSimoPresent\000"
 6695      6D53696D 
 6695      6F507265 
 6695      73656E74 
 6695      00
 6696              	.LASF126:
 6697 09e5 6D617374 		.ascii	"masterBufferSize\000"
 6697      65724275 
 6697      66666572 
 6697      53697A65 
 6697      00
 6698              	.LASF229:
 6699 09f6 6578745F 		.ascii	"ext_draw_pad\000"
 6699      64726177 
 6699      5F706164 
 6699      00
 6700              	.LASF253:
 6701 0a03 626F7474 		.ascii	"bottom\000"
ARM GAS  C:\Users\tmj32\AppData\Local\Temp\cch6Xcfo.s 			page 152


 6701      6F6D00
 6702              	.LASF158:
 6703 0a0a 636F6D70 		.ascii	"compareOrCapture\000"
 6703      6172654F 
 6703      72436170 
 6703      74757265 
 6703      00
 6704              	.LASF155:
 6705 0a1b 636C6F63 		.ascii	"clockPrescaler\000"
 6705      6B507265 
 6705      7363616C 
 6705      657200
 6706              	.LASF408:
 6707 0a2a 5350494D 		.ascii	"SPIM_context\000"
 6707      5F636F6E 
 6707      74657874 
 6707      00
 6708              	.LASF147:
 6709 0a37 72784275 		.ascii	"rxBufIdx\000"
 6709      66496478 
 6709      00
 6710              	.LASF236:
 6711 0a40 6C765F66 		.ascii	"lv_font_glyph_dsc_t\000"
 6711      6F6E745F 
 6711      676C7970 
 6711      685F6473 
 6711      635F7400 
 6712              	.LASF151:
 6713 0a54 696E6974 		.ascii	"initKey\000"
 6713      4B657900 
 6714              	.LASF400:
 6715 0a5c 6F666673 		.ascii	"offsetLabel\000"
 6715      65744C61 
 6715      62656C00 
 6716              	.LASF76:
 6717 0a68 64775374 		.ascii	"dwStatusChIdxMsk\000"
 6717      61747573 
 6717      43684964 
 6717      784D736B 
 6717      00
 6718              	.LASF308:
 6719 0a79 4C565F41 		.ascii	"LV_ALIGN_IN_BOTTOM_RIGHT\000"
 6719      4C49474E 
 6719      5F494E5F 
 6719      424F5454 
 6719      4F4D5F52 
 6720              	.LASF19:
 6721 0a92 75696E74 		.ascii	"uint8_t\000"
 6721      385F7400 
 6722              	.LASF144:
 6723 0a9a 73746174 		.ascii	"status\000"
 6723      757300
 6724              	.LASF252:
 6725 0aa1 74797065 		.ascii	"type\000"
 6725      00
 6726              	.LASF134:
 6727 0aa6 736C6176 		.ascii	"slaveTxBufferCnt\000"
ARM GAS  C:\Users\tmj32\AppData\Local\Temp\cch6Xcfo.s 			page 153


 6727      65547842 
 6727      75666665 
 6727      72436E74 
 6727      00
 6728              	.LASF224:
 6729 0ab7 64726167 		.ascii	"drag_dir\000"
 6729      5F646972 
 6729      00
 6730              	.LASF31:
 6731 0ac0 70617373 		.ascii	"passBase\000"
 6731      42617365 
 6731      00
 6732              	.LASF81:
 6733 0ac9 70657269 		.ascii	"periDivCmdDivSelMsk\000"
 6733      44697643 
 6733      6D644469 
 6733      7653656C 
 6733      4D736B00 
 6734              	.LASF296:
 6735 0add 4C565F45 		.ascii	"LV_EVENT_CANCEL\000"
 6735      56454E54 
 6735      5F43414E 
 6735      43454C00 
 6736              	.LASF183:
 6737 0aed 53616D70 		.ascii	"SampleRate\000"
 6737      6C655261 
 6737      746500
 6738              	.LASF248:
 6739 0af8 6C765F73 		.ascii	"lv_shadow_type_t\000"
 6739      6861646F 
 6739      775F7479 
 6739      70655F74 
 6739      00
 6740              	.LASF356:
 6741 0b09 6C765F63 		.ascii	"lv_color_make\000"
 6741      6F6C6F72 
 6741      5F6D616B 
 6741      6500
 6742              	.LASF340:
 6743 0b17 4C565F4C 		.ascii	"LV_LABEL_LONG_BREAK\000"
 6743      4142454C 
 6743      5F4C4F4E 
 6743      475F4252 
 6743      45414B00 
 6744              	.LASF415:
 6745 0b2b 6C765F73 		.ascii	"lv_scr_act\000"
 6745      63725F61 
 6745      637400
 6746              	.LASF255:
 6747 0b36 72696768 		.ascii	"right\000"
 6747      7400
 6748              	.LASF182:
 6749 0b3c 54726967 		.ascii	"TriggerEvent\000"
 6749      67657245 
 6749      76656E74 
 6749      00
 6750              	.LASF105:
ARM GAS  C:\Users\tmj32\AppData\Local\Temp\cch6Xcfo.s 			page 154


 6751 0b49 63707573 		.ascii	"cpussRam0Ctl0\000"
 6751      7352616D 
 6751      3043746C 
 6751      3000
 6752              	.LASF12:
 6753 0b57 6C6F6E67 		.ascii	"long long int\000"
 6753      206C6F6E 
 6753      6720696E 
 6753      7400
 6754              	.LASF398:
 6755 0b65 726F6C6C 		.ascii	"roller1\000"
 6755      65723100 
 6756              	.LASF399:
 6757 0b6d 726F6C6C 		.ascii	"roller2\000"
 6757      65723200 
 6758              	.LASF317:
 6759 0b75 4C565F41 		.ascii	"LV_ALIGN_OUT_LEFT_TOP\000"
 6759      4C49474E 
 6759      5F4F5554 
 6759      5F4C4546 
 6759      545F544F 
 6760              	.LASF33:
 6761 0b8b 63727970 		.ascii	"cryptoBase\000"
 6761      746F4261 
 6761      736500
 6762              	.LASF271:
 6763 0b96 74657874 		.ascii	"text\000"
 6763      00
 6764              	.LASF328:
 6765 0b9b 6175746F 		.ascii	"auto_realign\000"
 6765      5F726561 
 6765      6C69676E 
 6765      00
 6766              	.LASF88:
 6767 0ba8 70657269 		.ascii	"periDiv24_5CtlOffset\000"
 6767      44697632 
 6767      345F3543 
 6767      746C4F66 
 6767      66736574 
 6768              	.LASF262:
 6769 0bbd 70616464 		.ascii	"padding\000"
 6769      696E6700 
 6770              	.LASF379:
 6771 0bc5 726F6C6C 		.ascii	"roller2_event\000"
 6771      6572325F 
 6771      6576656E 
 6771      7400
 6772              	.LASF63:
 6773 0bd3 666C6173 		.ascii	"flashWriteDelay\000"
 6773      68577269 
 6773      74654465 
 6773      6C617900 
 6774              	.LASF343:
 6775 0be3 4C565F4C 		.ascii	"LV_LABEL_LONG_SROLL_CIRC\000"
 6775      4142454C 
 6775      5F4C4F4E 
 6775      475F5352 
ARM GAS  C:\Users\tmj32\AppData\Local\Temp\cch6Xcfo.s 			page 155


 6775      4F4C4C5F 
 6776              	.LASF150:
 6777 0bfc 74784275 		.ascii	"txBufIdx\000"
 6777      66496478 
 6777      00
 6778              	.LASF120:
 6779 0c05 75736554 		.ascii	"useTxFifo\000"
 6779      78466966 
 6779      6F00
 6780              	.LASF325:
 6781 0c0f 786F6673 		.ascii	"xofs\000"
 6781      00
 6782              	.LASF117:
 6783 0c14 63795F63 		.ascii	"cy_cb_scb_i2c_handle_events_t\000"
 6783      625F7363 
 6783      625F6932 
 6783      635F6861 
 6783      6E646C65 
 6784              	.LASF4:
 6785 0c32 5F5F696E 		.ascii	"__int16_t\000"
 6785      7431365F 
 6785      7400
 6786              	.LASF175:
 6787 0c3c 42726961 		.ascii	"BrianReg\000"
 6787      6E526567 
 6787      00
 6788              	.LASF29:
 6789 0c45 6873696F 		.ascii	"hsiomBase\000"
 6789      6D426173 
 6789      6500
 6790              	.LASF124:
 6791 0c4f 6D617374 		.ascii	"masterRdDir\000"
 6791      65725264 
 6791      44697200 
 6792              	.LASF275:
 6793 0c5b 6C765F62 		.ascii	"lv_bidi_dir_t\000"
 6793      6964695F 
 6793      6469725F 
 6793      7400
 6794              	.LASF298:
 6795 0c69 6C765F65 		.ascii	"lv_event_t\000"
 6795      76656E74 
 6795      5F7400
 6796              	.LASF79:
 6797 0c74 70657269 		.ascii	"periTrGrOffset\000"
 6797      54724772 
 6797      4F666673 
 6797      657400
 6798              	.LASF49:
 6799 0c83 63707573 		.ascii	"cpussNotConnectedIrq\000"
 6799      734E6F74 
 6799      436F6E6E 
 6799      65637465 
 6799      64497271 
 6800              	.LASF329:
 6801 0c98 6F726967 		.ascii	"origo_align\000"
 6801      6F5F616C 
ARM GAS  C:\Users\tmj32\AppData\Local\Temp\cch6Xcfo.s 			page 156


 6801      69676E00 
 6802              	.LASF152:
 6803 0ca4 63795F73 		.ascii	"cy_stc_scb_spi_context_t\000"
 6803      74635F73 
 6803      63625F73 
 6803      70695F63 
 6803      6F6E7465 
 6804              	.LASF195:
 6805 0cbd 6C765F72 		.ascii	"lv_res_t\000"
 6805      65735F74 
 6805      00
 6806              	.LASF165:
 6807 0cc6 72656C6F 		.ascii	"reloadInputMode\000"
 6807      6164496E 
 6807      7075744D 
 6807      6F646500 
 6808              	.LASF180:
 6809 0cd6 54726967 		.ascii	"TriggerCode\000"
 6809      67657243 
 6809      6F646500 
 6810              	.LASF331:
 6811 0ce2 6C765F64 		.ascii	"lv_drag_dir_t\000"
 6811      7261675F 
 6811      6469725F 
 6811      7400
 6812              	.LASF307:
 6813 0cf0 4C565F41 		.ascii	"LV_ALIGN_IN_BOTTOM_MID\000"
 6813      4C49474E 
 6813      5F494E5F 
 6813      424F5454 
 6813      4F4D5F4D 
 6814              	.LASF387:
 6815 0d07 6F666673 		.ascii	"offsetSlider\000"
 6815      6574536C 
 6815      69646572 
 6815      00
 6816              	.LASF149:
 6817 0d14 74784275 		.ascii	"txBufSize\000"
 6817      6653697A 
 6817      6500
 6818              	.LASF43:
 6819 0d1e 63707573 		.ascii	"cpussIpcNr\000"
 6819      73497063 
 6819      4E7200
 6820              	.LASF291:
 6821 0d29 4C565F45 		.ascii	"LV_EVENT_DEFOCUSED\000"
 6821      56454E54 
 6821      5F444546 
 6821      4F435553 
 6821      454400
 6822              	.LASF286:
 6823 0d3c 4C565F45 		.ascii	"LV_EVENT_DRAG_BEGIN\000"
 6823      56454E54 
 6823      5F445241 
 6823      475F4245 
 6823      47494E00 
 6824              	.LASF96:
ARM GAS  C:\Users\tmj32\AppData\Local\Temp\cch6Xcfo.s 			page 157


 6825 0d50 63707573 		.ascii	"cpussCm4StatusOffset\000"
 6825      73436D34 
 6825      53746174 
 6825      75734F66 
 6825      66736574 
 6826              	.LASF55:
 6827 0d65 70617373 		.ascii	"passSarChannels\000"
 6827      53617243 
 6827      68616E6E 
 6827      656C7300 
 6828              	.LASF137:
 6829 0d75 736C6176 		.ascii	"slaveRxBufferIdx\000"
 6829      65527842 
 6829      75666665 
 6829      72496478 
 6829      00
 6830              	.LASF107:
 6831 0d86 63707573 		.ascii	"cpussRam2Ctl0\000"
 6831      7352616D 
 6831      3243746C 
 6831      3000
 6832              	.LASF245:
 6833 0d94 4C565F41 		.ascii	"LV_ANIM_ON\000"
 6833      4E494D5F 
 6833      4F4E00
 6834              	.LASF123:
 6835 0d9f 6D617374 		.ascii	"masterPause\000"
 6835      65725061 
 6835      75736500 
 6836              	.LASF161:
 6837 0dab 656E6162 		.ascii	"enableCompareSwap\000"
 6837      6C65436F 
 6837      6D706172 
 6837      65537761 
 6837      7000
 6838              	.LASF310:
 6839 0dbd 4C565F41 		.ascii	"LV_ALIGN_IN_RIGHT_MID\000"
 6839      4C49474E 
 6839      5F494E5F 
 6839      52494748 
 6839      545F4D49 
 6840              	.LASF42:
 6841 0dd3 70726F74 		.ascii	"protVersion\000"
 6841      56657273 
 6841      696F6E00 
 6842              	.LASF390:
 6843 0ddf 74726967 		.ascii	"triggerLabel2\000"
 6843      6765724C 
 6843      6162656C 
 6843      3200
 6844              	.LASF148:
 6845 0ded 74784275 		.ascii	"txBuf\000"
 6845      6600
 6846              	.LASF242:
 6847 0df3 73756270 		.ascii	"subpx\000"
 6847      7800
 6848              	.LASF206:
ARM GAS  C:\Users\tmj32\AppData\Local\Temp\cch6Xcfo.s 			page 158


 6849 0df9 6C765F63 		.ascii	"lv_color_t\000"
 6849      6F6C6F72 
 6849      5F7400
 6850              	.LASF261:
 6851 0e04 73686164 		.ascii	"shadow\000"
 6851      6F7700
 6852              	.LASF64:
 6853 0e0b 666C6173 		.ascii	"flashProgramDelay\000"
 6853      6850726F 
 6853      6772616D 
 6853      44656C61 
 6853      7900
 6854              	.LASF185:
 6855 0e1d 52657365 		.ascii	"Reset\000"
 6855      7400
 6856              	.LASF136:
 6857 0e23 736C6176 		.ascii	"slaveRxBufferSize\000"
 6857      65527842 
 6857      75666665 
 6857      7253697A 
 6857      6500
 6858              	.LASF284:
 6859 0e35 4C565F45 		.ascii	"LV_EVENT_CLICKED\000"
 6859      56454E54 
 6859      5F434C49 
 6859      434B4544 
 6859      00
 6860              	.LASF396:
 6861 0e46 73776974 		.ascii	"switchLabel\000"
 6861      63684C61 
 6861      62656C00 
 6862              	.LASF202:
 6863 0e52 67726565 		.ascii	"green\000"
 6863      6E00
 6864              	.LASF7:
 6865 0e58 73686F72 		.ascii	"short unsigned int\000"
 6865      7420756E 
 6865      7369676E 
 6865      65642069 
 6865      6E7400
 6866              	.LASF15:
 6867 0e6b 6C6F6E67 		.ascii	"long double\000"
 6867      20646F75 
 6867      626C6500 
 6868              	.LASF21:
 6869 0e77 75696E74 		.ascii	"uint16_t\000"
 6869      31365F74 
 6869      00
 6870              	.LASF28:
 6871 0e80 70726F74 		.ascii	"protBase\000"
 6871      42617365 
 6871      00
 6872              	.LASF354:
 6873 0e89 4C565F52 		.ascii	"LV_ROLLER_MODE_NORMAL\000"
 6873      4F4C4C45 
 6873      525F4D4F 
 6873      44455F4E 
ARM GAS  C:\Users\tmj32\AppData\Local\Temp\cch6Xcfo.s 			page 159


 6873      4F524D41 
 6874              	.LASF156:
 6875 0e9f 72756E4D 		.ascii	"runMode\000"
 6875      6F646500 
 6876              	.LASF78:
 6877 0ea7 70657269 		.ascii	"periTrCmdGrSelMsk\000"
 6877      5472436D 
 6877      64477253 
 6877      656C4D73 
 6877      6B00
 6878              	.LASF125:
 6879 0eb9 6D617374 		.ascii	"masterBuffer\000"
 6879      65724275 
 6879      66666572 
 6879      00
 6880              	.LASF383:
 6881 0ec6 74726967 		.ascii	"trigger_slider_event_cb\000"
 6881      6765725F 
 6881      736C6964 
 6881      65725F65 
 6881      76656E74 
 6882              	.LASF368:
 6883 0ede 63686172 		.ascii	"chart_heigth\000"
 6883      745F6865 
 6883      69677468 
 6883      00
 6884              	.LASF311:
 6885 0eeb 4C565F41 		.ascii	"LV_ALIGN_OUT_TOP_LEFT\000"
 6885      4C49474E 
 6885      5F4F5554 
 6885      5F544F50 
 6885      5F4C4546 
 6886              	.LASF173:
 6887 0f01 63795F73 		.ascii	"cy_stc_tcpwm_counter_config_t\000"
 6887      74635F74 
 6887      6370776D 
 6887      5F636F75 
 6887      6E746572 
 6888              	.LASF40:
 6889 0f1f 69706356 		.ascii	"ipcVersion\000"
 6889      65727369 
 6889      6F6E00
 6890              	.LASF411:
 6891 0f2a 73746172 		.ascii	"startup\000"
 6891      74757000 
 6892              	.LASF68:
 6893 0f32 666C6173 		.ascii	"flashCtlMainWs2Freq\000"
 6893      6843746C 
 6893      4D61696E 
 6893      57733246 
 6893      72657100 
 6894              	.LASF77:
 6895 0f46 70657269 		.ascii	"periTrCmdOffset\000"
 6895      5472436D 
 6895      644F6666 
 6895      73657400 
 6896              	.LASF362:
ARM GAS  C:\Users\tmj32\AppData\Local\Temp\cch6Xcfo.s 			page 160


 6897 0f56 6C765F73 		.ascii	"lv_slider_set_range\000"
 6897      6C696465 
 6897      725F7365 
 6897      745F7261 
 6897      6E676500 
 6898              	.LASF371:
 6899 0f6a 77696E64 		.ascii	"windowSize\000"
 6899      6F775369 
 6899      7A6500
 6900              	.LASF402:
 6901 0f75 686F7269 		.ascii	"horiLabel1\000"
 6901      4C616265 
 6901      6C3100
 6902              	.LASF392:
 6903 0f80 686F7269 		.ascii	"horiLabel2\000"
 6903      4C616265 
 6903      6C3200
 6904              	.LASF16:
 6905 0f8b 73697A65 		.ascii	"sizetype\000"
 6905      74797065 
 6905      00
 6906              	.LASF243:
 6907 0f94 6C765F66 		.ascii	"lv_font_t\000"
 6907      6F6E745F 
 6907      7400
 6908              	.LASF265:
 6909 0f9e 6C657474 		.ascii	"letter_space\000"
 6909      65725F73 
 6909      70616365 
 6909      00
 6910              	.LASF103:
 6911 0fab 63707573 		.ascii	"cpussCm4NmiCtlOffset\000"
 6911      73436D34 
 6911      4E6D6943 
 6911      746C4F66 
 6911      66736574 
 6912              	.LASF257:
 6913 0fc0 6D61696E 		.ascii	"main_color\000"
 6913      5F636F6C 
 6913      6F7200
 6914              	.LASF85:
 6915 0fcb 70657269 		.ascii	"periDiv8CtlOffset\000"
 6915      44697638 
 6915      43746C4F 
 6915      66667365 
 6915      7400
 6916              	.LASF285:
 6917 0fdd 4C565F45 		.ascii	"LV_EVENT_RELEASED\000"
 6917      56454E54 
 6917      5F52454C 
 6917      45415345 
 6917      4400
 6918              	.LASF304:
 6919 0fef 4C565F41 		.ascii	"LV_ALIGN_IN_TOP_MID\000"
 6919      4C49474E 
 6919      5F494E5F 
 6919      544F505F 
ARM GAS  C:\Users\tmj32\AppData\Local\Temp\cch6Xcfo.s 			page 161


 6919      4D494400 
 6920              	.LASF5:
 6921 1003 73686F72 		.ascii	"short int\000"
 6921      7420696E 
 6921      7400
 6922              	.LASF86:
 6923 100d 70657269 		.ascii	"periDiv16CtlOffset\000"
 6923      44697631 
 6923      3643746C 
 6923      4F666673 
 6923      657400
 6924              	.LASF211:
 6925 1020 636F6F72 		.ascii	"coords\000"
 6925      647300
 6926              	.LASF162:
 6927 1027 696E7465 		.ascii	"interruptSources\000"
 6927      72727570 
 6927      74536F75 
 6927      72636573 
 6927      00
 6928              	.LASF312:
 6929 1038 4C565F41 		.ascii	"LV_ALIGN_OUT_TOP_MID\000"
 6929      4C49474E 
 6929      5F4F5554 
 6929      5F544F50 
 6929      5F4D4944 
 6930              	.LASF207:
 6931 104d 6C765F6F 		.ascii	"lv_opa_t\000"
 6931      70615F74 
 6931      00
 6932              	.LASF364:
 6933 1056 726F6C6C 		.ascii	"roller\000"
 6933      657200
 6934              	.LASF35:
 6935 105d 63727970 		.ascii	"cryptoVersion\000"
 6935      746F5665 
 6935      7273696F 
 6935      6E00
 6936              	.LASF193:
 6937 106b 52616D52 		.ascii	"RamReadBuffer\000"
 6937      65616442 
 6937      75666665 
 6937      7200
 6938              	.LASF338:
 6939 1079 5F4C565F 		.ascii	"_LV_BTN_STATE_NUM\000"
 6939      42544E5F 
 6939      53544154 
 6939      455F4E55 
 6939      4D00
 6940              	.LASF404:
 6941 108b 49544D5F 		.ascii	"ITM_RxBuffer\000"
 6941      52784275 
 6941      66666572 
 6941      00
 6942              	.LASF171:
 6943 1098 636F756E 		.ascii	"countInputMode\000"
 6943      74496E70 
ARM GAS  C:\Users\tmj32\AppData\Local\Temp\cch6Xcfo.s 			page 162


 6943      75744D6F 
 6943      646500
 6944              	.LASF38:
 6945 10a7 6770696F 		.ascii	"gpioVersion\000"
 6945      56657273 
 6945      696F6E00 
 6946              	.LASF37:
 6947 10b3 666C6173 		.ascii	"flashcVersion\000"
 6947      68635665 
 6947      7273696F 
 6947      6E00
 6948              	.LASF59:
 6949 10c1 70726F74 		.ascii	"protBusMasterMask\000"
 6949      4275734D 
 6949      61737465 
 6949      724D6173 
 6949      6B00
 6950              	.LASF353:
 6951 10d3 6C765F63 		.ascii	"lv_chart_series_t\000"
 6951      68617274 
 6951      5F736572 
 6951      6965735F 
 6951      7400
 6952              	.LASF157:
 6953 10e5 636F756E 		.ascii	"countDirection\000"
 6953      74446972 
 6953      65637469 
 6953      6F6E00
 6954              	.LASF260:
 6955 10f4 626F7264 		.ascii	"border\000"
 6955      657200
 6956              	.LASF279:
 6957 10fb 4C565F45 		.ascii	"LV_EVENT_PRESSING\000"
 6957      56454E54 
 6957      5F505245 
 6957      5353494E 
 6957      4700
 6958              	.LASF201:
 6959 110d 626C7565 		.ascii	"blue\000"
 6959      00
 6960              	.LASF417:
 6961 1112 686F6D65 		.ascii	"home_screen\000"
 6961      5F736372 
 6961      65656E00 
 6962              	.LASF395:
 6963 111e 77696E64 		.ascii	"windowSlider\000"
 6963      6F77536C 
 6963      69646572 
 6963      00
 6964              	.LASF348:
 6965 112b 4C565F43 		.ascii	"LV_CHART_TYPE_POINT\000"
 6965      48415254 
 6965      5F545950 
 6965      455F504F 
 6965      494E5400 
 6966              	.LASF194:
 6967 113f 6C765F63 		.ascii	"lv_coord_t\000"
ARM GAS  C:\Users\tmj32\AppData\Local\Temp\cch6Xcfo.s 			page 163


 6967      6F6F7264 
 6967      5F7400
 6968              	.LASF222:
 6969 114a 6F70615F 		.ascii	"opa_scale_en\000"
 6969      7363616C 
 6969      655F656E 
 6969      00
 6970              	.LASF352:
 6971 1157 73746172 		.ascii	"start_point\000"
 6971      745F706F 
 6971      696E7400 
 6972              	.LASF247:
 6973 1163 6C765F62 		.ascii	"lv_border_part_t\000"
 6973      6F726465 
 6973      725F7061 
 6973      72745F74 
 6973      00
 6974              	.LASF254:
 6975 1174 6C656674 		.ascii	"left\000"
 6975      00
 6976              	.LASF267:
 6977 1179 696E7465 		.ascii	"intense\000"
 6977      6E736500 
 6978              	.LASF98:
 6979 1181 63707573 		.ascii	"cpussCm4PwrCtlOffset\000"
 6979      73436D34 
 6979      50777243 
 6979      746C4F66 
 6979      66736574 
 6980              	.LASF1:
 6981 1196 5F5F7569 		.ascii	"__uint8_t\000"
 6981      6E74385F 
 6981      7400
 6982              	.LASF333:
 6983 11a0 4C565F42 		.ascii	"LV_BTN_STATE_REL\000"
 6983      544E5F53 
 6983      54415445 
 6983      5F52454C 
 6983      00
 6984              	.LASF179:
 6985 11b1 54726967 		.ascii	"Trigger\000"
 6985      67657200 
 6986              	.LASF89:
 6987 11b9 6770696F 		.ascii	"gpioPrtIntrCfgOffset\000"
 6987      50727449 
 6987      6E747243 
 6987      66674F66 
 6987      66736574 
 6988              	.LASF266:
 6989 11ce 6C696E65 		.ascii	"line_space\000"
 6989      5F737061 
 6989      636500
 6990              	.LASF337:
 6991 11d9 4C565F42 		.ascii	"LV_BTN_STATE_INA\000"
 6991      544E5F53 
 6991      54415445 
 6991      5F494E41 
ARM GAS  C:\Users\tmj32\AppData\Local\Temp\cch6Xcfo.s 			page 164


 6991      00
 6992              	.LASF233:
 6993 11ea 626F785F 		.ascii	"box_h\000"
 6993      6800
 6994              	.LASF290:
 6995 11f0 4C565F45 		.ascii	"LV_EVENT_FOCUSED\000"
 6995      56454E54 
 6995      5F464F43 
 6995      55534544 
 6995      00
 6996              	.LASF95:
 6997 1201 63707573 		.ascii	"cpussCm4ClockCtlOffset\000"
 6997      73436D34 
 6997      436C6F63 
 6997      6B43746C 
 6997      4F666673 
 6998              	.LASF321:
 6999 1218 4C565F41 		.ascii	"LV_ALIGN_OUT_RIGHT_MID\000"
 6999      4C49474E 
 6999      5F4F5554 
 6999      5F524947 
 6999      48545F4D 
 7000              	.LASF100:
 7001 122f 63707573 		.ascii	"cpussTrimRomCtlOffset\000"
 7001      73547269 
 7001      6D526F6D 
 7001      43746C4F 
 7001      66667365 
 7002              	.LASF39:
 7003 1245 6873696F 		.ascii	"hsiomVersion\000"
 7003      6D566572 
 7003      73696F6E 
 7003      00
 7004              	.LASF208:
 7005 1252 6C765F61 		.ascii	"lv_area_t\000"
 7005      7265615F 
 7005      7400
 7006              	.LASF11:
 7007 125c 6C6F6E67 		.ascii	"long unsigned int\000"
 7007      20756E73 
 7007      69676E65 
 7007      6420696E 
 7007      7400
 7008              	.LASF176:
 7009 126e 43687269 		.ascii	"ChrisReg\000"
 7009      73526567 
 7009      00
 7010              	.LASF104:
 7011 1277 63707573 		.ascii	"cpussRomCtl\000"
 7011      73526F6D 
 7011      43746C00 
 7012              	.LASF232:
 7013 1283 626F785F 		.ascii	"box_w\000"
 7013      7700
 7014              	.LASF306:
 7015 1289 4C565F41 		.ascii	"LV_ALIGN_IN_BOTTOM_LEFT\000"
 7015      4C49474E 
ARM GAS  C:\Users\tmj32\AppData\Local\Temp\cch6Xcfo.s 			page 165


 7015      5F494E5F 
 7015      424F5454 
 7015      4F4D5F4C 
 7016              	.LASF305:
 7017 12a1 4C565F41 		.ascii	"LV_ALIGN_IN_TOP_RIGHT\000"
 7017      4C49474E 
 7017      5F494E5F 
 7017      544F505F 
 7017      52494748 
 7018              	.LASF241:
 7019 12b7 62617365 		.ascii	"base_line\000"
 7019      5F6C696E 
 7019      6500
 7020              	.LASF244:
 7021 12c1 4C565F41 		.ascii	"LV_ANIM_OFF\000"
 7021      4E494D5F 
 7021      4F464600 
 7022              	.LASF259:
 7023 12cd 72616469 		.ascii	"radius\000"
 7023      757300
 7024              	.LASF228:
 7025 12d4 6F70615F 		.ascii	"opa_scale\000"
 7025      7363616C 
 7025      6500
 7026              	.LASF270:
 7027 12de 626F6479 		.ascii	"body\000"
 7027      00
 7028              	.LASF300:
 7029 12e3 6C765F73 		.ascii	"lv_signal_t\000"
 7029      69676E61 
 7029      6C5F7400 
 7030              	.LASF413:
 7031 12ef 686F6D65 		.ascii	"home_screen.c\000"
 7031      5F736372 
 7031      65656E2E 
 7031      6300
 7032              	.LASF246:
 7033 12fd 6C765F61 		.ascii	"lv_anim_enable_t\000"
 7033      6E696D5F 
 7033      656E6162 
 7033      6C655F74 
 7033      00
 7034              	.LASF227:
 7035 130e 70726F74 		.ascii	"protect\000"
 7035      65637400 
 7036              	.LASF36:
 7037 1316 64775665 		.ascii	"dwVersion\000"
 7037      7273696F 
 7037      6E00
 7038              	.LASF3:
 7039 1320 756E7369 		.ascii	"unsigned char\000"
 7039      676E6564 
 7039      20636861 
 7039      7200
 7040              	.LASF10:
 7041 132e 5F5F7569 		.ascii	"__uint32_t\000"
 7041      6E743332 
ARM GAS  C:\Users\tmj32\AppData\Local\Temp\cch6Xcfo.s 			page 166


 7041      5F7400
 7042              	.LASF288:
 7043 1339 4C565F45 		.ascii	"LV_EVENT_DRAG_THROW_BEGIN\000"
 7043      56454E54 
 7043      5F445241 
 7043      475F5448 
 7043      524F575F 
 7044              	.LASF188:
 7045 1353 486F7269 		.ascii	"HoriScale\000"
 7045      5363616C 
 7045      6500
 7046              	.LASF174:
 7047 135d 5350495F 		.ascii	"SPI_parameters\000"
 7047      70617261 
 7047      6D657465 
 7047      727300
 7048              	.LASF273:
 7049 136c 6C696E65 		.ascii	"line\000"
 7049      00
 7050              	.LASF172:
 7051 1371 636F756E 		.ascii	"countInput\000"
 7051      74496E70 
 7051      757400
 7052              	.LASF393:
 7053 137c 76657274 		.ascii	"vertSlider\000"
 7053      536C6964 
 7053      657200
 7054              	.LASF313:
 7055 1387 4C565F41 		.ascii	"LV_ALIGN_OUT_TOP_RIGHT\000"
 7055      4C49474E 
 7055      5F4F5554 
 7055      5F544F50 
 7055      5F524947 
 7056              	.LASF239:
 7057 139e 6765745F 		.ascii	"get_glyph_bitmap\000"
 7057      676C7970 
 7057      685F6269 
 7057      746D6170 
 7057      00
 7058              	.LASF199:
 7059 13af 7461696C 		.ascii	"tail\000"
 7059      00
 7060              	.LASF65:
 7061 13b4 666C6173 		.ascii	"flashEraseDelay\000"
 7061      68457261 
 7061      73654465 
 7061      6C617900 
 7062              	.LASF210:
 7063 13c4 6368696C 		.ascii	"child_ll\000"
 7063      645F6C6C 
 7063      00
 7064              	.LASF375:
 7065 13cd 766F6C74 		.ascii	"voltage\000"
 7065      61676500 
 7066              	.LASF409:
 7067 13d5 74636E6A 		.ascii	"tcnj_blue\000"
 7067      5F626C75 
ARM GAS  C:\Users\tmj32\AppData\Local\Temp\cch6Xcfo.s 			page 167


 7067      6500
 7068              	.LASF345:
 7069 13df 4C565F43 		.ascii	"LV_CHART_TYPE_NONE\000"
 7069      48415254 
 7069      5F545950 
 7069      455F4E4F 
 7069      4E4500
 7070              	.LASF121:
 7071 13f2 73746174 		.ascii	"state\000"
 7071      6500
 7072              	.LASF276:
 7073 13f8 6C765F64 		.ascii	"lv_design_mode_t\000"
 7073      65736967 
 7073      6E5F6D6F 
 7073      64655F74 
 7073      00
 7074              	.LASF376:
 7075 1409 74726967 		.ascii	"triggerTemp\000"
 7075      67657254 
 7075      656D7000 
 7076              	.LASF25:
 7077 1415 666C6173 		.ascii	"flashcBase\000"
 7077      68634261 
 7077      736500
 7078              	.LASF344:
 7079 1420 4C565F4C 		.ascii	"LV_LABEL_LONG_CROP\000"
 7079      4142454C 
 7079      5F4C4F4E 
 7079      475F4352 
 7079      4F5000
 7080              	.LASF212:
 7081 1433 6576656E 		.ascii	"event_cb\000"
 7081      745F6362 
 7081      00
 7082              	.LASF214:
 7083 143c 64657369 		.ascii	"design_cb\000"
 7083      676E5F63 
 7083      6200
 7084              	.LASF61:
 7085 1446 666C6173 		.ascii	"flashRwwRequired\000"
 7085      68527777 
 7085      52657175 
 7085      69726564 
 7085      00
 7086              	.LASF90:
 7087 1457 6770696F 		.ascii	"gpioPrtCfgOffset\000"
 7087      50727443 
 7087      66674F66 
 7087      66736574 
 7087      00
 7088              	.LASF382:
 7089 1468 756E6974 		.ascii	"units\000"
 7089      7300
 7090              	.LASF215:
 7091 146e 6578745F 		.ascii	"ext_attr\000"
 7091      61747472 
 7091      00
ARM GAS  C:\Users\tmj32\AppData\Local\Temp\cch6Xcfo.s 			page 168


 7092              	.LASF67:
 7093 1477 666C6173 		.ascii	"flashCtlMainWs1Freq\000"
 7093      6843746C 
 7093      4D61696E 
 7093      57733146 
 7093      72657100 
 7094              	.LASF184:
 7095 148b 6F6E4269 		.ascii	"onBit\000"
 7095      7400
 7096              	.LASF47:
 7097 1491 63707573 		.ascii	"cpussIpc0Irq\000"
 7097      73497063 
 7097      30497271 
 7097      00
 7098              	.LASF2:
 7099 149e 7369676E 		.ascii	"signed char\000"
 7099      65642063 
 7099      68617200 
 7100              	.LASF154:
 7101 14aa 70657269 		.ascii	"period\000"
 7101      6F6400
 7102              	.LASF221:
 7103 14b1 68696464 		.ascii	"hidden\000"
 7103      656E00
 7104              	.LASF71:
 7105 14b8 64774368 		.ascii	"dwChOffset\000"
 7105      4F666673 
 7105      657400
 7106              	.LASF44:
 7107 14c3 63707573 		.ascii	"cpussIpcIrqNr\000"
 7107      73497063 
 7107      4972714E 
 7107      7200
 7108              	.LASF153:
 7109 14d1 63795F73 		.ascii	"cy_stc_tcpwm_counter_config\000"
 7109      74635F74 
 7109      6370776D 
 7109      5F636F75 
 7109      6E746572 
 7110              	.LASF74:
 7111 14ed 64774368 		.ascii	"dwChCtlPreemptablePos\000"
 7111      43746C50 
 7111      7265656D 
 7111      70746162 
 7111      6C65506F 
 7112              	.LASF181:
 7113 1503 54726967 		.ascii	"TriggerSlope\000"
 7113      67657253 
 7113      6C6F7065 
 7113      00
 7114              	.LASF0:
 7115 1510 5F5F696E 		.ascii	"__int8_t\000"
 7115      74385F74 
 7115      00
 7116              	.LASF366:
 7117 1519 6C765F73 		.ascii	"lv_sw_get_state\000"
 7117      775F6765 
ARM GAS  C:\Users\tmj32\AppData\Local\Temp\cch6Xcfo.s 			page 169


 7117      745F7374 
 7117      61746500 
 7118              	.LASF319:
 7119 1529 4C565F41 		.ascii	"LV_ALIGN_OUT_LEFT_BOTTOM\000"
 7119      4C49474E 
 7119      5F4F5554 
 7119      5F4C4546 
 7119      545F424F 
 7120              	.LASF110:
 7121 1542 63795F73 		.ascii	"cy_stc_device_t\000"
 7121      74635F64 
 7121      65766963 
 7121      655F7400 
 7122              	.LASF226:
 7123 1552 72657365 		.ascii	"reserved\000"
 7123      72766564 
 7123      00
 7124              	.LASF283:
 7125 155b 4C565F45 		.ascii	"LV_EVENT_LONG_PRESSED_REPEAT\000"
 7125      56454E54 
 7125      5F4C4F4E 
 7125      475F5052 
 7125      45535345 
 7126              	.LASF349:
 7127 1578 4C565F43 		.ascii	"LV_CHART_TYPE_VERTICAL_LINE\000"
 7127      48415254 
 7127      5F545950 
 7127      455F5645 
 7127      52544943 
 7128              	.LASF143:
 7129 1594 63795F73 		.ascii	"cy_stc_scb_spi_context\000"
 7129      74635F73 
 7129      63625F73 
 7129      70695F63 
 7129      6F6E7465 
 7130              	.LASF112:
 7131 15ab 646F7562 		.ascii	"double\000"
 7131      6C6500
 7132              	.LASF218:
 7133 15b2 64726167 		.ascii	"drag\000"
 7133      00
 7134              	.LASF377:
 7135 15b7 726F6C6C 		.ascii	"roller1_event\000"
 7135      6572315F 
 7135      6576656E 
 7135      7400
 7136              	.LASF87:
 7137 15c5 70657269 		.ascii	"periDiv16_5CtlOffset\000"
 7137      44697631 
 7137      365F3543 
 7137      746C4F66 
 7137      66736574 
 7138              	.LASF45:
 7139 15da 63707573 		.ascii	"cpussDwChNr\000"
 7139      73447743 
 7139      684E7200 
 7140              	.LASF140:
ARM GAS  C:\Users\tmj32\AppData\Local\Temp\cch6Xcfo.s 			page 170


 7141 15e6 63795F73 		.ascii	"cy_stc_scb_i2c_context_t\000"
 7141      74635F73 
 7141      63625F69 
 7141      32635F63 
 7141      6F6E7465 
 7142              	.LASF213:
 7143 15ff 7369676E 		.ascii	"signal_cb\000"
 7143      616C5F63 
 7143      6200
 7144              	.LASF70:
 7145 1609 666C6173 		.ascii	"flashCtlMainWs4Freq\000"
 7145      6843746C 
 7145      4D61696E 
 7145      57733446 
 7145      72657100 
 7146              	.LASF335:
 7147 161d 4C565F42 		.ascii	"LV_BTN_STATE_TGL_REL\000"
 7147      544E5F53 
 7147      54415445 
 7147      5F54474C 
 7147      5F52454C 
 7148              	.LASF281:
 7149 1632 4C565F45 		.ascii	"LV_EVENT_SHORT_CLICKED\000"
 7149      56454E54 
 7149      5F53484F 
 7149      52545F43 
 7149      4C49434B 
 7150              	.LASF350:
 7151 1649 4C565F43 		.ascii	"LV_CHART_TYPE_AREA\000"
 7151      48415254 
 7151      5F545950 
 7151      455F4152 
 7151      454100
 7152              	.LASF412:
 7153 165c 474E5520 		.ascii	"GNU C11 5.4.1 20160609 (release) [ARM/embedded-5-br"
 7153      43313120 
 7153      352E342E 
 7153      31203230 
 7153      31363036 
 7154 168f 616E6368 		.ascii	"anch revision 237715] -mcpu=cortex-m4 -mfloat-abi=s"
 7154      20726576 
 7154      6973696F 
 7154      6E203233 
 7154      37373135 
 7155 16c2 6F667466 		.ascii	"oftfp -mfpu=fpv4-sp-d16 -mthumb -g -O0 -ffunction-s"
 7155      70202D6D 
 7155      6670753D 
 7155      66707634 
 7155      2D73702D 
 7156 16f5 65637469 		.ascii	"ections -ffat-lto-objects\000"
 7156      6F6E7320 
 7156      2D666661 
 7156      742D6C74 
 7156      6F2D6F62 
 7157              	.LASF327:
 7158 170f 616C6967 		.ascii	"align\000"
 7158      6E00
ARM GAS  C:\Users\tmj32\AppData\Local\Temp\cch6Xcfo.s 			page 171


 7159              	.LASF177:
 7160 1715 5368616E 		.ascii	"ShannonReg\000"
 7160      6E6F6E52 
 7160      656700
 7161              	.LASF269:
 7162 1720 676C6173 		.ascii	"glass\000"
 7162      7300
 7163              	.LASF97:
 7164 1726 63707573 		.ascii	"cpussCm0StatusOffset\000"
 7164      73436D30 
 7164      53746174 
 7164      75734F66 
 7164      66736574 
 7165              	.LASF351:
 7166 173b 706F696E 		.ascii	"points\000"
 7166      747300
 7167              	.LASF303:
 7168 1742 4C565F41 		.ascii	"LV_ALIGN_IN_TOP_LEFT\000"
 7168      4C49474E 
 7168      5F494E5F 
 7168      544F505F 
 7168      4C454654 
 7169              	.LASF282:
 7170 1757 4C565F45 		.ascii	"LV_EVENT_LONG_PRESSED\000"
 7170      56454E54 
 7170      5F4C4F4E 
 7170      475F5052 
 7170      45535345 
 7171              	.LASF299:
 7172 176d 6C765F65 		.ascii	"lv_event_cb_t\000"
 7172      76656E74 
 7172      5F63625F 
 7172      7400
 7173              	.LASF34:
 7174 177b 63707573 		.ascii	"cpussVersion\000"
 7174      73566572 
 7174      73696F6E 
 7174      00
 7175              	.LASF330:
 7176 1788 6C765F72 		.ascii	"lv_reailgn_t\000"
 7176      6561696C 
 7176      676E5F74 
 7176      00
 7177              	.LASF146:
 7178 1795 72784275 		.ascii	"rxBufSize\000"
 7178      6653697A 
 7178      6500
 7179              	.LASF231:
 7180 179f 6164765F 		.ascii	"adv_w\000"
 7180      7700
 7181              	.LASF129:
 7182 17a5 736C6176 		.ascii	"slaveStatus\000"
 7182      65537461 
 7182      74757300 
 7183              	.LASF397:
 7184 17b1 726F6C6C 		.ascii	"rollerLabel\000"
 7184      65724C61 
ARM GAS  C:\Users\tmj32\AppData\Local\Temp\cch6Xcfo.s 			page 172


 7184      62656C00 
 7185              	.LASF388:
 7186 17bd 6F666673 		.ascii	"offsetLabel2\000"
 7186      65744C61 
 7186      62656C32 
 7186      00
 7187              		.ident	"GCC: (GNU Tools for ARM Embedded Processors) 5.4.1 20160609 (release) [ARM/embedded-5-bran
