ARM GAS  C:\Users\tmj32\AppData\Local\Temp\cc1nbtVP.s 			page 1


   1              		.syntax unified
   2              		.cpu cortex-m4
   3              		.eabi_attribute 27, 1
   4              		.fpu fpv4-sp-d16
   5              		.eabi_attribute 20, 1
   6              		.eabi_attribute 21, 1
   7              		.eabi_attribute 23, 3
   8              		.eabi_attribute 24, 1
   9              		.eabi_attribute 25, 1
  10              		.eabi_attribute 26, 1
  11              		.eabi_attribute 30, 6
  12              		.eabi_attribute 34, 1
  13              		.eabi_attribute 18, 4
  14              		.thumb
  15              		.syntax unified
  16              		.file	"home_screen.c"
  17              		.text
  18              	.Ltext0:
  19              		.cfi_sections	.debug_frame
  20              		.comm	cm4,2152,4
  21              		.section	.text.lv_color_make,"ax",%progbits
  22              		.align	2
  23              		.thumb
  24              		.thumb_func
  25              		.type	lv_color_make, %function
  26              	lv_color_make:
  27              	.LFB588:
  28              		.file 1 "..\\..\\..\\lvgl\\version_6.1.2\\lvgl/src/lv_hal/../lv_misc/lv_color.h"
   1:..\..\..\lvgl\version_6.1.2\lvgl/src/lv_hal/../lv_misc/lv_color.h **** /**
   2:..\..\..\lvgl\version_6.1.2\lvgl/src/lv_hal/../lv_misc/lv_color.h ****  * @file lv_color.h
   3:..\..\..\lvgl\version_6.1.2\lvgl/src/lv_hal/../lv_misc/lv_color.h ****  *
   4:..\..\..\lvgl\version_6.1.2\lvgl/src/lv_hal/../lv_misc/lv_color.h ****  */
   5:..\..\..\lvgl\version_6.1.2\lvgl/src/lv_hal/../lv_misc/lv_color.h **** 
   6:..\..\..\lvgl\version_6.1.2\lvgl/src/lv_hal/../lv_misc/lv_color.h **** #ifndef LV_COLOR_H
   7:..\..\..\lvgl\version_6.1.2\lvgl/src/lv_hal/../lv_misc/lv_color.h **** #define LV_COLOR_H
   8:..\..\..\lvgl\version_6.1.2\lvgl/src/lv_hal/../lv_misc/lv_color.h **** 
   9:..\..\..\lvgl\version_6.1.2\lvgl/src/lv_hal/../lv_misc/lv_color.h **** #ifdef __cplusplus
  10:..\..\..\lvgl\version_6.1.2\lvgl/src/lv_hal/../lv_misc/lv_color.h **** extern "C" {
  11:..\..\..\lvgl\version_6.1.2\lvgl/src/lv_hal/../lv_misc/lv_color.h **** #endif
  12:..\..\..\lvgl\version_6.1.2\lvgl/src/lv_hal/../lv_misc/lv_color.h **** 
  13:..\..\..\lvgl\version_6.1.2\lvgl/src/lv_hal/../lv_misc/lv_color.h **** /*********************
  14:..\..\..\lvgl\version_6.1.2\lvgl/src/lv_hal/../lv_misc/lv_color.h ****  *      INCLUDES
  15:..\..\..\lvgl\version_6.1.2\lvgl/src/lv_hal/../lv_misc/lv_color.h ****  *********************/
  16:..\..\..\lvgl\version_6.1.2\lvgl/src/lv_hal/../lv_misc/lv_color.h **** #ifdef LV_CONF_INCLUDE_SIMPLE
  17:..\..\..\lvgl\version_6.1.2\lvgl/src/lv_hal/../lv_misc/lv_color.h **** #include "lv_conf.h"
  18:..\..\..\lvgl\version_6.1.2\lvgl/src/lv_hal/../lv_misc/lv_color.h **** #else
  19:..\..\..\lvgl\version_6.1.2\lvgl/src/lv_hal/../lv_misc/lv_color.h **** #include "../../../lv_conf.h"
  20:..\..\..\lvgl\version_6.1.2\lvgl/src/lv_hal/../lv_misc/lv_color.h **** #endif
  21:..\..\..\lvgl\version_6.1.2\lvgl/src/lv_hal/../lv_misc/lv_color.h **** 
  22:..\..\..\lvgl\version_6.1.2\lvgl/src/lv_hal/../lv_misc/lv_color.h **** /*Error checking*/
  23:..\..\..\lvgl\version_6.1.2\lvgl/src/lv_hal/../lv_misc/lv_color.h **** #if LV_COLOR_DEPTH == 24
  24:..\..\..\lvgl\version_6.1.2\lvgl/src/lv_hal/../lv_misc/lv_color.h **** #error "LV_COLOR_DEPTH  24 is deprecated. Use LV_COLOR_DEPTH  32 instead (lv_conf.h)"
  25:..\..\..\lvgl\version_6.1.2\lvgl/src/lv_hal/../lv_misc/lv_color.h **** #endif
  26:..\..\..\lvgl\version_6.1.2\lvgl/src/lv_hal/../lv_misc/lv_color.h **** 
  27:..\..\..\lvgl\version_6.1.2\lvgl/src/lv_hal/../lv_misc/lv_color.h **** #if LV_COLOR_DEPTH != 32 && LV_COLOR_SCREEN_TRANSP != 0
  28:..\..\..\lvgl\version_6.1.2\lvgl/src/lv_hal/../lv_misc/lv_color.h **** #error "LV_COLOR_SCREEN_TRANSP requires LV_COLOR_DEPTH == 32. Set it in lv_conf.h"
  29:..\..\..\lvgl\version_6.1.2\lvgl/src/lv_hal/../lv_misc/lv_color.h **** #endif
ARM GAS  C:\Users\tmj32\AppData\Local\Temp\cc1nbtVP.s 			page 2


  30:..\..\..\lvgl\version_6.1.2\lvgl/src/lv_hal/../lv_misc/lv_color.h **** 
  31:..\..\..\lvgl\version_6.1.2\lvgl/src/lv_hal/../lv_misc/lv_color.h **** #if LV_COLOR_DEPTH != 16 && LV_COLOR_16_SWAP != 0
  32:..\..\..\lvgl\version_6.1.2\lvgl/src/lv_hal/../lv_misc/lv_color.h **** #error "LV_COLOR_16_SWAP requires LV_COLOR_DEPTH == 16. Set it in lv_conf.h"
  33:..\..\..\lvgl\version_6.1.2\lvgl/src/lv_hal/../lv_misc/lv_color.h **** #endif
  34:..\..\..\lvgl\version_6.1.2\lvgl/src/lv_hal/../lv_misc/lv_color.h **** 
  35:..\..\..\lvgl\version_6.1.2\lvgl/src/lv_hal/../lv_misc/lv_color.h **** #include <stdint.h>
  36:..\..\..\lvgl\version_6.1.2\lvgl/src/lv_hal/../lv_misc/lv_color.h **** 
  37:..\..\..\lvgl\version_6.1.2\lvgl/src/lv_hal/../lv_misc/lv_color.h **** /*********************
  38:..\..\..\lvgl\version_6.1.2\lvgl/src/lv_hal/../lv_misc/lv_color.h ****  *      DEFINES
  39:..\..\..\lvgl\version_6.1.2\lvgl/src/lv_hal/../lv_misc/lv_color.h ****  *********************/
  40:..\..\..\lvgl\version_6.1.2\lvgl/src/lv_hal/../lv_misc/lv_color.h **** #define LV_COLOR_WHITE LV_COLOR_MAKE(0xFF, 0xFF, 0xFF)
  41:..\..\..\lvgl\version_6.1.2\lvgl/src/lv_hal/../lv_misc/lv_color.h **** #define LV_COLOR_SILVER LV_COLOR_MAKE(0xC0, 0xC0, 0xC0)
  42:..\..\..\lvgl\version_6.1.2\lvgl/src/lv_hal/../lv_misc/lv_color.h **** #define LV_COLOR_GRAY LV_COLOR_MAKE(0x80, 0x80, 0x80)
  43:..\..\..\lvgl\version_6.1.2\lvgl/src/lv_hal/../lv_misc/lv_color.h **** #define LV_COLOR_BLACK LV_COLOR_MAKE(0x00, 0x00, 0x00)
  44:..\..\..\lvgl\version_6.1.2\lvgl/src/lv_hal/../lv_misc/lv_color.h **** #define LV_COLOR_RED LV_COLOR_MAKE(0xFF, 0x00, 0x00)
  45:..\..\..\lvgl\version_6.1.2\lvgl/src/lv_hal/../lv_misc/lv_color.h **** #define LV_COLOR_MAROON LV_COLOR_MAKE(0x80, 0x00, 0x00)
  46:..\..\..\lvgl\version_6.1.2\lvgl/src/lv_hal/../lv_misc/lv_color.h **** #define LV_COLOR_YELLOW LV_COLOR_MAKE(0xFF, 0xFF, 0x00)
  47:..\..\..\lvgl\version_6.1.2\lvgl/src/lv_hal/../lv_misc/lv_color.h **** #define LV_COLOR_OLIVE LV_COLOR_MAKE(0x80, 0x80, 0x00)
  48:..\..\..\lvgl\version_6.1.2\lvgl/src/lv_hal/../lv_misc/lv_color.h **** #define LV_COLOR_LIME LV_COLOR_MAKE(0x00, 0xFF, 0x00)
  49:..\..\..\lvgl\version_6.1.2\lvgl/src/lv_hal/../lv_misc/lv_color.h **** #define LV_COLOR_GREEN LV_COLOR_MAKE(0x00, 0x80, 0x00)
  50:..\..\..\lvgl\version_6.1.2\lvgl/src/lv_hal/../lv_misc/lv_color.h **** #define LV_COLOR_CYAN LV_COLOR_MAKE(0x00, 0xFF, 0xFF)
  51:..\..\..\lvgl\version_6.1.2\lvgl/src/lv_hal/../lv_misc/lv_color.h **** #define LV_COLOR_AQUA LV_COLOR_CYAN
  52:..\..\..\lvgl\version_6.1.2\lvgl/src/lv_hal/../lv_misc/lv_color.h **** #define LV_COLOR_TEAL LV_COLOR_MAKE(0x00, 0x80, 0x80)
  53:..\..\..\lvgl\version_6.1.2\lvgl/src/lv_hal/../lv_misc/lv_color.h **** #define LV_COLOR_BLUE LV_COLOR_MAKE(0x00, 0x00, 0xFF)
  54:..\..\..\lvgl\version_6.1.2\lvgl/src/lv_hal/../lv_misc/lv_color.h **** #define LV_COLOR_NAVY LV_COLOR_MAKE(0x00, 0x00, 0x80)
  55:..\..\..\lvgl\version_6.1.2\lvgl/src/lv_hal/../lv_misc/lv_color.h **** #define LV_COLOR_MAGENTA LV_COLOR_MAKE(0xFF, 0x00, 0xFF)
  56:..\..\..\lvgl\version_6.1.2\lvgl/src/lv_hal/../lv_misc/lv_color.h **** #define LV_COLOR_PURPLE LV_COLOR_MAKE(0x80, 0x00, 0x80)
  57:..\..\..\lvgl\version_6.1.2\lvgl/src/lv_hal/../lv_misc/lv_color.h **** #define LV_COLOR_ORANGE LV_COLOR_MAKE(0xFF, 0xA5, 0x00)
  58:..\..\..\lvgl\version_6.1.2\lvgl/src/lv_hal/../lv_misc/lv_color.h **** 
  59:..\..\..\lvgl\version_6.1.2\lvgl/src/lv_hal/../lv_misc/lv_color.h **** /**
  60:..\..\..\lvgl\version_6.1.2\lvgl/src/lv_hal/../lv_misc/lv_color.h ****  * Opacity percentages.
  61:..\..\..\lvgl\version_6.1.2\lvgl/src/lv_hal/../lv_misc/lv_color.h ****  */
  62:..\..\..\lvgl\version_6.1.2\lvgl/src/lv_hal/../lv_misc/lv_color.h **** enum {
  63:..\..\..\lvgl\version_6.1.2\lvgl/src/lv_hal/../lv_misc/lv_color.h ****     LV_OPA_TRANSP = 0,
  64:..\..\..\lvgl\version_6.1.2\lvgl/src/lv_hal/../lv_misc/lv_color.h ****     LV_OPA_0      = 0,
  65:..\..\..\lvgl\version_6.1.2\lvgl/src/lv_hal/../lv_misc/lv_color.h ****     LV_OPA_10     = 25,
  66:..\..\..\lvgl\version_6.1.2\lvgl/src/lv_hal/../lv_misc/lv_color.h ****     LV_OPA_20     = 51,
  67:..\..\..\lvgl\version_6.1.2\lvgl/src/lv_hal/../lv_misc/lv_color.h ****     LV_OPA_30     = 76,
  68:..\..\..\lvgl\version_6.1.2\lvgl/src/lv_hal/../lv_misc/lv_color.h ****     LV_OPA_40     = 102,
  69:..\..\..\lvgl\version_6.1.2\lvgl/src/lv_hal/../lv_misc/lv_color.h ****     LV_OPA_50     = 127,
  70:..\..\..\lvgl\version_6.1.2\lvgl/src/lv_hal/../lv_misc/lv_color.h ****     LV_OPA_60     = 153,
  71:..\..\..\lvgl\version_6.1.2\lvgl/src/lv_hal/../lv_misc/lv_color.h ****     LV_OPA_70     = 178,
  72:..\..\..\lvgl\version_6.1.2\lvgl/src/lv_hal/../lv_misc/lv_color.h ****     LV_OPA_80     = 204,
  73:..\..\..\lvgl\version_6.1.2\lvgl/src/lv_hal/../lv_misc/lv_color.h ****     LV_OPA_90     = 229,
  74:..\..\..\lvgl\version_6.1.2\lvgl/src/lv_hal/../lv_misc/lv_color.h ****     LV_OPA_100    = 255,
  75:..\..\..\lvgl\version_6.1.2\lvgl/src/lv_hal/../lv_misc/lv_color.h ****     LV_OPA_COVER  = 255,
  76:..\..\..\lvgl\version_6.1.2\lvgl/src/lv_hal/../lv_misc/lv_color.h **** };
  77:..\..\..\lvgl\version_6.1.2\lvgl/src/lv_hal/../lv_misc/lv_color.h **** 
  78:..\..\..\lvgl\version_6.1.2\lvgl/src/lv_hal/../lv_misc/lv_color.h **** #define LV_OPA_MIN 16  /*Opacities below this will be transparent*/
  79:..\..\..\lvgl\version_6.1.2\lvgl/src/lv_hal/../lv_misc/lv_color.h **** #define LV_OPA_MAX 251 /*Opacities above this will fully cover*/
  80:..\..\..\lvgl\version_6.1.2\lvgl/src/lv_hal/../lv_misc/lv_color.h **** 
  81:..\..\..\lvgl\version_6.1.2\lvgl/src/lv_hal/../lv_misc/lv_color.h **** #if LV_COLOR_DEPTH == 1
  82:..\..\..\lvgl\version_6.1.2\lvgl/src/lv_hal/../lv_misc/lv_color.h **** #define LV_COLOR_SIZE 8
  83:..\..\..\lvgl\version_6.1.2\lvgl/src/lv_hal/../lv_misc/lv_color.h **** #elif LV_COLOR_DEPTH == 8
  84:..\..\..\lvgl\version_6.1.2\lvgl/src/lv_hal/../lv_misc/lv_color.h **** #define LV_COLOR_SIZE 8
  85:..\..\..\lvgl\version_6.1.2\lvgl/src/lv_hal/../lv_misc/lv_color.h **** #elif LV_COLOR_DEPTH == 16
  86:..\..\..\lvgl\version_6.1.2\lvgl/src/lv_hal/../lv_misc/lv_color.h **** #define LV_COLOR_SIZE 16
ARM GAS  C:\Users\tmj32\AppData\Local\Temp\cc1nbtVP.s 			page 3


  87:..\..\..\lvgl\version_6.1.2\lvgl/src/lv_hal/../lv_misc/lv_color.h **** #elif LV_COLOR_DEPTH == 32
  88:..\..\..\lvgl\version_6.1.2\lvgl/src/lv_hal/../lv_misc/lv_color.h **** #define LV_COLOR_SIZE 32
  89:..\..\..\lvgl\version_6.1.2\lvgl/src/lv_hal/../lv_misc/lv_color.h **** #else
  90:..\..\..\lvgl\version_6.1.2\lvgl/src/lv_hal/../lv_misc/lv_color.h **** #error "Invalid LV_COLOR_DEPTH in lv_conf.h! Set it to 1, 8, 16 or 32!"
  91:..\..\..\lvgl\version_6.1.2\lvgl/src/lv_hal/../lv_misc/lv_color.h **** #endif
  92:..\..\..\lvgl\version_6.1.2\lvgl/src/lv_hal/../lv_misc/lv_color.h **** 
  93:..\..\..\lvgl\version_6.1.2\lvgl/src/lv_hal/../lv_misc/lv_color.h **** /*---------------------------------------
  94:..\..\..\lvgl\version_6.1.2\lvgl/src/lv_hal/../lv_misc/lv_color.h ****  * Macros for all existing  color depths
  95:..\..\..\lvgl\version_6.1.2\lvgl/src/lv_hal/../lv_misc/lv_color.h ****  * to set/get values of the color channels
  96:..\..\..\lvgl\version_6.1.2\lvgl/src/lv_hal/../lv_misc/lv_color.h ****  *------------------------------------------*/
  97:..\..\..\lvgl\version_6.1.2\lvgl/src/lv_hal/../lv_misc/lv_color.h **** # define LV_COLOR_SET_R1(c, v) (c).ch.red = (uint8_t)((v) & 0x1);
  98:..\..\..\lvgl\version_6.1.2\lvgl/src/lv_hal/../lv_misc/lv_color.h **** # define LV_COLOR_SET_G1(c, v) (c).ch.green = (uint8_t)((v) & 0x1);
  99:..\..\..\lvgl\version_6.1.2\lvgl/src/lv_hal/../lv_misc/lv_color.h **** # define LV_COLOR_SET_B1(c, v) (c).ch.blue = (uint8_t)((v) & 0x1);
 100:..\..\..\lvgl\version_6.1.2\lvgl/src/lv_hal/../lv_misc/lv_color.h **** # define LV_COLOR_SET_A1(c, v)
 101:..\..\..\lvgl\version_6.1.2\lvgl/src/lv_hal/../lv_misc/lv_color.h **** 
 102:..\..\..\lvgl\version_6.1.2\lvgl/src/lv_hal/../lv_misc/lv_color.h **** # define LV_COLOR_GET_R1(c) (c).ch.red
 103:..\..\..\lvgl\version_6.1.2\lvgl/src/lv_hal/../lv_misc/lv_color.h **** # define LV_COLOR_GET_G1(c) (c).ch.green
 104:..\..\..\lvgl\version_6.1.2\lvgl/src/lv_hal/../lv_misc/lv_color.h **** # define LV_COLOR_GET_B1(c) (c).ch.blue
 105:..\..\..\lvgl\version_6.1.2\lvgl/src/lv_hal/../lv_misc/lv_color.h **** # define LV_COLOR_GET_A1(c) 1
 106:..\..\..\lvgl\version_6.1.2\lvgl/src/lv_hal/../lv_misc/lv_color.h **** 
 107:..\..\..\lvgl\version_6.1.2\lvgl/src/lv_hal/../lv_misc/lv_color.h **** # define LV_COLOR_SET_R8(c, v) (c).ch.red = (uint8_t)(v) & 0x7U;
 108:..\..\..\lvgl\version_6.1.2\lvgl/src/lv_hal/../lv_misc/lv_color.h **** # define LV_COLOR_SET_G8(c, v) (c).ch.green = (uint8_t)(v) & 0x7U;
 109:..\..\..\lvgl\version_6.1.2\lvgl/src/lv_hal/../lv_misc/lv_color.h **** # define LV_COLOR_SET_B8(c, v) (c).ch.blue = (uint8_t)(v) & 0x3U;
 110:..\..\..\lvgl\version_6.1.2\lvgl/src/lv_hal/../lv_misc/lv_color.h **** # define LV_COLOR_SET_A8(c, v) do {} while(0)
 111:..\..\..\lvgl\version_6.1.2\lvgl/src/lv_hal/../lv_misc/lv_color.h **** 
 112:..\..\..\lvgl\version_6.1.2\lvgl/src/lv_hal/../lv_misc/lv_color.h **** # define LV_COLOR_GET_R8(c) (c).ch.red
 113:..\..\..\lvgl\version_6.1.2\lvgl/src/lv_hal/../lv_misc/lv_color.h **** # define LV_COLOR_GET_G8(c) (c).ch.green
 114:..\..\..\lvgl\version_6.1.2\lvgl/src/lv_hal/../lv_misc/lv_color.h **** # define LV_COLOR_GET_B8(c) (c).ch.blue
 115:..\..\..\lvgl\version_6.1.2\lvgl/src/lv_hal/../lv_misc/lv_color.h **** # define LV_COLOR_GET_A8(c) 0xFF
 116:..\..\..\lvgl\version_6.1.2\lvgl/src/lv_hal/../lv_misc/lv_color.h **** 
 117:..\..\..\lvgl\version_6.1.2\lvgl/src/lv_hal/../lv_misc/lv_color.h **** # define LV_COLOR_SET_R16(c, v) (c).ch.red = (uint8_t)(v) & 0x1FU;
 118:..\..\..\lvgl\version_6.1.2\lvgl/src/lv_hal/../lv_misc/lv_color.h **** # define LV_COLOR_SET_G16(c, v) (c).ch.green = (uint8_t)(v) & 0x3FU;
 119:..\..\..\lvgl\version_6.1.2\lvgl/src/lv_hal/../lv_misc/lv_color.h **** # define LV_COLOR_SET_G16_SWAP(c, v) {(c).ch.green_h = (uint8_t)(((v) >> 3) & 0x7); (c).ch.green_l 
 120:..\..\..\lvgl\version_6.1.2\lvgl/src/lv_hal/../lv_misc/lv_color.h **** # define LV_COLOR_SET_B16(c, v) (c).ch.blue = (uint8_t)(v) & 0x1FU;
 121:..\..\..\lvgl\version_6.1.2\lvgl/src/lv_hal/../lv_misc/lv_color.h **** # define LV_COLOR_SET_A16(c, v) do {} while(0)
 122:..\..\..\lvgl\version_6.1.2\lvgl/src/lv_hal/../lv_misc/lv_color.h **** 
 123:..\..\..\lvgl\version_6.1.2\lvgl/src/lv_hal/../lv_misc/lv_color.h **** # define LV_COLOR_GET_R16(c) (c).ch.red
 124:..\..\..\lvgl\version_6.1.2\lvgl/src/lv_hal/../lv_misc/lv_color.h **** # define LV_COLOR_GET_G16(c) (c).ch.green
 125:..\..\..\lvgl\version_6.1.2\lvgl/src/lv_hal/../lv_misc/lv_color.h **** # define LV_COLOR_GET_G16_SWAP(c) (((c).ch.green_h << 3) + (c).ch.green_l)
 126:..\..\..\lvgl\version_6.1.2\lvgl/src/lv_hal/../lv_misc/lv_color.h **** # define LV_COLOR_GET_B16(c) (c).ch.blue
 127:..\..\..\lvgl\version_6.1.2\lvgl/src/lv_hal/../lv_misc/lv_color.h **** # define LV_COLOR_GET_A16(c) 0xFF
 128:..\..\..\lvgl\version_6.1.2\lvgl/src/lv_hal/../lv_misc/lv_color.h **** 
 129:..\..\..\lvgl\version_6.1.2\lvgl/src/lv_hal/../lv_misc/lv_color.h **** # define LV_COLOR_SET_R32(c, v) (c).ch.red = (uint32_t)((v) & 0xFF);
 130:..\..\..\lvgl\version_6.1.2\lvgl/src/lv_hal/../lv_misc/lv_color.h **** # define LV_COLOR_SET_G32(c, v) (c).ch.green = (uint32_t)((v) & 0xFF);
 131:..\..\..\lvgl\version_6.1.2\lvgl/src/lv_hal/../lv_misc/lv_color.h **** # define LV_COLOR_SET_B32(c, v) (c).ch.blue = (uint32_t)((v) & 0xFF);
 132:..\..\..\lvgl\version_6.1.2\lvgl/src/lv_hal/../lv_misc/lv_color.h **** # define LV_COLOR_SET_A32(c, v) (c).ch.alpha = (uint32_t)((v) & 0xFF);
 133:..\..\..\lvgl\version_6.1.2\lvgl/src/lv_hal/../lv_misc/lv_color.h **** 
 134:..\..\..\lvgl\version_6.1.2\lvgl/src/lv_hal/../lv_misc/lv_color.h **** # define LV_COLOR_GET_R32(c) (c).ch.red
 135:..\..\..\lvgl\version_6.1.2\lvgl/src/lv_hal/../lv_misc/lv_color.h **** # define LV_COLOR_GET_G32(c) (c).ch.green
 136:..\..\..\lvgl\version_6.1.2\lvgl/src/lv_hal/../lv_misc/lv_color.h **** # define LV_COLOR_GET_B32(c) (c).ch.blue
 137:..\..\..\lvgl\version_6.1.2\lvgl/src/lv_hal/../lv_misc/lv_color.h **** # define LV_COLOR_GET_A32(c) (c).ch.alpha
 138:..\..\..\lvgl\version_6.1.2\lvgl/src/lv_hal/../lv_misc/lv_color.h **** 
 139:..\..\..\lvgl\version_6.1.2\lvgl/src/lv_hal/../lv_misc/lv_color.h **** 
 140:..\..\..\lvgl\version_6.1.2\lvgl/src/lv_hal/../lv_misc/lv_color.h **** /*---------------------------------------
 141:..\..\..\lvgl\version_6.1.2\lvgl/src/lv_hal/../lv_misc/lv_color.h ****  * Macros for the current color depth
 142:..\..\..\lvgl\version_6.1.2\lvgl/src/lv_hal/../lv_misc/lv_color.h ****  * to set/get values of the color channels
 143:..\..\..\lvgl\version_6.1.2\lvgl/src/lv_hal/../lv_misc/lv_color.h ****  *------------------------------------------*/
ARM GAS  C:\Users\tmj32\AppData\Local\Temp\cc1nbtVP.s 			page 4


 144:..\..\..\lvgl\version_6.1.2\lvgl/src/lv_hal/../lv_misc/lv_color.h **** #if LV_COLOR_DEPTH == 1
 145:..\..\..\lvgl\version_6.1.2\lvgl/src/lv_hal/../lv_misc/lv_color.h **** # define LV_COLOR_SET_R(c, v) LV_COLOR_SET_R1(c,v)
 146:..\..\..\lvgl\version_6.1.2\lvgl/src/lv_hal/../lv_misc/lv_color.h **** # define LV_COLOR_SET_G(c, v) LV_COLOR_SET_G1(c,v)
 147:..\..\..\lvgl\version_6.1.2\lvgl/src/lv_hal/../lv_misc/lv_color.h **** # define LV_COLOR_SET_B(c, v) LV_COLOR_SET_B1(c,v)
 148:..\..\..\lvgl\version_6.1.2\lvgl/src/lv_hal/../lv_misc/lv_color.h **** # define LV_COLOR_SET_A(c, v) LV_COLOR_SET_A1(c,v)
 149:..\..\..\lvgl\version_6.1.2\lvgl/src/lv_hal/../lv_misc/lv_color.h **** 
 150:..\..\..\lvgl\version_6.1.2\lvgl/src/lv_hal/../lv_misc/lv_color.h **** # define LV_COLOR_GET_R(c) LV_COLOR_GET_R1(c)
 151:..\..\..\lvgl\version_6.1.2\lvgl/src/lv_hal/../lv_misc/lv_color.h **** # define LV_COLOR_GET_G(c) LV_COLOR_GET_G1(c)
 152:..\..\..\lvgl\version_6.1.2\lvgl/src/lv_hal/../lv_misc/lv_color.h **** # define LV_COLOR_GET_B(c) LV_COLOR_GET_B1(c)
 153:..\..\..\lvgl\version_6.1.2\lvgl/src/lv_hal/../lv_misc/lv_color.h **** # define LV_COLOR_GET_A(c) LV_COLOR_GET_A1(c)
 154:..\..\..\lvgl\version_6.1.2\lvgl/src/lv_hal/../lv_misc/lv_color.h **** 
 155:..\..\..\lvgl\version_6.1.2\lvgl/src/lv_hal/../lv_misc/lv_color.h **** #elif LV_COLOR_DEPTH == 8
 156:..\..\..\lvgl\version_6.1.2\lvgl/src/lv_hal/../lv_misc/lv_color.h **** # define LV_COLOR_SET_R(c, v) LV_COLOR_SET_R8(c,v)
 157:..\..\..\lvgl\version_6.1.2\lvgl/src/lv_hal/../lv_misc/lv_color.h **** # define LV_COLOR_SET_G(c, v) LV_COLOR_SET_G8(c,v)
 158:..\..\..\lvgl\version_6.1.2\lvgl/src/lv_hal/../lv_misc/lv_color.h **** # define LV_COLOR_SET_B(c, v) LV_COLOR_SET_B8(c,v)
 159:..\..\..\lvgl\version_6.1.2\lvgl/src/lv_hal/../lv_misc/lv_color.h **** # define LV_COLOR_SET_A(c, v) LV_COLOR_SET_A8(c,v)
 160:..\..\..\lvgl\version_6.1.2\lvgl/src/lv_hal/../lv_misc/lv_color.h **** 
 161:..\..\..\lvgl\version_6.1.2\lvgl/src/lv_hal/../lv_misc/lv_color.h **** # define LV_COLOR_GET_R(c) LV_COLOR_GET_R8(c)
 162:..\..\..\lvgl\version_6.1.2\lvgl/src/lv_hal/../lv_misc/lv_color.h **** # define LV_COLOR_GET_G(c) LV_COLOR_GET_G8(c)
 163:..\..\..\lvgl\version_6.1.2\lvgl/src/lv_hal/../lv_misc/lv_color.h **** # define LV_COLOR_GET_B(c) LV_COLOR_GET_B8(c)
 164:..\..\..\lvgl\version_6.1.2\lvgl/src/lv_hal/../lv_misc/lv_color.h **** # define LV_COLOR_GET_A(c) LV_COLOR_GET_A8(c)
 165:..\..\..\lvgl\version_6.1.2\lvgl/src/lv_hal/../lv_misc/lv_color.h **** 
 166:..\..\..\lvgl\version_6.1.2\lvgl/src/lv_hal/../lv_misc/lv_color.h **** #elif LV_COLOR_DEPTH == 16
 167:..\..\..\lvgl\version_6.1.2\lvgl/src/lv_hal/../lv_misc/lv_color.h **** # define LV_COLOR_SET_R(c, v) LV_COLOR_SET_R16(c,v)
 168:..\..\..\lvgl\version_6.1.2\lvgl/src/lv_hal/../lv_misc/lv_color.h **** # if LV_COLOR_16_SWAP == 0
 169:..\..\..\lvgl\version_6.1.2\lvgl/src/lv_hal/../lv_misc/lv_color.h **** #   define LV_COLOR_SET_G(c, v) LV_COLOR_SET_G16(c,v)
 170:..\..\..\lvgl\version_6.1.2\lvgl/src/lv_hal/../lv_misc/lv_color.h **** # else
 171:..\..\..\lvgl\version_6.1.2\lvgl/src/lv_hal/../lv_misc/lv_color.h **** #   define LV_COLOR_SET_G(c, v) LV_COLOR_SET_G16_SWAP(c,v)
 172:..\..\..\lvgl\version_6.1.2\lvgl/src/lv_hal/../lv_misc/lv_color.h **** # endif
 173:..\..\..\lvgl\version_6.1.2\lvgl/src/lv_hal/../lv_misc/lv_color.h **** # define LV_COLOR_SET_B(c, v) LV_COLOR_SET_B16(c,v)
 174:..\..\..\lvgl\version_6.1.2\lvgl/src/lv_hal/../lv_misc/lv_color.h **** # define LV_COLOR_SET_A(c, v) LV_COLOR_SET_A16(c,v)
 175:..\..\..\lvgl\version_6.1.2\lvgl/src/lv_hal/../lv_misc/lv_color.h **** 
 176:..\..\..\lvgl\version_6.1.2\lvgl/src/lv_hal/../lv_misc/lv_color.h **** # define LV_COLOR_GET_R(c) LV_COLOR_GET_R16(c)
 177:..\..\..\lvgl\version_6.1.2\lvgl/src/lv_hal/../lv_misc/lv_color.h **** # if LV_COLOR_16_SWAP == 0
 178:..\..\..\lvgl\version_6.1.2\lvgl/src/lv_hal/../lv_misc/lv_color.h **** #   define LV_COLOR_GET_G(c) LV_COLOR_GET_G16(c)
 179:..\..\..\lvgl\version_6.1.2\lvgl/src/lv_hal/../lv_misc/lv_color.h **** # else
 180:..\..\..\lvgl\version_6.1.2\lvgl/src/lv_hal/../lv_misc/lv_color.h **** #   define LV_COLOR_GET_G(c) LV_COLOR_GET_G16_SWAP(c)
 181:..\..\..\lvgl\version_6.1.2\lvgl/src/lv_hal/../lv_misc/lv_color.h **** # endif
 182:..\..\..\lvgl\version_6.1.2\lvgl/src/lv_hal/../lv_misc/lv_color.h **** # define LV_COLOR_GET_B(c)   LV_COLOR_GET_B16(c)
 183:..\..\..\lvgl\version_6.1.2\lvgl/src/lv_hal/../lv_misc/lv_color.h **** # define LV_COLOR_GET_A(c)   LV_COLOR_GET_A16(c)
 184:..\..\..\lvgl\version_6.1.2\lvgl/src/lv_hal/../lv_misc/lv_color.h **** 
 185:..\..\..\lvgl\version_6.1.2\lvgl/src/lv_hal/../lv_misc/lv_color.h **** #elif LV_COLOR_DEPTH == 32
 186:..\..\..\lvgl\version_6.1.2\lvgl/src/lv_hal/../lv_misc/lv_color.h **** # define LV_COLOR_SET_R(c, v) LV_COLOR_SET_R32(c,v)
 187:..\..\..\lvgl\version_6.1.2\lvgl/src/lv_hal/../lv_misc/lv_color.h **** # define LV_COLOR_SET_G(c, v) LV_COLOR_SET_G32(c,v)
 188:..\..\..\lvgl\version_6.1.2\lvgl/src/lv_hal/../lv_misc/lv_color.h **** # define LV_COLOR_SET_B(c, v) LV_COLOR_SET_B32(c,v)
 189:..\..\..\lvgl\version_6.1.2\lvgl/src/lv_hal/../lv_misc/lv_color.h **** # define LV_COLOR_SET_A(c, v) LV_COLOR_SET_A32(c,v)
 190:..\..\..\lvgl\version_6.1.2\lvgl/src/lv_hal/../lv_misc/lv_color.h **** 
 191:..\..\..\lvgl\version_6.1.2\lvgl/src/lv_hal/../lv_misc/lv_color.h **** # define LV_COLOR_GET_R(c) LV_COLOR_GET_R32(c)
 192:..\..\..\lvgl\version_6.1.2\lvgl/src/lv_hal/../lv_misc/lv_color.h **** # define LV_COLOR_GET_G(c) LV_COLOR_GET_G32(c)
 193:..\..\..\lvgl\version_6.1.2\lvgl/src/lv_hal/../lv_misc/lv_color.h **** # define LV_COLOR_GET_B(c) LV_COLOR_GET_B32(c)
 194:..\..\..\lvgl\version_6.1.2\lvgl/src/lv_hal/../lv_misc/lv_color.h **** # define LV_COLOR_GET_A(c) LV_COLOR_GET_A32(c)
 195:..\..\..\lvgl\version_6.1.2\lvgl/src/lv_hal/../lv_misc/lv_color.h **** #endif
 196:..\..\..\lvgl\version_6.1.2\lvgl/src/lv_hal/../lv_misc/lv_color.h **** 
 197:..\..\..\lvgl\version_6.1.2\lvgl/src/lv_hal/../lv_misc/lv_color.h **** /**********************
 198:..\..\..\lvgl\version_6.1.2\lvgl/src/lv_hal/../lv_misc/lv_color.h ****  *      TYPEDEFS
 199:..\..\..\lvgl\version_6.1.2\lvgl/src/lv_hal/../lv_misc/lv_color.h ****  **********************/
 200:..\..\..\lvgl\version_6.1.2\lvgl/src/lv_hal/../lv_misc/lv_color.h **** 
ARM GAS  C:\Users\tmj32\AppData\Local\Temp\cc1nbtVP.s 			page 5


 201:..\..\..\lvgl\version_6.1.2\lvgl/src/lv_hal/../lv_misc/lv_color.h **** typedef union
 202:..\..\..\lvgl\version_6.1.2\lvgl/src/lv_hal/../lv_misc/lv_color.h **** {
 203:..\..\..\lvgl\version_6.1.2\lvgl/src/lv_hal/../lv_misc/lv_color.h ****     struct
 204:..\..\..\lvgl\version_6.1.2\lvgl/src/lv_hal/../lv_misc/lv_color.h ****     {
 205:..\..\..\lvgl\version_6.1.2\lvgl/src/lv_hal/../lv_misc/lv_color.h ****         uint8_t blue : 1;
 206:..\..\..\lvgl\version_6.1.2\lvgl/src/lv_hal/../lv_misc/lv_color.h ****         uint8_t green : 1;
 207:..\..\..\lvgl\version_6.1.2\lvgl/src/lv_hal/../lv_misc/lv_color.h ****         uint8_t red : 1;
 208:..\..\..\lvgl\version_6.1.2\lvgl/src/lv_hal/../lv_misc/lv_color.h ****     } ch;
 209:..\..\..\lvgl\version_6.1.2\lvgl/src/lv_hal/../lv_misc/lv_color.h ****     uint8_t full;
 210:..\..\..\lvgl\version_6.1.2\lvgl/src/lv_hal/../lv_misc/lv_color.h **** } lv_color1_t;
 211:..\..\..\lvgl\version_6.1.2\lvgl/src/lv_hal/../lv_misc/lv_color.h **** 
 212:..\..\..\lvgl\version_6.1.2\lvgl/src/lv_hal/../lv_misc/lv_color.h **** typedef union
 213:..\..\..\lvgl\version_6.1.2\lvgl/src/lv_hal/../lv_misc/lv_color.h **** {
 214:..\..\..\lvgl\version_6.1.2\lvgl/src/lv_hal/../lv_misc/lv_color.h ****     struct
 215:..\..\..\lvgl\version_6.1.2\lvgl/src/lv_hal/../lv_misc/lv_color.h ****     {
 216:..\..\..\lvgl\version_6.1.2\lvgl/src/lv_hal/../lv_misc/lv_color.h ****         uint8_t blue : 2;
 217:..\..\..\lvgl\version_6.1.2\lvgl/src/lv_hal/../lv_misc/lv_color.h ****         uint8_t green : 3;
 218:..\..\..\lvgl\version_6.1.2\lvgl/src/lv_hal/../lv_misc/lv_color.h ****         uint8_t red : 3;
 219:..\..\..\lvgl\version_6.1.2\lvgl/src/lv_hal/../lv_misc/lv_color.h ****     } ch;
 220:..\..\..\lvgl\version_6.1.2\lvgl/src/lv_hal/../lv_misc/lv_color.h ****     uint8_t full;
 221:..\..\..\lvgl\version_6.1.2\lvgl/src/lv_hal/../lv_misc/lv_color.h **** } lv_color8_t;
 222:..\..\..\lvgl\version_6.1.2\lvgl/src/lv_hal/../lv_misc/lv_color.h **** 
 223:..\..\..\lvgl\version_6.1.2\lvgl/src/lv_hal/../lv_misc/lv_color.h **** typedef union
 224:..\..\..\lvgl\version_6.1.2\lvgl/src/lv_hal/../lv_misc/lv_color.h **** {
 225:..\..\..\lvgl\version_6.1.2\lvgl/src/lv_hal/../lv_misc/lv_color.h ****     struct
 226:..\..\..\lvgl\version_6.1.2\lvgl/src/lv_hal/../lv_misc/lv_color.h ****     {
 227:..\..\..\lvgl\version_6.1.2\lvgl/src/lv_hal/../lv_misc/lv_color.h **** #if LV_COLOR_16_SWAP == 0
 228:..\..\..\lvgl\version_6.1.2\lvgl/src/lv_hal/../lv_misc/lv_color.h ****         uint16_t blue : 5;
 229:..\..\..\lvgl\version_6.1.2\lvgl/src/lv_hal/../lv_misc/lv_color.h ****         uint16_t green : 6;
 230:..\..\..\lvgl\version_6.1.2\lvgl/src/lv_hal/../lv_misc/lv_color.h ****         uint16_t red : 5;
 231:..\..\..\lvgl\version_6.1.2\lvgl/src/lv_hal/../lv_misc/lv_color.h **** #else
 232:..\..\..\lvgl\version_6.1.2\lvgl/src/lv_hal/../lv_misc/lv_color.h ****         uint16_t green_h : 3;
 233:..\..\..\lvgl\version_6.1.2\lvgl/src/lv_hal/../lv_misc/lv_color.h ****         uint16_t red : 5;
 234:..\..\..\lvgl\version_6.1.2\lvgl/src/lv_hal/../lv_misc/lv_color.h ****         uint16_t blue : 5;
 235:..\..\..\lvgl\version_6.1.2\lvgl/src/lv_hal/../lv_misc/lv_color.h ****         uint16_t green_l : 3;
 236:..\..\..\lvgl\version_6.1.2\lvgl/src/lv_hal/../lv_misc/lv_color.h **** #endif
 237:..\..\..\lvgl\version_6.1.2\lvgl/src/lv_hal/../lv_misc/lv_color.h ****     } ch;
 238:..\..\..\lvgl\version_6.1.2\lvgl/src/lv_hal/../lv_misc/lv_color.h ****     uint16_t full;
 239:..\..\..\lvgl\version_6.1.2\lvgl/src/lv_hal/../lv_misc/lv_color.h **** } lv_color16_t;
 240:..\..\..\lvgl\version_6.1.2\lvgl/src/lv_hal/../lv_misc/lv_color.h **** 
 241:..\..\..\lvgl\version_6.1.2\lvgl/src/lv_hal/../lv_misc/lv_color.h **** typedef union
 242:..\..\..\lvgl\version_6.1.2\lvgl/src/lv_hal/../lv_misc/lv_color.h **** {
 243:..\..\..\lvgl\version_6.1.2\lvgl/src/lv_hal/../lv_misc/lv_color.h ****     struct
 244:..\..\..\lvgl\version_6.1.2\lvgl/src/lv_hal/../lv_misc/lv_color.h ****     {
 245:..\..\..\lvgl\version_6.1.2\lvgl/src/lv_hal/../lv_misc/lv_color.h ****         uint8_t blue;
 246:..\..\..\lvgl\version_6.1.2\lvgl/src/lv_hal/../lv_misc/lv_color.h ****         uint8_t green;
 247:..\..\..\lvgl\version_6.1.2\lvgl/src/lv_hal/../lv_misc/lv_color.h ****         uint8_t red;
 248:..\..\..\lvgl\version_6.1.2\lvgl/src/lv_hal/../lv_misc/lv_color.h ****         uint8_t alpha;
 249:..\..\..\lvgl\version_6.1.2\lvgl/src/lv_hal/../lv_misc/lv_color.h ****     } ch;
 250:..\..\..\lvgl\version_6.1.2\lvgl/src/lv_hal/../lv_misc/lv_color.h ****     uint32_t full;
 251:..\..\..\lvgl\version_6.1.2\lvgl/src/lv_hal/../lv_misc/lv_color.h **** } lv_color32_t;
 252:..\..\..\lvgl\version_6.1.2\lvgl/src/lv_hal/../lv_misc/lv_color.h **** 
 253:..\..\..\lvgl\version_6.1.2\lvgl/src/lv_hal/../lv_misc/lv_color.h **** #if LV_COLOR_DEPTH == 1
 254:..\..\..\lvgl\version_6.1.2\lvgl/src/lv_hal/../lv_misc/lv_color.h **** typedef uint8_t lv_color_int_t;
 255:..\..\..\lvgl\version_6.1.2\lvgl/src/lv_hal/../lv_misc/lv_color.h **** typedef lv_color1_t lv_color_t;
 256:..\..\..\lvgl\version_6.1.2\lvgl/src/lv_hal/../lv_misc/lv_color.h **** #elif LV_COLOR_DEPTH == 8
 257:..\..\..\lvgl\version_6.1.2\lvgl/src/lv_hal/../lv_misc/lv_color.h **** typedef uint8_t lv_color_int_t;
ARM GAS  C:\Users\tmj32\AppData\Local\Temp\cc1nbtVP.s 			page 6


 258:..\..\..\lvgl\version_6.1.2\lvgl/src/lv_hal/../lv_misc/lv_color.h **** typedef lv_color8_t lv_color_t;
 259:..\..\..\lvgl\version_6.1.2\lvgl/src/lv_hal/../lv_misc/lv_color.h **** #elif LV_COLOR_DEPTH == 16
 260:..\..\..\lvgl\version_6.1.2\lvgl/src/lv_hal/../lv_misc/lv_color.h **** typedef uint16_t lv_color_int_t;
 261:..\..\..\lvgl\version_6.1.2\lvgl/src/lv_hal/../lv_misc/lv_color.h **** typedef lv_color16_t lv_color_t;
 262:..\..\..\lvgl\version_6.1.2\lvgl/src/lv_hal/../lv_misc/lv_color.h **** #elif LV_COLOR_DEPTH == 32
 263:..\..\..\lvgl\version_6.1.2\lvgl/src/lv_hal/../lv_misc/lv_color.h **** typedef uint32_t lv_color_int_t;
 264:..\..\..\lvgl\version_6.1.2\lvgl/src/lv_hal/../lv_misc/lv_color.h **** typedef lv_color32_t lv_color_t;
 265:..\..\..\lvgl\version_6.1.2\lvgl/src/lv_hal/../lv_misc/lv_color.h **** #else
 266:..\..\..\lvgl\version_6.1.2\lvgl/src/lv_hal/../lv_misc/lv_color.h **** #error "Invalid LV_COLOR_DEPTH in lv_conf.h! Set it to 1, 8, 16 or 32!"
 267:..\..\..\lvgl\version_6.1.2\lvgl/src/lv_hal/../lv_misc/lv_color.h **** #endif
 268:..\..\..\lvgl\version_6.1.2\lvgl/src/lv_hal/../lv_misc/lv_color.h **** 
 269:..\..\..\lvgl\version_6.1.2\lvgl/src/lv_hal/../lv_misc/lv_color.h **** typedef uint8_t lv_opa_t;
 270:..\..\..\lvgl\version_6.1.2\lvgl/src/lv_hal/../lv_misc/lv_color.h **** 
 271:..\..\..\lvgl\version_6.1.2\lvgl/src/lv_hal/../lv_misc/lv_color.h **** typedef struct
 272:..\..\..\lvgl\version_6.1.2\lvgl/src/lv_hal/../lv_misc/lv_color.h **** {
 273:..\..\..\lvgl\version_6.1.2\lvgl/src/lv_hal/../lv_misc/lv_color.h ****     uint16_t h;
 274:..\..\..\lvgl\version_6.1.2\lvgl/src/lv_hal/../lv_misc/lv_color.h ****     uint8_t s;
 275:..\..\..\lvgl\version_6.1.2\lvgl/src/lv_hal/../lv_misc/lv_color.h ****     uint8_t v;
 276:..\..\..\lvgl\version_6.1.2\lvgl/src/lv_hal/../lv_misc/lv_color.h **** } lv_color_hsv_t;
 277:..\..\..\lvgl\version_6.1.2\lvgl/src/lv_hal/../lv_misc/lv_color.h **** 
 278:..\..\..\lvgl\version_6.1.2\lvgl/src/lv_hal/../lv_misc/lv_color.h **** /**********************
 279:..\..\..\lvgl\version_6.1.2\lvgl/src/lv_hal/../lv_misc/lv_color.h ****  * GLOBAL PROTOTYPES
 280:..\..\..\lvgl\version_6.1.2\lvgl/src/lv_hal/../lv_misc/lv_color.h ****  **********************/
 281:..\..\..\lvgl\version_6.1.2\lvgl/src/lv_hal/../lv_misc/lv_color.h **** 
 282:..\..\..\lvgl\version_6.1.2\lvgl/src/lv_hal/../lv_misc/lv_color.h **** /*In color conversations:
 283:..\..\..\lvgl\version_6.1.2\lvgl/src/lv_hal/../lv_misc/lv_color.h ****  * - When converting to bigger color type the LSB weight of 1 LSB is calculated
 284:..\..\..\lvgl\version_6.1.2\lvgl/src/lv_hal/../lv_misc/lv_color.h ****  *   E.g. 16 bit Red has 5 bits
 285:..\..\..\lvgl\version_6.1.2\lvgl/src/lv_hal/../lv_misc/lv_color.h ****  *         8 bit Red has 2 bits
 286:..\..\..\lvgl\version_6.1.2\lvgl/src/lv_hal/../lv_misc/lv_color.h ****  *        ----------------------
 287:..\..\..\lvgl\version_6.1.2\lvgl/src/lv_hal/../lv_misc/lv_color.h ****  *        8 bit red LSB = (2^5 - 1) / (2^2 - 1) = 31 / 3 = 10
 288:..\..\..\lvgl\version_6.1.2\lvgl/src/lv_hal/../lv_misc/lv_color.h ****  *
 289:..\..\..\lvgl\version_6.1.2\lvgl/src/lv_hal/../lv_misc/lv_color.h ****  * - When calculating to smaller color type simply shift out the LSBs
 290:..\..\..\lvgl\version_6.1.2\lvgl/src/lv_hal/../lv_misc/lv_color.h ****  *   E.g.  8 bit Red has 2 bits
 291:..\..\..\lvgl\version_6.1.2\lvgl/src/lv_hal/../lv_misc/lv_color.h ****  *        16 bit Red has 5 bits
 292:..\..\..\lvgl\version_6.1.2\lvgl/src/lv_hal/../lv_misc/lv_color.h ****  *        ----------------------
 293:..\..\..\lvgl\version_6.1.2\lvgl/src/lv_hal/../lv_misc/lv_color.h ****  *         Shift right with 5 - 3 = 2
 294:..\..\..\lvgl\version_6.1.2\lvgl/src/lv_hal/../lv_misc/lv_color.h ****  */
 295:..\..\..\lvgl\version_6.1.2\lvgl/src/lv_hal/../lv_misc/lv_color.h **** 
 296:..\..\..\lvgl\version_6.1.2\lvgl/src/lv_hal/../lv_misc/lv_color.h **** static inline uint8_t lv_color_to1(lv_color_t color)
 297:..\..\..\lvgl\version_6.1.2\lvgl/src/lv_hal/../lv_misc/lv_color.h **** {
 298:..\..\..\lvgl\version_6.1.2\lvgl/src/lv_hal/../lv_misc/lv_color.h **** #if LV_COLOR_DEPTH == 1
 299:..\..\..\lvgl\version_6.1.2\lvgl/src/lv_hal/../lv_misc/lv_color.h ****     return color.full;
 300:..\..\..\lvgl\version_6.1.2\lvgl/src/lv_hal/../lv_misc/lv_color.h **** #elif LV_COLOR_DEPTH == 8
 301:..\..\..\lvgl\version_6.1.2\lvgl/src/lv_hal/../lv_misc/lv_color.h ****     if((LV_COLOR_GET_R(color) & 0x4) || (LV_COLOR_GET_G(color) & 0x4) || (LV_COLOR_GET_B(color) & 0
 302:..\..\..\lvgl\version_6.1.2\lvgl/src/lv_hal/../lv_misc/lv_color.h ****         return 1;
 303:..\..\..\lvgl\version_6.1.2\lvgl/src/lv_hal/../lv_misc/lv_color.h ****     } else {
 304:..\..\..\lvgl\version_6.1.2\lvgl/src/lv_hal/../lv_misc/lv_color.h ****         return 0;
 305:..\..\..\lvgl\version_6.1.2\lvgl/src/lv_hal/../lv_misc/lv_color.h ****     }
 306:..\..\..\lvgl\version_6.1.2\lvgl/src/lv_hal/../lv_misc/lv_color.h **** #elif LV_COLOR_DEPTH == 16
 307:..\..\..\lvgl\version_6.1.2\lvgl/src/lv_hal/../lv_misc/lv_color.h ****     if((LV_COLOR_GET_R(color) & 0x10) || (LV_COLOR_GET_G(color) & 0x20) || (LV_COLOR_GET_B(color) &
 308:..\..\..\lvgl\version_6.1.2\lvgl/src/lv_hal/../lv_misc/lv_color.h ****         return 1;
 309:..\..\..\lvgl\version_6.1.2\lvgl/src/lv_hal/../lv_misc/lv_color.h ****     } else {
 310:..\..\..\lvgl\version_6.1.2\lvgl/src/lv_hal/../lv_misc/lv_color.h ****         return 0;
 311:..\..\..\lvgl\version_6.1.2\lvgl/src/lv_hal/../lv_misc/lv_color.h ****     }
 312:..\..\..\lvgl\version_6.1.2\lvgl/src/lv_hal/../lv_misc/lv_color.h **** #elif LV_COLOR_DEPTH == 32
 313:..\..\..\lvgl\version_6.1.2\lvgl/src/lv_hal/../lv_misc/lv_color.h ****     if((LV_COLOR_GET_R(color) & 0x80) || (LV_COLOR_GET_G(color) & 0x80) || (LV_COLOR_GET_B(color) &
 314:..\..\..\lvgl\version_6.1.2\lvgl/src/lv_hal/../lv_misc/lv_color.h ****         return 1;
ARM GAS  C:\Users\tmj32\AppData\Local\Temp\cc1nbtVP.s 			page 7


 315:..\..\..\lvgl\version_6.1.2\lvgl/src/lv_hal/../lv_misc/lv_color.h ****     } else {
 316:..\..\..\lvgl\version_6.1.2\lvgl/src/lv_hal/../lv_misc/lv_color.h ****         return 0;
 317:..\..\..\lvgl\version_6.1.2\lvgl/src/lv_hal/../lv_misc/lv_color.h ****     }
 318:..\..\..\lvgl\version_6.1.2\lvgl/src/lv_hal/../lv_misc/lv_color.h **** #endif
 319:..\..\..\lvgl\version_6.1.2\lvgl/src/lv_hal/../lv_misc/lv_color.h **** }
 320:..\..\..\lvgl\version_6.1.2\lvgl/src/lv_hal/../lv_misc/lv_color.h **** 
 321:..\..\..\lvgl\version_6.1.2\lvgl/src/lv_hal/../lv_misc/lv_color.h **** static inline uint8_t lv_color_to8(lv_color_t color)
 322:..\..\..\lvgl\version_6.1.2\lvgl/src/lv_hal/../lv_misc/lv_color.h **** {
 323:..\..\..\lvgl\version_6.1.2\lvgl/src/lv_hal/../lv_misc/lv_color.h **** #if LV_COLOR_DEPTH == 1
 324:..\..\..\lvgl\version_6.1.2\lvgl/src/lv_hal/../lv_misc/lv_color.h ****     if(color.full == 0)
 325:..\..\..\lvgl\version_6.1.2\lvgl/src/lv_hal/../lv_misc/lv_color.h ****         return 0;
 326:..\..\..\lvgl\version_6.1.2\lvgl/src/lv_hal/../lv_misc/lv_color.h ****     else
 327:..\..\..\lvgl\version_6.1.2\lvgl/src/lv_hal/../lv_misc/lv_color.h ****         return 0xFF;
 328:..\..\..\lvgl\version_6.1.2\lvgl/src/lv_hal/../lv_misc/lv_color.h **** #elif LV_COLOR_DEPTH == 8
 329:..\..\..\lvgl\version_6.1.2\lvgl/src/lv_hal/../lv_misc/lv_color.h ****     return color.full;
 330:..\..\..\lvgl\version_6.1.2\lvgl/src/lv_hal/../lv_misc/lv_color.h **** #elif LV_COLOR_DEPTH == 16
 331:..\..\..\lvgl\version_6.1.2\lvgl/src/lv_hal/../lv_misc/lv_color.h ****     lv_color8_t ret;
 332:..\..\..\lvgl\version_6.1.2\lvgl/src/lv_hal/../lv_misc/lv_color.h ****     LV_COLOR_SET_R8(ret, LV_COLOR_GET_R(color) >> 2);   /* 5 - 3  = 2*/
 333:..\..\..\lvgl\version_6.1.2\lvgl/src/lv_hal/../lv_misc/lv_color.h ****     LV_COLOR_SET_G8(ret, LV_COLOR_GET_G(color) >> 3); /* 6 - 3  = 3*/
 334:..\..\..\lvgl\version_6.1.2\lvgl/src/lv_hal/../lv_misc/lv_color.h ****     LV_COLOR_SET_B8(ret, LV_COLOR_GET_B(color) >> 3);  /* 5 - 2  = 3*/
 335:..\..\..\lvgl\version_6.1.2\lvgl/src/lv_hal/../lv_misc/lv_color.h ****     return ret.full;
 336:..\..\..\lvgl\version_6.1.2\lvgl/src/lv_hal/../lv_misc/lv_color.h **** #elif LV_COLOR_DEPTH == 32
 337:..\..\..\lvgl\version_6.1.2\lvgl/src/lv_hal/../lv_misc/lv_color.h ****     lv_color8_t ret;
 338:..\..\..\lvgl\version_6.1.2\lvgl/src/lv_hal/../lv_misc/lv_color.h ****     LV_COLOR_SET_R8(ret, LV_COLOR_GET_R(color) >> 5);   /* 8 - 3  = 5*/
 339:..\..\..\lvgl\version_6.1.2\lvgl/src/lv_hal/../lv_misc/lv_color.h ****     LV_COLOR_SET_G8(ret, LV_COLOR_GET_G(color) >> 5); /* 8 - 3  = 5*/
 340:..\..\..\lvgl\version_6.1.2\lvgl/src/lv_hal/../lv_misc/lv_color.h ****     LV_COLOR_SET_B8(ret, LV_COLOR_GET_B(color) >> 6);  /* 8 - 2  = 6*/
 341:..\..\..\lvgl\version_6.1.2\lvgl/src/lv_hal/../lv_misc/lv_color.h ****     return ret.full;
 342:..\..\..\lvgl\version_6.1.2\lvgl/src/lv_hal/../lv_misc/lv_color.h **** #endif
 343:..\..\..\lvgl\version_6.1.2\lvgl/src/lv_hal/../lv_misc/lv_color.h **** }
 344:..\..\..\lvgl\version_6.1.2\lvgl/src/lv_hal/../lv_misc/lv_color.h **** 
 345:..\..\..\lvgl\version_6.1.2\lvgl/src/lv_hal/../lv_misc/lv_color.h **** static inline uint16_t lv_color_to16(lv_color_t color)
 346:..\..\..\lvgl\version_6.1.2\lvgl/src/lv_hal/../lv_misc/lv_color.h **** {
 347:..\..\..\lvgl\version_6.1.2\lvgl/src/lv_hal/../lv_misc/lv_color.h **** #if LV_COLOR_DEPTH == 1
 348:..\..\..\lvgl\version_6.1.2\lvgl/src/lv_hal/../lv_misc/lv_color.h ****     if(color.full == 0)
 349:..\..\..\lvgl\version_6.1.2\lvgl/src/lv_hal/../lv_misc/lv_color.h ****         return 0;
 350:..\..\..\lvgl\version_6.1.2\lvgl/src/lv_hal/../lv_misc/lv_color.h ****     else
 351:..\..\..\lvgl\version_6.1.2\lvgl/src/lv_hal/../lv_misc/lv_color.h ****         return 0xFFFF;
 352:..\..\..\lvgl\version_6.1.2\lvgl/src/lv_hal/../lv_misc/lv_color.h **** #elif LV_COLOR_DEPTH == 8
 353:..\..\..\lvgl\version_6.1.2\lvgl/src/lv_hal/../lv_misc/lv_color.h ****     lv_color16_t ret;
 354:..\..\..\lvgl\version_6.1.2\lvgl/src/lv_hal/../lv_misc/lv_color.h ****     LV_COLOR_SET_R16(ret, LV_COLOR_GET_R(color) * 4);     /*(2^5 - 1)/(2^3 - 1) = 31/7 = 4*/
 355:..\..\..\lvgl\version_6.1.2\lvgl/src/lv_hal/../lv_misc/lv_color.h **** #if LV_COLOR_16_SWAP == 0
 356:..\..\..\lvgl\version_6.1.2\lvgl/src/lv_hal/../lv_misc/lv_color.h ****     LV_COLOR_SET_G16(ret,  LV_COLOR_GET_G(color) * 9); /*(2^6 - 1)/(2^3 - 1) = 63/7 = 9*/
 357:..\..\..\lvgl\version_6.1.2\lvgl/src/lv_hal/../lv_misc/lv_color.h **** #else
 358:..\..\..\lvgl\version_6.1.2\lvgl/src/lv_hal/../lv_misc/lv_color.h ****     LV_COLOR_SET_G16_SWAP(ret, (LV_COLOR_GET_G(color) * 9)); /*(2^6 - 1)/(2^3 - 1) = 63/7 = 9*/
 359:..\..\..\lvgl\version_6.1.2\lvgl/src/lv_hal/../lv_misc/lv_color.h **** #endif
 360:..\..\..\lvgl\version_6.1.2\lvgl/src/lv_hal/../lv_misc/lv_color.h ****     LV_COLOR_SET_B16(ret, LV_COLOR_GET_B(color) * 10);  /*(2^5 - 1)/(2^2 - 1) = 31/3 = 10*/
 361:..\..\..\lvgl\version_6.1.2\lvgl/src/lv_hal/../lv_misc/lv_color.h ****     return ret.full;
 362:..\..\..\lvgl\version_6.1.2\lvgl/src/lv_hal/../lv_misc/lv_color.h **** #elif LV_COLOR_DEPTH == 16
 363:..\..\..\lvgl\version_6.1.2\lvgl/src/lv_hal/../lv_misc/lv_color.h ****     return color.full;
 364:..\..\..\lvgl\version_6.1.2\lvgl/src/lv_hal/../lv_misc/lv_color.h **** #elif LV_COLOR_DEPTH == 32
 365:..\..\..\lvgl\version_6.1.2\lvgl/src/lv_hal/../lv_misc/lv_color.h ****     lv_color16_t ret;
 366:..\..\..\lvgl\version_6.1.2\lvgl/src/lv_hal/../lv_misc/lv_color.h ****     LV_COLOR_SET_R16(ret, LV_COLOR_GET_R(color) >> 3);   /* 8 - 5  = 3*/
 367:..\..\..\lvgl\version_6.1.2\lvgl/src/lv_hal/../lv_misc/lv_color.h **** 
 368:..\..\..\lvgl\version_6.1.2\lvgl/src/lv_hal/../lv_misc/lv_color.h **** #if LV_COLOR_16_SWAP == 0
 369:..\..\..\lvgl\version_6.1.2\lvgl/src/lv_hal/../lv_misc/lv_color.h ****     LV_COLOR_SET_G16(ret, LV_COLOR_GET_G(color) >> 2); /* 8 - 6  = 2*/
 370:..\..\..\lvgl\version_6.1.2\lvgl/src/lv_hal/../lv_misc/lv_color.h **** #else
 371:..\..\..\lvgl\version_6.1.2\lvgl/src/lv_hal/../lv_misc/lv_color.h ****     LV_COLOR_SET_G16_SWAP(ret, ret.ch.green_h = (LV_COLOR_GET_G(color) >> 2); /*(2^6 - 1)/(2^3 - 1)
ARM GAS  C:\Users\tmj32\AppData\Local\Temp\cc1nbtVP.s 			page 8


 372:..\..\..\lvgl\version_6.1.2\lvgl/src/lv_hal/../lv_misc/lv_color.h **** #endif
 373:..\..\..\lvgl\version_6.1.2\lvgl/src/lv_hal/../lv_misc/lv_color.h ****     LV_COLOR_SET_B16(ret, LV_COLOR_GET_B(color) >> 3);  /* 8 - 5  = 3*/
 374:..\..\..\lvgl\version_6.1.2\lvgl/src/lv_hal/../lv_misc/lv_color.h ****     return ret.full;
 375:..\..\..\lvgl\version_6.1.2\lvgl/src/lv_hal/../lv_misc/lv_color.h **** #endif                         
 376:..\..\..\lvgl\version_6.1.2\lvgl/src/lv_hal/../lv_misc/lv_color.h **** }
 377:..\..\..\lvgl\version_6.1.2\lvgl/src/lv_hal/../lv_misc/lv_color.h **** 
 378:..\..\..\lvgl\version_6.1.2\lvgl/src/lv_hal/../lv_misc/lv_color.h **** static inline uint32_t lv_color_to32(lv_color_t color)
 379:..\..\..\lvgl\version_6.1.2\lvgl/src/lv_hal/../lv_misc/lv_color.h **** {
 380:..\..\..\lvgl\version_6.1.2\lvgl/src/lv_hal/../lv_misc/lv_color.h **** #if LV_COLOR_DEPTH == 1
 381:..\..\..\lvgl\version_6.1.2\lvgl/src/lv_hal/../lv_misc/lv_color.h ****     if(color.full == 0)
 382:..\..\..\lvgl\version_6.1.2\lvgl/src/lv_hal/../lv_misc/lv_color.h ****         return 0;
 383:..\..\..\lvgl\version_6.1.2\lvgl/src/lv_hal/../lv_misc/lv_color.h ****     else
 384:..\..\..\lvgl\version_6.1.2\lvgl/src/lv_hal/../lv_misc/lv_color.h ****         return 0xFFFFFFFF;
 385:..\..\..\lvgl\version_6.1.2\lvgl/src/lv_hal/../lv_misc/lv_color.h **** #elif LV_COLOR_DEPTH == 8
 386:..\..\..\lvgl\version_6.1.2\lvgl/src/lv_hal/../lv_misc/lv_color.h ****     lv_color32_t ret;
 387:..\..\..\lvgl\version_6.1.2\lvgl/src/lv_hal/../lv_misc/lv_color.h ****     LV_COLOR_SET_R32(ret, LV_COLOR_GET_R(color) * 36);     /*(2^8 - 1)/(2^3 - 1) = 255/7 = 36*/
 388:..\..\..\lvgl\version_6.1.2\lvgl/src/lv_hal/../lv_misc/lv_color.h ****     LV_COLOR_SET_G32(ret, LV_COLOR_GET_G(color) * 36); /*(2^8 - 1)/(2^3 - 1) = 255/7 = 36*/
 389:..\..\..\lvgl\version_6.1.2\lvgl/src/lv_hal/../lv_misc/lv_color.h ****     LV_COLOR_SET_B32(ret, LV_COLOR_GET_B(color) * 85);   /*(2^8 - 1)/(2^2 - 1) = 255/3 = 85*/
 390:..\..\..\lvgl\version_6.1.2\lvgl/src/lv_hal/../lv_misc/lv_color.h ****     LV_COLOR_SET_A32(ret, 0xFF);
 391:..\..\..\lvgl\version_6.1.2\lvgl/src/lv_hal/../lv_misc/lv_color.h ****     return ret.full;
 392:..\..\..\lvgl\version_6.1.2\lvgl/src/lv_hal/../lv_misc/lv_color.h **** #elif LV_COLOR_DEPTH == 16
 393:..\..\..\lvgl\version_6.1.2\lvgl/src/lv_hal/../lv_misc/lv_color.h ****     /**
 394:..\..\..\lvgl\version_6.1.2\lvgl/src/lv_hal/../lv_misc/lv_color.h ****      * The floating point math for conversion is:
 395:..\..\..\lvgl\version_6.1.2\lvgl/src/lv_hal/../lv_misc/lv_color.h ****      *  valueto = valuefrom * ( (2^bitsto - 1) / (float)(2^bitsfrom - 1) )
 396:..\..\..\lvgl\version_6.1.2\lvgl/src/lv_hal/../lv_misc/lv_color.h ****      * The faster integer math for conversion is:
 397:..\..\..\lvgl\version_6.1.2\lvgl/src/lv_hal/../lv_misc/lv_color.h ****      *  valueto = ( valuefrom * multiplier + adder ) >> divisor
 398:..\..\..\lvgl\version_6.1.2\lvgl/src/lv_hal/../lv_misc/lv_color.h ****      *   multiplier = FLOOR( ( (2^bitsto - 1) << divisor ) / (float)(2^bitsfrom - 1) )
 399:..\..\..\lvgl\version_6.1.2\lvgl/src/lv_hal/../lv_misc/lv_color.h ****      * 
 400:..\..\..\lvgl\version_6.1.2\lvgl/src/lv_hal/../lv_misc/lv_color.h ****      * Find the first divisor where ( adder >> divisor ) <= 0
 401:..\..\..\lvgl\version_6.1.2\lvgl/src/lv_hal/../lv_misc/lv_color.h ****      * 
 402:..\..\..\lvgl\version_6.1.2\lvgl/src/lv_hal/../lv_misc/lv_color.h ****      * 5-bit to 8-bit: ( 31 * multiplier + adder ) >> divisor = 255
 403:..\..\..\lvgl\version_6.1.2\lvgl/src/lv_hal/../lv_misc/lv_color.h ****      * divisor  multiplier  adder  min (0)  max (31)
 404:..\..\..\lvgl\version_6.1.2\lvgl/src/lv_hal/../lv_misc/lv_color.h ****      *       0           8      7        7       255
 405:..\..\..\lvgl\version_6.1.2\lvgl/src/lv_hal/../lv_misc/lv_color.h ****      *       1          16     14        7       255
 406:..\..\..\lvgl\version_6.1.2\lvgl/src/lv_hal/../lv_misc/lv_color.h ****      *       2          32     28        7       255
 407:..\..\..\lvgl\version_6.1.2\lvgl/src/lv_hal/../lv_misc/lv_color.h ****      *       3          65     25        3       255
 408:..\..\..\lvgl\version_6.1.2\lvgl/src/lv_hal/../lv_misc/lv_color.h ****      *       4         131     19        1       255
 409:..\..\..\lvgl\version_6.1.2\lvgl/src/lv_hal/../lv_misc/lv_color.h ****      *       5         263      7        0       255
 410:..\..\..\lvgl\version_6.1.2\lvgl/src/lv_hal/../lv_misc/lv_color.h ****      * 
 411:..\..\..\lvgl\version_6.1.2\lvgl/src/lv_hal/../lv_misc/lv_color.h ****      * 6-bit to 8-bit: 255 = ( 63 * multiplier + adder ) >> divisor
 412:..\..\..\lvgl\version_6.1.2\lvgl/src/lv_hal/../lv_misc/lv_color.h ****      * divisor  multiplier  adder  min (0)  max (63)
 413:..\..\..\lvgl\version_6.1.2\lvgl/src/lv_hal/../lv_misc/lv_color.h ****      *       0           4      3        3       255
 414:..\..\..\lvgl\version_6.1.2\lvgl/src/lv_hal/../lv_misc/lv_color.h ****      *       1           8      6        3       255
 415:..\..\..\lvgl\version_6.1.2\lvgl/src/lv_hal/../lv_misc/lv_color.h ****      *       2          16     12        3       255
 416:..\..\..\lvgl\version_6.1.2\lvgl/src/lv_hal/../lv_misc/lv_color.h ****      *       3          32     24        3       255
 417:..\..\..\lvgl\version_6.1.2\lvgl/src/lv_hal/../lv_misc/lv_color.h ****      *       4          64     48        3       255
 418:..\..\..\lvgl\version_6.1.2\lvgl/src/lv_hal/../lv_misc/lv_color.h ****      *       5         129     33        1       255
 419:..\..\..\lvgl\version_6.1.2\lvgl/src/lv_hal/../lv_misc/lv_color.h ****      *       6         259      3        0       255
 420:..\..\..\lvgl\version_6.1.2\lvgl/src/lv_hal/../lv_misc/lv_color.h ****      */
 421:..\..\..\lvgl\version_6.1.2\lvgl/src/lv_hal/../lv_misc/lv_color.h ****     lv_color32_t ret;
 422:..\..\..\lvgl\version_6.1.2\lvgl/src/lv_hal/../lv_misc/lv_color.h ****     LV_COLOR_SET_R32(ret, (LV_COLOR_GET_R(color) * 263 + 7 ) >> 5);
 423:..\..\..\lvgl\version_6.1.2\lvgl/src/lv_hal/../lv_misc/lv_color.h ****     LV_COLOR_SET_G32(ret, (LV_COLOR_GET_G(color) * 259 + 3 ) >> 6);
 424:..\..\..\lvgl\version_6.1.2\lvgl/src/lv_hal/../lv_misc/lv_color.h ****     LV_COLOR_SET_B32(ret, (LV_COLOR_GET_B(color) * 263 + 7 ) >> 5);
 425:..\..\..\lvgl\version_6.1.2\lvgl/src/lv_hal/../lv_misc/lv_color.h ****     LV_COLOR_SET_A32(ret, 0xFF);
 426:..\..\..\lvgl\version_6.1.2\lvgl/src/lv_hal/../lv_misc/lv_color.h ****     return ret.full;
 427:..\..\..\lvgl\version_6.1.2\lvgl/src/lv_hal/../lv_misc/lv_color.h **** #elif LV_COLOR_DEPTH == 32
 428:..\..\..\lvgl\version_6.1.2\lvgl/src/lv_hal/../lv_misc/lv_color.h ****     return color.full;
ARM GAS  C:\Users\tmj32\AppData\Local\Temp\cc1nbtVP.s 			page 9


 429:..\..\..\lvgl\version_6.1.2\lvgl/src/lv_hal/../lv_misc/lv_color.h **** #endif
 430:..\..\..\lvgl\version_6.1.2\lvgl/src/lv_hal/../lv_misc/lv_color.h **** }
 431:..\..\..\lvgl\version_6.1.2\lvgl/src/lv_hal/../lv_misc/lv_color.h **** 
 432:..\..\..\lvgl\version_6.1.2\lvgl/src/lv_hal/../lv_misc/lv_color.h **** static inline lv_color_t lv_color_mix(lv_color_t c1, lv_color_t c2, uint8_t mix)
 433:..\..\..\lvgl\version_6.1.2\lvgl/src/lv_hal/../lv_misc/lv_color.h **** {
 434:..\..\..\lvgl\version_6.1.2\lvgl/src/lv_hal/../lv_misc/lv_color.h ****     lv_color_t ret;
 435:..\..\..\lvgl\version_6.1.2\lvgl/src/lv_hal/../lv_misc/lv_color.h **** #if LV_COLOR_DEPTH != 1
 436:..\..\..\lvgl\version_6.1.2\lvgl/src/lv_hal/../lv_misc/lv_color.h ****     /*LV_COLOR_DEPTH == 8, 16 or 32*/
 437:..\..\..\lvgl\version_6.1.2\lvgl/src/lv_hal/../lv_misc/lv_color.h ****     LV_COLOR_SET_R(ret, (uint16_t)((uint16_t) LV_COLOR_GET_R(c1) * mix + LV_COLOR_GET_R(c2) * (255 
 438:..\..\..\lvgl\version_6.1.2\lvgl/src/lv_hal/../lv_misc/lv_color.h ****     LV_COLOR_SET_G(ret, (uint16_t)((uint16_t) LV_COLOR_GET_G(c1) * mix + LV_COLOR_GET_G(c2) * (255 
 439:..\..\..\lvgl\version_6.1.2\lvgl/src/lv_hal/../lv_misc/lv_color.h ****     LV_COLOR_SET_B(ret, (uint16_t)((uint16_t) LV_COLOR_GET_B(c1) * mix + LV_COLOR_GET_B(c2) * (255 
 440:..\..\..\lvgl\version_6.1.2\lvgl/src/lv_hal/../lv_misc/lv_color.h ****     LV_COLOR_SET_A(ret, 0xFF);
 441:..\..\..\lvgl\version_6.1.2\lvgl/src/lv_hal/../lv_misc/lv_color.h **** #else
 442:..\..\..\lvgl\version_6.1.2\lvgl/src/lv_hal/../lv_misc/lv_color.h ****     /*LV_COLOR_DEPTH == 1*/
 443:..\..\..\lvgl\version_6.1.2\lvgl/src/lv_hal/../lv_misc/lv_color.h ****     ret.full = mix > LV_OPA_50 ? c1.full : c2.full;
 444:..\..\..\lvgl\version_6.1.2\lvgl/src/lv_hal/../lv_misc/lv_color.h **** #endif
 445:..\..\..\lvgl\version_6.1.2\lvgl/src/lv_hal/../lv_misc/lv_color.h **** 
 446:..\..\..\lvgl\version_6.1.2\lvgl/src/lv_hal/../lv_misc/lv_color.h ****     return ret;
 447:..\..\..\lvgl\version_6.1.2\lvgl/src/lv_hal/../lv_misc/lv_color.h **** }
 448:..\..\..\lvgl\version_6.1.2\lvgl/src/lv_hal/../lv_misc/lv_color.h **** 
 449:..\..\..\lvgl\version_6.1.2\lvgl/src/lv_hal/../lv_misc/lv_color.h **** /**
 450:..\..\..\lvgl\version_6.1.2\lvgl/src/lv_hal/../lv_misc/lv_color.h ****  * Get the brightness of a color
 451:..\..\..\lvgl\version_6.1.2\lvgl/src/lv_hal/../lv_misc/lv_color.h ****  * @param color a color
 452:..\..\..\lvgl\version_6.1.2\lvgl/src/lv_hal/../lv_misc/lv_color.h ****  * @return the brightness [0..255]
 453:..\..\..\lvgl\version_6.1.2\lvgl/src/lv_hal/../lv_misc/lv_color.h ****  */
 454:..\..\..\lvgl\version_6.1.2\lvgl/src/lv_hal/../lv_misc/lv_color.h **** static inline uint8_t lv_color_brightness(lv_color_t color)
 455:..\..\..\lvgl\version_6.1.2\lvgl/src/lv_hal/../lv_misc/lv_color.h **** {
 456:..\..\..\lvgl\version_6.1.2\lvgl/src/lv_hal/../lv_misc/lv_color.h ****     lv_color32_t c32;
 457:..\..\..\lvgl\version_6.1.2\lvgl/src/lv_hal/../lv_misc/lv_color.h ****     c32.full        = lv_color_to32(color);
 458:..\..\..\lvgl\version_6.1.2\lvgl/src/lv_hal/../lv_misc/lv_color.h ****     uint16_t bright = (uint16_t)(3u * LV_COLOR_GET_R32(c32) + LV_COLOR_GET_B32(c32) + 4u * LV_COLOR
 459:..\..\..\lvgl\version_6.1.2\lvgl/src/lv_hal/../lv_misc/lv_color.h ****     return (uint8_t)(bright >> 3);
 460:..\..\..\lvgl\version_6.1.2\lvgl/src/lv_hal/../lv_misc/lv_color.h **** }
 461:..\..\..\lvgl\version_6.1.2\lvgl/src/lv_hal/../lv_misc/lv_color.h **** 
 462:..\..\..\lvgl\version_6.1.2\lvgl/src/lv_hal/../lv_misc/lv_color.h **** /* The most simple macro to create a color from R,G and B values */
 463:..\..\..\lvgl\version_6.1.2\lvgl/src/lv_hal/../lv_misc/lv_color.h **** #if LV_COLOR_DEPTH == 1
 464:..\..\..\lvgl\version_6.1.2\lvgl/src/lv_hal/../lv_misc/lv_color.h **** #define LV_COLOR_MAKE(r8, g8, b8) ((lv_color_t){.full = (uint8_t)((b8 >> 7) | (g8 >> 7) | (r8 >> 7)
 465:..\..\..\lvgl\version_6.1.2\lvgl/src/lv_hal/../lv_misc/lv_color.h **** #elif LV_COLOR_DEPTH == 8
 466:..\..\..\lvgl\version_6.1.2\lvgl/src/lv_hal/../lv_misc/lv_color.h **** #define LV_COLOR_MAKE(r8, g8, b8) ((lv_color_t){{(uint8_t)((b8 >> 6) & 0x3U), (uint8_t)((g8 >> 5) &
 467:..\..\..\lvgl\version_6.1.2\lvgl/src/lv_hal/../lv_misc/lv_color.h **** #elif LV_COLOR_DEPTH == 16
 468:..\..\..\lvgl\version_6.1.2\lvgl/src/lv_hal/../lv_misc/lv_color.h **** #if LV_COLOR_16_SWAP == 0
 469:..\..\..\lvgl\version_6.1.2\lvgl/src/lv_hal/../lv_misc/lv_color.h **** #define LV_COLOR_MAKE(r8, g8, b8) ((lv_color_t){{(uint16_t)((b8 >> 3) & 0x1FU), (uint16_t)((g8 >> 2
 470:..\..\..\lvgl\version_6.1.2\lvgl/src/lv_hal/../lv_misc/lv_color.h **** #else
 471:..\..\..\lvgl\version_6.1.2\lvgl/src/lv_hal/../lv_misc/lv_color.h **** #define LV_COLOR_MAKE(r8, g8, b8) ((lv_color_t){{(uint16_t)((g8 >> 5) & 0x7U), (uint16_t)((r8 >> 3)
 472:..\..\..\lvgl\version_6.1.2\lvgl/src/lv_hal/../lv_misc/lv_color.h **** #endif
 473:..\..\..\lvgl\version_6.1.2\lvgl/src/lv_hal/../lv_misc/lv_color.h **** #elif LV_COLOR_DEPTH == 32
 474:..\..\..\lvgl\version_6.1.2\lvgl/src/lv_hal/../lv_misc/lv_color.h **** #define LV_COLOR_MAKE(r8, g8, b8) ((lv_color_t){{b8, g8, r8, 0xff}}) /*Fix 0xff alpha*/
 475:..\..\..\lvgl\version_6.1.2\lvgl/src/lv_hal/../lv_misc/lv_color.h **** #endif
 476:..\..\..\lvgl\version_6.1.2\lvgl/src/lv_hal/../lv_misc/lv_color.h **** 
 477:..\..\..\lvgl\version_6.1.2\lvgl/src/lv_hal/../lv_misc/lv_color.h **** static inline lv_color_t lv_color_make(uint8_t r, uint8_t g, uint8_t b)
 478:..\..\..\lvgl\version_6.1.2\lvgl/src/lv_hal/../lv_misc/lv_color.h **** {
  29              		.loc 1 478 0
  30              		.cfi_startproc
  31              		@ args = 0, pretend = 0, frame = 8
  32              		@ frame_needed = 1, uses_anonymous_args = 0
  33              		@ link register save eliminated.
  34 0000 90B4     		push	{r4, r7}
  35              		.cfi_def_cfa_offset 8
ARM GAS  C:\Users\tmj32\AppData\Local\Temp\cc1nbtVP.s 			page 10


  36              		.cfi_offset 4, -8
  37              		.cfi_offset 7, -4
  38 0002 82B0     		sub	sp, sp, #8
  39              		.cfi_def_cfa_offset 16
  40 0004 00AF     		add	r7, sp, #0
  41              		.cfi_def_cfa_register 7
  42 0006 0446     		mov	r4, r0
  43 0008 0846     		mov	r0, r1
  44 000a 1146     		mov	r1, r2
  45 000c 2246     		mov	r2, r4
  46 000e FA71     		strb	r2, [r7, #7]
  47 0010 0246     		mov	r2, r0
  48 0012 BA71     		strb	r2, [r7, #6]
  49 0014 0A46     		mov	r2, r1
  50 0016 7A71     		strb	r2, [r7, #5]
 479:..\..\..\lvgl\version_6.1.2\lvgl/src/lv_hal/../lv_misc/lv_color.h ****     return LV_COLOR_MAKE(r, g, b);
  51              		.loc 1 479 0
  52 0018 7A79     		ldrb	r2, [r7, #5]
  53 001a 62F30703 		bfi	r3, r2, #0, #8
  54 001e BA79     		ldrb	r2, [r7, #6]
  55 0020 62F30F23 		bfi	r3, r2, #8, #8
  56 0024 FA79     		ldrb	r2, [r7, #7]
  57 0026 62F31743 		bfi	r3, r2, #16, #8
  58 002a 43F07F43 		orr	r3, r3, #-16777216
 480:..\..\..\lvgl\version_6.1.2\lvgl/src/lv_hal/../lv_misc/lv_color.h **** }
  59              		.loc 1 480 0
  60 002e 1846     		mov	r0, r3
  61 0030 0837     		adds	r7, r7, #8
  62              		.cfi_def_cfa_offset 8
  63 0032 BD46     		mov	sp, r7
  64              		.cfi_def_cfa_register 13
  65              		@ sp needed
  66 0034 90BC     		pop	{r4, r7}
  67              		.cfi_restore 7
  68              		.cfi_restore 4
  69              		.cfi_def_cfa_offset 0
  70 0036 7047     		bx	lr
  71              		.cfi_endproc
  72              	.LFE588:
  73              		.size	lv_color_make, .-lv_color_make
  74              		.section	.text.lv_color_hex,"ax",%progbits
  75              		.align	2
  76              		.thumb
  77              		.thumb_func
  78              		.type	lv_color_hex, %function
  79              	lv_color_hex:
  80              	.LFB589:
 481:..\..\..\lvgl\version_6.1.2\lvgl/src/lv_hal/../lv_misc/lv_color.h **** 
 482:..\..\..\lvgl\version_6.1.2\lvgl/src/lv_hal/../lv_misc/lv_color.h **** static inline lv_color_t lv_color_hex(uint32_t c)
 483:..\..\..\lvgl\version_6.1.2\lvgl/src/lv_hal/../lv_misc/lv_color.h **** {
  81              		.loc 1 483 0
  82              		.cfi_startproc
  83              		@ args = 0, pretend = 0, frame = 8
  84              		@ frame_needed = 1, uses_anonymous_args = 0
  85 0000 80B5     		push	{r7, lr}
  86              		.cfi_def_cfa_offset 8
  87              		.cfi_offset 7, -8
ARM GAS  C:\Users\tmj32\AppData\Local\Temp\cc1nbtVP.s 			page 11


  88              		.cfi_offset 14, -4
  89 0002 82B0     		sub	sp, sp, #8
  90              		.cfi_def_cfa_offset 16
  91 0004 00AF     		add	r7, sp, #0
  92              		.cfi_def_cfa_register 7
  93 0006 7860     		str	r0, [r7, #4]
 484:..\..\..\lvgl\version_6.1.2\lvgl/src/lv_hal/../lv_misc/lv_color.h ****     return lv_color_make((uint8_t)((c >> 16) & 0xFF), (uint8_t)((c >> 8) & 0xFF), (uint8_t)(c & 0xF
  94              		.loc 1 484 0
  95 0008 7B68     		ldr	r3, [r7, #4]
  96 000a 1B0C     		lsrs	r3, r3, #16
  97 000c D8B2     		uxtb	r0, r3
  98 000e 7B68     		ldr	r3, [r7, #4]
  99 0010 1B0A     		lsrs	r3, r3, #8
 100 0012 DBB2     		uxtb	r3, r3
 101 0014 7A68     		ldr	r2, [r7, #4]
 102 0016 D2B2     		uxtb	r2, r2
 103 0018 1946     		mov	r1, r3
 104 001a FFF7FEFF 		bl	lv_color_make
 105 001e 0346     		mov	r3, r0
 485:..\..\..\lvgl\version_6.1.2\lvgl/src/lv_hal/../lv_misc/lv_color.h **** }
 106              		.loc 1 485 0
 107 0020 1846     		mov	r0, r3
 108 0022 0837     		adds	r7, r7, #8
 109              		.cfi_def_cfa_offset 8
 110 0024 BD46     		mov	sp, r7
 111              		.cfi_def_cfa_register 13
 112              		@ sp needed
 113 0026 80BD     		pop	{r7, pc}
 114              		.cfi_endproc
 115              	.LFE589:
 116              		.size	lv_color_hex, .-lv_color_hex
 117              		.section	.text.lv_scr_act,"ax",%progbits
 118              		.align	2
 119              		.thumb
 120              		.thumb_func
 121              		.type	lv_scr_act, %function
 122              	lv_scr_act:
 123              	.LFB613:
 124              		.file 2 "..\\..\\..\\lvgl\\version_6.1.2\\lvgl/src/lv_core/lv_disp.h"
   1:..\..\..\lvgl\version_6.1.2\lvgl/src/lv_core/lv_disp.h **** /**
   2:..\..\..\lvgl\version_6.1.2\lvgl/src/lv_core/lv_disp.h ****  * @file lv_disp.h
   3:..\..\..\lvgl\version_6.1.2\lvgl/src/lv_core/lv_disp.h ****  *
   4:..\..\..\lvgl\version_6.1.2\lvgl/src/lv_core/lv_disp.h ****  */
   5:..\..\..\lvgl\version_6.1.2\lvgl/src/lv_core/lv_disp.h **** 
   6:..\..\..\lvgl\version_6.1.2\lvgl/src/lv_core/lv_disp.h **** #ifndef LV_DISP_H
   7:..\..\..\lvgl\version_6.1.2\lvgl/src/lv_core/lv_disp.h **** #define LV_DISP_H
   8:..\..\..\lvgl\version_6.1.2\lvgl/src/lv_core/lv_disp.h **** 
   9:..\..\..\lvgl\version_6.1.2\lvgl/src/lv_core/lv_disp.h **** #ifdef __cplusplus
  10:..\..\..\lvgl\version_6.1.2\lvgl/src/lv_core/lv_disp.h **** extern "C" {
  11:..\..\..\lvgl\version_6.1.2\lvgl/src/lv_core/lv_disp.h **** #endif
  12:..\..\..\lvgl\version_6.1.2\lvgl/src/lv_core/lv_disp.h **** 
  13:..\..\..\lvgl\version_6.1.2\lvgl/src/lv_core/lv_disp.h **** /*********************
  14:..\..\..\lvgl\version_6.1.2\lvgl/src/lv_core/lv_disp.h ****  *      INCLUDES
  15:..\..\..\lvgl\version_6.1.2\lvgl/src/lv_core/lv_disp.h ****  *********************/
  16:..\..\..\lvgl\version_6.1.2\lvgl/src/lv_core/lv_disp.h **** #include "../lv_hal/lv_hal.h"
  17:..\..\..\lvgl\version_6.1.2\lvgl/src/lv_core/lv_disp.h **** #include "lv_obj.h"
  18:..\..\..\lvgl\version_6.1.2\lvgl/src/lv_core/lv_disp.h **** 
ARM GAS  C:\Users\tmj32\AppData\Local\Temp\cc1nbtVP.s 			page 12


  19:..\..\..\lvgl\version_6.1.2\lvgl/src/lv_core/lv_disp.h **** /*********************
  20:..\..\..\lvgl\version_6.1.2\lvgl/src/lv_core/lv_disp.h ****  *      DEFINES
  21:..\..\..\lvgl\version_6.1.2\lvgl/src/lv_core/lv_disp.h ****  *********************/
  22:..\..\..\lvgl\version_6.1.2\lvgl/src/lv_core/lv_disp.h **** 
  23:..\..\..\lvgl\version_6.1.2\lvgl/src/lv_core/lv_disp.h **** /**********************
  24:..\..\..\lvgl\version_6.1.2\lvgl/src/lv_core/lv_disp.h ****  *      TYPEDEFS
  25:..\..\..\lvgl\version_6.1.2\lvgl/src/lv_core/lv_disp.h ****  **********************/
  26:..\..\..\lvgl\version_6.1.2\lvgl/src/lv_core/lv_disp.h **** 
  27:..\..\..\lvgl\version_6.1.2\lvgl/src/lv_core/lv_disp.h **** /**********************
  28:..\..\..\lvgl\version_6.1.2\lvgl/src/lv_core/lv_disp.h ****  * GLOBAL PROTOTYPES
  29:..\..\..\lvgl\version_6.1.2\lvgl/src/lv_core/lv_disp.h ****  **********************/
  30:..\..\..\lvgl\version_6.1.2\lvgl/src/lv_core/lv_disp.h **** 
  31:..\..\..\lvgl\version_6.1.2\lvgl/src/lv_core/lv_disp.h **** /**
  32:..\..\..\lvgl\version_6.1.2\lvgl/src/lv_core/lv_disp.h ****  * Return with a pointer to the active screen
  33:..\..\..\lvgl\version_6.1.2\lvgl/src/lv_core/lv_disp.h ****  * @param disp pointer to display which active screen should be get. (NULL to use the default
  34:..\..\..\lvgl\version_6.1.2\lvgl/src/lv_core/lv_disp.h ****  * screen)
  35:..\..\..\lvgl\version_6.1.2\lvgl/src/lv_core/lv_disp.h ****  * @return pointer to the active screen object (loaded by 'lv_scr_load()')
  36:..\..\..\lvgl\version_6.1.2\lvgl/src/lv_core/lv_disp.h ****  */
  37:..\..\..\lvgl\version_6.1.2\lvgl/src/lv_core/lv_disp.h **** lv_obj_t * lv_disp_get_scr_act(lv_disp_t * disp);
  38:..\..\..\lvgl\version_6.1.2\lvgl/src/lv_core/lv_disp.h **** 
  39:..\..\..\lvgl\version_6.1.2\lvgl/src/lv_core/lv_disp.h **** /**
  40:..\..\..\lvgl\version_6.1.2\lvgl/src/lv_core/lv_disp.h ****  * Make a screen active
  41:..\..\..\lvgl\version_6.1.2\lvgl/src/lv_core/lv_disp.h ****  * @param scr pointer to a screen
  42:..\..\..\lvgl\version_6.1.2\lvgl/src/lv_core/lv_disp.h ****  */
  43:..\..\..\lvgl\version_6.1.2\lvgl/src/lv_core/lv_disp.h **** void lv_disp_load_scr(lv_obj_t * scr);
  44:..\..\..\lvgl\version_6.1.2\lvgl/src/lv_core/lv_disp.h **** 
  45:..\..\..\lvgl\version_6.1.2\lvgl/src/lv_core/lv_disp.h **** /**
  46:..\..\..\lvgl\version_6.1.2\lvgl/src/lv_core/lv_disp.h ****  * Return with the top layer. (Same on every screen and it is above the normal screen layer)
  47:..\..\..\lvgl\version_6.1.2\lvgl/src/lv_core/lv_disp.h ****  * @param disp pointer to display which top layer should be get. (NULL to use the default screen)
  48:..\..\..\lvgl\version_6.1.2\lvgl/src/lv_core/lv_disp.h ****  * @return pointer to the top layer object  (transparent screen sized lv_obj)
  49:..\..\..\lvgl\version_6.1.2\lvgl/src/lv_core/lv_disp.h ****  */
  50:..\..\..\lvgl\version_6.1.2\lvgl/src/lv_core/lv_disp.h **** lv_obj_t * lv_disp_get_layer_top(lv_disp_t * disp);
  51:..\..\..\lvgl\version_6.1.2\lvgl/src/lv_core/lv_disp.h **** 
  52:..\..\..\lvgl\version_6.1.2\lvgl/src/lv_core/lv_disp.h **** /**
  53:..\..\..\lvgl\version_6.1.2\lvgl/src/lv_core/lv_disp.h ****  * Return with the sys. layer. (Same on every screen and it is above the normal screen and the top
  54:..\..\..\lvgl\version_6.1.2\lvgl/src/lv_core/lv_disp.h ****  * layer)
  55:..\..\..\lvgl\version_6.1.2\lvgl/src/lv_core/lv_disp.h ****  * @param disp pointer to display which sys. layer  should be get. (NULL to use the default screen)
  56:..\..\..\lvgl\version_6.1.2\lvgl/src/lv_core/lv_disp.h ****  * @return pointer to the sys layer object  (transparent screen sized lv_obj)
  57:..\..\..\lvgl\version_6.1.2\lvgl/src/lv_core/lv_disp.h ****  */
  58:..\..\..\lvgl\version_6.1.2\lvgl/src/lv_core/lv_disp.h **** lv_obj_t * lv_disp_get_layer_sys(lv_disp_t * disp);
  59:..\..\..\lvgl\version_6.1.2\lvgl/src/lv_core/lv_disp.h **** 
  60:..\..\..\lvgl\version_6.1.2\lvgl/src/lv_core/lv_disp.h **** /**
  61:..\..\..\lvgl\version_6.1.2\lvgl/src/lv_core/lv_disp.h ****  * Assign a screen to a display.
  62:..\..\..\lvgl\version_6.1.2\lvgl/src/lv_core/lv_disp.h ****  * @param disp pointer to a display where to assign the screen
  63:..\..\..\lvgl\version_6.1.2\lvgl/src/lv_core/lv_disp.h ****  * @param scr pointer to a screen object to assign
  64:..\..\..\lvgl\version_6.1.2\lvgl/src/lv_core/lv_disp.h ****  */
  65:..\..\..\lvgl\version_6.1.2\lvgl/src/lv_core/lv_disp.h **** void lv_disp_assign_screen(lv_disp_t * disp, lv_obj_t * scr);
  66:..\..\..\lvgl\version_6.1.2\lvgl/src/lv_core/lv_disp.h **** 
  67:..\..\..\lvgl\version_6.1.2\lvgl/src/lv_core/lv_disp.h **** /**
  68:..\..\..\lvgl\version_6.1.2\lvgl/src/lv_core/lv_disp.h ****  * Get a pointer to the screen refresher task to
  69:..\..\..\lvgl\version_6.1.2\lvgl/src/lv_core/lv_disp.h ****  * modify its parameters with `lv_task_...` functions.
  70:..\..\..\lvgl\version_6.1.2\lvgl/src/lv_core/lv_disp.h ****  * @param disp pointer to a display
  71:..\..\..\lvgl\version_6.1.2\lvgl/src/lv_core/lv_disp.h ****  * @return pointer to the display refresher task. (NULL on error)
  72:..\..\..\lvgl\version_6.1.2\lvgl/src/lv_core/lv_disp.h ****  */
  73:..\..\..\lvgl\version_6.1.2\lvgl/src/lv_core/lv_disp.h **** lv_task_t * lv_disp_get_refr_task(lv_disp_t * disp);
  74:..\..\..\lvgl\version_6.1.2\lvgl/src/lv_core/lv_disp.h **** 
  75:..\..\..\lvgl\version_6.1.2\lvgl/src/lv_core/lv_disp.h **** /**
ARM GAS  C:\Users\tmj32\AppData\Local\Temp\cc1nbtVP.s 			page 13


  76:..\..\..\lvgl\version_6.1.2\lvgl/src/lv_core/lv_disp.h ****  * Get elapsed time since last user activity on a display (e.g. click)
  77:..\..\..\lvgl\version_6.1.2\lvgl/src/lv_core/lv_disp.h ****  * @param disp pointer to an display (NULL to get the overall smallest inactivity)
  78:..\..\..\lvgl\version_6.1.2\lvgl/src/lv_core/lv_disp.h ****  * @return elapsed ticks (milliseconds) since the last activity
  79:..\..\..\lvgl\version_6.1.2\lvgl/src/lv_core/lv_disp.h ****  */
  80:..\..\..\lvgl\version_6.1.2\lvgl/src/lv_core/lv_disp.h **** uint32_t lv_disp_get_inactive_time(const lv_disp_t * disp);
  81:..\..\..\lvgl\version_6.1.2\lvgl/src/lv_core/lv_disp.h **** 
  82:..\..\..\lvgl\version_6.1.2\lvgl/src/lv_core/lv_disp.h **** /**
  83:..\..\..\lvgl\version_6.1.2\lvgl/src/lv_core/lv_disp.h ****  * Manually trigger an activity on a display
  84:..\..\..\lvgl\version_6.1.2\lvgl/src/lv_core/lv_disp.h ****  * @param disp pointer to an display (NULL to use the default display)
  85:..\..\..\lvgl\version_6.1.2\lvgl/src/lv_core/lv_disp.h ****  */
  86:..\..\..\lvgl\version_6.1.2\lvgl/src/lv_core/lv_disp.h **** void lv_disp_trig_activity(lv_disp_t * disp);
  87:..\..\..\lvgl\version_6.1.2\lvgl/src/lv_core/lv_disp.h **** 
  88:..\..\..\lvgl\version_6.1.2\lvgl/src/lv_core/lv_disp.h **** /*------------------------------------------------
  89:..\..\..\lvgl\version_6.1.2\lvgl/src/lv_core/lv_disp.h ****  * To improve backward compatibility
  90:..\..\..\lvgl\version_6.1.2\lvgl/src/lv_core/lv_disp.h ****  * Recommended only if you have one display
  91:..\..\..\lvgl\version_6.1.2\lvgl/src/lv_core/lv_disp.h ****  *------------------------------------------------*/
  92:..\..\..\lvgl\version_6.1.2\lvgl/src/lv_core/lv_disp.h **** 
  93:..\..\..\lvgl\version_6.1.2\lvgl/src/lv_core/lv_disp.h **** /**
  94:..\..\..\lvgl\version_6.1.2\lvgl/src/lv_core/lv_disp.h ****  * Get the active screen of the default display
  95:..\..\..\lvgl\version_6.1.2\lvgl/src/lv_core/lv_disp.h ****  * @return pointer to the active screen
  96:..\..\..\lvgl\version_6.1.2\lvgl/src/lv_core/lv_disp.h ****  */
  97:..\..\..\lvgl\version_6.1.2\lvgl/src/lv_core/lv_disp.h **** static inline lv_obj_t * lv_scr_act(void)
  98:..\..\..\lvgl\version_6.1.2\lvgl/src/lv_core/lv_disp.h **** {
 125              		.loc 2 98 0
 126              		.cfi_startproc
 127              		@ args = 0, pretend = 0, frame = 0
 128              		@ frame_needed = 1, uses_anonymous_args = 0
 129 0000 80B5     		push	{r7, lr}
 130              		.cfi_def_cfa_offset 8
 131              		.cfi_offset 7, -8
 132              		.cfi_offset 14, -4
 133 0002 00AF     		add	r7, sp, #0
 134              		.cfi_def_cfa_register 7
  99:..\..\..\lvgl\version_6.1.2\lvgl/src/lv_core/lv_disp.h ****     return lv_disp_get_scr_act(lv_disp_get_default());
 135              		.loc 2 99 0
 136 0004 FFF7FEFF 		bl	lv_disp_get_default
 137 0008 0346     		mov	r3, r0
 138 000a 1846     		mov	r0, r3
 139 000c FFF7FEFF 		bl	lv_disp_get_scr_act
 140 0010 0346     		mov	r3, r0
 100:..\..\..\lvgl\version_6.1.2\lvgl/src/lv_core/lv_disp.h **** }
 141              		.loc 2 100 0
 142 0012 1846     		mov	r0, r3
 143 0014 80BD     		pop	{r7, pc}
 144              		.cfi_endproc
 145              	.LFE613:
 146              		.size	lv_scr_act, .-lv_scr_act
 147 0016 00BF     		.section	.text.lv_slider_set_value,"ax",%progbits
 148              		.align	2
 149              		.thumb
 150              		.thumb_func
 151              		.type	lv_slider_set_value, %function
 152              	lv_slider_set_value:
 153              	.LFB668:
 154              		.file 3 "..\\..\\..\\lvgl\\version_6.1.2\\lvgl/src/lv_objx/lv_slider.h"
   1:..\..\..\lvgl\version_6.1.2\lvgl/src/lv_objx/lv_slider.h **** /**
   2:..\..\..\lvgl\version_6.1.2\lvgl/src/lv_objx/lv_slider.h ****  * @file lv_slider.h
ARM GAS  C:\Users\tmj32\AppData\Local\Temp\cc1nbtVP.s 			page 14


   3:..\..\..\lvgl\version_6.1.2\lvgl/src/lv_objx/lv_slider.h ****  *
   4:..\..\..\lvgl\version_6.1.2\lvgl/src/lv_objx/lv_slider.h ****  */
   5:..\..\..\lvgl\version_6.1.2\lvgl/src/lv_objx/lv_slider.h **** 
   6:..\..\..\lvgl\version_6.1.2\lvgl/src/lv_objx/lv_slider.h **** #ifndef LV_SLIDER_H
   7:..\..\..\lvgl\version_6.1.2\lvgl/src/lv_objx/lv_slider.h **** #define LV_SLIDER_H
   8:..\..\..\lvgl\version_6.1.2\lvgl/src/lv_objx/lv_slider.h **** 
   9:..\..\..\lvgl\version_6.1.2\lvgl/src/lv_objx/lv_slider.h **** #ifdef __cplusplus
  10:..\..\..\lvgl\version_6.1.2\lvgl/src/lv_objx/lv_slider.h **** extern "C" {
  11:..\..\..\lvgl\version_6.1.2\lvgl/src/lv_objx/lv_slider.h **** #endif
  12:..\..\..\lvgl\version_6.1.2\lvgl/src/lv_objx/lv_slider.h **** 
  13:..\..\..\lvgl\version_6.1.2\lvgl/src/lv_objx/lv_slider.h **** /*********************
  14:..\..\..\lvgl\version_6.1.2\lvgl/src/lv_objx/lv_slider.h ****  *      INCLUDES
  15:..\..\..\lvgl\version_6.1.2\lvgl/src/lv_objx/lv_slider.h ****  *********************/
  16:..\..\..\lvgl\version_6.1.2\lvgl/src/lv_objx/lv_slider.h **** #ifdef LV_CONF_INCLUDE_SIMPLE
  17:..\..\..\lvgl\version_6.1.2\lvgl/src/lv_objx/lv_slider.h **** #include "lv_conf.h"
  18:..\..\..\lvgl\version_6.1.2\lvgl/src/lv_objx/lv_slider.h **** #else
  19:..\..\..\lvgl\version_6.1.2\lvgl/src/lv_objx/lv_slider.h **** #include "../../../lv_conf.h"
  20:..\..\..\lvgl\version_6.1.2\lvgl/src/lv_objx/lv_slider.h **** #endif
  21:..\..\..\lvgl\version_6.1.2\lvgl/src/lv_objx/lv_slider.h **** 
  22:..\..\..\lvgl\version_6.1.2\lvgl/src/lv_objx/lv_slider.h **** #if LV_USE_SLIDER != 0
  23:..\..\..\lvgl\version_6.1.2\lvgl/src/lv_objx/lv_slider.h **** 
  24:..\..\..\lvgl\version_6.1.2\lvgl/src/lv_objx/lv_slider.h **** /*Testing of dependencies*/
  25:..\..\..\lvgl\version_6.1.2\lvgl/src/lv_objx/lv_slider.h **** #if LV_USE_BAR == 0
  26:..\..\..\lvgl\version_6.1.2\lvgl/src/lv_objx/lv_slider.h **** #error "lv_slider: lv_bar is required. Enable it in lv_conf.h (LV_USE_BAR  1) "
  27:..\..\..\lvgl\version_6.1.2\lvgl/src/lv_objx/lv_slider.h **** #endif
  28:..\..\..\lvgl\version_6.1.2\lvgl/src/lv_objx/lv_slider.h **** 
  29:..\..\..\lvgl\version_6.1.2\lvgl/src/lv_objx/lv_slider.h **** #include "../lv_core/lv_obj.h"
  30:..\..\..\lvgl\version_6.1.2\lvgl/src/lv_objx/lv_slider.h **** #include "lv_bar.h"
  31:..\..\..\lvgl\version_6.1.2\lvgl/src/lv_objx/lv_slider.h **** 
  32:..\..\..\lvgl\version_6.1.2\lvgl/src/lv_objx/lv_slider.h **** /*********************
  33:..\..\..\lvgl\version_6.1.2\lvgl/src/lv_objx/lv_slider.h ****  *      DEFINES
  34:..\..\..\lvgl\version_6.1.2\lvgl/src/lv_objx/lv_slider.h ****  *********************/
  35:..\..\..\lvgl\version_6.1.2\lvgl/src/lv_objx/lv_slider.h **** 
  36:..\..\..\lvgl\version_6.1.2\lvgl/src/lv_objx/lv_slider.h **** /**********************
  37:..\..\..\lvgl\version_6.1.2\lvgl/src/lv_objx/lv_slider.h ****  *      TYPEDEFS
  38:..\..\..\lvgl\version_6.1.2\lvgl/src/lv_objx/lv_slider.h ****  **********************/
  39:..\..\..\lvgl\version_6.1.2\lvgl/src/lv_objx/lv_slider.h **** /*Data of slider*/
  40:..\..\..\lvgl\version_6.1.2\lvgl/src/lv_objx/lv_slider.h **** typedef struct
  41:..\..\..\lvgl\version_6.1.2\lvgl/src/lv_objx/lv_slider.h **** {
  42:..\..\..\lvgl\version_6.1.2\lvgl/src/lv_objx/lv_slider.h ****     lv_bar_ext_t bar; /*Ext. of ancestor*/
  43:..\..\..\lvgl\version_6.1.2\lvgl/src/lv_objx/lv_slider.h ****     /*New data for this type */
  44:..\..\..\lvgl\version_6.1.2\lvgl/src/lv_objx/lv_slider.h ****     const lv_style_t * style_knob; /*Style of the knob*/
  45:..\..\..\lvgl\version_6.1.2\lvgl/src/lv_objx/lv_slider.h ****     int16_t drag_value;            /*Store a temporal value during press until release (Handled by 
  46:..\..\..\lvgl\version_6.1.2\lvgl/src/lv_objx/lv_slider.h ****     uint8_t knob_in : 1;           /*1: Draw the knob inside the bar*/
  47:..\..\..\lvgl\version_6.1.2\lvgl/src/lv_objx/lv_slider.h **** } lv_slider_ext_t;
  48:..\..\..\lvgl\version_6.1.2\lvgl/src/lv_objx/lv_slider.h **** 
  49:..\..\..\lvgl\version_6.1.2\lvgl/src/lv_objx/lv_slider.h **** /** Built-in styles of slider*/
  50:..\..\..\lvgl\version_6.1.2\lvgl/src/lv_objx/lv_slider.h **** enum {
  51:..\..\..\lvgl\version_6.1.2\lvgl/src/lv_objx/lv_slider.h ****     LV_SLIDER_STYLE_BG, /** Slider background style. */
  52:..\..\..\lvgl\version_6.1.2\lvgl/src/lv_objx/lv_slider.h ****     LV_SLIDER_STYLE_INDIC, /** Slider indicator (filled area) style. */
  53:..\..\..\lvgl\version_6.1.2\lvgl/src/lv_objx/lv_slider.h ****     LV_SLIDER_STYLE_KNOB, /** Slider knob style. */
  54:..\..\..\lvgl\version_6.1.2\lvgl/src/lv_objx/lv_slider.h **** };
  55:..\..\..\lvgl\version_6.1.2\lvgl/src/lv_objx/lv_slider.h **** typedef uint8_t lv_slider_style_t;
  56:..\..\..\lvgl\version_6.1.2\lvgl/src/lv_objx/lv_slider.h **** 
  57:..\..\..\lvgl\version_6.1.2\lvgl/src/lv_objx/lv_slider.h **** /**********************
  58:..\..\..\lvgl\version_6.1.2\lvgl/src/lv_objx/lv_slider.h ****  * GLOBAL PROTOTYPES
  59:..\..\..\lvgl\version_6.1.2\lvgl/src/lv_objx/lv_slider.h ****  **********************/
ARM GAS  C:\Users\tmj32\AppData\Local\Temp\cc1nbtVP.s 			page 15


  60:..\..\..\lvgl\version_6.1.2\lvgl/src/lv_objx/lv_slider.h **** 
  61:..\..\..\lvgl\version_6.1.2\lvgl/src/lv_objx/lv_slider.h **** /**
  62:..\..\..\lvgl\version_6.1.2\lvgl/src/lv_objx/lv_slider.h ****  * Create a slider objects
  63:..\..\..\lvgl\version_6.1.2\lvgl/src/lv_objx/lv_slider.h ****  * @param par pointer to an object, it will be the parent of the new slider
  64:..\..\..\lvgl\version_6.1.2\lvgl/src/lv_objx/lv_slider.h ****  * @param copy pointer to a slider object, if not NULL then the new object will be copied from it
  65:..\..\..\lvgl\version_6.1.2\lvgl/src/lv_objx/lv_slider.h ****  * @return pointer to the created slider
  66:..\..\..\lvgl\version_6.1.2\lvgl/src/lv_objx/lv_slider.h ****  */
  67:..\..\..\lvgl\version_6.1.2\lvgl/src/lv_objx/lv_slider.h **** lv_obj_t * lv_slider_create(lv_obj_t * par, const lv_obj_t * copy);
  68:..\..\..\lvgl\version_6.1.2\lvgl/src/lv_objx/lv_slider.h **** 
  69:..\..\..\lvgl\version_6.1.2\lvgl/src/lv_objx/lv_slider.h **** /*=====================
  70:..\..\..\lvgl\version_6.1.2\lvgl/src/lv_objx/lv_slider.h ****  * Setter functions
  71:..\..\..\lvgl\version_6.1.2\lvgl/src/lv_objx/lv_slider.h ****  *====================*/
  72:..\..\..\lvgl\version_6.1.2\lvgl/src/lv_objx/lv_slider.h **** 
  73:..\..\..\lvgl\version_6.1.2\lvgl/src/lv_objx/lv_slider.h **** /**
  74:..\..\..\lvgl\version_6.1.2\lvgl/src/lv_objx/lv_slider.h ****  * Set a new value on the slider
  75:..\..\..\lvgl\version_6.1.2\lvgl/src/lv_objx/lv_slider.h ****  * @param slider pointer to a slider object
  76:..\..\..\lvgl\version_6.1.2\lvgl/src/lv_objx/lv_slider.h ****  * @param value new value
  77:..\..\..\lvgl\version_6.1.2\lvgl/src/lv_objx/lv_slider.h ****  * @param anim LV_ANIM_ON: set the value with an animation; LV_ANIM_OFF: change the value immediate
  78:..\..\..\lvgl\version_6.1.2\lvgl/src/lv_objx/lv_slider.h ****  */
  79:..\..\..\lvgl\version_6.1.2\lvgl/src/lv_objx/lv_slider.h **** static inline void lv_slider_set_value(lv_obj_t * slider, int16_t value, lv_anim_enable_t anim)
  80:..\..\..\lvgl\version_6.1.2\lvgl/src/lv_objx/lv_slider.h **** {
 155              		.loc 3 80 0
 156              		.cfi_startproc
 157              		@ args = 0, pretend = 0, frame = 8
 158              		@ frame_needed = 1, uses_anonymous_args = 0
 159 0000 80B5     		push	{r7, lr}
 160              		.cfi_def_cfa_offset 8
 161              		.cfi_offset 7, -8
 162              		.cfi_offset 14, -4
 163 0002 82B0     		sub	sp, sp, #8
 164              		.cfi_def_cfa_offset 16
 165 0004 00AF     		add	r7, sp, #0
 166              		.cfi_def_cfa_register 7
 167 0006 7860     		str	r0, [r7, #4]
 168 0008 0B46     		mov	r3, r1
 169 000a 7B80     		strh	r3, [r7, #2]	@ movhi
 170 000c 1346     		mov	r3, r2
 171 000e 7B70     		strb	r3, [r7, #1]
  81:..\..\..\lvgl\version_6.1.2\lvgl/src/lv_objx/lv_slider.h ****     lv_bar_set_value(slider, value, anim);
 172              		.loc 3 81 0
 173 0010 7A78     		ldrb	r2, [r7, #1]	@ zero_extendqisi2
 174 0012 B7F90230 		ldrsh	r3, [r7, #2]
 175 0016 1946     		mov	r1, r3
 176 0018 7868     		ldr	r0, [r7, #4]
 177 001a FFF7FEFF 		bl	lv_bar_set_value
  82:..\..\..\lvgl\version_6.1.2\lvgl/src/lv_objx/lv_slider.h **** }
 178              		.loc 3 82 0
 179 001e 00BF     		nop
 180 0020 0837     		adds	r7, r7, #8
 181              		.cfi_def_cfa_offset 8
 182 0022 BD46     		mov	sp, r7
 183              		.cfi_def_cfa_register 13
 184              		@ sp needed
 185 0024 80BD     		pop	{r7, pc}
 186              		.cfi_endproc
 187              	.LFE668:
 188              		.size	lv_slider_set_value, .-lv_slider_set_value
ARM GAS  C:\Users\tmj32\AppData\Local\Temp\cc1nbtVP.s 			page 16


 189 0026 00BF     		.section	.text.lv_slider_set_range,"ax",%progbits
 190              		.align	2
 191              		.thumb
 192              		.thumb_func
 193              		.type	lv_slider_set_range, %function
 194              	lv_slider_set_range:
 195              	.LFB669:
  83:..\..\..\lvgl\version_6.1.2\lvgl/src/lv_objx/lv_slider.h **** 
  84:..\..\..\lvgl\version_6.1.2\lvgl/src/lv_objx/lv_slider.h **** /**
  85:..\..\..\lvgl\version_6.1.2\lvgl/src/lv_objx/lv_slider.h ****  * Set minimum and the maximum values of a bar
  86:..\..\..\lvgl\version_6.1.2\lvgl/src/lv_objx/lv_slider.h ****  * @param slider pointer to the slider object
  87:..\..\..\lvgl\version_6.1.2\lvgl/src/lv_objx/lv_slider.h ****  * @param min minimum value
  88:..\..\..\lvgl\version_6.1.2\lvgl/src/lv_objx/lv_slider.h ****  * @param max maximum value
  89:..\..\..\lvgl\version_6.1.2\lvgl/src/lv_objx/lv_slider.h ****  */
  90:..\..\..\lvgl\version_6.1.2\lvgl/src/lv_objx/lv_slider.h **** static inline void lv_slider_set_range(lv_obj_t * slider, int16_t min, int16_t max)
  91:..\..\..\lvgl\version_6.1.2\lvgl/src/lv_objx/lv_slider.h **** {
 196              		.loc 3 91 0
 197              		.cfi_startproc
 198              		@ args = 0, pretend = 0, frame = 8
 199              		@ frame_needed = 1, uses_anonymous_args = 0
 200 0000 80B5     		push	{r7, lr}
 201              		.cfi_def_cfa_offset 8
 202              		.cfi_offset 7, -8
 203              		.cfi_offset 14, -4
 204 0002 82B0     		sub	sp, sp, #8
 205              		.cfi_def_cfa_offset 16
 206 0004 00AF     		add	r7, sp, #0
 207              		.cfi_def_cfa_register 7
 208 0006 7860     		str	r0, [r7, #4]
 209 0008 0B46     		mov	r3, r1
 210 000a 7B80     		strh	r3, [r7, #2]	@ movhi
 211 000c 1346     		mov	r3, r2	@ movhi
 212 000e 3B80     		strh	r3, [r7]	@ movhi
  92:..\..\..\lvgl\version_6.1.2\lvgl/src/lv_objx/lv_slider.h ****     lv_bar_set_range(slider, min, max);
 213              		.loc 3 92 0
 214 0010 B7F90020 		ldrsh	r2, [r7]
 215 0014 B7F90230 		ldrsh	r3, [r7, #2]
 216 0018 1946     		mov	r1, r3
 217 001a 7868     		ldr	r0, [r7, #4]
 218 001c FFF7FEFF 		bl	lv_bar_set_range
  93:..\..\..\lvgl\version_6.1.2\lvgl/src/lv_objx/lv_slider.h **** }
 219              		.loc 3 93 0
 220 0020 00BF     		nop
 221 0022 0837     		adds	r7, r7, #8
 222              		.cfi_def_cfa_offset 8
 223 0024 BD46     		mov	sp, r7
 224              		.cfi_def_cfa_register 13
 225              		@ sp needed
 226 0026 80BD     		pop	{r7, pc}
 227              		.cfi_endproc
 228              	.LFE669:
 229              		.size	lv_slider_set_range, .-lv_slider_set_range
 230              		.section	.text.lv_roller_get_selected_str,"ax",%progbits
 231              		.align	2
 232              		.thumb
 233              		.thumb_func
 234              		.type	lv_roller_get_selected_str, %function
ARM GAS  C:\Users\tmj32\AppData\Local\Temp\cc1nbtVP.s 			page 17


 235              	lv_roller_get_selected_str:
 236              	.LFB687:
 237              		.file 4 "..\\..\\..\\lvgl\\version_6.1.2\\lvgl/src/lv_objx/lv_roller.h"
   1:..\..\..\lvgl\version_6.1.2\lvgl/src/lv_objx/lv_roller.h **** /**
   2:..\..\..\lvgl\version_6.1.2\lvgl/src/lv_objx/lv_roller.h ****  * @file lv_roller.h
   3:..\..\..\lvgl\version_6.1.2\lvgl/src/lv_objx/lv_roller.h ****  *
   4:..\..\..\lvgl\version_6.1.2\lvgl/src/lv_objx/lv_roller.h ****  */
   5:..\..\..\lvgl\version_6.1.2\lvgl/src/lv_objx/lv_roller.h **** 
   6:..\..\..\lvgl\version_6.1.2\lvgl/src/lv_objx/lv_roller.h **** #ifndef LV_ROLLER_H
   7:..\..\..\lvgl\version_6.1.2\lvgl/src/lv_objx/lv_roller.h **** #define LV_ROLLER_H
   8:..\..\..\lvgl\version_6.1.2\lvgl/src/lv_objx/lv_roller.h **** 
   9:..\..\..\lvgl\version_6.1.2\lvgl/src/lv_objx/lv_roller.h **** #ifdef __cplusplus
  10:..\..\..\lvgl\version_6.1.2\lvgl/src/lv_objx/lv_roller.h **** extern "C" {
  11:..\..\..\lvgl\version_6.1.2\lvgl/src/lv_objx/lv_roller.h **** #endif
  12:..\..\..\lvgl\version_6.1.2\lvgl/src/lv_objx/lv_roller.h **** 
  13:..\..\..\lvgl\version_6.1.2\lvgl/src/lv_objx/lv_roller.h **** /*********************
  14:..\..\..\lvgl\version_6.1.2\lvgl/src/lv_objx/lv_roller.h ****  *      INCLUDES
  15:..\..\..\lvgl\version_6.1.2\lvgl/src/lv_objx/lv_roller.h ****  *********************/
  16:..\..\..\lvgl\version_6.1.2\lvgl/src/lv_objx/lv_roller.h **** #ifdef LV_CONF_INCLUDE_SIMPLE
  17:..\..\..\lvgl\version_6.1.2\lvgl/src/lv_objx/lv_roller.h **** #include "lv_conf.h"
  18:..\..\..\lvgl\version_6.1.2\lvgl/src/lv_objx/lv_roller.h **** #else
  19:..\..\..\lvgl\version_6.1.2\lvgl/src/lv_objx/lv_roller.h **** #include "../../../lv_conf.h"
  20:..\..\..\lvgl\version_6.1.2\lvgl/src/lv_objx/lv_roller.h **** #endif
  21:..\..\..\lvgl\version_6.1.2\lvgl/src/lv_objx/lv_roller.h **** 
  22:..\..\..\lvgl\version_6.1.2\lvgl/src/lv_objx/lv_roller.h **** #if LV_USE_ROLLER != 0
  23:..\..\..\lvgl\version_6.1.2\lvgl/src/lv_objx/lv_roller.h **** 
  24:..\..\..\lvgl\version_6.1.2\lvgl/src/lv_objx/lv_roller.h **** /*Testing of dependencies*/
  25:..\..\..\lvgl\version_6.1.2\lvgl/src/lv_objx/lv_roller.h **** #if LV_USE_DDLIST == 0
  26:..\..\..\lvgl\version_6.1.2\lvgl/src/lv_objx/lv_roller.h **** #error "lv_roller: lv_ddlist is required. Enable it in lv_conf.h (LV_USE_DDLIST  1) "
  27:..\..\..\lvgl\version_6.1.2\lvgl/src/lv_objx/lv_roller.h **** #endif
  28:..\..\..\lvgl\version_6.1.2\lvgl/src/lv_objx/lv_roller.h **** 
  29:..\..\..\lvgl\version_6.1.2\lvgl/src/lv_objx/lv_roller.h **** #include "../lv_core/lv_obj.h"
  30:..\..\..\lvgl\version_6.1.2\lvgl/src/lv_objx/lv_roller.h **** #include "lv_ddlist.h"
  31:..\..\..\lvgl\version_6.1.2\lvgl/src/lv_objx/lv_roller.h **** #include "lv_label.h"
  32:..\..\..\lvgl\version_6.1.2\lvgl/src/lv_objx/lv_roller.h **** 
  33:..\..\..\lvgl\version_6.1.2\lvgl/src/lv_objx/lv_roller.h **** /*********************
  34:..\..\..\lvgl\version_6.1.2\lvgl/src/lv_objx/lv_roller.h ****  *      DEFINES
  35:..\..\..\lvgl\version_6.1.2\lvgl/src/lv_objx/lv_roller.h ****  *********************/
  36:..\..\..\lvgl\version_6.1.2\lvgl/src/lv_objx/lv_roller.h **** 
  37:..\..\..\lvgl\version_6.1.2\lvgl/src/lv_objx/lv_roller.h **** /**********************
  38:..\..\..\lvgl\version_6.1.2\lvgl/src/lv_objx/lv_roller.h ****  *      TYPEDEFS
  39:..\..\..\lvgl\version_6.1.2\lvgl/src/lv_objx/lv_roller.h ****  **********************/
  40:..\..\..\lvgl\version_6.1.2\lvgl/src/lv_objx/lv_roller.h **** 
  41:..\..\..\lvgl\version_6.1.2\lvgl/src/lv_objx/lv_roller.h **** /** Roller mode. */
  42:..\..\..\lvgl\version_6.1.2\lvgl/src/lv_objx/lv_roller.h **** enum {
  43:..\..\..\lvgl\version_6.1.2\lvgl/src/lv_objx/lv_roller.h ****     LV_ROLLER_MODE_NORMAL, /**< Normal mode (roller ends at the end of the options). */
  44:..\..\..\lvgl\version_6.1.2\lvgl/src/lv_objx/lv_roller.h ****     LV_ROLLER_MODE_INIFINITE, /**< Infinite mode (roller can be scrolled forever). */
  45:..\..\..\lvgl\version_6.1.2\lvgl/src/lv_objx/lv_roller.h **** };
  46:..\..\..\lvgl\version_6.1.2\lvgl/src/lv_objx/lv_roller.h **** 
  47:..\..\..\lvgl\version_6.1.2\lvgl/src/lv_objx/lv_roller.h **** typedef uint8_t lv_roller_mode_t;
  48:..\..\..\lvgl\version_6.1.2\lvgl/src/lv_objx/lv_roller.h **** 
  49:..\..\..\lvgl\version_6.1.2\lvgl/src/lv_objx/lv_roller.h **** 
  50:..\..\..\lvgl\version_6.1.2\lvgl/src/lv_objx/lv_roller.h **** 
  51:..\..\..\lvgl\version_6.1.2\lvgl/src/lv_objx/lv_roller.h **** /*Data of roller*/
  52:..\..\..\lvgl\version_6.1.2\lvgl/src/lv_objx/lv_roller.h **** typedef struct
  53:..\..\..\lvgl\version_6.1.2\lvgl/src/lv_objx/lv_roller.h **** {
  54:..\..\..\lvgl\version_6.1.2\lvgl/src/lv_objx/lv_roller.h ****     lv_ddlist_ext_t ddlist; /*Ext. of ancestor*/
ARM GAS  C:\Users\tmj32\AppData\Local\Temp\cc1nbtVP.s 			page 18


  55:..\..\..\lvgl\version_6.1.2\lvgl/src/lv_objx/lv_roller.h ****     /*New data for this type */
  56:..\..\..\lvgl\version_6.1.2\lvgl/src/lv_objx/lv_roller.h ****     lv_roller_mode_t mode : 1;
  57:..\..\..\lvgl\version_6.1.2\lvgl/src/lv_objx/lv_roller.h **** } lv_roller_ext_t;
  58:..\..\..\lvgl\version_6.1.2\lvgl/src/lv_objx/lv_roller.h **** 
  59:..\..\..\lvgl\version_6.1.2\lvgl/src/lv_objx/lv_roller.h **** enum {
  60:..\..\..\lvgl\version_6.1.2\lvgl/src/lv_objx/lv_roller.h ****     LV_ROLLER_STYLE_BG,
  61:..\..\..\lvgl\version_6.1.2\lvgl/src/lv_objx/lv_roller.h ****     LV_ROLLER_STYLE_SEL,
  62:..\..\..\lvgl\version_6.1.2\lvgl/src/lv_objx/lv_roller.h **** };
  63:..\..\..\lvgl\version_6.1.2\lvgl/src/lv_objx/lv_roller.h **** typedef uint8_t lv_roller_style_t;
  64:..\..\..\lvgl\version_6.1.2\lvgl/src/lv_objx/lv_roller.h **** 
  65:..\..\..\lvgl\version_6.1.2\lvgl/src/lv_objx/lv_roller.h **** /**********************
  66:..\..\..\lvgl\version_6.1.2\lvgl/src/lv_objx/lv_roller.h ****  * GLOBAL PROTOTYPES
  67:..\..\..\lvgl\version_6.1.2\lvgl/src/lv_objx/lv_roller.h ****  **********************/
  68:..\..\..\lvgl\version_6.1.2\lvgl/src/lv_objx/lv_roller.h **** 
  69:..\..\..\lvgl\version_6.1.2\lvgl/src/lv_objx/lv_roller.h **** /**
  70:..\..\..\lvgl\version_6.1.2\lvgl/src/lv_objx/lv_roller.h ****  * Create a roller object
  71:..\..\..\lvgl\version_6.1.2\lvgl/src/lv_objx/lv_roller.h ****  * @param par pointer to an object, it will be the parent of the new roller
  72:..\..\..\lvgl\version_6.1.2\lvgl/src/lv_objx/lv_roller.h ****  * @param copy pointer to a roller object, if not NULL then the new object will be copied from it
  73:..\..\..\lvgl\version_6.1.2\lvgl/src/lv_objx/lv_roller.h ****  * @return pointer to the created roller
  74:..\..\..\lvgl\version_6.1.2\lvgl/src/lv_objx/lv_roller.h ****  */
  75:..\..\..\lvgl\version_6.1.2\lvgl/src/lv_objx/lv_roller.h **** lv_obj_t * lv_roller_create(lv_obj_t * par, const lv_obj_t * copy);
  76:..\..\..\lvgl\version_6.1.2\lvgl/src/lv_objx/lv_roller.h **** 
  77:..\..\..\lvgl\version_6.1.2\lvgl/src/lv_objx/lv_roller.h **** /*=====================
  78:..\..\..\lvgl\version_6.1.2\lvgl/src/lv_objx/lv_roller.h ****  * Setter functions
  79:..\..\..\lvgl\version_6.1.2\lvgl/src/lv_objx/lv_roller.h ****  *====================*/
  80:..\..\..\lvgl\version_6.1.2\lvgl/src/lv_objx/lv_roller.h **** 
  81:..\..\..\lvgl\version_6.1.2\lvgl/src/lv_objx/lv_roller.h **** /**
  82:..\..\..\lvgl\version_6.1.2\lvgl/src/lv_objx/lv_roller.h ****  * Set the options on a roller
  83:..\..\..\lvgl\version_6.1.2\lvgl/src/lv_objx/lv_roller.h ****  * @param roller pointer to roller object
  84:..\..\..\lvgl\version_6.1.2\lvgl/src/lv_objx/lv_roller.h ****  * @param options a string with '\n' separated options. E.g. "One\nTwo\nThree"
  85:..\..\..\lvgl\version_6.1.2\lvgl/src/lv_objx/lv_roller.h ****  * @param mode `LV_ROLLER_MODE_NORMAL` or `LV_ROLLER_MODE_INFINITE`
  86:..\..\..\lvgl\version_6.1.2\lvgl/src/lv_objx/lv_roller.h ****  */
  87:..\..\..\lvgl\version_6.1.2\lvgl/src/lv_objx/lv_roller.h **** void lv_roller_set_options(lv_obj_t * roller, const char * options, lv_roller_mode_t mode);
  88:..\..\..\lvgl\version_6.1.2\lvgl/src/lv_objx/lv_roller.h **** 
  89:..\..\..\lvgl\version_6.1.2\lvgl/src/lv_objx/lv_roller.h **** /**
  90:..\..\..\lvgl\version_6.1.2\lvgl/src/lv_objx/lv_roller.h ****  * Set the align of the roller's options (left, right or center[default])
  91:..\..\..\lvgl\version_6.1.2\lvgl/src/lv_objx/lv_roller.h ****  * @param roller - pointer to a roller object
  92:..\..\..\lvgl\version_6.1.2\lvgl/src/lv_objx/lv_roller.h ****  * @param align - one of lv_label_align_t values (left, right, center)
  93:..\..\..\lvgl\version_6.1.2\lvgl/src/lv_objx/lv_roller.h ****  */
  94:..\..\..\lvgl\version_6.1.2\lvgl/src/lv_objx/lv_roller.h **** void lv_roller_set_align(lv_obj_t * roller, lv_label_align_t align);
  95:..\..\..\lvgl\version_6.1.2\lvgl/src/lv_objx/lv_roller.h **** 
  96:..\..\..\lvgl\version_6.1.2\lvgl/src/lv_objx/lv_roller.h **** /**
  97:..\..\..\lvgl\version_6.1.2\lvgl/src/lv_objx/lv_roller.h ****  * Set the selected option
  98:..\..\..\lvgl\version_6.1.2\lvgl/src/lv_objx/lv_roller.h ****  * @param roller pointer to a roller object
  99:..\..\..\lvgl\version_6.1.2\lvgl/src/lv_objx/lv_roller.h ****  * @param sel_opt id of the selected option (0 ... number of option - 1);
 100:..\..\..\lvgl\version_6.1.2\lvgl/src/lv_objx/lv_roller.h ****  * @param anim LV_ANOM_ON: set with animation; LV_ANIM_OFF set immediately
 101:..\..\..\lvgl\version_6.1.2\lvgl/src/lv_objx/lv_roller.h ****  */
 102:..\..\..\lvgl\version_6.1.2\lvgl/src/lv_objx/lv_roller.h **** void lv_roller_set_selected(lv_obj_t * roller, uint16_t sel_opt, lv_anim_enable_t anim);
 103:..\..\..\lvgl\version_6.1.2\lvgl/src/lv_objx/lv_roller.h **** 
 104:..\..\..\lvgl\version_6.1.2\lvgl/src/lv_objx/lv_roller.h **** /**
 105:..\..\..\lvgl\version_6.1.2\lvgl/src/lv_objx/lv_roller.h ****  * Set the height to show the given number of rows (options)
 106:..\..\..\lvgl\version_6.1.2\lvgl/src/lv_objx/lv_roller.h ****  * @param roller pointer to a roller object
 107:..\..\..\lvgl\version_6.1.2\lvgl/src/lv_objx/lv_roller.h ****  * @param row_cnt number of desired visible rows
 108:..\..\..\lvgl\version_6.1.2\lvgl/src/lv_objx/lv_roller.h ****  */
 109:..\..\..\lvgl\version_6.1.2\lvgl/src/lv_objx/lv_roller.h **** void lv_roller_set_visible_row_count(lv_obj_t * roller, uint8_t row_cnt);
 110:..\..\..\lvgl\version_6.1.2\lvgl/src/lv_objx/lv_roller.h **** 
 111:..\..\..\lvgl\version_6.1.2\lvgl/src/lv_objx/lv_roller.h **** /**
ARM GAS  C:\Users\tmj32\AppData\Local\Temp\cc1nbtVP.s 			page 19


 112:..\..\..\lvgl\version_6.1.2\lvgl/src/lv_objx/lv_roller.h ****  * Set a fix width for the drop down list
 113:..\..\..\lvgl\version_6.1.2\lvgl/src/lv_objx/lv_roller.h ****  * @param roller pointer to a roller obejct
 114:..\..\..\lvgl\version_6.1.2\lvgl/src/lv_objx/lv_roller.h ****  * @param w the width when the list is opened (0: auto size)
 115:..\..\..\lvgl\version_6.1.2\lvgl/src/lv_objx/lv_roller.h ****  */
 116:..\..\..\lvgl\version_6.1.2\lvgl/src/lv_objx/lv_roller.h **** static inline void lv_roller_set_fix_width(lv_obj_t * roller, lv_coord_t w)
 117:..\..\..\lvgl\version_6.1.2\lvgl/src/lv_objx/lv_roller.h **** {
 118:..\..\..\lvgl\version_6.1.2\lvgl/src/lv_objx/lv_roller.h ****     lv_ddlist_set_fix_width(roller, w);
 119:..\..\..\lvgl\version_6.1.2\lvgl/src/lv_objx/lv_roller.h **** }
 120:..\..\..\lvgl\version_6.1.2\lvgl/src/lv_objx/lv_roller.h **** 
 121:..\..\..\lvgl\version_6.1.2\lvgl/src/lv_objx/lv_roller.h **** /**
 122:..\..\..\lvgl\version_6.1.2\lvgl/src/lv_objx/lv_roller.h ****  * Set the open/close animation time.
 123:..\..\..\lvgl\version_6.1.2\lvgl/src/lv_objx/lv_roller.h ****  * @param roller pointer to a roller object
 124:..\..\..\lvgl\version_6.1.2\lvgl/src/lv_objx/lv_roller.h ****  * @param anim_time: open/close animation time [ms]
 125:..\..\..\lvgl\version_6.1.2\lvgl/src/lv_objx/lv_roller.h ****  */
 126:..\..\..\lvgl\version_6.1.2\lvgl/src/lv_objx/lv_roller.h **** static inline void lv_roller_set_anim_time(lv_obj_t * roller, uint16_t anim_time)
 127:..\..\..\lvgl\version_6.1.2\lvgl/src/lv_objx/lv_roller.h **** {
 128:..\..\..\lvgl\version_6.1.2\lvgl/src/lv_objx/lv_roller.h ****     lv_ddlist_set_anim_time(roller, anim_time);
 129:..\..\..\lvgl\version_6.1.2\lvgl/src/lv_objx/lv_roller.h **** }
 130:..\..\..\lvgl\version_6.1.2\lvgl/src/lv_objx/lv_roller.h **** 
 131:..\..\..\lvgl\version_6.1.2\lvgl/src/lv_objx/lv_roller.h **** /**
 132:..\..\..\lvgl\version_6.1.2\lvgl/src/lv_objx/lv_roller.h ****  * Set a style of a roller
 133:..\..\..\lvgl\version_6.1.2\lvgl/src/lv_objx/lv_roller.h ****  * @param roller pointer to a roller object
 134:..\..\..\lvgl\version_6.1.2\lvgl/src/lv_objx/lv_roller.h ****  * @param type which style should be set
 135:..\..\..\lvgl\version_6.1.2\lvgl/src/lv_objx/lv_roller.h ****  * @param style pointer to a style
 136:..\..\..\lvgl\version_6.1.2\lvgl/src/lv_objx/lv_roller.h ****  */
 137:..\..\..\lvgl\version_6.1.2\lvgl/src/lv_objx/lv_roller.h **** void lv_roller_set_style(lv_obj_t * roller, lv_roller_style_t type, const lv_style_t * style);
 138:..\..\..\lvgl\version_6.1.2\lvgl/src/lv_objx/lv_roller.h **** 
 139:..\..\..\lvgl\version_6.1.2\lvgl/src/lv_objx/lv_roller.h **** /*=====================
 140:..\..\..\lvgl\version_6.1.2\lvgl/src/lv_objx/lv_roller.h ****  * Getter functions
 141:..\..\..\lvgl\version_6.1.2\lvgl/src/lv_objx/lv_roller.h ****  *====================*/
 142:..\..\..\lvgl\version_6.1.2\lvgl/src/lv_objx/lv_roller.h **** /**
 143:..\..\..\lvgl\version_6.1.2\lvgl/src/lv_objx/lv_roller.h ****  * Get the id of the selected option
 144:..\..\..\lvgl\version_6.1.2\lvgl/src/lv_objx/lv_roller.h ****  * @param roller pointer to a roller object
 145:..\..\..\lvgl\version_6.1.2\lvgl/src/lv_objx/lv_roller.h ****  * @return id of the selected option (0 ... number of option - 1);
 146:..\..\..\lvgl\version_6.1.2\lvgl/src/lv_objx/lv_roller.h ****  */
 147:..\..\..\lvgl\version_6.1.2\lvgl/src/lv_objx/lv_roller.h **** uint16_t lv_roller_get_selected(const lv_obj_t * roller);
 148:..\..\..\lvgl\version_6.1.2\lvgl/src/lv_objx/lv_roller.h **** 
 149:..\..\..\lvgl\version_6.1.2\lvgl/src/lv_objx/lv_roller.h **** /**
 150:..\..\..\lvgl\version_6.1.2\lvgl/src/lv_objx/lv_roller.h ****  * Get the current selected option as a string
 151:..\..\..\lvgl\version_6.1.2\lvgl/src/lv_objx/lv_roller.h ****  * @param roller pointer to roller object
 152:..\..\..\lvgl\version_6.1.2\lvgl/src/lv_objx/lv_roller.h ****  * @param buf pointer to an array to store the string
 153:..\..\..\lvgl\version_6.1.2\lvgl/src/lv_objx/lv_roller.h ****  * @param buf_size size of `buf` in bytes. 0: to ignore it.
 154:..\..\..\lvgl\version_6.1.2\lvgl/src/lv_objx/lv_roller.h ****  */
 155:..\..\..\lvgl\version_6.1.2\lvgl/src/lv_objx/lv_roller.h **** static inline void lv_roller_get_selected_str(const lv_obj_t * roller, char * buf, uint16_t buf_siz
 156:..\..\..\lvgl\version_6.1.2\lvgl/src/lv_objx/lv_roller.h **** {
 238              		.loc 4 156 0
 239              		.cfi_startproc
 240              		@ args = 0, pretend = 0, frame = 16
 241              		@ frame_needed = 1, uses_anonymous_args = 0
 242 0000 80B5     		push	{r7, lr}
 243              		.cfi_def_cfa_offset 8
 244              		.cfi_offset 7, -8
 245              		.cfi_offset 14, -4
 246 0002 84B0     		sub	sp, sp, #16
 247              		.cfi_def_cfa_offset 24
 248 0004 00AF     		add	r7, sp, #0
 249              		.cfi_def_cfa_register 7
ARM GAS  C:\Users\tmj32\AppData\Local\Temp\cc1nbtVP.s 			page 20


 250 0006 F860     		str	r0, [r7, #12]
 251 0008 B960     		str	r1, [r7, #8]
 252 000a 1346     		mov	r3, r2
 253 000c FB80     		strh	r3, [r7, #6]	@ movhi
 157:..\..\..\lvgl\version_6.1.2\lvgl/src/lv_objx/lv_roller.h ****     lv_ddlist_get_selected_str(roller, buf, buf_size);
 254              		.loc 4 157 0
 255 000e FB88     		ldrh	r3, [r7, #6]
 256 0010 1A46     		mov	r2, r3
 257 0012 B968     		ldr	r1, [r7, #8]
 258 0014 F868     		ldr	r0, [r7, #12]
 259 0016 FFF7FEFF 		bl	lv_ddlist_get_selected_str
 158:..\..\..\lvgl\version_6.1.2\lvgl/src/lv_objx/lv_roller.h **** }
 260              		.loc 4 158 0
 261 001a 00BF     		nop
 262 001c 1037     		adds	r7, r7, #16
 263              		.cfi_def_cfa_offset 8
 264 001e BD46     		mov	sp, r7
 265              		.cfi_def_cfa_register 13
 266              		@ sp needed
 267 0020 80BD     		pop	{r7, pc}
 268              		.cfi_endproc
 269              	.LFE687:
 270              		.size	lv_roller_get_selected_str, .-lv_roller_get_selected_str
 271 0022 00BF     		.section	.text.lv_sw_get_state,"ax",%progbits
 272              		.align	2
 273              		.thumb
 274              		.thumb_func
 275              		.type	lv_sw_get_state, %function
 276              	lv_sw_get_state:
 277              	.LFB714:
 278              		.file 5 "..\\..\\..\\lvgl\\version_6.1.2\\lvgl/src/lv_objx/lv_sw.h"
   1:..\..\..\lvgl\version_6.1.2\lvgl/src/lv_objx/lv_sw.h **** /**
   2:..\..\..\lvgl\version_6.1.2\lvgl/src/lv_objx/lv_sw.h ****  * @file lv_sw.h
   3:..\..\..\lvgl\version_6.1.2\lvgl/src/lv_objx/lv_sw.h ****  *
   4:..\..\..\lvgl\version_6.1.2\lvgl/src/lv_objx/lv_sw.h ****  */
   5:..\..\..\lvgl\version_6.1.2\lvgl/src/lv_objx/lv_sw.h **** 
   6:..\..\..\lvgl\version_6.1.2\lvgl/src/lv_objx/lv_sw.h **** #ifndef LV_SW_H
   7:..\..\..\lvgl\version_6.1.2\lvgl/src/lv_objx/lv_sw.h **** #define LV_SW_H
   8:..\..\..\lvgl\version_6.1.2\lvgl/src/lv_objx/lv_sw.h **** 
   9:..\..\..\lvgl\version_6.1.2\lvgl/src/lv_objx/lv_sw.h **** #ifdef __cplusplus
  10:..\..\..\lvgl\version_6.1.2\lvgl/src/lv_objx/lv_sw.h **** extern "C" {
  11:..\..\..\lvgl\version_6.1.2\lvgl/src/lv_objx/lv_sw.h **** #endif
  12:..\..\..\lvgl\version_6.1.2\lvgl/src/lv_objx/lv_sw.h **** 
  13:..\..\..\lvgl\version_6.1.2\lvgl/src/lv_objx/lv_sw.h **** /*********************
  14:..\..\..\lvgl\version_6.1.2\lvgl/src/lv_objx/lv_sw.h ****  *      INCLUDES
  15:..\..\..\lvgl\version_6.1.2\lvgl/src/lv_objx/lv_sw.h ****  *********************/
  16:..\..\..\lvgl\version_6.1.2\lvgl/src/lv_objx/lv_sw.h **** #ifdef LV_CONF_INCLUDE_SIMPLE
  17:..\..\..\lvgl\version_6.1.2\lvgl/src/lv_objx/lv_sw.h **** #include "lv_conf.h"
  18:..\..\..\lvgl\version_6.1.2\lvgl/src/lv_objx/lv_sw.h **** #else
  19:..\..\..\lvgl\version_6.1.2\lvgl/src/lv_objx/lv_sw.h **** #include "../../../lv_conf.h"
  20:..\..\..\lvgl\version_6.1.2\lvgl/src/lv_objx/lv_sw.h **** #endif
  21:..\..\..\lvgl\version_6.1.2\lvgl/src/lv_objx/lv_sw.h **** 
  22:..\..\..\lvgl\version_6.1.2\lvgl/src/lv_objx/lv_sw.h **** #if LV_USE_SW != 0
  23:..\..\..\lvgl\version_6.1.2\lvgl/src/lv_objx/lv_sw.h **** 
  24:..\..\..\lvgl\version_6.1.2\lvgl/src/lv_objx/lv_sw.h **** /*Testing of dependencies*/
  25:..\..\..\lvgl\version_6.1.2\lvgl/src/lv_objx/lv_sw.h **** #if LV_USE_SLIDER == 0
  26:..\..\..\lvgl\version_6.1.2\lvgl/src/lv_objx/lv_sw.h **** #error "lv_sw: lv_slider is required. Enable it in lv_conf.h (LV_USE_SLIDER  1)"
ARM GAS  C:\Users\tmj32\AppData\Local\Temp\cc1nbtVP.s 			page 21


  27:..\..\..\lvgl\version_6.1.2\lvgl/src/lv_objx/lv_sw.h **** #endif
  28:..\..\..\lvgl\version_6.1.2\lvgl/src/lv_objx/lv_sw.h **** 
  29:..\..\..\lvgl\version_6.1.2\lvgl/src/lv_objx/lv_sw.h **** #include "../lv_core/lv_obj.h"
  30:..\..\..\lvgl\version_6.1.2\lvgl/src/lv_objx/lv_sw.h **** #include "lv_slider.h"
  31:..\..\..\lvgl\version_6.1.2\lvgl/src/lv_objx/lv_sw.h **** 
  32:..\..\..\lvgl\version_6.1.2\lvgl/src/lv_objx/lv_sw.h **** /*********************
  33:..\..\..\lvgl\version_6.1.2\lvgl/src/lv_objx/lv_sw.h ****  *      DEFINES
  34:..\..\..\lvgl\version_6.1.2\lvgl/src/lv_objx/lv_sw.h ****  *********************/
  35:..\..\..\lvgl\version_6.1.2\lvgl/src/lv_objx/lv_sw.h **** #define LV_SW_MAX_VALUE 100
  36:..\..\..\lvgl\version_6.1.2\lvgl/src/lv_objx/lv_sw.h **** 
  37:..\..\..\lvgl\version_6.1.2\lvgl/src/lv_objx/lv_sw.h **** /**********************
  38:..\..\..\lvgl\version_6.1.2\lvgl/src/lv_objx/lv_sw.h ****  *      TYPEDEFS
  39:..\..\..\lvgl\version_6.1.2\lvgl/src/lv_objx/lv_sw.h ****  **********************/
  40:..\..\..\lvgl\version_6.1.2\lvgl/src/lv_objx/lv_sw.h **** /*Data of switch*/
  41:..\..\..\lvgl\version_6.1.2\lvgl/src/lv_objx/lv_sw.h **** typedef struct
  42:..\..\..\lvgl\version_6.1.2\lvgl/src/lv_objx/lv_sw.h **** {
  43:..\..\..\lvgl\version_6.1.2\lvgl/src/lv_objx/lv_sw.h ****     lv_slider_ext_t slider; /*Ext. of ancestor*/
  44:..\..\..\lvgl\version_6.1.2\lvgl/src/lv_objx/lv_sw.h ****     /*New data for this type */
  45:..\..\..\lvgl\version_6.1.2\lvgl/src/lv_objx/lv_sw.h ****     const lv_style_t * style_knob_off; /**< Style of the knob when the switch is OFF*/
  46:..\..\..\lvgl\version_6.1.2\lvgl/src/lv_objx/lv_sw.h ****     const lv_style_t * style_knob_on;  /**< Style of the knob when the switch is ON (NULL to use th
  47:..\..\..\lvgl\version_6.1.2\lvgl/src/lv_objx/lv_sw.h ****     lv_coord_t start_x;
  48:..\..\..\lvgl\version_6.1.2\lvgl/src/lv_objx/lv_sw.h ****     uint8_t changed : 1; /*Indicates the switch state explicitly changed by drag*/
  49:..\..\..\lvgl\version_6.1.2\lvgl/src/lv_objx/lv_sw.h ****     uint8_t slided : 1;
  50:..\..\..\lvgl\version_6.1.2\lvgl/src/lv_objx/lv_sw.h **** #if LV_USE_ANIMATION
  51:..\..\..\lvgl\version_6.1.2\lvgl/src/lv_objx/lv_sw.h ****     uint16_t anim_time; /*switch animation time */
  52:..\..\..\lvgl\version_6.1.2\lvgl/src/lv_objx/lv_sw.h **** #endif
  53:..\..\..\lvgl\version_6.1.2\lvgl/src/lv_objx/lv_sw.h **** } lv_sw_ext_t;
  54:..\..\..\lvgl\version_6.1.2\lvgl/src/lv_objx/lv_sw.h **** 
  55:..\..\..\lvgl\version_6.1.2\lvgl/src/lv_objx/lv_sw.h **** /**
  56:..\..\..\lvgl\version_6.1.2\lvgl/src/lv_objx/lv_sw.h ****  * Switch styles.
  57:..\..\..\lvgl\version_6.1.2\lvgl/src/lv_objx/lv_sw.h ****  */
  58:..\..\..\lvgl\version_6.1.2\lvgl/src/lv_objx/lv_sw.h **** enum {
  59:..\..\..\lvgl\version_6.1.2\lvgl/src/lv_objx/lv_sw.h ****     LV_SW_STYLE_BG, /**< Switch background. */
  60:..\..\..\lvgl\version_6.1.2\lvgl/src/lv_objx/lv_sw.h ****     LV_SW_STYLE_INDIC, /**< Switch fill area. */
  61:..\..\..\lvgl\version_6.1.2\lvgl/src/lv_objx/lv_sw.h ****     LV_SW_STYLE_KNOB_OFF, /**< Switch knob (when off). */
  62:..\..\..\lvgl\version_6.1.2\lvgl/src/lv_objx/lv_sw.h ****     LV_SW_STYLE_KNOB_ON, /**< Switch knob (when on). */
  63:..\..\..\lvgl\version_6.1.2\lvgl/src/lv_objx/lv_sw.h **** };
  64:..\..\..\lvgl\version_6.1.2\lvgl/src/lv_objx/lv_sw.h **** typedef uint8_t lv_sw_style_t;
  65:..\..\..\lvgl\version_6.1.2\lvgl/src/lv_objx/lv_sw.h **** 
  66:..\..\..\lvgl\version_6.1.2\lvgl/src/lv_objx/lv_sw.h **** /**********************
  67:..\..\..\lvgl\version_6.1.2\lvgl/src/lv_objx/lv_sw.h ****  * GLOBAL PROTOTYPES
  68:..\..\..\lvgl\version_6.1.2\lvgl/src/lv_objx/lv_sw.h ****  **********************/
  69:..\..\..\lvgl\version_6.1.2\lvgl/src/lv_objx/lv_sw.h **** 
  70:..\..\..\lvgl\version_6.1.2\lvgl/src/lv_objx/lv_sw.h **** /**
  71:..\..\..\lvgl\version_6.1.2\lvgl/src/lv_objx/lv_sw.h ****  * Create a switch objects
  72:..\..\..\lvgl\version_6.1.2\lvgl/src/lv_objx/lv_sw.h ****  * @param par pointer to an object, it will be the parent of the new switch
  73:..\..\..\lvgl\version_6.1.2\lvgl/src/lv_objx/lv_sw.h ****  * @param copy pointer to a switch object, if not NULL then the new object will be copied from it
  74:..\..\..\lvgl\version_6.1.2\lvgl/src/lv_objx/lv_sw.h ****  * @return pointer to the created switch
  75:..\..\..\lvgl\version_6.1.2\lvgl/src/lv_objx/lv_sw.h ****  */
  76:..\..\..\lvgl\version_6.1.2\lvgl/src/lv_objx/lv_sw.h **** lv_obj_t * lv_sw_create(lv_obj_t * par, const lv_obj_t * copy);
  77:..\..\..\lvgl\version_6.1.2\lvgl/src/lv_objx/lv_sw.h **** 
  78:..\..\..\lvgl\version_6.1.2\lvgl/src/lv_objx/lv_sw.h **** /*=====================
  79:..\..\..\lvgl\version_6.1.2\lvgl/src/lv_objx/lv_sw.h ****  * Setter functions
  80:..\..\..\lvgl\version_6.1.2\lvgl/src/lv_objx/lv_sw.h ****  *====================*/
  81:..\..\..\lvgl\version_6.1.2\lvgl/src/lv_objx/lv_sw.h **** 
  82:..\..\..\lvgl\version_6.1.2\lvgl/src/lv_objx/lv_sw.h **** /**
  83:..\..\..\lvgl\version_6.1.2\lvgl/src/lv_objx/lv_sw.h ****  * Turn ON the switch
ARM GAS  C:\Users\tmj32\AppData\Local\Temp\cc1nbtVP.s 			page 22


  84:..\..\..\lvgl\version_6.1.2\lvgl/src/lv_objx/lv_sw.h ****  * @param sw pointer to a switch object
  85:..\..\..\lvgl\version_6.1.2\lvgl/src/lv_objx/lv_sw.h ****  * @param anim LV_ANIM_ON: set the value with an animation; LV_ANIM_OFF: change the value immediate
  86:..\..\..\lvgl\version_6.1.2\lvgl/src/lv_objx/lv_sw.h ****  */
  87:..\..\..\lvgl\version_6.1.2\lvgl/src/lv_objx/lv_sw.h **** void lv_sw_on(lv_obj_t * sw, lv_anim_enable_t anim);
  88:..\..\..\lvgl\version_6.1.2\lvgl/src/lv_objx/lv_sw.h **** 
  89:..\..\..\lvgl\version_6.1.2\lvgl/src/lv_objx/lv_sw.h **** /**
  90:..\..\..\lvgl\version_6.1.2\lvgl/src/lv_objx/lv_sw.h ****  * Turn OFF the switch
  91:..\..\..\lvgl\version_6.1.2\lvgl/src/lv_objx/lv_sw.h ****  * @param sw pointer to a switch object
  92:..\..\..\lvgl\version_6.1.2\lvgl/src/lv_objx/lv_sw.h ****  * @param anim LV_ANIM_ON: set the value with an animation; LV_ANIM_OFF: change the value immediate
  93:..\..\..\lvgl\version_6.1.2\lvgl/src/lv_objx/lv_sw.h ****  */
  94:..\..\..\lvgl\version_6.1.2\lvgl/src/lv_objx/lv_sw.h **** void lv_sw_off(lv_obj_t * sw, lv_anim_enable_t anim);
  95:..\..\..\lvgl\version_6.1.2\lvgl/src/lv_objx/lv_sw.h **** 
  96:..\..\..\lvgl\version_6.1.2\lvgl/src/lv_objx/lv_sw.h **** /**
  97:..\..\..\lvgl\version_6.1.2\lvgl/src/lv_objx/lv_sw.h ****  * Toggle the position of the switch
  98:..\..\..\lvgl\version_6.1.2\lvgl/src/lv_objx/lv_sw.h ****  * @param sw pointer to a switch object
  99:..\..\..\lvgl\version_6.1.2\lvgl/src/lv_objx/lv_sw.h ****  * @param anim LV_ANIM_ON: set the value with an animation; LV_ANIM_OFF: change the value immediate
 100:..\..\..\lvgl\version_6.1.2\lvgl/src/lv_objx/lv_sw.h ****  * @return resulting state of the switch.
 101:..\..\..\lvgl\version_6.1.2\lvgl/src/lv_objx/lv_sw.h ****  */
 102:..\..\..\lvgl\version_6.1.2\lvgl/src/lv_objx/lv_sw.h **** bool lv_sw_toggle(lv_obj_t * sw, lv_anim_enable_t anim);
 103:..\..\..\lvgl\version_6.1.2\lvgl/src/lv_objx/lv_sw.h **** 
 104:..\..\..\lvgl\version_6.1.2\lvgl/src/lv_objx/lv_sw.h **** /**
 105:..\..\..\lvgl\version_6.1.2\lvgl/src/lv_objx/lv_sw.h ****  * Set a style of a switch
 106:..\..\..\lvgl\version_6.1.2\lvgl/src/lv_objx/lv_sw.h ****  * @param sw pointer to a switch object
 107:..\..\..\lvgl\version_6.1.2\lvgl/src/lv_objx/lv_sw.h ****  * @param type which style should be set
 108:..\..\..\lvgl\version_6.1.2\lvgl/src/lv_objx/lv_sw.h ****  * @param style pointer to a style
 109:..\..\..\lvgl\version_6.1.2\lvgl/src/lv_objx/lv_sw.h ****  */
 110:..\..\..\lvgl\version_6.1.2\lvgl/src/lv_objx/lv_sw.h **** void lv_sw_set_style(lv_obj_t * sw, lv_sw_style_t type, const lv_style_t * style);
 111:..\..\..\lvgl\version_6.1.2\lvgl/src/lv_objx/lv_sw.h **** 
 112:..\..\..\lvgl\version_6.1.2\lvgl/src/lv_objx/lv_sw.h **** /**
 113:..\..\..\lvgl\version_6.1.2\lvgl/src/lv_objx/lv_sw.h ****  * Set the animation time of the switch
 114:..\..\..\lvgl\version_6.1.2\lvgl/src/lv_objx/lv_sw.h ****  * @param sw pointer to a  switch object
 115:..\..\..\lvgl\version_6.1.2\lvgl/src/lv_objx/lv_sw.h ****  * @param anim_time animation time
 116:..\..\..\lvgl\version_6.1.2\lvgl/src/lv_objx/lv_sw.h ****  * @return style pointer to a style
 117:..\..\..\lvgl\version_6.1.2\lvgl/src/lv_objx/lv_sw.h ****  */
 118:..\..\..\lvgl\version_6.1.2\lvgl/src/lv_objx/lv_sw.h **** void lv_sw_set_anim_time(lv_obj_t * sw, uint16_t anim_time);
 119:..\..\..\lvgl\version_6.1.2\lvgl/src/lv_objx/lv_sw.h **** 
 120:..\..\..\lvgl\version_6.1.2\lvgl/src/lv_objx/lv_sw.h **** /*=====================
 121:..\..\..\lvgl\version_6.1.2\lvgl/src/lv_objx/lv_sw.h ****  * Getter functions
 122:..\..\..\lvgl\version_6.1.2\lvgl/src/lv_objx/lv_sw.h ****  *====================*/
 123:..\..\..\lvgl\version_6.1.2\lvgl/src/lv_objx/lv_sw.h **** 
 124:..\..\..\lvgl\version_6.1.2\lvgl/src/lv_objx/lv_sw.h **** /**
 125:..\..\..\lvgl\version_6.1.2\lvgl/src/lv_objx/lv_sw.h ****  * Get the state of a switch
 126:..\..\..\lvgl\version_6.1.2\lvgl/src/lv_objx/lv_sw.h ****  * @param sw pointer to a switch object
 127:..\..\..\lvgl\version_6.1.2\lvgl/src/lv_objx/lv_sw.h ****  * @return false: OFF; true: ON
 128:..\..\..\lvgl\version_6.1.2\lvgl/src/lv_objx/lv_sw.h ****  */
 129:..\..\..\lvgl\version_6.1.2\lvgl/src/lv_objx/lv_sw.h **** static inline bool lv_sw_get_state(const lv_obj_t * sw)
 130:..\..\..\lvgl\version_6.1.2\lvgl/src/lv_objx/lv_sw.h **** {
 279              		.loc 5 130 0
 280              		.cfi_startproc
 281              		@ args = 0, pretend = 0, frame = 8
 282              		@ frame_needed = 1, uses_anonymous_args = 0
 283 0000 80B5     		push	{r7, lr}
 284              		.cfi_def_cfa_offset 8
 285              		.cfi_offset 7, -8
 286              		.cfi_offset 14, -4
 287 0002 82B0     		sub	sp, sp, #8
 288              		.cfi_def_cfa_offset 16
ARM GAS  C:\Users\tmj32\AppData\Local\Temp\cc1nbtVP.s 			page 23


 289 0004 00AF     		add	r7, sp, #0
 290              		.cfi_def_cfa_register 7
 291 0006 7860     		str	r0, [r7, #4]
 131:..\..\..\lvgl\version_6.1.2\lvgl/src/lv_objx/lv_sw.h ****     return lv_bar_get_value(sw) < LV_SW_MAX_VALUE / 2 ? false : true;
 292              		.loc 5 131 0
 293 0008 7868     		ldr	r0, [r7, #4]
 294 000a FFF7FEFF 		bl	lv_bar_get_value
 295 000e 0346     		mov	r3, r0
 296 0010 312B     		cmp	r3, #49
 297 0012 CCBF     		ite	gt
 298 0014 0123     		movgt	r3, #1
 299 0016 0023     		movle	r3, #0
 300 0018 DBB2     		uxtb	r3, r3
 132:..\..\..\lvgl\version_6.1.2\lvgl/src/lv_objx/lv_sw.h **** }
 301              		.loc 5 132 0
 302 001a 1846     		mov	r0, r3
 303 001c 0837     		adds	r7, r7, #8
 304              		.cfi_def_cfa_offset 8
 305 001e BD46     		mov	sp, r7
 306              		.cfi_def_cfa_register 13
 307              		@ sp needed
 308 0020 80BD     		pop	{r7, pc}
 309              		.cfi_endproc
 310              	.LFE714:
 311              		.size	lv_sw_get_state, .-lv_sw_get_state
 312              		.global	tcnj_blue
 313 0022 00BF     		.section	.rodata
 314              		.align	2
 315              		.type	tcnj_blue, %object
 316              		.size	tcnj_blue, 3
 317              	tcnj_blue:
 318 0000 29       		.byte	41
 319 0001 3F       		.byte	63
 320 0002 6F       		.byte	111
 321              		.global	tcnj_gold
 322 0003 00       		.align	2
 323              		.type	tcnj_gold, %object
 324              		.size	tcnj_gold, 3
 325              	tcnj_gold:
 326 0004 A6       		.byte	-90
 327 0005 7A       		.byte	122
 328 0006 00       		.byte	0
 329              		.global	display_leftAlign
 330 0007 00       		.align	2
 331              		.type	display_leftAlign, %object
 332              		.size	display_leftAlign, 4
 333              	display_leftAlign:
 334 0008 14000000 		.word	20
 335              		.bss
 336              		.align	2
 337              	offsetLabel:
 338 0000 00000000 		.space	4
 339              		.align	2
 340              	triggerLabel:
 341 0004 00000000 		.space	4
 342              		.align	2
 343              	horiLabel1:
ARM GAS  C:\Users\tmj32\AppData\Local\Temp\cc1nbtVP.s 			page 24


 344 0008 00000000 		.space	4
 345              		.align	2
 346              	vertLabel1:
 347 000c 00000000 		.space	4
 348              		.global	startup
 349              		.align	2
 350              		.type	startup, %object
 351              		.size	startup, 4
 352              	startup:
 353 0010 00000000 		.space	4
 354              		.global	__aeabi_i2d
 355              		.global	__aeabi_dsub
 356              		.global	__aeabi_ddiv
 357              		.global	__aeabi_dmul
 358              		.global	__aeabi_d2iz
 359              		.global	__aeabi_dadd
 360              		.section	.text.chart_actions,"ax",%progbits
 361              		.align	2
 362              		.global	chart_actions
 363              		.thumb
 364              		.thumb_func
 365              		.type	chart_actions, %function
 366              	chart_actions:
 367              	.LFB717:
 368              		.file 6 "home_screen.c"
   1:home_screen.c **** #include <stdio.h>
   2:home_screen.c **** 
   3:home_screen.c **** #include "project.h"
   4:home_screen.c **** #include "globalStruct.h"
   5:home_screen.c **** #include "lvgl.h"
   6:home_screen.c **** #include "home_screen.h"
   7:home_screen.c **** #include "slider_activity.h"
   8:home_screen.c **** #include "math.h"
   9:home_screen.c **** #include "string.h"
  10:home_screen.c **** 
  11:home_screen.c **** #define RAM_READ_SIZE       (2048)  //the size of the buffer holding incoming samples
  12:home_screen.c **** #define RAM_READ_SPLIT      (1024)  //Ram_read_size divided by 2
  13:home_screen.c **** 
  14:home_screen.c **** const uint8_t tcnj_blue[] = { 41, 63, 111 };
  15:home_screen.c **** const uint8_t tcnj_gold[] = { 166, 122, 0 };
  16:home_screen.c **** const uint display_leftAlign = 20; 
  17:home_screen.c **** 
  18:home_screen.c **** static lv_obj_t * offsetLabel;
  19:home_screen.c **** static lv_obj_t * triggerLabel;
  20:home_screen.c **** static lv_obj_t * horiLabel1;
  21:home_screen.c **** static lv_obj_t * vertLabel1;
  22:home_screen.c **** 
  23:home_screen.c **** int startup = 0;
  24:home_screen.c **** 
  25:home_screen.c **** //function that builds the chart
  26:home_screen.c **** void chart_actions()
  27:home_screen.c **** {    
 369              		.loc 6 27 0
 370              		.cfi_startproc
 371              		@ args = 0, pretend = 0, frame = 56
 372              		@ frame_needed = 1, uses_anonymous_args = 0
 373 0000 90B5     		push	{r4, r7, lr}
ARM GAS  C:\Users\tmj32\AppData\Local\Temp\cc1nbtVP.s 			page 25


 374              		.cfi_def_cfa_offset 12
 375              		.cfi_offset 4, -12
 376              		.cfi_offset 7, -8
 377              		.cfi_offset 14, -4
 378 0002 8FB0     		sub	sp, sp, #60
 379              		.cfi_def_cfa_offset 72
 380 0004 00AF     		add	r7, sp, #0
 381              		.cfi_def_cfa_register 7
  28:home_screen.c ****     const int chart_width = 280;
 382              		.loc 6 28 0
 383 0006 4FF48C73 		mov	r3, #280
 384 000a 7B62     		str	r3, [r7, #36]
  29:home_screen.c ****     const int chart_heigth = 200;
 385              		.loc 6 29 0
 386 000c C823     		movs	r3, #200
 387 000e 3B62     		str	r3, [r7, #32]
  30:home_screen.c ****     
  31:home_screen.c ****     int windowSize;
  32:home_screen.c ****     
  33:home_screen.c ****     static lv_obj_t *chart1;        //declaring the chart
  34:home_screen.c ****     if(startup == 1){
 388              		.loc 6 34 0
 389 0010 A34B     		ldr	r3, .L34+8
 390 0012 1B68     		ldr	r3, [r3]
 391 0014 012B     		cmp	r3, #1
 392 0016 04D1     		bne	.L13
  35:home_screen.c ****         lv_obj_del(chart1);
 393              		.loc 6 35 0
 394 0018 A24B     		ldr	r3, .L34+12
 395 001a 1B68     		ldr	r3, [r3]
 396 001c 1846     		mov	r0, r3
 397 001e FFF7FEFF 		bl	lv_obj_del
 398              	.L13:
  36:home_screen.c ****     }   
  37:home_screen.c ****     
  38:home_screen.c ****     /* Display chart                         */        
  39:home_screen.c ****     chart1 = lv_chart_create(lv_scr_act(), NULL);                     //Add a chart to the current 
 399              		.loc 6 39 0
 400 0022 FFF7FEFF 		bl	lv_scr_act
 401 0026 0346     		mov	r3, r0
 402 0028 0021     		movs	r1, #0
 403 002a 1846     		mov	r0, r3
 404 002c FFF7FEFF 		bl	lv_chart_create
 405 0030 0246     		mov	r2, r0
 406 0032 9C4B     		ldr	r3, .L34+12
 407 0034 1A60     		str	r2, [r3]
  40:home_screen.c ****     lv_obj_set_pos(chart1, display_leftAlign, 50); 
 408              		.loc 6 40 0
 409 0036 9B4B     		ldr	r3, .L34+12
 410 0038 1B68     		ldr	r3, [r3]
 411 003a 1422     		movs	r2, #20
 412 003c 11B2     		sxth	r1, r2
 413 003e 3222     		movs	r2, #50
 414 0040 1846     		mov	r0, r3
 415 0042 FFF7FEFF 		bl	lv_obj_set_pos
  41:home_screen.c ****     lv_obj_set_size(chart1, chart_width, chart_heigth);               /*Set its size*/ 
 416              		.loc 6 41 0
ARM GAS  C:\Users\tmj32\AppData\Local\Temp\cc1nbtVP.s 			page 26


 417 0046 974B     		ldr	r3, .L34+12
 418 0048 1B68     		ldr	r3, [r3]
 419 004a 7A6A     		ldr	r2, [r7, #36]
 420 004c 11B2     		sxth	r1, r2
 421 004e 3A6A     		ldr	r2, [r7, #32]
 422 0050 12B2     		sxth	r2, r2
 423 0052 1846     		mov	r0, r3
 424 0054 FFF7FEFF 		bl	lv_obj_set_size
  42:home_screen.c ****     
  43:home_screen.c ****     //sets the grid lines, hori, verti
  44:home_screen.c ****     lv_chart_set_div_line_count(chart1, 7, 5);
 425              		.loc 6 44 0
 426 0058 924B     		ldr	r3, .L34+12
 427 005a 1B68     		ldr	r3, [r3]
 428 005c 0522     		movs	r2, #5
 429 005e 0721     		movs	r1, #7
 430 0060 1846     		mov	r0, r3
 431 0062 FFF7FEFF 		bl	lv_chart_set_div_line_count
  45:home_screen.c ****     
  46:home_screen.c ****     //determine the vertical limits of the chart
  47:home_screen.c ****     switch(cm4.VertScale){
 432              		.loc 6 47 0
 433 0066 904B     		ldr	r3, .L34+16
 434 0068 5B7D     		ldrb	r3, [r3, #21]	@ zero_extendqisi2
 435 006a 033B     		subs	r3, r3, #3
 436 006c 042B     		cmp	r3, #4
 437 006e 3DD8     		bhi	.L14
 438 0070 01A2     		adr	r2, .L16
 439 0072 52F823F0 		ldr	pc, [r2, r3, lsl #2]
 440 0076 00BF     		.p2align 2
 441              	.L16:
 442 0078 8D000000 		.word	.L15+1
 443 007c A1000000 		.word	.L17+1
 444 0080 B5000000 		.word	.L18+1
 445 0084 C9000000 		.word	.L19+1
 446 0088 DB000000 		.word	.L20+1
 447              		.p2align 1
 448              	.L15:
  48:home_screen.c ****         case 3 :
  49:home_screen.c ****             lv_chart_set_range(chart1, 475, 525);
 449              		.loc 6 49 0
 450 008c 854B     		ldr	r3, .L34+12
 451 008e 1B68     		ldr	r3, [r3]
 452 0090 40F20D22 		movw	r2, #525
 453 0094 40F2DB11 		movw	r1, #475
 454 0098 1846     		mov	r0, r3
 455 009a FFF7FEFF 		bl	lv_chart_set_range
  50:home_screen.c ****             break;
 456              		.loc 6 50 0
 457 009e 2DE0     		b	.L21
 458              	.L17:
  51:home_screen.c ****         case 4 :
  52:home_screen.c ****             lv_chart_set_range(chart1, 450, 550);
 459              		.loc 6 52 0
 460 00a0 804B     		ldr	r3, .L34+12
 461 00a2 1B68     		ldr	r3, [r3]
 462 00a4 40F22622 		movw	r2, #550
ARM GAS  C:\Users\tmj32\AppData\Local\Temp\cc1nbtVP.s 			page 27


 463 00a8 4FF4E171 		mov	r1, #450
 464 00ac 1846     		mov	r0, r3
 465 00ae FFF7FEFF 		bl	lv_chart_set_range
  53:home_screen.c ****             break;
 466              		.loc 6 53 0
 467 00b2 23E0     		b	.L21
 468              	.L18:
  54:home_screen.c ****         case 5 :
  55:home_screen.c ****             lv_chart_set_range(chart1, 375, 625);
 469              		.loc 6 55 0
 470 00b4 7B4B     		ldr	r3, .L34+12
 471 00b6 1B68     		ldr	r3, [r3]
 472 00b8 40F27122 		movw	r2, #625
 473 00bc 40F27711 		movw	r1, #375
 474 00c0 1846     		mov	r0, r3
 475 00c2 FFF7FEFF 		bl	lv_chart_set_range
  56:home_screen.c ****             break;
 476              		.loc 6 56 0
 477 00c6 19E0     		b	.L21
 478              	.L19:
  57:home_screen.c ****         case 6 :
  58:home_screen.c ****             lv_chart_set_range(chart1, 250, 750);
 479              		.loc 6 58 0
 480 00c8 764B     		ldr	r3, .L34+12
 481 00ca 1B68     		ldr	r3, [r3]
 482 00cc 40F2EE22 		movw	r2, #750
 483 00d0 FA21     		movs	r1, #250
 484 00d2 1846     		mov	r0, r3
 485 00d4 FFF7FEFF 		bl	lv_chart_set_range
  59:home_screen.c ****             break;
 486              		.loc 6 59 0
 487 00d8 10E0     		b	.L21
 488              	.L20:
  60:home_screen.c ****         case 7 :
  61:home_screen.c ****             lv_chart_set_range(chart1, 0, 1000);
 489              		.loc 6 61 0
 490 00da 724B     		ldr	r3, .L34+12
 491 00dc 1B68     		ldr	r3, [r3]
 492 00de 4FF47A72 		mov	r2, #1000
 493 00e2 0021     		movs	r1, #0
 494 00e4 1846     		mov	r0, r3
 495 00e6 FFF7FEFF 		bl	lv_chart_set_range
  62:home_screen.c ****             break;
 496              		.loc 6 62 0
 497 00ea 07E0     		b	.L21
 498              	.L14:
  63:home_screen.c ****         default:
  64:home_screen.c ****             lv_chart_set_range(chart1, 0, 100);
 499              		.loc 6 64 0
 500 00ec 6D4B     		ldr	r3, .L34+12
 501 00ee 1B68     		ldr	r3, [r3]
 502 00f0 6422     		movs	r2, #100
 503 00f2 0021     		movs	r1, #0
 504 00f4 1846     		mov	r0, r3
 505 00f6 FFF7FEFF 		bl	lv_chart_set_range
  65:home_screen.c ****             break;
 506              		.loc 6 65 0
ARM GAS  C:\Users\tmj32\AppData\Local\Temp\cc1nbtVP.s 			page 28


 507 00fa 00BF     		nop
 508              	.L21:
  66:home_screen.c ****     }
  67:home_screen.c ****     
  68:home_screen.c ****     //determine horizontal limits of the chart 
  69:home_screen.c ****     switch(cm4.HoriScale){
 509              		.loc 6 69 0
 510 00fc 6A4B     		ldr	r3, .L34+16
 511 00fe 1B7D     		ldrb	r3, [r3, #20]	@ zero_extendqisi2
 512 0100 053B     		subs	r3, r3, #5
 513 0102 042B     		cmp	r3, #4
 514 0104 1ED8     		bhi	.L22
 515 0106 01A2     		adr	r2, .L24
 516 0108 52F823F0 		ldr	pc, [r2, r3, lsl #2]
 517              		.p2align 2
 518              	.L24:
 519 010c 21010000 		.word	.L23+1
 520 0110 27010000 		.word	.L25+1
 521 0114 2D010000 		.word	.L26+1
 522 0118 35010000 		.word	.L27+1
 523 011c 3D010000 		.word	.L28+1
 524              		.p2align 1
 525              	.L23:
  70:home_screen.c ****         case 5 :
  71:home_screen.c ****             windowSize = 100;
 526              		.loc 6 71 0
 527 0120 6423     		movs	r3, #100
 528 0122 7B63     		str	r3, [r7, #52]
  72:home_screen.c ****             break;
 529              		.loc 6 72 0
 530 0124 12E0     		b	.L29
 531              	.L25:
  73:home_screen.c ****         case 6 :
  74:home_screen.c ****             windowSize = 200;
 532              		.loc 6 74 0
 533 0126 C823     		movs	r3, #200
 534 0128 7B63     		str	r3, [r7, #52]
  75:home_screen.c ****             break;
 535              		.loc 6 75 0
 536 012a 0FE0     		b	.L29
 537              	.L26:
  76:home_screen.c ****         case 7 :
  77:home_screen.c ****             windowSize = 500;
 538              		.loc 6 77 0
 539 012c 4FF4FA73 		mov	r3, #500
 540 0130 7B63     		str	r3, [r7, #52]
  78:home_screen.c ****             break;
 541              		.loc 6 78 0
 542 0132 0BE0     		b	.L29
 543              	.L27:
  79:home_screen.c ****         case 8 :
  80:home_screen.c ****             windowSize = 1000;
 544              		.loc 6 80 0
 545 0134 4FF47A73 		mov	r3, #1000
 546 0138 7B63     		str	r3, [r7, #52]
  81:home_screen.c ****             break;
 547              		.loc 6 81 0
ARM GAS  C:\Users\tmj32\AppData\Local\Temp\cc1nbtVP.s 			page 29


 548 013a 07E0     		b	.L29
 549              	.L28:
  82:home_screen.c ****         case 9 :
  83:home_screen.c ****             windowSize = 2000;
 550              		.loc 6 83 0
 551 013c 4FF4FA63 		mov	r3, #2000
 552 0140 7B63     		str	r3, [r7, #52]
  84:home_screen.c ****             break;
 553              		.loc 6 84 0
 554 0142 03E0     		b	.L29
 555              	.L22:
  85:home_screen.c ****         default:
  86:home_screen.c ****             windowSize = 500;
 556              		.loc 6 86 0
 557 0144 4FF4FA73 		mov	r3, #500
 558 0148 7B63     		str	r3, [r7, #52]
  87:home_screen.c ****             break;
 559              		.loc 6 87 0
 560 014a 00BF     		nop
 561              	.L29:
  88:home_screen.c ****     }    
  89:home_screen.c ****     lv_chart_set_point_count(chart1, windowSize);                  //setting the number of points o
 562              		.loc 6 89 0
 563 014c 554B     		ldr	r3, .L34+12
 564 014e 1B68     		ldr	r3, [r3]
 565 0150 7A6B     		ldr	r2, [r7, #52]
 566 0152 92B2     		uxth	r2, r2
 567 0154 1146     		mov	r1, r2
 568 0156 1846     		mov	r0, r3
 569 0158 FFF7FEFF 		bl	lv_chart_set_point_count
  90:home_screen.c ****     lv_chart_set_type(chart1, LV_CHART_TYPE_LINE);                    //set graph to points, as opp
 570              		.loc 6 90 0
 571 015c 514B     		ldr	r3, .L34+12
 572 015e 1B68     		ldr	r3, [r3]
 573 0160 0121     		movs	r1, #1
 574 0162 1846     		mov	r0, r3
 575 0164 FFF7FEFF 		bl	lv_chart_set_type
  91:home_screen.c ****     
  92:home_screen.c ****     //Add series to the chart
  93:home_screen.c ****     lv_chart_series_t * s1 = lv_chart_add_series(chart1, lv_color_hex(0x01a2b1));
 576              		.loc 6 93 0
 577 0168 4E4B     		ldr	r3, .L34+12
 578 016a 1C68     		ldr	r4, [r3]
 579 016c 4F48     		ldr	r0, .L34+20
 580 016e FFF7FEFF 		bl	lv_color_hex
 581 0172 0346     		mov	r3, r0
 582 0174 1946     		mov	r1, r3
 583 0176 2046     		mov	r0, r4
 584 0178 FFF7FEFF 		bl	lv_chart_add_series
 585 017c F861     		str	r0, [r7, #28]
  94:home_screen.c ****     lv_chart_series_t * s2 = lv_chart_add_series(chart1, lv_color_hex(0xCC));
 586              		.loc 6 94 0
 587 017e 494B     		ldr	r3, .L34+12
 588 0180 1C68     		ldr	r4, [r3]
 589 0182 CC20     		movs	r0, #204
 590 0184 FFF7FEFF 		bl	lv_color_hex
 591 0188 0346     		mov	r3, r0
ARM GAS  C:\Users\tmj32\AppData\Local\Temp\cc1nbtVP.s 			page 30


 592 018a 1946     		mov	r1, r3
 593 018c 2046     		mov	r0, r4
 594 018e FFF7FEFF 		bl	lv_chart_add_series
 595 0192 B861     		str	r0, [r7, #24]
  95:home_screen.c ****     
  96:home_screen.c ****     lv_chart_clear_serie(chart1, s1);
 596              		.loc 6 96 0
 597 0194 434B     		ldr	r3, .L34+12
 598 0196 1B68     		ldr	r3, [r3]
 599 0198 F969     		ldr	r1, [r7, #28]
 600 019a 1846     		mov	r0, r3
 601 019c FFF7FEFF 		bl	lv_chart_clear_serie
  97:home_screen.c ****     lv_chart_clear_serie(chart1, s2);
 602              		.loc 6 97 0
 603 01a0 404B     		ldr	r3, .L34+12
 604 01a2 1B68     		ldr	r3, [r3]
 605 01a4 B969     		ldr	r1, [r7, #24]
 606 01a6 1846     		mov	r0, r3
 607 01a8 FFF7FEFF 		bl	lv_chart_clear_serie
  98:home_screen.c ****     lv_chart_refresh(chart1);
 608              		.loc 6 98 0
 609 01ac 3D4B     		ldr	r3, .L34+12
 610 01ae 1B68     		ldr	r3, [r3]
 611 01b0 1846     		mov	r0, r3
 612 01b2 FFF7FEFF 		bl	lv_chart_refresh
  99:home_screen.c ****     
 100:home_screen.c ****     // Need to calculate the desired indexes in RxBuffer, Based on HoriScale => window size
 101:home_screen.c ****     int bufferFirst = cm4.windowPos - windowSize/2;
 613              		.loc 6 101 0
 614 01b6 3C4B     		ldr	r3, .L34+16
 615 01b8 1A69     		ldr	r2, [r3, #16]
 616 01ba 7B6B     		ldr	r3, [r7, #52]
 617 01bc D90F     		lsrs	r1, r3, #31
 618 01be 0B44     		add	r3, r3, r1
 619 01c0 5B10     		asrs	r3, r3, #1
 620 01c2 D31A     		subs	r3, r2, r3
 621 01c4 3B63     		str	r3, [r7, #48]
 102:home_screen.c ****     int bufferLast = cm4.windowPos + windowSize/2;
 622              		.loc 6 102 0
 623 01c6 384B     		ldr	r3, .L34+16
 624 01c8 1A69     		ldr	r2, [r3, #16]
 625 01ca 7B6B     		ldr	r3, [r7, #52]
 626 01cc D90F     		lsrs	r1, r3, #31
 627 01ce 0B44     		add	r3, r3, r1
 628 01d0 5B10     		asrs	r3, r3, #1
 629 01d2 1344     		add	r3, r3, r2
 630 01d4 FB62     		str	r3, [r7, #44]
 103:home_screen.c ****     
 104:home_screen.c ****     //handle negative edge cases
 105:home_screen.c ****     if(bufferFirst < 0){
 631              		.loc 6 105 0
 632 01d6 3B6B     		ldr	r3, [r7, #48]
 633 01d8 002B     		cmp	r3, #0
 634 01da 03DA     		bge	.L30
 106:home_screen.c ****         bufferLast = windowSize;
 635              		.loc 6 106 0
 636 01dc 7B6B     		ldr	r3, [r7, #52]
ARM GAS  C:\Users\tmj32\AppData\Local\Temp\cc1nbtVP.s 			page 31


 637 01de FB62     		str	r3, [r7, #44]
 107:home_screen.c ****         bufferFirst = 0;
 638              		.loc 6 107 0
 639 01e0 0023     		movs	r3, #0
 640 01e2 3B63     		str	r3, [r7, #48]
 641              	.L30:
 108:home_screen.c ****     }
 109:home_screen.c ****     
 110:home_screen.c ****     //handle overflow edge cases
 111:home_screen.c ****     if(bufferLast > RAM_READ_SIZE){
 642              		.loc 6 111 0
 643 01e4 FB6A     		ldr	r3, [r7, #44]
 644 01e6 B3F5006F 		cmp	r3, #2048
 645 01ea 06DD     		ble	.L31
 112:home_screen.c ****         bufferFirst = RAM_READ_SIZE - windowSize;
 646              		.loc 6 112 0
 647 01ec 7B6B     		ldr	r3, [r7, #52]
 648 01ee C3F50063 		rsb	r3, r3, #2048
 649 01f2 3B63     		str	r3, [r7, #48]
 113:home_screen.c ****         bufferLast = RAM_READ_SIZE;
 650              		.loc 6 113 0
 651 01f4 4FF40063 		mov	r3, #2048
 652 01f8 FB62     		str	r3, [r7, #44]
 653              	.L31:
 114:home_screen.c ****     }    
 115:home_screen.c **** 
 116:home_screen.c ****     double voltage = 0; //convert the code from brian to voltage using:
 654              		.loc 6 116 0
 655 01fa 4FF00003 		mov	r3, #0
 656 01fe 4FF00004 		mov	r4, #0
 657 0202 C7E90434 		strd	r3, [r7, #16]
 117:home_screen.c ****     //FUNCTION: voltage = ((code*0.5)/128)+1.45
 118:home_screen.c ****     double triggerLine = 0;
 658              		.loc 6 118 0
 659 0206 4FF00003 		mov	r3, #0
 660 020a 4FF00004 		mov	r4, #0
 661 020e C7E90234 		strd	r3, [r7, #8]
 119:home_screen.c ****     
 120:home_screen.c ****     double triggerTemp = cm4.Trigger/100;
 662              		.loc 6 120 0
 663 0212 254B     		ldr	r3, .L34+16
 664 0214 9B88     		ldrh	r3, [r3, #4]
 665 0216 264A     		ldr	r2, .L34+24
 666 0218 A2FB0323 		umull	r2, r3, r2, r3
 667 021c 5B09     		lsrs	r3, r3, #5
 668 021e 9BB2     		uxth	r3, r3
 669 0220 1846     		mov	r0, r3
 670 0222 FFF7FEFF 		bl	__aeabi_i2d
 671 0226 0346     		mov	r3, r0
 672 0228 0C46     		mov	r4, r1
 673 022a C7E90034 		strd	r3, [r7]
 121:home_screen.c ****     cm4.signedTriggerCode = round((((triggerTemp-1.45)/0.5)*128)); //convert the voltage from trigg
 674              		.loc 6 121 0
 675 022e 1AA3     		adr	r3, .L34
 676 0230 D3E90023 		ldrd	r2, [r3]
 677 0234 D7E90001 		ldrd	r0, [r7]
 678 0238 FFF7FEFF 		bl	__aeabi_dsub
ARM GAS  C:\Users\tmj32\AppData\Local\Temp\cc1nbtVP.s 			page 32


 679 023c 0346     		mov	r3, r0
 680 023e 0C46     		mov	r4, r1
 681 0240 1846     		mov	r0, r3
 682 0242 2146     		mov	r1, r4
 683 0244 4FF00002 		mov	r2, #0
 684 0248 1A4B     		ldr	r3, .L34+28
 685 024a FFF7FEFF 		bl	__aeabi_ddiv
 686 024e 0346     		mov	r3, r0
 687 0250 0C46     		mov	r4, r1
 688 0252 1846     		mov	r0, r3
 689 0254 2146     		mov	r1, r4
 690 0256 4FF00002 		mov	r2, #0
 691 025a 174B     		ldr	r3, .L34+32
 692 025c FFF7FEFF 		bl	__aeabi_dmul
 693 0260 0346     		mov	r3, r0
 694 0262 0C46     		mov	r4, r1
 695 0264 1846     		mov	r0, r3
 696 0266 2146     		mov	r1, r4
 697 0268 FFF7FEFF 		bl	round
 698 026c 0346     		mov	r3, r0
 699 026e 0C46     		mov	r4, r1
 700 0270 1846     		mov	r0, r3
 701 0272 2146     		mov	r1, r4
 702 0274 FFF7FEFF 		bl	__aeabi_d2iz
 703 0278 0346     		mov	r3, r0
 704 027a 5AB2     		sxtb	r2, r3
 705 027c 0A4B     		ldr	r3, .L34+16
 706 027e 1A72     		strb	r2, [r3, #8]
 122:home_screen.c ****     cm4.TriggerCode = 0b00000000 | cm4.signedTriggerCode;
 707              		.loc 6 122 0
 708 0280 094B     		ldr	r3, .L34+16
 709 0282 93F90830 		ldrsb	r3, [r3, #8]
 710 0286 DAB2     		uxtb	r2, r3
 711 0288 074B     		ldr	r3, .L34+16
 712 028a DA71     		strb	r2, [r3, #7]
 713              	.LBB2:
 123:home_screen.c ****     //FUNCTION: triggerCode = ((voltage -1.45)/0.5)*128
 124:home_screen.c **** 
 125:home_screen.c ****     //draw the series
 126:home_screen.c ****     for(int i = bufferFirst; i < bufferLast; ++i){
 714              		.loc 6 126 0
 715 028c 3B6B     		ldr	r3, [r7, #48]
 716 028e BB62     		str	r3, [r7, #40]
 717 0290 94E0     		b	.L32
 718              	.L35:
 719 0292 00BFAFF3 		.align	3
 719      0080
 720              	.L34:
 721 0298 33333333 		.word	858993459
 722 029c 3333F73F 		.word	1073165107
 723 02a0 00000000 		.word	startup
 724 02a4 14000000 		.word	chart1.20848
 725 02a8 00000000 		.word	cm4
 726 02ac B1A20100 		.word	107185
 727 02b0 1F85EB51 		.word	1374389535
 728 02b4 0000E03F 		.word	1071644672
 729 02b8 00006040 		.word	1080033280
ARM GAS  C:\Users\tmj32\AppData\Local\Temp\cc1nbtVP.s 			page 33


 730              	.L33:
 127:home_screen.c ****         /*        |------code to voltage equation-------|* show decimals| */
 128:home_screen.c ****         voltage = (((cm4.RamReadBuffer[i]*0.5)/128)+1.45)*100;
 731              		.loc 6 128 0 discriminator 3
 732 02bc 4A4A     		ldr	r2, .L36+16
 733 02be BB6A     		ldr	r3, [r7, #40]
 734 02c0 1344     		add	r3, r3, r2
 735 02c2 6833     		adds	r3, r3, #104
 736 02c4 93F90030 		ldrsb	r3, [r3]
 737 02c8 1846     		mov	r0, r3
 738 02ca FFF7FEFF 		bl	__aeabi_i2d
 739 02ce 4FF00002 		mov	r2, #0
 740 02d2 464B     		ldr	r3, .L36+20
 741 02d4 FFF7FEFF 		bl	__aeabi_dmul
 742 02d8 0346     		mov	r3, r0
 743 02da 0C46     		mov	r4, r1
 744 02dc 1846     		mov	r0, r3
 745 02de 2146     		mov	r1, r4
 746 02e0 4FF00002 		mov	r2, #0
 747 02e4 424B     		ldr	r3, .L36+24
 748 02e6 FFF7FEFF 		bl	__aeabi_ddiv
 749 02ea 0346     		mov	r3, r0
 750 02ec 0C46     		mov	r4, r1
 751 02ee 1846     		mov	r0, r3
 752 02f0 2146     		mov	r1, r4
 753 02f2 39A3     		adr	r3, .L36
 754 02f4 D3E90023 		ldrd	r2, [r3]
 755 02f8 FFF7FEFF 		bl	__aeabi_dadd
 756 02fc 0346     		mov	r3, r0
 757 02fe 0C46     		mov	r4, r1
 758 0300 1846     		mov	r0, r3
 759 0302 2146     		mov	r1, r4
 760 0304 4FF00002 		mov	r2, #0
 761 0308 3A4B     		ldr	r3, .L36+28
 762 030a FFF7FEFF 		bl	__aeabi_dmul
 763 030e 0346     		mov	r3, r0
 764 0310 0C46     		mov	r4, r1
 765 0312 C7E90434 		strd	r3, [r7, #16]
 129:home_screen.c ****         
 130:home_screen.c ****         /*       |orginal|+|user offset|+|internal offset to account for negatives|*/
 131:home_screen.c ****         voltage = voltage + cm4.Offset/15 + 355;
 766              		.loc 6 131 0 discriminator 3
 767 0316 344B     		ldr	r3, .L36+16
 768 0318 B3F90E30 		ldrsh	r3, [r3, #14]
 769 031c 364A     		ldr	r2, .L36+32
 770 031e 82FB0312 		smull	r1, r2, r2, r3
 771 0322 1A44     		add	r2, r2, r3
 772 0324 D210     		asrs	r2, r2, #3
 773 0326 DB17     		asrs	r3, r3, #31
 774 0328 D31A     		subs	r3, r2, r3
 775 032a 1BB2     		sxth	r3, r3
 776 032c 1846     		mov	r0, r3
 777 032e FFF7FEFF 		bl	__aeabi_i2d
 778 0332 D7E90423 		ldrd	r2, [r7, #16]
 779 0336 FFF7FEFF 		bl	__aeabi_dadd
 780 033a 0346     		mov	r3, r0
 781 033c 0C46     		mov	r4, r1
ARM GAS  C:\Users\tmj32\AppData\Local\Temp\cc1nbtVP.s 			page 34


 782 033e 1846     		mov	r0, r3
 783 0340 2146     		mov	r1, r4
 784 0342 27A3     		adr	r3, .L36+8
 785 0344 D3E90023 		ldrd	r2, [r3]
 786 0348 FFF7FEFF 		bl	__aeabi_dadd
 787 034c 0346     		mov	r3, r0
 788 034e 0C46     		mov	r4, r1
 789 0350 C7E90434 		strd	r3, [r7, #16]
 132:home_screen.c ****         triggerLine = cm4.Trigger + 355 + cm4.Offset/15;
 790              		.loc 6 132 0 discriminator 3
 791 0354 244B     		ldr	r3, .L36+16
 792 0356 9B88     		ldrh	r3, [r3, #4]
 793 0358 03F26312 		addw	r2, r3, #355
 794 035c 224B     		ldr	r3, .L36+16
 795 035e B3F90E30 		ldrsh	r3, [r3, #14]
 796 0362 2549     		ldr	r1, .L36+32
 797 0364 81FB0301 		smull	r0, r1, r1, r3
 798 0368 1944     		add	r1, r1, r3
 799 036a C910     		asrs	r1, r1, #3
 800 036c DB17     		asrs	r3, r3, #31
 801 036e CB1A     		subs	r3, r1, r3
 802 0370 1BB2     		sxth	r3, r3
 803 0372 1344     		add	r3, r3, r2
 804 0374 1846     		mov	r0, r3
 805 0376 FFF7FEFF 		bl	__aeabi_i2d
 806 037a 0346     		mov	r3, r0
 807 037c 0C46     		mov	r4, r1
 808 037e C7E90234 		strd	r3, [r7, #8]
 133:home_screen.c ****         
 134:home_screen.c ****         lv_chart_set_next(chart1, s1, voltage);
 809              		.loc 6 134 0 discriminator 3
 810 0382 1E4B     		ldr	r3, .L36+36
 811 0384 1C68     		ldr	r4, [r3]
 812 0386 D7E90401 		ldrd	r0, [r7, #16]
 813 038a FFF7FEFF 		bl	__aeabi_d2iz
 814 038e 0346     		mov	r3, r0
 815 0390 1BB2     		sxth	r3, r3
 816 0392 1A46     		mov	r2, r3
 817 0394 F969     		ldr	r1, [r7, #28]
 818 0396 2046     		mov	r0, r4
 819 0398 FFF7FEFF 		bl	lv_chart_set_next
 135:home_screen.c ****         lv_chart_set_next(chart1, s2, triggerLine);
 820              		.loc 6 135 0 discriminator 3
 821 039c 174B     		ldr	r3, .L36+36
 822 039e 1C68     		ldr	r4, [r3]
 823 03a0 D7E90201 		ldrd	r0, [r7, #8]
 824 03a4 FFF7FEFF 		bl	__aeabi_d2iz
 825 03a8 0346     		mov	r3, r0
 826 03aa 1BB2     		sxth	r3, r3
 827 03ac 1A46     		mov	r2, r3
 828 03ae B969     		ldr	r1, [r7, #24]
 829 03b0 2046     		mov	r0, r4
 830 03b2 FFF7FEFF 		bl	lv_chart_set_next
 126:home_screen.c ****         /*        |------code to voltage equation-------|* show decimals| */
 831              		.loc 6 126 0 discriminator 3
 832 03b6 BB6A     		ldr	r3, [r7, #40]
 833 03b8 0133     		adds	r3, r3, #1
ARM GAS  C:\Users\tmj32\AppData\Local\Temp\cc1nbtVP.s 			page 35


 834 03ba BB62     		str	r3, [r7, #40]
 835              	.L32:
 126:home_screen.c ****         /*        |------code to voltage equation-------|* show decimals| */
 836              		.loc 6 126 0 is_stmt 0 discriminator 1
 837 03bc BA6A     		ldr	r2, [r7, #40]
 838 03be FB6A     		ldr	r3, [r7, #44]
 839 03c0 9A42     		cmp	r2, r3
 840 03c2 FFF67BAF 		blt	.L33
 841              	.LBE2:
 136:home_screen.c ****     }   
 137:home_screen.c ****     startup = 1;
 842              		.loc 6 137 0 is_stmt 1
 843 03c6 0E4B     		ldr	r3, .L36+40
 844 03c8 0122     		movs	r2, #1
 845 03ca 1A60     		str	r2, [r3]
 138:home_screen.c **** }
 846              		.loc 6 138 0
 847 03cc 00BF     		nop
 848 03ce 3C37     		adds	r7, r7, #60
 849              		.cfi_def_cfa_offset 12
 850 03d0 BD46     		mov	sp, r7
 851              		.cfi_def_cfa_register 13
 852              		@ sp needed
 853 03d2 90BD     		pop	{r4, r7, pc}
 854              	.L37:
 855 03d4 AFF30080 		.align	3
 856              	.L36:
 857 03d8 33333333 		.word	858993459
 858 03dc 3333F73F 		.word	1073165107
 859 03e0 00000000 		.word	0
 860 03e4 00307640 		.word	1081487360
 861 03e8 00000000 		.word	cm4
 862 03ec 0000E03F 		.word	1071644672
 863 03f0 00006040 		.word	1080033280
 864 03f4 00005940 		.word	1079574528
 865 03f8 89888888 		.word	-2004318071
 866 03fc 14000000 		.word	chart1.20848
 867 0400 00000000 		.word	startup
 868              		.cfi_endproc
 869              	.LFE717:
 870              		.size	chart_actions, .-chart_actions
 871              		.section	.rodata
 872              		.align	2
 873              	.LC0:
 874 000c 52697369 		.ascii	"Rising\000"
 874      6E6700
 875 0013 00       		.align	2
 876              	.LC1:
 877 0014 46616C6C 		.ascii	"Falling\000"
 877      696E6700 
 878              		.align	2
 879              	.LC2:
 880 001c 54687265 		.ascii	"Threshold\000"
 880      73686F6C 
 880      6400
 881              		.section	.text.roller1_event,"ax",%progbits
 882              		.align	2
ARM GAS  C:\Users\tmj32\AppData\Local\Temp\cc1nbtVP.s 			page 36


 883              		.thumb
 884              		.thumb_func
 885              		.type	roller1_event, %function
 886              	roller1_event:
 887              	.LFB718:
 139:home_screen.c **** 
 140:home_screen.c **** //roller for trigger slope: rising, falling, threshold
 141:home_screen.c **** static void roller1_event(lv_obj_t * obj, lv_event_t event)
 142:home_screen.c **** {
 888              		.loc 6 142 0
 889              		.cfi_startproc
 890              		@ args = 0, pretend = 0, frame = 40
 891              		@ frame_needed = 1, uses_anonymous_args = 0
 892 0000 80B5     		push	{r7, lr}
 893              		.cfi_def_cfa_offset 8
 894              		.cfi_offset 7, -8
 895              		.cfi_offset 14, -4
 896 0002 8AB0     		sub	sp, sp, #40
 897              		.cfi_def_cfa_offset 48
 898 0004 00AF     		add	r7, sp, #0
 899              		.cfi_def_cfa_register 7
 900 0006 7860     		str	r0, [r7, #4]
 901 0008 0B46     		mov	r3, r1
 902 000a FB70     		strb	r3, [r7, #3]
 143:home_screen.c ****     if(event == (LV_EVENT_VALUE_CHANGED)) {
 903              		.loc 6 143 0
 904 000c FB78     		ldrb	r3, [r7, #3]	@ zero_extendqisi2
 905 000e 0E2B     		cmp	r3, #14
 906 0010 30D1     		bne	.L44
 907              	.LBB3:
 144:home_screen.c ****         char buf[32];
 145:home_screen.c ****         lv_roller_get_selected_str(obj, buf, sizeof(buf));
 908              		.loc 6 145 0
 909 0012 07F10803 		add	r3, r7, #8
 910 0016 2022     		movs	r2, #32
 911 0018 1946     		mov	r1, r3
 912 001a 7868     		ldr	r0, [r7, #4]
 913 001c FFF7FEFF 		bl	lv_roller_get_selected_str
 146:home_screen.c ****         
 147:home_screen.c ****         if(strcmp("Rising", buf) == 0){
 914              		.loc 6 147 0
 915 0020 07F10803 		add	r3, r7, #8
 916 0024 1946     		mov	r1, r3
 917 0026 1548     		ldr	r0, .L45
 918 0028 FFF7FEFF 		bl	strcmp
 919 002c 0346     		mov	r3, r0
 920 002e 002B     		cmp	r3, #0
 921 0030 03D1     		bne	.L40
 148:home_screen.c ****             cm4.TriggerSlope = 0b00000000;
 922              		.loc 6 148 0
 923 0032 134B     		ldr	r3, .L45+4
 924 0034 0022     		movs	r2, #0
 925 0036 5A72     		strb	r2, [r3, #9]
 926              	.LBE3:
 149:home_screen.c ****         }
 150:home_screen.c ****         else if(strcmp("Falling", buf) == 0){
 151:home_screen.c ****             cm4.TriggerSlope = 0b00000001;
ARM GAS  C:\Users\tmj32\AppData\Local\Temp\cc1nbtVP.s 			page 37


 152:home_screen.c ****         }
 153:home_screen.c ****         else if(strcmp("Threshold", buf) == 0){
 154:home_screen.c ****             cm4.TriggerSlope = 0b00000011;
 155:home_screen.c ****         }
 156:home_screen.c ****         else{
 157:home_screen.c ****             cm4.TriggerSlope = 0b00000000; //assume rising if there is an error
 158:home_screen.c ****         }
 159:home_screen.c ****     }
 160:home_screen.c **** }
 927              		.loc 6 160 0
 928 0038 1CE0     		b	.L44
 929              	.L40:
 930              	.LBB4:
 150:home_screen.c ****             cm4.TriggerSlope = 0b00000001;
 931              		.loc 6 150 0
 932 003a 07F10803 		add	r3, r7, #8
 933 003e 1946     		mov	r1, r3
 934 0040 1048     		ldr	r0, .L45+8
 935 0042 FFF7FEFF 		bl	strcmp
 936 0046 0346     		mov	r3, r0
 937 0048 002B     		cmp	r3, #0
 938 004a 03D1     		bne	.L42
 151:home_screen.c ****         }
 939              		.loc 6 151 0
 940 004c 0C4B     		ldr	r3, .L45+4
 941 004e 0122     		movs	r2, #1
 942 0050 5A72     		strb	r2, [r3, #9]
 943              	.LBE4:
 944              		.loc 6 160 0
 945 0052 0FE0     		b	.L44
 946              	.L42:
 947              	.LBB5:
 153:home_screen.c ****             cm4.TriggerSlope = 0b00000011;
 948              		.loc 6 153 0
 949 0054 07F10803 		add	r3, r7, #8
 950 0058 1946     		mov	r1, r3
 951 005a 0B48     		ldr	r0, .L45+12
 952 005c FFF7FEFF 		bl	strcmp
 953 0060 0346     		mov	r3, r0
 954 0062 002B     		cmp	r3, #0
 955 0064 03D1     		bne	.L43
 154:home_screen.c ****         }
 956              		.loc 6 154 0
 957 0066 064B     		ldr	r3, .L45+4
 958 0068 0322     		movs	r2, #3
 959 006a 5A72     		strb	r2, [r3, #9]
 960              	.LBE5:
 961              		.loc 6 160 0
 962 006c 02E0     		b	.L44
 963              	.L43:
 964              	.LBB6:
 157:home_screen.c ****         }
 965              		.loc 6 157 0
 966 006e 044B     		ldr	r3, .L45+4
 967 0070 0022     		movs	r2, #0
 968 0072 5A72     		strb	r2, [r3, #9]
 969              	.L44:
ARM GAS  C:\Users\tmj32\AppData\Local\Temp\cc1nbtVP.s 			page 38


 970              	.LBE6:
 971              		.loc 6 160 0
 972 0074 00BF     		nop
 973 0076 2837     		adds	r7, r7, #40
 974              		.cfi_def_cfa_offset 8
 975 0078 BD46     		mov	sp, r7
 976              		.cfi_def_cfa_register 13
 977              		@ sp needed
 978 007a 80BD     		pop	{r7, pc}
 979              	.L46:
 980              		.align	2
 981              	.L45:
 982 007c 0C000000 		.word	.LC0
 983 0080 00000000 		.word	cm4
 984 0084 14000000 		.word	.LC1
 985 0088 1C000000 		.word	.LC2
 986              		.cfi_endproc
 987              	.LFE718:
 988              		.size	roller1_event, .-roller1_event
 989              		.section	.rodata
 990 0026 0000     		.align	2
 991              	.LC3:
 992 0028 53696E67 		.ascii	"Single\000"
 992      6C6500
 993 002f 00       		.align	2
 994              	.LC4:
 995 0030 4175746F 		.ascii	"Auto\000"
 995      00
 996 0035 000000   		.align	2
 997              	.LC5:
 998 0038 4E6F726D 		.ascii	"Normal\000"
 998      616C00
 999              		.section	.text.roller2_event,"ax",%progbits
 1000              		.align	2
 1001              		.thumb
 1002              		.thumb_func
 1003              		.type	roller2_event, %function
 1004              	roller2_event:
 1005              	.LFB719:
 161:home_screen.c **** 
 162:home_screen.c **** //roller for trigger mode: single, auto, normal
 163:home_screen.c **** static void roller2_event(lv_obj_t * obj, lv_event_t event)
 164:home_screen.c **** {
 1006              		.loc 6 164 0
 1007              		.cfi_startproc
 1008              		@ args = 0, pretend = 0, frame = 40
 1009              		@ frame_needed = 1, uses_anonymous_args = 0
 1010 0000 80B5     		push	{r7, lr}
 1011              		.cfi_def_cfa_offset 8
 1012              		.cfi_offset 7, -8
 1013              		.cfi_offset 14, -4
 1014 0002 8AB0     		sub	sp, sp, #40
 1015              		.cfi_def_cfa_offset 48
 1016 0004 00AF     		add	r7, sp, #0
 1017              		.cfi_def_cfa_register 7
 1018 0006 7860     		str	r0, [r7, #4]
 1019 0008 0B46     		mov	r3, r1
ARM GAS  C:\Users\tmj32\AppData\Local\Temp\cc1nbtVP.s 			page 39


 1020 000a FB70     		strb	r3, [r7, #3]
 165:home_screen.c ****     if(event == (LV_EVENT_VALUE_CHANGED)) {
 1021              		.loc 6 165 0
 1022 000c FB78     		ldrb	r3, [r7, #3]	@ zero_extendqisi2
 1023 000e 0E2B     		cmp	r3, #14
 1024 0010 30D1     		bne	.L53
 1025              	.LBB7:
 166:home_screen.c ****         char buf[32];
 167:home_screen.c ****         lv_roller_get_selected_str(obj, buf, sizeof(buf));
 1026              		.loc 6 167 0
 1027 0012 07F10803 		add	r3, r7, #8
 1028 0016 2022     		movs	r2, #32
 1029 0018 1946     		mov	r1, r3
 1030 001a 7868     		ldr	r0, [r7, #4]
 1031 001c FFF7FEFF 		bl	lv_roller_get_selected_str
 168:home_screen.c ****         
 169:home_screen.c ****         //NOTE THAT THESE VALUES NEVER GET WRITEN TO THE SPI COMMAND BECAUSE ONLY SINGLE IS CURRENT
 170:home_screen.c ****         if(strcmp("Single", buf) == 0){
 1032              		.loc 6 170 0
 1033 0020 07F10803 		add	r3, r7, #8
 1034 0024 1946     		mov	r1, r3
 1035 0026 1548     		ldr	r0, .L54
 1036 0028 FFF7FEFF 		bl	strcmp
 1037 002c 0346     		mov	r3, r0
 1038 002e 002B     		cmp	r3, #0
 1039 0030 03D1     		bne	.L49
 171:home_screen.c ****             cm4.TriggerMode = 0b00000000;
 1040              		.loc 6 171 0
 1041 0032 134B     		ldr	r3, .L54+4
 1042 0034 0022     		movs	r2, #0
 1043 0036 9A71     		strb	r2, [r3, #6]
 1044              	.LBE7:
 172:home_screen.c ****         }
 173:home_screen.c ****         else if(strcmp("Auto", buf) == 0){
 174:home_screen.c ****             cm4.TriggerMode = 0b00000001;
 175:home_screen.c ****         }
 176:home_screen.c ****         else if(strcmp("Normal", buf) == 0){
 177:home_screen.c ****             cm4.TriggerMode = 0b00000011;
 178:home_screen.c ****         }
 179:home_screen.c ****         else{
 180:home_screen.c ****             cm4.TriggerMode = 0b00000000; //assume single if there is an error
 181:home_screen.c ****         }
 182:home_screen.c ****     }
 183:home_screen.c **** }
 1045              		.loc 6 183 0
 1046 0038 1CE0     		b	.L53
 1047              	.L49:
 1048              	.LBB8:
 173:home_screen.c ****             cm4.TriggerMode = 0b00000001;
 1049              		.loc 6 173 0
 1050 003a 07F10803 		add	r3, r7, #8
 1051 003e 1946     		mov	r1, r3
 1052 0040 1048     		ldr	r0, .L54+8
 1053 0042 FFF7FEFF 		bl	strcmp
 1054 0046 0346     		mov	r3, r0
 1055 0048 002B     		cmp	r3, #0
 1056 004a 03D1     		bne	.L51
ARM GAS  C:\Users\tmj32\AppData\Local\Temp\cc1nbtVP.s 			page 40


 174:home_screen.c ****         }
 1057              		.loc 6 174 0
 1058 004c 0C4B     		ldr	r3, .L54+4
 1059 004e 0122     		movs	r2, #1
 1060 0050 9A71     		strb	r2, [r3, #6]
 1061              	.LBE8:
 1062              		.loc 6 183 0
 1063 0052 0FE0     		b	.L53
 1064              	.L51:
 1065              	.LBB9:
 176:home_screen.c ****             cm4.TriggerMode = 0b00000011;
 1066              		.loc 6 176 0
 1067 0054 07F10803 		add	r3, r7, #8
 1068 0058 1946     		mov	r1, r3
 1069 005a 0B48     		ldr	r0, .L54+12
 1070 005c FFF7FEFF 		bl	strcmp
 1071 0060 0346     		mov	r3, r0
 1072 0062 002B     		cmp	r3, #0
 1073 0064 03D1     		bne	.L52
 177:home_screen.c ****         }
 1074              		.loc 6 177 0
 1075 0066 064B     		ldr	r3, .L54+4
 1076 0068 0322     		movs	r2, #3
 1077 006a 9A71     		strb	r2, [r3, #6]
 1078              	.LBE9:
 1079              		.loc 6 183 0
 1080 006c 02E0     		b	.L53
 1081              	.L52:
 1082              	.LBB10:
 180:home_screen.c ****         }
 1083              		.loc 6 180 0
 1084 006e 044B     		ldr	r3, .L54+4
 1085 0070 0022     		movs	r2, #0
 1086 0072 9A71     		strb	r2, [r3, #6]
 1087              	.L53:
 1088              	.LBE10:
 1089              		.loc 6 183 0
 1090 0074 00BF     		nop
 1091 0076 2837     		adds	r7, r7, #40
 1092              		.cfi_def_cfa_offset 8
 1093 0078 BD46     		mov	sp, r7
 1094              		.cfi_def_cfa_register 13
 1095              		@ sp needed
 1096 007a 80BD     		pop	{r7, pc}
 1097              	.L55:
 1098              		.align	2
 1099              	.L54:
 1100 007c 28000000 		.word	.LC3
 1101 0080 00000000 		.word	cm4
 1102 0084 30000000 		.word	.LC4
 1103 0088 38000000 		.word	.LC5
 1104              		.cfi_endproc
 1105              	.LFE719:
 1106              		.size	roller2_event, .-roller2_event
 1107              		.section	.text.sw_event_handler,"ax",%progbits
 1108              		.align	2
 1109              		.thumb
ARM GAS  C:\Users\tmj32\AppData\Local\Temp\cc1nbtVP.s 			page 41


 1110              		.thumb_func
 1111              		.type	sw_event_handler, %function
 1112              	sw_event_handler:
 1113              	.LFB720:
 184:home_screen.c **** 
 185:home_screen.c **** //switch for if the sweep should be armed or not
 186:home_screen.c **** static void sw_event_handler(lv_obj_t * obj, lv_event_t event)
 187:home_screen.c **** {
 1114              		.loc 6 187 0
 1115              		.cfi_startproc
 1116              		@ args = 0, pretend = 0, frame = 8
 1117              		@ frame_needed = 1, uses_anonymous_args = 0
 1118 0000 80B5     		push	{r7, lr}
 1119              		.cfi_def_cfa_offset 8
 1120              		.cfi_offset 7, -8
 1121              		.cfi_offset 14, -4
 1122 0002 82B0     		sub	sp, sp, #8
 1123              		.cfi_def_cfa_offset 16
 1124 0004 00AF     		add	r7, sp, #0
 1125              		.cfi_def_cfa_register 7
 1126 0006 7860     		str	r0, [r7, #4]
 1127 0008 0B46     		mov	r3, r1
 1128 000a FB70     		strb	r3, [r7, #3]
 188:home_screen.c ****     if(event == (LV_EVENT_VALUE_CHANGED)) {
 1129              		.loc 6 188 0
 1130 000c FB78     		ldrb	r3, [r7, #3]	@ zero_extendqisi2
 1131 000e 0E2B     		cmp	r3, #14
 1132 0010 06D1     		bne	.L58
 189:home_screen.c ****         //printf("State: %s\n", lv_sw_get_state(obj) ? "Run" : "Stop");
 190:home_screen.c ****         cm4.Armed = lv_sw_get_state(obj);
 1133              		.loc 6 190 0
 1134 0012 7868     		ldr	r0, [r7, #4]
 1135 0014 FFF7FEFF 		bl	lv_sw_get_state
 1136 0018 0346     		mov	r3, r0
 1137 001a 1A46     		mov	r2, r3
 1138 001c 024B     		ldr	r3, .L59
 1139 001e 1A73     		strb	r2, [r3, #12]
 1140              	.L58:
 191:home_screen.c ****         //cm4.Armed = !cm4.Armed;
 192:home_screen.c ****     }
 193:home_screen.c **** }
 1141              		.loc 6 193 0
 1142 0020 00BF     		nop
 1143 0022 0837     		adds	r7, r7, #8
 1144              		.cfi_def_cfa_offset 8
 1145 0024 BD46     		mov	sp, r7
 1146              		.cfi_def_cfa_register 13
 1147              		@ sp needed
 1148 0026 80BD     		pop	{r7, pc}
 1149              	.L60:
 1150              		.align	2
 1151              	.L59:
 1152 0028 00000000 		.word	cm4
 1153              		.cfi_endproc
 1154              	.LFE720:
 1155              		.size	sw_event_handler, .-sw_event_handler
 1156              		.section	.rodata
ARM GAS  C:\Users\tmj32\AppData\Local\Temp\cc1nbtVP.s 			page 42


 1157 003f 00       		.align	2
 1158              	.LC6:
 1159 0040 256400   		.ascii	"%d\000"
 1160              		.section	.text.offset_slider_event_cb,"ax",%progbits
 1161              		.align	2
 1162              		.thumb
 1163              		.thumb_func
 1164              		.type	offset_slider_event_cb, %function
 1165              	offset_slider_event_cb:
 1166              	.LFB721:
 194:home_screen.c **** 
 195:home_screen.c **** //NOTE: this function does not scale correctly
 196:home_screen.c **** static void offset_slider_event_cb(lv_obj_t * slider, lv_event_t event)
 197:home_screen.c **** {
 1167              		.loc 6 197 0
 1168              		.cfi_startproc
 1169              		@ args = 0, pretend = 0, frame = 8
 1170              		@ frame_needed = 1, uses_anonymous_args = 0
 1171 0000 80B5     		push	{r7, lr}
 1172              		.cfi_def_cfa_offset 8
 1173              		.cfi_offset 7, -8
 1174              		.cfi_offset 14, -4
 1175 0002 82B0     		sub	sp, sp, #8
 1176              		.cfi_def_cfa_offset 16
 1177 0004 00AF     		add	r7, sp, #0
 1178              		.cfi_def_cfa_register 7
 1179 0006 7860     		str	r0, [r7, #4]
 1180 0008 0B46     		mov	r3, r1
 1181 000a FB70     		strb	r3, [r7, #3]
 198:home_screen.c ****     if(event == (LV_EVENT_VALUE_CHANGED)) {
 1182              		.loc 6 198 0
 1183 000c FB78     		ldrb	r3, [r7, #3]	@ zero_extendqisi2
 1184 000e 0E2B     		cmp	r3, #14
 1185 0010 21D1     		bne	.L63
 1186              	.LBB11:
 199:home_screen.c ****         static char buf[8]; /* max 3 bytes for number plus 1 null terminating byte */
 200:home_screen.c ****         static char units[4] = "mV";
 201:home_screen.c ****         snprintf(buf, 8, "%d", lv_slider_get_value(slider)-1000);
 1187              		.loc 6 201 0
 1188 0012 7868     		ldr	r0, [r7, #4]
 1189 0014 FFF7FEFF 		bl	lv_slider_get_value
 1190 0018 0346     		mov	r3, r0
 1191 001a A3F57A73 		sub	r3, r3, #1000
 1192 001e 104A     		ldr	r2, .L64
 1193 0020 0821     		movs	r1, #8
 1194 0022 1048     		ldr	r0, .L64+4
 1195 0024 FFF7FEFF 		bl	snprintf
 202:home_screen.c ****         strcat(buf, units);
 1196              		.loc 6 202 0
 1197 0028 0F49     		ldr	r1, .L64+8
 1198 002a 0E48     		ldr	r0, .L64+4
 1199 002c FFF7FEFF 		bl	strcat
 203:home_screen.c ****         lv_label_set_text(offsetLabel, buf);
 1200              		.loc 6 203 0
 1201 0030 0E4B     		ldr	r3, .L64+12
 1202 0032 1B68     		ldr	r3, [r3]
 1203 0034 0B49     		ldr	r1, .L64+4
ARM GAS  C:\Users\tmj32\AppData\Local\Temp\cc1nbtVP.s 			page 43


 1204 0036 1846     		mov	r0, r3
 1205 0038 FFF7FEFF 		bl	lv_label_set_text
 204:home_screen.c ****         cm4.Offset = lv_slider_get_value(slider)-1000;
 1206              		.loc 6 204 0
 1207 003c 7868     		ldr	r0, [r7, #4]
 1208 003e FFF7FEFF 		bl	lv_slider_get_value
 1209 0042 0346     		mov	r3, r0
 1210 0044 9BB2     		uxth	r3, r3
 1211 0046 A3F57A73 		sub	r3, r3, #1000
 1212 004a 9BB2     		uxth	r3, r3
 1213 004c 1AB2     		sxth	r2, r3
 1214 004e 084B     		ldr	r3, .L64+16
 1215 0050 DA81     		strh	r2, [r3, #14]	@ movhi
 205:home_screen.c ****         chart_actions();    //call to update the chart
 1216              		.loc 6 205 0
 1217 0052 FFF7FEFF 		bl	chart_actions
 1218              	.L63:
 1219              	.LBE11:
 206:home_screen.c ****     }
 207:home_screen.c **** }
 1220              		.loc 6 207 0
 1221 0056 00BF     		nop
 1222 0058 0837     		adds	r7, r7, #8
 1223              		.cfi_def_cfa_offset 8
 1224 005a BD46     		mov	sp, r7
 1225              		.cfi_def_cfa_register 13
 1226              		@ sp needed
 1227 005c 80BD     		pop	{r7, pc}
 1228              	.L65:
 1229 005e 00BF     		.align	2
 1230              	.L64:
 1231 0060 40000000 		.word	.LC6
 1232 0064 18000000 		.word	buf.20892
 1233 0068 00000000 		.word	units.20893
 1234 006c 00000000 		.word	offsetLabel
 1235 0070 00000000 		.word	cm4
 1236              		.cfi_endproc
 1237              	.LFE721:
 1238              		.size	offset_slider_event_cb, .-offset_slider_event_cb
 1239              		.section	.rodata
 1240 0043 00       		.align	2
 1241              	.LC7:
 1242 0044 257500   		.ascii	"%u\000"
 1243              		.section	.text.trigger_slider_event_cb,"ax",%progbits
 1244              		.align	2
 1245              		.thumb
 1246              		.thumb_func
 1247              		.type	trigger_slider_event_cb, %function
 1248              	trigger_slider_event_cb:
 1249              	.LFB722:
 208:home_screen.c **** static void trigger_slider_event_cb(lv_obj_t * slider, lv_event_t event)
 209:home_screen.c **** {
 1250              		.loc 6 209 0
 1251              		.cfi_startproc
 1252              		@ args = 0, pretend = 0, frame = 8
 1253              		@ frame_needed = 1, uses_anonymous_args = 0
 1254 0000 80B5     		push	{r7, lr}
ARM GAS  C:\Users\tmj32\AppData\Local\Temp\cc1nbtVP.s 			page 44


 1255              		.cfi_def_cfa_offset 8
 1256              		.cfi_offset 7, -8
 1257              		.cfi_offset 14, -4
 1258 0002 82B0     		sub	sp, sp, #8
 1259              		.cfi_def_cfa_offset 16
 1260 0004 00AF     		add	r7, sp, #0
 1261              		.cfi_def_cfa_register 7
 1262 0006 7860     		str	r0, [r7, #4]
 1263 0008 0B46     		mov	r3, r1
 1264 000a FB70     		strb	r3, [r7, #3]
 210:home_screen.c ****     if(event == (LV_EVENT_VALUE_CHANGED)) {
 1265              		.loc 6 210 0
 1266 000c FB78     		ldrb	r3, [r7, #3]	@ zero_extendqisi2
 1267 000e 0E2B     		cmp	r3, #14
 1268 0010 22D1     		bne	.L68
 1269              	.LBB12:
 211:home_screen.c ****         static char buf[8]; /* max 3 bytes for number plus 1 null terminating byte */
 212:home_screen.c ****         static char units[4] = "mV";
 213:home_screen.c ****         snprintf(buf, 8, "%u", lv_slider_get_value(slider));
 1270              		.loc 6 213 0
 1271 0012 7868     		ldr	r0, [r7, #4]
 1272 0014 FFF7FEFF 		bl	lv_slider_get_value
 1273 0018 0346     		mov	r3, r0
 1274 001a 114A     		ldr	r2, .L69
 1275 001c 0821     		movs	r1, #8
 1276 001e 1148     		ldr	r0, .L69+4
 1277 0020 FFF7FEFF 		bl	snprintf
 214:home_screen.c ****         strcat(buf, units);
 1278              		.loc 6 214 0
 1279 0024 1049     		ldr	r1, .L69+8
 1280 0026 0F48     		ldr	r0, .L69+4
 1281 0028 FFF7FEFF 		bl	strcat
 215:home_screen.c ****         lv_label_set_text(triggerLabel, buf);
 1282              		.loc 6 215 0
 1283 002c 0F4B     		ldr	r3, .L69+12
 1284 002e 1B68     		ldr	r3, [r3]
 1285 0030 0C49     		ldr	r1, .L69+4
 1286 0032 1846     		mov	r0, r3
 1287 0034 FFF7FEFF 		bl	lv_label_set_text
 216:home_screen.c ****         cm4.Trigger = lv_slider_get_value(slider)/10; //scaled down for the chart
 1288              		.loc 6 216 0
 1289 0038 7868     		ldr	r0, [r7, #4]
 1290 003a FFF7FEFF 		bl	lv_slider_get_value
 1291 003e 0346     		mov	r3, r0
 1292 0040 0B4A     		ldr	r2, .L69+16
 1293 0042 82FB0312 		smull	r1, r2, r2, r3
 1294 0046 9210     		asrs	r2, r2, #2
 1295 0048 DB17     		asrs	r3, r3, #31
 1296 004a D31A     		subs	r3, r2, r3
 1297 004c 1BB2     		sxth	r3, r3
 1298 004e 9AB2     		uxth	r2, r3
 1299 0050 084B     		ldr	r3, .L69+20
 1300 0052 9A80     		strh	r2, [r3, #4]	@ movhi
 217:home_screen.c ****         chart_actions();    //call to update the chart
 1301              		.loc 6 217 0
 1302 0054 FFF7FEFF 		bl	chart_actions
 1303              	.L68:
ARM GAS  C:\Users\tmj32\AppData\Local\Temp\cc1nbtVP.s 			page 45


 1304              	.LBE12:
 218:home_screen.c ****     }
 219:home_screen.c **** }
 1305              		.loc 6 219 0
 1306 0058 00BF     		nop
 1307 005a 0837     		adds	r7, r7, #8
 1308              		.cfi_def_cfa_offset 8
 1309 005c BD46     		mov	sp, r7
 1310              		.cfi_def_cfa_register 13
 1311              		@ sp needed
 1312 005e 80BD     		pop	{r7, pc}
 1313              	.L70:
 1314              		.align	2
 1315              	.L69:
 1316 0060 44000000 		.word	.LC7
 1317 0064 20000000 		.word	buf.20898
 1318 0068 04000000 		.word	units.20899
 1319 006c 04000000 		.word	triggerLabel
 1320 0070 67666666 		.word	1717986919
 1321 0074 00000000 		.word	cm4
 1322              		.cfi_endproc
 1323              	.LFE722:
 1324              		.size	trigger_slider_event_cb, .-trigger_slider_event_cb
 1325              		.section	.rodata
 1326 0047 00       		.align	2
 1327              	.LC8:
 1328 0048 3130306D 		.ascii	"100mS\000"
 1328      5300
 1329 004e 0000     		.align	2
 1330              	.LC9:
 1331 0050 3230306D 		.ascii	"200mS\000"
 1331      5300
 1332 0056 0000     		.align	2
 1333              	.LC10:
 1334 0058 3530306D 		.ascii	"500mS\000"
 1334      5300
 1335 005e 0000     		.align	2
 1336              	.LC11:
 1337 0060 315300   		.ascii	"1S\000"
 1338 0063 00       		.align	2
 1339              	.LC12:
 1340 0064 325300   		.ascii	"2S\000"
 1341 0067 00       		.align	2
 1342              	.LC13:
 1343 0068 48656C6C 		.ascii	"Hello World\000"
 1343      6F20576F 
 1343      726C6400 
 1344              		.section	.text.hori_slider_event_cb,"ax",%progbits
 1345              		.align	2
 1346              		.thumb
 1347              		.thumb_func
 1348              		.type	hori_slider_event_cb, %function
 1349              	hori_slider_event_cb:
 1350              	.LFB723:
 220:home_screen.c **** static void hori_slider_event_cb(lv_obj_t * slider, lv_event_t event)
 221:home_screen.c **** {
 1351              		.loc 6 221 0
ARM GAS  C:\Users\tmj32\AppData\Local\Temp\cc1nbtVP.s 			page 46


 1352              		.cfi_startproc
 1353              		@ args = 0, pretend = 0, frame = 8
 1354              		@ frame_needed = 1, uses_anonymous_args = 0
 1355 0000 80B5     		push	{r7, lr}
 1356              		.cfi_def_cfa_offset 8
 1357              		.cfi_offset 7, -8
 1358              		.cfi_offset 14, -4
 1359 0002 82B0     		sub	sp, sp, #8
 1360              		.cfi_def_cfa_offset 16
 1361 0004 00AF     		add	r7, sp, #0
 1362              		.cfi_def_cfa_register 7
 1363 0006 7860     		str	r0, [r7, #4]
 1364 0008 0B46     		mov	r3, r1
 1365 000a FB70     		strb	r3, [r7, #3]
 222:home_screen.c ****     if(event == (LV_EVENT_VALUE_CHANGED)) {
 1366              		.loc 6 222 0
 1367 000c FB78     		ldrb	r3, [r7, #3]	@ zero_extendqisi2
 1368 000e 0E2B     		cmp	r3, #14
 1369 0010 50D1     		bne	.L81
 1370              	.LBB13:
 223:home_screen.c ****         static char buf[10]; /* max 3 bytes for number plus 1 null terminating byte */
 224:home_screen.c ****         //snprintf(buf, 10, "%u", lv_slider_get_value(slider));
 225:home_screen.c ****         //lv_label_set_text(horiLabel1, buf);
 226:home_screen.c ****         cm4.HoriScale = lv_slider_get_value(slider);
 1371              		.loc 6 226 0
 1372 0012 7868     		ldr	r0, [r7, #4]
 1373 0014 FFF7FEFF 		bl	lv_slider_get_value
 1374 0018 0346     		mov	r3, r0
 1375 001a DAB2     		uxtb	r2, r3
 1376 001c 274B     		ldr	r3, .L82
 1377 001e 1A75     		strb	r2, [r3, #20]
 227:home_screen.c ****         
 228:home_screen.c ****         switch(cm4.HoriScale){
 1378              		.loc 6 228 0
 1379 0020 264B     		ldr	r3, .L82
 1380 0022 1B7D     		ldrb	r3, [r3, #20]	@ zero_extendqisi2
 1381 0024 053B     		subs	r3, r3, #5
 1382 0026 042B     		cmp	r3, #4
 1383 0028 36D8     		bhi	.L73
 1384 002a 01A2     		adr	r2, .L75
 1385 002c 52F823F0 		ldr	pc, [r2, r3, lsl #2]
 1386              		.p2align 2
 1387              	.L75:
 1388 0030 45000000 		.word	.L74+1
 1389 0034 55000000 		.word	.L76+1
 1390 0038 65000000 		.word	.L77+1
 1391 003c 75000000 		.word	.L78+1
 1392 0040 87000000 		.word	.L79+1
 1393              		.p2align 1
 1394              	.L74:
 229:home_screen.c **** 
 230:home_screen.c ****             case 5 :
 231:home_screen.c ****                 snprintf(buf, 10, "100mS");
 1395              		.loc 6 231 0
 1396 0044 1E4B     		ldr	r3, .L82+4
 1397 0046 1F4A     		ldr	r2, .L82+8
 1398 0048 92E80300 		ldmia	r2, {r0, r1}
ARM GAS  C:\Users\tmj32\AppData\Local\Temp\cc1nbtVP.s 			page 47


 1399 004c 1860     		str	r0, [r3]
 1400 004e 0433     		adds	r3, r3, #4
 1401 0050 1980     		strh	r1, [r3]	@ movhi
 232:home_screen.c ****                 break;
 1402              		.loc 6 232 0
 1403 0052 27E0     		b	.L80
 1404              	.L76:
 233:home_screen.c ****             case 6 :
 234:home_screen.c ****                 snprintf(buf, 10, "200mS");
 1405              		.loc 6 234 0
 1406 0054 1A4B     		ldr	r3, .L82+4
 1407 0056 1C4A     		ldr	r2, .L82+12
 1408 0058 92E80300 		ldmia	r2, {r0, r1}
 1409 005c 1860     		str	r0, [r3]
 1410 005e 0433     		adds	r3, r3, #4
 1411 0060 1980     		strh	r1, [r3]	@ movhi
 235:home_screen.c ****                 break;
 1412              		.loc 6 235 0
 1413 0062 1FE0     		b	.L80
 1414              	.L77:
 236:home_screen.c ****             case 7 :
 237:home_screen.c ****                 snprintf(buf, 10, "500mS");
 1415              		.loc 6 237 0
 1416 0064 164B     		ldr	r3, .L82+4
 1417 0066 194A     		ldr	r2, .L82+16
 1418 0068 92E80300 		ldmia	r2, {r0, r1}
 1419 006c 1860     		str	r0, [r3]
 1420 006e 0433     		adds	r3, r3, #4
 1421 0070 1980     		strh	r1, [r3]	@ movhi
 238:home_screen.c ****                 break;            
 1422              		.loc 6 238 0
 1423 0072 17E0     		b	.L80
 1424              	.L78:
 239:home_screen.c ****             case 8 :
 240:home_screen.c ****                 snprintf(buf, 10, "1S");
 1425              		.loc 6 240 0
 1426 0074 124B     		ldr	r3, .L82+4
 1427 0076 164A     		ldr	r2, .L82+20
 1428 0078 1268     		ldr	r2, [r2]
 1429 007a 1146     		mov	r1, r2	@ movhi
 1430 007c 1980     		strh	r1, [r3]	@ movhi
 1431 007e 0233     		adds	r3, r3, #2
 1432 0080 120C     		lsrs	r2, r2, #16
 1433 0082 1A70     		strb	r2, [r3]
 241:home_screen.c ****                 break;
 1434              		.loc 6 241 0
 1435 0084 0EE0     		b	.L80
 1436              	.L79:
 242:home_screen.c ****             case 9 :
 243:home_screen.c ****                 snprintf(buf, 10, "2S");
 1437              		.loc 6 243 0
 1438 0086 0E4B     		ldr	r3, .L82+4
 1439 0088 124A     		ldr	r2, .L82+24
 1440 008a 1268     		ldr	r2, [r2]
 1441 008c 1146     		mov	r1, r2	@ movhi
 1442 008e 1980     		strh	r1, [r3]	@ movhi
 1443 0090 0233     		adds	r3, r3, #2
ARM GAS  C:\Users\tmj32\AppData\Local\Temp\cc1nbtVP.s 			page 48


 1444 0092 120C     		lsrs	r2, r2, #16
 1445 0094 1A70     		strb	r2, [r3]
 244:home_screen.c ****                 break;
 1446              		.loc 6 244 0
 1447 0096 05E0     		b	.L80
 1448              	.L73:
 245:home_screen.c ****             default:
 246:home_screen.c ****                 snprintf(buf, 10, "Hello World");
 1449              		.loc 6 246 0
 1450 0098 0F4A     		ldr	r2, .L82+28
 1451 009a 0A21     		movs	r1, #10
 1452 009c 0848     		ldr	r0, .L82+4
 1453 009e FFF7FEFF 		bl	snprintf
 247:home_screen.c ****                 break;
 1454              		.loc 6 247 0
 1455 00a2 00BF     		nop
 1456              	.L80:
 248:home_screen.c ****         }        
 249:home_screen.c ****         lv_label_set_text(horiLabel1, buf);
 1457              		.loc 6 249 0
 1458 00a4 0D4B     		ldr	r3, .L82+32
 1459 00a6 1B68     		ldr	r3, [r3]
 1460 00a8 0549     		ldr	r1, .L82+4
 1461 00aa 1846     		mov	r0, r3
 1462 00ac FFF7FEFF 		bl	lv_label_set_text
 250:home_screen.c ****         chart_actions();    //call to update the chart
 1463              		.loc 6 250 0
 1464 00b0 FFF7FEFF 		bl	chart_actions
 1465              	.L81:
 1466              	.LBE13:
 251:home_screen.c ****     }
 252:home_screen.c **** }
 1467              		.loc 6 252 0
 1468 00b4 00BF     		nop
 1469 00b6 0837     		adds	r7, r7, #8
 1470              		.cfi_def_cfa_offset 8
 1471 00b8 BD46     		mov	sp, r7
 1472              		.cfi_def_cfa_register 13
 1473              		@ sp needed
 1474 00ba 80BD     		pop	{r7, pc}
 1475              	.L83:
 1476              		.align	2
 1477              	.L82:
 1478 00bc 00000000 		.word	cm4
 1479 00c0 28000000 		.word	buf.20904
 1480 00c4 48000000 		.word	.LC8
 1481 00c8 50000000 		.word	.LC9
 1482 00cc 58000000 		.word	.LC10
 1483 00d0 60000000 		.word	.LC11
 1484 00d4 64000000 		.word	.LC12
 1485 00d8 68000000 		.word	.LC13
 1486 00dc 08000000 		.word	horiLabel1
 1487              		.cfi_endproc
 1488              	.LFE723:
 1489              		.size	hori_slider_event_cb, .-hori_slider_event_cb
 1490              		.section	.rodata
 1491              		.align	2
ARM GAS  C:\Users\tmj32\AppData\Local\Temp\cc1nbtVP.s 			page 49


 1492              	.LC14:
 1493 0074 3130306D 		.ascii	"100mV\000"
 1493      5600
 1494 007a 0000     		.align	2
 1495              	.LC15:
 1496 007c 3230306D 		.ascii	"200mV\000"
 1496      5600
 1497 0082 0000     		.align	2
 1498              	.LC16:
 1499 0084 3530306D 		.ascii	"500mV\000"
 1499      5600
 1500 008a 0000     		.align	2
 1501              	.LC17:
 1502 008c 315600   		.ascii	"1V\000"
 1503 008f 00       		.align	2
 1504              	.LC18:
 1505 0090 325600   		.ascii	"2V\000"
 1506              		.section	.text.verti_slider_event_cb,"ax",%progbits
 1507              		.align	2
 1508              		.thumb
 1509              		.thumb_func
 1510              		.type	verti_slider_event_cb, %function
 1511              	verti_slider_event_cb:
 1512              	.LFB724:
 253:home_screen.c **** static void verti_slider_event_cb(lv_obj_t * slider, lv_event_t event)
 254:home_screen.c **** {
 1513              		.loc 6 254 0
 1514              		.cfi_startproc
 1515              		@ args = 0, pretend = 0, frame = 8
 1516              		@ frame_needed = 1, uses_anonymous_args = 0
 1517 0000 80B5     		push	{r7, lr}
 1518              		.cfi_def_cfa_offset 8
 1519              		.cfi_offset 7, -8
 1520              		.cfi_offset 14, -4
 1521 0002 82B0     		sub	sp, sp, #8
 1522              		.cfi_def_cfa_offset 16
 1523 0004 00AF     		add	r7, sp, #0
 1524              		.cfi_def_cfa_register 7
 1525 0006 7860     		str	r0, [r7, #4]
 1526 0008 0B46     		mov	r3, r1
 1527 000a FB70     		strb	r3, [r7, #3]
 255:home_screen.c ****     if(event == (LV_EVENT_VALUE_CHANGED)) {
 1528              		.loc 6 255 0
 1529 000c FB78     		ldrb	r3, [r7, #3]	@ zero_extendqisi2
 1530 000e 0E2B     		cmp	r3, #14
 1531 0010 50D1     		bne	.L94
 1532              	.LBB14:
 256:home_screen.c ****         static char buf[10]; /* max 3 bytes for number plus 1 null terminating byte */
 257:home_screen.c ****         cm4.VertScale = lv_slider_get_value(slider);
 1533              		.loc 6 257 0
 1534 0012 7868     		ldr	r0, [r7, #4]
 1535 0014 FFF7FEFF 		bl	lv_slider_get_value
 1536 0018 0346     		mov	r3, r0
 1537 001a DAB2     		uxtb	r2, r3
 1538 001c 274B     		ldr	r3, .L95
 1539 001e 5A75     		strb	r2, [r3, #21]
 258:home_screen.c ****         switch(cm4.VertScale){
ARM GAS  C:\Users\tmj32\AppData\Local\Temp\cc1nbtVP.s 			page 50


 1540              		.loc 6 258 0
 1541 0020 264B     		ldr	r3, .L95
 1542 0022 5B7D     		ldrb	r3, [r3, #21]	@ zero_extendqisi2
 1543 0024 033B     		subs	r3, r3, #3
 1544 0026 042B     		cmp	r3, #4
 1545 0028 36D8     		bhi	.L86
 1546 002a 01A2     		adr	r2, .L88
 1547 002c 52F823F0 		ldr	pc, [r2, r3, lsl #2]
 1548              		.p2align 2
 1549              	.L88:
 1550 0030 45000000 		.word	.L87+1
 1551 0034 55000000 		.word	.L89+1
 1552 0038 65000000 		.word	.L90+1
 1553 003c 75000000 		.word	.L91+1
 1554 0040 87000000 		.word	.L92+1
 1555              		.p2align 1
 1556              	.L87:
 259:home_screen.c ****             case 3 :
 260:home_screen.c ****                 snprintf(buf, 10, "100mV");
 1557              		.loc 6 260 0
 1558 0044 1E4B     		ldr	r3, .L95+4
 1559 0046 1F4A     		ldr	r2, .L95+8
 1560 0048 92E80300 		ldmia	r2, {r0, r1}
 1561 004c 1860     		str	r0, [r3]
 1562 004e 0433     		adds	r3, r3, #4
 1563 0050 1980     		strh	r1, [r3]	@ movhi
 261:home_screen.c ****                 break;
 1564              		.loc 6 261 0
 1565 0052 27E0     		b	.L93
 1566              	.L89:
 262:home_screen.c ****             case 4 :
 263:home_screen.c ****                 snprintf(buf, 10, "200mV");
 1567              		.loc 6 263 0
 1568 0054 1A4B     		ldr	r3, .L95+4
 1569 0056 1C4A     		ldr	r2, .L95+12
 1570 0058 92E80300 		ldmia	r2, {r0, r1}
 1571 005c 1860     		str	r0, [r3]
 1572 005e 0433     		adds	r3, r3, #4
 1573 0060 1980     		strh	r1, [r3]	@ movhi
 264:home_screen.c ****                 break;
 1574              		.loc 6 264 0
 1575 0062 1FE0     		b	.L93
 1576              	.L90:
 265:home_screen.c ****             case 5 :
 266:home_screen.c ****                 snprintf(buf, 10, "500mV");
 1577              		.loc 6 266 0
 1578 0064 164B     		ldr	r3, .L95+4
 1579 0066 194A     		ldr	r2, .L95+16
 1580 0068 92E80300 		ldmia	r2, {r0, r1}
 1581 006c 1860     		str	r0, [r3]
 1582 006e 0433     		adds	r3, r3, #4
 1583 0070 1980     		strh	r1, [r3]	@ movhi
 267:home_screen.c ****                 break;
 1584              		.loc 6 267 0
 1585 0072 17E0     		b	.L93
 1586              	.L91:
 268:home_screen.c ****             case 6 :
ARM GAS  C:\Users\tmj32\AppData\Local\Temp\cc1nbtVP.s 			page 51


 269:home_screen.c ****                 snprintf(buf, 10, "1V");
 1587              		.loc 6 269 0
 1588 0074 124B     		ldr	r3, .L95+4
 1589 0076 164A     		ldr	r2, .L95+20
 1590 0078 1268     		ldr	r2, [r2]
 1591 007a 1146     		mov	r1, r2	@ movhi
 1592 007c 1980     		strh	r1, [r3]	@ movhi
 1593 007e 0233     		adds	r3, r3, #2
 1594 0080 120C     		lsrs	r2, r2, #16
 1595 0082 1A70     		strb	r2, [r3]
 270:home_screen.c ****                 break;
 1596              		.loc 6 270 0
 1597 0084 0EE0     		b	.L93
 1598              	.L92:
 271:home_screen.c ****             case 7 :
 272:home_screen.c ****                 snprintf(buf, 10, "2V");
 1599              		.loc 6 272 0
 1600 0086 0E4B     		ldr	r3, .L95+4
 1601 0088 124A     		ldr	r2, .L95+24
 1602 008a 1268     		ldr	r2, [r2]
 1603 008c 1146     		mov	r1, r2	@ movhi
 1604 008e 1980     		strh	r1, [r3]	@ movhi
 1605 0090 0233     		adds	r3, r3, #2
 1606 0092 120C     		lsrs	r2, r2, #16
 1607 0094 1A70     		strb	r2, [r3]
 273:home_screen.c ****                 break;
 1608              		.loc 6 273 0
 1609 0096 05E0     		b	.L93
 1610              	.L86:
 274:home_screen.c ****             default:
 275:home_screen.c ****                 snprintf(buf, 10, "Hello World");
 1611              		.loc 6 275 0
 1612 0098 0F4A     		ldr	r2, .L95+28
 1613 009a 0A21     		movs	r1, #10
 1614 009c 0848     		ldr	r0, .L95+4
 1615 009e FFF7FEFF 		bl	snprintf
 276:home_screen.c ****                 break;
 1616              		.loc 6 276 0
 1617 00a2 00BF     		nop
 1618              	.L93:
 277:home_screen.c ****         }
 278:home_screen.c ****         lv_label_set_text(vertLabel1, buf);
 1619              		.loc 6 278 0
 1620 00a4 0D4B     		ldr	r3, .L95+32
 1621 00a6 1B68     		ldr	r3, [r3]
 1622 00a8 0549     		ldr	r1, .L95+4
 1623 00aa 1846     		mov	r0, r3
 1624 00ac FFF7FEFF 		bl	lv_label_set_text
 279:home_screen.c ****         chart_actions();    //call to update the chart
 1625              		.loc 6 279 0
 1626 00b0 FFF7FEFF 		bl	chart_actions
 1627              	.L94:
 1628              	.LBE14:
 280:home_screen.c ****     }
 281:home_screen.c **** }
 1629              		.loc 6 281 0
 1630 00b4 00BF     		nop
ARM GAS  C:\Users\tmj32\AppData\Local\Temp\cc1nbtVP.s 			page 52


 1631 00b6 0837     		adds	r7, r7, #8
 1632              		.cfi_def_cfa_offset 8
 1633 00b8 BD46     		mov	sp, r7
 1634              		.cfi_def_cfa_register 13
 1635              		@ sp needed
 1636 00ba 80BD     		pop	{r7, pc}
 1637              	.L96:
 1638              		.align	2
 1639              	.L95:
 1640 00bc 00000000 		.word	cm4
 1641 00c0 34000000 		.word	buf.20916
 1642 00c4 74000000 		.word	.LC14
 1643 00c8 7C000000 		.word	.LC15
 1644 00cc 84000000 		.word	.LC16
 1645 00d0 8C000000 		.word	.LC17
 1646 00d4 90000000 		.word	.LC18
 1647 00d8 68000000 		.word	.LC13
 1648 00dc 0C000000 		.word	vertLabel1
 1649              		.cfi_endproc
 1650              	.LFE724:
 1651              		.size	verti_slider_event_cb, .-verti_slider_event_cb
 1652              		.section	.text.window_slider_event_cb,"ax",%progbits
 1653              		.align	2
 1654              		.thumb
 1655              		.thumb_func
 1656              		.type	window_slider_event_cb, %function
 1657              	window_slider_event_cb:
 1658              	.LFB725:
 282:home_screen.c **** static void window_slider_event_cb(lv_obj_t * slider, lv_event_t event)
 283:home_screen.c **** {
 1659              		.loc 6 283 0
 1660              		.cfi_startproc
 1661              		@ args = 0, pretend = 0, frame = 8
 1662              		@ frame_needed = 1, uses_anonymous_args = 0
 1663 0000 80B5     		push	{r7, lr}
 1664              		.cfi_def_cfa_offset 8
 1665              		.cfi_offset 7, -8
 1666              		.cfi_offset 14, -4
 1667 0002 82B0     		sub	sp, sp, #8
 1668              		.cfi_def_cfa_offset 16
 1669 0004 00AF     		add	r7, sp, #0
 1670              		.cfi_def_cfa_register 7
 1671 0006 7860     		str	r0, [r7, #4]
 1672 0008 0B46     		mov	r3, r1
 1673 000a FB70     		strb	r3, [r7, #3]
 284:home_screen.c ****     if(event == (LV_EVENT_VALUE_CHANGED)) {
 1674              		.loc 6 284 0
 1675 000c FB78     		ldrb	r3, [r7, #3]	@ zero_extendqisi2
 1676 000e 0E2B     		cmp	r3, #14
 1677 0010 08D1     		bne	.L99
 285:home_screen.c ****         cm4.windowPos = lv_slider_get_value(slider);
 1678              		.loc 6 285 0
 1679 0012 7868     		ldr	r0, [r7, #4]
 1680 0014 FFF7FEFF 		bl	lv_slider_get_value
 1681 0018 0346     		mov	r3, r0
 1682 001a 1A46     		mov	r2, r3
 1683 001c 034B     		ldr	r3, .L100
ARM GAS  C:\Users\tmj32\AppData\Local\Temp\cc1nbtVP.s 			page 53


 1684 001e 1A61     		str	r2, [r3, #16]
 286:home_screen.c ****         chart_actions();    //call to update the chart
 1685              		.loc 6 286 0
 1686 0020 FFF7FEFF 		bl	chart_actions
 1687              	.L99:
 287:home_screen.c ****     }
 288:home_screen.c **** }
 1688              		.loc 6 288 0
 1689 0024 00BF     		nop
 1690 0026 0837     		adds	r7, r7, #8
 1691              		.cfi_def_cfa_offset 8
 1692 0028 BD46     		mov	sp, r7
 1693              		.cfi_def_cfa_register 13
 1694              		@ sp needed
 1695 002a 80BD     		pop	{r7, pc}
 1696              	.L101:
 1697              		.align	2
 1698              	.L100:
 1699 002c 00000000 		.word	cm4
 1700              		.cfi_endproc
 1701              	.LFE725:
 1702              		.size	window_slider_event_cb, .-window_slider_event_cb
 1703              		.section	.rodata
 1704 0093 00       		.align	2
 1705              	.LC19:
 1706 0094 306D5600 		.ascii	"0mV\000"
 1707              		.align	2
 1708              	.LC20:
 1709 0098 4F666673 		.ascii	"Offset:\000"
 1709      65743A00 
 1710              		.align	2
 1711              	.LC21:
 1712 00a0 31353030 		.ascii	"1500mV\000"
 1712      6D5600
 1713 00a7 00       		.align	2
 1714              	.LC22:
 1715 00a8 54726967 		.ascii	"Trigger: \000"
 1715      6765723A 
 1715      2000
 1716 00b2 0000     		.align	2
 1717              	.LC23:
 1718 00b4 48205363 		.ascii	"H Scale: \000"
 1718      616C653A 
 1718      2000
 1719 00be 0000     		.align	2
 1720              	.LC24:
 1721 00c0 56205363 		.ascii	"V Scale: \000"
 1721      616C653A 
 1721      2000
 1722 00ca 0000     		.align	2
 1723              	.LC25:
 1724 00cc 53746F70 		.ascii	"Stop\\Run\000"
 1724      5C52756E 
 1724      00
 1725 00d5 000000   		.align	2
 1726              	.LC26:
 1727 00d8 54726967 		.ascii	"Trigger Settings:\000"
ARM GAS  C:\Users\tmj32\AppData\Local\Temp\cc1nbtVP.s 			page 54


 1727      67657220 
 1727      53657474 
 1727      696E6773 
 1727      3A00
 1728 00ea 0000     		.align	2
 1729              	.LC27:
 1730 00ec 52697369 		.ascii	"Rising\012Falling\012Threshold\000"
 1730      6E670A46 
 1730      616C6C69 
 1730      6E670A54 
 1730      68726573 
 1731 0105 000000   		.align	2
 1732              	.LC28:
 1733 0108 53696E67 		.ascii	"Single\012Auto\012Normal\000"
 1733      6C650A41 
 1733      75746F0A 
 1733      4E6F726D 
 1733      616C00
 1734              		.section	.text.home_screen,"ax",%progbits
 1735              		.align	2
 1736              		.global	home_screen
 1737              		.thumb
 1738              		.thumb_func
 1739              		.type	home_screen, %function
 1740              	home_screen:
 1741              	.LFB726:
 289:home_screen.c **** 
 290:home_screen.c **** void home_screen()
 291:home_screen.c **** {   
 1742              		.loc 6 291 0
 1743              		.cfi_startproc
 1744              		@ args = 0, pretend = 0, frame = 56
 1745              		@ frame_needed = 1, uses_anonymous_args = 0
 1746 0000 80B5     		push	{r7, lr}
 1747              		.cfi_def_cfa_offset 8
 1748              		.cfi_offset 7, -8
 1749              		.cfi_offset 14, -4
 1750 0002 90B0     		sub	sp, sp, #64
 1751              		.cfi_def_cfa_offset 72
 1752 0004 02AF     		add	r7, sp, #8
 1753              		.cfi_def_cfa 7, 64
 292:home_screen.c ****     /* First Slider: Offset */
 293:home_screen.c ****     lv_obj_t * offsetSlider = lv_slider_create(lv_scr_act(), NULL);
 1754              		.loc 6 293 0
 1755 0006 FFF7FEFF 		bl	lv_scr_act
 1756 000a 0346     		mov	r3, r0
 1757 000c 0021     		movs	r1, #0
 1758 000e 1846     		mov	r0, r3
 1759 0010 FFF7FEFF 		bl	lv_slider_create
 1760 0014 7863     		str	r0, [r7, #52]
 294:home_screen.c ****     lv_obj_set_pos(offsetSlider, display_leftAlign, 290);                         /*Set its positio
 1761              		.loc 6 294 0
 1762 0016 1423     		movs	r3, #20
 1763 0018 1BB2     		sxth	r3, r3
 1764 001a 4FF49172 		mov	r2, #290
 1765 001e 1946     		mov	r1, r3
 1766 0020 786B     		ldr	r0, [r7, #52]
ARM GAS  C:\Users\tmj32\AppData\Local\Temp\cc1nbtVP.s 			page 55


 1767 0022 FFF7FEFF 		bl	lv_obj_set_pos
 295:home_screen.c ****     lv_obj_set_size(offsetSlider, 130, 30);                        /*Set its size*/
 1768              		.loc 6 295 0
 1769 0026 1E22     		movs	r2, #30
 1770 0028 8221     		movs	r1, #130
 1771 002a 786B     		ldr	r0, [r7, #52]
 1772 002c FFF7FEFF 		bl	lv_obj_set_size
 296:home_screen.c ****     lv_obj_set_event_cb(offsetSlider, offset_slider_event_cb);
 1773              		.loc 6 296 0
 1774 0030 C649     		ldr	r1, .L103
 1775 0032 786B     		ldr	r0, [r7, #52]
 1776 0034 FFF7FEFF 		bl	lv_obj_set_event_cb
 297:home_screen.c ****     lv_slider_set_range(offsetSlider, 0, 2000);
 1777              		.loc 6 297 0
 1778 0038 4FF4FA62 		mov	r2, #2000
 1779 003c 0021     		movs	r1, #0
 1780 003e 786B     		ldr	r0, [r7, #52]
 1781 0040 FFF7FEFF 		bl	lv_slider_set_range
 298:home_screen.c ****     lv_slider_set_value(offsetSlider, 1000, LV_ANIM_ON);
 1782              		.loc 6 298 0
 1783 0044 0122     		movs	r2, #1
 1784 0046 4FF47A71 		mov	r1, #1000
 1785 004a 786B     		ldr	r0, [r7, #52]
 1786 004c FFF7FEFF 		bl	lv_slider_set_value
 299:home_screen.c **** 
 300:home_screen.c ****             /* Create a label below the slider */
 301:home_screen.c ****             offsetLabel = lv_label_create(lv_scr_act(), NULL);
 1787              		.loc 6 301 0
 1788 0050 FFF7FEFF 		bl	lv_scr_act
 1789 0054 0346     		mov	r3, r0
 1790 0056 0021     		movs	r1, #0
 1791 0058 1846     		mov	r0, r3
 1792 005a FFF7FEFF 		bl	lv_label_create
 1793 005e 0246     		mov	r2, r0
 1794 0060 BB4B     		ldr	r3, .L103+4
 1795 0062 1A60     		str	r2, [r3]
 302:home_screen.c ****             lv_label_set_text(offsetLabel, "0mV");
 1796              		.loc 6 302 0
 1797 0064 BA4B     		ldr	r3, .L103+4
 1798 0066 1B68     		ldr	r3, [r3]
 1799 0068 BA49     		ldr	r1, .L103+8
 1800 006a 1846     		mov	r0, r3
 1801 006c FFF7FEFF 		bl	lv_label_set_text
 303:home_screen.c ****             lv_obj_set_auto_realign(offsetLabel, true);
 1802              		.loc 6 303 0
 1803 0070 B74B     		ldr	r3, .L103+4
 1804 0072 1B68     		ldr	r3, [r3]
 1805 0074 0121     		movs	r1, #1
 1806 0076 1846     		mov	r0, r3
 1807 0078 FFF7FEFF 		bl	lv_obj_set_auto_realign
 304:home_screen.c ****             lv_obj_align(offsetLabel, offsetSlider, LV_ALIGN_OUT_TOP_RIGHT, 0, 0);
 1808              		.loc 6 304 0
 1809 007c B44B     		ldr	r3, .L103+4
 1810 007e 1868     		ldr	r0, [r3]
 1811 0080 0023     		movs	r3, #0
 1812 0082 0093     		str	r3, [sp]
 1813 0084 0023     		movs	r3, #0
ARM GAS  C:\Users\tmj32\AppData\Local\Temp\cc1nbtVP.s 			page 56


 1814 0086 0B22     		movs	r2, #11
 1815 0088 796B     		ldr	r1, [r7, #52]
 1816 008a FFF7FEFF 		bl	lv_obj_align
 305:home_screen.c ****         
 306:home_screen.c ****             /* Create a label above the slider */
 307:home_screen.c ****         	lv_obj_t* offsetLabel2 = lv_label_create(lv_scr_act(), NULL);
 1817              		.loc 6 307 0
 1818 008e FFF7FEFF 		bl	lv_scr_act
 1819 0092 0346     		mov	r3, r0
 1820 0094 0021     		movs	r1, #0
 1821 0096 1846     		mov	r0, r3
 1822 0098 FFF7FEFF 		bl	lv_label_create
 1823 009c 3863     		str	r0, [r7, #48]
 308:home_screen.c ****         	lv_obj_set_drag(offsetLabel2, false);
 1824              		.loc 6 308 0
 1825 009e 0021     		movs	r1, #0
 1826 00a0 386B     		ldr	r0, [r7, #48]
 1827 00a2 FFF7FEFF 		bl	lv_obj_set_drag
 309:home_screen.c ****             lv_label_set_text(offsetLabel2, "Offset:");
 1828              		.loc 6 309 0
 1829 00a6 AC49     		ldr	r1, .L103+12
 1830 00a8 386B     		ldr	r0, [r7, #48]
 1831 00aa FFF7FEFF 		bl	lv_label_set_text
 310:home_screen.c ****             lv_label_set_long_mode(offsetLabel2, LV_LABEL_LONG_EXPAND);
 1832              		.loc 6 310 0
 1833 00ae 0021     		movs	r1, #0
 1834 00b0 386B     		ldr	r0, [r7, #48]
 1835 00b2 FFF7FEFF 		bl	lv_label_set_long_mode
 311:home_screen.c ****             lv_obj_align(offsetLabel2, offsetSlider, LV_ALIGN_OUT_TOP_LEFT, 0, 0);                 
 1836              		.loc 6 311 0
 1837 00b6 0023     		movs	r3, #0
 1838 00b8 0093     		str	r3, [sp]
 1839 00ba 0023     		movs	r3, #0
 1840 00bc 0922     		movs	r2, #9
 1841 00be 796B     		ldr	r1, [r7, #52]
 1842 00c0 386B     		ldr	r0, [r7, #48]
 1843 00c2 FFF7FEFF 		bl	lv_obj_align
 312:home_screen.c ****     
 313:home_screen.c ****             
 314:home_screen.c ****             
 315:home_screen.c ****     /* Second Slider: Trigger */
 316:home_screen.c ****     lv_obj_t * triggerSlider = lv_slider_create(lv_scr_act(), NULL);
 1844              		.loc 6 316 0
 1845 00c6 FFF7FEFF 		bl	lv_scr_act
 1846 00ca 0346     		mov	r3, r0
 1847 00cc 0021     		movs	r1, #0
 1848 00ce 1846     		mov	r0, r3
 1849 00d0 FFF7FEFF 		bl	lv_slider_create
 1850 00d4 F862     		str	r0, [r7, #44]
 317:home_screen.c ****     lv_obj_set_pos(triggerSlider, 170, 365);                         /*Set its position*/ // 170,29
 1851              		.loc 6 317 0
 1852 00d6 40F26D12 		movw	r2, #365
 1853 00da AA21     		movs	r1, #170
 1854 00dc F86A     		ldr	r0, [r7, #44]
 1855 00de FFF7FEFF 		bl	lv_obj_set_pos
 318:home_screen.c ****     lv_obj_set_size(triggerSlider, 130, 30);                        /*Set its size*/
 1856              		.loc 6 318 0
ARM GAS  C:\Users\tmj32\AppData\Local\Temp\cc1nbtVP.s 			page 57


 1857 00e2 1E22     		movs	r2, #30
 1858 00e4 8221     		movs	r1, #130
 1859 00e6 F86A     		ldr	r0, [r7, #44]
 1860 00e8 FFF7FEFF 		bl	lv_obj_set_size
 319:home_screen.c ****     lv_obj_set_event_cb(triggerSlider, trigger_slider_event_cb);
 1861              		.loc 6 319 0
 1862 00ec 9B49     		ldr	r1, .L103+16
 1863 00ee F86A     		ldr	r0, [r7, #44]
 1864 00f0 FFF7FEFF 		bl	lv_obj_set_event_cb
 320:home_screen.c ****     lv_slider_set_range(triggerSlider, 900, 1900);
 1865              		.loc 6 320 0
 1866 00f4 40F26C72 		movw	r2, #1900
 1867 00f8 4FF46171 		mov	r1, #900
 1868 00fc F86A     		ldr	r0, [r7, #44]
 1869 00fe FFF7FEFF 		bl	lv_slider_set_range
 321:home_screen.c ****     lv_slider_set_value(triggerSlider, 1500, LV_ANIM_ON);
 1870              		.loc 6 321 0
 1871 0102 0122     		movs	r2, #1
 1872 0104 40F2DC51 		movw	r1, #1500
 1873 0108 F86A     		ldr	r0, [r7, #44]
 1874 010a FFF7FEFF 		bl	lv_slider_set_value
 322:home_screen.c ****             
 323:home_screen.c ****             /* Create a label below the slider */
 324:home_screen.c ****             triggerLabel = lv_label_create(lv_scr_act(), NULL);
 1875              		.loc 6 324 0
 1876 010e FFF7FEFF 		bl	lv_scr_act
 1877 0112 0346     		mov	r3, r0
 1878 0114 0021     		movs	r1, #0
 1879 0116 1846     		mov	r0, r3
 1880 0118 FFF7FEFF 		bl	lv_label_create
 1881 011c 0246     		mov	r2, r0
 1882 011e 904B     		ldr	r3, .L103+20
 1883 0120 1A60     		str	r2, [r3]
 325:home_screen.c ****             lv_label_set_text(triggerLabel, "1500mV");
 1884              		.loc 6 325 0
 1885 0122 8F4B     		ldr	r3, .L103+20
 1886 0124 1B68     		ldr	r3, [r3]
 1887 0126 8F49     		ldr	r1, .L103+24
 1888 0128 1846     		mov	r0, r3
 1889 012a FFF7FEFF 		bl	lv_label_set_text
 326:home_screen.c ****             lv_obj_set_auto_realign(triggerLabel, true);
 1890              		.loc 6 326 0
 1891 012e 8C4B     		ldr	r3, .L103+20
 1892 0130 1B68     		ldr	r3, [r3]
 1893 0132 0121     		movs	r1, #1
 1894 0134 1846     		mov	r0, r3
 1895 0136 FFF7FEFF 		bl	lv_obj_set_auto_realign
 327:home_screen.c ****             lv_obj_align(triggerLabel, triggerSlider, LV_ALIGN_OUT_TOP_RIGHT, 0, 0);
 1896              		.loc 6 327 0
 1897 013a 894B     		ldr	r3, .L103+20
 1898 013c 1868     		ldr	r0, [r3]
 1899 013e 0023     		movs	r3, #0
 1900 0140 0093     		str	r3, [sp]
 1901 0142 0023     		movs	r3, #0
 1902 0144 0B22     		movs	r2, #11
 1903 0146 F96A     		ldr	r1, [r7, #44]
 1904 0148 FFF7FEFF 		bl	lv_obj_align
ARM GAS  C:\Users\tmj32\AppData\Local\Temp\cc1nbtVP.s 			page 58


 328:home_screen.c ****             
 329:home_screen.c ****             /* Create a label above the slider */
 330:home_screen.c ****         	lv_obj_t* triggerLabel2 = lv_label_create(lv_scr_act(), NULL);
 1905              		.loc 6 330 0
 1906 014c FFF7FEFF 		bl	lv_scr_act
 1907 0150 0346     		mov	r3, r0
 1908 0152 0021     		movs	r1, #0
 1909 0154 1846     		mov	r0, r3
 1910 0156 FFF7FEFF 		bl	lv_label_create
 1911 015a B862     		str	r0, [r7, #40]
 331:home_screen.c ****         	lv_obj_set_drag(triggerLabel2, false);
 1912              		.loc 6 331 0
 1913 015c 0021     		movs	r1, #0
 1914 015e B86A     		ldr	r0, [r7, #40]
 1915 0160 FFF7FEFF 		bl	lv_obj_set_drag
 332:home_screen.c ****             lv_label_set_text(triggerLabel2, "Trigger: ");
 1916              		.loc 6 332 0
 1917 0164 8049     		ldr	r1, .L103+28
 1918 0166 B86A     		ldr	r0, [r7, #40]
 1919 0168 FFF7FEFF 		bl	lv_label_set_text
 333:home_screen.c ****             lv_obj_align(triggerLabel2, triggerSlider, LV_ALIGN_OUT_TOP_LEFT, 0, 0); 
 1920              		.loc 6 333 0
 1921 016c 0023     		movs	r3, #0
 1922 016e 0093     		str	r3, [sp]
 1923 0170 0023     		movs	r3, #0
 1924 0172 0922     		movs	r2, #9
 1925 0174 F96A     		ldr	r1, [r7, #44]
 1926 0176 B86A     		ldr	r0, [r7, #40]
 1927 0178 FFF7FEFF 		bl	lv_obj_align
 334:home_screen.c **** 
 335:home_screen.c ****     
 336:home_screen.c ****             
 337:home_screen.c ****     /* Third Slider: Hori. Scale */
 338:home_screen.c ****     lv_obj_t * horiSlider = lv_slider_create(lv_scr_act(), NULL);
 1928              		.loc 6 338 0
 1929 017c FFF7FEFF 		bl	lv_scr_act
 1930 0180 0346     		mov	r3, r0
 1931 0182 0021     		movs	r1, #0
 1932 0184 1846     		mov	r0, r3
 1933 0186 FFF7FEFF 		bl	lv_slider_create
 1934 018a 7862     		str	r0, [r7, #36]
 339:home_screen.c ****     lv_obj_set_pos(horiSlider, display_leftAlign, 365);                         /*Set its position*
 1935              		.loc 6 339 0
 1936 018c 1423     		movs	r3, #20
 1937 018e 1BB2     		sxth	r3, r3
 1938 0190 40F26D12 		movw	r2, #365
 1939 0194 1946     		mov	r1, r3
 1940 0196 786A     		ldr	r0, [r7, #36]
 1941 0198 FFF7FEFF 		bl	lv_obj_set_pos
 340:home_screen.c ****     lv_obj_set_size(horiSlider, 130, 30);                        /*Set its size*/
 1942              		.loc 6 340 0
 1943 019c 1E22     		movs	r2, #30
 1944 019e 8221     		movs	r1, #130
 1945 01a0 786A     		ldr	r0, [r7, #36]
 1946 01a2 FFF7FEFF 		bl	lv_obj_set_size
 341:home_screen.c ****     lv_slider_set_value(horiSlider, 7, LV_ANIM_ON);
 1947              		.loc 6 341 0
ARM GAS  C:\Users\tmj32\AppData\Local\Temp\cc1nbtVP.s 			page 59


 1948 01a6 0122     		movs	r2, #1
 1949 01a8 0721     		movs	r1, #7
 1950 01aa 786A     		ldr	r0, [r7, #36]
 1951 01ac FFF7FEFF 		bl	lv_slider_set_value
 342:home_screen.c ****     lv_obj_set_event_cb(horiSlider, hori_slider_event_cb);
 1952              		.loc 6 342 0
 1953 01b0 6E49     		ldr	r1, .L103+32
 1954 01b2 786A     		ldr	r0, [r7, #36]
 1955 01b4 FFF7FEFF 		bl	lv_obj_set_event_cb
 343:home_screen.c ****     lv_slider_set_range(horiSlider, 5, 9);                      // 11 options for the 11 different 
 1956              		.loc 6 343 0
 1957 01b8 0922     		movs	r2, #9
 1958 01ba 0521     		movs	r1, #5
 1959 01bc 786A     		ldr	r0, [r7, #36]
 1960 01be FFF7FEFF 		bl	lv_slider_set_range
 344:home_screen.c ****     
 345:home_screen.c ****             /* Create a label below the slider */
 346:home_screen.c ****             horiLabel1 = lv_label_create(lv_scr_act(), NULL);
 1961              		.loc 6 346 0
 1962 01c2 FFF7FEFF 		bl	lv_scr_act
 1963 01c6 0346     		mov	r3, r0
 1964 01c8 0021     		movs	r1, #0
 1965 01ca 1846     		mov	r0, r3
 1966 01cc FFF7FEFF 		bl	lv_label_create
 1967 01d0 0246     		mov	r2, r0
 1968 01d2 674B     		ldr	r3, .L103+36
 1969 01d4 1A60     		str	r2, [r3]
 347:home_screen.c ****             lv_label_set_text(horiLabel1, "500mS");
 1970              		.loc 6 347 0
 1971 01d6 664B     		ldr	r3, .L103+36
 1972 01d8 1B68     		ldr	r3, [r3]
 1973 01da 6649     		ldr	r1, .L103+40
 1974 01dc 1846     		mov	r0, r3
 1975 01de FFF7FEFF 		bl	lv_label_set_text
 348:home_screen.c ****             lv_obj_set_auto_realign(horiLabel1, true);
 1976              		.loc 6 348 0
 1977 01e2 634B     		ldr	r3, .L103+36
 1978 01e4 1B68     		ldr	r3, [r3]
 1979 01e6 0121     		movs	r1, #1
 1980 01e8 1846     		mov	r0, r3
 1981 01ea FFF7FEFF 		bl	lv_obj_set_auto_realign
 349:home_screen.c ****             lv_obj_align(horiLabel1, horiSlider, LV_ALIGN_OUT_TOP_RIGHT, 0, 0);
 1982              		.loc 6 349 0
 1983 01ee 604B     		ldr	r3, .L103+36
 1984 01f0 1868     		ldr	r0, [r3]
 1985 01f2 0023     		movs	r3, #0
 1986 01f4 0093     		str	r3, [sp]
 1987 01f6 0023     		movs	r3, #0
 1988 01f8 0B22     		movs	r2, #11
 1989 01fa 796A     		ldr	r1, [r7, #36]
 1990 01fc FFF7FEFF 		bl	lv_obj_align
 350:home_screen.c ****             
 351:home_screen.c ****             /* Create a label above the slider */
 352:home_screen.c ****         	lv_obj_t* horiLabel2 = lv_label_create(lv_scr_act(), NULL);
 1991              		.loc 6 352 0
 1992 0200 FFF7FEFF 		bl	lv_scr_act
 1993 0204 0346     		mov	r3, r0
ARM GAS  C:\Users\tmj32\AppData\Local\Temp\cc1nbtVP.s 			page 60


 1994 0206 0021     		movs	r1, #0
 1995 0208 1846     		mov	r0, r3
 1996 020a FFF7FEFF 		bl	lv_label_create
 1997 020e 3862     		str	r0, [r7, #32]
 353:home_screen.c ****         	lv_obj_set_drag(horiLabel2, false);
 1998              		.loc 6 353 0
 1999 0210 0021     		movs	r1, #0
 2000 0212 386A     		ldr	r0, [r7, #32]
 2001 0214 FFF7FEFF 		bl	lv_obj_set_drag
 354:home_screen.c ****             lv_label_set_text(horiLabel2, "H Scale: ");
 2002              		.loc 6 354 0
 2003 0218 5749     		ldr	r1, .L103+44
 2004 021a 386A     		ldr	r0, [r7, #32]
 2005 021c FFF7FEFF 		bl	lv_label_set_text
 355:home_screen.c ****             lv_obj_align(horiLabel2, horiSlider, LV_ALIGN_OUT_TOP_LEFT, 0, 0);
 2006              		.loc 6 355 0
 2007 0220 0023     		movs	r3, #0
 2008 0222 0093     		str	r3, [sp]
 2009 0224 0023     		movs	r3, #0
 2010 0226 0922     		movs	r2, #9
 2011 0228 796A     		ldr	r1, [r7, #36]
 2012 022a 386A     		ldr	r0, [r7, #32]
 2013 022c FFF7FEFF 		bl	lv_obj_align
 356:home_screen.c ****     
 357:home_screen.c ****             
 358:home_screen.c ****             
 359:home_screen.c ****     /* Fourth Slider: Vert. Scale */
 360:home_screen.c ****     lv_obj_t * vertSlider = lv_slider_create(lv_scr_act(), NULL);
 2014              		.loc 6 360 0
 2015 0230 FFF7FEFF 		bl	lv_scr_act
 2016 0234 0346     		mov	r3, r0
 2017 0236 0021     		movs	r1, #0
 2018 0238 1846     		mov	r0, r3
 2019 023a FFF7FEFF 		bl	lv_slider_create
 2020 023e F861     		str	r0, [r7, #28]
 361:home_screen.c ****     lv_obj_set_pos(vertSlider, 170, 290);                         /*Set its position*/ // 170, 365
 2021              		.loc 6 361 0
 2022 0240 4FF49172 		mov	r2, #290
 2023 0244 AA21     		movs	r1, #170
 2024 0246 F869     		ldr	r0, [r7, #28]
 2025 0248 FFF7FEFF 		bl	lv_obj_set_pos
 362:home_screen.c ****     lv_obj_set_size(vertSlider, 130, 30);                        /*Set its size*/
 2026              		.loc 6 362 0
 2027 024c 1E22     		movs	r2, #30
 2028 024e 8221     		movs	r1, #130
 2029 0250 F869     		ldr	r0, [r7, #28]
 2030 0252 FFF7FEFF 		bl	lv_obj_set_size
 363:home_screen.c ****     lv_slider_set_value(vertSlider, 5, LV_ANIM_ON);
 2031              		.loc 6 363 0
 2032 0256 0122     		movs	r2, #1
 2033 0258 0521     		movs	r1, #5
 2034 025a F869     		ldr	r0, [r7, #28]
 2035 025c FFF7FEFF 		bl	lv_slider_set_value
 364:home_screen.c ****     lv_obj_set_event_cb(vertSlider, verti_slider_event_cb);
 2036              		.loc 6 364 0
 2037 0260 4649     		ldr	r1, .L103+48
 2038 0262 F869     		ldr	r0, [r7, #28]
ARM GAS  C:\Users\tmj32\AppData\Local\Temp\cc1nbtVP.s 			page 61


 2039 0264 FFF7FEFF 		bl	lv_obj_set_event_cb
 365:home_screen.c ****     lv_slider_set_range(vertSlider, 3, 7);
 2040              		.loc 6 365 0
 2041 0268 0722     		movs	r2, #7
 2042 026a 0321     		movs	r1, #3
 2043 026c F869     		ldr	r0, [r7, #28]
 2044 026e FFF7FEFF 		bl	lv_slider_set_range
 366:home_screen.c **** 
 367:home_screen.c ****             /* Create a label below the slider */
 368:home_screen.c ****             vertLabel1 = lv_label_create(lv_scr_act(), NULL);
 2045              		.loc 6 368 0
 2046 0272 FFF7FEFF 		bl	lv_scr_act
 2047 0276 0346     		mov	r3, r0
 2048 0278 0021     		movs	r1, #0
 2049 027a 1846     		mov	r0, r3
 2050 027c FFF7FEFF 		bl	lv_label_create
 2051 0280 0246     		mov	r2, r0
 2052 0282 3F4B     		ldr	r3, .L103+52
 2053 0284 1A60     		str	r2, [r3]
 369:home_screen.c ****             lv_label_set_text(vertLabel1, "500mV");
 2054              		.loc 6 369 0
 2055 0286 3E4B     		ldr	r3, .L103+52
 2056 0288 1B68     		ldr	r3, [r3]
 2057 028a 3E49     		ldr	r1, .L103+56
 2058 028c 1846     		mov	r0, r3
 2059 028e FFF7FEFF 		bl	lv_label_set_text
 370:home_screen.c ****             lv_obj_set_auto_realign(vertLabel1, true);
 2060              		.loc 6 370 0
 2061 0292 3B4B     		ldr	r3, .L103+52
 2062 0294 1B68     		ldr	r3, [r3]
 2063 0296 0121     		movs	r1, #1
 2064 0298 1846     		mov	r0, r3
 2065 029a FFF7FEFF 		bl	lv_obj_set_auto_realign
 371:home_screen.c ****             lv_obj_align(vertLabel1, vertSlider, LV_ALIGN_OUT_TOP_RIGHT, 0, 0);
 2066              		.loc 6 371 0
 2067 029e 384B     		ldr	r3, .L103+52
 2068 02a0 1868     		ldr	r0, [r3]
 2069 02a2 0023     		movs	r3, #0
 2070 02a4 0093     		str	r3, [sp]
 2071 02a6 0023     		movs	r3, #0
 2072 02a8 0B22     		movs	r2, #11
 2073 02aa F969     		ldr	r1, [r7, #28]
 2074 02ac FFF7FEFF 		bl	lv_obj_align
 372:home_screen.c ****             
 373:home_screen.c ****             /* Create a label above the slider */
 374:home_screen.c ****         	lv_obj_t* vertLabel2 = lv_label_create(lv_scr_act(), NULL);
 2075              		.loc 6 374 0
 2076 02b0 FFF7FEFF 		bl	lv_scr_act
 2077 02b4 0346     		mov	r3, r0
 2078 02b6 0021     		movs	r1, #0
 2079 02b8 1846     		mov	r0, r3
 2080 02ba FFF7FEFF 		bl	lv_label_create
 2081 02be B861     		str	r0, [r7, #24]
 375:home_screen.c ****         	lv_obj_set_drag(vertLabel2, false);
 2082              		.loc 6 375 0
 2083 02c0 0021     		movs	r1, #0
 2084 02c2 B869     		ldr	r0, [r7, #24]
ARM GAS  C:\Users\tmj32\AppData\Local\Temp\cc1nbtVP.s 			page 62


 2085 02c4 FFF7FEFF 		bl	lv_obj_set_drag
 376:home_screen.c ****             lv_label_set_text(vertLabel2, "V Scale: ");
 2086              		.loc 6 376 0
 2087 02c8 2F49     		ldr	r1, .L103+60
 2088 02ca B869     		ldr	r0, [r7, #24]
 2089 02cc FFF7FEFF 		bl	lv_label_set_text
 377:home_screen.c ****             lv_obj_align(vertLabel2, vertSlider, LV_ALIGN_OUT_TOP_LEFT, 0, 0);
 2090              		.loc 6 377 0
 2091 02d0 0023     		movs	r3, #0
 2092 02d2 0093     		str	r3, [sp]
 2093 02d4 0023     		movs	r3, #0
 2094 02d6 0922     		movs	r2, #9
 2095 02d8 F969     		ldr	r1, [r7, #28]
 2096 02da B869     		ldr	r0, [r7, #24]
 2097 02dc FFF7FEFF 		bl	lv_obj_align
 378:home_screen.c ****     
 379:home_screen.c ****         
 380:home_screen.c ****             
 381:home_screen.c ****     /* Fifth Slider: Horizontal Window      Control Range of Points shown */
 382:home_screen.c ****     lv_obj_t * windowSlider = lv_slider_create(lv_scr_act(), NULL);
 2098              		.loc 6 382 0
 2099 02e0 FFF7FEFF 		bl	lv_scr_act
 2100 02e4 0346     		mov	r3, r0
 2101 02e6 0021     		movs	r1, #0
 2102 02e8 1846     		mov	r0, r3
 2103 02ea FFF7FEFF 		bl	lv_slider_create
 2104 02ee 7861     		str	r0, [r7, #20]
 383:home_screen.c ****     lv_obj_set_pos(windowSlider, 20, 10);                         /*Set its position 20, 225*/
 2105              		.loc 6 383 0
 2106 02f0 0A22     		movs	r2, #10
 2107 02f2 1421     		movs	r1, #20
 2108 02f4 7869     		ldr	r0, [r7, #20]
 2109 02f6 FFF7FEFF 		bl	lv_obj_set_pos
 384:home_screen.c ****     lv_obj_set_size(windowSlider, 280, 30);                        /*Set its size*/
 2110              		.loc 6 384 0
 2111 02fa 1E22     		movs	r2, #30
 2112 02fc 4FF48C71 		mov	r1, #280
 2113 0300 7869     		ldr	r0, [r7, #20]
 2114 0302 FFF7FEFF 		bl	lv_obj_set_size
 385:home_screen.c ****     lv_obj_set_event_cb(windowSlider, window_slider_event_cb);
 2115              		.loc 6 385 0
 2116 0306 2149     		ldr	r1, .L103+64
 2117 0308 7869     		ldr	r0, [r7, #20]
 2118 030a FFF7FEFF 		bl	lv_obj_set_event_cb
 386:home_screen.c ****     lv_slider_set_range(windowSlider, 0, 2048);        
 2119              		.loc 6 386 0
 2120 030e 4FF40062 		mov	r2, #2048
 2121 0312 0021     		movs	r1, #0
 2122 0314 7869     		ldr	r0, [r7, #20]
 2123 0316 FFF7FEFF 		bl	lv_slider_set_range
 387:home_screen.c ****     lv_slider_set_value(windowSlider, cm4.windowPos, LV_ANIM_ON);
 2124              		.loc 6 387 0
 2125 031a 1D4B     		ldr	r3, .L103+68
 2126 031c 1B69     		ldr	r3, [r3, #16]
 2127 031e 1BB2     		sxth	r3, r3
 2128 0320 0122     		movs	r2, #1
 2129 0322 1946     		mov	r1, r3
ARM GAS  C:\Users\tmj32\AppData\Local\Temp\cc1nbtVP.s 			page 63


 2130 0324 7869     		ldr	r0, [r7, #20]
 2131 0326 FFF7FEFF 		bl	lv_slider_set_value
 388:home_screen.c ****     
 389:home_screen.c ****             
 390:home_screen.c ****     //Adding an on/off switch 
 391:home_screen.c ****     lv_obj_t * sw1 = lv_sw_create(lv_scr_act(), NULL);
 2132              		.loc 6 391 0
 2133 032a FFF7FEFF 		bl	lv_scr_act
 2134 032e 0346     		mov	r3, r0
 2135 0330 0021     		movs	r1, #0
 2136 0332 1846     		mov	r0, r3
 2137 0334 FFF7FEFF 		bl	lv_sw_create
 2138 0338 3861     		str	r0, [r7, #16]
 392:home_screen.c ****     lv_obj_align(sw1, NULL, LV_ALIGN_CENTER, 0, -50);
 2139              		.loc 6 392 0
 2140 033a 6FF03103 		mvn	r3, #49
 2141 033e 0093     		str	r3, [sp]
 2142 0340 0023     		movs	r3, #0
 2143 0342 0022     		movs	r2, #0
 2144 0344 0021     		movs	r1, #0
 2145 0346 3869     		ldr	r0, [r7, #16]
 2146 0348 24E0     		b	.L104
 2147              	.L105:
 2148 034a 00BF     		.align	2
 2149              	.L103:
 2150 034c 00000000 		.word	offset_slider_event_cb
 2151 0350 00000000 		.word	offsetLabel
 2152 0354 94000000 		.word	.LC19
 2153 0358 98000000 		.word	.LC20
 2154 035c 00000000 		.word	trigger_slider_event_cb
 2155 0360 04000000 		.word	triggerLabel
 2156 0364 A0000000 		.word	.LC21
 2157 0368 A8000000 		.word	.LC22
 2158 036c 00000000 		.word	hori_slider_event_cb
 2159 0370 08000000 		.word	horiLabel1
 2160 0374 58000000 		.word	.LC10
 2161 0378 B4000000 		.word	.LC23
 2162 037c 00000000 		.word	verti_slider_event_cb
 2163 0380 0C000000 		.word	vertLabel1
 2164 0384 84000000 		.word	.LC16
 2165 0388 C0000000 		.word	.LC24
 2166 038c 00000000 		.word	window_slider_event_cb
 2167 0390 00000000 		.word	cm4
 2168              	.L104:
 2169 0394 FFF7FEFF 		bl	lv_obj_align
 393:home_screen.c ****     lv_obj_set_event_cb(sw1, sw_event_handler);
 2170              		.loc 6 393 0
 2171 0398 3D49     		ldr	r1, .L106
 2172 039a 3869     		ldr	r0, [r7, #16]
 2173 039c FFF7FEFF 		bl	lv_obj_set_event_cb
 394:home_screen.c ****     lv_obj_set_pos(sw1, display_leftAlign, 430);                         /*Set its position*/
 2174              		.loc 6 394 0
 2175 03a0 1423     		movs	r3, #20
 2176 03a2 1BB2     		sxth	r3, r3
 2177 03a4 4FF4D772 		mov	r2, #430
 2178 03a8 1946     		mov	r1, r3
 2179 03aa 3869     		ldr	r0, [r7, #16]
ARM GAS  C:\Users\tmj32\AppData\Local\Temp\cc1nbtVP.s 			page 64


 2180 03ac FFF7FEFF 		bl	lv_obj_set_pos
 395:home_screen.c ****     lv_obj_set_size(sw1, 90, 30);               /*Set its size*/ 
 2181              		.loc 6 395 0
 2182 03b0 1E22     		movs	r2, #30
 2183 03b2 5A21     		movs	r1, #90
 2184 03b4 3869     		ldr	r0, [r7, #16]
 2185 03b6 FFF7FEFF 		bl	lv_obj_set_size
 396:home_screen.c ****     
 397:home_screen.c ****     lv_obj_t * switchLabel = lv_label_create(lv_scr_act(), NULL);
 2186              		.loc 6 397 0
 2187 03ba FFF7FEFF 		bl	lv_scr_act
 2188 03be 0346     		mov	r3, r0
 2189 03c0 0021     		movs	r1, #0
 2190 03c2 1846     		mov	r0, r3
 2191 03c4 FFF7FEFF 		bl	lv_label_create
 2192 03c8 F860     		str	r0, [r7, #12]
 398:home_screen.c **** 	lv_obj_set_drag(switchLabel, false);
 2193              		.loc 6 398 0
 2194 03ca 0021     		movs	r1, #0
 2195 03cc F868     		ldr	r0, [r7, #12]
 2196 03ce FFF7FEFF 		bl	lv_obj_set_drag
 399:home_screen.c ****     lv_label_set_text(switchLabel, "Stop\\Run");
 2197              		.loc 6 399 0
 2198 03d2 3049     		ldr	r1, .L106+4
 2199 03d4 F868     		ldr	r0, [r7, #12]
 2200 03d6 FFF7FEFF 		bl	lv_label_set_text
 400:home_screen.c ****     lv_obj_align(switchLabel, sw1, LV_ALIGN_OUT_TOP_MID, 0, 0);
 2201              		.loc 6 400 0
 2202 03da 0023     		movs	r3, #0
 2203 03dc 0093     		str	r3, [sp]
 2204 03de 0023     		movs	r3, #0
 2205 03e0 0A22     		movs	r2, #10
 2206 03e2 3969     		ldr	r1, [r7, #16]
 2207 03e4 F868     		ldr	r0, [r7, #12]
 2208 03e6 FFF7FEFF 		bl	lv_obj_align
 401:home_screen.c ****     
 402:home_screen.c ****     
 403:home_screen.c ****     
 404:home_screen.c ****     //Adding a drop down menu for the trigger slope
 405:home_screen.c ****     lv_obj_t * rollerLabel = lv_label_create(lv_scr_act(), NULL);
 2209              		.loc 6 405 0
 2210 03ea FFF7FEFF 		bl	lv_scr_act
 2211 03ee 0346     		mov	r3, r0
 2212 03f0 0021     		movs	r1, #0
 2213 03f2 1846     		mov	r0, r3
 2214 03f4 FFF7FEFF 		bl	lv_label_create
 2215 03f8 B860     		str	r0, [r7, #8]
 406:home_screen.c **** 	lv_obj_set_drag(rollerLabel, false);
 2216              		.loc 6 406 0
 2217 03fa 0021     		movs	r1, #0
 2218 03fc B868     		ldr	r0, [r7, #8]
 2219 03fe FFF7FEFF 		bl	lv_obj_set_drag
 407:home_screen.c ****     lv_label_set_text(rollerLabel, "Trigger Settings:");
 2220              		.loc 6 407 0
 2221 0402 2549     		ldr	r1, .L106+8
 2222 0404 B868     		ldr	r0, [r7, #8]
 2223 0406 FFF7FEFF 		bl	lv_label_set_text
ARM GAS  C:\Users\tmj32\AppData\Local\Temp\cc1nbtVP.s 			page 65


 408:home_screen.c ****     lv_obj_set_pos(rollerLabel, 155, 410);
 2224              		.loc 6 408 0
 2225 040a 4FF4CD72 		mov	r2, #410
 2226 040e 9B21     		movs	r1, #155
 2227 0410 B868     		ldr	r0, [r7, #8]
 2228 0412 FFF7FEFF 		bl	lv_obj_set_pos
 409:home_screen.c ****     
 410:home_screen.c ****     lv_obj_t * roller1 = lv_roller_create(lv_scr_act(),NULL);
 2229              		.loc 6 410 0
 2230 0416 FFF7FEFF 		bl	lv_scr_act
 2231 041a 0346     		mov	r3, r0
 2232 041c 0021     		movs	r1, #0
 2233 041e 1846     		mov	r0, r3
 2234 0420 FFF7FEFF 		bl	lv_roller_create
 2235 0424 7860     		str	r0, [r7, #4]
 411:home_screen.c ****     lv_roller_set_options(roller1, "Rising\n"
 2236              		.loc 6 411 0
 2237 0426 0122     		movs	r2, #1
 2238 0428 1C49     		ldr	r1, .L106+12
 2239 042a 7868     		ldr	r0, [r7, #4]
 2240 042c FFF7FEFF 		bl	lv_roller_set_options
 412:home_screen.c ****                                    "Falling\n"
 413:home_screen.c ****                                    "Threshold",
 414:home_screen.c ****                                    LV_ROLLER_MODE_INIFINITE);
 415:home_screen.c ****     lv_roller_set_visible_row_count(roller1, 1);
 2241              		.loc 6 415 0
 2242 0430 0121     		movs	r1, #1
 2243 0432 7868     		ldr	r0, [r7, #4]
 2244 0434 FFF7FEFF 		bl	lv_roller_set_visible_row_count
 416:home_screen.c ****     lv_obj_set_pos(roller1, 200, 425);                         /*Set its position*/
 2245              		.loc 6 416 0
 2246 0438 40F2A912 		movw	r2, #425
 2247 043c C821     		movs	r1, #200
 2248 043e 7868     		ldr	r0, [r7, #4]
 2249 0440 FFF7FEFF 		bl	lv_obj_set_pos
 417:home_screen.c ****     lv_obj_set_event_cb(roller1, roller1_event);
 2250              		.loc 6 417 0
 2251 0444 1649     		ldr	r1, .L106+16
 2252 0446 7868     		ldr	r0, [r7, #4]
 2253 0448 FFF7FEFF 		bl	lv_obj_set_event_cb
 418:home_screen.c ****     
 419:home_screen.c ****     //Adding a drop down menu for the trigger type
 420:home_screen.c ****     lv_obj_t * roller2 = lv_roller_create(lv_scr_act(),NULL);
 2254              		.loc 6 420 0
 2255 044c FFF7FEFF 		bl	lv_scr_act
 2256 0450 0346     		mov	r3, r0
 2257 0452 0021     		movs	r1, #0
 2258 0454 1846     		mov	r0, r3
 2259 0456 FFF7FEFF 		bl	lv_roller_create
 2260 045a 3860     		str	r0, [r7]
 421:home_screen.c ****     lv_roller_set_options(roller2, "Single\n"
 2261              		.loc 6 421 0
 2262 045c 0122     		movs	r2, #1
 2263 045e 1149     		ldr	r1, .L106+20
 2264 0460 3868     		ldr	r0, [r7]
 2265 0462 FFF7FEFF 		bl	lv_roller_set_options
 422:home_screen.c ****                                    "Auto\n"
ARM GAS  C:\Users\tmj32\AppData\Local\Temp\cc1nbtVP.s 			page 66


 423:home_screen.c ****                                    "Normal",
 424:home_screen.c ****                                    LV_ROLLER_MODE_INIFINITE);
 425:home_screen.c ****     lv_roller_set_visible_row_count(roller2, 1);
 2266              		.loc 6 425 0
 2267 0466 0121     		movs	r1, #1
 2268 0468 3868     		ldr	r0, [r7]
 2269 046a FFF7FEFF 		bl	lv_roller_set_visible_row_count
 426:home_screen.c ****     lv_obj_set_pos(roller2, 115, 425);                         /*Set its position*/
 2270              		.loc 6 426 0
 2271 046e 40F2A912 		movw	r2, #425
 2272 0472 7321     		movs	r1, #115
 2273 0474 3868     		ldr	r0, [r7]
 2274 0476 FFF7FEFF 		bl	lv_obj_set_pos
 427:home_screen.c ****     lv_obj_set_event_cb(roller2, roller2_event);
 2275              		.loc 6 427 0
 2276 047a 0B49     		ldr	r1, .L106+24
 2277 047c 3868     		ldr	r0, [r7]
 2278 047e FFF7FEFF 		bl	lv_obj_set_event_cb
 428:home_screen.c ****     
 429:home_screen.c ****     
 430:home_screen.c ****     //Draw the ogriginal chart... should be empty or zeroes
 431:home_screen.c ****     chart_actions();
 2279              		.loc 6 431 0
 2280 0482 FFF7FEFF 		bl	chart_actions
 432:home_screen.c **** }...
 2281              		.loc 6 432 0
 2282 0486 00BF     		nop
 2283 0488 3837     		adds	r7, r7, #56
 2284              		.cfi_def_cfa_offset 8
 2285 048a BD46     		mov	sp, r7
 2286              		.cfi_def_cfa_register 13
 2287              		@ sp needed
 2288 048c 80BD     		pop	{r7, pc}
 2289              	.L107:
 2290 048e 00BF     		.align	2
 2291              	.L106:
 2292 0490 00000000 		.word	sw_event_handler
 2293 0494 CC000000 		.word	.LC25
 2294 0498 D8000000 		.word	.LC26
 2295 049c EC000000 		.word	.LC27
 2296 04a0 00000000 		.word	roller1_event
 2297 04a4 08010000 		.word	.LC28
 2298 04a8 00000000 		.word	roller2_event
 2299              		.cfi_endproc
 2300              	.LFE726:
 2301              		.size	home_screen, .-home_screen
 2302              		.bss
 2303              		.align	2
 2304              	chart1.20848:
 2305 0014 00000000 		.space	4
 2306              		.align	2
 2307              	buf.20892:
 2308 0018 00000000 		.space	8
 2308      00000000 
 2309              		.data
 2310              		.align	2
 2311              		.type	units.20893, %object
ARM GAS  C:\Users\tmj32\AppData\Local\Temp\cc1nbtVP.s 			page 67


 2312              		.size	units.20893, 4
 2313              	units.20893:
 2314 0000 6D5600   		.ascii	"mV\000"
 2315 0003 00       		.space	1
 2316              		.bss
 2317              		.align	2
 2318              	buf.20898:
 2319 0020 00000000 		.space	8
 2319      00000000 
 2320              		.data
 2321              		.align	2
 2322              		.type	units.20899, %object
 2323              		.size	units.20899, 4
 2324              	units.20899:
 2325 0004 6D5600   		.ascii	"mV\000"
 2326 0007 00       		.space	1
 2327              		.bss
 2328              		.align	2
 2329              	buf.20904:
 2330 0028 00000000 		.space	10
 2330      00000000 
 2330      0000
 2331 0032 0000     		.align	2
 2332              	buf.20916:
 2333 0034 00000000 		.space	10
 2333      00000000 
 2333      0000
 2334              		.text
 2335              	.Letext0:
 2336              		.file 7 "c:\\program files (x86)\\cypress\\psoc creator\\4.3\\psoc creator\\import\\gnu\\arm\\5.4.
 2337              		.file 8 "c:\\program files (x86)\\cypress\\psoc creator\\4.3\\psoc creator\\import\\gnu\\arm\\5.4.
 2338              		.file 9 "c:\\program files (x86)\\cypress\\psoc creator\\4.3\\psoc creator\\import\\gnu\\arm\\5.4.
 2339              		.file 10 "Generated_Source\\PSoC6\\pdl\\drivers/peripheral/device/cy_device.h"
 2340              		.file 11 "Generated_Source\\PSoC6\\pdl\\drivers/peripheral/scb/cy_scb_i2c.h"
 2341              		.file 12 "Generated_Source\\PSoC6\\pdl\\drivers/peripheral/scb/cy_scb_spi.h"
 2342              		.file 13 "Generated_Source\\PSoC6\\pdl\\drivers/peripheral/tcpwm/cy_tcpwm_counter.h"
 2343              		.file 14 "globalStruct.h"
 2344              		.file 15 "..\\..\\..\\lvgl\\version_6.1.2\\lvgl/src/lv_misc/../../../lv_conf.h"
 2345              		.file 16 "..\\..\\..\\lvgl\\version_6.1.2\\lvgl/src/lv_misc/lv_types.h"
 2346              		.file 17 "..\\..\\..\\lvgl\\version_6.1.2\\lvgl/src/lv_misc/lv_ll.h"
 2347              		.file 18 "..\\..\\..\\lvgl\\version_6.1.2\\lvgl/src/lv_hal/../lv_misc/lv_area.h"
 2348              		.file 19 "..\\..\\..\\lvgl\\version_6.1.2\\lvgl/src/lv_core/lv_obj.h"
 2349              		.file 20 "..\\..\\..\\lvgl\\version_6.1.2\\lvgl/src/lv_core/../lv_font/lv_font.h"
 2350              		.file 21 "..\\..\\..\\lvgl\\version_6.1.2\\lvgl/src/lv_core/../lv_misc/lv_anim.h"
 2351              		.file 22 "..\\..\\..\\lvgl\\version_6.1.2\\lvgl/src/lv_core/lv_style.h"
 2352              		.file 23 "..\\..\\..\\lvgl\\version_6.1.2\\lvgl/src/lv_core/../lv_misc/lv_bidi.h"
 2353              		.file 24 "..\\..\\..\\lvgl\\version_6.1.2\\lvgl/src/lv_objx/lv_btn.h"
 2354              		.file 25 "..\\..\\..\\lvgl\\version_6.1.2\\lvgl/src/lv_objx/lv_label.h"
 2355              		.file 26 "..\\..\\..\\lvgl\\version_6.1.2\\lvgl/src/lv_objx/lv_chart.h"
 2356              		.file 27 "Generated_Source\\PSoC6\\pdl\\cmsis/include/core_cm4.h"
 2357              		.file 28 "Generated_Source\\PSoC6/DISP_TICK_TIMER.h"
 2358              		.file 29 "Generated_Source\\PSoC6/I2C_MASTER.h"
 2359              		.file 30 "Generated_Source\\PSoC6/SPIM.h"
 2360              		.section	.debug_info,"",%progbits
 2361              	.Ldebug_info0:
 2362 0000 8B190000 		.4byte	0x198b
 2363 0004 0400     		.2byte	0x4
ARM GAS  C:\Users\tmj32\AppData\Local\Temp\cc1nbtVP.s 			page 68


 2364 0006 00000000 		.4byte	.Ldebug_abbrev0
 2365 000a 04       		.byte	0x4
 2366 000b 01       		.uleb128 0x1
 2367 000c 5E160000 		.4byte	.LASF417
 2368 0010 0C       		.byte	0xc
 2369 0011 E4120000 		.4byte	.LASF418
 2370 0015 34040000 		.4byte	.LASF419
 2371 0019 50000000 		.4byte	.Ldebug_ranges0+0x50
 2372 001d 00000000 		.4byte	0
 2373 0021 00000000 		.4byte	.Ldebug_line0
 2374 0025 02       		.uleb128 0x2
 2375 0026 0D150000 		.4byte	.LASF0
 2376 002a 07       		.byte	0x7
 2377 002b 1B       		.byte	0x1b
 2378 002c 30000000 		.4byte	0x30
 2379 0030 03       		.uleb128 0x3
 2380 0031 01       		.byte	0x1
 2381 0032 06       		.byte	0x6
 2382 0033 9B140000 		.4byte	.LASF2
 2383 0037 02       		.uleb128 0x2
 2384 0038 7F110000 		.4byte	.LASF1
 2385 003c 07       		.byte	0x7
 2386 003d 1D       		.byte	0x1d
 2387 003e 42000000 		.4byte	0x42
 2388 0042 03       		.uleb128 0x3
 2389 0043 01       		.byte	0x1
 2390 0044 08       		.byte	0x8
 2391 0045 0B130000 		.4byte	.LASF3
 2392 0049 02       		.uleb128 0x2
 2393 004a 1B0C0000 		.4byte	.LASF4
 2394 004e 07       		.byte	0x7
 2395 004f 29       		.byte	0x29
 2396 0050 54000000 		.4byte	0x54
 2397 0054 03       		.uleb128 0x3
 2398 0055 02       		.byte	0x2
 2399 0056 05       		.byte	0x5
 2400 0057 EC0F0000 		.4byte	.LASF5
 2401 005b 02       		.uleb128 0x2
 2402 005c 15090000 		.4byte	.LASF6
 2403 0060 07       		.byte	0x7
 2404 0061 2B       		.byte	0x2b
 2405 0062 66000000 		.4byte	0x66
 2406 0066 03       		.uleb128 0x3
 2407 0067 02       		.byte	0x2
 2408 0068 07       		.byte	0x7
 2409 0069 410E0000 		.4byte	.LASF7
 2410 006d 02       		.uleb128 0x2
 2411 006e 0C020000 		.4byte	.LASF8
 2412 0072 07       		.byte	0x7
 2413 0073 3F       		.byte	0x3f
 2414 0074 78000000 		.4byte	0x78
 2415 0078 03       		.uleb128 0x3
 2416 0079 04       		.byte	0x4
 2417 007a 05       		.byte	0x5
 2418 007b 05000000 		.4byte	.LASF9
 2419 007f 02       		.uleb128 0x2
 2420 0080 19130000 		.4byte	.LASF10
ARM GAS  C:\Users\tmj32\AppData\Local\Temp\cc1nbtVP.s 			page 69


 2421 0084 07       		.byte	0x7
 2422 0085 41       		.byte	0x41
 2423 0086 8A000000 		.4byte	0x8a
 2424 008a 03       		.uleb128 0x3
 2425 008b 04       		.byte	0x4
 2426 008c 07       		.byte	0x7
 2427 008d 51120000 		.4byte	.LASF11
 2428 0091 03       		.uleb128 0x3
 2429 0092 08       		.byte	0x8
 2430 0093 05       		.byte	0x5
 2431 0094 400B0000 		.4byte	.LASF12
 2432 0098 03       		.uleb128 0x3
 2433 0099 08       		.byte	0x8
 2434 009a 07       		.byte	0x7
 2435 009b 09060000 		.4byte	.LASF13
 2436 009f 04       		.uleb128 0x4
 2437 00a0 04       		.byte	0x4
 2438 00a1 05       		.byte	0x5
 2439 00a2 696E7400 		.ascii	"int\000"
 2440 00a6 03       		.uleb128 0x3
 2441 00a7 04       		.byte	0x4
 2442 00a8 07       		.byte	0x7
 2443 00a9 A3010000 		.4byte	.LASF14
 2444 00ad 03       		.uleb128 0x3
 2445 00ae 08       		.byte	0x8
 2446 00af 04       		.byte	0x4
 2447 00b0 540E0000 		.4byte	.LASF15
 2448 00b4 05       		.uleb128 0x5
 2449 00b5 04       		.byte	0x4
 2450 00b6 03       		.uleb128 0x3
 2451 00b7 04       		.byte	0x4
 2452 00b8 07       		.byte	0x7
 2453 00b9 740F0000 		.4byte	.LASF16
 2454 00bd 06       		.uleb128 0x6
 2455 00be 04       		.byte	0x4
 2456 00bf C3000000 		.4byte	0xc3
 2457 00c3 03       		.uleb128 0x3
 2458 00c4 01       		.byte	0x1
 2459 00c5 08       		.byte	0x8
 2460 00c6 7A090000 		.4byte	.LASF17
 2461 00ca 07       		.uleb128 0x7
 2462 00cb C3000000 		.4byte	0xc3
 2463 00cf DA000000 		.4byte	0xda
 2464 00d3 08       		.uleb128 0x8
 2465 00d4 B6000000 		.4byte	0xb6
 2466 00d8 07       		.byte	0x7
 2467 00d9 00       		.byte	0
 2468 00da 02       		.uleb128 0x2
 2469 00db 1C050000 		.4byte	.LASF18
 2470 00df 08       		.byte	0x8
 2471 00e0 14       		.byte	0x14
 2472 00e1 25000000 		.4byte	0x25
 2473 00e5 02       		.uleb128 0x2
 2474 00e6 860A0000 		.4byte	.LASF19
 2475 00ea 08       		.byte	0x8
 2476 00eb 18       		.byte	0x18
 2477 00ec 37000000 		.4byte	0x37
ARM GAS  C:\Users\tmj32\AppData\Local\Temp\cc1nbtVP.s 			page 70


 2478 00f0 02       		.uleb128 0x2
 2479 00f1 D2050000 		.4byte	.LASF20
 2480 00f5 08       		.byte	0x8
 2481 00f6 20       		.byte	0x20
 2482 00f7 49000000 		.4byte	0x49
 2483 00fb 02       		.uleb128 0x2
 2484 00fc 600E0000 		.4byte	.LASF21
 2485 0100 08       		.byte	0x8
 2486 0101 24       		.byte	0x24
 2487 0102 5B000000 		.4byte	0x5b
 2488 0106 02       		.uleb128 0x2
 2489 0107 81060000 		.4byte	.LASF22
 2490 010b 08       		.byte	0x8
 2491 010c 2C       		.byte	0x2c
 2492 010d 6D000000 		.4byte	0x6d
 2493 0111 02       		.uleb128 0x2
 2494 0112 13050000 		.4byte	.LASF23
 2495 0116 08       		.byte	0x8
 2496 0117 30       		.byte	0x30
 2497 0118 7F000000 		.4byte	0x7f
 2498 011c 02       		.uleb128 0x2
 2499 011d A8150000 		.4byte	.LASF24
 2500 0121 09       		.byte	0x9
 2501 0122 6C       		.byte	0x6c
 2502 0123 A6000000 		.4byte	0xa6
 2503 0127 09       		.uleb128 0x9
 2504 0128 11010000 		.4byte	0x111
 2505 012c 0A       		.uleb128 0xa
 2506 012d B8       		.byte	0xb8
 2507 012e 0A       		.byte	0xa
 2508 012f 34       		.byte	0x34
 2509 0130 3D050000 		.4byte	0x53d
 2510 0134 0B       		.uleb128 0xb
 2511 0135 3F020000 		.4byte	.LASF25
 2512 0139 0A       		.byte	0xa
 2513 013a 37       		.byte	0x37
 2514 013b 11010000 		.4byte	0x111
 2515 013f 00       		.byte	0
 2516 0140 0B       		.uleb128 0xb
 2517 0141 00140000 		.4byte	.LASF26
 2518 0145 0A       		.byte	0xa
 2519 0146 38       		.byte	0x38
 2520 0147 11010000 		.4byte	0x111
 2521 014b 04       		.byte	0x4
 2522 014c 0B       		.uleb128 0xb
 2523 014d 27010000 		.4byte	.LASF27
 2524 0151 0A       		.byte	0xa
 2525 0152 39       		.byte	0x39
 2526 0153 11010000 		.4byte	0x111
 2527 0157 08       		.byte	0x8
 2528 0158 0B       		.uleb128 0xb
 2529 0159 08010000 		.4byte	.LASF28
 2530 015d 0A       		.byte	0xa
 2531 015e 3A       		.byte	0x3a
 2532 015f 11010000 		.4byte	0x111
 2533 0163 0C       		.byte	0xc
 2534 0164 0B       		.uleb128 0xb
ARM GAS  C:\Users\tmj32\AppData\Local\Temp\cc1nbtVP.s 			page 71


 2535 0165 690E0000 		.4byte	.LASF29
 2536 0169 0A       		.byte	0xa
 2537 016a 3B       		.byte	0x3b
 2538 016b 11010000 		.4byte	0x111
 2539 016f 10       		.byte	0x10
 2540 0170 0B       		.uleb128 0xb
 2541 0171 2E0C0000 		.4byte	.LASF30
 2542 0175 0A       		.byte	0xa
 2543 0176 3C       		.byte	0x3c
 2544 0177 11010000 		.4byte	0x111
 2545 017b 14       		.byte	0x14
 2546 017c 0B       		.uleb128 0xb
 2547 017d 79070000 		.4byte	.LASF31
 2548 0181 0A       		.byte	0xa
 2549 0182 3D       		.byte	0x3d
 2550 0183 11010000 		.4byte	0x111
 2551 0187 18       		.byte	0x18
 2552 0188 0B       		.uleb128 0xb
 2553 0189 B40A0000 		.4byte	.LASF32
 2554 018d 0A       		.byte	0xa
 2555 018e 3E       		.byte	0x3e
 2556 018f 11010000 		.4byte	0x111
 2557 0193 1C       		.byte	0x1c
 2558 0194 0B       		.uleb128 0xb
 2559 0195 1E070000 		.4byte	.LASF33
 2560 0199 0A       		.byte	0xa
 2561 019a 3F       		.byte	0x3f
 2562 019b 11010000 		.4byte	0x111
 2563 019f 20       		.byte	0x20
 2564 01a0 0B       		.uleb128 0xb
 2565 01a1 740B0000 		.4byte	.LASF34
 2566 01a5 0A       		.byte	0xa
 2567 01a6 40       		.byte	0x40
 2568 01a7 11010000 		.4byte	0x111
 2569 01ab 24       		.byte	0x24
 2570 01ac 0B       		.uleb128 0xb
 2571 01ad 9B170000 		.4byte	.LASF35
 2572 01b1 0A       		.byte	0xa
 2573 01b2 43       		.byte	0x43
 2574 01b3 E5000000 		.4byte	0xe5
 2575 01b7 28       		.byte	0x28
 2576 01b8 0B       		.uleb128 0xb
 2577 01b9 46100000 		.4byte	.LASF36
 2578 01bd 0A       		.byte	0xa
 2579 01be 44       		.byte	0x44
 2580 01bf E5000000 		.4byte	0xe5
 2581 01c3 29       		.byte	0x29
 2582 01c4 0B       		.uleb128 0xb
 2583 01c5 B9080000 		.4byte	.LASF37
 2584 01c9 0A       		.byte	0xa
 2585 01ca 45       		.byte	0x45
 2586 01cb E5000000 		.4byte	0xe5
 2587 01cf 2A       		.byte	0x2a
 2588 01d0 0B       		.uleb128 0xb
 2589 01d1 9C100000 		.4byte	.LASF38
 2590 01d5 0A       		.byte	0xa
 2591 01d6 46       		.byte	0x46
ARM GAS  C:\Users\tmj32\AppData\Local\Temp\cc1nbtVP.s 			page 72


 2592 01d7 E5000000 		.4byte	0xe5
 2593 01db 2B       		.byte	0x2b
 2594 01dc 0B       		.uleb128 0xb
 2595 01dd 90100000 		.4byte	.LASF39
 2596 01e1 0A       		.byte	0xa
 2597 01e2 47       		.byte	0x47
 2598 01e3 E5000000 		.4byte	0xe5
 2599 01e7 2C       		.byte	0x2c
 2600 01e8 0B       		.uleb128 0xb
 2601 01e9 3A120000 		.4byte	.LASF40
 2602 01ed 0A       		.byte	0xa
 2603 01ee 48       		.byte	0x48
 2604 01ef E5000000 		.4byte	0xe5
 2605 01f3 2D       		.byte	0x2d
 2606 01f4 0B       		.uleb128 0xb
 2607 01f5 080F0000 		.4byte	.LASF41
 2608 01f9 0A       		.byte	0xa
 2609 01fa 49       		.byte	0x49
 2610 01fb E5000000 		.4byte	0xe5
 2611 01ff 2E       		.byte	0x2e
 2612 0200 0B       		.uleb128 0xb
 2613 0201 7F020000 		.4byte	.LASF42
 2614 0205 0A       		.byte	0xa
 2615 0206 4A       		.byte	0x4a
 2616 0207 E5000000 		.4byte	0xe5
 2617 020b 2F       		.byte	0x2f
 2618 020c 0B       		.uleb128 0xb
 2619 020d BC0D0000 		.4byte	.LASF43
 2620 0211 0A       		.byte	0xa
 2621 0212 4B       		.byte	0x4b
 2622 0213 E5000000 		.4byte	0xe5
 2623 0217 30       		.byte	0x30
 2624 0218 0B       		.uleb128 0xb
 2625 0219 070D0000 		.4byte	.LASF44
 2626 021d 0A       		.byte	0xa
 2627 021e 4E       		.byte	0x4e
 2628 021f E5000000 		.4byte	0xe5
 2629 0223 31       		.byte	0x31
 2630 0224 0B       		.uleb128 0xb
 2631 0225 C0140000 		.4byte	.LASF45
 2632 0229 0A       		.byte	0xa
 2633 022a 4F       		.byte	0x4f
 2634 022b E5000000 		.4byte	0xe5
 2635 022f 32       		.byte	0x32
 2636 0230 0B       		.uleb128 0xb
 2637 0231 DC150000 		.4byte	.LASF46
 2638 0235 0A       		.byte	0xa
 2639 0236 50       		.byte	0x50
 2640 0237 E5000000 		.4byte	0xe5
 2641 023b 33       		.byte	0x33
 2642 023c 0B       		.uleb128 0xb
 2643 023d 38090000 		.4byte	.LASF47
 2644 0241 0A       		.byte	0xa
 2645 0242 51       		.byte	0x51
 2646 0243 E5000000 		.4byte	0xe5
 2647 0247 34       		.byte	0x34
 2648 0248 0B       		.uleb128 0xb
ARM GAS  C:\Users\tmj32\AppData\Local\Temp\cc1nbtVP.s 			page 73


 2649 0249 8E140000 		.4byte	.LASF48
 2650 024d 0A       		.byte	0xa
 2651 024e 52       		.byte	0x52
 2652 024f F0000000 		.4byte	0xf0
 2653 0253 36       		.byte	0x36
 2654 0254 0B       		.uleb128 0xb
 2655 0255 4F030000 		.4byte	.LASF49
 2656 0259 0A       		.byte	0xa
 2657 025a 53       		.byte	0x53
 2658 025b F0000000 		.4byte	0xf0
 2659 025f 38       		.byte	0x38
 2660 0260 0B       		.uleb128 0xb
 2661 0261 6C0C0000 		.4byte	.LASF50
 2662 0265 0A       		.byte	0xa
 2663 0266 54       		.byte	0x54
 2664 0267 F0000000 		.4byte	0xf0
 2665 026b 3A       		.byte	0x3a
 2666 026c 0B       		.uleb128 0xb
 2667 026d 16020000 		.4byte	.LASF51
 2668 0271 0A       		.byte	0xa
 2669 0272 55       		.byte	0x55
 2670 0273 E5000000 		.4byte	0xe5
 2671 0277 3C       		.byte	0x3c
 2672 0278 0B       		.uleb128 0xb
 2673 0279 50070000 		.4byte	.LASF52
 2674 027d 0A       		.byte	0xa
 2675 027e 56       		.byte	0x56
 2676 027f E5000000 		.4byte	0xe5
 2677 0283 3D       		.byte	0x3d
 2678 0284 0B       		.uleb128 0xb
 2679 0285 62060000 		.4byte	.LASF53
 2680 0289 0A       		.byte	0xa
 2681 028a 57       		.byte	0x57
 2682 028b E5000000 		.4byte	0xe5
 2683 028f 3E       		.byte	0x3e
 2684 0290 0B       		.uleb128 0xb
 2685 0291 DF000000 		.4byte	.LASF54
 2686 0295 0A       		.byte	0xa
 2687 0296 58       		.byte	0x58
 2688 0297 E5000000 		.4byte	0xe5
 2689 029b 3F       		.byte	0x3f
 2690 029c 0B       		.uleb128 0xb
 2691 029d CC010000 		.4byte	.LASF55
 2692 02a1 0A       		.byte	0xa
 2693 02a2 59       		.byte	0x59
 2694 02a3 E5000000 		.4byte	0xe5
 2695 02a7 40       		.byte	0x40
 2696 02a8 0B       		.uleb128 0xb
 2697 02a9 4E0D0000 		.4byte	.LASF56
 2698 02ad 0A       		.byte	0xa
 2699 02ae 5A       		.byte	0x5a
 2700 02af E5000000 		.4byte	0xe5
 2701 02b3 41       		.byte	0x41
 2702 02b4 0B       		.uleb128 0xb
 2703 02b5 9E050000 		.4byte	.LASF57
 2704 02b9 0A       		.byte	0xa
 2705 02ba 5B       		.byte	0x5b
ARM GAS  C:\Users\tmj32\AppData\Local\Temp\cc1nbtVP.s 			page 74


 2706 02bb E5000000 		.4byte	0xe5
 2707 02bf 42       		.byte	0x42
 2708 02c0 0B       		.uleb128 0xb
 2709 02c1 E5080000 		.4byte	.LASF58
 2710 02c5 0A       		.byte	0xa
 2711 02c6 5C       		.byte	0x5c
 2712 02c7 E5000000 		.4byte	0xe5
 2713 02cb 43       		.byte	0x43
 2714 02cc 0B       		.uleb128 0xb
 2715 02cd CE090000 		.4byte	.LASF59
 2716 02d1 0A       		.byte	0xa
 2717 02d2 5D       		.byte	0x5d
 2718 02d3 E5000000 		.4byte	0xe5
 2719 02d7 44       		.byte	0x44
 2720 02d8 0B       		.uleb128 0xb
 2721 02d9 AA100000 		.4byte	.LASF60
 2722 02dd 0A       		.byte	0xa
 2723 02de 5E       		.byte	0x5e
 2724 02df 11010000 		.4byte	0x111
 2725 02e3 48       		.byte	0x48
 2726 02e4 0B       		.uleb128 0xb
 2727 02e5 16030000 		.4byte	.LASF61
 2728 02e9 0A       		.byte	0xa
 2729 02ea 5F       		.byte	0x5f
 2730 02eb 11010000 		.4byte	0x111
 2731 02ef 4C       		.byte	0x4c
 2732 02f0 0B       		.uleb128 0xb
 2733 02f1 37140000 		.4byte	.LASF62
 2734 02f5 0A       		.byte	0xa
 2735 02f6 60       		.byte	0x60
 2736 02f7 E5000000 		.4byte	0xe5
 2737 02fb 50       		.byte	0x50
 2738 02fc 0B       		.uleb128 0xb
 2739 02fd A9070000 		.4byte	.LASF63
 2740 0301 0A       		.byte	0xa
 2741 0302 61       		.byte	0x61
 2742 0303 E5000000 		.4byte	0xe5
 2743 0307 51       		.byte	0x51
 2744 0308 0B       		.uleb128 0xb
 2745 0309 BC0B0000 		.4byte	.LASF64
 2746 030d 0A       		.byte	0xa
 2747 030e 62       		.byte	0x62
 2748 030f E5000000 		.4byte	0xe5
 2749 0313 52       		.byte	0x52
 2750 0314 0B       		.uleb128 0xb
 2751 0315 F40D0000 		.4byte	.LASF65
 2752 0319 0A       		.byte	0xa
 2753 031a 63       		.byte	0x63
 2754 031b E5000000 		.4byte	0xe5
 2755 031f 53       		.byte	0x53
 2756 0320 0B       		.uleb128 0xb
 2757 0321 9F130000 		.4byte	.LASF66
 2758 0325 0A       		.byte	0xa
 2759 0326 64       		.byte	0x64
 2760 0327 E5000000 		.4byte	0xe5
 2761 032b 54       		.byte	0x54
 2762 032c 0B       		.uleb128 0xb
ARM GAS  C:\Users\tmj32\AppData\Local\Temp\cc1nbtVP.s 			page 75


 2763 032d 32080000 		.4byte	.LASF67
 2764 0331 0A       		.byte	0xa
 2765 0332 65       		.byte	0x65
 2766 0333 E5000000 		.4byte	0xe5
 2767 0337 55       		.byte	0x55
 2768 0338 0B       		.uleb128 0xb
 2769 0339 68140000 		.4byte	.LASF68
 2770 033d 0A       		.byte	0xa
 2771 033e 66       		.byte	0x66
 2772 033f E5000000 		.4byte	0xe5
 2773 0343 56       		.byte	0x56
 2774 0344 0B       		.uleb128 0xb
 2775 0345 1B0F0000 		.4byte	.LASF69
 2776 0349 0A       		.byte	0xa
 2777 034a 67       		.byte	0x67
 2778 034b E5000000 		.4byte	0xe5
 2779 034f 57       		.byte	0x57
 2780 0350 0B       		.uleb128 0xb
 2781 0351 3C070000 		.4byte	.LASF70
 2782 0355 0A       		.byte	0xa
 2783 0356 68       		.byte	0x68
 2784 0357 E5000000 		.4byte	0xe5
 2785 035b 58       		.byte	0x58
 2786 035c 0B       		.uleb128 0xb
 2787 035d 0B160000 		.4byte	.LASF71
 2788 0361 0A       		.byte	0xa
 2789 0362 69       		.byte	0x69
 2790 0363 E5000000 		.4byte	0xe5
 2791 0367 59       		.byte	0x59
 2792 0368 0B       		.uleb128 0xb
 2793 0369 B5140000 		.4byte	.LASF72
 2794 036d 0A       		.byte	0xa
 2795 036e 6E       		.byte	0x6e
 2796 036f FB000000 		.4byte	0xfb
 2797 0373 5A       		.byte	0x5a
 2798 0374 0B       		.uleb128 0xb
 2799 0375 76010000 		.4byte	.LASF73
 2800 0379 0A       		.byte	0xa
 2801 037a 6F       		.byte	0x6f
 2802 037b FB000000 		.4byte	0xfb
 2803 037f 5C       		.byte	0x5c
 2804 0380 0B       		.uleb128 0xb
 2805 0381 F2010000 		.4byte	.LASF74
 2806 0385 0A       		.byte	0xa
 2807 0386 70       		.byte	0x70
 2808 0387 E5000000 		.4byte	0xe5
 2809 038b 5E       		.byte	0x5e
 2810 038c 0B       		.uleb128 0xb
 2811 038d EA140000 		.4byte	.LASF75
 2812 0391 0A       		.byte	0xa
 2813 0392 71       		.byte	0x71
 2814 0393 E5000000 		.4byte	0xe5
 2815 0397 5F       		.byte	0x5f
 2816 0398 0B       		.uleb128 0xb
 2817 0399 04090000 		.4byte	.LASF76
 2818 039d 0A       		.byte	0xa
 2819 039e 72       		.byte	0x72
ARM GAS  C:\Users\tmj32\AppData\Local\Temp\cc1nbtVP.s 			page 76


 2820 039f E5000000 		.4byte	0xe5
 2821 03a3 60       		.byte	0x60
 2822 03a4 0B       		.uleb128 0xb
 2823 03a5 5C0A0000 		.4byte	.LASF77
 2824 03a9 0A       		.byte	0xa
 2825 03aa 73       		.byte	0x73
 2826 03ab 11010000 		.4byte	0x111
 2827 03af 64       		.byte	0x64
 2828 03b0 0B       		.uleb128 0xb
 2829 03b1 2F0F0000 		.4byte	.LASF78
 2830 03b5 0A       		.byte	0xa
 2831 03b6 76       		.byte	0x76
 2832 03b7 FB000000 		.4byte	0xfb
 2833 03bb 68       		.byte	0x68
 2834 03bc 0B       		.uleb128 0xb
 2835 03bd 900E0000 		.4byte	.LASF79
 2836 03c1 0A       		.byte	0xa
 2837 03c2 77       		.byte	0x77
 2838 03c3 FB000000 		.4byte	0xfb
 2839 03c7 6A       		.byte	0x6a
 2840 03c8 0B       		.uleb128 0xb
 2841 03c9 5D0C0000 		.4byte	.LASF80
 2842 03cd 0A       		.byte	0xa
 2843 03ce 78       		.byte	0x78
 2844 03cf FB000000 		.4byte	0xfb
 2845 03d3 6C       		.byte	0x6c
 2846 03d4 0B       		.uleb128 0xb
 2847 03d5 09030000 		.4byte	.LASF81
 2848 03d9 0A       		.byte	0xa
 2849 03da 79       		.byte	0x79
 2850 03db FB000000 		.4byte	0xfb
 2851 03df 6E       		.byte	0x6e
 2852 03e0 0B       		.uleb128 0xb
 2853 03e1 BD0A0000 		.4byte	.LASF82
 2854 03e5 0A       		.byte	0xa
 2855 03e6 7B       		.byte	0x7b
 2856 03e7 E5000000 		.4byte	0xe5
 2857 03eb 70       		.byte	0x70
 2858 03ec 0B       		.uleb128 0xb
 2859 03ed C1030000 		.4byte	.LASF83
 2860 03f1 0A       		.byte	0xa
 2861 03f2 7C       		.byte	0x7c
 2862 03f3 E5000000 		.4byte	0xe5
 2863 03f7 71       		.byte	0x71
 2864 03f8 0B       		.uleb128 0xb
 2865 03f9 A9060000 		.4byte	.LASF84
 2866 03fd 0A       		.byte	0xa
 2867 03fe 7D       		.byte	0x7d
 2868 03ff E5000000 		.4byte	0xe5
 2869 0403 72       		.byte	0x72
 2870 0404 0B       		.uleb128 0xb
 2871 0405 A2090000 		.4byte	.LASF85
 2872 0409 0A       		.byte	0xa
 2873 040a 7E       		.byte	0x7e
 2874 040b E5000000 		.4byte	0xe5
 2875 040f 73       		.byte	0x73
 2876 0410 0B       		.uleb128 0xb
ARM GAS  C:\Users\tmj32\AppData\Local\Temp\cc1nbtVP.s 			page 77


 2877 0411 B40F0000 		.4byte	.LASF86
 2878 0415 0A       		.byte	0xa
 2879 0416 80       		.byte	0x80
 2880 0417 FB000000 		.4byte	0xfb
 2881 041b 74       		.byte	0x74
 2882 041c 0B       		.uleb128 0xb
 2883 041d F60F0000 		.4byte	.LASF87
 2884 0421 0A       		.byte	0xa
 2885 0422 81       		.byte	0x81
 2886 0423 FB000000 		.4byte	0xfb
 2887 0427 76       		.byte	0x76
 2888 0428 0B       		.uleb128 0xb
 2889 0429 C7150000 		.4byte	.LASF88
 2890 042d 0A       		.byte	0xa
 2891 042e 82       		.byte	0x82
 2892 042f FB000000 		.4byte	0xfb
 2893 0433 78       		.byte	0x78
 2894 0434 0B       		.uleb128 0xb
 2895 0435 910B0000 		.4byte	.LASF89
 2896 0439 0A       		.byte	0xa
 2897 043a 83       		.byte	0x83
 2898 043b FB000000 		.4byte	0xfb
 2899 043f 7A       		.byte	0x7a
 2900 0440 0B       		.uleb128 0xb
 2901 0441 A2110000 		.4byte	.LASF90
 2902 0445 0A       		.byte	0xa
 2903 0446 86       		.byte	0x86
 2904 0447 E5000000 		.4byte	0xe5
 2905 044b 7C       		.byte	0x7c
 2906 044c 0B       		.uleb128 0xb
 2907 044d 48140000 		.4byte	.LASF91
 2908 0451 0A       		.byte	0xa
 2909 0452 87       		.byte	0x87
 2910 0453 E5000000 		.4byte	0xe5
 2911 0457 7D       		.byte	0x7d
 2912 0458 0B       		.uleb128 0xb
 2913 0459 DA050000 		.4byte	.LASF92
 2914 045d 0A       		.byte	0xa
 2915 045e 88       		.byte	0x88
 2916 045f E5000000 		.4byte	0xe5
 2917 0463 7E       		.byte	0x7e
 2918 0464 0B       		.uleb128 0xb
 2919 0465 49050000 		.4byte	.LASF93
 2920 0469 0A       		.byte	0xa
 2921 046a 89       		.byte	0x89
 2922 046b E5000000 		.4byte	0xe5
 2923 046f 7F       		.byte	0x7f
 2924 0470 0B       		.uleb128 0xb
 2925 0471 2F060000 		.4byte	.LASF94
 2926 0475 0A       		.byte	0xa
 2927 0476 8A       		.byte	0x8a
 2928 0477 E5000000 		.4byte	0xe5
 2929 047b 80       		.byte	0x80
 2930 047c 0B       		.uleb128 0xb
 2931 047d C8000000 		.4byte	.LASF95
 2932 0481 0A       		.byte	0xa
 2933 0482 8D       		.byte	0x8d
ARM GAS  C:\Users\tmj32\AppData\Local\Temp\cc1nbtVP.s 			page 78


 2934 0483 11010000 		.4byte	0x111
 2935 0487 84       		.byte	0x84
 2936 0488 0B       		.uleb128 0xb
 2937 0489 EA110000 		.4byte	.LASF96
 2938 048d 0A       		.byte	0xa
 2939 048e 8E       		.byte	0x8e
 2940 048f 11010000 		.4byte	0x111
 2941 0493 88       		.byte	0x88
 2942 0494 0B       		.uleb128 0xb
 2943 0495 390D0000 		.4byte	.LASF97
 2944 0499 0A       		.byte	0xa
 2945 049a 8F       		.byte	0x8f
 2946 049b 11010000 		.4byte	0x111
 2947 049f 8C       		.byte	0x8c
 2948 04a0 0B       		.uleb128 0xb
 2949 04a1 34170000 		.4byte	.LASF98
 2950 04a5 0A       		.byte	0xa
 2951 04a6 90       		.byte	0x90
 2952 04a7 11010000 		.4byte	0x111
 2953 04ab 90       		.byte	0x90
 2954 04ac 0B       		.uleb128 0xb
 2955 04ad 6A110000 		.4byte	.LASF99
 2956 04b1 0A       		.byte	0xa
 2957 04b2 91       		.byte	0x91
 2958 04b3 11010000 		.4byte	0x111
 2959 04b7 94       		.byte	0x94
 2960 04b8 0B       		.uleb128 0xb
 2961 04b9 D6030000 		.4byte	.LASF100
 2962 04bd 0A       		.byte	0xa
 2963 04be 92       		.byte	0x92
 2964 04bf 11010000 		.4byte	0x111
 2965 04c3 98       		.byte	0x98
 2966 04c4 0B       		.uleb128 0xb
 2967 04c5 18120000 		.4byte	.LASF101
 2968 04c9 0A       		.byte	0xa
 2969 04ca 93       		.byte	0x93
 2970 04cb 11010000 		.4byte	0x111
 2971 04cf 9C       		.byte	0x9c
 2972 04d0 0B       		.uleb128 0xb
 2973 04d1 CF080000 		.4byte	.LASF102
 2974 04d5 0A       		.byte	0xa
 2975 04d6 94       		.byte	0x94
 2976 04d7 11010000 		.4byte	0x111
 2977 04db A0       		.byte	0xa0
 2978 04dc 0B       		.uleb128 0xb
 2979 04dd EC030000 		.4byte	.LASF103
 2980 04e1 0A       		.byte	0xa
 2981 04e2 95       		.byte	0x95
 2982 04e3 FB000000 		.4byte	0xfb
 2983 04e7 A4       		.byte	0xa4
 2984 04e8 0B       		.uleb128 0xb
 2985 04e9 940F0000 		.4byte	.LASF104
 2986 04ed 0A       		.byte	0xa
 2987 04ee 96       		.byte	0x96
 2988 04ef FB000000 		.4byte	0xfb
 2989 04f3 A6       		.byte	0xa6
 2990 04f4 0B       		.uleb128 0xb
ARM GAS  C:\Users\tmj32\AppData\Local\Temp\cc1nbtVP.s 			page 79


 2991 04f5 6C120000 		.4byte	.LASF105
 2992 04f9 0A       		.byte	0xa
 2993 04fa 97       		.byte	0x97
 2994 04fb FB000000 		.4byte	0xfb
 2995 04ff A8       		.byte	0xa8
 2996 0500 0B       		.uleb128 0xb
 2997 0501 320B0000 		.4byte	.LASF106
 2998 0505 0A       		.byte	0xa
 2999 0506 98       		.byte	0x98
 3000 0507 FB000000 		.4byte	0xfb
 3001 050b AA       		.byte	0xaa
 3002 050c 0B       		.uleb128 0xb
 3003 050d 24030000 		.4byte	.LASF107
 3004 0511 0A       		.byte	0xa
 3005 0512 99       		.byte	0x99
 3006 0513 FB000000 		.4byte	0xfb
 3007 0517 AC       		.byte	0xac
 3008 0518 0B       		.uleb128 0xb
 3009 0519 6F0D0000 		.4byte	.LASF108
 3010 051d 0A       		.byte	0xa
 3011 051e 9A       		.byte	0x9a
 3012 051f FB000000 		.4byte	0xfb
 3013 0523 AE       		.byte	0xae
 3014 0524 0B       		.uleb128 0xb
 3015 0525 32030000 		.4byte	.LASF109
 3016 0529 0A       		.byte	0xa
 3017 052a 9D       		.byte	0x9d
 3018 052b FB000000 		.4byte	0xfb
 3019 052f B0       		.byte	0xb0
 3020 0530 0B       		.uleb128 0xb
 3021 0531 A5080000 		.4byte	.LASF110
 3022 0535 0A       		.byte	0xa
 3023 0536 9E       		.byte	0x9e
 3024 0537 11010000 		.4byte	0x111
 3025 053b B4       		.byte	0xb4
 3026 053c 00       		.byte	0
 3027 053d 02       		.uleb128 0x2
 3028 053e 3F150000 		.4byte	.LASF111
 3029 0542 0A       		.byte	0xa
 3030 0543 9F       		.byte	0x9f
 3031 0544 2C010000 		.4byte	0x12c
 3032 0548 03       		.uleb128 0x3
 3033 0549 04       		.byte	0x4
 3034 054a 04       		.byte	0x4
 3035 054b 77050000 		.4byte	.LASF112
 3036 054f 03       		.uleb128 0x3
 3037 0550 08       		.byte	0x8
 3038 0551 04       		.byte	0x4
 3039 0552 AD150000 		.4byte	.LASF113
 3040 0556 03       		.uleb128 0x3
 3041 0557 01       		.byte	0x1
 3042 0558 02       		.byte	0x2
 3043 0559 22080000 		.4byte	.LASF114
 3044 055d 0C       		.uleb128 0xc
 3045 055e 01       		.byte	0x1
 3046 055f 42000000 		.4byte	0x42
 3047 0563 0B       		.byte	0xb
ARM GAS  C:\Users\tmj32\AppData\Local\Temp\cc1nbtVP.s 			page 80


 3048 0564 2402     		.2byte	0x224
 3049 0566 77050000 		.4byte	0x577
 3050 056a 0D       		.uleb128 0xd
 3051 056b 6B090000 		.4byte	.LASF115
 3052 056f 00       		.byte	0
 3053 0570 0D       		.uleb128 0xd
 3054 0571 40030000 		.4byte	.LASF116
 3055 0575 01       		.byte	0x1
 3056 0576 00       		.byte	0
 3057 0577 0E       		.uleb128 0xe
 3058 0578 DA020000 		.4byte	.LASF117
 3059 057c 0B       		.byte	0xb
 3060 057d 2702     		.2byte	0x227
 3061 057f 5D050000 		.4byte	0x55d
 3062 0583 0E       		.uleb128 0xe
 3063 0584 FD0B0000 		.4byte	.LASF118
 3064 0588 0B       		.byte	0xb
 3065 0589 3902     		.2byte	0x239
 3066 058b 8F050000 		.4byte	0x58f
 3067 058f 06       		.uleb128 0x6
 3068 0590 04       		.byte	0x4
 3069 0591 95050000 		.4byte	0x595
 3070 0595 0F       		.uleb128 0xf
 3071 0596 A0050000 		.4byte	0x5a0
 3072 059a 10       		.uleb128 0x10
 3073 059b 11010000 		.4byte	0x111
 3074 059f 00       		.byte	0
 3075 05a0 0E       		.uleb128 0xe
 3076 05a1 5A030000 		.4byte	.LASF119
 3077 05a5 0B       		.byte	0xb
 3078 05a6 4402     		.2byte	0x244
 3079 05a8 AC050000 		.4byte	0x5ac
 3080 05ac 06       		.uleb128 0x6
 3081 05ad 04       		.byte	0x4
 3082 05ae B2050000 		.4byte	0x5b2
 3083 05b2 11       		.uleb128 0x11
 3084 05b3 77050000 		.4byte	0x577
 3085 05b7 C1050000 		.4byte	0x5c1
 3086 05bb 10       		.uleb128 0x10
 3087 05bc 11010000 		.4byte	0x111
 3088 05c0 00       		.byte	0
 3089 05c1 12       		.uleb128 0x12
 3090 05c2 9A030000 		.4byte	.LASF143
 3091 05c6 4C       		.byte	0x4c
 3092 05c7 0B       		.byte	0xb
 3093 05c8 C302     		.2byte	0x2c3
 3094 05ca E0060000 		.4byte	0x6e0
 3095 05ce 13       		.uleb128 0x13
 3096 05cf 46080000 		.4byte	.LASF120
 3097 05d3 0B       		.byte	0xb
 3098 05d4 C602     		.2byte	0x2c6
 3099 05d6 56050000 		.4byte	0x556
 3100 05da 00       		.byte	0
 3101 05db 13       		.uleb128 0x13
 3102 05dc EE0B0000 		.4byte	.LASF121
 3103 05e0 0B       		.byte	0xb
 3104 05e1 C702     		.2byte	0x2c7
ARM GAS  C:\Users\tmj32\AppData\Local\Temp\cc1nbtVP.s 			page 81


 3105 05e3 56050000 		.4byte	0x556
 3106 05e7 01       		.byte	0x1
 3107 05e8 13       		.uleb128 0x13
 3108 05e9 DD130000 		.4byte	.LASF122
 3109 05ed 0B       		.byte	0xb
 3110 05ee C902     		.2byte	0x2c9
 3111 05f0 27010000 		.4byte	0x127
 3112 05f4 04       		.byte	0x4
 3113 05f5 13       		.uleb128 0x13
 3114 05f6 EB000000 		.4byte	.LASF123
 3115 05fa 0B       		.byte	0xb
 3116 05fb CB02     		.2byte	0x2cb
 3117 05fd 27010000 		.4byte	0x127
 3118 0601 08       		.byte	0x8
 3119 0602 13       		.uleb128 0x13
 3120 0603 880D0000 		.4byte	.LASF124
 3121 0607 0B       		.byte	0xb
 3122 0608 CC02     		.2byte	0x2cc
 3123 060a 56050000 		.4byte	0x556
 3124 060e 0C       		.byte	0xc
 3125 060f 13       		.uleb128 0x13
 3126 0610 380C0000 		.4byte	.LASF125
 3127 0614 0B       		.byte	0xb
 3128 0615 CD02     		.2byte	0x2cd
 3129 0617 56050000 		.4byte	0x556
 3130 061b 0D       		.byte	0xd
 3131 061c 13       		.uleb128 0x13
 3132 061d A20E0000 		.4byte	.LASF126
 3133 0621 0B       		.byte	0xb
 3134 0622 CF02     		.2byte	0x2cf
 3135 0624 E0060000 		.4byte	0x6e0
 3136 0628 10       		.byte	0x10
 3137 0629 13       		.uleb128 0x13
 3138 062a DF090000 		.4byte	.LASF127
 3139 062e 0B       		.byte	0xb
 3140 062f D002     		.2byte	0x2d0
 3141 0631 11010000 		.4byte	0x111
 3142 0635 14       		.byte	0x14
 3143 0636 13       		.uleb128 0x13
 3144 0637 BC010000 		.4byte	.LASF128
 3145 063b 0B       		.byte	0xb
 3146 063c D102     		.2byte	0x2d1
 3147 063e 27010000 		.4byte	0x127
 3148 0642 18       		.byte	0x18
 3149 0643 13       		.uleb128 0x13
 3150 0644 BB070000 		.4byte	.LASF129
 3151 0648 0B       		.byte	0xb
 3152 0649 D202     		.2byte	0x2d2
 3153 064b 27010000 		.4byte	0x127
 3154 064f 1C       		.byte	0x1c
 3155 0650 13       		.uleb128 0x13
 3156 0651 C5170000 		.4byte	.LASF130
 3157 0655 0B       		.byte	0xb
 3158 0656 D402     		.2byte	0x2d4
 3159 0658 27010000 		.4byte	0x127
 3160 065c 20       		.byte	0x20
 3161 065d 13       		.uleb128 0x13
ARM GAS  C:\Users\tmj32\AppData\Local\Temp\cc1nbtVP.s 			page 82


 3162 065e F9020000 		.4byte	.LASF131
 3163 0662 0B       		.byte	0xb
 3164 0663 D502     		.2byte	0x2d5
 3165 0665 E6060000 		.4byte	0x6e6
 3166 0669 24       		.byte	0x24
 3167 066a 13       		.uleb128 0x13
 3168 066b 26040000 		.4byte	.LASF132
 3169 066f 0B       		.byte	0xb
 3170 0670 D702     		.2byte	0x2d7
 3171 0672 E0060000 		.4byte	0x6e0
 3172 0676 28       		.byte	0x28
 3173 0677 13       		.uleb128 0x13
 3174 0678 97060000 		.4byte	.LASF133
 3175 067c 0B       		.byte	0xb
 3176 067d D802     		.2byte	0x2d8
 3177 067f 11010000 		.4byte	0x111
 3178 0683 2C       		.byte	0x2c
 3179 0684 13       		.uleb128 0x13
 3180 0685 EB040000 		.4byte	.LASF134
 3181 0689 0B       		.byte	0xb
 3182 068a D902     		.2byte	0x2d9
 3183 068c 27010000 		.4byte	0x127
 3184 0690 30       		.byte	0x30
 3185 0691 13       		.uleb128 0x13
 3186 0692 9A0A0000 		.4byte	.LASF135
 3187 0696 0B       		.byte	0xb
 3188 0697 DA02     		.2byte	0x2da
 3189 0699 27010000 		.4byte	0x127
 3190 069d 34       		.byte	0x34
 3191 069e 13       		.uleb128 0x13
 3192 069f 58020000 		.4byte	.LASF136
 3193 06a3 0B       		.byte	0xb
 3194 06a4 DC02     		.2byte	0x2dc
 3195 06a6 E0060000 		.4byte	0x6e0
 3196 06aa 38       		.byte	0x38
 3197 06ab 13       		.uleb128 0x13
 3198 06ac 0C0E0000 		.4byte	.LASF137
 3199 06b0 0B       		.byte	0xb
 3200 06b1 DD02     		.2byte	0x2dd
 3201 06b3 11010000 		.4byte	0x111
 3202 06b7 3C       		.byte	0x3c
 3203 06b8 13       		.uleb128 0x13
 3204 06b9 5E0D0000 		.4byte	.LASF138
 3205 06bd 0B       		.byte	0xb
 3206 06be DE02     		.2byte	0x2de
 3207 06c0 27010000 		.4byte	0x127
 3208 06c4 40       		.byte	0x40
 3209 06c5 13       		.uleb128 0x13
 3210 06c6 D5070000 		.4byte	.LASF139
 3211 06ca 0B       		.byte	0xb
 3212 06cb E402     		.2byte	0x2e4
 3213 06cd 83050000 		.4byte	0x583
 3214 06d1 44       		.byte	0x44
 3215 06d2 13       		.uleb128 0x13
 3216 06d3 90020000 		.4byte	.LASF140
 3217 06d7 0B       		.byte	0xb
 3218 06d8 EB02     		.2byte	0x2eb
ARM GAS  C:\Users\tmj32\AppData\Local\Temp\cc1nbtVP.s 			page 83


 3219 06da A0050000 		.4byte	0x5a0
 3220 06de 48       		.byte	0x48
 3221 06df 00       		.byte	0
 3222 06e0 06       		.uleb128 0x6
 3223 06e1 04       		.byte	0x4
 3224 06e2 E5000000 		.4byte	0xe5
 3225 06e6 09       		.uleb128 0x9
 3226 06e7 56050000 		.4byte	0x556
 3227 06eb 0E       		.uleb128 0xe
 3228 06ec E8150000 		.4byte	.LASF141
 3229 06f0 0B       		.byte	0xb
 3230 06f1 EE02     		.2byte	0x2ee
 3231 06f3 C1050000 		.4byte	0x5c1
 3232 06f7 0E       		.uleb128 0xe
 3233 06f8 2F000000 		.4byte	.LASF142
 3234 06fc 0C       		.byte	0xc
 3235 06fd F201     		.2byte	0x1f2
 3236 06ff 8F050000 		.4byte	0x58f
 3237 0703 12       		.uleb128 0x12
 3238 0704 91150000 		.4byte	.LASF144
 3239 0708 24       		.byte	0x24
 3240 0709 0C       		.byte	0xc
 3241 070a 7402     		.2byte	0x274
 3242 070c 86070000 		.4byte	0x786
 3243 0710 13       		.uleb128 0x13
 3244 0711 8E0A0000 		.4byte	.LASF145
 3245 0715 0C       		.byte	0xc
 3246 0716 7702     		.2byte	0x277
 3247 0718 27010000 		.4byte	0x127
 3248 071c 00       		.byte	0
 3249 071d 13       		.uleb128 0x13
 3250 071e 18070000 		.4byte	.LASF146
 3251 0722 0C       		.byte	0xc
 3252 0723 7902     		.2byte	0x279
 3253 0725 B4000000 		.4byte	0xb4
 3254 0729 04       		.byte	0x4
 3255 072a 13       		.uleb128 0x13
 3256 072b B5170000 		.4byte	.LASF147
 3257 072f 0C       		.byte	0xc
 3258 0730 7A02     		.2byte	0x27a
 3259 0732 11010000 		.4byte	0x111
 3260 0736 08       		.byte	0x8
 3261 0737 13       		.uleb128 0x13
 3262 0738 310A0000 		.4byte	.LASF148
 3263 073c 0C       		.byte	0xc
 3264 073d 7B02     		.2byte	0x27b
 3265 073f 27010000 		.4byte	0x127
 3266 0743 0C       		.byte	0xc
 3267 0744 13       		.uleb128 0x13
 3268 0745 D60D0000 		.4byte	.LASF149
 3269 0749 0C       		.byte	0xc
 3270 074a 7D02     		.2byte	0x27d
 3271 074c B4000000 		.4byte	0xb4
 3272 0750 10       		.byte	0x10
 3273 0751 13       		.uleb128 0x13
 3274 0752 FD0C0000 		.4byte	.LASF150
 3275 0756 0C       		.byte	0xc
ARM GAS  C:\Users\tmj32\AppData\Local\Temp\cc1nbtVP.s 			page 84


 3276 0757 7E02     		.2byte	0x27e
 3277 0759 11010000 		.4byte	0x111
 3278 075d 14       		.byte	0x14
 3279 075e 13       		.uleb128 0x13
 3280 075f E50B0000 		.4byte	.LASF151
 3281 0763 0C       		.byte	0xc
 3282 0764 7F02     		.2byte	0x27f
 3283 0766 27010000 		.4byte	0x127
 3284 076a 18       		.byte	0x18
 3285 076b 13       		.uleb128 0x13
 3286 076c D5070000 		.4byte	.LASF139
 3287 0770 0C       		.byte	0xc
 3288 0771 8502     		.2byte	0x285
 3289 0773 F7060000 		.4byte	0x6f7
 3290 0777 1C       		.byte	0x1c
 3291 0778 13       		.uleb128 0x13
 3292 0779 4E0A0000 		.4byte	.LASF152
 3293 077d 0C       		.byte	0xc
 3294 077e 8802     		.2byte	0x288
 3295 0780 11010000 		.4byte	0x111
 3296 0784 20       		.byte	0x20
 3297 0785 00       		.byte	0
 3298 0786 0E       		.uleb128 0xe
 3299 0787 8D0C0000 		.4byte	.LASF153
 3300 078b 0C       		.byte	0xc
 3301 078c 8B02     		.2byte	0x28b
 3302 078e 03070000 		.4byte	0x703
 3303 0792 14       		.uleb128 0x14
 3304 0793 CE140000 		.4byte	.LASF154
 3305 0797 4C       		.byte	0x4c
 3306 0798 0D       		.byte	0xd
 3307 0799 2F       		.byte	0x2f
 3308 079a 83080000 		.4byte	0x883
 3309 079e 0B       		.uleb128 0xb
 3310 079f A7140000 		.4byte	.LASF155
 3311 07a3 0D       		.byte	0xd
 3312 07a4 31       		.byte	0x31
 3313 07a5 11010000 		.4byte	0x111
 3314 07a9 00       		.byte	0
 3315 07aa 0B       		.uleb128 0xb
 3316 07ab 150A0000 		.4byte	.LASF156
 3317 07af 0D       		.byte	0xd
 3318 07b0 33       		.byte	0x33
 3319 07b1 11010000 		.4byte	0x111
 3320 07b5 04       		.byte	0x4
 3321 07b6 0B       		.uleb128 0xb
 3322 07b7 880E0000 		.4byte	.LASF157
 3323 07bb 0D       		.byte	0xd
 3324 07bc 34       		.byte	0x34
 3325 07bd 11010000 		.4byte	0x111
 3326 07c1 08       		.byte	0x8
 3327 07c2 0B       		.uleb128 0xb
 3328 07c3 CE100000 		.4byte	.LASF158
 3329 07c7 0D       		.byte	0xd
 3330 07c8 35       		.byte	0x35
 3331 07c9 11010000 		.4byte	0x111
 3332 07cd 0C       		.byte	0xc
ARM GAS  C:\Users\tmj32\AppData\Local\Temp\cc1nbtVP.s 			page 85


 3333 07ce 0B       		.uleb128 0xb
 3334 07cf 040A0000 		.4byte	.LASF159
 3335 07d3 0D       		.byte	0xd
 3336 07d4 37       		.byte	0x37
 3337 07d5 11010000 		.4byte	0x111
 3338 07d9 10       		.byte	0x10
 3339 07da 0B       		.uleb128 0xb
 3340 07db 76030000 		.4byte	.LASF160
 3341 07df 0D       		.byte	0xd
 3342 07e0 38       		.byte	0x38
 3343 07e1 11010000 		.4byte	0x111
 3344 07e5 14       		.byte	0x14
 3345 07e6 0B       		.uleb128 0xb
 3346 07e7 7F030000 		.4byte	.LASF161
 3347 07eb 0D       		.byte	0xd
 3348 07ec 39       		.byte	0x39
 3349 07ed 11010000 		.4byte	0x111
 3350 07f1 18       		.byte	0x18
 3351 07f2 0B       		.uleb128 0xb
 3352 07f3 940D0000 		.4byte	.LASF162
 3353 07f7 0D       		.byte	0xd
 3354 07f8 3A       		.byte	0x3a
 3355 07f9 56050000 		.4byte	0x556
 3356 07fd 1C       		.byte	0x1c
 3357 07fe 0B       		.uleb128 0xb
 3358 07ff 10100000 		.4byte	.LASF163
 3359 0803 0D       		.byte	0xd
 3360 0804 3C       		.byte	0x3c
 3361 0805 11010000 		.4byte	0x111
 3362 0809 20       		.byte	0x20
 3363 080a 0B       		.uleb128 0xb
 3364 080b D4060000 		.4byte	.LASF164
 3365 080f 0D       		.byte	0xd
 3366 0810 3D       		.byte	0x3d
 3367 0811 11010000 		.4byte	0x111
 3368 0815 24       		.byte	0x24
 3369 0816 0B       		.uleb128 0xb
 3370 0817 49090000 		.4byte	.LASF165
 3371 081b 0D       		.byte	0xd
 3372 081c 3F       		.byte	0x3f
 3373 081d 11010000 		.4byte	0x111
 3374 0821 28       		.byte	0x28
 3375 0822 0B       		.uleb128 0xb
 3376 0823 AF0C0000 		.4byte	.LASF166
 3377 0827 0D       		.byte	0xd
 3378 0828 40       		.byte	0x40
 3379 0829 11010000 		.4byte	0x111
 3380 082d 2C       		.byte	0x2c
 3381 082e 0B       		.uleb128 0xb
 3382 082f C6050000 		.4byte	.LASF167
 3383 0833 0D       		.byte	0xd
 3384 0834 42       		.byte	0x42
 3385 0835 11010000 		.4byte	0x111
 3386 0839 30       		.byte	0x30
 3387 083a 0B       		.uleb128 0xb
 3388 083b BF060000 		.4byte	.LASF168
 3389 083f 0D       		.byte	0xd
ARM GAS  C:\Users\tmj32\AppData\Local\Temp\cc1nbtVP.s 			page 86


 3390 0840 43       		.byte	0x43
 3391 0841 11010000 		.4byte	0x111
 3392 0845 34       		.byte	0x34
 3393 0846 0B       		.uleb128 0xb
 3394 0847 01020000 		.4byte	.LASF169
 3395 084b 0D       		.byte	0xd
 3396 084c 45       		.byte	0x45
 3397 084d 11010000 		.4byte	0x111
 3398 0851 38       		.byte	0x38
 3399 0852 0B       		.uleb128 0xb
 3400 0853 69000000 		.4byte	.LASF170
 3401 0857 0D       		.byte	0xd
 3402 0858 46       		.byte	0x46
 3403 0859 11010000 		.4byte	0x111
 3404 085d 3C       		.byte	0x3c
 3405 085e 0B       		.uleb128 0xb
 3406 085f B7020000 		.4byte	.LASF171
 3407 0863 0D       		.byte	0xd
 3408 0864 48       		.byte	0x48
 3409 0865 11010000 		.4byte	0x111
 3410 0869 40       		.byte	0x40
 3411 086a 0B       		.uleb128 0xb
 3412 086b 81100000 		.4byte	.LASF172
 3413 086f 0D       		.byte	0xd
 3414 0870 49       		.byte	0x49
 3415 0871 11010000 		.4byte	0x111
 3416 0875 44       		.byte	0x44
 3417 0876 0B       		.uleb128 0xb
 3418 0877 5C130000 		.4byte	.LASF173
 3419 087b 0D       		.byte	0xd
 3420 087c 4B       		.byte	0x4b
 3421 087d 11010000 		.4byte	0x111
 3422 0881 48       		.byte	0x48
 3423 0882 00       		.byte	0
 3424 0883 02       		.uleb128 0x2
 3425 0884 EA0E0000 		.4byte	.LASF174
 3426 0888 0D       		.byte	0xd
 3427 0889 4C       		.byte	0x4c
 3428 088a 92070000 		.4byte	0x792
 3429 088e 15       		.uleb128 0x15
 3430 088f 48130000 		.4byte	.LASF175
 3431 0893 6808     		.2byte	0x868
 3432 0895 0E       		.byte	0xe
 3433 0896 05       		.byte	0x5
 3434 0897 98090000 		.4byte	0x998
 3435 089b 0B       		.uleb128 0xb
 3436 089c 250C0000 		.4byte	.LASF176
 3437 08a0 0E       		.byte	0xe
 3438 08a1 07       		.byte	0x7
 3439 08a2 E5000000 		.4byte	0xe5
 3440 08a6 00       		.byte	0
 3441 08a7 0B       		.uleb128 0xb
 3442 08a8 63120000 		.4byte	.LASF177
 3443 08ac 0E       		.byte	0xe
 3444 08ad 08       		.byte	0x8
 3445 08ae E5000000 		.4byte	0xe5
 3446 08b2 01       		.byte	0x1
ARM GAS  C:\Users\tmj32\AppData\Local\Temp\cc1nbtVP.s 			page 87


 3447 08b3 0B       		.uleb128 0xb
 3448 08b4 17170000 		.4byte	.LASF178
 3449 08b8 0E       		.byte	0xe
 3450 08b9 09       		.byte	0x9
 3451 08ba E5000000 		.4byte	0xe5
 3452 08be 02       		.byte	0x2
 3453 08bf 0B       		.uleb128 0xb
 3454 08c0 30010000 		.4byte	.LASF179
 3455 08c4 0E       		.byte	0xe
 3456 08c5 0B       		.byte	0xb
 3457 08c6 E5000000 		.4byte	0xe5
 3458 08ca 03       		.byte	0x3
 3459 08cb 0B       		.uleb128 0xb
 3460 08cc 9A110000 		.4byte	.LASF180
 3461 08d0 0E       		.byte	0xe
 3462 08d1 0C       		.byte	0xc
 3463 08d2 FB000000 		.4byte	0xfb
 3464 08d6 04       		.byte	0x4
 3465 08d7 0B       		.uleb128 0xb
 3466 08d8 2E120000 		.4byte	.LASF181
 3467 08dc 0E       		.byte	0xe
 3468 08dd 0D       		.byte	0xd
 3469 08de E5000000 		.4byte	0xe5
 3470 08e2 06       		.byte	0x6
 3471 08e3 0B       		.uleb128 0xb
 3472 08e4 BF0C0000 		.4byte	.LASF182
 3473 08e8 0E       		.byte	0xe
 3474 08e9 0E       		.byte	0xe
 3475 08ea E5000000 		.4byte	0xe5
 3476 08ee 07       		.byte	0x7
 3477 08ef 0B       		.uleb128 0xb
 3478 08f0 50170000 		.4byte	.LASF183
 3479 08f4 0E       		.byte	0xe
 3480 08f5 0F       		.byte	0xf
 3481 08f6 DA000000 		.4byte	0xda
 3482 08fa 08       		.byte	0x8
 3483 08fb 0B       		.uleb128 0xb
 3484 08fc 00150000 		.4byte	.LASF184
 3485 0900 0E       		.byte	0xe
 3486 0901 10       		.byte	0x10
 3487 0902 E5000000 		.4byte	0xe5
 3488 0906 09       		.byte	0x9
 3489 0907 0B       		.uleb128 0xb
 3490 0908 250B0000 		.4byte	.LASF185
 3491 090c 0E       		.byte	0xe
 3492 090d 11       		.byte	0x11
 3493 090e E5000000 		.4byte	0xe5
 3494 0912 0A       		.byte	0xa
 3495 0913 0B       		.uleb128 0xb
 3496 0914 88140000 		.4byte	.LASF186
 3497 0918 0E       		.byte	0xe
 3498 0919 12       		.byte	0x12
 3499 091a E5000000 		.4byte	0xe5
 3500 091e 0B       		.byte	0xb
 3501 091f 0B       		.uleb128 0xb
 3502 0920 F8000000 		.4byte	.LASF187
 3503 0924 0E       		.byte	0xe
ARM GAS  C:\Users\tmj32\AppData\Local\Temp\cc1nbtVP.s 			page 88


 3504 0925 13       		.byte	0x13
 3505 0926 E5000000 		.4byte	0xe5
 3506 092a 0C       		.byte	0xc
 3507 092b 0B       		.uleb128 0xb
 3508 092c 060E0000 		.4byte	.LASF188
 3509 0930 0E       		.byte	0xe
 3510 0931 14       		.byte	0x14
 3511 0932 E5000000 		.4byte	0xe5
 3512 0936 0D       		.byte	0xd
 3513 0937 0B       		.uleb128 0xb
 3514 0938 C1020000 		.4byte	.LASF189
 3515 093c 0E       		.byte	0xe
 3516 093d 15       		.byte	0x15
 3517 093e F0000000 		.4byte	0xf0
 3518 0942 0E       		.byte	0xe
 3519 0943 0B       		.uleb128 0xb
 3520 0944 26070000 		.4byte	.LASF190
 3521 0948 0E       		.byte	0xe
 3522 0949 18       		.byte	0x18
 3523 094a 9F000000 		.4byte	0x9f
 3524 094e 10       		.byte	0x10
 3525 094f 0B       		.uleb128 0xb
 3526 0950 3E130000 		.4byte	.LASF191
 3527 0954 0E       		.byte	0xe
 3528 0955 1A       		.byte	0x1a
 3529 0956 E5000000 		.4byte	0xe5
 3530 095a 14       		.byte	0x14
 3531 095b 0B       		.uleb128 0xb
 3532 095c FE000000 		.4byte	.LASF192
 3533 0960 0E       		.byte	0xe
 3534 0961 1B       		.byte	0x1b
 3535 0962 E5000000 		.4byte	0xe5
 3536 0966 15       		.byte	0x15
 3537 0967 0B       		.uleb128 0xb
 3538 0968 00000000 		.4byte	.LASF193
 3539 096c 0E       		.byte	0xe
 3540 096d 1C       		.byte	0x1c
 3541 096e E5000000 		.4byte	0xe5
 3542 0972 16       		.byte	0x16
 3543 0973 0B       		.uleb128 0xb
 3544 0974 7F010000 		.4byte	.LASF194
 3545 0978 0E       		.byte	0xe
 3546 0979 1F       		.byte	0x1f
 3547 097a 98090000 		.4byte	0x998
 3548 097e 18       		.byte	0x18
 3549 097f 0B       		.uleb128 0xb
 3550 0980 C5090000 		.4byte	.LASF195
 3551 0984 0E       		.byte	0xe
 3552 0985 20       		.byte	0x20
 3553 0986 A8090000 		.4byte	0x9a8
 3554 098a 28       		.byte	0x28
 3555 098b 0B       		.uleb128 0xb
 3556 098c 54100000 		.4byte	.LASF196
 3557 0990 0E       		.byte	0xe
 3558 0991 21       		.byte	0x21
 3559 0992 B8090000 		.4byte	0x9b8
 3560 0996 68       		.byte	0x68
ARM GAS  C:\Users\tmj32\AppData\Local\Temp\cc1nbtVP.s 			page 89


 3561 0997 00       		.byte	0
 3562 0998 07       		.uleb128 0x7
 3563 0999 FB000000 		.4byte	0xfb
 3564 099d A8090000 		.4byte	0x9a8
 3565 09a1 08       		.uleb128 0x8
 3566 09a2 B6000000 		.4byte	0xb6
 3567 09a6 07       		.byte	0x7
 3568 09a7 00       		.byte	0
 3569 09a8 07       		.uleb128 0x7
 3570 09a9 F0000000 		.4byte	0xf0
 3571 09ad B8090000 		.4byte	0x9b8
 3572 09b1 08       		.uleb128 0x8
 3573 09b2 B6000000 		.4byte	0xb6
 3574 09b6 1F       		.byte	0x1f
 3575 09b7 00       		.byte	0
 3576 09b8 07       		.uleb128 0x7
 3577 09b9 DA000000 		.4byte	0xda
 3578 09bd C9090000 		.4byte	0x9c9
 3579 09c1 16       		.uleb128 0x16
 3580 09c2 B6000000 		.4byte	0xb6
 3581 09c6 FF07     		.2byte	0x7ff
 3582 09c8 00       		.byte	0
 3583 09c9 02       		.uleb128 0x2
 3584 09ca 28110000 		.4byte	.LASF197
 3585 09ce 0F       		.byte	0xf
 3586 09cf 3C       		.byte	0x3c
 3587 09d0 F0000000 		.4byte	0xf0
 3588 09d4 02       		.uleb128 0x2
 3589 09d5 A60C0000 		.4byte	.LASF198
 3590 09d9 10       		.byte	0x10
 3591 09da 2C       		.byte	0x2c
 3592 09db E5000000 		.4byte	0xe5
 3593 09df 02       		.uleb128 0x2
 3594 09e0 EE070000 		.4byte	.LASF199
 3595 09e4 11       		.byte	0x11
 3596 09e5 1E       		.byte	0x1e
 3597 09e6 E5000000 		.4byte	0xe5
 3598 09ea 0A       		.uleb128 0xa
 3599 09eb 0C       		.byte	0xc
 3600 09ec 11       		.byte	0x11
 3601 09ed 21       		.byte	0x21
 3602 09ee 170A0000 		.4byte	0xa17
 3603 09f2 0B       		.uleb128 0xb
 3604 09f3 F2020000 		.4byte	.LASF200
 3605 09f7 11       		.byte	0x11
 3606 09f8 23       		.byte	0x23
 3607 09f9 11010000 		.4byte	0x111
 3608 09fd 00       		.byte	0
 3609 09fe 0B       		.uleb128 0xb
 3610 09ff 70060000 		.4byte	.LASF201
 3611 0a03 11       		.byte	0x11
 3612 0a04 24       		.byte	0x24
 3613 0a05 170A0000 		.4byte	0xa17
 3614 0a09 04       		.byte	0x4
 3615 0a0a 0B       		.uleb128 0xb
 3616 0a0b 9A130000 		.4byte	.LASF202
 3617 0a0f 11       		.byte	0x11
ARM GAS  C:\Users\tmj32\AppData\Local\Temp\cc1nbtVP.s 			page 90


 3618 0a10 25       		.byte	0x25
 3619 0a11 170A0000 		.4byte	0xa17
 3620 0a15 08       		.byte	0x8
 3621 0a16 00       		.byte	0
 3622 0a17 06       		.uleb128 0x6
 3623 0a18 04       		.byte	0x4
 3624 0a19 DF090000 		.4byte	0x9df
 3625 0a1d 02       		.uleb128 0x2
 3626 0a1e 01060000 		.4byte	.LASF203
 3627 0a22 11       		.byte	0x11
 3628 0a23 26       		.byte	0x26
 3629 0a24 EA090000 		.4byte	0x9ea
 3630 0a28 0A       		.uleb128 0xa
 3631 0a29 04       		.byte	0x4
 3632 0a2a 01       		.byte	0x1
 3633 0a2b F3       		.byte	0xf3
 3634 0a2c 610A0000 		.4byte	0xa61
 3635 0a30 0B       		.uleb128 0xb
 3636 0a31 F6100000 		.4byte	.LASF204
 3637 0a35 01       		.byte	0x1
 3638 0a36 F5       		.byte	0xf5
 3639 0a37 E5000000 		.4byte	0xe5
 3640 0a3b 00       		.byte	0
 3641 0a3c 0B       		.uleb128 0xb
 3642 0a3d 3B0E0000 		.4byte	.LASF205
 3643 0a41 01       		.byte	0x1
 3644 0a42 F6       		.byte	0xf6
 3645 0a43 E5000000 		.4byte	0xe5
 3646 0a47 01       		.byte	0x1
 3647 0a48 17       		.uleb128 0x17
 3648 0a49 72656400 		.ascii	"red\000"
 3649 0a4d 01       		.byte	0x1
 3650 0a4e F7       		.byte	0xf7
 3651 0a4f E5000000 		.4byte	0xe5
 3652 0a53 02       		.byte	0x2
 3653 0a54 0B       		.uleb128 0xb
 3654 0a55 CE060000 		.4byte	.LASF206
 3655 0a59 01       		.byte	0x1
 3656 0a5a F8       		.byte	0xf8
 3657 0a5b E5000000 		.4byte	0xe5
 3658 0a5f 03       		.byte	0x3
 3659 0a60 00       		.byte	0
 3660 0a61 18       		.uleb128 0x18
 3661 0a62 04       		.byte	0x4
 3662 0a63 01       		.byte	0x1
 3663 0a64 F1       		.byte	0xf1
 3664 0a65 7F0A0000 		.4byte	0xa7f
 3665 0a69 19       		.uleb128 0x19
 3666 0a6a 636800   		.ascii	"ch\000"
 3667 0a6d 01       		.byte	0x1
 3668 0a6e F9       		.byte	0xf9
 3669 0a6f 280A0000 		.4byte	0xa28
 3670 0a73 1A       		.uleb128 0x1a
 3671 0a74 64000000 		.4byte	.LASF207
 3672 0a78 01       		.byte	0x1
 3673 0a79 FA       		.byte	0xfa
 3674 0a7a 11010000 		.4byte	0x111
ARM GAS  C:\Users\tmj32\AppData\Local\Temp\cc1nbtVP.s 			page 91


 3675 0a7e 00       		.byte	0
 3676 0a7f 02       		.uleb128 0x2
 3677 0a80 23050000 		.4byte	.LASF208
 3678 0a84 01       		.byte	0x1
 3679 0a85 FB       		.byte	0xfb
 3680 0a86 610A0000 		.4byte	0xa61
 3681 0a8a 0E       		.uleb128 0xe
 3682 0a8b E20D0000 		.4byte	.LASF209
 3683 0a8f 01       		.byte	0x1
 3684 0a90 0801     		.2byte	0x108
 3685 0a92 7F0A0000 		.4byte	0xa7f
 3686 0a96 0E       		.uleb128 0xe
 3687 0a97 36100000 		.4byte	.LASF210
 3688 0a9b 01       		.byte	0x1
 3689 0a9c 0D01     		.2byte	0x10d
 3690 0a9e E5000000 		.4byte	0xe5
 3691 0aa2 0A       		.uleb128 0xa
 3692 0aa3 08       		.byte	0x8
 3693 0aa4 12       		.byte	0x12
 3694 0aa5 31       		.byte	0x31
 3695 0aa6 D70A0000 		.4byte	0xad7
 3696 0aaa 17       		.uleb128 0x17
 3697 0aab 783100   		.ascii	"x1\000"
 3698 0aae 12       		.byte	0x12
 3699 0aaf 33       		.byte	0x33
 3700 0ab0 C9090000 		.4byte	0x9c9
 3701 0ab4 00       		.byte	0
 3702 0ab5 17       		.uleb128 0x17
 3703 0ab6 793100   		.ascii	"y1\000"
 3704 0ab9 12       		.byte	0x12
 3705 0aba 34       		.byte	0x34
 3706 0abb C9090000 		.4byte	0x9c9
 3707 0abf 02       		.byte	0x2
 3708 0ac0 17       		.uleb128 0x17
 3709 0ac1 783200   		.ascii	"x2\000"
 3710 0ac4 12       		.byte	0x12
 3711 0ac5 35       		.byte	0x35
 3712 0ac6 C9090000 		.4byte	0x9c9
 3713 0aca 04       		.byte	0x4
 3714 0acb 17       		.uleb128 0x17
 3715 0acc 793200   		.ascii	"y2\000"
 3716 0acf 12       		.byte	0x12
 3717 0ad0 36       		.byte	0x36
 3718 0ad1 C9090000 		.4byte	0x9c9
 3719 0ad5 06       		.byte	0x6
 3720 0ad6 00       		.byte	0
 3721 0ad7 02       		.uleb128 0x2
 3722 0ad8 47120000 		.4byte	.LASF211
 3723 0adc 12       		.byte	0x12
 3724 0add 37       		.byte	0x37
 3725 0ade A20A0000 		.4byte	0xaa2
 3726 0ae2 06       		.uleb128 0x6
 3727 0ae3 04       		.byte	0x4
 3728 0ae4 E80A0000 		.4byte	0xae8
 3729 0ae8 1B       		.uleb128 0x1b
 3730 0ae9 D70A0000 		.4byte	0xad7
 3731 0aed 14       		.uleb128 0x14
ARM GAS  C:\Users\tmj32\AppData\Local\Temp\cc1nbtVP.s 			page 92


 3732 0aee 25000000 		.4byte	.LASF212
 3733 0af2 40       		.byte	0x40
 3734 0af3 13       		.byte	0x13
 3735 0af4 BB       		.byte	0xbb
 3736 0af5 2F0C0000 		.4byte	0xc2f
 3737 0af9 17       		.uleb128 0x17
 3738 0afa 70617200 		.ascii	"par\000"
 3739 0afe 13       		.byte	0x13
 3740 0aff BD       		.byte	0xbd
 3741 0b00 2F0C0000 		.4byte	0xc2f
 3742 0b04 00       		.byte	0
 3743 0b05 0B       		.uleb128 0xb
 3744 0b06 AF130000 		.4byte	.LASF213
 3745 0b0a 13       		.byte	0x13
 3746 0b0b BE       		.byte	0xbe
 3747 0b0c 1D0A0000 		.4byte	0xa1d
 3748 0b10 04       		.byte	0x4
 3749 0b11 0B       		.uleb128 0xb
 3750 0b12 09100000 		.4byte	.LASF214
 3751 0b16 13       		.byte	0x13
 3752 0b17 C0       		.byte	0xc0
 3753 0b18 D70A0000 		.4byte	0xad7
 3754 0b1c 10       		.byte	0x10
 3755 0b1d 0B       		.uleb128 0xb
 3756 0b1e 24140000 		.4byte	.LASF215
 3757 0b22 13       		.byte	0x13
 3758 0b23 C2       		.byte	0xc2
 3759 0b24 78100000 		.4byte	0x1078
 3760 0b28 18       		.byte	0x18
 3761 0b29 0B       		.uleb128 0xb
 3762 0b2a 01160000 		.4byte	.LASF216
 3763 0b2e 13       		.byte	0x13
 3764 0b2f C3       		.byte	0xc3
 3765 0b30 A4100000 		.4byte	0x10a4
 3766 0b34 1C       		.byte	0x1c
 3767 0b35 0B       		.uleb128 0xb
 3768 0b36 2D140000 		.4byte	.LASF217
 3769 0b3a 13       		.byte	0x13
 3770 0b3b C4       		.byte	0xc4
 3771 0b3c BE0F0000 		.4byte	0xfbe
 3772 0b40 20       		.byte	0x20
 3773 0b41 0B       		.uleb128 0xb
 3774 0b42 5F140000 		.4byte	.LASF218
 3775 0b46 13       		.byte	0x13
 3776 0b47 C6       		.byte	0xc6
 3777 0b48 B4000000 		.4byte	0xb4
 3778 0b4c 24       		.byte	0x24
 3779 0b4d 0B       		.uleb128 0xb
 3780 0b4e 82070000 		.4byte	.LASF219
 3781 0b52 13       		.byte	0x13
 3782 0b53 C7       		.byte	0xc7
 3783 0b54 DC110000 		.4byte	0x11dc
 3784 0b58 28       		.byte	0x28
 3785 0b59 1C       		.uleb128 0x1c
 3786 0b5a 87050000 		.4byte	.LASF220
 3787 0b5e 13       		.byte	0x13
 3788 0b5f D7       		.byte	0xd7
ARM GAS  C:\Users\tmj32\AppData\Local\Temp\cc1nbtVP.s 			page 93


 3789 0b60 E5000000 		.4byte	0xe5
 3790 0b64 01       		.byte	0x1
 3791 0b65 01       		.byte	0x1
 3792 0b66 07       		.byte	0x7
 3793 0b67 2C       		.byte	0x2c
 3794 0b68 1C       		.uleb128 0x1c
 3795 0b69 B4150000 		.4byte	.LASF221
 3796 0b6d 13       		.byte	0x13
 3797 0b6e D8       		.byte	0xd8
 3798 0b6f E5000000 		.4byte	0xe5
 3799 0b73 01       		.byte	0x1
 3800 0b74 01       		.byte	0x1
 3801 0b75 06       		.byte	0x6
 3802 0b76 2C       		.byte	0x2c
 3803 0b77 1C       		.uleb128 0x1c
 3804 0b78 98010000 		.4byte	.LASF222
 3805 0b7c 13       		.byte	0x13
 3806 0b7d D9       		.byte	0xd9
 3807 0b7e E5000000 		.4byte	0xe5
 3808 0b82 01       		.byte	0x1
 3809 0b83 01       		.byte	0x1
 3810 0b84 05       		.byte	0x5
 3811 0b85 2C       		.byte	0x2c
 3812 0b86 1C       		.uleb128 0x1c
 3813 0b87 B9090000 		.4byte	.LASF223
 3814 0b8b 13       		.byte	0x13
 3815 0b8c DA       		.byte	0xda
 3816 0b8d E5000000 		.4byte	0xe5
 3817 0b91 01       		.byte	0x1
 3818 0b92 01       		.byte	0x1
 3819 0b93 04       		.byte	0x4
 3820 0b94 2C       		.byte	0x2c
 3821 0b95 1C       		.uleb128 0x1c
 3822 0b96 AE140000 		.4byte	.LASF224
 3823 0b9a 13       		.byte	0x13
 3824 0b9b DB       		.byte	0xdb
 3825 0b9c E5000000 		.4byte	0xe5
 3826 0ba0 01       		.byte	0x1
 3827 0ba1 01       		.byte	0x1
 3828 0ba2 03       		.byte	0x3
 3829 0ba3 2C       		.byte	0x2c
 3830 0ba4 1D       		.uleb128 0x1d
 3831 0ba5 746F7000 		.ascii	"top\000"
 3832 0ba9 13       		.byte	0x13
 3833 0baa DC       		.byte	0xdc
 3834 0bab E5000000 		.4byte	0xe5
 3835 0baf 01       		.byte	0x1
 3836 0bb0 01       		.byte	0x1
 3837 0bb1 02       		.byte	0x2
 3838 0bb2 2C       		.byte	0x2c
 3839 0bb3 1C       		.uleb128 0x1c
 3840 0bb4 33110000 		.4byte	.LASF225
 3841 0bb8 13       		.byte	0x13
 3842 0bb9 DD       		.byte	0xdd
 3843 0bba E5000000 		.4byte	0xe5
 3844 0bbe 01       		.byte	0x1
 3845 0bbf 01       		.byte	0x1
ARM GAS  C:\Users\tmj32\AppData\Local\Temp\cc1nbtVP.s 			page 94


 3846 0bc0 01       		.byte	0x1
 3847 0bc1 2C       		.byte	0x2c
 3848 0bc2 1C       		.uleb128 0x1c
 3849 0bc3 69010000 		.4byte	.LASF226
 3850 0bc7 13       		.byte	0x13
 3851 0bc8 DE       		.byte	0xde
 3852 0bc9 E5000000 		.4byte	0xe5
 3853 0bcd 01       		.byte	0x1
 3854 0bce 01       		.byte	0x1
 3855 0bcf 00       		.byte	0
 3856 0bd0 2C       		.byte	0x2c
 3857 0bd1 1C       		.uleb128 0x1c
 3858 0bd2 AB0A0000 		.4byte	.LASF227
 3859 0bd6 13       		.byte	0x13
 3860 0bd7 DF       		.byte	0xdf
 3861 0bd8 D1110000 		.4byte	0x11d1
 3862 0bdc 01       		.byte	0x1
 3863 0bdd 02       		.byte	0x2
 3864 0bde 06       		.byte	0x6
 3865 0bdf 2D       		.byte	0x2d
 3866 0be0 1C       		.uleb128 0x1c
 3867 0be1 60010000 		.4byte	.LASF228
 3868 0be5 13       		.byte	0x13
 3869 0be6 E0       		.byte	0xe0
 3870 0be7 A80F0000 		.4byte	0xfa8
 3871 0beb 01       		.byte	0x1
 3872 0bec 02       		.byte	0x2
 3873 0bed 04       		.byte	0x4
 3874 0bee 2D       		.byte	0x2d
 3875 0bef 1C       		.uleb128 0x1c
 3876 0bf0 4F150000 		.4byte	.LASF229
 3877 0bf4 13       		.byte	0x13
 3878 0bf5 E1       		.byte	0xe1
 3879 0bf6 E5000000 		.4byte	0xe5
 3880 0bfa 01       		.byte	0x1
 3881 0bfb 03       		.byte	0x3
 3882 0bfc 01       		.byte	0x1
 3883 0bfd 2D       		.byte	0x2d
 3884 0bfe 0B       		.uleb128 0xb
 3885 0bff 03130000 		.4byte	.LASF230
 3886 0c03 13       		.byte	0x13
 3887 0c04 E2       		.byte	0xe2
 3888 0c05 E5000000 		.4byte	0xe5
 3889 0c09 2E       		.byte	0x2e
 3890 0c0a 0B       		.uleb128 0xb
 3891 0c0b C9120000 		.4byte	.LASF231
 3892 0c0f 13       		.byte	0x13
 3893 0c10 E4       		.byte	0xe4
 3894 0c11 960A0000 		.4byte	0xa96
 3895 0c15 2F       		.byte	0x2f
 3896 0c16 0B       		.uleb128 0xb
 3897 0c17 F0090000 		.4byte	.LASF232
 3898 0c1b 13       		.byte	0x13
 3899 0c1c E6       		.byte	0xe6
 3900 0c1d C9090000 		.4byte	0x9c9
 3901 0c21 30       		.byte	0x30
 3902 0c22 0B       		.uleb128 0xb
ARM GAS  C:\Users\tmj32\AppData\Local\Temp\cc1nbtVP.s 			page 95


 3903 0c23 D1040000 		.4byte	.LASF233
 3904 0c27 13       		.byte	0x13
 3905 0c28 E9       		.byte	0xe9
 3906 0c29 C6110000 		.4byte	0x11c6
 3907 0c2d 34       		.byte	0x34
 3908 0c2e 00       		.byte	0
 3909 0c2f 06       		.uleb128 0x6
 3910 0c30 04       		.byte	0x4
 3911 0c31 ED0A0000 		.4byte	0xaed
 3912 0c35 0A       		.uleb128 0xa
 3913 0c36 08       		.byte	0x8
 3914 0c37 14       		.byte	0x14
 3915 0c38 2E       		.byte	0x2e
 3916 0c39 860C0000 		.4byte	0xc86
 3917 0c3d 0B       		.uleb128 0xb
 3918 0c3e BF170000 		.4byte	.LASF234
 3919 0c42 14       		.byte	0x14
 3920 0c43 30       		.byte	0x30
 3921 0c44 FB000000 		.4byte	0xfb
 3922 0c48 00       		.byte	0
 3923 0c49 0B       		.uleb128 0xb
 3924 0c4a 78120000 		.4byte	.LASF235
 3925 0c4e 14       		.byte	0x14
 3926 0c4f 31       		.byte	0x31
 3927 0c50 E5000000 		.4byte	0xe5
 3928 0c54 02       		.byte	0x2
 3929 0c55 0B       		.uleb128 0xb
 3930 0c56 D3110000 		.4byte	.LASF236
 3931 0c5a 14       		.byte	0x14
 3932 0c5b 32       		.byte	0x32
 3933 0c5c E5000000 		.4byte	0xe5
 3934 0c60 03       		.byte	0x3
 3935 0c61 0B       		.uleb128 0xb
 3936 0c62 B0010000 		.4byte	.LASF237
 3937 0c66 14       		.byte	0x14
 3938 0c67 33       		.byte	0x33
 3939 0c68 DA000000 		.4byte	0xda
 3940 0c6c 04       		.byte	0x4
 3941 0c6d 0B       		.uleb128 0xb
 3942 0c6e B6010000 		.4byte	.LASF238
 3943 0c72 14       		.byte	0x14
 3944 0c73 34       		.byte	0x34
 3945 0c74 DA000000 		.4byte	0xda
 3946 0c78 05       		.byte	0x5
 3947 0c79 17       		.uleb128 0x17
 3948 0c7a 62707000 		.ascii	"bpp\000"
 3949 0c7e 14       		.byte	0x14
 3950 0c7f 35       		.byte	0x35
 3951 0c80 E5000000 		.4byte	0xe5
 3952 0c84 06       		.byte	0x6
 3953 0c85 00       		.byte	0
 3954 0c86 02       		.uleb128 0x2
 3955 0c87 3A0A0000 		.4byte	.LASF239
 3956 0c8b 14       		.byte	0x14
 3957 0c8c 36       		.byte	0x36
 3958 0c8d 350C0000 		.4byte	0xc35
 3959 0c91 14       		.uleb128 0x14
ARM GAS  C:\Users\tmj32\AppData\Local\Temp\cc1nbtVP.s 			page 96


 3960 0c92 50080000 		.4byte	.LASF240
 3961 0c96 10       		.byte	0x10
 3962 0c97 14       		.byte	0x14
 3963 0c98 44       		.byte	0x44
 3964 0c99 E90C0000 		.4byte	0xce9
 3965 0c9d 0B       		.uleb128 0xb
 3966 0c9e D9010000 		.4byte	.LASF241
 3967 0ca2 14       		.byte	0x14
 3968 0ca3 47       		.byte	0x47
 3969 0ca4 180D0000 		.4byte	0xd18
 3970 0ca8 00       		.byte	0
 3971 0ca9 0B       		.uleb128 0xb
 3972 0caa 89130000 		.4byte	.LASF242
 3973 0cae 14       		.byte	0x14
 3974 0caf 4A       		.byte	0x4a
 3975 0cb0 3D0D0000 		.4byte	0xd3d
 3976 0cb4 04       		.byte	0x4
 3977 0cb5 0B       		.uleb128 0xb
 3978 0cb6 C3080000 		.4byte	.LASF243
 3979 0cba 14       		.byte	0x14
 3980 0cbb 4D       		.byte	0x4d
 3981 0cbc E5000000 		.4byte	0xe5
 3982 0cc0 08       		.byte	0x8
 3983 0cc1 0B       		.uleb128 0xb
 3984 0cc2 AC120000 		.4byte	.LASF244
 3985 0cc6 14       		.byte	0x14
 3986 0cc7 4E       		.byte	0x4e
 3987 0cc8 DA000000 		.4byte	0xda
 3988 0ccc 09       		.byte	0x9
 3989 0ccd 1C       		.uleb128 0x1c
 3990 0cce DC0D0000 		.4byte	.LASF245
 3991 0cd2 14       		.byte	0x14
 3992 0cd3 4F       		.byte	0x4f
 3993 0cd4 E5000000 		.4byte	0xe5
 3994 0cd8 01       		.byte	0x1
 3995 0cd9 02       		.byte	0x2
 3996 0cda 06       		.byte	0x6
 3997 0cdb 0A       		.byte	0xa
 3998 0cdc 17       		.uleb128 0x17
 3999 0cdd 64736300 		.ascii	"dsc\000"
 4000 0ce1 14       		.byte	0x14
 4001 0ce2 50       		.byte	0x50
 4002 0ce3 B4000000 		.4byte	0xb4
 4003 0ce7 0C       		.byte	0xc
 4004 0ce8 00       		.byte	0
 4005 0ce9 11       		.uleb128 0x11
 4006 0cea 56050000 		.4byte	0x556
 4007 0cee 070D0000 		.4byte	0xd07
 4008 0cf2 10       		.uleb128 0x10
 4009 0cf3 070D0000 		.4byte	0xd07
 4010 0cf7 10       		.uleb128 0x10
 4011 0cf8 120D0000 		.4byte	0xd12
 4012 0cfc 10       		.uleb128 0x10
 4013 0cfd 11010000 		.4byte	0x111
 4014 0d01 10       		.uleb128 0x10
 4015 0d02 11010000 		.4byte	0x111
 4016 0d06 00       		.byte	0
ARM GAS  C:\Users\tmj32\AppData\Local\Temp\cc1nbtVP.s 			page 97


 4017 0d07 06       		.uleb128 0x6
 4018 0d08 04       		.byte	0x4
 4019 0d09 0D0D0000 		.4byte	0xd0d
 4020 0d0d 1B       		.uleb128 0x1b
 4021 0d0e 910C0000 		.4byte	0xc91
 4022 0d12 06       		.uleb128 0x6
 4023 0d13 04       		.byte	0x4
 4024 0d14 860C0000 		.4byte	0xc86
 4025 0d18 06       		.uleb128 0x6
 4026 0d19 04       		.byte	0x4
 4027 0d1a E90C0000 		.4byte	0xce9
 4028 0d1e 11       		.uleb128 0x11
 4029 0d1f 320D0000 		.4byte	0xd32
 4030 0d23 320D0000 		.4byte	0xd32
 4031 0d27 10       		.uleb128 0x10
 4032 0d28 070D0000 		.4byte	0xd07
 4033 0d2c 10       		.uleb128 0x10
 4034 0d2d 11010000 		.4byte	0x111
 4035 0d31 00       		.byte	0
 4036 0d32 06       		.uleb128 0x6
 4037 0d33 04       		.byte	0x4
 4038 0d34 380D0000 		.4byte	0xd38
 4039 0d38 1B       		.uleb128 0x1b
 4040 0d39 E5000000 		.4byte	0xe5
 4041 0d3d 06       		.uleb128 0x6
 4042 0d3e 04       		.byte	0x4
 4043 0d3f 1E0D0000 		.4byte	0xd1e
 4044 0d43 02       		.uleb128 0x2
 4045 0d44 7D0F0000 		.4byte	.LASF246
 4046 0d48 14       		.byte	0x14
 4047 0d49 56       		.byte	0x56
 4048 0d4a 910C0000 		.4byte	0xc91
 4049 0d4e 1E       		.uleb128 0x1e
 4050 0d4f 01       		.byte	0x1
 4051 0d50 42000000 		.4byte	0x42
 4052 0d54 15       		.byte	0x15
 4053 0d55 23       		.byte	0x23
 4054 0d56 670D0000 		.4byte	0xd67
 4055 0d5a 0D       		.uleb128 0xd
 4056 0d5b B6120000 		.4byte	.LASF247
 4057 0d5f 00       		.byte	0
 4058 0d60 0D       		.uleb128 0xd
 4059 0d61 7D0D0000 		.4byte	.LASF248
 4060 0d65 01       		.byte	0x1
 4061 0d66 00       		.byte	0
 4062 0d67 02       		.uleb128 0x2
 4063 0d68 F2120000 		.4byte	.LASF249
 4064 0d6c 15       		.byte	0x15
 4065 0d6d 28       		.byte	0x28
 4066 0d6e E5000000 		.4byte	0xe5
 4067 0d72 02       		.uleb128 0x2
 4068 0d73 4C110000 		.4byte	.LASF250
 4069 0d77 16       		.byte	0x16
 4070 0d78 2C       		.byte	0x2c
 4071 0d79 E5000000 		.4byte	0xe5
 4072 0d7d 02       		.uleb128 0x2
 4073 0d7e E10A0000 		.4byte	.LASF251
ARM GAS  C:\Users\tmj32\AppData\Local\Temp\cc1nbtVP.s 			page 98


 4074 0d82 16       		.byte	0x16
 4075 0d83 33       		.byte	0x33
 4076 0d84 E5000000 		.4byte	0xe5
 4077 0d88 0A       		.uleb128 0xa
 4078 0d89 08       		.byte	0x8
 4079 0d8a 16       		.byte	0x16
 4080 0d8b 48       		.byte	0x48
 4081 0d8c C10D0000 		.4byte	0xdc1
 4082 0d90 0B       		.uleb128 0xb
 4083 0d91 0B140000 		.4byte	.LASF252
 4084 0d95 16       		.byte	0x16
 4085 0d96 4A       		.byte	0x4a
 4086 0d97 8A0A0000 		.4byte	0xa8a
 4087 0d9b 00       		.byte	0
 4088 0d9c 0B       		.uleb128 0xb
 4089 0d9d A3070000 		.4byte	.LASF253
 4090 0da1 16       		.byte	0x16
 4091 0da2 4B       		.byte	0x4b
 4092 0da3 C9090000 		.4byte	0x9c9
 4093 0da7 04       		.byte	0x4
 4094 0da8 0B       		.uleb128 0xb
 4095 0da9 43060000 		.4byte	.LASF254
 4096 0dad 16       		.byte	0x16
 4097 0dae 4C       		.byte	0x4c
 4098 0daf 720D0000 		.4byte	0xd72
 4099 0db3 06       		.byte	0x6
 4100 0db4 17       		.uleb128 0x17
 4101 0db5 6F706100 		.ascii	"opa\000"
 4102 0db9 16       		.byte	0x16
 4103 0dba 4D       		.byte	0x4d
 4104 0dbb 960A0000 		.4byte	0xa96
 4105 0dbf 07       		.byte	0x7
 4106 0dc0 00       		.byte	0
 4107 0dc1 0A       		.uleb128 0xa
 4108 0dc2 08       		.byte	0x8
 4109 0dc3 16       		.byte	0x16
 4110 0dc4 51       		.byte	0x51
 4111 0dc5 EE0D0000 		.4byte	0xdee
 4112 0dc9 0B       		.uleb128 0xb
 4113 0dca 0B140000 		.4byte	.LASF252
 4114 0dce 16       		.byte	0x16
 4115 0dcf 53       		.byte	0x53
 4116 0dd0 8A0A0000 		.4byte	0xa8a
 4117 0dd4 00       		.byte	0
 4118 0dd5 0B       		.uleb128 0xb
 4119 0dd6 A3070000 		.4byte	.LASF253
 4120 0dda 16       		.byte	0x16
 4121 0ddb 54       		.byte	0x54
 4122 0ddc C9090000 		.4byte	0x9c9
 4123 0de0 04       		.byte	0x4
 4124 0de1 0B       		.uleb128 0xb
 4125 0de2 950A0000 		.4byte	.LASF255
 4126 0de6 16       		.byte	0x16
 4127 0de7 55       		.byte	0x55
 4128 0de8 7D0D0000 		.4byte	0xd7d
 4129 0dec 06       		.byte	0x6
 4130 0ded 00       		.byte	0
ARM GAS  C:\Users\tmj32\AppData\Local\Temp\cc1nbtVP.s 			page 99


 4131 0dee 0A       		.uleb128 0xa
 4132 0def 0A       		.byte	0xa
 4133 0df0 16       		.byte	0x16
 4134 0df1 58       		.byte	0x58
 4135 0df2 330E0000 		.4byte	0xe33
 4136 0df6 17       		.uleb128 0x17
 4137 0df7 746F7000 		.ascii	"top\000"
 4138 0dfb 16       		.byte	0x16
 4139 0dfc 5A       		.byte	0x5a
 4140 0dfd C9090000 		.4byte	0x9c9
 4141 0e01 00       		.byte	0
 4142 0e02 0B       		.uleb128 0xb
 4143 0e03 FD090000 		.4byte	.LASF256
 4144 0e07 16       		.byte	0x16
 4145 0e08 5B       		.byte	0x5b
 4146 0e09 C9090000 		.4byte	0x9c9
 4147 0e0d 02       		.byte	0x2
 4148 0e0e 0B       		.uleb128 0xb
 4149 0e0f 5D110000 		.4byte	.LASF257
 4150 0e13 16       		.byte	0x16
 4151 0e14 5C       		.byte	0x5c
 4152 0e15 C9090000 		.4byte	0x9c9
 4153 0e19 04       		.byte	0x4
 4154 0e1a 0B       		.uleb128 0xb
 4155 0e1b 1F0B0000 		.4byte	.LASF258
 4156 0e1f 16       		.byte	0x16
 4157 0e20 5D       		.byte	0x5d
 4158 0e21 C9090000 		.4byte	0x9c9
 4159 0e25 06       		.byte	0x6
 4160 0e26 0B       		.uleb128 0xb
 4161 0e27 E5040000 		.4byte	.LASF259
 4162 0e2b 16       		.byte	0x16
 4163 0e2c 5E       		.byte	0x5e
 4164 0e2d C9090000 		.4byte	0x9c9
 4165 0e31 08       		.byte	0x8
 4166 0e32 00       		.byte	0
 4167 0e33 0A       		.uleb128 0xa
 4168 0e34 28       		.byte	0x28
 4169 0e35 16       		.byte	0x16
 4170 0e36 41       		.byte	0x41
 4171 0e37 900E0000 		.4byte	0xe90
 4172 0e3b 0B       		.uleb128 0xb
 4173 0e3c A90F0000 		.4byte	.LASF260
 4174 0e40 16       		.byte	0x16
 4175 0e41 43       		.byte	0x43
 4176 0e42 8A0A0000 		.4byte	0xa8a
 4177 0e46 00       		.byte	0
 4178 0e47 0B       		.uleb128 0xb
 4179 0e48 2D090000 		.4byte	.LASF261
 4180 0e4c 16       		.byte	0x16
 4181 0e4d 44       		.byte	0x44
 4182 0e4e 8A0A0000 		.4byte	0xa8a
 4183 0e52 04       		.byte	0x4
 4184 0e53 0B       		.uleb128 0xb
 4185 0e54 C2120000 		.4byte	.LASF262
 4186 0e58 16       		.byte	0x16
 4187 0e59 45       		.byte	0x45
ARM GAS  C:\Users\tmj32\AppData\Local\Temp\cc1nbtVP.s 			page 100


 4188 0e5a C9090000 		.4byte	0x9c9
 4189 0e5e 08       		.byte	0x8
 4190 0e5f 17       		.uleb128 0x17
 4191 0e60 6F706100 		.ascii	"opa\000"
 4192 0e64 16       		.byte	0x16
 4193 0e65 46       		.byte	0x46
 4194 0e66 960A0000 		.4byte	0xa96
 4195 0e6a 0A       		.byte	0xa
 4196 0e6b 0B       		.uleb128 0xb
 4197 0e6c DD100000 		.4byte	.LASF263
 4198 0e70 16       		.byte	0x16
 4199 0e71 4E       		.byte	0x4e
 4200 0e72 880D0000 		.4byte	0xd88
 4201 0e76 0C       		.byte	0xc
 4202 0e77 0B       		.uleb128 0xb
 4203 0e78 ED0D0000 		.4byte	.LASF264
 4204 0e7c 16       		.byte	0x16
 4205 0e7d 56       		.byte	0x56
 4206 0e7e C10D0000 		.4byte	0xdc1
 4207 0e82 14       		.byte	0x14
 4208 0e83 0B       		.uleb128 0xb
 4209 0e84 A60B0000 		.4byte	.LASF265
 4210 0e88 16       		.byte	0x16
 4211 0e89 5F       		.byte	0x5f
 4212 0e8a EE0D0000 		.4byte	0xdee
 4213 0e8e 1C       		.byte	0x1c
 4214 0e8f 00       		.byte	0
 4215 0e90 0A       		.uleb128 0xa
 4216 0e91 14       		.byte	0x14
 4217 0e92 16       		.byte	0x16
 4218 0e93 63       		.byte	0x63
 4219 0e94 E10E0000 		.4byte	0xee1
 4220 0e98 0B       		.uleb128 0xb
 4221 0e99 0B140000 		.4byte	.LASF252
 4222 0e9d 16       		.byte	0x16
 4223 0e9e 65       		.byte	0x65
 4224 0e9f 8A0A0000 		.4byte	0xa8a
 4225 0ea3 00       		.byte	0
 4226 0ea4 0B       		.uleb128 0xb
 4227 0ea5 7D050000 		.4byte	.LASF266
 4228 0ea9 16       		.byte	0x16
 4229 0eaa 66       		.byte	0x66
 4230 0eab 8A0A0000 		.4byte	0xa8a
 4231 0eaf 04       		.byte	0x4
 4232 0eb0 0B       		.uleb128 0xb
 4233 0eb1 8B020000 		.4byte	.LASF267
 4234 0eb5 16       		.byte	0x16
 4235 0eb6 67       		.byte	0x67
 4236 0eb7 E10E0000 		.4byte	0xee1
 4237 0ebb 08       		.byte	0x8
 4238 0ebc 0B       		.uleb128 0xb
 4239 0ebd 870F0000 		.4byte	.LASF268
 4240 0ec1 16       		.byte	0x16
 4241 0ec2 68       		.byte	0x68
 4242 0ec3 C9090000 		.4byte	0x9c9
 4243 0ec7 0C       		.byte	0xc
 4244 0ec8 0B       		.uleb128 0xb
ARM GAS  C:\Users\tmj32\AppData\Local\Temp\cc1nbtVP.s 			page 101


 4245 0ec9 B7110000 		.4byte	.LASF269
 4246 0ecd 16       		.byte	0x16
 4247 0ece 69       		.byte	0x69
 4248 0ecf C9090000 		.4byte	0x9c9
 4249 0ed3 0E       		.byte	0xe
 4250 0ed4 17       		.uleb128 0x17
 4251 0ed5 6F706100 		.ascii	"opa\000"
 4252 0ed9 16       		.byte	0x16
 4253 0eda 6A       		.byte	0x6a
 4254 0edb 960A0000 		.4byte	0xa96
 4255 0edf 10       		.byte	0x10
 4256 0ee0 00       		.byte	0
 4257 0ee1 06       		.uleb128 0x6
 4258 0ee2 04       		.byte	0x4
 4259 0ee3 E70E0000 		.4byte	0xee7
 4260 0ee7 1B       		.uleb128 0x1b
 4261 0ee8 430D0000 		.4byte	0xd43
 4262 0eec 0A       		.uleb128 0xa
 4263 0eed 08       		.byte	0x8
 4264 0eee 16       		.byte	0x16
 4265 0eef 6E       		.byte	0x6e
 4266 0ef0 190F0000 		.4byte	0xf19
 4267 0ef4 0B       		.uleb128 0xb
 4268 0ef5 0B140000 		.4byte	.LASF252
 4269 0ef9 16       		.byte	0x16
 4270 0efa 70       		.byte	0x70
 4271 0efb 8A0A0000 		.4byte	0xa8a
 4272 0eff 00       		.byte	0
 4273 0f00 0B       		.uleb128 0xb
 4274 0f01 62110000 		.4byte	.LASF270
 4275 0f05 16       		.byte	0x16
 4276 0f06 71       		.byte	0x71
 4277 0f07 960A0000 		.4byte	0xa96
 4278 0f0b 04       		.byte	0x4
 4279 0f0c 17       		.uleb128 0x17
 4280 0f0d 6F706100 		.ascii	"opa\000"
 4281 0f11 16       		.byte	0x16
 4282 0f12 72       		.byte	0x72
 4283 0f13 960A0000 		.4byte	0xa96
 4284 0f17 05       		.byte	0x5
 4285 0f18 00       		.byte	0
 4286 0f19 0A       		.uleb128 0xa
 4287 0f1a 08       		.byte	0x8
 4288 0f1b 16       		.byte	0x16
 4289 0f1c 76       		.byte	0x76
 4290 0f1d 550F0000 		.4byte	0xf55
 4291 0f21 0B       		.uleb128 0xb
 4292 0f22 0B140000 		.4byte	.LASF252
 4293 0f26 16       		.byte	0x16
 4294 0f27 78       		.byte	0x78
 4295 0f28 8A0A0000 		.4byte	0xa8a
 4296 0f2c 00       		.byte	0
 4297 0f2d 0B       		.uleb128 0xb
 4298 0f2e A3070000 		.4byte	.LASF253
 4299 0f32 16       		.byte	0x16
 4300 0f33 79       		.byte	0x79
 4301 0f34 C9090000 		.4byte	0x9c9
ARM GAS  C:\Users\tmj32\AppData\Local\Temp\cc1nbtVP.s 			page 102


 4302 0f38 04       		.byte	0x4
 4303 0f39 17       		.uleb128 0x17
 4304 0f3a 6F706100 		.ascii	"opa\000"
 4305 0f3e 16       		.byte	0x16
 4306 0f3f 7A       		.byte	0x7a
 4307 0f40 960A0000 		.4byte	0xa96
 4308 0f44 06       		.byte	0x6
 4309 0f45 1C       		.uleb128 0x1c
 4310 0f46 5B070000 		.4byte	.LASF271
 4311 0f4a 16       		.byte	0x16
 4312 0f4b 7B       		.byte	0x7b
 4313 0f4c E5000000 		.4byte	0xe5
 4314 0f50 01       		.byte	0x1
 4315 0f51 01       		.byte	0x1
 4316 0f52 07       		.byte	0x7
 4317 0f53 07       		.byte	0x7
 4318 0f54 00       		.byte	0
 4319 0f55 0A       		.uleb128 0xa
 4320 0f56 50       		.byte	0x50
 4321 0f57 16       		.byte	0x16
 4322 0f58 3C       		.byte	0x3c
 4323 0f59 9D0F0000 		.4byte	0xf9d
 4324 0f5d 1C       		.uleb128 0x1c
 4325 0f5e 560A0000 		.4byte	.LASF272
 4326 0f62 16       		.byte	0x16
 4327 0f63 3E       		.byte	0x3e
 4328 0f64 E5000000 		.4byte	0xe5
 4329 0f68 01       		.byte	0x1
 4330 0f69 01       		.byte	0x1
 4331 0f6a 07       		.byte	0x7
 4332 0f6b 00       		.byte	0
 4333 0f6c 0B       		.uleb128 0xb
 4334 0f6d D3120000 		.4byte	.LASF273
 4335 0f71 16       		.byte	0x16
 4336 0f72 60       		.byte	0x60
 4337 0f73 330E0000 		.4byte	0xe33
 4338 0f77 04       		.byte	0x4
 4339 0f78 0B       		.uleb128 0xb
 4340 0f79 7F0B0000 		.4byte	.LASF274
 4341 0f7d 16       		.byte	0x16
 4342 0f7e 6B       		.byte	0x6b
 4343 0f7f 900E0000 		.4byte	0xe90
 4344 0f83 2C       		.byte	0x2c
 4345 0f84 0B       		.uleb128 0xb
 4346 0f85 20040000 		.4byte	.LASF275
 4347 0f89 16       		.byte	0x16
 4348 0f8a 73       		.byte	0x73
 4349 0f8b EC0E0000 		.4byte	0xeec
 4350 0f8f 40       		.byte	0x40
 4351 0f90 0B       		.uleb128 0xb
 4352 0f91 57130000 		.4byte	.LASF276
 4353 0f95 16       		.byte	0x16
 4354 0f96 7C       		.byte	0x7c
 4355 0f97 190F0000 		.4byte	0xf19
 4356 0f9b 48       		.byte	0x48
 4357 0f9c 00       		.byte	0
 4358 0f9d 02       		.uleb128 0x2
ARM GAS  C:\Users\tmj32\AppData\Local\Temp\cc1nbtVP.s 			page 103


 4359 0f9e E7010000 		.4byte	.LASF277
 4360 0fa2 16       		.byte	0x16
 4361 0fa3 84       		.byte	0x84
 4362 0fa4 550F0000 		.4byte	0xf55
 4363 0fa8 02       		.uleb128 0x2
 4364 0fa9 440C0000 		.4byte	.LASF278
 4365 0fad 17       		.byte	0x17
 4366 0fae 30       		.byte	0x30
 4367 0faf E5000000 		.4byte	0xe5
 4368 0fb3 02       		.uleb128 0x2
 4369 0fb4 E3130000 		.4byte	.LASF279
 4370 0fb8 13       		.byte	0x13
 4371 0fb9 42       		.byte	0x42
 4372 0fba E5000000 		.4byte	0xe5
 4373 0fbe 02       		.uleb128 0x2
 4374 0fbf 49020000 		.4byte	.LASF280
 4375 0fc3 13       		.byte	0x13
 4376 0fc4 48       		.byte	0x48
 4377 0fc5 C90F0000 		.4byte	0xfc9
 4378 0fc9 06       		.uleb128 0x6
 4379 0fca 04       		.byte	0x4
 4380 0fcb CF0F0000 		.4byte	0xfcf
 4381 0fcf 11       		.uleb128 0x11
 4382 0fd0 56050000 		.4byte	0x556
 4383 0fd4 E80F0000 		.4byte	0xfe8
 4384 0fd8 10       		.uleb128 0x10
 4385 0fd9 2F0C0000 		.4byte	0xc2f
 4386 0fdd 10       		.uleb128 0x10
 4387 0fde E20A0000 		.4byte	0xae2
 4388 0fe2 10       		.uleb128 0x10
 4389 0fe3 B30F0000 		.4byte	0xfb3
 4390 0fe7 00       		.byte	0
 4391 0fe8 1E       		.uleb128 0x1e
 4392 0fe9 01       		.byte	0x1
 4393 0fea 42000000 		.4byte	0x42
 4394 0fee 13       		.byte	0x13
 4395 0fef 4A       		.byte	0x4a
 4396 0ff0 6D100000 		.4byte	0x106d
 4397 0ff4 0D       		.uleb128 0xd
 4398 0ff5 75080000 		.4byte	.LASF281
 4399 0ff9 00       		.byte	0
 4400 0ffa 0D       		.uleb128 0xd
 4401 0ffb E4100000 		.4byte	.LASF282
 4402 0fff 01       		.byte	0x1
 4403 1000 0D       		.uleb128 0xd
 4404 1001 0E080000 		.4byte	.LASF283
 4405 1005 02       		.byte	0x2
 4406 1006 0D       		.uleb128 0xd
 4407 1007 34160000 		.4byte	.LASF284
 4408 100b 03       		.byte	0x3
 4409 100c 0D       		.uleb128 0xd
 4410 100d 77170000 		.4byte	.LASF285
 4411 1011 04       		.byte	0x4
 4412 1012 0D       		.uleb128 0xd
 4413 1013 58150000 		.4byte	.LASF286
 4414 1017 05       		.byte	0x5
 4415 1018 0D       		.uleb128 0xd
ARM GAS  C:\Users\tmj32\AppData\Local\Temp\cc1nbtVP.s 			page 104


 4416 1019 1E0E0000 		.4byte	.LASF287
 4417 101d 06       		.byte	0x6
 4418 101e 0D       		.uleb128 0xd
 4419 101f C60F0000 		.4byte	.LASF288
 4420 1023 07       		.byte	0x7
 4421 1024 0D       		.uleb128 0xd
 4422 1025 250D0000 		.4byte	.LASF289
 4423 1029 08       		.byte	0x8
 4424 102a 0D       		.uleb128 0xd
 4425 102b C8020000 		.4byte	.LASF290
 4426 102f 09       		.byte	0x9
 4427 1030 0D       		.uleb128 0xd
 4428 1031 24130000 		.4byte	.LASF291
 4429 1035 0A       		.byte	0xa
 4430 1036 0D       		.uleb128 0xd
 4431 1037 88030000 		.4byte	.LASF292
 4432 103b 0B       		.byte	0xb
 4433 103c 0D       		.uleb128 0xd
 4434 103d D9110000 		.4byte	.LASF293
 4435 1041 0C       		.byte	0xc
 4436 1042 0D       		.uleb128 0xd
 4437 1043 120D0000 		.4byte	.LASF294
 4438 1047 0D       		.byte	0xd
 4439 1048 0D       		.uleb128 0xd
 4440 1049 10010000 		.4byte	.LASF295
 4441 104d 0E       		.byte	0xe
 4442 104e 0D       		.uleb128 0xd
 4443 104f 39050000 		.4byte	.LASF296
 4444 1053 0F       		.byte	0xf
 4445 1054 0D       		.uleb128 0xd
 4446 1055 4F010000 		.4byte	.LASF297
 4447 1059 10       		.byte	0x10
 4448 105a 0D       		.uleb128 0xd
 4449 105b A8020000 		.4byte	.LASF298
 4450 105f 11       		.byte	0x11
 4451 1060 0D       		.uleb128 0xd
 4452 1061 D10A0000 		.4byte	.LASF299
 4453 1065 12       		.byte	0x12
 4454 1066 0D       		.uleb128 0xd
 4455 1067 DE070000 		.4byte	.LASF300
 4456 106b 13       		.byte	0x13
 4457 106c 00       		.byte	0
 4458 106d 02       		.uleb128 0x2
 4459 106e 520C0000 		.4byte	.LASF301
 4460 1072 13       		.byte	0x13
 4461 1073 61       		.byte	0x61
 4462 1074 E5000000 		.4byte	0xe5
 4463 1078 02       		.uleb128 0x2
 4464 1079 8D170000 		.4byte	.LASF302
 4465 107d 13       		.byte	0x13
 4466 107e 68       		.byte	0x68
 4467 107f 83100000 		.4byte	0x1083
 4468 1083 06       		.uleb128 0x6
 4469 1084 04       		.byte	0x4
 4470 1085 89100000 		.4byte	0x1089
 4471 1089 0F       		.uleb128 0xf
 4472 108a 99100000 		.4byte	0x1099
ARM GAS  C:\Users\tmj32\AppData\Local\Temp\cc1nbtVP.s 			page 105


 4473 108e 10       		.uleb128 0x10
 4474 108f 2F0C0000 		.4byte	0xc2f
 4475 1093 10       		.uleb128 0x10
 4476 1094 6D100000 		.4byte	0x106d
 4477 1098 00       		.byte	0
 4478 1099 02       		.uleb128 0x2
 4479 109a D8120000 		.4byte	.LASF303
 4480 109e 13       		.byte	0x13
 4481 109f 88       		.byte	0x88
 4482 10a0 E5000000 		.4byte	0xe5
 4483 10a4 02       		.uleb128 0x2
 4484 10a5 20060000 		.4byte	.LASF304
 4485 10a9 13       		.byte	0x13
 4486 10aa 8A       		.byte	0x8a
 4487 10ab AF100000 		.4byte	0x10af
 4488 10af 06       		.uleb128 0x6
 4489 10b0 04       		.byte	0x4
 4490 10b1 B5100000 		.4byte	0x10b5
 4491 10b5 11       		.uleb128 0x11
 4492 10b6 D4090000 		.4byte	0x9d4
 4493 10ba CE100000 		.4byte	0x10ce
 4494 10be 10       		.uleb128 0x10
 4495 10bf 2F0C0000 		.4byte	0xc2f
 4496 10c3 10       		.uleb128 0x10
 4497 10c4 99100000 		.4byte	0x1099
 4498 10c8 10       		.uleb128 0x10
 4499 10c9 B4000000 		.4byte	0xb4
 4500 10cd 00       		.byte	0
 4501 10ce 1E       		.uleb128 0x1e
 4502 10cf 01       		.byte	0x1
 4503 10d0 42000000 		.4byte	0x42
 4504 10d4 13       		.byte	0x13
 4505 10d5 8D       		.byte	0x8d
 4506 10d6 59110000 		.4byte	0x1159
 4507 10da 0D       		.uleb128 0xd
 4508 10db 88010000 		.4byte	.LASF305
 4509 10df 00       		.byte	0
 4510 10e0 0D       		.uleb128 0xd
 4511 10e1 62170000 		.4byte	.LASF306
 4512 10e5 01       		.byte	0x1
 4513 10e6 0D       		.uleb128 0xd
 4514 10e7 D80F0000 		.4byte	.LASF307
 4515 10eb 02       		.byte	0x2
 4516 10ec 0D       		.uleb128 0xd
 4517 10ed 96120000 		.4byte	.LASF308
 4518 10f1 03       		.byte	0x3
 4519 10f2 0D       		.uleb128 0xd
 4520 10f3 7E120000 		.4byte	.LASF309
 4521 10f7 04       		.byte	0x4
 4522 10f8 0D       		.uleb128 0xd
 4523 10f9 D90C0000 		.4byte	.LASF310
 4524 10fd 05       		.byte	0x5
 4525 10fe 0D       		.uleb128 0xd
 4526 10ff 6D0A0000 		.4byte	.LASF311
 4527 1103 06       		.byte	0x6
 4528 1104 0D       		.uleb128 0xd
 4529 1105 25020000 		.4byte	.LASF312
ARM GAS  C:\Users\tmj32\AppData\Local\Temp\cc1nbtVP.s 			page 106


 4530 1109 07       		.byte	0x7
 4531 110a 0D       		.uleb128 0xd
 4532 110b A60D0000 		.4byte	.LASF313
 4533 110f 08       		.byte	0x8
 4534 1110 0D       		.uleb128 0xd
 4535 1111 D40E0000 		.4byte	.LASF314
 4536 1115 09       		.byte	0x9
 4537 1116 0D       		.uleb128 0xd
 4538 1117 21100000 		.4byte	.LASF315
 4539 111b 0A       		.byte	0xa
 4540 111c 0D       		.uleb128 0xd
 4541 111d 72130000 		.4byte	.LASF316
 4542 1121 0B       		.byte	0xb
 4543 1122 0D       		.uleb128 0xd
 4544 1123 66020000 		.4byte	.LASF317
 4545 1127 0C       		.byte	0xc
 4546 1128 0D       		.uleb128 0xd
 4547 1129 E5060000 		.4byte	.LASF318
 4548 112d 0D       		.byte	0xd
 4549 112e 0D       		.uleb128 0xd
 4550 112f 5D050000 		.4byte	.LASF319
 4551 1133 0E       		.byte	0xe
 4552 1134 0D       		.uleb128 0xd
 4553 1135 5E0B0000 		.4byte	.LASF320
 4554 1139 0F       		.byte	0xf
 4555 113a 0D       		.uleb128 0xd
 4556 113b 63070000 		.4byte	.LASF321
 4557 113f 10       		.byte	0x10
 4558 1140 0D       		.uleb128 0xd
 4559 1141 26150000 		.4byte	.LASF322
 4560 1145 11       		.byte	0x11
 4561 1146 0D       		.uleb128 0xd
 4562 1147 FC040000 		.4byte	.LASF323
 4563 114b 12       		.byte	0x12
 4564 114c 0D       		.uleb128 0xd
 4565 114d 01120000 		.4byte	.LASF324
 4566 1151 13       		.byte	0x13
 4567 1152 0D       		.uleb128 0xd
 4568 1153 48060000 		.4byte	.LASF325
 4569 1157 14       		.byte	0x14
 4570 1158 00       		.byte	0
 4571 1159 02       		.uleb128 0x2
 4572 115a 8D050000 		.4byte	.LASF326
 4573 115e 13       		.byte	0x13
 4574 115f A4       		.byte	0xa4
 4575 1160 E5000000 		.4byte	0xe5
 4576 1164 0A       		.uleb128 0xa
 4577 1165 0C       		.byte	0xc
 4578 1166 13       		.byte	0x13
 4579 1167 A7       		.byte	0xa7
 4580 1168 BB110000 		.4byte	0x11bb
 4581 116c 0B       		.uleb128 0xb
 4582 116d AA050000 		.4byte	.LASF327
 4583 1171 13       		.byte	0x13
 4584 1172 A9       		.byte	0xa9
 4585 1173 BB110000 		.4byte	0x11bb
 4586 1177 00       		.byte	0
ARM GAS  C:\Users\tmj32\AppData\Local\Temp\cc1nbtVP.s 			page 107


 4587 1178 0B       		.uleb128 0xb
 4588 1179 F80B0000 		.4byte	.LASF328
 4589 117d 13       		.byte	0x13
 4590 117e AA       		.byte	0xaa
 4591 117f C9090000 		.4byte	0x9c9
 4592 1183 04       		.byte	0x4
 4593 1184 0B       		.uleb128 0xb
 4594 1185 3A020000 		.4byte	.LASF329
 4595 1189 13       		.byte	0x13
 4596 118a AB       		.byte	0xab
 4597 118b C9090000 		.4byte	0x9c9
 4598 118f 06       		.byte	0x6
 4599 1190 0B       		.uleb128 0xb
 4600 1191 11170000 		.4byte	.LASF330
 4601 1195 13       		.byte	0x13
 4602 1196 AC       		.byte	0xac
 4603 1197 59110000 		.4byte	0x1159
 4604 119b 08       		.byte	0x8
 4605 119c 1C       		.uleb128 0x1c
 4606 119d 840B0000 		.4byte	.LASF331
 4607 11a1 13       		.byte	0x13
 4608 11a2 AD       		.byte	0xad
 4609 11a3 E5000000 		.4byte	0xe5
 4610 11a7 01       		.byte	0x1
 4611 11a8 01       		.byte	0x1
 4612 11a9 07       		.byte	0x7
 4613 11aa 09       		.byte	0x9
 4614 11ab 1C       		.uleb128 0x1c
 4615 11ac 810C0000 		.4byte	.LASF332
 4616 11b0 13       		.byte	0x13
 4617 11b1 AE       		.byte	0xae
 4618 11b2 E5000000 		.4byte	0xe5
 4619 11b6 01       		.byte	0x1
 4620 11b7 01       		.byte	0x1
 4621 11b8 06       		.byte	0x6
 4622 11b9 09       		.byte	0x9
 4623 11ba 00       		.byte	0
 4624 11bb 06       		.uleb128 0x6
 4625 11bc 04       		.byte	0x4
 4626 11bd C1110000 		.4byte	0x11c1
 4627 11c1 1B       		.uleb128 0x1b
 4628 11c2 ED0A0000 		.4byte	0xaed
 4629 11c6 02       		.uleb128 0x2
 4630 11c7 A8170000 		.4byte	.LASF333
 4631 11cb 13       		.byte	0x13
 4632 11cc B0       		.byte	0xb0
 4633 11cd 64110000 		.4byte	0x1164
 4634 11d1 02       		.uleb128 0x2
 4635 11d2 CB0C0000 		.4byte	.LASF334
 4636 11d6 13       		.byte	0x13
 4637 11d7 B9       		.byte	0xb9
 4638 11d8 E5000000 		.4byte	0xe5
 4639 11dc 06       		.uleb128 0x6
 4640 11dd 04       		.byte	0x4
 4641 11de E2110000 		.4byte	0x11e2
 4642 11e2 1B       		.uleb128 0x1b
 4643 11e3 9D0F0000 		.4byte	0xf9d
ARM GAS  C:\Users\tmj32\AppData\Local\Temp\cc1nbtVP.s 			page 108


 4644 11e7 02       		.uleb128 0x2
 4645 11e8 01040000 		.4byte	.LASF335
 4646 11ec 13       		.byte	0x13
 4647 11ed F0       		.byte	0xf0
 4648 11ee ED0A0000 		.4byte	0xaed
 4649 11f2 1E       		.uleb128 0x1e
 4650 11f3 01       		.byte	0x1
 4651 11f4 42000000 		.4byte	0x42
 4652 11f8 18       		.byte	0x18
 4653 11f9 2A       		.byte	0x2a
 4654 11fa 23120000 		.4byte	0x1223
 4655 11fe 0D       		.uleb128 0xd
 4656 11ff 89110000 		.4byte	.LASF336
 4657 1203 00       		.byte	0
 4658 1204 0D       		.uleb128 0xd
 4659 1205 B1030000 		.4byte	.LASF337
 4660 1209 01       		.byte	0x1
 4661 120a 0D       		.uleb128 0xd
 4662 120b 1F160000 		.4byte	.LASF338
 4663 120f 02       		.byte	0x2
 4664 1210 0D       		.uleb128 0xd
 4665 1211 91080000 		.4byte	.LASF339
 4666 1215 03       		.byte	0x3
 4667 1216 0D       		.uleb128 0xd
 4668 1217 C2110000 		.4byte	.LASF340
 4669 121b 04       		.byte	0x4
 4670 121c 0D       		.uleb128 0xd
 4671 121d 62100000 		.4byte	.LASF341
 4672 1221 05       		.byte	0x5
 4673 1222 00       		.byte	0
 4674 1223 1E       		.uleb128 0x1e
 4675 1224 01       		.byte	0x1
 4676 1225 42000000 		.4byte	0x42
 4677 1229 19       		.byte	0x19
 4678 122a 2F       		.byte	0x2f
 4679 122b 54120000 		.4byte	0x1254
 4680 122f 0D       		.uleb128 0xd
 4681 1230 60080000 		.4byte	.LASF342
 4682 1234 00       		.byte	0
 4683 1235 0D       		.uleb128 0xd
 4684 1236 000B0000 		.4byte	.LASF343
 4685 123a 01       		.byte	0x1
 4686 123b 0D       		.uleb128 0xd
 4687 123c B6000000 		.4byte	.LASF344
 4688 1240 02       		.byte	0x2
 4689 1241 0D       		.uleb128 0xd
 4690 1242 ED050000 		.4byte	.LASF345
 4691 1246 03       		.byte	0x3
 4692 1247 0D       		.uleb128 0xd
 4693 1248 CC0B0000 		.4byte	.LASF346
 4694 124c 04       		.byte	0x4
 4695 124d 0D       		.uleb128 0xd
 4696 124e 11140000 		.4byte	.LASF347
 4697 1252 05       		.byte	0x5
 4698 1253 00       		.byte	0
 4699 1254 07       		.uleb128 0x7
 4700 1255 C3000000 		.4byte	0xc3
ARM GAS  C:\Users\tmj32\AppData\Local\Temp\cc1nbtVP.s 			page 109


 4701 1259 64120000 		.4byte	0x1264
 4702 125d 08       		.uleb128 0x8
 4703 125e B6000000 		.4byte	0xb6
 4704 1262 03       		.byte	0x3
 4705 1263 00       		.byte	0
 4706 1264 06       		.uleb128 0x6
 4707 1265 04       		.byte	0x4
 4708 1266 E7110000 		.4byte	0x11e7
 4709 126a 1E       		.uleb128 0x1e
 4710 126b 01       		.byte	0x1
 4711 126c 42000000 		.4byte	0x42
 4712 1270 1A       		.byte	0x1a
 4713 1271 2D       		.byte	0x2d
 4714 1272 9B120000 		.4byte	0x129b
 4715 1276 0D       		.uleb128 0xd
 4716 1277 CA130000 		.4byte	.LASF348
 4717 127b 00       		.byte	0
 4718 127c 0D       		.uleb128 0xd
 4719 127d FB070000 		.4byte	.LASF349
 4720 1281 01       		.byte	0x1
 4721 1282 0D       		.uleb128 0xd
 4722 1283 56090000 		.4byte	.LASF350
 4723 1287 02       		.byte	0x2
 4724 1288 0D       		.uleb128 0xd
 4725 1289 14110000 		.4byte	.LASF351
 4726 128d 04       		.byte	0x4
 4727 128e 0D       		.uleb128 0xd
 4728 128f 75150000 		.4byte	.LASF352
 4729 1293 08       		.byte	0x8
 4730 1294 0D       		.uleb128 0xd
 4731 1295 4B160000 		.4byte	.LASF353
 4732 1299 10       		.byte	0x10
 4733 129a 00       		.byte	0
 4734 129b 0A       		.uleb128 0xa
 4735 129c 0C       		.byte	0xc
 4736 129d 1A       		.byte	0x1a
 4737 129e 3E       		.byte	0x3e
 4738 129f C8120000 		.4byte	0x12c8
 4739 12a3 0B       		.uleb128 0xb
 4740 12a4 49170000 		.4byte	.LASF354
 4741 12a8 1A       		.byte	0x1a
 4742 12a9 40       		.byte	0x40
 4743 12aa C8120000 		.4byte	0x12c8
 4744 12ae 00       		.byte	0
 4745 12af 0B       		.uleb128 0xb
 4746 12b0 0B140000 		.4byte	.LASF252
 4747 12b4 1A       		.byte	0x1a
 4748 12b5 41       		.byte	0x41
 4749 12b6 8A0A0000 		.4byte	0xa8a
 4750 12ba 04       		.byte	0x4
 4751 12bb 0B       		.uleb128 0xb
 4752 12bc 40110000 		.4byte	.LASF355
 4753 12c0 1A       		.byte	0x1a
 4754 12c1 42       		.byte	0x42
 4755 12c2 FB000000 		.4byte	0xfb
 4756 12c6 08       		.byte	0x8
 4757 12c7 00       		.byte	0
ARM GAS  C:\Users\tmj32\AppData\Local\Temp\cc1nbtVP.s 			page 110


 4758 12c8 06       		.uleb128 0x6
 4759 12c9 04       		.byte	0x4
 4760 12ca C9090000 		.4byte	0x9c9
 4761 12ce 02       		.uleb128 0x2
 4762 12cf BC100000 		.4byte	.LASF356
 4763 12d3 1A       		.byte	0x1a
 4764 12d4 43       		.byte	0x43
 4765 12d5 9B120000 		.4byte	0x129b
 4766 12d9 1E       		.uleb128 0x1e
 4767 12da 01       		.byte	0x1
 4768 12db 42000000 		.4byte	0x42
 4769 12df 04       		.byte	0x4
 4770 12e0 2A       		.byte	0x2a
 4771 12e1 F2120000 		.4byte	0x12f2
 4772 12e5 0D       		.uleb128 0xd
 4773 12e6 720E0000 		.4byte	.LASF357
 4774 12ea 00       		.byte	0
 4775 12eb 0D       		.uleb128 0xd
 4776 12ec 8A070000 		.4byte	.LASF358
 4777 12f0 01       		.byte	0x1
 4778 12f1 00       		.byte	0
 4779 12f2 1F       		.uleb128 0x1f
 4780 12f3 F20A0000 		.4byte	.LASF359
 4781 12f7 01       		.byte	0x1
 4782 12f8 DD01     		.2byte	0x1dd
 4783 12fa 8A0A0000 		.4byte	0xa8a
 4784 12fe 00000000 		.4byte	.LFB588
 4785 1302 38000000 		.4byte	.LFE588-.LFB588
 4786 1306 01       		.uleb128 0x1
 4787 1307 9C       		.byte	0x9c
 4788 1308 34130000 		.4byte	0x1334
 4789 130c 20       		.uleb128 0x20
 4790 130d 7200     		.ascii	"r\000"
 4791 130f 01       		.byte	0x1
 4792 1310 DD01     		.2byte	0x1dd
 4793 1312 E5000000 		.4byte	0xe5
 4794 1316 02       		.uleb128 0x2
 4795 1317 91       		.byte	0x91
 4796 1318 77       		.sleb128 -9
 4797 1319 20       		.uleb128 0x20
 4798 131a 6700     		.ascii	"g\000"
 4799 131c 01       		.byte	0x1
 4800 131d DD01     		.2byte	0x1dd
 4801 131f E5000000 		.4byte	0xe5
 4802 1323 02       		.uleb128 0x2
 4803 1324 91       		.byte	0x91
 4804 1325 76       		.sleb128 -10
 4805 1326 20       		.uleb128 0x20
 4806 1327 6200     		.ascii	"b\000"
 4807 1329 01       		.byte	0x1
 4808 132a DD01     		.2byte	0x1dd
 4809 132c E5000000 		.4byte	0xe5
 4810 1330 02       		.uleb128 0x2
 4811 1331 91       		.byte	0x91
 4812 1332 75       		.sleb128 -11
 4813 1333 00       		.byte	0
 4814 1334 21       		.uleb128 0x21
ARM GAS  C:\Users\tmj32\AppData\Local\Temp\cc1nbtVP.s 			page 111


 4815 1335 20090000 		.4byte	.LASF360
 4816 1339 01       		.byte	0x1
 4817 133a E201     		.2byte	0x1e2
 4818 133c 8A0A0000 		.4byte	0xa8a
 4819 1340 00000000 		.4byte	.LFB589
 4820 1344 28000000 		.4byte	.LFE589-.LFB589
 4821 1348 01       		.uleb128 0x1
 4822 1349 9C       		.byte	0x9c
 4823 134a 5C130000 		.4byte	0x135c
 4824 134e 20       		.uleb128 0x20
 4825 134f 6300     		.ascii	"c\000"
 4826 1351 01       		.byte	0x1
 4827 1352 E201     		.2byte	0x1e2
 4828 1354 11010000 		.4byte	0x111
 4829 1358 02       		.uleb128 0x2
 4830 1359 91       		.byte	0x91
 4831 135a 74       		.sleb128 -12
 4832 135b 00       		.byte	0
 4833 135c 22       		.uleb128 0x22
 4834 135d 140B0000 		.4byte	.LASF420
 4835 1361 02       		.byte	0x2
 4836 1362 61       		.byte	0x61
 4837 1363 64120000 		.4byte	0x1264
 4838 1367 00000000 		.4byte	.LFB613
 4839 136b 16000000 		.4byte	.LFE613-.LFB613
 4840 136f 01       		.uleb128 0x1
 4841 1370 9C       		.byte	0x9c
 4842 1371 23       		.uleb128 0x23
 4843 1372 F0080000 		.4byte	.LASF364
 4844 1376 03       		.byte	0x3
 4845 1377 4F       		.byte	0x4f
 4846 1378 00000000 		.4byte	.LFB668
 4847 137c 26000000 		.4byte	.LFE668-.LFB668
 4848 1380 01       		.uleb128 0x1
 4849 1381 9C       		.byte	0x9c
 4850 1382 B1130000 		.4byte	0x13b1
 4851 1386 24       		.uleb128 0x24
 4852 1387 11070000 		.4byte	.LASF361
 4853 138b 03       		.byte	0x3
 4854 138c 4F       		.byte	0x4f
 4855 138d 64120000 		.4byte	0x1264
 4856 1391 02       		.uleb128 0x2
 4857 1392 91       		.byte	0x91
 4858 1393 74       		.sleb128 -12
 4859 1394 24       		.uleb128 0x24
 4860 1395 0B070000 		.4byte	.LASF362
 4861 1399 03       		.byte	0x3
 4862 139a 4F       		.byte	0x4f
 4863 139b F0000000 		.4byte	0xf0
 4864 139f 02       		.uleb128 0x2
 4865 13a0 91       		.byte	0x91
 4866 13a1 72       		.sleb128 -14
 4867 13a2 24       		.uleb128 0x24
 4868 13a3 95030000 		.4byte	.LASF363
 4869 13a7 03       		.byte	0x3
 4870 13a8 4F       		.byte	0x4f
 4871 13a9 670D0000 		.4byte	0xd67
ARM GAS  C:\Users\tmj32\AppData\Local\Temp\cc1nbtVP.s 			page 112


 4872 13ad 02       		.uleb128 0x2
 4873 13ae 91       		.byte	0x91
 4874 13af 71       		.sleb128 -15
 4875 13b0 00       		.byte	0
 4876 13b1 23       		.uleb128 0x23
 4877 13b2 3F0F0000 		.4byte	.LASF365
 4878 13b6 03       		.byte	0x3
 4879 13b7 5A       		.byte	0x5a
 4880 13b8 00000000 		.4byte	.LFB669
 4881 13bc 28000000 		.4byte	.LFE669-.LFB669
 4882 13c0 01       		.uleb128 0x1
 4883 13c1 9C       		.byte	0x9c
 4884 13c2 F1130000 		.4byte	0x13f1
 4885 13c6 24       		.uleb128 0x24
 4886 13c7 11070000 		.4byte	.LASF361
 4887 13cb 03       		.byte	0x3
 4888 13cc 5A       		.byte	0x5a
 4889 13cd 64120000 		.4byte	0x1264
 4890 13d1 02       		.uleb128 0x2
 4891 13d2 91       		.byte	0x91
 4892 13d3 74       		.sleb128 -12
 4893 13d4 25       		.uleb128 0x25
 4894 13d5 6D696E00 		.ascii	"min\000"
 4895 13d9 03       		.byte	0x3
 4896 13da 5A       		.byte	0x5a
 4897 13db F0000000 		.4byte	0xf0
 4898 13df 02       		.uleb128 0x2
 4899 13e0 91       		.byte	0x91
 4900 13e1 72       		.sleb128 -14
 4901 13e2 25       		.uleb128 0x25
 4902 13e3 6D617800 		.ascii	"max\000"
 4903 13e7 03       		.byte	0x3
 4904 13e8 5A       		.byte	0x5a
 4905 13e9 F0000000 		.4byte	0xf0
 4906 13ed 02       		.uleb128 0x2
 4907 13ee 91       		.byte	0x91
 4908 13ef 70       		.sleb128 -16
 4909 13f0 00       		.byte	0
 4910 13f1 23       		.uleb128 0x23
 4911 13f2 77000000 		.4byte	.LASF366
 4912 13f6 04       		.byte	0x4
 4913 13f7 9B       		.byte	0x9b
 4914 13f8 00000000 		.4byte	.LFB687
 4915 13fc 22000000 		.4byte	.LFE687-.LFB687
 4916 1400 01       		.uleb128 0x1
 4917 1401 9C       		.byte	0x9c
 4918 1402 31140000 		.4byte	0x1431
 4919 1406 24       		.uleb128 0x24
 4920 1407 3F100000 		.4byte	.LASF367
 4921 140b 04       		.byte	0x4
 4922 140c 9B       		.byte	0x9b
 4923 140d 31140000 		.4byte	0x1431
 4924 1411 02       		.uleb128 0x2
 4925 1412 91       		.byte	0x91
 4926 1413 74       		.sleb128 -12
 4927 1414 25       		.uleb128 0x25
 4928 1415 62756600 		.ascii	"buf\000"
ARM GAS  C:\Users\tmj32\AppData\Local\Temp\cc1nbtVP.s 			page 113


 4929 1419 04       		.byte	0x4
 4930 141a 9B       		.byte	0x9b
 4931 141b BD000000 		.4byte	0xbd
 4932 141f 02       		.uleb128 0x2
 4933 1420 91       		.byte	0x91
 4934 1421 70       		.sleb128 -16
 4935 1422 24       		.uleb128 0x24
 4936 1423 30050000 		.4byte	.LASF368
 4937 1427 04       		.byte	0x4
 4938 1428 9B       		.byte	0x9b
 4939 1429 FB000000 		.4byte	0xfb
 4940 142d 02       		.uleb128 0x2
 4941 142e 91       		.byte	0x91
 4942 142f 6E       		.sleb128 -18
 4943 1430 00       		.byte	0
 4944 1431 06       		.uleb128 0x6
 4945 1432 04       		.byte	0x4
 4946 1433 37140000 		.4byte	0x1437
 4947 1437 1B       		.uleb128 0x1b
 4948 1438 E7110000 		.4byte	0x11e7
 4949 143c 26       		.uleb128 0x26
 4950 143d 16150000 		.4byte	.LASF369
 4951 1441 05       		.byte	0x5
 4952 1442 81       		.byte	0x81
 4953 1443 56050000 		.4byte	0x556
 4954 1447 00000000 		.4byte	.LFB714
 4955 144b 22000000 		.4byte	.LFE714-.LFB714
 4956 144f 01       		.uleb128 0x1
 4957 1450 9C       		.byte	0x9c
 4958 1451 63140000 		.4byte	0x1463
 4959 1455 25       		.uleb128 0x25
 4960 1456 737700   		.ascii	"sw\000"
 4961 1459 05       		.byte	0x5
 4962 145a 81       		.byte	0x81
 4963 145b 31140000 		.4byte	0x1431
 4964 145f 02       		.uleb128 0x2
 4965 1460 91       		.byte	0x91
 4966 1461 74       		.sleb128 -12
 4967 1462 00       		.byte	0
 4968 1463 27       		.uleb128 0x27
 4969 1464 FD060000 		.4byte	.LASF389
 4970 1468 06       		.byte	0x6
 4971 1469 1A       		.byte	0x1a
 4972 146a 00000000 		.4byte	.LFB717
 4973 146e 04040000 		.4byte	.LFE717-.LFB717
 4974 1472 01       		.uleb128 0x1
 4975 1473 9C       		.byte	0x9c
 4976 1474 2B150000 		.4byte	0x152b
 4977 1478 28       		.uleb128 0x28
 4978 1479 D9040000 		.4byte	.LASF370
 4979 147d 06       		.byte	0x6
 4980 147e 1C       		.byte	0x1c
 4981 147f 2B150000 		.4byte	0x152b
 4982 1483 02       		.uleb128 0x2
 4983 1484 91       		.byte	0x91
 4984 1485 5C       		.sleb128 -36
 4985 1486 28       		.uleb128 0x28
ARM GAS  C:\Users\tmj32\AppData\Local\Temp\cc1nbtVP.s 			page 114


 4986 1487 C70E0000 		.4byte	.LASF371
 4987 148b 06       		.byte	0x6
 4988 148c 1D       		.byte	0x1d
 4989 148d 2B150000 		.4byte	0x152b
 4990 1491 02       		.uleb128 0x2
 4991 1492 91       		.byte	0x91
 4992 1493 58       		.sleb128 -40
 4993 1494 28       		.uleb128 0x28
 4994 1495 530F0000 		.4byte	.LASF372
 4995 1499 06       		.byte	0x6
 4996 149a 1F       		.byte	0x1f
 4997 149b 9F000000 		.4byte	0x9f
 4998 149f 02       		.uleb128 0x2
 4999 14a0 91       		.byte	0x91
 5000 14a1 6C       		.sleb128 -20
 5001 14a2 28       		.uleb128 0x28
 5002 14a3 AF000000 		.4byte	.LASF373
 5003 14a7 06       		.byte	0x6
 5004 14a8 21       		.byte	0x21
 5005 14a9 64120000 		.4byte	0x1264
 5006 14ad 05       		.uleb128 0x5
 5007 14ae 03       		.byte	0x3
 5008 14af 14000000 		.4byte	chart1.20848
 5009 14b3 29       		.uleb128 0x29
 5010 14b4 733100   		.ascii	"s1\000"
 5011 14b7 06       		.byte	0x6
 5012 14b8 5D       		.byte	0x5d
 5013 14b9 30150000 		.4byte	0x1530
 5014 14bd 02       		.uleb128 0x2
 5015 14be 91       		.byte	0x91
 5016 14bf 54       		.sleb128 -44
 5017 14c0 29       		.uleb128 0x29
 5018 14c1 733200   		.ascii	"s2\000"
 5019 14c4 06       		.byte	0x6
 5020 14c5 5E       		.byte	0x5e
 5021 14c6 30150000 		.4byte	0x1530
 5022 14ca 02       		.uleb128 0x2
 5023 14cb 91       		.byte	0x91
 5024 14cc 50       		.sleb128 -48
 5025 14cd 28       		.uleb128 0x28
 5026 14ce 75060000 		.4byte	.LASF374
 5027 14d2 06       		.byte	0x6
 5028 14d3 65       		.byte	0x65
 5029 14d4 9F000000 		.4byte	0x9f
 5030 14d8 02       		.uleb128 0x2
 5031 14d9 91       		.byte	0x91
 5032 14da 68       		.sleb128 -24
 5033 14db 28       		.uleb128 0x28
 5034 14dc 86080000 		.4byte	.LASF375
 5035 14e0 06       		.byte	0x6
 5036 14e1 66       		.byte	0x66
 5037 14e2 9F000000 		.4byte	0x9f
 5038 14e6 02       		.uleb128 0x2
 5039 14e7 91       		.byte	0x91
 5040 14e8 64       		.sleb128 -28
 5041 14e9 28       		.uleb128 0x28
 5042 14ea B8130000 		.4byte	.LASF376
ARM GAS  C:\Users\tmj32\AppData\Local\Temp\cc1nbtVP.s 			page 115


 5043 14ee 06       		.byte	0x6
 5044 14ef 74       		.byte	0x74
 5045 14f0 4F050000 		.4byte	0x54f
 5046 14f4 02       		.uleb128 0x2
 5047 14f5 91       		.byte	0x91
 5048 14f6 48       		.sleb128 -56
 5049 14f7 28       		.uleb128 0x28
 5050 14f8 7C140000 		.4byte	.LASF377
 5051 14fc 06       		.byte	0x6
 5052 14fd 76       		.byte	0x76
 5053 14fe 4F050000 		.4byte	0x54f
 5054 1502 02       		.uleb128 0x2
 5055 1503 91       		.byte	0x91
 5056 1504 40       		.sleb128 -64
 5057 1505 28       		.uleb128 0x28
 5058 1506 F4130000 		.4byte	.LASF378
 5059 150a 06       		.byte	0x6
 5060 150b 78       		.byte	0x78
 5061 150c 4F050000 		.4byte	0x54f
 5062 1510 03       		.uleb128 0x3
 5063 1511 91       		.byte	0x91
 5064 1512 B87F     		.sleb128 -72
 5065 1514 2A       		.uleb128 0x2a
 5066 1515 8C020000 		.4byte	.LBB2
 5067 1519 3A010000 		.4byte	.LBE2-.LBB2
 5068 151d 29       		.uleb128 0x29
 5069 151e 6900     		.ascii	"i\000"
 5070 1520 06       		.byte	0x6
 5071 1521 7E       		.byte	0x7e
 5072 1522 9F000000 		.4byte	0x9f
 5073 1526 02       		.uleb128 0x2
 5074 1527 91       		.byte	0x91
 5075 1528 60       		.sleb128 -32
 5076 1529 00       		.byte	0
 5077 152a 00       		.byte	0
 5078 152b 1B       		.uleb128 0x1b
 5079 152c 9F000000 		.4byte	0x9f
 5080 1530 06       		.uleb128 0x6
 5081 1531 04       		.byte	0x4
 5082 1532 CE120000 		.4byte	0x12ce
 5083 1536 23       		.uleb128 0x23
 5084 1537 B9150000 		.4byte	.LASF379
 5085 153b 06       		.byte	0x6
 5086 153c 8D       		.byte	0x8d
 5087 153d 00000000 		.4byte	.LFB718
 5088 1541 8C000000 		.4byte	.LFE718-.LFB718
 5089 1545 01       		.uleb128 0x1
 5090 1546 9C       		.byte	0x9c
 5091 1547 7C150000 		.4byte	0x157c
 5092 154b 25       		.uleb128 0x25
 5093 154c 6F626A00 		.ascii	"obj\000"
 5094 1550 06       		.byte	0x6
 5095 1551 8D       		.byte	0x8d
 5096 1552 64120000 		.4byte	0x1264
 5097 1556 02       		.uleb128 0x2
 5098 1557 91       		.byte	0x91
 5099 1558 54       		.sleb128 -44
ARM GAS  C:\Users\tmj32\AppData\Local\Temp\cc1nbtVP.s 			page 116


 5100 1559 24       		.uleb128 0x24
 5101 155a 98050000 		.4byte	.LASF380
 5102 155e 06       		.byte	0x6
 5103 155f 8D       		.byte	0x8d
 5104 1560 6D100000 		.4byte	0x106d
 5105 1564 02       		.uleb128 0x2
 5106 1565 91       		.byte	0x91
 5107 1566 53       		.sleb128 -45
 5108 1567 2B       		.uleb128 0x2b
 5109 1568 00000000 		.4byte	.Ldebug_ranges0+0
 5110 156c 29       		.uleb128 0x29
 5111 156d 62756600 		.ascii	"buf\000"
 5112 1571 06       		.byte	0x6
 5113 1572 90       		.byte	0x90
 5114 1573 7C150000 		.4byte	0x157c
 5115 1577 02       		.uleb128 0x2
 5116 1578 91       		.byte	0x91
 5117 1579 58       		.sleb128 -40
 5118 157a 00       		.byte	0
 5119 157b 00       		.byte	0
 5120 157c 07       		.uleb128 0x7
 5121 157d C3000000 		.4byte	0xc3
 5122 1581 8C150000 		.4byte	0x158c
 5123 1585 08       		.uleb128 0x8
 5124 1586 B6000000 		.4byte	0xb6
 5125 158a 1F       		.byte	0x1f
 5126 158b 00       		.byte	0
 5127 158c 23       		.uleb128 0x23
 5128 158d AE0B0000 		.4byte	.LASF381
 5129 1591 06       		.byte	0x6
 5130 1592 A3       		.byte	0xa3
 5131 1593 00000000 		.4byte	.LFB719
 5132 1597 8C000000 		.4byte	.LFE719-.LFB719
 5133 159b 01       		.uleb128 0x1
 5134 159c 9C       		.byte	0x9c
 5135 159d D2150000 		.4byte	0x15d2
 5136 15a1 25       		.uleb128 0x25
 5137 15a2 6F626A00 		.ascii	"obj\000"
 5138 15a6 06       		.byte	0x6
 5139 15a7 A3       		.byte	0xa3
 5140 15a8 64120000 		.4byte	0x1264
 5141 15ac 02       		.uleb128 0x2
 5142 15ad 91       		.byte	0x91
 5143 15ae 54       		.sleb128 -44
 5144 15af 24       		.uleb128 0x24
 5145 15b0 98050000 		.4byte	.LASF380
 5146 15b4 06       		.byte	0x6
 5147 15b5 A3       		.byte	0xa3
 5148 15b6 6D100000 		.4byte	0x106d
 5149 15ba 02       		.uleb128 0x2
 5150 15bb 91       		.byte	0x91
 5151 15bc 53       		.sleb128 -45
 5152 15bd 2B       		.uleb128 0x2b
 5153 15be 28000000 		.4byte	.Ldebug_ranges0+0x28
 5154 15c2 29       		.uleb128 0x29
 5155 15c3 62756600 		.ascii	"buf\000"
 5156 15c7 06       		.byte	0x6
ARM GAS  C:\Users\tmj32\AppData\Local\Temp\cc1nbtVP.s 			page 117


 5157 15c8 A6       		.byte	0xa6
 5158 15c9 7C150000 		.4byte	0x157c
 5159 15cd 02       		.uleb128 0x2
 5160 15ce 91       		.byte	0x91
 5161 15cf 58       		.sleb128 -40
 5162 15d0 00       		.byte	0
 5163 15d1 00       		.byte	0
 5164 15d2 23       		.uleb128 0x23
 5165 15d3 97020000 		.4byte	.LASF382
 5166 15d7 06       		.byte	0x6
 5167 15d8 BA       		.byte	0xba
 5168 15d9 00000000 		.4byte	.LFB720
 5169 15dd 2C000000 		.4byte	.LFE720-.LFB720
 5170 15e1 01       		.uleb128 0x1
 5171 15e2 9C       		.byte	0x9c
 5172 15e3 04160000 		.4byte	0x1604
 5173 15e7 25       		.uleb128 0x25
 5174 15e8 6F626A00 		.ascii	"obj\000"
 5175 15ec 06       		.byte	0x6
 5176 15ed BA       		.byte	0xba
 5177 15ee 64120000 		.4byte	0x1264
 5178 15f2 02       		.uleb128 0x2
 5179 15f3 91       		.byte	0x91
 5180 15f4 74       		.sleb128 -12
 5181 15f5 24       		.uleb128 0x24
 5182 15f6 98050000 		.4byte	.LASF380
 5183 15fa 06       		.byte	0x6
 5184 15fb BA       		.byte	0xba
 5185 15fc 6D100000 		.4byte	0x106d
 5186 1600 02       		.uleb128 0x2
 5187 1601 91       		.byte	0x91
 5188 1602 73       		.sleb128 -13
 5189 1603 00       		.byte	0
 5190 1604 23       		.uleb128 0x23
 5191 1605 0E000000 		.4byte	.LASF383
 5192 1609 06       		.byte	0x6
 5193 160a C4       		.byte	0xc4
 5194 160b 00000000 		.4byte	.LFB721
 5195 160f 74000000 		.4byte	.LFE721-.LFB721
 5196 1613 01       		.uleb128 0x1
 5197 1614 9C       		.byte	0x9c
 5198 1615 62160000 		.4byte	0x1662
 5199 1619 24       		.uleb128 0x24
 5200 161a 11070000 		.4byte	.LASF361
 5201 161e 06       		.byte	0x6
 5202 161f C4       		.byte	0xc4
 5203 1620 64120000 		.4byte	0x1264
 5204 1624 02       		.uleb128 0x2
 5205 1625 91       		.byte	0x91
 5206 1626 74       		.sleb128 -12
 5207 1627 24       		.uleb128 0x24
 5208 1628 98050000 		.4byte	.LASF380
 5209 162c 06       		.byte	0x6
 5210 162d C4       		.byte	0xc4
 5211 162e 6D100000 		.4byte	0x106d
 5212 1632 02       		.uleb128 0x2
 5213 1633 91       		.byte	0x91
ARM GAS  C:\Users\tmj32\AppData\Local\Temp\cc1nbtVP.s 			page 118


 5214 1634 73       		.sleb128 -13
 5215 1635 2A       		.uleb128 0x2a
 5216 1636 12000000 		.4byte	.LBB11
 5217 163a 44000000 		.4byte	.LBE11-.LBB11
 5218 163e 29       		.uleb128 0x29
 5219 163f 62756600 		.ascii	"buf\000"
 5220 1643 06       		.byte	0x6
 5221 1644 C7       		.byte	0xc7
 5222 1645 CA000000 		.4byte	0xca
 5223 1649 05       		.uleb128 0x5
 5224 164a 03       		.byte	0x3
 5225 164b 18000000 		.4byte	buf.20892
 5226 164f 28       		.uleb128 0x28
 5227 1650 59140000 		.4byte	.LASF384
 5228 1654 06       		.byte	0x6
 5229 1655 C8       		.byte	0xc8
 5230 1656 54120000 		.4byte	0x1254
 5231 165a 05       		.uleb128 0x5
 5232 165b 03       		.byte	0x3
 5233 165c 00000000 		.4byte	units.20893
 5234 1660 00       		.byte	0
 5235 1661 00       		.byte	0
 5236 1662 23       		.uleb128 0x23
 5237 1663 AF0E0000 		.4byte	.LASF385
 5238 1667 06       		.byte	0x6
 5239 1668 D0       		.byte	0xd0
 5240 1669 00000000 		.4byte	.LFB722
 5241 166d 78000000 		.4byte	.LFE722-.LFB722
 5242 1671 01       		.uleb128 0x1
 5243 1672 9C       		.byte	0x9c
 5244 1673 C0160000 		.4byte	0x16c0
 5245 1677 24       		.uleb128 0x24
 5246 1678 11070000 		.4byte	.LASF361
 5247 167c 06       		.byte	0x6
 5248 167d D0       		.byte	0xd0
 5249 167e 64120000 		.4byte	0x1264
 5250 1682 02       		.uleb128 0x2
 5251 1683 91       		.byte	0x91
 5252 1684 74       		.sleb128 -12
 5253 1685 24       		.uleb128 0x24
 5254 1686 98050000 		.4byte	.LASF380
 5255 168a 06       		.byte	0x6
 5256 168b D0       		.byte	0xd0
 5257 168c 6D100000 		.4byte	0x106d
 5258 1690 02       		.uleb128 0x2
 5259 1691 91       		.byte	0x91
 5260 1692 73       		.sleb128 -13
 5261 1693 2A       		.uleb128 0x2a
 5262 1694 12000000 		.4byte	.LBB12
 5263 1698 46000000 		.4byte	.LBE12-.LBB12
 5264 169c 29       		.uleb128 0x29
 5265 169d 62756600 		.ascii	"buf\000"
 5266 16a1 06       		.byte	0x6
 5267 16a2 D3       		.byte	0xd3
 5268 16a3 CA000000 		.4byte	0xca
 5269 16a7 05       		.uleb128 0x5
 5270 16a8 03       		.byte	0x3
ARM GAS  C:\Users\tmj32\AppData\Local\Temp\cc1nbtVP.s 			page 119


 5271 16a9 20000000 		.4byte	buf.20898
 5272 16ad 28       		.uleb128 0x28
 5273 16ae 59140000 		.4byte	.LASF384
 5274 16b2 06       		.byte	0x6
 5275 16b3 D4       		.byte	0xd4
 5276 16b4 54120000 		.4byte	0x1254
 5277 16b8 05       		.uleb128 0x5
 5278 16b9 03       		.byte	0x3
 5279 16ba 04000000 		.4byte	units.20899
 5280 16be 00       		.byte	0
 5281 16bf 00       		.byte	0
 5282 16c0 23       		.uleb128 0x23
 5283 16c1 3A010000 		.4byte	.LASF386
 5284 16c5 06       		.byte	0x6
 5285 16c6 DC       		.byte	0xdc
 5286 16c7 00000000 		.4byte	.LFB723
 5287 16cb E0000000 		.4byte	.LFE723-.LFB723
 5288 16cf 01       		.uleb128 0x1
 5289 16d0 9C       		.byte	0x9c
 5290 16d1 0D170000 		.4byte	0x170d
 5291 16d5 24       		.uleb128 0x24
 5292 16d6 11070000 		.4byte	.LASF361
 5293 16da 06       		.byte	0x6
 5294 16db DC       		.byte	0xdc
 5295 16dc 64120000 		.4byte	0x1264
 5296 16e0 02       		.uleb128 0x2
 5297 16e1 91       		.byte	0x91
 5298 16e2 74       		.sleb128 -12
 5299 16e3 24       		.uleb128 0x24
 5300 16e4 98050000 		.4byte	.LASF380
 5301 16e8 06       		.byte	0x6
 5302 16e9 DC       		.byte	0xdc
 5303 16ea 6D100000 		.4byte	0x106d
 5304 16ee 02       		.uleb128 0x2
 5305 16ef 91       		.byte	0x91
 5306 16f0 73       		.sleb128 -13
 5307 16f1 2A       		.uleb128 0x2a
 5308 16f2 12000000 		.4byte	.LBB13
 5309 16f6 A2000000 		.4byte	.LBE13-.LBB13
 5310 16fa 29       		.uleb128 0x29
 5311 16fb 62756600 		.ascii	"buf\000"
 5312 16ff 06       		.byte	0x6
 5313 1700 DF       		.byte	0xdf
 5314 1701 0D170000 		.4byte	0x170d
 5315 1705 05       		.uleb128 0x5
 5316 1706 03       		.byte	0x3
 5317 1707 28000000 		.4byte	buf.20904
 5318 170b 00       		.byte	0
 5319 170c 00       		.byte	0
 5320 170d 07       		.uleb128 0x7
 5321 170e C3000000 		.4byte	0xc3
 5322 1712 1D170000 		.4byte	0x171d
 5323 1716 08       		.uleb128 0x8
 5324 1717 B6000000 		.4byte	0xb6
 5325 171b 09       		.byte	0x9
 5326 171c 00       		.byte	0
 5327 171d 23       		.uleb128 0x23
ARM GAS  C:\Users\tmj32\AppData\Local\Temp\cc1nbtVP.s 			page 120


 5328 171e 7F090000 		.4byte	.LASF387
 5329 1722 06       		.byte	0x6
 5330 1723 FD       		.byte	0xfd
 5331 1724 00000000 		.4byte	.LFB724
 5332 1728 E0000000 		.4byte	.LFE724-.LFB724
 5333 172c 01       		.uleb128 0x1
 5334 172d 9C       		.byte	0x9c
 5335 172e 6B170000 		.4byte	0x176b
 5336 1732 24       		.uleb128 0x24
 5337 1733 11070000 		.4byte	.LASF361
 5338 1737 06       		.byte	0x6
 5339 1738 FD       		.byte	0xfd
 5340 1739 64120000 		.4byte	0x1264
 5341 173d 02       		.uleb128 0x2
 5342 173e 91       		.byte	0x91
 5343 173f 74       		.sleb128 -12
 5344 1740 24       		.uleb128 0x24
 5345 1741 98050000 		.4byte	.LASF380
 5346 1745 06       		.byte	0x6
 5347 1746 FD       		.byte	0xfd
 5348 1747 6D100000 		.4byte	0x106d
 5349 174b 02       		.uleb128 0x2
 5350 174c 91       		.byte	0x91
 5351 174d 73       		.sleb128 -13
 5352 174e 2A       		.uleb128 0x2a
 5353 174f 12000000 		.4byte	.LBB14
 5354 1753 A2000000 		.4byte	.LBE14-.LBB14
 5355 1757 2C       		.uleb128 0x2c
 5356 1758 62756600 		.ascii	"buf\000"
 5357 175c 06       		.byte	0x6
 5358 175d 0001     		.2byte	0x100
 5359 175f 0D170000 		.4byte	0x170d
 5360 1763 05       		.uleb128 0x5
 5361 1764 03       		.byte	0x3
 5362 1765 34000000 		.4byte	buf.20916
 5363 1769 00       		.byte	0
 5364 176a 00       		.byte	0
 5365 176b 2D       		.uleb128 0x2d
 5366 176c AF050000 		.4byte	.LASF388
 5367 1770 06       		.byte	0x6
 5368 1771 1A01     		.2byte	0x11a
 5369 1773 00000000 		.4byte	.LFB725
 5370 1777 30000000 		.4byte	.LFE725-.LFB725
 5371 177b 01       		.uleb128 0x1
 5372 177c 9C       		.byte	0x9c
 5373 177d A0170000 		.4byte	0x17a0
 5374 1781 2E       		.uleb128 0x2e
 5375 1782 11070000 		.4byte	.LASF361
 5376 1786 06       		.byte	0x6
 5377 1787 1A01     		.2byte	0x11a
 5378 1789 64120000 		.4byte	0x1264
 5379 178d 02       		.uleb128 0x2
 5380 178e 91       		.byte	0x91
 5381 178f 74       		.sleb128 -12
 5382 1790 2E       		.uleb128 0x2e
 5383 1791 98050000 		.4byte	.LASF380
 5384 1795 06       		.byte	0x6
ARM GAS  C:\Users\tmj32\AppData\Local\Temp\cc1nbtVP.s 			page 121


 5385 1796 1A01     		.2byte	0x11a
 5386 1798 6D100000 		.4byte	0x106d
 5387 179c 02       		.uleb128 0x2
 5388 179d 91       		.byte	0x91
 5389 179e 73       		.sleb128 -13
 5390 179f 00       		.byte	0
 5391 17a0 2F       		.uleb128 0x2f
 5392 17a1 FB100000 		.4byte	.LASF390
 5393 17a5 06       		.byte	0x6
 5394 17a6 2201     		.2byte	0x122
 5395 17a8 00000000 		.4byte	.LFB726
 5396 17ac AC040000 		.4byte	.LFE726-.LFB726
 5397 17b0 01       		.uleb128 0x1
 5398 17b1 9C       		.byte	0x9c
 5399 17b2 89180000 		.4byte	0x1889
 5400 17b6 30       		.uleb128 0x30
 5401 17b7 F00C0000 		.4byte	.LASF391
 5402 17bb 06       		.byte	0x6
 5403 17bc 2501     		.2byte	0x125
 5404 17be 64120000 		.4byte	0x1264
 5405 17c2 02       		.uleb128 0x2
 5406 17c3 91       		.byte	0x91
 5407 17c4 74       		.sleb128 -12
 5408 17c5 30       		.uleb128 0x30
 5409 17c6 DD170000 		.4byte	.LASF392
 5410 17ca 06       		.byte	0x6
 5411 17cb 3301     		.2byte	0x133
 5412 17cd 64120000 		.4byte	0x1264
 5413 17d1 02       		.uleb128 0x2
 5414 17d2 91       		.byte	0x91
 5415 17d3 70       		.sleb128 -16
 5416 17d4 30       		.uleb128 0x30
 5417 17d5 89060000 		.4byte	.LASF393
 5418 17d9 06       		.byte	0x6
 5419 17da 3C01     		.2byte	0x13c
 5420 17dc 64120000 		.4byte	0x1264
 5421 17e0 02       		.uleb128 0x2
 5422 17e1 91       		.byte	0x91
 5423 17e2 6C       		.sleb128 -20
 5424 17e3 30       		.uleb128 0x30
 5425 17e4 C80D0000 		.4byte	.LASF394
 5426 17e8 06       		.byte	0x6
 5427 17e9 4A01     		.2byte	0x14a
 5428 17eb 64120000 		.4byte	0x1264
 5429 17ef 02       		.uleb128 0x2
 5430 17f0 91       		.byte	0x91
 5431 17f1 68       		.sleb128 -24
 5432 17f2 30       		.uleb128 0x30
 5433 17f3 CA070000 		.4byte	.LASF395
 5434 17f7 06       		.byte	0x6
 5435 17f8 5201     		.2byte	0x152
 5436 17fa 64120000 		.4byte	0x1264
 5437 17fe 02       		.uleb128 0x2
 5438 17ff 91       		.byte	0x91
 5439 1800 64       		.sleb128 -28
 5440 1801 30       		.uleb128 0x30
 5441 1802 690F0000 		.4byte	.LASF396
ARM GAS  C:\Users\tmj32\AppData\Local\Temp\cc1nbtVP.s 			page 122


 5442 1806 06       		.byte	0x6
 5443 1807 6001     		.2byte	0x160
 5444 1809 64120000 		.4byte	0x1264
 5445 180d 02       		.uleb128 0x2
 5446 180e 91       		.byte	0x91
 5447 180f 60       		.sleb128 -32
 5448 1810 30       		.uleb128 0x30
 5449 1811 67130000 		.4byte	.LASF397
 5450 1815 06       		.byte	0x6
 5451 1816 6801     		.2byte	0x168
 5452 1818 64120000 		.4byte	0x1264
 5453 181c 02       		.uleb128 0x2
 5454 181d 91       		.byte	0x91
 5455 181e 5C       		.sleb128 -36
 5456 181f 30       		.uleb128 0x30
 5457 1820 15040000 		.4byte	.LASF398
 5458 1824 06       		.byte	0x6
 5459 1825 7601     		.2byte	0x176
 5460 1827 64120000 		.4byte	0x1264
 5461 182b 02       		.uleb128 0x2
 5462 182c 91       		.byte	0x91
 5463 182d 58       		.sleb128 -40
 5464 182e 30       		.uleb128 0x30
 5465 182f 07110000 		.4byte	.LASF399
 5466 1833 06       		.byte	0x6
 5467 1834 7E01     		.2byte	0x17e
 5468 1836 64120000 		.4byte	0x1264
 5469 183a 02       		.uleb128 0x2
 5470 183b 91       		.byte	0x91
 5471 183c 54       		.sleb128 -44
 5472 183d 2C       		.uleb128 0x2c
 5473 183e 73773100 		.ascii	"sw1\000"
 5474 1842 06       		.byte	0x6
 5475 1843 8701     		.2byte	0x187
 5476 1845 64120000 		.4byte	0x1264
 5477 1849 02       		.uleb128 0x2
 5478 184a 91       		.byte	0x91
 5479 184b 50       		.sleb128 -48
 5480 184c 30       		.uleb128 0x30
 5481 184d 2F0E0000 		.4byte	.LASF400
 5482 1851 06       		.byte	0x6
 5483 1852 8D01     		.2byte	0x18d
 5484 1854 64120000 		.4byte	0x1264
 5485 1858 02       		.uleb128 0x2
 5486 1859 91       		.byte	0x91
 5487 185a 4C       		.sleb128 -52
 5488 185b 30       		.uleb128 0x30
 5489 185c D1170000 		.4byte	.LASF401
 5490 1860 06       		.byte	0x6
 5491 1861 9501     		.2byte	0x195
 5492 1863 64120000 		.4byte	0x1264
 5493 1867 02       		.uleb128 0x2
 5494 1868 91       		.byte	0x91
 5495 1869 48       		.sleb128 -56
 5496 186a 30       		.uleb128 0x30
 5497 186b 4E0B0000 		.4byte	.LASF402
 5498 186f 06       		.byte	0x6
ARM GAS  C:\Users\tmj32\AppData\Local\Temp\cc1nbtVP.s 			page 123


 5499 1870 9A01     		.2byte	0x19a
 5500 1872 64120000 		.4byte	0x1264
 5501 1876 02       		.uleb128 0x2
 5502 1877 91       		.byte	0x91
 5503 1878 44       		.sleb128 -60
 5504 1879 30       		.uleb128 0x30
 5505 187a 560B0000 		.4byte	.LASF403
 5506 187e 06       		.byte	0x6
 5507 187f A401     		.2byte	0x1a4
 5508 1881 64120000 		.4byte	0x1264
 5509 1885 02       		.uleb128 0x2
 5510 1886 91       		.byte	0x91
 5511 1887 40       		.sleb128 -64
 5512 1888 00       		.byte	0
 5513 1889 28       		.uleb128 0x28
 5514 188a 30070000 		.4byte	.LASF404
 5515 188e 06       		.byte	0x6
 5516 188f 12       		.byte	0x12
 5517 1890 64120000 		.4byte	0x1264
 5518 1894 05       		.uleb128 0x5
 5519 1895 03       		.byte	0x3
 5520 1896 00000000 		.4byte	offsetLabel
 5521 189a 28       		.uleb128 0x28
 5522 189b 95090000 		.4byte	.LASF405
 5523 189f 06       		.byte	0x6
 5524 18a0 13       		.byte	0x13
 5525 18a1 64120000 		.4byte	0x1264
 5526 18a5 05       		.uleb128 0x5
 5527 18a6 03       		.byte	0x3
 5528 18a7 04000000 		.4byte	triggerLabel
 5529 18ab 28       		.uleb128 0x28
 5530 18ac 5E0F0000 		.4byte	.LASF406
 5531 18b0 06       		.byte	0x6
 5532 18b1 14       		.byte	0x14
 5533 18b2 64120000 		.4byte	0x1264
 5534 18b6 05       		.uleb128 0x5
 5535 18b7 03       		.byte	0x3
 5536 18b8 08000000 		.4byte	horiLabel1
 5537 18bc 28       		.uleb128 0x28
 5538 18bd 0A040000 		.4byte	.LASF407
 5539 18c1 06       		.byte	0x6
 5540 18c2 15       		.byte	0x15
 5541 18c3 64120000 		.4byte	0x1264
 5542 18c7 05       		.uleb128 0x5
 5543 18c8 03       		.byte	0x3
 5544 18c9 0C000000 		.4byte	vertLabel1
 5545 18cd 31       		.uleb128 0x31
 5546 18ce 74100000 		.4byte	.LASF408
 5547 18d2 1B       		.byte	0x1b
 5548 18d3 F907     		.2byte	0x7f9
 5549 18d5 D9180000 		.4byte	0x18d9
 5550 18d9 09       		.uleb128 0x9
 5551 18da 06010000 		.4byte	0x106
 5552 18de 32       		.uleb128 0x32
 5553 18df 92000000 		.4byte	.LASF409
 5554 18e3 0A       		.byte	0xa
 5555 18e4 A7       		.byte	0xa7
ARM GAS  C:\Users\tmj32\AppData\Local\Temp\cc1nbtVP.s 			page 124


 5556 18e5 E9180000 		.4byte	0x18e9
 5557 18e9 06       		.uleb128 0x6
 5558 18ea 04       		.byte	0x4
 5559 18eb EF180000 		.4byte	0x18ef
 5560 18ef 1B       		.uleb128 0x1b
 5561 18f0 3D050000 		.4byte	0x53d
 5562 18f4 32       		.uleb128 0x32
 5563 18f5 4D000000 		.4byte	.LASF410
 5564 18f9 1C       		.byte	0x1c
 5565 18fa 1F       		.byte	0x1f
 5566 18fb FF180000 		.4byte	0x18ff
 5567 18ff 1B       		.uleb128 0x1b
 5568 1900 83080000 		.4byte	0x883
 5569 1904 32       		.uleb128 0x32
 5570 1905 9C000000 		.4byte	.LASF411
 5571 1909 1D       		.byte	0x1d
 5572 190a 7F       		.byte	0x7f
 5573 190b EB060000 		.4byte	0x6eb
 5574 190f 32       		.uleb128 0x32
 5575 1910 240A0000 		.4byte	.LASF412
 5576 1914 1E       		.byte	0x1e
 5577 1915 5E       		.byte	0x5e
 5578 1916 86070000 		.4byte	0x786
 5579 191a 33       		.uleb128 0x33
 5580 191b 636D3400 		.ascii	"cm4\000"
 5581 191f 0E       		.byte	0xe
 5582 1920 23       		.byte	0x23
 5583 1921 8E080000 		.4byte	0x88e
 5584 1925 05       		.uleb128 0x5
 5585 1926 03       		.byte	0x3
 5586 1927 00000000 		.4byte	cm4
 5587 192b 07       		.uleb128 0x7
 5588 192c 380D0000 		.4byte	0xd38
 5589 1930 3B190000 		.4byte	0x193b
 5590 1934 08       		.uleb128 0x8
 5591 1935 B6000000 		.4byte	0xb6
 5592 1939 02       		.byte	0x2
 5593 193a 00       		.byte	0
 5594 193b 34       		.uleb128 0x34
 5595 193c C0130000 		.4byte	.LASF413
 5596 1940 06       		.byte	0x6
 5597 1941 0E       		.byte	0xe
 5598 1942 4C190000 		.4byte	0x194c
 5599 1946 05       		.uleb128 0x5
 5600 1947 03       		.byte	0x3
 5601 1948 00000000 		.4byte	tcnj_blue
 5602 194c 1B       		.uleb128 0x1b
 5603 194d 2B190000 		.4byte	0x192b
 5604 1951 34       		.uleb128 0x34
 5605 1952 28080000 		.4byte	.LASF414
 5606 1956 06       		.byte	0x6
 5607 1957 0F       		.byte	0xf
 5608 1958 62190000 		.4byte	0x1962
 5609 195c 05       		.uleb128 0x5
 5610 195d 03       		.byte	0x3
 5611 195e 00000000 		.4byte	tcnj_gold
 5612 1962 1B       		.uleb128 0x1b
ARM GAS  C:\Users\tmj32\AppData\Local\Temp\cc1nbtVP.s 			page 125


 5613 1963 2B190000 		.4byte	0x192b
 5614 1967 34       		.uleb128 0x34
 5615 1968 22170000 		.4byte	.LASF415
 5616 196c 06       		.byte	0x6
 5617 196d 10       		.byte	0x10
 5618 196e 78190000 		.4byte	0x1978
 5619 1972 05       		.uleb128 0x5
 5620 1973 03       		.byte	0x3
 5621 1974 00000000 		.4byte	display_leftAlign
 5622 1978 1B       		.uleb128 0x1b
 5623 1979 1C010000 		.4byte	0x11c
 5624 197d 34       		.uleb128 0x34
 5625 197e 130F0000 		.4byte	.LASF416
 5626 1982 06       		.byte	0x6
 5627 1983 17       		.byte	0x17
 5628 1984 9F000000 		.4byte	0x9f
 5629 1988 05       		.uleb128 0x5
 5630 1989 03       		.byte	0x3
 5631 198a 00000000 		.4byte	startup
 5632 198e 00       		.byte	0
 5633              		.section	.debug_abbrev,"",%progbits
 5634              	.Ldebug_abbrev0:
 5635 0000 01       		.uleb128 0x1
 5636 0001 11       		.uleb128 0x11
 5637 0002 01       		.byte	0x1
 5638 0003 25       		.uleb128 0x25
 5639 0004 0E       		.uleb128 0xe
 5640 0005 13       		.uleb128 0x13
 5641 0006 0B       		.uleb128 0xb
 5642 0007 03       		.uleb128 0x3
 5643 0008 0E       		.uleb128 0xe
 5644 0009 1B       		.uleb128 0x1b
 5645 000a 0E       		.uleb128 0xe
 5646 000b 55       		.uleb128 0x55
 5647 000c 17       		.uleb128 0x17
 5648 000d 11       		.uleb128 0x11
 5649 000e 01       		.uleb128 0x1
 5650 000f 10       		.uleb128 0x10
 5651 0010 17       		.uleb128 0x17
 5652 0011 00       		.byte	0
 5653 0012 00       		.byte	0
 5654 0013 02       		.uleb128 0x2
 5655 0014 16       		.uleb128 0x16
 5656 0015 00       		.byte	0
 5657 0016 03       		.uleb128 0x3
 5658 0017 0E       		.uleb128 0xe
 5659 0018 3A       		.uleb128 0x3a
 5660 0019 0B       		.uleb128 0xb
 5661 001a 3B       		.uleb128 0x3b
 5662 001b 0B       		.uleb128 0xb
 5663 001c 49       		.uleb128 0x49
 5664 001d 13       		.uleb128 0x13
 5665 001e 00       		.byte	0
 5666 001f 00       		.byte	0
 5667 0020 03       		.uleb128 0x3
 5668 0021 24       		.uleb128 0x24
 5669 0022 00       		.byte	0
ARM GAS  C:\Users\tmj32\AppData\Local\Temp\cc1nbtVP.s 			page 126


 5670 0023 0B       		.uleb128 0xb
 5671 0024 0B       		.uleb128 0xb
 5672 0025 3E       		.uleb128 0x3e
 5673 0026 0B       		.uleb128 0xb
 5674 0027 03       		.uleb128 0x3
 5675 0028 0E       		.uleb128 0xe
 5676 0029 00       		.byte	0
 5677 002a 00       		.byte	0
 5678 002b 04       		.uleb128 0x4
 5679 002c 24       		.uleb128 0x24
 5680 002d 00       		.byte	0
 5681 002e 0B       		.uleb128 0xb
 5682 002f 0B       		.uleb128 0xb
 5683 0030 3E       		.uleb128 0x3e
 5684 0031 0B       		.uleb128 0xb
 5685 0032 03       		.uleb128 0x3
 5686 0033 08       		.uleb128 0x8
 5687 0034 00       		.byte	0
 5688 0035 00       		.byte	0
 5689 0036 05       		.uleb128 0x5
 5690 0037 0F       		.uleb128 0xf
 5691 0038 00       		.byte	0
 5692 0039 0B       		.uleb128 0xb
 5693 003a 0B       		.uleb128 0xb
 5694 003b 00       		.byte	0
 5695 003c 00       		.byte	0
 5696 003d 06       		.uleb128 0x6
 5697 003e 0F       		.uleb128 0xf
 5698 003f 00       		.byte	0
 5699 0040 0B       		.uleb128 0xb
 5700 0041 0B       		.uleb128 0xb
 5701 0042 49       		.uleb128 0x49
 5702 0043 13       		.uleb128 0x13
 5703 0044 00       		.byte	0
 5704 0045 00       		.byte	0
 5705 0046 07       		.uleb128 0x7
 5706 0047 01       		.uleb128 0x1
 5707 0048 01       		.byte	0x1
 5708 0049 49       		.uleb128 0x49
 5709 004a 13       		.uleb128 0x13
 5710 004b 01       		.uleb128 0x1
 5711 004c 13       		.uleb128 0x13
 5712 004d 00       		.byte	0
 5713 004e 00       		.byte	0
 5714 004f 08       		.uleb128 0x8
 5715 0050 21       		.uleb128 0x21
 5716 0051 00       		.byte	0
 5717 0052 49       		.uleb128 0x49
 5718 0053 13       		.uleb128 0x13
 5719 0054 2F       		.uleb128 0x2f
 5720 0055 0B       		.uleb128 0xb
 5721 0056 00       		.byte	0
 5722 0057 00       		.byte	0
 5723 0058 09       		.uleb128 0x9
 5724 0059 35       		.uleb128 0x35
 5725 005a 00       		.byte	0
 5726 005b 49       		.uleb128 0x49
ARM GAS  C:\Users\tmj32\AppData\Local\Temp\cc1nbtVP.s 			page 127


 5727 005c 13       		.uleb128 0x13
 5728 005d 00       		.byte	0
 5729 005e 00       		.byte	0
 5730 005f 0A       		.uleb128 0xa
 5731 0060 13       		.uleb128 0x13
 5732 0061 01       		.byte	0x1
 5733 0062 0B       		.uleb128 0xb
 5734 0063 0B       		.uleb128 0xb
 5735 0064 3A       		.uleb128 0x3a
 5736 0065 0B       		.uleb128 0xb
 5737 0066 3B       		.uleb128 0x3b
 5738 0067 0B       		.uleb128 0xb
 5739 0068 01       		.uleb128 0x1
 5740 0069 13       		.uleb128 0x13
 5741 006a 00       		.byte	0
 5742 006b 00       		.byte	0
 5743 006c 0B       		.uleb128 0xb
 5744 006d 0D       		.uleb128 0xd
 5745 006e 00       		.byte	0
 5746 006f 03       		.uleb128 0x3
 5747 0070 0E       		.uleb128 0xe
 5748 0071 3A       		.uleb128 0x3a
 5749 0072 0B       		.uleb128 0xb
 5750 0073 3B       		.uleb128 0x3b
 5751 0074 0B       		.uleb128 0xb
 5752 0075 49       		.uleb128 0x49
 5753 0076 13       		.uleb128 0x13
 5754 0077 38       		.uleb128 0x38
 5755 0078 0B       		.uleb128 0xb
 5756 0079 00       		.byte	0
 5757 007a 00       		.byte	0
 5758 007b 0C       		.uleb128 0xc
 5759 007c 04       		.uleb128 0x4
 5760 007d 01       		.byte	0x1
 5761 007e 0B       		.uleb128 0xb
 5762 007f 0B       		.uleb128 0xb
 5763 0080 49       		.uleb128 0x49
 5764 0081 13       		.uleb128 0x13
 5765 0082 3A       		.uleb128 0x3a
 5766 0083 0B       		.uleb128 0xb
 5767 0084 3B       		.uleb128 0x3b
 5768 0085 05       		.uleb128 0x5
 5769 0086 01       		.uleb128 0x1
 5770 0087 13       		.uleb128 0x13
 5771 0088 00       		.byte	0
 5772 0089 00       		.byte	0
 5773 008a 0D       		.uleb128 0xd
 5774 008b 28       		.uleb128 0x28
 5775 008c 00       		.byte	0
 5776 008d 03       		.uleb128 0x3
 5777 008e 0E       		.uleb128 0xe
 5778 008f 1C       		.uleb128 0x1c
 5779 0090 0B       		.uleb128 0xb
 5780 0091 00       		.byte	0
 5781 0092 00       		.byte	0
 5782 0093 0E       		.uleb128 0xe
 5783 0094 16       		.uleb128 0x16
ARM GAS  C:\Users\tmj32\AppData\Local\Temp\cc1nbtVP.s 			page 128


 5784 0095 00       		.byte	0
 5785 0096 03       		.uleb128 0x3
 5786 0097 0E       		.uleb128 0xe
 5787 0098 3A       		.uleb128 0x3a
 5788 0099 0B       		.uleb128 0xb
 5789 009a 3B       		.uleb128 0x3b
 5790 009b 05       		.uleb128 0x5
 5791 009c 49       		.uleb128 0x49
 5792 009d 13       		.uleb128 0x13
 5793 009e 00       		.byte	0
 5794 009f 00       		.byte	0
 5795 00a0 0F       		.uleb128 0xf
 5796 00a1 15       		.uleb128 0x15
 5797 00a2 01       		.byte	0x1
 5798 00a3 27       		.uleb128 0x27
 5799 00a4 19       		.uleb128 0x19
 5800 00a5 01       		.uleb128 0x1
 5801 00a6 13       		.uleb128 0x13
 5802 00a7 00       		.byte	0
 5803 00a8 00       		.byte	0
 5804 00a9 10       		.uleb128 0x10
 5805 00aa 05       		.uleb128 0x5
 5806 00ab 00       		.byte	0
 5807 00ac 49       		.uleb128 0x49
 5808 00ad 13       		.uleb128 0x13
 5809 00ae 00       		.byte	0
 5810 00af 00       		.byte	0
 5811 00b0 11       		.uleb128 0x11
 5812 00b1 15       		.uleb128 0x15
 5813 00b2 01       		.byte	0x1
 5814 00b3 27       		.uleb128 0x27
 5815 00b4 19       		.uleb128 0x19
 5816 00b5 49       		.uleb128 0x49
 5817 00b6 13       		.uleb128 0x13
 5818 00b7 01       		.uleb128 0x1
 5819 00b8 13       		.uleb128 0x13
 5820 00b9 00       		.byte	0
 5821 00ba 00       		.byte	0
 5822 00bb 12       		.uleb128 0x12
 5823 00bc 13       		.uleb128 0x13
 5824 00bd 01       		.byte	0x1
 5825 00be 03       		.uleb128 0x3
 5826 00bf 0E       		.uleb128 0xe
 5827 00c0 0B       		.uleb128 0xb
 5828 00c1 0B       		.uleb128 0xb
 5829 00c2 3A       		.uleb128 0x3a
 5830 00c3 0B       		.uleb128 0xb
 5831 00c4 3B       		.uleb128 0x3b
 5832 00c5 05       		.uleb128 0x5
 5833 00c6 01       		.uleb128 0x1
 5834 00c7 13       		.uleb128 0x13
 5835 00c8 00       		.byte	0
 5836 00c9 00       		.byte	0
 5837 00ca 13       		.uleb128 0x13
 5838 00cb 0D       		.uleb128 0xd
 5839 00cc 00       		.byte	0
 5840 00cd 03       		.uleb128 0x3
ARM GAS  C:\Users\tmj32\AppData\Local\Temp\cc1nbtVP.s 			page 129


 5841 00ce 0E       		.uleb128 0xe
 5842 00cf 3A       		.uleb128 0x3a
 5843 00d0 0B       		.uleb128 0xb
 5844 00d1 3B       		.uleb128 0x3b
 5845 00d2 05       		.uleb128 0x5
 5846 00d3 49       		.uleb128 0x49
 5847 00d4 13       		.uleb128 0x13
 5848 00d5 38       		.uleb128 0x38
 5849 00d6 0B       		.uleb128 0xb
 5850 00d7 00       		.byte	0
 5851 00d8 00       		.byte	0
 5852 00d9 14       		.uleb128 0x14
 5853 00da 13       		.uleb128 0x13
 5854 00db 01       		.byte	0x1
 5855 00dc 03       		.uleb128 0x3
 5856 00dd 0E       		.uleb128 0xe
 5857 00de 0B       		.uleb128 0xb
 5858 00df 0B       		.uleb128 0xb
 5859 00e0 3A       		.uleb128 0x3a
 5860 00e1 0B       		.uleb128 0xb
 5861 00e2 3B       		.uleb128 0x3b
 5862 00e3 0B       		.uleb128 0xb
 5863 00e4 01       		.uleb128 0x1
 5864 00e5 13       		.uleb128 0x13
 5865 00e6 00       		.byte	0
 5866 00e7 00       		.byte	0
 5867 00e8 15       		.uleb128 0x15
 5868 00e9 13       		.uleb128 0x13
 5869 00ea 01       		.byte	0x1
 5870 00eb 03       		.uleb128 0x3
 5871 00ec 0E       		.uleb128 0xe
 5872 00ed 0B       		.uleb128 0xb
 5873 00ee 05       		.uleb128 0x5
 5874 00ef 3A       		.uleb128 0x3a
 5875 00f0 0B       		.uleb128 0xb
 5876 00f1 3B       		.uleb128 0x3b
 5877 00f2 0B       		.uleb128 0xb
 5878 00f3 01       		.uleb128 0x1
 5879 00f4 13       		.uleb128 0x13
 5880 00f5 00       		.byte	0
 5881 00f6 00       		.byte	0
 5882 00f7 16       		.uleb128 0x16
 5883 00f8 21       		.uleb128 0x21
 5884 00f9 00       		.byte	0
 5885 00fa 49       		.uleb128 0x49
 5886 00fb 13       		.uleb128 0x13
 5887 00fc 2F       		.uleb128 0x2f
 5888 00fd 05       		.uleb128 0x5
 5889 00fe 00       		.byte	0
 5890 00ff 00       		.byte	0
 5891 0100 17       		.uleb128 0x17
 5892 0101 0D       		.uleb128 0xd
 5893 0102 00       		.byte	0
 5894 0103 03       		.uleb128 0x3
 5895 0104 08       		.uleb128 0x8
 5896 0105 3A       		.uleb128 0x3a
 5897 0106 0B       		.uleb128 0xb
ARM GAS  C:\Users\tmj32\AppData\Local\Temp\cc1nbtVP.s 			page 130


 5898 0107 3B       		.uleb128 0x3b
 5899 0108 0B       		.uleb128 0xb
 5900 0109 49       		.uleb128 0x49
 5901 010a 13       		.uleb128 0x13
 5902 010b 38       		.uleb128 0x38
 5903 010c 0B       		.uleb128 0xb
 5904 010d 00       		.byte	0
 5905 010e 00       		.byte	0
 5906 010f 18       		.uleb128 0x18
 5907 0110 17       		.uleb128 0x17
 5908 0111 01       		.byte	0x1
 5909 0112 0B       		.uleb128 0xb
 5910 0113 0B       		.uleb128 0xb
 5911 0114 3A       		.uleb128 0x3a
 5912 0115 0B       		.uleb128 0xb
 5913 0116 3B       		.uleb128 0x3b
 5914 0117 0B       		.uleb128 0xb
 5915 0118 01       		.uleb128 0x1
 5916 0119 13       		.uleb128 0x13
 5917 011a 00       		.byte	0
 5918 011b 00       		.byte	0
 5919 011c 19       		.uleb128 0x19
 5920 011d 0D       		.uleb128 0xd
 5921 011e 00       		.byte	0
 5922 011f 03       		.uleb128 0x3
 5923 0120 08       		.uleb128 0x8
 5924 0121 3A       		.uleb128 0x3a
 5925 0122 0B       		.uleb128 0xb
 5926 0123 3B       		.uleb128 0x3b
 5927 0124 0B       		.uleb128 0xb
 5928 0125 49       		.uleb128 0x49
 5929 0126 13       		.uleb128 0x13
 5930 0127 00       		.byte	0
 5931 0128 00       		.byte	0
 5932 0129 1A       		.uleb128 0x1a
 5933 012a 0D       		.uleb128 0xd
 5934 012b 00       		.byte	0
 5935 012c 03       		.uleb128 0x3
 5936 012d 0E       		.uleb128 0xe
 5937 012e 3A       		.uleb128 0x3a
 5938 012f 0B       		.uleb128 0xb
 5939 0130 3B       		.uleb128 0x3b
 5940 0131 0B       		.uleb128 0xb
 5941 0132 49       		.uleb128 0x49
 5942 0133 13       		.uleb128 0x13
 5943 0134 00       		.byte	0
 5944 0135 00       		.byte	0
 5945 0136 1B       		.uleb128 0x1b
 5946 0137 26       		.uleb128 0x26
 5947 0138 00       		.byte	0
 5948 0139 49       		.uleb128 0x49
 5949 013a 13       		.uleb128 0x13
 5950 013b 00       		.byte	0
 5951 013c 00       		.byte	0
 5952 013d 1C       		.uleb128 0x1c
 5953 013e 0D       		.uleb128 0xd
 5954 013f 00       		.byte	0
ARM GAS  C:\Users\tmj32\AppData\Local\Temp\cc1nbtVP.s 			page 131


 5955 0140 03       		.uleb128 0x3
 5956 0141 0E       		.uleb128 0xe
 5957 0142 3A       		.uleb128 0x3a
 5958 0143 0B       		.uleb128 0xb
 5959 0144 3B       		.uleb128 0x3b
 5960 0145 0B       		.uleb128 0xb
 5961 0146 49       		.uleb128 0x49
 5962 0147 13       		.uleb128 0x13
 5963 0148 0B       		.uleb128 0xb
 5964 0149 0B       		.uleb128 0xb
 5965 014a 0D       		.uleb128 0xd
 5966 014b 0B       		.uleb128 0xb
 5967 014c 0C       		.uleb128 0xc
 5968 014d 0B       		.uleb128 0xb
 5969 014e 38       		.uleb128 0x38
 5970 014f 0B       		.uleb128 0xb
 5971 0150 00       		.byte	0
 5972 0151 00       		.byte	0
 5973 0152 1D       		.uleb128 0x1d
 5974 0153 0D       		.uleb128 0xd
 5975 0154 00       		.byte	0
 5976 0155 03       		.uleb128 0x3
 5977 0156 08       		.uleb128 0x8
 5978 0157 3A       		.uleb128 0x3a
 5979 0158 0B       		.uleb128 0xb
 5980 0159 3B       		.uleb128 0x3b
 5981 015a 0B       		.uleb128 0xb
 5982 015b 49       		.uleb128 0x49
 5983 015c 13       		.uleb128 0x13
 5984 015d 0B       		.uleb128 0xb
 5985 015e 0B       		.uleb128 0xb
 5986 015f 0D       		.uleb128 0xd
 5987 0160 0B       		.uleb128 0xb
 5988 0161 0C       		.uleb128 0xc
 5989 0162 0B       		.uleb128 0xb
 5990 0163 38       		.uleb128 0x38
 5991 0164 0B       		.uleb128 0xb
 5992 0165 00       		.byte	0
 5993 0166 00       		.byte	0
 5994 0167 1E       		.uleb128 0x1e
 5995 0168 04       		.uleb128 0x4
 5996 0169 01       		.byte	0x1
 5997 016a 0B       		.uleb128 0xb
 5998 016b 0B       		.uleb128 0xb
 5999 016c 49       		.uleb128 0x49
 6000 016d 13       		.uleb128 0x13
 6001 016e 3A       		.uleb128 0x3a
 6002 016f 0B       		.uleb128 0xb
 6003 0170 3B       		.uleb128 0x3b
 6004 0171 0B       		.uleb128 0xb
 6005 0172 01       		.uleb128 0x1
 6006 0173 13       		.uleb128 0x13
 6007 0174 00       		.byte	0
 6008 0175 00       		.byte	0
 6009 0176 1F       		.uleb128 0x1f
 6010 0177 2E       		.uleb128 0x2e
 6011 0178 01       		.byte	0x1
ARM GAS  C:\Users\tmj32\AppData\Local\Temp\cc1nbtVP.s 			page 132


 6012 0179 03       		.uleb128 0x3
 6013 017a 0E       		.uleb128 0xe
 6014 017b 3A       		.uleb128 0x3a
 6015 017c 0B       		.uleb128 0xb
 6016 017d 3B       		.uleb128 0x3b
 6017 017e 05       		.uleb128 0x5
 6018 017f 27       		.uleb128 0x27
 6019 0180 19       		.uleb128 0x19
 6020 0181 49       		.uleb128 0x49
 6021 0182 13       		.uleb128 0x13
 6022 0183 11       		.uleb128 0x11
 6023 0184 01       		.uleb128 0x1
 6024 0185 12       		.uleb128 0x12
 6025 0186 06       		.uleb128 0x6
 6026 0187 40       		.uleb128 0x40
 6027 0188 18       		.uleb128 0x18
 6028 0189 9742     		.uleb128 0x2117
 6029 018b 19       		.uleb128 0x19
 6030 018c 01       		.uleb128 0x1
 6031 018d 13       		.uleb128 0x13
 6032 018e 00       		.byte	0
 6033 018f 00       		.byte	0
 6034 0190 20       		.uleb128 0x20
 6035 0191 05       		.uleb128 0x5
 6036 0192 00       		.byte	0
 6037 0193 03       		.uleb128 0x3
 6038 0194 08       		.uleb128 0x8
 6039 0195 3A       		.uleb128 0x3a
 6040 0196 0B       		.uleb128 0xb
 6041 0197 3B       		.uleb128 0x3b
 6042 0198 05       		.uleb128 0x5
 6043 0199 49       		.uleb128 0x49
 6044 019a 13       		.uleb128 0x13
 6045 019b 02       		.uleb128 0x2
 6046 019c 18       		.uleb128 0x18
 6047 019d 00       		.byte	0
 6048 019e 00       		.byte	0
 6049 019f 21       		.uleb128 0x21
 6050 01a0 2E       		.uleb128 0x2e
 6051 01a1 01       		.byte	0x1
 6052 01a2 03       		.uleb128 0x3
 6053 01a3 0E       		.uleb128 0xe
 6054 01a4 3A       		.uleb128 0x3a
 6055 01a5 0B       		.uleb128 0xb
 6056 01a6 3B       		.uleb128 0x3b
 6057 01a7 05       		.uleb128 0x5
 6058 01a8 27       		.uleb128 0x27
 6059 01a9 19       		.uleb128 0x19
 6060 01aa 49       		.uleb128 0x49
 6061 01ab 13       		.uleb128 0x13
 6062 01ac 11       		.uleb128 0x11
 6063 01ad 01       		.uleb128 0x1
 6064 01ae 12       		.uleb128 0x12
 6065 01af 06       		.uleb128 0x6
 6066 01b0 40       		.uleb128 0x40
 6067 01b1 18       		.uleb128 0x18
 6068 01b2 9642     		.uleb128 0x2116
ARM GAS  C:\Users\tmj32\AppData\Local\Temp\cc1nbtVP.s 			page 133


 6069 01b4 19       		.uleb128 0x19
 6070 01b5 01       		.uleb128 0x1
 6071 01b6 13       		.uleb128 0x13
 6072 01b7 00       		.byte	0
 6073 01b8 00       		.byte	0
 6074 01b9 22       		.uleb128 0x22
 6075 01ba 2E       		.uleb128 0x2e
 6076 01bb 00       		.byte	0
 6077 01bc 03       		.uleb128 0x3
 6078 01bd 0E       		.uleb128 0xe
 6079 01be 3A       		.uleb128 0x3a
 6080 01bf 0B       		.uleb128 0xb
 6081 01c0 3B       		.uleb128 0x3b
 6082 01c1 0B       		.uleb128 0xb
 6083 01c2 27       		.uleb128 0x27
 6084 01c3 19       		.uleb128 0x19
 6085 01c4 49       		.uleb128 0x49
 6086 01c5 13       		.uleb128 0x13
 6087 01c6 11       		.uleb128 0x11
 6088 01c7 01       		.uleb128 0x1
 6089 01c8 12       		.uleb128 0x12
 6090 01c9 06       		.uleb128 0x6
 6091 01ca 40       		.uleb128 0x40
 6092 01cb 18       		.uleb128 0x18
 6093 01cc 9642     		.uleb128 0x2116
 6094 01ce 19       		.uleb128 0x19
 6095 01cf 00       		.byte	0
 6096 01d0 00       		.byte	0
 6097 01d1 23       		.uleb128 0x23
 6098 01d2 2E       		.uleb128 0x2e
 6099 01d3 01       		.byte	0x1
 6100 01d4 03       		.uleb128 0x3
 6101 01d5 0E       		.uleb128 0xe
 6102 01d6 3A       		.uleb128 0x3a
 6103 01d7 0B       		.uleb128 0xb
 6104 01d8 3B       		.uleb128 0x3b
 6105 01d9 0B       		.uleb128 0xb
 6106 01da 27       		.uleb128 0x27
 6107 01db 19       		.uleb128 0x19
 6108 01dc 11       		.uleb128 0x11
 6109 01dd 01       		.uleb128 0x1
 6110 01de 12       		.uleb128 0x12
 6111 01df 06       		.uleb128 0x6
 6112 01e0 40       		.uleb128 0x40
 6113 01e1 18       		.uleb128 0x18
 6114 01e2 9642     		.uleb128 0x2116
 6115 01e4 19       		.uleb128 0x19
 6116 01e5 01       		.uleb128 0x1
 6117 01e6 13       		.uleb128 0x13
 6118 01e7 00       		.byte	0
 6119 01e8 00       		.byte	0
 6120 01e9 24       		.uleb128 0x24
 6121 01ea 05       		.uleb128 0x5
 6122 01eb 00       		.byte	0
 6123 01ec 03       		.uleb128 0x3
 6124 01ed 0E       		.uleb128 0xe
 6125 01ee 3A       		.uleb128 0x3a
ARM GAS  C:\Users\tmj32\AppData\Local\Temp\cc1nbtVP.s 			page 134


 6126 01ef 0B       		.uleb128 0xb
 6127 01f0 3B       		.uleb128 0x3b
 6128 01f1 0B       		.uleb128 0xb
 6129 01f2 49       		.uleb128 0x49
 6130 01f3 13       		.uleb128 0x13
 6131 01f4 02       		.uleb128 0x2
 6132 01f5 18       		.uleb128 0x18
 6133 01f6 00       		.byte	0
 6134 01f7 00       		.byte	0
 6135 01f8 25       		.uleb128 0x25
 6136 01f9 05       		.uleb128 0x5
 6137 01fa 00       		.byte	0
 6138 01fb 03       		.uleb128 0x3
 6139 01fc 08       		.uleb128 0x8
 6140 01fd 3A       		.uleb128 0x3a
 6141 01fe 0B       		.uleb128 0xb
 6142 01ff 3B       		.uleb128 0x3b
 6143 0200 0B       		.uleb128 0xb
 6144 0201 49       		.uleb128 0x49
 6145 0202 13       		.uleb128 0x13
 6146 0203 02       		.uleb128 0x2
 6147 0204 18       		.uleb128 0x18
 6148 0205 00       		.byte	0
 6149 0206 00       		.byte	0
 6150 0207 26       		.uleb128 0x26
 6151 0208 2E       		.uleb128 0x2e
 6152 0209 01       		.byte	0x1
 6153 020a 03       		.uleb128 0x3
 6154 020b 0E       		.uleb128 0xe
 6155 020c 3A       		.uleb128 0x3a
 6156 020d 0B       		.uleb128 0xb
 6157 020e 3B       		.uleb128 0x3b
 6158 020f 0B       		.uleb128 0xb
 6159 0210 27       		.uleb128 0x27
 6160 0211 19       		.uleb128 0x19
 6161 0212 49       		.uleb128 0x49
 6162 0213 13       		.uleb128 0x13
 6163 0214 11       		.uleb128 0x11
 6164 0215 01       		.uleb128 0x1
 6165 0216 12       		.uleb128 0x12
 6166 0217 06       		.uleb128 0x6
 6167 0218 40       		.uleb128 0x40
 6168 0219 18       		.uleb128 0x18
 6169 021a 9642     		.uleb128 0x2116
 6170 021c 19       		.uleb128 0x19
 6171 021d 01       		.uleb128 0x1
 6172 021e 13       		.uleb128 0x13
 6173 021f 00       		.byte	0
 6174 0220 00       		.byte	0
 6175 0221 27       		.uleb128 0x27
 6176 0222 2E       		.uleb128 0x2e
 6177 0223 01       		.byte	0x1
 6178 0224 3F       		.uleb128 0x3f
 6179 0225 19       		.uleb128 0x19
 6180 0226 03       		.uleb128 0x3
 6181 0227 0E       		.uleb128 0xe
 6182 0228 3A       		.uleb128 0x3a
ARM GAS  C:\Users\tmj32\AppData\Local\Temp\cc1nbtVP.s 			page 135


 6183 0229 0B       		.uleb128 0xb
 6184 022a 3B       		.uleb128 0x3b
 6185 022b 0B       		.uleb128 0xb
 6186 022c 11       		.uleb128 0x11
 6187 022d 01       		.uleb128 0x1
 6188 022e 12       		.uleb128 0x12
 6189 022f 06       		.uleb128 0x6
 6190 0230 40       		.uleb128 0x40
 6191 0231 18       		.uleb128 0x18
 6192 0232 9642     		.uleb128 0x2116
 6193 0234 19       		.uleb128 0x19
 6194 0235 01       		.uleb128 0x1
 6195 0236 13       		.uleb128 0x13
 6196 0237 00       		.byte	0
 6197 0238 00       		.byte	0
 6198 0239 28       		.uleb128 0x28
 6199 023a 34       		.uleb128 0x34
 6200 023b 00       		.byte	0
 6201 023c 03       		.uleb128 0x3
 6202 023d 0E       		.uleb128 0xe
 6203 023e 3A       		.uleb128 0x3a
 6204 023f 0B       		.uleb128 0xb
 6205 0240 3B       		.uleb128 0x3b
 6206 0241 0B       		.uleb128 0xb
 6207 0242 49       		.uleb128 0x49
 6208 0243 13       		.uleb128 0x13
 6209 0244 02       		.uleb128 0x2
 6210 0245 18       		.uleb128 0x18
 6211 0246 00       		.byte	0
 6212 0247 00       		.byte	0
 6213 0248 29       		.uleb128 0x29
 6214 0249 34       		.uleb128 0x34
 6215 024a 00       		.byte	0
 6216 024b 03       		.uleb128 0x3
 6217 024c 08       		.uleb128 0x8
 6218 024d 3A       		.uleb128 0x3a
 6219 024e 0B       		.uleb128 0xb
 6220 024f 3B       		.uleb128 0x3b
 6221 0250 0B       		.uleb128 0xb
 6222 0251 49       		.uleb128 0x49
 6223 0252 13       		.uleb128 0x13
 6224 0253 02       		.uleb128 0x2
 6225 0254 18       		.uleb128 0x18
 6226 0255 00       		.byte	0
 6227 0256 00       		.byte	0
 6228 0257 2A       		.uleb128 0x2a
 6229 0258 0B       		.uleb128 0xb
 6230 0259 01       		.byte	0x1
 6231 025a 11       		.uleb128 0x11
 6232 025b 01       		.uleb128 0x1
 6233 025c 12       		.uleb128 0x12
 6234 025d 06       		.uleb128 0x6
 6235 025e 00       		.byte	0
 6236 025f 00       		.byte	0
 6237 0260 2B       		.uleb128 0x2b
 6238 0261 0B       		.uleb128 0xb
 6239 0262 01       		.byte	0x1
ARM GAS  C:\Users\tmj32\AppData\Local\Temp\cc1nbtVP.s 			page 136


 6240 0263 55       		.uleb128 0x55
 6241 0264 17       		.uleb128 0x17
 6242 0265 00       		.byte	0
 6243 0266 00       		.byte	0
 6244 0267 2C       		.uleb128 0x2c
 6245 0268 34       		.uleb128 0x34
 6246 0269 00       		.byte	0
 6247 026a 03       		.uleb128 0x3
 6248 026b 08       		.uleb128 0x8
 6249 026c 3A       		.uleb128 0x3a
 6250 026d 0B       		.uleb128 0xb
 6251 026e 3B       		.uleb128 0x3b
 6252 026f 05       		.uleb128 0x5
 6253 0270 49       		.uleb128 0x49
 6254 0271 13       		.uleb128 0x13
 6255 0272 02       		.uleb128 0x2
 6256 0273 18       		.uleb128 0x18
 6257 0274 00       		.byte	0
 6258 0275 00       		.byte	0
 6259 0276 2D       		.uleb128 0x2d
 6260 0277 2E       		.uleb128 0x2e
 6261 0278 01       		.byte	0x1
 6262 0279 03       		.uleb128 0x3
 6263 027a 0E       		.uleb128 0xe
 6264 027b 3A       		.uleb128 0x3a
 6265 027c 0B       		.uleb128 0xb
 6266 027d 3B       		.uleb128 0x3b
 6267 027e 05       		.uleb128 0x5
 6268 027f 27       		.uleb128 0x27
 6269 0280 19       		.uleb128 0x19
 6270 0281 11       		.uleb128 0x11
 6271 0282 01       		.uleb128 0x1
 6272 0283 12       		.uleb128 0x12
 6273 0284 06       		.uleb128 0x6
 6274 0285 40       		.uleb128 0x40
 6275 0286 18       		.uleb128 0x18
 6276 0287 9642     		.uleb128 0x2116
 6277 0289 19       		.uleb128 0x19
 6278 028a 01       		.uleb128 0x1
 6279 028b 13       		.uleb128 0x13
 6280 028c 00       		.byte	0
 6281 028d 00       		.byte	0
 6282 028e 2E       		.uleb128 0x2e
 6283 028f 05       		.uleb128 0x5
 6284 0290 00       		.byte	0
 6285 0291 03       		.uleb128 0x3
 6286 0292 0E       		.uleb128 0xe
 6287 0293 3A       		.uleb128 0x3a
 6288 0294 0B       		.uleb128 0xb
 6289 0295 3B       		.uleb128 0x3b
 6290 0296 05       		.uleb128 0x5
 6291 0297 49       		.uleb128 0x49
 6292 0298 13       		.uleb128 0x13
 6293 0299 02       		.uleb128 0x2
 6294 029a 18       		.uleb128 0x18
 6295 029b 00       		.byte	0
 6296 029c 00       		.byte	0
ARM GAS  C:\Users\tmj32\AppData\Local\Temp\cc1nbtVP.s 			page 137


 6297 029d 2F       		.uleb128 0x2f
 6298 029e 2E       		.uleb128 0x2e
 6299 029f 01       		.byte	0x1
 6300 02a0 3F       		.uleb128 0x3f
 6301 02a1 19       		.uleb128 0x19
 6302 02a2 03       		.uleb128 0x3
 6303 02a3 0E       		.uleb128 0xe
 6304 02a4 3A       		.uleb128 0x3a
 6305 02a5 0B       		.uleb128 0xb
 6306 02a6 3B       		.uleb128 0x3b
 6307 02a7 05       		.uleb128 0x5
 6308 02a8 11       		.uleb128 0x11
 6309 02a9 01       		.uleb128 0x1
 6310 02aa 12       		.uleb128 0x12
 6311 02ab 06       		.uleb128 0x6
 6312 02ac 40       		.uleb128 0x40
 6313 02ad 18       		.uleb128 0x18
 6314 02ae 9642     		.uleb128 0x2116
 6315 02b0 19       		.uleb128 0x19
 6316 02b1 01       		.uleb128 0x1
 6317 02b2 13       		.uleb128 0x13
 6318 02b3 00       		.byte	0
 6319 02b4 00       		.byte	0
 6320 02b5 30       		.uleb128 0x30
 6321 02b6 34       		.uleb128 0x34
 6322 02b7 00       		.byte	0
 6323 02b8 03       		.uleb128 0x3
 6324 02b9 0E       		.uleb128 0xe
 6325 02ba 3A       		.uleb128 0x3a
 6326 02bb 0B       		.uleb128 0xb
 6327 02bc 3B       		.uleb128 0x3b
 6328 02bd 05       		.uleb128 0x5
 6329 02be 49       		.uleb128 0x49
 6330 02bf 13       		.uleb128 0x13
 6331 02c0 02       		.uleb128 0x2
 6332 02c1 18       		.uleb128 0x18
 6333 02c2 00       		.byte	0
 6334 02c3 00       		.byte	0
 6335 02c4 31       		.uleb128 0x31
 6336 02c5 34       		.uleb128 0x34
 6337 02c6 00       		.byte	0
 6338 02c7 03       		.uleb128 0x3
 6339 02c8 0E       		.uleb128 0xe
 6340 02c9 3A       		.uleb128 0x3a
 6341 02ca 0B       		.uleb128 0xb
 6342 02cb 3B       		.uleb128 0x3b
 6343 02cc 05       		.uleb128 0x5
 6344 02cd 49       		.uleb128 0x49
 6345 02ce 13       		.uleb128 0x13
 6346 02cf 3F       		.uleb128 0x3f
 6347 02d0 19       		.uleb128 0x19
 6348 02d1 3C       		.uleb128 0x3c
 6349 02d2 19       		.uleb128 0x19
 6350 02d3 00       		.byte	0
 6351 02d4 00       		.byte	0
 6352 02d5 32       		.uleb128 0x32
 6353 02d6 34       		.uleb128 0x34
ARM GAS  C:\Users\tmj32\AppData\Local\Temp\cc1nbtVP.s 			page 138


 6354 02d7 00       		.byte	0
 6355 02d8 03       		.uleb128 0x3
 6356 02d9 0E       		.uleb128 0xe
 6357 02da 3A       		.uleb128 0x3a
 6358 02db 0B       		.uleb128 0xb
 6359 02dc 3B       		.uleb128 0x3b
 6360 02dd 0B       		.uleb128 0xb
 6361 02de 49       		.uleb128 0x49
 6362 02df 13       		.uleb128 0x13
 6363 02e0 3F       		.uleb128 0x3f
 6364 02e1 19       		.uleb128 0x19
 6365 02e2 3C       		.uleb128 0x3c
 6366 02e3 19       		.uleb128 0x19
 6367 02e4 00       		.byte	0
 6368 02e5 00       		.byte	0
 6369 02e6 33       		.uleb128 0x33
 6370 02e7 34       		.uleb128 0x34
 6371 02e8 00       		.byte	0
 6372 02e9 03       		.uleb128 0x3
 6373 02ea 08       		.uleb128 0x8
 6374 02eb 3A       		.uleb128 0x3a
 6375 02ec 0B       		.uleb128 0xb
 6376 02ed 3B       		.uleb128 0x3b
 6377 02ee 0B       		.uleb128 0xb
 6378 02ef 49       		.uleb128 0x49
 6379 02f0 13       		.uleb128 0x13
 6380 02f1 3F       		.uleb128 0x3f
 6381 02f2 19       		.uleb128 0x19
 6382 02f3 02       		.uleb128 0x2
 6383 02f4 18       		.uleb128 0x18
 6384 02f5 00       		.byte	0
 6385 02f6 00       		.byte	0
 6386 02f7 34       		.uleb128 0x34
 6387 02f8 34       		.uleb128 0x34
 6388 02f9 00       		.byte	0
 6389 02fa 03       		.uleb128 0x3
 6390 02fb 0E       		.uleb128 0xe
 6391 02fc 3A       		.uleb128 0x3a
 6392 02fd 0B       		.uleb128 0xb
 6393 02fe 3B       		.uleb128 0x3b
 6394 02ff 0B       		.uleb128 0xb
 6395 0300 49       		.uleb128 0x49
 6396 0301 13       		.uleb128 0x13
 6397 0302 3F       		.uleb128 0x3f
 6398 0303 19       		.uleb128 0x19
 6399 0304 02       		.uleb128 0x2
 6400 0305 18       		.uleb128 0x18
 6401 0306 00       		.byte	0
 6402 0307 00       		.byte	0
 6403 0308 00       		.byte	0
 6404              		.section	.debug_aranges,"",%progbits
 6405 0000 9C000000 		.4byte	0x9c
 6406 0004 0200     		.2byte	0x2
 6407 0006 00000000 		.4byte	.Ldebug_info0
 6408 000a 04       		.byte	0x4
 6409 000b 00       		.byte	0
 6410 000c 0000     		.2byte	0
ARM GAS  C:\Users\tmj32\AppData\Local\Temp\cc1nbtVP.s 			page 139


 6411 000e 0000     		.2byte	0
 6412 0010 00000000 		.4byte	.LFB588
 6413 0014 38000000 		.4byte	.LFE588-.LFB588
 6414 0018 00000000 		.4byte	.LFB589
 6415 001c 28000000 		.4byte	.LFE589-.LFB589
 6416 0020 00000000 		.4byte	.LFB613
 6417 0024 16000000 		.4byte	.LFE613-.LFB613
 6418 0028 00000000 		.4byte	.LFB668
 6419 002c 26000000 		.4byte	.LFE668-.LFB668
 6420 0030 00000000 		.4byte	.LFB669
 6421 0034 28000000 		.4byte	.LFE669-.LFB669
 6422 0038 00000000 		.4byte	.LFB687
 6423 003c 22000000 		.4byte	.LFE687-.LFB687
 6424 0040 00000000 		.4byte	.LFB714
 6425 0044 22000000 		.4byte	.LFE714-.LFB714
 6426 0048 00000000 		.4byte	.LFB717
 6427 004c 04040000 		.4byte	.LFE717-.LFB717
 6428 0050 00000000 		.4byte	.LFB718
 6429 0054 8C000000 		.4byte	.LFE718-.LFB718
 6430 0058 00000000 		.4byte	.LFB719
 6431 005c 8C000000 		.4byte	.LFE719-.LFB719
 6432 0060 00000000 		.4byte	.LFB720
 6433 0064 2C000000 		.4byte	.LFE720-.LFB720
 6434 0068 00000000 		.4byte	.LFB721
 6435 006c 74000000 		.4byte	.LFE721-.LFB721
 6436 0070 00000000 		.4byte	.LFB722
 6437 0074 78000000 		.4byte	.LFE722-.LFB722
 6438 0078 00000000 		.4byte	.LFB723
 6439 007c E0000000 		.4byte	.LFE723-.LFB723
 6440 0080 00000000 		.4byte	.LFB724
 6441 0084 E0000000 		.4byte	.LFE724-.LFB724
 6442 0088 00000000 		.4byte	.LFB725
 6443 008c 30000000 		.4byte	.LFE725-.LFB725
 6444 0090 00000000 		.4byte	.LFB726
 6445 0094 AC040000 		.4byte	.LFE726-.LFB726
 6446 0098 00000000 		.4byte	0
 6447 009c 00000000 		.4byte	0
 6448              		.section	.debug_ranges,"",%progbits
 6449              	.Ldebug_ranges0:
 6450 0000 12000000 		.4byte	.LBB3
 6451 0004 38000000 		.4byte	.LBE3
 6452 0008 3A000000 		.4byte	.LBB4
 6453 000c 52000000 		.4byte	.LBE4
 6454 0010 54000000 		.4byte	.LBB5
 6455 0014 6C000000 		.4byte	.LBE5
 6456 0018 6E000000 		.4byte	.LBB6
 6457 001c 74000000 		.4byte	.LBE6
 6458 0020 00000000 		.4byte	0
 6459 0024 00000000 		.4byte	0
 6460 0028 12000000 		.4byte	.LBB7
 6461 002c 38000000 		.4byte	.LBE7
 6462 0030 3A000000 		.4byte	.LBB8
 6463 0034 52000000 		.4byte	.LBE8
 6464 0038 54000000 		.4byte	.LBB9
 6465 003c 6C000000 		.4byte	.LBE9
 6466 0040 6E000000 		.4byte	.LBB10
 6467 0044 74000000 		.4byte	.LBE10
ARM GAS  C:\Users\tmj32\AppData\Local\Temp\cc1nbtVP.s 			page 140


 6468 0048 00000000 		.4byte	0
 6469 004c 00000000 		.4byte	0
 6470 0050 00000000 		.4byte	.LFB588
 6471 0054 38000000 		.4byte	.LFE588
 6472 0058 00000000 		.4byte	.LFB589
 6473 005c 28000000 		.4byte	.LFE589
 6474 0060 00000000 		.4byte	.LFB613
 6475 0064 16000000 		.4byte	.LFE613
 6476 0068 00000000 		.4byte	.LFB668
 6477 006c 26000000 		.4byte	.LFE668
 6478 0070 00000000 		.4byte	.LFB669
 6479 0074 28000000 		.4byte	.LFE669
 6480 0078 00000000 		.4byte	.LFB687
 6481 007c 22000000 		.4byte	.LFE687
 6482 0080 00000000 		.4byte	.LFB714
 6483 0084 22000000 		.4byte	.LFE714
 6484 0088 00000000 		.4byte	.LFB717
 6485 008c 04040000 		.4byte	.LFE717
 6486 0090 00000000 		.4byte	.LFB718
 6487 0094 8C000000 		.4byte	.LFE718
 6488 0098 00000000 		.4byte	.LFB719
 6489 009c 8C000000 		.4byte	.LFE719
 6490 00a0 00000000 		.4byte	.LFB720
 6491 00a4 2C000000 		.4byte	.LFE720
 6492 00a8 00000000 		.4byte	.LFB721
 6493 00ac 74000000 		.4byte	.LFE721
 6494 00b0 00000000 		.4byte	.LFB722
 6495 00b4 78000000 		.4byte	.LFE722
 6496 00b8 00000000 		.4byte	.LFB723
 6497 00bc E0000000 		.4byte	.LFE723
 6498 00c0 00000000 		.4byte	.LFB724
 6499 00c4 E0000000 		.4byte	.LFE724
 6500 00c8 00000000 		.4byte	.LFB725
 6501 00cc 30000000 		.4byte	.LFE725
 6502 00d0 00000000 		.4byte	.LFB726
 6503 00d4 AC040000 		.4byte	.LFE726
 6504 00d8 00000000 		.4byte	0
 6505 00dc 00000000 		.4byte	0
 6506              		.section	.debug_line,"",%progbits
 6507              	.Ldebug_line0:
 6508 0000 4A070000 		.section	.debug_str,"MS",%progbits,1
 6508      0200DF04 
 6508      00000201 
 6508      FB0E0D00 
 6508      01010101 
 6509              	.LASF193:
 6510 0000 4761696E 		.ascii	"Gain\000"
 6510      00
 6511              	.LASF9:
 6512 0005 6C6F6E67 		.ascii	"long int\000"
 6512      20696E74 
 6512      00
 6513              	.LASF383:
 6514 000e 6F666673 		.ascii	"offset_slider_event_cb\000"
 6514      65745F73 
 6514      6C696465 
 6514      725F6576 
ARM GAS  C:\Users\tmj32\AppData\Local\Temp\cc1nbtVP.s 			page 141


 6514      656E745F 
 6515              	.LASF212:
 6516 0025 5F6C765F 		.ascii	"_lv_obj_t\000"
 6516      6F626A5F 
 6516      7400
 6517              	.LASF142:
 6518 002f 63795F63 		.ascii	"cy_cb_scb_spi_handle_events_t\000"
 6518      625F7363 
 6518      625F7370 
 6518      695F6861 
 6518      6E646C65 
 6519              	.LASF410:
 6520 004d 44495350 		.ascii	"DISP_TICK_TIMER_config\000"
 6520      5F544943 
 6520      4B5F5449 
 6520      4D45525F 
 6520      636F6E66 
 6521              	.LASF207:
 6522 0064 66756C6C 		.ascii	"full\000"
 6522      00
 6523              	.LASF170:
 6524 0069 73746F70 		.ascii	"stopInputMode\000"
 6524      496E7075 
 6524      744D6F64 
 6524      6500
 6525              	.LASF366:
 6526 0077 6C765F72 		.ascii	"lv_roller_get_selected_str\000"
 6526      6F6C6C65 
 6526      725F6765 
 6526      745F7365 
 6526      6C656374 
 6527              	.LASF409:
 6528 0092 63795F64 		.ascii	"cy_device\000"
 6528      65766963 
 6528      6500
 6529              	.LASF411:
 6530 009c 4932435F 		.ascii	"I2C_MASTER_context\000"
 6530      4D415354 
 6530      45525F63 
 6530      6F6E7465 
 6530      787400
 6531              	.LASF373:
 6532 00af 63686172 		.ascii	"chart1\000"
 6532      743100
 6533              	.LASF344:
 6534 00b6 4C565F4C 		.ascii	"LV_LABEL_LONG_DOT\000"
 6534      4142454C 
 6534      5F4C4F4E 
 6534      475F444F 
 6534      5400
 6535              	.LASF95:
 6536 00c8 63707573 		.ascii	"cpussCm0ClockCtlOffset\000"
 6536      73436D30 
 6536      436C6F63 
 6536      6B43746C 
 6536      4F666673 
 6537              	.LASF54:
ARM GAS  C:\Users\tmj32\AppData\Local\Temp\cc1nbtVP.s 			page 142


 6538 00df 70657269 		.ascii	"periClockNr\000"
 6538      436C6F63 
 6538      6B4E7200 
 6539              	.LASF123:
 6540 00eb 6D617374 		.ascii	"masterStatus\000"
 6540      65725374 
 6540      61747573 
 6540      00
 6541              	.LASF187:
 6542 00f8 41726D65 		.ascii	"Armed\000"
 6542      6400
 6543              	.LASF192:
 6544 00fe 56657274 		.ascii	"VertScale\000"
 6544      5363616C 
 6544      6500
 6545              	.LASF28:
 6546 0108 75646242 		.ascii	"udbBase\000"
 6546      61736500 
 6547              	.LASF295:
 6548 0110 4C565F45 		.ascii	"LV_EVENT_VALUE_CHANGED\000"
 6548      56454E54 
 6548      5F56414C 
 6548      55455F43 
 6548      48414E47 
 6549              	.LASF27:
 6550 0127 70657269 		.ascii	"periBase\000"
 6550      42617365 
 6550      00
 6551              	.LASF179:
 6552 0130 56657273 		.ascii	"VersionID\000"
 6552      696F6E49 
 6552      4400
 6553              	.LASF386:
 6554 013a 686F7269 		.ascii	"hori_slider_event_cb\000"
 6554      5F736C69 
 6554      6465725F 
 6554      6576656E 
 6554      745F6362 
 6555              	.LASF297:
 6556 014f 4C565F45 		.ascii	"LV_EVENT_REFRESH\000"
 6556      56454E54 
 6556      5F524546 
 6556      52455348 
 6556      00
 6557              	.LASF228:
 6558 0160 62617365 		.ascii	"base_dir\000"
 6558      5F646972 
 6558      00
 6559              	.LASF226:
 6560 0169 70617265 		.ascii	"parent_event\000"
 6560      6E745F65 
 6560      76656E74 
 6560      00
 6561              	.LASF73:
 6562 0176 64774368 		.ascii	"dwChSize\000"
 6562      53697A65 
 6562      00
ARM GAS  C:\Users\tmj32\AppData\Local\Temp\cc1nbtVP.s 			page 143


 6563              	.LASF194:
 6564 017f 54784275 		.ascii	"TxBuffer\000"
 6564      66666572 
 6564      00
 6565              	.LASF305:
 6566 0188 4C565F41 		.ascii	"LV_ALIGN_CENTER\000"
 6566      4C49474E 
 6566      5F43454E 
 6566      54455200 
 6567              	.LASF222:
 6568 0198 64726167 		.ascii	"drag_throw\000"
 6568      5F746872 
 6568      6F7700
 6569              	.LASF14:
 6570 01a3 756E7369 		.ascii	"unsigned int\000"
 6570      676E6564 
 6570      20696E74 
 6570      00
 6571              	.LASF237:
 6572 01b0 6F66735F 		.ascii	"ofs_x\000"
 6572      7800
 6573              	.LASF238:
 6574 01b6 6F66735F 		.ascii	"ofs_y\000"
 6574      7900
 6575              	.LASF128:
 6576 01bc 6D617374 		.ascii	"masterBufferIdx\000"
 6576      65724275 
 6576      66666572 
 6576      49647800 
 6577              	.LASF55:
 6578 01cc 736D6966 		.ascii	"smifDeviceNr\000"
 6578      44657669 
 6578      63654E72 
 6578      00
 6579              	.LASF241:
 6580 01d9 6765745F 		.ascii	"get_glyph_dsc\000"
 6580      676C7970 
 6580      685F6473 
 6580      6300
 6581              	.LASF277:
 6582 01e7 6C765F73 		.ascii	"lv_style_t\000"
 6582      74796C65 
 6582      5F7400
 6583              	.LASF74:
 6584 01f2 64774368 		.ascii	"dwChCtlPrioPos\000"
 6584      43746C50 
 6584      72696F50 
 6584      6F7300
 6585              	.LASF169:
 6586 0201 73746172 		.ascii	"startInput\000"
 6586      74496E70 
 6586      757400
 6587              	.LASF8:
 6588 020c 5F5F696E 		.ascii	"__int32_t\000"
 6588      7433325F 
 6588      7400
 6589              	.LASF51:
ARM GAS  C:\Users\tmj32\AppData\Local\Temp\cc1nbtVP.s 			page 144


 6590 0216 73727373 		.ascii	"srssNumClkpath\000"
 6590      4E756D43 
 6590      6C6B7061 
 6590      746800
 6591              	.LASF312:
 6592 0225 4C565F41 		.ascii	"LV_ALIGN_IN_LEFT_MID\000"
 6592      4C49474E 
 6592      5F494E5F 
 6592      4C454654 
 6592      5F4D4944 
 6593              	.LASF329:
 6594 023a 796F6673 		.ascii	"yofs\000"
 6594      00
 6595              	.LASF25:
 6596 023f 63707573 		.ascii	"cpussBase\000"
 6596      73426173 
 6596      6500
 6597              	.LASF280:
 6598 0249 6C765F64 		.ascii	"lv_design_cb_t\000"
 6598      65736967 
 6598      6E5F6362 
 6598      5F7400
 6599              	.LASF136:
 6600 0258 736C6176 		.ascii	"slaveRxBuffer\000"
 6600      65527842 
 6600      75666665 
 6600      7200
 6601              	.LASF317:
 6602 0266 4C565F41 		.ascii	"LV_ALIGN_OUT_BOTTOM_LEFT\000"
 6602      4C49474E 
 6602      5F4F5554 
 6602      5F424F54 
 6602      544F4D5F 
 6603              	.LASF42:
 6604 027f 70657269 		.ascii	"periVersion\000"
 6604      56657273 
 6604      696F6E00 
 6605              	.LASF267:
 6606 028b 666F6E74 		.ascii	"font\000"
 6606      00
 6607              	.LASF140:
 6608 0290 63624164 		.ascii	"cbAddr\000"
 6608      647200
 6609              	.LASF382:
 6610 0297 73775F65 		.ascii	"sw_event_handler\000"
 6610      76656E74 
 6610      5F68616E 
 6610      646C6572 
 6610      00
 6611              	.LASF298:
 6612 02a8 4C565F45 		.ascii	"LV_EVENT_APPLY\000"
 6612      56454E54 
 6612      5F415050 
 6612      4C5900
 6613              	.LASF171:
 6614 02b7 73746F70 		.ascii	"stopInput\000"
 6614      496E7075 
ARM GAS  C:\Users\tmj32\AppData\Local\Temp\cc1nbtVP.s 			page 145


 6614      7400
 6615              	.LASF189:
 6616 02c1 4F666673 		.ascii	"Offset\000"
 6616      657400
 6617              	.LASF290:
 6618 02c8 4C565F45 		.ascii	"LV_EVENT_DRAG_END\000"
 6618      56454E54 
 6618      5F445241 
 6618      475F454E 
 6618      4400
 6619              	.LASF117:
 6620 02da 63795F65 		.ascii	"cy_en_scb_i2c_command_t\000"
 6620      6E5F7363 
 6620      625F6932 
 6620      635F636F 
 6620      6D6D616E 
 6621              	.LASF200:
 6622 02f2 6E5F7369 		.ascii	"n_size\000"
 6622      7A6500
 6623              	.LASF131:
 6624 02f9 736C6176 		.ascii	"slaveRdBufEmpty\000"
 6624      65526442 
 6624      7566456D 
 6624      70747900 
 6625              	.LASF81:
 6626 0309 70657269 		.ascii	"periTrGrSize\000"
 6626      54724772 
 6626      53697A65 
 6626      00
 6627              	.LASF61:
 6628 0316 63727970 		.ascii	"cryptoMemSize\000"
 6628      746F4D65 
 6628      6D53697A 
 6628      6500
 6629              	.LASF107:
 6630 0324 63707573 		.ascii	"cpussRam1Ctl0\000"
 6630      7352616D 
 6630      3143746C 
 6630      3000
 6631              	.LASF109:
 6632 0332 69706353 		.ascii	"ipcStructSize\000"
 6632      74727563 
 6632      7453697A 
 6632      6500
 6633              	.LASF116:
 6634 0340 43595F53 		.ascii	"CY_SCB_I2C_NAK\000"
 6634      43425F49 
 6634      32435F4E 
 6634      414B00
 6635              	.LASF49:
 6636 034f 63707573 		.ascii	"cpussFmIrq\000"
 6636      73466D49 
 6636      727100
 6637              	.LASF119:
 6638 035a 63795F63 		.ascii	"cy_cb_scb_i2c_handle_addr_t\000"
 6638      625F7363 
 6638      625F6932 
ARM GAS  C:\Users\tmj32\AppData\Local\Temp\cc1nbtVP.s 			page 146


 6638      635F6861 
 6638      6E646C65 
 6639              	.LASF160:
 6640 0376 636F6D70 		.ascii	"compare0\000"
 6640      61726530 
 6640      00
 6641              	.LASF161:
 6642 037f 636F6D70 		.ascii	"compare1\000"
 6642      61726531 
 6642      00
 6643              	.LASF292:
 6644 0388 4C565F45 		.ascii	"LV_EVENT_KEY\000"
 6644      56454E54 
 6644      5F4B4559 
 6644      00
 6645              	.LASF363:
 6646 0395 616E696D 		.ascii	"anim\000"
 6646      00
 6647              	.LASF143:
 6648 039a 63795F73 		.ascii	"cy_stc_scb_i2c_context\000"
 6648      74635F73 
 6648      63625F69 
 6648      32635F63 
 6648      6F6E7465 
 6649              	.LASF337:
 6650 03b1 4C565F42 		.ascii	"LV_BTN_STATE_PR\000"
 6650      544E5F53 
 6650      54415445 
 6650      5F505200 
 6651              	.LASF83:
 6652 03c1 70657269 		.ascii	"periDivCmdTypeSelPos\000"
 6652      44697643 
 6652      6D645479 
 6652      70655365 
 6652      6C506F73 
 6653              	.LASF100:
 6654 03d6 63707573 		.ascii	"cpussTrimRamCtlOffset\000"
 6654      73547269 
 6654      6D52616D 
 6654      43746C4F 
 6654      66667365 
 6655              	.LASF103:
 6656 03ec 63707573 		.ascii	"cpussCm0NmiCtlOffset\000"
 6656      73436D30 
 6656      4E6D6943 
 6656      746C4F66 
 6656      66736574 
 6657              	.LASF335:
 6658 0401 6C765F6F 		.ascii	"lv_obj_t\000"
 6658      626A5F74 
 6658      00
 6659              	.LASF407:
 6660 040a 76657274 		.ascii	"vertLabel1\000"
 6660      4C616265 
 6660      6C3100
 6661              	.LASF398:
 6662 0415 76657274 		.ascii	"vertLabel2\000"
ARM GAS  C:\Users\tmj32\AppData\Local\Temp\cc1nbtVP.s 			page 147


 6662      4C616265 
 6662      6C3200
 6663              	.LASF275:
 6664 0420 696D6167 		.ascii	"image\000"
 6664      6500
 6665              	.LASF132:
 6666 0426 736C6176 		.ascii	"slaveTxBuffer\000"
 6666      65547842 
 6666      75666665 
 6666      7200
 6667              	.LASF419:
 6668 0434 433A5C55 		.ascii	"C:\\Users\\tmj32\\Documents\\TCNJ\\Senior_Project\\"
 6668      73657273 
 6668      5C746D6A 
 6668      33325C44 
 6668      6F63756D 
 6669 0461 4F736369 		.ascii	"Oscilloscope_Senior_Project\\tcom_engineering\\embe"
 6669      6C6C6F73 
 6669      636F7065 
 6669      5F53656E 
 6669      696F725F 
 6670 0492 645F7377 		.ascii	"d_sw\\tcom_app\\tcom_app_psoc6_lvgl6\\tcom_displ_te"
 6670      5C74636F 
 6670      6D5F6170 
 6670      705C7463 
 6670      6F6D5F61 
 6671 04c2 73745F70 		.ascii	"st_psoc6.cydsn\000"
 6671      736F6336 
 6671      2E637964 
 6671      736E00
 6672              	.LASF233:
 6673 04d1 7265616C 		.ascii	"realign\000"
 6673      69676E00 
 6674              	.LASF370:
 6675 04d9 63686172 		.ascii	"chart_width\000"
 6675      745F7769 
 6675      64746800 
 6676              	.LASF259:
 6677 04e5 696E6E65 		.ascii	"inner\000"
 6677      7200
 6678              	.LASF134:
 6679 04eb 736C6176 		.ascii	"slaveTxBufferIdx\000"
 6679      65547842 
 6679      75666665 
 6679      72496478 
 6679      00
 6680              	.LASF323:
 6681 04fc 4C565F41 		.ascii	"LV_ALIGN_OUT_RIGHT_TOP\000"
 6681      4C49474E 
 6681      5F4F5554 
 6681      5F524947 
 6681      48545F54 
 6682              	.LASF23:
 6683 0513 75696E74 		.ascii	"uint32_t\000"
 6683      33325F74 
 6683      00
 6684              	.LASF18:
ARM GAS  C:\Users\tmj32\AppData\Local\Temp\cc1nbtVP.s 			page 148


 6685 051c 696E7438 		.ascii	"int8_t\000"
 6685      5F7400
 6686              	.LASF208:
 6687 0523 6C765F63 		.ascii	"lv_color32_t\000"
 6687      6F6C6F72 
 6687      33325F74 
 6687      00
 6688              	.LASF368:
 6689 0530 6275665F 		.ascii	"buf_size\000"
 6689      73697A65 
 6689      00
 6690              	.LASF296:
 6691 0539 4C565F45 		.ascii	"LV_EVENT_INSERT\000"
 6691      56454E54 
 6691      5F494E53 
 6691      45525400 
 6692              	.LASF93:
 6693 0549 6770696F 		.ascii	"gpioPrtCfgOutOffset\000"
 6693      50727443 
 6693      66674F75 
 6693      744F6666 
 6693      73657400 
 6694              	.LASF319:
 6695 055d 4C565F41 		.ascii	"LV_ALIGN_OUT_BOTTOM_RIGHT\000"
 6695      4C49474E 
 6695      5F4F5554 
 6695      5F424F54 
 6695      544F4D5F 
 6696              	.LASF112:
 6697 0577 666C6F61 		.ascii	"float\000"
 6697      7400
 6698              	.LASF266:
 6699 057d 73656C5F 		.ascii	"sel_color\000"
 6699      636F6C6F 
 6699      7200
 6700              	.LASF220:
 6701 0587 636C6963 		.ascii	"click\000"
 6701      6B00
 6702              	.LASF326:
 6703 058d 6C765F61 		.ascii	"lv_align_t\000"
 6703      6C69676E 
 6703      5F7400
 6704              	.LASF380:
 6705 0598 6576656E 		.ascii	"event\000"
 6705      7400
 6706              	.LASF57:
 6707 059e 65704D6F 		.ascii	"epMonitorNr\000"
 6707      6E69746F 
 6707      724E7200 
 6708              	.LASF327:
 6709 05aa 62617365 		.ascii	"base\000"
 6709      00
 6710              	.LASF388:
 6711 05af 77696E64 		.ascii	"window_slider_event_cb\000"
 6711      6F775F73 
 6711      6C696465 
 6711      725F6576 
ARM GAS  C:\Users\tmj32\AppData\Local\Temp\cc1nbtVP.s 			page 149


 6711      656E745F 
 6712              	.LASF167:
 6713 05c6 72656C6F 		.ascii	"reloadInput\000"
 6713      6164496E 
 6713      70757400 
 6714              	.LASF20:
 6715 05d2 696E7431 		.ascii	"int16_t\000"
 6715      365F7400 
 6716              	.LASF92:
 6717 05da 6770696F 		.ascii	"gpioPrtCfgInOffset\000"
 6717      50727443 
 6717      6667496E 
 6717      4F666673 
 6717      657400
 6718              	.LASF345:
 6719 05ed 4C565F4C 		.ascii	"LV_LABEL_LONG_SROLL\000"
 6719      4142454C 
 6719      5F4C4F4E 
 6719      475F5352 
 6719      4F4C4C00 
 6720              	.LASF203:
 6721 0601 6C765F6C 		.ascii	"lv_ll_t\000"
 6721      6C5F7400 
 6722              	.LASF13:
 6723 0609 6C6F6E67 		.ascii	"long long unsigned int\000"
 6723      206C6F6E 
 6723      6720756E 
 6723      7369676E 
 6723      65642069 
 6724              	.LASF304:
 6725 0620 6C765F73 		.ascii	"lv_signal_cb_t\000"
 6725      69676E61 
 6725      6C5F6362 
 6725      5F7400
 6726              	.LASF94:
 6727 062f 6770696F 		.ascii	"gpioPrtCfgSioOffset\000"
 6727      50727443 
 6727      66675369 
 6727      6F4F6666 
 6727      73657400 
 6728              	.LASF254:
 6729 0643 70617274 		.ascii	"part\000"
 6729      00
 6730              	.LASF325:
 6731 0648 4C565F41 		.ascii	"LV_ALIGN_OUT_RIGHT_BOTTOM\000"
 6731      4C49474E 
 6731      5F4F5554 
 6731      5F524947 
 6731      48545F42 
 6732              	.LASF53:
 6733 0662 73727373 		.ascii	"srssNumHfroot\000"
 6733      4E756D48 
 6733      66726F6F 
 6733      7400
 6734              	.LASF201:
 6735 0670 68656164 		.ascii	"head\000"
 6735      00
ARM GAS  C:\Users\tmj32\AppData\Local\Temp\cc1nbtVP.s 			page 150


 6736              	.LASF374:
 6737 0675 62756666 		.ascii	"bufferFirst\000"
 6737      65724669 
 6737      72737400 
 6738              	.LASF22:
 6739 0681 696E7433 		.ascii	"int32_t\000"
 6739      325F7400 
 6740              	.LASF393:
 6741 0689 74726967 		.ascii	"triggerSlider\000"
 6741      67657253 
 6741      6C696465 
 6741      7200
 6742              	.LASF133:
 6743 0697 736C6176 		.ascii	"slaveTxBufferSize\000"
 6743      65547842 
 6743      75666665 
 6743      7253697A 
 6743      6500
 6744              	.LASF84:
 6745 06a9 70657269 		.ascii	"periDivCmdPaDivSelPos\000"
 6745      44697643 
 6745      6D645061 
 6745      44697653 
 6745      656C506F 
 6746              	.LASF168:
 6747 06bf 73746172 		.ascii	"startInputMode\000"
 6747      74496E70 
 6747      75744D6F 
 6747      646500
 6748              	.LASF206:
 6749 06ce 616C7068 		.ascii	"alpha\000"
 6749      6100
 6750              	.LASF164:
 6751 06d4 63617074 		.ascii	"captureInputMode\000"
 6751      75726549 
 6751      6E707574 
 6751      4D6F6465 
 6751      00
 6752              	.LASF318:
 6753 06e5 4C565F41 		.ascii	"LV_ALIGN_OUT_BOTTOM_MID\000"
 6753      4C49474E 
 6753      5F4F5554 
 6753      5F424F54 
 6753      544F4D5F 
 6754              	.LASF389:
 6755 06fd 63686172 		.ascii	"chart_actions\000"
 6755      745F6163 
 6755      74696F6E 
 6755      7300
 6756              	.LASF362:
 6757 070b 76616C75 		.ascii	"value\000"
 6757      6500
 6758              	.LASF361:
 6759 0711 736C6964 		.ascii	"slider\000"
 6759      657200
 6760              	.LASF146:
 6761 0718 72784275 		.ascii	"rxBuf\000"
ARM GAS  C:\Users\tmj32\AppData\Local\Temp\cc1nbtVP.s 			page 151


 6761      6600
 6762              	.LASF33:
 6763 071e 69706342 		.ascii	"ipcBase\000"
 6763      61736500 
 6764              	.LASF190:
 6765 0726 77696E64 		.ascii	"windowPos\000"
 6765      6F77506F 
 6765      7300
 6766              	.LASF404:
 6767 0730 6F666673 		.ascii	"offsetLabel\000"
 6767      65744C61 
 6767      62656C00 
 6768              	.LASF70:
 6769 073c 666C6173 		.ascii	"flashCtlMainWs3Freq\000"
 6769      6843746C 
 6769      4D61696E 
 6769      57733346 
 6769      72657100 
 6770              	.LASF52:
 6771 0750 73727373 		.ascii	"srssNumPll\000"
 6771      4E756D50 
 6771      6C6C00
 6772              	.LASF271:
 6773 075b 726F756E 		.ascii	"rounded\000"
 6773      64656400 
 6774              	.LASF321:
 6775 0763 4C565F41 		.ascii	"LV_ALIGN_OUT_LEFT_MID\000"
 6775      4C49474E 
 6775      5F4F5554 
 6775      5F4C4546 
 6775      545F4D49 
 6776              	.LASF31:
 6777 0779 6770696F 		.ascii	"gpioBase\000"
 6777      42617365 
 6777      00
 6778              	.LASF219:
 6779 0782 7374796C 		.ascii	"style_p\000"
 6779      655F7000 
 6780              	.LASF358:
 6781 078a 4C565F52 		.ascii	"LV_ROLLER_MODE_INIFINITE\000"
 6781      4F4C4C45 
 6781      525F4D4F 
 6781      44455F49 
 6781      4E494649 
 6782              	.LASF253:
 6783 07a3 77696474 		.ascii	"width\000"
 6783      6800
 6784              	.LASF63:
 6785 07a9 666C6173 		.ascii	"flashPipeRequired\000"
 6785      68506970 
 6785      65526571 
 6785      75697265 
 6785      6400
 6786              	.LASF129:
 6787 07bb 6D617374 		.ascii	"masterNumBytes\000"
 6787      65724E75 
 6787      6D427974 
ARM GAS  C:\Users\tmj32\AppData\Local\Temp\cc1nbtVP.s 			page 152


 6787      657300
 6788              	.LASF395:
 6789 07ca 686F7269 		.ascii	"horiSlider\000"
 6789      536C6964 
 6789      657200
 6790              	.LASF139:
 6791 07d5 63624576 		.ascii	"cbEvents\000"
 6791      656E7473 
 6791      00
 6792              	.LASF300:
 6793 07de 4C565F45 		.ascii	"LV_EVENT_DELETE\000"
 6793      56454E54 
 6793      5F44454C 
 6793      45544500 
 6794              	.LASF199:
 6795 07ee 6C765F6C 		.ascii	"lv_ll_node_t\000"
 6795      6C5F6E6F 
 6795      64655F74 
 6795      00
 6796              	.LASF349:
 6797 07fb 4C565F43 		.ascii	"LV_CHART_TYPE_LINE\000"
 6797      48415254 
 6797      5F545950 
 6797      455F4C49 
 6797      4E4500
 6798              	.LASF283:
 6799 080e 4C565F45 		.ascii	"LV_EVENT_PRESS_LOST\000"
 6799      56454E54 
 6799      5F505245 
 6799      53535F4C 
 6799      4F535400 
 6800              	.LASF114:
 6801 0822 5F426F6F 		.ascii	"_Bool\000"
 6801      6C00
 6802              	.LASF414:
 6803 0828 74636E6A 		.ascii	"tcnj_gold\000"
 6803      5F676F6C 
 6803      6400
 6804              	.LASF67:
 6805 0832 666C6173 		.ascii	"flashCtlMainWs0Freq\000"
 6805      6843746C 
 6805      4D61696E 
 6805      57733046 
 6805      72657100 
 6806              	.LASF120:
 6807 0846 75736552 		.ascii	"useRxFifo\000"
 6807      78466966 
 6807      6F00
 6808              	.LASF240:
 6809 0850 5F6C765F 		.ascii	"_lv_font_struct\000"
 6809      666F6E74 
 6809      5F737472 
 6809      75637400 
 6810              	.LASF342:
 6811 0860 4C565F4C 		.ascii	"LV_LABEL_LONG_EXPAND\000"
 6811      4142454C 
 6811      5F4C4F4E 
ARM GAS  C:\Users\tmj32\AppData\Local\Temp\cc1nbtVP.s 			page 153


 6811      475F4558 
 6811      50414E44 
 6812              	.LASF281:
 6813 0875 4C565F45 		.ascii	"LV_EVENT_PRESSED\000"
 6813      56454E54 
 6813      5F505245 
 6813      53534544 
 6813      00
 6814              	.LASF375:
 6815 0886 62756666 		.ascii	"bufferLast\000"
 6815      65724C61 
 6815      737400
 6816              	.LASF339:
 6817 0891 4C565F42 		.ascii	"LV_BTN_STATE_TGL_PR\000"
 6817      544E5F53 
 6817      54415445 
 6817      5F54474C 
 6817      5F505200 
 6818              	.LASF110:
 6819 08a5 6970634C 		.ascii	"ipcLockStatusOffset\000"
 6819      6F636B53 
 6819      74617475 
 6819      734F6666 
 6819      73657400 
 6820              	.LASF37:
 6821 08b9 64775665 		.ascii	"dwVersion\000"
 6821      7273696F 
 6821      6E00
 6822              	.LASF243:
 6823 08c3 6C696E65 		.ascii	"line_height\000"
 6823      5F686569 
 6823      67687400 
 6824              	.LASF102:
 6825 08cf 63707573 		.ascii	"cpussSysTickCtlOffset\000"
 6825      73537973 
 6825      5469636B 
 6825      43746C4F 
 6825      66667365 
 6826              	.LASF58:
 6827 08e5 75646250 		.ascii	"udbPresent\000"
 6827      72657365 
 6827      6E7400
 6828              	.LASF364:
 6829 08f0 6C765F73 		.ascii	"lv_slider_set_value\000"
 6829      6C696465 
 6829      725F7365 
 6829      745F7661 
 6829      6C756500 
 6830              	.LASF76:
 6831 0904 64775374 		.ascii	"dwStatusChIdxPos\000"
 6831      61747573 
 6831      43684964 
 6831      78506F73 
 6831      00
 6832              	.LASF6:
 6833 0915 5F5F7569 		.ascii	"__uint16_t\000"
 6833      6E743136 
ARM GAS  C:\Users\tmj32\AppData\Local\Temp\cc1nbtVP.s 			page 154


 6833      5F7400
 6834              	.LASF360:
 6835 0920 6C765F63 		.ascii	"lv_color_hex\000"
 6835      6F6C6F72 
 6835      5F686578 
 6835      00
 6836              	.LASF261:
 6837 092d 67726164 		.ascii	"grad_color\000"
 6837      5F636F6C 
 6837      6F7200
 6838              	.LASF47:
 6839 0938 63707573 		.ascii	"cpussFlashPaSize\000"
 6839      73466C61 
 6839      73685061 
 6839      53697A65 
 6839      00
 6840              	.LASF165:
 6841 0949 63617074 		.ascii	"captureInput\000"
 6841      75726549 
 6841      6E707574 
 6841      00
 6842              	.LASF350:
 6843 0956 4C565F43 		.ascii	"LV_CHART_TYPE_COLUMN\000"
 6843      48415254 
 6843      5F545950 
 6843      455F434F 
 6843      4C554D4E 
 6844              	.LASF115:
 6845 096b 43595F53 		.ascii	"CY_SCB_I2C_ACK\000"
 6845      43425F49 
 6845      32435F41 
 6845      434B00
 6846              	.LASF17:
 6847 097a 63686172 		.ascii	"char\000"
 6847      00
 6848              	.LASF387:
 6849 097f 76657274 		.ascii	"verti_slider_event_cb\000"
 6849      695F736C 
 6849      69646572 
 6849      5F657665 
 6849      6E745F63 
 6850              	.LASF405:
 6851 0995 74726967 		.ascii	"triggerLabel\000"
 6851      6765724C 
 6851      6162656C 
 6851      00
 6852              	.LASF85:
 6853 09a2 70657269 		.ascii	"periDivCmdPaTypeSelPos\000"
 6853      44697643 
 6853      6D645061 
 6853      54797065 
 6853      53656C50 
 6854              	.LASF223:
 6855 09b9 64726167 		.ascii	"drag_parent\000"
 6855      5F706172 
 6855      656E7400 
 6856              	.LASF195:
ARM GAS  C:\Users\tmj32\AppData\Local\Temp\cc1nbtVP.s 			page 155


 6857 09c5 52784275 		.ascii	"RxBuffer\000"
 6857      66666572 
 6857      00
 6858              	.LASF59:
 6859 09ce 73797350 		.ascii	"sysPmSimoPresent\000"
 6859      6D53696D 
 6859      6F507265 
 6859      73656E74 
 6859      00
 6860              	.LASF127:
 6861 09df 6D617374 		.ascii	"masterBufferSize\000"
 6861      65724275 
 6861      66666572 
 6861      53697A65 
 6861      00
 6862              	.LASF232:
 6863 09f0 6578745F 		.ascii	"ext_draw_pad\000"
 6863      64726177 
 6863      5F706164 
 6863      00
 6864              	.LASF256:
 6865 09fd 626F7474 		.ascii	"bottom\000"
 6865      6F6D00
 6866              	.LASF159:
 6867 0a04 636F6D70 		.ascii	"compareOrCapture\000"
 6867      6172654F 
 6867      72436170 
 6867      74757265 
 6867      00
 6868              	.LASF156:
 6869 0a15 636C6F63 		.ascii	"clockPrescaler\000"
 6869      6B507265 
 6869      7363616C 
 6869      657200
 6870              	.LASF412:
 6871 0a24 5350494D 		.ascii	"SPIM_context\000"
 6871      5F636F6E 
 6871      74657874 
 6871      00
 6872              	.LASF148:
 6873 0a31 72784275 		.ascii	"rxBufIdx\000"
 6873      66496478 
 6873      00
 6874              	.LASF239:
 6875 0a3a 6C765F66 		.ascii	"lv_font_glyph_dsc_t\000"
 6875      6F6E745F 
 6875      676C7970 
 6875      685F6473 
 6875      635F7400 
 6876              	.LASF152:
 6877 0a4e 696E6974 		.ascii	"initKey\000"
 6877      4B657900 
 6878              	.LASF272:
 6879 0a56 676C6173 		.ascii	"glass\000"
 6879      7300
 6880              	.LASF77:
 6881 0a5c 64775374 		.ascii	"dwStatusChIdxMsk\000"
ARM GAS  C:\Users\tmj32\AppData\Local\Temp\cc1nbtVP.s 			page 156


 6881      61747573 
 6881      43684964 
 6881      784D736B 
 6881      00
 6882              	.LASF311:
 6883 0a6d 4C565F41 		.ascii	"LV_ALIGN_IN_BOTTOM_RIGHT\000"
 6883      4C49474E 
 6883      5F494E5F 
 6883      424F5454 
 6883      4F4D5F52 
 6884              	.LASF19:
 6885 0a86 75696E74 		.ascii	"uint8_t\000"
 6885      385F7400 
 6886              	.LASF145:
 6887 0a8e 73746174 		.ascii	"status\000"
 6887      757300
 6888              	.LASF255:
 6889 0a95 74797065 		.ascii	"type\000"
 6889      00
 6890              	.LASF135:
 6891 0a9a 736C6176 		.ascii	"slaveTxBufferCnt\000"
 6891      65547842 
 6891      75666665 
 6891      72436E74 
 6891      00
 6892              	.LASF227:
 6893 0aab 64726167 		.ascii	"drag_dir\000"
 6893      5F646972 
 6893      00
 6894              	.LASF32:
 6895 0ab4 70617373 		.ascii	"passBase\000"
 6895      42617365 
 6895      00
 6896              	.LASF82:
 6897 0abd 70657269 		.ascii	"periDivCmdDivSelMsk\000"
 6897      44697643 
 6897      6D644469 
 6897      7653656C 
 6897      4D736B00 
 6898              	.LASF299:
 6899 0ad1 4C565F45 		.ascii	"LV_EVENT_CANCEL\000"
 6899      56454E54 
 6899      5F43414E 
 6899      43454C00 
 6900              	.LASF251:
 6901 0ae1 6C765F73 		.ascii	"lv_shadow_type_t\000"
 6901      6861646F 
 6901      775F7479 
 6901      70655F74 
 6901      00
 6902              	.LASF359:
 6903 0af2 6C765F63 		.ascii	"lv_color_make\000"
 6903      6F6C6F72 
 6903      5F6D616B 
 6903      6500
 6904              	.LASF343:
 6905 0b00 4C565F4C 		.ascii	"LV_LABEL_LONG_BREAK\000"
ARM GAS  C:\Users\tmj32\AppData\Local\Temp\cc1nbtVP.s 			page 157


 6905      4142454C 
 6905      5F4C4F4E 
 6905      475F4252 
 6905      45414B00 
 6906              	.LASF420:
 6907 0b14 6C765F73 		.ascii	"lv_scr_act\000"
 6907      63725F61 
 6907      637400
 6908              	.LASF258:
 6909 0b1f 72696768 		.ascii	"right\000"
 6909      7400
 6910              	.LASF185:
 6911 0b25 54726967 		.ascii	"TriggerEvent\000"
 6911      67657245 
 6911      76656E74 
 6911      00
 6912              	.LASF106:
 6913 0b32 63707573 		.ascii	"cpussRam0Ctl0\000"
 6913      7352616D 
 6913      3043746C 
 6913      3000
 6914              	.LASF12:
 6915 0b40 6C6F6E67 		.ascii	"long long int\000"
 6915      206C6F6E 
 6915      6720696E 
 6915      7400
 6916              	.LASF402:
 6917 0b4e 726F6C6C 		.ascii	"roller1\000"
 6917      65723100 
 6918              	.LASF403:
 6919 0b56 726F6C6C 		.ascii	"roller2\000"
 6919      65723200 
 6920              	.LASF320:
 6921 0b5e 4C565F41 		.ascii	"LV_ALIGN_OUT_LEFT_TOP\000"
 6921      4C49474E 
 6921      5F4F5554 
 6921      5F4C4546 
 6921      545F544F 
 6922              	.LASF34:
 6923 0b74 63727970 		.ascii	"cryptoBase\000"
 6923      746F4261 
 6923      736500
 6924              	.LASF274:
 6925 0b7f 74657874 		.ascii	"text\000"
 6925      00
 6926              	.LASF331:
 6927 0b84 6175746F 		.ascii	"auto_realign\000"
 6927      5F726561 
 6927      6C69676E 
 6927      00
 6928              	.LASF89:
 6929 0b91 70657269 		.ascii	"periDiv24_5CtlOffset\000"
 6929      44697632 
 6929      345F3543 
 6929      746C4F66 
 6929      66736574 
 6930              	.LASF265:
ARM GAS  C:\Users\tmj32\AppData\Local\Temp\cc1nbtVP.s 			page 158


 6931 0ba6 70616464 		.ascii	"padding\000"
 6931      696E6700 
 6932              	.LASF381:
 6933 0bae 726F6C6C 		.ascii	"roller2_event\000"
 6933      6572325F 
 6933      6576656E 
 6933      7400
 6934              	.LASF64:
 6935 0bbc 666C6173 		.ascii	"flashWriteDelay\000"
 6935      68577269 
 6935      74654465 
 6935      6C617900 
 6936              	.LASF346:
 6937 0bcc 4C565F4C 		.ascii	"LV_LABEL_LONG_SROLL_CIRC\000"
 6937      4142454C 
 6937      5F4C4F4E 
 6937      475F5352 
 6937      4F4C4C5F 
 6938              	.LASF151:
 6939 0be5 74784275 		.ascii	"txBufIdx\000"
 6939      66496478 
 6939      00
 6940              	.LASF121:
 6941 0bee 75736554 		.ascii	"useTxFifo\000"
 6941      78466966 
 6941      6F00
 6942              	.LASF328:
 6943 0bf8 786F6673 		.ascii	"xofs\000"
 6943      00
 6944              	.LASF118:
 6945 0bfd 63795F63 		.ascii	"cy_cb_scb_i2c_handle_events_t\000"
 6945      625F7363 
 6945      625F6932 
 6945      635F6861 
 6945      6E646C65 
 6946              	.LASF4:
 6947 0c1b 5F5F696E 		.ascii	"__int16_t\000"
 6947      7431365F 
 6947      7400
 6948              	.LASF176:
 6949 0c25 42726961 		.ascii	"BrianReg\000"
 6949      6E526567 
 6949      00
 6950              	.LASF30:
 6951 0c2e 6873696F 		.ascii	"hsiomBase\000"
 6951      6D426173 
 6951      6500
 6952              	.LASF125:
 6953 0c38 6D617374 		.ascii	"masterRdDir\000"
 6953      65725264 
 6953      44697200 
 6954              	.LASF278:
 6955 0c44 6C765F62 		.ascii	"lv_bidi_dir_t\000"
 6955      6964695F 
 6955      6469725F 
 6955      7400
 6956              	.LASF301:
ARM GAS  C:\Users\tmj32\AppData\Local\Temp\cc1nbtVP.s 			page 159


 6957 0c52 6C765F65 		.ascii	"lv_event_t\000"
 6957      76656E74 
 6957      5F7400
 6958              	.LASF80:
 6959 0c5d 70657269 		.ascii	"periTrGrOffset\000"
 6959      54724772 
 6959      4F666673 
 6959      657400
 6960              	.LASF50:
 6961 0c6c 63707573 		.ascii	"cpussNotConnectedIrq\000"
 6961      734E6F74 
 6961      436F6E6E 
 6961      65637465 
 6961      64497271 
 6962              	.LASF332:
 6963 0c81 6F726967 		.ascii	"origo_align\000"
 6963      6F5F616C 
 6963      69676E00 
 6964              	.LASF153:
 6965 0c8d 63795F73 		.ascii	"cy_stc_scb_spi_context_t\000"
 6965      74635F73 
 6965      63625F73 
 6965      70695F63 
 6965      6F6E7465 
 6966              	.LASF198:
 6967 0ca6 6C765F72 		.ascii	"lv_res_t\000"
 6967      65735F74 
 6967      00
 6968              	.LASF166:
 6969 0caf 72656C6F 		.ascii	"reloadInputMode\000"
 6969      6164496E 
 6969      7075744D 
 6969      6F646500 
 6970              	.LASF182:
 6971 0cbf 54726967 		.ascii	"TriggerCode\000"
 6971      67657243 
 6971      6F646500 
 6972              	.LASF334:
 6973 0ccb 6C765F64 		.ascii	"lv_drag_dir_t\000"
 6973      7261675F 
 6973      6469725F 
 6973      7400
 6974              	.LASF310:
 6975 0cd9 4C565F41 		.ascii	"LV_ALIGN_IN_BOTTOM_MID\000"
 6975      4C49474E 
 6975      5F494E5F 
 6975      424F5454 
 6975      4F4D5F4D 
 6976              	.LASF391:
 6977 0cf0 6F666673 		.ascii	"offsetSlider\000"
 6977      6574536C 
 6977      69646572 
 6977      00
 6978              	.LASF150:
 6979 0cfd 74784275 		.ascii	"txBufSize\000"
 6979      6653697A 
 6979      6500
ARM GAS  C:\Users\tmj32\AppData\Local\Temp\cc1nbtVP.s 			page 160


 6980              	.LASF44:
 6981 0d07 63707573 		.ascii	"cpussIpcNr\000"
 6981      73497063 
 6981      4E7200
 6982              	.LASF294:
 6983 0d12 4C565F45 		.ascii	"LV_EVENT_DEFOCUSED\000"
 6983      56454E54 
 6983      5F444546 
 6983      4F435553 
 6983      454400
 6984              	.LASF289:
 6985 0d25 4C565F45 		.ascii	"LV_EVENT_DRAG_BEGIN\000"
 6985      56454E54 
 6985      5F445241 
 6985      475F4245 
 6985      47494E00 
 6986              	.LASF97:
 6987 0d39 63707573 		.ascii	"cpussCm4StatusOffset\000"
 6987      73436D34 
 6987      53746174 
 6987      75734F66 
 6987      66736574 
 6988              	.LASF56:
 6989 0d4e 70617373 		.ascii	"passSarChannels\000"
 6989      53617243 
 6989      68616E6E 
 6989      656C7300 
 6990              	.LASF138:
 6991 0d5e 736C6176 		.ascii	"slaveRxBufferIdx\000"
 6991      65527842 
 6991      75666665 
 6991      72496478 
 6991      00
 6992              	.LASF108:
 6993 0d6f 63707573 		.ascii	"cpussRam2Ctl0\000"
 6993      7352616D 
 6993      3243746C 
 6993      3000
 6994              	.LASF248:
 6995 0d7d 4C565F41 		.ascii	"LV_ANIM_ON\000"
 6995      4E494D5F 
 6995      4F4E00
 6996              	.LASF124:
 6997 0d88 6D617374 		.ascii	"masterPause\000"
 6997      65725061 
 6997      75736500 
 6998              	.LASF162:
 6999 0d94 656E6162 		.ascii	"enableCompareSwap\000"
 6999      6C65436F 
 6999      6D706172 
 6999      65537761 
 6999      7000
 7000              	.LASF313:
 7001 0da6 4C565F41 		.ascii	"LV_ALIGN_IN_RIGHT_MID\000"
 7001      4C49474E 
 7001      5F494E5F 
 7001      52494748 
ARM GAS  C:\Users\tmj32\AppData\Local\Temp\cc1nbtVP.s 			page 161


 7001      545F4D49 
 7002              	.LASF43:
 7003 0dbc 70726F74 		.ascii	"protVersion\000"
 7003      56657273 
 7003      696F6E00 
 7004              	.LASF394:
 7005 0dc8 74726967 		.ascii	"triggerLabel2\000"
 7005      6765724C 
 7005      6162656C 
 7005      3200
 7006              	.LASF149:
 7007 0dd6 74784275 		.ascii	"txBuf\000"
 7007      6600
 7008              	.LASF245:
 7009 0ddc 73756270 		.ascii	"subpx\000"
 7009      7800
 7010              	.LASF209:
 7011 0de2 6C765F63 		.ascii	"lv_color_t\000"
 7011      6F6C6F72 
 7011      5F7400
 7012              	.LASF264:
 7013 0ded 73686164 		.ascii	"shadow\000"
 7013      6F7700
 7014              	.LASF65:
 7015 0df4 666C6173 		.ascii	"flashProgramDelay\000"
 7015      6850726F 
 7015      6772616D 
 7015      44656C61 
 7015      7900
 7016              	.LASF188:
 7017 0e06 52657365 		.ascii	"Reset\000"
 7017      7400
 7018              	.LASF137:
 7019 0e0c 736C6176 		.ascii	"slaveRxBufferSize\000"
 7019      65527842 
 7019      75666665 
 7019      7253697A 
 7019      6500
 7020              	.LASF287:
 7021 0e1e 4C565F45 		.ascii	"LV_EVENT_CLICKED\000"
 7021      56454E54 
 7021      5F434C49 
 7021      434B4544 
 7021      00
 7022              	.LASF400:
 7023 0e2f 73776974 		.ascii	"switchLabel\000"
 7023      63684C61 
 7023      62656C00 
 7024              	.LASF205:
 7025 0e3b 67726565 		.ascii	"green\000"
 7025      6E00
 7026              	.LASF7:
 7027 0e41 73686F72 		.ascii	"short unsigned int\000"
 7027      7420756E 
 7027      7369676E 
 7027      65642069 
 7027      6E7400
ARM GAS  C:\Users\tmj32\AppData\Local\Temp\cc1nbtVP.s 			page 162


 7028              	.LASF15:
 7029 0e54 6C6F6E67 		.ascii	"long double\000"
 7029      20646F75 
 7029      626C6500 
 7030              	.LASF21:
 7031 0e60 75696E74 		.ascii	"uint16_t\000"
 7031      31365F74 
 7031      00
 7032              	.LASF29:
 7033 0e69 70726F74 		.ascii	"protBase\000"
 7033      42617365 
 7033      00
 7034              	.LASF357:
 7035 0e72 4C565F52 		.ascii	"LV_ROLLER_MODE_NORMAL\000"
 7035      4F4C4C45 
 7035      525F4D4F 
 7035      44455F4E 
 7035      4F524D41 
 7036              	.LASF157:
 7037 0e88 72756E4D 		.ascii	"runMode\000"
 7037      6F646500 
 7038              	.LASF79:
 7039 0e90 70657269 		.ascii	"periTrCmdGrSelMsk\000"
 7039      5472436D 
 7039      64477253 
 7039      656C4D73 
 7039      6B00
 7040              	.LASF126:
 7041 0ea2 6D617374 		.ascii	"masterBuffer\000"
 7041      65724275 
 7041      66666572 
 7041      00
 7042              	.LASF385:
 7043 0eaf 74726967 		.ascii	"trigger_slider_event_cb\000"
 7043      6765725F 
 7043      736C6964 
 7043      65725F65 
 7043      76656E74 
 7044              	.LASF371:
 7045 0ec7 63686172 		.ascii	"chart_heigth\000"
 7045      745F6865 
 7045      69677468 
 7045      00
 7046              	.LASF314:
 7047 0ed4 4C565F41 		.ascii	"LV_ALIGN_OUT_TOP_LEFT\000"
 7047      4C49474E 
 7047      5F4F5554 
 7047      5F544F50 
 7047      5F4C4546 
 7048              	.LASF174:
 7049 0eea 63795F73 		.ascii	"cy_stc_tcpwm_counter_config_t\000"
 7049      74635F74 
 7049      6370776D 
 7049      5F636F75 
 7049      6E746572 
 7050              	.LASF41:
 7051 0f08 69706356 		.ascii	"ipcVersion\000"
ARM GAS  C:\Users\tmj32\AppData\Local\Temp\cc1nbtVP.s 			page 163


 7051      65727369 
 7051      6F6E00
 7052              	.LASF416:
 7053 0f13 73746172 		.ascii	"startup\000"
 7053      74757000 
 7054              	.LASF69:
 7055 0f1b 666C6173 		.ascii	"flashCtlMainWs2Freq\000"
 7055      6843746C 
 7055      4D61696E 
 7055      57733246 
 7055      72657100 
 7056              	.LASF78:
 7057 0f2f 70657269 		.ascii	"periTrCmdOffset\000"
 7057      5472436D 
 7057      644F6666 
 7057      73657400 
 7058              	.LASF365:
 7059 0f3f 6C765F73 		.ascii	"lv_slider_set_range\000"
 7059      6C696465 
 7059      725F7365 
 7059      745F7261 
 7059      6E676500 
 7060              	.LASF372:
 7061 0f53 77696E64 		.ascii	"windowSize\000"
 7061      6F775369 
 7061      7A6500
 7062              	.LASF406:
 7063 0f5e 686F7269 		.ascii	"horiLabel1\000"
 7063      4C616265 
 7063      6C3100
 7064              	.LASF396:
 7065 0f69 686F7269 		.ascii	"horiLabel2\000"
 7065      4C616265 
 7065      6C3200
 7066              	.LASF16:
 7067 0f74 73697A65 		.ascii	"sizetype\000"
 7067      74797065 
 7067      00
 7068              	.LASF246:
 7069 0f7d 6C765F66 		.ascii	"lv_font_t\000"
 7069      6F6E745F 
 7069      7400
 7070              	.LASF268:
 7071 0f87 6C657474 		.ascii	"letter_space\000"
 7071      65725F73 
 7071      70616365 
 7071      00
 7072              	.LASF104:
 7073 0f94 63707573 		.ascii	"cpussCm4NmiCtlOffset\000"
 7073      73436D34 
 7073      4E6D6943 
 7073      746C4F66 
 7073      66736574 
 7074              	.LASF260:
 7075 0fa9 6D61696E 		.ascii	"main_color\000"
 7075      5F636F6C 
 7075      6F7200
ARM GAS  C:\Users\tmj32\AppData\Local\Temp\cc1nbtVP.s 			page 164


 7076              	.LASF86:
 7077 0fb4 70657269 		.ascii	"periDiv8CtlOffset\000"
 7077      44697638 
 7077      43746C4F 
 7077      66667365 
 7077      7400
 7078              	.LASF288:
 7079 0fc6 4C565F45 		.ascii	"LV_EVENT_RELEASED\000"
 7079      56454E54 
 7079      5F52454C 
 7079      45415345 
 7079      4400
 7080              	.LASF307:
 7081 0fd8 4C565F41 		.ascii	"LV_ALIGN_IN_TOP_MID\000"
 7081      4C49474E 
 7081      5F494E5F 
 7081      544F505F 
 7081      4D494400 
 7082              	.LASF5:
 7083 0fec 73686F72 		.ascii	"short int\000"
 7083      7420696E 
 7083      7400
 7084              	.LASF87:
 7085 0ff6 70657269 		.ascii	"periDiv16CtlOffset\000"
 7085      44697631 
 7085      3643746C 
 7085      4F666673 
 7085      657400
 7086              	.LASF214:
 7087 1009 636F6F72 		.ascii	"coords\000"
 7087      647300
 7088              	.LASF163:
 7089 1010 696E7465 		.ascii	"interruptSources\000"
 7089      72727570 
 7089      74536F75 
 7089      72636573 
 7089      00
 7090              	.LASF315:
 7091 1021 4C565F41 		.ascii	"LV_ALIGN_OUT_TOP_MID\000"
 7091      4C49474E 
 7091      5F4F5554 
 7091      5F544F50 
 7091      5F4D4944 
 7092              	.LASF210:
 7093 1036 6C765F6F 		.ascii	"lv_opa_t\000"
 7093      70615F74 
 7093      00
 7094              	.LASF367:
 7095 103f 726F6C6C 		.ascii	"roller\000"
 7095      657200
 7096              	.LASF36:
 7097 1046 63727970 		.ascii	"cryptoVersion\000"
 7097      746F5665 
 7097      7273696F 
 7097      6E00
 7098              	.LASF196:
 7099 1054 52616D52 		.ascii	"RamReadBuffer\000"
ARM GAS  C:\Users\tmj32\AppData\Local\Temp\cc1nbtVP.s 			page 165


 7099      65616442 
 7099      75666665 
 7099      7200
 7100              	.LASF341:
 7101 1062 5F4C565F 		.ascii	"_LV_BTN_STATE_NUM\000"
 7101      42544E5F 
 7101      53544154 
 7101      455F4E55 
 7101      4D00
 7102              	.LASF408:
 7103 1074 49544D5F 		.ascii	"ITM_RxBuffer\000"
 7103      52784275 
 7103      66666572 
 7103      00
 7104              	.LASF172:
 7105 1081 636F756E 		.ascii	"countInputMode\000"
 7105      74496E70 
 7105      75744D6F 
 7105      646500
 7106              	.LASF39:
 7107 1090 6770696F 		.ascii	"gpioVersion\000"
 7107      56657273 
 7107      696F6E00 
 7108              	.LASF38:
 7109 109c 666C6173 		.ascii	"flashcVersion\000"
 7109      68635665 
 7109      7273696F 
 7109      6E00
 7110              	.LASF60:
 7111 10aa 70726F74 		.ascii	"protBusMasterMask\000"
 7111      4275734D 
 7111      61737465 
 7111      724D6173 
 7111      6B00
 7112              	.LASF356:
 7113 10bc 6C765F63 		.ascii	"lv_chart_series_t\000"
 7113      68617274 
 7113      5F736572 
 7113      6965735F 
 7113      7400
 7114              	.LASF158:
 7115 10ce 636F756E 		.ascii	"countDirection\000"
 7115      74446972 
 7115      65637469 
 7115      6F6E00
 7116              	.LASF263:
 7117 10dd 626F7264 		.ascii	"border\000"
 7117      657200
 7118              	.LASF282:
 7119 10e4 4C565F45 		.ascii	"LV_EVENT_PRESSING\000"
 7119      56454E54 
 7119      5F505245 
 7119      5353494E 
 7119      4700
 7120              	.LASF204:
 7121 10f6 626C7565 		.ascii	"blue\000"
 7121      00
ARM GAS  C:\Users\tmj32\AppData\Local\Temp\cc1nbtVP.s 			page 166


 7122              	.LASF390:
 7123 10fb 686F6D65 		.ascii	"home_screen\000"
 7123      5F736372 
 7123      65656E00 
 7124              	.LASF399:
 7125 1107 77696E64 		.ascii	"windowSlider\000"
 7125      6F77536C 
 7125      69646572 
 7125      00
 7126              	.LASF351:
 7127 1114 4C565F43 		.ascii	"LV_CHART_TYPE_POINT\000"
 7127      48415254 
 7127      5F545950 
 7127      455F504F 
 7127      494E5400 
 7128              	.LASF197:
 7129 1128 6C765F63 		.ascii	"lv_coord_t\000"
 7129      6F6F7264 
 7129      5F7400
 7130              	.LASF225:
 7131 1133 6F70615F 		.ascii	"opa_scale_en\000"
 7131      7363616C 
 7131      655F656E 
 7131      00
 7132              	.LASF355:
 7133 1140 73746172 		.ascii	"start_point\000"
 7133      745F706F 
 7133      696E7400 
 7134              	.LASF250:
 7135 114c 6C765F62 		.ascii	"lv_border_part_t\000"
 7135      6F726465 
 7135      725F7061 
 7135      72745F74 
 7135      00
 7136              	.LASF257:
 7137 115d 6C656674 		.ascii	"left\000"
 7137      00
 7138              	.LASF270:
 7139 1162 696E7465 		.ascii	"intense\000"
 7139      6E736500 
 7140              	.LASF99:
 7141 116a 63707573 		.ascii	"cpussCm4PwrCtlOffset\000"
 7141      73436D34 
 7141      50777243 
 7141      746C4F66 
 7141      66736574 
 7142              	.LASF1:
 7143 117f 5F5F7569 		.ascii	"__uint8_t\000"
 7143      6E74385F 
 7143      7400
 7144              	.LASF336:
 7145 1189 4C565F42 		.ascii	"LV_BTN_STATE_REL\000"
 7145      544E5F53 
 7145      54415445 
 7145      5F52454C 
 7145      00
 7146              	.LASF180:
ARM GAS  C:\Users\tmj32\AppData\Local\Temp\cc1nbtVP.s 			page 167


 7147 119a 54726967 		.ascii	"Trigger\000"
 7147      67657200 
 7148              	.LASF90:
 7149 11a2 6770696F 		.ascii	"gpioPrtIntrCfgOffset\000"
 7149      50727449 
 7149      6E747243 
 7149      66674F66 
 7149      66736574 
 7150              	.LASF269:
 7151 11b7 6C696E65 		.ascii	"line_space\000"
 7151      5F737061 
 7151      636500
 7152              	.LASF340:
 7153 11c2 4C565F42 		.ascii	"LV_BTN_STATE_INA\000"
 7153      544E5F53 
 7153      54415445 
 7153      5F494E41 
 7153      00
 7154              	.LASF236:
 7155 11d3 626F785F 		.ascii	"box_h\000"
 7155      6800
 7156              	.LASF293:
 7157 11d9 4C565F45 		.ascii	"LV_EVENT_FOCUSED\000"
 7157      56454E54 
 7157      5F464F43 
 7157      55534544 
 7157      00
 7158              	.LASF96:
 7159 11ea 63707573 		.ascii	"cpussCm4ClockCtlOffset\000"
 7159      73436D34 
 7159      436C6F63 
 7159      6B43746C 
 7159      4F666673 
 7160              	.LASF324:
 7161 1201 4C565F41 		.ascii	"LV_ALIGN_OUT_RIGHT_MID\000"
 7161      4C49474E 
 7161      5F4F5554 
 7161      5F524947 
 7161      48545F4D 
 7162              	.LASF101:
 7163 1218 63707573 		.ascii	"cpussTrimRomCtlOffset\000"
 7163      73547269 
 7163      6D526F6D 
 7163      43746C4F 
 7163      66667365 
 7164              	.LASF181:
 7165 122e 54726967 		.ascii	"TriggerMode\000"
 7165      6765724D 
 7165      6F646500 
 7166              	.LASF40:
 7167 123a 6873696F 		.ascii	"hsiomVersion\000"
 7167      6D566572 
 7167      73696F6E 
 7167      00
 7168              	.LASF211:
 7169 1247 6C765F61 		.ascii	"lv_area_t\000"
 7169      7265615F 
ARM GAS  C:\Users\tmj32\AppData\Local\Temp\cc1nbtVP.s 			page 168


 7169      7400
 7170              	.LASF11:
 7171 1251 6C6F6E67 		.ascii	"long unsigned int\000"
 7171      20756E73 
 7171      69676E65 
 7171      6420696E 
 7171      7400
 7172              	.LASF177:
 7173 1263 43687269 		.ascii	"ChrisReg\000"
 7173      73526567 
 7173      00
 7174              	.LASF105:
 7175 126c 63707573 		.ascii	"cpussRomCtl\000"
 7175      73526F6D 
 7175      43746C00 
 7176              	.LASF235:
 7177 1278 626F785F 		.ascii	"box_w\000"
 7177      7700
 7178              	.LASF309:
 7179 127e 4C565F41 		.ascii	"LV_ALIGN_IN_BOTTOM_LEFT\000"
 7179      4C49474E 
 7179      5F494E5F 
 7179      424F5454 
 7179      4F4D5F4C 
 7180              	.LASF308:
 7181 1296 4C565F41 		.ascii	"LV_ALIGN_IN_TOP_RIGHT\000"
 7181      4C49474E 
 7181      5F494E5F 
 7181      544F505F 
 7181      52494748 
 7182              	.LASF244:
 7183 12ac 62617365 		.ascii	"base_line\000"
 7183      5F6C696E 
 7183      6500
 7184              	.LASF247:
 7185 12b6 4C565F41 		.ascii	"LV_ANIM_OFF\000"
 7185      4E494D5F 
 7185      4F464600 
 7186              	.LASF262:
 7187 12c2 72616469 		.ascii	"radius\000"
 7187      757300
 7188              	.LASF231:
 7189 12c9 6F70615F 		.ascii	"opa_scale\000"
 7189      7363616C 
 7189      6500
 7190              	.LASF273:
 7191 12d3 626F6479 		.ascii	"body\000"
 7191      00
 7192              	.LASF303:
 7193 12d8 6C765F73 		.ascii	"lv_signal_t\000"
 7193      69676E61 
 7193      6C5F7400 
 7194              	.LASF418:
 7195 12e4 686F6D65 		.ascii	"home_screen.c\000"
 7195      5F736372 
 7195      65656E2E 
 7195      6300
ARM GAS  C:\Users\tmj32\AppData\Local\Temp\cc1nbtVP.s 			page 169


 7196              	.LASF249:
 7197 12f2 6C765F61 		.ascii	"lv_anim_enable_t\000"
 7197      6E696D5F 
 7197      656E6162 
 7197      6C655F74 
 7197      00
 7198              	.LASF230:
 7199 1303 70726F74 		.ascii	"protect\000"
 7199      65637400 
 7200              	.LASF3:
 7201 130b 756E7369 		.ascii	"unsigned char\000"
 7201      676E6564 
 7201      20636861 
 7201      7200
 7202              	.LASF10:
 7203 1319 5F5F7569 		.ascii	"__uint32_t\000"
 7203      6E743332 
 7203      5F7400
 7204              	.LASF291:
 7205 1324 4C565F45 		.ascii	"LV_EVENT_DRAG_THROW_BEGIN\000"
 7205      56454E54 
 7205      5F445241 
 7205      475F5448 
 7205      524F575F 
 7206              	.LASF191:
 7207 133e 486F7269 		.ascii	"HoriScale\000"
 7207      5363616C 
 7207      6500
 7208              	.LASF175:
 7209 1348 5350495F 		.ascii	"SPI_parameters\000"
 7209      70617261 
 7209      6D657465 
 7209      727300
 7210              	.LASF276:
 7211 1357 6C696E65 		.ascii	"line\000"
 7211      00
 7212              	.LASF173:
 7213 135c 636F756E 		.ascii	"countInput\000"
 7213      74496E70 
 7213      757400
 7214              	.LASF397:
 7215 1367 76657274 		.ascii	"vertSlider\000"
 7215      536C6964 
 7215      657200
 7216              	.LASF316:
 7217 1372 4C565F41 		.ascii	"LV_ALIGN_OUT_TOP_RIGHT\000"
 7217      4C49474E 
 7217      5F4F5554 
 7217      5F544F50 
 7217      5F524947 
 7218              	.LASF242:
 7219 1389 6765745F 		.ascii	"get_glyph_bitmap\000"
 7219      676C7970 
 7219      685F6269 
 7219      746D6170 
 7219      00
 7220              	.LASF202:
ARM GAS  C:\Users\tmj32\AppData\Local\Temp\cc1nbtVP.s 			page 170


 7221 139a 7461696C 		.ascii	"tail\000"
 7221      00
 7222              	.LASF66:
 7223 139f 666C6173 		.ascii	"flashEraseDelay\000"
 7223      68457261 
 7223      73654465 
 7223      6C617900 
 7224              	.LASF213:
 7225 13af 6368696C 		.ascii	"child_ll\000"
 7225      645F6C6C 
 7225      00
 7226              	.LASF376:
 7227 13b8 766F6C74 		.ascii	"voltage\000"
 7227      61676500 
 7228              	.LASF413:
 7229 13c0 74636E6A 		.ascii	"tcnj_blue\000"
 7229      5F626C75 
 7229      6500
 7230              	.LASF348:
 7231 13ca 4C565F43 		.ascii	"LV_CHART_TYPE_NONE\000"
 7231      48415254 
 7231      5F545950 
 7231      455F4E4F 
 7231      4E4500
 7232              	.LASF122:
 7233 13dd 73746174 		.ascii	"state\000"
 7233      6500
 7234              	.LASF279:
 7235 13e3 6C765F64 		.ascii	"lv_design_mode_t\000"
 7235      65736967 
 7235      6E5F6D6F 
 7235      64655F74 
 7235      00
 7236              	.LASF378:
 7237 13f4 74726967 		.ascii	"triggerTemp\000"
 7237      67657254 
 7237      656D7000 
 7238              	.LASF26:
 7239 1400 666C6173 		.ascii	"flashcBase\000"
 7239      68634261 
 7239      736500
 7240              	.LASF252:
 7241 140b 636F6C6F 		.ascii	"color\000"
 7241      7200
 7242              	.LASF347:
 7243 1411 4C565F4C 		.ascii	"LV_LABEL_LONG_CROP\000"
 7243      4142454C 
 7243      5F4C4F4E 
 7243      475F4352 
 7243      4F5000
 7244              	.LASF215:
 7245 1424 6576656E 		.ascii	"event_cb\000"
 7245      745F6362 
 7245      00
 7246              	.LASF217:
 7247 142d 64657369 		.ascii	"design_cb\000"
 7247      676E5F63 
ARM GAS  C:\Users\tmj32\AppData\Local\Temp\cc1nbtVP.s 			page 171


 7247      6200
 7248              	.LASF62:
 7249 1437 666C6173 		.ascii	"flashRwwRequired\000"
 7249      68527777 
 7249      52657175 
 7249      69726564 
 7249      00
 7250              	.LASF91:
 7251 1448 6770696F 		.ascii	"gpioPrtCfgOffset\000"
 7251      50727443 
 7251      66674F66 
 7251      66736574 
 7251      00
 7252              	.LASF384:
 7253 1459 756E6974 		.ascii	"units\000"
 7253      7300
 7254              	.LASF218:
 7255 145f 6578745F 		.ascii	"ext_attr\000"
 7255      61747472 
 7255      00
 7256              	.LASF68:
 7257 1468 666C6173 		.ascii	"flashCtlMainWs1Freq\000"
 7257      6843746C 
 7257      4D61696E 
 7257      57733146 
 7257      72657100 
 7258              	.LASF377:
 7259 147c 74726967 		.ascii	"triggerLine\000"
 7259      6765724C 
 7259      696E6500 
 7260              	.LASF186:
 7261 1488 6F6E4269 		.ascii	"onBit\000"
 7261      7400
 7262              	.LASF48:
 7263 148e 63707573 		.ascii	"cpussIpc0Irq\000"
 7263      73497063 
 7263      30497271 
 7263      00
 7264              	.LASF2:
 7265 149b 7369676E 		.ascii	"signed char\000"
 7265      65642063 
 7265      68617200 
 7266              	.LASF155:
 7267 14a7 70657269 		.ascii	"period\000"
 7267      6F6400
 7268              	.LASF224:
 7269 14ae 68696464 		.ascii	"hidden\000"
 7269      656E00
 7270              	.LASF72:
 7271 14b5 64774368 		.ascii	"dwChOffset\000"
 7271      4F666673 
 7271      657400
 7272              	.LASF45:
 7273 14c0 63707573 		.ascii	"cpussIpcIrqNr\000"
 7273      73497063 
 7273      4972714E 
 7273      7200
ARM GAS  C:\Users\tmj32\AppData\Local\Temp\cc1nbtVP.s 			page 172


 7274              	.LASF154:
 7275 14ce 63795F73 		.ascii	"cy_stc_tcpwm_counter_config\000"
 7275      74635F74 
 7275      6370776D 
 7275      5F636F75 
 7275      6E746572 
 7276              	.LASF75:
 7277 14ea 64774368 		.ascii	"dwChCtlPreemptablePos\000"
 7277      43746C50 
 7277      7265656D 
 7277      70746162 
 7277      6C65506F 
 7278              	.LASF184:
 7279 1500 54726967 		.ascii	"TriggerSlope\000"
 7279      67657253 
 7279      6C6F7065 
 7279      00
 7280              	.LASF0:
 7281 150d 5F5F696E 		.ascii	"__int8_t\000"
 7281      74385F74 
 7281      00
 7282              	.LASF369:
 7283 1516 6C765F73 		.ascii	"lv_sw_get_state\000"
 7283      775F6765 
 7283      745F7374 
 7283      61746500 
 7284              	.LASF322:
 7285 1526 4C565F41 		.ascii	"LV_ALIGN_OUT_LEFT_BOTTOM\000"
 7285      4C49474E 
 7285      5F4F5554 
 7285      5F4C4546 
 7285      545F424F 
 7286              	.LASF111:
 7287 153f 63795F73 		.ascii	"cy_stc_device_t\000"
 7287      74635F64 
 7287      65766963 
 7287      655F7400 
 7288              	.LASF229:
 7289 154f 72657365 		.ascii	"reserved\000"
 7289      72766564 
 7289      00
 7290              	.LASF286:
 7291 1558 4C565F45 		.ascii	"LV_EVENT_LONG_PRESSED_REPEAT\000"
 7291      56454E54 
 7291      5F4C4F4E 
 7291      475F5052 
 7291      45535345 
 7292              	.LASF352:
 7293 1575 4C565F43 		.ascii	"LV_CHART_TYPE_VERTICAL_LINE\000"
 7293      48415254 
 7293      5F545950 
 7293      455F5645 
 7293      52544943 
 7294              	.LASF144:
 7295 1591 63795F73 		.ascii	"cy_stc_scb_spi_context\000"
 7295      74635F73 
 7295      63625F73 
ARM GAS  C:\Users\tmj32\AppData\Local\Temp\cc1nbtVP.s 			page 173


 7295      70695F63 
 7295      6F6E7465 
 7296              	.LASF24:
 7297 15a8 75696E74 		.ascii	"uint\000"
 7297      00
 7298              	.LASF113:
 7299 15ad 646F7562 		.ascii	"double\000"
 7299      6C6500
 7300              	.LASF221:
 7301 15b4 64726167 		.ascii	"drag\000"
 7301      00
 7302              	.LASF379:
 7303 15b9 726F6C6C 		.ascii	"roller1_event\000"
 7303      6572315F 
 7303      6576656E 
 7303      7400
 7304              	.LASF88:
 7305 15c7 70657269 		.ascii	"periDiv16_5CtlOffset\000"
 7305      44697631 
 7305      365F3543 
 7305      746C4F66 
 7305      66736574 
 7306              	.LASF46:
 7307 15dc 63707573 		.ascii	"cpussDwChNr\000"
 7307      73447743 
 7307      684E7200 
 7308              	.LASF141:
 7309 15e8 63795F73 		.ascii	"cy_stc_scb_i2c_context_t\000"
 7309      74635F73 
 7309      63625F69 
 7309      32635F63 
 7309      6F6E7465 
 7310              	.LASF216:
 7311 1601 7369676E 		.ascii	"signal_cb\000"
 7311      616C5F63 
 7311      6200
 7312              	.LASF71:
 7313 160b 666C6173 		.ascii	"flashCtlMainWs4Freq\000"
 7313      6843746C 
 7313      4D61696E 
 7313      57733446 
 7313      72657100 
 7314              	.LASF338:
 7315 161f 4C565F42 		.ascii	"LV_BTN_STATE_TGL_REL\000"
 7315      544E5F53 
 7315      54415445 
 7315      5F54474C 
 7315      5F52454C 
 7316              	.LASF284:
 7317 1634 4C565F45 		.ascii	"LV_EVENT_SHORT_CLICKED\000"
 7317      56454E54 
 7317      5F53484F 
 7317      52545F43 
 7317      4C49434B 
 7318              	.LASF353:
 7319 164b 4C565F43 		.ascii	"LV_CHART_TYPE_AREA\000"
 7319      48415254 
ARM GAS  C:\Users\tmj32\AppData\Local\Temp\cc1nbtVP.s 			page 174


 7319      5F545950 
 7319      455F4152 
 7319      454100
 7320              	.LASF417:
 7321 165e 474E5520 		.ascii	"GNU C11 5.4.1 20160609 (release) [ARM/embedded-5-br"
 7321      43313120 
 7321      352E342E 
 7321      31203230 
 7321      31363036 
 7322 1691 616E6368 		.ascii	"anch revision 237715] -mcpu=cortex-m4 -mfloat-abi=s"
 7322      20726576 
 7322      6973696F 
 7322      6E203233 
 7322      37373135 
 7323 16c4 6F667466 		.ascii	"oftfp -mfpu=fpv4-sp-d16 -mthumb -g -O0 -ffunction-s"
 7323      70202D6D 
 7323      6670753D 
 7323      66707634 
 7323      2D73702D 
 7324 16f7 65637469 		.ascii	"ections -ffat-lto-objects\000"
 7324      6F6E7320 
 7324      2D666661 
 7324      742D6C74 
 7324      6F2D6F62 
 7325              	.LASF330:
 7326 1711 616C6967 		.ascii	"align\000"
 7326      6E00
 7327              	.LASF178:
 7328 1717 5368616E 		.ascii	"ShannonReg\000"
 7328      6E6F6E52 
 7328      656700
 7329              	.LASF415:
 7330 1722 64697370 		.ascii	"display_leftAlign\000"
 7330      6C61795F 
 7330      6C656674 
 7330      416C6967 
 7330      6E00
 7331              	.LASF98:
 7332 1734 63707573 		.ascii	"cpussCm0StatusOffset\000"
 7332      73436D30 
 7332      53746174 
 7332      75734F66 
 7332      66736574 
 7333              	.LASF354:
 7334 1749 706F696E 		.ascii	"points\000"
 7334      747300
 7335              	.LASF183:
 7336 1750 7369676E 		.ascii	"signedTriggerCode\000"
 7336      65645472 
 7336      69676765 
 7336      72436F64 
 7336      6500
 7337              	.LASF306:
 7338 1762 4C565F41 		.ascii	"LV_ALIGN_IN_TOP_LEFT\000"
 7338      4C49474E 
 7338      5F494E5F 
 7338      544F505F 
ARM GAS  C:\Users\tmj32\AppData\Local\Temp\cc1nbtVP.s 			page 175


 7338      4C454654 
 7339              	.LASF285:
 7340 1777 4C565F45 		.ascii	"LV_EVENT_LONG_PRESSED\000"
 7340      56454E54 
 7340      5F4C4F4E 
 7340      475F5052 
 7340      45535345 
 7341              	.LASF302:
 7342 178d 6C765F65 		.ascii	"lv_event_cb_t\000"
 7342      76656E74 
 7342      5F63625F 
 7342      7400
 7343              	.LASF35:
 7344 179b 63707573 		.ascii	"cpussVersion\000"
 7344      73566572 
 7344      73696F6E 
 7344      00
 7345              	.LASF333:
 7346 17a8 6C765F72 		.ascii	"lv_reailgn_t\000"
 7346      6561696C 
 7346      676E5F74 
 7346      00
 7347              	.LASF147:
 7348 17b5 72784275 		.ascii	"rxBufSize\000"
 7348      6653697A 
 7348      6500
 7349              	.LASF234:
 7350 17bf 6164765F 		.ascii	"adv_w\000"
 7350      7700
 7351              	.LASF130:
 7352 17c5 736C6176 		.ascii	"slaveStatus\000"
 7352      65537461 
 7352      74757300 
 7353              	.LASF401:
 7354 17d1 726F6C6C 		.ascii	"rollerLabel\000"
 7354      65724C61 
 7354      62656C00 
 7355              	.LASF392:
 7356 17dd 6F666673 		.ascii	"offsetLabel2\000"
 7356      65744C61 
 7356      62656C32 
 7356      00
 7357              		.ident	"GCC: (GNU Tools for ARM Embedded Processors) 5.4.1 20160609 (release) [ARM/embedded-5-bran
