ARM GAS  C:\Users\tmj32\AppData\Local\Temp\cc8xedyG.s 			page 1


   1              		.syntax unified
   2              		.cpu cortex-m4
   3              		.eabi_attribute 27, 1
   4              		.fpu fpv4-sp-d16
   5              		.eabi_attribute 20, 1
   6              		.eabi_attribute 21, 1
   7              		.eabi_attribute 23, 3
   8              		.eabi_attribute 24, 1
   9              		.eabi_attribute 25, 1
  10              		.eabi_attribute 26, 1
  11              		.eabi_attribute 30, 6
  12              		.eabi_attribute 34, 1
  13              		.eabi_attribute 18, 4
  14              		.thumb
  15              		.syntax unified
  16              		.file	"home_screen.c"
  17              		.text
  18              	.Ltext0:
  19              		.cfi_sections	.debug_frame
  20              		.comm	cm4,1092,4
  21              		.section	.text.lv_color_make,"ax",%progbits
  22              		.align	2
  23              		.thumb
  24              		.thumb_func
  25              		.type	lv_color_make, %function
  26              	lv_color_make:
  27              	.LFB588:
  28              		.file 1 "..\\..\\..\\lvgl\\version_6.1.2\\lvgl/src/lv_hal/../lv_misc/lv_color.h"
   1:..\..\..\lvgl\version_6.1.2\lvgl/src/lv_hal/../lv_misc/lv_color.h **** /**
   2:..\..\..\lvgl\version_6.1.2\lvgl/src/lv_hal/../lv_misc/lv_color.h ****  * @file lv_color.h
   3:..\..\..\lvgl\version_6.1.2\lvgl/src/lv_hal/../lv_misc/lv_color.h ****  *
   4:..\..\..\lvgl\version_6.1.2\lvgl/src/lv_hal/../lv_misc/lv_color.h ****  */
   5:..\..\..\lvgl\version_6.1.2\lvgl/src/lv_hal/../lv_misc/lv_color.h **** 
   6:..\..\..\lvgl\version_6.1.2\lvgl/src/lv_hal/../lv_misc/lv_color.h **** #ifndef LV_COLOR_H
   7:..\..\..\lvgl\version_6.1.2\lvgl/src/lv_hal/../lv_misc/lv_color.h **** #define LV_COLOR_H
   8:..\..\..\lvgl\version_6.1.2\lvgl/src/lv_hal/../lv_misc/lv_color.h **** 
   9:..\..\..\lvgl\version_6.1.2\lvgl/src/lv_hal/../lv_misc/lv_color.h **** #ifdef __cplusplus
  10:..\..\..\lvgl\version_6.1.2\lvgl/src/lv_hal/../lv_misc/lv_color.h **** extern "C" {
  11:..\..\..\lvgl\version_6.1.2\lvgl/src/lv_hal/../lv_misc/lv_color.h **** #endif
  12:..\..\..\lvgl\version_6.1.2\lvgl/src/lv_hal/../lv_misc/lv_color.h **** 
  13:..\..\..\lvgl\version_6.1.2\lvgl/src/lv_hal/../lv_misc/lv_color.h **** /*********************
  14:..\..\..\lvgl\version_6.1.2\lvgl/src/lv_hal/../lv_misc/lv_color.h ****  *      INCLUDES
  15:..\..\..\lvgl\version_6.1.2\lvgl/src/lv_hal/../lv_misc/lv_color.h ****  *********************/
  16:..\..\..\lvgl\version_6.1.2\lvgl/src/lv_hal/../lv_misc/lv_color.h **** #ifdef LV_CONF_INCLUDE_SIMPLE
  17:..\..\..\lvgl\version_6.1.2\lvgl/src/lv_hal/../lv_misc/lv_color.h **** #include "lv_conf.h"
  18:..\..\..\lvgl\version_6.1.2\lvgl/src/lv_hal/../lv_misc/lv_color.h **** #else
  19:..\..\..\lvgl\version_6.1.2\lvgl/src/lv_hal/../lv_misc/lv_color.h **** #include "../../../lv_conf.h"
  20:..\..\..\lvgl\version_6.1.2\lvgl/src/lv_hal/../lv_misc/lv_color.h **** #endif
  21:..\..\..\lvgl\version_6.1.2\lvgl/src/lv_hal/../lv_misc/lv_color.h **** 
  22:..\..\..\lvgl\version_6.1.2\lvgl/src/lv_hal/../lv_misc/lv_color.h **** /*Error checking*/
  23:..\..\..\lvgl\version_6.1.2\lvgl/src/lv_hal/../lv_misc/lv_color.h **** #if LV_COLOR_DEPTH == 24
  24:..\..\..\lvgl\version_6.1.2\lvgl/src/lv_hal/../lv_misc/lv_color.h **** #error "LV_COLOR_DEPTH  24 is deprecated. Use LV_COLOR_DEPTH  32 instead (lv_conf.h)"
  25:..\..\..\lvgl\version_6.1.2\lvgl/src/lv_hal/../lv_misc/lv_color.h **** #endif
  26:..\..\..\lvgl\version_6.1.2\lvgl/src/lv_hal/../lv_misc/lv_color.h **** 
  27:..\..\..\lvgl\version_6.1.2\lvgl/src/lv_hal/../lv_misc/lv_color.h **** #if LV_COLOR_DEPTH != 32 && LV_COLOR_SCREEN_TRANSP != 0
  28:..\..\..\lvgl\version_6.1.2\lvgl/src/lv_hal/../lv_misc/lv_color.h **** #error "LV_COLOR_SCREEN_TRANSP requires LV_COLOR_DEPTH == 32. Set it in lv_conf.h"
  29:..\..\..\lvgl\version_6.1.2\lvgl/src/lv_hal/../lv_misc/lv_color.h **** #endif
ARM GAS  C:\Users\tmj32\AppData\Local\Temp\cc8xedyG.s 			page 2


  30:..\..\..\lvgl\version_6.1.2\lvgl/src/lv_hal/../lv_misc/lv_color.h **** 
  31:..\..\..\lvgl\version_6.1.2\lvgl/src/lv_hal/../lv_misc/lv_color.h **** #if LV_COLOR_DEPTH != 16 && LV_COLOR_16_SWAP != 0
  32:..\..\..\lvgl\version_6.1.2\lvgl/src/lv_hal/../lv_misc/lv_color.h **** #error "LV_COLOR_16_SWAP requires LV_COLOR_DEPTH == 16. Set it in lv_conf.h"
  33:..\..\..\lvgl\version_6.1.2\lvgl/src/lv_hal/../lv_misc/lv_color.h **** #endif
  34:..\..\..\lvgl\version_6.1.2\lvgl/src/lv_hal/../lv_misc/lv_color.h **** 
  35:..\..\..\lvgl\version_6.1.2\lvgl/src/lv_hal/../lv_misc/lv_color.h **** #include <stdint.h>
  36:..\..\..\lvgl\version_6.1.2\lvgl/src/lv_hal/../lv_misc/lv_color.h **** 
  37:..\..\..\lvgl\version_6.1.2\lvgl/src/lv_hal/../lv_misc/lv_color.h **** /*********************
  38:..\..\..\lvgl\version_6.1.2\lvgl/src/lv_hal/../lv_misc/lv_color.h ****  *      DEFINES
  39:..\..\..\lvgl\version_6.1.2\lvgl/src/lv_hal/../lv_misc/lv_color.h ****  *********************/
  40:..\..\..\lvgl\version_6.1.2\lvgl/src/lv_hal/../lv_misc/lv_color.h **** #define LV_COLOR_WHITE LV_COLOR_MAKE(0xFF, 0xFF, 0xFF)
  41:..\..\..\lvgl\version_6.1.2\lvgl/src/lv_hal/../lv_misc/lv_color.h **** #define LV_COLOR_SILVER LV_COLOR_MAKE(0xC0, 0xC0, 0xC0)
  42:..\..\..\lvgl\version_6.1.2\lvgl/src/lv_hal/../lv_misc/lv_color.h **** #define LV_COLOR_GRAY LV_COLOR_MAKE(0x80, 0x80, 0x80)
  43:..\..\..\lvgl\version_6.1.2\lvgl/src/lv_hal/../lv_misc/lv_color.h **** #define LV_COLOR_BLACK LV_COLOR_MAKE(0x00, 0x00, 0x00)
  44:..\..\..\lvgl\version_6.1.2\lvgl/src/lv_hal/../lv_misc/lv_color.h **** #define LV_COLOR_RED LV_COLOR_MAKE(0xFF, 0x00, 0x00)
  45:..\..\..\lvgl\version_6.1.2\lvgl/src/lv_hal/../lv_misc/lv_color.h **** #define LV_COLOR_MAROON LV_COLOR_MAKE(0x80, 0x00, 0x00)
  46:..\..\..\lvgl\version_6.1.2\lvgl/src/lv_hal/../lv_misc/lv_color.h **** #define LV_COLOR_YELLOW LV_COLOR_MAKE(0xFF, 0xFF, 0x00)
  47:..\..\..\lvgl\version_6.1.2\lvgl/src/lv_hal/../lv_misc/lv_color.h **** #define LV_COLOR_OLIVE LV_COLOR_MAKE(0x80, 0x80, 0x00)
  48:..\..\..\lvgl\version_6.1.2\lvgl/src/lv_hal/../lv_misc/lv_color.h **** #define LV_COLOR_LIME LV_COLOR_MAKE(0x00, 0xFF, 0x00)
  49:..\..\..\lvgl\version_6.1.2\lvgl/src/lv_hal/../lv_misc/lv_color.h **** #define LV_COLOR_GREEN LV_COLOR_MAKE(0x00, 0x80, 0x00)
  50:..\..\..\lvgl\version_6.1.2\lvgl/src/lv_hal/../lv_misc/lv_color.h **** #define LV_COLOR_CYAN LV_COLOR_MAKE(0x00, 0xFF, 0xFF)
  51:..\..\..\lvgl\version_6.1.2\lvgl/src/lv_hal/../lv_misc/lv_color.h **** #define LV_COLOR_AQUA LV_COLOR_CYAN
  52:..\..\..\lvgl\version_6.1.2\lvgl/src/lv_hal/../lv_misc/lv_color.h **** #define LV_COLOR_TEAL LV_COLOR_MAKE(0x00, 0x80, 0x80)
  53:..\..\..\lvgl\version_6.1.2\lvgl/src/lv_hal/../lv_misc/lv_color.h **** #define LV_COLOR_BLUE LV_COLOR_MAKE(0x00, 0x00, 0xFF)
  54:..\..\..\lvgl\version_6.1.2\lvgl/src/lv_hal/../lv_misc/lv_color.h **** #define LV_COLOR_NAVY LV_COLOR_MAKE(0x00, 0x00, 0x80)
  55:..\..\..\lvgl\version_6.1.2\lvgl/src/lv_hal/../lv_misc/lv_color.h **** #define LV_COLOR_MAGENTA LV_COLOR_MAKE(0xFF, 0x00, 0xFF)
  56:..\..\..\lvgl\version_6.1.2\lvgl/src/lv_hal/../lv_misc/lv_color.h **** #define LV_COLOR_PURPLE LV_COLOR_MAKE(0x80, 0x00, 0x80)
  57:..\..\..\lvgl\version_6.1.2\lvgl/src/lv_hal/../lv_misc/lv_color.h **** #define LV_COLOR_ORANGE LV_COLOR_MAKE(0xFF, 0xA5, 0x00)
  58:..\..\..\lvgl\version_6.1.2\lvgl/src/lv_hal/../lv_misc/lv_color.h **** 
  59:..\..\..\lvgl\version_6.1.2\lvgl/src/lv_hal/../lv_misc/lv_color.h **** /**
  60:..\..\..\lvgl\version_6.1.2\lvgl/src/lv_hal/../lv_misc/lv_color.h ****  * Opacity percentages.
  61:..\..\..\lvgl\version_6.1.2\lvgl/src/lv_hal/../lv_misc/lv_color.h ****  */
  62:..\..\..\lvgl\version_6.1.2\lvgl/src/lv_hal/../lv_misc/lv_color.h **** enum {
  63:..\..\..\lvgl\version_6.1.2\lvgl/src/lv_hal/../lv_misc/lv_color.h ****     LV_OPA_TRANSP = 0,
  64:..\..\..\lvgl\version_6.1.2\lvgl/src/lv_hal/../lv_misc/lv_color.h ****     LV_OPA_0      = 0,
  65:..\..\..\lvgl\version_6.1.2\lvgl/src/lv_hal/../lv_misc/lv_color.h ****     LV_OPA_10     = 25,
  66:..\..\..\lvgl\version_6.1.2\lvgl/src/lv_hal/../lv_misc/lv_color.h ****     LV_OPA_20     = 51,
  67:..\..\..\lvgl\version_6.1.2\lvgl/src/lv_hal/../lv_misc/lv_color.h ****     LV_OPA_30     = 76,
  68:..\..\..\lvgl\version_6.1.2\lvgl/src/lv_hal/../lv_misc/lv_color.h ****     LV_OPA_40     = 102,
  69:..\..\..\lvgl\version_6.1.2\lvgl/src/lv_hal/../lv_misc/lv_color.h ****     LV_OPA_50     = 127,
  70:..\..\..\lvgl\version_6.1.2\lvgl/src/lv_hal/../lv_misc/lv_color.h ****     LV_OPA_60     = 153,
  71:..\..\..\lvgl\version_6.1.2\lvgl/src/lv_hal/../lv_misc/lv_color.h ****     LV_OPA_70     = 178,
  72:..\..\..\lvgl\version_6.1.2\lvgl/src/lv_hal/../lv_misc/lv_color.h ****     LV_OPA_80     = 204,
  73:..\..\..\lvgl\version_6.1.2\lvgl/src/lv_hal/../lv_misc/lv_color.h ****     LV_OPA_90     = 229,
  74:..\..\..\lvgl\version_6.1.2\lvgl/src/lv_hal/../lv_misc/lv_color.h ****     LV_OPA_100    = 255,
  75:..\..\..\lvgl\version_6.1.2\lvgl/src/lv_hal/../lv_misc/lv_color.h ****     LV_OPA_COVER  = 255,
  76:..\..\..\lvgl\version_6.1.2\lvgl/src/lv_hal/../lv_misc/lv_color.h **** };
  77:..\..\..\lvgl\version_6.1.2\lvgl/src/lv_hal/../lv_misc/lv_color.h **** 
  78:..\..\..\lvgl\version_6.1.2\lvgl/src/lv_hal/../lv_misc/lv_color.h **** #define LV_OPA_MIN 16  /*Opacities below this will be transparent*/
  79:..\..\..\lvgl\version_6.1.2\lvgl/src/lv_hal/../lv_misc/lv_color.h **** #define LV_OPA_MAX 251 /*Opacities above this will fully cover*/
  80:..\..\..\lvgl\version_6.1.2\lvgl/src/lv_hal/../lv_misc/lv_color.h **** 
  81:..\..\..\lvgl\version_6.1.2\lvgl/src/lv_hal/../lv_misc/lv_color.h **** #if LV_COLOR_DEPTH == 1
  82:..\..\..\lvgl\version_6.1.2\lvgl/src/lv_hal/../lv_misc/lv_color.h **** #define LV_COLOR_SIZE 8
  83:..\..\..\lvgl\version_6.1.2\lvgl/src/lv_hal/../lv_misc/lv_color.h **** #elif LV_COLOR_DEPTH == 8
  84:..\..\..\lvgl\version_6.1.2\lvgl/src/lv_hal/../lv_misc/lv_color.h **** #define LV_COLOR_SIZE 8
  85:..\..\..\lvgl\version_6.1.2\lvgl/src/lv_hal/../lv_misc/lv_color.h **** #elif LV_COLOR_DEPTH == 16
  86:..\..\..\lvgl\version_6.1.2\lvgl/src/lv_hal/../lv_misc/lv_color.h **** #define LV_COLOR_SIZE 16
ARM GAS  C:\Users\tmj32\AppData\Local\Temp\cc8xedyG.s 			page 3


  87:..\..\..\lvgl\version_6.1.2\lvgl/src/lv_hal/../lv_misc/lv_color.h **** #elif LV_COLOR_DEPTH == 32
  88:..\..\..\lvgl\version_6.1.2\lvgl/src/lv_hal/../lv_misc/lv_color.h **** #define LV_COLOR_SIZE 32
  89:..\..\..\lvgl\version_6.1.2\lvgl/src/lv_hal/../lv_misc/lv_color.h **** #else
  90:..\..\..\lvgl\version_6.1.2\lvgl/src/lv_hal/../lv_misc/lv_color.h **** #error "Invalid LV_COLOR_DEPTH in lv_conf.h! Set it to 1, 8, 16 or 32!"
  91:..\..\..\lvgl\version_6.1.2\lvgl/src/lv_hal/../lv_misc/lv_color.h **** #endif
  92:..\..\..\lvgl\version_6.1.2\lvgl/src/lv_hal/../lv_misc/lv_color.h **** 
  93:..\..\..\lvgl\version_6.1.2\lvgl/src/lv_hal/../lv_misc/lv_color.h **** /*---------------------------------------
  94:..\..\..\lvgl\version_6.1.2\lvgl/src/lv_hal/../lv_misc/lv_color.h ****  * Macros for all existing  color depths
  95:..\..\..\lvgl\version_6.1.2\lvgl/src/lv_hal/../lv_misc/lv_color.h ****  * to set/get values of the color channels
  96:..\..\..\lvgl\version_6.1.2\lvgl/src/lv_hal/../lv_misc/lv_color.h ****  *------------------------------------------*/
  97:..\..\..\lvgl\version_6.1.2\lvgl/src/lv_hal/../lv_misc/lv_color.h **** # define LV_COLOR_SET_R1(c, v) (c).ch.red = (uint8_t)((v) & 0x1);
  98:..\..\..\lvgl\version_6.1.2\lvgl/src/lv_hal/../lv_misc/lv_color.h **** # define LV_COLOR_SET_G1(c, v) (c).ch.green = (uint8_t)((v) & 0x1);
  99:..\..\..\lvgl\version_6.1.2\lvgl/src/lv_hal/../lv_misc/lv_color.h **** # define LV_COLOR_SET_B1(c, v) (c).ch.blue = (uint8_t)((v) & 0x1);
 100:..\..\..\lvgl\version_6.1.2\lvgl/src/lv_hal/../lv_misc/lv_color.h **** # define LV_COLOR_SET_A1(c, v)
 101:..\..\..\lvgl\version_6.1.2\lvgl/src/lv_hal/../lv_misc/lv_color.h **** 
 102:..\..\..\lvgl\version_6.1.2\lvgl/src/lv_hal/../lv_misc/lv_color.h **** # define LV_COLOR_GET_R1(c) (c).ch.red
 103:..\..\..\lvgl\version_6.1.2\lvgl/src/lv_hal/../lv_misc/lv_color.h **** # define LV_COLOR_GET_G1(c) (c).ch.green
 104:..\..\..\lvgl\version_6.1.2\lvgl/src/lv_hal/../lv_misc/lv_color.h **** # define LV_COLOR_GET_B1(c) (c).ch.blue
 105:..\..\..\lvgl\version_6.1.2\lvgl/src/lv_hal/../lv_misc/lv_color.h **** # define LV_COLOR_GET_A1(c) 1
 106:..\..\..\lvgl\version_6.1.2\lvgl/src/lv_hal/../lv_misc/lv_color.h **** 
 107:..\..\..\lvgl\version_6.1.2\lvgl/src/lv_hal/../lv_misc/lv_color.h **** # define LV_COLOR_SET_R8(c, v) (c).ch.red = (uint8_t)(v) & 0x7U;
 108:..\..\..\lvgl\version_6.1.2\lvgl/src/lv_hal/../lv_misc/lv_color.h **** # define LV_COLOR_SET_G8(c, v) (c).ch.green = (uint8_t)(v) & 0x7U;
 109:..\..\..\lvgl\version_6.1.2\lvgl/src/lv_hal/../lv_misc/lv_color.h **** # define LV_COLOR_SET_B8(c, v) (c).ch.blue = (uint8_t)(v) & 0x3U;
 110:..\..\..\lvgl\version_6.1.2\lvgl/src/lv_hal/../lv_misc/lv_color.h **** # define LV_COLOR_SET_A8(c, v) do {} while(0)
 111:..\..\..\lvgl\version_6.1.2\lvgl/src/lv_hal/../lv_misc/lv_color.h **** 
 112:..\..\..\lvgl\version_6.1.2\lvgl/src/lv_hal/../lv_misc/lv_color.h **** # define LV_COLOR_GET_R8(c) (c).ch.red
 113:..\..\..\lvgl\version_6.1.2\lvgl/src/lv_hal/../lv_misc/lv_color.h **** # define LV_COLOR_GET_G8(c) (c).ch.green
 114:..\..\..\lvgl\version_6.1.2\lvgl/src/lv_hal/../lv_misc/lv_color.h **** # define LV_COLOR_GET_B8(c) (c).ch.blue
 115:..\..\..\lvgl\version_6.1.2\lvgl/src/lv_hal/../lv_misc/lv_color.h **** # define LV_COLOR_GET_A8(c) 0xFF
 116:..\..\..\lvgl\version_6.1.2\lvgl/src/lv_hal/../lv_misc/lv_color.h **** 
 117:..\..\..\lvgl\version_6.1.2\lvgl/src/lv_hal/../lv_misc/lv_color.h **** # define LV_COLOR_SET_R16(c, v) (c).ch.red = (uint8_t)(v) & 0x1FU;
 118:..\..\..\lvgl\version_6.1.2\lvgl/src/lv_hal/../lv_misc/lv_color.h **** # define LV_COLOR_SET_G16(c, v) (c).ch.green = (uint8_t)(v) & 0x3FU;
 119:..\..\..\lvgl\version_6.1.2\lvgl/src/lv_hal/../lv_misc/lv_color.h **** # define LV_COLOR_SET_G16_SWAP(c, v) {(c).ch.green_h = (uint8_t)(((v) >> 3) & 0x7); (c).ch.green_l 
 120:..\..\..\lvgl\version_6.1.2\lvgl/src/lv_hal/../lv_misc/lv_color.h **** # define LV_COLOR_SET_B16(c, v) (c).ch.blue = (uint8_t)(v) & 0x1FU;
 121:..\..\..\lvgl\version_6.1.2\lvgl/src/lv_hal/../lv_misc/lv_color.h **** # define LV_COLOR_SET_A16(c, v) do {} while(0)
 122:..\..\..\lvgl\version_6.1.2\lvgl/src/lv_hal/../lv_misc/lv_color.h **** 
 123:..\..\..\lvgl\version_6.1.2\lvgl/src/lv_hal/../lv_misc/lv_color.h **** # define LV_COLOR_GET_R16(c) (c).ch.red
 124:..\..\..\lvgl\version_6.1.2\lvgl/src/lv_hal/../lv_misc/lv_color.h **** # define LV_COLOR_GET_G16(c) (c).ch.green
 125:..\..\..\lvgl\version_6.1.2\lvgl/src/lv_hal/../lv_misc/lv_color.h **** # define LV_COLOR_GET_G16_SWAP(c) (((c).ch.green_h << 3) + (c).ch.green_l)
 126:..\..\..\lvgl\version_6.1.2\lvgl/src/lv_hal/../lv_misc/lv_color.h **** # define LV_COLOR_GET_B16(c) (c).ch.blue
 127:..\..\..\lvgl\version_6.1.2\lvgl/src/lv_hal/../lv_misc/lv_color.h **** # define LV_COLOR_GET_A16(c) 0xFF
 128:..\..\..\lvgl\version_6.1.2\lvgl/src/lv_hal/../lv_misc/lv_color.h **** 
 129:..\..\..\lvgl\version_6.1.2\lvgl/src/lv_hal/../lv_misc/lv_color.h **** # define LV_COLOR_SET_R32(c, v) (c).ch.red = (uint32_t)((v) & 0xFF);
 130:..\..\..\lvgl\version_6.1.2\lvgl/src/lv_hal/../lv_misc/lv_color.h **** # define LV_COLOR_SET_G32(c, v) (c).ch.green = (uint32_t)((v) & 0xFF);
 131:..\..\..\lvgl\version_6.1.2\lvgl/src/lv_hal/../lv_misc/lv_color.h **** # define LV_COLOR_SET_B32(c, v) (c).ch.blue = (uint32_t)((v) & 0xFF);
 132:..\..\..\lvgl\version_6.1.2\lvgl/src/lv_hal/../lv_misc/lv_color.h **** # define LV_COLOR_SET_A32(c, v) (c).ch.alpha = (uint32_t)((v) & 0xFF);
 133:..\..\..\lvgl\version_6.1.2\lvgl/src/lv_hal/../lv_misc/lv_color.h **** 
 134:..\..\..\lvgl\version_6.1.2\lvgl/src/lv_hal/../lv_misc/lv_color.h **** # define LV_COLOR_GET_R32(c) (c).ch.red
 135:..\..\..\lvgl\version_6.1.2\lvgl/src/lv_hal/../lv_misc/lv_color.h **** # define LV_COLOR_GET_G32(c) (c).ch.green
 136:..\..\..\lvgl\version_6.1.2\lvgl/src/lv_hal/../lv_misc/lv_color.h **** # define LV_COLOR_GET_B32(c) (c).ch.blue
 137:..\..\..\lvgl\version_6.1.2\lvgl/src/lv_hal/../lv_misc/lv_color.h **** # define LV_COLOR_GET_A32(c) (c).ch.alpha
 138:..\..\..\lvgl\version_6.1.2\lvgl/src/lv_hal/../lv_misc/lv_color.h **** 
 139:..\..\..\lvgl\version_6.1.2\lvgl/src/lv_hal/../lv_misc/lv_color.h **** 
 140:..\..\..\lvgl\version_6.1.2\lvgl/src/lv_hal/../lv_misc/lv_color.h **** /*---------------------------------------
 141:..\..\..\lvgl\version_6.1.2\lvgl/src/lv_hal/../lv_misc/lv_color.h ****  * Macros for the current color depth
 142:..\..\..\lvgl\version_6.1.2\lvgl/src/lv_hal/../lv_misc/lv_color.h ****  * to set/get values of the color channels
 143:..\..\..\lvgl\version_6.1.2\lvgl/src/lv_hal/../lv_misc/lv_color.h ****  *------------------------------------------*/
ARM GAS  C:\Users\tmj32\AppData\Local\Temp\cc8xedyG.s 			page 4


 144:..\..\..\lvgl\version_6.1.2\lvgl/src/lv_hal/../lv_misc/lv_color.h **** #if LV_COLOR_DEPTH == 1
 145:..\..\..\lvgl\version_6.1.2\lvgl/src/lv_hal/../lv_misc/lv_color.h **** # define LV_COLOR_SET_R(c, v) LV_COLOR_SET_R1(c,v)
 146:..\..\..\lvgl\version_6.1.2\lvgl/src/lv_hal/../lv_misc/lv_color.h **** # define LV_COLOR_SET_G(c, v) LV_COLOR_SET_G1(c,v)
 147:..\..\..\lvgl\version_6.1.2\lvgl/src/lv_hal/../lv_misc/lv_color.h **** # define LV_COLOR_SET_B(c, v) LV_COLOR_SET_B1(c,v)
 148:..\..\..\lvgl\version_6.1.2\lvgl/src/lv_hal/../lv_misc/lv_color.h **** # define LV_COLOR_SET_A(c, v) LV_COLOR_SET_A1(c,v)
 149:..\..\..\lvgl\version_6.1.2\lvgl/src/lv_hal/../lv_misc/lv_color.h **** 
 150:..\..\..\lvgl\version_6.1.2\lvgl/src/lv_hal/../lv_misc/lv_color.h **** # define LV_COLOR_GET_R(c) LV_COLOR_GET_R1(c)
 151:..\..\..\lvgl\version_6.1.2\lvgl/src/lv_hal/../lv_misc/lv_color.h **** # define LV_COLOR_GET_G(c) LV_COLOR_GET_G1(c)
 152:..\..\..\lvgl\version_6.1.2\lvgl/src/lv_hal/../lv_misc/lv_color.h **** # define LV_COLOR_GET_B(c) LV_COLOR_GET_B1(c)
 153:..\..\..\lvgl\version_6.1.2\lvgl/src/lv_hal/../lv_misc/lv_color.h **** # define LV_COLOR_GET_A(c) LV_COLOR_GET_A1(c)
 154:..\..\..\lvgl\version_6.1.2\lvgl/src/lv_hal/../lv_misc/lv_color.h **** 
 155:..\..\..\lvgl\version_6.1.2\lvgl/src/lv_hal/../lv_misc/lv_color.h **** #elif LV_COLOR_DEPTH == 8
 156:..\..\..\lvgl\version_6.1.2\lvgl/src/lv_hal/../lv_misc/lv_color.h **** # define LV_COLOR_SET_R(c, v) LV_COLOR_SET_R8(c,v)
 157:..\..\..\lvgl\version_6.1.2\lvgl/src/lv_hal/../lv_misc/lv_color.h **** # define LV_COLOR_SET_G(c, v) LV_COLOR_SET_G8(c,v)
 158:..\..\..\lvgl\version_6.1.2\lvgl/src/lv_hal/../lv_misc/lv_color.h **** # define LV_COLOR_SET_B(c, v) LV_COLOR_SET_B8(c,v)
 159:..\..\..\lvgl\version_6.1.2\lvgl/src/lv_hal/../lv_misc/lv_color.h **** # define LV_COLOR_SET_A(c, v) LV_COLOR_SET_A8(c,v)
 160:..\..\..\lvgl\version_6.1.2\lvgl/src/lv_hal/../lv_misc/lv_color.h **** 
 161:..\..\..\lvgl\version_6.1.2\lvgl/src/lv_hal/../lv_misc/lv_color.h **** # define LV_COLOR_GET_R(c) LV_COLOR_GET_R8(c)
 162:..\..\..\lvgl\version_6.1.2\lvgl/src/lv_hal/../lv_misc/lv_color.h **** # define LV_COLOR_GET_G(c) LV_COLOR_GET_G8(c)
 163:..\..\..\lvgl\version_6.1.2\lvgl/src/lv_hal/../lv_misc/lv_color.h **** # define LV_COLOR_GET_B(c) LV_COLOR_GET_B8(c)
 164:..\..\..\lvgl\version_6.1.2\lvgl/src/lv_hal/../lv_misc/lv_color.h **** # define LV_COLOR_GET_A(c) LV_COLOR_GET_A8(c)
 165:..\..\..\lvgl\version_6.1.2\lvgl/src/lv_hal/../lv_misc/lv_color.h **** 
 166:..\..\..\lvgl\version_6.1.2\lvgl/src/lv_hal/../lv_misc/lv_color.h **** #elif LV_COLOR_DEPTH == 16
 167:..\..\..\lvgl\version_6.1.2\lvgl/src/lv_hal/../lv_misc/lv_color.h **** # define LV_COLOR_SET_R(c, v) LV_COLOR_SET_R16(c,v)
 168:..\..\..\lvgl\version_6.1.2\lvgl/src/lv_hal/../lv_misc/lv_color.h **** # if LV_COLOR_16_SWAP == 0
 169:..\..\..\lvgl\version_6.1.2\lvgl/src/lv_hal/../lv_misc/lv_color.h **** #   define LV_COLOR_SET_G(c, v) LV_COLOR_SET_G16(c,v)
 170:..\..\..\lvgl\version_6.1.2\lvgl/src/lv_hal/../lv_misc/lv_color.h **** # else
 171:..\..\..\lvgl\version_6.1.2\lvgl/src/lv_hal/../lv_misc/lv_color.h **** #   define LV_COLOR_SET_G(c, v) LV_COLOR_SET_G16_SWAP(c,v)
 172:..\..\..\lvgl\version_6.1.2\lvgl/src/lv_hal/../lv_misc/lv_color.h **** # endif
 173:..\..\..\lvgl\version_6.1.2\lvgl/src/lv_hal/../lv_misc/lv_color.h **** # define LV_COLOR_SET_B(c, v) LV_COLOR_SET_B16(c,v)
 174:..\..\..\lvgl\version_6.1.2\lvgl/src/lv_hal/../lv_misc/lv_color.h **** # define LV_COLOR_SET_A(c, v) LV_COLOR_SET_A16(c,v)
 175:..\..\..\lvgl\version_6.1.2\lvgl/src/lv_hal/../lv_misc/lv_color.h **** 
 176:..\..\..\lvgl\version_6.1.2\lvgl/src/lv_hal/../lv_misc/lv_color.h **** # define LV_COLOR_GET_R(c) LV_COLOR_GET_R16(c)
 177:..\..\..\lvgl\version_6.1.2\lvgl/src/lv_hal/../lv_misc/lv_color.h **** # if LV_COLOR_16_SWAP == 0
 178:..\..\..\lvgl\version_6.1.2\lvgl/src/lv_hal/../lv_misc/lv_color.h **** #   define LV_COLOR_GET_G(c) LV_COLOR_GET_G16(c)
 179:..\..\..\lvgl\version_6.1.2\lvgl/src/lv_hal/../lv_misc/lv_color.h **** # else
 180:..\..\..\lvgl\version_6.1.2\lvgl/src/lv_hal/../lv_misc/lv_color.h **** #   define LV_COLOR_GET_G(c) LV_COLOR_GET_G16_SWAP(c)
 181:..\..\..\lvgl\version_6.1.2\lvgl/src/lv_hal/../lv_misc/lv_color.h **** # endif
 182:..\..\..\lvgl\version_6.1.2\lvgl/src/lv_hal/../lv_misc/lv_color.h **** # define LV_COLOR_GET_B(c)   LV_COLOR_GET_B16(c)
 183:..\..\..\lvgl\version_6.1.2\lvgl/src/lv_hal/../lv_misc/lv_color.h **** # define LV_COLOR_GET_A(c)   LV_COLOR_GET_A16(c)
 184:..\..\..\lvgl\version_6.1.2\lvgl/src/lv_hal/../lv_misc/lv_color.h **** 
 185:..\..\..\lvgl\version_6.1.2\lvgl/src/lv_hal/../lv_misc/lv_color.h **** #elif LV_COLOR_DEPTH == 32
 186:..\..\..\lvgl\version_6.1.2\lvgl/src/lv_hal/../lv_misc/lv_color.h **** # define LV_COLOR_SET_R(c, v) LV_COLOR_SET_R32(c,v)
 187:..\..\..\lvgl\version_6.1.2\lvgl/src/lv_hal/../lv_misc/lv_color.h **** # define LV_COLOR_SET_G(c, v) LV_COLOR_SET_G32(c,v)
 188:..\..\..\lvgl\version_6.1.2\lvgl/src/lv_hal/../lv_misc/lv_color.h **** # define LV_COLOR_SET_B(c, v) LV_COLOR_SET_B32(c,v)
 189:..\..\..\lvgl\version_6.1.2\lvgl/src/lv_hal/../lv_misc/lv_color.h **** # define LV_COLOR_SET_A(c, v) LV_COLOR_SET_A32(c,v)
 190:..\..\..\lvgl\version_6.1.2\lvgl/src/lv_hal/../lv_misc/lv_color.h **** 
 191:..\..\..\lvgl\version_6.1.2\lvgl/src/lv_hal/../lv_misc/lv_color.h **** # define LV_COLOR_GET_R(c) LV_COLOR_GET_R32(c)
 192:..\..\..\lvgl\version_6.1.2\lvgl/src/lv_hal/../lv_misc/lv_color.h **** # define LV_COLOR_GET_G(c) LV_COLOR_GET_G32(c)
 193:..\..\..\lvgl\version_6.1.2\lvgl/src/lv_hal/../lv_misc/lv_color.h **** # define LV_COLOR_GET_B(c) LV_COLOR_GET_B32(c)
 194:..\..\..\lvgl\version_6.1.2\lvgl/src/lv_hal/../lv_misc/lv_color.h **** # define LV_COLOR_GET_A(c) LV_COLOR_GET_A32(c)
 195:..\..\..\lvgl\version_6.1.2\lvgl/src/lv_hal/../lv_misc/lv_color.h **** #endif
 196:..\..\..\lvgl\version_6.1.2\lvgl/src/lv_hal/../lv_misc/lv_color.h **** 
 197:..\..\..\lvgl\version_6.1.2\lvgl/src/lv_hal/../lv_misc/lv_color.h **** /**********************
 198:..\..\..\lvgl\version_6.1.2\lvgl/src/lv_hal/../lv_misc/lv_color.h ****  *      TYPEDEFS
 199:..\..\..\lvgl\version_6.1.2\lvgl/src/lv_hal/../lv_misc/lv_color.h ****  **********************/
 200:..\..\..\lvgl\version_6.1.2\lvgl/src/lv_hal/../lv_misc/lv_color.h **** 
ARM GAS  C:\Users\tmj32\AppData\Local\Temp\cc8xedyG.s 			page 5


 201:..\..\..\lvgl\version_6.1.2\lvgl/src/lv_hal/../lv_misc/lv_color.h **** typedef union
 202:..\..\..\lvgl\version_6.1.2\lvgl/src/lv_hal/../lv_misc/lv_color.h **** {
 203:..\..\..\lvgl\version_6.1.2\lvgl/src/lv_hal/../lv_misc/lv_color.h ****     struct
 204:..\..\..\lvgl\version_6.1.2\lvgl/src/lv_hal/../lv_misc/lv_color.h ****     {
 205:..\..\..\lvgl\version_6.1.2\lvgl/src/lv_hal/../lv_misc/lv_color.h ****         uint8_t blue : 1;
 206:..\..\..\lvgl\version_6.1.2\lvgl/src/lv_hal/../lv_misc/lv_color.h ****         uint8_t green : 1;
 207:..\..\..\lvgl\version_6.1.2\lvgl/src/lv_hal/../lv_misc/lv_color.h ****         uint8_t red : 1;
 208:..\..\..\lvgl\version_6.1.2\lvgl/src/lv_hal/../lv_misc/lv_color.h ****     } ch;
 209:..\..\..\lvgl\version_6.1.2\lvgl/src/lv_hal/../lv_misc/lv_color.h ****     uint8_t full;
 210:..\..\..\lvgl\version_6.1.2\lvgl/src/lv_hal/../lv_misc/lv_color.h **** } lv_color1_t;
 211:..\..\..\lvgl\version_6.1.2\lvgl/src/lv_hal/../lv_misc/lv_color.h **** 
 212:..\..\..\lvgl\version_6.1.2\lvgl/src/lv_hal/../lv_misc/lv_color.h **** typedef union
 213:..\..\..\lvgl\version_6.1.2\lvgl/src/lv_hal/../lv_misc/lv_color.h **** {
 214:..\..\..\lvgl\version_6.1.2\lvgl/src/lv_hal/../lv_misc/lv_color.h ****     struct
 215:..\..\..\lvgl\version_6.1.2\lvgl/src/lv_hal/../lv_misc/lv_color.h ****     {
 216:..\..\..\lvgl\version_6.1.2\lvgl/src/lv_hal/../lv_misc/lv_color.h ****         uint8_t blue : 2;
 217:..\..\..\lvgl\version_6.1.2\lvgl/src/lv_hal/../lv_misc/lv_color.h ****         uint8_t green : 3;
 218:..\..\..\lvgl\version_6.1.2\lvgl/src/lv_hal/../lv_misc/lv_color.h ****         uint8_t red : 3;
 219:..\..\..\lvgl\version_6.1.2\lvgl/src/lv_hal/../lv_misc/lv_color.h ****     } ch;
 220:..\..\..\lvgl\version_6.1.2\lvgl/src/lv_hal/../lv_misc/lv_color.h ****     uint8_t full;
 221:..\..\..\lvgl\version_6.1.2\lvgl/src/lv_hal/../lv_misc/lv_color.h **** } lv_color8_t;
 222:..\..\..\lvgl\version_6.1.2\lvgl/src/lv_hal/../lv_misc/lv_color.h **** 
 223:..\..\..\lvgl\version_6.1.2\lvgl/src/lv_hal/../lv_misc/lv_color.h **** typedef union
 224:..\..\..\lvgl\version_6.1.2\lvgl/src/lv_hal/../lv_misc/lv_color.h **** {
 225:..\..\..\lvgl\version_6.1.2\lvgl/src/lv_hal/../lv_misc/lv_color.h ****     struct
 226:..\..\..\lvgl\version_6.1.2\lvgl/src/lv_hal/../lv_misc/lv_color.h ****     {
 227:..\..\..\lvgl\version_6.1.2\lvgl/src/lv_hal/../lv_misc/lv_color.h **** #if LV_COLOR_16_SWAP == 0
 228:..\..\..\lvgl\version_6.1.2\lvgl/src/lv_hal/../lv_misc/lv_color.h ****         uint16_t blue : 5;
 229:..\..\..\lvgl\version_6.1.2\lvgl/src/lv_hal/../lv_misc/lv_color.h ****         uint16_t green : 6;
 230:..\..\..\lvgl\version_6.1.2\lvgl/src/lv_hal/../lv_misc/lv_color.h ****         uint16_t red : 5;
 231:..\..\..\lvgl\version_6.1.2\lvgl/src/lv_hal/../lv_misc/lv_color.h **** #else
 232:..\..\..\lvgl\version_6.1.2\lvgl/src/lv_hal/../lv_misc/lv_color.h ****         uint16_t green_h : 3;
 233:..\..\..\lvgl\version_6.1.2\lvgl/src/lv_hal/../lv_misc/lv_color.h ****         uint16_t red : 5;
 234:..\..\..\lvgl\version_6.1.2\lvgl/src/lv_hal/../lv_misc/lv_color.h ****         uint16_t blue : 5;
 235:..\..\..\lvgl\version_6.1.2\lvgl/src/lv_hal/../lv_misc/lv_color.h ****         uint16_t green_l : 3;
 236:..\..\..\lvgl\version_6.1.2\lvgl/src/lv_hal/../lv_misc/lv_color.h **** #endif
 237:..\..\..\lvgl\version_6.1.2\lvgl/src/lv_hal/../lv_misc/lv_color.h ****     } ch;
 238:..\..\..\lvgl\version_6.1.2\lvgl/src/lv_hal/../lv_misc/lv_color.h ****     uint16_t full;
 239:..\..\..\lvgl\version_6.1.2\lvgl/src/lv_hal/../lv_misc/lv_color.h **** } lv_color16_t;
 240:..\..\..\lvgl\version_6.1.2\lvgl/src/lv_hal/../lv_misc/lv_color.h **** 
 241:..\..\..\lvgl\version_6.1.2\lvgl/src/lv_hal/../lv_misc/lv_color.h **** typedef union
 242:..\..\..\lvgl\version_6.1.2\lvgl/src/lv_hal/../lv_misc/lv_color.h **** {
 243:..\..\..\lvgl\version_6.1.2\lvgl/src/lv_hal/../lv_misc/lv_color.h ****     struct
 244:..\..\..\lvgl\version_6.1.2\lvgl/src/lv_hal/../lv_misc/lv_color.h ****     {
 245:..\..\..\lvgl\version_6.1.2\lvgl/src/lv_hal/../lv_misc/lv_color.h ****         uint8_t blue;
 246:..\..\..\lvgl\version_6.1.2\lvgl/src/lv_hal/../lv_misc/lv_color.h ****         uint8_t green;
 247:..\..\..\lvgl\version_6.1.2\lvgl/src/lv_hal/../lv_misc/lv_color.h ****         uint8_t red;
 248:..\..\..\lvgl\version_6.1.2\lvgl/src/lv_hal/../lv_misc/lv_color.h ****         uint8_t alpha;
 249:..\..\..\lvgl\version_6.1.2\lvgl/src/lv_hal/../lv_misc/lv_color.h ****     } ch;
 250:..\..\..\lvgl\version_6.1.2\lvgl/src/lv_hal/../lv_misc/lv_color.h ****     uint32_t full;
 251:..\..\..\lvgl\version_6.1.2\lvgl/src/lv_hal/../lv_misc/lv_color.h **** } lv_color32_t;
 252:..\..\..\lvgl\version_6.1.2\lvgl/src/lv_hal/../lv_misc/lv_color.h **** 
 253:..\..\..\lvgl\version_6.1.2\lvgl/src/lv_hal/../lv_misc/lv_color.h **** #if LV_COLOR_DEPTH == 1
 254:..\..\..\lvgl\version_6.1.2\lvgl/src/lv_hal/../lv_misc/lv_color.h **** typedef uint8_t lv_color_int_t;
 255:..\..\..\lvgl\version_6.1.2\lvgl/src/lv_hal/../lv_misc/lv_color.h **** typedef lv_color1_t lv_color_t;
 256:..\..\..\lvgl\version_6.1.2\lvgl/src/lv_hal/../lv_misc/lv_color.h **** #elif LV_COLOR_DEPTH == 8
 257:..\..\..\lvgl\version_6.1.2\lvgl/src/lv_hal/../lv_misc/lv_color.h **** typedef uint8_t lv_color_int_t;
ARM GAS  C:\Users\tmj32\AppData\Local\Temp\cc8xedyG.s 			page 6


 258:..\..\..\lvgl\version_6.1.2\lvgl/src/lv_hal/../lv_misc/lv_color.h **** typedef lv_color8_t lv_color_t;
 259:..\..\..\lvgl\version_6.1.2\lvgl/src/lv_hal/../lv_misc/lv_color.h **** #elif LV_COLOR_DEPTH == 16
 260:..\..\..\lvgl\version_6.1.2\lvgl/src/lv_hal/../lv_misc/lv_color.h **** typedef uint16_t lv_color_int_t;
 261:..\..\..\lvgl\version_6.1.2\lvgl/src/lv_hal/../lv_misc/lv_color.h **** typedef lv_color16_t lv_color_t;
 262:..\..\..\lvgl\version_6.1.2\lvgl/src/lv_hal/../lv_misc/lv_color.h **** #elif LV_COLOR_DEPTH == 32
 263:..\..\..\lvgl\version_6.1.2\lvgl/src/lv_hal/../lv_misc/lv_color.h **** typedef uint32_t lv_color_int_t;
 264:..\..\..\lvgl\version_6.1.2\lvgl/src/lv_hal/../lv_misc/lv_color.h **** typedef lv_color32_t lv_color_t;
 265:..\..\..\lvgl\version_6.1.2\lvgl/src/lv_hal/../lv_misc/lv_color.h **** #else
 266:..\..\..\lvgl\version_6.1.2\lvgl/src/lv_hal/../lv_misc/lv_color.h **** #error "Invalid LV_COLOR_DEPTH in lv_conf.h! Set it to 1, 8, 16 or 32!"
 267:..\..\..\lvgl\version_6.1.2\lvgl/src/lv_hal/../lv_misc/lv_color.h **** #endif
 268:..\..\..\lvgl\version_6.1.2\lvgl/src/lv_hal/../lv_misc/lv_color.h **** 
 269:..\..\..\lvgl\version_6.1.2\lvgl/src/lv_hal/../lv_misc/lv_color.h **** typedef uint8_t lv_opa_t;
 270:..\..\..\lvgl\version_6.1.2\lvgl/src/lv_hal/../lv_misc/lv_color.h **** 
 271:..\..\..\lvgl\version_6.1.2\lvgl/src/lv_hal/../lv_misc/lv_color.h **** typedef struct
 272:..\..\..\lvgl\version_6.1.2\lvgl/src/lv_hal/../lv_misc/lv_color.h **** {
 273:..\..\..\lvgl\version_6.1.2\lvgl/src/lv_hal/../lv_misc/lv_color.h ****     uint16_t h;
 274:..\..\..\lvgl\version_6.1.2\lvgl/src/lv_hal/../lv_misc/lv_color.h ****     uint8_t s;
 275:..\..\..\lvgl\version_6.1.2\lvgl/src/lv_hal/../lv_misc/lv_color.h ****     uint8_t v;
 276:..\..\..\lvgl\version_6.1.2\lvgl/src/lv_hal/../lv_misc/lv_color.h **** } lv_color_hsv_t;
 277:..\..\..\lvgl\version_6.1.2\lvgl/src/lv_hal/../lv_misc/lv_color.h **** 
 278:..\..\..\lvgl\version_6.1.2\lvgl/src/lv_hal/../lv_misc/lv_color.h **** /**********************
 279:..\..\..\lvgl\version_6.1.2\lvgl/src/lv_hal/../lv_misc/lv_color.h ****  * GLOBAL PROTOTYPES
 280:..\..\..\lvgl\version_6.1.2\lvgl/src/lv_hal/../lv_misc/lv_color.h ****  **********************/
 281:..\..\..\lvgl\version_6.1.2\lvgl/src/lv_hal/../lv_misc/lv_color.h **** 
 282:..\..\..\lvgl\version_6.1.2\lvgl/src/lv_hal/../lv_misc/lv_color.h **** /*In color conversations:
 283:..\..\..\lvgl\version_6.1.2\lvgl/src/lv_hal/../lv_misc/lv_color.h ****  * - When converting to bigger color type the LSB weight of 1 LSB is calculated
 284:..\..\..\lvgl\version_6.1.2\lvgl/src/lv_hal/../lv_misc/lv_color.h ****  *   E.g. 16 bit Red has 5 bits
 285:..\..\..\lvgl\version_6.1.2\lvgl/src/lv_hal/../lv_misc/lv_color.h ****  *         8 bit Red has 2 bits
 286:..\..\..\lvgl\version_6.1.2\lvgl/src/lv_hal/../lv_misc/lv_color.h ****  *        ----------------------
 287:..\..\..\lvgl\version_6.1.2\lvgl/src/lv_hal/../lv_misc/lv_color.h ****  *        8 bit red LSB = (2^5 - 1) / (2^2 - 1) = 31 / 3 = 10
 288:..\..\..\lvgl\version_6.1.2\lvgl/src/lv_hal/../lv_misc/lv_color.h ****  *
 289:..\..\..\lvgl\version_6.1.2\lvgl/src/lv_hal/../lv_misc/lv_color.h ****  * - When calculating to smaller color type simply shift out the LSBs
 290:..\..\..\lvgl\version_6.1.2\lvgl/src/lv_hal/../lv_misc/lv_color.h ****  *   E.g.  8 bit Red has 2 bits
 291:..\..\..\lvgl\version_6.1.2\lvgl/src/lv_hal/../lv_misc/lv_color.h ****  *        16 bit Red has 5 bits
 292:..\..\..\lvgl\version_6.1.2\lvgl/src/lv_hal/../lv_misc/lv_color.h ****  *        ----------------------
 293:..\..\..\lvgl\version_6.1.2\lvgl/src/lv_hal/../lv_misc/lv_color.h ****  *         Shift right with 5 - 3 = 2
 294:..\..\..\lvgl\version_6.1.2\lvgl/src/lv_hal/../lv_misc/lv_color.h ****  */
 295:..\..\..\lvgl\version_6.1.2\lvgl/src/lv_hal/../lv_misc/lv_color.h **** 
 296:..\..\..\lvgl\version_6.1.2\lvgl/src/lv_hal/../lv_misc/lv_color.h **** static inline uint8_t lv_color_to1(lv_color_t color)
 297:..\..\..\lvgl\version_6.1.2\lvgl/src/lv_hal/../lv_misc/lv_color.h **** {
 298:..\..\..\lvgl\version_6.1.2\lvgl/src/lv_hal/../lv_misc/lv_color.h **** #if LV_COLOR_DEPTH == 1
 299:..\..\..\lvgl\version_6.1.2\lvgl/src/lv_hal/../lv_misc/lv_color.h ****     return color.full;
 300:..\..\..\lvgl\version_6.1.2\lvgl/src/lv_hal/../lv_misc/lv_color.h **** #elif LV_COLOR_DEPTH == 8
 301:..\..\..\lvgl\version_6.1.2\lvgl/src/lv_hal/../lv_misc/lv_color.h ****     if((LV_COLOR_GET_R(color) & 0x4) || (LV_COLOR_GET_G(color) & 0x4) || (LV_COLOR_GET_B(color) & 0
 302:..\..\..\lvgl\version_6.1.2\lvgl/src/lv_hal/../lv_misc/lv_color.h ****         return 1;
 303:..\..\..\lvgl\version_6.1.2\lvgl/src/lv_hal/../lv_misc/lv_color.h ****     } else {
 304:..\..\..\lvgl\version_6.1.2\lvgl/src/lv_hal/../lv_misc/lv_color.h ****         return 0;
 305:..\..\..\lvgl\version_6.1.2\lvgl/src/lv_hal/../lv_misc/lv_color.h ****     }
 306:..\..\..\lvgl\version_6.1.2\lvgl/src/lv_hal/../lv_misc/lv_color.h **** #elif LV_COLOR_DEPTH == 16
 307:..\..\..\lvgl\version_6.1.2\lvgl/src/lv_hal/../lv_misc/lv_color.h ****     if((LV_COLOR_GET_R(color) & 0x10) || (LV_COLOR_GET_G(color) & 0x20) || (LV_COLOR_GET_B(color) &
 308:..\..\..\lvgl\version_6.1.2\lvgl/src/lv_hal/../lv_misc/lv_color.h ****         return 1;
 309:..\..\..\lvgl\version_6.1.2\lvgl/src/lv_hal/../lv_misc/lv_color.h ****     } else {
 310:..\..\..\lvgl\version_6.1.2\lvgl/src/lv_hal/../lv_misc/lv_color.h ****         return 0;
 311:..\..\..\lvgl\version_6.1.2\lvgl/src/lv_hal/../lv_misc/lv_color.h ****     }
 312:..\..\..\lvgl\version_6.1.2\lvgl/src/lv_hal/../lv_misc/lv_color.h **** #elif LV_COLOR_DEPTH == 32
 313:..\..\..\lvgl\version_6.1.2\lvgl/src/lv_hal/../lv_misc/lv_color.h ****     if((LV_COLOR_GET_R(color) & 0x80) || (LV_COLOR_GET_G(color) & 0x80) || (LV_COLOR_GET_B(color) &
 314:..\..\..\lvgl\version_6.1.2\lvgl/src/lv_hal/../lv_misc/lv_color.h ****         return 1;
ARM GAS  C:\Users\tmj32\AppData\Local\Temp\cc8xedyG.s 			page 7


 315:..\..\..\lvgl\version_6.1.2\lvgl/src/lv_hal/../lv_misc/lv_color.h ****     } else {
 316:..\..\..\lvgl\version_6.1.2\lvgl/src/lv_hal/../lv_misc/lv_color.h ****         return 0;
 317:..\..\..\lvgl\version_6.1.2\lvgl/src/lv_hal/../lv_misc/lv_color.h ****     }
 318:..\..\..\lvgl\version_6.1.2\lvgl/src/lv_hal/../lv_misc/lv_color.h **** #endif
 319:..\..\..\lvgl\version_6.1.2\lvgl/src/lv_hal/../lv_misc/lv_color.h **** }
 320:..\..\..\lvgl\version_6.1.2\lvgl/src/lv_hal/../lv_misc/lv_color.h **** 
 321:..\..\..\lvgl\version_6.1.2\lvgl/src/lv_hal/../lv_misc/lv_color.h **** static inline uint8_t lv_color_to8(lv_color_t color)
 322:..\..\..\lvgl\version_6.1.2\lvgl/src/lv_hal/../lv_misc/lv_color.h **** {
 323:..\..\..\lvgl\version_6.1.2\lvgl/src/lv_hal/../lv_misc/lv_color.h **** #if LV_COLOR_DEPTH == 1
 324:..\..\..\lvgl\version_6.1.2\lvgl/src/lv_hal/../lv_misc/lv_color.h ****     if(color.full == 0)
 325:..\..\..\lvgl\version_6.1.2\lvgl/src/lv_hal/../lv_misc/lv_color.h ****         return 0;
 326:..\..\..\lvgl\version_6.1.2\lvgl/src/lv_hal/../lv_misc/lv_color.h ****     else
 327:..\..\..\lvgl\version_6.1.2\lvgl/src/lv_hal/../lv_misc/lv_color.h ****         return 0xFF;
 328:..\..\..\lvgl\version_6.1.2\lvgl/src/lv_hal/../lv_misc/lv_color.h **** #elif LV_COLOR_DEPTH == 8
 329:..\..\..\lvgl\version_6.1.2\lvgl/src/lv_hal/../lv_misc/lv_color.h ****     return color.full;
 330:..\..\..\lvgl\version_6.1.2\lvgl/src/lv_hal/../lv_misc/lv_color.h **** #elif LV_COLOR_DEPTH == 16
 331:..\..\..\lvgl\version_6.1.2\lvgl/src/lv_hal/../lv_misc/lv_color.h ****     lv_color8_t ret;
 332:..\..\..\lvgl\version_6.1.2\lvgl/src/lv_hal/../lv_misc/lv_color.h ****     LV_COLOR_SET_R8(ret, LV_COLOR_GET_R(color) >> 2);   /* 5 - 3  = 2*/
 333:..\..\..\lvgl\version_6.1.2\lvgl/src/lv_hal/../lv_misc/lv_color.h ****     LV_COLOR_SET_G8(ret, LV_COLOR_GET_G(color) >> 3); /* 6 - 3  = 3*/
 334:..\..\..\lvgl\version_6.1.2\lvgl/src/lv_hal/../lv_misc/lv_color.h ****     LV_COLOR_SET_B8(ret, LV_COLOR_GET_B(color) >> 3);  /* 5 - 2  = 3*/
 335:..\..\..\lvgl\version_6.1.2\lvgl/src/lv_hal/../lv_misc/lv_color.h ****     return ret.full;
 336:..\..\..\lvgl\version_6.1.2\lvgl/src/lv_hal/../lv_misc/lv_color.h **** #elif LV_COLOR_DEPTH == 32
 337:..\..\..\lvgl\version_6.1.2\lvgl/src/lv_hal/../lv_misc/lv_color.h ****     lv_color8_t ret;
 338:..\..\..\lvgl\version_6.1.2\lvgl/src/lv_hal/../lv_misc/lv_color.h ****     LV_COLOR_SET_R8(ret, LV_COLOR_GET_R(color) >> 5);   /* 8 - 3  = 5*/
 339:..\..\..\lvgl\version_6.1.2\lvgl/src/lv_hal/../lv_misc/lv_color.h ****     LV_COLOR_SET_G8(ret, LV_COLOR_GET_G(color) >> 5); /* 8 - 3  = 5*/
 340:..\..\..\lvgl\version_6.1.2\lvgl/src/lv_hal/../lv_misc/lv_color.h ****     LV_COLOR_SET_B8(ret, LV_COLOR_GET_B(color) >> 6);  /* 8 - 2  = 6*/
 341:..\..\..\lvgl\version_6.1.2\lvgl/src/lv_hal/../lv_misc/lv_color.h ****     return ret.full;
 342:..\..\..\lvgl\version_6.1.2\lvgl/src/lv_hal/../lv_misc/lv_color.h **** #endif
 343:..\..\..\lvgl\version_6.1.2\lvgl/src/lv_hal/../lv_misc/lv_color.h **** }
 344:..\..\..\lvgl\version_6.1.2\lvgl/src/lv_hal/../lv_misc/lv_color.h **** 
 345:..\..\..\lvgl\version_6.1.2\lvgl/src/lv_hal/../lv_misc/lv_color.h **** static inline uint16_t lv_color_to16(lv_color_t color)
 346:..\..\..\lvgl\version_6.1.2\lvgl/src/lv_hal/../lv_misc/lv_color.h **** {
 347:..\..\..\lvgl\version_6.1.2\lvgl/src/lv_hal/../lv_misc/lv_color.h **** #if LV_COLOR_DEPTH == 1
 348:..\..\..\lvgl\version_6.1.2\lvgl/src/lv_hal/../lv_misc/lv_color.h ****     if(color.full == 0)
 349:..\..\..\lvgl\version_6.1.2\lvgl/src/lv_hal/../lv_misc/lv_color.h ****         return 0;
 350:..\..\..\lvgl\version_6.1.2\lvgl/src/lv_hal/../lv_misc/lv_color.h ****     else
 351:..\..\..\lvgl\version_6.1.2\lvgl/src/lv_hal/../lv_misc/lv_color.h ****         return 0xFFFF;
 352:..\..\..\lvgl\version_6.1.2\lvgl/src/lv_hal/../lv_misc/lv_color.h **** #elif LV_COLOR_DEPTH == 8
 353:..\..\..\lvgl\version_6.1.2\lvgl/src/lv_hal/../lv_misc/lv_color.h ****     lv_color16_t ret;
 354:..\..\..\lvgl\version_6.1.2\lvgl/src/lv_hal/../lv_misc/lv_color.h ****     LV_COLOR_SET_R16(ret, LV_COLOR_GET_R(color) * 4);     /*(2^5 - 1)/(2^3 - 1) = 31/7 = 4*/
 355:..\..\..\lvgl\version_6.1.2\lvgl/src/lv_hal/../lv_misc/lv_color.h **** #if LV_COLOR_16_SWAP == 0
 356:..\..\..\lvgl\version_6.1.2\lvgl/src/lv_hal/../lv_misc/lv_color.h ****     LV_COLOR_SET_G16(ret,  LV_COLOR_GET_G(color) * 9); /*(2^6 - 1)/(2^3 - 1) = 63/7 = 9*/
 357:..\..\..\lvgl\version_6.1.2\lvgl/src/lv_hal/../lv_misc/lv_color.h **** #else
 358:..\..\..\lvgl\version_6.1.2\lvgl/src/lv_hal/../lv_misc/lv_color.h ****     LV_COLOR_SET_G16_SWAP(ret, (LV_COLOR_GET_G(color) * 9)); /*(2^6 - 1)/(2^3 - 1) = 63/7 = 9*/
 359:..\..\..\lvgl\version_6.1.2\lvgl/src/lv_hal/../lv_misc/lv_color.h **** #endif
 360:..\..\..\lvgl\version_6.1.2\lvgl/src/lv_hal/../lv_misc/lv_color.h ****     LV_COLOR_SET_B16(ret, LV_COLOR_GET_B(color) * 10);  /*(2^5 - 1)/(2^2 - 1) = 31/3 = 10*/
 361:..\..\..\lvgl\version_6.1.2\lvgl/src/lv_hal/../lv_misc/lv_color.h ****     return ret.full;
 362:..\..\..\lvgl\version_6.1.2\lvgl/src/lv_hal/../lv_misc/lv_color.h **** #elif LV_COLOR_DEPTH == 16
 363:..\..\..\lvgl\version_6.1.2\lvgl/src/lv_hal/../lv_misc/lv_color.h ****     return color.full;
 364:..\..\..\lvgl\version_6.1.2\lvgl/src/lv_hal/../lv_misc/lv_color.h **** #elif LV_COLOR_DEPTH == 32
 365:..\..\..\lvgl\version_6.1.2\lvgl/src/lv_hal/../lv_misc/lv_color.h ****     lv_color16_t ret;
 366:..\..\..\lvgl\version_6.1.2\lvgl/src/lv_hal/../lv_misc/lv_color.h ****     LV_COLOR_SET_R16(ret, LV_COLOR_GET_R(color) >> 3);   /* 8 - 5  = 3*/
 367:..\..\..\lvgl\version_6.1.2\lvgl/src/lv_hal/../lv_misc/lv_color.h **** 
 368:..\..\..\lvgl\version_6.1.2\lvgl/src/lv_hal/../lv_misc/lv_color.h **** #if LV_COLOR_16_SWAP == 0
 369:..\..\..\lvgl\version_6.1.2\lvgl/src/lv_hal/../lv_misc/lv_color.h ****     LV_COLOR_SET_G16(ret, LV_COLOR_GET_G(color) >> 2); /* 8 - 6  = 2*/
 370:..\..\..\lvgl\version_6.1.2\lvgl/src/lv_hal/../lv_misc/lv_color.h **** #else
 371:..\..\..\lvgl\version_6.1.2\lvgl/src/lv_hal/../lv_misc/lv_color.h ****     LV_COLOR_SET_G16_SWAP(ret, ret.ch.green_h = (LV_COLOR_GET_G(color) >> 2); /*(2^6 - 1)/(2^3 - 1)
ARM GAS  C:\Users\tmj32\AppData\Local\Temp\cc8xedyG.s 			page 8


 372:..\..\..\lvgl\version_6.1.2\lvgl/src/lv_hal/../lv_misc/lv_color.h **** #endif
 373:..\..\..\lvgl\version_6.1.2\lvgl/src/lv_hal/../lv_misc/lv_color.h ****     LV_COLOR_SET_B16(ret, LV_COLOR_GET_B(color) >> 3);  /* 8 - 5  = 3*/
 374:..\..\..\lvgl\version_6.1.2\lvgl/src/lv_hal/../lv_misc/lv_color.h ****     return ret.full;
 375:..\..\..\lvgl\version_6.1.2\lvgl/src/lv_hal/../lv_misc/lv_color.h **** #endif                         
 376:..\..\..\lvgl\version_6.1.2\lvgl/src/lv_hal/../lv_misc/lv_color.h **** }
 377:..\..\..\lvgl\version_6.1.2\lvgl/src/lv_hal/../lv_misc/lv_color.h **** 
 378:..\..\..\lvgl\version_6.1.2\lvgl/src/lv_hal/../lv_misc/lv_color.h **** static inline uint32_t lv_color_to32(lv_color_t color)
 379:..\..\..\lvgl\version_6.1.2\lvgl/src/lv_hal/../lv_misc/lv_color.h **** {
 380:..\..\..\lvgl\version_6.1.2\lvgl/src/lv_hal/../lv_misc/lv_color.h **** #if LV_COLOR_DEPTH == 1
 381:..\..\..\lvgl\version_6.1.2\lvgl/src/lv_hal/../lv_misc/lv_color.h ****     if(color.full == 0)
 382:..\..\..\lvgl\version_6.1.2\lvgl/src/lv_hal/../lv_misc/lv_color.h ****         return 0;
 383:..\..\..\lvgl\version_6.1.2\lvgl/src/lv_hal/../lv_misc/lv_color.h ****     else
 384:..\..\..\lvgl\version_6.1.2\lvgl/src/lv_hal/../lv_misc/lv_color.h ****         return 0xFFFFFFFF;
 385:..\..\..\lvgl\version_6.1.2\lvgl/src/lv_hal/../lv_misc/lv_color.h **** #elif LV_COLOR_DEPTH == 8
 386:..\..\..\lvgl\version_6.1.2\lvgl/src/lv_hal/../lv_misc/lv_color.h ****     lv_color32_t ret;
 387:..\..\..\lvgl\version_6.1.2\lvgl/src/lv_hal/../lv_misc/lv_color.h ****     LV_COLOR_SET_R32(ret, LV_COLOR_GET_R(color) * 36);     /*(2^8 - 1)/(2^3 - 1) = 255/7 = 36*/
 388:..\..\..\lvgl\version_6.1.2\lvgl/src/lv_hal/../lv_misc/lv_color.h ****     LV_COLOR_SET_G32(ret, LV_COLOR_GET_G(color) * 36); /*(2^8 - 1)/(2^3 - 1) = 255/7 = 36*/
 389:..\..\..\lvgl\version_6.1.2\lvgl/src/lv_hal/../lv_misc/lv_color.h ****     LV_COLOR_SET_B32(ret, LV_COLOR_GET_B(color) * 85);   /*(2^8 - 1)/(2^2 - 1) = 255/3 = 85*/
 390:..\..\..\lvgl\version_6.1.2\lvgl/src/lv_hal/../lv_misc/lv_color.h ****     LV_COLOR_SET_A32(ret, 0xFF);
 391:..\..\..\lvgl\version_6.1.2\lvgl/src/lv_hal/../lv_misc/lv_color.h ****     return ret.full;
 392:..\..\..\lvgl\version_6.1.2\lvgl/src/lv_hal/../lv_misc/lv_color.h **** #elif LV_COLOR_DEPTH == 16
 393:..\..\..\lvgl\version_6.1.2\lvgl/src/lv_hal/../lv_misc/lv_color.h ****     /**
 394:..\..\..\lvgl\version_6.1.2\lvgl/src/lv_hal/../lv_misc/lv_color.h ****      * The floating point math for conversion is:
 395:..\..\..\lvgl\version_6.1.2\lvgl/src/lv_hal/../lv_misc/lv_color.h ****      *  valueto = valuefrom * ( (2^bitsto - 1) / (float)(2^bitsfrom - 1) )
 396:..\..\..\lvgl\version_6.1.2\lvgl/src/lv_hal/../lv_misc/lv_color.h ****      * The faster integer math for conversion is:
 397:..\..\..\lvgl\version_6.1.2\lvgl/src/lv_hal/../lv_misc/lv_color.h ****      *  valueto = ( valuefrom * multiplier + adder ) >> divisor
 398:..\..\..\lvgl\version_6.1.2\lvgl/src/lv_hal/../lv_misc/lv_color.h ****      *   multiplier = FLOOR( ( (2^bitsto - 1) << divisor ) / (float)(2^bitsfrom - 1) )
 399:..\..\..\lvgl\version_6.1.2\lvgl/src/lv_hal/../lv_misc/lv_color.h ****      * 
 400:..\..\..\lvgl\version_6.1.2\lvgl/src/lv_hal/../lv_misc/lv_color.h ****      * Find the first divisor where ( adder >> divisor ) <= 0
 401:..\..\..\lvgl\version_6.1.2\lvgl/src/lv_hal/../lv_misc/lv_color.h ****      * 
 402:..\..\..\lvgl\version_6.1.2\lvgl/src/lv_hal/../lv_misc/lv_color.h ****      * 5-bit to 8-bit: ( 31 * multiplier + adder ) >> divisor = 255
 403:..\..\..\lvgl\version_6.1.2\lvgl/src/lv_hal/../lv_misc/lv_color.h ****      * divisor  multiplier  adder  min (0)  max (31)
 404:..\..\..\lvgl\version_6.1.2\lvgl/src/lv_hal/../lv_misc/lv_color.h ****      *       0           8      7        7       255
 405:..\..\..\lvgl\version_6.1.2\lvgl/src/lv_hal/../lv_misc/lv_color.h ****      *       1          16     14        7       255
 406:..\..\..\lvgl\version_6.1.2\lvgl/src/lv_hal/../lv_misc/lv_color.h ****      *       2          32     28        7       255
 407:..\..\..\lvgl\version_6.1.2\lvgl/src/lv_hal/../lv_misc/lv_color.h ****      *       3          65     25        3       255
 408:..\..\..\lvgl\version_6.1.2\lvgl/src/lv_hal/../lv_misc/lv_color.h ****      *       4         131     19        1       255
 409:..\..\..\lvgl\version_6.1.2\lvgl/src/lv_hal/../lv_misc/lv_color.h ****      *       5         263      7        0       255
 410:..\..\..\lvgl\version_6.1.2\lvgl/src/lv_hal/../lv_misc/lv_color.h ****      * 
 411:..\..\..\lvgl\version_6.1.2\lvgl/src/lv_hal/../lv_misc/lv_color.h ****      * 6-bit to 8-bit: 255 = ( 63 * multiplier + adder ) >> divisor
 412:..\..\..\lvgl\version_6.1.2\lvgl/src/lv_hal/../lv_misc/lv_color.h ****      * divisor  multiplier  adder  min (0)  max (63)
 413:..\..\..\lvgl\version_6.1.2\lvgl/src/lv_hal/../lv_misc/lv_color.h ****      *       0           4      3        3       255
 414:..\..\..\lvgl\version_6.1.2\lvgl/src/lv_hal/../lv_misc/lv_color.h ****      *       1           8      6        3       255
 415:..\..\..\lvgl\version_6.1.2\lvgl/src/lv_hal/../lv_misc/lv_color.h ****      *       2          16     12        3       255
 416:..\..\..\lvgl\version_6.1.2\lvgl/src/lv_hal/../lv_misc/lv_color.h ****      *       3          32     24        3       255
 417:..\..\..\lvgl\version_6.1.2\lvgl/src/lv_hal/../lv_misc/lv_color.h ****      *       4          64     48        3       255
 418:..\..\..\lvgl\version_6.1.2\lvgl/src/lv_hal/../lv_misc/lv_color.h ****      *       5         129     33        1       255
 419:..\..\..\lvgl\version_6.1.2\lvgl/src/lv_hal/../lv_misc/lv_color.h ****      *       6         259      3        0       255
 420:..\..\..\lvgl\version_6.1.2\lvgl/src/lv_hal/../lv_misc/lv_color.h ****      */
 421:..\..\..\lvgl\version_6.1.2\lvgl/src/lv_hal/../lv_misc/lv_color.h ****     lv_color32_t ret;
 422:..\..\..\lvgl\version_6.1.2\lvgl/src/lv_hal/../lv_misc/lv_color.h ****     LV_COLOR_SET_R32(ret, (LV_COLOR_GET_R(color) * 263 + 7 ) >> 5);
 423:..\..\..\lvgl\version_6.1.2\lvgl/src/lv_hal/../lv_misc/lv_color.h ****     LV_COLOR_SET_G32(ret, (LV_COLOR_GET_G(color) * 259 + 3 ) >> 6);
 424:..\..\..\lvgl\version_6.1.2\lvgl/src/lv_hal/../lv_misc/lv_color.h ****     LV_COLOR_SET_B32(ret, (LV_COLOR_GET_B(color) * 263 + 7 ) >> 5);
 425:..\..\..\lvgl\version_6.1.2\lvgl/src/lv_hal/../lv_misc/lv_color.h ****     LV_COLOR_SET_A32(ret, 0xFF);
 426:..\..\..\lvgl\version_6.1.2\lvgl/src/lv_hal/../lv_misc/lv_color.h ****     return ret.full;
 427:..\..\..\lvgl\version_6.1.2\lvgl/src/lv_hal/../lv_misc/lv_color.h **** #elif LV_COLOR_DEPTH == 32
 428:..\..\..\lvgl\version_6.1.2\lvgl/src/lv_hal/../lv_misc/lv_color.h ****     return color.full;
ARM GAS  C:\Users\tmj32\AppData\Local\Temp\cc8xedyG.s 			page 9


 429:..\..\..\lvgl\version_6.1.2\lvgl/src/lv_hal/../lv_misc/lv_color.h **** #endif
 430:..\..\..\lvgl\version_6.1.2\lvgl/src/lv_hal/../lv_misc/lv_color.h **** }
 431:..\..\..\lvgl\version_6.1.2\lvgl/src/lv_hal/../lv_misc/lv_color.h **** 
 432:..\..\..\lvgl\version_6.1.2\lvgl/src/lv_hal/../lv_misc/lv_color.h **** static inline lv_color_t lv_color_mix(lv_color_t c1, lv_color_t c2, uint8_t mix)
 433:..\..\..\lvgl\version_6.1.2\lvgl/src/lv_hal/../lv_misc/lv_color.h **** {
 434:..\..\..\lvgl\version_6.1.2\lvgl/src/lv_hal/../lv_misc/lv_color.h ****     lv_color_t ret;
 435:..\..\..\lvgl\version_6.1.2\lvgl/src/lv_hal/../lv_misc/lv_color.h **** #if LV_COLOR_DEPTH != 1
 436:..\..\..\lvgl\version_6.1.2\lvgl/src/lv_hal/../lv_misc/lv_color.h ****     /*LV_COLOR_DEPTH == 8, 16 or 32*/
 437:..\..\..\lvgl\version_6.1.2\lvgl/src/lv_hal/../lv_misc/lv_color.h ****     LV_COLOR_SET_R(ret, (uint16_t)((uint16_t) LV_COLOR_GET_R(c1) * mix + LV_COLOR_GET_R(c2) * (255 
 438:..\..\..\lvgl\version_6.1.2\lvgl/src/lv_hal/../lv_misc/lv_color.h ****     LV_COLOR_SET_G(ret, (uint16_t)((uint16_t) LV_COLOR_GET_G(c1) * mix + LV_COLOR_GET_G(c2) * (255 
 439:..\..\..\lvgl\version_6.1.2\lvgl/src/lv_hal/../lv_misc/lv_color.h ****     LV_COLOR_SET_B(ret, (uint16_t)((uint16_t) LV_COLOR_GET_B(c1) * mix + LV_COLOR_GET_B(c2) * (255 
 440:..\..\..\lvgl\version_6.1.2\lvgl/src/lv_hal/../lv_misc/lv_color.h ****     LV_COLOR_SET_A(ret, 0xFF);
 441:..\..\..\lvgl\version_6.1.2\lvgl/src/lv_hal/../lv_misc/lv_color.h **** #else
 442:..\..\..\lvgl\version_6.1.2\lvgl/src/lv_hal/../lv_misc/lv_color.h ****     /*LV_COLOR_DEPTH == 1*/
 443:..\..\..\lvgl\version_6.1.2\lvgl/src/lv_hal/../lv_misc/lv_color.h ****     ret.full = mix > LV_OPA_50 ? c1.full : c2.full;
 444:..\..\..\lvgl\version_6.1.2\lvgl/src/lv_hal/../lv_misc/lv_color.h **** #endif
 445:..\..\..\lvgl\version_6.1.2\lvgl/src/lv_hal/../lv_misc/lv_color.h **** 
 446:..\..\..\lvgl\version_6.1.2\lvgl/src/lv_hal/../lv_misc/lv_color.h ****     return ret;
 447:..\..\..\lvgl\version_6.1.2\lvgl/src/lv_hal/../lv_misc/lv_color.h **** }
 448:..\..\..\lvgl\version_6.1.2\lvgl/src/lv_hal/../lv_misc/lv_color.h **** 
 449:..\..\..\lvgl\version_6.1.2\lvgl/src/lv_hal/../lv_misc/lv_color.h **** /**
 450:..\..\..\lvgl\version_6.1.2\lvgl/src/lv_hal/../lv_misc/lv_color.h ****  * Get the brightness of a color
 451:..\..\..\lvgl\version_6.1.2\lvgl/src/lv_hal/../lv_misc/lv_color.h ****  * @param color a color
 452:..\..\..\lvgl\version_6.1.2\lvgl/src/lv_hal/../lv_misc/lv_color.h ****  * @return the brightness [0..255]
 453:..\..\..\lvgl\version_6.1.2\lvgl/src/lv_hal/../lv_misc/lv_color.h ****  */
 454:..\..\..\lvgl\version_6.1.2\lvgl/src/lv_hal/../lv_misc/lv_color.h **** static inline uint8_t lv_color_brightness(lv_color_t color)
 455:..\..\..\lvgl\version_6.1.2\lvgl/src/lv_hal/../lv_misc/lv_color.h **** {
 456:..\..\..\lvgl\version_6.1.2\lvgl/src/lv_hal/../lv_misc/lv_color.h ****     lv_color32_t c32;
 457:..\..\..\lvgl\version_6.1.2\lvgl/src/lv_hal/../lv_misc/lv_color.h ****     c32.full        = lv_color_to32(color);
 458:..\..\..\lvgl\version_6.1.2\lvgl/src/lv_hal/../lv_misc/lv_color.h ****     uint16_t bright = (uint16_t)(3u * LV_COLOR_GET_R32(c32) + LV_COLOR_GET_B32(c32) + 4u * LV_COLOR
 459:..\..\..\lvgl\version_6.1.2\lvgl/src/lv_hal/../lv_misc/lv_color.h ****     return (uint8_t)(bright >> 3);
 460:..\..\..\lvgl\version_6.1.2\lvgl/src/lv_hal/../lv_misc/lv_color.h **** }
 461:..\..\..\lvgl\version_6.1.2\lvgl/src/lv_hal/../lv_misc/lv_color.h **** 
 462:..\..\..\lvgl\version_6.1.2\lvgl/src/lv_hal/../lv_misc/lv_color.h **** /* The most simple macro to create a color from R,G and B values */
 463:..\..\..\lvgl\version_6.1.2\lvgl/src/lv_hal/../lv_misc/lv_color.h **** #if LV_COLOR_DEPTH == 1
 464:..\..\..\lvgl\version_6.1.2\lvgl/src/lv_hal/../lv_misc/lv_color.h **** #define LV_COLOR_MAKE(r8, g8, b8) ((lv_color_t){.full = (uint8_t)((b8 >> 7) | (g8 >> 7) | (r8 >> 7)
 465:..\..\..\lvgl\version_6.1.2\lvgl/src/lv_hal/../lv_misc/lv_color.h **** #elif LV_COLOR_DEPTH == 8
 466:..\..\..\lvgl\version_6.1.2\lvgl/src/lv_hal/../lv_misc/lv_color.h **** #define LV_COLOR_MAKE(r8, g8, b8) ((lv_color_t){{(uint8_t)((b8 >> 6) & 0x3U), (uint8_t)((g8 >> 5) &
 467:..\..\..\lvgl\version_6.1.2\lvgl/src/lv_hal/../lv_misc/lv_color.h **** #elif LV_COLOR_DEPTH == 16
 468:..\..\..\lvgl\version_6.1.2\lvgl/src/lv_hal/../lv_misc/lv_color.h **** #if LV_COLOR_16_SWAP == 0
 469:..\..\..\lvgl\version_6.1.2\lvgl/src/lv_hal/../lv_misc/lv_color.h **** #define LV_COLOR_MAKE(r8, g8, b8) ((lv_color_t){{(uint16_t)((b8 >> 3) & 0x1FU), (uint16_t)((g8 >> 2
 470:..\..\..\lvgl\version_6.1.2\lvgl/src/lv_hal/../lv_misc/lv_color.h **** #else
 471:..\..\..\lvgl\version_6.1.2\lvgl/src/lv_hal/../lv_misc/lv_color.h **** #define LV_COLOR_MAKE(r8, g8, b8) ((lv_color_t){{(uint16_t)((g8 >> 5) & 0x7U), (uint16_t)((r8 >> 3)
 472:..\..\..\lvgl\version_6.1.2\lvgl/src/lv_hal/../lv_misc/lv_color.h **** #endif
 473:..\..\..\lvgl\version_6.1.2\lvgl/src/lv_hal/../lv_misc/lv_color.h **** #elif LV_COLOR_DEPTH == 32
 474:..\..\..\lvgl\version_6.1.2\lvgl/src/lv_hal/../lv_misc/lv_color.h **** #define LV_COLOR_MAKE(r8, g8, b8) ((lv_color_t){{b8, g8, r8, 0xff}}) /*Fix 0xff alpha*/
 475:..\..\..\lvgl\version_6.1.2\lvgl/src/lv_hal/../lv_misc/lv_color.h **** #endif
 476:..\..\..\lvgl\version_6.1.2\lvgl/src/lv_hal/../lv_misc/lv_color.h **** 
 477:..\..\..\lvgl\version_6.1.2\lvgl/src/lv_hal/../lv_misc/lv_color.h **** static inline lv_color_t lv_color_make(uint8_t r, uint8_t g, uint8_t b)
 478:..\..\..\lvgl\version_6.1.2\lvgl/src/lv_hal/../lv_misc/lv_color.h **** {
  29              		.loc 1 478 0
  30              		.cfi_startproc
  31              		@ args = 0, pretend = 0, frame = 8
  32              		@ frame_needed = 1, uses_anonymous_args = 0
  33              		@ link register save eliminated.
  34 0000 90B4     		push	{r4, r7}
  35              		.cfi_def_cfa_offset 8
ARM GAS  C:\Users\tmj32\AppData\Local\Temp\cc8xedyG.s 			page 10


  36              		.cfi_offset 4, -8
  37              		.cfi_offset 7, -4
  38 0002 82B0     		sub	sp, sp, #8
  39              		.cfi_def_cfa_offset 16
  40 0004 00AF     		add	r7, sp, #0
  41              		.cfi_def_cfa_register 7
  42 0006 0446     		mov	r4, r0
  43 0008 0846     		mov	r0, r1
  44 000a 1146     		mov	r1, r2
  45 000c 2246     		mov	r2, r4
  46 000e FA71     		strb	r2, [r7, #7]
  47 0010 0246     		mov	r2, r0
  48 0012 BA71     		strb	r2, [r7, #6]
  49 0014 0A46     		mov	r2, r1
  50 0016 7A71     		strb	r2, [r7, #5]
 479:..\..\..\lvgl\version_6.1.2\lvgl/src/lv_hal/../lv_misc/lv_color.h ****     return LV_COLOR_MAKE(r, g, b);
  51              		.loc 1 479 0
  52 0018 7A79     		ldrb	r2, [r7, #5]
  53 001a 62F30703 		bfi	r3, r2, #0, #8
  54 001e BA79     		ldrb	r2, [r7, #6]
  55 0020 62F30F23 		bfi	r3, r2, #8, #8
  56 0024 FA79     		ldrb	r2, [r7, #7]
  57 0026 62F31743 		bfi	r3, r2, #16, #8
  58 002a 43F07F43 		orr	r3, r3, #-16777216
 480:..\..\..\lvgl\version_6.1.2\lvgl/src/lv_hal/../lv_misc/lv_color.h **** }
  59              		.loc 1 480 0
  60 002e 1846     		mov	r0, r3
  61 0030 0837     		adds	r7, r7, #8
  62              		.cfi_def_cfa_offset 8
  63 0032 BD46     		mov	sp, r7
  64              		.cfi_def_cfa_register 13
  65              		@ sp needed
  66 0034 90BC     		pop	{r4, r7}
  67              		.cfi_restore 7
  68              		.cfi_restore 4
  69              		.cfi_def_cfa_offset 0
  70 0036 7047     		bx	lr
  71              		.cfi_endproc
  72              	.LFE588:
  73              		.size	lv_color_make, .-lv_color_make
  74              		.section	.text.lv_color_hex,"ax",%progbits
  75              		.align	2
  76              		.thumb
  77              		.thumb_func
  78              		.type	lv_color_hex, %function
  79              	lv_color_hex:
  80              	.LFB589:
 481:..\..\..\lvgl\version_6.1.2\lvgl/src/lv_hal/../lv_misc/lv_color.h **** 
 482:..\..\..\lvgl\version_6.1.2\lvgl/src/lv_hal/../lv_misc/lv_color.h **** static inline lv_color_t lv_color_hex(uint32_t c)
 483:..\..\..\lvgl\version_6.1.2\lvgl/src/lv_hal/../lv_misc/lv_color.h **** {
  81              		.loc 1 483 0
  82              		.cfi_startproc
  83              		@ args = 0, pretend = 0, frame = 8
  84              		@ frame_needed = 1, uses_anonymous_args = 0
  85 0000 80B5     		push	{r7, lr}
  86              		.cfi_def_cfa_offset 8
  87              		.cfi_offset 7, -8
ARM GAS  C:\Users\tmj32\AppData\Local\Temp\cc8xedyG.s 			page 11


  88              		.cfi_offset 14, -4
  89 0002 82B0     		sub	sp, sp, #8
  90              		.cfi_def_cfa_offset 16
  91 0004 00AF     		add	r7, sp, #0
  92              		.cfi_def_cfa_register 7
  93 0006 7860     		str	r0, [r7, #4]
 484:..\..\..\lvgl\version_6.1.2\lvgl/src/lv_hal/../lv_misc/lv_color.h ****     return lv_color_make((uint8_t)((c >> 16) & 0xFF), (uint8_t)((c >> 8) & 0xFF), (uint8_t)(c & 0xF
  94              		.loc 1 484 0
  95 0008 7B68     		ldr	r3, [r7, #4]
  96 000a 1B0C     		lsrs	r3, r3, #16
  97 000c D8B2     		uxtb	r0, r3
  98 000e 7B68     		ldr	r3, [r7, #4]
  99 0010 1B0A     		lsrs	r3, r3, #8
 100 0012 DBB2     		uxtb	r3, r3
 101 0014 7A68     		ldr	r2, [r7, #4]
 102 0016 D2B2     		uxtb	r2, r2
 103 0018 1946     		mov	r1, r3
 104 001a FFF7FEFF 		bl	lv_color_make
 105 001e 0346     		mov	r3, r0
 485:..\..\..\lvgl\version_6.1.2\lvgl/src/lv_hal/../lv_misc/lv_color.h **** }
 106              		.loc 1 485 0
 107 0020 1846     		mov	r0, r3
 108 0022 0837     		adds	r7, r7, #8
 109              		.cfi_def_cfa_offset 8
 110 0024 BD46     		mov	sp, r7
 111              		.cfi_def_cfa_register 13
 112              		@ sp needed
 113 0026 80BD     		pop	{r7, pc}
 114              		.cfi_endproc
 115              	.LFE589:
 116              		.size	lv_color_hex, .-lv_color_hex
 117              		.section	.text.lv_scr_act,"ax",%progbits
 118              		.align	2
 119              		.thumb
 120              		.thumb_func
 121              		.type	lv_scr_act, %function
 122              	lv_scr_act:
 123              	.LFB613:
 124              		.file 2 "..\\..\\..\\lvgl\\version_6.1.2\\lvgl/src/lv_core/lv_disp.h"
   1:..\..\..\lvgl\version_6.1.2\lvgl/src/lv_core/lv_disp.h **** /**
   2:..\..\..\lvgl\version_6.1.2\lvgl/src/lv_core/lv_disp.h ****  * @file lv_disp.h
   3:..\..\..\lvgl\version_6.1.2\lvgl/src/lv_core/lv_disp.h ****  *
   4:..\..\..\lvgl\version_6.1.2\lvgl/src/lv_core/lv_disp.h ****  */
   5:..\..\..\lvgl\version_6.1.2\lvgl/src/lv_core/lv_disp.h **** 
   6:..\..\..\lvgl\version_6.1.2\lvgl/src/lv_core/lv_disp.h **** #ifndef LV_DISP_H
   7:..\..\..\lvgl\version_6.1.2\lvgl/src/lv_core/lv_disp.h **** #define LV_DISP_H
   8:..\..\..\lvgl\version_6.1.2\lvgl/src/lv_core/lv_disp.h **** 
   9:..\..\..\lvgl\version_6.1.2\lvgl/src/lv_core/lv_disp.h **** #ifdef __cplusplus
  10:..\..\..\lvgl\version_6.1.2\lvgl/src/lv_core/lv_disp.h **** extern "C" {
  11:..\..\..\lvgl\version_6.1.2\lvgl/src/lv_core/lv_disp.h **** #endif
  12:..\..\..\lvgl\version_6.1.2\lvgl/src/lv_core/lv_disp.h **** 
  13:..\..\..\lvgl\version_6.1.2\lvgl/src/lv_core/lv_disp.h **** /*********************
  14:..\..\..\lvgl\version_6.1.2\lvgl/src/lv_core/lv_disp.h ****  *      INCLUDES
  15:..\..\..\lvgl\version_6.1.2\lvgl/src/lv_core/lv_disp.h ****  *********************/
  16:..\..\..\lvgl\version_6.1.2\lvgl/src/lv_core/lv_disp.h **** #include "../lv_hal/lv_hal.h"
  17:..\..\..\lvgl\version_6.1.2\lvgl/src/lv_core/lv_disp.h **** #include "lv_obj.h"
  18:..\..\..\lvgl\version_6.1.2\lvgl/src/lv_core/lv_disp.h **** 
ARM GAS  C:\Users\tmj32\AppData\Local\Temp\cc8xedyG.s 			page 12


  19:..\..\..\lvgl\version_6.1.2\lvgl/src/lv_core/lv_disp.h **** /*********************
  20:..\..\..\lvgl\version_6.1.2\lvgl/src/lv_core/lv_disp.h ****  *      DEFINES
  21:..\..\..\lvgl\version_6.1.2\lvgl/src/lv_core/lv_disp.h ****  *********************/
  22:..\..\..\lvgl\version_6.1.2\lvgl/src/lv_core/lv_disp.h **** 
  23:..\..\..\lvgl\version_6.1.2\lvgl/src/lv_core/lv_disp.h **** /**********************
  24:..\..\..\lvgl\version_6.1.2\lvgl/src/lv_core/lv_disp.h ****  *      TYPEDEFS
  25:..\..\..\lvgl\version_6.1.2\lvgl/src/lv_core/lv_disp.h ****  **********************/
  26:..\..\..\lvgl\version_6.1.2\lvgl/src/lv_core/lv_disp.h **** 
  27:..\..\..\lvgl\version_6.1.2\lvgl/src/lv_core/lv_disp.h **** /**********************
  28:..\..\..\lvgl\version_6.1.2\lvgl/src/lv_core/lv_disp.h ****  * GLOBAL PROTOTYPES
  29:..\..\..\lvgl\version_6.1.2\lvgl/src/lv_core/lv_disp.h ****  **********************/
  30:..\..\..\lvgl\version_6.1.2\lvgl/src/lv_core/lv_disp.h **** 
  31:..\..\..\lvgl\version_6.1.2\lvgl/src/lv_core/lv_disp.h **** /**
  32:..\..\..\lvgl\version_6.1.2\lvgl/src/lv_core/lv_disp.h ****  * Return with a pointer to the active screen
  33:..\..\..\lvgl\version_6.1.2\lvgl/src/lv_core/lv_disp.h ****  * @param disp pointer to display which active screen should be get. (NULL to use the default
  34:..\..\..\lvgl\version_6.1.2\lvgl/src/lv_core/lv_disp.h ****  * screen)
  35:..\..\..\lvgl\version_6.1.2\lvgl/src/lv_core/lv_disp.h ****  * @return pointer to the active screen object (loaded by 'lv_scr_load()')
  36:..\..\..\lvgl\version_6.1.2\lvgl/src/lv_core/lv_disp.h ****  */
  37:..\..\..\lvgl\version_6.1.2\lvgl/src/lv_core/lv_disp.h **** lv_obj_t * lv_disp_get_scr_act(lv_disp_t * disp);
  38:..\..\..\lvgl\version_6.1.2\lvgl/src/lv_core/lv_disp.h **** 
  39:..\..\..\lvgl\version_6.1.2\lvgl/src/lv_core/lv_disp.h **** /**
  40:..\..\..\lvgl\version_6.1.2\lvgl/src/lv_core/lv_disp.h ****  * Make a screen active
  41:..\..\..\lvgl\version_6.1.2\lvgl/src/lv_core/lv_disp.h ****  * @param scr pointer to a screen
  42:..\..\..\lvgl\version_6.1.2\lvgl/src/lv_core/lv_disp.h ****  */
  43:..\..\..\lvgl\version_6.1.2\lvgl/src/lv_core/lv_disp.h **** void lv_disp_load_scr(lv_obj_t * scr);
  44:..\..\..\lvgl\version_6.1.2\lvgl/src/lv_core/lv_disp.h **** 
  45:..\..\..\lvgl\version_6.1.2\lvgl/src/lv_core/lv_disp.h **** /**
  46:..\..\..\lvgl\version_6.1.2\lvgl/src/lv_core/lv_disp.h ****  * Return with the top layer. (Same on every screen and it is above the normal screen layer)
  47:..\..\..\lvgl\version_6.1.2\lvgl/src/lv_core/lv_disp.h ****  * @param disp pointer to display which top layer should be get. (NULL to use the default screen)
  48:..\..\..\lvgl\version_6.1.2\lvgl/src/lv_core/lv_disp.h ****  * @return pointer to the top layer object  (transparent screen sized lv_obj)
  49:..\..\..\lvgl\version_6.1.2\lvgl/src/lv_core/lv_disp.h ****  */
  50:..\..\..\lvgl\version_6.1.2\lvgl/src/lv_core/lv_disp.h **** lv_obj_t * lv_disp_get_layer_top(lv_disp_t * disp);
  51:..\..\..\lvgl\version_6.1.2\lvgl/src/lv_core/lv_disp.h **** 
  52:..\..\..\lvgl\version_6.1.2\lvgl/src/lv_core/lv_disp.h **** /**
  53:..\..\..\lvgl\version_6.1.2\lvgl/src/lv_core/lv_disp.h ****  * Return with the sys. layer. (Same on every screen and it is above the normal screen and the top
  54:..\..\..\lvgl\version_6.1.2\lvgl/src/lv_core/lv_disp.h ****  * layer)
  55:..\..\..\lvgl\version_6.1.2\lvgl/src/lv_core/lv_disp.h ****  * @param disp pointer to display which sys. layer  should be get. (NULL to use the default screen)
  56:..\..\..\lvgl\version_6.1.2\lvgl/src/lv_core/lv_disp.h ****  * @return pointer to the sys layer object  (transparent screen sized lv_obj)
  57:..\..\..\lvgl\version_6.1.2\lvgl/src/lv_core/lv_disp.h ****  */
  58:..\..\..\lvgl\version_6.1.2\lvgl/src/lv_core/lv_disp.h **** lv_obj_t * lv_disp_get_layer_sys(lv_disp_t * disp);
  59:..\..\..\lvgl\version_6.1.2\lvgl/src/lv_core/lv_disp.h **** 
  60:..\..\..\lvgl\version_6.1.2\lvgl/src/lv_core/lv_disp.h **** /**
  61:..\..\..\lvgl\version_6.1.2\lvgl/src/lv_core/lv_disp.h ****  * Assign a screen to a display.
  62:..\..\..\lvgl\version_6.1.2\lvgl/src/lv_core/lv_disp.h ****  * @param disp pointer to a display where to assign the screen
  63:..\..\..\lvgl\version_6.1.2\lvgl/src/lv_core/lv_disp.h ****  * @param scr pointer to a screen object to assign
  64:..\..\..\lvgl\version_6.1.2\lvgl/src/lv_core/lv_disp.h ****  */
  65:..\..\..\lvgl\version_6.1.2\lvgl/src/lv_core/lv_disp.h **** void lv_disp_assign_screen(lv_disp_t * disp, lv_obj_t * scr);
  66:..\..\..\lvgl\version_6.1.2\lvgl/src/lv_core/lv_disp.h **** 
  67:..\..\..\lvgl\version_6.1.2\lvgl/src/lv_core/lv_disp.h **** /**
  68:..\..\..\lvgl\version_6.1.2\lvgl/src/lv_core/lv_disp.h ****  * Get a pointer to the screen refresher task to
  69:..\..\..\lvgl\version_6.1.2\lvgl/src/lv_core/lv_disp.h ****  * modify its parameters with `lv_task_...` functions.
  70:..\..\..\lvgl\version_6.1.2\lvgl/src/lv_core/lv_disp.h ****  * @param disp pointer to a display
  71:..\..\..\lvgl\version_6.1.2\lvgl/src/lv_core/lv_disp.h ****  * @return pointer to the display refresher task. (NULL on error)
  72:..\..\..\lvgl\version_6.1.2\lvgl/src/lv_core/lv_disp.h ****  */
  73:..\..\..\lvgl\version_6.1.2\lvgl/src/lv_core/lv_disp.h **** lv_task_t * lv_disp_get_refr_task(lv_disp_t * disp);
  74:..\..\..\lvgl\version_6.1.2\lvgl/src/lv_core/lv_disp.h **** 
  75:..\..\..\lvgl\version_6.1.2\lvgl/src/lv_core/lv_disp.h **** /**
ARM GAS  C:\Users\tmj32\AppData\Local\Temp\cc8xedyG.s 			page 13


  76:..\..\..\lvgl\version_6.1.2\lvgl/src/lv_core/lv_disp.h ****  * Get elapsed time since last user activity on a display (e.g. click)
  77:..\..\..\lvgl\version_6.1.2\lvgl/src/lv_core/lv_disp.h ****  * @param disp pointer to an display (NULL to get the overall smallest inactivity)
  78:..\..\..\lvgl\version_6.1.2\lvgl/src/lv_core/lv_disp.h ****  * @return elapsed ticks (milliseconds) since the last activity
  79:..\..\..\lvgl\version_6.1.2\lvgl/src/lv_core/lv_disp.h ****  */
  80:..\..\..\lvgl\version_6.1.2\lvgl/src/lv_core/lv_disp.h **** uint32_t lv_disp_get_inactive_time(const lv_disp_t * disp);
  81:..\..\..\lvgl\version_6.1.2\lvgl/src/lv_core/lv_disp.h **** 
  82:..\..\..\lvgl\version_6.1.2\lvgl/src/lv_core/lv_disp.h **** /**
  83:..\..\..\lvgl\version_6.1.2\lvgl/src/lv_core/lv_disp.h ****  * Manually trigger an activity on a display
  84:..\..\..\lvgl\version_6.1.2\lvgl/src/lv_core/lv_disp.h ****  * @param disp pointer to an display (NULL to use the default display)
  85:..\..\..\lvgl\version_6.1.2\lvgl/src/lv_core/lv_disp.h ****  */
  86:..\..\..\lvgl\version_6.1.2\lvgl/src/lv_core/lv_disp.h **** void lv_disp_trig_activity(lv_disp_t * disp);
  87:..\..\..\lvgl\version_6.1.2\lvgl/src/lv_core/lv_disp.h **** 
  88:..\..\..\lvgl\version_6.1.2\lvgl/src/lv_core/lv_disp.h **** /*------------------------------------------------
  89:..\..\..\lvgl\version_6.1.2\lvgl/src/lv_core/lv_disp.h ****  * To improve backward compatibility
  90:..\..\..\lvgl\version_6.1.2\lvgl/src/lv_core/lv_disp.h ****  * Recommended only if you have one display
  91:..\..\..\lvgl\version_6.1.2\lvgl/src/lv_core/lv_disp.h ****  *------------------------------------------------*/
  92:..\..\..\lvgl\version_6.1.2\lvgl/src/lv_core/lv_disp.h **** 
  93:..\..\..\lvgl\version_6.1.2\lvgl/src/lv_core/lv_disp.h **** /**
  94:..\..\..\lvgl\version_6.1.2\lvgl/src/lv_core/lv_disp.h ****  * Get the active screen of the default display
  95:..\..\..\lvgl\version_6.1.2\lvgl/src/lv_core/lv_disp.h ****  * @return pointer to the active screen
  96:..\..\..\lvgl\version_6.1.2\lvgl/src/lv_core/lv_disp.h ****  */
  97:..\..\..\lvgl\version_6.1.2\lvgl/src/lv_core/lv_disp.h **** static inline lv_obj_t * lv_scr_act(void)
  98:..\..\..\lvgl\version_6.1.2\lvgl/src/lv_core/lv_disp.h **** {
 125              		.loc 2 98 0
 126              		.cfi_startproc
 127              		@ args = 0, pretend = 0, frame = 0
 128              		@ frame_needed = 1, uses_anonymous_args = 0
 129 0000 80B5     		push	{r7, lr}
 130              		.cfi_def_cfa_offset 8
 131              		.cfi_offset 7, -8
 132              		.cfi_offset 14, -4
 133 0002 00AF     		add	r7, sp, #0
 134              		.cfi_def_cfa_register 7
  99:..\..\..\lvgl\version_6.1.2\lvgl/src/lv_core/lv_disp.h ****     return lv_disp_get_scr_act(lv_disp_get_default());
 135              		.loc 2 99 0
 136 0004 FFF7FEFF 		bl	lv_disp_get_default
 137 0008 0346     		mov	r3, r0
 138 000a 1846     		mov	r0, r3
 139 000c FFF7FEFF 		bl	lv_disp_get_scr_act
 140 0010 0346     		mov	r3, r0
 100:..\..\..\lvgl\version_6.1.2\lvgl/src/lv_core/lv_disp.h **** }
 141              		.loc 2 100 0
 142 0012 1846     		mov	r0, r3
 143 0014 80BD     		pop	{r7, pc}
 144              		.cfi_endproc
 145              	.LFE613:
 146              		.size	lv_scr_act, .-lv_scr_act
 147 0016 00BF     		.section	.text.lv_slider_set_value,"ax",%progbits
 148              		.align	2
 149              		.thumb
 150              		.thumb_func
 151              		.type	lv_slider_set_value, %function
 152              	lv_slider_set_value:
 153              	.LFB668:
 154              		.file 3 "..\\..\\..\\lvgl\\version_6.1.2\\lvgl/src/lv_objx/lv_slider.h"
   1:..\..\..\lvgl\version_6.1.2\lvgl/src/lv_objx/lv_slider.h **** /**
   2:..\..\..\lvgl\version_6.1.2\lvgl/src/lv_objx/lv_slider.h ****  * @file lv_slider.h
ARM GAS  C:\Users\tmj32\AppData\Local\Temp\cc8xedyG.s 			page 14


   3:..\..\..\lvgl\version_6.1.2\lvgl/src/lv_objx/lv_slider.h ****  *
   4:..\..\..\lvgl\version_6.1.2\lvgl/src/lv_objx/lv_slider.h ****  */
   5:..\..\..\lvgl\version_6.1.2\lvgl/src/lv_objx/lv_slider.h **** 
   6:..\..\..\lvgl\version_6.1.2\lvgl/src/lv_objx/lv_slider.h **** #ifndef LV_SLIDER_H
   7:..\..\..\lvgl\version_6.1.2\lvgl/src/lv_objx/lv_slider.h **** #define LV_SLIDER_H
   8:..\..\..\lvgl\version_6.1.2\lvgl/src/lv_objx/lv_slider.h **** 
   9:..\..\..\lvgl\version_6.1.2\lvgl/src/lv_objx/lv_slider.h **** #ifdef __cplusplus
  10:..\..\..\lvgl\version_6.1.2\lvgl/src/lv_objx/lv_slider.h **** extern "C" {
  11:..\..\..\lvgl\version_6.1.2\lvgl/src/lv_objx/lv_slider.h **** #endif
  12:..\..\..\lvgl\version_6.1.2\lvgl/src/lv_objx/lv_slider.h **** 
  13:..\..\..\lvgl\version_6.1.2\lvgl/src/lv_objx/lv_slider.h **** /*********************
  14:..\..\..\lvgl\version_6.1.2\lvgl/src/lv_objx/lv_slider.h ****  *      INCLUDES
  15:..\..\..\lvgl\version_6.1.2\lvgl/src/lv_objx/lv_slider.h ****  *********************/
  16:..\..\..\lvgl\version_6.1.2\lvgl/src/lv_objx/lv_slider.h **** #ifdef LV_CONF_INCLUDE_SIMPLE
  17:..\..\..\lvgl\version_6.1.2\lvgl/src/lv_objx/lv_slider.h **** #include "lv_conf.h"
  18:..\..\..\lvgl\version_6.1.2\lvgl/src/lv_objx/lv_slider.h **** #else
  19:..\..\..\lvgl\version_6.1.2\lvgl/src/lv_objx/lv_slider.h **** #include "../../../lv_conf.h"
  20:..\..\..\lvgl\version_6.1.2\lvgl/src/lv_objx/lv_slider.h **** #endif
  21:..\..\..\lvgl\version_6.1.2\lvgl/src/lv_objx/lv_slider.h **** 
  22:..\..\..\lvgl\version_6.1.2\lvgl/src/lv_objx/lv_slider.h **** #if LV_USE_SLIDER != 0
  23:..\..\..\lvgl\version_6.1.2\lvgl/src/lv_objx/lv_slider.h **** 
  24:..\..\..\lvgl\version_6.1.2\lvgl/src/lv_objx/lv_slider.h **** /*Testing of dependencies*/
  25:..\..\..\lvgl\version_6.1.2\lvgl/src/lv_objx/lv_slider.h **** #if LV_USE_BAR == 0
  26:..\..\..\lvgl\version_6.1.2\lvgl/src/lv_objx/lv_slider.h **** #error "lv_slider: lv_bar is required. Enable it in lv_conf.h (LV_USE_BAR  1) "
  27:..\..\..\lvgl\version_6.1.2\lvgl/src/lv_objx/lv_slider.h **** #endif
  28:..\..\..\lvgl\version_6.1.2\lvgl/src/lv_objx/lv_slider.h **** 
  29:..\..\..\lvgl\version_6.1.2\lvgl/src/lv_objx/lv_slider.h **** #include "../lv_core/lv_obj.h"
  30:..\..\..\lvgl\version_6.1.2\lvgl/src/lv_objx/lv_slider.h **** #include "lv_bar.h"
  31:..\..\..\lvgl\version_6.1.2\lvgl/src/lv_objx/lv_slider.h **** 
  32:..\..\..\lvgl\version_6.1.2\lvgl/src/lv_objx/lv_slider.h **** /*********************
  33:..\..\..\lvgl\version_6.1.2\lvgl/src/lv_objx/lv_slider.h ****  *      DEFINES
  34:..\..\..\lvgl\version_6.1.2\lvgl/src/lv_objx/lv_slider.h ****  *********************/
  35:..\..\..\lvgl\version_6.1.2\lvgl/src/lv_objx/lv_slider.h **** 
  36:..\..\..\lvgl\version_6.1.2\lvgl/src/lv_objx/lv_slider.h **** /**********************
  37:..\..\..\lvgl\version_6.1.2\lvgl/src/lv_objx/lv_slider.h ****  *      TYPEDEFS
  38:..\..\..\lvgl\version_6.1.2\lvgl/src/lv_objx/lv_slider.h ****  **********************/
  39:..\..\..\lvgl\version_6.1.2\lvgl/src/lv_objx/lv_slider.h **** /*Data of slider*/
  40:..\..\..\lvgl\version_6.1.2\lvgl/src/lv_objx/lv_slider.h **** typedef struct
  41:..\..\..\lvgl\version_6.1.2\lvgl/src/lv_objx/lv_slider.h **** {
  42:..\..\..\lvgl\version_6.1.2\lvgl/src/lv_objx/lv_slider.h ****     lv_bar_ext_t bar; /*Ext. of ancestor*/
  43:..\..\..\lvgl\version_6.1.2\lvgl/src/lv_objx/lv_slider.h ****     /*New data for this type */
  44:..\..\..\lvgl\version_6.1.2\lvgl/src/lv_objx/lv_slider.h ****     const lv_style_t * style_knob; /*Style of the knob*/
  45:..\..\..\lvgl\version_6.1.2\lvgl/src/lv_objx/lv_slider.h ****     int16_t drag_value;            /*Store a temporal value during press until release (Handled by 
  46:..\..\..\lvgl\version_6.1.2\lvgl/src/lv_objx/lv_slider.h ****     uint8_t knob_in : 1;           /*1: Draw the knob inside the bar*/
  47:..\..\..\lvgl\version_6.1.2\lvgl/src/lv_objx/lv_slider.h **** } lv_slider_ext_t;
  48:..\..\..\lvgl\version_6.1.2\lvgl/src/lv_objx/lv_slider.h **** 
  49:..\..\..\lvgl\version_6.1.2\lvgl/src/lv_objx/lv_slider.h **** /** Built-in styles of slider*/
  50:..\..\..\lvgl\version_6.1.2\lvgl/src/lv_objx/lv_slider.h **** enum {
  51:..\..\..\lvgl\version_6.1.2\lvgl/src/lv_objx/lv_slider.h ****     LV_SLIDER_STYLE_BG, /** Slider background style. */
  52:..\..\..\lvgl\version_6.1.2\lvgl/src/lv_objx/lv_slider.h ****     LV_SLIDER_STYLE_INDIC, /** Slider indicator (filled area) style. */
  53:..\..\..\lvgl\version_6.1.2\lvgl/src/lv_objx/lv_slider.h ****     LV_SLIDER_STYLE_KNOB, /** Slider knob style. */
  54:..\..\..\lvgl\version_6.1.2\lvgl/src/lv_objx/lv_slider.h **** };
  55:..\..\..\lvgl\version_6.1.2\lvgl/src/lv_objx/lv_slider.h **** typedef uint8_t lv_slider_style_t;
  56:..\..\..\lvgl\version_6.1.2\lvgl/src/lv_objx/lv_slider.h **** 
  57:..\..\..\lvgl\version_6.1.2\lvgl/src/lv_objx/lv_slider.h **** /**********************
  58:..\..\..\lvgl\version_6.1.2\lvgl/src/lv_objx/lv_slider.h ****  * GLOBAL PROTOTYPES
  59:..\..\..\lvgl\version_6.1.2\lvgl/src/lv_objx/lv_slider.h ****  **********************/
ARM GAS  C:\Users\tmj32\AppData\Local\Temp\cc8xedyG.s 			page 15


  60:..\..\..\lvgl\version_6.1.2\lvgl/src/lv_objx/lv_slider.h **** 
  61:..\..\..\lvgl\version_6.1.2\lvgl/src/lv_objx/lv_slider.h **** /**
  62:..\..\..\lvgl\version_6.1.2\lvgl/src/lv_objx/lv_slider.h ****  * Create a slider objects
  63:..\..\..\lvgl\version_6.1.2\lvgl/src/lv_objx/lv_slider.h ****  * @param par pointer to an object, it will be the parent of the new slider
  64:..\..\..\lvgl\version_6.1.2\lvgl/src/lv_objx/lv_slider.h ****  * @param copy pointer to a slider object, if not NULL then the new object will be copied from it
  65:..\..\..\lvgl\version_6.1.2\lvgl/src/lv_objx/lv_slider.h ****  * @return pointer to the created slider
  66:..\..\..\lvgl\version_6.1.2\lvgl/src/lv_objx/lv_slider.h ****  */
  67:..\..\..\lvgl\version_6.1.2\lvgl/src/lv_objx/lv_slider.h **** lv_obj_t * lv_slider_create(lv_obj_t * par, const lv_obj_t * copy);
  68:..\..\..\lvgl\version_6.1.2\lvgl/src/lv_objx/lv_slider.h **** 
  69:..\..\..\lvgl\version_6.1.2\lvgl/src/lv_objx/lv_slider.h **** /*=====================
  70:..\..\..\lvgl\version_6.1.2\lvgl/src/lv_objx/lv_slider.h ****  * Setter functions
  71:..\..\..\lvgl\version_6.1.2\lvgl/src/lv_objx/lv_slider.h ****  *====================*/
  72:..\..\..\lvgl\version_6.1.2\lvgl/src/lv_objx/lv_slider.h **** 
  73:..\..\..\lvgl\version_6.1.2\lvgl/src/lv_objx/lv_slider.h **** /**
  74:..\..\..\lvgl\version_6.1.2\lvgl/src/lv_objx/lv_slider.h ****  * Set a new value on the slider
  75:..\..\..\lvgl\version_6.1.2\lvgl/src/lv_objx/lv_slider.h ****  * @param slider pointer to a slider object
  76:..\..\..\lvgl\version_6.1.2\lvgl/src/lv_objx/lv_slider.h ****  * @param value new value
  77:..\..\..\lvgl\version_6.1.2\lvgl/src/lv_objx/lv_slider.h ****  * @param anim LV_ANIM_ON: set the value with an animation; LV_ANIM_OFF: change the value immediate
  78:..\..\..\lvgl\version_6.1.2\lvgl/src/lv_objx/lv_slider.h ****  */
  79:..\..\..\lvgl\version_6.1.2\lvgl/src/lv_objx/lv_slider.h **** static inline void lv_slider_set_value(lv_obj_t * slider, int16_t value, lv_anim_enable_t anim)
  80:..\..\..\lvgl\version_6.1.2\lvgl/src/lv_objx/lv_slider.h **** {
 155              		.loc 3 80 0
 156              		.cfi_startproc
 157              		@ args = 0, pretend = 0, frame = 8
 158              		@ frame_needed = 1, uses_anonymous_args = 0
 159 0000 80B5     		push	{r7, lr}
 160              		.cfi_def_cfa_offset 8
 161              		.cfi_offset 7, -8
 162              		.cfi_offset 14, -4
 163 0002 82B0     		sub	sp, sp, #8
 164              		.cfi_def_cfa_offset 16
 165 0004 00AF     		add	r7, sp, #0
 166              		.cfi_def_cfa_register 7
 167 0006 7860     		str	r0, [r7, #4]
 168 0008 0B46     		mov	r3, r1
 169 000a 7B80     		strh	r3, [r7, #2]	@ movhi
 170 000c 1346     		mov	r3, r2
 171 000e 7B70     		strb	r3, [r7, #1]
  81:..\..\..\lvgl\version_6.1.2\lvgl/src/lv_objx/lv_slider.h ****     lv_bar_set_value(slider, value, anim);
 172              		.loc 3 81 0
 173 0010 7A78     		ldrb	r2, [r7, #1]	@ zero_extendqisi2
 174 0012 B7F90230 		ldrsh	r3, [r7, #2]
 175 0016 1946     		mov	r1, r3
 176 0018 7868     		ldr	r0, [r7, #4]
 177 001a FFF7FEFF 		bl	lv_bar_set_value
  82:..\..\..\lvgl\version_6.1.2\lvgl/src/lv_objx/lv_slider.h **** }
 178              		.loc 3 82 0
 179 001e 00BF     		nop
 180 0020 0837     		adds	r7, r7, #8
 181              		.cfi_def_cfa_offset 8
 182 0022 BD46     		mov	sp, r7
 183              		.cfi_def_cfa_register 13
 184              		@ sp needed
 185 0024 80BD     		pop	{r7, pc}
 186              		.cfi_endproc
 187              	.LFE668:
 188              		.size	lv_slider_set_value, .-lv_slider_set_value
ARM GAS  C:\Users\tmj32\AppData\Local\Temp\cc8xedyG.s 			page 16


 189 0026 00BF     		.section	.text.lv_slider_set_range,"ax",%progbits
 190              		.align	2
 191              		.thumb
 192              		.thumb_func
 193              		.type	lv_slider_set_range, %function
 194              	lv_slider_set_range:
 195              	.LFB669:
  83:..\..\..\lvgl\version_6.1.2\lvgl/src/lv_objx/lv_slider.h **** 
  84:..\..\..\lvgl\version_6.1.2\lvgl/src/lv_objx/lv_slider.h **** /**
  85:..\..\..\lvgl\version_6.1.2\lvgl/src/lv_objx/lv_slider.h ****  * Set minimum and the maximum values of a bar
  86:..\..\..\lvgl\version_6.1.2\lvgl/src/lv_objx/lv_slider.h ****  * @param slider pointer to the slider object
  87:..\..\..\lvgl\version_6.1.2\lvgl/src/lv_objx/lv_slider.h ****  * @param min minimum value
  88:..\..\..\lvgl\version_6.1.2\lvgl/src/lv_objx/lv_slider.h ****  * @param max maximum value
  89:..\..\..\lvgl\version_6.1.2\lvgl/src/lv_objx/lv_slider.h ****  */
  90:..\..\..\lvgl\version_6.1.2\lvgl/src/lv_objx/lv_slider.h **** static inline void lv_slider_set_range(lv_obj_t * slider, int16_t min, int16_t max)
  91:..\..\..\lvgl\version_6.1.2\lvgl/src/lv_objx/lv_slider.h **** {
 196              		.loc 3 91 0
 197              		.cfi_startproc
 198              		@ args = 0, pretend = 0, frame = 8
 199              		@ frame_needed = 1, uses_anonymous_args = 0
 200 0000 80B5     		push	{r7, lr}
 201              		.cfi_def_cfa_offset 8
 202              		.cfi_offset 7, -8
 203              		.cfi_offset 14, -4
 204 0002 82B0     		sub	sp, sp, #8
 205              		.cfi_def_cfa_offset 16
 206 0004 00AF     		add	r7, sp, #0
 207              		.cfi_def_cfa_register 7
 208 0006 7860     		str	r0, [r7, #4]
 209 0008 0B46     		mov	r3, r1
 210 000a 7B80     		strh	r3, [r7, #2]	@ movhi
 211 000c 1346     		mov	r3, r2	@ movhi
 212 000e 3B80     		strh	r3, [r7]	@ movhi
  92:..\..\..\lvgl\version_6.1.2\lvgl/src/lv_objx/lv_slider.h ****     lv_bar_set_range(slider, min, max);
 213              		.loc 3 92 0
 214 0010 B7F90020 		ldrsh	r2, [r7]
 215 0014 B7F90230 		ldrsh	r3, [r7, #2]
 216 0018 1946     		mov	r1, r3
 217 001a 7868     		ldr	r0, [r7, #4]
 218 001c FFF7FEFF 		bl	lv_bar_set_range
  93:..\..\..\lvgl\version_6.1.2\lvgl/src/lv_objx/lv_slider.h **** }
 219              		.loc 3 93 0
 220 0020 00BF     		nop
 221 0022 0837     		adds	r7, r7, #8
 222              		.cfi_def_cfa_offset 8
 223 0024 BD46     		mov	sp, r7
 224              		.cfi_def_cfa_register 13
 225              		@ sp needed
 226 0026 80BD     		pop	{r7, pc}
 227              		.cfi_endproc
 228              	.LFE669:
 229              		.size	lv_slider_set_range, .-lv_slider_set_range
 230              		.section	.text.lv_roller_get_selected_str,"ax",%progbits
 231              		.align	2
 232              		.thumb
 233              		.thumb_func
 234              		.type	lv_roller_get_selected_str, %function
ARM GAS  C:\Users\tmj32\AppData\Local\Temp\cc8xedyG.s 			page 17


 235              	lv_roller_get_selected_str:
 236              	.LFB687:
 237              		.file 4 "..\\..\\..\\lvgl\\version_6.1.2\\lvgl/src/lv_objx/lv_roller.h"
   1:..\..\..\lvgl\version_6.1.2\lvgl/src/lv_objx/lv_roller.h **** /**
   2:..\..\..\lvgl\version_6.1.2\lvgl/src/lv_objx/lv_roller.h ****  * @file lv_roller.h
   3:..\..\..\lvgl\version_6.1.2\lvgl/src/lv_objx/lv_roller.h ****  *
   4:..\..\..\lvgl\version_6.1.2\lvgl/src/lv_objx/lv_roller.h ****  */
   5:..\..\..\lvgl\version_6.1.2\lvgl/src/lv_objx/lv_roller.h **** 
   6:..\..\..\lvgl\version_6.1.2\lvgl/src/lv_objx/lv_roller.h **** #ifndef LV_ROLLER_H
   7:..\..\..\lvgl\version_6.1.2\lvgl/src/lv_objx/lv_roller.h **** #define LV_ROLLER_H
   8:..\..\..\lvgl\version_6.1.2\lvgl/src/lv_objx/lv_roller.h **** 
   9:..\..\..\lvgl\version_6.1.2\lvgl/src/lv_objx/lv_roller.h **** #ifdef __cplusplus
  10:..\..\..\lvgl\version_6.1.2\lvgl/src/lv_objx/lv_roller.h **** extern "C" {
  11:..\..\..\lvgl\version_6.1.2\lvgl/src/lv_objx/lv_roller.h **** #endif
  12:..\..\..\lvgl\version_6.1.2\lvgl/src/lv_objx/lv_roller.h **** 
  13:..\..\..\lvgl\version_6.1.2\lvgl/src/lv_objx/lv_roller.h **** /*********************
  14:..\..\..\lvgl\version_6.1.2\lvgl/src/lv_objx/lv_roller.h ****  *      INCLUDES
  15:..\..\..\lvgl\version_6.1.2\lvgl/src/lv_objx/lv_roller.h ****  *********************/
  16:..\..\..\lvgl\version_6.1.2\lvgl/src/lv_objx/lv_roller.h **** #ifdef LV_CONF_INCLUDE_SIMPLE
  17:..\..\..\lvgl\version_6.1.2\lvgl/src/lv_objx/lv_roller.h **** #include "lv_conf.h"
  18:..\..\..\lvgl\version_6.1.2\lvgl/src/lv_objx/lv_roller.h **** #else
  19:..\..\..\lvgl\version_6.1.2\lvgl/src/lv_objx/lv_roller.h **** #include "../../../lv_conf.h"
  20:..\..\..\lvgl\version_6.1.2\lvgl/src/lv_objx/lv_roller.h **** #endif
  21:..\..\..\lvgl\version_6.1.2\lvgl/src/lv_objx/lv_roller.h **** 
  22:..\..\..\lvgl\version_6.1.2\lvgl/src/lv_objx/lv_roller.h **** #if LV_USE_ROLLER != 0
  23:..\..\..\lvgl\version_6.1.2\lvgl/src/lv_objx/lv_roller.h **** 
  24:..\..\..\lvgl\version_6.1.2\lvgl/src/lv_objx/lv_roller.h **** /*Testing of dependencies*/
  25:..\..\..\lvgl\version_6.1.2\lvgl/src/lv_objx/lv_roller.h **** #if LV_USE_DDLIST == 0
  26:..\..\..\lvgl\version_6.1.2\lvgl/src/lv_objx/lv_roller.h **** #error "lv_roller: lv_ddlist is required. Enable it in lv_conf.h (LV_USE_DDLIST  1) "
  27:..\..\..\lvgl\version_6.1.2\lvgl/src/lv_objx/lv_roller.h **** #endif
  28:..\..\..\lvgl\version_6.1.2\lvgl/src/lv_objx/lv_roller.h **** 
  29:..\..\..\lvgl\version_6.1.2\lvgl/src/lv_objx/lv_roller.h **** #include "../lv_core/lv_obj.h"
  30:..\..\..\lvgl\version_6.1.2\lvgl/src/lv_objx/lv_roller.h **** #include "lv_ddlist.h"
  31:..\..\..\lvgl\version_6.1.2\lvgl/src/lv_objx/lv_roller.h **** #include "lv_label.h"
  32:..\..\..\lvgl\version_6.1.2\lvgl/src/lv_objx/lv_roller.h **** 
  33:..\..\..\lvgl\version_6.1.2\lvgl/src/lv_objx/lv_roller.h **** /*********************
  34:..\..\..\lvgl\version_6.1.2\lvgl/src/lv_objx/lv_roller.h ****  *      DEFINES
  35:..\..\..\lvgl\version_6.1.2\lvgl/src/lv_objx/lv_roller.h ****  *********************/
  36:..\..\..\lvgl\version_6.1.2\lvgl/src/lv_objx/lv_roller.h **** 
  37:..\..\..\lvgl\version_6.1.2\lvgl/src/lv_objx/lv_roller.h **** /**********************
  38:..\..\..\lvgl\version_6.1.2\lvgl/src/lv_objx/lv_roller.h ****  *      TYPEDEFS
  39:..\..\..\lvgl\version_6.1.2\lvgl/src/lv_objx/lv_roller.h ****  **********************/
  40:..\..\..\lvgl\version_6.1.2\lvgl/src/lv_objx/lv_roller.h **** 
  41:..\..\..\lvgl\version_6.1.2\lvgl/src/lv_objx/lv_roller.h **** /** Roller mode. */
  42:..\..\..\lvgl\version_6.1.2\lvgl/src/lv_objx/lv_roller.h **** enum {
  43:..\..\..\lvgl\version_6.1.2\lvgl/src/lv_objx/lv_roller.h ****     LV_ROLLER_MODE_NORMAL, /**< Normal mode (roller ends at the end of the options). */
  44:..\..\..\lvgl\version_6.1.2\lvgl/src/lv_objx/lv_roller.h ****     LV_ROLLER_MODE_INIFINITE, /**< Infinite mode (roller can be scrolled forever). */
  45:..\..\..\lvgl\version_6.1.2\lvgl/src/lv_objx/lv_roller.h **** };
  46:..\..\..\lvgl\version_6.1.2\lvgl/src/lv_objx/lv_roller.h **** 
  47:..\..\..\lvgl\version_6.1.2\lvgl/src/lv_objx/lv_roller.h **** typedef uint8_t lv_roller_mode_t;
  48:..\..\..\lvgl\version_6.1.2\lvgl/src/lv_objx/lv_roller.h **** 
  49:..\..\..\lvgl\version_6.1.2\lvgl/src/lv_objx/lv_roller.h **** 
  50:..\..\..\lvgl\version_6.1.2\lvgl/src/lv_objx/lv_roller.h **** 
  51:..\..\..\lvgl\version_6.1.2\lvgl/src/lv_objx/lv_roller.h **** /*Data of roller*/
  52:..\..\..\lvgl\version_6.1.2\lvgl/src/lv_objx/lv_roller.h **** typedef struct
  53:..\..\..\lvgl\version_6.1.2\lvgl/src/lv_objx/lv_roller.h **** {
  54:..\..\..\lvgl\version_6.1.2\lvgl/src/lv_objx/lv_roller.h ****     lv_ddlist_ext_t ddlist; /*Ext. of ancestor*/
ARM GAS  C:\Users\tmj32\AppData\Local\Temp\cc8xedyG.s 			page 18


  55:..\..\..\lvgl\version_6.1.2\lvgl/src/lv_objx/lv_roller.h ****     /*New data for this type */
  56:..\..\..\lvgl\version_6.1.2\lvgl/src/lv_objx/lv_roller.h ****     lv_roller_mode_t mode : 1;
  57:..\..\..\lvgl\version_6.1.2\lvgl/src/lv_objx/lv_roller.h **** } lv_roller_ext_t;
  58:..\..\..\lvgl\version_6.1.2\lvgl/src/lv_objx/lv_roller.h **** 
  59:..\..\..\lvgl\version_6.1.2\lvgl/src/lv_objx/lv_roller.h **** enum {
  60:..\..\..\lvgl\version_6.1.2\lvgl/src/lv_objx/lv_roller.h ****     LV_ROLLER_STYLE_BG,
  61:..\..\..\lvgl\version_6.1.2\lvgl/src/lv_objx/lv_roller.h ****     LV_ROLLER_STYLE_SEL,
  62:..\..\..\lvgl\version_6.1.2\lvgl/src/lv_objx/lv_roller.h **** };
  63:..\..\..\lvgl\version_6.1.2\lvgl/src/lv_objx/lv_roller.h **** typedef uint8_t lv_roller_style_t;
  64:..\..\..\lvgl\version_6.1.2\lvgl/src/lv_objx/lv_roller.h **** 
  65:..\..\..\lvgl\version_6.1.2\lvgl/src/lv_objx/lv_roller.h **** /**********************
  66:..\..\..\lvgl\version_6.1.2\lvgl/src/lv_objx/lv_roller.h ****  * GLOBAL PROTOTYPES
  67:..\..\..\lvgl\version_6.1.2\lvgl/src/lv_objx/lv_roller.h ****  **********************/
  68:..\..\..\lvgl\version_6.1.2\lvgl/src/lv_objx/lv_roller.h **** 
  69:..\..\..\lvgl\version_6.1.2\lvgl/src/lv_objx/lv_roller.h **** /**
  70:..\..\..\lvgl\version_6.1.2\lvgl/src/lv_objx/lv_roller.h ****  * Create a roller object
  71:..\..\..\lvgl\version_6.1.2\lvgl/src/lv_objx/lv_roller.h ****  * @param par pointer to an object, it will be the parent of the new roller
  72:..\..\..\lvgl\version_6.1.2\lvgl/src/lv_objx/lv_roller.h ****  * @param copy pointer to a roller object, if not NULL then the new object will be copied from it
  73:..\..\..\lvgl\version_6.1.2\lvgl/src/lv_objx/lv_roller.h ****  * @return pointer to the created roller
  74:..\..\..\lvgl\version_6.1.2\lvgl/src/lv_objx/lv_roller.h ****  */
  75:..\..\..\lvgl\version_6.1.2\lvgl/src/lv_objx/lv_roller.h **** lv_obj_t * lv_roller_create(lv_obj_t * par, const lv_obj_t * copy);
  76:..\..\..\lvgl\version_6.1.2\lvgl/src/lv_objx/lv_roller.h **** 
  77:..\..\..\lvgl\version_6.1.2\lvgl/src/lv_objx/lv_roller.h **** /*=====================
  78:..\..\..\lvgl\version_6.1.2\lvgl/src/lv_objx/lv_roller.h ****  * Setter functions
  79:..\..\..\lvgl\version_6.1.2\lvgl/src/lv_objx/lv_roller.h ****  *====================*/
  80:..\..\..\lvgl\version_6.1.2\lvgl/src/lv_objx/lv_roller.h **** 
  81:..\..\..\lvgl\version_6.1.2\lvgl/src/lv_objx/lv_roller.h **** /**
  82:..\..\..\lvgl\version_6.1.2\lvgl/src/lv_objx/lv_roller.h ****  * Set the options on a roller
  83:..\..\..\lvgl\version_6.1.2\lvgl/src/lv_objx/lv_roller.h ****  * @param roller pointer to roller object
  84:..\..\..\lvgl\version_6.1.2\lvgl/src/lv_objx/lv_roller.h ****  * @param options a string with '\n' separated options. E.g. "One\nTwo\nThree"
  85:..\..\..\lvgl\version_6.1.2\lvgl/src/lv_objx/lv_roller.h ****  * @param mode `LV_ROLLER_MODE_NORMAL` or `LV_ROLLER_MODE_INFINITE`
  86:..\..\..\lvgl\version_6.1.2\lvgl/src/lv_objx/lv_roller.h ****  */
  87:..\..\..\lvgl\version_6.1.2\lvgl/src/lv_objx/lv_roller.h **** void lv_roller_set_options(lv_obj_t * roller, const char * options, lv_roller_mode_t mode);
  88:..\..\..\lvgl\version_6.1.2\lvgl/src/lv_objx/lv_roller.h **** 
  89:..\..\..\lvgl\version_6.1.2\lvgl/src/lv_objx/lv_roller.h **** /**
  90:..\..\..\lvgl\version_6.1.2\lvgl/src/lv_objx/lv_roller.h ****  * Set the align of the roller's options (left, right or center[default])
  91:..\..\..\lvgl\version_6.1.2\lvgl/src/lv_objx/lv_roller.h ****  * @param roller - pointer to a roller object
  92:..\..\..\lvgl\version_6.1.2\lvgl/src/lv_objx/lv_roller.h ****  * @param align - one of lv_label_align_t values (left, right, center)
  93:..\..\..\lvgl\version_6.1.2\lvgl/src/lv_objx/lv_roller.h ****  */
  94:..\..\..\lvgl\version_6.1.2\lvgl/src/lv_objx/lv_roller.h **** void lv_roller_set_align(lv_obj_t * roller, lv_label_align_t align);
  95:..\..\..\lvgl\version_6.1.2\lvgl/src/lv_objx/lv_roller.h **** 
  96:..\..\..\lvgl\version_6.1.2\lvgl/src/lv_objx/lv_roller.h **** /**
  97:..\..\..\lvgl\version_6.1.2\lvgl/src/lv_objx/lv_roller.h ****  * Set the selected option
  98:..\..\..\lvgl\version_6.1.2\lvgl/src/lv_objx/lv_roller.h ****  * @param roller pointer to a roller object
  99:..\..\..\lvgl\version_6.1.2\lvgl/src/lv_objx/lv_roller.h ****  * @param sel_opt id of the selected option (0 ... number of option - 1);
 100:..\..\..\lvgl\version_6.1.2\lvgl/src/lv_objx/lv_roller.h ****  * @param anim LV_ANOM_ON: set with animation; LV_ANIM_OFF set immediately
 101:..\..\..\lvgl\version_6.1.2\lvgl/src/lv_objx/lv_roller.h ****  */
 102:..\..\..\lvgl\version_6.1.2\lvgl/src/lv_objx/lv_roller.h **** void lv_roller_set_selected(lv_obj_t * roller, uint16_t sel_opt, lv_anim_enable_t anim);
 103:..\..\..\lvgl\version_6.1.2\lvgl/src/lv_objx/lv_roller.h **** 
 104:..\..\..\lvgl\version_6.1.2\lvgl/src/lv_objx/lv_roller.h **** /**
 105:..\..\..\lvgl\version_6.1.2\lvgl/src/lv_objx/lv_roller.h ****  * Set the height to show the given number of rows (options)
 106:..\..\..\lvgl\version_6.1.2\lvgl/src/lv_objx/lv_roller.h ****  * @param roller pointer to a roller object
 107:..\..\..\lvgl\version_6.1.2\lvgl/src/lv_objx/lv_roller.h ****  * @param row_cnt number of desired visible rows
 108:..\..\..\lvgl\version_6.1.2\lvgl/src/lv_objx/lv_roller.h ****  */
 109:..\..\..\lvgl\version_6.1.2\lvgl/src/lv_objx/lv_roller.h **** void lv_roller_set_visible_row_count(lv_obj_t * roller, uint8_t row_cnt);
 110:..\..\..\lvgl\version_6.1.2\lvgl/src/lv_objx/lv_roller.h **** 
 111:..\..\..\lvgl\version_6.1.2\lvgl/src/lv_objx/lv_roller.h **** /**
ARM GAS  C:\Users\tmj32\AppData\Local\Temp\cc8xedyG.s 			page 19


 112:..\..\..\lvgl\version_6.1.2\lvgl/src/lv_objx/lv_roller.h ****  * Set a fix width for the drop down list
 113:..\..\..\lvgl\version_6.1.2\lvgl/src/lv_objx/lv_roller.h ****  * @param roller pointer to a roller obejct
 114:..\..\..\lvgl\version_6.1.2\lvgl/src/lv_objx/lv_roller.h ****  * @param w the width when the list is opened (0: auto size)
 115:..\..\..\lvgl\version_6.1.2\lvgl/src/lv_objx/lv_roller.h ****  */
 116:..\..\..\lvgl\version_6.1.2\lvgl/src/lv_objx/lv_roller.h **** static inline void lv_roller_set_fix_width(lv_obj_t * roller, lv_coord_t w)
 117:..\..\..\lvgl\version_6.1.2\lvgl/src/lv_objx/lv_roller.h **** {
 118:..\..\..\lvgl\version_6.1.2\lvgl/src/lv_objx/lv_roller.h ****     lv_ddlist_set_fix_width(roller, w);
 119:..\..\..\lvgl\version_6.1.2\lvgl/src/lv_objx/lv_roller.h **** }
 120:..\..\..\lvgl\version_6.1.2\lvgl/src/lv_objx/lv_roller.h **** 
 121:..\..\..\lvgl\version_6.1.2\lvgl/src/lv_objx/lv_roller.h **** /**
 122:..\..\..\lvgl\version_6.1.2\lvgl/src/lv_objx/lv_roller.h ****  * Set the open/close animation time.
 123:..\..\..\lvgl\version_6.1.2\lvgl/src/lv_objx/lv_roller.h ****  * @param roller pointer to a roller object
 124:..\..\..\lvgl\version_6.1.2\lvgl/src/lv_objx/lv_roller.h ****  * @param anim_time: open/close animation time [ms]
 125:..\..\..\lvgl\version_6.1.2\lvgl/src/lv_objx/lv_roller.h ****  */
 126:..\..\..\lvgl\version_6.1.2\lvgl/src/lv_objx/lv_roller.h **** static inline void lv_roller_set_anim_time(lv_obj_t * roller, uint16_t anim_time)
 127:..\..\..\lvgl\version_6.1.2\lvgl/src/lv_objx/lv_roller.h **** {
 128:..\..\..\lvgl\version_6.1.2\lvgl/src/lv_objx/lv_roller.h ****     lv_ddlist_set_anim_time(roller, anim_time);
 129:..\..\..\lvgl\version_6.1.2\lvgl/src/lv_objx/lv_roller.h **** }
 130:..\..\..\lvgl\version_6.1.2\lvgl/src/lv_objx/lv_roller.h **** 
 131:..\..\..\lvgl\version_6.1.2\lvgl/src/lv_objx/lv_roller.h **** /**
 132:..\..\..\lvgl\version_6.1.2\lvgl/src/lv_objx/lv_roller.h ****  * Set a style of a roller
 133:..\..\..\lvgl\version_6.1.2\lvgl/src/lv_objx/lv_roller.h ****  * @param roller pointer to a roller object
 134:..\..\..\lvgl\version_6.1.2\lvgl/src/lv_objx/lv_roller.h ****  * @param type which style should be set
 135:..\..\..\lvgl\version_6.1.2\lvgl/src/lv_objx/lv_roller.h ****  * @param style pointer to a style
 136:..\..\..\lvgl\version_6.1.2\lvgl/src/lv_objx/lv_roller.h ****  */
 137:..\..\..\lvgl\version_6.1.2\lvgl/src/lv_objx/lv_roller.h **** void lv_roller_set_style(lv_obj_t * roller, lv_roller_style_t type, const lv_style_t * style);
 138:..\..\..\lvgl\version_6.1.2\lvgl/src/lv_objx/lv_roller.h **** 
 139:..\..\..\lvgl\version_6.1.2\lvgl/src/lv_objx/lv_roller.h **** /*=====================
 140:..\..\..\lvgl\version_6.1.2\lvgl/src/lv_objx/lv_roller.h ****  * Getter functions
 141:..\..\..\lvgl\version_6.1.2\lvgl/src/lv_objx/lv_roller.h ****  *====================*/
 142:..\..\..\lvgl\version_6.1.2\lvgl/src/lv_objx/lv_roller.h **** /**
 143:..\..\..\lvgl\version_6.1.2\lvgl/src/lv_objx/lv_roller.h ****  * Get the id of the selected option
 144:..\..\..\lvgl\version_6.1.2\lvgl/src/lv_objx/lv_roller.h ****  * @param roller pointer to a roller object
 145:..\..\..\lvgl\version_6.1.2\lvgl/src/lv_objx/lv_roller.h ****  * @return id of the selected option (0 ... number of option - 1);
 146:..\..\..\lvgl\version_6.1.2\lvgl/src/lv_objx/lv_roller.h ****  */
 147:..\..\..\lvgl\version_6.1.2\lvgl/src/lv_objx/lv_roller.h **** uint16_t lv_roller_get_selected(const lv_obj_t * roller);
 148:..\..\..\lvgl\version_6.1.2\lvgl/src/lv_objx/lv_roller.h **** 
 149:..\..\..\lvgl\version_6.1.2\lvgl/src/lv_objx/lv_roller.h **** /**
 150:..\..\..\lvgl\version_6.1.2\lvgl/src/lv_objx/lv_roller.h ****  * Get the current selected option as a string
 151:..\..\..\lvgl\version_6.1.2\lvgl/src/lv_objx/lv_roller.h ****  * @param roller pointer to roller object
 152:..\..\..\lvgl\version_6.1.2\lvgl/src/lv_objx/lv_roller.h ****  * @param buf pointer to an array to store the string
 153:..\..\..\lvgl\version_6.1.2\lvgl/src/lv_objx/lv_roller.h ****  * @param buf_size size of `buf` in bytes. 0: to ignore it.
 154:..\..\..\lvgl\version_6.1.2\lvgl/src/lv_objx/lv_roller.h ****  */
 155:..\..\..\lvgl\version_6.1.2\lvgl/src/lv_objx/lv_roller.h **** static inline void lv_roller_get_selected_str(const lv_obj_t * roller, char * buf, uint16_t buf_siz
 156:..\..\..\lvgl\version_6.1.2\lvgl/src/lv_objx/lv_roller.h **** {
 238              		.loc 4 156 0
 239              		.cfi_startproc
 240              		@ args = 0, pretend = 0, frame = 16
 241              		@ frame_needed = 1, uses_anonymous_args = 0
 242 0000 80B5     		push	{r7, lr}
 243              		.cfi_def_cfa_offset 8
 244              		.cfi_offset 7, -8
 245              		.cfi_offset 14, -4
 246 0002 84B0     		sub	sp, sp, #16
 247              		.cfi_def_cfa_offset 24
 248 0004 00AF     		add	r7, sp, #0
 249              		.cfi_def_cfa_register 7
ARM GAS  C:\Users\tmj32\AppData\Local\Temp\cc8xedyG.s 			page 20


 250 0006 F860     		str	r0, [r7, #12]
 251 0008 B960     		str	r1, [r7, #8]
 252 000a 1346     		mov	r3, r2
 253 000c FB80     		strh	r3, [r7, #6]	@ movhi
 157:..\..\..\lvgl\version_6.1.2\lvgl/src/lv_objx/lv_roller.h ****     lv_ddlist_get_selected_str(roller, buf, buf_size);
 254              		.loc 4 157 0
 255 000e FB88     		ldrh	r3, [r7, #6]
 256 0010 1A46     		mov	r2, r3
 257 0012 B968     		ldr	r1, [r7, #8]
 258 0014 F868     		ldr	r0, [r7, #12]
 259 0016 FFF7FEFF 		bl	lv_ddlist_get_selected_str
 158:..\..\..\lvgl\version_6.1.2\lvgl/src/lv_objx/lv_roller.h **** }
 260              		.loc 4 158 0
 261 001a 00BF     		nop
 262 001c 1037     		adds	r7, r7, #16
 263              		.cfi_def_cfa_offset 8
 264 001e BD46     		mov	sp, r7
 265              		.cfi_def_cfa_register 13
 266              		@ sp needed
 267 0020 80BD     		pop	{r7, pc}
 268              		.cfi_endproc
 269              	.LFE687:
 270              		.size	lv_roller_get_selected_str, .-lv_roller_get_selected_str
 271 0022 00BF     		.section	.text.lv_sw_get_state,"ax",%progbits
 272              		.align	2
 273              		.thumb
 274              		.thumb_func
 275              		.type	lv_sw_get_state, %function
 276              	lv_sw_get_state:
 277              	.LFB714:
 278              		.file 5 "..\\..\\..\\lvgl\\version_6.1.2\\lvgl/src/lv_objx/lv_sw.h"
   1:..\..\..\lvgl\version_6.1.2\lvgl/src/lv_objx/lv_sw.h **** /**
   2:..\..\..\lvgl\version_6.1.2\lvgl/src/lv_objx/lv_sw.h ****  * @file lv_sw.h
   3:..\..\..\lvgl\version_6.1.2\lvgl/src/lv_objx/lv_sw.h ****  *
   4:..\..\..\lvgl\version_6.1.2\lvgl/src/lv_objx/lv_sw.h ****  */
   5:..\..\..\lvgl\version_6.1.2\lvgl/src/lv_objx/lv_sw.h **** 
   6:..\..\..\lvgl\version_6.1.2\lvgl/src/lv_objx/lv_sw.h **** #ifndef LV_SW_H
   7:..\..\..\lvgl\version_6.1.2\lvgl/src/lv_objx/lv_sw.h **** #define LV_SW_H
   8:..\..\..\lvgl\version_6.1.2\lvgl/src/lv_objx/lv_sw.h **** 
   9:..\..\..\lvgl\version_6.1.2\lvgl/src/lv_objx/lv_sw.h **** #ifdef __cplusplus
  10:..\..\..\lvgl\version_6.1.2\lvgl/src/lv_objx/lv_sw.h **** extern "C" {
  11:..\..\..\lvgl\version_6.1.2\lvgl/src/lv_objx/lv_sw.h **** #endif
  12:..\..\..\lvgl\version_6.1.2\lvgl/src/lv_objx/lv_sw.h **** 
  13:..\..\..\lvgl\version_6.1.2\lvgl/src/lv_objx/lv_sw.h **** /*********************
  14:..\..\..\lvgl\version_6.1.2\lvgl/src/lv_objx/lv_sw.h ****  *      INCLUDES
  15:..\..\..\lvgl\version_6.1.2\lvgl/src/lv_objx/lv_sw.h ****  *********************/
  16:..\..\..\lvgl\version_6.1.2\lvgl/src/lv_objx/lv_sw.h **** #ifdef LV_CONF_INCLUDE_SIMPLE
  17:..\..\..\lvgl\version_6.1.2\lvgl/src/lv_objx/lv_sw.h **** #include "lv_conf.h"
  18:..\..\..\lvgl\version_6.1.2\lvgl/src/lv_objx/lv_sw.h **** #else
  19:..\..\..\lvgl\version_6.1.2\lvgl/src/lv_objx/lv_sw.h **** #include "../../../lv_conf.h"
  20:..\..\..\lvgl\version_6.1.2\lvgl/src/lv_objx/lv_sw.h **** #endif
  21:..\..\..\lvgl\version_6.1.2\lvgl/src/lv_objx/lv_sw.h **** 
  22:..\..\..\lvgl\version_6.1.2\lvgl/src/lv_objx/lv_sw.h **** #if LV_USE_SW != 0
  23:..\..\..\lvgl\version_6.1.2\lvgl/src/lv_objx/lv_sw.h **** 
  24:..\..\..\lvgl\version_6.1.2\lvgl/src/lv_objx/lv_sw.h **** /*Testing of dependencies*/
  25:..\..\..\lvgl\version_6.1.2\lvgl/src/lv_objx/lv_sw.h **** #if LV_USE_SLIDER == 0
  26:..\..\..\lvgl\version_6.1.2\lvgl/src/lv_objx/lv_sw.h **** #error "lv_sw: lv_slider is required. Enable it in lv_conf.h (LV_USE_SLIDER  1)"
ARM GAS  C:\Users\tmj32\AppData\Local\Temp\cc8xedyG.s 			page 21


  27:..\..\..\lvgl\version_6.1.2\lvgl/src/lv_objx/lv_sw.h **** #endif
  28:..\..\..\lvgl\version_6.1.2\lvgl/src/lv_objx/lv_sw.h **** 
  29:..\..\..\lvgl\version_6.1.2\lvgl/src/lv_objx/lv_sw.h **** #include "../lv_core/lv_obj.h"
  30:..\..\..\lvgl\version_6.1.2\lvgl/src/lv_objx/lv_sw.h **** #include "lv_slider.h"
  31:..\..\..\lvgl\version_6.1.2\lvgl/src/lv_objx/lv_sw.h **** 
  32:..\..\..\lvgl\version_6.1.2\lvgl/src/lv_objx/lv_sw.h **** /*********************
  33:..\..\..\lvgl\version_6.1.2\lvgl/src/lv_objx/lv_sw.h ****  *      DEFINES
  34:..\..\..\lvgl\version_6.1.2\lvgl/src/lv_objx/lv_sw.h ****  *********************/
  35:..\..\..\lvgl\version_6.1.2\lvgl/src/lv_objx/lv_sw.h **** #define LV_SW_MAX_VALUE 100
  36:..\..\..\lvgl\version_6.1.2\lvgl/src/lv_objx/lv_sw.h **** 
  37:..\..\..\lvgl\version_6.1.2\lvgl/src/lv_objx/lv_sw.h **** /**********************
  38:..\..\..\lvgl\version_6.1.2\lvgl/src/lv_objx/lv_sw.h ****  *      TYPEDEFS
  39:..\..\..\lvgl\version_6.1.2\lvgl/src/lv_objx/lv_sw.h ****  **********************/
  40:..\..\..\lvgl\version_6.1.2\lvgl/src/lv_objx/lv_sw.h **** /*Data of switch*/
  41:..\..\..\lvgl\version_6.1.2\lvgl/src/lv_objx/lv_sw.h **** typedef struct
  42:..\..\..\lvgl\version_6.1.2\lvgl/src/lv_objx/lv_sw.h **** {
  43:..\..\..\lvgl\version_6.1.2\lvgl/src/lv_objx/lv_sw.h ****     lv_slider_ext_t slider; /*Ext. of ancestor*/
  44:..\..\..\lvgl\version_6.1.2\lvgl/src/lv_objx/lv_sw.h ****     /*New data for this type */
  45:..\..\..\lvgl\version_6.1.2\lvgl/src/lv_objx/lv_sw.h ****     const lv_style_t * style_knob_off; /**< Style of the knob when the switch is OFF*/
  46:..\..\..\lvgl\version_6.1.2\lvgl/src/lv_objx/lv_sw.h ****     const lv_style_t * style_knob_on;  /**< Style of the knob when the switch is ON (NULL to use th
  47:..\..\..\lvgl\version_6.1.2\lvgl/src/lv_objx/lv_sw.h ****     lv_coord_t start_x;
  48:..\..\..\lvgl\version_6.1.2\lvgl/src/lv_objx/lv_sw.h ****     uint8_t changed : 1; /*Indicates the switch state explicitly changed by drag*/
  49:..\..\..\lvgl\version_6.1.2\lvgl/src/lv_objx/lv_sw.h ****     uint8_t slided : 1;
  50:..\..\..\lvgl\version_6.1.2\lvgl/src/lv_objx/lv_sw.h **** #if LV_USE_ANIMATION
  51:..\..\..\lvgl\version_6.1.2\lvgl/src/lv_objx/lv_sw.h ****     uint16_t anim_time; /*switch animation time */
  52:..\..\..\lvgl\version_6.1.2\lvgl/src/lv_objx/lv_sw.h **** #endif
  53:..\..\..\lvgl\version_6.1.2\lvgl/src/lv_objx/lv_sw.h **** } lv_sw_ext_t;
  54:..\..\..\lvgl\version_6.1.2\lvgl/src/lv_objx/lv_sw.h **** 
  55:..\..\..\lvgl\version_6.1.2\lvgl/src/lv_objx/lv_sw.h **** /**
  56:..\..\..\lvgl\version_6.1.2\lvgl/src/lv_objx/lv_sw.h ****  * Switch styles.
  57:..\..\..\lvgl\version_6.1.2\lvgl/src/lv_objx/lv_sw.h ****  */
  58:..\..\..\lvgl\version_6.1.2\lvgl/src/lv_objx/lv_sw.h **** enum {
  59:..\..\..\lvgl\version_6.1.2\lvgl/src/lv_objx/lv_sw.h ****     LV_SW_STYLE_BG, /**< Switch background. */
  60:..\..\..\lvgl\version_6.1.2\lvgl/src/lv_objx/lv_sw.h ****     LV_SW_STYLE_INDIC, /**< Switch fill area. */
  61:..\..\..\lvgl\version_6.1.2\lvgl/src/lv_objx/lv_sw.h ****     LV_SW_STYLE_KNOB_OFF, /**< Switch knob (when off). */
  62:..\..\..\lvgl\version_6.1.2\lvgl/src/lv_objx/lv_sw.h ****     LV_SW_STYLE_KNOB_ON, /**< Switch knob (when on). */
  63:..\..\..\lvgl\version_6.1.2\lvgl/src/lv_objx/lv_sw.h **** };
  64:..\..\..\lvgl\version_6.1.2\lvgl/src/lv_objx/lv_sw.h **** typedef uint8_t lv_sw_style_t;
  65:..\..\..\lvgl\version_6.1.2\lvgl/src/lv_objx/lv_sw.h **** 
  66:..\..\..\lvgl\version_6.1.2\lvgl/src/lv_objx/lv_sw.h **** /**********************
  67:..\..\..\lvgl\version_6.1.2\lvgl/src/lv_objx/lv_sw.h ****  * GLOBAL PROTOTYPES
  68:..\..\..\lvgl\version_6.1.2\lvgl/src/lv_objx/lv_sw.h ****  **********************/
  69:..\..\..\lvgl\version_6.1.2\lvgl/src/lv_objx/lv_sw.h **** 
  70:..\..\..\lvgl\version_6.1.2\lvgl/src/lv_objx/lv_sw.h **** /**
  71:..\..\..\lvgl\version_6.1.2\lvgl/src/lv_objx/lv_sw.h ****  * Create a switch objects
  72:..\..\..\lvgl\version_6.1.2\lvgl/src/lv_objx/lv_sw.h ****  * @param par pointer to an object, it will be the parent of the new switch
  73:..\..\..\lvgl\version_6.1.2\lvgl/src/lv_objx/lv_sw.h ****  * @param copy pointer to a switch object, if not NULL then the new object will be copied from it
  74:..\..\..\lvgl\version_6.1.2\lvgl/src/lv_objx/lv_sw.h ****  * @return pointer to the created switch
  75:..\..\..\lvgl\version_6.1.2\lvgl/src/lv_objx/lv_sw.h ****  */
  76:..\..\..\lvgl\version_6.1.2\lvgl/src/lv_objx/lv_sw.h **** lv_obj_t * lv_sw_create(lv_obj_t * par, const lv_obj_t * copy);
  77:..\..\..\lvgl\version_6.1.2\lvgl/src/lv_objx/lv_sw.h **** 
  78:..\..\..\lvgl\version_6.1.2\lvgl/src/lv_objx/lv_sw.h **** /*=====================
  79:..\..\..\lvgl\version_6.1.2\lvgl/src/lv_objx/lv_sw.h ****  * Setter functions
  80:..\..\..\lvgl\version_6.1.2\lvgl/src/lv_objx/lv_sw.h ****  *====================*/
  81:..\..\..\lvgl\version_6.1.2\lvgl/src/lv_objx/lv_sw.h **** 
  82:..\..\..\lvgl\version_6.1.2\lvgl/src/lv_objx/lv_sw.h **** /**
  83:..\..\..\lvgl\version_6.1.2\lvgl/src/lv_objx/lv_sw.h ****  * Turn ON the switch
ARM GAS  C:\Users\tmj32\AppData\Local\Temp\cc8xedyG.s 			page 22


  84:..\..\..\lvgl\version_6.1.2\lvgl/src/lv_objx/lv_sw.h ****  * @param sw pointer to a switch object
  85:..\..\..\lvgl\version_6.1.2\lvgl/src/lv_objx/lv_sw.h ****  * @param anim LV_ANIM_ON: set the value with an animation; LV_ANIM_OFF: change the value immediate
  86:..\..\..\lvgl\version_6.1.2\lvgl/src/lv_objx/lv_sw.h ****  */
  87:..\..\..\lvgl\version_6.1.2\lvgl/src/lv_objx/lv_sw.h **** void lv_sw_on(lv_obj_t * sw, lv_anim_enable_t anim);
  88:..\..\..\lvgl\version_6.1.2\lvgl/src/lv_objx/lv_sw.h **** 
  89:..\..\..\lvgl\version_6.1.2\lvgl/src/lv_objx/lv_sw.h **** /**
  90:..\..\..\lvgl\version_6.1.2\lvgl/src/lv_objx/lv_sw.h ****  * Turn OFF the switch
  91:..\..\..\lvgl\version_6.1.2\lvgl/src/lv_objx/lv_sw.h ****  * @param sw pointer to a switch object
  92:..\..\..\lvgl\version_6.1.2\lvgl/src/lv_objx/lv_sw.h ****  * @param anim LV_ANIM_ON: set the value with an animation; LV_ANIM_OFF: change the value immediate
  93:..\..\..\lvgl\version_6.1.2\lvgl/src/lv_objx/lv_sw.h ****  */
  94:..\..\..\lvgl\version_6.1.2\lvgl/src/lv_objx/lv_sw.h **** void lv_sw_off(lv_obj_t * sw, lv_anim_enable_t anim);
  95:..\..\..\lvgl\version_6.1.2\lvgl/src/lv_objx/lv_sw.h **** 
  96:..\..\..\lvgl\version_6.1.2\lvgl/src/lv_objx/lv_sw.h **** /**
  97:..\..\..\lvgl\version_6.1.2\lvgl/src/lv_objx/lv_sw.h ****  * Toggle the position of the switch
  98:..\..\..\lvgl\version_6.1.2\lvgl/src/lv_objx/lv_sw.h ****  * @param sw pointer to a switch object
  99:..\..\..\lvgl\version_6.1.2\lvgl/src/lv_objx/lv_sw.h ****  * @param anim LV_ANIM_ON: set the value with an animation; LV_ANIM_OFF: change the value immediate
 100:..\..\..\lvgl\version_6.1.2\lvgl/src/lv_objx/lv_sw.h ****  * @return resulting state of the switch.
 101:..\..\..\lvgl\version_6.1.2\lvgl/src/lv_objx/lv_sw.h ****  */
 102:..\..\..\lvgl\version_6.1.2\lvgl/src/lv_objx/lv_sw.h **** bool lv_sw_toggle(lv_obj_t * sw, lv_anim_enable_t anim);
 103:..\..\..\lvgl\version_6.1.2\lvgl/src/lv_objx/lv_sw.h **** 
 104:..\..\..\lvgl\version_6.1.2\lvgl/src/lv_objx/lv_sw.h **** /**
 105:..\..\..\lvgl\version_6.1.2\lvgl/src/lv_objx/lv_sw.h ****  * Set a style of a switch
 106:..\..\..\lvgl\version_6.1.2\lvgl/src/lv_objx/lv_sw.h ****  * @param sw pointer to a switch object
 107:..\..\..\lvgl\version_6.1.2\lvgl/src/lv_objx/lv_sw.h ****  * @param type which style should be set
 108:..\..\..\lvgl\version_6.1.2\lvgl/src/lv_objx/lv_sw.h ****  * @param style pointer to a style
 109:..\..\..\lvgl\version_6.1.2\lvgl/src/lv_objx/lv_sw.h ****  */
 110:..\..\..\lvgl\version_6.1.2\lvgl/src/lv_objx/lv_sw.h **** void lv_sw_set_style(lv_obj_t * sw, lv_sw_style_t type, const lv_style_t * style);
 111:..\..\..\lvgl\version_6.1.2\lvgl/src/lv_objx/lv_sw.h **** 
 112:..\..\..\lvgl\version_6.1.2\lvgl/src/lv_objx/lv_sw.h **** /**
 113:..\..\..\lvgl\version_6.1.2\lvgl/src/lv_objx/lv_sw.h ****  * Set the animation time of the switch
 114:..\..\..\lvgl\version_6.1.2\lvgl/src/lv_objx/lv_sw.h ****  * @param sw pointer to a  switch object
 115:..\..\..\lvgl\version_6.1.2\lvgl/src/lv_objx/lv_sw.h ****  * @param anim_time animation time
 116:..\..\..\lvgl\version_6.1.2\lvgl/src/lv_objx/lv_sw.h ****  * @return style pointer to a style
 117:..\..\..\lvgl\version_6.1.2\lvgl/src/lv_objx/lv_sw.h ****  */
 118:..\..\..\lvgl\version_6.1.2\lvgl/src/lv_objx/lv_sw.h **** void lv_sw_set_anim_time(lv_obj_t * sw, uint16_t anim_time);
 119:..\..\..\lvgl\version_6.1.2\lvgl/src/lv_objx/lv_sw.h **** 
 120:..\..\..\lvgl\version_6.1.2\lvgl/src/lv_objx/lv_sw.h **** /*=====================
 121:..\..\..\lvgl\version_6.1.2\lvgl/src/lv_objx/lv_sw.h ****  * Getter functions
 122:..\..\..\lvgl\version_6.1.2\lvgl/src/lv_objx/lv_sw.h ****  *====================*/
 123:..\..\..\lvgl\version_6.1.2\lvgl/src/lv_objx/lv_sw.h **** 
 124:..\..\..\lvgl\version_6.1.2\lvgl/src/lv_objx/lv_sw.h **** /**
 125:..\..\..\lvgl\version_6.1.2\lvgl/src/lv_objx/lv_sw.h ****  * Get the state of a switch
 126:..\..\..\lvgl\version_6.1.2\lvgl/src/lv_objx/lv_sw.h ****  * @param sw pointer to a switch object
 127:..\..\..\lvgl\version_6.1.2\lvgl/src/lv_objx/lv_sw.h ****  * @return false: OFF; true: ON
 128:..\..\..\lvgl\version_6.1.2\lvgl/src/lv_objx/lv_sw.h ****  */
 129:..\..\..\lvgl\version_6.1.2\lvgl/src/lv_objx/lv_sw.h **** static inline bool lv_sw_get_state(const lv_obj_t * sw)
 130:..\..\..\lvgl\version_6.1.2\lvgl/src/lv_objx/lv_sw.h **** {
 279              		.loc 5 130 0
 280              		.cfi_startproc
 281              		@ args = 0, pretend = 0, frame = 8
 282              		@ frame_needed = 1, uses_anonymous_args = 0
 283 0000 80B5     		push	{r7, lr}
 284              		.cfi_def_cfa_offset 8
 285              		.cfi_offset 7, -8
 286              		.cfi_offset 14, -4
 287 0002 82B0     		sub	sp, sp, #8
 288              		.cfi_def_cfa_offset 16
ARM GAS  C:\Users\tmj32\AppData\Local\Temp\cc8xedyG.s 			page 23


 289 0004 00AF     		add	r7, sp, #0
 290              		.cfi_def_cfa_register 7
 291 0006 7860     		str	r0, [r7, #4]
 131:..\..\..\lvgl\version_6.1.2\lvgl/src/lv_objx/lv_sw.h ****     return lv_bar_get_value(sw) < LV_SW_MAX_VALUE / 2 ? false : true;
 292              		.loc 5 131 0
 293 0008 7868     		ldr	r0, [r7, #4]
 294 000a FFF7FEFF 		bl	lv_bar_get_value
 295 000e 0346     		mov	r3, r0
 296 0010 312B     		cmp	r3, #49
 297 0012 CCBF     		ite	gt
 298 0014 0123     		movgt	r3, #1
 299 0016 0023     		movle	r3, #0
 300 0018 DBB2     		uxtb	r3, r3
 132:..\..\..\lvgl\version_6.1.2\lvgl/src/lv_objx/lv_sw.h **** }
 301              		.loc 5 132 0
 302 001a 1846     		mov	r0, r3
 303 001c 0837     		adds	r7, r7, #8
 304              		.cfi_def_cfa_offset 8
 305 001e BD46     		mov	sp, r7
 306              		.cfi_def_cfa_register 13
 307              		@ sp needed
 308 0020 80BD     		pop	{r7, pc}
 309              		.cfi_endproc
 310              	.LFE714:
 311              		.size	lv_sw_get_state, .-lv_sw_get_state
 312              		.global	tcnj_blue
 313 0022 00BF     		.section	.rodata
 314              		.align	2
 315              		.type	tcnj_blue, %object
 316              		.size	tcnj_blue, 3
 317              	tcnj_blue:
 318 0000 29       		.byte	41
 319 0001 3F       		.byte	63
 320 0002 6F       		.byte	111
 321              		.global	tcnj_gold
 322 0003 00       		.align	2
 323              		.type	tcnj_gold, %object
 324              		.size	tcnj_gold, 3
 325              	tcnj_gold:
 326 0004 A6       		.byte	-90
 327 0005 7A       		.byte	122
 328 0006 00       		.byte	0
 329              		.bss
 330              		.align	2
 331              	offsetLabel:
 332 0000 00000000 		.space	4
 333              		.align	2
 334              	triggerLabel:
 335 0004 00000000 		.space	4
 336              		.align	2
 337              	horiLabel1:
 338 0008 00000000 		.space	4
 339              		.align	2
 340              	vertLabel1:
 341 000c 00000000 		.space	4
 342              		.align	2
 343              	windowLabel:
ARM GAS  C:\Users\tmj32\AppData\Local\Temp\cc8xedyG.s 			page 24


 344 0010 00000000 		.space	4
 345              		.global	startup
 346              		.align	2
 347              		.type	startup, %object
 348              		.size	startup, 4
 349              	startup:
 350 0014 00000000 		.space	4
 351              		.section	.text.chart_actions,"ax",%progbits
 352              		.align	2
 353              		.thumb
 354              		.thumb_func
 355              		.type	chart_actions, %function
 356              	chart_actions:
 357              	.LFB717:
 358              		.file 6 "home_screen.c"
   1:home_screen.c **** #include <stdio.h>
   2:home_screen.c **** 
   3:home_screen.c **** #include "project.h"
   4:home_screen.c **** #include "globalStruct.h"
   5:home_screen.c **** #include "lvgl.h"
   6:home_screen.c **** #include "home_screen.h"
   7:home_screen.c **** #include "slider_activity.h"
   8:home_screen.c **** #include "math.h"
   9:home_screen.c **** 
  10:home_screen.c **** const uint8_t tcnj_blue[] = { 41, 63, 111 };
  11:home_screen.c **** const uint8_t tcnj_gold[] = { 166, 122, 0 };
  12:home_screen.c **** 
  13:home_screen.c **** static lv_obj_t * offsetLabel;
  14:home_screen.c **** static lv_obj_t * triggerLabel;
  15:home_screen.c **** static lv_obj_t * horiLabel1;
  16:home_screen.c **** static lv_obj_t * vertLabel1;
  17:home_screen.c **** static lv_obj_t * windowLabel;
  18:home_screen.c **** 
  19:home_screen.c **** int startup = 0;
  20:home_screen.c **** 
  21:home_screen.c **** static void chart_actions()
  22:home_screen.c **** {    
 359              		.loc 6 22 0
 360              		.cfi_startproc
 361              		@ args = 0, pretend = 0, frame = 32
 362              		@ frame_needed = 1, uses_anonymous_args = 0
 363 0000 90B5     		push	{r4, r7, lr}
 364              		.cfi_def_cfa_offset 12
 365              		.cfi_offset 4, -12
 366              		.cfi_offset 7, -8
 367              		.cfi_offset 14, -4
 368 0002 89B0     		sub	sp, sp, #36
 369              		.cfi_def_cfa_offset 48
 370 0004 00AF     		add	r7, sp, #0
 371              		.cfi_def_cfa_register 7
  23:home_screen.c ****     const int chart_width = 280;
 372              		.loc 6 23 0
 373 0006 4FF48C73 		mov	r3, #280
 374 000a 3B61     		str	r3, [r7, #16]
  24:home_screen.c ****     const int chart_heigth = 200;
 375              		.loc 6 24 0
 376 000c C823     		movs	r3, #200
ARM GAS  C:\Users\tmj32\AppData\Local\Temp\cc8xedyG.s 			page 25


 377 000e FB60     		str	r3, [r7, #12]
  25:home_screen.c ****     const int chart_vertPos = 20;
 378              		.loc 6 25 0
 379 0010 1423     		movs	r3, #20
 380 0012 BB60     		str	r3, [r7, #8]
  26:home_screen.c ****     const int chart_horiPos = 20;  
 381              		.loc 6 26 0
 382 0014 1423     		movs	r3, #20
 383 0016 7B60     		str	r3, [r7, #4]
  27:home_screen.c ****     
  28:home_screen.c **** 
  29:home_screen.c ****     static lv_obj_t *chart1;        //declaring the chart
  30:home_screen.c ****     if(startup == 1){
 384              		.loc 6 30 0
 385 0018 4B4B     		ldr	r3, .L18
 386 001a 1B68     		ldr	r3, [r3]
 387 001c 012B     		cmp	r3, #1
 388 001e 04D1     		bne	.L13
  31:home_screen.c ****         lv_obj_del(chart1);
 389              		.loc 6 31 0
 390 0020 4A4B     		ldr	r3, .L18+4
 391 0022 1B68     		ldr	r3, [r3]
 392 0024 1846     		mov	r0, r3
 393 0026 FFF7FEFF 		bl	lv_obj_del
 394              	.L13:
  32:home_screen.c ****     }   
  33:home_screen.c ****     
  34:home_screen.c ****     /* Display chart                         */        
  35:home_screen.c ****     chart1 = lv_chart_create(lv_scr_act(), NULL);                     //Add a chart to the current 
 395              		.loc 6 35 0
 396 002a FFF7FEFF 		bl	lv_scr_act
 397 002e 0346     		mov	r3, r0
 398 0030 0021     		movs	r1, #0
 399 0032 1846     		mov	r0, r3
 400 0034 FFF7FEFF 		bl	lv_chart_create
 401 0038 0246     		mov	r2, r0
 402 003a 444B     		ldr	r3, .L18+4
 403 003c 1A60     		str	r2, [r3]
  36:home_screen.c ****     lv_obj_set_pos(chart1, chart_horiPos, chart_vertPos);             /*Set its position*/
 404              		.loc 6 36 0
 405 003e 434B     		ldr	r3, .L18+4
 406 0040 1B68     		ldr	r3, [r3]
 407 0042 7A68     		ldr	r2, [r7, #4]
 408 0044 11B2     		sxth	r1, r2
 409 0046 BA68     		ldr	r2, [r7, #8]
 410 0048 12B2     		sxth	r2, r2
 411 004a 1846     		mov	r0, r3
 412 004c FFF7FEFF 		bl	lv_obj_set_pos
  37:home_screen.c ****     lv_obj_set_size(chart1, chart_width, chart_heigth);               /*Set its size*/ 
 413              		.loc 6 37 0
 414 0050 3E4B     		ldr	r3, .L18+4
 415 0052 1B68     		ldr	r3, [r3]
 416 0054 3A69     		ldr	r2, [r7, #16]
 417 0056 11B2     		sxth	r1, r2
 418 0058 FA68     		ldr	r2, [r7, #12]
 419 005a 12B2     		sxth	r2, r2
 420 005c 1846     		mov	r0, r3
ARM GAS  C:\Users\tmj32\AppData\Local\Temp\cc8xedyG.s 			page 26


 421 005e FFF7FEFF 		bl	lv_obj_set_size
  38:home_screen.c ****     
  39:home_screen.c ****     //GIVE IMPACT BASED ON THE VERT AND HORI SCALE
  40:home_screen.c ****     lv_chart_set_div_line_count(chart1, cm4.HoriScale+2, cm4.VertScale+2);  //sets the grid lines, 
 422              		.loc 6 40 0
 423 0062 3A4B     		ldr	r3, .L18+4
 424 0064 1868     		ldr	r0, [r3]
 425 0066 3A4B     		ldr	r3, .L18+8
 426 0068 1B7D     		ldrb	r3, [r3, #20]	@ zero_extendqisi2
 427 006a 0233     		adds	r3, r3, #2
 428 006c D9B2     		uxtb	r1, r3
 429 006e 384B     		ldr	r3, .L18+8
 430 0070 5B7D     		ldrb	r3, [r3, #21]	@ zero_extendqisi2
 431 0072 0233     		adds	r3, r3, #2
 432 0074 DBB2     		uxtb	r3, r3
 433 0076 1A46     		mov	r2, r3
 434 0078 FFF7FEFF 		bl	lv_chart_set_div_line_count
  41:home_screen.c ****     
  42:home_screen.c ****     //GIVE IMPACT BASED ON THE VERT AND HORI SCALE
  43:home_screen.c ****     lv_chart_set_point_count(chart1, cm4.windowSize);                              //setting the nu
 435              		.loc 6 43 0
 436 007c 334B     		ldr	r3, .L18+4
 437 007e 1A68     		ldr	r2, [r3]
 438 0080 334B     		ldr	r3, .L18+8
 439 0082 1B69     		ldr	r3, [r3, #16]
 440 0084 9BB2     		uxth	r3, r3
 441 0086 1946     		mov	r1, r3
 442 0088 1046     		mov	r0, r2
 443 008a FFF7FEFF 		bl	lv_chart_set_point_count
  44:home_screen.c ****     lv_chart_set_type(chart1, LV_CHART_TYPE_POINT);                    //set graph to points, as op
 444              		.loc 6 44 0
 445 008e 2F4B     		ldr	r3, .L18+4
 446 0090 1B68     		ldr	r3, [r3]
 447 0092 0421     		movs	r1, #4
 448 0094 1846     		mov	r0, r3
 449 0096 FFF7FEFF 		bl	lv_chart_set_type
  45:home_screen.c ****     
  46:home_screen.c ****     //Have the chart only display the current serie
  47:home_screen.c ****     lv_chart_series_t * s1 = lv_chart_add_series(chart1, lv_color_hex(0x01a2b1));
 450              		.loc 6 47 0
 451 009a 2C4B     		ldr	r3, .L18+4
 452 009c 1C68     		ldr	r4, [r3]
 453 009e 2D48     		ldr	r0, .L18+12
 454 00a0 FFF7FEFF 		bl	lv_color_hex
 455 00a4 0346     		mov	r3, r0
 456 00a6 1946     		mov	r1, r3
 457 00a8 2046     		mov	r0, r4
 458 00aa FFF7FEFF 		bl	lv_chart_add_series
 459 00ae 3860     		str	r0, [r7]
  48:home_screen.c ****     
  49:home_screen.c ****     lv_chart_clear_serie(chart1, s1);
 460              		.loc 6 49 0
 461 00b0 264B     		ldr	r3, .L18+4
 462 00b2 1B68     		ldr	r3, [r3]
 463 00b4 3968     		ldr	r1, [r7]
 464 00b6 1846     		mov	r0, r3
 465 00b8 FFF7FEFF 		bl	lv_chart_clear_serie
ARM GAS  C:\Users\tmj32\AppData\Local\Temp\cc8xedyG.s 			page 27


  50:home_screen.c ****     lv_chart_refresh(chart1);
 466              		.loc 6 50 0
 467 00bc 234B     		ldr	r3, .L18+4
 468 00be 1B68     		ldr	r3, [r3]
 469 00c0 1846     		mov	r0, r3
 470 00c2 FFF7FEFF 		bl	lv_chart_refresh
  51:home_screen.c ****     
  52:home_screen.c ****     
  53:home_screen.c ****     // Need to calculate the desired indexes in RxBuffer, Based on HoriScale
  54:home_screen.c ****     int windowMin = cm4.windowPos - 64;
 471              		.loc 6 54 0
 472 00c6 224B     		ldr	r3, .L18+8
 473 00c8 DB68     		ldr	r3, [r3, #12]
 474 00ca 403B     		subs	r3, r3, #64
 475 00cc FB61     		str	r3, [r7, #28]
  55:home_screen.c ****     int windowMax = cm4.windowPos + 64;
 476              		.loc 6 55 0
 477 00ce 204B     		ldr	r3, .L18+8
 478 00d0 DB68     		ldr	r3, [r3, #12]
 479 00d2 4033     		adds	r3, r3, #64
 480 00d4 BB61     		str	r3, [r7, #24]
  56:home_screen.c ****     
  57:home_screen.c ****     if(windowMin < 0){
 481              		.loc 6 57 0
 482 00d6 FB69     		ldr	r3, [r7, #28]
 483 00d8 002B     		cmp	r3, #0
 484 00da 05DA     		bge	.L14
  58:home_screen.c ****         windowMax = (windowMin * -1) + windowMax;
 485              		.loc 6 58 0
 486 00dc BA69     		ldr	r2, [r7, #24]
 487 00de FB69     		ldr	r3, [r7, #28]
 488 00e0 D31A     		subs	r3, r2, r3
 489 00e2 BB61     		str	r3, [r7, #24]
  59:home_screen.c ****         windowMin = 0;
 490              		.loc 6 59 0
 491 00e4 0023     		movs	r3, #0
 492 00e6 FB61     		str	r3, [r7, #28]
 493              	.L14:
  60:home_screen.c ****     }
  61:home_screen.c ****     //if(windowMax + 100 > pow(2, cm4.HoriScale + 6)){
  62:home_screen.c ****     if(windowMax > 1024){
 494              		.loc 6 62 0
 495 00e8 BB69     		ldr	r3, [r7, #24]
 496 00ea B3F5806F 		cmp	r3, #1024
 497 00ee 08DD     		ble	.L15
  63:home_screen.c ****         //windowMin = windowMin - (windowMax - pow(2, cm4.HoriScale + 6)); 
  64:home_screen.c ****         windowMin = windowMin - (windowMax - 1024); 
 498              		.loc 6 64 0
 499 00f0 BB69     		ldr	r3, [r7, #24]
 500 00f2 A3F58063 		sub	r3, r3, #1024
 501 00f6 FA69     		ldr	r2, [r7, #28]
 502 00f8 D31A     		subs	r3, r2, r3
 503 00fa FB61     		str	r3, [r7, #28]
  65:home_screen.c ****         //windowMax = pow(2, cm4.HoriScale + 6); 
  66:home_screen.c ****         windowMax = 1024; 
 504              		.loc 6 66 0
 505 00fc 4FF48063 		mov	r3, #1024
ARM GAS  C:\Users\tmj32\AppData\Local\Temp\cc8xedyG.s 			page 28


 506 0100 BB61     		str	r3, [r7, #24]
 507              	.L15:
 508              	.LBB2:
  67:home_screen.c ****     }
  68:home_screen.c **** 
  69:home_screen.c ****     //draw the series
  70:home_screen.c ****     for(int i = windowMin; i < windowMax; ++i){
 509              		.loc 6 70 0
 510 0102 FB69     		ldr	r3, [r7, #28]
 511 0104 7B61     		str	r3, [r7, #20]
 512 0106 14E0     		b	.L16
 513              	.L17:
  71:home_screen.c ****         lv_chart_set_next(chart1, s1, cm4.RamReadBuffer[i] + cm4.Offset);
 514              		.loc 6 71 0 discriminator 3
 515 0108 104B     		ldr	r3, .L18+4
 516 010a 1868     		ldr	r0, [r3]
 517 010c 104A     		ldr	r2, .L18+8
 518 010e 7B69     		ldr	r3, [r7, #20]
 519 0110 1344     		add	r3, r3, r2
 520 0112 4233     		adds	r3, r3, #66
 521 0114 93F90030 		ldrsb	r3, [r3]
 522 0118 1AB2     		sxth	r2, r3
 523 011a 0D4B     		ldr	r3, .L18+8
 524 011c 9B7A     		ldrb	r3, [r3, #10]	@ zero_extendqisi2
 525 011e 1BB2     		sxth	r3, r3
 526 0120 1344     		add	r3, r3, r2
 527 0122 1BB2     		sxth	r3, r3
 528 0124 1A46     		mov	r2, r3
 529 0126 3968     		ldr	r1, [r7]
 530 0128 FFF7FEFF 		bl	lv_chart_set_next
  70:home_screen.c ****         lv_chart_set_next(chart1, s1, cm4.RamReadBuffer[i] + cm4.Offset);
 531              		.loc 6 70 0 discriminator 3
 532 012c 7B69     		ldr	r3, [r7, #20]
 533 012e 0133     		adds	r3, r3, #1
 534 0130 7B61     		str	r3, [r7, #20]
 535              	.L16:
  70:home_screen.c ****         lv_chart_set_next(chart1, s1, cm4.RamReadBuffer[i] + cm4.Offset);
 536              		.loc 6 70 0 is_stmt 0 discriminator 1
 537 0132 7A69     		ldr	r2, [r7, #20]
 538 0134 BB69     		ldr	r3, [r7, #24]
 539 0136 9A42     		cmp	r2, r3
 540 0138 E6DB     		blt	.L17
 541              	.LBE2:
  72:home_screen.c ****     }   
  73:home_screen.c ****     startup = 1;
 542              		.loc 6 73 0 is_stmt 1
 543 013a 034B     		ldr	r3, .L18
 544 013c 0122     		movs	r2, #1
 545 013e 1A60     		str	r2, [r3]
  74:home_screen.c **** }
 546              		.loc 6 74 0
 547 0140 00BF     		nop
 548 0142 2437     		adds	r7, r7, #36
 549              		.cfi_def_cfa_offset 12
 550 0144 BD46     		mov	sp, r7
 551              		.cfi_def_cfa_register 13
 552              		@ sp needed
ARM GAS  C:\Users\tmj32\AppData\Local\Temp\cc8xedyG.s 			page 29


 553 0146 90BD     		pop	{r4, r7, pc}
 554              	.L19:
 555              		.align	2
 556              	.L18:
 557 0148 00000000 		.word	startup
 558 014c 18000000 		.word	chart1.20845
 559 0150 00000000 		.word	cm4
 560 0154 B1A20100 		.word	107185
 561              		.cfi_endproc
 562              	.LFE717:
 563              		.size	chart_actions, .-chart_actions
 564              		.section	.text.roller_event,"ax",%progbits
 565              		.align	2
 566              		.thumb
 567              		.thumb_func
 568              		.type	roller_event, %function
 569              	roller_event:
 570              	.LFB718:
  75:home_screen.c **** 
  76:home_screen.c **** static void roller_event(lv_obj_t * obj, lv_event_t event)
  77:home_screen.c **** {
 571              		.loc 6 77 0
 572              		.cfi_startproc
 573              		@ args = 0, pretend = 0, frame = 40
 574              		@ frame_needed = 1, uses_anonymous_args = 0
 575 0000 80B5     		push	{r7, lr}
 576              		.cfi_def_cfa_offset 8
 577              		.cfi_offset 7, -8
 578              		.cfi_offset 14, -4
 579 0002 8AB0     		sub	sp, sp, #40
 580              		.cfi_def_cfa_offset 48
 581 0004 00AF     		add	r7, sp, #0
 582              		.cfi_def_cfa_register 7
 583 0006 7860     		str	r0, [r7, #4]
 584 0008 0B46     		mov	r3, r1
 585 000a FB70     		strb	r3, [r7, #3]
  78:home_screen.c ****     if(event == (LV_EVENT_VALUE_CHANGED)) {
 586              		.loc 6 78 0
 587 000c FB78     		ldrb	r3, [r7, #3]	@ zero_extendqisi2
 588 000e 0E2B     		cmp	r3, #14
 589 0010 06D1     		bne	.L22
 590              	.LBB3:
  79:home_screen.c ****         char buf[32];
  80:home_screen.c ****         lv_roller_get_selected_str(obj, buf, sizeof(buf));
 591              		.loc 6 80 0
 592 0012 07F10803 		add	r3, r7, #8
 593 0016 2022     		movs	r2, #32
 594 0018 1946     		mov	r1, r3
 595 001a 7868     		ldr	r0, [r7, #4]
 596 001c FFF7FEFF 		bl	lv_roller_get_selected_str
 597              	.L22:
 598              	.LBE3:
  81:home_screen.c ****     }
  82:home_screen.c **** }
 599              		.loc 6 82 0
 600 0020 00BF     		nop
 601 0022 2837     		adds	r7, r7, #40
ARM GAS  C:\Users\tmj32\AppData\Local\Temp\cc8xedyG.s 			page 30


 602              		.cfi_def_cfa_offset 8
 603 0024 BD46     		mov	sp, r7
 604              		.cfi_def_cfa_register 13
 605              		@ sp needed
 606 0026 80BD     		pop	{r7, pc}
 607              		.cfi_endproc
 608              	.LFE718:
 609              		.size	roller_event, .-roller_event
 610              		.section	.rodata
 611 0007 00       		.align	2
 612              	.LC0:
 613 0008 4F6E00   		.ascii	"On\000"
 614 000b 00       		.align	2
 615              	.LC1:
 616 000c 4F666600 		.ascii	"Off\000"
 617              		.align	2
 618              	.LC2:
 619 0010 53746174 		.ascii	"State: %s\012\000"
 619      653A2025 
 619      730A00
 620              		.section	.text.sw_event_handler,"ax",%progbits
 621              		.align	2
 622              		.thumb
 623              		.thumb_func
 624              		.type	sw_event_handler, %function
 625              	sw_event_handler:
 626              	.LFB719:
  83:home_screen.c **** static void sw_event_handler(lv_obj_t * obj, lv_event_t event)
  84:home_screen.c **** {
 627              		.loc 6 84 0
 628              		.cfi_startproc
 629              		@ args = 0, pretend = 0, frame = 8
 630              		@ frame_needed = 1, uses_anonymous_args = 0
 631 0000 80B5     		push	{r7, lr}
 632              		.cfi_def_cfa_offset 8
 633              		.cfi_offset 7, -8
 634              		.cfi_offset 14, -4
 635 0002 82B0     		sub	sp, sp, #8
 636              		.cfi_def_cfa_offset 16
 637 0004 00AF     		add	r7, sp, #0
 638              		.cfi_def_cfa_register 7
 639 0006 7860     		str	r0, [r7, #4]
 640 0008 0B46     		mov	r3, r1
 641 000a FB70     		strb	r3, [r7, #3]
  85:home_screen.c ****     if(event == (LV_EVENT_VALUE_CHANGED)) {
 642              		.loc 6 85 0
 643 000c FB78     		ldrb	r3, [r7, #3]	@ zero_extendqisi2
 644 000e 0E2B     		cmp	r3, #14
 645 0010 0CD1     		bne	.L27
  86:home_screen.c ****         printf("State: %s\n", lv_sw_get_state(obj) ? "On" : "Off");
 646              		.loc 6 86 0
 647 0012 7868     		ldr	r0, [r7, #4]
 648 0014 FFF7FEFF 		bl	lv_sw_get_state
 649 0018 0346     		mov	r3, r0
 650 001a 002B     		cmp	r3, #0
 651 001c 01D0     		beq	.L25
 652              		.loc 6 86 0 is_stmt 0 discriminator 1
ARM GAS  C:\Users\tmj32\AppData\Local\Temp\cc8xedyG.s 			page 31


 653 001e 054B     		ldr	r3, .L28
 654 0020 00E0     		b	.L26
 655              	.L25:
 656              		.loc 6 86 0 discriminator 2
 657 0022 054B     		ldr	r3, .L28+4
 658              	.L26:
 659              		.loc 6 86 0 discriminator 4
 660 0024 1946     		mov	r1, r3
 661 0026 0548     		ldr	r0, .L28+8
 662 0028 FFF7FEFF 		bl	printf
 663              	.L27:
  87:home_screen.c ****         //cm4.onBit = !cm4.onBit;
  88:home_screen.c ****     }
  89:home_screen.c **** }
 664              		.loc 6 89 0 is_stmt 1
 665 002c 00BF     		nop
 666 002e 0837     		adds	r7, r7, #8
 667              		.cfi_def_cfa_offset 8
 668 0030 BD46     		mov	sp, r7
 669              		.cfi_def_cfa_register 13
 670              		@ sp needed
 671 0032 80BD     		pop	{r7, pc}
 672              	.L29:
 673              		.align	2
 674              	.L28:
 675 0034 08000000 		.word	.LC0
 676 0038 0C000000 		.word	.LC1
 677 003c 10000000 		.word	.LC2
 678              		.cfi_endproc
 679              	.LFE719:
 680              		.size	sw_event_handler, .-sw_event_handler
 681              		.section	.rodata
 682 001b 00       		.align	2
 683              	.LC3:
 684 001c 257500   		.ascii	"%u\000"
 685              		.section	.text.offset_slider_event_cb,"ax",%progbits
 686              		.align	2
 687              		.thumb
 688              		.thumb_func
 689              		.type	offset_slider_event_cb, %function
 690              	offset_slider_event_cb:
 691              	.LFB720:
  90:home_screen.c **** static void offset_slider_event_cb(lv_obj_t * slider, lv_event_t event)
  91:home_screen.c **** {
 692              		.loc 6 91 0
 693              		.cfi_startproc
 694              		@ args = 0, pretend = 0, frame = 8
 695              		@ frame_needed = 1, uses_anonymous_args = 0
 696 0000 80B5     		push	{r7, lr}
 697              		.cfi_def_cfa_offset 8
 698              		.cfi_offset 7, -8
 699              		.cfi_offset 14, -4
 700 0002 82B0     		sub	sp, sp, #8
 701              		.cfi_def_cfa_offset 16
 702 0004 00AF     		add	r7, sp, #0
 703              		.cfi_def_cfa_register 7
 704 0006 7860     		str	r0, [r7, #4]
ARM GAS  C:\Users\tmj32\AppData\Local\Temp\cc8xedyG.s 			page 32


 705 0008 0B46     		mov	r3, r1
 706 000a FB70     		strb	r3, [r7, #3]
  92:home_screen.c ****     if(event == (LV_EVENT_VALUE_CHANGED)) {
 707              		.loc 6 92 0
 708 000c FB78     		ldrb	r3, [r7, #3]	@ zero_extendqisi2
 709 000e 0E2B     		cmp	r3, #14
 710 0010 17D1     		bne	.L32
 711              	.LBB4:
  93:home_screen.c ****         static char buf[4]; /* max 3 bytes for number plus 1 null terminating byte */
  94:home_screen.c ****         snprintf(buf, 4, "%u", lv_slider_get_value(slider));
 712              		.loc 6 94 0
 713 0012 7868     		ldr	r0, [r7, #4]
 714 0014 FFF7FEFF 		bl	lv_slider_get_value
 715 0018 0346     		mov	r3, r0
 716 001a 0C4A     		ldr	r2, .L33
 717 001c 0421     		movs	r1, #4
 718 001e 0C48     		ldr	r0, .L33+4
 719 0020 FFF7FEFF 		bl	snprintf
  95:home_screen.c ****         lv_label_set_text(offsetLabel, buf);
 720              		.loc 6 95 0
 721 0024 0B4B     		ldr	r3, .L33+8
 722 0026 1B68     		ldr	r3, [r3]
 723 0028 0949     		ldr	r1, .L33+4
 724 002a 1846     		mov	r0, r3
 725 002c FFF7FEFF 		bl	lv_label_set_text
  96:home_screen.c ****         cm4.Offset = lv_slider_get_value(slider);
 726              		.loc 6 96 0
 727 0030 7868     		ldr	r0, [r7, #4]
 728 0032 FFF7FEFF 		bl	lv_slider_get_value
 729 0036 0346     		mov	r3, r0
 730 0038 DAB2     		uxtb	r2, r3
 731 003a 074B     		ldr	r3, .L33+12
 732 003c 9A72     		strb	r2, [r3, #10]
  97:home_screen.c ****         chart_actions();    //call to update the chart
 733              		.loc 6 97 0
 734 003e FFF7FEFF 		bl	chart_actions
 735              	.L32:
 736              	.LBE4:
  98:home_screen.c ****     }
  99:home_screen.c **** }
 737              		.loc 6 99 0
 738 0042 00BF     		nop
 739 0044 0837     		adds	r7, r7, #8
 740              		.cfi_def_cfa_offset 8
 741 0046 BD46     		mov	sp, r7
 742              		.cfi_def_cfa_register 13
 743              		@ sp needed
 744 0048 80BD     		pop	{r7, pc}
 745              	.L34:
 746 004a 00BF     		.align	2
 747              	.L33:
 748 004c 1C000000 		.word	.LC3
 749 0050 1C000000 		.word	buf.20866
 750 0054 00000000 		.word	offsetLabel
 751 0058 00000000 		.word	cm4
 752              		.cfi_endproc
 753              	.LFE720:
ARM GAS  C:\Users\tmj32\AppData\Local\Temp\cc8xedyG.s 			page 33


 754              		.size	offset_slider_event_cb, .-offset_slider_event_cb
 755              		.section	.text.trigger_slider_event_cb,"ax",%progbits
 756              		.align	2
 757              		.thumb
 758              		.thumb_func
 759              		.type	trigger_slider_event_cb, %function
 760              	trigger_slider_event_cb:
 761              	.LFB721:
 100:home_screen.c **** static void trigger_slider_event_cb(lv_obj_t * slider, lv_event_t event)
 101:home_screen.c **** {
 762              		.loc 6 101 0
 763              		.cfi_startproc
 764              		@ args = 0, pretend = 0, frame = 8
 765              		@ frame_needed = 1, uses_anonymous_args = 0
 766 0000 80B5     		push	{r7, lr}
 767              		.cfi_def_cfa_offset 8
 768              		.cfi_offset 7, -8
 769              		.cfi_offset 14, -4
 770 0002 82B0     		sub	sp, sp, #8
 771              		.cfi_def_cfa_offset 16
 772 0004 00AF     		add	r7, sp, #0
 773              		.cfi_def_cfa_register 7
 774 0006 7860     		str	r0, [r7, #4]
 775 0008 0B46     		mov	r3, r1
 776 000a FB70     		strb	r3, [r7, #3]
 102:home_screen.c ****     if(event == (LV_EVENT_VALUE_CHANGED)) {
 777              		.loc 6 102 0
 778 000c FB78     		ldrb	r3, [r7, #3]	@ zero_extendqisi2
 779 000e 0E2B     		cmp	r3, #14
 780 0010 17D1     		bne	.L37
 781              	.LBB5:
 103:home_screen.c ****         static char buf[4]; /* max 3 bytes for number plus 1 null terminating byte */
 104:home_screen.c ****         snprintf(buf, 4, "%u", lv_slider_get_value(slider));
 782              		.loc 6 104 0
 783 0012 7868     		ldr	r0, [r7, #4]
 784 0014 FFF7FEFF 		bl	lv_slider_get_value
 785 0018 0346     		mov	r3, r0
 786 001a 0C4A     		ldr	r2, .L38
 787 001c 0421     		movs	r1, #4
 788 001e 0C48     		ldr	r0, .L38+4
 789 0020 FFF7FEFF 		bl	snprintf
 105:home_screen.c ****         lv_label_set_text(triggerLabel, buf);
 790              		.loc 6 105 0
 791 0024 0B4B     		ldr	r3, .L38+8
 792 0026 1B68     		ldr	r3, [r3]
 793 0028 0949     		ldr	r1, .L38+4
 794 002a 1846     		mov	r0, r3
 795 002c FFF7FEFF 		bl	lv_label_set_text
 106:home_screen.c ****         cm4.Trigger = lv_slider_get_value(slider);
 796              		.loc 6 106 0
 797 0030 7868     		ldr	r0, [r7, #4]
 798 0032 FFF7FEFF 		bl	lv_slider_get_value
 799 0036 0346     		mov	r3, r0
 800 0038 DAB2     		uxtb	r2, r3
 801 003a 074B     		ldr	r3, .L38+12
 802 003c 1A71     		strb	r2, [r3, #4]
 107:home_screen.c ****         chart_actions();    //call to update the chart
ARM GAS  C:\Users\tmj32\AppData\Local\Temp\cc8xedyG.s 			page 34


 803              		.loc 6 107 0
 804 003e FFF7FEFF 		bl	chart_actions
 805              	.L37:
 806              	.LBE5:
 108:home_screen.c ****     }
 109:home_screen.c **** }
 807              		.loc 6 109 0
 808 0042 00BF     		nop
 809 0044 0837     		adds	r7, r7, #8
 810              		.cfi_def_cfa_offset 8
 811 0046 BD46     		mov	sp, r7
 812              		.cfi_def_cfa_register 13
 813              		@ sp needed
 814 0048 80BD     		pop	{r7, pc}
 815              	.L39:
 816 004a 00BF     		.align	2
 817              	.L38:
 818 004c 1C000000 		.word	.LC3
 819 0050 20000000 		.word	buf.20871
 820 0054 04000000 		.word	triggerLabel
 821 0058 00000000 		.word	cm4
 822              		.cfi_endproc
 823              	.LFE721:
 824              		.size	trigger_slider_event_cb, .-trigger_slider_event_cb
 825              		.section	.text.hori_slider_event_cb,"ax",%progbits
 826              		.align	2
 827              		.thumb
 828              		.thumb_func
 829              		.type	hori_slider_event_cb, %function
 830              	hori_slider_event_cb:
 831              	.LFB722:
 110:home_screen.c **** static void hori_slider_event_cb(lv_obj_t * slider, lv_event_t event)
 111:home_screen.c **** {
 832              		.loc 6 111 0
 833              		.cfi_startproc
 834              		@ args = 0, pretend = 0, frame = 8
 835              		@ frame_needed = 1, uses_anonymous_args = 0
 836 0000 80B5     		push	{r7, lr}
 837              		.cfi_def_cfa_offset 8
 838              		.cfi_offset 7, -8
 839              		.cfi_offset 14, -4
 840 0002 82B0     		sub	sp, sp, #8
 841              		.cfi_def_cfa_offset 16
 842 0004 00AF     		add	r7, sp, #0
 843              		.cfi_def_cfa_register 7
 844 0006 7860     		str	r0, [r7, #4]
 845 0008 0B46     		mov	r3, r1
 846 000a FB70     		strb	r3, [r7, #3]
 112:home_screen.c ****     if(event == (LV_EVENT_VALUE_CHANGED)) {
 847              		.loc 6 112 0
 848 000c FB78     		ldrb	r3, [r7, #3]	@ zero_extendqisi2
 849 000e 0E2B     		cmp	r3, #14
 850 0010 17D1     		bne	.L42
 851              	.LBB6:
 113:home_screen.c ****         static char buf[4]; /* max 3 bytes for number plus 1 null terminating byte */
 114:home_screen.c ****         snprintf(buf, 4, "%u", lv_slider_get_value(slider));
 852              		.loc 6 114 0
ARM GAS  C:\Users\tmj32\AppData\Local\Temp\cc8xedyG.s 			page 35


 853 0012 7868     		ldr	r0, [r7, #4]
 854 0014 FFF7FEFF 		bl	lv_slider_get_value
 855 0018 0346     		mov	r3, r0
 856 001a 0C4A     		ldr	r2, .L43
 857 001c 0421     		movs	r1, #4
 858 001e 0C48     		ldr	r0, .L43+4
 859 0020 FFF7FEFF 		bl	snprintf
 115:home_screen.c ****         lv_label_set_text(horiLabel1, buf);
 860              		.loc 6 115 0
 861 0024 0B4B     		ldr	r3, .L43+8
 862 0026 1B68     		ldr	r3, [r3]
 863 0028 0949     		ldr	r1, .L43+4
 864 002a 1846     		mov	r0, r3
 865 002c FFF7FEFF 		bl	lv_label_set_text
 116:home_screen.c ****         cm4.HoriScale = lv_slider_get_value(slider);
 866              		.loc 6 116 0
 867 0030 7868     		ldr	r0, [r7, #4]
 868 0032 FFF7FEFF 		bl	lv_slider_get_value
 869 0036 0346     		mov	r3, r0
 870 0038 DAB2     		uxtb	r2, r3
 871 003a 074B     		ldr	r3, .L43+12
 872 003c 1A75     		strb	r2, [r3, #20]
 117:home_screen.c ****         chart_actions();    //call to update the chart
 873              		.loc 6 117 0
 874 003e FFF7FEFF 		bl	chart_actions
 875              	.L42:
 876              	.LBE6:
 118:home_screen.c ****     }
 119:home_screen.c **** }
 877              		.loc 6 119 0
 878 0042 00BF     		nop
 879 0044 0837     		adds	r7, r7, #8
 880              		.cfi_def_cfa_offset 8
 881 0046 BD46     		mov	sp, r7
 882              		.cfi_def_cfa_register 13
 883              		@ sp needed
 884 0048 80BD     		pop	{r7, pc}
 885              	.L44:
 886 004a 00BF     		.align	2
 887              	.L43:
 888 004c 1C000000 		.word	.LC3
 889 0050 24000000 		.word	buf.20876
 890 0054 08000000 		.word	horiLabel1
 891 0058 00000000 		.word	cm4
 892              		.cfi_endproc
 893              	.LFE722:
 894              		.size	hori_slider_event_cb, .-hori_slider_event_cb
 895              		.section	.text.verti_slider_event_cb,"ax",%progbits
 896              		.align	2
 897              		.thumb
 898              		.thumb_func
 899              		.type	verti_slider_event_cb, %function
 900              	verti_slider_event_cb:
 901              	.LFB723:
 120:home_screen.c **** static void verti_slider_event_cb(lv_obj_t * slider, lv_event_t event)
 121:home_screen.c **** {
 902              		.loc 6 121 0
ARM GAS  C:\Users\tmj32\AppData\Local\Temp\cc8xedyG.s 			page 36


 903              		.cfi_startproc
 904              		@ args = 0, pretend = 0, frame = 8
 905              		@ frame_needed = 1, uses_anonymous_args = 0
 906 0000 80B5     		push	{r7, lr}
 907              		.cfi_def_cfa_offset 8
 908              		.cfi_offset 7, -8
 909              		.cfi_offset 14, -4
 910 0002 82B0     		sub	sp, sp, #8
 911              		.cfi_def_cfa_offset 16
 912 0004 00AF     		add	r7, sp, #0
 913              		.cfi_def_cfa_register 7
 914 0006 7860     		str	r0, [r7, #4]
 915 0008 0B46     		mov	r3, r1
 916 000a FB70     		strb	r3, [r7, #3]
 122:home_screen.c ****     if(event == (LV_EVENT_VALUE_CHANGED)) {
 917              		.loc 6 122 0
 918 000c FB78     		ldrb	r3, [r7, #3]	@ zero_extendqisi2
 919 000e 0E2B     		cmp	r3, #14
 920 0010 17D1     		bne	.L47
 921              	.LBB7:
 123:home_screen.c ****         static char buf[4]; /* max 3 bytes for number plus 1 null terminating byte */
 124:home_screen.c ****         snprintf(buf, 4, "%u", lv_slider_get_value(slider));
 922              		.loc 6 124 0
 923 0012 7868     		ldr	r0, [r7, #4]
 924 0014 FFF7FEFF 		bl	lv_slider_get_value
 925 0018 0346     		mov	r3, r0
 926 001a 0C4A     		ldr	r2, .L48
 927 001c 0421     		movs	r1, #4
 928 001e 0C48     		ldr	r0, .L48+4
 929 0020 FFF7FEFF 		bl	snprintf
 125:home_screen.c ****         lv_label_set_text(vertLabel1, buf);
 930              		.loc 6 125 0
 931 0024 0B4B     		ldr	r3, .L48+8
 932 0026 1B68     		ldr	r3, [r3]
 933 0028 0949     		ldr	r1, .L48+4
 934 002a 1846     		mov	r0, r3
 935 002c FFF7FEFF 		bl	lv_label_set_text
 126:home_screen.c ****         cm4.VertScale = lv_slider_get_value(slider);
 936              		.loc 6 126 0
 937 0030 7868     		ldr	r0, [r7, #4]
 938 0032 FFF7FEFF 		bl	lv_slider_get_value
 939 0036 0346     		mov	r3, r0
 940 0038 DAB2     		uxtb	r2, r3
 941 003a 074B     		ldr	r3, .L48+12
 942 003c 5A75     		strb	r2, [r3, #21]
 127:home_screen.c ****         chart_actions();    //call to update the chart
 943              		.loc 6 127 0
 944 003e FFF7FEFF 		bl	chart_actions
 945              	.L47:
 946              	.LBE7:
 128:home_screen.c ****     }
 129:home_screen.c **** }
 947              		.loc 6 129 0
 948 0042 00BF     		nop
 949 0044 0837     		adds	r7, r7, #8
 950              		.cfi_def_cfa_offset 8
 951 0046 BD46     		mov	sp, r7
ARM GAS  C:\Users\tmj32\AppData\Local\Temp\cc8xedyG.s 			page 37


 952              		.cfi_def_cfa_register 13
 953              		@ sp needed
 954 0048 80BD     		pop	{r7, pc}
 955              	.L49:
 956 004a 00BF     		.align	2
 957              	.L48:
 958 004c 1C000000 		.word	.LC3
 959 0050 28000000 		.word	buf.20881
 960 0054 0C000000 		.word	vertLabel1
 961 0058 00000000 		.word	cm4
 962              		.cfi_endproc
 963              	.LFE723:
 964              		.size	verti_slider_event_cb, .-verti_slider_event_cb
 965              		.section	.text.window_slider_event_cb,"ax",%progbits
 966              		.align	2
 967              		.thumb
 968              		.thumb_func
 969              		.type	window_slider_event_cb, %function
 970              	window_slider_event_cb:
 971              	.LFB724:
 130:home_screen.c **** static void window_slider_event_cb(lv_obj_t * slider, lv_event_t event)
 131:home_screen.c **** {
 972              		.loc 6 131 0
 973              		.cfi_startproc
 974              		@ args = 0, pretend = 0, frame = 8
 975              		@ frame_needed = 1, uses_anonymous_args = 0
 976 0000 80B5     		push	{r7, lr}
 977              		.cfi_def_cfa_offset 8
 978              		.cfi_offset 7, -8
 979              		.cfi_offset 14, -4
 980 0002 82B0     		sub	sp, sp, #8
 981              		.cfi_def_cfa_offset 16
 982 0004 00AF     		add	r7, sp, #0
 983              		.cfi_def_cfa_register 7
 984 0006 7860     		str	r0, [r7, #4]
 985 0008 0B46     		mov	r3, r1
 986 000a FB70     		strb	r3, [r7, #3]
 132:home_screen.c ****     if(event == (LV_EVENT_VALUE_CHANGED)) {
 987              		.loc 6 132 0
 988 000c FB78     		ldrb	r3, [r7, #3]	@ zero_extendqisi2
 989 000e 0E2B     		cmp	r3, #14
 990 0010 17D1     		bne	.L52
 991              	.LBB8:
 133:home_screen.c ****         static char buf[6]; /* max 3 bytes for number plus 1 null terminating byte */
 134:home_screen.c ****         snprintf(buf, 6, "%u", lv_slider_get_value(slider));
 992              		.loc 6 134 0
 993 0012 7868     		ldr	r0, [r7, #4]
 994 0014 FFF7FEFF 		bl	lv_slider_get_value
 995 0018 0346     		mov	r3, r0
 996 001a 0C4A     		ldr	r2, .L53
 997 001c 0621     		movs	r1, #6
 998 001e 0C48     		ldr	r0, .L53+4
 999 0020 FFF7FEFF 		bl	snprintf
 135:home_screen.c ****         lv_label_set_text(windowLabel, buf);
 1000              		.loc 6 135 0
 1001 0024 0B4B     		ldr	r3, .L53+8
 1002 0026 1B68     		ldr	r3, [r3]
ARM GAS  C:\Users\tmj32\AppData\Local\Temp\cc8xedyG.s 			page 38


 1003 0028 0949     		ldr	r1, .L53+4
 1004 002a 1846     		mov	r0, r3
 1005 002c FFF7FEFF 		bl	lv_label_set_text
 136:home_screen.c ****         cm4.windowPos = lv_slider_get_value(slider);
 1006              		.loc 6 136 0
 1007 0030 7868     		ldr	r0, [r7, #4]
 1008 0032 FFF7FEFF 		bl	lv_slider_get_value
 1009 0036 0346     		mov	r3, r0
 1010 0038 1A46     		mov	r2, r3
 1011 003a 074B     		ldr	r3, .L53+12
 1012 003c DA60     		str	r2, [r3, #12]
 137:home_screen.c ****         chart_actions();    //call to update the chart
 1013              		.loc 6 137 0
 1014 003e FFF7FEFF 		bl	chart_actions
 1015              	.L52:
 1016              	.LBE8:
 138:home_screen.c ****     }
 139:home_screen.c **** }
 1017              		.loc 6 139 0
 1018 0042 00BF     		nop
 1019 0044 0837     		adds	r7, r7, #8
 1020              		.cfi_def_cfa_offset 8
 1021 0046 BD46     		mov	sp, r7
 1022              		.cfi_def_cfa_register 13
 1023              		@ sp needed
 1024 0048 80BD     		pop	{r7, pc}
 1025              	.L54:
 1026 004a 00BF     		.align	2
 1027              	.L53:
 1028 004c 1C000000 		.word	.LC3
 1029 0050 2C000000 		.word	buf.20886
 1030 0054 10000000 		.word	windowLabel
 1031 0058 00000000 		.word	cm4
 1032              		.cfi_endproc
 1033              	.LFE724:
 1034              		.size	window_slider_event_cb, .-window_slider_event_cb
 1035              		.section	.rodata
 1036 001f 00       		.align	2
 1037              	.LC4:
 1038 0020 3000     		.ascii	"0\000"
 1039 0022 0000     		.align	2
 1040              	.LC5:
 1041 0024 4F666673 		.ascii	"Offset:\000"
 1041      65743A00 
 1042              		.align	2
 1043              	.LC6:
 1044 002c 3500     		.ascii	"5\000"
 1045 002e 0000     		.align	2
 1046              	.LC7:
 1047 0030 54726967 		.ascii	"Trigger: \000"
 1047      6765723A 
 1047      2000
 1048 003a 0000     		.align	2
 1049              	.LC8:
 1050 003c 3400     		.ascii	"4\000"
 1051 003e 0000     		.align	2
 1052              	.LC9:
ARM GAS  C:\Users\tmj32\AppData\Local\Temp\cc8xedyG.s 			page 39


 1053 0040 486F7269 		.ascii	"Hori. Scale: \000"
 1053      2E205363 
 1053      616C653A 
 1053      2000
 1054 004e 0000     		.align	2
 1055              	.LC10:
 1056 0050 3200     		.ascii	"2\000"
 1057 0052 0000     		.align	2
 1058              	.LC11:
 1059 0054 56657274 		.ascii	"Vert. Scale: \000"
 1059      2E205363 
 1059      616C653A 
 1059      2000
 1060 0062 0000     		.align	2
 1061              	.LC12:
 1062 0064 35313200 		.ascii	"512\000"
 1063              		.align	2
 1064              	.LC13:
 1065 0068 4F6E5C4F 		.ascii	"On\\Off\000"
 1065      666600
 1066 006f 00       		.align	2
 1067              	.LC14:
 1068 0070 52697369 		.ascii	"Rising\012Falling\012Threshold\000"
 1068      6E670A46 
 1068      616C6C69 
 1068      6E670A54 
 1068      68726573 
 1069              		.section	.text.home_screen,"ax",%progbits
 1070              		.align	2
 1071              		.global	home_screen
 1072              		.thumb
 1073              		.thumb_func
 1074              		.type	home_screen, %function
 1075              	home_screen:
 1076              	.LFB725:
 140:home_screen.c **** 
 141:home_screen.c **** void home_screen()
 142:home_screen.c **** {    
 1077              		.loc 6 142 0
 1078              		.cfi_startproc
 1079              		@ args = 0, pretend = 0, frame = 48
 1080              		@ frame_needed = 1, uses_anonymous_args = 0
 1081 0000 80B5     		push	{r7, lr}
 1082              		.cfi_def_cfa_offset 8
 1083              		.cfi_offset 7, -8
 1084              		.cfi_offset 14, -4
 1085 0002 8EB0     		sub	sp, sp, #56
 1086              		.cfi_def_cfa_offset 64
 1087 0004 02AF     		add	r7, sp, #8
 1088              		.cfi_def_cfa 7, 56
 143:home_screen.c ****     /* First Slider: Offset */
 144:home_screen.c ****     lv_obj_t * offsetSlider = lv_slider_create(lv_scr_act(), NULL);
 1089              		.loc 6 144 0
 1090 0006 FFF7FEFF 		bl	lv_scr_act
 1091 000a 0346     		mov	r3, r0
 1092 000c 0021     		movs	r1, #0
 1093 000e 1846     		mov	r0, r3
ARM GAS  C:\Users\tmj32\AppData\Local\Temp\cc8xedyG.s 			page 40


 1094 0010 FFF7FEFF 		bl	lv_slider_create
 1095 0014 F862     		str	r0, [r7, #44]
 145:home_screen.c ****     lv_obj_set_pos(offsetSlider, 20, 295);                         /*Set its position*/
 1096              		.loc 6 145 0
 1097 0016 40F22712 		movw	r2, #295
 1098 001a 1421     		movs	r1, #20
 1099 001c F86A     		ldr	r0, [r7, #44]
 1100 001e FFF7FEFF 		bl	lv_obj_set_pos
 146:home_screen.c ****     lv_obj_set_size(offsetSlider, 130, 30);                        /*Set its size*/
 1101              		.loc 6 146 0
 1102 0022 1E22     		movs	r2, #30
 1103 0024 8221     		movs	r1, #130
 1104 0026 F86A     		ldr	r0, [r7, #44]
 1105 0028 FFF7FEFF 		bl	lv_obj_set_size
 147:home_screen.c ****     lv_slider_set_value(offsetSlider, 0, LV_ANIM_ON);
 1106              		.loc 6 147 0
 1107 002c 0122     		movs	r2, #1
 1108 002e 0021     		movs	r1, #0
 1109 0030 F86A     		ldr	r0, [r7, #44]
 1110 0032 FFF7FEFF 		bl	lv_slider_set_value
 148:home_screen.c ****     lv_obj_set_event_cb(offsetSlider, offset_slider_event_cb);
 1111              		.loc 6 148 0
 1112 0036 C549     		ldr	r1, .L56
 1113 0038 F86A     		ldr	r0, [r7, #44]
 1114 003a FFF7FEFF 		bl	lv_obj_set_event_cb
 149:home_screen.c ****     lv_slider_set_range(offsetSlider, 0, 10);
 1115              		.loc 6 149 0
 1116 003e 0A22     		movs	r2, #10
 1117 0040 0021     		movs	r1, #0
 1118 0042 F86A     		ldr	r0, [r7, #44]
 1119 0044 FFF7FEFF 		bl	lv_slider_set_range
 150:home_screen.c ****         
 151:home_screen.c ****             /* Create a label below the slider */
 152:home_screen.c ****             offsetLabel = lv_label_create(lv_scr_act(), NULL);
 1120              		.loc 6 152 0
 1121 0048 FFF7FEFF 		bl	lv_scr_act
 1122 004c 0346     		mov	r3, r0
 1123 004e 0021     		movs	r1, #0
 1124 0050 1846     		mov	r0, r3
 1125 0052 FFF7FEFF 		bl	lv_label_create
 1126 0056 0246     		mov	r2, r0
 1127 0058 BD4B     		ldr	r3, .L56+4
 1128 005a 1A60     		str	r2, [r3]
 153:home_screen.c ****             lv_label_set_text(offsetLabel, "0");
 1129              		.loc 6 153 0
 1130 005c BC4B     		ldr	r3, .L56+4
 1131 005e 1B68     		ldr	r3, [r3]
 1132 0060 BC49     		ldr	r1, .L56+8
 1133 0062 1846     		mov	r0, r3
 1134 0064 FFF7FEFF 		bl	lv_label_set_text
 154:home_screen.c ****             lv_obj_set_auto_realign(offsetLabel, true);
 1135              		.loc 6 154 0
 1136 0068 B94B     		ldr	r3, .L56+4
 1137 006a 1B68     		ldr	r3, [r3]
 1138 006c 0121     		movs	r1, #1
 1139 006e 1846     		mov	r0, r3
 1140 0070 FFF7FEFF 		bl	lv_obj_set_auto_realign
ARM GAS  C:\Users\tmj32\AppData\Local\Temp\cc8xedyG.s 			page 41


 155:home_screen.c ****             lv_obj_align(offsetLabel, offsetSlider, LV_ALIGN_OUT_BOTTOM_MID, 0, 0);
 1141              		.loc 6 155 0
 1142 0074 B64B     		ldr	r3, .L56+4
 1143 0076 1868     		ldr	r0, [r3]
 1144 0078 0023     		movs	r3, #0
 1145 007a 0093     		str	r3, [sp]
 1146 007c 0023     		movs	r3, #0
 1147 007e 0D22     		movs	r2, #13
 1148 0080 F96A     		ldr	r1, [r7, #44]
 1149 0082 FFF7FEFF 		bl	lv_obj_align
 156:home_screen.c ****         
 157:home_screen.c ****             /* Create a label above the slider */
 158:home_screen.c ****         	lv_obj_t* offsetLabel2 = lv_label_create(lv_scr_act(), NULL);
 1150              		.loc 6 158 0
 1151 0086 FFF7FEFF 		bl	lv_scr_act
 1152 008a 0346     		mov	r3, r0
 1153 008c 0021     		movs	r1, #0
 1154 008e 1846     		mov	r0, r3
 1155 0090 FFF7FEFF 		bl	lv_label_create
 1156 0094 B862     		str	r0, [r7, #40]
 159:home_screen.c ****         	lv_obj_set_drag(offsetLabel2, false);
 1157              		.loc 6 159 0
 1158 0096 0021     		movs	r1, #0
 1159 0098 B86A     		ldr	r0, [r7, #40]
 1160 009a FFF7FEFF 		bl	lv_obj_set_drag
 160:home_screen.c ****             lv_label_set_text(offsetLabel2, "Offset:");
 1161              		.loc 6 160 0
 1162 009e AE49     		ldr	r1, .L56+12
 1163 00a0 B86A     		ldr	r0, [r7, #40]
 1164 00a2 FFF7FEFF 		bl	lv_label_set_text
 161:home_screen.c ****             lv_label_set_long_mode(offsetLabel2, LV_LABEL_LONG_EXPAND);
 1165              		.loc 6 161 0
 1166 00a6 0021     		movs	r1, #0
 1167 00a8 B86A     		ldr	r0, [r7, #40]
 1168 00aa FFF7FEFF 		bl	lv_label_set_long_mode
 162:home_screen.c ****             lv_obj_align(offsetLabel2, offsetSlider, LV_ALIGN_OUT_TOP_MID, 0, 0);                  
 1169              		.loc 6 162 0
 1170 00ae 0023     		movs	r3, #0
 1171 00b0 0093     		str	r3, [sp]
 1172 00b2 0023     		movs	r3, #0
 1173 00b4 0A22     		movs	r2, #10
 1174 00b6 F96A     		ldr	r1, [r7, #44]
 1175 00b8 B86A     		ldr	r0, [r7, #40]
 1176 00ba FFF7FEFF 		bl	lv_obj_align
 163:home_screen.c ****     
 164:home_screen.c ****             
 165:home_screen.c ****             
 166:home_screen.c ****     /* Second Slider: Trigger */
 167:home_screen.c ****     lv_obj_t * triggerSlider = lv_slider_create(lv_scr_act(), NULL);
 1177              		.loc 6 167 0
 1178 00be FFF7FEFF 		bl	lv_scr_act
 1179 00c2 0346     		mov	r3, r0
 1180 00c4 0021     		movs	r1, #0
 1181 00c6 1846     		mov	r0, r3
 1182 00c8 FFF7FEFF 		bl	lv_slider_create
 1183 00cc 7862     		str	r0, [r7, #36]
 168:home_screen.c ****     lv_obj_set_pos(triggerSlider, 170, 295);                         /*Set its position*/
ARM GAS  C:\Users\tmj32\AppData\Local\Temp\cc8xedyG.s 			page 42


 1184              		.loc 6 168 0
 1185 00ce 40F22712 		movw	r2, #295
 1186 00d2 AA21     		movs	r1, #170
 1187 00d4 786A     		ldr	r0, [r7, #36]
 1188 00d6 FFF7FEFF 		bl	lv_obj_set_pos
 169:home_screen.c ****     lv_obj_set_size(triggerSlider, 130, 30);                        /*Set its size*/
 1189              		.loc 6 169 0
 1190 00da 1E22     		movs	r2, #30
 1191 00dc 8221     		movs	r1, #130
 1192 00de 786A     		ldr	r0, [r7, #36]
 1193 00e0 FFF7FEFF 		bl	lv_obj_set_size
 170:home_screen.c ****     lv_slider_set_value(triggerSlider, 5, LV_ANIM_ON);
 1194              		.loc 6 170 0
 1195 00e4 0122     		movs	r2, #1
 1196 00e6 0521     		movs	r1, #5
 1197 00e8 786A     		ldr	r0, [r7, #36]
 1198 00ea FFF7FEFF 		bl	lv_slider_set_value
 171:home_screen.c ****     lv_obj_set_event_cb(triggerSlider, trigger_slider_event_cb);
 1199              		.loc 6 171 0
 1200 00ee 9B49     		ldr	r1, .L56+16
 1201 00f0 786A     		ldr	r0, [r7, #36]
 1202 00f2 FFF7FEFF 		bl	lv_obj_set_event_cb
 172:home_screen.c ****     lv_slider_set_range(triggerSlider, 0, 10);
 1203              		.loc 6 172 0
 1204 00f6 0A22     		movs	r2, #10
 1205 00f8 0021     		movs	r1, #0
 1206 00fa 786A     		ldr	r0, [r7, #36]
 1207 00fc FFF7FEFF 		bl	lv_slider_set_range
 173:home_screen.c ****     
 174:home_screen.c ****             /* Create a label below the slider */
 175:home_screen.c ****             triggerLabel = lv_label_create(lv_scr_act(), NULL);
 1208              		.loc 6 175 0
 1209 0100 FFF7FEFF 		bl	lv_scr_act
 1210 0104 0346     		mov	r3, r0
 1211 0106 0021     		movs	r1, #0
 1212 0108 1846     		mov	r0, r3
 1213 010a FFF7FEFF 		bl	lv_label_create
 1214 010e 0246     		mov	r2, r0
 1215 0110 934B     		ldr	r3, .L56+20
 1216 0112 1A60     		str	r2, [r3]
 176:home_screen.c ****             lv_label_set_text(triggerLabel, "5");
 1217              		.loc 6 176 0
 1218 0114 924B     		ldr	r3, .L56+20
 1219 0116 1B68     		ldr	r3, [r3]
 1220 0118 9249     		ldr	r1, .L56+24
 1221 011a 1846     		mov	r0, r3
 1222 011c FFF7FEFF 		bl	lv_label_set_text
 177:home_screen.c ****             lv_obj_set_auto_realign(triggerLabel, true);
 1223              		.loc 6 177 0
 1224 0120 8F4B     		ldr	r3, .L56+20
 1225 0122 1B68     		ldr	r3, [r3]
 1226 0124 0121     		movs	r1, #1
 1227 0126 1846     		mov	r0, r3
 1228 0128 FFF7FEFF 		bl	lv_obj_set_auto_realign
 178:home_screen.c ****             lv_obj_align(triggerLabel, triggerSlider, LV_ALIGN_OUT_BOTTOM_MID, 0, 0);
 1229              		.loc 6 178 0
 1230 012c 8C4B     		ldr	r3, .L56+20
ARM GAS  C:\Users\tmj32\AppData\Local\Temp\cc8xedyG.s 			page 43


 1231 012e 1868     		ldr	r0, [r3]
 1232 0130 0023     		movs	r3, #0
 1233 0132 0093     		str	r3, [sp]
 1234 0134 0023     		movs	r3, #0
 1235 0136 0D22     		movs	r2, #13
 1236 0138 796A     		ldr	r1, [r7, #36]
 1237 013a FFF7FEFF 		bl	lv_obj_align
 179:home_screen.c ****             
 180:home_screen.c ****             /* Create a label above the slider */
 181:home_screen.c ****         	lv_obj_t* triggerLabel2 = lv_label_create(lv_scr_act(), NULL);
 1238              		.loc 6 181 0
 1239 013e FFF7FEFF 		bl	lv_scr_act
 1240 0142 0346     		mov	r3, r0
 1241 0144 0021     		movs	r1, #0
 1242 0146 1846     		mov	r0, r3
 1243 0148 FFF7FEFF 		bl	lv_label_create
 1244 014c 3862     		str	r0, [r7, #32]
 182:home_screen.c ****         	lv_obj_set_drag(triggerLabel2, false);
 1245              		.loc 6 182 0
 1246 014e 0021     		movs	r1, #0
 1247 0150 386A     		ldr	r0, [r7, #32]
 1248 0152 FFF7FEFF 		bl	lv_obj_set_drag
 183:home_screen.c ****             lv_label_set_text(triggerLabel2, "Trigger: ");
 1249              		.loc 6 183 0
 1250 0156 8449     		ldr	r1, .L56+28
 1251 0158 386A     		ldr	r0, [r7, #32]
 1252 015a FFF7FEFF 		bl	lv_label_set_text
 184:home_screen.c ****             lv_obj_align(triggerLabel2, triggerSlider, LV_ALIGN_OUT_TOP_MID, 0, 0); 
 1253              		.loc 6 184 0
 1254 015e 0023     		movs	r3, #0
 1255 0160 0093     		str	r3, [sp]
 1256 0162 0023     		movs	r3, #0
 1257 0164 0A22     		movs	r2, #10
 1258 0166 796A     		ldr	r1, [r7, #36]
 1259 0168 386A     		ldr	r0, [r7, #32]
 1260 016a FFF7FEFF 		bl	lv_obj_align
 185:home_screen.c **** 
 186:home_screen.c ****     
 187:home_screen.c ****             
 188:home_screen.c ****     /* Third Slider: Hori. Scale */
 189:home_screen.c ****     lv_obj_t * horiSlider = lv_slider_create(lv_scr_act(), NULL);
 1261              		.loc 6 189 0
 1262 016e FFF7FEFF 		bl	lv_scr_act
 1263 0172 0346     		mov	r3, r0
 1264 0174 0021     		movs	r1, #0
 1265 0176 1846     		mov	r0, r3
 1266 0178 FFF7FEFF 		bl	lv_slider_create
 1267 017c F861     		str	r0, [r7, #28]
 190:home_screen.c ****     lv_obj_set_pos(horiSlider, 20, 375);                         /*Set its position*/
 1268              		.loc 6 190 0
 1269 017e 40F27712 		movw	r2, #375
 1270 0182 1421     		movs	r1, #20
 1271 0184 F869     		ldr	r0, [r7, #28]
 1272 0186 FFF7FEFF 		bl	lv_obj_set_pos
 191:home_screen.c ****     lv_obj_set_size(horiSlider, 130, 30);                        /*Set its size*/
 1273              		.loc 6 191 0
 1274 018a 1E22     		movs	r2, #30
ARM GAS  C:\Users\tmj32\AppData\Local\Temp\cc8xedyG.s 			page 44


 1275 018c 8221     		movs	r1, #130
 1276 018e F869     		ldr	r0, [r7, #28]
 1277 0190 FFF7FEFF 		bl	lv_obj_set_size
 192:home_screen.c ****     lv_slider_set_value(horiSlider, 4, LV_ANIM_ON);
 1278              		.loc 6 192 0
 1279 0194 0122     		movs	r2, #1
 1280 0196 0421     		movs	r1, #4
 1281 0198 F869     		ldr	r0, [r7, #28]
 1282 019a FFF7FEFF 		bl	lv_slider_set_value
 193:home_screen.c ****     lv_obj_set_event_cb(horiSlider, hori_slider_event_cb);
 1283              		.loc 6 193 0
 1284 019e 7349     		ldr	r1, .L56+32
 1285 01a0 F869     		ldr	r0, [r7, #28]
 1286 01a2 FFF7FEFF 		bl	lv_obj_set_event_cb
 194:home_screen.c ****     lv_slider_set_range(horiSlider, 0, 8);                      // 11 options for the 11 different 
 1287              		.loc 6 194 0
 1288 01a6 0822     		movs	r2, #8
 1289 01a8 0021     		movs	r1, #0
 1290 01aa F869     		ldr	r0, [r7, #28]
 1291 01ac FFF7FEFF 		bl	lv_slider_set_range
 195:home_screen.c ****     
 196:home_screen.c ****             /* Create a label below the slider */
 197:home_screen.c ****             horiLabel1 = lv_label_create(lv_scr_act(), NULL);
 1292              		.loc 6 197 0
 1293 01b0 FFF7FEFF 		bl	lv_scr_act
 1294 01b4 0346     		mov	r3, r0
 1295 01b6 0021     		movs	r1, #0
 1296 01b8 1846     		mov	r0, r3
 1297 01ba FFF7FEFF 		bl	lv_label_create
 1298 01be 0246     		mov	r2, r0
 1299 01c0 6B4B     		ldr	r3, .L56+36
 1300 01c2 1A60     		str	r2, [r3]
 198:home_screen.c ****             lv_label_set_text(horiLabel1, "4");
 1301              		.loc 6 198 0
 1302 01c4 6A4B     		ldr	r3, .L56+36
 1303 01c6 1B68     		ldr	r3, [r3]
 1304 01c8 6A49     		ldr	r1, .L56+40
 1305 01ca 1846     		mov	r0, r3
 1306 01cc FFF7FEFF 		bl	lv_label_set_text
 199:home_screen.c ****             lv_obj_set_auto_realign(horiLabel1, true);
 1307              		.loc 6 199 0
 1308 01d0 674B     		ldr	r3, .L56+36
 1309 01d2 1B68     		ldr	r3, [r3]
 1310 01d4 0121     		movs	r1, #1
 1311 01d6 1846     		mov	r0, r3
 1312 01d8 FFF7FEFF 		bl	lv_obj_set_auto_realign
 200:home_screen.c ****             lv_obj_align(horiLabel1, horiSlider, LV_ALIGN_OUT_BOTTOM_MID, 0, 0);
 1313              		.loc 6 200 0
 1314 01dc 644B     		ldr	r3, .L56+36
 1315 01de 1868     		ldr	r0, [r3]
 1316 01e0 0023     		movs	r3, #0
 1317 01e2 0093     		str	r3, [sp]
 1318 01e4 0023     		movs	r3, #0
 1319 01e6 0D22     		movs	r2, #13
 1320 01e8 F969     		ldr	r1, [r7, #28]
 1321 01ea FFF7FEFF 		bl	lv_obj_align
 201:home_screen.c ****             
ARM GAS  C:\Users\tmj32\AppData\Local\Temp\cc8xedyG.s 			page 45


 202:home_screen.c ****             /* Create a label above the slider */
 203:home_screen.c ****         	lv_obj_t* horiLabel2 = lv_label_create(lv_scr_act(), NULL);
 1322              		.loc 6 203 0
 1323 01ee FFF7FEFF 		bl	lv_scr_act
 1324 01f2 0346     		mov	r3, r0
 1325 01f4 0021     		movs	r1, #0
 1326 01f6 1846     		mov	r0, r3
 1327 01f8 FFF7FEFF 		bl	lv_label_create
 1328 01fc B861     		str	r0, [r7, #24]
 204:home_screen.c ****         	lv_obj_set_drag(horiLabel2, false);
 1329              		.loc 6 204 0
 1330 01fe 0021     		movs	r1, #0
 1331 0200 B869     		ldr	r0, [r7, #24]
 1332 0202 FFF7FEFF 		bl	lv_obj_set_drag
 205:home_screen.c ****             lv_label_set_text(horiLabel2, "Hori. Scale: ");
 1333              		.loc 6 205 0
 1334 0206 5C49     		ldr	r1, .L56+44
 1335 0208 B869     		ldr	r0, [r7, #24]
 1336 020a FFF7FEFF 		bl	lv_label_set_text
 206:home_screen.c ****             lv_obj_align(horiLabel2, horiSlider, LV_ALIGN_OUT_TOP_MID, 0, 0);
 1337              		.loc 6 206 0
 1338 020e 0023     		movs	r3, #0
 1339 0210 0093     		str	r3, [sp]
 1340 0212 0023     		movs	r3, #0
 1341 0214 0A22     		movs	r2, #10
 1342 0216 F969     		ldr	r1, [r7, #28]
 1343 0218 B869     		ldr	r0, [r7, #24]
 1344 021a FFF7FEFF 		bl	lv_obj_align
 207:home_screen.c ****     
 208:home_screen.c ****             
 209:home_screen.c ****             
 210:home_screen.c ****     /* Fourth Slider: Vert. Scale */
 211:home_screen.c ****     lv_obj_t * vertSlider = lv_slider_create(lv_scr_act(), NULL);
 1345              		.loc 6 211 0
 1346 021e FFF7FEFF 		bl	lv_scr_act
 1347 0222 0346     		mov	r3, r0
 1348 0224 0021     		movs	r1, #0
 1349 0226 1846     		mov	r0, r3
 1350 0228 FFF7FEFF 		bl	lv_slider_create
 1351 022c 7861     		str	r0, [r7, #20]
 212:home_screen.c ****     lv_obj_set_pos(vertSlider, 170, 375);                         /*Set its position*/
 1352              		.loc 6 212 0
 1353 022e 40F27712 		movw	r2, #375
 1354 0232 AA21     		movs	r1, #170
 1355 0234 7869     		ldr	r0, [r7, #20]
 1356 0236 FFF7FEFF 		bl	lv_obj_set_pos
 213:home_screen.c ****     lv_obj_set_size(vertSlider, 130, 30);                        /*Set its size*/
 1357              		.loc 6 213 0
 1358 023a 1E22     		movs	r2, #30
 1359 023c 8221     		movs	r1, #130
 1360 023e 7869     		ldr	r0, [r7, #20]
 1361 0240 FFF7FEFF 		bl	lv_obj_set_size
 214:home_screen.c ****     lv_slider_set_value(vertSlider, 2, LV_ANIM_ON);
 1362              		.loc 6 214 0
 1363 0244 0122     		movs	r2, #1
 1364 0246 0221     		movs	r1, #2
 1365 0248 7869     		ldr	r0, [r7, #20]
ARM GAS  C:\Users\tmj32\AppData\Local\Temp\cc8xedyG.s 			page 46


 1366 024a FFF7FEFF 		bl	lv_slider_set_value
 215:home_screen.c ****     lv_obj_set_event_cb(vertSlider, verti_slider_event_cb);
 1367              		.loc 6 215 0
 1368 024e 4B49     		ldr	r1, .L56+48
 1369 0250 7869     		ldr	r0, [r7, #20]
 1370 0252 FFF7FEFF 		bl	lv_obj_set_event_cb
 216:home_screen.c ****     lv_slider_set_range(vertSlider, 0, 4);
 1371              		.loc 6 216 0
 1372 0256 0422     		movs	r2, #4
 1373 0258 0021     		movs	r1, #0
 1374 025a 7869     		ldr	r0, [r7, #20]
 1375 025c FFF7FEFF 		bl	lv_slider_set_range
 217:home_screen.c ****     
 218:home_screen.c ****             /* Create a label below the slider */
 219:home_screen.c ****             vertLabel1 = lv_label_create(lv_scr_act(), NULL);
 1376              		.loc 6 219 0
 1377 0260 FFF7FEFF 		bl	lv_scr_act
 1378 0264 0346     		mov	r3, r0
 1379 0266 0021     		movs	r1, #0
 1380 0268 1846     		mov	r0, r3
 1381 026a FFF7FEFF 		bl	lv_label_create
 1382 026e 0246     		mov	r2, r0
 1383 0270 434B     		ldr	r3, .L56+52
 1384 0272 1A60     		str	r2, [r3]
 220:home_screen.c ****             lv_label_set_text(vertLabel1, "2");
 1385              		.loc 6 220 0
 1386 0274 424B     		ldr	r3, .L56+52
 1387 0276 1B68     		ldr	r3, [r3]
 1388 0278 4249     		ldr	r1, .L56+56
 1389 027a 1846     		mov	r0, r3
 1390 027c FFF7FEFF 		bl	lv_label_set_text
 221:home_screen.c ****             lv_obj_set_auto_realign(vertLabel1, true);
 1391              		.loc 6 221 0
 1392 0280 3F4B     		ldr	r3, .L56+52
 1393 0282 1B68     		ldr	r3, [r3]
 1394 0284 0121     		movs	r1, #1
 1395 0286 1846     		mov	r0, r3
 1396 0288 FFF7FEFF 		bl	lv_obj_set_auto_realign
 222:home_screen.c ****             lv_obj_align(vertLabel1, vertSlider, LV_ALIGN_OUT_BOTTOM_MID, 0, 0);
 1397              		.loc 6 222 0
 1398 028c 3C4B     		ldr	r3, .L56+52
 1399 028e 1868     		ldr	r0, [r3]
 1400 0290 0023     		movs	r3, #0
 1401 0292 0093     		str	r3, [sp]
 1402 0294 0023     		movs	r3, #0
 1403 0296 0D22     		movs	r2, #13
 1404 0298 7969     		ldr	r1, [r7, #20]
 1405 029a FFF7FEFF 		bl	lv_obj_align
 223:home_screen.c ****             
 224:home_screen.c ****             /* Create a label above the slider */
 225:home_screen.c ****         	lv_obj_t* vertLabel2 = lv_label_create(lv_scr_act(), NULL);
 1406              		.loc 6 225 0
 1407 029e FFF7FEFF 		bl	lv_scr_act
 1408 02a2 0346     		mov	r3, r0
 1409 02a4 0021     		movs	r1, #0
 1410 02a6 1846     		mov	r0, r3
 1411 02a8 FFF7FEFF 		bl	lv_label_create
ARM GAS  C:\Users\tmj32\AppData\Local\Temp\cc8xedyG.s 			page 47


 1412 02ac 3861     		str	r0, [r7, #16]
 226:home_screen.c ****         	lv_obj_set_drag(vertLabel2, false);
 1413              		.loc 6 226 0
 1414 02ae 0021     		movs	r1, #0
 1415 02b0 3869     		ldr	r0, [r7, #16]
 1416 02b2 FFF7FEFF 		bl	lv_obj_set_drag
 227:home_screen.c ****             lv_label_set_text(vertLabel2, "Vert. Scale: ");
 1417              		.loc 6 227 0
 1418 02b6 3449     		ldr	r1, .L56+60
 1419 02b8 3869     		ldr	r0, [r7, #16]
 1420 02ba FFF7FEFF 		bl	lv_label_set_text
 228:home_screen.c ****             lv_obj_align(vertLabel2, vertSlider, LV_ALIGN_OUT_TOP_MID, 0, 0);
 1421              		.loc 6 228 0
 1422 02be 0023     		movs	r3, #0
 1423 02c0 0093     		str	r3, [sp]
 1424 02c2 0023     		movs	r3, #0
 1425 02c4 0A22     		movs	r2, #10
 1426 02c6 7969     		ldr	r1, [r7, #20]
 1427 02c8 3869     		ldr	r0, [r7, #16]
 1428 02ca FFF7FEFF 		bl	lv_obj_align
 229:home_screen.c ****     
 230:home_screen.c ****         
 231:home_screen.c ****             
 232:home_screen.c ****     /* Fifth Slider: Horizontal Window      Control Range of Points shown */
 233:home_screen.c ****     lv_obj_t * windowSlider = lv_slider_create(lv_scr_act(), NULL);
 1429              		.loc 6 233 0
 1430 02ce FFF7FEFF 		bl	lv_scr_act
 1431 02d2 0346     		mov	r3, r0
 1432 02d4 0021     		movs	r1, #0
 1433 02d6 1846     		mov	r0, r3
 1434 02d8 FFF7FEFF 		bl	lv_slider_create
 1435 02dc F860     		str	r0, [r7, #12]
 234:home_screen.c ****     lv_obj_set_pos(windowSlider, 20, 225);                         /*Set its position*/
 1436              		.loc 6 234 0
 1437 02de E122     		movs	r2, #225
 1438 02e0 1421     		movs	r1, #20
 1439 02e2 F868     		ldr	r0, [r7, #12]
 1440 02e4 FFF7FEFF 		bl	lv_obj_set_pos
 235:home_screen.c ****     lv_obj_set_size(windowSlider, 280, 30);                        /*Set its size*/
 1441              		.loc 6 235 0
 1442 02e8 1E22     		movs	r2, #30
 1443 02ea 4FF48C71 		mov	r1, #280
 1444 02ee F868     		ldr	r0, [r7, #12]
 1445 02f0 FFF7FEFF 		bl	lv_obj_set_size
 236:home_screen.c ****     lv_obj_set_event_cb(windowSlider, window_slider_event_cb);
 1446              		.loc 6 236 0
 1447 02f4 2549     		ldr	r1, .L56+64
 1448 02f6 F868     		ldr	r0, [r7, #12]
 1449 02f8 FFF7FEFF 		bl	lv_obj_set_event_cb
 237:home_screen.c ****     //lv_slider_set_range(windowSlider, 0, pow(2, cm4.HoriScale + 6));
 238:home_screen.c ****     lv_slider_set_range(windowSlider, 0, 1024);        
 1450              		.loc 6 238 0
 1451 02fc 4FF48062 		mov	r2, #1024
 1452 0300 0021     		movs	r1, #0
 1453 0302 F868     		ldr	r0, [r7, #12]
 1454 0304 FFF7FEFF 		bl	lv_slider_set_range
 239:home_screen.c ****     lv_slider_set_value(windowSlider, 512, LV_ANIM_ON);
ARM GAS  C:\Users\tmj32\AppData\Local\Temp\cc8xedyG.s 			page 48


 1455              		.loc 6 239 0
 1456 0308 0122     		movs	r2, #1
 1457 030a 4FF40071 		mov	r1, #512
 1458 030e F868     		ldr	r0, [r7, #12]
 1459 0310 FFF7FEFF 		bl	lv_slider_set_value
 240:home_screen.c ****     
 241:home_screen.c ****             /* Create a label below the slider */
 242:home_screen.c ****             windowLabel = lv_label_create(lv_scr_act(), NULL);
 1460              		.loc 6 242 0
 1461 0314 FFF7FEFF 		bl	lv_scr_act
 1462 0318 0346     		mov	r3, r0
 1463 031a 0021     		movs	r1, #0
 1464 031c 1846     		mov	r0, r3
 1465 031e FFF7FEFF 		bl	lv_label_create
 1466 0322 0246     		mov	r2, r0
 1467 0324 1A4B     		ldr	r3, .L56+68
 1468 0326 1A60     		str	r2, [r3]
 243:home_screen.c ****             lv_label_set_text(windowLabel, "512");
 1469              		.loc 6 243 0
 1470 0328 194B     		ldr	r3, .L56+68
 1471 032a 1B68     		ldr	r3, [r3]
 1472 032c 1949     		ldr	r1, .L56+72
 1473 032e 1846     		mov	r0, r3
 1474 0330 FFF7FEFF 		bl	lv_label_set_text
 244:home_screen.c ****             lv_obj_set_auto_realign(windowLabel, true);
 1475              		.loc 6 244 0
 1476 0334 164B     		ldr	r3, .L56+68
 1477 0336 1B68     		ldr	r3, [r3]
 1478 0338 0121     		movs	r1, #1
 1479 033a 1846     		mov	r0, r3
 1480 033c FFF7FEFF 		bl	lv_obj_set_auto_realign
 245:home_screen.c ****             lv_obj_align(windowLabel, windowSlider, LV_ALIGN_OUT_BOTTOM_MID, 0, 0);
 1481              		.loc 6 245 0
 1482 0340 134B     		ldr	r3, .L56+68
 1483 0342 1868     		ldr	r0, [r3]
 1484 0344 0023     		movs	r3, #0
 1485 0346 0093     		str	r3, [sp]
 1486 0348 0023     		movs	r3, #0
 1487 034a 25E0     		b	.L57
 1488              	.L58:
 1489              		.align	2
 1490              	.L56:
 1491 034c 00000000 		.word	offset_slider_event_cb
 1492 0350 00000000 		.word	offsetLabel
 1493 0354 20000000 		.word	.LC4
 1494 0358 24000000 		.word	.LC5
 1495 035c 00000000 		.word	trigger_slider_event_cb
 1496 0360 04000000 		.word	triggerLabel
 1497 0364 2C000000 		.word	.LC6
 1498 0368 30000000 		.word	.LC7
 1499 036c 00000000 		.word	hori_slider_event_cb
 1500 0370 08000000 		.word	horiLabel1
 1501 0374 3C000000 		.word	.LC8
 1502 0378 40000000 		.word	.LC9
 1503 037c 00000000 		.word	verti_slider_event_cb
 1504 0380 0C000000 		.word	vertLabel1
 1505 0384 50000000 		.word	.LC10
ARM GAS  C:\Users\tmj32\AppData\Local\Temp\cc8xedyG.s 			page 49


 1506 0388 54000000 		.word	.LC11
 1507 038c 00000000 		.word	window_slider_event_cb
 1508 0390 10000000 		.word	windowLabel
 1509 0394 64000000 		.word	.LC12
 1510              	.L57:
 1511 0398 0D22     		movs	r2, #13
 1512 039a F968     		ldr	r1, [r7, #12]
 1513 039c FFF7FEFF 		bl	lv_obj_align
 246:home_screen.c ****             
 247:home_screen.c ****             
 248:home_screen.c ****     //Draw the ogriginal chart... should be empty or zeroes
 249:home_screen.c ****     cm4.windowSize = 128;
 1514              		.loc 6 249 0
 1515 03a0 2D4B     		ldr	r3, .L59
 1516 03a2 8022     		movs	r2, #128
 1517 03a4 1A61     		str	r2, [r3, #16]
 250:home_screen.c ****     chart_actions();
 1518              		.loc 6 250 0
 1519 03a6 FFF7FEFF 		bl	chart_actions
 251:home_screen.c ****             
 252:home_screen.c ****     
 253:home_screen.c ****     //Adding an on/off switch 
 254:home_screen.c ****     lv_obj_t * sw1 = lv_sw_create(lv_scr_act(), NULL);
 1520              		.loc 6 254 0
 1521 03aa FFF7FEFF 		bl	lv_scr_act
 1522 03ae 0346     		mov	r3, r0
 1523 03b0 0021     		movs	r1, #0
 1524 03b2 1846     		mov	r0, r3
 1525 03b4 FFF7FEFF 		bl	lv_sw_create
 1526 03b8 B860     		str	r0, [r7, #8]
 255:home_screen.c ****     lv_obj_align(sw1, NULL, LV_ALIGN_CENTER, 0, -50);
 1527              		.loc 6 255 0
 1528 03ba 6FF03103 		mvn	r3, #49
 1529 03be 0093     		str	r3, [sp]
 1530 03c0 0023     		movs	r3, #0
 1531 03c2 0022     		movs	r2, #0
 1532 03c4 0021     		movs	r1, #0
 1533 03c6 B868     		ldr	r0, [r7, #8]
 1534 03c8 FFF7FEFF 		bl	lv_obj_align
 256:home_screen.c ****     lv_obj_set_event_cb(sw1, sw_event_handler);
 1535              		.loc 6 256 0
 1536 03cc 2349     		ldr	r1, .L59+4
 1537 03ce B868     		ldr	r0, [r7, #8]
 1538 03d0 FFF7FEFF 		bl	lv_obj_set_event_cb
 257:home_screen.c ****     //lv_obj_set_event_cb(sw1,  breath_activity_action);             /*Assign a callback to the but
 258:home_screen.c ****     lv_obj_set_pos(sw1, 70, 440);                         /*Set its position*/
 1539              		.loc 6 258 0
 1540 03d4 4FF4DC72 		mov	r2, #440
 1541 03d8 4621     		movs	r1, #70
 1542 03da B868     		ldr	r0, [r7, #8]
 1543 03dc FFF7FEFF 		bl	lv_obj_set_pos
 259:home_screen.c ****     lv_obj_set_size(sw1, 90, 30);               /*Set its size*/ 
 1544              		.loc 6 259 0
 1545 03e0 1E22     		movs	r2, #30
 1546 03e2 5A21     		movs	r1, #90
 1547 03e4 B868     		ldr	r0, [r7, #8]
 1548 03e6 FFF7FEFF 		bl	lv_obj_set_size
ARM GAS  C:\Users\tmj32\AppData\Local\Temp\cc8xedyG.s 			page 50


 260:home_screen.c ****     
 261:home_screen.c ****     lv_obj_t * switchLabel = lv_label_create(lv_scr_act(), NULL);
 1549              		.loc 6 261 0
 1550 03ea FFF7FEFF 		bl	lv_scr_act
 1551 03ee 0346     		mov	r3, r0
 1552 03f0 0021     		movs	r1, #0
 1553 03f2 1846     		mov	r0, r3
 1554 03f4 FFF7FEFF 		bl	lv_label_create
 1555 03f8 7860     		str	r0, [r7, #4]
 262:home_screen.c **** 	lv_obj_set_drag(switchLabel, false);
 1556              		.loc 6 262 0
 1557 03fa 0021     		movs	r1, #0
 1558 03fc 7868     		ldr	r0, [r7, #4]
 1559 03fe FFF7FEFF 		bl	lv_obj_set_drag
 263:home_screen.c ****     lv_label_set_text(switchLabel, "On\\Off");
 1560              		.loc 6 263 0
 1561 0402 1749     		ldr	r1, .L59+8
 1562 0404 7868     		ldr	r0, [r7, #4]
 1563 0406 FFF7FEFF 		bl	lv_label_set_text
 264:home_screen.c ****     //lv_obj_set_pos(switchLabel, 15, 445);
 265:home_screen.c ****     lv_obj_align(switchLabel, sw1, LV_ALIGN_OUT_LEFT_MID, 0, 0);
 1564              		.loc 6 265 0
 1565 040a 0023     		movs	r3, #0
 1566 040c 0093     		str	r3, [sp]
 1567 040e 0023     		movs	r3, #0
 1568 0410 1022     		movs	r2, #16
 1569 0412 B968     		ldr	r1, [r7, #8]
 1570 0414 7868     		ldr	r0, [r7, #4]
 1571 0416 FFF7FEFF 		bl	lv_obj_align
 266:home_screen.c ****     
 267:home_screen.c ****     
 268:home_screen.c ****     
 269:home_screen.c ****     //Adding a drop down menu for the trigger slope
 270:home_screen.c ****     lv_obj_t * roller1 = lv_roller_create(lv_scr_act(),NULL);
 1572              		.loc 6 270 0
 1573 041a FFF7FEFF 		bl	lv_scr_act
 1574 041e 0346     		mov	r3, r0
 1575 0420 0021     		movs	r1, #0
 1576 0422 1846     		mov	r0, r3
 1577 0424 FFF7FEFF 		bl	lv_roller_create
 1578 0428 3860     		str	r0, [r7]
 271:home_screen.c ****     lv_roller_set_options(roller1, "Rising\n"
 1579              		.loc 6 271 0
 1580 042a 0122     		movs	r2, #1
 1581 042c 0D49     		ldr	r1, .L59+12
 1582 042e 3868     		ldr	r0, [r7]
 1583 0430 FFF7FEFF 		bl	lv_roller_set_options
 272:home_screen.c ****                                   "Falling\n"
 273:home_screen.c ****                                   "Threshold",
 274:home_screen.c ****                                   LV_ROLLER_MODE_INIFINITE);
 275:home_screen.c ****     lv_roller_set_visible_row_count(roller1, 3);
 1584              		.loc 6 275 0
 1585 0434 0321     		movs	r1, #3
 1586 0436 3868     		ldr	r0, [r7]
 1587 0438 FFF7FEFF 		bl	lv_roller_set_visible_row_count
 276:home_screen.c ****     lv_obj_set_pos(roller1, 170, 440);                         /*Set its position*/
 1588              		.loc 6 276 0
ARM GAS  C:\Users\tmj32\AppData\Local\Temp\cc8xedyG.s 			page 51


 1589 043c 4FF4DC72 		mov	r2, #440
 1590 0440 AA21     		movs	r1, #170
 1591 0442 3868     		ldr	r0, [r7]
 1592 0444 FFF7FEFF 		bl	lv_obj_set_pos
 277:home_screen.c ****     lv_obj_set_event_cb(roller1, roller_event);
 1593              		.loc 6 277 0
 1594 0448 0749     		ldr	r1, .L59+16
 1595 044a 3868     		ldr	r0, [r7]
 1596 044c FFF7FEFF 		bl	lv_obj_set_event_cb
 278:home_screen.c ****    
 279:home_screen.c **** }...
 1597              		.loc 6 279 0
 1598 0450 00BF     		nop
 1599 0452 3037     		adds	r7, r7, #48
 1600              		.cfi_def_cfa_offset 8
 1601 0454 BD46     		mov	sp, r7
 1602              		.cfi_def_cfa_register 13
 1603              		@ sp needed
 1604 0456 80BD     		pop	{r7, pc}
 1605              	.L60:
 1606              		.align	2
 1607              	.L59:
 1608 0458 00000000 		.word	cm4
 1609 045c 00000000 		.word	sw_event_handler
 1610 0460 68000000 		.word	.LC13
 1611 0464 70000000 		.word	.LC14
 1612 0468 00000000 		.word	roller_event
 1613              		.cfi_endproc
 1614              	.LFE725:
 1615              		.size	home_screen, .-home_screen
 1616              		.bss
 1617              		.align	2
 1618              	chart1.20845:
 1619 0018 00000000 		.space	4
 1620              		.align	2
 1621              	buf.20866:
 1622 001c 00000000 		.space	4
 1623              		.align	2
 1624              	buf.20871:
 1625 0020 00000000 		.space	4
 1626              		.align	2
 1627              	buf.20876:
 1628 0024 00000000 		.space	4
 1629              		.align	2
 1630              	buf.20881:
 1631 0028 00000000 		.space	4
 1632              		.align	2
 1633              	buf.20886:
 1634 002c 00000000 		.space	6
 1634      0000
 1635              		.text
 1636              	.Letext0:
 1637              		.file 7 "c:\\program files (x86)\\cypress\\psoc creator\\4.3\\psoc creator\\import\\gnu\\arm\\5.4.
 1638              		.file 8 "c:\\program files (x86)\\cypress\\psoc creator\\4.3\\psoc creator\\import\\gnu\\arm\\5.4.
 1639              		.file 9 "Generated_Source\\PSoC6\\pdl\\drivers/peripheral/device/cy_device.h"
 1640              		.file 10 "Generated_Source\\PSoC6\\pdl\\drivers/peripheral/scb/cy_scb_i2c.h"
 1641              		.file 11 "Generated_Source\\PSoC6\\pdl\\drivers/peripheral/scb/cy_scb_spi.h"
ARM GAS  C:\Users\tmj32\AppData\Local\Temp\cc8xedyG.s 			page 52


 1642              		.file 12 "Generated_Source\\PSoC6\\pdl\\drivers/peripheral/tcpwm/cy_tcpwm_counter.h"
 1643              		.file 13 "globalStruct.h"
 1644              		.file 14 "..\\..\\..\\lvgl\\version_6.1.2\\lvgl/src/lv_misc/../../../lv_conf.h"
 1645              		.file 15 "..\\..\\..\\lvgl\\version_6.1.2\\lvgl/src/lv_misc/lv_types.h"
 1646              		.file 16 "..\\..\\..\\lvgl\\version_6.1.2\\lvgl/src/lv_misc/lv_ll.h"
 1647              		.file 17 "..\\..\\..\\lvgl\\version_6.1.2\\lvgl/src/lv_hal/../lv_misc/lv_area.h"
 1648              		.file 18 "..\\..\\..\\lvgl\\version_6.1.2\\lvgl/src/lv_core/lv_obj.h"
 1649              		.file 19 "..\\..\\..\\lvgl\\version_6.1.2\\lvgl/src/lv_core/../lv_font/lv_font.h"
 1650              		.file 20 "..\\..\\..\\lvgl\\version_6.1.2\\lvgl/src/lv_core/../lv_misc/lv_anim.h"
 1651              		.file 21 "..\\..\\..\\lvgl\\version_6.1.2\\lvgl/src/lv_core/lv_style.h"
 1652              		.file 22 "..\\..\\..\\lvgl\\version_6.1.2\\lvgl/src/lv_core/../lv_misc/lv_bidi.h"
 1653              		.file 23 "..\\..\\..\\lvgl\\version_6.1.2\\lvgl/src/lv_objx/lv_btn.h"
 1654              		.file 24 "..\\..\\..\\lvgl\\version_6.1.2\\lvgl/src/lv_objx/lv_label.h"
 1655              		.file 25 "..\\..\\..\\lvgl\\version_6.1.2\\lvgl/src/lv_objx/lv_chart.h"
 1656              		.file 26 "Generated_Source\\PSoC6\\pdl\\cmsis/include/core_cm4.h"
 1657              		.file 27 "Generated_Source\\PSoC6/DISP_TICK_TIMER.h"
 1658              		.file 28 "Generated_Source\\PSoC6/I2C_MASTER.h"
 1659              		.file 29 "Generated_Source\\PSoC6/SPIM.h"
 1660              		.section	.debug_info,"",%progbits
 1661              	.Ldebug_info0:
 1662 0000 B3180000 		.4byte	0x18b3
 1663 0004 0400     		.2byte	0x4
 1664 0006 00000000 		.4byte	.Ldebug_abbrev0
 1665 000a 04       		.byte	0x4
 1666 000b 01       		.uleb128 0x1
 1667 000c 1B160000 		.4byte	.LASF405
 1668 0010 0C       		.byte	0xc
 1669 0011 BE120000 		.4byte	.LASF406
 1670 0015 34040000 		.4byte	.LASF407
 1671 0019 00000000 		.4byte	.Ldebug_ranges0+0
 1672 001d 00000000 		.4byte	0
 1673 0021 00000000 		.4byte	.Ldebug_line0
 1674 0025 02       		.uleb128 0x2
 1675 0026 C5140000 		.4byte	.LASF0
 1676 002a 07       		.byte	0x7
 1677 002b 1B       		.byte	0x1b
 1678 002c 30000000 		.4byte	0x30
 1679 0030 03       		.uleb128 0x3
 1680 0031 01       		.byte	0x1
 1681 0032 06       		.byte	0x6
 1682 0033 53140000 		.4byte	.LASF2
 1683 0037 02       		.uleb128 0x2
 1684 0038 70110000 		.4byte	.LASF1
 1685 003c 07       		.byte	0x7
 1686 003d 1D       		.byte	0x1d
 1687 003e 42000000 		.4byte	0x42
 1688 0042 03       		.uleb128 0x3
 1689 0043 01       		.byte	0x1
 1690 0044 08       		.byte	0x8
 1691 0045 DE120000 		.4byte	.LASF3
 1692 0049 02       		.uleb128 0x2
 1693 004a 0B0C0000 		.4byte	.LASF4
 1694 004e 07       		.byte	0x7
 1695 004f 29       		.byte	0x29
 1696 0050 54000000 		.4byte	0x54
 1697 0054 03       		.uleb128 0x3
 1698 0055 02       		.byte	0x2
ARM GAS  C:\Users\tmj32\AppData\Local\Temp\cc8xedyG.s 			page 53


 1699 0056 05       		.byte	0x5
 1700 0057 DD0F0000 		.4byte	.LASF5
 1701 005b 02       		.uleb128 0x2
 1702 005c FC080000 		.4byte	.LASF6
 1703 0060 07       		.byte	0x7
 1704 0061 2B       		.byte	0x2b
 1705 0062 66000000 		.4byte	0x66
 1706 0066 03       		.uleb128 0x3
 1707 0067 02       		.byte	0x2
 1708 0068 07       		.byte	0x7
 1709 0069 480E0000 		.4byte	.LASF7
 1710 006d 02       		.uleb128 0x2
 1711 006e 0C020000 		.4byte	.LASF8
 1712 0072 07       		.byte	0x7
 1713 0073 3F       		.byte	0x3f
 1714 0074 78000000 		.4byte	0x78
 1715 0078 03       		.uleb128 0x3
 1716 0079 04       		.byte	0x4
 1717 007a 05       		.byte	0x5
 1718 007b 05000000 		.4byte	.LASF9
 1719 007f 02       		.uleb128 0x2
 1720 0080 EC120000 		.4byte	.LASF10
 1721 0084 07       		.byte	0x7
 1722 0085 41       		.byte	0x41
 1723 0086 8A000000 		.4byte	0x8a
 1724 008a 03       		.uleb128 0x3
 1725 008b 04       		.byte	0x4
 1726 008c 07       		.byte	0x7
 1727 008d 2B120000 		.4byte	.LASF11
 1728 0091 03       		.uleb128 0x3
 1729 0092 08       		.byte	0x8
 1730 0093 05       		.byte	0x5
 1731 0094 2B0B0000 		.4byte	.LASF12
 1732 0098 03       		.uleb128 0x3
 1733 0099 08       		.byte	0x8
 1734 009a 07       		.byte	0x7
 1735 009b FE050000 		.4byte	.LASF13
 1736 009f 04       		.uleb128 0x4
 1737 00a0 04       		.byte	0x4
 1738 00a1 05       		.byte	0x5
 1739 00a2 696E7400 		.ascii	"int\000"
 1740 00a6 03       		.uleb128 0x3
 1741 00a7 04       		.byte	0x4
 1742 00a8 07       		.byte	0x7
 1743 00a9 A9010000 		.4byte	.LASF14
 1744 00ad 03       		.uleb128 0x3
 1745 00ae 08       		.byte	0x8
 1746 00af 04       		.byte	0x4
 1747 00b0 5B0E0000 		.4byte	.LASF15
 1748 00b4 05       		.uleb128 0x5
 1749 00b5 04       		.byte	0x4
 1750 00b6 03       		.uleb128 0x3
 1751 00b7 04       		.byte	0x4
 1752 00b8 07       		.byte	0x7
 1753 00b9 650F0000 		.4byte	.LASF16
 1754 00bd 06       		.uleb128 0x6
 1755 00be 04       		.byte	0x4
ARM GAS  C:\Users\tmj32\AppData\Local\Temp\cc8xedyG.s 			page 54


 1756 00bf C3000000 		.4byte	0xc3
 1757 00c3 03       		.uleb128 0x3
 1758 00c4 01       		.byte	0x1
 1759 00c5 08       		.byte	0x8
 1760 00c6 61090000 		.4byte	.LASF17
 1761 00ca 02       		.uleb128 0x2
 1762 00cb 1C050000 		.4byte	.LASF18
 1763 00cf 08       		.byte	0x8
 1764 00d0 14       		.byte	0x14
 1765 00d1 25000000 		.4byte	0x25
 1766 00d5 02       		.uleb128 0x2
 1767 00d6 730A0000 		.4byte	.LASF19
 1768 00da 08       		.byte	0x8
 1769 00db 18       		.byte	0x18
 1770 00dc 37000000 		.4byte	0x37
 1771 00e0 02       		.uleb128 0x2
 1772 00e1 C7050000 		.4byte	.LASF20
 1773 00e5 08       		.byte	0x8
 1774 00e6 20       		.byte	0x20
 1775 00e7 49000000 		.4byte	0x49
 1776 00eb 02       		.uleb128 0x2
 1777 00ec 670E0000 		.4byte	.LASF21
 1778 00f0 08       		.byte	0x8
 1779 00f1 24       		.byte	0x24
 1780 00f2 5B000000 		.4byte	0x5b
 1781 00f6 02       		.uleb128 0x2
 1782 00f7 6A060000 		.4byte	.LASF22
 1783 00fb 08       		.byte	0x8
 1784 00fc 2C       		.byte	0x2c
 1785 00fd 6D000000 		.4byte	0x6d
 1786 0101 02       		.uleb128 0x2
 1787 0102 13050000 		.4byte	.LASF23
 1788 0106 08       		.byte	0x8
 1789 0107 30       		.byte	0x30
 1790 0108 7F000000 		.4byte	0x7f
 1791 010c 07       		.uleb128 0x7
 1792 010d 01010000 		.4byte	0x101
 1793 0111 08       		.uleb128 0x8
 1794 0112 B8       		.byte	0xb8
 1795 0113 09       		.byte	0x9
 1796 0114 34       		.byte	0x34
 1797 0115 22050000 		.4byte	0x522
 1798 0119 09       		.uleb128 0x9
 1799 011a 3F020000 		.4byte	.LASF24
 1800 011e 09       		.byte	0x9
 1801 011f 37       		.byte	0x37
 1802 0120 01010000 		.4byte	0x101
 1803 0124 00       		.byte	0
 1804 0125 09       		.uleb128 0x9
 1805 0126 BF130000 		.4byte	.LASF25
 1806 012a 09       		.byte	0x9
 1807 012b 38       		.byte	0x38
 1808 012c 01010000 		.4byte	0x101
 1809 0130 04       		.byte	0x4
 1810 0131 09       		.uleb128 0x9
 1811 0132 2D010000 		.4byte	.LASF26
 1812 0136 09       		.byte	0x9
ARM GAS  C:\Users\tmj32\AppData\Local\Temp\cc8xedyG.s 			page 55


 1813 0137 39       		.byte	0x39
 1814 0138 01010000 		.4byte	0x101
 1815 013c 08       		.byte	0x8
 1816 013d 09       		.uleb128 0x9
 1817 013e 0E010000 		.4byte	.LASF27
 1818 0142 09       		.byte	0x9
 1819 0143 3A       		.byte	0x3a
 1820 0144 01010000 		.4byte	0x101
 1821 0148 0C       		.byte	0xc
 1822 0149 09       		.uleb128 0x9
 1823 014a 700E0000 		.4byte	.LASF28
 1824 014e 09       		.byte	0x9
 1825 014f 3B       		.byte	0x3b
 1826 0150 01010000 		.4byte	0x101
 1827 0154 10       		.byte	0x10
 1828 0155 09       		.uleb128 0x9
 1829 0156 1E0C0000 		.4byte	.LASF29
 1830 015a 09       		.byte	0x9
 1831 015b 3C       		.byte	0x3c
 1832 015c 01010000 		.4byte	0x101
 1833 0160 14       		.byte	0x14
 1834 0161 09       		.uleb128 0x9
 1835 0162 5C070000 		.4byte	.LASF30
 1836 0166 09       		.byte	0x9
 1837 0167 3D       		.byte	0x3d
 1838 0168 01010000 		.4byte	0x101
 1839 016c 18       		.byte	0x18
 1840 016d 09       		.uleb128 0x9
 1841 016e A10A0000 		.4byte	.LASF31
 1842 0172 09       		.byte	0x9
 1843 0173 3E       		.byte	0x3e
 1844 0174 01010000 		.4byte	0x101
 1845 0178 1C       		.byte	0x1c
 1846 0179 09       		.uleb128 0x9
 1847 017a 07070000 		.4byte	.LASF32
 1848 017e 09       		.byte	0x9
 1849 017f 3F       		.byte	0x3f
 1850 0180 01010000 		.4byte	0x101
 1851 0184 20       		.byte	0x20
 1852 0185 09       		.uleb128 0x9
 1853 0186 660B0000 		.4byte	.LASF33
 1854 018a 09       		.byte	0x9
 1855 018b 40       		.byte	0x40
 1856 018c 01010000 		.4byte	0x101
 1857 0190 24       		.byte	0x24
 1858 0191 09       		.uleb128 0x9
 1859 0192 3A170000 		.4byte	.LASF34
 1860 0196 09       		.byte	0x9
 1861 0197 43       		.byte	0x43
 1862 0198 D5000000 		.4byte	0xd5
 1863 019c 28       		.byte	0x28
 1864 019d 09       		.uleb128 0x9
 1865 019e 37100000 		.4byte	.LASF35
 1866 01a2 09       		.byte	0x9
 1867 01a3 44       		.byte	0x44
 1868 01a4 D5000000 		.4byte	0xd5
 1869 01a8 29       		.byte	0x29
ARM GAS  C:\Users\tmj32\AppData\Local\Temp\cc8xedyG.s 			page 56


 1870 01a9 09       		.uleb128 0x9
 1871 01aa D4120000 		.4byte	.LASF36
 1872 01ae 09       		.byte	0x9
 1873 01af 45       		.byte	0x45
 1874 01b0 D5000000 		.4byte	0xd5
 1875 01b4 2A       		.byte	0x2a
 1876 01b5 09       		.uleb128 0x9
 1877 01b6 8D100000 		.4byte	.LASF37
 1878 01ba 09       		.byte	0x9
 1879 01bb 46       		.byte	0x46
 1880 01bc D5000000 		.4byte	0xd5
 1881 01c0 2B       		.byte	0x2b
 1882 01c1 09       		.uleb128 0x9
 1883 01c2 81100000 		.4byte	.LASF38
 1884 01c6 09       		.byte	0x9
 1885 01c7 47       		.byte	0x47
 1886 01c8 D5000000 		.4byte	0xd5
 1887 01cc 2C       		.byte	0x2c
 1888 01cd 09       		.uleb128 0x9
 1889 01ce 14120000 		.4byte	.LASF39
 1890 01d2 09       		.byte	0x9
 1891 01d3 48       		.byte	0x48
 1892 01d4 D5000000 		.4byte	0xd5
 1893 01d8 2D       		.byte	0x2d
 1894 01d9 09       		.uleb128 0x9
 1895 01da F90E0000 		.4byte	.LASF40
 1896 01de 09       		.byte	0x9
 1897 01df 49       		.byte	0x49
 1898 01e0 D5000000 		.4byte	0xd5
 1899 01e4 2E       		.byte	0x2e
 1900 01e5 09       		.uleb128 0x9
 1901 01e6 7F020000 		.4byte	.LASF41
 1902 01ea 09       		.byte	0x9
 1903 01eb 4A       		.byte	0x4a
 1904 01ec D5000000 		.4byte	0xd5
 1905 01f0 2F       		.byte	0x2f
 1906 01f1 09       		.uleb128 0x9
 1907 01f2 C30D0000 		.4byte	.LASF42
 1908 01f6 09       		.byte	0x9
 1909 01f7 4B       		.byte	0x4b
 1910 01f8 D5000000 		.4byte	0xd5
 1911 01fc 30       		.byte	0x30
 1912 01fd 09       		.uleb128 0x9
 1913 01fe 010D0000 		.4byte	.LASF43
 1914 0202 09       		.byte	0x9
 1915 0203 4E       		.byte	0x4e
 1916 0204 D5000000 		.4byte	0xd5
 1917 0208 31       		.byte	0x31
 1918 0209 09       		.uleb128 0x9
 1919 020a 78140000 		.4byte	.LASF44
 1920 020e 09       		.byte	0x9
 1921 020f 4F       		.byte	0x4f
 1922 0210 D5000000 		.4byte	0xd5
 1923 0214 32       		.byte	0x32
 1924 0215 09       		.uleb128 0x9
 1925 0216 8F150000 		.4byte	.LASF45
 1926 021a 09       		.byte	0x9
ARM GAS  C:\Users\tmj32\AppData\Local\Temp\cc8xedyG.s 			page 57


 1927 021b 50       		.byte	0x50
 1928 021c D5000000 		.4byte	0xd5
 1929 0220 33       		.byte	0x33
 1930 0221 09       		.uleb128 0x9
 1931 0222 1F090000 		.4byte	.LASF46
 1932 0226 09       		.byte	0x9
 1933 0227 51       		.byte	0x51
 1934 0228 D5000000 		.4byte	0xd5
 1935 022c 34       		.byte	0x34
 1936 022d 09       		.uleb128 0x9
 1937 022e 46140000 		.4byte	.LASF47
 1938 0232 09       		.byte	0x9
 1939 0233 52       		.byte	0x52
 1940 0234 E0000000 		.4byte	0xe0
 1941 0238 36       		.byte	0x36
 1942 0239 09       		.uleb128 0x9
 1943 023a 4F030000 		.4byte	.LASF48
 1944 023e 09       		.byte	0x9
 1945 023f 53       		.byte	0x53
 1946 0240 E0000000 		.4byte	0xe0
 1947 0244 38       		.byte	0x38
 1948 0245 09       		.uleb128 0x9
 1949 0246 5C0C0000 		.4byte	.LASF49
 1950 024a 09       		.byte	0x9
 1951 024b 54       		.byte	0x54
 1952 024c E0000000 		.4byte	0xe0
 1953 0250 3A       		.byte	0x3a
 1954 0251 09       		.uleb128 0x9
 1955 0252 16020000 		.4byte	.LASF50
 1956 0256 09       		.byte	0x9
 1957 0257 55       		.byte	0x55
 1958 0258 D5000000 		.4byte	0xd5
 1959 025c 3C       		.byte	0x3c
 1960 025d 09       		.uleb128 0x9
 1961 025e 33070000 		.4byte	.LASF51
 1962 0262 09       		.byte	0x9
 1963 0263 56       		.byte	0x56
 1964 0264 D5000000 		.4byte	0xd5
 1965 0268 3D       		.byte	0x3d
 1966 0269 09       		.uleb128 0x9
 1967 026a 57060000 		.4byte	.LASF52
 1968 026e 09       		.byte	0x9
 1969 026f 57       		.byte	0x57
 1970 0270 D5000000 		.4byte	0xd5
 1971 0274 3E       		.byte	0x3e
 1972 0275 09       		.uleb128 0x9
 1973 0276 EB000000 		.4byte	.LASF53
 1974 027a 09       		.byte	0x9
 1975 027b 58       		.byte	0x58
 1976 027c D5000000 		.4byte	0xd5
 1977 0280 3F       		.byte	0x3f
 1978 0281 09       		.uleb128 0x9
 1979 0282 D2010000 		.4byte	.LASF54
 1980 0286 09       		.byte	0x9
 1981 0287 59       		.byte	0x59
 1982 0288 D5000000 		.4byte	0xd5
 1983 028c 40       		.byte	0x40
ARM GAS  C:\Users\tmj32\AppData\Local\Temp\cc8xedyG.s 			page 58


 1984 028d 09       		.uleb128 0x9
 1985 028e 550D0000 		.4byte	.LASF55
 1986 0292 09       		.byte	0x9
 1987 0293 5A       		.byte	0x5a
 1988 0294 D5000000 		.4byte	0xd5
 1989 0298 41       		.byte	0x41
 1990 0299 09       		.uleb128 0x9
 1991 029a 93050000 		.4byte	.LASF56
 1992 029e 09       		.byte	0x9
 1993 029f 5B       		.byte	0x5b
 1994 02a0 D5000000 		.4byte	0xd5
 1995 02a4 42       		.byte	0x42
 1996 02a5 09       		.uleb128 0x9
 1997 02a6 CC080000 		.4byte	.LASF57
 1998 02aa 09       		.byte	0x9
 1999 02ab 5C       		.byte	0x5c
 2000 02ac D5000000 		.4byte	0xd5
 2001 02b0 43       		.byte	0x43
 2002 02b1 09       		.uleb128 0x9
 2003 02b2 B5090000 		.4byte	.LASF58
 2004 02b6 09       		.byte	0x9
 2005 02b7 5D       		.byte	0x5d
 2006 02b8 D5000000 		.4byte	0xd5
 2007 02bc 44       		.byte	0x44
 2008 02bd 09       		.uleb128 0x9
 2009 02be 9B100000 		.4byte	.LASF59
 2010 02c2 09       		.byte	0x9
 2011 02c3 5E       		.byte	0x5e
 2012 02c4 01010000 		.4byte	0x101
 2013 02c8 48       		.byte	0x48
 2014 02c9 09       		.uleb128 0x9
 2015 02ca 16030000 		.4byte	.LASF60
 2016 02ce 09       		.byte	0x9
 2017 02cf 5F       		.byte	0x5f
 2018 02d0 01010000 		.4byte	0x101
 2019 02d4 4C       		.byte	0x4c
 2020 02d5 09       		.uleb128 0x9
 2021 02d6 F0130000 		.4byte	.LASF61
 2022 02da 09       		.byte	0x9
 2023 02db 60       		.byte	0x60
 2024 02dc D5000000 		.4byte	0xd5
 2025 02e0 50       		.byte	0x50
 2026 02e1 09       		.uleb128 0x9
 2027 02e2 8C070000 		.4byte	.LASF62
 2028 02e6 09       		.byte	0x9
 2029 02e7 61       		.byte	0x61
 2030 02e8 D5000000 		.4byte	0xd5
 2031 02ec 51       		.byte	0x51
 2032 02ed 09       		.uleb128 0x9
 2033 02ee B50B0000 		.4byte	.LASF63
 2034 02f2 09       		.byte	0x9
 2035 02f3 62       		.byte	0x62
 2036 02f4 D5000000 		.4byte	0xd5
 2037 02f8 52       		.byte	0x52
 2038 02f9 09       		.uleb128 0x9
 2039 02fa FB0D0000 		.4byte	.LASF64
 2040 02fe 09       		.byte	0x9
ARM GAS  C:\Users\tmj32\AppData\Local\Temp\cc8xedyG.s 			page 59


 2041 02ff 63       		.byte	0x63
 2042 0300 D5000000 		.4byte	0xd5
 2043 0304 53       		.byte	0x53
 2044 0305 09       		.uleb128 0x9
 2045 0306 72130000 		.4byte	.LASF65
 2046 030a 09       		.byte	0x9
 2047 030b 64       		.byte	0x64
 2048 030c D5000000 		.4byte	0xd5
 2049 0310 54       		.byte	0x54
 2050 0311 09       		.uleb128 0x9
 2051 0312 15080000 		.4byte	.LASF66
 2052 0316 09       		.byte	0x9
 2053 0317 65       		.byte	0x65
 2054 0318 D5000000 		.4byte	0xd5
 2055 031c 55       		.byte	0x55
 2056 031d 09       		.uleb128 0x9
 2057 031e 2C140000 		.4byte	.LASF67
 2058 0322 09       		.byte	0x9
 2059 0323 66       		.byte	0x66
 2060 0324 D5000000 		.4byte	0xd5
 2061 0328 56       		.byte	0x56
 2062 0329 09       		.uleb128 0x9
 2063 032a 0C0F0000 		.4byte	.LASF68
 2064 032e 09       		.byte	0x9
 2065 032f 67       		.byte	0x67
 2066 0330 D5000000 		.4byte	0xd5
 2067 0334 57       		.byte	0x57
 2068 0335 09       		.uleb128 0x9
 2069 0336 1F070000 		.4byte	.LASF69
 2070 033a 09       		.byte	0x9
 2071 033b 68       		.byte	0x68
 2072 033c D5000000 		.4byte	0xd5
 2073 0340 58       		.byte	0x58
 2074 0341 09       		.uleb128 0x9
 2075 0342 BE150000 		.4byte	.LASF70
 2076 0346 09       		.byte	0x9
 2077 0347 69       		.byte	0x69
 2078 0348 D5000000 		.4byte	0xd5
 2079 034c 59       		.byte	0x59
 2080 034d 09       		.uleb128 0x9
 2081 034e 6D140000 		.4byte	.LASF71
 2082 0352 09       		.byte	0x9
 2083 0353 6E       		.byte	0x6e
 2084 0354 EB000000 		.4byte	0xeb
 2085 0358 5A       		.byte	0x5a
 2086 0359 09       		.uleb128 0x9
 2087 035a 7C010000 		.4byte	.LASF72
 2088 035e 09       		.byte	0x9
 2089 035f 6F       		.byte	0x6f
 2090 0360 EB000000 		.4byte	0xeb
 2091 0364 5C       		.byte	0x5c
 2092 0365 09       		.uleb128 0x9
 2093 0366 410B0000 		.4byte	.LASF73
 2094 036a 09       		.byte	0x9
 2095 036b 70       		.byte	0x70
 2096 036c D5000000 		.4byte	0xd5
 2097 0370 5E       		.byte	0x5e
ARM GAS  C:\Users\tmj32\AppData\Local\Temp\cc8xedyG.s 			page 60


 2098 0371 09       		.uleb128 0x9
 2099 0372 A2140000 		.4byte	.LASF74
 2100 0376 09       		.byte	0x9
 2101 0377 71       		.byte	0x71
 2102 0378 D5000000 		.4byte	0xd5
 2103 037c 5F       		.byte	0x5f
 2104 037d 09       		.uleb128 0x9
 2105 037e EB080000 		.4byte	.LASF75
 2106 0382 09       		.byte	0x9
 2107 0383 72       		.byte	0x72
 2108 0384 D5000000 		.4byte	0xd5
 2109 0388 60       		.byte	0x60
 2110 0389 09       		.uleb128 0x9
 2111 038a 490A0000 		.4byte	.LASF76
 2112 038e 09       		.byte	0x9
 2113 038f 73       		.byte	0x73
 2114 0390 01010000 		.4byte	0x101
 2115 0394 64       		.byte	0x64
 2116 0395 09       		.uleb128 0x9
 2117 0396 200F0000 		.4byte	.LASF77
 2118 039a 09       		.byte	0x9
 2119 039b 76       		.byte	0x76
 2120 039c EB000000 		.4byte	0xeb
 2121 03a0 68       		.byte	0x68
 2122 03a1 09       		.uleb128 0x9
 2123 03a2 810E0000 		.4byte	.LASF78
 2124 03a6 09       		.byte	0x9
 2125 03a7 77       		.byte	0x77
 2126 03a8 EB000000 		.4byte	0xeb
 2127 03ac 6A       		.byte	0x6a
 2128 03ad 09       		.uleb128 0x9
 2129 03ae 4D0C0000 		.4byte	.LASF79
 2130 03b2 09       		.byte	0x9
 2131 03b3 78       		.byte	0x78
 2132 03b4 EB000000 		.4byte	0xeb
 2133 03b8 6C       		.byte	0x6c
 2134 03b9 09       		.uleb128 0x9
 2135 03ba 09030000 		.4byte	.LASF80
 2136 03be 09       		.byte	0x9
 2137 03bf 79       		.byte	0x79
 2138 03c0 EB000000 		.4byte	0xeb
 2139 03c4 6E       		.byte	0x6e
 2140 03c5 09       		.uleb128 0x9
 2141 03c6 AA0A0000 		.4byte	.LASF81
 2142 03ca 09       		.byte	0x9
 2143 03cb 7B       		.byte	0x7b
 2144 03cc D5000000 		.4byte	0xd5
 2145 03d0 70       		.byte	0x70
 2146 03d1 09       		.uleb128 0x9
 2147 03d2 C1030000 		.4byte	.LASF82
 2148 03d6 09       		.byte	0x9
 2149 03d7 7C       		.byte	0x7c
 2150 03d8 D5000000 		.4byte	0xd5
 2151 03dc 71       		.byte	0x71
 2152 03dd 09       		.uleb128 0x9
 2153 03de 92060000 		.4byte	.LASF83
 2154 03e2 09       		.byte	0x9
ARM GAS  C:\Users\tmj32\AppData\Local\Temp\cc8xedyG.s 			page 61


 2155 03e3 7D       		.byte	0x7d
 2156 03e4 D5000000 		.4byte	0xd5
 2157 03e8 72       		.byte	0x72
 2158 03e9 09       		.uleb128 0x9
 2159 03ea 89090000 		.4byte	.LASF84
 2160 03ee 09       		.byte	0x9
 2161 03ef 7E       		.byte	0x7e
 2162 03f0 D5000000 		.4byte	0xd5
 2163 03f4 73       		.byte	0x73
 2164 03f5 09       		.uleb128 0x9
 2165 03f6 A50F0000 		.4byte	.LASF85
 2166 03fa 09       		.byte	0x9
 2167 03fb 80       		.byte	0x80
 2168 03fc EB000000 		.4byte	0xeb
 2169 0400 74       		.byte	0x74
 2170 0401 09       		.uleb128 0x9
 2171 0402 E70F0000 		.4byte	.LASF86
 2172 0406 09       		.byte	0x9
 2173 0407 81       		.byte	0x81
 2174 0408 EB000000 		.4byte	0xeb
 2175 040c 76       		.byte	0x76
 2176 040d 09       		.uleb128 0x9
 2177 040e 7A150000 		.4byte	.LASF87
 2178 0412 09       		.byte	0x9
 2179 0413 82       		.byte	0x82
 2180 0414 EB000000 		.4byte	0xeb
 2181 0418 78       		.byte	0x78
 2182 0419 09       		.uleb128 0x9
 2183 041a 830B0000 		.4byte	.LASF88
 2184 041e 09       		.byte	0x9
 2185 041f 83       		.byte	0x83
 2186 0420 EB000000 		.4byte	0xeb
 2187 0424 7A       		.byte	0x7a
 2188 0425 09       		.uleb128 0x9
 2189 0426 93110000 		.4byte	.LASF89
 2190 042a 09       		.byte	0x9
 2191 042b 86       		.byte	0x86
 2192 042c D5000000 		.4byte	0xd5
 2193 0430 7C       		.byte	0x7c
 2194 0431 09       		.uleb128 0x9
 2195 0432 01140000 		.4byte	.LASF90
 2196 0436 09       		.byte	0x9
 2197 0437 87       		.byte	0x87
 2198 0438 D5000000 		.4byte	0xd5
 2199 043c 7D       		.byte	0x7d
 2200 043d 09       		.uleb128 0x9
 2201 043e CF050000 		.4byte	.LASF91
 2202 0442 09       		.byte	0x9
 2203 0443 88       		.byte	0x88
 2204 0444 D5000000 		.4byte	0xd5
 2205 0448 7E       		.byte	0x7e
 2206 0449 09       		.uleb128 0x9
 2207 044a 49050000 		.4byte	.LASF92
 2208 044e 09       		.byte	0x9
 2209 044f 89       		.byte	0x89
 2210 0450 D5000000 		.4byte	0xd5
 2211 0454 7F       		.byte	0x7f
ARM GAS  C:\Users\tmj32\AppData\Local\Temp\cc8xedyG.s 			page 62


 2212 0455 09       		.uleb128 0x9
 2213 0456 24060000 		.4byte	.LASF93
 2214 045a 09       		.byte	0x9
 2215 045b 8A       		.byte	0x8a
 2216 045c D5000000 		.4byte	0xd5
 2217 0460 80       		.byte	0x80
 2218 0461 09       		.uleb128 0x9
 2219 0462 D4000000 		.4byte	.LASF94
 2220 0466 09       		.byte	0x9
 2221 0467 8D       		.byte	0x8d
 2222 0468 01010000 		.4byte	0x101
 2223 046c 84       		.byte	0x84
 2224 046d 09       		.uleb128 0x9
 2225 046e D0110000 		.4byte	.LASF95
 2226 0472 09       		.byte	0x9
 2227 0473 8E       		.byte	0x8e
 2228 0474 01010000 		.4byte	0x101
 2229 0478 88       		.byte	0x88
 2230 0479 09       		.uleb128 0x9
 2231 047a 400D0000 		.4byte	.LASF96
 2232 047e 09       		.byte	0x9
 2233 047f 8F       		.byte	0x8f
 2234 0480 01010000 		.4byte	0x101
 2235 0484 8C       		.byte	0x8c
 2236 0485 09       		.uleb128 0x9
 2237 0486 E5160000 		.4byte	.LASF97
 2238 048a 09       		.byte	0x9
 2239 048b 90       		.byte	0x90
 2240 048c 01010000 		.4byte	0x101
 2241 0490 90       		.byte	0x90
 2242 0491 09       		.uleb128 0x9
 2243 0492 5B110000 		.4byte	.LASF98
 2244 0496 09       		.byte	0x9
 2245 0497 91       		.byte	0x91
 2246 0498 01010000 		.4byte	0x101
 2247 049c 94       		.byte	0x94
 2248 049d 09       		.uleb128 0x9
 2249 049e D6030000 		.4byte	.LASF99
 2250 04a2 09       		.byte	0x9
 2251 04a3 92       		.byte	0x92
 2252 04a4 01010000 		.4byte	0x101
 2253 04a8 98       		.byte	0x98
 2254 04a9 09       		.uleb128 0x9
 2255 04aa FE110000 		.4byte	.LASF100
 2256 04ae 09       		.byte	0x9
 2257 04af 93       		.byte	0x93
 2258 04b0 01010000 		.4byte	0x101
 2259 04b4 9C       		.byte	0x9c
 2260 04b5 09       		.uleb128 0x9
 2261 04b6 B6080000 		.4byte	.LASF101
 2262 04ba 09       		.byte	0x9
 2263 04bb 94       		.byte	0x94
 2264 04bc 01010000 		.4byte	0x101
 2265 04c0 A0       		.byte	0xa0
 2266 04c1 09       		.uleb128 0x9
 2267 04c2 EC030000 		.4byte	.LASF102
 2268 04c6 09       		.byte	0x9
ARM GAS  C:\Users\tmj32\AppData\Local\Temp\cc8xedyG.s 			page 63


 2269 04c7 95       		.byte	0x95
 2270 04c8 EB000000 		.4byte	0xeb
 2271 04cc A4       		.byte	0xa4
 2272 04cd 09       		.uleb128 0x9
 2273 04ce 850F0000 		.4byte	.LASF103
 2274 04d2 09       		.byte	0x9
 2275 04d3 96       		.byte	0x96
 2276 04d4 EB000000 		.4byte	0xeb
 2277 04d8 A6       		.byte	0xa6
 2278 04d9 09       		.uleb128 0x9
 2279 04da 46120000 		.4byte	.LASF104
 2280 04de 09       		.byte	0x9
 2281 04df 97       		.byte	0x97
 2282 04e0 EB000000 		.4byte	0xeb
 2283 04e4 A8       		.byte	0xa8
 2284 04e5 09       		.uleb128 0x9
 2285 04e6 1D0B0000 		.4byte	.LASF105
 2286 04ea 09       		.byte	0x9
 2287 04eb 98       		.byte	0x98
 2288 04ec EB000000 		.4byte	0xeb
 2289 04f0 AA       		.byte	0xaa
 2290 04f1 09       		.uleb128 0x9
 2291 04f2 24030000 		.4byte	.LASF106
 2292 04f6 09       		.byte	0x9
 2293 04f7 99       		.byte	0x99
 2294 04f8 EB000000 		.4byte	0xeb
 2295 04fc AC       		.byte	0xac
 2296 04fd 09       		.uleb128 0x9
 2297 04fe 760D0000 		.4byte	.LASF107
 2298 0502 09       		.byte	0x9
 2299 0503 9A       		.byte	0x9a
 2300 0504 EB000000 		.4byte	0xeb
 2301 0508 AE       		.byte	0xae
 2302 0509 09       		.uleb128 0x9
 2303 050a 32030000 		.4byte	.LASF108
 2304 050e 09       		.byte	0x9
 2305 050f 9D       		.byte	0x9d
 2306 0510 EB000000 		.4byte	0xeb
 2307 0514 B0       		.byte	0xb0
 2308 0515 09       		.uleb128 0x9
 2309 0516 88080000 		.4byte	.LASF109
 2310 051a 09       		.byte	0x9
 2311 051b 9E       		.byte	0x9e
 2312 051c 01010000 		.4byte	0x101
 2313 0520 B4       		.byte	0xb4
 2314 0521 00       		.byte	0
 2315 0522 02       		.uleb128 0x2
 2316 0523 F7140000 		.4byte	.LASF110
 2317 0527 09       		.byte	0x9
 2318 0528 9F       		.byte	0x9f
 2319 0529 11010000 		.4byte	0x111
 2320 052d 03       		.uleb128 0x3
 2321 052e 04       		.byte	0x4
 2322 052f 04       		.byte	0x4
 2323 0530 77050000 		.4byte	.LASF111
 2324 0534 03       		.uleb128 0x3
 2325 0535 08       		.byte	0x8
ARM GAS  C:\Users\tmj32\AppData\Local\Temp\cc8xedyG.s 			page 64


 2326 0536 04       		.byte	0x4
 2327 0537 60150000 		.4byte	.LASF112
 2328 053b 03       		.uleb128 0x3
 2329 053c 01       		.byte	0x1
 2330 053d 02       		.byte	0x2
 2331 053e 05080000 		.4byte	.LASF113
 2332 0542 0A       		.uleb128 0xa
 2333 0543 01       		.byte	0x1
 2334 0544 42000000 		.4byte	0x42
 2335 0548 0A       		.byte	0xa
 2336 0549 2402     		.2byte	0x224
 2337 054b 5C050000 		.4byte	0x55c
 2338 054f 0B       		.uleb128 0xb
 2339 0550 52090000 		.4byte	.LASF114
 2340 0554 00       		.byte	0
 2341 0555 0B       		.uleb128 0xb
 2342 0556 40030000 		.4byte	.LASF115
 2343 055a 01       		.byte	0x1
 2344 055b 00       		.byte	0
 2345 055c 0C       		.uleb128 0xc
 2346 055d DA020000 		.4byte	.LASF116
 2347 0561 0A       		.byte	0xa
 2348 0562 2702     		.2byte	0x227
 2349 0564 42050000 		.4byte	0x542
 2350 0568 0C       		.uleb128 0xc
 2351 0569 ED0B0000 		.4byte	.LASF117
 2352 056d 0A       		.byte	0xa
 2353 056e 3902     		.2byte	0x239
 2354 0570 74050000 		.4byte	0x574
 2355 0574 06       		.uleb128 0x6
 2356 0575 04       		.byte	0x4
 2357 0576 7A050000 		.4byte	0x57a
 2358 057a 0D       		.uleb128 0xd
 2359 057b 85050000 		.4byte	0x585
 2360 057f 0E       		.uleb128 0xe
 2361 0580 01010000 		.4byte	0x101
 2362 0584 00       		.byte	0
 2363 0585 0C       		.uleb128 0xc
 2364 0586 5A030000 		.4byte	.LASF118
 2365 058a 0A       		.byte	0xa
 2366 058b 4402     		.2byte	0x244
 2367 058d 91050000 		.4byte	0x591
 2368 0591 06       		.uleb128 0x6
 2369 0592 04       		.byte	0x4
 2370 0593 97050000 		.4byte	0x597
 2371 0597 0F       		.uleb128 0xf
 2372 0598 5C050000 		.4byte	0x55c
 2373 059c A6050000 		.4byte	0x5a6
 2374 05a0 0E       		.uleb128 0xe
 2375 05a1 01010000 		.4byte	0x101
 2376 05a5 00       		.byte	0
 2377 05a6 10       		.uleb128 0x10
 2378 05a7 9A030000 		.4byte	.LASF142
 2379 05ab 4C       		.byte	0x4c
 2380 05ac 0A       		.byte	0xa
 2381 05ad C302     		.2byte	0x2c3
 2382 05af C5060000 		.4byte	0x6c5
ARM GAS  C:\Users\tmj32\AppData\Local\Temp\cc8xedyG.s 			page 65


 2383 05b3 11       		.uleb128 0x11
 2384 05b4 29080000 		.4byte	.LASF119
 2385 05b8 0A       		.byte	0xa
 2386 05b9 C602     		.2byte	0x2c6
 2387 05bb 3B050000 		.4byte	0x53b
 2388 05bf 00       		.byte	0
 2389 05c0 11       		.uleb128 0x11
 2390 05c1 DE0B0000 		.4byte	.LASF120
 2391 05c5 0A       		.byte	0xa
 2392 05c6 C702     		.2byte	0x2c7
 2393 05c8 3B050000 		.4byte	0x53b
 2394 05cc 01       		.byte	0x1
 2395 05cd 11       		.uleb128 0x11
 2396 05ce A8130000 		.4byte	.LASF121
 2397 05d2 0A       		.byte	0xa
 2398 05d3 C902     		.2byte	0x2c9
 2399 05d5 0C010000 		.4byte	0x10c
 2400 05d9 04       		.byte	0x4
 2401 05da 11       		.uleb128 0x11
 2402 05db F7000000 		.4byte	.LASF122
 2403 05df 0A       		.byte	0xa
 2404 05e0 CB02     		.2byte	0x2cb
 2405 05e2 0C010000 		.4byte	0x10c
 2406 05e6 08       		.byte	0x8
 2407 05e7 11       		.uleb128 0x11
 2408 05e8 8F0D0000 		.4byte	.LASF123
 2409 05ec 0A       		.byte	0xa
 2410 05ed CC02     		.2byte	0x2cc
 2411 05ef 3B050000 		.4byte	0x53b
 2412 05f3 0C       		.byte	0xc
 2413 05f4 11       		.uleb128 0x11
 2414 05f5 280C0000 		.4byte	.LASF124
 2415 05f9 0A       		.byte	0xa
 2416 05fa CD02     		.2byte	0x2cd
 2417 05fc 3B050000 		.4byte	0x53b
 2418 0600 0D       		.byte	0xd
 2419 0601 11       		.uleb128 0x11
 2420 0602 930E0000 		.4byte	.LASF125
 2421 0606 0A       		.byte	0xa
 2422 0607 CF02     		.2byte	0x2cf
 2423 0609 C5060000 		.4byte	0x6c5
 2424 060d 10       		.byte	0x10
 2425 060e 11       		.uleb128 0x11
 2426 060f C6090000 		.4byte	.LASF126
 2427 0613 0A       		.byte	0xa
 2428 0614 D002     		.2byte	0x2d0
 2429 0616 01010000 		.4byte	0x101
 2430 061a 14       		.byte	0x14
 2431 061b 11       		.uleb128 0x11
 2432 061c C2010000 		.4byte	.LASF127
 2433 0620 0A       		.byte	0xa
 2434 0621 D102     		.2byte	0x2d1
 2435 0623 0C010000 		.4byte	0x10c
 2436 0627 18       		.byte	0x18
 2437 0628 11       		.uleb128 0x11
 2438 0629 9E070000 		.4byte	.LASF128
 2439 062d 0A       		.byte	0xa
ARM GAS  C:\Users\tmj32\AppData\Local\Temp\cc8xedyG.s 			page 66


 2440 062e D202     		.2byte	0x2d2
 2441 0630 0C010000 		.4byte	0x10c
 2442 0634 1C       		.byte	0x1c
 2443 0635 11       		.uleb128 0x11
 2444 0636 64170000 		.4byte	.LASF129
 2445 063a 0A       		.byte	0xa
 2446 063b D402     		.2byte	0x2d4
 2447 063d 0C010000 		.4byte	0x10c
 2448 0641 20       		.byte	0x20
 2449 0642 11       		.uleb128 0x11
 2450 0643 F9020000 		.4byte	.LASF130
 2451 0647 0A       		.byte	0xa
 2452 0648 D502     		.2byte	0x2d5
 2453 064a CB060000 		.4byte	0x6cb
 2454 064e 24       		.byte	0x24
 2455 064f 11       		.uleb128 0x11
 2456 0650 26040000 		.4byte	.LASF131
 2457 0654 0A       		.byte	0xa
 2458 0655 D702     		.2byte	0x2d7
 2459 0657 C5060000 		.4byte	0x6c5
 2460 065b 28       		.byte	0x28
 2461 065c 11       		.uleb128 0x11
 2462 065d 80060000 		.4byte	.LASF132
 2463 0661 0A       		.byte	0xa
 2464 0662 D802     		.2byte	0x2d8
 2465 0664 01010000 		.4byte	0x101
 2466 0668 2C       		.byte	0x2c
 2467 0669 11       		.uleb128 0x11
 2468 066a EB040000 		.4byte	.LASF133
 2469 066e 0A       		.byte	0xa
 2470 066f D902     		.2byte	0x2d9
 2471 0671 0C010000 		.4byte	0x10c
 2472 0675 30       		.byte	0x30
 2473 0676 11       		.uleb128 0x11
 2474 0677 870A0000 		.4byte	.LASF134
 2475 067b 0A       		.byte	0xa
 2476 067c DA02     		.2byte	0x2da
 2477 067e 0C010000 		.4byte	0x10c
 2478 0682 34       		.byte	0x34
 2479 0683 11       		.uleb128 0x11
 2480 0684 58020000 		.4byte	.LASF135
 2481 0688 0A       		.byte	0xa
 2482 0689 DC02     		.2byte	0x2dc
 2483 068b C5060000 		.4byte	0x6c5
 2484 068f 38       		.byte	0x38
 2485 0690 11       		.uleb128 0x11
 2486 0691 130E0000 		.4byte	.LASF136
 2487 0695 0A       		.byte	0xa
 2488 0696 DD02     		.2byte	0x2dd
 2489 0698 01010000 		.4byte	0x101
 2490 069c 3C       		.byte	0x3c
 2491 069d 11       		.uleb128 0x11
 2492 069e 650D0000 		.4byte	.LASF137
 2493 06a2 0A       		.byte	0xa
 2494 06a3 DE02     		.2byte	0x2de
 2495 06a5 0C010000 		.4byte	0x10c
 2496 06a9 40       		.byte	0x40
ARM GAS  C:\Users\tmj32\AppData\Local\Temp\cc8xedyG.s 			page 67


 2497 06aa 11       		.uleb128 0x11
 2498 06ab B8070000 		.4byte	.LASF138
 2499 06af 0A       		.byte	0xa
 2500 06b0 E402     		.2byte	0x2e4
 2501 06b2 68050000 		.4byte	0x568
 2502 06b6 44       		.byte	0x44
 2503 06b7 11       		.uleb128 0x11
 2504 06b8 90020000 		.4byte	.LASF139
 2505 06bc 0A       		.byte	0xa
 2506 06bd EB02     		.2byte	0x2eb
 2507 06bf 85050000 		.4byte	0x585
 2508 06c3 48       		.byte	0x48
 2509 06c4 00       		.byte	0
 2510 06c5 06       		.uleb128 0x6
 2511 06c6 04       		.byte	0x4
 2512 06c7 D5000000 		.4byte	0xd5
 2513 06cb 07       		.uleb128 0x7
 2514 06cc 3B050000 		.4byte	0x53b
 2515 06d0 0C       		.uleb128 0xc
 2516 06d1 9B150000 		.4byte	.LASF140
 2517 06d5 0A       		.byte	0xa
 2518 06d6 EE02     		.2byte	0x2ee
 2519 06d8 A6050000 		.4byte	0x5a6
 2520 06dc 0C       		.uleb128 0xc
 2521 06dd 2F000000 		.4byte	.LASF141
 2522 06e1 0B       		.byte	0xb
 2523 06e2 F201     		.2byte	0x1f2
 2524 06e4 74050000 		.4byte	0x574
 2525 06e8 10       		.uleb128 0x10
 2526 06e9 49150000 		.4byte	.LASF143
 2527 06ed 24       		.byte	0x24
 2528 06ee 0B       		.byte	0xb
 2529 06ef 7402     		.2byte	0x274
 2530 06f1 6B070000 		.4byte	0x76b
 2531 06f5 11       		.uleb128 0x11
 2532 06f6 7B0A0000 		.4byte	.LASF144
 2533 06fa 0B       		.byte	0xb
 2534 06fb 7702     		.2byte	0x277
 2535 06fd 0C010000 		.4byte	0x10c
 2536 0701 00       		.byte	0
 2537 0702 11       		.uleb128 0x11
 2538 0703 01070000 		.4byte	.LASF145
 2539 0707 0B       		.byte	0xb
 2540 0708 7902     		.2byte	0x279
 2541 070a B4000000 		.4byte	0xb4
 2542 070e 04       		.byte	0x4
 2543 070f 11       		.uleb128 0x11
 2544 0710 54170000 		.4byte	.LASF146
 2545 0714 0B       		.byte	0xb
 2546 0715 7A02     		.2byte	0x27a
 2547 0717 01010000 		.4byte	0x101
 2548 071b 08       		.byte	0x8
 2549 071c 11       		.uleb128 0x11
 2550 071d 180A0000 		.4byte	.LASF147
 2551 0721 0B       		.byte	0xb
 2552 0722 7B02     		.2byte	0x27b
 2553 0724 0C010000 		.4byte	0x10c
ARM GAS  C:\Users\tmj32\AppData\Local\Temp\cc8xedyG.s 			page 68


 2554 0728 0C       		.byte	0xc
 2555 0729 11       		.uleb128 0x11
 2556 072a DD0D0000 		.4byte	.LASF148
 2557 072e 0B       		.byte	0xb
 2558 072f 7D02     		.2byte	0x27d
 2559 0731 B4000000 		.4byte	0xb4
 2560 0735 10       		.byte	0x10
 2561 0736 11       		.uleb128 0x11
 2562 0737 F70C0000 		.4byte	.LASF149
 2563 073b 0B       		.byte	0xb
 2564 073c 7E02     		.2byte	0x27e
 2565 073e 01010000 		.4byte	0x101
 2566 0742 14       		.byte	0x14
 2567 0743 11       		.uleb128 0x11
 2568 0744 F8010000 		.4byte	.LASF150
 2569 0748 0B       		.byte	0xb
 2570 0749 7F02     		.2byte	0x27f
 2571 074b 0C010000 		.4byte	0x10c
 2572 074f 18       		.byte	0x18
 2573 0750 11       		.uleb128 0x11
 2574 0751 B8070000 		.4byte	.LASF138
 2575 0755 0B       		.byte	0xb
 2576 0756 8502     		.2byte	0x285
 2577 0758 DC060000 		.4byte	0x6dc
 2578 075c 1C       		.byte	0x1c
 2579 075d 11       		.uleb128 0x11
 2580 075e 350A0000 		.4byte	.LASF151
 2581 0762 0B       		.byte	0xb
 2582 0763 8802     		.2byte	0x288
 2583 0765 01010000 		.4byte	0x101
 2584 0769 20       		.byte	0x20
 2585 076a 00       		.byte	0
 2586 076b 0C       		.uleb128 0xc
 2587 076c 7D0C0000 		.4byte	.LASF152
 2588 0770 0B       		.byte	0xb
 2589 0771 8B02     		.2byte	0x28b
 2590 0773 E8060000 		.4byte	0x6e8
 2591 0777 12       		.uleb128 0x12
 2592 0778 86140000 		.4byte	.LASF153
 2593 077c 4C       		.byte	0x4c
 2594 077d 0C       		.byte	0xc
 2595 077e 2F       		.byte	0x2f
 2596 077f 68080000 		.4byte	0x868
 2597 0783 09       		.uleb128 0x9
 2598 0784 5F140000 		.4byte	.LASF154
 2599 0788 0C       		.byte	0xc
 2600 0789 31       		.byte	0x31
 2601 078a 01010000 		.4byte	0x101
 2602 078e 00       		.byte	0
 2603 078f 09       		.uleb128 0x9
 2604 0790 FC090000 		.4byte	.LASF155
 2605 0794 0C       		.byte	0xc
 2606 0795 33       		.byte	0x33
 2607 0796 01010000 		.4byte	0x101
 2608 079a 04       		.byte	0x4
 2609 079b 09       		.uleb128 0x9
 2610 079c 790E0000 		.4byte	.LASF156
ARM GAS  C:\Users\tmj32\AppData\Local\Temp\cc8xedyG.s 			page 69


 2611 07a0 0C       		.byte	0xc
 2612 07a1 34       		.byte	0x34
 2613 07a2 01010000 		.4byte	0x101
 2614 07a6 08       		.byte	0x8
 2615 07a7 09       		.uleb128 0x9
 2616 07a8 BF100000 		.4byte	.LASF157
 2617 07ac 0C       		.byte	0xc
 2618 07ad 35       		.byte	0x35
 2619 07ae 01010000 		.4byte	0x101
 2620 07b2 0C       		.byte	0xc
 2621 07b3 09       		.uleb128 0x9
 2622 07b4 EB090000 		.4byte	.LASF158
 2623 07b8 0C       		.byte	0xc
 2624 07b9 37       		.byte	0x37
 2625 07ba 01010000 		.4byte	0x101
 2626 07be 10       		.byte	0x10
 2627 07bf 09       		.uleb128 0x9
 2628 07c0 76030000 		.4byte	.LASF159
 2629 07c4 0C       		.byte	0xc
 2630 07c5 38       		.byte	0x38
 2631 07c6 01010000 		.4byte	0x101
 2632 07ca 14       		.byte	0x14
 2633 07cb 09       		.uleb128 0x9
 2634 07cc 7F030000 		.4byte	.LASF160
 2635 07d0 0C       		.byte	0xc
 2636 07d1 39       		.byte	0x39
 2637 07d2 01010000 		.4byte	0x101
 2638 07d6 18       		.byte	0x18
 2639 07d7 09       		.uleb128 0x9
 2640 07d8 9B0D0000 		.4byte	.LASF161
 2641 07dc 0C       		.byte	0xc
 2642 07dd 3A       		.byte	0x3a
 2643 07de 3B050000 		.4byte	0x53b
 2644 07e2 1C       		.byte	0x1c
 2645 07e3 09       		.uleb128 0x9
 2646 07e4 01100000 		.4byte	.LASF162
 2647 07e8 0C       		.byte	0xc
 2648 07e9 3C       		.byte	0x3c
 2649 07ea 01010000 		.4byte	0x101
 2650 07ee 20       		.byte	0x20
 2651 07ef 09       		.uleb128 0x9
 2652 07f0 BD060000 		.4byte	.LASF163
 2653 07f4 0C       		.byte	0xc
 2654 07f5 3D       		.byte	0x3d
 2655 07f6 01010000 		.4byte	0x101
 2656 07fa 24       		.byte	0x24
 2657 07fb 09       		.uleb128 0x9
 2658 07fc 30090000 		.4byte	.LASF164
 2659 0800 0C       		.byte	0xc
 2660 0801 3F       		.byte	0x3f
 2661 0802 01010000 		.4byte	0x101
 2662 0806 28       		.byte	0x28
 2663 0807 09       		.uleb128 0x9
 2664 0808 9F0C0000 		.4byte	.LASF165
 2665 080c 0C       		.byte	0xc
 2666 080d 40       		.byte	0x40
 2667 080e 01010000 		.4byte	0x101
ARM GAS  C:\Users\tmj32\AppData\Local\Temp\cc8xedyG.s 			page 70


 2668 0812 2C       		.byte	0x2c
 2669 0813 09       		.uleb128 0x9
 2670 0814 BB050000 		.4byte	.LASF166
 2671 0818 0C       		.byte	0xc
 2672 0819 42       		.byte	0x42
 2673 081a 01010000 		.4byte	0x101
 2674 081e 30       		.byte	0x30
 2675 081f 09       		.uleb128 0x9
 2676 0820 A8060000 		.4byte	.LASF167
 2677 0824 0C       		.byte	0xc
 2678 0825 43       		.byte	0x43
 2679 0826 01010000 		.4byte	0x101
 2680 082a 34       		.byte	0x34
 2681 082b 09       		.uleb128 0x9
 2682 082c 01020000 		.4byte	.LASF168
 2683 0830 0C       		.byte	0xc
 2684 0831 45       		.byte	0x45
 2685 0832 01010000 		.4byte	0x101
 2686 0836 38       		.byte	0x38
 2687 0837 09       		.uleb128 0x9
 2688 0838 69000000 		.4byte	.LASF169
 2689 083c 0C       		.byte	0xc
 2690 083d 46       		.byte	0x46
 2691 083e 01010000 		.4byte	0x101
 2692 0842 3C       		.byte	0x3c
 2693 0843 09       		.uleb128 0x9
 2694 0844 B7020000 		.4byte	.LASF170
 2695 0848 0C       		.byte	0xc
 2696 0849 48       		.byte	0x48
 2697 084a 01010000 		.4byte	0x101
 2698 084e 40       		.byte	0x40
 2699 084f 09       		.uleb128 0x9
 2700 0850 72100000 		.4byte	.LASF171
 2701 0854 0C       		.byte	0xc
 2702 0855 49       		.byte	0x49
 2703 0856 01010000 		.4byte	0x101
 2704 085a 44       		.byte	0x44
 2705 085b 09       		.uleb128 0x9
 2706 085c 2F130000 		.4byte	.LASF172
 2707 0860 0C       		.byte	0xc
 2708 0861 4B       		.byte	0x4b
 2709 0862 01010000 		.4byte	0x101
 2710 0866 48       		.byte	0x48
 2711 0867 00       		.byte	0
 2712 0868 02       		.uleb128 0x2
 2713 0869 DB0E0000 		.4byte	.LASF173
 2714 086d 0C       		.byte	0xc
 2715 086e 4C       		.byte	0x4c
 2716 086f 77070000 		.4byte	0x777
 2717 0873 13       		.uleb128 0x13
 2718 0874 1B130000 		.4byte	.LASF174
 2719 0878 4404     		.2byte	0x444
 2720 087a 0D       		.byte	0xd
 2721 087b 05       		.byte	0x5
 2722 087c 65090000 		.4byte	0x965
 2723 0880 09       		.uleb128 0x9
 2724 0881 150C0000 		.4byte	.LASF175
ARM GAS  C:\Users\tmj32\AppData\Local\Temp\cc8xedyG.s 			page 71


 2725 0885 0D       		.byte	0xd
 2726 0886 07       		.byte	0x7
 2727 0887 D5000000 		.4byte	0xd5
 2728 088b 00       		.byte	0
 2729 088c 09       		.uleb128 0x9
 2730 088d 3D120000 		.4byte	.LASF176
 2731 0891 0D       		.byte	0xd
 2732 0892 08       		.byte	0x8
 2733 0893 D5000000 		.4byte	0xd5
 2734 0897 01       		.byte	0x1
 2735 0898 09       		.uleb128 0x9
 2736 0899 D4160000 		.4byte	.LASF177
 2737 089d 0D       		.byte	0xd
 2738 089e 09       		.byte	0x9
 2739 089f D5000000 		.4byte	0xd5
 2740 08a3 02       		.byte	0x2
 2741 08a4 09       		.uleb128 0x9
 2742 08a5 36010000 		.4byte	.LASF178
 2743 08a9 0D       		.byte	0xd
 2744 08aa 0B       		.byte	0xb
 2745 08ab D5000000 		.4byte	0xd5
 2746 08af 03       		.byte	0x3
 2747 08b0 09       		.uleb128 0x9
 2748 08b1 8B110000 		.4byte	.LASF179
 2749 08b5 0D       		.byte	0xd
 2750 08b6 0C       		.byte	0xc
 2751 08b7 D5000000 		.4byte	0xd5
 2752 08bb 04       		.byte	0x4
 2753 08bc 09       		.uleb128 0x9
 2754 08bd B8140000 		.4byte	.LASF180
 2755 08c1 0D       		.byte	0xd
 2756 08c2 0D       		.byte	0xd
 2757 08c3 D5000000 		.4byte	0xd5
 2758 08c7 05       		.byte	0x5
 2759 08c8 09       		.uleb128 0x9
 2760 08c9 CE0A0000 		.4byte	.LASF181
 2761 08cd 0D       		.byte	0xd
 2762 08ce 0E       		.byte	0xe
 2763 08cf D5000000 		.4byte	0xd5
 2764 08d3 06       		.byte	0x6
 2765 08d4 09       		.uleb128 0x9
 2766 08d5 40140000 		.4byte	.LASF182
 2767 08d9 0D       		.byte	0xd
 2768 08da 0F       		.byte	0xf
 2769 08db D5000000 		.4byte	0xd5
 2770 08df 07       		.byte	0x7
 2771 08e0 09       		.uleb128 0x9
 2772 08e1 0D0E0000 		.4byte	.LASF183
 2773 08e5 0D       		.byte	0xd
 2774 08e6 10       		.byte	0x10
 2775 08e7 D5000000 		.4byte	0xd5
 2776 08eb 08       		.byte	0x8
 2777 08ec 14       		.uleb128 0x14
 2778 08ed 49525300 		.ascii	"IRS\000"
 2779 08f1 0D       		.byte	0xd
 2780 08f2 11       		.byte	0x11
 2781 08f3 D5000000 		.4byte	0xd5
ARM GAS  C:\Users\tmj32\AppData\Local\Temp\cc8xedyG.s 			page 72


 2782 08f7 09       		.byte	0x9
 2783 08f8 09       		.uleb128 0x9
 2784 08f9 C1020000 		.4byte	.LASF184
 2785 08fd 0D       		.byte	0xd
 2786 08fe 12       		.byte	0x12
 2787 08ff D5000000 		.4byte	0xd5
 2788 0903 0A       		.byte	0xa
 2789 0904 09       		.uleb128 0x9
 2790 0905 0F070000 		.4byte	.LASF185
 2791 0909 0D       		.byte	0xd
 2792 090a 15       		.byte	0x15
 2793 090b 9F000000 		.4byte	0x9f
 2794 090f 0C       		.byte	0xc
 2795 0910 09       		.uleb128 0x9
 2796 0911 440F0000 		.4byte	.LASF186
 2797 0915 0D       		.byte	0xd
 2798 0916 16       		.byte	0x16
 2799 0917 9F000000 		.4byte	0x9f
 2800 091b 10       		.byte	0x10
 2801 091c 09       		.uleb128 0x9
 2802 091d 11130000 		.4byte	.LASF187
 2803 0921 0D       		.byte	0xd
 2804 0922 18       		.byte	0x18
 2805 0923 D5000000 		.4byte	0xd5
 2806 0927 14       		.byte	0x14
 2807 0928 09       		.uleb128 0x9
 2808 0929 04010000 		.4byte	.LASF188
 2809 092d 0D       		.byte	0xd
 2810 092e 19       		.byte	0x19
 2811 092f D5000000 		.4byte	0xd5
 2812 0933 15       		.byte	0x15
 2813 0934 09       		.uleb128 0x9
 2814 0935 00000000 		.4byte	.LASF189
 2815 0939 0D       		.byte	0xd
 2816 093a 1A       		.byte	0x1a
 2817 093b D5000000 		.4byte	0xd5
 2818 093f 16       		.byte	0x16
 2819 0940 09       		.uleb128 0x9
 2820 0941 85010000 		.4byte	.LASF190
 2821 0945 0D       		.byte	0xd
 2822 0946 1D       		.byte	0x1d
 2823 0947 65090000 		.4byte	0x965
 2824 094b 18       		.byte	0x18
 2825 094c 09       		.uleb128 0x9
 2826 094d AC090000 		.4byte	.LASF191
 2827 0951 0D       		.byte	0xd
 2828 0952 1E       		.byte	0x1e
 2829 0953 75090000 		.4byte	0x975
 2830 0957 32       		.byte	0x32
 2831 0958 09       		.uleb128 0x9
 2832 0959 45100000 		.4byte	.LASF192
 2833 095d 0D       		.byte	0xd
 2834 095e 1F       		.byte	0x1f
 2835 095f 85090000 		.4byte	0x985
 2836 0963 42       		.byte	0x42
 2837 0964 00       		.byte	0
 2838 0965 15       		.uleb128 0x15
ARM GAS  C:\Users\tmj32\AppData\Local\Temp\cc8xedyG.s 			page 73


 2839 0966 EB000000 		.4byte	0xeb
 2840 096a 75090000 		.4byte	0x975
 2841 096e 16       		.uleb128 0x16
 2842 096f B6000000 		.4byte	0xb6
 2843 0973 0C       		.byte	0xc
 2844 0974 00       		.byte	0
 2845 0975 15       		.uleb128 0x15
 2846 0976 E0000000 		.4byte	0xe0
 2847 097a 85090000 		.4byte	0x985
 2848 097e 16       		.uleb128 0x16
 2849 097f B6000000 		.4byte	0xb6
 2850 0983 07       		.byte	0x7
 2851 0984 00       		.byte	0
 2852 0985 15       		.uleb128 0x15
 2853 0986 CA000000 		.4byte	0xca
 2854 098a 96090000 		.4byte	0x996
 2855 098e 17       		.uleb128 0x17
 2856 098f B6000000 		.4byte	0xb6
 2857 0993 FF03     		.2byte	0x3ff
 2858 0995 00       		.byte	0
 2859 0996 02       		.uleb128 0x2
 2860 0997 19110000 		.4byte	.LASF193
 2861 099b 0E       		.byte	0xe
 2862 099c 3C       		.byte	0x3c
 2863 099d E0000000 		.4byte	0xe0
 2864 09a1 02       		.uleb128 0x2
 2865 09a2 960C0000 		.4byte	.LASF194
 2866 09a6 0F       		.byte	0xf
 2867 09a7 2C       		.byte	0x2c
 2868 09a8 D5000000 		.4byte	0xd5
 2869 09ac 02       		.uleb128 0x2
 2870 09ad D1070000 		.4byte	.LASF195
 2871 09b1 10       		.byte	0x10
 2872 09b2 1E       		.byte	0x1e
 2873 09b3 D5000000 		.4byte	0xd5
 2874 09b7 08       		.uleb128 0x8
 2875 09b8 0C       		.byte	0xc
 2876 09b9 10       		.byte	0x10
 2877 09ba 21       		.byte	0x21
 2878 09bb E4090000 		.4byte	0x9e4
 2879 09bf 09       		.uleb128 0x9
 2880 09c0 F2020000 		.4byte	.LASF196
 2881 09c4 10       		.byte	0x10
 2882 09c5 23       		.byte	0x23
 2883 09c6 01010000 		.4byte	0x101
 2884 09ca 00       		.byte	0
 2885 09cb 09       		.uleb128 0x9
 2886 09cc 65060000 		.4byte	.LASF197
 2887 09d0 10       		.byte	0x10
 2888 09d1 24       		.byte	0x24
 2889 09d2 E4090000 		.4byte	0x9e4
 2890 09d6 04       		.byte	0x4
 2891 09d7 09       		.uleb128 0x9
 2892 09d8 6D130000 		.4byte	.LASF198
 2893 09dc 10       		.byte	0x10
 2894 09dd 25       		.byte	0x25
 2895 09de E4090000 		.4byte	0x9e4
ARM GAS  C:\Users\tmj32\AppData\Local\Temp\cc8xedyG.s 			page 74


 2896 09e2 08       		.byte	0x8
 2897 09e3 00       		.byte	0
 2898 09e4 06       		.uleb128 0x6
 2899 09e5 04       		.byte	0x4
 2900 09e6 AC090000 		.4byte	0x9ac
 2901 09ea 02       		.uleb128 0x2
 2902 09eb F6050000 		.4byte	.LASF199
 2903 09ef 10       		.byte	0x10
 2904 09f0 26       		.byte	0x26
 2905 09f1 B7090000 		.4byte	0x9b7
 2906 09f5 08       		.uleb128 0x8
 2907 09f6 04       		.byte	0x4
 2908 09f7 01       		.byte	0x1
 2909 09f8 F3       		.byte	0xf3
 2910 09f9 2E0A0000 		.4byte	0xa2e
 2911 09fd 09       		.uleb128 0x9
 2912 09fe E7100000 		.4byte	.LASF200
 2913 0a02 01       		.byte	0x1
 2914 0a03 F5       		.byte	0xf5
 2915 0a04 D5000000 		.4byte	0xd5
 2916 0a08 00       		.byte	0
 2917 0a09 09       		.uleb128 0x9
 2918 0a0a 420E0000 		.4byte	.LASF201
 2919 0a0e 01       		.byte	0x1
 2920 0a0f F6       		.byte	0xf6
 2921 0a10 D5000000 		.4byte	0xd5
 2922 0a14 01       		.byte	0x1
 2923 0a15 14       		.uleb128 0x14
 2924 0a16 72656400 		.ascii	"red\000"
 2925 0a1a 01       		.byte	0x1
 2926 0a1b F7       		.byte	0xf7
 2927 0a1c D5000000 		.4byte	0xd5
 2928 0a20 02       		.byte	0x2
 2929 0a21 09       		.uleb128 0x9
 2930 0a22 B7060000 		.4byte	.LASF202
 2931 0a26 01       		.byte	0x1
 2932 0a27 F8       		.byte	0xf8
 2933 0a28 D5000000 		.4byte	0xd5
 2934 0a2c 03       		.byte	0x3
 2935 0a2d 00       		.byte	0
 2936 0a2e 18       		.uleb128 0x18
 2937 0a2f 04       		.byte	0x4
 2938 0a30 01       		.byte	0x1
 2939 0a31 F1       		.byte	0xf1
 2940 0a32 4C0A0000 		.4byte	0xa4c
 2941 0a36 19       		.uleb128 0x19
 2942 0a37 636800   		.ascii	"ch\000"
 2943 0a3a 01       		.byte	0x1
 2944 0a3b F9       		.byte	0xf9
 2945 0a3c F5090000 		.4byte	0x9f5
 2946 0a40 1A       		.uleb128 0x1a
 2947 0a41 64000000 		.4byte	.LASF203
 2948 0a45 01       		.byte	0x1
 2949 0a46 FA       		.byte	0xfa
 2950 0a47 01010000 		.4byte	0x101
 2951 0a4b 00       		.byte	0
 2952 0a4c 02       		.uleb128 0x2
ARM GAS  C:\Users\tmj32\AppData\Local\Temp\cc8xedyG.s 			page 75


 2953 0a4d 23050000 		.4byte	.LASF204
 2954 0a51 01       		.byte	0x1
 2955 0a52 FB       		.byte	0xfb
 2956 0a53 2E0A0000 		.4byte	0xa2e
 2957 0a57 0C       		.uleb128 0xc
 2958 0a58 E90D0000 		.4byte	.LASF205
 2959 0a5c 01       		.byte	0x1
 2960 0a5d 0801     		.2byte	0x108
 2961 0a5f 4C0A0000 		.4byte	0xa4c
 2962 0a63 0C       		.uleb128 0xc
 2963 0a64 27100000 		.4byte	.LASF206
 2964 0a68 01       		.byte	0x1
 2965 0a69 0D01     		.2byte	0x10d
 2966 0a6b D5000000 		.4byte	0xd5
 2967 0a6f 08       		.uleb128 0x8
 2968 0a70 08       		.byte	0x8
 2969 0a71 11       		.byte	0x11
 2970 0a72 31       		.byte	0x31
 2971 0a73 A40A0000 		.4byte	0xaa4
 2972 0a77 14       		.uleb128 0x14
 2973 0a78 783100   		.ascii	"x1\000"
 2974 0a7b 11       		.byte	0x11
 2975 0a7c 33       		.byte	0x33
 2976 0a7d 96090000 		.4byte	0x996
 2977 0a81 00       		.byte	0
 2978 0a82 14       		.uleb128 0x14
 2979 0a83 793100   		.ascii	"y1\000"
 2980 0a86 11       		.byte	0x11
 2981 0a87 34       		.byte	0x34
 2982 0a88 96090000 		.4byte	0x996
 2983 0a8c 02       		.byte	0x2
 2984 0a8d 14       		.uleb128 0x14
 2985 0a8e 783200   		.ascii	"x2\000"
 2986 0a91 11       		.byte	0x11
 2987 0a92 35       		.byte	0x35
 2988 0a93 96090000 		.4byte	0x996
 2989 0a97 04       		.byte	0x4
 2990 0a98 14       		.uleb128 0x14
 2991 0a99 793200   		.ascii	"y2\000"
 2992 0a9c 11       		.byte	0x11
 2993 0a9d 36       		.byte	0x36
 2994 0a9e 96090000 		.4byte	0x996
 2995 0aa2 06       		.byte	0x6
 2996 0aa3 00       		.byte	0
 2997 0aa4 02       		.uleb128 0x2
 2998 0aa5 21120000 		.4byte	.LASF207
 2999 0aa9 11       		.byte	0x11
 3000 0aaa 37       		.byte	0x37
 3001 0aab 6F0A0000 		.4byte	0xa6f
 3002 0aaf 06       		.uleb128 0x6
 3003 0ab0 04       		.byte	0x4
 3004 0ab1 B50A0000 		.4byte	0xab5
 3005 0ab5 1B       		.uleb128 0x1b
 3006 0ab6 A40A0000 		.4byte	0xaa4
 3007 0aba 12       		.uleb128 0x12
 3008 0abb 25000000 		.4byte	.LASF208
 3009 0abf 40       		.byte	0x40
ARM GAS  C:\Users\tmj32\AppData\Local\Temp\cc8xedyG.s 			page 76


 3010 0ac0 12       		.byte	0x12
 3011 0ac1 BB       		.byte	0xbb
 3012 0ac2 FC0B0000 		.4byte	0xbfc
 3013 0ac6 14       		.uleb128 0x14
 3014 0ac7 70617200 		.ascii	"par\000"
 3015 0acb 12       		.byte	0x12
 3016 0acc BD       		.byte	0xbd
 3017 0acd FC0B0000 		.4byte	0xbfc
 3018 0ad1 00       		.byte	0
 3019 0ad2 09       		.uleb128 0x9
 3020 0ad3 82130000 		.4byte	.LASF209
 3021 0ad7 12       		.byte	0x12
 3022 0ad8 BE       		.byte	0xbe
 3023 0ad9 EA090000 		.4byte	0x9ea
 3024 0add 04       		.byte	0x4
 3025 0ade 09       		.uleb128 0x9
 3026 0adf FA0F0000 		.4byte	.LASF210
 3027 0ae3 12       		.byte	0x12
 3028 0ae4 C0       		.byte	0xc0
 3029 0ae5 A40A0000 		.4byte	0xaa4
 3030 0ae9 10       		.byte	0x10
 3031 0aea 09       		.uleb128 0x9
 3032 0aeb DD130000 		.4byte	.LASF211
 3033 0aef 12       		.byte	0x12
 3034 0af0 C2       		.byte	0xc2
 3035 0af1 45100000 		.4byte	0x1045
 3036 0af5 18       		.byte	0x18
 3037 0af6 09       		.uleb128 0x9
 3038 0af7 B4150000 		.4byte	.LASF212
 3039 0afb 12       		.byte	0x12
 3040 0afc C3       		.byte	0xc3
 3041 0afd 71100000 		.4byte	0x1071
 3042 0b01 1C       		.byte	0x1c
 3043 0b02 09       		.uleb128 0x9
 3044 0b03 E6130000 		.4byte	.LASF213
 3045 0b07 12       		.byte	0x12
 3046 0b08 C4       		.byte	0xc4
 3047 0b09 8B0F0000 		.4byte	0xf8b
 3048 0b0d 20       		.byte	0x20
 3049 0b0e 09       		.uleb128 0x9
 3050 0b0f 23140000 		.4byte	.LASF214
 3051 0b13 12       		.byte	0x12
 3052 0b14 C6       		.byte	0xc6
 3053 0b15 B4000000 		.4byte	0xb4
 3054 0b19 24       		.byte	0x24
 3055 0b1a 09       		.uleb128 0x9
 3056 0b1b 65070000 		.4byte	.LASF215
 3057 0b1f 12       		.byte	0x12
 3058 0b20 C7       		.byte	0xc7
 3059 0b21 A9110000 		.4byte	0x11a9
 3060 0b25 28       		.byte	0x28
 3061 0b26 1C       		.uleb128 0x1c
 3062 0b27 87050000 		.4byte	.LASF216
 3063 0b2b 12       		.byte	0x12
 3064 0b2c D7       		.byte	0xd7
 3065 0b2d D5000000 		.4byte	0xd5
 3066 0b31 01       		.byte	0x1
ARM GAS  C:\Users\tmj32\AppData\Local\Temp\cc8xedyG.s 			page 77


 3067 0b32 01       		.byte	0x1
 3068 0b33 07       		.byte	0x7
 3069 0b34 2C       		.byte	0x2c
 3070 0b35 1C       		.uleb128 0x1c
 3071 0b36 67150000 		.4byte	.LASF217
 3072 0b3a 12       		.byte	0x12
 3073 0b3b D8       		.byte	0xd8
 3074 0b3c D5000000 		.4byte	0xd5
 3075 0b40 01       		.byte	0x1
 3076 0b41 01       		.byte	0x1
 3077 0b42 06       		.byte	0x6
 3078 0b43 2C       		.byte	0x2c
 3079 0b44 1C       		.uleb128 0x1c
 3080 0b45 9E010000 		.4byte	.LASF218
 3081 0b49 12       		.byte	0x12
 3082 0b4a D9       		.byte	0xd9
 3083 0b4b D5000000 		.4byte	0xd5
 3084 0b4f 01       		.byte	0x1
 3085 0b50 01       		.byte	0x1
 3086 0b51 05       		.byte	0x5
 3087 0b52 2C       		.byte	0x2c
 3088 0b53 1C       		.uleb128 0x1c
 3089 0b54 A0090000 		.4byte	.LASF219
 3090 0b58 12       		.byte	0x12
 3091 0b59 DA       		.byte	0xda
 3092 0b5a D5000000 		.4byte	0xd5
 3093 0b5e 01       		.byte	0x1
 3094 0b5f 01       		.byte	0x1
 3095 0b60 04       		.byte	0x4
 3096 0b61 2C       		.byte	0x2c
 3097 0b62 1C       		.uleb128 0x1c
 3098 0b63 66140000 		.4byte	.LASF220
 3099 0b67 12       		.byte	0x12
 3100 0b68 DB       		.byte	0xdb
 3101 0b69 D5000000 		.4byte	0xd5
 3102 0b6d 01       		.byte	0x1
 3103 0b6e 01       		.byte	0x1
 3104 0b6f 03       		.byte	0x3
 3105 0b70 2C       		.byte	0x2c
 3106 0b71 1D       		.uleb128 0x1d
 3107 0b72 746F7000 		.ascii	"top\000"
 3108 0b76 12       		.byte	0x12
 3109 0b77 DC       		.byte	0xdc
 3110 0b78 D5000000 		.4byte	0xd5
 3111 0b7c 01       		.byte	0x1
 3112 0b7d 01       		.byte	0x1
 3113 0b7e 02       		.byte	0x2
 3114 0b7f 2C       		.byte	0x2c
 3115 0b80 1C       		.uleb128 0x1c
 3116 0b81 24110000 		.4byte	.LASF221
 3117 0b85 12       		.byte	0x12
 3118 0b86 DD       		.byte	0xdd
 3119 0b87 D5000000 		.4byte	0xd5
 3120 0b8b 01       		.byte	0x1
 3121 0b8c 01       		.byte	0x1
 3122 0b8d 01       		.byte	0x1
 3123 0b8e 2C       		.byte	0x2c
ARM GAS  C:\Users\tmj32\AppData\Local\Temp\cc8xedyG.s 			page 78


 3124 0b8f 1C       		.uleb128 0x1c
 3125 0b90 6F010000 		.4byte	.LASF222
 3126 0b94 12       		.byte	0x12
 3127 0b95 DE       		.byte	0xde
 3128 0b96 D5000000 		.4byte	0xd5
 3129 0b9a 01       		.byte	0x1
 3130 0b9b 01       		.byte	0x1
 3131 0b9c 00       		.byte	0
 3132 0b9d 2C       		.byte	0x2c
 3133 0b9e 1C       		.uleb128 0x1c
 3134 0b9f 980A0000 		.4byte	.LASF223
 3135 0ba3 12       		.byte	0x12
 3136 0ba4 DF       		.byte	0xdf
 3137 0ba5 9E110000 		.4byte	0x119e
 3138 0ba9 01       		.byte	0x1
 3139 0baa 02       		.byte	0x2
 3140 0bab 06       		.byte	0x6
 3141 0bac 2D       		.byte	0x2d
 3142 0bad 1C       		.uleb128 0x1c
 3143 0bae 66010000 		.4byte	.LASF224
 3144 0bb2 12       		.byte	0x12
 3145 0bb3 E0       		.byte	0xe0
 3146 0bb4 750F0000 		.4byte	0xf75
 3147 0bb8 01       		.byte	0x1
 3148 0bb9 02       		.byte	0x2
 3149 0bba 04       		.byte	0x4
 3150 0bbb 2D       		.byte	0x2d
 3151 0bbc 1C       		.uleb128 0x1c
 3152 0bbd 07150000 		.4byte	.LASF225
 3153 0bc1 12       		.byte	0x12
 3154 0bc2 E1       		.byte	0xe1
 3155 0bc3 D5000000 		.4byte	0xd5
 3156 0bc7 01       		.byte	0x1
 3157 0bc8 03       		.byte	0x3
 3158 0bc9 01       		.byte	0x1
 3159 0bca 2D       		.byte	0x2d
 3160 0bcb 09       		.uleb128 0x9
 3161 0bcc CC120000 		.4byte	.LASF226
 3162 0bd0 12       		.byte	0x12
 3163 0bd1 E2       		.byte	0xe2
 3164 0bd2 D5000000 		.4byte	0xd5
 3165 0bd6 2E       		.byte	0x2e
 3166 0bd7 09       		.uleb128 0x9
 3167 0bd8 A3120000 		.4byte	.LASF227
 3168 0bdc 12       		.byte	0x12
 3169 0bdd E4       		.byte	0xe4
 3170 0bde 630A0000 		.4byte	0xa63
 3171 0be2 2F       		.byte	0x2f
 3172 0be3 09       		.uleb128 0x9
 3173 0be4 D7090000 		.4byte	.LASF228
 3174 0be8 12       		.byte	0x12
 3175 0be9 E6       		.byte	0xe6
 3176 0bea 96090000 		.4byte	0x996
 3177 0bee 30       		.byte	0x30
 3178 0bef 09       		.uleb128 0x9
 3179 0bf0 D1040000 		.4byte	.LASF229
 3180 0bf4 12       		.byte	0x12
ARM GAS  C:\Users\tmj32\AppData\Local\Temp\cc8xedyG.s 			page 79


 3181 0bf5 E9       		.byte	0xe9
 3182 0bf6 93110000 		.4byte	0x1193
 3183 0bfa 34       		.byte	0x34
 3184 0bfb 00       		.byte	0
 3185 0bfc 06       		.uleb128 0x6
 3186 0bfd 04       		.byte	0x4
 3187 0bfe BA0A0000 		.4byte	0xaba
 3188 0c02 08       		.uleb128 0x8
 3189 0c03 08       		.byte	0x8
 3190 0c04 13       		.byte	0x13
 3191 0c05 2E       		.byte	0x2e
 3192 0c06 530C0000 		.4byte	0xc53
 3193 0c0a 09       		.uleb128 0x9
 3194 0c0b 5E170000 		.4byte	.LASF230
 3195 0c0f 13       		.byte	0x13
 3196 0c10 30       		.byte	0x30
 3197 0c11 EB000000 		.4byte	0xeb
 3198 0c15 00       		.byte	0
 3199 0c16 09       		.uleb128 0x9
 3200 0c17 52120000 		.4byte	.LASF231
 3201 0c1b 13       		.byte	0x13
 3202 0c1c 31       		.byte	0x31
 3203 0c1d D5000000 		.4byte	0xd5
 3204 0c21 02       		.byte	0x2
 3205 0c22 09       		.uleb128 0x9
 3206 0c23 B9110000 		.4byte	.LASF232
 3207 0c27 13       		.byte	0x13
 3208 0c28 32       		.byte	0x32
 3209 0c29 D5000000 		.4byte	0xd5
 3210 0c2d 03       		.byte	0x3
 3211 0c2e 09       		.uleb128 0x9
 3212 0c2f B6010000 		.4byte	.LASF233
 3213 0c33 13       		.byte	0x13
 3214 0c34 33       		.byte	0x33
 3215 0c35 CA000000 		.4byte	0xca
 3216 0c39 04       		.byte	0x4
 3217 0c3a 09       		.uleb128 0x9
 3218 0c3b BC010000 		.4byte	.LASF234
 3219 0c3f 13       		.byte	0x13
 3220 0c40 34       		.byte	0x34
 3221 0c41 CA000000 		.4byte	0xca
 3222 0c45 05       		.byte	0x5
 3223 0c46 14       		.uleb128 0x14
 3224 0c47 62707000 		.ascii	"bpp\000"
 3225 0c4b 13       		.byte	0x13
 3226 0c4c 35       		.byte	0x35
 3227 0c4d D5000000 		.4byte	0xd5
 3228 0c51 06       		.byte	0x6
 3229 0c52 00       		.byte	0
 3230 0c53 02       		.uleb128 0x2
 3231 0c54 210A0000 		.4byte	.LASF235
 3232 0c58 13       		.byte	0x13
 3233 0c59 36       		.byte	0x36
 3234 0c5a 020C0000 		.4byte	0xc02
 3235 0c5e 12       		.uleb128 0x12
 3236 0c5f 33080000 		.4byte	.LASF236
 3237 0c63 10       		.byte	0x10
ARM GAS  C:\Users\tmj32\AppData\Local\Temp\cc8xedyG.s 			page 80


 3238 0c64 13       		.byte	0x13
 3239 0c65 44       		.byte	0x44
 3240 0c66 B60C0000 		.4byte	0xcb6
 3241 0c6a 09       		.uleb128 0x9
 3242 0c6b DF010000 		.4byte	.LASF237
 3243 0c6f 13       		.byte	0x13
 3244 0c70 47       		.byte	0x47
 3245 0c71 E50C0000 		.4byte	0xce5
 3246 0c75 00       		.byte	0
 3247 0c76 09       		.uleb128 0x9
 3248 0c77 5C130000 		.4byte	.LASF238
 3249 0c7b 13       		.byte	0x13
 3250 0c7c 4A       		.byte	0x4a
 3251 0c7d 0A0D0000 		.4byte	0xd0a
 3252 0c81 04       		.byte	0x4
 3253 0c82 09       		.uleb128 0x9
 3254 0c83 AA080000 		.4byte	.LASF239
 3255 0c87 13       		.byte	0x13
 3256 0c88 4D       		.byte	0x4d
 3257 0c89 D5000000 		.4byte	0xd5
 3258 0c8d 08       		.byte	0x8
 3259 0c8e 09       		.uleb128 0x9
 3260 0c8f 86120000 		.4byte	.LASF240
 3261 0c93 13       		.byte	0x13
 3262 0c94 4E       		.byte	0x4e
 3263 0c95 CA000000 		.4byte	0xca
 3264 0c99 09       		.byte	0x9
 3265 0c9a 1C       		.uleb128 0x1c
 3266 0c9b E30D0000 		.4byte	.LASF241
 3267 0c9f 13       		.byte	0x13
 3268 0ca0 4F       		.byte	0x4f
 3269 0ca1 D5000000 		.4byte	0xd5
 3270 0ca5 01       		.byte	0x1
 3271 0ca6 02       		.byte	0x2
 3272 0ca7 06       		.byte	0x6
 3273 0ca8 0A       		.byte	0xa
 3274 0ca9 14       		.uleb128 0x14
 3275 0caa 64736300 		.ascii	"dsc\000"
 3276 0cae 13       		.byte	0x13
 3277 0caf 50       		.byte	0x50
 3278 0cb0 B4000000 		.4byte	0xb4
 3279 0cb4 0C       		.byte	0xc
 3280 0cb5 00       		.byte	0
 3281 0cb6 0F       		.uleb128 0xf
 3282 0cb7 3B050000 		.4byte	0x53b
 3283 0cbb D40C0000 		.4byte	0xcd4
 3284 0cbf 0E       		.uleb128 0xe
 3285 0cc0 D40C0000 		.4byte	0xcd4
 3286 0cc4 0E       		.uleb128 0xe
 3287 0cc5 DF0C0000 		.4byte	0xcdf
 3288 0cc9 0E       		.uleb128 0xe
 3289 0cca 01010000 		.4byte	0x101
 3290 0cce 0E       		.uleb128 0xe
 3291 0ccf 01010000 		.4byte	0x101
 3292 0cd3 00       		.byte	0
 3293 0cd4 06       		.uleb128 0x6
 3294 0cd5 04       		.byte	0x4
ARM GAS  C:\Users\tmj32\AppData\Local\Temp\cc8xedyG.s 			page 81


 3295 0cd6 DA0C0000 		.4byte	0xcda
 3296 0cda 1B       		.uleb128 0x1b
 3297 0cdb 5E0C0000 		.4byte	0xc5e
 3298 0cdf 06       		.uleb128 0x6
 3299 0ce0 04       		.byte	0x4
 3300 0ce1 530C0000 		.4byte	0xc53
 3301 0ce5 06       		.uleb128 0x6
 3302 0ce6 04       		.byte	0x4
 3303 0ce7 B60C0000 		.4byte	0xcb6
 3304 0ceb 0F       		.uleb128 0xf
 3305 0cec FF0C0000 		.4byte	0xcff
 3306 0cf0 FF0C0000 		.4byte	0xcff
 3307 0cf4 0E       		.uleb128 0xe
 3308 0cf5 D40C0000 		.4byte	0xcd4
 3309 0cf9 0E       		.uleb128 0xe
 3310 0cfa 01010000 		.4byte	0x101
 3311 0cfe 00       		.byte	0
 3312 0cff 06       		.uleb128 0x6
 3313 0d00 04       		.byte	0x4
 3314 0d01 050D0000 		.4byte	0xd05
 3315 0d05 1B       		.uleb128 0x1b
 3316 0d06 D5000000 		.4byte	0xd5
 3317 0d0a 06       		.uleb128 0x6
 3318 0d0b 04       		.byte	0x4
 3319 0d0c EB0C0000 		.4byte	0xceb
 3320 0d10 02       		.uleb128 0x2
 3321 0d11 6E0F0000 		.4byte	.LASF242
 3322 0d15 13       		.byte	0x13
 3323 0d16 56       		.byte	0x56
 3324 0d17 5E0C0000 		.4byte	0xc5e
 3325 0d1b 1E       		.uleb128 0x1e
 3326 0d1c 01       		.byte	0x1
 3327 0d1d 42000000 		.4byte	0x42
 3328 0d21 14       		.byte	0x14
 3329 0d22 23       		.byte	0x23
 3330 0d23 340D0000 		.4byte	0xd34
 3331 0d27 0B       		.uleb128 0xb
 3332 0d28 90120000 		.4byte	.LASF243
 3333 0d2c 00       		.byte	0
 3334 0d2d 0B       		.uleb128 0xb
 3335 0d2e 840D0000 		.4byte	.LASF244
 3336 0d32 01       		.byte	0x1
 3337 0d33 00       		.byte	0
 3338 0d34 02       		.uleb128 0x2
 3339 0d35 12140000 		.4byte	.LASF245
 3340 0d39 14       		.byte	0x14
 3341 0d3a 28       		.byte	0x28
 3342 0d3b D5000000 		.4byte	0xd5
 3343 0d3f 02       		.uleb128 0x2
 3344 0d40 3D110000 		.4byte	.LASF246
 3345 0d44 15       		.byte	0x15
 3346 0d45 2C       		.byte	0x2c
 3347 0d46 D5000000 		.4byte	0xd5
 3348 0d4a 02       		.uleb128 0x2
 3349 0d4b D90A0000 		.4byte	.LASF247
 3350 0d4f 15       		.byte	0x15
 3351 0d50 33       		.byte	0x33
ARM GAS  C:\Users\tmj32\AppData\Local\Temp\cc8xedyG.s 			page 82


 3352 0d51 D5000000 		.4byte	0xd5
 3353 0d55 08       		.uleb128 0x8
 3354 0d56 08       		.byte	0x8
 3355 0d57 15       		.byte	0x15
 3356 0d58 48       		.byte	0x48
 3357 0d59 8E0D0000 		.4byte	0xd8e
 3358 0d5d 09       		.uleb128 0x9
 3359 0d5e 19070000 		.4byte	.LASF248
 3360 0d62 15       		.byte	0x15
 3361 0d63 4A       		.byte	0x4a
 3362 0d64 570A0000 		.4byte	0xa57
 3363 0d68 00       		.byte	0
 3364 0d69 09       		.uleb128 0x9
 3365 0d6a 86070000 		.4byte	.LASF249
 3366 0d6e 15       		.byte	0x15
 3367 0d6f 4B       		.byte	0x4b
 3368 0d70 96090000 		.4byte	0x996
 3369 0d74 04       		.byte	0x4
 3370 0d75 09       		.uleb128 0x9
 3371 0d76 38060000 		.4byte	.LASF250
 3372 0d7a 15       		.byte	0x15
 3373 0d7b 4C       		.byte	0x4c
 3374 0d7c 3F0D0000 		.4byte	0xd3f
 3375 0d80 06       		.byte	0x6
 3376 0d81 14       		.uleb128 0x14
 3377 0d82 6F706100 		.ascii	"opa\000"
 3378 0d86 15       		.byte	0x15
 3379 0d87 4D       		.byte	0x4d
 3380 0d88 630A0000 		.4byte	0xa63
 3381 0d8c 07       		.byte	0x7
 3382 0d8d 00       		.byte	0
 3383 0d8e 08       		.uleb128 0x8
 3384 0d8f 08       		.byte	0x8
 3385 0d90 15       		.byte	0x15
 3386 0d91 51       		.byte	0x51
 3387 0d92 BB0D0000 		.4byte	0xdbb
 3388 0d96 09       		.uleb128 0x9
 3389 0d97 19070000 		.4byte	.LASF248
 3390 0d9b 15       		.byte	0x15
 3391 0d9c 53       		.byte	0x53
 3392 0d9d 570A0000 		.4byte	0xa57
 3393 0da1 00       		.byte	0
 3394 0da2 09       		.uleb128 0x9
 3395 0da3 86070000 		.4byte	.LASF249
 3396 0da7 15       		.byte	0x15
 3397 0da8 54       		.byte	0x54
 3398 0da9 96090000 		.4byte	0x996
 3399 0dad 04       		.byte	0x4
 3400 0dae 09       		.uleb128 0x9
 3401 0daf 820A0000 		.4byte	.LASF251
 3402 0db3 15       		.byte	0x15
 3403 0db4 55       		.byte	0x55
 3404 0db5 4A0D0000 		.4byte	0xd4a
 3405 0db9 06       		.byte	0x6
 3406 0dba 00       		.byte	0
 3407 0dbb 08       		.uleb128 0x8
 3408 0dbc 0A       		.byte	0xa
ARM GAS  C:\Users\tmj32\AppData\Local\Temp\cc8xedyG.s 			page 83


 3409 0dbd 15       		.byte	0x15
 3410 0dbe 58       		.byte	0x58
 3411 0dbf 000E0000 		.4byte	0xe00
 3412 0dc3 14       		.uleb128 0x14
 3413 0dc4 746F7000 		.ascii	"top\000"
 3414 0dc8 15       		.byte	0x15
 3415 0dc9 5A       		.byte	0x5a
 3416 0dca 96090000 		.4byte	0x996
 3417 0dce 00       		.byte	0
 3418 0dcf 09       		.uleb128 0x9
 3419 0dd0 E4090000 		.4byte	.LASF252
 3420 0dd4 15       		.byte	0x15
 3421 0dd5 5B       		.byte	0x5b
 3422 0dd6 96090000 		.4byte	0x996
 3423 0dda 02       		.byte	0x2
 3424 0ddb 09       		.uleb128 0x9
 3425 0ddc 4E110000 		.4byte	.LASF253
 3426 0de0 15       		.byte	0x15
 3427 0de1 5C       		.byte	0x5c
 3428 0de2 96090000 		.4byte	0x996
 3429 0de6 04       		.byte	0x4
 3430 0de7 09       		.uleb128 0x9
 3431 0de8 170B0000 		.4byte	.LASF254
 3432 0dec 15       		.byte	0x15
 3433 0ded 5D       		.byte	0x5d
 3434 0dee 96090000 		.4byte	0x996
 3435 0df2 06       		.byte	0x6
 3436 0df3 09       		.uleb128 0x9
 3437 0df4 E5040000 		.4byte	.LASF255
 3438 0df8 15       		.byte	0x15
 3439 0df9 5E       		.byte	0x5e
 3440 0dfa 96090000 		.4byte	0x996
 3441 0dfe 08       		.byte	0x8
 3442 0dff 00       		.byte	0
 3443 0e00 08       		.uleb128 0x8
 3444 0e01 28       		.byte	0x28
 3445 0e02 15       		.byte	0x15
 3446 0e03 41       		.byte	0x41
 3447 0e04 5D0E0000 		.4byte	0xe5d
 3448 0e08 09       		.uleb128 0x9
 3449 0e09 9A0F0000 		.4byte	.LASF256
 3450 0e0d 15       		.byte	0x15
 3451 0e0e 43       		.byte	0x43
 3452 0e0f 570A0000 		.4byte	0xa57
 3453 0e13 00       		.byte	0
 3454 0e14 09       		.uleb128 0x9
 3455 0e15 14090000 		.4byte	.LASF257
 3456 0e19 15       		.byte	0x15
 3457 0e1a 44       		.byte	0x44
 3458 0e1b 570A0000 		.4byte	0xa57
 3459 0e1f 04       		.byte	0x4
 3460 0e20 09       		.uleb128 0x9
 3461 0e21 9C120000 		.4byte	.LASF258
 3462 0e25 15       		.byte	0x15
 3463 0e26 45       		.byte	0x45
 3464 0e27 96090000 		.4byte	0x996
 3465 0e2b 08       		.byte	0x8
ARM GAS  C:\Users\tmj32\AppData\Local\Temp\cc8xedyG.s 			page 84


 3466 0e2c 14       		.uleb128 0x14
 3467 0e2d 6F706100 		.ascii	"opa\000"
 3468 0e31 15       		.byte	0x15
 3469 0e32 46       		.byte	0x46
 3470 0e33 630A0000 		.4byte	0xa63
 3471 0e37 0A       		.byte	0xa
 3472 0e38 09       		.uleb128 0x9
 3473 0e39 CE100000 		.4byte	.LASF259
 3474 0e3d 15       		.byte	0x15
 3475 0e3e 4E       		.byte	0x4e
 3476 0e3f 550D0000 		.4byte	0xd55
 3477 0e43 0C       		.byte	0xc
 3478 0e44 09       		.uleb128 0x9
 3479 0e45 F40D0000 		.4byte	.LASF260
 3480 0e49 15       		.byte	0x15
 3481 0e4a 56       		.byte	0x56
 3482 0e4b 8E0D0000 		.4byte	0xd8e
 3483 0e4f 14       		.byte	0x14
 3484 0e50 09       		.uleb128 0x9
 3485 0e51 A20B0000 		.4byte	.LASF261
 3486 0e55 15       		.byte	0x15
 3487 0e56 5F       		.byte	0x5f
 3488 0e57 BB0D0000 		.4byte	0xdbb
 3489 0e5b 1C       		.byte	0x1c
 3490 0e5c 00       		.byte	0
 3491 0e5d 08       		.uleb128 0x8
 3492 0e5e 14       		.byte	0x14
 3493 0e5f 15       		.byte	0x15
 3494 0e60 63       		.byte	0x63
 3495 0e61 AE0E0000 		.4byte	0xeae
 3496 0e65 09       		.uleb128 0x9
 3497 0e66 19070000 		.4byte	.LASF248
 3498 0e6a 15       		.byte	0x15
 3499 0e6b 65       		.byte	0x65
 3500 0e6c 570A0000 		.4byte	0xa57
 3501 0e70 00       		.byte	0
 3502 0e71 09       		.uleb128 0x9
 3503 0e72 7D050000 		.4byte	.LASF262
 3504 0e76 15       		.byte	0x15
 3505 0e77 66       		.byte	0x66
 3506 0e78 570A0000 		.4byte	0xa57
 3507 0e7c 04       		.byte	0x4
 3508 0e7d 09       		.uleb128 0x9
 3509 0e7e 8B020000 		.4byte	.LASF263
 3510 0e82 15       		.byte	0x15
 3511 0e83 67       		.byte	0x67
 3512 0e84 AE0E0000 		.4byte	0xeae
 3513 0e88 08       		.byte	0x8
 3514 0e89 09       		.uleb128 0x9
 3515 0e8a 780F0000 		.4byte	.LASF264
 3516 0e8e 15       		.byte	0x15
 3517 0e8f 68       		.byte	0x68
 3518 0e90 96090000 		.4byte	0x996
 3519 0e94 0C       		.byte	0xc
 3520 0e95 09       		.uleb128 0x9
 3521 0e96 69080000 		.4byte	.LASF265
 3522 0e9a 15       		.byte	0x15
ARM GAS  C:\Users\tmj32\AppData\Local\Temp\cc8xedyG.s 			page 85


 3523 0e9b 69       		.byte	0x69
 3524 0e9c 96090000 		.4byte	0x996
 3525 0ea0 0E       		.byte	0xe
 3526 0ea1 14       		.uleb128 0x14
 3527 0ea2 6F706100 		.ascii	"opa\000"
 3528 0ea6 15       		.byte	0x15
 3529 0ea7 6A       		.byte	0x6a
 3530 0ea8 630A0000 		.4byte	0xa63
 3531 0eac 10       		.byte	0x10
 3532 0ead 00       		.byte	0
 3533 0eae 06       		.uleb128 0x6
 3534 0eaf 04       		.byte	0x4
 3535 0eb0 B40E0000 		.4byte	0xeb4
 3536 0eb4 1B       		.uleb128 0x1b
 3537 0eb5 100D0000 		.4byte	0xd10
 3538 0eb9 08       		.uleb128 0x8
 3539 0eba 08       		.byte	0x8
 3540 0ebb 15       		.byte	0x15
 3541 0ebc 6E       		.byte	0x6e
 3542 0ebd E60E0000 		.4byte	0xee6
 3543 0ec1 09       		.uleb128 0x9
 3544 0ec2 19070000 		.4byte	.LASF248
 3545 0ec6 15       		.byte	0x15
 3546 0ec7 70       		.byte	0x70
 3547 0ec8 570A0000 		.4byte	0xa57
 3548 0ecc 00       		.byte	0
 3549 0ecd 09       		.uleb128 0x9
 3550 0ece 53110000 		.4byte	.LASF266
 3551 0ed2 15       		.byte	0x15
 3552 0ed3 71       		.byte	0x71
 3553 0ed4 630A0000 		.4byte	0xa63
 3554 0ed8 04       		.byte	0x4
 3555 0ed9 14       		.uleb128 0x14
 3556 0eda 6F706100 		.ascii	"opa\000"
 3557 0ede 15       		.byte	0x15
 3558 0edf 72       		.byte	0x72
 3559 0ee0 630A0000 		.4byte	0xa63
 3560 0ee4 05       		.byte	0x5
 3561 0ee5 00       		.byte	0
 3562 0ee6 08       		.uleb128 0x8
 3563 0ee7 08       		.byte	0x8
 3564 0ee8 15       		.byte	0x15
 3565 0ee9 76       		.byte	0x76
 3566 0eea 220F0000 		.4byte	0xf22
 3567 0eee 09       		.uleb128 0x9
 3568 0eef 19070000 		.4byte	.LASF248
 3569 0ef3 15       		.byte	0x15
 3570 0ef4 78       		.byte	0x78
 3571 0ef5 570A0000 		.4byte	0xa57
 3572 0ef9 00       		.byte	0
 3573 0efa 09       		.uleb128 0x9
 3574 0efb 86070000 		.4byte	.LASF249
 3575 0eff 15       		.byte	0x15
 3576 0f00 79       		.byte	0x79
 3577 0f01 96090000 		.4byte	0x996
 3578 0f05 04       		.byte	0x4
 3579 0f06 14       		.uleb128 0x14
ARM GAS  C:\Users\tmj32\AppData\Local\Temp\cc8xedyG.s 			page 86


 3580 0f07 6F706100 		.ascii	"opa\000"
 3581 0f0b 15       		.byte	0x15
 3582 0f0c 7A       		.byte	0x7a
 3583 0f0d 630A0000 		.4byte	0xa63
 3584 0f11 06       		.byte	0x6
 3585 0f12 1C       		.uleb128 0x1c
 3586 0f13 3E070000 		.4byte	.LASF267
 3587 0f17 15       		.byte	0x15
 3588 0f18 7B       		.byte	0x7b
 3589 0f19 D5000000 		.4byte	0xd5
 3590 0f1d 01       		.byte	0x1
 3591 0f1e 01       		.byte	0x1
 3592 0f1f 07       		.byte	0x7
 3593 0f20 07       		.byte	0x7
 3594 0f21 00       		.byte	0
 3595 0f22 08       		.uleb128 0x8
 3596 0f23 50       		.byte	0x50
 3597 0f24 15       		.byte	0x15
 3598 0f25 3C       		.byte	0x3c
 3599 0f26 6A0F0000 		.4byte	0xf6a
 3600 0f2a 1C       		.uleb128 0x1c
 3601 0f2b DF160000 		.4byte	.LASF268
 3602 0f2f 15       		.byte	0x15
 3603 0f30 3E       		.byte	0x3e
 3604 0f31 D5000000 		.4byte	0xd5
 3605 0f35 01       		.byte	0x1
 3606 0f36 01       		.byte	0x1
 3607 0f37 07       		.byte	0x7
 3608 0f38 00       		.byte	0
 3609 0f39 09       		.uleb128 0x9
 3610 0f3a AD120000 		.4byte	.LASF269
 3611 0f3e 15       		.byte	0x15
 3612 0f3f 60       		.byte	0x60
 3613 0f40 000E0000 		.4byte	0xe00
 3614 0f44 04       		.byte	0x4
 3615 0f45 09       		.uleb128 0x9
 3616 0f46 710B0000 		.4byte	.LASF270
 3617 0f4a 15       		.byte	0x15
 3618 0f4b 6B       		.byte	0x6b
 3619 0f4c 5D0E0000 		.4byte	0xe5d
 3620 0f50 2C       		.byte	0x2c
 3621 0f51 09       		.uleb128 0x9
 3622 0f52 20040000 		.4byte	.LASF271
 3623 0f56 15       		.byte	0x15
 3624 0f57 73       		.byte	0x73
 3625 0f58 B90E0000 		.4byte	0xeb9
 3626 0f5c 40       		.byte	0x40
 3627 0f5d 09       		.uleb128 0x9
 3628 0f5e 2A130000 		.4byte	.LASF272
 3629 0f62 15       		.byte	0x15
 3630 0f63 7C       		.byte	0x7c
 3631 0f64 E60E0000 		.4byte	0xee6
 3632 0f68 48       		.byte	0x48
 3633 0f69 00       		.byte	0
 3634 0f6a 02       		.uleb128 0x2
 3635 0f6b ED010000 		.4byte	.LASF273
 3636 0f6f 15       		.byte	0x15
ARM GAS  C:\Users\tmj32\AppData\Local\Temp\cc8xedyG.s 			page 87


 3637 0f70 84       		.byte	0x84
 3638 0f71 220F0000 		.4byte	0xf22
 3639 0f75 02       		.uleb128 0x2
 3640 0f76 340C0000 		.4byte	.LASF274
 3641 0f7a 16       		.byte	0x16
 3642 0f7b 30       		.byte	0x30
 3643 0f7c D5000000 		.4byte	0xd5
 3644 0f80 02       		.uleb128 0x2
 3645 0f81 AE130000 		.4byte	.LASF275
 3646 0f85 12       		.byte	0x12
 3647 0f86 42       		.byte	0x42
 3648 0f87 D5000000 		.4byte	0xd5
 3649 0f8b 02       		.uleb128 0x2
 3650 0f8c 49020000 		.4byte	.LASF276
 3651 0f90 12       		.byte	0x12
 3652 0f91 48       		.byte	0x48
 3653 0f92 960F0000 		.4byte	0xf96
 3654 0f96 06       		.uleb128 0x6
 3655 0f97 04       		.byte	0x4
 3656 0f98 9C0F0000 		.4byte	0xf9c
 3657 0f9c 0F       		.uleb128 0xf
 3658 0f9d 3B050000 		.4byte	0x53b
 3659 0fa1 B50F0000 		.4byte	0xfb5
 3660 0fa5 0E       		.uleb128 0xe
 3661 0fa6 FC0B0000 		.4byte	0xbfc
 3662 0faa 0E       		.uleb128 0xe
 3663 0fab AF0A0000 		.4byte	0xaaf
 3664 0faf 0E       		.uleb128 0xe
 3665 0fb0 800F0000 		.4byte	0xf80
 3666 0fb4 00       		.byte	0
 3667 0fb5 1E       		.uleb128 0x1e
 3668 0fb6 01       		.byte	0x1
 3669 0fb7 42000000 		.4byte	0x42
 3670 0fbb 12       		.byte	0x12
 3671 0fbc 4A       		.byte	0x4a
 3672 0fbd 3A100000 		.4byte	0x103a
 3673 0fc1 0B       		.uleb128 0xb
 3674 0fc2 58080000 		.4byte	.LASF277
 3675 0fc6 00       		.byte	0
 3676 0fc7 0B       		.uleb128 0xb
 3677 0fc8 D5100000 		.4byte	.LASF278
 3678 0fcc 01       		.byte	0x1
 3679 0fcd 0B       		.uleb128 0xb
 3680 0fce F1070000 		.4byte	.LASF279
 3681 0fd2 02       		.byte	0x2
 3682 0fd3 0B       		.uleb128 0xb
 3683 0fd4 F1150000 		.4byte	.LASF280
 3684 0fd8 03       		.byte	0x3
 3685 0fd9 0B       		.uleb128 0xb
 3686 0fda 16170000 		.4byte	.LASF281
 3687 0fde 04       		.byte	0x4
 3688 0fdf 0B       		.uleb128 0xb
 3689 0fe0 10150000 		.4byte	.LASF282
 3690 0fe4 05       		.byte	0x5
 3691 0fe5 0B       		.uleb128 0xb
 3692 0fe6 250E0000 		.4byte	.LASF283
 3693 0fea 06       		.byte	0x6
ARM GAS  C:\Users\tmj32\AppData\Local\Temp\cc8xedyG.s 			page 88


 3694 0feb 0B       		.uleb128 0xb
 3695 0fec B70F0000 		.4byte	.LASF284
 3696 0ff0 07       		.byte	0x7
 3697 0ff1 0B       		.uleb128 0xb
 3698 0ff2 2C0D0000 		.4byte	.LASF285
 3699 0ff6 08       		.byte	0x8
 3700 0ff7 0B       		.uleb128 0xb
 3701 0ff8 C8020000 		.4byte	.LASF286
 3702 0ffc 09       		.byte	0x9
 3703 0ffd 0B       		.uleb128 0xb
 3704 0ffe F7120000 		.4byte	.LASF287
 3705 1002 0A       		.byte	0xa
 3706 1003 0B       		.uleb128 0xb
 3707 1004 88030000 		.4byte	.LASF288
 3708 1008 0B       		.byte	0xb
 3709 1009 0B       		.uleb128 0xb
 3710 100a BF110000 		.4byte	.LASF289
 3711 100e 0C       		.byte	0xc
 3712 100f 0B       		.uleb128 0xb
 3713 1010 190D0000 		.4byte	.LASF290
 3714 1014 0D       		.byte	0xd
 3715 1015 0B       		.uleb128 0xb
 3716 1016 16010000 		.4byte	.LASF291
 3717 101a 0E       		.byte	0xe
 3718 101b 0B       		.uleb128 0xb
 3719 101c 39050000 		.4byte	.LASF292
 3720 1020 0F       		.byte	0xf
 3721 1021 0B       		.uleb128 0xb
 3722 1022 55010000 		.4byte	.LASF293
 3723 1026 10       		.byte	0x10
 3724 1027 0B       		.uleb128 0xb
 3725 1028 A8020000 		.4byte	.LASF294
 3726 102c 11       		.byte	0x11
 3727 102d 0B       		.uleb128 0xb
 3728 102e BE0A0000 		.4byte	.LASF295
 3729 1032 12       		.byte	0x12
 3730 1033 0B       		.uleb128 0xb
 3731 1034 C1070000 		.4byte	.LASF296
 3732 1038 13       		.byte	0x13
 3733 1039 00       		.byte	0
 3734 103a 02       		.uleb128 0x2
 3735 103b 420C0000 		.4byte	.LASF297
 3736 103f 12       		.byte	0x12
 3737 1040 61       		.byte	0x61
 3738 1041 D5000000 		.4byte	0xd5
 3739 1045 02       		.uleb128 0x2
 3740 1046 2C170000 		.4byte	.LASF298
 3741 104a 12       		.byte	0x12
 3742 104b 68       		.byte	0x68
 3743 104c 50100000 		.4byte	0x1050
 3744 1050 06       		.uleb128 0x6
 3745 1051 04       		.byte	0x4
 3746 1052 56100000 		.4byte	0x1056
 3747 1056 0D       		.uleb128 0xd
 3748 1057 66100000 		.4byte	0x1066
 3749 105b 0E       		.uleb128 0xe
 3750 105c FC0B0000 		.4byte	0xbfc
ARM GAS  C:\Users\tmj32\AppData\Local\Temp\cc8xedyG.s 			page 89


 3751 1060 0E       		.uleb128 0xe
 3752 1061 3A100000 		.4byte	0x103a
 3753 1065 00       		.byte	0
 3754 1066 02       		.uleb128 0x2
 3755 1067 B2120000 		.4byte	.LASF299
 3756 106b 12       		.byte	0x12
 3757 106c 88       		.byte	0x88
 3758 106d D5000000 		.4byte	0xd5
 3759 1071 02       		.uleb128 0x2
 3760 1072 15060000 		.4byte	.LASF300
 3761 1076 12       		.byte	0x12
 3762 1077 8A       		.byte	0x8a
 3763 1078 7C100000 		.4byte	0x107c
 3764 107c 06       		.uleb128 0x6
 3765 107d 04       		.byte	0x4
 3766 107e 82100000 		.4byte	0x1082
 3767 1082 0F       		.uleb128 0xf
 3768 1083 A1090000 		.4byte	0x9a1
 3769 1087 9B100000 		.4byte	0x109b
 3770 108b 0E       		.uleb128 0xe
 3771 108c FC0B0000 		.4byte	0xbfc
 3772 1090 0E       		.uleb128 0xe
 3773 1091 66100000 		.4byte	0x1066
 3774 1095 0E       		.uleb128 0xe
 3775 1096 B4000000 		.4byte	0xb4
 3776 109a 00       		.byte	0
 3777 109b 1E       		.uleb128 0x1e
 3778 109c 01       		.byte	0x1
 3779 109d 42000000 		.4byte	0x42
 3780 10a1 12       		.byte	0x12
 3781 10a2 8D       		.byte	0x8d
 3782 10a3 26110000 		.4byte	0x1126
 3783 10a7 0B       		.uleb128 0xb
 3784 10a8 8E010000 		.4byte	.LASF301
 3785 10ac 00       		.byte	0
 3786 10ad 0B       		.uleb128 0xb
 3787 10ae 01170000 		.4byte	.LASF302
 3788 10b2 01       		.byte	0x1
 3789 10b3 0B       		.uleb128 0xb
 3790 10b4 C90F0000 		.4byte	.LASF303
 3791 10b8 02       		.byte	0x2
 3792 10b9 0B       		.uleb128 0xb
 3793 10ba 70120000 		.4byte	.LASF304
 3794 10be 03       		.byte	0x3
 3795 10bf 0B       		.uleb128 0xb
 3796 10c0 58120000 		.4byte	.LASF305
 3797 10c4 04       		.byte	0x4
 3798 10c5 0B       		.uleb128 0xb
 3799 10c6 D30C0000 		.4byte	.LASF306
 3800 10ca 05       		.byte	0x5
 3801 10cb 0B       		.uleb128 0xb
 3802 10cc 5A0A0000 		.4byte	.LASF307
 3803 10d0 06       		.byte	0x6
 3804 10d1 0B       		.uleb128 0xb
 3805 10d2 25020000 		.4byte	.LASF308
 3806 10d6 07       		.byte	0x7
 3807 10d7 0B       		.uleb128 0xb
ARM GAS  C:\Users\tmj32\AppData\Local\Temp\cc8xedyG.s 			page 90


 3808 10d8 AD0D0000 		.4byte	.LASF309
 3809 10dc 08       		.byte	0x8
 3810 10dd 0B       		.uleb128 0xb
 3811 10de C50E0000 		.4byte	.LASF310
 3812 10e2 09       		.byte	0x9
 3813 10e3 0B       		.uleb128 0xb
 3814 10e4 12100000 		.4byte	.LASF311
 3815 10e8 0A       		.byte	0xa
 3816 10e9 0B       		.uleb128 0xb
 3817 10ea 45130000 		.4byte	.LASF312
 3818 10ee 0B       		.byte	0xb
 3819 10ef 0B       		.uleb128 0xb
 3820 10f0 66020000 		.4byte	.LASF313
 3821 10f4 0C       		.byte	0xc
 3822 10f5 0B       		.uleb128 0xb
 3823 10f6 CE060000 		.4byte	.LASF314
 3824 10fa 0D       		.byte	0xd
 3825 10fb 0B       		.uleb128 0xb
 3826 10fc 5D050000 		.4byte	.LASF315
 3827 1100 0E       		.byte	0xe
 3828 1101 0B       		.uleb128 0xb
 3829 1102 500B0000 		.4byte	.LASF316
 3830 1106 0F       		.byte	0xf
 3831 1107 0B       		.uleb128 0xb
 3832 1108 46070000 		.4byte	.LASF317
 3833 110c 10       		.byte	0x10
 3834 110d 0B       		.uleb128 0xb
 3835 110e DE140000 		.4byte	.LASF318
 3836 1112 11       		.byte	0x11
 3837 1113 0B       		.uleb128 0xb
 3838 1114 FC040000 		.4byte	.LASF319
 3839 1118 12       		.byte	0x12
 3840 1119 0B       		.uleb128 0xb
 3841 111a E7110000 		.4byte	.LASF320
 3842 111e 13       		.byte	0x13
 3843 111f 0B       		.uleb128 0xb
 3844 1120 3D060000 		.4byte	.LASF321
 3845 1124 14       		.byte	0x14
 3846 1125 00       		.byte	0
 3847 1126 02       		.uleb128 0x2
 3848 1127 AA0B0000 		.4byte	.LASF322
 3849 112b 12       		.byte	0x12
 3850 112c A4       		.byte	0xa4
 3851 112d D5000000 		.4byte	0xd5
 3852 1131 08       		.uleb128 0x8
 3853 1132 0C       		.byte	0xc
 3854 1133 12       		.byte	0x12
 3855 1134 A7       		.byte	0xa7
 3856 1135 88110000 		.4byte	0x1188
 3857 1139 09       		.uleb128 0x9
 3858 113a 9F050000 		.4byte	.LASF323
 3859 113e 12       		.byte	0x12
 3860 113f A9       		.byte	0xa9
 3861 1140 88110000 		.4byte	0x1188
 3862 1144 00       		.byte	0
 3863 1145 09       		.uleb128 0x9
 3864 1146 E80B0000 		.4byte	.LASF324
ARM GAS  C:\Users\tmj32\AppData\Local\Temp\cc8xedyG.s 			page 91


 3865 114a 12       		.byte	0x12
 3866 114b AA       		.byte	0xaa
 3867 114c 96090000 		.4byte	0x996
 3868 1150 04       		.byte	0x4
 3869 1151 09       		.uleb128 0x9
 3870 1152 3A020000 		.4byte	.LASF325
 3871 1156 12       		.byte	0x12
 3872 1157 AB       		.byte	0xab
 3873 1158 96090000 		.4byte	0x996
 3874 115c 06       		.byte	0x6
 3875 115d 09       		.uleb128 0x9
 3876 115e CE160000 		.4byte	.LASF326
 3877 1162 12       		.byte	0x12
 3878 1163 AC       		.byte	0xac
 3879 1164 26110000 		.4byte	0x1126
 3880 1168 08       		.byte	0x8
 3881 1169 1C       		.uleb128 0x1c
 3882 116a 760B0000 		.4byte	.LASF327
 3883 116e 12       		.byte	0x12
 3884 116f AD       		.byte	0xad
 3885 1170 D5000000 		.4byte	0xd5
 3886 1174 01       		.byte	0x1
 3887 1175 01       		.byte	0x1
 3888 1176 07       		.byte	0x7
 3889 1177 09       		.byte	0x9
 3890 1178 1C       		.uleb128 0x1c
 3891 1179 710C0000 		.4byte	.LASF328
 3892 117d 12       		.byte	0x12
 3893 117e AE       		.byte	0xae
 3894 117f D5000000 		.4byte	0xd5
 3895 1183 01       		.byte	0x1
 3896 1184 01       		.byte	0x1
 3897 1185 06       		.byte	0x6
 3898 1186 09       		.byte	0x9
 3899 1187 00       		.byte	0
 3900 1188 06       		.uleb128 0x6
 3901 1189 04       		.byte	0x4
 3902 118a 8E110000 		.4byte	0x118e
 3903 118e 1B       		.uleb128 0x1b
 3904 118f BA0A0000 		.4byte	0xaba
 3905 1193 02       		.uleb128 0x2
 3906 1194 47170000 		.4byte	.LASF329
 3907 1198 12       		.byte	0x12
 3908 1199 B0       		.byte	0xb0
 3909 119a 31110000 		.4byte	0x1131
 3910 119e 02       		.uleb128 0x2
 3911 119f C50C0000 		.4byte	.LASF330
 3912 11a3 12       		.byte	0x12
 3913 11a4 B9       		.byte	0xb9
 3914 11a5 D5000000 		.4byte	0xd5
 3915 11a9 06       		.uleb128 0x6
 3916 11aa 04       		.byte	0x4
 3917 11ab AF110000 		.4byte	0x11af
 3918 11af 1B       		.uleb128 0x1b
 3919 11b0 6A0F0000 		.4byte	0xf6a
 3920 11b4 02       		.uleb128 0x2
 3921 11b5 01040000 		.4byte	.LASF331
ARM GAS  C:\Users\tmj32\AppData\Local\Temp\cc8xedyG.s 			page 92


 3922 11b9 12       		.byte	0x12
 3923 11ba F0       		.byte	0xf0
 3924 11bb BA0A0000 		.4byte	0xaba
 3925 11bf 1E       		.uleb128 0x1e
 3926 11c0 01       		.byte	0x1
 3927 11c1 42000000 		.4byte	0x42
 3928 11c5 17       		.byte	0x17
 3929 11c6 2A       		.byte	0x2a
 3930 11c7 F0110000 		.4byte	0x11f0
 3931 11cb 0B       		.uleb128 0xb
 3932 11cc 7A110000 		.4byte	.LASF332
 3933 11d0 00       		.byte	0
 3934 11d1 0B       		.uleb128 0xb
 3935 11d2 B1030000 		.4byte	.LASF333
 3936 11d6 01       		.byte	0x1
 3937 11d7 0B       		.uleb128 0xb
 3938 11d8 DC150000 		.4byte	.LASF334
 3939 11dc 02       		.byte	0x2
 3940 11dd 0B       		.uleb128 0xb
 3941 11de 74080000 		.4byte	.LASF335
 3942 11e2 03       		.byte	0x3
 3943 11e3 0B       		.uleb128 0xb
 3944 11e4 A8110000 		.4byte	.LASF336
 3945 11e8 04       		.byte	0x4
 3946 11e9 0B       		.uleb128 0xb
 3947 11ea 53100000 		.4byte	.LASF337
 3948 11ee 05       		.byte	0x5
 3949 11ef 00       		.byte	0
 3950 11f0 1E       		.uleb128 0x1e
 3951 11f1 01       		.byte	0x1
 3952 11f2 42000000 		.4byte	0x42
 3953 11f6 18       		.byte	0x18
 3954 11f7 2F       		.byte	0x2f
 3955 11f8 21120000 		.4byte	0x1221
 3956 11fc 0B       		.uleb128 0xb
 3957 11fd 43080000 		.4byte	.LASF338
 3958 1201 00       		.byte	0
 3959 1202 0B       		.uleb128 0xb
 3960 1203 F80A0000 		.4byte	.LASF339
 3961 1207 01       		.byte	0x1
 3962 1208 0B       		.uleb128 0xb
 3963 1209 C2000000 		.4byte	.LASF340
 3964 120d 02       		.byte	0x2
 3965 120e 0B       		.uleb128 0xb
 3966 120f E2050000 		.4byte	.LASF341
 3967 1213 03       		.byte	0x3
 3968 1214 0B       		.uleb128 0xb
 3969 1215 C50B0000 		.4byte	.LASF342
 3970 1219 04       		.byte	0x4
 3971 121a 0B       		.uleb128 0xb
 3972 121b CA130000 		.4byte	.LASF343
 3973 121f 05       		.byte	0x5
 3974 1220 00       		.byte	0
 3975 1221 15       		.uleb128 0x15
 3976 1222 C3000000 		.4byte	0xc3
 3977 1226 31120000 		.4byte	0x1231
 3978 122a 16       		.uleb128 0x16
ARM GAS  C:\Users\tmj32\AppData\Local\Temp\cc8xedyG.s 			page 93


 3979 122b B6000000 		.4byte	0xb6
 3980 122f 03       		.byte	0x3
 3981 1230 00       		.byte	0
 3982 1231 06       		.uleb128 0x6
 3983 1232 04       		.byte	0x4
 3984 1233 B4110000 		.4byte	0x11b4
 3985 1237 1E       		.uleb128 0x1e
 3986 1238 01       		.byte	0x1
 3987 1239 42000000 		.4byte	0x42
 3988 123d 19       		.byte	0x19
 3989 123e 2D       		.byte	0x2d
 3990 123f 68120000 		.4byte	0x1268
 3991 1243 0B       		.uleb128 0xb
 3992 1244 95130000 		.4byte	.LASF344
 3993 1248 00       		.byte	0
 3994 1249 0B       		.uleb128 0xb
 3995 124a DE070000 		.4byte	.LASF345
 3996 124e 01       		.byte	0x1
 3997 124f 0B       		.uleb128 0xb
 3998 1250 3D090000 		.4byte	.LASF346
 3999 1254 02       		.byte	0x2
 4000 1255 0B       		.uleb128 0xb
 4001 1256 05110000 		.4byte	.LASF347
 4002 125a 04       		.byte	0x4
 4003 125b 0B       		.uleb128 0xb
 4004 125c 2D150000 		.4byte	.LASF348
 4005 1260 08       		.byte	0x8
 4006 1261 0B       		.uleb128 0xb
 4007 1262 08160000 		.4byte	.LASF349
 4008 1266 10       		.byte	0x10
 4009 1267 00       		.byte	0
 4010 1268 08       		.uleb128 0x8
 4011 1269 0C       		.byte	0xc
 4012 126a 19       		.byte	0x19
 4013 126b 3E       		.byte	0x3e
 4014 126c 95120000 		.4byte	0x1295
 4015 1270 09       		.uleb128 0x9
 4016 1271 FA160000 		.4byte	.LASF350
 4017 1275 19       		.byte	0x19
 4018 1276 40       		.byte	0x40
 4019 1277 95120000 		.4byte	0x1295
 4020 127b 00       		.byte	0
 4021 127c 09       		.uleb128 0x9
 4022 127d 19070000 		.4byte	.LASF248
 4023 1281 19       		.byte	0x19
 4024 1282 41       		.byte	0x41
 4025 1283 570A0000 		.4byte	0xa57
 4026 1287 04       		.byte	0x4
 4027 1288 09       		.uleb128 0x9
 4028 1289 31110000 		.4byte	.LASF351
 4029 128d 19       		.byte	0x19
 4030 128e 42       		.byte	0x42
 4031 128f EB000000 		.4byte	0xeb
 4032 1293 08       		.byte	0x8
 4033 1294 00       		.byte	0
 4034 1295 06       		.uleb128 0x6
 4035 1296 04       		.byte	0x4
ARM GAS  C:\Users\tmj32\AppData\Local\Temp\cc8xedyG.s 			page 94


 4036 1297 96090000 		.4byte	0x996
 4037 129b 02       		.uleb128 0x2
 4038 129c AD100000 		.4byte	.LASF352
 4039 12a0 19       		.byte	0x19
 4040 12a1 43       		.byte	0x43
 4041 12a2 68120000 		.4byte	0x1268
 4042 12a6 1E       		.uleb128 0x1e
 4043 12a7 01       		.byte	0x1
 4044 12a8 42000000 		.4byte	0x42
 4045 12ac 04       		.byte	0x4
 4046 12ad 2A       		.byte	0x2a
 4047 12ae BF120000 		.4byte	0x12bf
 4048 12b2 0B       		.uleb128 0xb
 4049 12b3 AF0C0000 		.4byte	.LASF353
 4050 12b7 00       		.byte	0
 4051 12b8 0B       		.uleb128 0xb
 4052 12b9 6D070000 		.4byte	.LASF354
 4053 12bd 01       		.byte	0x1
 4054 12be 00       		.byte	0
 4055 12bf 1F       		.uleb128 0x1f
 4056 12c0 EA0A0000 		.4byte	.LASF355
 4057 12c4 01       		.byte	0x1
 4058 12c5 DD01     		.2byte	0x1dd
 4059 12c7 570A0000 		.4byte	0xa57
 4060 12cb 00000000 		.4byte	.LFB588
 4061 12cf 38000000 		.4byte	.LFE588-.LFB588
 4062 12d3 01       		.uleb128 0x1
 4063 12d4 9C       		.byte	0x9c
 4064 12d5 01130000 		.4byte	0x1301
 4065 12d9 20       		.uleb128 0x20
 4066 12da 7200     		.ascii	"r\000"
 4067 12dc 01       		.byte	0x1
 4068 12dd DD01     		.2byte	0x1dd
 4069 12df D5000000 		.4byte	0xd5
 4070 12e3 02       		.uleb128 0x2
 4071 12e4 91       		.byte	0x91
 4072 12e5 77       		.sleb128 -9
 4073 12e6 20       		.uleb128 0x20
 4074 12e7 6700     		.ascii	"g\000"
 4075 12e9 01       		.byte	0x1
 4076 12ea DD01     		.2byte	0x1dd
 4077 12ec D5000000 		.4byte	0xd5
 4078 12f0 02       		.uleb128 0x2
 4079 12f1 91       		.byte	0x91
 4080 12f2 76       		.sleb128 -10
 4081 12f3 20       		.uleb128 0x20
 4082 12f4 6200     		.ascii	"b\000"
 4083 12f6 01       		.byte	0x1
 4084 12f7 DD01     		.2byte	0x1dd
 4085 12f9 D5000000 		.4byte	0xd5
 4086 12fd 02       		.uleb128 0x2
 4087 12fe 91       		.byte	0x91
 4088 12ff 75       		.sleb128 -11
 4089 1300 00       		.byte	0
 4090 1301 21       		.uleb128 0x21
 4091 1302 07090000 		.4byte	.LASF356
 4092 1306 01       		.byte	0x1
ARM GAS  C:\Users\tmj32\AppData\Local\Temp\cc8xedyG.s 			page 95


 4093 1307 E201     		.2byte	0x1e2
 4094 1309 570A0000 		.4byte	0xa57
 4095 130d 00000000 		.4byte	.LFB589
 4096 1311 28000000 		.4byte	.LFE589-.LFB589
 4097 1315 01       		.uleb128 0x1
 4098 1316 9C       		.byte	0x9c
 4099 1317 29130000 		.4byte	0x1329
 4100 131b 20       		.uleb128 0x20
 4101 131c 6300     		.ascii	"c\000"
 4102 131e 01       		.byte	0x1
 4103 131f E201     		.2byte	0x1e2
 4104 1321 01010000 		.4byte	0x101
 4105 1325 02       		.uleb128 0x2
 4106 1326 91       		.byte	0x91
 4107 1327 74       		.sleb128 -12
 4108 1328 00       		.byte	0
 4109 1329 22       		.uleb128 0x22
 4110 132a 0C0B0000 		.4byte	.LASF408
 4111 132e 02       		.byte	0x2
 4112 132f 61       		.byte	0x61
 4113 1330 31120000 		.4byte	0x1231
 4114 1334 00000000 		.4byte	.LFB613
 4115 1338 16000000 		.4byte	.LFE613-.LFB613
 4116 133c 01       		.uleb128 0x1
 4117 133d 9C       		.byte	0x9c
 4118 133e 23       		.uleb128 0x23
 4119 133f D7080000 		.4byte	.LASF360
 4120 1343 03       		.byte	0x3
 4121 1344 4F       		.byte	0x4f
 4122 1345 00000000 		.4byte	.LFB668
 4123 1349 26000000 		.4byte	.LFE668-.LFB668
 4124 134d 01       		.uleb128 0x1
 4125 134e 9C       		.byte	0x9c
 4126 134f 7E130000 		.4byte	0x137e
 4127 1353 24       		.uleb128 0x24
 4128 1354 FA060000 		.4byte	.LASF357
 4129 1358 03       		.byte	0x3
 4130 1359 4F       		.byte	0x4f
 4131 135a 31120000 		.4byte	0x1231
 4132 135e 02       		.uleb128 0x2
 4133 135f 91       		.byte	0x91
 4134 1360 74       		.sleb128 -12
 4135 1361 24       		.uleb128 0x24
 4136 1362 F4060000 		.4byte	.LASF358
 4137 1366 03       		.byte	0x3
 4138 1367 4F       		.byte	0x4f
 4139 1368 E0000000 		.4byte	0xe0
 4140 136c 02       		.uleb128 0x2
 4141 136d 91       		.byte	0x91
 4142 136e 72       		.sleb128 -14
 4143 136f 24       		.uleb128 0x24
 4144 1370 95030000 		.4byte	.LASF359
 4145 1374 03       		.byte	0x3
 4146 1375 4F       		.byte	0x4f
 4147 1376 340D0000 		.4byte	0xd34
 4148 137a 02       		.uleb128 0x2
 4149 137b 91       		.byte	0x91
ARM GAS  C:\Users\tmj32\AppData\Local\Temp\cc8xedyG.s 			page 96


 4150 137c 71       		.sleb128 -15
 4151 137d 00       		.byte	0
 4152 137e 23       		.uleb128 0x23
 4153 137f 300F0000 		.4byte	.LASF361
 4154 1383 03       		.byte	0x3
 4155 1384 5A       		.byte	0x5a
 4156 1385 00000000 		.4byte	.LFB669
 4157 1389 28000000 		.4byte	.LFE669-.LFB669
 4158 138d 01       		.uleb128 0x1
 4159 138e 9C       		.byte	0x9c
 4160 138f BE130000 		.4byte	0x13be
 4161 1393 24       		.uleb128 0x24
 4162 1394 FA060000 		.4byte	.LASF357
 4163 1398 03       		.byte	0x3
 4164 1399 5A       		.byte	0x5a
 4165 139a 31120000 		.4byte	0x1231
 4166 139e 02       		.uleb128 0x2
 4167 139f 91       		.byte	0x91
 4168 13a0 74       		.sleb128 -12
 4169 13a1 25       		.uleb128 0x25
 4170 13a2 6D696E00 		.ascii	"min\000"
 4171 13a6 03       		.byte	0x3
 4172 13a7 5A       		.byte	0x5a
 4173 13a8 E0000000 		.4byte	0xe0
 4174 13ac 02       		.uleb128 0x2
 4175 13ad 91       		.byte	0x91
 4176 13ae 72       		.sleb128 -14
 4177 13af 25       		.uleb128 0x25
 4178 13b0 6D617800 		.ascii	"max\000"
 4179 13b4 03       		.byte	0x3
 4180 13b5 5A       		.byte	0x5a
 4181 13b6 E0000000 		.4byte	0xe0
 4182 13ba 02       		.uleb128 0x2
 4183 13bb 91       		.byte	0x91
 4184 13bc 70       		.sleb128 -16
 4185 13bd 00       		.byte	0
 4186 13be 23       		.uleb128 0x23
 4187 13bf 77000000 		.4byte	.LASF362
 4188 13c3 04       		.byte	0x4
 4189 13c4 9B       		.byte	0x9b
 4190 13c5 00000000 		.4byte	.LFB687
 4191 13c9 22000000 		.4byte	.LFE687-.LFB687
 4192 13cd 01       		.uleb128 0x1
 4193 13ce 9C       		.byte	0x9c
 4194 13cf FE130000 		.4byte	0x13fe
 4195 13d3 24       		.uleb128 0x24
 4196 13d4 30100000 		.4byte	.LASF363
 4197 13d8 04       		.byte	0x4
 4198 13d9 9B       		.byte	0x9b
 4199 13da FE130000 		.4byte	0x13fe
 4200 13de 02       		.uleb128 0x2
 4201 13df 91       		.byte	0x91
 4202 13e0 74       		.sleb128 -12
 4203 13e1 25       		.uleb128 0x25
 4204 13e2 62756600 		.ascii	"buf\000"
 4205 13e6 04       		.byte	0x4
 4206 13e7 9B       		.byte	0x9b
ARM GAS  C:\Users\tmj32\AppData\Local\Temp\cc8xedyG.s 			page 97


 4207 13e8 BD000000 		.4byte	0xbd
 4208 13ec 02       		.uleb128 0x2
 4209 13ed 91       		.byte	0x91
 4210 13ee 70       		.sleb128 -16
 4211 13ef 24       		.uleb128 0x24
 4212 13f0 30050000 		.4byte	.LASF364
 4213 13f4 04       		.byte	0x4
 4214 13f5 9B       		.byte	0x9b
 4215 13f6 EB000000 		.4byte	0xeb
 4216 13fa 02       		.uleb128 0x2
 4217 13fb 91       		.byte	0x91
 4218 13fc 6E       		.sleb128 -18
 4219 13fd 00       		.byte	0
 4220 13fe 06       		.uleb128 0x6
 4221 13ff 04       		.byte	0x4
 4222 1400 04140000 		.4byte	0x1404
 4223 1404 1B       		.uleb128 0x1b
 4224 1405 B4110000 		.4byte	0x11b4
 4225 1409 26       		.uleb128 0x26
 4226 140a CE140000 		.4byte	.LASF365
 4227 140e 05       		.byte	0x5
 4228 140f 81       		.byte	0x81
 4229 1410 3B050000 		.4byte	0x53b
 4230 1414 00000000 		.4byte	.LFB714
 4231 1418 22000000 		.4byte	.LFE714-.LFB714
 4232 141c 01       		.uleb128 0x1
 4233 141d 9C       		.byte	0x9c
 4234 141e 30140000 		.4byte	0x1430
 4235 1422 25       		.uleb128 0x25
 4236 1423 737700   		.ascii	"sw\000"
 4237 1426 05       		.byte	0x5
 4238 1427 81       		.byte	0x81
 4239 1428 FE130000 		.4byte	0x13fe
 4240 142c 02       		.uleb128 0x2
 4241 142d 91       		.byte	0x91
 4242 142e 74       		.sleb128 -12
 4243 142f 00       		.byte	0
 4244 1430 27       		.uleb128 0x27
 4245 1431 E6060000 		.4byte	.LASF409
 4246 1435 06       		.byte	0x6
 4247 1436 15       		.byte	0x15
 4248 1437 00000000 		.4byte	.LFB717
 4249 143b 58010000 		.4byte	.LFE717-.LFB717
 4250 143f 01       		.uleb128 0x1
 4251 1440 9C       		.byte	0x9c
 4252 1441 CE140000 		.4byte	0x14ce
 4253 1445 28       		.uleb128 0x28
 4254 1446 D9040000 		.4byte	.LASF366
 4255 144a 06       		.byte	0x6
 4256 144b 17       		.byte	0x17
 4257 144c CE140000 		.4byte	0x14ce
 4258 1450 02       		.uleb128 0x2
 4259 1451 91       		.byte	0x91
 4260 1452 60       		.sleb128 -32
 4261 1453 28       		.uleb128 0x28
 4262 1454 B80E0000 		.4byte	.LASF367
 4263 1458 06       		.byte	0x6
ARM GAS  C:\Users\tmj32\AppData\Local\Temp\cc8xedyG.s 			page 98


 4264 1459 18       		.byte	0x18
 4265 145a CE140000 		.4byte	0x14ce
 4266 145e 02       		.uleb128 0x2
 4267 145f 91       		.byte	0x91
 4268 1460 5C       		.sleb128 -36
 4269 1461 28       		.uleb128 0x28
 4270 1462 9C080000 		.4byte	.LASF368
 4271 1466 06       		.byte	0x6
 4272 1467 19       		.byte	0x19
 4273 1468 CE140000 		.4byte	0x14ce
 4274 146c 02       		.uleb128 0x2
 4275 146d 91       		.byte	0x91
 4276 146e 58       		.sleb128 -40
 4277 146f 28       		.uleb128 0x28
 4278 1470 6C150000 		.4byte	.LASF369
 4279 1474 06       		.byte	0x6
 4280 1475 1A       		.byte	0x1a
 4281 1476 CE140000 		.4byte	0x14ce
 4282 147a 02       		.uleb128 0x2
 4283 147b 91       		.byte	0x91
 4284 147c 54       		.sleb128 -44
 4285 147d 28       		.uleb128 0x28
 4286 147e BB000000 		.4byte	.LASF370
 4287 1482 06       		.byte	0x6
 4288 1483 1D       		.byte	0x1d
 4289 1484 31120000 		.4byte	0x1231
 4290 1488 05       		.uleb128 0x5
 4291 1489 03       		.byte	0x3
 4292 148a 18000000 		.4byte	chart1.20845
 4293 148e 29       		.uleb128 0x29
 4294 148f 733100   		.ascii	"s1\000"
 4295 1492 06       		.byte	0x6
 4296 1493 2F       		.byte	0x2f
 4297 1494 D3140000 		.4byte	0x14d3
 4298 1498 02       		.uleb128 0x2
 4299 1499 91       		.byte	0x91
 4300 149a 50       		.sleb128 -48
 4301 149b 28       		.uleb128 0x28
 4302 149c 980B0000 		.4byte	.LASF371
 4303 14a0 06       		.byte	0x6
 4304 14a1 36       		.byte	0x36
 4305 14a2 9F000000 		.4byte	0x9f
 4306 14a6 02       		.uleb128 0x2
 4307 14a7 91       		.byte	0x91
 4308 14a8 6C       		.sleb128 -20
 4309 14a9 28       		.uleb128 0x28
 4310 14aa D2150000 		.4byte	.LASF372
 4311 14ae 06       		.byte	0x6
 4312 14af 37       		.byte	0x37
 4313 14b0 9F000000 		.4byte	0x9f
 4314 14b4 02       		.uleb128 0x2
 4315 14b5 91       		.byte	0x91
 4316 14b6 68       		.sleb128 -24
 4317 14b7 2A       		.uleb128 0x2a
 4318 14b8 02010000 		.4byte	.LBB2
 4319 14bc 38000000 		.4byte	.LBE2-.LBB2
 4320 14c0 29       		.uleb128 0x29
ARM GAS  C:\Users\tmj32\AppData\Local\Temp\cc8xedyG.s 			page 99


 4321 14c1 6900     		.ascii	"i\000"
 4322 14c3 06       		.byte	0x6
 4323 14c4 46       		.byte	0x46
 4324 14c5 9F000000 		.4byte	0x9f
 4325 14c9 02       		.uleb128 0x2
 4326 14ca 91       		.byte	0x91
 4327 14cb 64       		.sleb128 -28
 4328 14cc 00       		.byte	0
 4329 14cd 00       		.byte	0
 4330 14ce 1B       		.uleb128 0x1b
 4331 14cf 9F000000 		.4byte	0x9f
 4332 14d3 06       		.uleb128 0x6
 4333 14d4 04       		.byte	0x4
 4334 14d5 9B120000 		.4byte	0x129b
 4335 14d9 23       		.uleb128 0x23
 4336 14da 0C0D0000 		.4byte	.LASF373
 4337 14de 06       		.byte	0x6
 4338 14df 4C       		.byte	0x4c
 4339 14e0 00000000 		.4byte	.LFB718
 4340 14e4 28000000 		.4byte	.LFE718-.LFB718
 4341 14e8 01       		.uleb128 0x1
 4342 14e9 9C       		.byte	0x9c
 4343 14ea 23150000 		.4byte	0x1523
 4344 14ee 25       		.uleb128 0x25
 4345 14ef 6F626A00 		.ascii	"obj\000"
 4346 14f3 06       		.byte	0x6
 4347 14f4 4C       		.byte	0x4c
 4348 14f5 31120000 		.4byte	0x1231
 4349 14f9 02       		.uleb128 0x2
 4350 14fa 91       		.byte	0x91
 4351 14fb 54       		.sleb128 -44
 4352 14fc 24       		.uleb128 0x24
 4353 14fd 8D050000 		.4byte	.LASF374
 4354 1501 06       		.byte	0x6
 4355 1502 4C       		.byte	0x4c
 4356 1503 3A100000 		.4byte	0x103a
 4357 1507 02       		.uleb128 0x2
 4358 1508 91       		.byte	0x91
 4359 1509 53       		.sleb128 -45
 4360 150a 2A       		.uleb128 0x2a
 4361 150b 12000000 		.4byte	.LBB3
 4362 150f 0E000000 		.4byte	.LBE3-.LBB3
 4363 1513 29       		.uleb128 0x29
 4364 1514 62756600 		.ascii	"buf\000"
 4365 1518 06       		.byte	0x6
 4366 1519 4F       		.byte	0x4f
 4367 151a 23150000 		.4byte	0x1523
 4368 151e 02       		.uleb128 0x2
 4369 151f 91       		.byte	0x91
 4370 1520 58       		.sleb128 -40
 4371 1521 00       		.byte	0
 4372 1522 00       		.byte	0
 4373 1523 15       		.uleb128 0x15
 4374 1524 C3000000 		.4byte	0xc3
 4375 1528 33150000 		.4byte	0x1533
 4376 152c 16       		.uleb128 0x16
 4377 152d B6000000 		.4byte	0xb6
ARM GAS  C:\Users\tmj32\AppData\Local\Temp\cc8xedyG.s 			page 100


 4378 1531 1F       		.byte	0x1f
 4379 1532 00       		.byte	0
 4380 1533 23       		.uleb128 0x23
 4381 1534 97020000 		.4byte	.LASF375
 4382 1538 06       		.byte	0x6
 4383 1539 53       		.byte	0x53
 4384 153a 00000000 		.4byte	.LFB719
 4385 153e 40000000 		.4byte	.LFE719-.LFB719
 4386 1542 01       		.uleb128 0x1
 4387 1543 9C       		.byte	0x9c
 4388 1544 65150000 		.4byte	0x1565
 4389 1548 25       		.uleb128 0x25
 4390 1549 6F626A00 		.ascii	"obj\000"
 4391 154d 06       		.byte	0x6
 4392 154e 53       		.byte	0x53
 4393 154f 31120000 		.4byte	0x1231
 4394 1553 02       		.uleb128 0x2
 4395 1554 91       		.byte	0x91
 4396 1555 74       		.sleb128 -12
 4397 1556 24       		.uleb128 0x24
 4398 1557 8D050000 		.4byte	.LASF374
 4399 155b 06       		.byte	0x6
 4400 155c 53       		.byte	0x53
 4401 155d 3A100000 		.4byte	0x103a
 4402 1561 02       		.uleb128 0x2
 4403 1562 91       		.byte	0x91
 4404 1563 73       		.sleb128 -13
 4405 1564 00       		.byte	0
 4406 1565 23       		.uleb128 0x23
 4407 1566 0E000000 		.4byte	.LASF376
 4408 156a 06       		.byte	0x6
 4409 156b 5A       		.byte	0x5a
 4410 156c 00000000 		.4byte	.LFB720
 4411 1570 5C000000 		.4byte	.LFE720-.LFB720
 4412 1574 01       		.uleb128 0x1
 4413 1575 9C       		.byte	0x9c
 4414 1576 B2150000 		.4byte	0x15b2
 4415 157a 24       		.uleb128 0x24
 4416 157b FA060000 		.4byte	.LASF357
 4417 157f 06       		.byte	0x6
 4418 1580 5A       		.byte	0x5a
 4419 1581 31120000 		.4byte	0x1231
 4420 1585 02       		.uleb128 0x2
 4421 1586 91       		.byte	0x91
 4422 1587 74       		.sleb128 -12
 4423 1588 24       		.uleb128 0x24
 4424 1589 8D050000 		.4byte	.LASF374
 4425 158d 06       		.byte	0x6
 4426 158e 5A       		.byte	0x5a
 4427 158f 3A100000 		.4byte	0x103a
 4428 1593 02       		.uleb128 0x2
 4429 1594 91       		.byte	0x91
 4430 1595 73       		.sleb128 -13
 4431 1596 2A       		.uleb128 0x2a
 4432 1597 12000000 		.4byte	.LBB4
 4433 159b 30000000 		.4byte	.LBE4-.LBB4
 4434 159f 29       		.uleb128 0x29
ARM GAS  C:\Users\tmj32\AppData\Local\Temp\cc8xedyG.s 			page 101


 4435 15a0 62756600 		.ascii	"buf\000"
 4436 15a4 06       		.byte	0x6
 4437 15a5 5D       		.byte	0x5d
 4438 15a6 21120000 		.4byte	0x1221
 4439 15aa 05       		.uleb128 0x5
 4440 15ab 03       		.byte	0x3
 4441 15ac 1C000000 		.4byte	buf.20866
 4442 15b0 00       		.byte	0
 4443 15b1 00       		.byte	0
 4444 15b2 23       		.uleb128 0x23
 4445 15b3 A00E0000 		.4byte	.LASF377
 4446 15b7 06       		.byte	0x6
 4447 15b8 64       		.byte	0x64
 4448 15b9 00000000 		.4byte	.LFB721
 4449 15bd 5C000000 		.4byte	.LFE721-.LFB721
 4450 15c1 01       		.uleb128 0x1
 4451 15c2 9C       		.byte	0x9c
 4452 15c3 FF150000 		.4byte	0x15ff
 4453 15c7 24       		.uleb128 0x24
 4454 15c8 FA060000 		.4byte	.LASF357
 4455 15cc 06       		.byte	0x6
 4456 15cd 64       		.byte	0x64
 4457 15ce 31120000 		.4byte	0x1231
 4458 15d2 02       		.uleb128 0x2
 4459 15d3 91       		.byte	0x91
 4460 15d4 74       		.sleb128 -12
 4461 15d5 24       		.uleb128 0x24
 4462 15d6 8D050000 		.4byte	.LASF374
 4463 15da 06       		.byte	0x6
 4464 15db 64       		.byte	0x64
 4465 15dc 3A100000 		.4byte	0x103a
 4466 15e0 02       		.uleb128 0x2
 4467 15e1 91       		.byte	0x91
 4468 15e2 73       		.sleb128 -13
 4469 15e3 2A       		.uleb128 0x2a
 4470 15e4 12000000 		.4byte	.LBB5
 4471 15e8 30000000 		.4byte	.LBE5-.LBB5
 4472 15ec 29       		.uleb128 0x29
 4473 15ed 62756600 		.ascii	"buf\000"
 4474 15f1 06       		.byte	0x6
 4475 15f2 67       		.byte	0x67
 4476 15f3 21120000 		.4byte	0x1221
 4477 15f7 05       		.uleb128 0x5
 4478 15f8 03       		.byte	0x3
 4479 15f9 20000000 		.4byte	buf.20871
 4480 15fd 00       		.byte	0
 4481 15fe 00       		.byte	0
 4482 15ff 23       		.uleb128 0x23
 4483 1600 40010000 		.4byte	.LASF378
 4484 1604 06       		.byte	0x6
 4485 1605 6E       		.byte	0x6e
 4486 1606 00000000 		.4byte	.LFB722
 4487 160a 5C000000 		.4byte	.LFE722-.LFB722
 4488 160e 01       		.uleb128 0x1
 4489 160f 9C       		.byte	0x9c
 4490 1610 4C160000 		.4byte	0x164c
 4491 1614 24       		.uleb128 0x24
ARM GAS  C:\Users\tmj32\AppData\Local\Temp\cc8xedyG.s 			page 102


 4492 1615 FA060000 		.4byte	.LASF357
 4493 1619 06       		.byte	0x6
 4494 161a 6E       		.byte	0x6e
 4495 161b 31120000 		.4byte	0x1231
 4496 161f 02       		.uleb128 0x2
 4497 1620 91       		.byte	0x91
 4498 1621 74       		.sleb128 -12
 4499 1622 24       		.uleb128 0x24
 4500 1623 8D050000 		.4byte	.LASF374
 4501 1627 06       		.byte	0x6
 4502 1628 6E       		.byte	0x6e
 4503 1629 3A100000 		.4byte	0x103a
 4504 162d 02       		.uleb128 0x2
 4505 162e 91       		.byte	0x91
 4506 162f 73       		.sleb128 -13
 4507 1630 2A       		.uleb128 0x2a
 4508 1631 12000000 		.4byte	.LBB6
 4509 1635 30000000 		.4byte	.LBE6-.LBB6
 4510 1639 29       		.uleb128 0x29
 4511 163a 62756600 		.ascii	"buf\000"
 4512 163e 06       		.byte	0x6
 4513 163f 71       		.byte	0x71
 4514 1640 21120000 		.4byte	0x1221
 4515 1644 05       		.uleb128 0x5
 4516 1645 03       		.byte	0x3
 4517 1646 24000000 		.4byte	buf.20876
 4518 164a 00       		.byte	0
 4519 164b 00       		.byte	0
 4520 164c 23       		.uleb128 0x23
 4521 164d 66090000 		.4byte	.LASF379
 4522 1651 06       		.byte	0x6
 4523 1652 78       		.byte	0x78
 4524 1653 00000000 		.4byte	.LFB723
 4525 1657 5C000000 		.4byte	.LFE723-.LFB723
 4526 165b 01       		.uleb128 0x1
 4527 165c 9C       		.byte	0x9c
 4528 165d 99160000 		.4byte	0x1699
 4529 1661 24       		.uleb128 0x24
 4530 1662 FA060000 		.4byte	.LASF357
 4531 1666 06       		.byte	0x6
 4532 1667 78       		.byte	0x78
 4533 1668 31120000 		.4byte	0x1231
 4534 166c 02       		.uleb128 0x2
 4535 166d 91       		.byte	0x91
 4536 166e 74       		.sleb128 -12
 4537 166f 24       		.uleb128 0x24
 4538 1670 8D050000 		.4byte	.LASF374
 4539 1674 06       		.byte	0x6
 4540 1675 78       		.byte	0x78
 4541 1676 3A100000 		.4byte	0x103a
 4542 167a 02       		.uleb128 0x2
 4543 167b 91       		.byte	0x91
 4544 167c 73       		.sleb128 -13
 4545 167d 2A       		.uleb128 0x2a
 4546 167e 12000000 		.4byte	.LBB7
 4547 1682 30000000 		.4byte	.LBE7-.LBB7
 4548 1686 29       		.uleb128 0x29
ARM GAS  C:\Users\tmj32\AppData\Local\Temp\cc8xedyG.s 			page 103


 4549 1687 62756600 		.ascii	"buf\000"
 4550 168b 06       		.byte	0x6
 4551 168c 7B       		.byte	0x7b
 4552 168d 21120000 		.4byte	0x1221
 4553 1691 05       		.uleb128 0x5
 4554 1692 03       		.byte	0x3
 4555 1693 28000000 		.4byte	buf.20881
 4556 1697 00       		.byte	0
 4557 1698 00       		.byte	0
 4558 1699 23       		.uleb128 0x23
 4559 169a A4050000 		.4byte	.LASF380
 4560 169e 06       		.byte	0x6
 4561 169f 82       		.byte	0x82
 4562 16a0 00000000 		.4byte	.LFB724
 4563 16a4 5C000000 		.4byte	.LFE724-.LFB724
 4564 16a8 01       		.uleb128 0x1
 4565 16a9 9C       		.byte	0x9c
 4566 16aa E6160000 		.4byte	0x16e6
 4567 16ae 24       		.uleb128 0x24
 4568 16af FA060000 		.4byte	.LASF357
 4569 16b3 06       		.byte	0x6
 4570 16b4 82       		.byte	0x82
 4571 16b5 31120000 		.4byte	0x1231
 4572 16b9 02       		.uleb128 0x2
 4573 16ba 91       		.byte	0x91
 4574 16bb 74       		.sleb128 -12
 4575 16bc 24       		.uleb128 0x24
 4576 16bd 8D050000 		.4byte	.LASF374
 4577 16c1 06       		.byte	0x6
 4578 16c2 82       		.byte	0x82
 4579 16c3 3A100000 		.4byte	0x103a
 4580 16c7 02       		.uleb128 0x2
 4581 16c8 91       		.byte	0x91
 4582 16c9 73       		.sleb128 -13
 4583 16ca 2A       		.uleb128 0x2a
 4584 16cb 12000000 		.4byte	.LBB8
 4585 16cf 30000000 		.4byte	.LBE8-.LBB8
 4586 16d3 29       		.uleb128 0x29
 4587 16d4 62756600 		.ascii	"buf\000"
 4588 16d8 06       		.byte	0x6
 4589 16d9 85       		.byte	0x85
 4590 16da E6160000 		.4byte	0x16e6
 4591 16de 05       		.uleb128 0x5
 4592 16df 03       		.byte	0x3
 4593 16e0 2C000000 		.4byte	buf.20886
 4594 16e4 00       		.byte	0
 4595 16e5 00       		.byte	0
 4596 16e6 15       		.uleb128 0x15
 4597 16e7 C3000000 		.4byte	0xc3
 4598 16eb F6160000 		.4byte	0x16f6
 4599 16ef 16       		.uleb128 0x16
 4600 16f0 B6000000 		.4byte	0xb6
 4601 16f4 05       		.byte	0x5
 4602 16f5 00       		.byte	0
 4603 16f6 2B       		.uleb128 0x2b
 4604 16f7 EC100000 		.4byte	.LASF410
 4605 16fb 06       		.byte	0x6
ARM GAS  C:\Users\tmj32\AppData\Local\Temp\cc8xedyG.s 			page 104


 4606 16fc 8D       		.byte	0x8d
 4607 16fd 00000000 		.4byte	.LFB725
 4608 1701 6C040000 		.4byte	.LFE725-.LFB725
 4609 1705 01       		.uleb128 0x1
 4610 1706 9C       		.byte	0x9c
 4611 1707 B6170000 		.4byte	0x17b6
 4612 170b 28       		.uleb128 0x28
 4613 170c EA0C0000 		.4byte	.LASF381
 4614 1710 06       		.byte	0x6
 4615 1711 90       		.byte	0x90
 4616 1712 31120000 		.4byte	0x1231
 4617 1716 02       		.uleb128 0x2
 4618 1717 91       		.byte	0x91
 4619 1718 74       		.sleb128 -12
 4620 1719 28       		.uleb128 0x28
 4621 171a 70170000 		.4byte	.LASF382
 4622 171e 06       		.byte	0x6
 4623 171f 9E       		.byte	0x9e
 4624 1720 31120000 		.4byte	0x1231
 4625 1724 02       		.uleb128 0x2
 4626 1725 91       		.byte	0x91
 4627 1726 70       		.sleb128 -16
 4628 1727 28       		.uleb128 0x28
 4629 1728 72060000 		.4byte	.LASF383
 4630 172c 06       		.byte	0x6
 4631 172d A7       		.byte	0xa7
 4632 172e 31120000 		.4byte	0x1231
 4633 1732 02       		.uleb128 0x2
 4634 1733 91       		.byte	0x91
 4635 1734 6C       		.sleb128 -20
 4636 1735 28       		.uleb128 0x28
 4637 1736 CF0D0000 		.4byte	.LASF384
 4638 173a 06       		.byte	0x6
 4639 173b B5       		.byte	0xb5
 4640 173c 31120000 		.4byte	0x1231
 4641 1740 02       		.uleb128 0x2
 4642 1741 91       		.byte	0x91
 4643 1742 68       		.sleb128 -24
 4644 1743 28       		.uleb128 0x28
 4645 1744 AD070000 		.4byte	.LASF385
 4646 1748 06       		.byte	0x6
 4647 1749 BD       		.byte	0xbd
 4648 174a 31120000 		.4byte	0x1231
 4649 174e 02       		.uleb128 0x2
 4650 174f 91       		.byte	0x91
 4651 1750 64       		.sleb128 -28
 4652 1751 28       		.uleb128 0x28
 4653 1752 5A0F0000 		.4byte	.LASF386
 4654 1756 06       		.byte	0x6
 4655 1757 CB       		.byte	0xcb
 4656 1758 31120000 		.4byte	0x1231
 4657 175c 02       		.uleb128 0x2
 4658 175d 91       		.byte	0x91
 4659 175e 60       		.sleb128 -32
 4660 175f 28       		.uleb128 0x28
 4661 1760 3A130000 		.4byte	.LASF387
 4662 1764 06       		.byte	0x6
ARM GAS  C:\Users\tmj32\AppData\Local\Temp\cc8xedyG.s 			page 105


 4663 1765 D3       		.byte	0xd3
 4664 1766 31120000 		.4byte	0x1231
 4665 176a 02       		.uleb128 0x2
 4666 176b 91       		.byte	0x91
 4667 176c 5C       		.sleb128 -36
 4668 176d 28       		.uleb128 0x28
 4669 176e 15040000 		.4byte	.LASF388
 4670 1772 06       		.byte	0x6
 4671 1773 E1       		.byte	0xe1
 4672 1774 31120000 		.4byte	0x1231
 4673 1778 02       		.uleb128 0x2
 4674 1779 91       		.byte	0x91
 4675 177a 58       		.sleb128 -40
 4676 177b 28       		.uleb128 0x28
 4677 177c F8100000 		.4byte	.LASF389
 4678 1780 06       		.byte	0x6
 4679 1781 E9       		.byte	0xe9
 4680 1782 31120000 		.4byte	0x1231
 4681 1786 02       		.uleb128 0x2
 4682 1787 91       		.byte	0x91
 4683 1788 54       		.sleb128 -44
 4684 1789 29       		.uleb128 0x29
 4685 178a 73773100 		.ascii	"sw1\000"
 4686 178e 06       		.byte	0x6
 4687 178f FE       		.byte	0xfe
 4688 1790 31120000 		.4byte	0x1231
 4689 1794 02       		.uleb128 0x2
 4690 1795 91       		.byte	0x91
 4691 1796 50       		.sleb128 -48
 4692 1797 2C       		.uleb128 0x2c
 4693 1798 360E0000 		.4byte	.LASF390
 4694 179c 06       		.byte	0x6
 4695 179d 0501     		.2byte	0x105
 4696 179f 31120000 		.4byte	0x1231
 4697 17a3 02       		.uleb128 0x2
 4698 17a4 91       		.byte	0x91
 4699 17a5 4C       		.sleb128 -52
 4700 17a6 2C       		.uleb128 0x2c
 4701 17a7 390B0000 		.4byte	.LASF391
 4702 17ab 06       		.byte	0x6
 4703 17ac 0E01     		.2byte	0x10e
 4704 17ae 31120000 		.4byte	0x1231
 4705 17b2 02       		.uleb128 0x2
 4706 17b3 91       		.byte	0x91
 4707 17b4 48       		.sleb128 -56
 4708 17b5 00       		.byte	0
 4709 17b6 28       		.uleb128 0x28
 4710 17b7 3D0A0000 		.4byte	.LASF392
 4711 17bb 06       		.byte	0x6
 4712 17bc 0D       		.byte	0xd
 4713 17bd 31120000 		.4byte	0x1231
 4714 17c1 05       		.uleb128 0x5
 4715 17c2 03       		.byte	0x3
 4716 17c3 00000000 		.4byte	offsetLabel
 4717 17c7 28       		.uleb128 0x28
 4718 17c8 7C090000 		.4byte	.LASF393
 4719 17cc 06       		.byte	0x6
ARM GAS  C:\Users\tmj32\AppData\Local\Temp\cc8xedyG.s 			page 106


 4720 17cd 0E       		.byte	0xe
 4721 17ce 31120000 		.4byte	0x1231
 4722 17d2 05       		.uleb128 0x5
 4723 17d3 03       		.byte	0x3
 4724 17d4 04000000 		.4byte	triggerLabel
 4725 17d8 28       		.uleb128 0x28
 4726 17d9 4F0F0000 		.4byte	.LASF394
 4727 17dd 06       		.byte	0x6
 4728 17de 0F       		.byte	0xf
 4729 17df 31120000 		.4byte	0x1231
 4730 17e3 05       		.uleb128 0x5
 4731 17e4 03       		.byte	0x3
 4732 17e5 08000000 		.4byte	horiLabel1
 4733 17e9 28       		.uleb128 0x28
 4734 17ea 0A040000 		.4byte	.LASF395
 4735 17ee 06       		.byte	0x6
 4736 17ef 10       		.byte	0x10
 4737 17f0 31120000 		.4byte	0x1231
 4738 17f4 05       		.uleb128 0x5
 4739 17f5 03       		.byte	0x3
 4740 17f6 0C000000 		.4byte	vertLabel1
 4741 17fa 28       		.uleb128 0x28
 4742 17fb 92000000 		.4byte	.LASF396
 4743 17ff 06       		.byte	0x6
 4744 1800 11       		.byte	0x11
 4745 1801 31120000 		.4byte	0x1231
 4746 1805 05       		.uleb128 0x5
 4747 1806 03       		.byte	0x3
 4748 1807 10000000 		.4byte	windowLabel
 4749 180b 2D       		.uleb128 0x2d
 4750 180c 65100000 		.4byte	.LASF397
 4751 1810 1A       		.byte	0x1a
 4752 1811 F907     		.2byte	0x7f9
 4753 1813 17180000 		.4byte	0x1817
 4754 1817 07       		.uleb128 0x7
 4755 1818 F6000000 		.4byte	0xf6
 4756 181c 2E       		.uleb128 0x2e
 4757 181d 9E000000 		.4byte	.LASF398
 4758 1821 09       		.byte	0x9
 4759 1822 A7       		.byte	0xa7
 4760 1823 27180000 		.4byte	0x1827
 4761 1827 06       		.uleb128 0x6
 4762 1828 04       		.byte	0x4
 4763 1829 2D180000 		.4byte	0x182d
 4764 182d 1B       		.uleb128 0x1b
 4765 182e 22050000 		.4byte	0x522
 4766 1832 2E       		.uleb128 0x2e
 4767 1833 4D000000 		.4byte	.LASF399
 4768 1837 1B       		.byte	0x1b
 4769 1838 1F       		.byte	0x1f
 4770 1839 3D180000 		.4byte	0x183d
 4771 183d 1B       		.uleb128 0x1b
 4772 183e 68080000 		.4byte	0x868
 4773 1842 2E       		.uleb128 0x2e
 4774 1843 A8000000 		.4byte	.LASF400
 4775 1847 1C       		.byte	0x1c
 4776 1848 7F       		.byte	0x7f
ARM GAS  C:\Users\tmj32\AppData\Local\Temp\cc8xedyG.s 			page 107


 4777 1849 D0060000 		.4byte	0x6d0
 4778 184d 2E       		.uleb128 0x2e
 4779 184e 0B0A0000 		.4byte	.LASF401
 4780 1852 1D       		.byte	0x1d
 4781 1853 5E       		.byte	0x5e
 4782 1854 6B070000 		.4byte	0x76b
 4783 1858 2F       		.uleb128 0x2f
 4784 1859 636D3400 		.ascii	"cm4\000"
 4785 185d 0D       		.byte	0xd
 4786 185e 21       		.byte	0x21
 4787 185f 73080000 		.4byte	0x873
 4788 1863 05       		.uleb128 0x5
 4789 1864 03       		.byte	0x3
 4790 1865 00000000 		.4byte	cm4
 4791 1869 15       		.uleb128 0x15
 4792 186a 050D0000 		.4byte	0xd05
 4793 186e 79180000 		.4byte	0x1879
 4794 1872 16       		.uleb128 0x16
 4795 1873 B6000000 		.4byte	0xb6
 4796 1877 02       		.byte	0x2
 4797 1878 00       		.byte	0
 4798 1879 30       		.uleb128 0x30
 4799 187a 8B130000 		.4byte	.LASF402
 4800 187e 06       		.byte	0x6
 4801 187f 0A       		.byte	0xa
 4802 1880 8A180000 		.4byte	0x188a
 4803 1884 05       		.uleb128 0x5
 4804 1885 03       		.byte	0x3
 4805 1886 00000000 		.4byte	tcnj_blue
 4806 188a 1B       		.uleb128 0x1b
 4807 188b 69180000 		.4byte	0x1869
 4808 188f 30       		.uleb128 0x30
 4809 1890 0B080000 		.4byte	.LASF403
 4810 1894 06       		.byte	0x6
 4811 1895 0B       		.byte	0xb
 4812 1896 A0180000 		.4byte	0x18a0
 4813 189a 05       		.uleb128 0x5
 4814 189b 03       		.byte	0x3
 4815 189c 00000000 		.4byte	tcnj_gold
 4816 18a0 1B       		.uleb128 0x1b
 4817 18a1 69180000 		.4byte	0x1869
 4818 18a5 30       		.uleb128 0x30
 4819 18a6 040F0000 		.4byte	.LASF404
 4820 18aa 06       		.byte	0x6
 4821 18ab 13       		.byte	0x13
 4822 18ac 9F000000 		.4byte	0x9f
 4823 18b0 05       		.uleb128 0x5
 4824 18b1 03       		.byte	0x3
 4825 18b2 00000000 		.4byte	startup
 4826 18b6 00       		.byte	0
 4827              		.section	.debug_abbrev,"",%progbits
 4828              	.Ldebug_abbrev0:
 4829 0000 01       		.uleb128 0x1
 4830 0001 11       		.uleb128 0x11
 4831 0002 01       		.byte	0x1
 4832 0003 25       		.uleb128 0x25
 4833 0004 0E       		.uleb128 0xe
ARM GAS  C:\Users\tmj32\AppData\Local\Temp\cc8xedyG.s 			page 108


 4834 0005 13       		.uleb128 0x13
 4835 0006 0B       		.uleb128 0xb
 4836 0007 03       		.uleb128 0x3
 4837 0008 0E       		.uleb128 0xe
 4838 0009 1B       		.uleb128 0x1b
 4839 000a 0E       		.uleb128 0xe
 4840 000b 55       		.uleb128 0x55
 4841 000c 17       		.uleb128 0x17
 4842 000d 11       		.uleb128 0x11
 4843 000e 01       		.uleb128 0x1
 4844 000f 10       		.uleb128 0x10
 4845 0010 17       		.uleb128 0x17
 4846 0011 00       		.byte	0
 4847 0012 00       		.byte	0
 4848 0013 02       		.uleb128 0x2
 4849 0014 16       		.uleb128 0x16
 4850 0015 00       		.byte	0
 4851 0016 03       		.uleb128 0x3
 4852 0017 0E       		.uleb128 0xe
 4853 0018 3A       		.uleb128 0x3a
 4854 0019 0B       		.uleb128 0xb
 4855 001a 3B       		.uleb128 0x3b
 4856 001b 0B       		.uleb128 0xb
 4857 001c 49       		.uleb128 0x49
 4858 001d 13       		.uleb128 0x13
 4859 001e 00       		.byte	0
 4860 001f 00       		.byte	0
 4861 0020 03       		.uleb128 0x3
 4862 0021 24       		.uleb128 0x24
 4863 0022 00       		.byte	0
 4864 0023 0B       		.uleb128 0xb
 4865 0024 0B       		.uleb128 0xb
 4866 0025 3E       		.uleb128 0x3e
 4867 0026 0B       		.uleb128 0xb
 4868 0027 03       		.uleb128 0x3
 4869 0028 0E       		.uleb128 0xe
 4870 0029 00       		.byte	0
 4871 002a 00       		.byte	0
 4872 002b 04       		.uleb128 0x4
 4873 002c 24       		.uleb128 0x24
 4874 002d 00       		.byte	0
 4875 002e 0B       		.uleb128 0xb
 4876 002f 0B       		.uleb128 0xb
 4877 0030 3E       		.uleb128 0x3e
 4878 0031 0B       		.uleb128 0xb
 4879 0032 03       		.uleb128 0x3
 4880 0033 08       		.uleb128 0x8
 4881 0034 00       		.byte	0
 4882 0035 00       		.byte	0
 4883 0036 05       		.uleb128 0x5
 4884 0037 0F       		.uleb128 0xf
 4885 0038 00       		.byte	0
 4886 0039 0B       		.uleb128 0xb
 4887 003a 0B       		.uleb128 0xb
 4888 003b 00       		.byte	0
 4889 003c 00       		.byte	0
 4890 003d 06       		.uleb128 0x6
ARM GAS  C:\Users\tmj32\AppData\Local\Temp\cc8xedyG.s 			page 109


 4891 003e 0F       		.uleb128 0xf
 4892 003f 00       		.byte	0
 4893 0040 0B       		.uleb128 0xb
 4894 0041 0B       		.uleb128 0xb
 4895 0042 49       		.uleb128 0x49
 4896 0043 13       		.uleb128 0x13
 4897 0044 00       		.byte	0
 4898 0045 00       		.byte	0
 4899 0046 07       		.uleb128 0x7
 4900 0047 35       		.uleb128 0x35
 4901 0048 00       		.byte	0
 4902 0049 49       		.uleb128 0x49
 4903 004a 13       		.uleb128 0x13
 4904 004b 00       		.byte	0
 4905 004c 00       		.byte	0
 4906 004d 08       		.uleb128 0x8
 4907 004e 13       		.uleb128 0x13
 4908 004f 01       		.byte	0x1
 4909 0050 0B       		.uleb128 0xb
 4910 0051 0B       		.uleb128 0xb
 4911 0052 3A       		.uleb128 0x3a
 4912 0053 0B       		.uleb128 0xb
 4913 0054 3B       		.uleb128 0x3b
 4914 0055 0B       		.uleb128 0xb
 4915 0056 01       		.uleb128 0x1
 4916 0057 13       		.uleb128 0x13
 4917 0058 00       		.byte	0
 4918 0059 00       		.byte	0
 4919 005a 09       		.uleb128 0x9
 4920 005b 0D       		.uleb128 0xd
 4921 005c 00       		.byte	0
 4922 005d 03       		.uleb128 0x3
 4923 005e 0E       		.uleb128 0xe
 4924 005f 3A       		.uleb128 0x3a
 4925 0060 0B       		.uleb128 0xb
 4926 0061 3B       		.uleb128 0x3b
 4927 0062 0B       		.uleb128 0xb
 4928 0063 49       		.uleb128 0x49
 4929 0064 13       		.uleb128 0x13
 4930 0065 38       		.uleb128 0x38
 4931 0066 0B       		.uleb128 0xb
 4932 0067 00       		.byte	0
 4933 0068 00       		.byte	0
 4934 0069 0A       		.uleb128 0xa
 4935 006a 04       		.uleb128 0x4
 4936 006b 01       		.byte	0x1
 4937 006c 0B       		.uleb128 0xb
 4938 006d 0B       		.uleb128 0xb
 4939 006e 49       		.uleb128 0x49
 4940 006f 13       		.uleb128 0x13
 4941 0070 3A       		.uleb128 0x3a
 4942 0071 0B       		.uleb128 0xb
 4943 0072 3B       		.uleb128 0x3b
 4944 0073 05       		.uleb128 0x5
 4945 0074 01       		.uleb128 0x1
 4946 0075 13       		.uleb128 0x13
 4947 0076 00       		.byte	0
ARM GAS  C:\Users\tmj32\AppData\Local\Temp\cc8xedyG.s 			page 110


 4948 0077 00       		.byte	0
 4949 0078 0B       		.uleb128 0xb
 4950 0079 28       		.uleb128 0x28
 4951 007a 00       		.byte	0
 4952 007b 03       		.uleb128 0x3
 4953 007c 0E       		.uleb128 0xe
 4954 007d 1C       		.uleb128 0x1c
 4955 007e 0B       		.uleb128 0xb
 4956 007f 00       		.byte	0
 4957 0080 00       		.byte	0
 4958 0081 0C       		.uleb128 0xc
 4959 0082 16       		.uleb128 0x16
 4960 0083 00       		.byte	0
 4961 0084 03       		.uleb128 0x3
 4962 0085 0E       		.uleb128 0xe
 4963 0086 3A       		.uleb128 0x3a
 4964 0087 0B       		.uleb128 0xb
 4965 0088 3B       		.uleb128 0x3b
 4966 0089 05       		.uleb128 0x5
 4967 008a 49       		.uleb128 0x49
 4968 008b 13       		.uleb128 0x13
 4969 008c 00       		.byte	0
 4970 008d 00       		.byte	0
 4971 008e 0D       		.uleb128 0xd
 4972 008f 15       		.uleb128 0x15
 4973 0090 01       		.byte	0x1
 4974 0091 27       		.uleb128 0x27
 4975 0092 19       		.uleb128 0x19
 4976 0093 01       		.uleb128 0x1
 4977 0094 13       		.uleb128 0x13
 4978 0095 00       		.byte	0
 4979 0096 00       		.byte	0
 4980 0097 0E       		.uleb128 0xe
 4981 0098 05       		.uleb128 0x5
 4982 0099 00       		.byte	0
 4983 009a 49       		.uleb128 0x49
 4984 009b 13       		.uleb128 0x13
 4985 009c 00       		.byte	0
 4986 009d 00       		.byte	0
 4987 009e 0F       		.uleb128 0xf
 4988 009f 15       		.uleb128 0x15
 4989 00a0 01       		.byte	0x1
 4990 00a1 27       		.uleb128 0x27
 4991 00a2 19       		.uleb128 0x19
 4992 00a3 49       		.uleb128 0x49
 4993 00a4 13       		.uleb128 0x13
 4994 00a5 01       		.uleb128 0x1
 4995 00a6 13       		.uleb128 0x13
 4996 00a7 00       		.byte	0
 4997 00a8 00       		.byte	0
 4998 00a9 10       		.uleb128 0x10
 4999 00aa 13       		.uleb128 0x13
 5000 00ab 01       		.byte	0x1
 5001 00ac 03       		.uleb128 0x3
 5002 00ad 0E       		.uleb128 0xe
 5003 00ae 0B       		.uleb128 0xb
 5004 00af 0B       		.uleb128 0xb
ARM GAS  C:\Users\tmj32\AppData\Local\Temp\cc8xedyG.s 			page 111


 5005 00b0 3A       		.uleb128 0x3a
 5006 00b1 0B       		.uleb128 0xb
 5007 00b2 3B       		.uleb128 0x3b
 5008 00b3 05       		.uleb128 0x5
 5009 00b4 01       		.uleb128 0x1
 5010 00b5 13       		.uleb128 0x13
 5011 00b6 00       		.byte	0
 5012 00b7 00       		.byte	0
 5013 00b8 11       		.uleb128 0x11
 5014 00b9 0D       		.uleb128 0xd
 5015 00ba 00       		.byte	0
 5016 00bb 03       		.uleb128 0x3
 5017 00bc 0E       		.uleb128 0xe
 5018 00bd 3A       		.uleb128 0x3a
 5019 00be 0B       		.uleb128 0xb
 5020 00bf 3B       		.uleb128 0x3b
 5021 00c0 05       		.uleb128 0x5
 5022 00c1 49       		.uleb128 0x49
 5023 00c2 13       		.uleb128 0x13
 5024 00c3 38       		.uleb128 0x38
 5025 00c4 0B       		.uleb128 0xb
 5026 00c5 00       		.byte	0
 5027 00c6 00       		.byte	0
 5028 00c7 12       		.uleb128 0x12
 5029 00c8 13       		.uleb128 0x13
 5030 00c9 01       		.byte	0x1
 5031 00ca 03       		.uleb128 0x3
 5032 00cb 0E       		.uleb128 0xe
 5033 00cc 0B       		.uleb128 0xb
 5034 00cd 0B       		.uleb128 0xb
 5035 00ce 3A       		.uleb128 0x3a
 5036 00cf 0B       		.uleb128 0xb
 5037 00d0 3B       		.uleb128 0x3b
 5038 00d1 0B       		.uleb128 0xb
 5039 00d2 01       		.uleb128 0x1
 5040 00d3 13       		.uleb128 0x13
 5041 00d4 00       		.byte	0
 5042 00d5 00       		.byte	0
 5043 00d6 13       		.uleb128 0x13
 5044 00d7 13       		.uleb128 0x13
 5045 00d8 01       		.byte	0x1
 5046 00d9 03       		.uleb128 0x3
 5047 00da 0E       		.uleb128 0xe
 5048 00db 0B       		.uleb128 0xb
 5049 00dc 05       		.uleb128 0x5
 5050 00dd 3A       		.uleb128 0x3a
 5051 00de 0B       		.uleb128 0xb
 5052 00df 3B       		.uleb128 0x3b
 5053 00e0 0B       		.uleb128 0xb
 5054 00e1 01       		.uleb128 0x1
 5055 00e2 13       		.uleb128 0x13
 5056 00e3 00       		.byte	0
 5057 00e4 00       		.byte	0
 5058 00e5 14       		.uleb128 0x14
 5059 00e6 0D       		.uleb128 0xd
 5060 00e7 00       		.byte	0
 5061 00e8 03       		.uleb128 0x3
ARM GAS  C:\Users\tmj32\AppData\Local\Temp\cc8xedyG.s 			page 112


 5062 00e9 08       		.uleb128 0x8
 5063 00ea 3A       		.uleb128 0x3a
 5064 00eb 0B       		.uleb128 0xb
 5065 00ec 3B       		.uleb128 0x3b
 5066 00ed 0B       		.uleb128 0xb
 5067 00ee 49       		.uleb128 0x49
 5068 00ef 13       		.uleb128 0x13
 5069 00f0 38       		.uleb128 0x38
 5070 00f1 0B       		.uleb128 0xb
 5071 00f2 00       		.byte	0
 5072 00f3 00       		.byte	0
 5073 00f4 15       		.uleb128 0x15
 5074 00f5 01       		.uleb128 0x1
 5075 00f6 01       		.byte	0x1
 5076 00f7 49       		.uleb128 0x49
 5077 00f8 13       		.uleb128 0x13
 5078 00f9 01       		.uleb128 0x1
 5079 00fa 13       		.uleb128 0x13
 5080 00fb 00       		.byte	0
 5081 00fc 00       		.byte	0
 5082 00fd 16       		.uleb128 0x16
 5083 00fe 21       		.uleb128 0x21
 5084 00ff 00       		.byte	0
 5085 0100 49       		.uleb128 0x49
 5086 0101 13       		.uleb128 0x13
 5087 0102 2F       		.uleb128 0x2f
 5088 0103 0B       		.uleb128 0xb
 5089 0104 00       		.byte	0
 5090 0105 00       		.byte	0
 5091 0106 17       		.uleb128 0x17
 5092 0107 21       		.uleb128 0x21
 5093 0108 00       		.byte	0
 5094 0109 49       		.uleb128 0x49
 5095 010a 13       		.uleb128 0x13
 5096 010b 2F       		.uleb128 0x2f
 5097 010c 05       		.uleb128 0x5
 5098 010d 00       		.byte	0
 5099 010e 00       		.byte	0
 5100 010f 18       		.uleb128 0x18
 5101 0110 17       		.uleb128 0x17
 5102 0111 01       		.byte	0x1
 5103 0112 0B       		.uleb128 0xb
 5104 0113 0B       		.uleb128 0xb
 5105 0114 3A       		.uleb128 0x3a
 5106 0115 0B       		.uleb128 0xb
 5107 0116 3B       		.uleb128 0x3b
 5108 0117 0B       		.uleb128 0xb
 5109 0118 01       		.uleb128 0x1
 5110 0119 13       		.uleb128 0x13
 5111 011a 00       		.byte	0
 5112 011b 00       		.byte	0
 5113 011c 19       		.uleb128 0x19
 5114 011d 0D       		.uleb128 0xd
 5115 011e 00       		.byte	0
 5116 011f 03       		.uleb128 0x3
 5117 0120 08       		.uleb128 0x8
 5118 0121 3A       		.uleb128 0x3a
ARM GAS  C:\Users\tmj32\AppData\Local\Temp\cc8xedyG.s 			page 113


 5119 0122 0B       		.uleb128 0xb
 5120 0123 3B       		.uleb128 0x3b
 5121 0124 0B       		.uleb128 0xb
 5122 0125 49       		.uleb128 0x49
 5123 0126 13       		.uleb128 0x13
 5124 0127 00       		.byte	0
 5125 0128 00       		.byte	0
 5126 0129 1A       		.uleb128 0x1a
 5127 012a 0D       		.uleb128 0xd
 5128 012b 00       		.byte	0
 5129 012c 03       		.uleb128 0x3
 5130 012d 0E       		.uleb128 0xe
 5131 012e 3A       		.uleb128 0x3a
 5132 012f 0B       		.uleb128 0xb
 5133 0130 3B       		.uleb128 0x3b
 5134 0131 0B       		.uleb128 0xb
 5135 0132 49       		.uleb128 0x49
 5136 0133 13       		.uleb128 0x13
 5137 0134 00       		.byte	0
 5138 0135 00       		.byte	0
 5139 0136 1B       		.uleb128 0x1b
 5140 0137 26       		.uleb128 0x26
 5141 0138 00       		.byte	0
 5142 0139 49       		.uleb128 0x49
 5143 013a 13       		.uleb128 0x13
 5144 013b 00       		.byte	0
 5145 013c 00       		.byte	0
 5146 013d 1C       		.uleb128 0x1c
 5147 013e 0D       		.uleb128 0xd
 5148 013f 00       		.byte	0
 5149 0140 03       		.uleb128 0x3
 5150 0141 0E       		.uleb128 0xe
 5151 0142 3A       		.uleb128 0x3a
 5152 0143 0B       		.uleb128 0xb
 5153 0144 3B       		.uleb128 0x3b
 5154 0145 0B       		.uleb128 0xb
 5155 0146 49       		.uleb128 0x49
 5156 0147 13       		.uleb128 0x13
 5157 0148 0B       		.uleb128 0xb
 5158 0149 0B       		.uleb128 0xb
 5159 014a 0D       		.uleb128 0xd
 5160 014b 0B       		.uleb128 0xb
 5161 014c 0C       		.uleb128 0xc
 5162 014d 0B       		.uleb128 0xb
 5163 014e 38       		.uleb128 0x38
 5164 014f 0B       		.uleb128 0xb
 5165 0150 00       		.byte	0
 5166 0151 00       		.byte	0
 5167 0152 1D       		.uleb128 0x1d
 5168 0153 0D       		.uleb128 0xd
 5169 0154 00       		.byte	0
 5170 0155 03       		.uleb128 0x3
 5171 0156 08       		.uleb128 0x8
 5172 0157 3A       		.uleb128 0x3a
 5173 0158 0B       		.uleb128 0xb
 5174 0159 3B       		.uleb128 0x3b
 5175 015a 0B       		.uleb128 0xb
ARM GAS  C:\Users\tmj32\AppData\Local\Temp\cc8xedyG.s 			page 114


 5176 015b 49       		.uleb128 0x49
 5177 015c 13       		.uleb128 0x13
 5178 015d 0B       		.uleb128 0xb
 5179 015e 0B       		.uleb128 0xb
 5180 015f 0D       		.uleb128 0xd
 5181 0160 0B       		.uleb128 0xb
 5182 0161 0C       		.uleb128 0xc
 5183 0162 0B       		.uleb128 0xb
 5184 0163 38       		.uleb128 0x38
 5185 0164 0B       		.uleb128 0xb
 5186 0165 00       		.byte	0
 5187 0166 00       		.byte	0
 5188 0167 1E       		.uleb128 0x1e
 5189 0168 04       		.uleb128 0x4
 5190 0169 01       		.byte	0x1
 5191 016a 0B       		.uleb128 0xb
 5192 016b 0B       		.uleb128 0xb
 5193 016c 49       		.uleb128 0x49
 5194 016d 13       		.uleb128 0x13
 5195 016e 3A       		.uleb128 0x3a
 5196 016f 0B       		.uleb128 0xb
 5197 0170 3B       		.uleb128 0x3b
 5198 0171 0B       		.uleb128 0xb
 5199 0172 01       		.uleb128 0x1
 5200 0173 13       		.uleb128 0x13
 5201 0174 00       		.byte	0
 5202 0175 00       		.byte	0
 5203 0176 1F       		.uleb128 0x1f
 5204 0177 2E       		.uleb128 0x2e
 5205 0178 01       		.byte	0x1
 5206 0179 03       		.uleb128 0x3
 5207 017a 0E       		.uleb128 0xe
 5208 017b 3A       		.uleb128 0x3a
 5209 017c 0B       		.uleb128 0xb
 5210 017d 3B       		.uleb128 0x3b
 5211 017e 05       		.uleb128 0x5
 5212 017f 27       		.uleb128 0x27
 5213 0180 19       		.uleb128 0x19
 5214 0181 49       		.uleb128 0x49
 5215 0182 13       		.uleb128 0x13
 5216 0183 11       		.uleb128 0x11
 5217 0184 01       		.uleb128 0x1
 5218 0185 12       		.uleb128 0x12
 5219 0186 06       		.uleb128 0x6
 5220 0187 40       		.uleb128 0x40
 5221 0188 18       		.uleb128 0x18
 5222 0189 9742     		.uleb128 0x2117
 5223 018b 19       		.uleb128 0x19
 5224 018c 01       		.uleb128 0x1
 5225 018d 13       		.uleb128 0x13
 5226 018e 00       		.byte	0
 5227 018f 00       		.byte	0
 5228 0190 20       		.uleb128 0x20
 5229 0191 05       		.uleb128 0x5
 5230 0192 00       		.byte	0
 5231 0193 03       		.uleb128 0x3
 5232 0194 08       		.uleb128 0x8
ARM GAS  C:\Users\tmj32\AppData\Local\Temp\cc8xedyG.s 			page 115


 5233 0195 3A       		.uleb128 0x3a
 5234 0196 0B       		.uleb128 0xb
 5235 0197 3B       		.uleb128 0x3b
 5236 0198 05       		.uleb128 0x5
 5237 0199 49       		.uleb128 0x49
 5238 019a 13       		.uleb128 0x13
 5239 019b 02       		.uleb128 0x2
 5240 019c 18       		.uleb128 0x18
 5241 019d 00       		.byte	0
 5242 019e 00       		.byte	0
 5243 019f 21       		.uleb128 0x21
 5244 01a0 2E       		.uleb128 0x2e
 5245 01a1 01       		.byte	0x1
 5246 01a2 03       		.uleb128 0x3
 5247 01a3 0E       		.uleb128 0xe
 5248 01a4 3A       		.uleb128 0x3a
 5249 01a5 0B       		.uleb128 0xb
 5250 01a6 3B       		.uleb128 0x3b
 5251 01a7 05       		.uleb128 0x5
 5252 01a8 27       		.uleb128 0x27
 5253 01a9 19       		.uleb128 0x19
 5254 01aa 49       		.uleb128 0x49
 5255 01ab 13       		.uleb128 0x13
 5256 01ac 11       		.uleb128 0x11
 5257 01ad 01       		.uleb128 0x1
 5258 01ae 12       		.uleb128 0x12
 5259 01af 06       		.uleb128 0x6
 5260 01b0 40       		.uleb128 0x40
 5261 01b1 18       		.uleb128 0x18
 5262 01b2 9642     		.uleb128 0x2116
 5263 01b4 19       		.uleb128 0x19
 5264 01b5 01       		.uleb128 0x1
 5265 01b6 13       		.uleb128 0x13
 5266 01b7 00       		.byte	0
 5267 01b8 00       		.byte	0
 5268 01b9 22       		.uleb128 0x22
 5269 01ba 2E       		.uleb128 0x2e
 5270 01bb 00       		.byte	0
 5271 01bc 03       		.uleb128 0x3
 5272 01bd 0E       		.uleb128 0xe
 5273 01be 3A       		.uleb128 0x3a
 5274 01bf 0B       		.uleb128 0xb
 5275 01c0 3B       		.uleb128 0x3b
 5276 01c1 0B       		.uleb128 0xb
 5277 01c2 27       		.uleb128 0x27
 5278 01c3 19       		.uleb128 0x19
 5279 01c4 49       		.uleb128 0x49
 5280 01c5 13       		.uleb128 0x13
 5281 01c6 11       		.uleb128 0x11
 5282 01c7 01       		.uleb128 0x1
 5283 01c8 12       		.uleb128 0x12
 5284 01c9 06       		.uleb128 0x6
 5285 01ca 40       		.uleb128 0x40
 5286 01cb 18       		.uleb128 0x18
 5287 01cc 9642     		.uleb128 0x2116
 5288 01ce 19       		.uleb128 0x19
 5289 01cf 00       		.byte	0
ARM GAS  C:\Users\tmj32\AppData\Local\Temp\cc8xedyG.s 			page 116


 5290 01d0 00       		.byte	0
 5291 01d1 23       		.uleb128 0x23
 5292 01d2 2E       		.uleb128 0x2e
 5293 01d3 01       		.byte	0x1
 5294 01d4 03       		.uleb128 0x3
 5295 01d5 0E       		.uleb128 0xe
 5296 01d6 3A       		.uleb128 0x3a
 5297 01d7 0B       		.uleb128 0xb
 5298 01d8 3B       		.uleb128 0x3b
 5299 01d9 0B       		.uleb128 0xb
 5300 01da 27       		.uleb128 0x27
 5301 01db 19       		.uleb128 0x19
 5302 01dc 11       		.uleb128 0x11
 5303 01dd 01       		.uleb128 0x1
 5304 01de 12       		.uleb128 0x12
 5305 01df 06       		.uleb128 0x6
 5306 01e0 40       		.uleb128 0x40
 5307 01e1 18       		.uleb128 0x18
 5308 01e2 9642     		.uleb128 0x2116
 5309 01e4 19       		.uleb128 0x19
 5310 01e5 01       		.uleb128 0x1
 5311 01e6 13       		.uleb128 0x13
 5312 01e7 00       		.byte	0
 5313 01e8 00       		.byte	0
 5314 01e9 24       		.uleb128 0x24
 5315 01ea 05       		.uleb128 0x5
 5316 01eb 00       		.byte	0
 5317 01ec 03       		.uleb128 0x3
 5318 01ed 0E       		.uleb128 0xe
 5319 01ee 3A       		.uleb128 0x3a
 5320 01ef 0B       		.uleb128 0xb
 5321 01f0 3B       		.uleb128 0x3b
 5322 01f1 0B       		.uleb128 0xb
 5323 01f2 49       		.uleb128 0x49
 5324 01f3 13       		.uleb128 0x13
 5325 01f4 02       		.uleb128 0x2
 5326 01f5 18       		.uleb128 0x18
 5327 01f6 00       		.byte	0
 5328 01f7 00       		.byte	0
 5329 01f8 25       		.uleb128 0x25
 5330 01f9 05       		.uleb128 0x5
 5331 01fa 00       		.byte	0
 5332 01fb 03       		.uleb128 0x3
 5333 01fc 08       		.uleb128 0x8
 5334 01fd 3A       		.uleb128 0x3a
 5335 01fe 0B       		.uleb128 0xb
 5336 01ff 3B       		.uleb128 0x3b
 5337 0200 0B       		.uleb128 0xb
 5338 0201 49       		.uleb128 0x49
 5339 0202 13       		.uleb128 0x13
 5340 0203 02       		.uleb128 0x2
 5341 0204 18       		.uleb128 0x18
 5342 0205 00       		.byte	0
 5343 0206 00       		.byte	0
 5344 0207 26       		.uleb128 0x26
 5345 0208 2E       		.uleb128 0x2e
 5346 0209 01       		.byte	0x1
ARM GAS  C:\Users\tmj32\AppData\Local\Temp\cc8xedyG.s 			page 117


 5347 020a 03       		.uleb128 0x3
 5348 020b 0E       		.uleb128 0xe
 5349 020c 3A       		.uleb128 0x3a
 5350 020d 0B       		.uleb128 0xb
 5351 020e 3B       		.uleb128 0x3b
 5352 020f 0B       		.uleb128 0xb
 5353 0210 27       		.uleb128 0x27
 5354 0211 19       		.uleb128 0x19
 5355 0212 49       		.uleb128 0x49
 5356 0213 13       		.uleb128 0x13
 5357 0214 11       		.uleb128 0x11
 5358 0215 01       		.uleb128 0x1
 5359 0216 12       		.uleb128 0x12
 5360 0217 06       		.uleb128 0x6
 5361 0218 40       		.uleb128 0x40
 5362 0219 18       		.uleb128 0x18
 5363 021a 9642     		.uleb128 0x2116
 5364 021c 19       		.uleb128 0x19
 5365 021d 01       		.uleb128 0x1
 5366 021e 13       		.uleb128 0x13
 5367 021f 00       		.byte	0
 5368 0220 00       		.byte	0
 5369 0221 27       		.uleb128 0x27
 5370 0222 2E       		.uleb128 0x2e
 5371 0223 01       		.byte	0x1
 5372 0224 03       		.uleb128 0x3
 5373 0225 0E       		.uleb128 0xe
 5374 0226 3A       		.uleb128 0x3a
 5375 0227 0B       		.uleb128 0xb
 5376 0228 3B       		.uleb128 0x3b
 5377 0229 0B       		.uleb128 0xb
 5378 022a 11       		.uleb128 0x11
 5379 022b 01       		.uleb128 0x1
 5380 022c 12       		.uleb128 0x12
 5381 022d 06       		.uleb128 0x6
 5382 022e 40       		.uleb128 0x40
 5383 022f 18       		.uleb128 0x18
 5384 0230 9642     		.uleb128 0x2116
 5385 0232 19       		.uleb128 0x19
 5386 0233 01       		.uleb128 0x1
 5387 0234 13       		.uleb128 0x13
 5388 0235 00       		.byte	0
 5389 0236 00       		.byte	0
 5390 0237 28       		.uleb128 0x28
 5391 0238 34       		.uleb128 0x34
 5392 0239 00       		.byte	0
 5393 023a 03       		.uleb128 0x3
 5394 023b 0E       		.uleb128 0xe
 5395 023c 3A       		.uleb128 0x3a
 5396 023d 0B       		.uleb128 0xb
 5397 023e 3B       		.uleb128 0x3b
 5398 023f 0B       		.uleb128 0xb
 5399 0240 49       		.uleb128 0x49
 5400 0241 13       		.uleb128 0x13
 5401 0242 02       		.uleb128 0x2
 5402 0243 18       		.uleb128 0x18
 5403 0244 00       		.byte	0
ARM GAS  C:\Users\tmj32\AppData\Local\Temp\cc8xedyG.s 			page 118


 5404 0245 00       		.byte	0
 5405 0246 29       		.uleb128 0x29
 5406 0247 34       		.uleb128 0x34
 5407 0248 00       		.byte	0
 5408 0249 03       		.uleb128 0x3
 5409 024a 08       		.uleb128 0x8
 5410 024b 3A       		.uleb128 0x3a
 5411 024c 0B       		.uleb128 0xb
 5412 024d 3B       		.uleb128 0x3b
 5413 024e 0B       		.uleb128 0xb
 5414 024f 49       		.uleb128 0x49
 5415 0250 13       		.uleb128 0x13
 5416 0251 02       		.uleb128 0x2
 5417 0252 18       		.uleb128 0x18
 5418 0253 00       		.byte	0
 5419 0254 00       		.byte	0
 5420 0255 2A       		.uleb128 0x2a
 5421 0256 0B       		.uleb128 0xb
 5422 0257 01       		.byte	0x1
 5423 0258 11       		.uleb128 0x11
 5424 0259 01       		.uleb128 0x1
 5425 025a 12       		.uleb128 0x12
 5426 025b 06       		.uleb128 0x6
 5427 025c 00       		.byte	0
 5428 025d 00       		.byte	0
 5429 025e 2B       		.uleb128 0x2b
 5430 025f 2E       		.uleb128 0x2e
 5431 0260 01       		.byte	0x1
 5432 0261 3F       		.uleb128 0x3f
 5433 0262 19       		.uleb128 0x19
 5434 0263 03       		.uleb128 0x3
 5435 0264 0E       		.uleb128 0xe
 5436 0265 3A       		.uleb128 0x3a
 5437 0266 0B       		.uleb128 0xb
 5438 0267 3B       		.uleb128 0x3b
 5439 0268 0B       		.uleb128 0xb
 5440 0269 11       		.uleb128 0x11
 5441 026a 01       		.uleb128 0x1
 5442 026b 12       		.uleb128 0x12
 5443 026c 06       		.uleb128 0x6
 5444 026d 40       		.uleb128 0x40
 5445 026e 18       		.uleb128 0x18
 5446 026f 9642     		.uleb128 0x2116
 5447 0271 19       		.uleb128 0x19
 5448 0272 01       		.uleb128 0x1
 5449 0273 13       		.uleb128 0x13
 5450 0274 00       		.byte	0
 5451 0275 00       		.byte	0
 5452 0276 2C       		.uleb128 0x2c
 5453 0277 34       		.uleb128 0x34
 5454 0278 00       		.byte	0
 5455 0279 03       		.uleb128 0x3
 5456 027a 0E       		.uleb128 0xe
 5457 027b 3A       		.uleb128 0x3a
 5458 027c 0B       		.uleb128 0xb
 5459 027d 3B       		.uleb128 0x3b
 5460 027e 05       		.uleb128 0x5
ARM GAS  C:\Users\tmj32\AppData\Local\Temp\cc8xedyG.s 			page 119


 5461 027f 49       		.uleb128 0x49
 5462 0280 13       		.uleb128 0x13
 5463 0281 02       		.uleb128 0x2
 5464 0282 18       		.uleb128 0x18
 5465 0283 00       		.byte	0
 5466 0284 00       		.byte	0
 5467 0285 2D       		.uleb128 0x2d
 5468 0286 34       		.uleb128 0x34
 5469 0287 00       		.byte	0
 5470 0288 03       		.uleb128 0x3
 5471 0289 0E       		.uleb128 0xe
 5472 028a 3A       		.uleb128 0x3a
 5473 028b 0B       		.uleb128 0xb
 5474 028c 3B       		.uleb128 0x3b
 5475 028d 05       		.uleb128 0x5
 5476 028e 49       		.uleb128 0x49
 5477 028f 13       		.uleb128 0x13
 5478 0290 3F       		.uleb128 0x3f
 5479 0291 19       		.uleb128 0x19
 5480 0292 3C       		.uleb128 0x3c
 5481 0293 19       		.uleb128 0x19
 5482 0294 00       		.byte	0
 5483 0295 00       		.byte	0
 5484 0296 2E       		.uleb128 0x2e
 5485 0297 34       		.uleb128 0x34
 5486 0298 00       		.byte	0
 5487 0299 03       		.uleb128 0x3
 5488 029a 0E       		.uleb128 0xe
 5489 029b 3A       		.uleb128 0x3a
 5490 029c 0B       		.uleb128 0xb
 5491 029d 3B       		.uleb128 0x3b
 5492 029e 0B       		.uleb128 0xb
 5493 029f 49       		.uleb128 0x49
 5494 02a0 13       		.uleb128 0x13
 5495 02a1 3F       		.uleb128 0x3f
 5496 02a2 19       		.uleb128 0x19
 5497 02a3 3C       		.uleb128 0x3c
 5498 02a4 19       		.uleb128 0x19
 5499 02a5 00       		.byte	0
 5500 02a6 00       		.byte	0
 5501 02a7 2F       		.uleb128 0x2f
 5502 02a8 34       		.uleb128 0x34
 5503 02a9 00       		.byte	0
 5504 02aa 03       		.uleb128 0x3
 5505 02ab 08       		.uleb128 0x8
 5506 02ac 3A       		.uleb128 0x3a
 5507 02ad 0B       		.uleb128 0xb
 5508 02ae 3B       		.uleb128 0x3b
 5509 02af 0B       		.uleb128 0xb
 5510 02b0 49       		.uleb128 0x49
 5511 02b1 13       		.uleb128 0x13
 5512 02b2 3F       		.uleb128 0x3f
 5513 02b3 19       		.uleb128 0x19
 5514 02b4 02       		.uleb128 0x2
 5515 02b5 18       		.uleb128 0x18
 5516 02b6 00       		.byte	0
 5517 02b7 00       		.byte	0
ARM GAS  C:\Users\tmj32\AppData\Local\Temp\cc8xedyG.s 			page 120


 5518 02b8 30       		.uleb128 0x30
 5519 02b9 34       		.uleb128 0x34
 5520 02ba 00       		.byte	0
 5521 02bb 03       		.uleb128 0x3
 5522 02bc 0E       		.uleb128 0xe
 5523 02bd 3A       		.uleb128 0x3a
 5524 02be 0B       		.uleb128 0xb
 5525 02bf 3B       		.uleb128 0x3b
 5526 02c0 0B       		.uleb128 0xb
 5527 02c1 49       		.uleb128 0x49
 5528 02c2 13       		.uleb128 0x13
 5529 02c3 3F       		.uleb128 0x3f
 5530 02c4 19       		.uleb128 0x19
 5531 02c5 02       		.uleb128 0x2
 5532 02c6 18       		.uleb128 0x18
 5533 02c7 00       		.byte	0
 5534 02c8 00       		.byte	0
 5535 02c9 00       		.byte	0
 5536              		.section	.debug_aranges,"",%progbits
 5537 0000 94000000 		.4byte	0x94
 5538 0004 0200     		.2byte	0x2
 5539 0006 00000000 		.4byte	.Ldebug_info0
 5540 000a 04       		.byte	0x4
 5541 000b 00       		.byte	0
 5542 000c 0000     		.2byte	0
 5543 000e 0000     		.2byte	0
 5544 0010 00000000 		.4byte	.LFB588
 5545 0014 38000000 		.4byte	.LFE588-.LFB588
 5546 0018 00000000 		.4byte	.LFB589
 5547 001c 28000000 		.4byte	.LFE589-.LFB589
 5548 0020 00000000 		.4byte	.LFB613
 5549 0024 16000000 		.4byte	.LFE613-.LFB613
 5550 0028 00000000 		.4byte	.LFB668
 5551 002c 26000000 		.4byte	.LFE668-.LFB668
 5552 0030 00000000 		.4byte	.LFB669
 5553 0034 28000000 		.4byte	.LFE669-.LFB669
 5554 0038 00000000 		.4byte	.LFB687
 5555 003c 22000000 		.4byte	.LFE687-.LFB687
 5556 0040 00000000 		.4byte	.LFB714
 5557 0044 22000000 		.4byte	.LFE714-.LFB714
 5558 0048 00000000 		.4byte	.LFB717
 5559 004c 58010000 		.4byte	.LFE717-.LFB717
 5560 0050 00000000 		.4byte	.LFB718
 5561 0054 28000000 		.4byte	.LFE718-.LFB718
 5562 0058 00000000 		.4byte	.LFB719
 5563 005c 40000000 		.4byte	.LFE719-.LFB719
 5564 0060 00000000 		.4byte	.LFB720
 5565 0064 5C000000 		.4byte	.LFE720-.LFB720
 5566 0068 00000000 		.4byte	.LFB721
 5567 006c 5C000000 		.4byte	.LFE721-.LFB721
 5568 0070 00000000 		.4byte	.LFB722
 5569 0074 5C000000 		.4byte	.LFE722-.LFB722
 5570 0078 00000000 		.4byte	.LFB723
 5571 007c 5C000000 		.4byte	.LFE723-.LFB723
 5572 0080 00000000 		.4byte	.LFB724
 5573 0084 5C000000 		.4byte	.LFE724-.LFB724
 5574 0088 00000000 		.4byte	.LFB725
ARM GAS  C:\Users\tmj32\AppData\Local\Temp\cc8xedyG.s 			page 121


 5575 008c 6C040000 		.4byte	.LFE725-.LFB725
 5576 0090 00000000 		.4byte	0
 5577 0094 00000000 		.4byte	0
 5578              		.section	.debug_ranges,"",%progbits
 5579              	.Ldebug_ranges0:
 5580 0000 00000000 		.4byte	.LFB588
 5581 0004 38000000 		.4byte	.LFE588
 5582 0008 00000000 		.4byte	.LFB589
 5583 000c 28000000 		.4byte	.LFE589
 5584 0010 00000000 		.4byte	.LFB613
 5585 0014 16000000 		.4byte	.LFE613
 5586 0018 00000000 		.4byte	.LFB668
 5587 001c 26000000 		.4byte	.LFE668
 5588 0020 00000000 		.4byte	.LFB669
 5589 0024 28000000 		.4byte	.LFE669
 5590 0028 00000000 		.4byte	.LFB687
 5591 002c 22000000 		.4byte	.LFE687
 5592 0030 00000000 		.4byte	.LFB714
 5593 0034 22000000 		.4byte	.LFE714
 5594 0038 00000000 		.4byte	.LFB717
 5595 003c 58010000 		.4byte	.LFE717
 5596 0040 00000000 		.4byte	.LFB718
 5597 0044 28000000 		.4byte	.LFE718
 5598 0048 00000000 		.4byte	.LFB719
 5599 004c 40000000 		.4byte	.LFE719
 5600 0050 00000000 		.4byte	.LFB720
 5601 0054 5C000000 		.4byte	.LFE720
 5602 0058 00000000 		.4byte	.LFB721
 5603 005c 5C000000 		.4byte	.LFE721
 5604 0060 00000000 		.4byte	.LFB722
 5605 0064 5C000000 		.4byte	.LFE722
 5606 0068 00000000 		.4byte	.LFB723
 5607 006c 5C000000 		.4byte	.LFE723
 5608 0070 00000000 		.4byte	.LFB724
 5609 0074 5C000000 		.4byte	.LFE724
 5610 0078 00000000 		.4byte	.LFB725
 5611 007c 6C040000 		.4byte	.LFE725
 5612 0080 00000000 		.4byte	0
 5613 0084 00000000 		.4byte	0
 5614              		.section	.debug_line,"",%progbits
 5615              	.Ldebug_line0:
 5616 0000 BA060000 		.section	.debug_str,"MS",%progbits,1
 5616      0200D404 
 5616      00000201 
 5616      FB0E0D00 
 5616      01010101 
 5617              	.LASF189:
 5618 0000 4761696E 		.ascii	"Gain\000"
 5618      00
 5619              	.LASF9:
 5620 0005 6C6F6E67 		.ascii	"long int\000"
 5620      20696E74 
 5620      00
 5621              	.LASF376:
 5622 000e 6F666673 		.ascii	"offset_slider_event_cb\000"
 5622      65745F73 
 5622      6C696465 
ARM GAS  C:\Users\tmj32\AppData\Local\Temp\cc8xedyG.s 			page 122


 5622      725F6576 
 5622      656E745F 
 5623              	.LASF208:
 5624 0025 5F6C765F 		.ascii	"_lv_obj_t\000"
 5624      6F626A5F 
 5624      7400
 5625              	.LASF141:
 5626 002f 63795F63 		.ascii	"cy_cb_scb_spi_handle_events_t\000"
 5626      625F7363 
 5626      625F7370 
 5626      695F6861 
 5626      6E646C65 
 5627              	.LASF399:
 5628 004d 44495350 		.ascii	"DISP_TICK_TIMER_config\000"
 5628      5F544943 
 5628      4B5F5449 
 5628      4D45525F 
 5628      636F6E66 
 5629              	.LASF203:
 5630 0064 66756C6C 		.ascii	"full\000"
 5630      00
 5631              	.LASF169:
 5632 0069 73746F70 		.ascii	"stopInputMode\000"
 5632      496E7075 
 5632      744D6F64 
 5632      6500
 5633              	.LASF362:
 5634 0077 6C765F72 		.ascii	"lv_roller_get_selected_str\000"
 5634      6F6C6C65 
 5634      725F6765 
 5634      745F7365 
 5634      6C656374 
 5635              	.LASF396:
 5636 0092 77696E64 		.ascii	"windowLabel\000"
 5636      6F774C61 
 5636      62656C00 
 5637              	.LASF398:
 5638 009e 63795F64 		.ascii	"cy_device\000"
 5638      65766963 
 5638      6500
 5639              	.LASF400:
 5640 00a8 4932435F 		.ascii	"I2C_MASTER_context\000"
 5640      4D415354 
 5640      45525F63 
 5640      6F6E7465 
 5640      787400
 5641              	.LASF370:
 5642 00bb 63686172 		.ascii	"chart1\000"
 5642      743100
 5643              	.LASF340:
 5644 00c2 4C565F4C 		.ascii	"LV_LABEL_LONG_DOT\000"
 5644      4142454C 
 5644      5F4C4F4E 
 5644      475F444F 
 5644      5400
 5645              	.LASF94:
 5646 00d4 63707573 		.ascii	"cpussCm0ClockCtlOffset\000"
ARM GAS  C:\Users\tmj32\AppData\Local\Temp\cc8xedyG.s 			page 123


 5646      73436D30 
 5646      436C6F63 
 5646      6B43746C 
 5646      4F666673 
 5647              	.LASF53:
 5648 00eb 70657269 		.ascii	"periClockNr\000"
 5648      436C6F63 
 5648      6B4E7200 
 5649              	.LASF122:
 5650 00f7 6D617374 		.ascii	"masterStatus\000"
 5650      65725374 
 5650      61747573 
 5650      00
 5651              	.LASF188:
 5652 0104 56657274 		.ascii	"VertScale\000"
 5652      5363616C 
 5652      6500
 5653              	.LASF27:
 5654 010e 75646242 		.ascii	"udbBase\000"
 5654      61736500 
 5655              	.LASF291:
 5656 0116 4C565F45 		.ascii	"LV_EVENT_VALUE_CHANGED\000"
 5656      56454E54 
 5656      5F56414C 
 5656      55455F43 
 5656      48414E47 
 5657              	.LASF26:
 5658 012d 70657269 		.ascii	"periBase\000"
 5658      42617365 
 5658      00
 5659              	.LASF178:
 5660 0136 56657273 		.ascii	"VersionID\000"
 5660      696F6E49 
 5660      4400
 5661              	.LASF378:
 5662 0140 686F7269 		.ascii	"hori_slider_event_cb\000"
 5662      5F736C69 
 5662      6465725F 
 5662      6576656E 
 5662      745F6362 
 5663              	.LASF293:
 5664 0155 4C565F45 		.ascii	"LV_EVENT_REFRESH\000"
 5664      56454E54 
 5664      5F524546 
 5664      52455348 
 5664      00
 5665              	.LASF224:
 5666 0166 62617365 		.ascii	"base_dir\000"
 5666      5F646972 
 5666      00
 5667              	.LASF222:
 5668 016f 70617265 		.ascii	"parent_event\000"
 5668      6E745F65 
 5668      76656E74 
 5668      00
 5669              	.LASF72:
 5670 017c 64774368 		.ascii	"dwChSize\000"
ARM GAS  C:\Users\tmj32\AppData\Local\Temp\cc8xedyG.s 			page 124


 5670      53697A65 
 5670      00
 5671              	.LASF190:
 5672 0185 54784275 		.ascii	"TxBuffer\000"
 5672      66666572 
 5672      00
 5673              	.LASF301:
 5674 018e 4C565F41 		.ascii	"LV_ALIGN_CENTER\000"
 5674      4C49474E 
 5674      5F43454E 
 5674      54455200 
 5675              	.LASF218:
 5676 019e 64726167 		.ascii	"drag_throw\000"
 5676      5F746872 
 5676      6F7700
 5677              	.LASF14:
 5678 01a9 756E7369 		.ascii	"unsigned int\000"
 5678      676E6564 
 5678      20696E74 
 5678      00
 5679              	.LASF233:
 5680 01b6 6F66735F 		.ascii	"ofs_x\000"
 5680      7800
 5681              	.LASF234:
 5682 01bc 6F66735F 		.ascii	"ofs_y\000"
 5682      7900
 5683              	.LASF127:
 5684 01c2 6D617374 		.ascii	"masterBufferIdx\000"
 5684      65724275 
 5684      66666572 
 5684      49647800 
 5685              	.LASF54:
 5686 01d2 736D6966 		.ascii	"smifDeviceNr\000"
 5686      44657669 
 5686      63654E72 
 5686      00
 5687              	.LASF237:
 5688 01df 6765745F 		.ascii	"get_glyph_dsc\000"
 5688      676C7970 
 5688      685F6473 
 5688      6300
 5689              	.LASF273:
 5690 01ed 6C765F73 		.ascii	"lv_style_t\000"
 5690      74796C65 
 5690      5F7400
 5691              	.LASF150:
 5692 01f8 74784275 		.ascii	"txBufIdx\000"
 5692      66496478 
 5692      00
 5693              	.LASF168:
 5694 0201 73746172 		.ascii	"startInput\000"
 5694      74496E70 
 5694      757400
 5695              	.LASF8:
 5696 020c 5F5F696E 		.ascii	"__int32_t\000"
 5696      7433325F 
 5696      7400
ARM GAS  C:\Users\tmj32\AppData\Local\Temp\cc8xedyG.s 			page 125


 5697              	.LASF50:
 5698 0216 73727373 		.ascii	"srssNumClkpath\000"
 5698      4E756D43 
 5698      6C6B7061 
 5698      746800
 5699              	.LASF308:
 5700 0225 4C565F41 		.ascii	"LV_ALIGN_IN_LEFT_MID\000"
 5700      4C49474E 
 5700      5F494E5F 
 5700      4C454654 
 5700      5F4D4944 
 5701              	.LASF325:
 5702 023a 796F6673 		.ascii	"yofs\000"
 5702      00
 5703              	.LASF24:
 5704 023f 63707573 		.ascii	"cpussBase\000"
 5704      73426173 
 5704      6500
 5705              	.LASF276:
 5706 0249 6C765F64 		.ascii	"lv_design_cb_t\000"
 5706      65736967 
 5706      6E5F6362 
 5706      5F7400
 5707              	.LASF135:
 5708 0258 736C6176 		.ascii	"slaveRxBuffer\000"
 5708      65527842 
 5708      75666665 
 5708      7200
 5709              	.LASF313:
 5710 0266 4C565F41 		.ascii	"LV_ALIGN_OUT_BOTTOM_LEFT\000"
 5710      4C49474E 
 5710      5F4F5554 
 5710      5F424F54 
 5710      544F4D5F 
 5711              	.LASF41:
 5712 027f 70657269 		.ascii	"periVersion\000"
 5712      56657273 
 5712      696F6E00 
 5713              	.LASF263:
 5714 028b 666F6E74 		.ascii	"font\000"
 5714      00
 5715              	.LASF139:
 5716 0290 63624164 		.ascii	"cbAddr\000"
 5716      647200
 5717              	.LASF375:
 5718 0297 73775F65 		.ascii	"sw_event_handler\000"
 5718      76656E74 
 5718      5F68616E 
 5718      646C6572 
 5718      00
 5719              	.LASF294:
 5720 02a8 4C565F45 		.ascii	"LV_EVENT_APPLY\000"
 5720      56454E54 
 5720      5F415050 
 5720      4C5900
 5721              	.LASF170:
 5722 02b7 73746F70 		.ascii	"stopInput\000"
ARM GAS  C:\Users\tmj32\AppData\Local\Temp\cc8xedyG.s 			page 126


 5722      496E7075 
 5722      7400
 5723              	.LASF184:
 5724 02c1 4F666673 		.ascii	"Offset\000"
 5724      657400
 5725              	.LASF286:
 5726 02c8 4C565F45 		.ascii	"LV_EVENT_DRAG_END\000"
 5726      56454E54 
 5726      5F445241 
 5726      475F454E 
 5726      4400
 5727              	.LASF116:
 5728 02da 63795F65 		.ascii	"cy_en_scb_i2c_command_t\000"
 5728      6E5F7363 
 5728      625F6932 
 5728      635F636F 
 5728      6D6D616E 
 5729              	.LASF196:
 5730 02f2 6E5F7369 		.ascii	"n_size\000"
 5730      7A6500
 5731              	.LASF130:
 5732 02f9 736C6176 		.ascii	"slaveRdBufEmpty\000"
 5732      65526442 
 5732      7566456D 
 5732      70747900 
 5733              	.LASF80:
 5734 0309 70657269 		.ascii	"periTrGrSize\000"
 5734      54724772 
 5734      53697A65 
 5734      00
 5735              	.LASF60:
 5736 0316 63727970 		.ascii	"cryptoMemSize\000"
 5736      746F4D65 
 5736      6D53697A 
 5736      6500
 5737              	.LASF106:
 5738 0324 63707573 		.ascii	"cpussRam1Ctl0\000"
 5738      7352616D 
 5738      3143746C 
 5738      3000
 5739              	.LASF108:
 5740 0332 69706353 		.ascii	"ipcStructSize\000"
 5740      74727563 
 5740      7453697A 
 5740      6500
 5741              	.LASF115:
 5742 0340 43595F53 		.ascii	"CY_SCB_I2C_NAK\000"
 5742      43425F49 
 5742      32435F4E 
 5742      414B00
 5743              	.LASF48:
 5744 034f 63707573 		.ascii	"cpussFmIrq\000"
 5744      73466D49 
 5744      727100
 5745              	.LASF118:
 5746 035a 63795F63 		.ascii	"cy_cb_scb_i2c_handle_addr_t\000"
 5746      625F7363 
ARM GAS  C:\Users\tmj32\AppData\Local\Temp\cc8xedyG.s 			page 127


 5746      625F6932 
 5746      635F6861 
 5746      6E646C65 
 5747              	.LASF159:
 5748 0376 636F6D70 		.ascii	"compare0\000"
 5748      61726530 
 5748      00
 5749              	.LASF160:
 5750 037f 636F6D70 		.ascii	"compare1\000"
 5750      61726531 
 5750      00
 5751              	.LASF288:
 5752 0388 4C565F45 		.ascii	"LV_EVENT_KEY\000"
 5752      56454E54 
 5752      5F4B4559 
 5752      00
 5753              	.LASF359:
 5754 0395 616E696D 		.ascii	"anim\000"
 5754      00
 5755              	.LASF142:
 5756 039a 63795F73 		.ascii	"cy_stc_scb_i2c_context\000"
 5756      74635F73 
 5756      63625F69 
 5756      32635F63 
 5756      6F6E7465 
 5757              	.LASF333:
 5758 03b1 4C565F42 		.ascii	"LV_BTN_STATE_PR\000"
 5758      544E5F53 
 5758      54415445 
 5758      5F505200 
 5759              	.LASF82:
 5760 03c1 70657269 		.ascii	"periDivCmdTypeSelPos\000"
 5760      44697643 
 5760      6D645479 
 5760      70655365 
 5760      6C506F73 
 5761              	.LASF99:
 5762 03d6 63707573 		.ascii	"cpussTrimRamCtlOffset\000"
 5762      73547269 
 5762      6D52616D 
 5762      43746C4F 
 5762      66667365 
 5763              	.LASF102:
 5764 03ec 63707573 		.ascii	"cpussCm0NmiCtlOffset\000"
 5764      73436D30 
 5764      4E6D6943 
 5764      746C4F66 
 5764      66736574 
 5765              	.LASF331:
 5766 0401 6C765F6F 		.ascii	"lv_obj_t\000"
 5766      626A5F74 
 5766      00
 5767              	.LASF395:
 5768 040a 76657274 		.ascii	"vertLabel1\000"
 5768      4C616265 
 5768      6C3100
 5769              	.LASF388:
ARM GAS  C:\Users\tmj32\AppData\Local\Temp\cc8xedyG.s 			page 128


 5770 0415 76657274 		.ascii	"vertLabel2\000"
 5770      4C616265 
 5770      6C3200
 5771              	.LASF271:
 5772 0420 696D6167 		.ascii	"image\000"
 5772      6500
 5773              	.LASF131:
 5774 0426 736C6176 		.ascii	"slaveTxBuffer\000"
 5774      65547842 
 5774      75666665 
 5774      7200
 5775              	.LASF407:
 5776 0434 433A5C55 		.ascii	"C:\\Users\\tmj32\\Documents\\TCNJ\\Senior_Project\\"
 5776      73657273 
 5776      5C746D6A 
 5776      33325C44 
 5776      6F63756D 
 5777 0461 4F736369 		.ascii	"Oscilloscope_Senior_Project\\tcom_engineering\\embe"
 5777      6C6C6F73 
 5777      636F7065 
 5777      5F53656E 
 5777      696F725F 
 5778 0492 645F7377 		.ascii	"d_sw\\tcom_app\\tcom_app_psoc6_lvgl6\\tcom_displ_te"
 5778      5C74636F 
 5778      6D5F6170 
 5778      705C7463 
 5778      6F6D5F61 
 5779 04c2 73745F70 		.ascii	"st_psoc6.cydsn\000"
 5779      736F6336 
 5779      2E637964 
 5779      736E00
 5780              	.LASF229:
 5781 04d1 7265616C 		.ascii	"realign\000"
 5781      69676E00 
 5782              	.LASF366:
 5783 04d9 63686172 		.ascii	"chart_width\000"
 5783      745F7769 
 5783      64746800 
 5784              	.LASF255:
 5785 04e5 696E6E65 		.ascii	"inner\000"
 5785      7200
 5786              	.LASF133:
 5787 04eb 736C6176 		.ascii	"slaveTxBufferIdx\000"
 5787      65547842 
 5787      75666665 
 5787      72496478 
 5787      00
 5788              	.LASF319:
 5789 04fc 4C565F41 		.ascii	"LV_ALIGN_OUT_RIGHT_TOP\000"
 5789      4C49474E 
 5789      5F4F5554 
 5789      5F524947 
 5789      48545F54 
 5790              	.LASF23:
 5791 0513 75696E74 		.ascii	"uint32_t\000"
 5791      33325F74 
 5791      00
ARM GAS  C:\Users\tmj32\AppData\Local\Temp\cc8xedyG.s 			page 129


 5792              	.LASF18:
 5793 051c 696E7438 		.ascii	"int8_t\000"
 5793      5F7400
 5794              	.LASF204:
 5795 0523 6C765F63 		.ascii	"lv_color32_t\000"
 5795      6F6C6F72 
 5795      33325F74 
 5795      00
 5796              	.LASF364:
 5797 0530 6275665F 		.ascii	"buf_size\000"
 5797      73697A65 
 5797      00
 5798              	.LASF292:
 5799 0539 4C565F45 		.ascii	"LV_EVENT_INSERT\000"
 5799      56454E54 
 5799      5F494E53 
 5799      45525400 
 5800              	.LASF92:
 5801 0549 6770696F 		.ascii	"gpioPrtCfgOutOffset\000"
 5801      50727443 
 5801      66674F75 
 5801      744F6666 
 5801      73657400 
 5802              	.LASF315:
 5803 055d 4C565F41 		.ascii	"LV_ALIGN_OUT_BOTTOM_RIGHT\000"
 5803      4C49474E 
 5803      5F4F5554 
 5803      5F424F54 
 5803      544F4D5F 
 5804              	.LASF111:
 5805 0577 666C6F61 		.ascii	"float\000"
 5805      7400
 5806              	.LASF262:
 5807 057d 73656C5F 		.ascii	"sel_color\000"
 5807      636F6C6F 
 5807      7200
 5808              	.LASF216:
 5809 0587 636C6963 		.ascii	"click\000"
 5809      6B00
 5810              	.LASF374:
 5811 058d 6576656E 		.ascii	"event\000"
 5811      7400
 5812              	.LASF56:
 5813 0593 65704D6F 		.ascii	"epMonitorNr\000"
 5813      6E69746F 
 5813      724E7200 
 5814              	.LASF323:
 5815 059f 62617365 		.ascii	"base\000"
 5815      00
 5816              	.LASF380:
 5817 05a4 77696E64 		.ascii	"window_slider_event_cb\000"
 5817      6F775F73 
 5817      6C696465 
 5817      725F6576 
 5817      656E745F 
 5818              	.LASF166:
 5819 05bb 72656C6F 		.ascii	"reloadInput\000"
ARM GAS  C:\Users\tmj32\AppData\Local\Temp\cc8xedyG.s 			page 130


 5819      6164496E 
 5819      70757400 
 5820              	.LASF20:
 5821 05c7 696E7431 		.ascii	"int16_t\000"
 5821      365F7400 
 5822              	.LASF91:
 5823 05cf 6770696F 		.ascii	"gpioPrtCfgInOffset\000"
 5823      50727443 
 5823      6667496E 
 5823      4F666673 
 5823      657400
 5824              	.LASF341:
 5825 05e2 4C565F4C 		.ascii	"LV_LABEL_LONG_SROLL\000"
 5825      4142454C 
 5825      5F4C4F4E 
 5825      475F5352 
 5825      4F4C4C00 
 5826              	.LASF199:
 5827 05f6 6C765F6C 		.ascii	"lv_ll_t\000"
 5827      6C5F7400 
 5828              	.LASF13:
 5829 05fe 6C6F6E67 		.ascii	"long long unsigned int\000"
 5829      206C6F6E 
 5829      6720756E 
 5829      7369676E 
 5829      65642069 
 5830              	.LASF300:
 5831 0615 6C765F73 		.ascii	"lv_signal_cb_t\000"
 5831      69676E61 
 5831      6C5F6362 
 5831      5F7400
 5832              	.LASF93:
 5833 0624 6770696F 		.ascii	"gpioPrtCfgSioOffset\000"
 5833      50727443 
 5833      66675369 
 5833      6F4F6666 
 5833      73657400 
 5834              	.LASF250:
 5835 0638 70617274 		.ascii	"part\000"
 5835      00
 5836              	.LASF321:
 5837 063d 4C565F41 		.ascii	"LV_ALIGN_OUT_RIGHT_BOTTOM\000"
 5837      4C49474E 
 5837      5F4F5554 
 5837      5F524947 
 5837      48545F42 
 5838              	.LASF52:
 5839 0657 73727373 		.ascii	"srssNumHfroot\000"
 5839      4E756D48 
 5839      66726F6F 
 5839      7400
 5840              	.LASF197:
 5841 0665 68656164 		.ascii	"head\000"
 5841      00
 5842              	.LASF22:
 5843 066a 696E7433 		.ascii	"int32_t\000"
 5843      325F7400 
ARM GAS  C:\Users\tmj32\AppData\Local\Temp\cc8xedyG.s 			page 131


 5844              	.LASF383:
 5845 0672 74726967 		.ascii	"triggerSlider\000"
 5845      67657253 
 5845      6C696465 
 5845      7200
 5846              	.LASF132:
 5847 0680 736C6176 		.ascii	"slaveTxBufferSize\000"
 5847      65547842 
 5847      75666665 
 5847      7253697A 
 5847      6500
 5848              	.LASF83:
 5849 0692 70657269 		.ascii	"periDivCmdPaDivSelPos\000"
 5849      44697643 
 5849      6D645061 
 5849      44697653 
 5849      656C506F 
 5850              	.LASF167:
 5851 06a8 73746172 		.ascii	"startInputMode\000"
 5851      74496E70 
 5851      75744D6F 
 5851      646500
 5852              	.LASF202:
 5853 06b7 616C7068 		.ascii	"alpha\000"
 5853      6100
 5854              	.LASF163:
 5855 06bd 63617074 		.ascii	"captureInputMode\000"
 5855      75726549 
 5855      6E707574 
 5855      4D6F6465 
 5855      00
 5856              	.LASF314:
 5857 06ce 4C565F41 		.ascii	"LV_ALIGN_OUT_BOTTOM_MID\000"
 5857      4C49474E 
 5857      5F4F5554 
 5857      5F424F54 
 5857      544F4D5F 
 5858              	.LASF409:
 5859 06e6 63686172 		.ascii	"chart_actions\000"
 5859      745F6163 
 5859      74696F6E 
 5859      7300
 5860              	.LASF358:
 5861 06f4 76616C75 		.ascii	"value\000"
 5861      6500
 5862              	.LASF357:
 5863 06fa 736C6964 		.ascii	"slider\000"
 5863      657200
 5864              	.LASF145:
 5865 0701 72784275 		.ascii	"rxBuf\000"
 5865      6600
 5866              	.LASF32:
 5867 0707 69706342 		.ascii	"ipcBase\000"
 5867      61736500 
 5868              	.LASF185:
 5869 070f 77696E64 		.ascii	"windowPos\000"
 5869      6F77506F 
ARM GAS  C:\Users\tmj32\AppData\Local\Temp\cc8xedyG.s 			page 132


 5869      7300
 5870              	.LASF248:
 5871 0719 636F6C6F 		.ascii	"color\000"
 5871      7200
 5872              	.LASF69:
 5873 071f 666C6173 		.ascii	"flashCtlMainWs3Freq\000"
 5873      6843746C 
 5873      4D61696E 
 5873      57733346 
 5873      72657100 
 5874              	.LASF51:
 5875 0733 73727373 		.ascii	"srssNumPll\000"
 5875      4E756D50 
 5875      6C6C00
 5876              	.LASF267:
 5877 073e 726F756E 		.ascii	"rounded\000"
 5877      64656400 
 5878              	.LASF317:
 5879 0746 4C565F41 		.ascii	"LV_ALIGN_OUT_LEFT_MID\000"
 5879      4C49474E 
 5879      5F4F5554 
 5879      5F4C4546 
 5879      545F4D49 
 5880              	.LASF30:
 5881 075c 6770696F 		.ascii	"gpioBase\000"
 5881      42617365 
 5881      00
 5882              	.LASF215:
 5883 0765 7374796C 		.ascii	"style_p\000"
 5883      655F7000 
 5884              	.LASF354:
 5885 076d 4C565F52 		.ascii	"LV_ROLLER_MODE_INIFINITE\000"
 5885      4F4C4C45 
 5885      525F4D4F 
 5885      44455F49 
 5885      4E494649 
 5886              	.LASF249:
 5887 0786 77696474 		.ascii	"width\000"
 5887      6800
 5888              	.LASF62:
 5889 078c 666C6173 		.ascii	"flashPipeRequired\000"
 5889      68506970 
 5889      65526571 
 5889      75697265 
 5889      6400
 5890              	.LASF128:
 5891 079e 6D617374 		.ascii	"masterNumBytes\000"
 5891      65724E75 
 5891      6D427974 
 5891      657300
 5892              	.LASF385:
 5893 07ad 686F7269 		.ascii	"horiSlider\000"
 5893      536C6964 
 5893      657200
 5894              	.LASF138:
 5895 07b8 63624576 		.ascii	"cbEvents\000"
 5895      656E7473 
ARM GAS  C:\Users\tmj32\AppData\Local\Temp\cc8xedyG.s 			page 133


 5895      00
 5896              	.LASF296:
 5897 07c1 4C565F45 		.ascii	"LV_EVENT_DELETE\000"
 5897      56454E54 
 5897      5F44454C 
 5897      45544500 
 5898              	.LASF195:
 5899 07d1 6C765F6C 		.ascii	"lv_ll_node_t\000"
 5899      6C5F6E6F 
 5899      64655F74 
 5899      00
 5900              	.LASF345:
 5901 07de 4C565F43 		.ascii	"LV_CHART_TYPE_LINE\000"
 5901      48415254 
 5901      5F545950 
 5901      455F4C49 
 5901      4E4500
 5902              	.LASF279:
 5903 07f1 4C565F45 		.ascii	"LV_EVENT_PRESS_LOST\000"
 5903      56454E54 
 5903      5F505245 
 5903      53535F4C 
 5903      4F535400 
 5904              	.LASF113:
 5905 0805 5F426F6F 		.ascii	"_Bool\000"
 5905      6C00
 5906              	.LASF403:
 5907 080b 74636E6A 		.ascii	"tcnj_gold\000"
 5907      5F676F6C 
 5907      6400
 5908              	.LASF66:
 5909 0815 666C6173 		.ascii	"flashCtlMainWs0Freq\000"
 5909      6843746C 
 5909      4D61696E 
 5909      57733046 
 5909      72657100 
 5910              	.LASF119:
 5911 0829 75736552 		.ascii	"useRxFifo\000"
 5911      78466966 
 5911      6F00
 5912              	.LASF236:
 5913 0833 5F6C765F 		.ascii	"_lv_font_struct\000"
 5913      666F6E74 
 5913      5F737472 
 5913      75637400 
 5914              	.LASF338:
 5915 0843 4C565F4C 		.ascii	"LV_LABEL_LONG_EXPAND\000"
 5915      4142454C 
 5915      5F4C4F4E 
 5915      475F4558 
 5915      50414E44 
 5916              	.LASF277:
 5917 0858 4C565F45 		.ascii	"LV_EVENT_PRESSED\000"
 5917      56454E54 
 5917      5F505245 
 5917      53534544 
 5917      00
ARM GAS  C:\Users\tmj32\AppData\Local\Temp\cc8xedyG.s 			page 134


 5918              	.LASF265:
 5919 0869 6C696E65 		.ascii	"line_space\000"
 5919      5F737061 
 5919      636500
 5920              	.LASF335:
 5921 0874 4C565F42 		.ascii	"LV_BTN_STATE_TGL_PR\000"
 5921      544E5F53 
 5921      54415445 
 5921      5F54474C 
 5921      5F505200 
 5922              	.LASF109:
 5923 0888 6970634C 		.ascii	"ipcLockStatusOffset\000"
 5923      6F636B53 
 5923      74617475 
 5923      734F6666 
 5923      73657400 
 5924              	.LASF368:
 5925 089c 63686172 		.ascii	"chart_vertPos\000"
 5925      745F7665 
 5925      7274506F 
 5925      7300
 5926              	.LASF239:
 5927 08aa 6C696E65 		.ascii	"line_height\000"
 5927      5F686569 
 5927      67687400 
 5928              	.LASF101:
 5929 08b6 63707573 		.ascii	"cpussSysTickCtlOffset\000"
 5929      73537973 
 5929      5469636B 
 5929      43746C4F 
 5929      66667365 
 5930              	.LASF57:
 5931 08cc 75646250 		.ascii	"udbPresent\000"
 5931      72657365 
 5931      6E7400
 5932              	.LASF360:
 5933 08d7 6C765F73 		.ascii	"lv_slider_set_value\000"
 5933      6C696465 
 5933      725F7365 
 5933      745F7661 
 5933      6C756500 
 5934              	.LASF75:
 5935 08eb 64775374 		.ascii	"dwStatusChIdxPos\000"
 5935      61747573 
 5935      43684964 
 5935      78506F73 
 5935      00
 5936              	.LASF6:
 5937 08fc 5F5F7569 		.ascii	"__uint16_t\000"
 5937      6E743136 
 5937      5F7400
 5938              	.LASF356:
 5939 0907 6C765F63 		.ascii	"lv_color_hex\000"
 5939      6F6C6F72 
 5939      5F686578 
 5939      00
 5940              	.LASF257:
ARM GAS  C:\Users\tmj32\AppData\Local\Temp\cc8xedyG.s 			page 135


 5941 0914 67726164 		.ascii	"grad_color\000"
 5941      5F636F6C 
 5941      6F7200
 5942              	.LASF46:
 5943 091f 63707573 		.ascii	"cpussFlashPaSize\000"
 5943      73466C61 
 5943      73685061 
 5943      53697A65 
 5943      00
 5944              	.LASF164:
 5945 0930 63617074 		.ascii	"captureInput\000"
 5945      75726549 
 5945      6E707574 
 5945      00
 5946              	.LASF346:
 5947 093d 4C565F43 		.ascii	"LV_CHART_TYPE_COLUMN\000"
 5947      48415254 
 5947      5F545950 
 5947      455F434F 
 5947      4C554D4E 
 5948              	.LASF114:
 5949 0952 43595F53 		.ascii	"CY_SCB_I2C_ACK\000"
 5949      43425F49 
 5949      32435F41 
 5949      434B00
 5950              	.LASF17:
 5951 0961 63686172 		.ascii	"char\000"
 5951      00
 5952              	.LASF379:
 5953 0966 76657274 		.ascii	"verti_slider_event_cb\000"
 5953      695F736C 
 5953      69646572 
 5953      5F657665 
 5953      6E745F63 
 5954              	.LASF393:
 5955 097c 74726967 		.ascii	"triggerLabel\000"
 5955      6765724C 
 5955      6162656C 
 5955      00
 5956              	.LASF84:
 5957 0989 70657269 		.ascii	"periDivCmdPaTypeSelPos\000"
 5957      44697643 
 5957      6D645061 
 5957      54797065 
 5957      53656C50 
 5958              	.LASF219:
 5959 09a0 64726167 		.ascii	"drag_parent\000"
 5959      5F706172 
 5959      656E7400 
 5960              	.LASF191:
 5961 09ac 52784275 		.ascii	"RxBuffer\000"
 5961      66666572 
 5961      00
 5962              	.LASF58:
 5963 09b5 73797350 		.ascii	"sysPmSimoPresent\000"
 5963      6D53696D 
 5963      6F507265 
ARM GAS  C:\Users\tmj32\AppData\Local\Temp\cc8xedyG.s 			page 136


 5963      73656E74 
 5963      00
 5964              	.LASF126:
 5965 09c6 6D617374 		.ascii	"masterBufferSize\000"
 5965      65724275 
 5965      66666572 
 5965      53697A65 
 5965      00
 5966              	.LASF228:
 5967 09d7 6578745F 		.ascii	"ext_draw_pad\000"
 5967      64726177 
 5967      5F706164 
 5967      00
 5968              	.LASF252:
 5969 09e4 626F7474 		.ascii	"bottom\000"
 5969      6F6D00
 5970              	.LASF158:
 5971 09eb 636F6D70 		.ascii	"compareOrCapture\000"
 5971      6172654F 
 5971      72436170 
 5971      74757265 
 5971      00
 5972              	.LASF155:
 5973 09fc 636C6F63 		.ascii	"clockPrescaler\000"
 5973      6B507265 
 5973      7363616C 
 5973      657200
 5974              	.LASF401:
 5975 0a0b 5350494D 		.ascii	"SPIM_context\000"
 5975      5F636F6E 
 5975      74657874 
 5975      00
 5976              	.LASF147:
 5977 0a18 72784275 		.ascii	"rxBufIdx\000"
 5977      66496478 
 5977      00
 5978              	.LASF235:
 5979 0a21 6C765F66 		.ascii	"lv_font_glyph_dsc_t\000"
 5979      6F6E745F 
 5979      676C7970 
 5979      685F6473 
 5979      635F7400 
 5980              	.LASF151:
 5981 0a35 696E6974 		.ascii	"initKey\000"
 5981      4B657900 
 5982              	.LASF392:
 5983 0a3d 6F666673 		.ascii	"offsetLabel\000"
 5983      65744C61 
 5983      62656C00 
 5984              	.LASF76:
 5985 0a49 64775374 		.ascii	"dwStatusChIdxMsk\000"
 5985      61747573 
 5985      43684964 
 5985      784D736B 
 5985      00
 5986              	.LASF307:
 5987 0a5a 4C565F41 		.ascii	"LV_ALIGN_IN_BOTTOM_RIGHT\000"
ARM GAS  C:\Users\tmj32\AppData\Local\Temp\cc8xedyG.s 			page 137


 5987      4C49474E 
 5987      5F494E5F 
 5987      424F5454 
 5987      4F4D5F52 
 5988              	.LASF19:
 5989 0a73 75696E74 		.ascii	"uint8_t\000"
 5989      385F7400 
 5990              	.LASF144:
 5991 0a7b 73746174 		.ascii	"status\000"
 5991      757300
 5992              	.LASF251:
 5993 0a82 74797065 		.ascii	"type\000"
 5993      00
 5994              	.LASF134:
 5995 0a87 736C6176 		.ascii	"slaveTxBufferCnt\000"
 5995      65547842 
 5995      75666665 
 5995      72436E74 
 5995      00
 5996              	.LASF223:
 5997 0a98 64726167 		.ascii	"drag_dir\000"
 5997      5F646972 
 5997      00
 5998              	.LASF31:
 5999 0aa1 70617373 		.ascii	"passBase\000"
 5999      42617365 
 5999      00
 6000              	.LASF81:
 6001 0aaa 70657269 		.ascii	"periDivCmdDivSelMsk\000"
 6001      44697643 
 6001      6D644469 
 6001      7653656C 
 6001      4D736B00 
 6002              	.LASF295:
 6003 0abe 4C565F45 		.ascii	"LV_EVENT_CANCEL\000"
 6003      56454E54 
 6003      5F43414E 
 6003      43454C00 
 6004              	.LASF181:
 6005 0ace 53616D70 		.ascii	"SampleRate\000"
 6005      6C655261 
 6005      746500
 6006              	.LASF247:
 6007 0ad9 6C765F73 		.ascii	"lv_shadow_type_t\000"
 6007      6861646F 
 6007      775F7479 
 6007      70655F74 
 6007      00
 6008              	.LASF355:
 6009 0aea 6C765F63 		.ascii	"lv_color_make\000"
 6009      6F6C6F72 
 6009      5F6D616B 
 6009      6500
 6010              	.LASF339:
 6011 0af8 4C565F4C 		.ascii	"LV_LABEL_LONG_BREAK\000"
 6011      4142454C 
 6011      5F4C4F4E 
ARM GAS  C:\Users\tmj32\AppData\Local\Temp\cc8xedyG.s 			page 138


 6011      475F4252 
 6011      45414B00 
 6012              	.LASF408:
 6013 0b0c 6C765F73 		.ascii	"lv_scr_act\000"
 6013      63725F61 
 6013      637400
 6014              	.LASF254:
 6015 0b17 72696768 		.ascii	"right\000"
 6015      7400
 6016              	.LASF105:
 6017 0b1d 63707573 		.ascii	"cpussRam0Ctl0\000"
 6017      7352616D 
 6017      3043746C 
 6017      3000
 6018              	.LASF12:
 6019 0b2b 6C6F6E67 		.ascii	"long long int\000"
 6019      206C6F6E 
 6019      6720696E 
 6019      7400
 6020              	.LASF391:
 6021 0b39 726F6C6C 		.ascii	"roller1\000"
 6021      65723100 
 6022              	.LASF73:
 6023 0b41 64774368 		.ascii	"dwChCtlPrioPos\000"
 6023      43746C50 
 6023      72696F50 
 6023      6F7300
 6024              	.LASF316:
 6025 0b50 4C565F41 		.ascii	"LV_ALIGN_OUT_LEFT_TOP\000"
 6025      4C49474E 
 6025      5F4F5554 
 6025      5F4C4546 
 6025      545F544F 
 6026              	.LASF33:
 6027 0b66 63727970 		.ascii	"cryptoBase\000"
 6027      746F4261 
 6027      736500
 6028              	.LASF270:
 6029 0b71 74657874 		.ascii	"text\000"
 6029      00
 6030              	.LASF327:
 6031 0b76 6175746F 		.ascii	"auto_realign\000"
 6031      5F726561 
 6031      6C69676E 
 6031      00
 6032              	.LASF88:
 6033 0b83 70657269 		.ascii	"periDiv24_5CtlOffset\000"
 6033      44697632 
 6033      345F3543 
 6033      746C4F66 
 6033      66736574 
 6034              	.LASF371:
 6035 0b98 77696E64 		.ascii	"windowMin\000"
 6035      6F774D69 
 6035      6E00
 6036              	.LASF261:
 6037 0ba2 70616464 		.ascii	"padding\000"
ARM GAS  C:\Users\tmj32\AppData\Local\Temp\cc8xedyG.s 			page 139


 6037      696E6700 
 6038              	.LASF322:
 6039 0baa 6C765F61 		.ascii	"lv_align_t\000"
 6039      6C69676E 
 6039      5F7400
 6040              	.LASF63:
 6041 0bb5 666C6173 		.ascii	"flashWriteDelay\000"
 6041      68577269 
 6041      74654465 
 6041      6C617900 
 6042              	.LASF342:
 6043 0bc5 4C565F4C 		.ascii	"LV_LABEL_LONG_SROLL_CIRC\000"
 6043      4142454C 
 6043      5F4C4F4E 
 6043      475F5352 
 6043      4F4C4C5F 
 6044              	.LASF120:
 6045 0bde 75736554 		.ascii	"useTxFifo\000"
 6045      78466966 
 6045      6F00
 6046              	.LASF324:
 6047 0be8 786F6673 		.ascii	"xofs\000"
 6047      00
 6048              	.LASF117:
 6049 0bed 63795F63 		.ascii	"cy_cb_scb_i2c_handle_events_t\000"
 6049      625F7363 
 6049      625F6932 
 6049      635F6861 
 6049      6E646C65 
 6050              	.LASF4:
 6051 0c0b 5F5F696E 		.ascii	"__int16_t\000"
 6051      7431365F 
 6051      7400
 6052              	.LASF175:
 6053 0c15 42726961 		.ascii	"BrianReg\000"
 6053      6E526567 
 6053      00
 6054              	.LASF29:
 6055 0c1e 6873696F 		.ascii	"hsiomBase\000"
 6055      6D426173 
 6055      6500
 6056              	.LASF124:
 6057 0c28 6D617374 		.ascii	"masterRdDir\000"
 6057      65725264 
 6057      44697200 
 6058              	.LASF274:
 6059 0c34 6C765F62 		.ascii	"lv_bidi_dir_t\000"
 6059      6964695F 
 6059      6469725F 
 6059      7400
 6060              	.LASF297:
 6061 0c42 6C765F65 		.ascii	"lv_event_t\000"
 6061      76656E74 
 6061      5F7400
 6062              	.LASF79:
 6063 0c4d 70657269 		.ascii	"periTrGrOffset\000"
 6063      54724772 
ARM GAS  C:\Users\tmj32\AppData\Local\Temp\cc8xedyG.s 			page 140


 6063      4F666673 
 6063      657400
 6064              	.LASF49:
 6065 0c5c 63707573 		.ascii	"cpussNotConnectedIrq\000"
 6065      734E6F74 
 6065      436F6E6E 
 6065      65637465 
 6065      64497271 
 6066              	.LASF328:
 6067 0c71 6F726967 		.ascii	"origo_align\000"
 6067      6F5F616C 
 6067      69676E00 
 6068              	.LASF152:
 6069 0c7d 63795F73 		.ascii	"cy_stc_scb_spi_context_t\000"
 6069      74635F73 
 6069      63625F73 
 6069      70695F63 
 6069      6F6E7465 
 6070              	.LASF194:
 6071 0c96 6C765F72 		.ascii	"lv_res_t\000"
 6071      65735F74 
 6071      00
 6072              	.LASF165:
 6073 0c9f 72656C6F 		.ascii	"reloadInputMode\000"
 6073      6164496E 
 6073      7075744D 
 6073      6F646500 
 6074              	.LASF353:
 6075 0caf 4C565F52 		.ascii	"LV_ROLLER_MODE_NORMAL\000"
 6075      4F4C4C45 
 6075      525F4D4F 
 6075      44455F4E 
 6075      4F524D41 
 6076              	.LASF330:
 6077 0cc5 6C765F64 		.ascii	"lv_drag_dir_t\000"
 6077      7261675F 
 6077      6469725F 
 6077      7400
 6078              	.LASF306:
 6079 0cd3 4C565F41 		.ascii	"LV_ALIGN_IN_BOTTOM_MID\000"
 6079      4C49474E 
 6079      5F494E5F 
 6079      424F5454 
 6079      4F4D5F4D 
 6080              	.LASF381:
 6081 0cea 6F666673 		.ascii	"offsetSlider\000"
 6081      6574536C 
 6081      69646572 
 6081      00
 6082              	.LASF149:
 6083 0cf7 74784275 		.ascii	"txBufSize\000"
 6083      6653697A 
 6083      6500
 6084              	.LASF43:
 6085 0d01 63707573 		.ascii	"cpussIpcNr\000"
 6085      73497063 
 6085      4E7200
ARM GAS  C:\Users\tmj32\AppData\Local\Temp\cc8xedyG.s 			page 141


 6086              	.LASF373:
 6087 0d0c 726F6C6C 		.ascii	"roller_event\000"
 6087      65725F65 
 6087      76656E74 
 6087      00
 6088              	.LASF290:
 6089 0d19 4C565F45 		.ascii	"LV_EVENT_DEFOCUSED\000"
 6089      56454E54 
 6089      5F444546 
 6089      4F435553 
 6089      454400
 6090              	.LASF285:
 6091 0d2c 4C565F45 		.ascii	"LV_EVENT_DRAG_BEGIN\000"
 6091      56454E54 
 6091      5F445241 
 6091      475F4245 
 6091      47494E00 
 6092              	.LASF96:
 6093 0d40 63707573 		.ascii	"cpussCm4StatusOffset\000"
 6093      73436D34 
 6093      53746174 
 6093      75734F66 
 6093      66736574 
 6094              	.LASF55:
 6095 0d55 70617373 		.ascii	"passSarChannels\000"
 6095      53617243 
 6095      68616E6E 
 6095      656C7300 
 6096              	.LASF137:
 6097 0d65 736C6176 		.ascii	"slaveRxBufferIdx\000"
 6097      65527842 
 6097      75666665 
 6097      72496478 
 6097      00
 6098              	.LASF107:
 6099 0d76 63707573 		.ascii	"cpussRam2Ctl0\000"
 6099      7352616D 
 6099      3243746C 
 6099      3000
 6100              	.LASF244:
 6101 0d84 4C565F41 		.ascii	"LV_ANIM_ON\000"
 6101      4E494D5F 
 6101      4F4E00
 6102              	.LASF123:
 6103 0d8f 6D617374 		.ascii	"masterPause\000"
 6103      65725061 
 6103      75736500 
 6104              	.LASF161:
 6105 0d9b 656E6162 		.ascii	"enableCompareSwap\000"
 6105      6C65436F 
 6105      6D706172 
 6105      65537761 
 6105      7000
 6106              	.LASF309:
 6107 0dad 4C565F41 		.ascii	"LV_ALIGN_IN_RIGHT_MID\000"
 6107      4C49474E 
 6107      5F494E5F 
ARM GAS  C:\Users\tmj32\AppData\Local\Temp\cc8xedyG.s 			page 142


 6107      52494748 
 6107      545F4D49 
 6108              	.LASF42:
 6109 0dc3 70726F74 		.ascii	"protVersion\000"
 6109      56657273 
 6109      696F6E00 
 6110              	.LASF384:
 6111 0dcf 74726967 		.ascii	"triggerLabel2\000"
 6111      6765724C 
 6111      6162656C 
 6111      3200
 6112              	.LASF148:
 6113 0ddd 74784275 		.ascii	"txBuf\000"
 6113      6600
 6114              	.LASF241:
 6115 0de3 73756270 		.ascii	"subpx\000"
 6115      7800
 6116              	.LASF205:
 6117 0de9 6C765F63 		.ascii	"lv_color_t\000"
 6117      6F6C6F72 
 6117      5F7400
 6118              	.LASF260:
 6119 0df4 73686164 		.ascii	"shadow\000"
 6119      6F7700
 6120              	.LASF64:
 6121 0dfb 666C6173 		.ascii	"flashProgramDelay\000"
 6121      6850726F 
 6121      6772616D 
 6121      44656C61 
 6121      7900
 6122              	.LASF183:
 6123 0e0d 52657365 		.ascii	"Reset\000"
 6123      7400
 6124              	.LASF136:
 6125 0e13 736C6176 		.ascii	"slaveRxBufferSize\000"
 6125      65527842 
 6125      75666665 
 6125      7253697A 
 6125      6500
 6126              	.LASF283:
 6127 0e25 4C565F45 		.ascii	"LV_EVENT_CLICKED\000"
 6127      56454E54 
 6127      5F434C49 
 6127      434B4544 
 6127      00
 6128              	.LASF390:
 6129 0e36 73776974 		.ascii	"switchLabel\000"
 6129      63684C61 
 6129      62656C00 
 6130              	.LASF201:
 6131 0e42 67726565 		.ascii	"green\000"
 6131      6E00
 6132              	.LASF7:
 6133 0e48 73686F72 		.ascii	"short unsigned int\000"
 6133      7420756E 
 6133      7369676E 
 6133      65642069 
ARM GAS  C:\Users\tmj32\AppData\Local\Temp\cc8xedyG.s 			page 143


 6133      6E7400
 6134              	.LASF15:
 6135 0e5b 6C6F6E67 		.ascii	"long double\000"
 6135      20646F75 
 6135      626C6500 
 6136              	.LASF21:
 6137 0e67 75696E74 		.ascii	"uint16_t\000"
 6137      31365F74 
 6137      00
 6138              	.LASF28:
 6139 0e70 70726F74 		.ascii	"protBase\000"
 6139      42617365 
 6139      00
 6140              	.LASF156:
 6141 0e79 72756E4D 		.ascii	"runMode\000"
 6141      6F646500 
 6142              	.LASF78:
 6143 0e81 70657269 		.ascii	"periTrCmdGrSelMsk\000"
 6143      5472436D 
 6143      64477253 
 6143      656C4D73 
 6143      6B00
 6144              	.LASF125:
 6145 0e93 6D617374 		.ascii	"masterBuffer\000"
 6145      65724275 
 6145      66666572 
 6145      00
 6146              	.LASF377:
 6147 0ea0 74726967 		.ascii	"trigger_slider_event_cb\000"
 6147      6765725F 
 6147      736C6964 
 6147      65725F65 
 6147      76656E74 
 6148              	.LASF367:
 6149 0eb8 63686172 		.ascii	"chart_heigth\000"
 6149      745F6865 
 6149      69677468 
 6149      00
 6150              	.LASF310:
 6151 0ec5 4C565F41 		.ascii	"LV_ALIGN_OUT_TOP_LEFT\000"
 6151      4C49474E 
 6151      5F4F5554 
 6151      5F544F50 
 6151      5F4C4546 
 6152              	.LASF173:
 6153 0edb 63795F73 		.ascii	"cy_stc_tcpwm_counter_config_t\000"
 6153      74635F74 
 6153      6370776D 
 6153      5F636F75 
 6153      6E746572 
 6154              	.LASF40:
 6155 0ef9 69706356 		.ascii	"ipcVersion\000"
 6155      65727369 
 6155      6F6E00
 6156              	.LASF404:
 6157 0f04 73746172 		.ascii	"startup\000"
 6157      74757000 
ARM GAS  C:\Users\tmj32\AppData\Local\Temp\cc8xedyG.s 			page 144


 6158              	.LASF68:
 6159 0f0c 666C6173 		.ascii	"flashCtlMainWs2Freq\000"
 6159      6843746C 
 6159      4D61696E 
 6159      57733246 
 6159      72657100 
 6160              	.LASF77:
 6161 0f20 70657269 		.ascii	"periTrCmdOffset\000"
 6161      5472436D 
 6161      644F6666 
 6161      73657400 
 6162              	.LASF361:
 6163 0f30 6C765F73 		.ascii	"lv_slider_set_range\000"
 6163      6C696465 
 6163      725F7365 
 6163      745F7261 
 6163      6E676500 
 6164              	.LASF186:
 6165 0f44 77696E64 		.ascii	"windowSize\000"
 6165      6F775369 
 6165      7A6500
 6166              	.LASF394:
 6167 0f4f 686F7269 		.ascii	"horiLabel1\000"
 6167      4C616265 
 6167      6C3100
 6168              	.LASF386:
 6169 0f5a 686F7269 		.ascii	"horiLabel2\000"
 6169      4C616265 
 6169      6C3200
 6170              	.LASF16:
 6171 0f65 73697A65 		.ascii	"sizetype\000"
 6171      74797065 
 6171      00
 6172              	.LASF242:
 6173 0f6e 6C765F66 		.ascii	"lv_font_t\000"
 6173      6F6E745F 
 6173      7400
 6174              	.LASF264:
 6175 0f78 6C657474 		.ascii	"letter_space\000"
 6175      65725F73 
 6175      70616365 
 6175      00
 6176              	.LASF103:
 6177 0f85 63707573 		.ascii	"cpussCm4NmiCtlOffset\000"
 6177      73436D34 
 6177      4E6D6943 
 6177      746C4F66 
 6177      66736574 
 6178              	.LASF256:
 6179 0f9a 6D61696E 		.ascii	"main_color\000"
 6179      5F636F6C 
 6179      6F7200
 6180              	.LASF85:
 6181 0fa5 70657269 		.ascii	"periDiv8CtlOffset\000"
 6181      44697638 
 6181      43746C4F 
 6181      66667365 
ARM GAS  C:\Users\tmj32\AppData\Local\Temp\cc8xedyG.s 			page 145


 6181      7400
 6182              	.LASF284:
 6183 0fb7 4C565F45 		.ascii	"LV_EVENT_RELEASED\000"
 6183      56454E54 
 6183      5F52454C 
 6183      45415345 
 6183      4400
 6184              	.LASF303:
 6185 0fc9 4C565F41 		.ascii	"LV_ALIGN_IN_TOP_MID\000"
 6185      4C49474E 
 6185      5F494E5F 
 6185      544F505F 
 6185      4D494400 
 6186              	.LASF5:
 6187 0fdd 73686F72 		.ascii	"short int\000"
 6187      7420696E 
 6187      7400
 6188              	.LASF86:
 6189 0fe7 70657269 		.ascii	"periDiv16CtlOffset\000"
 6189      44697631 
 6189      3643746C 
 6189      4F666673 
 6189      657400
 6190              	.LASF210:
 6191 0ffa 636F6F72 		.ascii	"coords\000"
 6191      647300
 6192              	.LASF162:
 6193 1001 696E7465 		.ascii	"interruptSources\000"
 6193      72727570 
 6193      74536F75 
 6193      72636573 
 6193      00
 6194              	.LASF311:
 6195 1012 4C565F41 		.ascii	"LV_ALIGN_OUT_TOP_MID\000"
 6195      4C49474E 
 6195      5F4F5554 
 6195      5F544F50 
 6195      5F4D4944 
 6196              	.LASF206:
 6197 1027 6C765F6F 		.ascii	"lv_opa_t\000"
 6197      70615F74 
 6197      00
 6198              	.LASF363:
 6199 1030 726F6C6C 		.ascii	"roller\000"
 6199      657200
 6200              	.LASF35:
 6201 1037 63727970 		.ascii	"cryptoVersion\000"
 6201      746F5665 
 6201      7273696F 
 6201      6E00
 6202              	.LASF192:
 6203 1045 52616D52 		.ascii	"RamReadBuffer\000"
 6203      65616442 
 6203      75666665 
 6203      7200
 6204              	.LASF337:
 6205 1053 5F4C565F 		.ascii	"_LV_BTN_STATE_NUM\000"
ARM GAS  C:\Users\tmj32\AppData\Local\Temp\cc8xedyG.s 			page 146


 6205      42544E5F 
 6205      53544154 
 6205      455F4E55 
 6205      4D00
 6206              	.LASF397:
 6207 1065 49544D5F 		.ascii	"ITM_RxBuffer\000"
 6207      52784275 
 6207      66666572 
 6207      00
 6208              	.LASF171:
 6209 1072 636F756E 		.ascii	"countInputMode\000"
 6209      74496E70 
 6209      75744D6F 
 6209      646500
 6210              	.LASF38:
 6211 1081 6770696F 		.ascii	"gpioVersion\000"
 6211      56657273 
 6211      696F6E00 
 6212              	.LASF37:
 6213 108d 666C6173 		.ascii	"flashcVersion\000"
 6213      68635665 
 6213      7273696F 
 6213      6E00
 6214              	.LASF59:
 6215 109b 70726F74 		.ascii	"protBusMasterMask\000"
 6215      4275734D 
 6215      61737465 
 6215      724D6173 
 6215      6B00
 6216              	.LASF352:
 6217 10ad 6C765F63 		.ascii	"lv_chart_series_t\000"
 6217      68617274 
 6217      5F736572 
 6217      6965735F 
 6217      7400
 6218              	.LASF157:
 6219 10bf 636F756E 		.ascii	"countDirection\000"
 6219      74446972 
 6219      65637469 
 6219      6F6E00
 6220              	.LASF259:
 6221 10ce 626F7264 		.ascii	"border\000"
 6221      657200
 6222              	.LASF278:
 6223 10d5 4C565F45 		.ascii	"LV_EVENT_PRESSING\000"
 6223      56454E54 
 6223      5F505245 
 6223      5353494E 
 6223      4700
 6224              	.LASF200:
 6225 10e7 626C7565 		.ascii	"blue\000"
 6225      00
 6226              	.LASF410:
 6227 10ec 686F6D65 		.ascii	"home_screen\000"
 6227      5F736372 
 6227      65656E00 
 6228              	.LASF389:
ARM GAS  C:\Users\tmj32\AppData\Local\Temp\cc8xedyG.s 			page 147


 6229 10f8 77696E64 		.ascii	"windowSlider\000"
 6229      6F77536C 
 6229      69646572 
 6229      00
 6230              	.LASF347:
 6231 1105 4C565F43 		.ascii	"LV_CHART_TYPE_POINT\000"
 6231      48415254 
 6231      5F545950 
 6231      455F504F 
 6231      494E5400 
 6232              	.LASF193:
 6233 1119 6C765F63 		.ascii	"lv_coord_t\000"
 6233      6F6F7264 
 6233      5F7400
 6234              	.LASF221:
 6235 1124 6F70615F 		.ascii	"opa_scale_en\000"
 6235      7363616C 
 6235      655F656E 
 6235      00
 6236              	.LASF351:
 6237 1131 73746172 		.ascii	"start_point\000"
 6237      745F706F 
 6237      696E7400 
 6238              	.LASF246:
 6239 113d 6C765F62 		.ascii	"lv_border_part_t\000"
 6239      6F726465 
 6239      725F7061 
 6239      72745F74 
 6239      00
 6240              	.LASF253:
 6241 114e 6C656674 		.ascii	"left\000"
 6241      00
 6242              	.LASF266:
 6243 1153 696E7465 		.ascii	"intense\000"
 6243      6E736500 
 6244              	.LASF98:
 6245 115b 63707573 		.ascii	"cpussCm4PwrCtlOffset\000"
 6245      73436D34 
 6245      50777243 
 6245      746C4F66 
 6245      66736574 
 6246              	.LASF1:
 6247 1170 5F5F7569 		.ascii	"__uint8_t\000"
 6247      6E74385F 
 6247      7400
 6248              	.LASF332:
 6249 117a 4C565F42 		.ascii	"LV_BTN_STATE_REL\000"
 6249      544E5F53 
 6249      54415445 
 6249      5F52454C 
 6249      00
 6250              	.LASF179:
 6251 118b 54726967 		.ascii	"Trigger\000"
 6251      67657200 
 6252              	.LASF89:
 6253 1193 6770696F 		.ascii	"gpioPrtIntrCfgOffset\000"
 6253      50727449 
ARM GAS  C:\Users\tmj32\AppData\Local\Temp\cc8xedyG.s 			page 148


 6253      6E747243 
 6253      66674F66 
 6253      66736574 
 6254              	.LASF336:
 6255 11a8 4C565F42 		.ascii	"LV_BTN_STATE_INA\000"
 6255      544E5F53 
 6255      54415445 
 6255      5F494E41 
 6255      00
 6256              	.LASF232:
 6257 11b9 626F785F 		.ascii	"box_h\000"
 6257      6800
 6258              	.LASF289:
 6259 11bf 4C565F45 		.ascii	"LV_EVENT_FOCUSED\000"
 6259      56454E54 
 6259      5F464F43 
 6259      55534544 
 6259      00
 6260              	.LASF95:
 6261 11d0 63707573 		.ascii	"cpussCm4ClockCtlOffset\000"
 6261      73436D34 
 6261      436C6F63 
 6261      6B43746C 
 6261      4F666673 
 6262              	.LASF320:
 6263 11e7 4C565F41 		.ascii	"LV_ALIGN_OUT_RIGHT_MID\000"
 6263      4C49474E 
 6263      5F4F5554 
 6263      5F524947 
 6263      48545F4D 
 6264              	.LASF100:
 6265 11fe 63707573 		.ascii	"cpussTrimRomCtlOffset\000"
 6265      73547269 
 6265      6D526F6D 
 6265      43746C4F 
 6265      66667365 
 6266              	.LASF39:
 6267 1214 6873696F 		.ascii	"hsiomVersion\000"
 6267      6D566572 
 6267      73696F6E 
 6267      00
 6268              	.LASF207:
 6269 1221 6C765F61 		.ascii	"lv_area_t\000"
 6269      7265615F 
 6269      7400
 6270              	.LASF11:
 6271 122b 6C6F6E67 		.ascii	"long unsigned int\000"
 6271      20756E73 
 6271      69676E65 
 6271      6420696E 
 6271      7400
 6272              	.LASF176:
 6273 123d 43687269 		.ascii	"ChrisReg\000"
 6273      73526567 
 6273      00
 6274              	.LASF104:
 6275 1246 63707573 		.ascii	"cpussRomCtl\000"
ARM GAS  C:\Users\tmj32\AppData\Local\Temp\cc8xedyG.s 			page 149


 6275      73526F6D 
 6275      43746C00 
 6276              	.LASF231:
 6277 1252 626F785F 		.ascii	"box_w\000"
 6277      7700
 6278              	.LASF305:
 6279 1258 4C565F41 		.ascii	"LV_ALIGN_IN_BOTTOM_LEFT\000"
 6279      4C49474E 
 6279      5F494E5F 
 6279      424F5454 
 6279      4F4D5F4C 
 6280              	.LASF304:
 6281 1270 4C565F41 		.ascii	"LV_ALIGN_IN_TOP_RIGHT\000"
 6281      4C49474E 
 6281      5F494E5F 
 6281      544F505F 
 6281      52494748 
 6282              	.LASF240:
 6283 1286 62617365 		.ascii	"base_line\000"
 6283      5F6C696E 
 6283      6500
 6284              	.LASF243:
 6285 1290 4C565F41 		.ascii	"LV_ANIM_OFF\000"
 6285      4E494D5F 
 6285      4F464600 
 6286              	.LASF258:
 6287 129c 72616469 		.ascii	"radius\000"
 6287      757300
 6288              	.LASF227:
 6289 12a3 6F70615F 		.ascii	"opa_scale\000"
 6289      7363616C 
 6289      6500
 6290              	.LASF269:
 6291 12ad 626F6479 		.ascii	"body\000"
 6291      00
 6292              	.LASF299:
 6293 12b2 6C765F73 		.ascii	"lv_signal_t\000"
 6293      69676E61 
 6293      6C5F7400 
 6294              	.LASF406:
 6295 12be 686F6D65 		.ascii	"home_screen.c\000"
 6295      5F736372 
 6295      65656E2E 
 6295      6300
 6296              	.LASF226:
 6297 12cc 70726F74 		.ascii	"protect\000"
 6297      65637400 
 6298              	.LASF36:
 6299 12d4 64775665 		.ascii	"dwVersion\000"
 6299      7273696F 
 6299      6E00
 6300              	.LASF3:
 6301 12de 756E7369 		.ascii	"unsigned char\000"
 6301      676E6564 
 6301      20636861 
 6301      7200
 6302              	.LASF10:
ARM GAS  C:\Users\tmj32\AppData\Local\Temp\cc8xedyG.s 			page 150


 6303 12ec 5F5F7569 		.ascii	"__uint32_t\000"
 6303      6E743332 
 6303      5F7400
 6304              	.LASF287:
 6305 12f7 4C565F45 		.ascii	"LV_EVENT_DRAG_THROW_BEGIN\000"
 6305      56454E54 
 6305      5F445241 
 6305      475F5448 
 6305      524F575F 
 6306              	.LASF187:
 6307 1311 486F7269 		.ascii	"HoriScale\000"
 6307      5363616C 
 6307      6500
 6308              	.LASF174:
 6309 131b 5350495F 		.ascii	"SPI_parameters\000"
 6309      70617261 
 6309      6D657465 
 6309      727300
 6310              	.LASF272:
 6311 132a 6C696E65 		.ascii	"line\000"
 6311      00
 6312              	.LASF172:
 6313 132f 636F756E 		.ascii	"countInput\000"
 6313      74496E70 
 6313      757400
 6314              	.LASF387:
 6315 133a 76657274 		.ascii	"vertSlider\000"
 6315      536C6964 
 6315      657200
 6316              	.LASF312:
 6317 1345 4C565F41 		.ascii	"LV_ALIGN_OUT_TOP_RIGHT\000"
 6317      4C49474E 
 6317      5F4F5554 
 6317      5F544F50 
 6317      5F524947 
 6318              	.LASF238:
 6319 135c 6765745F 		.ascii	"get_glyph_bitmap\000"
 6319      676C7970 
 6319      685F6269 
 6319      746D6170 
 6319      00
 6320              	.LASF198:
 6321 136d 7461696C 		.ascii	"tail\000"
 6321      00
 6322              	.LASF65:
 6323 1372 666C6173 		.ascii	"flashEraseDelay\000"
 6323      68457261 
 6323      73654465 
 6323      6C617900 
 6324              	.LASF209:
 6325 1382 6368696C 		.ascii	"child_ll\000"
 6325      645F6C6C 
 6325      00
 6326              	.LASF402:
 6327 138b 74636E6A 		.ascii	"tcnj_blue\000"
 6327      5F626C75 
 6327      6500
ARM GAS  C:\Users\tmj32\AppData\Local\Temp\cc8xedyG.s 			page 151


 6328              	.LASF344:
 6329 1395 4C565F43 		.ascii	"LV_CHART_TYPE_NONE\000"
 6329      48415254 
 6329      5F545950 
 6329      455F4E4F 
 6329      4E4500
 6330              	.LASF121:
 6331 13a8 73746174 		.ascii	"state\000"
 6331      6500
 6332              	.LASF275:
 6333 13ae 6C765F64 		.ascii	"lv_design_mode_t\000"
 6333      65736967 
 6333      6E5F6D6F 
 6333      64655F74 
 6333      00
 6334              	.LASF25:
 6335 13bf 666C6173 		.ascii	"flashcBase\000"
 6335      68634261 
 6335      736500
 6336              	.LASF343:
 6337 13ca 4C565F4C 		.ascii	"LV_LABEL_LONG_CROP\000"
 6337      4142454C 
 6337      5F4C4F4E 
 6337      475F4352 
 6337      4F5000
 6338              	.LASF211:
 6339 13dd 6576656E 		.ascii	"event_cb\000"
 6339      745F6362 
 6339      00
 6340              	.LASF213:
 6341 13e6 64657369 		.ascii	"design_cb\000"
 6341      676E5F63 
 6341      6200
 6342              	.LASF61:
 6343 13f0 666C6173 		.ascii	"flashRwwRequired\000"
 6343      68527777 
 6343      52657175 
 6343      69726564 
 6343      00
 6344              	.LASF90:
 6345 1401 6770696F 		.ascii	"gpioPrtCfgOffset\000"
 6345      50727443 
 6345      66674F66 
 6345      66736574 
 6345      00
 6346              	.LASF245:
 6347 1412 6C765F61 		.ascii	"lv_anim_enable_t\000"
 6347      6E696D5F 
 6347      656E6162 
 6347      6C655F74 
 6347      00
 6348              	.LASF214:
 6349 1423 6578745F 		.ascii	"ext_attr\000"
 6349      61747472 
 6349      00
 6350              	.LASF67:
 6351 142c 666C6173 		.ascii	"flashCtlMainWs1Freq\000"
ARM GAS  C:\Users\tmj32\AppData\Local\Temp\cc8xedyG.s 			page 152


 6351      6843746C 
 6351      4D61696E 
 6351      57733146 
 6351      72657100 
 6352              	.LASF182:
 6353 1440 6F6E4269 		.ascii	"onBit\000"
 6353      7400
 6354              	.LASF47:
 6355 1446 63707573 		.ascii	"cpussIpc0Irq\000"
 6355      73497063 
 6355      30497271 
 6355      00
 6356              	.LASF2:
 6357 1453 7369676E 		.ascii	"signed char\000"
 6357      65642063 
 6357      68617200 
 6358              	.LASF154:
 6359 145f 70657269 		.ascii	"period\000"
 6359      6F6400
 6360              	.LASF220:
 6361 1466 68696464 		.ascii	"hidden\000"
 6361      656E00
 6362              	.LASF71:
 6363 146d 64774368 		.ascii	"dwChOffset\000"
 6363      4F666673 
 6363      657400
 6364              	.LASF44:
 6365 1478 63707573 		.ascii	"cpussIpcIrqNr\000"
 6365      73497063 
 6365      4972714E 
 6365      7200
 6366              	.LASF153:
 6367 1486 63795F73 		.ascii	"cy_stc_tcpwm_counter_config\000"
 6367      74635F74 
 6367      6370776D 
 6367      5F636F75 
 6367      6E746572 
 6368              	.LASF74:
 6369 14a2 64774368 		.ascii	"dwChCtlPreemptablePos\000"
 6369      43746C50 
 6369      7265656D 
 6369      70746162 
 6369      6C65506F 
 6370              	.LASF180:
 6371 14b8 54726967 		.ascii	"TriggerSlope\000"
 6371      67657253 
 6371      6C6F7065 
 6371      00
 6372              	.LASF0:
 6373 14c5 5F5F696E 		.ascii	"__int8_t\000"
 6373      74385F74 
 6373      00
 6374              	.LASF365:
 6375 14ce 6C765F73 		.ascii	"lv_sw_get_state\000"
 6375      775F6765 
 6375      745F7374 
 6375      61746500 
ARM GAS  C:\Users\tmj32\AppData\Local\Temp\cc8xedyG.s 			page 153


 6376              	.LASF318:
 6377 14de 4C565F41 		.ascii	"LV_ALIGN_OUT_LEFT_BOTTOM\000"
 6377      4C49474E 
 6377      5F4F5554 
 6377      5F4C4546 
 6377      545F424F 
 6378              	.LASF110:
 6379 14f7 63795F73 		.ascii	"cy_stc_device_t\000"
 6379      74635F64 
 6379      65766963 
 6379      655F7400 
 6380              	.LASF225:
 6381 1507 72657365 		.ascii	"reserved\000"
 6381      72766564 
 6381      00
 6382              	.LASF282:
 6383 1510 4C565F45 		.ascii	"LV_EVENT_LONG_PRESSED_REPEAT\000"
 6383      56454E54 
 6383      5F4C4F4E 
 6383      475F5052 
 6383      45535345 
 6384              	.LASF348:
 6385 152d 4C565F43 		.ascii	"LV_CHART_TYPE_VERTICAL_LINE\000"
 6385      48415254 
 6385      5F545950 
 6385      455F5645 
 6385      52544943 
 6386              	.LASF143:
 6387 1549 63795F73 		.ascii	"cy_stc_scb_spi_context\000"
 6387      74635F73 
 6387      63625F73 
 6387      70695F63 
 6387      6F6E7465 
 6388              	.LASF112:
 6389 1560 646F7562 		.ascii	"double\000"
 6389      6C6500
 6390              	.LASF217:
 6391 1567 64726167 		.ascii	"drag\000"
 6391      00
 6392              	.LASF369:
 6393 156c 63686172 		.ascii	"chart_horiPos\000"
 6393      745F686F 
 6393      7269506F 
 6393      7300
 6394              	.LASF87:
 6395 157a 70657269 		.ascii	"periDiv16_5CtlOffset\000"
 6395      44697631 
 6395      365F3543 
 6395      746C4F66 
 6395      66736574 
 6396              	.LASF45:
 6397 158f 63707573 		.ascii	"cpussDwChNr\000"
 6397      73447743 
 6397      684E7200 
 6398              	.LASF140:
 6399 159b 63795F73 		.ascii	"cy_stc_scb_i2c_context_t\000"
 6399      74635F73 
ARM GAS  C:\Users\tmj32\AppData\Local\Temp\cc8xedyG.s 			page 154


 6399      63625F69 
 6399      32635F63 
 6399      6F6E7465 
 6400              	.LASF212:
 6401 15b4 7369676E 		.ascii	"signal_cb\000"
 6401      616C5F63 
 6401      6200
 6402              	.LASF70:
 6403 15be 666C6173 		.ascii	"flashCtlMainWs4Freq\000"
 6403      6843746C 
 6403      4D61696E 
 6403      57733446 
 6403      72657100 
 6404              	.LASF372:
 6405 15d2 77696E64 		.ascii	"windowMax\000"
 6405      6F774D61 
 6405      7800
 6406              	.LASF334:
 6407 15dc 4C565F42 		.ascii	"LV_BTN_STATE_TGL_REL\000"
 6407      544E5F53 
 6407      54415445 
 6407      5F54474C 
 6407      5F52454C 
 6408              	.LASF280:
 6409 15f1 4C565F45 		.ascii	"LV_EVENT_SHORT_CLICKED\000"
 6409      56454E54 
 6409      5F53484F 
 6409      52545F43 
 6409      4C49434B 
 6410              	.LASF349:
 6411 1608 4C565F43 		.ascii	"LV_CHART_TYPE_AREA\000"
 6411      48415254 
 6411      5F545950 
 6411      455F4152 
 6411      454100
 6412              	.LASF405:
 6413 161b 474E5520 		.ascii	"GNU C11 5.4.1 20160609 (release) [ARM/embedded-5-br"
 6413      43313120 
 6413      352E342E 
 6413      31203230 
 6413      31363036 
 6414 164e 616E6368 		.ascii	"anch revision 237715] -mcpu=cortex-m4 -mfloat-abi=s"
 6414      20726576 
 6414      6973696F 
 6414      6E203233 
 6414      37373135 
 6415 1681 6F667466 		.ascii	"oftfp -mfpu=fpv4-sp-d16 -mthumb -g -O0 -ffunction-s"
 6415      70202D6D 
 6415      6670753D 
 6415      66707634 
 6415      2D73702D 
 6416 16b4 65637469 		.ascii	"ections -ffat-lto-objects\000"
 6416      6F6E7320 
 6416      2D666661 
 6416      742D6C74 
 6416      6F2D6F62 
 6417              	.LASF326:
ARM GAS  C:\Users\tmj32\AppData\Local\Temp\cc8xedyG.s 			page 155


 6418 16ce 616C6967 		.ascii	"align\000"
 6418      6E00
 6419              	.LASF177:
 6420 16d4 5368616E 		.ascii	"ShannonReg\000"
 6420      6E6F6E52 
 6420      656700
 6421              	.LASF268:
 6422 16df 676C6173 		.ascii	"glass\000"
 6422      7300
 6423              	.LASF97:
 6424 16e5 63707573 		.ascii	"cpussCm0StatusOffset\000"
 6424      73436D30 
 6424      53746174 
 6424      75734F66 
 6424      66736574 
 6425              	.LASF350:
 6426 16fa 706F696E 		.ascii	"points\000"
 6426      747300
 6427              	.LASF302:
 6428 1701 4C565F41 		.ascii	"LV_ALIGN_IN_TOP_LEFT\000"
 6428      4C49474E 
 6428      5F494E5F 
 6428      544F505F 
 6428      4C454654 
 6429              	.LASF281:
 6430 1716 4C565F45 		.ascii	"LV_EVENT_LONG_PRESSED\000"
 6430      56454E54 
 6430      5F4C4F4E 
 6430      475F5052 
 6430      45535345 
 6431              	.LASF298:
 6432 172c 6C765F65 		.ascii	"lv_event_cb_t\000"
 6432      76656E74 
 6432      5F63625F 
 6432      7400
 6433              	.LASF34:
 6434 173a 63707573 		.ascii	"cpussVersion\000"
 6434      73566572 
 6434      73696F6E 
 6434      00
 6435              	.LASF329:
 6436 1747 6C765F72 		.ascii	"lv_reailgn_t\000"
 6436      6561696C 
 6436      676E5F74 
 6436      00
 6437              	.LASF146:
 6438 1754 72784275 		.ascii	"rxBufSize\000"
 6438      6653697A 
 6438      6500
 6439              	.LASF230:
 6440 175e 6164765F 		.ascii	"adv_w\000"
 6440      7700
 6441              	.LASF129:
 6442 1764 736C6176 		.ascii	"slaveStatus\000"
 6442      65537461 
 6442      74757300 
 6443              	.LASF382:
ARM GAS  C:\Users\tmj32\AppData\Local\Temp\cc8xedyG.s 			page 156


 6444 1770 6F666673 		.ascii	"offsetLabel2\000"
 6444      65744C61 
 6444      62656C32 
 6444      00
 6445              		.ident	"GCC: (GNU Tools for ARM Embedded Processors) 5.4.1 20160609 (release) [ARM/embedded-5-bran
