ARM GAS  C:\Users\chris\AppData\Local\Temp\cctP47hK.s 			page 1


   1              		.syntax unified
   2              		.cpu cortex-m4
   3              		.eabi_attribute 27, 1
   4              		.fpu fpv4-sp-d16
   5              		.eabi_attribute 20, 1
   6              		.eabi_attribute 21, 1
   7              		.eabi_attribute 23, 3
   8              		.eabi_attribute 24, 1
   9              		.eabi_attribute 25, 1
  10              		.eabi_attribute 26, 1
  11              		.eabi_attribute 30, 6
  12              		.eabi_attribute 34, 1
  13              		.eabi_attribute 18, 4
  14              		.thumb
  15              		.syntax unified
  16              		.file	"home_screen.c"
  17              		.text
  18              	.Ltext0:
  19              		.cfi_sections	.debug_frame
  20              		.comm	cm4,2128,4
  21              		.section	.text.lv_color_make,"ax",%progbits
  22              		.align	2
  23              		.thumb
  24              		.thumb_func
  25              		.type	lv_color_make, %function
  26              	lv_color_make:
  27              	.LFB588:
  28              		.file 1 "..\\..\\..\\lvgl\\version_6.1.2\\lvgl/src/lv_hal/../lv_misc/lv_color.h"
   1:..\..\..\lvgl\version_6.1.2\lvgl/src/lv_hal/../lv_misc/lv_color.h **** /**
   2:..\..\..\lvgl\version_6.1.2\lvgl/src/lv_hal/../lv_misc/lv_color.h ****  * @file lv_color.h
   3:..\..\..\lvgl\version_6.1.2\lvgl/src/lv_hal/../lv_misc/lv_color.h ****  *
   4:..\..\..\lvgl\version_6.1.2\lvgl/src/lv_hal/../lv_misc/lv_color.h ****  */
   5:..\..\..\lvgl\version_6.1.2\lvgl/src/lv_hal/../lv_misc/lv_color.h **** 
   6:..\..\..\lvgl\version_6.1.2\lvgl/src/lv_hal/../lv_misc/lv_color.h **** #ifndef LV_COLOR_H
   7:..\..\..\lvgl\version_6.1.2\lvgl/src/lv_hal/../lv_misc/lv_color.h **** #define LV_COLOR_H
   8:..\..\..\lvgl\version_6.1.2\lvgl/src/lv_hal/../lv_misc/lv_color.h **** 
   9:..\..\..\lvgl\version_6.1.2\lvgl/src/lv_hal/../lv_misc/lv_color.h **** #ifdef __cplusplus
  10:..\..\..\lvgl\version_6.1.2\lvgl/src/lv_hal/../lv_misc/lv_color.h **** extern "C" {
  11:..\..\..\lvgl\version_6.1.2\lvgl/src/lv_hal/../lv_misc/lv_color.h **** #endif
  12:..\..\..\lvgl\version_6.1.2\lvgl/src/lv_hal/../lv_misc/lv_color.h **** 
  13:..\..\..\lvgl\version_6.1.2\lvgl/src/lv_hal/../lv_misc/lv_color.h **** /*********************
  14:..\..\..\lvgl\version_6.1.2\lvgl/src/lv_hal/../lv_misc/lv_color.h ****  *      INCLUDES
  15:..\..\..\lvgl\version_6.1.2\lvgl/src/lv_hal/../lv_misc/lv_color.h ****  *********************/
  16:..\..\..\lvgl\version_6.1.2\lvgl/src/lv_hal/../lv_misc/lv_color.h **** #ifdef LV_CONF_INCLUDE_SIMPLE
  17:..\..\..\lvgl\version_6.1.2\lvgl/src/lv_hal/../lv_misc/lv_color.h **** #include "lv_conf.h"
  18:..\..\..\lvgl\version_6.1.2\lvgl/src/lv_hal/../lv_misc/lv_color.h **** #else
  19:..\..\..\lvgl\version_6.1.2\lvgl/src/lv_hal/../lv_misc/lv_color.h **** #include "../../../lv_conf.h"
  20:..\..\..\lvgl\version_6.1.2\lvgl/src/lv_hal/../lv_misc/lv_color.h **** #endif
  21:..\..\..\lvgl\version_6.1.2\lvgl/src/lv_hal/../lv_misc/lv_color.h **** 
  22:..\..\..\lvgl\version_6.1.2\lvgl/src/lv_hal/../lv_misc/lv_color.h **** /*Error checking*/
  23:..\..\..\lvgl\version_6.1.2\lvgl/src/lv_hal/../lv_misc/lv_color.h **** #if LV_COLOR_DEPTH == 24
  24:..\..\..\lvgl\version_6.1.2\lvgl/src/lv_hal/../lv_misc/lv_color.h **** #error "LV_COLOR_DEPTH  24 is deprecated. Use LV_COLOR_DEPTH  32 instead (lv_conf.h)"
  25:..\..\..\lvgl\version_6.1.2\lvgl/src/lv_hal/../lv_misc/lv_color.h **** #endif
  26:..\..\..\lvgl\version_6.1.2\lvgl/src/lv_hal/../lv_misc/lv_color.h **** 
  27:..\..\..\lvgl\version_6.1.2\lvgl/src/lv_hal/../lv_misc/lv_color.h **** #if LV_COLOR_DEPTH != 32 && LV_COLOR_SCREEN_TRANSP != 0
  28:..\..\..\lvgl\version_6.1.2\lvgl/src/lv_hal/../lv_misc/lv_color.h **** #error "LV_COLOR_SCREEN_TRANSP requires LV_COLOR_DEPTH == 32. Set it in lv_conf.h"
  29:..\..\..\lvgl\version_6.1.2\lvgl/src/lv_hal/../lv_misc/lv_color.h **** #endif
ARM GAS  C:\Users\chris\AppData\Local\Temp\cctP47hK.s 			page 2


  30:..\..\..\lvgl\version_6.1.2\lvgl/src/lv_hal/../lv_misc/lv_color.h **** 
  31:..\..\..\lvgl\version_6.1.2\lvgl/src/lv_hal/../lv_misc/lv_color.h **** #if LV_COLOR_DEPTH != 16 && LV_COLOR_16_SWAP != 0
  32:..\..\..\lvgl\version_6.1.2\lvgl/src/lv_hal/../lv_misc/lv_color.h **** #error "LV_COLOR_16_SWAP requires LV_COLOR_DEPTH == 16. Set it in lv_conf.h"
  33:..\..\..\lvgl\version_6.1.2\lvgl/src/lv_hal/../lv_misc/lv_color.h **** #endif
  34:..\..\..\lvgl\version_6.1.2\lvgl/src/lv_hal/../lv_misc/lv_color.h **** 
  35:..\..\..\lvgl\version_6.1.2\lvgl/src/lv_hal/../lv_misc/lv_color.h **** #include <stdint.h>
  36:..\..\..\lvgl\version_6.1.2\lvgl/src/lv_hal/../lv_misc/lv_color.h **** 
  37:..\..\..\lvgl\version_6.1.2\lvgl/src/lv_hal/../lv_misc/lv_color.h **** /*********************
  38:..\..\..\lvgl\version_6.1.2\lvgl/src/lv_hal/../lv_misc/lv_color.h ****  *      DEFINES
  39:..\..\..\lvgl\version_6.1.2\lvgl/src/lv_hal/../lv_misc/lv_color.h ****  *********************/
  40:..\..\..\lvgl\version_6.1.2\lvgl/src/lv_hal/../lv_misc/lv_color.h **** #define LV_COLOR_WHITE LV_COLOR_MAKE(0xFF, 0xFF, 0xFF)
  41:..\..\..\lvgl\version_6.1.2\lvgl/src/lv_hal/../lv_misc/lv_color.h **** #define LV_COLOR_SILVER LV_COLOR_MAKE(0xC0, 0xC0, 0xC0)
  42:..\..\..\lvgl\version_6.1.2\lvgl/src/lv_hal/../lv_misc/lv_color.h **** #define LV_COLOR_GRAY LV_COLOR_MAKE(0x80, 0x80, 0x80)
  43:..\..\..\lvgl\version_6.1.2\lvgl/src/lv_hal/../lv_misc/lv_color.h **** #define LV_COLOR_BLACK LV_COLOR_MAKE(0x00, 0x00, 0x00)
  44:..\..\..\lvgl\version_6.1.2\lvgl/src/lv_hal/../lv_misc/lv_color.h **** #define LV_COLOR_RED LV_COLOR_MAKE(0xFF, 0x00, 0x00)
  45:..\..\..\lvgl\version_6.1.2\lvgl/src/lv_hal/../lv_misc/lv_color.h **** #define LV_COLOR_MAROON LV_COLOR_MAKE(0x80, 0x00, 0x00)
  46:..\..\..\lvgl\version_6.1.2\lvgl/src/lv_hal/../lv_misc/lv_color.h **** #define LV_COLOR_YELLOW LV_COLOR_MAKE(0xFF, 0xFF, 0x00)
  47:..\..\..\lvgl\version_6.1.2\lvgl/src/lv_hal/../lv_misc/lv_color.h **** #define LV_COLOR_OLIVE LV_COLOR_MAKE(0x80, 0x80, 0x00)
  48:..\..\..\lvgl\version_6.1.2\lvgl/src/lv_hal/../lv_misc/lv_color.h **** #define LV_COLOR_LIME LV_COLOR_MAKE(0x00, 0xFF, 0x00)
  49:..\..\..\lvgl\version_6.1.2\lvgl/src/lv_hal/../lv_misc/lv_color.h **** #define LV_COLOR_GREEN LV_COLOR_MAKE(0x00, 0x80, 0x00)
  50:..\..\..\lvgl\version_6.1.2\lvgl/src/lv_hal/../lv_misc/lv_color.h **** #define LV_COLOR_CYAN LV_COLOR_MAKE(0x00, 0xFF, 0xFF)
  51:..\..\..\lvgl\version_6.1.2\lvgl/src/lv_hal/../lv_misc/lv_color.h **** #define LV_COLOR_AQUA LV_COLOR_CYAN
  52:..\..\..\lvgl\version_6.1.2\lvgl/src/lv_hal/../lv_misc/lv_color.h **** #define LV_COLOR_TEAL LV_COLOR_MAKE(0x00, 0x80, 0x80)
  53:..\..\..\lvgl\version_6.1.2\lvgl/src/lv_hal/../lv_misc/lv_color.h **** #define LV_COLOR_BLUE LV_COLOR_MAKE(0x00, 0x00, 0xFF)
  54:..\..\..\lvgl\version_6.1.2\lvgl/src/lv_hal/../lv_misc/lv_color.h **** #define LV_COLOR_NAVY LV_COLOR_MAKE(0x00, 0x00, 0x80)
  55:..\..\..\lvgl\version_6.1.2\lvgl/src/lv_hal/../lv_misc/lv_color.h **** #define LV_COLOR_MAGENTA LV_COLOR_MAKE(0xFF, 0x00, 0xFF)
  56:..\..\..\lvgl\version_6.1.2\lvgl/src/lv_hal/../lv_misc/lv_color.h **** #define LV_COLOR_PURPLE LV_COLOR_MAKE(0x80, 0x00, 0x80)
  57:..\..\..\lvgl\version_6.1.2\lvgl/src/lv_hal/../lv_misc/lv_color.h **** #define LV_COLOR_ORANGE LV_COLOR_MAKE(0xFF, 0xA5, 0x00)
  58:..\..\..\lvgl\version_6.1.2\lvgl/src/lv_hal/../lv_misc/lv_color.h **** 
  59:..\..\..\lvgl\version_6.1.2\lvgl/src/lv_hal/../lv_misc/lv_color.h **** /**
  60:..\..\..\lvgl\version_6.1.2\lvgl/src/lv_hal/../lv_misc/lv_color.h ****  * Opacity percentages.
  61:..\..\..\lvgl\version_6.1.2\lvgl/src/lv_hal/../lv_misc/lv_color.h ****  */
  62:..\..\..\lvgl\version_6.1.2\lvgl/src/lv_hal/../lv_misc/lv_color.h **** enum {
  63:..\..\..\lvgl\version_6.1.2\lvgl/src/lv_hal/../lv_misc/lv_color.h ****     LV_OPA_TRANSP = 0,
  64:..\..\..\lvgl\version_6.1.2\lvgl/src/lv_hal/../lv_misc/lv_color.h ****     LV_OPA_0      = 0,
  65:..\..\..\lvgl\version_6.1.2\lvgl/src/lv_hal/../lv_misc/lv_color.h ****     LV_OPA_10     = 25,
  66:..\..\..\lvgl\version_6.1.2\lvgl/src/lv_hal/../lv_misc/lv_color.h ****     LV_OPA_20     = 51,
  67:..\..\..\lvgl\version_6.1.2\lvgl/src/lv_hal/../lv_misc/lv_color.h ****     LV_OPA_30     = 76,
  68:..\..\..\lvgl\version_6.1.2\lvgl/src/lv_hal/../lv_misc/lv_color.h ****     LV_OPA_40     = 102,
  69:..\..\..\lvgl\version_6.1.2\lvgl/src/lv_hal/../lv_misc/lv_color.h ****     LV_OPA_50     = 127,
  70:..\..\..\lvgl\version_6.1.2\lvgl/src/lv_hal/../lv_misc/lv_color.h ****     LV_OPA_60     = 153,
  71:..\..\..\lvgl\version_6.1.2\lvgl/src/lv_hal/../lv_misc/lv_color.h ****     LV_OPA_70     = 178,
  72:..\..\..\lvgl\version_6.1.2\lvgl/src/lv_hal/../lv_misc/lv_color.h ****     LV_OPA_80     = 204,
  73:..\..\..\lvgl\version_6.1.2\lvgl/src/lv_hal/../lv_misc/lv_color.h ****     LV_OPA_90     = 229,
  74:..\..\..\lvgl\version_6.1.2\lvgl/src/lv_hal/../lv_misc/lv_color.h ****     LV_OPA_100    = 255,
  75:..\..\..\lvgl\version_6.1.2\lvgl/src/lv_hal/../lv_misc/lv_color.h ****     LV_OPA_COVER  = 255,
  76:..\..\..\lvgl\version_6.1.2\lvgl/src/lv_hal/../lv_misc/lv_color.h **** };
  77:..\..\..\lvgl\version_6.1.2\lvgl/src/lv_hal/../lv_misc/lv_color.h **** 
  78:..\..\..\lvgl\version_6.1.2\lvgl/src/lv_hal/../lv_misc/lv_color.h **** #define LV_OPA_MIN 16  /*Opacities below this will be transparent*/
  79:..\..\..\lvgl\version_6.1.2\lvgl/src/lv_hal/../lv_misc/lv_color.h **** #define LV_OPA_MAX 251 /*Opacities above this will fully cover*/
  80:..\..\..\lvgl\version_6.1.2\lvgl/src/lv_hal/../lv_misc/lv_color.h **** 
  81:..\..\..\lvgl\version_6.1.2\lvgl/src/lv_hal/../lv_misc/lv_color.h **** #if LV_COLOR_DEPTH == 1
  82:..\..\..\lvgl\version_6.1.2\lvgl/src/lv_hal/../lv_misc/lv_color.h **** #define LV_COLOR_SIZE 8
  83:..\..\..\lvgl\version_6.1.2\lvgl/src/lv_hal/../lv_misc/lv_color.h **** #elif LV_COLOR_DEPTH == 8
  84:..\..\..\lvgl\version_6.1.2\lvgl/src/lv_hal/../lv_misc/lv_color.h **** #define LV_COLOR_SIZE 8
  85:..\..\..\lvgl\version_6.1.2\lvgl/src/lv_hal/../lv_misc/lv_color.h **** #elif LV_COLOR_DEPTH == 16
  86:..\..\..\lvgl\version_6.1.2\lvgl/src/lv_hal/../lv_misc/lv_color.h **** #define LV_COLOR_SIZE 16
ARM GAS  C:\Users\chris\AppData\Local\Temp\cctP47hK.s 			page 3


  87:..\..\..\lvgl\version_6.1.2\lvgl/src/lv_hal/../lv_misc/lv_color.h **** #elif LV_COLOR_DEPTH == 32
  88:..\..\..\lvgl\version_6.1.2\lvgl/src/lv_hal/../lv_misc/lv_color.h **** #define LV_COLOR_SIZE 32
  89:..\..\..\lvgl\version_6.1.2\lvgl/src/lv_hal/../lv_misc/lv_color.h **** #else
  90:..\..\..\lvgl\version_6.1.2\lvgl/src/lv_hal/../lv_misc/lv_color.h **** #error "Invalid LV_COLOR_DEPTH in lv_conf.h! Set it to 1, 8, 16 or 32!"
  91:..\..\..\lvgl\version_6.1.2\lvgl/src/lv_hal/../lv_misc/lv_color.h **** #endif
  92:..\..\..\lvgl\version_6.1.2\lvgl/src/lv_hal/../lv_misc/lv_color.h **** 
  93:..\..\..\lvgl\version_6.1.2\lvgl/src/lv_hal/../lv_misc/lv_color.h **** /*---------------------------------------
  94:..\..\..\lvgl\version_6.1.2\lvgl/src/lv_hal/../lv_misc/lv_color.h ****  * Macros for all existing  color depths
  95:..\..\..\lvgl\version_6.1.2\lvgl/src/lv_hal/../lv_misc/lv_color.h ****  * to set/get values of the color channels
  96:..\..\..\lvgl\version_6.1.2\lvgl/src/lv_hal/../lv_misc/lv_color.h ****  *------------------------------------------*/
  97:..\..\..\lvgl\version_6.1.2\lvgl/src/lv_hal/../lv_misc/lv_color.h **** # define LV_COLOR_SET_R1(c, v) (c).ch.red = (uint8_t)((v) & 0x1);
  98:..\..\..\lvgl\version_6.1.2\lvgl/src/lv_hal/../lv_misc/lv_color.h **** # define LV_COLOR_SET_G1(c, v) (c).ch.green = (uint8_t)((v) & 0x1);
  99:..\..\..\lvgl\version_6.1.2\lvgl/src/lv_hal/../lv_misc/lv_color.h **** # define LV_COLOR_SET_B1(c, v) (c).ch.blue = (uint8_t)((v) & 0x1);
 100:..\..\..\lvgl\version_6.1.2\lvgl/src/lv_hal/../lv_misc/lv_color.h **** # define LV_COLOR_SET_A1(c, v)
 101:..\..\..\lvgl\version_6.1.2\lvgl/src/lv_hal/../lv_misc/lv_color.h **** 
 102:..\..\..\lvgl\version_6.1.2\lvgl/src/lv_hal/../lv_misc/lv_color.h **** # define LV_COLOR_GET_R1(c) (c).ch.red
 103:..\..\..\lvgl\version_6.1.2\lvgl/src/lv_hal/../lv_misc/lv_color.h **** # define LV_COLOR_GET_G1(c) (c).ch.green
 104:..\..\..\lvgl\version_6.1.2\lvgl/src/lv_hal/../lv_misc/lv_color.h **** # define LV_COLOR_GET_B1(c) (c).ch.blue
 105:..\..\..\lvgl\version_6.1.2\lvgl/src/lv_hal/../lv_misc/lv_color.h **** # define LV_COLOR_GET_A1(c) 1
 106:..\..\..\lvgl\version_6.1.2\lvgl/src/lv_hal/../lv_misc/lv_color.h **** 
 107:..\..\..\lvgl\version_6.1.2\lvgl/src/lv_hal/../lv_misc/lv_color.h **** # define LV_COLOR_SET_R8(c, v) (c).ch.red = (uint8_t)(v) & 0x7U;
 108:..\..\..\lvgl\version_6.1.2\lvgl/src/lv_hal/../lv_misc/lv_color.h **** # define LV_COLOR_SET_G8(c, v) (c).ch.green = (uint8_t)(v) & 0x7U;
 109:..\..\..\lvgl\version_6.1.2\lvgl/src/lv_hal/../lv_misc/lv_color.h **** # define LV_COLOR_SET_B8(c, v) (c).ch.blue = (uint8_t)(v) & 0x3U;
 110:..\..\..\lvgl\version_6.1.2\lvgl/src/lv_hal/../lv_misc/lv_color.h **** # define LV_COLOR_SET_A8(c, v) do {} while(0)
 111:..\..\..\lvgl\version_6.1.2\lvgl/src/lv_hal/../lv_misc/lv_color.h **** 
 112:..\..\..\lvgl\version_6.1.2\lvgl/src/lv_hal/../lv_misc/lv_color.h **** # define LV_COLOR_GET_R8(c) (c).ch.red
 113:..\..\..\lvgl\version_6.1.2\lvgl/src/lv_hal/../lv_misc/lv_color.h **** # define LV_COLOR_GET_G8(c) (c).ch.green
 114:..\..\..\lvgl\version_6.1.2\lvgl/src/lv_hal/../lv_misc/lv_color.h **** # define LV_COLOR_GET_B8(c) (c).ch.blue
 115:..\..\..\lvgl\version_6.1.2\lvgl/src/lv_hal/../lv_misc/lv_color.h **** # define LV_COLOR_GET_A8(c) 0xFF
 116:..\..\..\lvgl\version_6.1.2\lvgl/src/lv_hal/../lv_misc/lv_color.h **** 
 117:..\..\..\lvgl\version_6.1.2\lvgl/src/lv_hal/../lv_misc/lv_color.h **** # define LV_COLOR_SET_R16(c, v) (c).ch.red = (uint8_t)(v) & 0x1FU;
 118:..\..\..\lvgl\version_6.1.2\lvgl/src/lv_hal/../lv_misc/lv_color.h **** # define LV_COLOR_SET_G16(c, v) (c).ch.green = (uint8_t)(v) & 0x3FU;
 119:..\..\..\lvgl\version_6.1.2\lvgl/src/lv_hal/../lv_misc/lv_color.h **** # define LV_COLOR_SET_G16_SWAP(c, v) {(c).ch.green_h = (uint8_t)(((v) >> 3) & 0x7); (c).ch.green_l 
 120:..\..\..\lvgl\version_6.1.2\lvgl/src/lv_hal/../lv_misc/lv_color.h **** # define LV_COLOR_SET_B16(c, v) (c).ch.blue = (uint8_t)(v) & 0x1FU;
 121:..\..\..\lvgl\version_6.1.2\lvgl/src/lv_hal/../lv_misc/lv_color.h **** # define LV_COLOR_SET_A16(c, v) do {} while(0)
 122:..\..\..\lvgl\version_6.1.2\lvgl/src/lv_hal/../lv_misc/lv_color.h **** 
 123:..\..\..\lvgl\version_6.1.2\lvgl/src/lv_hal/../lv_misc/lv_color.h **** # define LV_COLOR_GET_R16(c) (c).ch.red
 124:..\..\..\lvgl\version_6.1.2\lvgl/src/lv_hal/../lv_misc/lv_color.h **** # define LV_COLOR_GET_G16(c) (c).ch.green
 125:..\..\..\lvgl\version_6.1.2\lvgl/src/lv_hal/../lv_misc/lv_color.h **** # define LV_COLOR_GET_G16_SWAP(c) (((c).ch.green_h << 3) + (c).ch.green_l)
 126:..\..\..\lvgl\version_6.1.2\lvgl/src/lv_hal/../lv_misc/lv_color.h **** # define LV_COLOR_GET_B16(c) (c).ch.blue
 127:..\..\..\lvgl\version_6.1.2\lvgl/src/lv_hal/../lv_misc/lv_color.h **** # define LV_COLOR_GET_A16(c) 0xFF
 128:..\..\..\lvgl\version_6.1.2\lvgl/src/lv_hal/../lv_misc/lv_color.h **** 
 129:..\..\..\lvgl\version_6.1.2\lvgl/src/lv_hal/../lv_misc/lv_color.h **** # define LV_COLOR_SET_R32(c, v) (c).ch.red = (uint32_t)((v) & 0xFF);
 130:..\..\..\lvgl\version_6.1.2\lvgl/src/lv_hal/../lv_misc/lv_color.h **** # define LV_COLOR_SET_G32(c, v) (c).ch.green = (uint32_t)((v) & 0xFF);
 131:..\..\..\lvgl\version_6.1.2\lvgl/src/lv_hal/../lv_misc/lv_color.h **** # define LV_COLOR_SET_B32(c, v) (c).ch.blue = (uint32_t)((v) & 0xFF);
 132:..\..\..\lvgl\version_6.1.2\lvgl/src/lv_hal/../lv_misc/lv_color.h **** # define LV_COLOR_SET_A32(c, v) (c).ch.alpha = (uint32_t)((v) & 0xFF);
 133:..\..\..\lvgl\version_6.1.2\lvgl/src/lv_hal/../lv_misc/lv_color.h **** 
 134:..\..\..\lvgl\version_6.1.2\lvgl/src/lv_hal/../lv_misc/lv_color.h **** # define LV_COLOR_GET_R32(c) (c).ch.red
 135:..\..\..\lvgl\version_6.1.2\lvgl/src/lv_hal/../lv_misc/lv_color.h **** # define LV_COLOR_GET_G32(c) (c).ch.green
 136:..\..\..\lvgl\version_6.1.2\lvgl/src/lv_hal/../lv_misc/lv_color.h **** # define LV_COLOR_GET_B32(c) (c).ch.blue
 137:..\..\..\lvgl\version_6.1.2\lvgl/src/lv_hal/../lv_misc/lv_color.h **** # define LV_COLOR_GET_A32(c) (c).ch.alpha
 138:..\..\..\lvgl\version_6.1.2\lvgl/src/lv_hal/../lv_misc/lv_color.h **** 
 139:..\..\..\lvgl\version_6.1.2\lvgl/src/lv_hal/../lv_misc/lv_color.h **** 
 140:..\..\..\lvgl\version_6.1.2\lvgl/src/lv_hal/../lv_misc/lv_color.h **** /*---------------------------------------
 141:..\..\..\lvgl\version_6.1.2\lvgl/src/lv_hal/../lv_misc/lv_color.h ****  * Macros for the current color depth
 142:..\..\..\lvgl\version_6.1.2\lvgl/src/lv_hal/../lv_misc/lv_color.h ****  * to set/get values of the color channels
 143:..\..\..\lvgl\version_6.1.2\lvgl/src/lv_hal/../lv_misc/lv_color.h ****  *------------------------------------------*/
ARM GAS  C:\Users\chris\AppData\Local\Temp\cctP47hK.s 			page 4


 144:..\..\..\lvgl\version_6.1.2\lvgl/src/lv_hal/../lv_misc/lv_color.h **** #if LV_COLOR_DEPTH == 1
 145:..\..\..\lvgl\version_6.1.2\lvgl/src/lv_hal/../lv_misc/lv_color.h **** # define LV_COLOR_SET_R(c, v) LV_COLOR_SET_R1(c,v)
 146:..\..\..\lvgl\version_6.1.2\lvgl/src/lv_hal/../lv_misc/lv_color.h **** # define LV_COLOR_SET_G(c, v) LV_COLOR_SET_G1(c,v)
 147:..\..\..\lvgl\version_6.1.2\lvgl/src/lv_hal/../lv_misc/lv_color.h **** # define LV_COLOR_SET_B(c, v) LV_COLOR_SET_B1(c,v)
 148:..\..\..\lvgl\version_6.1.2\lvgl/src/lv_hal/../lv_misc/lv_color.h **** # define LV_COLOR_SET_A(c, v) LV_COLOR_SET_A1(c,v)
 149:..\..\..\lvgl\version_6.1.2\lvgl/src/lv_hal/../lv_misc/lv_color.h **** 
 150:..\..\..\lvgl\version_6.1.2\lvgl/src/lv_hal/../lv_misc/lv_color.h **** # define LV_COLOR_GET_R(c) LV_COLOR_GET_R1(c)
 151:..\..\..\lvgl\version_6.1.2\lvgl/src/lv_hal/../lv_misc/lv_color.h **** # define LV_COLOR_GET_G(c) LV_COLOR_GET_G1(c)
 152:..\..\..\lvgl\version_6.1.2\lvgl/src/lv_hal/../lv_misc/lv_color.h **** # define LV_COLOR_GET_B(c) LV_COLOR_GET_B1(c)
 153:..\..\..\lvgl\version_6.1.2\lvgl/src/lv_hal/../lv_misc/lv_color.h **** # define LV_COLOR_GET_A(c) LV_COLOR_GET_A1(c)
 154:..\..\..\lvgl\version_6.1.2\lvgl/src/lv_hal/../lv_misc/lv_color.h **** 
 155:..\..\..\lvgl\version_6.1.2\lvgl/src/lv_hal/../lv_misc/lv_color.h **** #elif LV_COLOR_DEPTH == 8
 156:..\..\..\lvgl\version_6.1.2\lvgl/src/lv_hal/../lv_misc/lv_color.h **** # define LV_COLOR_SET_R(c, v) LV_COLOR_SET_R8(c,v)
 157:..\..\..\lvgl\version_6.1.2\lvgl/src/lv_hal/../lv_misc/lv_color.h **** # define LV_COLOR_SET_G(c, v) LV_COLOR_SET_G8(c,v)
 158:..\..\..\lvgl\version_6.1.2\lvgl/src/lv_hal/../lv_misc/lv_color.h **** # define LV_COLOR_SET_B(c, v) LV_COLOR_SET_B8(c,v)
 159:..\..\..\lvgl\version_6.1.2\lvgl/src/lv_hal/../lv_misc/lv_color.h **** # define LV_COLOR_SET_A(c, v) LV_COLOR_SET_A8(c,v)
 160:..\..\..\lvgl\version_6.1.2\lvgl/src/lv_hal/../lv_misc/lv_color.h **** 
 161:..\..\..\lvgl\version_6.1.2\lvgl/src/lv_hal/../lv_misc/lv_color.h **** # define LV_COLOR_GET_R(c) LV_COLOR_GET_R8(c)
 162:..\..\..\lvgl\version_6.1.2\lvgl/src/lv_hal/../lv_misc/lv_color.h **** # define LV_COLOR_GET_G(c) LV_COLOR_GET_G8(c)
 163:..\..\..\lvgl\version_6.1.2\lvgl/src/lv_hal/../lv_misc/lv_color.h **** # define LV_COLOR_GET_B(c) LV_COLOR_GET_B8(c)
 164:..\..\..\lvgl\version_6.1.2\lvgl/src/lv_hal/../lv_misc/lv_color.h **** # define LV_COLOR_GET_A(c) LV_COLOR_GET_A8(c)
 165:..\..\..\lvgl\version_6.1.2\lvgl/src/lv_hal/../lv_misc/lv_color.h **** 
 166:..\..\..\lvgl\version_6.1.2\lvgl/src/lv_hal/../lv_misc/lv_color.h **** #elif LV_COLOR_DEPTH == 16
 167:..\..\..\lvgl\version_6.1.2\lvgl/src/lv_hal/../lv_misc/lv_color.h **** # define LV_COLOR_SET_R(c, v) LV_COLOR_SET_R16(c,v)
 168:..\..\..\lvgl\version_6.1.2\lvgl/src/lv_hal/../lv_misc/lv_color.h **** # if LV_COLOR_16_SWAP == 0
 169:..\..\..\lvgl\version_6.1.2\lvgl/src/lv_hal/../lv_misc/lv_color.h **** #   define LV_COLOR_SET_G(c, v) LV_COLOR_SET_G16(c,v)
 170:..\..\..\lvgl\version_6.1.2\lvgl/src/lv_hal/../lv_misc/lv_color.h **** # else
 171:..\..\..\lvgl\version_6.1.2\lvgl/src/lv_hal/../lv_misc/lv_color.h **** #   define LV_COLOR_SET_G(c, v) LV_COLOR_SET_G16_SWAP(c,v)
 172:..\..\..\lvgl\version_6.1.2\lvgl/src/lv_hal/../lv_misc/lv_color.h **** # endif
 173:..\..\..\lvgl\version_6.1.2\lvgl/src/lv_hal/../lv_misc/lv_color.h **** # define LV_COLOR_SET_B(c, v) LV_COLOR_SET_B16(c,v)
 174:..\..\..\lvgl\version_6.1.2\lvgl/src/lv_hal/../lv_misc/lv_color.h **** # define LV_COLOR_SET_A(c, v) LV_COLOR_SET_A16(c,v)
 175:..\..\..\lvgl\version_6.1.2\lvgl/src/lv_hal/../lv_misc/lv_color.h **** 
 176:..\..\..\lvgl\version_6.1.2\lvgl/src/lv_hal/../lv_misc/lv_color.h **** # define LV_COLOR_GET_R(c) LV_COLOR_GET_R16(c)
 177:..\..\..\lvgl\version_6.1.2\lvgl/src/lv_hal/../lv_misc/lv_color.h **** # if LV_COLOR_16_SWAP == 0
 178:..\..\..\lvgl\version_6.1.2\lvgl/src/lv_hal/../lv_misc/lv_color.h **** #   define LV_COLOR_GET_G(c) LV_COLOR_GET_G16(c)
 179:..\..\..\lvgl\version_6.1.2\lvgl/src/lv_hal/../lv_misc/lv_color.h **** # else
 180:..\..\..\lvgl\version_6.1.2\lvgl/src/lv_hal/../lv_misc/lv_color.h **** #   define LV_COLOR_GET_G(c) LV_COLOR_GET_G16_SWAP(c)
 181:..\..\..\lvgl\version_6.1.2\lvgl/src/lv_hal/../lv_misc/lv_color.h **** # endif
 182:..\..\..\lvgl\version_6.1.2\lvgl/src/lv_hal/../lv_misc/lv_color.h **** # define LV_COLOR_GET_B(c)   LV_COLOR_GET_B16(c)
 183:..\..\..\lvgl\version_6.1.2\lvgl/src/lv_hal/../lv_misc/lv_color.h **** # define LV_COLOR_GET_A(c)   LV_COLOR_GET_A16(c)
 184:..\..\..\lvgl\version_6.1.2\lvgl/src/lv_hal/../lv_misc/lv_color.h **** 
 185:..\..\..\lvgl\version_6.1.2\lvgl/src/lv_hal/../lv_misc/lv_color.h **** #elif LV_COLOR_DEPTH == 32
 186:..\..\..\lvgl\version_6.1.2\lvgl/src/lv_hal/../lv_misc/lv_color.h **** # define LV_COLOR_SET_R(c, v) LV_COLOR_SET_R32(c,v)
 187:..\..\..\lvgl\version_6.1.2\lvgl/src/lv_hal/../lv_misc/lv_color.h **** # define LV_COLOR_SET_G(c, v) LV_COLOR_SET_G32(c,v)
 188:..\..\..\lvgl\version_6.1.2\lvgl/src/lv_hal/../lv_misc/lv_color.h **** # define LV_COLOR_SET_B(c, v) LV_COLOR_SET_B32(c,v)
 189:..\..\..\lvgl\version_6.1.2\lvgl/src/lv_hal/../lv_misc/lv_color.h **** # define LV_COLOR_SET_A(c, v) LV_COLOR_SET_A32(c,v)
 190:..\..\..\lvgl\version_6.1.2\lvgl/src/lv_hal/../lv_misc/lv_color.h **** 
 191:..\..\..\lvgl\version_6.1.2\lvgl/src/lv_hal/../lv_misc/lv_color.h **** # define LV_COLOR_GET_R(c) LV_COLOR_GET_R32(c)
 192:..\..\..\lvgl\version_6.1.2\lvgl/src/lv_hal/../lv_misc/lv_color.h **** # define LV_COLOR_GET_G(c) LV_COLOR_GET_G32(c)
 193:..\..\..\lvgl\version_6.1.2\lvgl/src/lv_hal/../lv_misc/lv_color.h **** # define LV_COLOR_GET_B(c) LV_COLOR_GET_B32(c)
 194:..\..\..\lvgl\version_6.1.2\lvgl/src/lv_hal/../lv_misc/lv_color.h **** # define LV_COLOR_GET_A(c) LV_COLOR_GET_A32(c)
 195:..\..\..\lvgl\version_6.1.2\lvgl/src/lv_hal/../lv_misc/lv_color.h **** #endif
 196:..\..\..\lvgl\version_6.1.2\lvgl/src/lv_hal/../lv_misc/lv_color.h **** 
 197:..\..\..\lvgl\version_6.1.2\lvgl/src/lv_hal/../lv_misc/lv_color.h **** /**********************
 198:..\..\..\lvgl\version_6.1.2\lvgl/src/lv_hal/../lv_misc/lv_color.h ****  *      TYPEDEFS
 199:..\..\..\lvgl\version_6.1.2\lvgl/src/lv_hal/../lv_misc/lv_color.h ****  **********************/
 200:..\..\..\lvgl\version_6.1.2\lvgl/src/lv_hal/../lv_misc/lv_color.h **** 
ARM GAS  C:\Users\chris\AppData\Local\Temp\cctP47hK.s 			page 5


 201:..\..\..\lvgl\version_6.1.2\lvgl/src/lv_hal/../lv_misc/lv_color.h **** typedef union
 202:..\..\..\lvgl\version_6.1.2\lvgl/src/lv_hal/../lv_misc/lv_color.h **** {
 203:..\..\..\lvgl\version_6.1.2\lvgl/src/lv_hal/../lv_misc/lv_color.h ****     struct
 204:..\..\..\lvgl\version_6.1.2\lvgl/src/lv_hal/../lv_misc/lv_color.h ****     {
 205:..\..\..\lvgl\version_6.1.2\lvgl/src/lv_hal/../lv_misc/lv_color.h ****         uint8_t blue : 1;
 206:..\..\..\lvgl\version_6.1.2\lvgl/src/lv_hal/../lv_misc/lv_color.h ****         uint8_t green : 1;
 207:..\..\..\lvgl\version_6.1.2\lvgl/src/lv_hal/../lv_misc/lv_color.h ****         uint8_t red : 1;
 208:..\..\..\lvgl\version_6.1.2\lvgl/src/lv_hal/../lv_misc/lv_color.h ****     } ch;
 209:..\..\..\lvgl\version_6.1.2\lvgl/src/lv_hal/../lv_misc/lv_color.h ****     uint8_t full;
 210:..\..\..\lvgl\version_6.1.2\lvgl/src/lv_hal/../lv_misc/lv_color.h **** } lv_color1_t;
 211:..\..\..\lvgl\version_6.1.2\lvgl/src/lv_hal/../lv_misc/lv_color.h **** 
 212:..\..\..\lvgl\version_6.1.2\lvgl/src/lv_hal/../lv_misc/lv_color.h **** typedef union
 213:..\..\..\lvgl\version_6.1.2\lvgl/src/lv_hal/../lv_misc/lv_color.h **** {
 214:..\..\..\lvgl\version_6.1.2\lvgl/src/lv_hal/../lv_misc/lv_color.h ****     struct
 215:..\..\..\lvgl\version_6.1.2\lvgl/src/lv_hal/../lv_misc/lv_color.h ****     {
 216:..\..\..\lvgl\version_6.1.2\lvgl/src/lv_hal/../lv_misc/lv_color.h ****         uint8_t blue : 2;
 217:..\..\..\lvgl\version_6.1.2\lvgl/src/lv_hal/../lv_misc/lv_color.h ****         uint8_t green : 3;
 218:..\..\..\lvgl\version_6.1.2\lvgl/src/lv_hal/../lv_misc/lv_color.h ****         uint8_t red : 3;
 219:..\..\..\lvgl\version_6.1.2\lvgl/src/lv_hal/../lv_misc/lv_color.h ****     } ch;
 220:..\..\..\lvgl\version_6.1.2\lvgl/src/lv_hal/../lv_misc/lv_color.h ****     uint8_t full;
 221:..\..\..\lvgl\version_6.1.2\lvgl/src/lv_hal/../lv_misc/lv_color.h **** } lv_color8_t;
 222:..\..\..\lvgl\version_6.1.2\lvgl/src/lv_hal/../lv_misc/lv_color.h **** 
 223:..\..\..\lvgl\version_6.1.2\lvgl/src/lv_hal/../lv_misc/lv_color.h **** typedef union
 224:..\..\..\lvgl\version_6.1.2\lvgl/src/lv_hal/../lv_misc/lv_color.h **** {
 225:..\..\..\lvgl\version_6.1.2\lvgl/src/lv_hal/../lv_misc/lv_color.h ****     struct
 226:..\..\..\lvgl\version_6.1.2\lvgl/src/lv_hal/../lv_misc/lv_color.h ****     {
 227:..\..\..\lvgl\version_6.1.2\lvgl/src/lv_hal/../lv_misc/lv_color.h **** #if LV_COLOR_16_SWAP == 0
 228:..\..\..\lvgl\version_6.1.2\lvgl/src/lv_hal/../lv_misc/lv_color.h ****         uint16_t blue : 5;
 229:..\..\..\lvgl\version_6.1.2\lvgl/src/lv_hal/../lv_misc/lv_color.h ****         uint16_t green : 6;
 230:..\..\..\lvgl\version_6.1.2\lvgl/src/lv_hal/../lv_misc/lv_color.h ****         uint16_t red : 5;
 231:..\..\..\lvgl\version_6.1.2\lvgl/src/lv_hal/../lv_misc/lv_color.h **** #else
 232:..\..\..\lvgl\version_6.1.2\lvgl/src/lv_hal/../lv_misc/lv_color.h ****         uint16_t green_h : 3;
 233:..\..\..\lvgl\version_6.1.2\lvgl/src/lv_hal/../lv_misc/lv_color.h ****         uint16_t red : 5;
 234:..\..\..\lvgl\version_6.1.2\lvgl/src/lv_hal/../lv_misc/lv_color.h ****         uint16_t blue : 5;
 235:..\..\..\lvgl\version_6.1.2\lvgl/src/lv_hal/../lv_misc/lv_color.h ****         uint16_t green_l : 3;
 236:..\..\..\lvgl\version_6.1.2\lvgl/src/lv_hal/../lv_misc/lv_color.h **** #endif
 237:..\..\..\lvgl\version_6.1.2\lvgl/src/lv_hal/../lv_misc/lv_color.h ****     } ch;
 238:..\..\..\lvgl\version_6.1.2\lvgl/src/lv_hal/../lv_misc/lv_color.h ****     uint16_t full;
 239:..\..\..\lvgl\version_6.1.2\lvgl/src/lv_hal/../lv_misc/lv_color.h **** } lv_color16_t;
 240:..\..\..\lvgl\version_6.1.2\lvgl/src/lv_hal/../lv_misc/lv_color.h **** 
 241:..\..\..\lvgl\version_6.1.2\lvgl/src/lv_hal/../lv_misc/lv_color.h **** typedef union
 242:..\..\..\lvgl\version_6.1.2\lvgl/src/lv_hal/../lv_misc/lv_color.h **** {
 243:..\..\..\lvgl\version_6.1.2\lvgl/src/lv_hal/../lv_misc/lv_color.h ****     struct
 244:..\..\..\lvgl\version_6.1.2\lvgl/src/lv_hal/../lv_misc/lv_color.h ****     {
 245:..\..\..\lvgl\version_6.1.2\lvgl/src/lv_hal/../lv_misc/lv_color.h ****         uint8_t blue;
 246:..\..\..\lvgl\version_6.1.2\lvgl/src/lv_hal/../lv_misc/lv_color.h ****         uint8_t green;
 247:..\..\..\lvgl\version_6.1.2\lvgl/src/lv_hal/../lv_misc/lv_color.h ****         uint8_t red;
 248:..\..\..\lvgl\version_6.1.2\lvgl/src/lv_hal/../lv_misc/lv_color.h ****         uint8_t alpha;
 249:..\..\..\lvgl\version_6.1.2\lvgl/src/lv_hal/../lv_misc/lv_color.h ****     } ch;
 250:..\..\..\lvgl\version_6.1.2\lvgl/src/lv_hal/../lv_misc/lv_color.h ****     uint32_t full;
 251:..\..\..\lvgl\version_6.1.2\lvgl/src/lv_hal/../lv_misc/lv_color.h **** } lv_color32_t;
 252:..\..\..\lvgl\version_6.1.2\lvgl/src/lv_hal/../lv_misc/lv_color.h **** 
 253:..\..\..\lvgl\version_6.1.2\lvgl/src/lv_hal/../lv_misc/lv_color.h **** #if LV_COLOR_DEPTH == 1
 254:..\..\..\lvgl\version_6.1.2\lvgl/src/lv_hal/../lv_misc/lv_color.h **** typedef uint8_t lv_color_int_t;
 255:..\..\..\lvgl\version_6.1.2\lvgl/src/lv_hal/../lv_misc/lv_color.h **** typedef lv_color1_t lv_color_t;
 256:..\..\..\lvgl\version_6.1.2\lvgl/src/lv_hal/../lv_misc/lv_color.h **** #elif LV_COLOR_DEPTH == 8
 257:..\..\..\lvgl\version_6.1.2\lvgl/src/lv_hal/../lv_misc/lv_color.h **** typedef uint8_t lv_color_int_t;
ARM GAS  C:\Users\chris\AppData\Local\Temp\cctP47hK.s 			page 6


 258:..\..\..\lvgl\version_6.1.2\lvgl/src/lv_hal/../lv_misc/lv_color.h **** typedef lv_color8_t lv_color_t;
 259:..\..\..\lvgl\version_6.1.2\lvgl/src/lv_hal/../lv_misc/lv_color.h **** #elif LV_COLOR_DEPTH == 16
 260:..\..\..\lvgl\version_6.1.2\lvgl/src/lv_hal/../lv_misc/lv_color.h **** typedef uint16_t lv_color_int_t;
 261:..\..\..\lvgl\version_6.1.2\lvgl/src/lv_hal/../lv_misc/lv_color.h **** typedef lv_color16_t lv_color_t;
 262:..\..\..\lvgl\version_6.1.2\lvgl/src/lv_hal/../lv_misc/lv_color.h **** #elif LV_COLOR_DEPTH == 32
 263:..\..\..\lvgl\version_6.1.2\lvgl/src/lv_hal/../lv_misc/lv_color.h **** typedef uint32_t lv_color_int_t;
 264:..\..\..\lvgl\version_6.1.2\lvgl/src/lv_hal/../lv_misc/lv_color.h **** typedef lv_color32_t lv_color_t;
 265:..\..\..\lvgl\version_6.1.2\lvgl/src/lv_hal/../lv_misc/lv_color.h **** #else
 266:..\..\..\lvgl\version_6.1.2\lvgl/src/lv_hal/../lv_misc/lv_color.h **** #error "Invalid LV_COLOR_DEPTH in lv_conf.h! Set it to 1, 8, 16 or 32!"
 267:..\..\..\lvgl\version_6.1.2\lvgl/src/lv_hal/../lv_misc/lv_color.h **** #endif
 268:..\..\..\lvgl\version_6.1.2\lvgl/src/lv_hal/../lv_misc/lv_color.h **** 
 269:..\..\..\lvgl\version_6.1.2\lvgl/src/lv_hal/../lv_misc/lv_color.h **** typedef uint8_t lv_opa_t;
 270:..\..\..\lvgl\version_6.1.2\lvgl/src/lv_hal/../lv_misc/lv_color.h **** 
 271:..\..\..\lvgl\version_6.1.2\lvgl/src/lv_hal/../lv_misc/lv_color.h **** typedef struct
 272:..\..\..\lvgl\version_6.1.2\lvgl/src/lv_hal/../lv_misc/lv_color.h **** {
 273:..\..\..\lvgl\version_6.1.2\lvgl/src/lv_hal/../lv_misc/lv_color.h ****     uint16_t h;
 274:..\..\..\lvgl\version_6.1.2\lvgl/src/lv_hal/../lv_misc/lv_color.h ****     uint8_t s;
 275:..\..\..\lvgl\version_6.1.2\lvgl/src/lv_hal/../lv_misc/lv_color.h ****     uint8_t v;
 276:..\..\..\lvgl\version_6.1.2\lvgl/src/lv_hal/../lv_misc/lv_color.h **** } lv_color_hsv_t;
 277:..\..\..\lvgl\version_6.1.2\lvgl/src/lv_hal/../lv_misc/lv_color.h **** 
 278:..\..\..\lvgl\version_6.1.2\lvgl/src/lv_hal/../lv_misc/lv_color.h **** /**********************
 279:..\..\..\lvgl\version_6.1.2\lvgl/src/lv_hal/../lv_misc/lv_color.h ****  * GLOBAL PROTOTYPES
 280:..\..\..\lvgl\version_6.1.2\lvgl/src/lv_hal/../lv_misc/lv_color.h ****  **********************/
 281:..\..\..\lvgl\version_6.1.2\lvgl/src/lv_hal/../lv_misc/lv_color.h **** 
 282:..\..\..\lvgl\version_6.1.2\lvgl/src/lv_hal/../lv_misc/lv_color.h **** /*In color conversations:
 283:..\..\..\lvgl\version_6.1.2\lvgl/src/lv_hal/../lv_misc/lv_color.h ****  * - When converting to bigger color type the LSB weight of 1 LSB is calculated
 284:..\..\..\lvgl\version_6.1.2\lvgl/src/lv_hal/../lv_misc/lv_color.h ****  *   E.g. 16 bit Red has 5 bits
 285:..\..\..\lvgl\version_6.1.2\lvgl/src/lv_hal/../lv_misc/lv_color.h ****  *         8 bit Red has 2 bits
 286:..\..\..\lvgl\version_6.1.2\lvgl/src/lv_hal/../lv_misc/lv_color.h ****  *        ----------------------
 287:..\..\..\lvgl\version_6.1.2\lvgl/src/lv_hal/../lv_misc/lv_color.h ****  *        8 bit red LSB = (2^5 - 1) / (2^2 - 1) = 31 / 3 = 10
 288:..\..\..\lvgl\version_6.1.2\lvgl/src/lv_hal/../lv_misc/lv_color.h ****  *
 289:..\..\..\lvgl\version_6.1.2\lvgl/src/lv_hal/../lv_misc/lv_color.h ****  * - When calculating to smaller color type simply shift out the LSBs
 290:..\..\..\lvgl\version_6.1.2\lvgl/src/lv_hal/../lv_misc/lv_color.h ****  *   E.g.  8 bit Red has 2 bits
 291:..\..\..\lvgl\version_6.1.2\lvgl/src/lv_hal/../lv_misc/lv_color.h ****  *        16 bit Red has 5 bits
 292:..\..\..\lvgl\version_6.1.2\lvgl/src/lv_hal/../lv_misc/lv_color.h ****  *        ----------------------
 293:..\..\..\lvgl\version_6.1.2\lvgl/src/lv_hal/../lv_misc/lv_color.h ****  *         Shift right with 5 - 3 = 2
 294:..\..\..\lvgl\version_6.1.2\lvgl/src/lv_hal/../lv_misc/lv_color.h ****  */
 295:..\..\..\lvgl\version_6.1.2\lvgl/src/lv_hal/../lv_misc/lv_color.h **** 
 296:..\..\..\lvgl\version_6.1.2\lvgl/src/lv_hal/../lv_misc/lv_color.h **** static inline uint8_t lv_color_to1(lv_color_t color)
 297:..\..\..\lvgl\version_6.1.2\lvgl/src/lv_hal/../lv_misc/lv_color.h **** {
 298:..\..\..\lvgl\version_6.1.2\lvgl/src/lv_hal/../lv_misc/lv_color.h **** #if LV_COLOR_DEPTH == 1
 299:..\..\..\lvgl\version_6.1.2\lvgl/src/lv_hal/../lv_misc/lv_color.h ****     return color.full;
 300:..\..\..\lvgl\version_6.1.2\lvgl/src/lv_hal/../lv_misc/lv_color.h **** #elif LV_COLOR_DEPTH == 8
 301:..\..\..\lvgl\version_6.1.2\lvgl/src/lv_hal/../lv_misc/lv_color.h ****     if((LV_COLOR_GET_R(color) & 0x4) || (LV_COLOR_GET_G(color) & 0x4) || (LV_COLOR_GET_B(color) & 0
 302:..\..\..\lvgl\version_6.1.2\lvgl/src/lv_hal/../lv_misc/lv_color.h ****         return 1;
 303:..\..\..\lvgl\version_6.1.2\lvgl/src/lv_hal/../lv_misc/lv_color.h ****     } else {
 304:..\..\..\lvgl\version_6.1.2\lvgl/src/lv_hal/../lv_misc/lv_color.h ****         return 0;
 305:..\..\..\lvgl\version_6.1.2\lvgl/src/lv_hal/../lv_misc/lv_color.h ****     }
 306:..\..\..\lvgl\version_6.1.2\lvgl/src/lv_hal/../lv_misc/lv_color.h **** #elif LV_COLOR_DEPTH == 16
 307:..\..\..\lvgl\version_6.1.2\lvgl/src/lv_hal/../lv_misc/lv_color.h ****     if((LV_COLOR_GET_R(color) & 0x10) || (LV_COLOR_GET_G(color) & 0x20) || (LV_COLOR_GET_B(color) &
 308:..\..\..\lvgl\version_6.1.2\lvgl/src/lv_hal/../lv_misc/lv_color.h ****         return 1;
 309:..\..\..\lvgl\version_6.1.2\lvgl/src/lv_hal/../lv_misc/lv_color.h ****     } else {
 310:..\..\..\lvgl\version_6.1.2\lvgl/src/lv_hal/../lv_misc/lv_color.h ****         return 0;
 311:..\..\..\lvgl\version_6.1.2\lvgl/src/lv_hal/../lv_misc/lv_color.h ****     }
 312:..\..\..\lvgl\version_6.1.2\lvgl/src/lv_hal/../lv_misc/lv_color.h **** #elif LV_COLOR_DEPTH == 32
 313:..\..\..\lvgl\version_6.1.2\lvgl/src/lv_hal/../lv_misc/lv_color.h ****     if((LV_COLOR_GET_R(color) & 0x80) || (LV_COLOR_GET_G(color) & 0x80) || (LV_COLOR_GET_B(color) &
 314:..\..\..\lvgl\version_6.1.2\lvgl/src/lv_hal/../lv_misc/lv_color.h ****         return 1;
ARM GAS  C:\Users\chris\AppData\Local\Temp\cctP47hK.s 			page 7


 315:..\..\..\lvgl\version_6.1.2\lvgl/src/lv_hal/../lv_misc/lv_color.h ****     } else {
 316:..\..\..\lvgl\version_6.1.2\lvgl/src/lv_hal/../lv_misc/lv_color.h ****         return 0;
 317:..\..\..\lvgl\version_6.1.2\lvgl/src/lv_hal/../lv_misc/lv_color.h ****     }
 318:..\..\..\lvgl\version_6.1.2\lvgl/src/lv_hal/../lv_misc/lv_color.h **** #endif
 319:..\..\..\lvgl\version_6.1.2\lvgl/src/lv_hal/../lv_misc/lv_color.h **** }
 320:..\..\..\lvgl\version_6.1.2\lvgl/src/lv_hal/../lv_misc/lv_color.h **** 
 321:..\..\..\lvgl\version_6.1.2\lvgl/src/lv_hal/../lv_misc/lv_color.h **** static inline uint8_t lv_color_to8(lv_color_t color)
 322:..\..\..\lvgl\version_6.1.2\lvgl/src/lv_hal/../lv_misc/lv_color.h **** {
 323:..\..\..\lvgl\version_6.1.2\lvgl/src/lv_hal/../lv_misc/lv_color.h **** #if LV_COLOR_DEPTH == 1
 324:..\..\..\lvgl\version_6.1.2\lvgl/src/lv_hal/../lv_misc/lv_color.h ****     if(color.full == 0)
 325:..\..\..\lvgl\version_6.1.2\lvgl/src/lv_hal/../lv_misc/lv_color.h ****         return 0;
 326:..\..\..\lvgl\version_6.1.2\lvgl/src/lv_hal/../lv_misc/lv_color.h ****     else
 327:..\..\..\lvgl\version_6.1.2\lvgl/src/lv_hal/../lv_misc/lv_color.h ****         return 0xFF;
 328:..\..\..\lvgl\version_6.1.2\lvgl/src/lv_hal/../lv_misc/lv_color.h **** #elif LV_COLOR_DEPTH == 8
 329:..\..\..\lvgl\version_6.1.2\lvgl/src/lv_hal/../lv_misc/lv_color.h ****     return color.full;
 330:..\..\..\lvgl\version_6.1.2\lvgl/src/lv_hal/../lv_misc/lv_color.h **** #elif LV_COLOR_DEPTH == 16
 331:..\..\..\lvgl\version_6.1.2\lvgl/src/lv_hal/../lv_misc/lv_color.h ****     lv_color8_t ret;
 332:..\..\..\lvgl\version_6.1.2\lvgl/src/lv_hal/../lv_misc/lv_color.h ****     LV_COLOR_SET_R8(ret, LV_COLOR_GET_R(color) >> 2);   /* 5 - 3  = 2*/
 333:..\..\..\lvgl\version_6.1.2\lvgl/src/lv_hal/../lv_misc/lv_color.h ****     LV_COLOR_SET_G8(ret, LV_COLOR_GET_G(color) >> 3); /* 6 - 3  = 3*/
 334:..\..\..\lvgl\version_6.1.2\lvgl/src/lv_hal/../lv_misc/lv_color.h ****     LV_COLOR_SET_B8(ret, LV_COLOR_GET_B(color) >> 3);  /* 5 - 2  = 3*/
 335:..\..\..\lvgl\version_6.1.2\lvgl/src/lv_hal/../lv_misc/lv_color.h ****     return ret.full;
 336:..\..\..\lvgl\version_6.1.2\lvgl/src/lv_hal/../lv_misc/lv_color.h **** #elif LV_COLOR_DEPTH == 32
 337:..\..\..\lvgl\version_6.1.2\lvgl/src/lv_hal/../lv_misc/lv_color.h ****     lv_color8_t ret;
 338:..\..\..\lvgl\version_6.1.2\lvgl/src/lv_hal/../lv_misc/lv_color.h ****     LV_COLOR_SET_R8(ret, LV_COLOR_GET_R(color) >> 5);   /* 8 - 3  = 5*/
 339:..\..\..\lvgl\version_6.1.2\lvgl/src/lv_hal/../lv_misc/lv_color.h ****     LV_COLOR_SET_G8(ret, LV_COLOR_GET_G(color) >> 5); /* 8 - 3  = 5*/
 340:..\..\..\lvgl\version_6.1.2\lvgl/src/lv_hal/../lv_misc/lv_color.h ****     LV_COLOR_SET_B8(ret, LV_COLOR_GET_B(color) >> 6);  /* 8 - 2  = 6*/
 341:..\..\..\lvgl\version_6.1.2\lvgl/src/lv_hal/../lv_misc/lv_color.h ****     return ret.full;
 342:..\..\..\lvgl\version_6.1.2\lvgl/src/lv_hal/../lv_misc/lv_color.h **** #endif
 343:..\..\..\lvgl\version_6.1.2\lvgl/src/lv_hal/../lv_misc/lv_color.h **** }
 344:..\..\..\lvgl\version_6.1.2\lvgl/src/lv_hal/../lv_misc/lv_color.h **** 
 345:..\..\..\lvgl\version_6.1.2\lvgl/src/lv_hal/../lv_misc/lv_color.h **** static inline uint16_t lv_color_to16(lv_color_t color)
 346:..\..\..\lvgl\version_6.1.2\lvgl/src/lv_hal/../lv_misc/lv_color.h **** {
 347:..\..\..\lvgl\version_6.1.2\lvgl/src/lv_hal/../lv_misc/lv_color.h **** #if LV_COLOR_DEPTH == 1
 348:..\..\..\lvgl\version_6.1.2\lvgl/src/lv_hal/../lv_misc/lv_color.h ****     if(color.full == 0)
 349:..\..\..\lvgl\version_6.1.2\lvgl/src/lv_hal/../lv_misc/lv_color.h ****         return 0;
 350:..\..\..\lvgl\version_6.1.2\lvgl/src/lv_hal/../lv_misc/lv_color.h ****     else
 351:..\..\..\lvgl\version_6.1.2\lvgl/src/lv_hal/../lv_misc/lv_color.h ****         return 0xFFFF;
 352:..\..\..\lvgl\version_6.1.2\lvgl/src/lv_hal/../lv_misc/lv_color.h **** #elif LV_COLOR_DEPTH == 8
 353:..\..\..\lvgl\version_6.1.2\lvgl/src/lv_hal/../lv_misc/lv_color.h ****     lv_color16_t ret;
 354:..\..\..\lvgl\version_6.1.2\lvgl/src/lv_hal/../lv_misc/lv_color.h ****     LV_COLOR_SET_R16(ret, LV_COLOR_GET_R(color) * 4);     /*(2^5 - 1)/(2^3 - 1) = 31/7 = 4*/
 355:..\..\..\lvgl\version_6.1.2\lvgl/src/lv_hal/../lv_misc/lv_color.h **** #if LV_COLOR_16_SWAP == 0
 356:..\..\..\lvgl\version_6.1.2\lvgl/src/lv_hal/../lv_misc/lv_color.h ****     LV_COLOR_SET_G16(ret,  LV_COLOR_GET_G(color) * 9); /*(2^6 - 1)/(2^3 - 1) = 63/7 = 9*/
 357:..\..\..\lvgl\version_6.1.2\lvgl/src/lv_hal/../lv_misc/lv_color.h **** #else
 358:..\..\..\lvgl\version_6.1.2\lvgl/src/lv_hal/../lv_misc/lv_color.h ****     LV_COLOR_SET_G16_SWAP(ret, (LV_COLOR_GET_G(color) * 9)); /*(2^6 - 1)/(2^3 - 1) = 63/7 = 9*/
 359:..\..\..\lvgl\version_6.1.2\lvgl/src/lv_hal/../lv_misc/lv_color.h **** #endif
 360:..\..\..\lvgl\version_6.1.2\lvgl/src/lv_hal/../lv_misc/lv_color.h ****     LV_COLOR_SET_B16(ret, LV_COLOR_GET_B(color) * 10);  /*(2^5 - 1)/(2^2 - 1) = 31/3 = 10*/
 361:..\..\..\lvgl\version_6.1.2\lvgl/src/lv_hal/../lv_misc/lv_color.h ****     return ret.full;
 362:..\..\..\lvgl\version_6.1.2\lvgl/src/lv_hal/../lv_misc/lv_color.h **** #elif LV_COLOR_DEPTH == 16
 363:..\..\..\lvgl\version_6.1.2\lvgl/src/lv_hal/../lv_misc/lv_color.h ****     return color.full;
 364:..\..\..\lvgl\version_6.1.2\lvgl/src/lv_hal/../lv_misc/lv_color.h **** #elif LV_COLOR_DEPTH == 32
 365:..\..\..\lvgl\version_6.1.2\lvgl/src/lv_hal/../lv_misc/lv_color.h ****     lv_color16_t ret;
 366:..\..\..\lvgl\version_6.1.2\lvgl/src/lv_hal/../lv_misc/lv_color.h ****     LV_COLOR_SET_R16(ret, LV_COLOR_GET_R(color) >> 3);   /* 8 - 5  = 3*/
 367:..\..\..\lvgl\version_6.1.2\lvgl/src/lv_hal/../lv_misc/lv_color.h **** 
 368:..\..\..\lvgl\version_6.1.2\lvgl/src/lv_hal/../lv_misc/lv_color.h **** #if LV_COLOR_16_SWAP == 0
 369:..\..\..\lvgl\version_6.1.2\lvgl/src/lv_hal/../lv_misc/lv_color.h ****     LV_COLOR_SET_G16(ret, LV_COLOR_GET_G(color) >> 2); /* 8 - 6  = 2*/
 370:..\..\..\lvgl\version_6.1.2\lvgl/src/lv_hal/../lv_misc/lv_color.h **** #else
 371:..\..\..\lvgl\version_6.1.2\lvgl/src/lv_hal/../lv_misc/lv_color.h ****     LV_COLOR_SET_G16_SWAP(ret, ret.ch.green_h = (LV_COLOR_GET_G(color) >> 2); /*(2^6 - 1)/(2^3 - 1)
ARM GAS  C:\Users\chris\AppData\Local\Temp\cctP47hK.s 			page 8


 372:..\..\..\lvgl\version_6.1.2\lvgl/src/lv_hal/../lv_misc/lv_color.h **** #endif
 373:..\..\..\lvgl\version_6.1.2\lvgl/src/lv_hal/../lv_misc/lv_color.h ****     LV_COLOR_SET_B16(ret, LV_COLOR_GET_B(color) >> 3);  /* 8 - 5  = 3*/
 374:..\..\..\lvgl\version_6.1.2\lvgl/src/lv_hal/../lv_misc/lv_color.h ****     return ret.full;
 375:..\..\..\lvgl\version_6.1.2\lvgl/src/lv_hal/../lv_misc/lv_color.h **** #endif                         
 376:..\..\..\lvgl\version_6.1.2\lvgl/src/lv_hal/../lv_misc/lv_color.h **** }
 377:..\..\..\lvgl\version_6.1.2\lvgl/src/lv_hal/../lv_misc/lv_color.h **** 
 378:..\..\..\lvgl\version_6.1.2\lvgl/src/lv_hal/../lv_misc/lv_color.h **** static inline uint32_t lv_color_to32(lv_color_t color)
 379:..\..\..\lvgl\version_6.1.2\lvgl/src/lv_hal/../lv_misc/lv_color.h **** {
 380:..\..\..\lvgl\version_6.1.2\lvgl/src/lv_hal/../lv_misc/lv_color.h **** #if LV_COLOR_DEPTH == 1
 381:..\..\..\lvgl\version_6.1.2\lvgl/src/lv_hal/../lv_misc/lv_color.h ****     if(color.full == 0)
 382:..\..\..\lvgl\version_6.1.2\lvgl/src/lv_hal/../lv_misc/lv_color.h ****         return 0;
 383:..\..\..\lvgl\version_6.1.2\lvgl/src/lv_hal/../lv_misc/lv_color.h ****     else
 384:..\..\..\lvgl\version_6.1.2\lvgl/src/lv_hal/../lv_misc/lv_color.h ****         return 0xFFFFFFFF;
 385:..\..\..\lvgl\version_6.1.2\lvgl/src/lv_hal/../lv_misc/lv_color.h **** #elif LV_COLOR_DEPTH == 8
 386:..\..\..\lvgl\version_6.1.2\lvgl/src/lv_hal/../lv_misc/lv_color.h ****     lv_color32_t ret;
 387:..\..\..\lvgl\version_6.1.2\lvgl/src/lv_hal/../lv_misc/lv_color.h ****     LV_COLOR_SET_R32(ret, LV_COLOR_GET_R(color) * 36);     /*(2^8 - 1)/(2^3 - 1) = 255/7 = 36*/
 388:..\..\..\lvgl\version_6.1.2\lvgl/src/lv_hal/../lv_misc/lv_color.h ****     LV_COLOR_SET_G32(ret, LV_COLOR_GET_G(color) * 36); /*(2^8 - 1)/(2^3 - 1) = 255/7 = 36*/
 389:..\..\..\lvgl\version_6.1.2\lvgl/src/lv_hal/../lv_misc/lv_color.h ****     LV_COLOR_SET_B32(ret, LV_COLOR_GET_B(color) * 85);   /*(2^8 - 1)/(2^2 - 1) = 255/3 = 85*/
 390:..\..\..\lvgl\version_6.1.2\lvgl/src/lv_hal/../lv_misc/lv_color.h ****     LV_COLOR_SET_A32(ret, 0xFF);
 391:..\..\..\lvgl\version_6.1.2\lvgl/src/lv_hal/../lv_misc/lv_color.h ****     return ret.full;
 392:..\..\..\lvgl\version_6.1.2\lvgl/src/lv_hal/../lv_misc/lv_color.h **** #elif LV_COLOR_DEPTH == 16
 393:..\..\..\lvgl\version_6.1.2\lvgl/src/lv_hal/../lv_misc/lv_color.h ****     /**
 394:..\..\..\lvgl\version_6.1.2\lvgl/src/lv_hal/../lv_misc/lv_color.h ****      * The floating point math for conversion is:
 395:..\..\..\lvgl\version_6.1.2\lvgl/src/lv_hal/../lv_misc/lv_color.h ****      *  valueto = valuefrom * ( (2^bitsto - 1) / (float)(2^bitsfrom - 1) )
 396:..\..\..\lvgl\version_6.1.2\lvgl/src/lv_hal/../lv_misc/lv_color.h ****      * The faster integer math for conversion is:
 397:..\..\..\lvgl\version_6.1.2\lvgl/src/lv_hal/../lv_misc/lv_color.h ****      *  valueto = ( valuefrom * multiplier + adder ) >> divisor
 398:..\..\..\lvgl\version_6.1.2\lvgl/src/lv_hal/../lv_misc/lv_color.h ****      *   multiplier = FLOOR( ( (2^bitsto - 1) << divisor ) / (float)(2^bitsfrom - 1) )
 399:..\..\..\lvgl\version_6.1.2\lvgl/src/lv_hal/../lv_misc/lv_color.h ****      * 
 400:..\..\..\lvgl\version_6.1.2\lvgl/src/lv_hal/../lv_misc/lv_color.h ****      * Find the first divisor where ( adder >> divisor ) <= 0
 401:..\..\..\lvgl\version_6.1.2\lvgl/src/lv_hal/../lv_misc/lv_color.h ****      * 
 402:..\..\..\lvgl\version_6.1.2\lvgl/src/lv_hal/../lv_misc/lv_color.h ****      * 5-bit to 8-bit: ( 31 * multiplier + adder ) >> divisor = 255
 403:..\..\..\lvgl\version_6.1.2\lvgl/src/lv_hal/../lv_misc/lv_color.h ****      * divisor  multiplier  adder  min (0)  max (31)
 404:..\..\..\lvgl\version_6.1.2\lvgl/src/lv_hal/../lv_misc/lv_color.h ****      *       0           8      7        7       255
 405:..\..\..\lvgl\version_6.1.2\lvgl/src/lv_hal/../lv_misc/lv_color.h ****      *       1          16     14        7       255
 406:..\..\..\lvgl\version_6.1.2\lvgl/src/lv_hal/../lv_misc/lv_color.h ****      *       2          32     28        7       255
 407:..\..\..\lvgl\version_6.1.2\lvgl/src/lv_hal/../lv_misc/lv_color.h ****      *       3          65     25        3       255
 408:..\..\..\lvgl\version_6.1.2\lvgl/src/lv_hal/../lv_misc/lv_color.h ****      *       4         131     19        1       255
 409:..\..\..\lvgl\version_6.1.2\lvgl/src/lv_hal/../lv_misc/lv_color.h ****      *       5         263      7        0       255
 410:..\..\..\lvgl\version_6.1.2\lvgl/src/lv_hal/../lv_misc/lv_color.h ****      * 
 411:..\..\..\lvgl\version_6.1.2\lvgl/src/lv_hal/../lv_misc/lv_color.h ****      * 6-bit to 8-bit: 255 = ( 63 * multiplier + adder ) >> divisor
 412:..\..\..\lvgl\version_6.1.2\lvgl/src/lv_hal/../lv_misc/lv_color.h ****      * divisor  multiplier  adder  min (0)  max (63)
 413:..\..\..\lvgl\version_6.1.2\lvgl/src/lv_hal/../lv_misc/lv_color.h ****      *       0           4      3        3       255
 414:..\..\..\lvgl\version_6.1.2\lvgl/src/lv_hal/../lv_misc/lv_color.h ****      *       1           8      6        3       255
 415:..\..\..\lvgl\version_6.1.2\lvgl/src/lv_hal/../lv_misc/lv_color.h ****      *       2          16     12        3       255
 416:..\..\..\lvgl\version_6.1.2\lvgl/src/lv_hal/../lv_misc/lv_color.h ****      *       3          32     24        3       255
 417:..\..\..\lvgl\version_6.1.2\lvgl/src/lv_hal/../lv_misc/lv_color.h ****      *       4          64     48        3       255
 418:..\..\..\lvgl\version_6.1.2\lvgl/src/lv_hal/../lv_misc/lv_color.h ****      *       5         129     33        1       255
 419:..\..\..\lvgl\version_6.1.2\lvgl/src/lv_hal/../lv_misc/lv_color.h ****      *       6         259      3        0       255
 420:..\..\..\lvgl\version_6.1.2\lvgl/src/lv_hal/../lv_misc/lv_color.h ****      */
 421:..\..\..\lvgl\version_6.1.2\lvgl/src/lv_hal/../lv_misc/lv_color.h ****     lv_color32_t ret;
 422:..\..\..\lvgl\version_6.1.2\lvgl/src/lv_hal/../lv_misc/lv_color.h ****     LV_COLOR_SET_R32(ret, (LV_COLOR_GET_R(color) * 263 + 7 ) >> 5);
 423:..\..\..\lvgl\version_6.1.2\lvgl/src/lv_hal/../lv_misc/lv_color.h ****     LV_COLOR_SET_G32(ret, (LV_COLOR_GET_G(color) * 259 + 3 ) >> 6);
 424:..\..\..\lvgl\version_6.1.2\lvgl/src/lv_hal/../lv_misc/lv_color.h ****     LV_COLOR_SET_B32(ret, (LV_COLOR_GET_B(color) * 263 + 7 ) >> 5);
 425:..\..\..\lvgl\version_6.1.2\lvgl/src/lv_hal/../lv_misc/lv_color.h ****     LV_COLOR_SET_A32(ret, 0xFF);
 426:..\..\..\lvgl\version_6.1.2\lvgl/src/lv_hal/../lv_misc/lv_color.h ****     return ret.full;
 427:..\..\..\lvgl\version_6.1.2\lvgl/src/lv_hal/../lv_misc/lv_color.h **** #elif LV_COLOR_DEPTH == 32
 428:..\..\..\lvgl\version_6.1.2\lvgl/src/lv_hal/../lv_misc/lv_color.h ****     return color.full;
ARM GAS  C:\Users\chris\AppData\Local\Temp\cctP47hK.s 			page 9


 429:..\..\..\lvgl\version_6.1.2\lvgl/src/lv_hal/../lv_misc/lv_color.h **** #endif
 430:..\..\..\lvgl\version_6.1.2\lvgl/src/lv_hal/../lv_misc/lv_color.h **** }
 431:..\..\..\lvgl\version_6.1.2\lvgl/src/lv_hal/../lv_misc/lv_color.h **** 
 432:..\..\..\lvgl\version_6.1.2\lvgl/src/lv_hal/../lv_misc/lv_color.h **** static inline lv_color_t lv_color_mix(lv_color_t c1, lv_color_t c2, uint8_t mix)
 433:..\..\..\lvgl\version_6.1.2\lvgl/src/lv_hal/../lv_misc/lv_color.h **** {
 434:..\..\..\lvgl\version_6.1.2\lvgl/src/lv_hal/../lv_misc/lv_color.h ****     lv_color_t ret;
 435:..\..\..\lvgl\version_6.1.2\lvgl/src/lv_hal/../lv_misc/lv_color.h **** #if LV_COLOR_DEPTH != 1
 436:..\..\..\lvgl\version_6.1.2\lvgl/src/lv_hal/../lv_misc/lv_color.h ****     /*LV_COLOR_DEPTH == 8, 16 or 32*/
 437:..\..\..\lvgl\version_6.1.2\lvgl/src/lv_hal/../lv_misc/lv_color.h ****     LV_COLOR_SET_R(ret, (uint16_t)((uint16_t) LV_COLOR_GET_R(c1) * mix + LV_COLOR_GET_R(c2) * (255 
 438:..\..\..\lvgl\version_6.1.2\lvgl/src/lv_hal/../lv_misc/lv_color.h ****     LV_COLOR_SET_G(ret, (uint16_t)((uint16_t) LV_COLOR_GET_G(c1) * mix + LV_COLOR_GET_G(c2) * (255 
 439:..\..\..\lvgl\version_6.1.2\lvgl/src/lv_hal/../lv_misc/lv_color.h ****     LV_COLOR_SET_B(ret, (uint16_t)((uint16_t) LV_COLOR_GET_B(c1) * mix + LV_COLOR_GET_B(c2) * (255 
 440:..\..\..\lvgl\version_6.1.2\lvgl/src/lv_hal/../lv_misc/lv_color.h ****     LV_COLOR_SET_A(ret, 0xFF);
 441:..\..\..\lvgl\version_6.1.2\lvgl/src/lv_hal/../lv_misc/lv_color.h **** #else
 442:..\..\..\lvgl\version_6.1.2\lvgl/src/lv_hal/../lv_misc/lv_color.h ****     /*LV_COLOR_DEPTH == 1*/
 443:..\..\..\lvgl\version_6.1.2\lvgl/src/lv_hal/../lv_misc/lv_color.h ****     ret.full = mix > LV_OPA_50 ? c1.full : c2.full;
 444:..\..\..\lvgl\version_6.1.2\lvgl/src/lv_hal/../lv_misc/lv_color.h **** #endif
 445:..\..\..\lvgl\version_6.1.2\lvgl/src/lv_hal/../lv_misc/lv_color.h **** 
 446:..\..\..\lvgl\version_6.1.2\lvgl/src/lv_hal/../lv_misc/lv_color.h ****     return ret;
 447:..\..\..\lvgl\version_6.1.2\lvgl/src/lv_hal/../lv_misc/lv_color.h **** }
 448:..\..\..\lvgl\version_6.1.2\lvgl/src/lv_hal/../lv_misc/lv_color.h **** 
 449:..\..\..\lvgl\version_6.1.2\lvgl/src/lv_hal/../lv_misc/lv_color.h **** /**
 450:..\..\..\lvgl\version_6.1.2\lvgl/src/lv_hal/../lv_misc/lv_color.h ****  * Get the brightness of a color
 451:..\..\..\lvgl\version_6.1.2\lvgl/src/lv_hal/../lv_misc/lv_color.h ****  * @param color a color
 452:..\..\..\lvgl\version_6.1.2\lvgl/src/lv_hal/../lv_misc/lv_color.h ****  * @return the brightness [0..255]
 453:..\..\..\lvgl\version_6.1.2\lvgl/src/lv_hal/../lv_misc/lv_color.h ****  */
 454:..\..\..\lvgl\version_6.1.2\lvgl/src/lv_hal/../lv_misc/lv_color.h **** static inline uint8_t lv_color_brightness(lv_color_t color)
 455:..\..\..\lvgl\version_6.1.2\lvgl/src/lv_hal/../lv_misc/lv_color.h **** {
 456:..\..\..\lvgl\version_6.1.2\lvgl/src/lv_hal/../lv_misc/lv_color.h ****     lv_color32_t c32;
 457:..\..\..\lvgl\version_6.1.2\lvgl/src/lv_hal/../lv_misc/lv_color.h ****     c32.full        = lv_color_to32(color);
 458:..\..\..\lvgl\version_6.1.2\lvgl/src/lv_hal/../lv_misc/lv_color.h ****     uint16_t bright = (uint16_t)(3u * LV_COLOR_GET_R32(c32) + LV_COLOR_GET_B32(c32) + 4u * LV_COLOR
 459:..\..\..\lvgl\version_6.1.2\lvgl/src/lv_hal/../lv_misc/lv_color.h ****     return (uint8_t)(bright >> 3);
 460:..\..\..\lvgl\version_6.1.2\lvgl/src/lv_hal/../lv_misc/lv_color.h **** }
 461:..\..\..\lvgl\version_6.1.2\lvgl/src/lv_hal/../lv_misc/lv_color.h **** 
 462:..\..\..\lvgl\version_6.1.2\lvgl/src/lv_hal/../lv_misc/lv_color.h **** /* The most simple macro to create a color from R,G and B values */
 463:..\..\..\lvgl\version_6.1.2\lvgl/src/lv_hal/../lv_misc/lv_color.h **** #if LV_COLOR_DEPTH == 1
 464:..\..\..\lvgl\version_6.1.2\lvgl/src/lv_hal/../lv_misc/lv_color.h **** #define LV_COLOR_MAKE(r8, g8, b8) ((lv_color_t){.full = (uint8_t)((b8 >> 7) | (g8 >> 7) | (r8 >> 7)
 465:..\..\..\lvgl\version_6.1.2\lvgl/src/lv_hal/../lv_misc/lv_color.h **** #elif LV_COLOR_DEPTH == 8
 466:..\..\..\lvgl\version_6.1.2\lvgl/src/lv_hal/../lv_misc/lv_color.h **** #define LV_COLOR_MAKE(r8, g8, b8) ((lv_color_t){{(uint8_t)((b8 >> 6) & 0x3U), (uint8_t)((g8 >> 5) &
 467:..\..\..\lvgl\version_6.1.2\lvgl/src/lv_hal/../lv_misc/lv_color.h **** #elif LV_COLOR_DEPTH == 16
 468:..\..\..\lvgl\version_6.1.2\lvgl/src/lv_hal/../lv_misc/lv_color.h **** #if LV_COLOR_16_SWAP == 0
 469:..\..\..\lvgl\version_6.1.2\lvgl/src/lv_hal/../lv_misc/lv_color.h **** #define LV_COLOR_MAKE(r8, g8, b8) ((lv_color_t){{(uint16_t)((b8 >> 3) & 0x1FU), (uint16_t)((g8 >> 2
 470:..\..\..\lvgl\version_6.1.2\lvgl/src/lv_hal/../lv_misc/lv_color.h **** #else
 471:..\..\..\lvgl\version_6.1.2\lvgl/src/lv_hal/../lv_misc/lv_color.h **** #define LV_COLOR_MAKE(r8, g8, b8) ((lv_color_t){{(uint16_t)((g8 >> 5) & 0x7U), (uint16_t)((r8 >> 3)
 472:..\..\..\lvgl\version_6.1.2\lvgl/src/lv_hal/../lv_misc/lv_color.h **** #endif
 473:..\..\..\lvgl\version_6.1.2\lvgl/src/lv_hal/../lv_misc/lv_color.h **** #elif LV_COLOR_DEPTH == 32
 474:..\..\..\lvgl\version_6.1.2\lvgl/src/lv_hal/../lv_misc/lv_color.h **** #define LV_COLOR_MAKE(r8, g8, b8) ((lv_color_t){{b8, g8, r8, 0xff}}) /*Fix 0xff alpha*/
 475:..\..\..\lvgl\version_6.1.2\lvgl/src/lv_hal/../lv_misc/lv_color.h **** #endif
 476:..\..\..\lvgl\version_6.1.2\lvgl/src/lv_hal/../lv_misc/lv_color.h **** 
 477:..\..\..\lvgl\version_6.1.2\lvgl/src/lv_hal/../lv_misc/lv_color.h **** static inline lv_color_t lv_color_make(uint8_t r, uint8_t g, uint8_t b)
 478:..\..\..\lvgl\version_6.1.2\lvgl/src/lv_hal/../lv_misc/lv_color.h **** {
  29              		.loc 1 478 0
  30              		.cfi_startproc
  31              		@ args = 0, pretend = 0, frame = 8
  32              		@ frame_needed = 1, uses_anonymous_args = 0
  33              		@ link register save eliminated.
  34 0000 90B4     		push	{r4, r7}
  35              		.cfi_def_cfa_offset 8
ARM GAS  C:\Users\chris\AppData\Local\Temp\cctP47hK.s 			page 10


  36              		.cfi_offset 4, -8
  37              		.cfi_offset 7, -4
  38 0002 82B0     		sub	sp, sp, #8
  39              		.cfi_def_cfa_offset 16
  40 0004 00AF     		add	r7, sp, #0
  41              		.cfi_def_cfa_register 7
  42 0006 0446     		mov	r4, r0
  43 0008 0846     		mov	r0, r1
  44 000a 1146     		mov	r1, r2
  45 000c 2246     		mov	r2, r4
  46 000e FA71     		strb	r2, [r7, #7]
  47 0010 0246     		mov	r2, r0
  48 0012 BA71     		strb	r2, [r7, #6]
  49 0014 0A46     		mov	r2, r1
  50 0016 7A71     		strb	r2, [r7, #5]
 479:..\..\..\lvgl\version_6.1.2\lvgl/src/lv_hal/../lv_misc/lv_color.h ****     return LV_COLOR_MAKE(r, g, b);
  51              		.loc 1 479 0
  52 0018 7A79     		ldrb	r2, [r7, #5]
  53 001a 62F30703 		bfi	r3, r2, #0, #8
  54 001e BA79     		ldrb	r2, [r7, #6]
  55 0020 62F30F23 		bfi	r3, r2, #8, #8
  56 0024 FA79     		ldrb	r2, [r7, #7]
  57 0026 62F31743 		bfi	r3, r2, #16, #8
  58 002a 43F07F43 		orr	r3, r3, #-16777216
 480:..\..\..\lvgl\version_6.1.2\lvgl/src/lv_hal/../lv_misc/lv_color.h **** }
  59              		.loc 1 480 0
  60 002e 1846     		mov	r0, r3
  61 0030 0837     		adds	r7, r7, #8
  62              		.cfi_def_cfa_offset 8
  63 0032 BD46     		mov	sp, r7
  64              		.cfi_def_cfa_register 13
  65              		@ sp needed
  66 0034 90BC     		pop	{r4, r7}
  67              		.cfi_restore 7
  68              		.cfi_restore 4
  69              		.cfi_def_cfa_offset 0
  70 0036 7047     		bx	lr
  71              		.cfi_endproc
  72              	.LFE588:
  73              		.size	lv_color_make, .-lv_color_make
  74              		.section	.text.lv_color_hex,"ax",%progbits
  75              		.align	2
  76              		.thumb
  77              		.thumb_func
  78              		.type	lv_color_hex, %function
  79              	lv_color_hex:
  80              	.LFB589:
 481:..\..\..\lvgl\version_6.1.2\lvgl/src/lv_hal/../lv_misc/lv_color.h **** 
 482:..\..\..\lvgl\version_6.1.2\lvgl/src/lv_hal/../lv_misc/lv_color.h **** static inline lv_color_t lv_color_hex(uint32_t c)
 483:..\..\..\lvgl\version_6.1.2\lvgl/src/lv_hal/../lv_misc/lv_color.h **** {
  81              		.loc 1 483 0
  82              		.cfi_startproc
  83              		@ args = 0, pretend = 0, frame = 8
  84              		@ frame_needed = 1, uses_anonymous_args = 0
  85 0000 80B5     		push	{r7, lr}
  86              		.cfi_def_cfa_offset 8
  87              		.cfi_offset 7, -8
ARM GAS  C:\Users\chris\AppData\Local\Temp\cctP47hK.s 			page 11


  88              		.cfi_offset 14, -4
  89 0002 82B0     		sub	sp, sp, #8
  90              		.cfi_def_cfa_offset 16
  91 0004 00AF     		add	r7, sp, #0
  92              		.cfi_def_cfa_register 7
  93 0006 7860     		str	r0, [r7, #4]
 484:..\..\..\lvgl\version_6.1.2\lvgl/src/lv_hal/../lv_misc/lv_color.h ****     return lv_color_make((uint8_t)((c >> 16) & 0xFF), (uint8_t)((c >> 8) & 0xFF), (uint8_t)(c & 0xF
  94              		.loc 1 484 0
  95 0008 7B68     		ldr	r3, [r7, #4]
  96 000a 1B0C     		lsrs	r3, r3, #16
  97 000c D8B2     		uxtb	r0, r3
  98 000e 7B68     		ldr	r3, [r7, #4]
  99 0010 1B0A     		lsrs	r3, r3, #8
 100 0012 DBB2     		uxtb	r3, r3
 101 0014 7A68     		ldr	r2, [r7, #4]
 102 0016 D2B2     		uxtb	r2, r2
 103 0018 1946     		mov	r1, r3
 104 001a FFF7FEFF 		bl	lv_color_make
 105 001e 0346     		mov	r3, r0
 485:..\..\..\lvgl\version_6.1.2\lvgl/src/lv_hal/../lv_misc/lv_color.h **** }
 106              		.loc 1 485 0
 107 0020 1846     		mov	r0, r3
 108 0022 0837     		adds	r7, r7, #8
 109              		.cfi_def_cfa_offset 8
 110 0024 BD46     		mov	sp, r7
 111              		.cfi_def_cfa_register 13
 112              		@ sp needed
 113 0026 80BD     		pop	{r7, pc}
 114              		.cfi_endproc
 115              	.LFE589:
 116              		.size	lv_color_hex, .-lv_color_hex
 117              		.section	.text.lv_scr_act,"ax",%progbits
 118              		.align	2
 119              		.thumb
 120              		.thumb_func
 121              		.type	lv_scr_act, %function
 122              	lv_scr_act:
 123              	.LFB613:
 124              		.file 2 "..\\..\\..\\lvgl\\version_6.1.2\\lvgl/src/lv_core/lv_disp.h"
   1:..\..\..\lvgl\version_6.1.2\lvgl/src/lv_core/lv_disp.h **** /**
   2:..\..\..\lvgl\version_6.1.2\lvgl/src/lv_core/lv_disp.h ****  * @file lv_disp.h
   3:..\..\..\lvgl\version_6.1.2\lvgl/src/lv_core/lv_disp.h ****  *
   4:..\..\..\lvgl\version_6.1.2\lvgl/src/lv_core/lv_disp.h ****  */
   5:..\..\..\lvgl\version_6.1.2\lvgl/src/lv_core/lv_disp.h **** 
   6:..\..\..\lvgl\version_6.1.2\lvgl/src/lv_core/lv_disp.h **** #ifndef LV_DISP_H
   7:..\..\..\lvgl\version_6.1.2\lvgl/src/lv_core/lv_disp.h **** #define LV_DISP_H
   8:..\..\..\lvgl\version_6.1.2\lvgl/src/lv_core/lv_disp.h **** 
   9:..\..\..\lvgl\version_6.1.2\lvgl/src/lv_core/lv_disp.h **** #ifdef __cplusplus
  10:..\..\..\lvgl\version_6.1.2\lvgl/src/lv_core/lv_disp.h **** extern "C" {
  11:..\..\..\lvgl\version_6.1.2\lvgl/src/lv_core/lv_disp.h **** #endif
  12:..\..\..\lvgl\version_6.1.2\lvgl/src/lv_core/lv_disp.h **** 
  13:..\..\..\lvgl\version_6.1.2\lvgl/src/lv_core/lv_disp.h **** /*********************
  14:..\..\..\lvgl\version_6.1.2\lvgl/src/lv_core/lv_disp.h ****  *      INCLUDES
  15:..\..\..\lvgl\version_6.1.2\lvgl/src/lv_core/lv_disp.h ****  *********************/
  16:..\..\..\lvgl\version_6.1.2\lvgl/src/lv_core/lv_disp.h **** #include "../lv_hal/lv_hal.h"
  17:..\..\..\lvgl\version_6.1.2\lvgl/src/lv_core/lv_disp.h **** #include "lv_obj.h"
  18:..\..\..\lvgl\version_6.1.2\lvgl/src/lv_core/lv_disp.h **** 
ARM GAS  C:\Users\chris\AppData\Local\Temp\cctP47hK.s 			page 12


  19:..\..\..\lvgl\version_6.1.2\lvgl/src/lv_core/lv_disp.h **** /*********************
  20:..\..\..\lvgl\version_6.1.2\lvgl/src/lv_core/lv_disp.h ****  *      DEFINES
  21:..\..\..\lvgl\version_6.1.2\lvgl/src/lv_core/lv_disp.h ****  *********************/
  22:..\..\..\lvgl\version_6.1.2\lvgl/src/lv_core/lv_disp.h **** 
  23:..\..\..\lvgl\version_6.1.2\lvgl/src/lv_core/lv_disp.h **** /**********************
  24:..\..\..\lvgl\version_6.1.2\lvgl/src/lv_core/lv_disp.h ****  *      TYPEDEFS
  25:..\..\..\lvgl\version_6.1.2\lvgl/src/lv_core/lv_disp.h ****  **********************/
  26:..\..\..\lvgl\version_6.1.2\lvgl/src/lv_core/lv_disp.h **** 
  27:..\..\..\lvgl\version_6.1.2\lvgl/src/lv_core/lv_disp.h **** /**********************
  28:..\..\..\lvgl\version_6.1.2\lvgl/src/lv_core/lv_disp.h ****  * GLOBAL PROTOTYPES
  29:..\..\..\lvgl\version_6.1.2\lvgl/src/lv_core/lv_disp.h ****  **********************/
  30:..\..\..\lvgl\version_6.1.2\lvgl/src/lv_core/lv_disp.h **** 
  31:..\..\..\lvgl\version_6.1.2\lvgl/src/lv_core/lv_disp.h **** /**
  32:..\..\..\lvgl\version_6.1.2\lvgl/src/lv_core/lv_disp.h ****  * Return with a pointer to the active screen
  33:..\..\..\lvgl\version_6.1.2\lvgl/src/lv_core/lv_disp.h ****  * @param disp pointer to display which active screen should be get. (NULL to use the default
  34:..\..\..\lvgl\version_6.1.2\lvgl/src/lv_core/lv_disp.h ****  * screen)
  35:..\..\..\lvgl\version_6.1.2\lvgl/src/lv_core/lv_disp.h ****  * @return pointer to the active screen object (loaded by 'lv_scr_load()')
  36:..\..\..\lvgl\version_6.1.2\lvgl/src/lv_core/lv_disp.h ****  */
  37:..\..\..\lvgl\version_6.1.2\lvgl/src/lv_core/lv_disp.h **** lv_obj_t * lv_disp_get_scr_act(lv_disp_t * disp);
  38:..\..\..\lvgl\version_6.1.2\lvgl/src/lv_core/lv_disp.h **** 
  39:..\..\..\lvgl\version_6.1.2\lvgl/src/lv_core/lv_disp.h **** /**
  40:..\..\..\lvgl\version_6.1.2\lvgl/src/lv_core/lv_disp.h ****  * Make a screen active
  41:..\..\..\lvgl\version_6.1.2\lvgl/src/lv_core/lv_disp.h ****  * @param scr pointer to a screen
  42:..\..\..\lvgl\version_6.1.2\lvgl/src/lv_core/lv_disp.h ****  */
  43:..\..\..\lvgl\version_6.1.2\lvgl/src/lv_core/lv_disp.h **** void lv_disp_load_scr(lv_obj_t * scr);
  44:..\..\..\lvgl\version_6.1.2\lvgl/src/lv_core/lv_disp.h **** 
  45:..\..\..\lvgl\version_6.1.2\lvgl/src/lv_core/lv_disp.h **** /**
  46:..\..\..\lvgl\version_6.1.2\lvgl/src/lv_core/lv_disp.h ****  * Return with the top layer. (Same on every screen and it is above the normal screen layer)
  47:..\..\..\lvgl\version_6.1.2\lvgl/src/lv_core/lv_disp.h ****  * @param disp pointer to display which top layer should be get. (NULL to use the default screen)
  48:..\..\..\lvgl\version_6.1.2\lvgl/src/lv_core/lv_disp.h ****  * @return pointer to the top layer object  (transparent screen sized lv_obj)
  49:..\..\..\lvgl\version_6.1.2\lvgl/src/lv_core/lv_disp.h ****  */
  50:..\..\..\lvgl\version_6.1.2\lvgl/src/lv_core/lv_disp.h **** lv_obj_t * lv_disp_get_layer_top(lv_disp_t * disp);
  51:..\..\..\lvgl\version_6.1.2\lvgl/src/lv_core/lv_disp.h **** 
  52:..\..\..\lvgl\version_6.1.2\lvgl/src/lv_core/lv_disp.h **** /**
  53:..\..\..\lvgl\version_6.1.2\lvgl/src/lv_core/lv_disp.h ****  * Return with the sys. layer. (Same on every screen and it is above the normal screen and the top
  54:..\..\..\lvgl\version_6.1.2\lvgl/src/lv_core/lv_disp.h ****  * layer)
  55:..\..\..\lvgl\version_6.1.2\lvgl/src/lv_core/lv_disp.h ****  * @param disp pointer to display which sys. layer  should be get. (NULL to use the default screen)
  56:..\..\..\lvgl\version_6.1.2\lvgl/src/lv_core/lv_disp.h ****  * @return pointer to the sys layer object  (transparent screen sized lv_obj)
  57:..\..\..\lvgl\version_6.1.2\lvgl/src/lv_core/lv_disp.h ****  */
  58:..\..\..\lvgl\version_6.1.2\lvgl/src/lv_core/lv_disp.h **** lv_obj_t * lv_disp_get_layer_sys(lv_disp_t * disp);
  59:..\..\..\lvgl\version_6.1.2\lvgl/src/lv_core/lv_disp.h **** 
  60:..\..\..\lvgl\version_6.1.2\lvgl/src/lv_core/lv_disp.h **** /**
  61:..\..\..\lvgl\version_6.1.2\lvgl/src/lv_core/lv_disp.h ****  * Assign a screen to a display.
  62:..\..\..\lvgl\version_6.1.2\lvgl/src/lv_core/lv_disp.h ****  * @param disp pointer to a display where to assign the screen
  63:..\..\..\lvgl\version_6.1.2\lvgl/src/lv_core/lv_disp.h ****  * @param scr pointer to a screen object to assign
  64:..\..\..\lvgl\version_6.1.2\lvgl/src/lv_core/lv_disp.h ****  */
  65:..\..\..\lvgl\version_6.1.2\lvgl/src/lv_core/lv_disp.h **** void lv_disp_assign_screen(lv_disp_t * disp, lv_obj_t * scr);
  66:..\..\..\lvgl\version_6.1.2\lvgl/src/lv_core/lv_disp.h **** 
  67:..\..\..\lvgl\version_6.1.2\lvgl/src/lv_core/lv_disp.h **** /**
  68:..\..\..\lvgl\version_6.1.2\lvgl/src/lv_core/lv_disp.h ****  * Get a pointer to the screen refresher task to
  69:..\..\..\lvgl\version_6.1.2\lvgl/src/lv_core/lv_disp.h ****  * modify its parameters with `lv_task_...` functions.
  70:..\..\..\lvgl\version_6.1.2\lvgl/src/lv_core/lv_disp.h ****  * @param disp pointer to a display
  71:..\..\..\lvgl\version_6.1.2\lvgl/src/lv_core/lv_disp.h ****  * @return pointer to the display refresher task. (NULL on error)
  72:..\..\..\lvgl\version_6.1.2\lvgl/src/lv_core/lv_disp.h ****  */
  73:..\..\..\lvgl\version_6.1.2\lvgl/src/lv_core/lv_disp.h **** lv_task_t * lv_disp_get_refr_task(lv_disp_t * disp);
  74:..\..\..\lvgl\version_6.1.2\lvgl/src/lv_core/lv_disp.h **** 
  75:..\..\..\lvgl\version_6.1.2\lvgl/src/lv_core/lv_disp.h **** /**
ARM GAS  C:\Users\chris\AppData\Local\Temp\cctP47hK.s 			page 13


  76:..\..\..\lvgl\version_6.1.2\lvgl/src/lv_core/lv_disp.h ****  * Get elapsed time since last user activity on a display (e.g. click)
  77:..\..\..\lvgl\version_6.1.2\lvgl/src/lv_core/lv_disp.h ****  * @param disp pointer to an display (NULL to get the overall smallest inactivity)
  78:..\..\..\lvgl\version_6.1.2\lvgl/src/lv_core/lv_disp.h ****  * @return elapsed ticks (milliseconds) since the last activity
  79:..\..\..\lvgl\version_6.1.2\lvgl/src/lv_core/lv_disp.h ****  */
  80:..\..\..\lvgl\version_6.1.2\lvgl/src/lv_core/lv_disp.h **** uint32_t lv_disp_get_inactive_time(const lv_disp_t * disp);
  81:..\..\..\lvgl\version_6.1.2\lvgl/src/lv_core/lv_disp.h **** 
  82:..\..\..\lvgl\version_6.1.2\lvgl/src/lv_core/lv_disp.h **** /**
  83:..\..\..\lvgl\version_6.1.2\lvgl/src/lv_core/lv_disp.h ****  * Manually trigger an activity on a display
  84:..\..\..\lvgl\version_6.1.2\lvgl/src/lv_core/lv_disp.h ****  * @param disp pointer to an display (NULL to use the default display)
  85:..\..\..\lvgl\version_6.1.2\lvgl/src/lv_core/lv_disp.h ****  */
  86:..\..\..\lvgl\version_6.1.2\lvgl/src/lv_core/lv_disp.h **** void lv_disp_trig_activity(lv_disp_t * disp);
  87:..\..\..\lvgl\version_6.1.2\lvgl/src/lv_core/lv_disp.h **** 
  88:..\..\..\lvgl\version_6.1.2\lvgl/src/lv_core/lv_disp.h **** /*------------------------------------------------
  89:..\..\..\lvgl\version_6.1.2\lvgl/src/lv_core/lv_disp.h ****  * To improve backward compatibility
  90:..\..\..\lvgl\version_6.1.2\lvgl/src/lv_core/lv_disp.h ****  * Recommended only if you have one display
  91:..\..\..\lvgl\version_6.1.2\lvgl/src/lv_core/lv_disp.h ****  *------------------------------------------------*/
  92:..\..\..\lvgl\version_6.1.2\lvgl/src/lv_core/lv_disp.h **** 
  93:..\..\..\lvgl\version_6.1.2\lvgl/src/lv_core/lv_disp.h **** /**
  94:..\..\..\lvgl\version_6.1.2\lvgl/src/lv_core/lv_disp.h ****  * Get the active screen of the default display
  95:..\..\..\lvgl\version_6.1.2\lvgl/src/lv_core/lv_disp.h ****  * @return pointer to the active screen
  96:..\..\..\lvgl\version_6.1.2\lvgl/src/lv_core/lv_disp.h ****  */
  97:..\..\..\lvgl\version_6.1.2\lvgl/src/lv_core/lv_disp.h **** static inline lv_obj_t * lv_scr_act(void)
  98:..\..\..\lvgl\version_6.1.2\lvgl/src/lv_core/lv_disp.h **** {
 125              		.loc 2 98 0
 126              		.cfi_startproc
 127              		@ args = 0, pretend = 0, frame = 0
 128              		@ frame_needed = 1, uses_anonymous_args = 0
 129 0000 80B5     		push	{r7, lr}
 130              		.cfi_def_cfa_offset 8
 131              		.cfi_offset 7, -8
 132              		.cfi_offset 14, -4
 133 0002 00AF     		add	r7, sp, #0
 134              		.cfi_def_cfa_register 7
  99:..\..\..\lvgl\version_6.1.2\lvgl/src/lv_core/lv_disp.h ****     return lv_disp_get_scr_act(lv_disp_get_default());
 135              		.loc 2 99 0
 136 0004 FFF7FEFF 		bl	lv_disp_get_default
 137 0008 0346     		mov	r3, r0
 138 000a 1846     		mov	r0, r3
 139 000c FFF7FEFF 		bl	lv_disp_get_scr_act
 140 0010 0346     		mov	r3, r0
 100:..\..\..\lvgl\version_6.1.2\lvgl/src/lv_core/lv_disp.h **** }
 141              		.loc 2 100 0
 142 0012 1846     		mov	r0, r3
 143 0014 80BD     		pop	{r7, pc}
 144              		.cfi_endproc
 145              	.LFE613:
 146              		.size	lv_scr_act, .-lv_scr_act
 147 0016 00BF     		.section	.text.lv_slider_set_value,"ax",%progbits
 148              		.align	2
 149              		.thumb
 150              		.thumb_func
 151              		.type	lv_slider_set_value, %function
 152              	lv_slider_set_value:
 153              	.LFB668:
 154              		.file 3 "..\\..\\..\\lvgl\\version_6.1.2\\lvgl/src/lv_objx/lv_slider.h"
   1:..\..\..\lvgl\version_6.1.2\lvgl/src/lv_objx/lv_slider.h **** /**
   2:..\..\..\lvgl\version_6.1.2\lvgl/src/lv_objx/lv_slider.h ****  * @file lv_slider.h
ARM GAS  C:\Users\chris\AppData\Local\Temp\cctP47hK.s 			page 14


   3:..\..\..\lvgl\version_6.1.2\lvgl/src/lv_objx/lv_slider.h ****  *
   4:..\..\..\lvgl\version_6.1.2\lvgl/src/lv_objx/lv_slider.h ****  */
   5:..\..\..\lvgl\version_6.1.2\lvgl/src/lv_objx/lv_slider.h **** 
   6:..\..\..\lvgl\version_6.1.2\lvgl/src/lv_objx/lv_slider.h **** #ifndef LV_SLIDER_H
   7:..\..\..\lvgl\version_6.1.2\lvgl/src/lv_objx/lv_slider.h **** #define LV_SLIDER_H
   8:..\..\..\lvgl\version_6.1.2\lvgl/src/lv_objx/lv_slider.h **** 
   9:..\..\..\lvgl\version_6.1.2\lvgl/src/lv_objx/lv_slider.h **** #ifdef __cplusplus
  10:..\..\..\lvgl\version_6.1.2\lvgl/src/lv_objx/lv_slider.h **** extern "C" {
  11:..\..\..\lvgl\version_6.1.2\lvgl/src/lv_objx/lv_slider.h **** #endif
  12:..\..\..\lvgl\version_6.1.2\lvgl/src/lv_objx/lv_slider.h **** 
  13:..\..\..\lvgl\version_6.1.2\lvgl/src/lv_objx/lv_slider.h **** /*********************
  14:..\..\..\lvgl\version_6.1.2\lvgl/src/lv_objx/lv_slider.h ****  *      INCLUDES
  15:..\..\..\lvgl\version_6.1.2\lvgl/src/lv_objx/lv_slider.h ****  *********************/
  16:..\..\..\lvgl\version_6.1.2\lvgl/src/lv_objx/lv_slider.h **** #ifdef LV_CONF_INCLUDE_SIMPLE
  17:..\..\..\lvgl\version_6.1.2\lvgl/src/lv_objx/lv_slider.h **** #include "lv_conf.h"
  18:..\..\..\lvgl\version_6.1.2\lvgl/src/lv_objx/lv_slider.h **** #else
  19:..\..\..\lvgl\version_6.1.2\lvgl/src/lv_objx/lv_slider.h **** #include "../../../lv_conf.h"
  20:..\..\..\lvgl\version_6.1.2\lvgl/src/lv_objx/lv_slider.h **** #endif
  21:..\..\..\lvgl\version_6.1.2\lvgl/src/lv_objx/lv_slider.h **** 
  22:..\..\..\lvgl\version_6.1.2\lvgl/src/lv_objx/lv_slider.h **** #if LV_USE_SLIDER != 0
  23:..\..\..\lvgl\version_6.1.2\lvgl/src/lv_objx/lv_slider.h **** 
  24:..\..\..\lvgl\version_6.1.2\lvgl/src/lv_objx/lv_slider.h **** /*Testing of dependencies*/
  25:..\..\..\lvgl\version_6.1.2\lvgl/src/lv_objx/lv_slider.h **** #if LV_USE_BAR == 0
  26:..\..\..\lvgl\version_6.1.2\lvgl/src/lv_objx/lv_slider.h **** #error "lv_slider: lv_bar is required. Enable it in lv_conf.h (LV_USE_BAR  1) "
  27:..\..\..\lvgl\version_6.1.2\lvgl/src/lv_objx/lv_slider.h **** #endif
  28:..\..\..\lvgl\version_6.1.2\lvgl/src/lv_objx/lv_slider.h **** 
  29:..\..\..\lvgl\version_6.1.2\lvgl/src/lv_objx/lv_slider.h **** #include "../lv_core/lv_obj.h"
  30:..\..\..\lvgl\version_6.1.2\lvgl/src/lv_objx/lv_slider.h **** #include "lv_bar.h"
  31:..\..\..\lvgl\version_6.1.2\lvgl/src/lv_objx/lv_slider.h **** 
  32:..\..\..\lvgl\version_6.1.2\lvgl/src/lv_objx/lv_slider.h **** /*********************
  33:..\..\..\lvgl\version_6.1.2\lvgl/src/lv_objx/lv_slider.h ****  *      DEFINES
  34:..\..\..\lvgl\version_6.1.2\lvgl/src/lv_objx/lv_slider.h ****  *********************/
  35:..\..\..\lvgl\version_6.1.2\lvgl/src/lv_objx/lv_slider.h **** 
  36:..\..\..\lvgl\version_6.1.2\lvgl/src/lv_objx/lv_slider.h **** /**********************
  37:..\..\..\lvgl\version_6.1.2\lvgl/src/lv_objx/lv_slider.h ****  *      TYPEDEFS
  38:..\..\..\lvgl\version_6.1.2\lvgl/src/lv_objx/lv_slider.h ****  **********************/
  39:..\..\..\lvgl\version_6.1.2\lvgl/src/lv_objx/lv_slider.h **** /*Data of slider*/
  40:..\..\..\lvgl\version_6.1.2\lvgl/src/lv_objx/lv_slider.h **** typedef struct
  41:..\..\..\lvgl\version_6.1.2\lvgl/src/lv_objx/lv_slider.h **** {
  42:..\..\..\lvgl\version_6.1.2\lvgl/src/lv_objx/lv_slider.h ****     lv_bar_ext_t bar; /*Ext. of ancestor*/
  43:..\..\..\lvgl\version_6.1.2\lvgl/src/lv_objx/lv_slider.h ****     /*New data for this type */
  44:..\..\..\lvgl\version_6.1.2\lvgl/src/lv_objx/lv_slider.h ****     const lv_style_t * style_knob; /*Style of the knob*/
  45:..\..\..\lvgl\version_6.1.2\lvgl/src/lv_objx/lv_slider.h ****     int16_t drag_value;            /*Store a temporal value during press until release (Handled by 
  46:..\..\..\lvgl\version_6.1.2\lvgl/src/lv_objx/lv_slider.h ****     uint8_t knob_in : 1;           /*1: Draw the knob inside the bar*/
  47:..\..\..\lvgl\version_6.1.2\lvgl/src/lv_objx/lv_slider.h **** } lv_slider_ext_t;
  48:..\..\..\lvgl\version_6.1.2\lvgl/src/lv_objx/lv_slider.h **** 
  49:..\..\..\lvgl\version_6.1.2\lvgl/src/lv_objx/lv_slider.h **** /** Built-in styles of slider*/
  50:..\..\..\lvgl\version_6.1.2\lvgl/src/lv_objx/lv_slider.h **** enum {
  51:..\..\..\lvgl\version_6.1.2\lvgl/src/lv_objx/lv_slider.h ****     LV_SLIDER_STYLE_BG, /** Slider background style. */
  52:..\..\..\lvgl\version_6.1.2\lvgl/src/lv_objx/lv_slider.h ****     LV_SLIDER_STYLE_INDIC, /** Slider indicator (filled area) style. */
  53:..\..\..\lvgl\version_6.1.2\lvgl/src/lv_objx/lv_slider.h ****     LV_SLIDER_STYLE_KNOB, /** Slider knob style. */
  54:..\..\..\lvgl\version_6.1.2\lvgl/src/lv_objx/lv_slider.h **** };
  55:..\..\..\lvgl\version_6.1.2\lvgl/src/lv_objx/lv_slider.h **** typedef uint8_t lv_slider_style_t;
  56:..\..\..\lvgl\version_6.1.2\lvgl/src/lv_objx/lv_slider.h **** 
  57:..\..\..\lvgl\version_6.1.2\lvgl/src/lv_objx/lv_slider.h **** /**********************
  58:..\..\..\lvgl\version_6.1.2\lvgl/src/lv_objx/lv_slider.h ****  * GLOBAL PROTOTYPES
  59:..\..\..\lvgl\version_6.1.2\lvgl/src/lv_objx/lv_slider.h ****  **********************/
ARM GAS  C:\Users\chris\AppData\Local\Temp\cctP47hK.s 			page 15


  60:..\..\..\lvgl\version_6.1.2\lvgl/src/lv_objx/lv_slider.h **** 
  61:..\..\..\lvgl\version_6.1.2\lvgl/src/lv_objx/lv_slider.h **** /**
  62:..\..\..\lvgl\version_6.1.2\lvgl/src/lv_objx/lv_slider.h ****  * Create a slider objects
  63:..\..\..\lvgl\version_6.1.2\lvgl/src/lv_objx/lv_slider.h ****  * @param par pointer to an object, it will be the parent of the new slider
  64:..\..\..\lvgl\version_6.1.2\lvgl/src/lv_objx/lv_slider.h ****  * @param copy pointer to a slider object, if not NULL then the new object will be copied from it
  65:..\..\..\lvgl\version_6.1.2\lvgl/src/lv_objx/lv_slider.h ****  * @return pointer to the created slider
  66:..\..\..\lvgl\version_6.1.2\lvgl/src/lv_objx/lv_slider.h ****  */
  67:..\..\..\lvgl\version_6.1.2\lvgl/src/lv_objx/lv_slider.h **** lv_obj_t * lv_slider_create(lv_obj_t * par, const lv_obj_t * copy);
  68:..\..\..\lvgl\version_6.1.2\lvgl/src/lv_objx/lv_slider.h **** 
  69:..\..\..\lvgl\version_6.1.2\lvgl/src/lv_objx/lv_slider.h **** /*=====================
  70:..\..\..\lvgl\version_6.1.2\lvgl/src/lv_objx/lv_slider.h ****  * Setter functions
  71:..\..\..\lvgl\version_6.1.2\lvgl/src/lv_objx/lv_slider.h ****  *====================*/
  72:..\..\..\lvgl\version_6.1.2\lvgl/src/lv_objx/lv_slider.h **** 
  73:..\..\..\lvgl\version_6.1.2\lvgl/src/lv_objx/lv_slider.h **** /**
  74:..\..\..\lvgl\version_6.1.2\lvgl/src/lv_objx/lv_slider.h ****  * Set a new value on the slider
  75:..\..\..\lvgl\version_6.1.2\lvgl/src/lv_objx/lv_slider.h ****  * @param slider pointer to a slider object
  76:..\..\..\lvgl\version_6.1.2\lvgl/src/lv_objx/lv_slider.h ****  * @param value new value
  77:..\..\..\lvgl\version_6.1.2\lvgl/src/lv_objx/lv_slider.h ****  * @param anim LV_ANIM_ON: set the value with an animation; LV_ANIM_OFF: change the value immediate
  78:..\..\..\lvgl\version_6.1.2\lvgl/src/lv_objx/lv_slider.h ****  */
  79:..\..\..\lvgl\version_6.1.2\lvgl/src/lv_objx/lv_slider.h **** static inline void lv_slider_set_value(lv_obj_t * slider, int16_t value, lv_anim_enable_t anim)
  80:..\..\..\lvgl\version_6.1.2\lvgl/src/lv_objx/lv_slider.h **** {
 155              		.loc 3 80 0
 156              		.cfi_startproc
 157              		@ args = 0, pretend = 0, frame = 8
 158              		@ frame_needed = 1, uses_anonymous_args = 0
 159 0000 80B5     		push	{r7, lr}
 160              		.cfi_def_cfa_offset 8
 161              		.cfi_offset 7, -8
 162              		.cfi_offset 14, -4
 163 0002 82B0     		sub	sp, sp, #8
 164              		.cfi_def_cfa_offset 16
 165 0004 00AF     		add	r7, sp, #0
 166              		.cfi_def_cfa_register 7
 167 0006 7860     		str	r0, [r7, #4]
 168 0008 0B46     		mov	r3, r1
 169 000a 7B80     		strh	r3, [r7, #2]	@ movhi
 170 000c 1346     		mov	r3, r2
 171 000e 7B70     		strb	r3, [r7, #1]
  81:..\..\..\lvgl\version_6.1.2\lvgl/src/lv_objx/lv_slider.h ****     lv_bar_set_value(slider, value, anim);
 172              		.loc 3 81 0
 173 0010 7A78     		ldrb	r2, [r7, #1]	@ zero_extendqisi2
 174 0012 B7F90230 		ldrsh	r3, [r7, #2]
 175 0016 1946     		mov	r1, r3
 176 0018 7868     		ldr	r0, [r7, #4]
 177 001a FFF7FEFF 		bl	lv_bar_set_value
  82:..\..\..\lvgl\version_6.1.2\lvgl/src/lv_objx/lv_slider.h **** }
 178              		.loc 3 82 0
 179 001e 00BF     		nop
 180 0020 0837     		adds	r7, r7, #8
 181              		.cfi_def_cfa_offset 8
 182 0022 BD46     		mov	sp, r7
 183              		.cfi_def_cfa_register 13
 184              		@ sp needed
 185 0024 80BD     		pop	{r7, pc}
 186              		.cfi_endproc
 187              	.LFE668:
 188              		.size	lv_slider_set_value, .-lv_slider_set_value
ARM GAS  C:\Users\chris\AppData\Local\Temp\cctP47hK.s 			page 16


 189 0026 00BF     		.section	.text.lv_slider_set_range,"ax",%progbits
 190              		.align	2
 191              		.thumb
 192              		.thumb_func
 193              		.type	lv_slider_set_range, %function
 194              	lv_slider_set_range:
 195              	.LFB669:
  83:..\..\..\lvgl\version_6.1.2\lvgl/src/lv_objx/lv_slider.h **** 
  84:..\..\..\lvgl\version_6.1.2\lvgl/src/lv_objx/lv_slider.h **** /**
  85:..\..\..\lvgl\version_6.1.2\lvgl/src/lv_objx/lv_slider.h ****  * Set minimum and the maximum values of a bar
  86:..\..\..\lvgl\version_6.1.2\lvgl/src/lv_objx/lv_slider.h ****  * @param slider pointer to the slider object
  87:..\..\..\lvgl\version_6.1.2\lvgl/src/lv_objx/lv_slider.h ****  * @param min minimum value
  88:..\..\..\lvgl\version_6.1.2\lvgl/src/lv_objx/lv_slider.h ****  * @param max maximum value
  89:..\..\..\lvgl\version_6.1.2\lvgl/src/lv_objx/lv_slider.h ****  */
  90:..\..\..\lvgl\version_6.1.2\lvgl/src/lv_objx/lv_slider.h **** static inline void lv_slider_set_range(lv_obj_t * slider, int16_t min, int16_t max)
  91:..\..\..\lvgl\version_6.1.2\lvgl/src/lv_objx/lv_slider.h **** {
 196              		.loc 3 91 0
 197              		.cfi_startproc
 198              		@ args = 0, pretend = 0, frame = 8
 199              		@ frame_needed = 1, uses_anonymous_args = 0
 200 0000 80B5     		push	{r7, lr}
 201              		.cfi_def_cfa_offset 8
 202              		.cfi_offset 7, -8
 203              		.cfi_offset 14, -4
 204 0002 82B0     		sub	sp, sp, #8
 205              		.cfi_def_cfa_offset 16
 206 0004 00AF     		add	r7, sp, #0
 207              		.cfi_def_cfa_register 7
 208 0006 7860     		str	r0, [r7, #4]
 209 0008 0B46     		mov	r3, r1
 210 000a 7B80     		strh	r3, [r7, #2]	@ movhi
 211 000c 1346     		mov	r3, r2	@ movhi
 212 000e 3B80     		strh	r3, [r7]	@ movhi
  92:..\..\..\lvgl\version_6.1.2\lvgl/src/lv_objx/lv_slider.h ****     lv_bar_set_range(slider, min, max);
 213              		.loc 3 92 0
 214 0010 B7F90020 		ldrsh	r2, [r7]
 215 0014 B7F90230 		ldrsh	r3, [r7, #2]
 216 0018 1946     		mov	r1, r3
 217 001a 7868     		ldr	r0, [r7, #4]
 218 001c FFF7FEFF 		bl	lv_bar_set_range
  93:..\..\..\lvgl\version_6.1.2\lvgl/src/lv_objx/lv_slider.h **** }
 219              		.loc 3 93 0
 220 0020 00BF     		nop
 221 0022 0837     		adds	r7, r7, #8
 222              		.cfi_def_cfa_offset 8
 223 0024 BD46     		mov	sp, r7
 224              		.cfi_def_cfa_register 13
 225              		@ sp needed
 226 0026 80BD     		pop	{r7, pc}
 227              		.cfi_endproc
 228              	.LFE669:
 229              		.size	lv_slider_set_range, .-lv_slider_set_range
 230              		.section	.text.lv_sw_get_state,"ax",%progbits
 231              		.align	2
 232              		.thumb
 233              		.thumb_func
 234              		.type	lv_sw_get_state, %function
ARM GAS  C:\Users\chris\AppData\Local\Temp\cctP47hK.s 			page 17


 235              	lv_sw_get_state:
 236              	.LFB714:
 237              		.file 4 "..\\..\\..\\lvgl\\version_6.1.2\\lvgl/src/lv_objx/lv_sw.h"
   1:..\..\..\lvgl\version_6.1.2\lvgl/src/lv_objx/lv_sw.h **** /**
   2:..\..\..\lvgl\version_6.1.2\lvgl/src/lv_objx/lv_sw.h ****  * @file lv_sw.h
   3:..\..\..\lvgl\version_6.1.2\lvgl/src/lv_objx/lv_sw.h ****  *
   4:..\..\..\lvgl\version_6.1.2\lvgl/src/lv_objx/lv_sw.h ****  */
   5:..\..\..\lvgl\version_6.1.2\lvgl/src/lv_objx/lv_sw.h **** 
   6:..\..\..\lvgl\version_6.1.2\lvgl/src/lv_objx/lv_sw.h **** #ifndef LV_SW_H
   7:..\..\..\lvgl\version_6.1.2\lvgl/src/lv_objx/lv_sw.h **** #define LV_SW_H
   8:..\..\..\lvgl\version_6.1.2\lvgl/src/lv_objx/lv_sw.h **** 
   9:..\..\..\lvgl\version_6.1.2\lvgl/src/lv_objx/lv_sw.h **** #ifdef __cplusplus
  10:..\..\..\lvgl\version_6.1.2\lvgl/src/lv_objx/lv_sw.h **** extern "C" {
  11:..\..\..\lvgl\version_6.1.2\lvgl/src/lv_objx/lv_sw.h **** #endif
  12:..\..\..\lvgl\version_6.1.2\lvgl/src/lv_objx/lv_sw.h **** 
  13:..\..\..\lvgl\version_6.1.2\lvgl/src/lv_objx/lv_sw.h **** /*********************
  14:..\..\..\lvgl\version_6.1.2\lvgl/src/lv_objx/lv_sw.h ****  *      INCLUDES
  15:..\..\..\lvgl\version_6.1.2\lvgl/src/lv_objx/lv_sw.h ****  *********************/
  16:..\..\..\lvgl\version_6.1.2\lvgl/src/lv_objx/lv_sw.h **** #ifdef LV_CONF_INCLUDE_SIMPLE
  17:..\..\..\lvgl\version_6.1.2\lvgl/src/lv_objx/lv_sw.h **** #include "lv_conf.h"
  18:..\..\..\lvgl\version_6.1.2\lvgl/src/lv_objx/lv_sw.h **** #else
  19:..\..\..\lvgl\version_6.1.2\lvgl/src/lv_objx/lv_sw.h **** #include "../../../lv_conf.h"
  20:..\..\..\lvgl\version_6.1.2\lvgl/src/lv_objx/lv_sw.h **** #endif
  21:..\..\..\lvgl\version_6.1.2\lvgl/src/lv_objx/lv_sw.h **** 
  22:..\..\..\lvgl\version_6.1.2\lvgl/src/lv_objx/lv_sw.h **** #if LV_USE_SW != 0
  23:..\..\..\lvgl\version_6.1.2\lvgl/src/lv_objx/lv_sw.h **** 
  24:..\..\..\lvgl\version_6.1.2\lvgl/src/lv_objx/lv_sw.h **** /*Testing of dependencies*/
  25:..\..\..\lvgl\version_6.1.2\lvgl/src/lv_objx/lv_sw.h **** #if LV_USE_SLIDER == 0
  26:..\..\..\lvgl\version_6.1.2\lvgl/src/lv_objx/lv_sw.h **** #error "lv_sw: lv_slider is required. Enable it in lv_conf.h (LV_USE_SLIDER  1)"
  27:..\..\..\lvgl\version_6.1.2\lvgl/src/lv_objx/lv_sw.h **** #endif
  28:..\..\..\lvgl\version_6.1.2\lvgl/src/lv_objx/lv_sw.h **** 
  29:..\..\..\lvgl\version_6.1.2\lvgl/src/lv_objx/lv_sw.h **** #include "../lv_core/lv_obj.h"
  30:..\..\..\lvgl\version_6.1.2\lvgl/src/lv_objx/lv_sw.h **** #include "lv_slider.h"
  31:..\..\..\lvgl\version_6.1.2\lvgl/src/lv_objx/lv_sw.h **** 
  32:..\..\..\lvgl\version_6.1.2\lvgl/src/lv_objx/lv_sw.h **** /*********************
  33:..\..\..\lvgl\version_6.1.2\lvgl/src/lv_objx/lv_sw.h ****  *      DEFINES
  34:..\..\..\lvgl\version_6.1.2\lvgl/src/lv_objx/lv_sw.h ****  *********************/
  35:..\..\..\lvgl\version_6.1.2\lvgl/src/lv_objx/lv_sw.h **** #define LV_SW_MAX_VALUE 100
  36:..\..\..\lvgl\version_6.1.2\lvgl/src/lv_objx/lv_sw.h **** 
  37:..\..\..\lvgl\version_6.1.2\lvgl/src/lv_objx/lv_sw.h **** /**********************
  38:..\..\..\lvgl\version_6.1.2\lvgl/src/lv_objx/lv_sw.h ****  *      TYPEDEFS
  39:..\..\..\lvgl\version_6.1.2\lvgl/src/lv_objx/lv_sw.h ****  **********************/
  40:..\..\..\lvgl\version_6.1.2\lvgl/src/lv_objx/lv_sw.h **** /*Data of switch*/
  41:..\..\..\lvgl\version_6.1.2\lvgl/src/lv_objx/lv_sw.h **** typedef struct
  42:..\..\..\lvgl\version_6.1.2\lvgl/src/lv_objx/lv_sw.h **** {
  43:..\..\..\lvgl\version_6.1.2\lvgl/src/lv_objx/lv_sw.h ****     lv_slider_ext_t slider; /*Ext. of ancestor*/
  44:..\..\..\lvgl\version_6.1.2\lvgl/src/lv_objx/lv_sw.h ****     /*New data for this type */
  45:..\..\..\lvgl\version_6.1.2\lvgl/src/lv_objx/lv_sw.h ****     const lv_style_t * style_knob_off; /**< Style of the knob when the switch is OFF*/
  46:..\..\..\lvgl\version_6.1.2\lvgl/src/lv_objx/lv_sw.h ****     const lv_style_t * style_knob_on;  /**< Style of the knob when the switch is ON (NULL to use th
  47:..\..\..\lvgl\version_6.1.2\lvgl/src/lv_objx/lv_sw.h ****     lv_coord_t start_x;
  48:..\..\..\lvgl\version_6.1.2\lvgl/src/lv_objx/lv_sw.h ****     uint8_t changed : 1; /*Indicates the switch state explicitly changed by drag*/
  49:..\..\..\lvgl\version_6.1.2\lvgl/src/lv_objx/lv_sw.h ****     uint8_t slided : 1;
  50:..\..\..\lvgl\version_6.1.2\lvgl/src/lv_objx/lv_sw.h **** #if LV_USE_ANIMATION
  51:..\..\..\lvgl\version_6.1.2\lvgl/src/lv_objx/lv_sw.h ****     uint16_t anim_time; /*switch animation time */
  52:..\..\..\lvgl\version_6.1.2\lvgl/src/lv_objx/lv_sw.h **** #endif
  53:..\..\..\lvgl\version_6.1.2\lvgl/src/lv_objx/lv_sw.h **** } lv_sw_ext_t;
  54:..\..\..\lvgl\version_6.1.2\lvgl/src/lv_objx/lv_sw.h **** 
ARM GAS  C:\Users\chris\AppData\Local\Temp\cctP47hK.s 			page 18


  55:..\..\..\lvgl\version_6.1.2\lvgl/src/lv_objx/lv_sw.h **** /**
  56:..\..\..\lvgl\version_6.1.2\lvgl/src/lv_objx/lv_sw.h ****  * Switch styles.
  57:..\..\..\lvgl\version_6.1.2\lvgl/src/lv_objx/lv_sw.h ****  */
  58:..\..\..\lvgl\version_6.1.2\lvgl/src/lv_objx/lv_sw.h **** enum {
  59:..\..\..\lvgl\version_6.1.2\lvgl/src/lv_objx/lv_sw.h ****     LV_SW_STYLE_BG, /**< Switch background. */
  60:..\..\..\lvgl\version_6.1.2\lvgl/src/lv_objx/lv_sw.h ****     LV_SW_STYLE_INDIC, /**< Switch fill area. */
  61:..\..\..\lvgl\version_6.1.2\lvgl/src/lv_objx/lv_sw.h ****     LV_SW_STYLE_KNOB_OFF, /**< Switch knob (when off). */
  62:..\..\..\lvgl\version_6.1.2\lvgl/src/lv_objx/lv_sw.h ****     LV_SW_STYLE_KNOB_ON, /**< Switch knob (when on). */
  63:..\..\..\lvgl\version_6.1.2\lvgl/src/lv_objx/lv_sw.h **** };
  64:..\..\..\lvgl\version_6.1.2\lvgl/src/lv_objx/lv_sw.h **** typedef uint8_t lv_sw_style_t;
  65:..\..\..\lvgl\version_6.1.2\lvgl/src/lv_objx/lv_sw.h **** 
  66:..\..\..\lvgl\version_6.1.2\lvgl/src/lv_objx/lv_sw.h **** /**********************
  67:..\..\..\lvgl\version_6.1.2\lvgl/src/lv_objx/lv_sw.h ****  * GLOBAL PROTOTYPES
  68:..\..\..\lvgl\version_6.1.2\lvgl/src/lv_objx/lv_sw.h ****  **********************/
  69:..\..\..\lvgl\version_6.1.2\lvgl/src/lv_objx/lv_sw.h **** 
  70:..\..\..\lvgl\version_6.1.2\lvgl/src/lv_objx/lv_sw.h **** /**
  71:..\..\..\lvgl\version_6.1.2\lvgl/src/lv_objx/lv_sw.h ****  * Create a switch objects
  72:..\..\..\lvgl\version_6.1.2\lvgl/src/lv_objx/lv_sw.h ****  * @param par pointer to an object, it will be the parent of the new switch
  73:..\..\..\lvgl\version_6.1.2\lvgl/src/lv_objx/lv_sw.h ****  * @param copy pointer to a switch object, if not NULL then the new object will be copied from it
  74:..\..\..\lvgl\version_6.1.2\lvgl/src/lv_objx/lv_sw.h ****  * @return pointer to the created switch
  75:..\..\..\lvgl\version_6.1.2\lvgl/src/lv_objx/lv_sw.h ****  */
  76:..\..\..\lvgl\version_6.1.2\lvgl/src/lv_objx/lv_sw.h **** lv_obj_t * lv_sw_create(lv_obj_t * par, const lv_obj_t * copy);
  77:..\..\..\lvgl\version_6.1.2\lvgl/src/lv_objx/lv_sw.h **** 
  78:..\..\..\lvgl\version_6.1.2\lvgl/src/lv_objx/lv_sw.h **** /*=====================
  79:..\..\..\lvgl\version_6.1.2\lvgl/src/lv_objx/lv_sw.h ****  * Setter functions
  80:..\..\..\lvgl\version_6.1.2\lvgl/src/lv_objx/lv_sw.h ****  *====================*/
  81:..\..\..\lvgl\version_6.1.2\lvgl/src/lv_objx/lv_sw.h **** 
  82:..\..\..\lvgl\version_6.1.2\lvgl/src/lv_objx/lv_sw.h **** /**
  83:..\..\..\lvgl\version_6.1.2\lvgl/src/lv_objx/lv_sw.h ****  * Turn ON the switch
  84:..\..\..\lvgl\version_6.1.2\lvgl/src/lv_objx/lv_sw.h ****  * @param sw pointer to a switch object
  85:..\..\..\lvgl\version_6.1.2\lvgl/src/lv_objx/lv_sw.h ****  * @param anim LV_ANIM_ON: set the value with an animation; LV_ANIM_OFF: change the value immediate
  86:..\..\..\lvgl\version_6.1.2\lvgl/src/lv_objx/lv_sw.h ****  */
  87:..\..\..\lvgl\version_6.1.2\lvgl/src/lv_objx/lv_sw.h **** void lv_sw_on(lv_obj_t * sw, lv_anim_enable_t anim);
  88:..\..\..\lvgl\version_6.1.2\lvgl/src/lv_objx/lv_sw.h **** 
  89:..\..\..\lvgl\version_6.1.2\lvgl/src/lv_objx/lv_sw.h **** /**
  90:..\..\..\lvgl\version_6.1.2\lvgl/src/lv_objx/lv_sw.h ****  * Turn OFF the switch
  91:..\..\..\lvgl\version_6.1.2\lvgl/src/lv_objx/lv_sw.h ****  * @param sw pointer to a switch object
  92:..\..\..\lvgl\version_6.1.2\lvgl/src/lv_objx/lv_sw.h ****  * @param anim LV_ANIM_ON: set the value with an animation; LV_ANIM_OFF: change the value immediate
  93:..\..\..\lvgl\version_6.1.2\lvgl/src/lv_objx/lv_sw.h ****  */
  94:..\..\..\lvgl\version_6.1.2\lvgl/src/lv_objx/lv_sw.h **** void lv_sw_off(lv_obj_t * sw, lv_anim_enable_t anim);
  95:..\..\..\lvgl\version_6.1.2\lvgl/src/lv_objx/lv_sw.h **** 
  96:..\..\..\lvgl\version_6.1.2\lvgl/src/lv_objx/lv_sw.h **** /**
  97:..\..\..\lvgl\version_6.1.2\lvgl/src/lv_objx/lv_sw.h ****  * Toggle the position of the switch
  98:..\..\..\lvgl\version_6.1.2\lvgl/src/lv_objx/lv_sw.h ****  * @param sw pointer to a switch object
  99:..\..\..\lvgl\version_6.1.2\lvgl/src/lv_objx/lv_sw.h ****  * @param anim LV_ANIM_ON: set the value with an animation; LV_ANIM_OFF: change the value immediate
 100:..\..\..\lvgl\version_6.1.2\lvgl/src/lv_objx/lv_sw.h ****  * @return resulting state of the switch.
 101:..\..\..\lvgl\version_6.1.2\lvgl/src/lv_objx/lv_sw.h ****  */
 102:..\..\..\lvgl\version_6.1.2\lvgl/src/lv_objx/lv_sw.h **** bool lv_sw_toggle(lv_obj_t * sw, lv_anim_enable_t anim);
 103:..\..\..\lvgl\version_6.1.2\lvgl/src/lv_objx/lv_sw.h **** 
 104:..\..\..\lvgl\version_6.1.2\lvgl/src/lv_objx/lv_sw.h **** /**
 105:..\..\..\lvgl\version_6.1.2\lvgl/src/lv_objx/lv_sw.h ****  * Set a style of a switch
 106:..\..\..\lvgl\version_6.1.2\lvgl/src/lv_objx/lv_sw.h ****  * @param sw pointer to a switch object
 107:..\..\..\lvgl\version_6.1.2\lvgl/src/lv_objx/lv_sw.h ****  * @param type which style should be set
 108:..\..\..\lvgl\version_6.1.2\lvgl/src/lv_objx/lv_sw.h ****  * @param style pointer to a style
 109:..\..\..\lvgl\version_6.1.2\lvgl/src/lv_objx/lv_sw.h ****  */
 110:..\..\..\lvgl\version_6.1.2\lvgl/src/lv_objx/lv_sw.h **** void lv_sw_set_style(lv_obj_t * sw, lv_sw_style_t type, const lv_style_t * style);
 111:..\..\..\lvgl\version_6.1.2\lvgl/src/lv_objx/lv_sw.h **** 
ARM GAS  C:\Users\chris\AppData\Local\Temp\cctP47hK.s 			page 19


 112:..\..\..\lvgl\version_6.1.2\lvgl/src/lv_objx/lv_sw.h **** /**
 113:..\..\..\lvgl\version_6.1.2\lvgl/src/lv_objx/lv_sw.h ****  * Set the animation time of the switch
 114:..\..\..\lvgl\version_6.1.2\lvgl/src/lv_objx/lv_sw.h ****  * @param sw pointer to a  switch object
 115:..\..\..\lvgl\version_6.1.2\lvgl/src/lv_objx/lv_sw.h ****  * @param anim_time animation time
 116:..\..\..\lvgl\version_6.1.2\lvgl/src/lv_objx/lv_sw.h ****  * @return style pointer to a style
 117:..\..\..\lvgl\version_6.1.2\lvgl/src/lv_objx/lv_sw.h ****  */
 118:..\..\..\lvgl\version_6.1.2\lvgl/src/lv_objx/lv_sw.h **** void lv_sw_set_anim_time(lv_obj_t * sw, uint16_t anim_time);
 119:..\..\..\lvgl\version_6.1.2\lvgl/src/lv_objx/lv_sw.h **** 
 120:..\..\..\lvgl\version_6.1.2\lvgl/src/lv_objx/lv_sw.h **** /*=====================
 121:..\..\..\lvgl\version_6.1.2\lvgl/src/lv_objx/lv_sw.h ****  * Getter functions
 122:..\..\..\lvgl\version_6.1.2\lvgl/src/lv_objx/lv_sw.h ****  *====================*/
 123:..\..\..\lvgl\version_6.1.2\lvgl/src/lv_objx/lv_sw.h **** 
 124:..\..\..\lvgl\version_6.1.2\lvgl/src/lv_objx/lv_sw.h **** /**
 125:..\..\..\lvgl\version_6.1.2\lvgl/src/lv_objx/lv_sw.h ****  * Get the state of a switch
 126:..\..\..\lvgl\version_6.1.2\lvgl/src/lv_objx/lv_sw.h ****  * @param sw pointer to a switch object
 127:..\..\..\lvgl\version_6.1.2\lvgl/src/lv_objx/lv_sw.h ****  * @return false: OFF; true: ON
 128:..\..\..\lvgl\version_6.1.2\lvgl/src/lv_objx/lv_sw.h ****  */
 129:..\..\..\lvgl\version_6.1.2\lvgl/src/lv_objx/lv_sw.h **** static inline bool lv_sw_get_state(const lv_obj_t * sw)
 130:..\..\..\lvgl\version_6.1.2\lvgl/src/lv_objx/lv_sw.h **** {
 238              		.loc 4 130 0
 239              		.cfi_startproc
 240              		@ args = 0, pretend = 0, frame = 8
 241              		@ frame_needed = 1, uses_anonymous_args = 0
 242 0000 80B5     		push	{r7, lr}
 243              		.cfi_def_cfa_offset 8
 244              		.cfi_offset 7, -8
 245              		.cfi_offset 14, -4
 246 0002 82B0     		sub	sp, sp, #8
 247              		.cfi_def_cfa_offset 16
 248 0004 00AF     		add	r7, sp, #0
 249              		.cfi_def_cfa_register 7
 250 0006 7860     		str	r0, [r7, #4]
 131:..\..\..\lvgl\version_6.1.2\lvgl/src/lv_objx/lv_sw.h ****     return lv_bar_get_value(sw) < LV_SW_MAX_VALUE / 2 ? false : true;
 251              		.loc 4 131 0
 252 0008 7868     		ldr	r0, [r7, #4]
 253 000a FFF7FEFF 		bl	lv_bar_get_value
 254 000e 0346     		mov	r3, r0
 255 0010 312B     		cmp	r3, #49
 256 0012 CCBF     		ite	gt
 257 0014 0123     		movgt	r3, #1
 258 0016 0023     		movle	r3, #0
 259 0018 DBB2     		uxtb	r3, r3
 132:..\..\..\lvgl\version_6.1.2\lvgl/src/lv_objx/lv_sw.h **** }
 260              		.loc 4 132 0
 261 001a 1846     		mov	r0, r3
 262 001c 0837     		adds	r7, r7, #8
 263              		.cfi_def_cfa_offset 8
 264 001e BD46     		mov	sp, r7
 265              		.cfi_def_cfa_register 13
 266              		@ sp needed
 267 0020 80BD     		pop	{r7, pc}
 268              		.cfi_endproc
 269              	.LFE714:
 270              		.size	lv_sw_get_state, .-lv_sw_get_state
 271              		.global	tcnj_blue
 272 0022 00BF     		.section	.rodata
 273              		.align	2
ARM GAS  C:\Users\chris\AppData\Local\Temp\cctP47hK.s 			page 20


 274              		.type	tcnj_blue, %object
 275              		.size	tcnj_blue, 3
 276              	tcnj_blue:
 277 0000 29       		.byte	41
 278 0001 3F       		.byte	63
 279 0002 6F       		.byte	111
 280              		.global	tcnj_gold
 281 0003 00       		.align	2
 282              		.type	tcnj_gold, %object
 283              		.size	tcnj_gold, 3
 284              	tcnj_gold:
 285 0004 A6       		.byte	-90
 286 0005 7A       		.byte	122
 287 0006 00       		.byte	0
 288              		.comm	offset_str,3,4
 289              		.bss
 290              		.align	2
 291              	offsetLabel:
 292 0000 00000000 		.space	4
 293              		.align	2
 294              	triggerLabel:
 295 0004 00000000 		.space	4
 296              		.align	2
 297              	horiLabel1:
 298 0008 00000000 		.space	4
 299              		.align	2
 300              	vertLabel1:
 301 000c 00000000 		.space	4
 302              		.align	2
 303              	windowLabel:
 304 0010 00000000 		.space	4
 305              		.global	zeros
 306              		.type	zeros, %object
 307              		.size	zeros, 1
 308              	zeros:
 309 0014 00       		.space	1
 310              		.section	.rodata
 311 0007 00       		.align	2
 312              	.LC0:
 313 0008 4F6E00   		.ascii	"On\000"
 314 000b 00       		.align	2
 315              	.LC1:
 316 000c 4F666600 		.ascii	"Off\000"
 317              		.align	2
 318              	.LC2:
 319 0010 53746174 		.ascii	"State: %s\012\000"
 319      653A2025 
 319      730A00
 320              		.section	.text.sw_event_handler,"ax",%progbits
 321              		.align	2
 322              		.thumb
 323              		.thumb_func
 324              		.type	sw_event_handler, %function
 325              	sw_event_handler:
 326              	.LFB717:
 327              		.file 5 "home_screen.c"
   1:home_screen.c **** #include <stdio.h>
ARM GAS  C:\Users\chris\AppData\Local\Temp\cctP47hK.s 			page 21


   2:home_screen.c **** 
   3:home_screen.c **** #include "project.h"
   4:home_screen.c **** #include "globalStruct.h"
   5:home_screen.c **** #include "lvgl.h"
   6:home_screen.c **** #include "home_screen.h"
   7:home_screen.c **** //#include "breath_activity.h"
   8:home_screen.c **** //#include "time_date_activity.h"
   9:home_screen.c **** #include "slider_activity.h"
  10:home_screen.c **** #include "math.h"
  11:home_screen.c **** 
  12:home_screen.c **** //static lv_obj_t * slider_label;
  13:home_screen.c **** 
  14:home_screen.c **** const uint8_t tcnj_blue[] = { 41, 63, 111 };
  15:home_screen.c **** const uint8_t tcnj_gold[] = { 166, 122, 0 };
  16:home_screen.c **** 
  17:home_screen.c **** char offset_str[3];
  18:home_screen.c **** 
  19:home_screen.c **** static lv_obj_t * offsetLabel;
  20:home_screen.c **** static lv_obj_t * triggerLabel;
  21:home_screen.c **** static lv_obj_t * horiLabel1;
  22:home_screen.c **** static lv_obj_t * vertLabel1;
  23:home_screen.c **** static lv_obj_t * windowLabel;
  24:home_screen.c **** 
  25:home_screen.c **** uint8_t zeros = 0b00000000;
  26:home_screen.c **** 
  27:home_screen.c **** static void sw_event_handler(lv_obj_t * obj, lv_event_t event)
  28:home_screen.c **** {
 328              		.loc 5 28 0
 329              		.cfi_startproc
 330              		@ args = 0, pretend = 0, frame = 8
 331              		@ frame_needed = 1, uses_anonymous_args = 0
 332 0000 80B5     		push	{r7, lr}
 333              		.cfi_def_cfa_offset 8
 334              		.cfi_offset 7, -8
 335              		.cfi_offset 14, -4
 336 0002 82B0     		sub	sp, sp, #8
 337              		.cfi_def_cfa_offset 16
 338 0004 00AF     		add	r7, sp, #0
 339              		.cfi_def_cfa_register 7
 340 0006 7860     		str	r0, [r7, #4]
 341 0008 0B46     		mov	r3, r1
 342 000a FB70     		strb	r3, [r7, #3]
  29:home_screen.c ****     if(event == LV_EVENT_VALUE_CHANGED) {
 343              		.loc 5 29 0
 344 000c FB78     		ldrb	r3, [r7, #3]	@ zero_extendqisi2
 345 000e 0E2B     		cmp	r3, #14
 346 0010 0CD1     		bne	.L15
  30:home_screen.c ****         printf("State: %s\n", lv_sw_get_state(obj) ? "On" : "Off");
 347              		.loc 5 30 0
 348 0012 7868     		ldr	r0, [r7, #4]
 349 0014 FFF7FEFF 		bl	lv_sw_get_state
 350 0018 0346     		mov	r3, r0
 351 001a 002B     		cmp	r3, #0
 352 001c 01D0     		beq	.L13
 353              		.loc 5 30 0 is_stmt 0 discriminator 1
 354 001e 054B     		ldr	r3, .L16
 355 0020 00E0     		b	.L14
ARM GAS  C:\Users\chris\AppData\Local\Temp\cctP47hK.s 			page 22


 356              	.L13:
 357              		.loc 5 30 0 discriminator 2
 358 0022 054B     		ldr	r3, .L16+4
 359              	.L14:
 360              		.loc 5 30 0 discriminator 4
 361 0024 1946     		mov	r1, r3
 362 0026 0548     		ldr	r0, .L16+8
 363 0028 FFF7FEFF 		bl	printf
 364              	.L15:
  31:home_screen.c ****         //lv_sw_toggle(obj, LV_ANIM_ON);
  32:home_screen.c ****         //cm4.onBit = !cm4.onBit;
  33:home_screen.c ****     }
  34:home_screen.c **** }
 365              		.loc 5 34 0 is_stmt 1
 366 002c 00BF     		nop
 367 002e 0837     		adds	r7, r7, #8
 368              		.cfi_def_cfa_offset 8
 369 0030 BD46     		mov	sp, r7
 370              		.cfi_def_cfa_register 13
 371              		@ sp needed
 372 0032 80BD     		pop	{r7, pc}
 373              	.L17:
 374              		.align	2
 375              	.L16:
 376 0034 08000000 		.word	.LC0
 377 0038 0C000000 		.word	.LC1
 378 003c 10000000 		.word	.LC2
 379              		.cfi_endproc
 380              	.LFE717:
 381              		.size	sw_event_handler, .-sw_event_handler
 382              		.section	.rodata
 383 001b 00       		.align	2
 384              	.LC3:
 385 001c 257500   		.ascii	"%u\000"
 386              		.section	.text.offset_slider_event_cb,"ax",%progbits
 387              		.align	2
 388              		.thumb
 389              		.thumb_func
 390              		.type	offset_slider_event_cb, %function
 391              	offset_slider_event_cb:
 392              	.LFB718:
  35:home_screen.c **** 
  36:home_screen.c **** static void offset_slider_event_cb(lv_obj_t * slider, lv_event_t event)
  37:home_screen.c **** {
 393              		.loc 5 37 0
 394              		.cfi_startproc
 395              		@ args = 0, pretend = 0, frame = 8
 396              		@ frame_needed = 1, uses_anonymous_args = 0
 397 0000 80B5     		push	{r7, lr}
 398              		.cfi_def_cfa_offset 8
 399              		.cfi_offset 7, -8
 400              		.cfi_offset 14, -4
 401 0002 82B0     		sub	sp, sp, #8
 402              		.cfi_def_cfa_offset 16
 403 0004 00AF     		add	r7, sp, #0
 404              		.cfi_def_cfa_register 7
 405 0006 7860     		str	r0, [r7, #4]
ARM GAS  C:\Users\chris\AppData\Local\Temp\cctP47hK.s 			page 23


 406 0008 0B46     		mov	r3, r1
 407 000a FB70     		strb	r3, [r7, #3]
  38:home_screen.c ****     if(event == LV_EVENT_VALUE_CHANGED) {
 408              		.loc 5 38 0
 409 000c FB78     		ldrb	r3, [r7, #3]	@ zero_extendqisi2
 410 000e 0E2B     		cmp	r3, #14
 411 0010 15D1     		bne	.L20
 412              	.LBB2:
  39:home_screen.c ****         static char buf[4]; /* max 3 bytes for number plus 1 null terminating byte */
  40:home_screen.c ****         snprintf(buf, 4, "%u", lv_slider_get_value(slider));
 413              		.loc 5 40 0
 414 0012 7868     		ldr	r0, [r7, #4]
 415 0014 FFF7FEFF 		bl	lv_slider_get_value
 416 0018 0346     		mov	r3, r0
 417 001a 0B4A     		ldr	r2, .L21
 418 001c 0421     		movs	r1, #4
 419 001e 0B48     		ldr	r0, .L21+4
 420 0020 FFF7FEFF 		bl	snprintf
  41:home_screen.c ****         lv_label_set_text(offsetLabel, buf);
 421              		.loc 5 41 0
 422 0024 0A4B     		ldr	r3, .L21+8
 423 0026 1B68     		ldr	r3, [r3]
 424 0028 0849     		ldr	r1, .L21+4
 425 002a 1846     		mov	r0, r3
 426 002c FFF7FEFF 		bl	lv_label_set_text
  42:home_screen.c ****         //int temp = (int)(buf);          //type cast the new slider value to an integer
  43:home_screen.c ****         //cm4.Offset = (zeros | temp);    //stores the new slider value in the global structure
  44:home_screen.c ****         cm4.Offset = lv_slider_get_value(slider);
 427              		.loc 5 44 0
 428 0030 7868     		ldr	r0, [r7, #4]
 429 0032 FFF7FEFF 		bl	lv_slider_get_value
 430 0036 0346     		mov	r3, r0
 431 0038 DAB2     		uxtb	r2, r3
 432 003a 064B     		ldr	r3, .L21+12
 433 003c 9A72     		strb	r2, [r3, #10]
 434              	.L20:
 435              	.LBE2:
  45:home_screen.c ****     }
  46:home_screen.c **** }
 436              		.loc 5 46 0
 437 003e 00BF     		nop
 438 0040 0837     		adds	r7, r7, #8
 439              		.cfi_def_cfa_offset 8
 440 0042 BD46     		mov	sp, r7
 441              		.cfi_def_cfa_register 13
 442              		@ sp needed
 443 0044 80BD     		pop	{r7, pc}
 444              	.L22:
 445 0046 00BF     		.align	2
 446              	.L21:
 447 0048 1C000000 		.word	.LC3
 448 004c 18000000 		.word	buf.20852
 449 0050 00000000 		.word	offsetLabel
 450 0054 00000000 		.word	cm4
 451              		.cfi_endproc
 452              	.LFE718:
 453              		.size	offset_slider_event_cb, .-offset_slider_event_cb
ARM GAS  C:\Users\chris\AppData\Local\Temp\cctP47hK.s 			page 24


 454              		.section	.text.trigger_slider_event_cb,"ax",%progbits
 455              		.align	2
 456              		.thumb
 457              		.thumb_func
 458              		.type	trigger_slider_event_cb, %function
 459              	trigger_slider_event_cb:
 460              	.LFB719:
  47:home_screen.c **** static void trigger_slider_event_cb(lv_obj_t * slider, lv_event_t event)
  48:home_screen.c **** {
 461              		.loc 5 48 0
 462              		.cfi_startproc
 463              		@ args = 0, pretend = 0, frame = 8
 464              		@ frame_needed = 1, uses_anonymous_args = 0
 465 0000 80B5     		push	{r7, lr}
 466              		.cfi_def_cfa_offset 8
 467              		.cfi_offset 7, -8
 468              		.cfi_offset 14, -4
 469 0002 82B0     		sub	sp, sp, #8
 470              		.cfi_def_cfa_offset 16
 471 0004 00AF     		add	r7, sp, #0
 472              		.cfi_def_cfa_register 7
 473 0006 7860     		str	r0, [r7, #4]
 474 0008 0B46     		mov	r3, r1
 475 000a FB70     		strb	r3, [r7, #3]
  49:home_screen.c ****     if(event == LV_EVENT_VALUE_CHANGED) {
 476              		.loc 5 49 0
 477 000c FB78     		ldrb	r3, [r7, #3]	@ zero_extendqisi2
 478 000e 0E2B     		cmp	r3, #14
 479 0010 15D1     		bne	.L25
 480              	.LBB3:
  50:home_screen.c ****         static char buf[4]; /* max 3 bytes for number plus 1 null terminating byte */
  51:home_screen.c ****         snprintf(buf, 4, "%u", lv_slider_get_value(slider));
 481              		.loc 5 51 0
 482 0012 7868     		ldr	r0, [r7, #4]
 483 0014 FFF7FEFF 		bl	lv_slider_get_value
 484 0018 0346     		mov	r3, r0
 485 001a 0B4A     		ldr	r2, .L26
 486 001c 0421     		movs	r1, #4
 487 001e 0B48     		ldr	r0, .L26+4
 488 0020 FFF7FEFF 		bl	snprintf
  52:home_screen.c ****         lv_label_set_text(triggerLabel, buf);
 489              		.loc 5 52 0
 490 0024 0A4B     		ldr	r3, .L26+8
 491 0026 1B68     		ldr	r3, [r3]
 492 0028 0849     		ldr	r1, .L26+4
 493 002a 1846     		mov	r0, r3
 494 002c FFF7FEFF 		bl	lv_label_set_text
  53:home_screen.c ****         //int temp = (int)(buf);          //type cast the new slider value to an integer
  54:home_screen.c ****         //cm4.Trigger = (zeros | temp);    //stores the new slider value in the global structure
  55:home_screen.c ****         cm4.Trigger = lv_slider_get_value(slider);
 495              		.loc 5 55 0
 496 0030 7868     		ldr	r0, [r7, #4]
 497 0032 FFF7FEFF 		bl	lv_slider_get_value
 498 0036 0346     		mov	r3, r0
 499 0038 DAB2     		uxtb	r2, r3
 500 003a 064B     		ldr	r3, .L26+12
 501 003c 1A71     		strb	r2, [r3, #4]
ARM GAS  C:\Users\chris\AppData\Local\Temp\cctP47hK.s 			page 25


 502              	.L25:
 503              	.LBE3:
  56:home_screen.c ****     }
  57:home_screen.c **** }
 504              		.loc 5 57 0
 505 003e 00BF     		nop
 506 0040 0837     		adds	r7, r7, #8
 507              		.cfi_def_cfa_offset 8
 508 0042 BD46     		mov	sp, r7
 509              		.cfi_def_cfa_register 13
 510              		@ sp needed
 511 0044 80BD     		pop	{r7, pc}
 512              	.L27:
 513 0046 00BF     		.align	2
 514              	.L26:
 515 0048 1C000000 		.word	.LC3
 516 004c 1C000000 		.word	buf.20857
 517 0050 04000000 		.word	triggerLabel
 518 0054 00000000 		.word	cm4
 519              		.cfi_endproc
 520              	.LFE719:
 521              		.size	trigger_slider_event_cb, .-trigger_slider_event_cb
 522              		.section	.text.hori_slider_event_cb,"ax",%progbits
 523              		.align	2
 524              		.thumb
 525              		.thumb_func
 526              		.type	hori_slider_event_cb, %function
 527              	hori_slider_event_cb:
 528              	.LFB720:
  58:home_screen.c **** static void hori_slider_event_cb(lv_obj_t * slider, lv_event_t event)
  59:home_screen.c **** {
 529              		.loc 5 59 0
 530              		.cfi_startproc
 531              		@ args = 0, pretend = 0, frame = 8
 532              		@ frame_needed = 1, uses_anonymous_args = 0
 533 0000 80B5     		push	{r7, lr}
 534              		.cfi_def_cfa_offset 8
 535              		.cfi_offset 7, -8
 536              		.cfi_offset 14, -4
 537 0002 82B0     		sub	sp, sp, #8
 538              		.cfi_def_cfa_offset 16
 539 0004 00AF     		add	r7, sp, #0
 540              		.cfi_def_cfa_register 7
 541 0006 7860     		str	r0, [r7, #4]
 542 0008 0B46     		mov	r3, r1
 543 000a FB70     		strb	r3, [r7, #3]
  60:home_screen.c ****     if(event == LV_EVENT_VALUE_CHANGED) {
 544              		.loc 5 60 0
 545 000c FB78     		ldrb	r3, [r7, #3]	@ zero_extendqisi2
 546 000e 0E2B     		cmp	r3, #14
 547 0010 15D1     		bne	.L30
 548              	.LBB4:
  61:home_screen.c ****         static char buf[4]; /* max 3 bytes for number plus 1 null terminating byte */
  62:home_screen.c ****         snprintf(buf, 4, "%u", lv_slider_get_value(slider));
 549              		.loc 5 62 0
 550 0012 7868     		ldr	r0, [r7, #4]
 551 0014 FFF7FEFF 		bl	lv_slider_get_value
ARM GAS  C:\Users\chris\AppData\Local\Temp\cctP47hK.s 			page 26


 552 0018 0346     		mov	r3, r0
 553 001a 0B4A     		ldr	r2, .L31
 554 001c 0421     		movs	r1, #4
 555 001e 0B48     		ldr	r0, .L31+4
 556 0020 FFF7FEFF 		bl	snprintf
  63:home_screen.c ****         lv_label_set_text(horiLabel1, buf);
 557              		.loc 5 63 0
 558 0024 0A4B     		ldr	r3, .L31+8
 559 0026 1B68     		ldr	r3, [r3]
 560 0028 0849     		ldr	r1, .L31+4
 561 002a 1846     		mov	r0, r3
 562 002c FFF7FEFF 		bl	lv_label_set_text
  64:home_screen.c ****         //int temp = (int)(buf);          //type cast the new slider value to an integer
  65:home_screen.c ****         //cm4.HoriScale = (zeros | temp);    //stores the new slider value in the global structure
  66:home_screen.c ****         cm4.HoriScale = lv_slider_get_value(slider);
 563              		.loc 5 66 0
 564 0030 7868     		ldr	r0, [r7, #4]
 565 0032 FFF7FEFF 		bl	lv_slider_get_value
 566 0036 0346     		mov	r3, r0
 567 0038 DAB2     		uxtb	r2, r3
 568 003a 064B     		ldr	r3, .L31+12
 569 003c 1A76     		strb	r2, [r3, #24]
 570              	.L30:
 571              	.LBE4:
  67:home_screen.c ****     }
  68:home_screen.c **** }
 572              		.loc 5 68 0
 573 003e 00BF     		nop
 574 0040 0837     		adds	r7, r7, #8
 575              		.cfi_def_cfa_offset 8
 576 0042 BD46     		mov	sp, r7
 577              		.cfi_def_cfa_register 13
 578              		@ sp needed
 579 0044 80BD     		pop	{r7, pc}
 580              	.L32:
 581 0046 00BF     		.align	2
 582              	.L31:
 583 0048 1C000000 		.word	.LC3
 584 004c 20000000 		.word	buf.20862
 585 0050 08000000 		.word	horiLabel1
 586 0054 00000000 		.word	cm4
 587              		.cfi_endproc
 588              	.LFE720:
 589              		.size	hori_slider_event_cb, .-hori_slider_event_cb
 590              		.section	.text.verti_slider_event_cb,"ax",%progbits
 591              		.align	2
 592              		.thumb
 593              		.thumb_func
 594              		.type	verti_slider_event_cb, %function
 595              	verti_slider_event_cb:
 596              	.LFB721:
  69:home_screen.c **** static void verti_slider_event_cb(lv_obj_t * slider, lv_event_t event)
  70:home_screen.c **** {
 597              		.loc 5 70 0
 598              		.cfi_startproc
 599              		@ args = 0, pretend = 0, frame = 8
 600              		@ frame_needed = 1, uses_anonymous_args = 0
ARM GAS  C:\Users\chris\AppData\Local\Temp\cctP47hK.s 			page 27


 601 0000 80B5     		push	{r7, lr}
 602              		.cfi_def_cfa_offset 8
 603              		.cfi_offset 7, -8
 604              		.cfi_offset 14, -4
 605 0002 82B0     		sub	sp, sp, #8
 606              		.cfi_def_cfa_offset 16
 607 0004 00AF     		add	r7, sp, #0
 608              		.cfi_def_cfa_register 7
 609 0006 7860     		str	r0, [r7, #4]
 610 0008 0B46     		mov	r3, r1
 611 000a FB70     		strb	r3, [r7, #3]
  71:home_screen.c ****     if(event == LV_EVENT_VALUE_CHANGED) {
 612              		.loc 5 71 0
 613 000c FB78     		ldrb	r3, [r7, #3]	@ zero_extendqisi2
 614 000e 0E2B     		cmp	r3, #14
 615 0010 15D1     		bne	.L35
 616              	.LBB5:
  72:home_screen.c ****         static char buf[4]; /* max 3 bytes for number plus 1 null terminating byte */
  73:home_screen.c ****         snprintf(buf, 4, "%u", lv_slider_get_value(slider));
 617              		.loc 5 73 0
 618 0012 7868     		ldr	r0, [r7, #4]
 619 0014 FFF7FEFF 		bl	lv_slider_get_value
 620 0018 0346     		mov	r3, r0
 621 001a 0B4A     		ldr	r2, .L36
 622 001c 0421     		movs	r1, #4
 623 001e 0B48     		ldr	r0, .L36+4
 624 0020 FFF7FEFF 		bl	snprintf
  74:home_screen.c ****         lv_label_set_text(vertLabel1, buf);
 625              		.loc 5 74 0
 626 0024 0A4B     		ldr	r3, .L36+8
 627 0026 1B68     		ldr	r3, [r3]
 628 0028 0849     		ldr	r1, .L36+4
 629 002a 1846     		mov	r0, r3
 630 002c FFF7FEFF 		bl	lv_label_set_text
  75:home_screen.c ****         //int temp = (int)(buf);          //type cast the new slider value to an integer
  76:home_screen.c ****         //cm4.VertScale = (zeros | temp);    //stores the new slider value in the global structure
  77:home_screen.c ****         cm4.VertScale = lv_slider_get_value(slider);
 631              		.loc 5 77 0
 632 0030 7868     		ldr	r0, [r7, #4]
 633 0032 FFF7FEFF 		bl	lv_slider_get_value
 634 0036 0346     		mov	r3, r0
 635 0038 DAB2     		uxtb	r2, r3
 636 003a 064B     		ldr	r3, .L36+12
 637 003c 5A76     		strb	r2, [r3, #25]
 638              	.L35:
 639              	.LBE5:
  78:home_screen.c ****     }
  79:home_screen.c **** }
 640              		.loc 5 79 0
 641 003e 00BF     		nop
 642 0040 0837     		adds	r7, r7, #8
 643              		.cfi_def_cfa_offset 8
 644 0042 BD46     		mov	sp, r7
 645              		.cfi_def_cfa_register 13
 646              		@ sp needed
 647 0044 80BD     		pop	{r7, pc}
 648              	.L37:
ARM GAS  C:\Users\chris\AppData\Local\Temp\cctP47hK.s 			page 28


 649 0046 00BF     		.align	2
 650              	.L36:
 651 0048 1C000000 		.word	.LC3
 652 004c 24000000 		.word	buf.20867
 653 0050 0C000000 		.word	vertLabel1
 654 0054 00000000 		.word	cm4
 655              		.cfi_endproc
 656              	.LFE721:
 657              		.size	verti_slider_event_cb, .-verti_slider_event_cb
 658              		.section	.text.window_slider_event_cb,"ax",%progbits
 659              		.align	2
 660              		.thumb
 661              		.thumb_func
 662              		.type	window_slider_event_cb, %function
 663              	window_slider_event_cb:
 664              	.LFB722:
  80:home_screen.c **** static void window_slider_event_cb(lv_obj_t * slider, lv_event_t event)
  81:home_screen.c **** {
 665              		.loc 5 81 0
 666              		.cfi_startproc
 667              		@ args = 0, pretend = 0, frame = 8
 668              		@ frame_needed = 1, uses_anonymous_args = 0
 669 0000 80B5     		push	{r7, lr}
 670              		.cfi_def_cfa_offset 8
 671              		.cfi_offset 7, -8
 672              		.cfi_offset 14, -4
 673 0002 82B0     		sub	sp, sp, #8
 674              		.cfi_def_cfa_offset 16
 675 0004 00AF     		add	r7, sp, #0
 676              		.cfi_def_cfa_register 7
 677 0006 7860     		str	r0, [r7, #4]
 678 0008 0B46     		mov	r3, r1
 679 000a FB70     		strb	r3, [r7, #3]
  82:home_screen.c ****     if(event == LV_EVENT_VALUE_CHANGED) {
 680              		.loc 5 82 0
 681 000c FB78     		ldrb	r3, [r7, #3]	@ zero_extendqisi2
 682 000e 0E2B     		cmp	r3, #14
 683 0010 15D1     		bne	.L40
 684              	.LBB6:
  83:home_screen.c ****         static char buf[4]; /* max 3 bytes for number plus 1 null terminating byte */
  84:home_screen.c ****         snprintf(buf, 4, "%u", lv_slider_get_value(slider));
 685              		.loc 5 84 0
 686 0012 7868     		ldr	r0, [r7, #4]
 687 0014 FFF7FEFF 		bl	lv_slider_get_value
 688 0018 0346     		mov	r3, r0
 689 001a 0B4A     		ldr	r2, .L41
 690 001c 0421     		movs	r1, #4
 691 001e 0B48     		ldr	r0, .L41+4
 692 0020 FFF7FEFF 		bl	snprintf
  85:home_screen.c ****         lv_label_set_text(windowLabel, buf);
 693              		.loc 5 85 0
 694 0024 0A4B     		ldr	r3, .L41+8
 695 0026 1B68     		ldr	r3, [r3]
 696 0028 0849     		ldr	r1, .L41+4
 697 002a 1846     		mov	r0, r3
 698 002c FFF7FEFF 		bl	lv_label_set_text
  86:home_screen.c ****         //int temp = (int)(buf);          //type cast the new slider value to an integer
ARM GAS  C:\Users\chris\AppData\Local\Temp\cctP47hK.s 			page 29


  87:home_screen.c ****         //cm4.windowPos = (zeros | temp);    //stores the new slider value in the global structure
  88:home_screen.c ****         cm4.windowPos = lv_slider_get_value(slider);
 699              		.loc 5 88 0
 700 0030 7868     		ldr	r0, [r7, #4]
 701 0032 FFF7FEFF 		bl	lv_slider_get_value
 702 0036 0346     		mov	r3, r0
 703 0038 1A46     		mov	r2, r3
 704 003a 064B     		ldr	r3, .L41+12
 705 003c DA60     		str	r2, [r3, #12]
 706              	.L40:
 707              	.LBE6:
  89:home_screen.c ****     }
  90:home_screen.c **** }
 708              		.loc 5 90 0
 709 003e 00BF     		nop
 710 0040 0837     		adds	r7, r7, #8
 711              		.cfi_def_cfa_offset 8
 712 0042 BD46     		mov	sp, r7
 713              		.cfi_def_cfa_register 13
 714              		@ sp needed
 715 0044 80BD     		pop	{r7, pc}
 716              	.L42:
 717 0046 00BF     		.align	2
 718              	.L41:
 719 0048 1C000000 		.word	.LC3
 720 004c 28000000 		.word	buf.20872
 721 0050 10000000 		.word	windowLabel
 722 0054 00000000 		.word	cm4
 723              		.cfi_endproc
 724              	.LFE722:
 725              		.size	window_slider_event_cb, .-window_slider_event_cb
 726              		.section	.rodata
 727 001f 00       		.align	2
 728              	.LC4:
 729 0020 3500     		.ascii	"5\000"
 730 0022 0000     		.align	2
 731              	.LC5:
 732 0024 4F666673 		.ascii	"Offset:\000"
 732      65743A00 
 733              		.align	2
 734              	.LC6:
 735 002c 54726967 		.ascii	"Trigger\000"
 735      67657200 
 736              		.align	2
 737              	.LC7:
 738 0034 486F7269 		.ascii	"Hori. Scale :\000"
 738      2E205363 
 738      616C6520 
 738      3A00
 739 0042 0000     		.align	2
 740              	.LC8:
 741 0044 56657274 		.ascii	"Vert. Scale :\000"
 741      2E205363 
 741      616C6520 
 741      3A00
 742 0052 0000     		.align	2
 743              	.LC9:
ARM GAS  C:\Users\chris\AppData\Local\Temp\cctP47hK.s 			page 30


 744 0054 35313200 		.ascii	"512\000"
 745              		.align	2
 746              	.LC10:
 747 0058 4F6E5C4F 		.ascii	"On\\Off\000"
 747      666600
 748              		.section	.text.home_screen,"ax",%progbits
 749              		.align	2
 750              		.global	home_screen
 751              		.thumb
 752              		.thumb_func
 753              		.type	home_screen, %function
 754              	home_screen:
 755              	.LFB723:
  91:home_screen.c **** 
  92:home_screen.c **** //static void buildChart(lv_obj_t * chart){
  93:home_screen.c **** //    
  94:home_screen.c **** //}
  95:home_screen.c **** 
  96:home_screen.c **** //static void updateChart(){
  97:home_screen.c **** //    
  98:home_screen.c **** //}
  99:home_screen.c **** 
 100:home_screen.c **** void home_screen()
 101:home_screen.c **** {
 756              		.loc 5 101 0
 757              		.cfi_startproc
 758              		@ args = 0, pretend = 0, frame = 72
 759              		@ frame_needed = 1, uses_anonymous_args = 0
 760 0000 90B5     		push	{r4, r7, lr}
 761              		.cfi_def_cfa_offset 12
 762              		.cfi_offset 4, -12
 763              		.cfi_offset 7, -8
 764              		.cfi_offset 14, -4
 765 0002 95B0     		sub	sp, sp, #84
 766              		.cfi_def_cfa_offset 96
 767 0004 02AF     		add	r7, sp, #8
 768              		.cfi_def_cfa 7, 88
 102:home_screen.c ****   
 103:home_screen.c ****     const int chart_width = 280;
 769              		.loc 5 103 0
 770 0006 4FF48C73 		mov	r3, #280
 771 000a 3B64     		str	r3, [r7, #64]
 104:home_screen.c ****     const int chart_heigth = 200;
 772              		.loc 5 104 0
 773 000c C823     		movs	r3, #200
 774 000e FB63     		str	r3, [r7, #60]
 105:home_screen.c ****     const int chart_vertPos = 20;
 775              		.loc 5 105 0
 776 0010 1423     		movs	r3, #20
 777 0012 BB63     		str	r3, [r7, #56]
 106:home_screen.c ****     const int chart_horiPos = 20;      
 778              		.loc 5 106 0
 779 0014 1423     		movs	r3, #20
 780 0016 7B63     		str	r3, [r7, #52]
 107:home_screen.c ****     
 108:home_screen.c ****     static lv_obj_t *my_label;
 109:home_screen.c ****     static lv_style_t *lbl_style;
ARM GAS  C:\Users\chris\AppData\Local\Temp\cctP47hK.s 			page 31


 110:home_screen.c ****     
 111:home_screen.c ****     static lv_obj_t *chart1;        //declaring the chart
 112:home_screen.c ****     
 113:home_screen.c ****     
 114:home_screen.c ****     //char gain_str[3];
 115:home_screen.c ****     //sprintf(gain_str, "%02X", cm4.gain_label);
 116:home_screen.c ****     
 117:home_screen.c ****     /* First Slider: Offset */
 118:home_screen.c ****     lv_obj_t * offsetSlider = lv_slider_create(lv_scr_act(), NULL);
 781              		.loc 5 118 0
 782 0018 FFF7FEFF 		bl	lv_scr_act
 783 001c 0346     		mov	r3, r0
 784 001e 0021     		movs	r1, #0
 785 0020 1846     		mov	r0, r3
 786 0022 FFF7FEFF 		bl	lv_slider_create
 787 0026 3863     		str	r0, [r7, #48]
 119:home_screen.c ****     lv_obj_set_pos(offsetSlider, 20, 280);                         /*Set its position*/
 788              		.loc 5 119 0
 789 0028 4FF48C72 		mov	r2, #280
 790 002c 1421     		movs	r1, #20
 791 002e 386B     		ldr	r0, [r7, #48]
 792 0030 FFF7FEFF 		bl	lv_obj_set_pos
 120:home_screen.c ****     lv_obj_set_size(offsetSlider, 130, 30);                        /*Set its size*/
 793              		.loc 5 120 0
 794 0034 1E22     		movs	r2, #30
 795 0036 8221     		movs	r1, #130
 796 0038 386B     		ldr	r0, [r7, #48]
 797 003a FFF7FEFF 		bl	lv_obj_set_size
 121:home_screen.c ****     lv_slider_set_value(offsetSlider, 0, LV_ANIM_ON);
 798              		.loc 5 121 0
 799 003e 0122     		movs	r2, #1
 800 0040 0021     		movs	r1, #0
 801 0042 386B     		ldr	r0, [r7, #48]
 802 0044 FFF7FEFF 		bl	lv_slider_set_value
 122:home_screen.c ****     lv_obj_set_event_cb(offsetSlider, offset_slider_event_cb);
 803              		.loc 5 122 0
 804 0048 C749     		ldr	r1, .L48
 805 004a 386B     		ldr	r0, [r7, #48]
 806 004c FFF7FEFF 		bl	lv_obj_set_event_cb
 123:home_screen.c ****     lv_slider_set_range(offsetSlider, -5, 5);
 807              		.loc 5 123 0
 808 0050 0522     		movs	r2, #5
 809 0052 6FF00401 		mvn	r1, #4
 810 0056 386B     		ldr	r0, [r7, #48]
 811 0058 FFF7FEFF 		bl	lv_slider_set_range
 124:home_screen.c ****         
 125:home_screen.c ****             /* Create a label below the slider */
 126:home_screen.c ****             offsetLabel = lv_label_create(lv_scr_act(), NULL);
 812              		.loc 5 126 0
 813 005c FFF7FEFF 		bl	lv_scr_act
 814 0060 0346     		mov	r3, r0
 815 0062 0021     		movs	r1, #0
 816 0064 1846     		mov	r0, r3
 817 0066 FFF7FEFF 		bl	lv_label_create
 818 006a 0246     		mov	r2, r0
 819 006c BF4B     		ldr	r3, .L48+4
 820 006e 1A60     		str	r2, [r3]
ARM GAS  C:\Users\chris\AppData\Local\Temp\cctP47hK.s 			page 32


 127:home_screen.c ****             lv_label_set_text(offsetLabel, "5");
 821              		.loc 5 127 0
 822 0070 BE4B     		ldr	r3, .L48+4
 823 0072 1B68     		ldr	r3, [r3]
 824 0074 BE49     		ldr	r1, .L48+8
 825 0076 1846     		mov	r0, r3
 826 0078 FFF7FEFF 		bl	lv_label_set_text
 128:home_screen.c ****             lv_obj_set_auto_realign(offsetLabel, true);
 827              		.loc 5 128 0
 828 007c BB4B     		ldr	r3, .L48+4
 829 007e 1B68     		ldr	r3, [r3]
 830 0080 0121     		movs	r1, #1
 831 0082 1846     		mov	r0, r3
 832 0084 FFF7FEFF 		bl	lv_obj_set_auto_realign
 129:home_screen.c ****             lv_obj_align(offsetLabel, offsetSlider, LV_ALIGN_OUT_BOTTOM_MID, 0, 0);
 833              		.loc 5 129 0
 834 0088 B84B     		ldr	r3, .L48+4
 835 008a 1868     		ldr	r0, [r3]
 836 008c 0023     		movs	r3, #0
 837 008e 0093     		str	r3, [sp]
 838 0090 0023     		movs	r3, #0
 839 0092 0D22     		movs	r2, #13
 840 0094 396B     		ldr	r1, [r7, #48]
 841 0096 FFF7FEFF 		bl	lv_obj_align
 130:home_screen.c ****         
 131:home_screen.c ****             /* Create a label above the slider */
 132:home_screen.c ****         	lv_obj_t* offsetLabel2 = lv_label_create(lv_scr_act(), NULL);
 842              		.loc 5 132 0
 843 009a FFF7FEFF 		bl	lv_scr_act
 844 009e 0346     		mov	r3, r0
 845 00a0 0021     		movs	r1, #0
 846 00a2 1846     		mov	r0, r3
 847 00a4 FFF7FEFF 		bl	lv_label_create
 848 00a8 F862     		str	r0, [r7, #44]
 133:home_screen.c ****         	lv_obj_set_drag(offsetLabel2, false);
 849              		.loc 5 133 0
 850 00aa 0021     		movs	r1, #0
 851 00ac F86A     		ldr	r0, [r7, #44]
 852 00ae FFF7FEFF 		bl	lv_obj_set_drag
 134:home_screen.c ****             lv_label_set_text(offsetLabel2, "Offset:");
 853              		.loc 5 134 0
 854 00b2 B049     		ldr	r1, .L48+12
 855 00b4 F86A     		ldr	r0, [r7, #44]
 856 00b6 FFF7FEFF 		bl	lv_label_set_text
 135:home_screen.c ****             lv_label_set_long_mode(offsetLabel2, LV_LABEL_LONG_EXPAND);
 857              		.loc 5 135 0
 858 00ba 0021     		movs	r1, #0
 859 00bc F86A     		ldr	r0, [r7, #44]
 860 00be FFF7FEFF 		bl	lv_label_set_long_mode
 136:home_screen.c ****             lv_obj_set_pos(offsetLabel2, 20, 250);                         /*Set its position*/
 861              		.loc 5 136 0
 862 00c2 FA22     		movs	r2, #250
 863 00c4 1421     		movs	r1, #20
 864 00c6 F86A     		ldr	r0, [r7, #44]
 865 00c8 FFF7FEFF 		bl	lv_obj_set_pos
 137:home_screen.c ****     
 138:home_screen.c ****     
ARM GAS  C:\Users\chris\AppData\Local\Temp\cctP47hK.s 			page 33


 139:home_screen.c ****     /* Second Slider: Trigger */
 140:home_screen.c ****     lv_obj_t * triggerSlider = lv_slider_create(lv_scr_act(), NULL);
 866              		.loc 5 140 0
 867 00cc FFF7FEFF 		bl	lv_scr_act
 868 00d0 0346     		mov	r3, r0
 869 00d2 0021     		movs	r1, #0
 870 00d4 1846     		mov	r0, r3
 871 00d6 FFF7FEFF 		bl	lv_slider_create
 872 00da B862     		str	r0, [r7, #40]
 141:home_screen.c ****     lv_obj_set_pos(triggerSlider, 170, 280);                         /*Set its position*/
 873              		.loc 5 141 0
 874 00dc 4FF48C72 		mov	r2, #280
 875 00e0 AA21     		movs	r1, #170
 876 00e2 B86A     		ldr	r0, [r7, #40]
 877 00e4 FFF7FEFF 		bl	lv_obj_set_pos
 142:home_screen.c ****     lv_obj_set_size(triggerSlider, 130, 30);                        /*Set its size*/
 878              		.loc 5 142 0
 879 00e8 1E22     		movs	r2, #30
 880 00ea 8221     		movs	r1, #130
 881 00ec B86A     		ldr	r0, [r7, #40]
 882 00ee FFF7FEFF 		bl	lv_obj_set_size
 143:home_screen.c ****     lv_slider_set_value(triggerSlider, 0, LV_ANIM_ON);
 883              		.loc 5 143 0
 884 00f2 0122     		movs	r2, #1
 885 00f4 0021     		movs	r1, #0
 886 00f6 B86A     		ldr	r0, [r7, #40]
 887 00f8 FFF7FEFF 		bl	lv_slider_set_value
 144:home_screen.c ****     lv_obj_set_event_cb(triggerSlider, trigger_slider_event_cb);
 888              		.loc 5 144 0
 889 00fc 9E49     		ldr	r1, .L48+16
 890 00fe B86A     		ldr	r0, [r7, #40]
 891 0100 FFF7FEFF 		bl	lv_obj_set_event_cb
 145:home_screen.c ****     lv_slider_set_range(triggerSlider, -5, 5);
 892              		.loc 5 145 0
 893 0104 0522     		movs	r2, #5
 894 0106 6FF00401 		mvn	r1, #4
 895 010a B86A     		ldr	r0, [r7, #40]
 896 010c FFF7FEFF 		bl	lv_slider_set_range
 146:home_screen.c ****     
 147:home_screen.c ****             /* Create a label below the slider */
 148:home_screen.c ****             triggerLabel = lv_label_create(lv_scr_act(), NULL);
 897              		.loc 5 148 0
 898 0110 FFF7FEFF 		bl	lv_scr_act
 899 0114 0346     		mov	r3, r0
 900 0116 0021     		movs	r1, #0
 901 0118 1846     		mov	r0, r3
 902 011a FFF7FEFF 		bl	lv_label_create
 903 011e 0246     		mov	r2, r0
 904 0120 964B     		ldr	r3, .L48+20
 905 0122 1A60     		str	r2, [r3]
 149:home_screen.c ****             lv_label_set_text(triggerLabel, "5");
 906              		.loc 5 149 0
 907 0124 954B     		ldr	r3, .L48+20
 908 0126 1B68     		ldr	r3, [r3]
 909 0128 9149     		ldr	r1, .L48+8
 910 012a 1846     		mov	r0, r3
 911 012c FFF7FEFF 		bl	lv_label_set_text
ARM GAS  C:\Users\chris\AppData\Local\Temp\cctP47hK.s 			page 34


 150:home_screen.c ****             lv_obj_set_auto_realign(triggerLabel, true);
 912              		.loc 5 150 0
 913 0130 924B     		ldr	r3, .L48+20
 914 0132 1B68     		ldr	r3, [r3]
 915 0134 0121     		movs	r1, #1
 916 0136 1846     		mov	r0, r3
 917 0138 FFF7FEFF 		bl	lv_obj_set_auto_realign
 151:home_screen.c ****             lv_obj_align(triggerLabel, triggerSlider, LV_ALIGN_OUT_BOTTOM_MID, 0, 0);
 918              		.loc 5 151 0
 919 013c 8F4B     		ldr	r3, .L48+20
 920 013e 1868     		ldr	r0, [r3]
 921 0140 0023     		movs	r3, #0
 922 0142 0093     		str	r3, [sp]
 923 0144 0023     		movs	r3, #0
 924 0146 0D22     		movs	r2, #13
 925 0148 B96A     		ldr	r1, [r7, #40]
 926 014a FFF7FEFF 		bl	lv_obj_align
 152:home_screen.c ****             
 153:home_screen.c ****             /* Create a label above the slider */
 154:home_screen.c ****         	lv_obj_t* triggerLabel2 = lv_label_create(lv_scr_act(), NULL);
 927              		.loc 5 154 0
 928 014e FFF7FEFF 		bl	lv_scr_act
 929 0152 0346     		mov	r3, r0
 930 0154 0021     		movs	r1, #0
 931 0156 1846     		mov	r0, r3
 932 0158 FFF7FEFF 		bl	lv_label_create
 933 015c 7862     		str	r0, [r7, #36]
 155:home_screen.c ****         	lv_obj_set_drag(triggerLabel2, false);
 934              		.loc 5 155 0
 935 015e 0021     		movs	r1, #0
 936 0160 786A     		ldr	r0, [r7, #36]
 937 0162 FFF7FEFF 		bl	lv_obj_set_drag
 156:home_screen.c ****             lv_label_set_text(triggerLabel2, "Trigger");
 938              		.loc 5 156 0
 939 0166 8649     		ldr	r1, .L48+24
 940 0168 786A     		ldr	r0, [r7, #36]
 941 016a FFF7FEFF 		bl	lv_label_set_text
 157:home_screen.c ****             lv_obj_set_pos(triggerLabel2, 200, 250); 
 942              		.loc 5 157 0
 943 016e FA22     		movs	r2, #250
 944 0170 C821     		movs	r1, #200
 945 0172 786A     		ldr	r0, [r7, #36]
 946 0174 FFF7FEFF 		bl	lv_obj_set_pos
 158:home_screen.c **** 
 159:home_screen.c ****     
 160:home_screen.c ****     /* Third Slider: Hori. Scale */
 161:home_screen.c ****     lv_obj_t * horiSlider = lv_slider_create(lv_scr_act(), NULL);
 947              		.loc 5 161 0
 948 0178 FFF7FEFF 		bl	lv_scr_act
 949 017c 0346     		mov	r3, r0
 950 017e 0021     		movs	r1, #0
 951 0180 1846     		mov	r0, r3
 952 0182 FFF7FEFF 		bl	lv_slider_create
 953 0186 3862     		str	r0, [r7, #32]
 162:home_screen.c ****     lv_obj_set_pos(horiSlider, 20, 375);                         /*Set its position*/
 954              		.loc 5 162 0
 955 0188 40F27712 		movw	r2, #375
ARM GAS  C:\Users\chris\AppData\Local\Temp\cctP47hK.s 			page 35


 956 018c 1421     		movs	r1, #20
 957 018e 386A     		ldr	r0, [r7, #32]
 958 0190 FFF7FEFF 		bl	lv_obj_set_pos
 163:home_screen.c ****     lv_obj_set_size(horiSlider, 130, 30);                        /*Set its size*/
 959              		.loc 5 163 0
 960 0194 1E22     		movs	r2, #30
 961 0196 8221     		movs	r1, #130
 962 0198 386A     		ldr	r0, [r7, #32]
 963 019a FFF7FEFF 		bl	lv_obj_set_size
 164:home_screen.c ****     lv_slider_set_value(horiSlider, 4, LV_ANIM_ON);
 964              		.loc 5 164 0
 965 019e 0122     		movs	r2, #1
 966 01a0 0421     		movs	r1, #4
 967 01a2 386A     		ldr	r0, [r7, #32]
 968 01a4 FFF7FEFF 		bl	lv_slider_set_value
 165:home_screen.c ****     lv_obj_set_event_cb(horiSlider, hori_slider_event_cb);
 969              		.loc 5 165 0
 970 01a8 7649     		ldr	r1, .L48+28
 971 01aa 386A     		ldr	r0, [r7, #32]
 972 01ac FFF7FEFF 		bl	lv_obj_set_event_cb
 166:home_screen.c ****     lv_slider_set_range(horiSlider, 0, 9);                      // 11 options for the 11 different 
 973              		.loc 5 166 0
 974 01b0 0922     		movs	r2, #9
 975 01b2 0021     		movs	r1, #0
 976 01b4 386A     		ldr	r0, [r7, #32]
 977 01b6 FFF7FEFF 		bl	lv_slider_set_range
 167:home_screen.c ****     
 168:home_screen.c ****             /* Create a label below the slider */
 169:home_screen.c ****             horiLabel1 = lv_label_create(lv_scr_act(), NULL);
 978              		.loc 5 169 0
 979 01ba FFF7FEFF 		bl	lv_scr_act
 980 01be 0346     		mov	r3, r0
 981 01c0 0021     		movs	r1, #0
 982 01c2 1846     		mov	r0, r3
 983 01c4 FFF7FEFF 		bl	lv_label_create
 984 01c8 0246     		mov	r2, r0
 985 01ca 6F4B     		ldr	r3, .L48+32
 986 01cc 1A60     		str	r2, [r3]
 170:home_screen.c ****             lv_label_set_text(horiLabel1, "5");
 987              		.loc 5 170 0
 988 01ce 6E4B     		ldr	r3, .L48+32
 989 01d0 1B68     		ldr	r3, [r3]
 990 01d2 6749     		ldr	r1, .L48+8
 991 01d4 1846     		mov	r0, r3
 992 01d6 FFF7FEFF 		bl	lv_label_set_text
 171:home_screen.c ****             lv_obj_set_auto_realign(horiLabel1, true);
 993              		.loc 5 171 0
 994 01da 6B4B     		ldr	r3, .L48+32
 995 01dc 1B68     		ldr	r3, [r3]
 996 01de 0121     		movs	r1, #1
 997 01e0 1846     		mov	r0, r3
 998 01e2 FFF7FEFF 		bl	lv_obj_set_auto_realign
 172:home_screen.c ****             lv_obj_align(horiLabel1, horiSlider, LV_ALIGN_OUT_BOTTOM_MID, 0, 0);
 999              		.loc 5 172 0
 1000 01e6 684B     		ldr	r3, .L48+32
 1001 01e8 1868     		ldr	r0, [r3]
 1002 01ea 0023     		movs	r3, #0
ARM GAS  C:\Users\chris\AppData\Local\Temp\cctP47hK.s 			page 36


 1003 01ec 0093     		str	r3, [sp]
 1004 01ee 0023     		movs	r3, #0
 1005 01f0 0D22     		movs	r2, #13
 1006 01f2 396A     		ldr	r1, [r7, #32]
 1007 01f4 FFF7FEFF 		bl	lv_obj_align
 173:home_screen.c ****             
 174:home_screen.c ****             /* Create a label above the slider */
 175:home_screen.c ****         	lv_obj_t* horiLabel2 = lv_label_create(lv_scr_act(), NULL);
 1008              		.loc 5 175 0
 1009 01f8 FFF7FEFF 		bl	lv_scr_act
 1010 01fc 0346     		mov	r3, r0
 1011 01fe 0021     		movs	r1, #0
 1012 0200 1846     		mov	r0, r3
 1013 0202 FFF7FEFF 		bl	lv_label_create
 1014 0206 F861     		str	r0, [r7, #28]
 176:home_screen.c ****         	lv_obj_set_drag(horiLabel2, false);
 1015              		.loc 5 176 0
 1016 0208 0021     		movs	r1, #0
 1017 020a F869     		ldr	r0, [r7, #28]
 1018 020c FFF7FEFF 		bl	lv_obj_set_drag
 177:home_screen.c ****             lv_label_set_text(horiLabel2, "Hori. Scale :");
 1019              		.loc 5 177 0
 1020 0210 5E49     		ldr	r1, .L48+36
 1021 0212 F869     		ldr	r0, [r7, #28]
 1022 0214 FFF7FEFF 		bl	lv_label_set_text
 178:home_screen.c ****             lv_obj_set_pos(horiLabel2, 20, 345);                         /*Set its position*/
 1023              		.loc 5 178 0
 1024 0218 40F25912 		movw	r2, #345
 1025 021c 1421     		movs	r1, #20
 1026 021e F869     		ldr	r0, [r7, #28]
 1027 0220 FFF7FEFF 		bl	lv_obj_set_pos
 179:home_screen.c ****     
 180:home_screen.c ****     /* Fourth Slider: Vert. Scale */
 181:home_screen.c ****     lv_obj_t * vertSlider = lv_slider_create(lv_scr_act(), NULL);
 1028              		.loc 5 181 0
 1029 0224 FFF7FEFF 		bl	lv_scr_act
 1030 0228 0346     		mov	r3, r0
 1031 022a 0021     		movs	r1, #0
 1032 022c 1846     		mov	r0, r3
 1033 022e FFF7FEFF 		bl	lv_slider_create
 1034 0232 B861     		str	r0, [r7, #24]
 182:home_screen.c ****     lv_obj_set_pos(vertSlider, 170, 375);                         /*Set its position*/
 1035              		.loc 5 182 0
 1036 0234 40F27712 		movw	r2, #375
 1037 0238 AA21     		movs	r1, #170
 1038 023a B869     		ldr	r0, [r7, #24]
 1039 023c FFF7FEFF 		bl	lv_obj_set_pos
 183:home_screen.c ****     lv_obj_set_size(vertSlider, 130, 30);                        /*Set its size*/
 1040              		.loc 5 183 0
 1041 0240 1E22     		movs	r2, #30
 1042 0242 8221     		movs	r1, #130
 1043 0244 B869     		ldr	r0, [r7, #24]
 1044 0246 FFF7FEFF 		bl	lv_obj_set_size
 184:home_screen.c ****     lv_slider_set_value(vertSlider, 5, LV_ANIM_ON);
 1045              		.loc 5 184 0
 1046 024a 0122     		movs	r2, #1
 1047 024c 0521     		movs	r1, #5
ARM GAS  C:\Users\chris\AppData\Local\Temp\cctP47hK.s 			page 37


 1048 024e B869     		ldr	r0, [r7, #24]
 1049 0250 FFF7FEFF 		bl	lv_slider_set_value
 185:home_screen.c ****     lv_obj_set_event_cb(vertSlider, verti_slider_event_cb);
 1050              		.loc 5 185 0
 1051 0254 4E49     		ldr	r1, .L48+40
 1052 0256 B869     		ldr	r0, [r7, #24]
 1053 0258 FFF7FEFF 		bl	lv_obj_set_event_cb
 186:home_screen.c ****     lv_slider_set_range(vertSlider, 0, 10);
 1054              		.loc 5 186 0
 1055 025c 0A22     		movs	r2, #10
 1056 025e 0021     		movs	r1, #0
 1057 0260 B869     		ldr	r0, [r7, #24]
 1058 0262 FFF7FEFF 		bl	lv_slider_set_range
 187:home_screen.c ****     
 188:home_screen.c ****             /* Create a label below the slider */
 189:home_screen.c ****             vertLabel1 = lv_label_create(lv_scr_act(), NULL);
 1059              		.loc 5 189 0
 1060 0266 FFF7FEFF 		bl	lv_scr_act
 1061 026a 0346     		mov	r3, r0
 1062 026c 0021     		movs	r1, #0
 1063 026e 1846     		mov	r0, r3
 1064 0270 FFF7FEFF 		bl	lv_label_create
 1065 0274 0246     		mov	r2, r0
 1066 0276 474B     		ldr	r3, .L48+44
 1067 0278 1A60     		str	r2, [r3]
 190:home_screen.c ****             lv_label_set_text(vertLabel1, "5");
 1068              		.loc 5 190 0
 1069 027a 464B     		ldr	r3, .L48+44
 1070 027c 1B68     		ldr	r3, [r3]
 1071 027e 3C49     		ldr	r1, .L48+8
 1072 0280 1846     		mov	r0, r3
 1073 0282 FFF7FEFF 		bl	lv_label_set_text
 191:home_screen.c ****             lv_obj_set_auto_realign(vertLabel1, true);
 1074              		.loc 5 191 0
 1075 0286 434B     		ldr	r3, .L48+44
 1076 0288 1B68     		ldr	r3, [r3]
 1077 028a 0121     		movs	r1, #1
 1078 028c 1846     		mov	r0, r3
 1079 028e FFF7FEFF 		bl	lv_obj_set_auto_realign
 192:home_screen.c ****             lv_obj_align(vertLabel1, vertSlider, LV_ALIGN_OUT_BOTTOM_MID, 0, 0);
 1080              		.loc 5 192 0
 1081 0292 404B     		ldr	r3, .L48+44
 1082 0294 1868     		ldr	r0, [r3]
 1083 0296 0023     		movs	r3, #0
 1084 0298 0093     		str	r3, [sp]
 1085 029a 0023     		movs	r3, #0
 1086 029c 0D22     		movs	r2, #13
 1087 029e B969     		ldr	r1, [r7, #24]
 1088 02a0 FFF7FEFF 		bl	lv_obj_align
 193:home_screen.c ****             
 194:home_screen.c ****             /* Create a label above the slider */
 195:home_screen.c ****         	lv_obj_t* vertLabel2 = lv_label_create(lv_scr_act(), NULL);
 1089              		.loc 5 195 0
 1090 02a4 FFF7FEFF 		bl	lv_scr_act
 1091 02a8 0346     		mov	r3, r0
 1092 02aa 0021     		movs	r1, #0
 1093 02ac 1846     		mov	r0, r3
ARM GAS  C:\Users\chris\AppData\Local\Temp\cctP47hK.s 			page 38


 1094 02ae FFF7FEFF 		bl	lv_label_create
 1095 02b2 7861     		str	r0, [r7, #20]
 196:home_screen.c ****         	lv_obj_set_drag(vertLabel2, false);
 1096              		.loc 5 196 0
 1097 02b4 0021     		movs	r1, #0
 1098 02b6 7869     		ldr	r0, [r7, #20]
 1099 02b8 FFF7FEFF 		bl	lv_obj_set_drag
 197:home_screen.c ****             lv_label_set_text(vertLabel2, "Vert. Scale :");
 1100              		.loc 5 197 0
 1101 02bc 3649     		ldr	r1, .L48+48
 1102 02be 7869     		ldr	r0, [r7, #20]
 1103 02c0 FFF7FEFF 		bl	lv_label_set_text
 198:home_screen.c ****             lv_obj_set_pos(vertLabel2, 170, 345); 
 1104              		.loc 5 198 0
 1105 02c4 40F25912 		movw	r2, #345
 1106 02c8 AA21     		movs	r1, #170
 1107 02ca 7869     		ldr	r0, [r7, #20]
 1108 02cc FFF7FEFF 		bl	lv_obj_set_pos
 199:home_screen.c ****             
 200:home_screen.c ****     
 201:home_screen.c ****     /* Fifth Slider: Horizontal Window      Control Range of Points shown */
 202:home_screen.c ****     lv_obj_t * windowSlider = lv_slider_create(lv_scr_act(), NULL);
 1109              		.loc 5 202 0
 1110 02d0 FFF7FEFF 		bl	lv_scr_act
 1111 02d4 0346     		mov	r3, r0
 1112 02d6 0021     		movs	r1, #0
 1113 02d8 1846     		mov	r0, r3
 1114 02da FFF7FEFF 		bl	lv_slider_create
 1115 02de 3861     		str	r0, [r7, #16]
 203:home_screen.c ****     lv_obj_set_pos(windowSlider, 20, 230);                         /*Set its position*/
 1116              		.loc 5 203 0
 1117 02e0 E622     		movs	r2, #230
 1118 02e2 1421     		movs	r1, #20
 1119 02e4 3869     		ldr	r0, [r7, #16]
 1120 02e6 FFF7FEFF 		bl	lv_obj_set_pos
 204:home_screen.c ****     lv_obj_set_size(windowSlider, 280, 30);                        /*Set its size*/
 1121              		.loc 5 204 0
 1122 02ea 1E22     		movs	r2, #30
 1123 02ec 4FF48C71 		mov	r1, #280
 1124 02f0 3869     		ldr	r0, [r7, #16]
 1125 02f2 FFF7FEFF 		bl	lv_obj_set_size
 205:home_screen.c ****     lv_obj_set_event_cb(windowSlider, window_slider_event_cb);
 1126              		.loc 5 205 0
 1127 02f6 2949     		ldr	r1, .L48+52
 1128 02f8 3869     		ldr	r0, [r7, #16]
 1129 02fa FFF7FEFF 		bl	lv_obj_set_event_cb
 206:home_screen.c ****     //lv_slider_set_range(windowSlider, 0, pow(2, cm4.HoriScale + 6));
 207:home_screen.c ****     lv_slider_set_range(windowSlider, 0, 1024);        
 1130              		.loc 5 207 0
 1131 02fe 4FF48062 		mov	r2, #1024
 1132 0302 0021     		movs	r1, #0
 1133 0304 3869     		ldr	r0, [r7, #16]
 1134 0306 FFF7FEFF 		bl	lv_slider_set_range
 208:home_screen.c ****     lv_slider_set_value(windowSlider, 512, LV_ANIM_ON);
 1135              		.loc 5 208 0
 1136 030a 0122     		movs	r2, #1
 1137 030c 4FF40071 		mov	r1, #512
ARM GAS  C:\Users\chris\AppData\Local\Temp\cctP47hK.s 			page 39


 1138 0310 3869     		ldr	r0, [r7, #16]
 1139 0312 FFF7FEFF 		bl	lv_slider_set_value
 209:home_screen.c ****     
 210:home_screen.c ****             /* Create a label below the slider */
 211:home_screen.c ****             windowLabel = lv_label_create(lv_scr_act(), NULL);
 1140              		.loc 5 211 0
 1141 0316 FFF7FEFF 		bl	lv_scr_act
 1142 031a 0346     		mov	r3, r0
 1143 031c 0021     		movs	r1, #0
 1144 031e 1846     		mov	r0, r3
 1145 0320 FFF7FEFF 		bl	lv_label_create
 1146 0324 0246     		mov	r2, r0
 1147 0326 1E4B     		ldr	r3, .L48+56
 1148 0328 1A60     		str	r2, [r3]
 212:home_screen.c ****             lv_label_set_text(windowLabel, "512");
 1149              		.loc 5 212 0
 1150 032a 1D4B     		ldr	r3, .L48+56
 1151 032c 1B68     		ldr	r3, [r3]
 1152 032e 1D49     		ldr	r1, .L48+60
 1153 0330 1846     		mov	r0, r3
 1154 0332 FFF7FEFF 		bl	lv_label_set_text
 213:home_screen.c ****             lv_obj_set_auto_realign(windowLabel, true);
 1155              		.loc 5 213 0
 1156 0336 1A4B     		ldr	r3, .L48+56
 1157 0338 1B68     		ldr	r3, [r3]
 1158 033a 0121     		movs	r1, #1
 1159 033c 1846     		mov	r0, r3
 1160 033e FFF7FEFF 		bl	lv_obj_set_auto_realign
 214:home_screen.c ****             lv_obj_align(windowLabel, windowSlider, LV_ALIGN_OUT_BOTTOM_MID, 0, 0);
 1161              		.loc 5 214 0
 1162 0342 174B     		ldr	r3, .L48+56
 1163 0344 1868     		ldr	r0, [r3]
 1164 0346 0023     		movs	r3, #0
 1165 0348 0093     		str	r3, [sp]
 1166 034a 0023     		movs	r3, #0
 1167 034c 0D22     		movs	r2, #13
 1168 034e 3969     		ldr	r1, [r7, #16]
 1169 0350 FFF7FEFF 		bl	lv_obj_align
 215:home_screen.c ****     
 216:home_screen.c ****     chart1 = lv_chart_create(lv_scr_act(), NULL);                     //Add a chart to the current 
 1170              		.loc 5 216 0
 1171 0354 FFF7FEFF 		bl	lv_scr_act
 1172 0358 0346     		mov	r3, r0
 1173 035a 0021     		movs	r1, #0
 1174 035c 1846     		mov	r0, r3
 1175 035e FFF7FEFF 		bl	lv_chart_create
 1176 0362 0246     		mov	r2, r0
 1177 0364 20E0     		b	.L49
 1178              	.L50:
 1179 0366 00BF     		.align	2
 1180              	.L48:
 1181 0368 00000000 		.word	offset_slider_event_cb
 1182 036c 00000000 		.word	offsetLabel
 1183 0370 20000000 		.word	.LC4
 1184 0374 24000000 		.word	.LC5
 1185 0378 00000000 		.word	trigger_slider_event_cb
 1186 037c 04000000 		.word	triggerLabel
ARM GAS  C:\Users\chris\AppData\Local\Temp\cctP47hK.s 			page 40


 1187 0380 2C000000 		.word	.LC6
 1188 0384 00000000 		.word	hori_slider_event_cb
 1189 0388 08000000 		.word	horiLabel1
 1190 038c 34000000 		.word	.LC7
 1191 0390 00000000 		.word	verti_slider_event_cb
 1192 0394 0C000000 		.word	vertLabel1
 1193 0398 44000000 		.word	.LC8
 1194 039c 00000000 		.word	window_slider_event_cb
 1195 03a0 10000000 		.word	windowLabel
 1196 03a4 54000000 		.word	.LC9
 1197              	.L49:
 1198 03a8 574B     		ldr	r3, .L51
 1199 03aa 1A60     		str	r2, [r3]
 217:home_screen.c ****     //lv_obj_set_style(chart1, &style_box);                           //sets the style
 218:home_screen.c ****     lv_obj_set_pos(chart1, chart_horiPos, chart_vertPos);             /*Set its position*/
 1200              		.loc 5 218 0
 1201 03ac 564B     		ldr	r3, .L51
 1202 03ae 1B68     		ldr	r3, [r3]
 1203 03b0 7A6B     		ldr	r2, [r7, #52]
 1204 03b2 11B2     		sxth	r1, r2
 1205 03b4 BA6B     		ldr	r2, [r7, #56]
 1206 03b6 12B2     		sxth	r2, r2
 1207 03b8 1846     		mov	r0, r3
 1208 03ba FFF7FEFF 		bl	lv_obj_set_pos
 219:home_screen.c ****     lv_obj_set_size(chart1, chart_width, chart_heigth);               /*Set its size*/   
 1209              		.loc 5 219 0
 1210 03be 524B     		ldr	r3, .L51
 1211 03c0 1B68     		ldr	r3, [r3]
 1212 03c2 3A6C     		ldr	r2, [r7, #64]
 1213 03c4 11B2     		sxth	r1, r2
 1214 03c6 FA6B     		ldr	r2, [r7, #60]
 1215 03c8 12B2     		sxth	r2, r2
 1216 03ca 1846     		mov	r0, r3
 1217 03cc FFF7FEFF 		bl	lv_obj_set_size
 220:home_screen.c ****     
 221:home_screen.c ****     //GIVE IMPACT BASED ON THE VERT AND HORI SCALE
 222:home_screen.c ****     lv_chart_set_div_line_count(chart1, 3, 4);                        //sets the grid lines
 1218              		.loc 5 222 0
 1219 03d0 4D4B     		ldr	r3, .L51
 1220 03d2 1B68     		ldr	r3, [r3]
 1221 03d4 0422     		movs	r2, #4
 1222 03d6 0321     		movs	r1, #3
 1223 03d8 1846     		mov	r0, r3
 1224 03da FFF7FEFF 		bl	lv_chart_set_div_line_count
 223:home_screen.c ****     
 224:home_screen.c ****     lv_chart_set_point_count(chart1, 200);                              //setting the number of poi
 1225              		.loc 5 224 0
 1226 03de 4A4B     		ldr	r3, .L51
 1227 03e0 1B68     		ldr	r3, [r3]
 1228 03e2 C821     		movs	r1, #200
 1229 03e4 1846     		mov	r0, r3
 1230 03e6 FFF7FEFF 		bl	lv_chart_set_point_count
 225:home_screen.c ****     lv_chart_set_type(chart1, LV_CHART_TYPE_POINT);                    //set graph to points, as op
 1231              		.loc 5 225 0
 1232 03ea 474B     		ldr	r3, .L51
 1233 03ec 1B68     		ldr	r3, [r3]
 1234 03ee 0421     		movs	r1, #4
ARM GAS  C:\Users\chris\AppData\Local\Temp\cctP47hK.s 			page 41


 1235 03f0 1846     		mov	r0, r3
 1236 03f2 FFF7FEFF 		bl	lv_chart_set_type
 226:home_screen.c ****                                                                       
 227:home_screen.c **** 
 228:home_screen.c ****     lv_chart_series_t * s1 = lv_chart_add_series(chart1, lv_color_hex(0x01a2b1));
 1237              		.loc 5 228 0
 1238 03f6 444B     		ldr	r3, .L51
 1239 03f8 1C68     		ldr	r4, [r3]
 1240 03fa 4448     		ldr	r0, .L51+4
 1241 03fc FFF7FEFF 		bl	lv_color_hex
 1242 0400 0346     		mov	r3, r0
 1243 0402 1946     		mov	r1, r3
 1244 0404 2046     		mov	r0, r4
 1245 0406 FFF7FEFF 		bl	lv_chart_add_series
 1246 040a F860     		str	r0, [r7, #12]
 229:home_screen.c ****     
 230:home_screen.c ****     // Need to calculate the desired indexes in RxBuffer, Based on HoriScale
 231:home_screen.c ****     //always show 200 points, those points based on the window
 232:home_screen.c ****     cm4.windowMin = cm4.windowPos - 100;
 1247              		.loc 5 232 0
 1248 040c 404B     		ldr	r3, .L51+8
 1249 040e DB68     		ldr	r3, [r3, #12]
 1250 0410 643B     		subs	r3, r3, #100
 1251 0412 3F4A     		ldr	r2, .L51+8
 1252 0414 1361     		str	r3, [r2, #16]
 233:home_screen.c ****     cm4.windowMax = cm4.windowPos + 100;
 1253              		.loc 5 233 0
 1254 0416 3E4B     		ldr	r3, .L51+8
 1255 0418 DB68     		ldr	r3, [r3, #12]
 1256 041a 6433     		adds	r3, r3, #100
 1257 041c 3C4A     		ldr	r2, .L51+8
 1258 041e 5361     		str	r3, [r2, #20]
 234:home_screen.c ****     
 235:home_screen.c ****     if(cm4.windowMin - 100 < 0){
 1259              		.loc 5 235 0
 1260 0420 3B4B     		ldr	r3, .L51+8
 1261 0422 1B69     		ldr	r3, [r3, #16]
 1262 0424 643B     		subs	r3, r3, #100
 1263 0426 002B     		cmp	r3, #0
 1264 0428 09DA     		bge	.L44
 236:home_screen.c ****         cm4.windowMax = (cm4.windowMin * -1) + cm4.windowMax;
 1265              		.loc 5 236 0
 1266 042a 394B     		ldr	r3, .L51+8
 1267 042c 5A69     		ldr	r2, [r3, #20]
 1268 042e 384B     		ldr	r3, .L51+8
 1269 0430 1B69     		ldr	r3, [r3, #16]
 1270 0432 D31A     		subs	r3, r2, r3
 1271 0434 364A     		ldr	r2, .L51+8
 1272 0436 5361     		str	r3, [r2, #20]
 237:home_screen.c ****         cm4.windowMin = 0;
 1273              		.loc 5 237 0
 1274 0438 354B     		ldr	r3, .L51+8
 1275 043a 0022     		movs	r2, #0
 1276 043c 1A61     		str	r2, [r3, #16]
 1277              	.L44:
 238:home_screen.c ****     }
 239:home_screen.c ****     //if(windowMax + 100 > pow(2, cm4.HoriScale + 6)){
ARM GAS  C:\Users\chris\AppData\Local\Temp\cctP47hK.s 			page 42


 240:home_screen.c ****     if(cm4.windowMax + 100 > 1024){
 1278              		.loc 5 240 0
 1279 043e 344B     		ldr	r3, .L51+8
 1280 0440 5B69     		ldr	r3, [r3, #20]
 1281 0442 6433     		adds	r3, r3, #100
 1282 0444 B3F5806F 		cmp	r3, #1024
 1283 0448 0CDD     		ble	.L45
 241:home_screen.c ****         //windowMin = windowMin - (windowMax - pow(2, cm4.HoriScale + 6)); 
 242:home_screen.c ****         cm4.windowMin = cm4.windowMin - (cm4.windowMax - 1024); 
 1284              		.loc 5 242 0
 1285 044a 314B     		ldr	r3, .L51+8
 1286 044c 1A69     		ldr	r2, [r3, #16]
 1287 044e 304B     		ldr	r3, .L51+8
 1288 0450 5B69     		ldr	r3, [r3, #20]
 1289 0452 A3F58063 		sub	r3, r3, #1024
 1290 0456 D31A     		subs	r3, r2, r3
 1291 0458 2D4A     		ldr	r2, .L51+8
 1292 045a 1361     		str	r3, [r2, #16]
 243:home_screen.c ****         //windowMax = pow(2, cm4.HoriScale + 6); 
 244:home_screen.c ****         cm4.windowMax = 1024; 
 1293              		.loc 5 244 0
 1294 045c 2C4B     		ldr	r3, .L51+8
 1295 045e 4FF48062 		mov	r2, #1024
 1296 0462 5A61     		str	r2, [r3, #20]
 1297              	.L45:
 1298              	.LBB7:
 245:home_screen.c ****     }
 246:home_screen.c ****    
 247:home_screen.c ****     //for(int i = cm4.windowMin; i < cm4.windowMax; ++i){
 248:home_screen.c ****     for(int i = 412; i < 612; ++i){
 1299              		.loc 5 248 0
 1300 0464 4FF4CE73 		mov	r3, #412
 1301 0468 7B64     		str	r3, [r7, #68]
 1302 046a 0FE0     		b	.L46
 1303              	.L47:
 249:home_screen.c ****         //lv_chart_set_next(chart1, s1, points[i]);
 250:home_screen.c ****         //lv_chart_set_next(chart1, s1, cm4.RxBuffer[i] + cm4.Offset);
 251:home_screen.c ****         lv_chart_set_next(chart1, s1, cm4.RxBuffer[i]);
 1304              		.loc 5 251 0 discriminator 3
 1305 046c 264B     		ldr	r3, .L51
 1306 046e 1868     		ldr	r0, [r3]
 1307 0470 274A     		ldr	r2, .L51+8
 1308 0472 7B6C     		ldr	r3, [r7, #68]
 1309 0474 1833     		adds	r3, r3, #24
 1310 0476 5B00     		lsls	r3, r3, #1
 1311 0478 1344     		add	r3, r3, r2
 1312 047a DB88     		ldrh	r3, [r3, #6]
 1313 047c 1BB2     		sxth	r3, r3
 1314 047e 1A46     		mov	r2, r3
 1315 0480 F968     		ldr	r1, [r7, #12]
 1316 0482 FFF7FEFF 		bl	lv_chart_set_next
 248:home_screen.c ****         //lv_chart_set_next(chart1, s1, points[i]);
 1317              		.loc 5 248 0 discriminator 3
 1318 0486 7B6C     		ldr	r3, [r7, #68]
 1319 0488 0133     		adds	r3, r3, #1
 1320 048a 7B64     		str	r3, [r7, #68]
 1321              	.L46:
ARM GAS  C:\Users\chris\AppData\Local\Temp\cctP47hK.s 			page 43


 248:home_screen.c ****         //lv_chart_set_next(chart1, s1, points[i]);
 1322              		.loc 5 248 0 is_stmt 0 discriminator 1
 1323 048c 7B6C     		ldr	r3, [r7, #68]
 1324 048e B3F5197F 		cmp	r3, #612
 1325 0492 EBDB     		blt	.L47
 1326              	.LBE7:
 252:home_screen.c ****     }
 253:home_screen.c ****     
 254:home_screen.c ****     //Adding an on/off switch
 255:home_screen.c **** 	lv_obj_t* switchLabel = lv_label_create(lv_scr_act(), NULL);
 1327              		.loc 5 255 0 is_stmt 1
 1328 0494 FFF7FEFF 		bl	lv_scr_act
 1329 0498 0346     		mov	r3, r0
 1330 049a 0021     		movs	r1, #0
 1331 049c 1846     		mov	r0, r3
 1332 049e FFF7FEFF 		bl	lv_label_create
 1333 04a2 B860     		str	r0, [r7, #8]
 256:home_screen.c **** 	lv_obj_set_drag(switchLabel, false);
 1334              		.loc 5 256 0
 1335 04a4 0021     		movs	r1, #0
 1336 04a6 B868     		ldr	r0, [r7, #8]
 1337 04a8 FFF7FEFF 		bl	lv_obj_set_drag
 257:home_screen.c ****     lv_label_set_text(switchLabel, "On\\Off");
 1338              		.loc 5 257 0
 1339 04ac 1949     		ldr	r1, .L51+12
 1340 04ae B868     		ldr	r0, [r7, #8]
 1341 04b0 FFF7FEFF 		bl	lv_label_set_text
 258:home_screen.c ****     lv_obj_set_pos(switchLabel, 85, 435);
 1342              		.loc 5 258 0
 1343 04b4 40F2B312 		movw	r2, #435
 1344 04b8 5521     		movs	r1, #85
 1345 04ba B868     		ldr	r0, [r7, #8]
 1346 04bc FFF7FEFF 		bl	lv_obj_set_pos
 259:home_screen.c ****     
 260:home_screen.c ****     lv_obj_t *sw1 = lv_sw_create(lv_scr_act(), NULL);
 1347              		.loc 5 260 0
 1348 04c0 FFF7FEFF 		bl	lv_scr_act
 1349 04c4 0346     		mov	r3, r0
 1350 04c6 0021     		movs	r1, #0
 1351 04c8 1846     		mov	r0, r3
 1352 04ca FFF7FEFF 		bl	lv_sw_create
 1353 04ce 7860     		str	r0, [r7, #4]
 261:home_screen.c ****     lv_obj_align(sw1, NULL, LV_ALIGN_CENTER, 0, -50);
 1354              		.loc 5 261 0
 1355 04d0 6FF03103 		mvn	r3, #49
 1356 04d4 0093     		str	r3, [sp]
 1357 04d6 0023     		movs	r3, #0
 1358 04d8 0022     		movs	r2, #0
 1359 04da 0021     		movs	r1, #0
 1360 04dc 7868     		ldr	r0, [r7, #4]
 1361 04de FFF7FEFF 		bl	lv_obj_align
 262:home_screen.c ****     lv_obj_set_event_cb(sw1, sw_event_handler);
 1362              		.loc 5 262 0
 1363 04e2 0D49     		ldr	r1, .L51+16
 1364 04e4 7868     		ldr	r0, [r7, #4]
 1365 04e6 FFF7FEFF 		bl	lv_obj_set_event_cb
 263:home_screen.c ****     //lv_obj_set_event_cb(sw1,  breath_activity_action);             /*Assign a callback to the but
ARM GAS  C:\Users\chris\AppData\Local\Temp\cctP47hK.s 			page 44


 264:home_screen.c ****     lv_obj_set_pos(sw1, 170, 435);                         /*Set its position*/
 1366              		.loc 5 264 0
 1367 04ea 40F2B312 		movw	r2, #435
 1368 04ee AA21     		movs	r1, #170
 1369 04f0 7868     		ldr	r0, [r7, #4]
 1370 04f2 FFF7FEFF 		bl	lv_obj_set_pos
 265:home_screen.c ****     lv_obj_set_size(sw1, 90, 30);               /*Set its size*/ 
 1371              		.loc 5 265 0
 1372 04f6 1E22     		movs	r2, #30
 1373 04f8 5A21     		movs	r1, #90
 1374 04fa 7868     		ldr	r0, [r7, #4]
 1375 04fc FFF7FEFF 		bl	lv_obj_set_size
 266:home_screen.c **** }...
 1376              		.loc 5 266 0
 1377 0500 00BF     		nop
 1378 0502 4C37     		adds	r7, r7, #76
 1379              		.cfi_def_cfa_offset 12
 1380 0504 BD46     		mov	sp, r7
 1381              		.cfi_def_cfa_register 13
 1382              		@ sp needed
 1383 0506 90BD     		pop	{r4, r7, pc}
 1384              	.L52:
 1385              		.align	2
 1386              	.L51:
 1387 0508 2C000000 		.word	chart1.20881
 1388 050c B1A20100 		.word	107185
 1389 0510 00000000 		.word	cm4
 1390 0514 58000000 		.word	.LC10
 1391 0518 00000000 		.word	sw_event_handler
 1392              		.cfi_endproc
 1393              	.LFE723:
 1394              		.size	home_screen, .-home_screen
 1395              		.bss
 1396 0015 000000   		.align	2
 1397              	buf.20852:
 1398 0018 00000000 		.space	4
 1399              		.align	2
 1400              	buf.20857:
 1401 001c 00000000 		.space	4
 1402              		.align	2
 1403              	buf.20862:
 1404 0020 00000000 		.space	4
 1405              		.align	2
 1406              	buf.20867:
 1407 0024 00000000 		.space	4
 1408              		.align	2
 1409              	buf.20872:
 1410 0028 00000000 		.space	4
 1411              		.align	2
 1412              	chart1.20881:
 1413 002c 00000000 		.space	4
 1414              		.align	2
 1415              	lbl_style.20880:
 1416 0030 00000000 		.space	4
 1417              		.align	2
 1418              	my_label.20879:
 1419 0034 00000000 		.space	4
ARM GAS  C:\Users\chris\AppData\Local\Temp\cctP47hK.s 			page 45


 1420              		.text
 1421              	.Letext0:
 1422              		.file 6 "e:\\applications\\psoc\\psoc creator\\4.3\\psoc creator\\import\\gnu\\arm\\5.4.1\\arm-non
 1423              		.file 7 "e:\\applications\\psoc\\psoc creator\\4.3\\psoc creator\\import\\gnu\\arm\\5.4.1\\arm-non
 1424              		.file 8 "Generated_Source\\PSoC6\\pdl\\drivers/peripheral/device/cy_device.h"
 1425              		.file 9 "Generated_Source\\PSoC6\\pdl\\drivers/peripheral/scb/cy_scb_i2c.h"
 1426              		.file 10 "Generated_Source\\PSoC6\\pdl\\drivers/peripheral/scb/cy_scb_spi.h"
 1427              		.file 11 "Generated_Source\\PSoC6\\pdl\\drivers/peripheral/tcpwm/cy_tcpwm_counter.h"
 1428              		.file 12 "globalStruct.h"
 1429              		.file 13 "..\\..\\..\\lvgl\\version_6.1.2\\lvgl/src/lv_misc/../../../lv_conf.h"
 1430              		.file 14 "..\\..\\..\\lvgl\\version_6.1.2\\lvgl/src/lv_misc/lv_types.h"
 1431              		.file 15 "..\\..\\..\\lvgl\\version_6.1.2\\lvgl/src/lv_misc/lv_ll.h"
 1432              		.file 16 "..\\..\\..\\lvgl\\version_6.1.2\\lvgl/src/lv_hal/../lv_misc/lv_area.h"
 1433              		.file 17 "..\\..\\..\\lvgl\\version_6.1.2\\lvgl/src/lv_core/lv_obj.h"
 1434              		.file 18 "..\\..\\..\\lvgl\\version_6.1.2\\lvgl/src/lv_core/../lv_font/lv_font.h"
 1435              		.file 19 "..\\..\\..\\lvgl\\version_6.1.2\\lvgl/src/lv_core/../lv_misc/lv_anim.h"
 1436              		.file 20 "..\\..\\..\\lvgl\\version_6.1.2\\lvgl/src/lv_core/lv_style.h"
 1437              		.file 21 "..\\..\\..\\lvgl\\version_6.1.2\\lvgl/src/lv_core/../lv_misc/lv_bidi.h"
 1438              		.file 22 "..\\..\\..\\lvgl\\version_6.1.2\\lvgl/src/lv_objx/lv_btn.h"
 1439              		.file 23 "..\\..\\..\\lvgl\\version_6.1.2\\lvgl/src/lv_objx/lv_label.h"
 1440              		.file 24 "..\\..\\..\\lvgl\\version_6.1.2\\lvgl/src/lv_objx/lv_chart.h"
 1441              		.file 25 "Generated_Source\\PSoC6\\pdl\\cmsis/include/core_cm4.h"
 1442              		.file 26 "Generated_Source\\PSoC6/DISP_TICK_TIMER.h"
 1443              		.file 27 "Generated_Source\\PSoC6/I2C_MASTER.h"
 1444              		.file 28 "Generated_Source\\PSoC6/SPIM.h"
 1445              		.section	.debug_info,"",%progbits
 1446              	.Ldebug_info0:
 1447 0000 F4170000 		.4byte	0x17f4
 1448 0004 0400     		.2byte	0x4
 1449 0006 00000000 		.4byte	.Ldebug_abbrev0
 1450 000a 04       		.byte	0x4
 1451 000b 01       		.uleb128 0x1
 1452 000c A2150000 		.4byte	.LASF400
 1453 0010 0C       		.byte	0xc
 1454 0011 32120000 		.4byte	.LASF401
 1455 0015 16040000 		.4byte	.LASF402
 1456 0019 00000000 		.4byte	.Ldebug_ranges0+0
 1457 001d 00000000 		.4byte	0
 1458 0021 00000000 		.4byte	.Ldebug_line0
 1459 0025 02       		.uleb128 0x2
 1460 0026 4C140000 		.4byte	.LASF0
 1461 002a 06       		.byte	0x6
 1462 002b 1B       		.byte	0x1b
 1463 002c 30000000 		.4byte	0x30
 1464 0030 03       		.uleb128 0x3
 1465 0031 01       		.byte	0x1
 1466 0032 06       		.byte	0x6
 1467 0033 D1130000 		.4byte	.LASF2
 1468 0037 02       		.uleb128 0x2
 1469 0038 D9100000 		.4byte	.LASF1
 1470 003c 06       		.byte	0x6
 1471 003d 1D       		.byte	0x1d
 1472 003e 42000000 		.4byte	0x42
 1473 0042 03       		.uleb128 0x3
 1474 0043 01       		.byte	0x1
 1475 0044 08       		.byte	0x8
 1476 0045 52120000 		.4byte	.LASF3
ARM GAS  C:\Users\chris\AppData\Local\Temp\cctP47hK.s 			page 46


 1477 0049 02       		.uleb128 0x2
 1478 004a AD0B0000 		.4byte	.LASF4
 1479 004e 06       		.byte	0x6
 1480 004f 29       		.byte	0x29
 1481 0050 54000000 		.4byte	0x54
 1482 0054 03       		.uleb128 0x3
 1483 0055 02       		.byte	0x2
 1484 0056 05       		.byte	0x5
 1485 0057 520F0000 		.4byte	.LASF5
 1486 005b 02       		.uleb128 0x2
 1487 005c B5080000 		.4byte	.LASF6
 1488 0060 06       		.byte	0x6
 1489 0061 2B       		.byte	0x2b
 1490 0062 66000000 		.4byte	0x66
 1491 0066 03       		.uleb128 0x3
 1492 0067 02       		.byte	0x2
 1493 0068 07       		.byte	0x7
 1494 0069 BB0D0000 		.4byte	.LASF7
 1495 006d 02       		.uleb128 0x2
 1496 006e FC010000 		.4byte	.LASF8
 1497 0072 06       		.byte	0x6
 1498 0073 3F       		.byte	0x3f
 1499 0074 78000000 		.4byte	0x78
 1500 0078 03       		.uleb128 0x3
 1501 0079 04       		.byte	0x4
 1502 007a 05       		.byte	0x5
 1503 007b B30F0000 		.4byte	.LASF9
 1504 007f 02       		.uleb128 0x2
 1505 0080 60120000 		.4byte	.LASF10
 1506 0084 06       		.byte	0x6
 1507 0085 41       		.byte	0x41
 1508 0086 8A000000 		.4byte	0x8a
 1509 008a 03       		.uleb128 0x3
 1510 008b 04       		.byte	0x4
 1511 008c 07       		.byte	0x7
 1512 008d 94110000 		.4byte	.LASF11
 1513 0091 03       		.uleb128 0x3
 1514 0092 08       		.byte	0x8
 1515 0093 05       		.byte	0x5
 1516 0094 CF0A0000 		.4byte	.LASF12
 1517 0098 03       		.uleb128 0x3
 1518 0099 08       		.byte	0x8
 1519 009a 07       		.byte	0x7
 1520 009b DC050000 		.4byte	.LASF13
 1521 009f 04       		.uleb128 0x4
 1522 00a0 04       		.byte	0x4
 1523 00a1 05       		.byte	0x5
 1524 00a2 696E7400 		.ascii	"int\000"
 1525 00a6 03       		.uleb128 0x3
 1526 00a7 04       		.byte	0x4
 1527 00a8 07       		.byte	0x7
 1528 00a9 99010000 		.4byte	.LASF14
 1529 00ad 03       		.uleb128 0x3
 1530 00ae 08       		.byte	0x8
 1531 00af 04       		.byte	0x4
 1532 00b0 CE0D0000 		.4byte	.LASF15
 1533 00b4 05       		.uleb128 0x5
ARM GAS  C:\Users\chris\AppData\Local\Temp\cctP47hK.s 			page 47


 1534 00b5 04       		.byte	0x4
 1535 00b6 03       		.uleb128 0x3
 1536 00b7 04       		.byte	0x4
 1537 00b8 07       		.byte	0x7
 1538 00b9 DA0E0000 		.4byte	.LASF16
 1539 00bd 03       		.uleb128 0x3
 1540 00be 01       		.byte	0x1
 1541 00bf 08       		.byte	0x8
 1542 00c0 05090000 		.4byte	.LASF17
 1543 00c4 02       		.uleb128 0x2
 1544 00c5 FD040000 		.4byte	.LASF18
 1545 00c9 07       		.byte	0x7
 1546 00ca 14       		.byte	0x14
 1547 00cb 25000000 		.4byte	0x25
 1548 00cf 02       		.uleb128 0x2
 1549 00d0 170A0000 		.4byte	.LASF19
 1550 00d4 07       		.byte	0x7
 1551 00d5 18       		.byte	0x18
 1552 00d6 37000000 		.4byte	0x37
 1553 00da 02       		.uleb128 0x2
 1554 00db A5050000 		.4byte	.LASF20
 1555 00df 07       		.byte	0x7
 1556 00e0 20       		.byte	0x20
 1557 00e1 49000000 		.4byte	0x49
 1558 00e5 02       		.uleb128 0x2
 1559 00e6 DA0D0000 		.4byte	.LASF21
 1560 00ea 07       		.byte	0x7
 1561 00eb 24       		.byte	0x24
 1562 00ec 5B000000 		.4byte	0x5b
 1563 00f0 02       		.uleb128 0x2
 1564 00f1 48060000 		.4byte	.LASF22
 1565 00f5 07       		.byte	0x7
 1566 00f6 2C       		.byte	0x2c
 1567 00f7 6D000000 		.4byte	0x6d
 1568 00fb 02       		.uleb128 0x2
 1569 00fc F4040000 		.4byte	.LASF23
 1570 0100 07       		.byte	0x7
 1571 0101 30       		.byte	0x30
 1572 0102 7F000000 		.4byte	0x7f
 1573 0106 06       		.uleb128 0x6
 1574 0107 FB000000 		.4byte	0xfb
 1575 010b 07       		.uleb128 0x7
 1576 010c B8       		.byte	0xb8
 1577 010d 08       		.byte	0x8
 1578 010e 34       		.byte	0x34
 1579 010f 1C050000 		.4byte	0x51c
 1580 0113 08       		.uleb128 0x8
 1581 0114 2F020000 		.4byte	.LASF24
 1582 0118 08       		.byte	0x8
 1583 0119 37       		.byte	0x37
 1584 011a FB000000 		.4byte	0xfb
 1585 011e 00       		.byte	0
 1586 011f 08       		.uleb128 0x8
 1587 0120 3D130000 		.4byte	.LASF25
 1588 0124 08       		.byte	0x8
 1589 0125 38       		.byte	0x38
 1590 0126 FB000000 		.4byte	0xfb
ARM GAS  C:\Users\chris\AppData\Local\Temp\cctP47hK.s 			page 48


 1591 012a 04       		.byte	0x4
 1592 012b 08       		.uleb128 0x8
 1593 012c 1D010000 		.4byte	.LASF26
 1594 0130 08       		.byte	0x8
 1595 0131 39       		.byte	0x39
 1596 0132 FB000000 		.4byte	0xfb
 1597 0136 08       		.byte	0x8
 1598 0137 08       		.uleb128 0x8
 1599 0138 FE000000 		.4byte	.LASF27
 1600 013c 08       		.byte	0x8
 1601 013d 3A       		.byte	0x3a
 1602 013e FB000000 		.4byte	0xfb
 1603 0142 0C       		.byte	0xc
 1604 0143 08       		.uleb128 0x8
 1605 0144 E30D0000 		.4byte	.LASF28
 1606 0148 08       		.byte	0x8
 1607 0149 3B       		.byte	0x3b
 1608 014a FB000000 		.4byte	0xfb
 1609 014e 10       		.byte	0x10
 1610 014f 08       		.uleb128 0x8
 1611 0150 C00B0000 		.4byte	.LASF29
 1612 0154 08       		.byte	0x8
 1613 0155 3C       		.byte	0x3c
 1614 0156 FB000000 		.4byte	0xfb
 1615 015a 14       		.byte	0x14
 1616 015b 08       		.uleb128 0x8
 1617 015c 2C070000 		.4byte	.LASF30
 1618 0160 08       		.byte	0x8
 1619 0161 3D       		.byte	0x3d
 1620 0162 FB000000 		.4byte	0xfb
 1621 0166 18       		.byte	0x18
 1622 0167 08       		.uleb128 0x8
 1623 0168 450A0000 		.4byte	.LASF31
 1624 016c 08       		.byte	0x8
 1625 016d 3E       		.byte	0x3e
 1626 016e FB000000 		.4byte	0xfb
 1627 0172 1C       		.byte	0x1c
 1628 0173 08       		.uleb128 0x8
 1629 0174 D7060000 		.4byte	.LASF32
 1630 0178 08       		.byte	0x8
 1631 0179 3F       		.byte	0x3f
 1632 017a FB000000 		.4byte	0xfb
 1633 017e 20       		.byte	0x20
 1634 017f 08       		.uleb128 0x8
 1635 0180 080B0000 		.4byte	.LASF33
 1636 0184 08       		.byte	0x8
 1637 0185 40       		.byte	0x40
 1638 0186 FB000000 		.4byte	0xfb
 1639 018a 24       		.byte	0x24
 1640 018b 08       		.uleb128 0x8
 1641 018c BB160000 		.4byte	.LASF34
 1642 0190 08       		.byte	0x8
 1643 0191 43       		.byte	0x43
 1644 0192 CF000000 		.4byte	0xcf
 1645 0196 28       		.byte	0x28
 1646 0197 08       		.uleb128 0x8
 1647 0198 A50F0000 		.4byte	.LASF35
ARM GAS  C:\Users\chris\AppData\Local\Temp\cctP47hK.s 			page 49


 1648 019c 08       		.byte	0x8
 1649 019d 44       		.byte	0x44
 1650 019e CF000000 		.4byte	0xcf
 1651 01a2 29       		.byte	0x29
 1652 01a3 08       		.uleb128 0x8
 1653 01a4 48120000 		.4byte	.LASF36
 1654 01a8 08       		.byte	0x8
 1655 01a9 45       		.byte	0x45
 1656 01aa CF000000 		.4byte	0xcf
 1657 01ae 2A       		.byte	0x2a
 1658 01af 08       		.uleb128 0x8
 1659 01b0 F60F0000 		.4byte	.LASF37
 1660 01b4 08       		.byte	0x8
 1661 01b5 46       		.byte	0x46
 1662 01b6 CF000000 		.4byte	0xcf
 1663 01ba 2B       		.byte	0x2b
 1664 01bb 08       		.uleb128 0x8
 1665 01bc EA0F0000 		.4byte	.LASF38
 1666 01c0 08       		.byte	0x8
 1667 01c1 47       		.byte	0x47
 1668 01c2 CF000000 		.4byte	0xcf
 1669 01c6 2C       		.byte	0x2c
 1670 01c7 08       		.uleb128 0x8
 1671 01c8 7D110000 		.4byte	.LASF39
 1672 01cc 08       		.byte	0x8
 1673 01cd 48       		.byte	0x48
 1674 01ce CF000000 		.4byte	0xcf
 1675 01d2 2D       		.byte	0x2d
 1676 01d3 08       		.uleb128 0x8
 1677 01d4 6C0E0000 		.4byte	.LASF40
 1678 01d8 08       		.byte	0x8
 1679 01d9 49       		.byte	0x49
 1680 01da CF000000 		.4byte	0xcf
 1681 01de 2E       		.byte	0x2e
 1682 01df 08       		.uleb128 0x8
 1683 01e0 6F020000 		.4byte	.LASF41
 1684 01e4 08       		.byte	0x8
 1685 01e5 4A       		.byte	0x4a
 1686 01e6 CF000000 		.4byte	0xcf
 1687 01ea 2F       		.byte	0x2f
 1688 01eb 08       		.uleb128 0x8
 1689 01ec 49080000 		.4byte	.LASF42
 1690 01f0 08       		.byte	0x8
 1691 01f1 4B       		.byte	0x4b
 1692 01f2 CF000000 		.4byte	0xcf
 1693 01f6 30       		.byte	0x30
 1694 01f7 08       		.uleb128 0x8
 1695 01f8 8D0C0000 		.4byte	.LASF43
 1696 01fc 08       		.byte	0x8
 1697 01fd 4E       		.byte	0x4e
 1698 01fe CF000000 		.4byte	0xcf
 1699 0202 31       		.byte	0x31
 1700 0203 08       		.uleb128 0x8
 1701 0204 F6130000 		.4byte	.LASF44
 1702 0208 08       		.byte	0x8
 1703 0209 4F       		.byte	0x4f
 1704 020a CF000000 		.4byte	0xcf
ARM GAS  C:\Users\chris\AppData\Local\Temp\cctP47hK.s 			page 50


 1705 020e 32       		.byte	0x32
 1706 020f 08       		.uleb128 0x8
 1707 0210 16150000 		.4byte	.LASF45
 1708 0214 08       		.byte	0x8
 1709 0215 50       		.byte	0x50
 1710 0216 CF000000 		.4byte	0xcf
 1711 021a 33       		.byte	0x33
 1712 021b 08       		.uleb128 0x8
 1713 021c D8080000 		.4byte	.LASF46
 1714 0220 08       		.byte	0x8
 1715 0221 51       		.byte	0x51
 1716 0222 CF000000 		.4byte	0xcf
 1717 0226 34       		.byte	0x34
 1718 0227 08       		.uleb128 0x8
 1719 0228 C4130000 		.4byte	.LASF47
 1720 022c 08       		.byte	0x8
 1721 022d 52       		.byte	0x52
 1722 022e DA000000 		.4byte	0xda
 1723 0232 36       		.byte	0x36
 1724 0233 08       		.uleb128 0x8
 1725 0234 3F030000 		.4byte	.LASF48
 1726 0238 08       		.byte	0x8
 1727 0239 53       		.byte	0x53
 1728 023a DA000000 		.4byte	0xda
 1729 023e 38       		.byte	0x38
 1730 023f 08       		.uleb128 0x8
 1731 0240 FE0B0000 		.4byte	.LASF49
 1732 0244 08       		.byte	0x8
 1733 0245 54       		.byte	0x54
 1734 0246 DA000000 		.4byte	0xda
 1735 024a 3A       		.byte	0x3a
 1736 024b 08       		.uleb128 0x8
 1737 024c 06020000 		.4byte	.LASF50
 1738 0250 08       		.byte	0x8
 1739 0251 55       		.byte	0x55
 1740 0252 CF000000 		.4byte	0xcf
 1741 0256 3C       		.byte	0x3c
 1742 0257 08       		.uleb128 0x8
 1743 0258 03070000 		.4byte	.LASF51
 1744 025c 08       		.byte	0x8
 1745 025d 56       		.byte	0x56
 1746 025e CF000000 		.4byte	0xcf
 1747 0262 3D       		.byte	0x3d
 1748 0263 08       		.uleb128 0x8
 1749 0264 35060000 		.4byte	.LASF52
 1750 0268 08       		.byte	0x8
 1751 0269 57       		.byte	0x57
 1752 026a CF000000 		.4byte	0xcf
 1753 026e 3E       		.byte	0x3e
 1754 026f 08       		.uleb128 0x8
 1755 0270 DB000000 		.4byte	.LASF53
 1756 0274 08       		.byte	0x8
 1757 0275 58       		.byte	0x58
 1758 0276 CF000000 		.4byte	0xcf
 1759 027a 3F       		.byte	0x3f
 1760 027b 08       		.uleb128 0x8
 1761 027c C2010000 		.4byte	.LASF54
ARM GAS  C:\Users\chris\AppData\Local\Temp\cctP47hK.s 			page 51


 1762 0280 08       		.byte	0x8
 1763 0281 59       		.byte	0x59
 1764 0282 CF000000 		.4byte	0xcf
 1765 0286 40       		.byte	0x40
 1766 0287 08       		.uleb128 0x8
 1767 0288 D40C0000 		.4byte	.LASF55
 1768 028c 08       		.byte	0x8
 1769 028d 5A       		.byte	0x5a
 1770 028e CF000000 		.4byte	0xcf
 1771 0292 41       		.byte	0x41
 1772 0293 08       		.uleb128 0x8
 1773 0294 71050000 		.4byte	.LASF56
 1774 0298 08       		.byte	0x8
 1775 0299 5B       		.byte	0x5b
 1776 029a CF000000 		.4byte	0xcf
 1777 029e 42       		.byte	0x42
 1778 029f 08       		.uleb128 0x8
 1779 02a0 85080000 		.4byte	.LASF57
 1780 02a4 08       		.byte	0x8
 1781 02a5 5C       		.byte	0x5c
 1782 02a6 CF000000 		.4byte	0xcf
 1783 02aa 43       		.byte	0x43
 1784 02ab 08       		.uleb128 0x8
 1785 02ac 59090000 		.4byte	.LASF58
 1786 02b0 08       		.byte	0x8
 1787 02b1 5D       		.byte	0x5d
 1788 02b2 CF000000 		.4byte	0xcf
 1789 02b6 44       		.byte	0x44
 1790 02b7 08       		.uleb128 0x8
 1791 02b8 04100000 		.4byte	.LASF59
 1792 02bc 08       		.byte	0x8
 1793 02bd 5E       		.byte	0x5e
 1794 02be FB000000 		.4byte	0xfb
 1795 02c2 48       		.byte	0x48
 1796 02c3 08       		.uleb128 0x8
 1797 02c4 06030000 		.4byte	.LASF60
 1798 02c8 08       		.byte	0x8
 1799 02c9 5F       		.byte	0x5f
 1800 02ca FB000000 		.4byte	0xfb
 1801 02ce 4C       		.byte	0x4c
 1802 02cf 08       		.uleb128 0x8
 1803 02d0 6E130000 		.4byte	.LASF61
 1804 02d4 08       		.byte	0x8
 1805 02d5 60       		.byte	0x60
 1806 02d6 CF000000 		.4byte	0xcf
 1807 02da 50       		.byte	0x50
 1808 02db 08       		.uleb128 0x8
 1809 02dc 43070000 		.4byte	.LASF62
 1810 02e0 08       		.byte	0x8
 1811 02e1 61       		.byte	0x61
 1812 02e2 CF000000 		.4byte	0xcf
 1813 02e6 51       		.byte	0x51
 1814 02e7 08       		.uleb128 0x8
 1815 02e8 570B0000 		.4byte	.LASF63
 1816 02ec 08       		.byte	0x8
 1817 02ed 62       		.byte	0x62
 1818 02ee CF000000 		.4byte	0xcf
ARM GAS  C:\Users\chris\AppData\Local\Temp\cctP47hK.s 			page 52


 1819 02f2 52       		.byte	0x52
 1820 02f3 08       		.uleb128 0x8
 1821 02f4 6E0D0000 		.4byte	.LASF64
 1822 02f8 08       		.byte	0x8
 1823 02f9 63       		.byte	0x63
 1824 02fa CF000000 		.4byte	0xcf
 1825 02fe 53       		.byte	0x53
 1826 02ff 08       		.uleb128 0x8
 1827 0300 F0120000 		.4byte	.LASF65
 1828 0304 08       		.byte	0x8
 1829 0305 64       		.byte	0x64
 1830 0306 CF000000 		.4byte	0xcf
 1831 030a 54       		.byte	0x54
 1832 030b 08       		.uleb128 0x8
 1833 030c D6070000 		.4byte	.LASF66
 1834 0310 08       		.byte	0x8
 1835 0311 65       		.byte	0x65
 1836 0312 CF000000 		.4byte	0xcf
 1837 0316 55       		.byte	0x55
 1838 0317 08       		.uleb128 0x8
 1839 0318 AA130000 		.4byte	.LASF67
 1840 031c 08       		.byte	0x8
 1841 031d 66       		.byte	0x66
 1842 031e CF000000 		.4byte	0xcf
 1843 0322 56       		.byte	0x56
 1844 0323 08       		.uleb128 0x8
 1845 0324 8C0E0000 		.4byte	.LASF68
 1846 0328 08       		.byte	0x8
 1847 0329 67       		.byte	0x67
 1848 032a CF000000 		.4byte	0xcf
 1849 032e 57       		.byte	0x57
 1850 032f 08       		.uleb128 0x8
 1851 0330 EF060000 		.4byte	.LASF69
 1852 0334 08       		.byte	0x8
 1853 0335 68       		.byte	0x68
 1854 0336 CF000000 		.4byte	0xcf
 1855 033a 58       		.byte	0x58
 1856 033b 08       		.uleb128 0x8
 1857 033c 45150000 		.4byte	.LASF70
 1858 0340 08       		.byte	0x8
 1859 0341 69       		.byte	0x69
 1860 0342 CF000000 		.4byte	0xcf
 1861 0346 59       		.byte	0x59
 1862 0347 08       		.uleb128 0x8
 1863 0348 EB130000 		.4byte	.LASF71
 1864 034c 08       		.byte	0x8
 1865 034d 6E       		.byte	0x6e
 1866 034e E5000000 		.4byte	0xe5
 1867 0352 5A       		.byte	0x5a
 1868 0353 08       		.uleb128 0x8
 1869 0354 6C010000 		.4byte	.LASF72
 1870 0358 08       		.byte	0x8
 1871 0359 6F       		.byte	0x6f
 1872 035a E5000000 		.4byte	0xe5
 1873 035e 5C       		.byte	0x5c
 1874 035f 08       		.uleb128 0x8
 1875 0360 E30A0000 		.4byte	.LASF73
ARM GAS  C:\Users\chris\AppData\Local\Temp\cctP47hK.s 			page 53


 1876 0364 08       		.byte	0x8
 1877 0365 70       		.byte	0x70
 1878 0366 CF000000 		.4byte	0xcf
 1879 036a 5E       		.byte	0x5e
 1880 036b 08       		.uleb128 0x8
 1881 036c 20140000 		.4byte	.LASF74
 1882 0370 08       		.byte	0x8
 1883 0371 71       		.byte	0x71
 1884 0372 CF000000 		.4byte	0xcf
 1885 0376 5F       		.byte	0x5f
 1886 0377 08       		.uleb128 0x8
 1887 0378 A4080000 		.4byte	.LASF75
 1888 037c 08       		.byte	0x8
 1889 037d 72       		.byte	0x72
 1890 037e CF000000 		.4byte	0xcf
 1891 0382 60       		.byte	0x60
 1892 0383 08       		.uleb128 0x8
 1893 0384 ED090000 		.4byte	.LASF76
 1894 0388 08       		.byte	0x8
 1895 0389 73       		.byte	0x73
 1896 038a FB000000 		.4byte	0xfb
 1897 038e 64       		.byte	0x64
 1898 038f 08       		.uleb128 0x8
 1899 0390 A00E0000 		.4byte	.LASF77
 1900 0394 08       		.byte	0x8
 1901 0395 76       		.byte	0x76
 1902 0396 E5000000 		.4byte	0xe5
 1903 039a 68       		.byte	0x68
 1904 039b 08       		.uleb128 0x8
 1905 039c F40D0000 		.4byte	.LASF78
 1906 03a0 08       		.byte	0x8
 1907 03a1 77       		.byte	0x77
 1908 03a2 E5000000 		.4byte	0xe5
 1909 03a6 6A       		.byte	0x6a
 1910 03a7 08       		.uleb128 0x8
 1911 03a8 EF0B0000 		.4byte	.LASF79
 1912 03ac 08       		.byte	0x8
 1913 03ad 78       		.byte	0x78
 1914 03ae E5000000 		.4byte	0xe5
 1915 03b2 6C       		.byte	0x6c
 1916 03b3 08       		.uleb128 0x8
 1917 03b4 F9020000 		.4byte	.LASF80
 1918 03b8 08       		.byte	0x8
 1919 03b9 79       		.byte	0x79
 1920 03ba E5000000 		.4byte	0xe5
 1921 03be 6E       		.byte	0x6e
 1922 03bf 08       		.uleb128 0x8
 1923 03c0 4E0A0000 		.4byte	.LASF81
 1924 03c4 08       		.byte	0x8
 1925 03c5 7B       		.byte	0x7b
 1926 03c6 CF000000 		.4byte	0xcf
 1927 03ca 70       		.byte	0x70
 1928 03cb 08       		.uleb128 0x8
 1929 03cc B1030000 		.4byte	.LASF82
 1930 03d0 08       		.byte	0x8
 1931 03d1 7C       		.byte	0x7c
 1932 03d2 CF000000 		.4byte	0xcf
ARM GAS  C:\Users\chris\AppData\Local\Temp\cctP47hK.s 			page 54


 1933 03d6 71       		.byte	0x71
 1934 03d7 08       		.uleb128 0x8
 1935 03d8 70060000 		.4byte	.LASF83
 1936 03dc 08       		.byte	0x8
 1937 03dd 7D       		.byte	0x7d
 1938 03de CF000000 		.4byte	0xcf
 1939 03e2 72       		.byte	0x72
 1940 03e3 08       		.uleb128 0x8
 1941 03e4 2D090000 		.4byte	.LASF84
 1942 03e8 08       		.byte	0x8
 1943 03e9 7E       		.byte	0x7e
 1944 03ea CF000000 		.4byte	0xcf
 1945 03ee 73       		.byte	0x73
 1946 03ef 08       		.uleb128 0x8
 1947 03f0 1A0F0000 		.4byte	.LASF85
 1948 03f4 08       		.byte	0x8
 1949 03f5 80       		.byte	0x80
 1950 03f6 E5000000 		.4byte	0xe5
 1951 03fa 74       		.byte	0x74
 1952 03fb 08       		.uleb128 0x8
 1953 03fc 5C0F0000 		.4byte	.LASF86
 1954 0400 08       		.byte	0x8
 1955 0401 81       		.byte	0x81
 1956 0402 E5000000 		.4byte	0xe5
 1957 0406 76       		.byte	0x76
 1958 0407 08       		.uleb128 0x8
 1959 0408 01150000 		.4byte	.LASF87
 1960 040c 08       		.byte	0x8
 1961 040d 82       		.byte	0x82
 1962 040e E5000000 		.4byte	0xe5
 1963 0412 78       		.byte	0x78
 1964 0413 08       		.uleb128 0x8
 1965 0414 250B0000 		.4byte	.LASF88
 1966 0418 08       		.byte	0x8
 1967 0419 83       		.byte	0x83
 1968 041a E5000000 		.4byte	0xe5
 1969 041e 7A       		.byte	0x7a
 1970 041f 08       		.uleb128 0x8
 1971 0420 FC100000 		.4byte	.LASF89
 1972 0424 08       		.byte	0x8
 1973 0425 86       		.byte	0x86
 1974 0426 CF000000 		.4byte	0xcf
 1975 042a 7C       		.byte	0x7c
 1976 042b 08       		.uleb128 0x8
 1977 042c 7F130000 		.4byte	.LASF90
 1978 0430 08       		.byte	0x8
 1979 0431 87       		.byte	0x87
 1980 0432 CF000000 		.4byte	0xcf
 1981 0436 7D       		.byte	0x7d
 1982 0437 08       		.uleb128 0x8
 1983 0438 AD050000 		.4byte	.LASF91
 1984 043c 08       		.byte	0x8
 1985 043d 88       		.byte	0x88
 1986 043e CF000000 		.4byte	0xcf
 1987 0442 7E       		.byte	0x7e
 1988 0443 08       		.uleb128 0x8
 1989 0444 27050000 		.4byte	.LASF92
ARM GAS  C:\Users\chris\AppData\Local\Temp\cctP47hK.s 			page 55


 1990 0448 08       		.byte	0x8
 1991 0449 89       		.byte	0x89
 1992 044a CF000000 		.4byte	0xcf
 1993 044e 7F       		.byte	0x7f
 1994 044f 08       		.uleb128 0x8
 1995 0450 02060000 		.4byte	.LASF93
 1996 0454 08       		.byte	0x8
 1997 0455 8A       		.byte	0x8a
 1998 0456 CF000000 		.4byte	0xcf
 1999 045a 80       		.byte	0x80
 2000 045b 08       		.uleb128 0x8
 2001 045c C4000000 		.4byte	.LASF94
 2002 0460 08       		.byte	0x8
 2003 0461 8D       		.byte	0x8d
 2004 0462 FB000000 		.4byte	0xfb
 2005 0466 84       		.byte	0x84
 2006 0467 08       		.uleb128 0x8
 2007 0468 39110000 		.4byte	.LASF95
 2008 046c 08       		.byte	0x8
 2009 046d 8E       		.byte	0x8e
 2010 046e FB000000 		.4byte	0xfb
 2011 0472 88       		.byte	0x88
 2012 0473 08       		.uleb128 0x8
 2013 0474 BF0C0000 		.4byte	.LASF96
 2014 0478 08       		.byte	0x8
 2015 0479 8F       		.byte	0x8f
 2016 047a FB000000 		.4byte	0xfb
 2017 047e 8C       		.byte	0x8c
 2018 047f 08       		.uleb128 0x8
 2019 0480 66160000 		.4byte	.LASF97
 2020 0484 08       		.byte	0x8
 2021 0485 90       		.byte	0x90
 2022 0486 FB000000 		.4byte	0xfb
 2023 048a 90       		.byte	0x90
 2024 048b 08       		.uleb128 0x8
 2025 048c C4100000 		.4byte	.LASF98
 2026 0490 08       		.byte	0x8
 2027 0491 91       		.byte	0x91
 2028 0492 FB000000 		.4byte	0xfb
 2029 0496 94       		.byte	0x94
 2030 0497 08       		.uleb128 0x8
 2031 0498 C6030000 		.4byte	.LASF99
 2032 049c 08       		.byte	0x8
 2033 049d 92       		.byte	0x92
 2034 049e FB000000 		.4byte	0xfb
 2035 04a2 98       		.byte	0x98
 2036 04a3 08       		.uleb128 0x8
 2037 04a4 67110000 		.4byte	.LASF100
 2038 04a8 08       		.byte	0x8
 2039 04a9 93       		.byte	0x93
 2040 04aa FB000000 		.4byte	0xfb
 2041 04ae 9C       		.byte	0x9c
 2042 04af 08       		.uleb128 0x8
 2043 04b0 6F080000 		.4byte	.LASF101
 2044 04b4 08       		.byte	0x8
 2045 04b5 94       		.byte	0x94
 2046 04b6 FB000000 		.4byte	0xfb
ARM GAS  C:\Users\chris\AppData\Local\Temp\cctP47hK.s 			page 56


 2047 04ba A0       		.byte	0xa0
 2048 04bb 08       		.uleb128 0x8
 2049 04bc DC030000 		.4byte	.LASF102
 2050 04c0 08       		.byte	0x8
 2051 04c1 95       		.byte	0x95
 2052 04c2 E5000000 		.4byte	0xe5
 2053 04c6 A4       		.byte	0xa4
 2054 04c7 08       		.uleb128 0x8
 2055 04c8 FA0E0000 		.4byte	.LASF103
 2056 04cc 08       		.byte	0x8
 2057 04cd 96       		.byte	0x96
 2058 04ce E5000000 		.4byte	0xe5
 2059 04d2 A6       		.byte	0xa6
 2060 04d3 08       		.uleb128 0x8
 2061 04d4 AF110000 		.4byte	.LASF104
 2062 04d8 08       		.byte	0x8
 2063 04d9 97       		.byte	0x97
 2064 04da E5000000 		.4byte	0xe5
 2065 04de A8       		.byte	0xa8
 2066 04df 08       		.uleb128 0x8
 2067 04e0 C10A0000 		.4byte	.LASF105
 2068 04e4 08       		.byte	0x8
 2069 04e5 98       		.byte	0x98
 2070 04e6 E5000000 		.4byte	0xe5
 2071 04ea AA       		.byte	0xaa
 2072 04eb 08       		.uleb128 0x8
 2073 04ec 14030000 		.4byte	.LASF106
 2074 04f0 08       		.byte	0x8
 2075 04f1 99       		.byte	0x99
 2076 04f2 E5000000 		.4byte	0xe5
 2077 04f6 AC       		.byte	0xac
 2078 04f7 08       		.uleb128 0x8
 2079 04f8 F50C0000 		.4byte	.LASF107
 2080 04fc 08       		.byte	0x8
 2081 04fd 9A       		.byte	0x9a
 2082 04fe E5000000 		.4byte	0xe5
 2083 0502 AE       		.byte	0xae
 2084 0503 08       		.uleb128 0x8
 2085 0504 22030000 		.4byte	.LASF108
 2086 0508 08       		.byte	0x8
 2087 0509 9D       		.byte	0x9d
 2088 050a E5000000 		.4byte	0xe5
 2089 050e B0       		.byte	0xb0
 2090 050f 08       		.uleb128 0x8
 2091 0510 6E000000 		.4byte	.LASF109
 2092 0514 08       		.byte	0x8
 2093 0515 9E       		.byte	0x9e
 2094 0516 FB000000 		.4byte	0xfb
 2095 051a B4       		.byte	0xb4
 2096 051b 00       		.byte	0
 2097 051c 02       		.uleb128 0x2
 2098 051d 7E140000 		.4byte	.LASF110
 2099 0521 08       		.byte	0x8
 2100 0522 9F       		.byte	0x9f
 2101 0523 0B010000 		.4byte	0x10b
 2102 0527 03       		.uleb128 0x3
 2103 0528 04       		.byte	0x4
ARM GAS  C:\Users\chris\AppData\Local\Temp\cctP47hK.s 			page 57


 2104 0529 04       		.byte	0x4
 2105 052a 55050000 		.4byte	.LASF111
 2106 052e 03       		.uleb128 0x3
 2107 052f 08       		.byte	0x8
 2108 0530 04       		.byte	0x4
 2109 0531 E7140000 		.4byte	.LASF112
 2110 0535 03       		.uleb128 0x3
 2111 0536 01       		.byte	0x1
 2112 0537 02       		.byte	0x2
 2113 0538 C6070000 		.4byte	.LASF113
 2114 053c 09       		.uleb128 0x9
 2115 053d 01       		.byte	0x1
 2116 053e 42000000 		.4byte	0x42
 2117 0542 09       		.byte	0x9
 2118 0543 2402     		.2byte	0x224
 2119 0545 56050000 		.4byte	0x556
 2120 0549 0A       		.uleb128 0xa
 2121 054a F6080000 		.4byte	.LASF114
 2122 054e 00       		.byte	0
 2123 054f 0A       		.uleb128 0xa
 2124 0550 30030000 		.4byte	.LASF115
 2125 0554 01       		.byte	0x1
 2126 0555 00       		.byte	0
 2127 0556 0B       		.uleb128 0xb
 2128 0557 CA020000 		.4byte	.LASF116
 2129 055b 09       		.byte	0x9
 2130 055c 2702     		.2byte	0x227
 2131 055e 3C050000 		.4byte	0x53c
 2132 0562 0B       		.uleb128 0xb
 2133 0563 8F0B0000 		.4byte	.LASF117
 2134 0567 09       		.byte	0x9
 2135 0568 3902     		.2byte	0x239
 2136 056a 6E050000 		.4byte	0x56e
 2137 056e 0C       		.uleb128 0xc
 2138 056f 04       		.byte	0x4
 2139 0570 74050000 		.4byte	0x574
 2140 0574 0D       		.uleb128 0xd
 2141 0575 7F050000 		.4byte	0x57f
 2142 0579 0E       		.uleb128 0xe
 2143 057a FB000000 		.4byte	0xfb
 2144 057e 00       		.byte	0
 2145 057f 0B       		.uleb128 0xb
 2146 0580 4A030000 		.4byte	.LASF118
 2147 0584 09       		.byte	0x9
 2148 0585 4402     		.2byte	0x244
 2149 0587 8B050000 		.4byte	0x58b
 2150 058b 0C       		.uleb128 0xc
 2151 058c 04       		.byte	0x4
 2152 058d 91050000 		.4byte	0x591
 2153 0591 0F       		.uleb128 0xf
 2154 0592 56050000 		.4byte	0x556
 2155 0596 A0050000 		.4byte	0x5a0
 2156 059a 0E       		.uleb128 0xe
 2157 059b FB000000 		.4byte	0xfb
 2158 059f 00       		.byte	0
 2159 05a0 10       		.uleb128 0x10
 2160 05a1 8A030000 		.4byte	.LASF142
ARM GAS  C:\Users\chris\AppData\Local\Temp\cctP47hK.s 			page 58


 2161 05a5 4C       		.byte	0x4c
 2162 05a6 09       		.byte	0x9
 2163 05a7 C302     		.2byte	0x2c3
 2164 05a9 BF060000 		.4byte	0x6bf
 2165 05ad 11       		.uleb128 0x11
 2166 05ae EA070000 		.4byte	.LASF119
 2167 05b2 09       		.byte	0x9
 2168 05b3 C602     		.2byte	0x2c6
 2169 05b5 35050000 		.4byte	0x535
 2170 05b9 00       		.byte	0
 2171 05ba 11       		.uleb128 0x11
 2172 05bb 800B0000 		.4byte	.LASF120
 2173 05bf 09       		.byte	0x9
 2174 05c0 C702     		.2byte	0x2c7
 2175 05c2 35050000 		.4byte	0x535
 2176 05c6 01       		.byte	0x1
 2177 05c7 11       		.uleb128 0x11
 2178 05c8 26130000 		.4byte	.LASF121
 2179 05cc 09       		.byte	0x9
 2180 05cd C902     		.2byte	0x2c9
 2181 05cf 06010000 		.4byte	0x106
 2182 05d3 04       		.byte	0x4
 2183 05d4 11       		.uleb128 0x11
 2184 05d5 E7000000 		.4byte	.LASF122
 2185 05d9 09       		.byte	0x9
 2186 05da CB02     		.2byte	0x2cb
 2187 05dc 06010000 		.4byte	0x106
 2188 05e0 08       		.byte	0x8
 2189 05e1 11       		.uleb128 0x11
 2190 05e2 0E0D0000 		.4byte	.LASF123
 2191 05e6 09       		.byte	0x9
 2192 05e7 CC02     		.2byte	0x2cc
 2193 05e9 35050000 		.4byte	0x535
 2194 05ed 0C       		.byte	0xc
 2195 05ee 11       		.uleb128 0x11
 2196 05ef CA0B0000 		.4byte	.LASF124
 2197 05f3 09       		.byte	0x9
 2198 05f4 CD02     		.2byte	0x2cd
 2199 05f6 35050000 		.4byte	0x535
 2200 05fa 0D       		.byte	0xd
 2201 05fb 11       		.uleb128 0x11
 2202 05fc 060E0000 		.4byte	.LASF125
 2203 0600 09       		.byte	0x9
 2204 0601 CF02     		.2byte	0x2cf
 2205 0603 BF060000 		.4byte	0x6bf
 2206 0607 10       		.byte	0x10
 2207 0608 11       		.uleb128 0x11
 2208 0609 6A090000 		.4byte	.LASF126
 2209 060d 09       		.byte	0x9
 2210 060e D002     		.2byte	0x2d0
 2211 0610 FB000000 		.4byte	0xfb
 2212 0614 14       		.byte	0x14
 2213 0615 11       		.uleb128 0x11
 2214 0616 B2010000 		.4byte	.LASF127
 2215 061a 09       		.byte	0x9
 2216 061b D102     		.2byte	0x2d1
 2217 061d 06010000 		.4byte	0x106
ARM GAS  C:\Users\chris\AppData\Local\Temp\cctP47hK.s 			page 59


 2218 0621 18       		.byte	0x18
 2219 0622 11       		.uleb128 0x11
 2220 0623 55070000 		.4byte	.LASF128
 2221 0627 09       		.byte	0x9
 2222 0628 D202     		.2byte	0x2d2
 2223 062a 06010000 		.4byte	0x106
 2224 062e 1C       		.byte	0x1c
 2225 062f 11       		.uleb128 0x11
 2226 0630 E5160000 		.4byte	.LASF129
 2227 0634 09       		.byte	0x9
 2228 0635 D402     		.2byte	0x2d4
 2229 0637 06010000 		.4byte	0x106
 2230 063b 20       		.byte	0x20
 2231 063c 11       		.uleb128 0x11
 2232 063d E9020000 		.4byte	.LASF130
 2233 0641 09       		.byte	0x9
 2234 0642 D502     		.2byte	0x2d5
 2235 0644 C5060000 		.4byte	0x6c5
 2236 0648 24       		.byte	0x24
 2237 0649 11       		.uleb128 0x11
 2238 064a A4040000 		.4byte	.LASF131
 2239 064e 09       		.byte	0x9
 2240 064f D702     		.2byte	0x2d7
 2241 0651 BF060000 		.4byte	0x6bf
 2242 0655 28       		.byte	0x28
 2243 0656 11       		.uleb128 0x11
 2244 0657 5E060000 		.4byte	.LASF132
 2245 065b 09       		.byte	0x9
 2246 065c D802     		.2byte	0x2d8
 2247 065e FB000000 		.4byte	0xfb
 2248 0662 2C       		.byte	0x2c
 2249 0663 11       		.uleb128 0x11
 2250 0664 CC040000 		.4byte	.LASF133
 2251 0668 09       		.byte	0x9
 2252 0669 D902     		.2byte	0x2d9
 2253 066b 06010000 		.4byte	0x106
 2254 066f 30       		.byte	0x30
 2255 0670 11       		.uleb128 0x11
 2256 0671 2B0A0000 		.4byte	.LASF134
 2257 0675 09       		.byte	0x9
 2258 0676 DA02     		.2byte	0x2da
 2259 0678 06010000 		.4byte	0x106
 2260 067c 34       		.byte	0x34
 2261 067d 11       		.uleb128 0x11
 2262 067e 48020000 		.4byte	.LASF135
 2263 0682 09       		.byte	0x9
 2264 0683 DC02     		.2byte	0x2dc
 2265 0685 BF060000 		.4byte	0x6bf
 2266 0689 38       		.byte	0x38
 2267 068a 11       		.uleb128 0x11
 2268 068b 860D0000 		.4byte	.LASF136
 2269 068f 09       		.byte	0x9
 2270 0690 DD02     		.2byte	0x2dd
 2271 0692 FB000000 		.4byte	0xfb
 2272 0696 3C       		.byte	0x3c
 2273 0697 11       		.uleb128 0x11
 2274 0698 E40C0000 		.4byte	.LASF137
ARM GAS  C:\Users\chris\AppData\Local\Temp\cctP47hK.s 			page 60


 2275 069c 09       		.byte	0x9
 2276 069d DE02     		.2byte	0x2de
 2277 069f 06010000 		.4byte	0x106
 2278 06a3 40       		.byte	0x40
 2279 06a4 11       		.uleb128 0x11
 2280 06a5 6F070000 		.4byte	.LASF138
 2281 06a9 09       		.byte	0x9
 2282 06aa E402     		.2byte	0x2e4
 2283 06ac 62050000 		.4byte	0x562
 2284 06b0 44       		.byte	0x44
 2285 06b1 11       		.uleb128 0x11
 2286 06b2 80020000 		.4byte	.LASF139
 2287 06b6 09       		.byte	0x9
 2288 06b7 EB02     		.2byte	0x2eb
 2289 06b9 7F050000 		.4byte	0x57f
 2290 06bd 48       		.byte	0x48
 2291 06be 00       		.byte	0
 2292 06bf 0C       		.uleb128 0xc
 2293 06c0 04       		.byte	0x4
 2294 06c1 CF000000 		.4byte	0xcf
 2295 06c5 06       		.uleb128 0x6
 2296 06c6 35050000 		.4byte	0x535
 2297 06ca 0B       		.uleb128 0xb
 2298 06cb 22150000 		.4byte	.LASF140
 2299 06cf 09       		.byte	0x9
 2300 06d0 EE02     		.2byte	0x2ee
 2301 06d2 A0050000 		.4byte	0x5a0
 2302 06d6 0B       		.uleb128 0xb
 2303 06d7 26000000 		.4byte	.LASF141
 2304 06db 0A       		.byte	0xa
 2305 06dc F201     		.2byte	0x1f2
 2306 06de 6E050000 		.4byte	0x56e
 2307 06e2 10       		.uleb128 0x10
 2308 06e3 D0140000 		.4byte	.LASF143
 2309 06e7 24       		.byte	0x24
 2310 06e8 0A       		.byte	0xa
 2311 06e9 7402     		.2byte	0x274
 2312 06eb 65070000 		.4byte	0x765
 2313 06ef 11       		.uleb128 0x11
 2314 06f0 1F0A0000 		.4byte	.LASF144
 2315 06f4 0A       		.byte	0xa
 2316 06f5 7702     		.2byte	0x277
 2317 06f7 06010000 		.4byte	0x106
 2318 06fb 00       		.byte	0
 2319 06fc 11       		.uleb128 0x11
 2320 06fd D1060000 		.4byte	.LASF145
 2321 0701 0A       		.byte	0xa
 2322 0702 7902     		.2byte	0x279
 2323 0704 B4000000 		.4byte	0xb4
 2324 0708 04       		.byte	0x4
 2325 0709 11       		.uleb128 0x11
 2326 070a D5160000 		.4byte	.LASF146
 2327 070e 0A       		.byte	0xa
 2328 070f 7A02     		.2byte	0x27a
 2329 0711 FB000000 		.4byte	0xfb
 2330 0715 08       		.byte	0x8
 2331 0716 11       		.uleb128 0x11
ARM GAS  C:\Users\chris\AppData\Local\Temp\cctP47hK.s 			page 61


 2332 0717 BC090000 		.4byte	.LASF147
 2333 071b 0A       		.byte	0xa
 2334 071c 7B02     		.2byte	0x27b
 2335 071e 06010000 		.4byte	0x106
 2336 0722 0C       		.byte	0xc
 2337 0723 11       		.uleb128 0x11
 2338 0724 500D0000 		.4byte	.LASF148
 2339 0728 0A       		.byte	0xa
 2340 0729 7D02     		.2byte	0x27d
 2341 072b B4000000 		.4byte	0xb4
 2342 072f 10       		.byte	0x10
 2343 0730 11       		.uleb128 0x11
 2344 0731 830C0000 		.4byte	.LASF149
 2345 0735 0A       		.byte	0xa
 2346 0736 7E02     		.2byte	0x27e
 2347 0738 FB000000 		.4byte	0xfb
 2348 073c 14       		.byte	0x14
 2349 073d 11       		.uleb128 0x11
 2350 073e E8010000 		.4byte	.LASF150
 2351 0742 0A       		.byte	0xa
 2352 0743 7F02     		.2byte	0x27f
 2353 0745 06010000 		.4byte	0x106
 2354 0749 18       		.byte	0x18
 2355 074a 11       		.uleb128 0x11
 2356 074b 6F070000 		.4byte	.LASF138
 2357 074f 0A       		.byte	0xa
 2358 0750 8502     		.2byte	0x285
 2359 0752 D6060000 		.4byte	0x6d6
 2360 0756 1C       		.byte	0x1c
 2361 0757 11       		.uleb128 0x11
 2362 0758 D9090000 		.4byte	.LASF151
 2363 075c 0A       		.byte	0xa
 2364 075d 8802     		.2byte	0x288
 2365 075f FB000000 		.4byte	0xfb
 2366 0763 20       		.byte	0x20
 2367 0764 00       		.byte	0
 2368 0765 0B       		.uleb128 0xb
 2369 0766 1F0C0000 		.4byte	.LASF152
 2370 076a 0A       		.byte	0xa
 2371 076b 8B02     		.2byte	0x28b
 2372 076d E2060000 		.4byte	0x6e2
 2373 0771 12       		.uleb128 0x12
 2374 0772 04140000 		.4byte	.LASF153
 2375 0776 4C       		.byte	0x4c
 2376 0777 0B       		.byte	0xb
 2377 0778 2F       		.byte	0x2f
 2378 0779 62080000 		.4byte	0x862
 2379 077d 08       		.uleb128 0x8
 2380 077e DD130000 		.4byte	.LASF154
 2381 0782 0B       		.byte	0xb
 2382 0783 31       		.byte	0x31
 2383 0784 FB000000 		.4byte	0xfb
 2384 0788 00       		.byte	0
 2385 0789 08       		.uleb128 0x8
 2386 078a A0090000 		.4byte	.LASF155
 2387 078e 0B       		.byte	0xb
 2388 078f 33       		.byte	0x33
ARM GAS  C:\Users\chris\AppData\Local\Temp\cctP47hK.s 			page 62


 2389 0790 FB000000 		.4byte	0xfb
 2390 0794 04       		.byte	0x4
 2391 0795 08       		.uleb128 0x8
 2392 0796 EC0D0000 		.4byte	.LASF156
 2393 079a 0B       		.byte	0xb
 2394 079b 34       		.byte	0x34
 2395 079c FB000000 		.4byte	0xfb
 2396 07a0 08       		.byte	0x8
 2397 07a1 08       		.uleb128 0x8
 2398 07a2 28100000 		.4byte	.LASF157
 2399 07a6 0B       		.byte	0xb
 2400 07a7 35       		.byte	0x35
 2401 07a8 FB000000 		.4byte	0xfb
 2402 07ac 0C       		.byte	0xc
 2403 07ad 08       		.uleb128 0x8
 2404 07ae 8F090000 		.4byte	.LASF158
 2405 07b2 0B       		.byte	0xb
 2406 07b3 37       		.byte	0x37
 2407 07b4 FB000000 		.4byte	0xfb
 2408 07b8 10       		.byte	0x10
 2409 07b9 08       		.uleb128 0x8
 2410 07ba 66030000 		.4byte	.LASF159
 2411 07be 0B       		.byte	0xb
 2412 07bf 38       		.byte	0x38
 2413 07c0 FB000000 		.4byte	0xfb
 2414 07c4 14       		.byte	0x14
 2415 07c5 08       		.uleb128 0x8
 2416 07c6 6F030000 		.4byte	.LASF160
 2417 07ca 0B       		.byte	0xb
 2418 07cb 39       		.byte	0x39
 2419 07cc FB000000 		.4byte	0xfb
 2420 07d0 18       		.byte	0x18
 2421 07d1 08       		.uleb128 0x8
 2422 07d2 1A0D0000 		.4byte	.LASF161
 2423 07d6 0B       		.byte	0xb
 2424 07d7 3A       		.byte	0x3a
 2425 07d8 35050000 		.4byte	0x535
 2426 07dc 1C       		.byte	0x1c
 2427 07dd 08       		.uleb128 0x8
 2428 07de 760F0000 		.4byte	.LASF162
 2429 07e2 0B       		.byte	0xb
 2430 07e3 3C       		.byte	0x3c
 2431 07e4 FB000000 		.4byte	0xfb
 2432 07e8 20       		.byte	0x20
 2433 07e9 08       		.uleb128 0x8
 2434 07ea 9B060000 		.4byte	.LASF163
 2435 07ee 0B       		.byte	0xb
 2436 07ef 3D       		.byte	0x3d
 2437 07f0 FB000000 		.4byte	0xfb
 2438 07f4 24       		.byte	0x24
 2439 07f5 08       		.uleb128 0x8
 2440 07f6 E9080000 		.4byte	.LASF164
 2441 07fa 0B       		.byte	0xb
 2442 07fb 3F       		.byte	0x3f
 2443 07fc FB000000 		.4byte	0xfb
 2444 0800 28       		.byte	0x28
 2445 0801 08       		.uleb128 0x8
ARM GAS  C:\Users\chris\AppData\Local\Temp\cctP47hK.s 			page 63


 2446 0802 410C0000 		.4byte	.LASF165
 2447 0806 0B       		.byte	0xb
 2448 0807 40       		.byte	0x40
 2449 0808 FB000000 		.4byte	0xfb
 2450 080c 2C       		.byte	0x2c
 2451 080d 08       		.uleb128 0x8
 2452 080e 99050000 		.4byte	.LASF166
 2453 0812 0B       		.byte	0xb
 2454 0813 42       		.byte	0x42
 2455 0814 FB000000 		.4byte	0xfb
 2456 0818 30       		.byte	0x30
 2457 0819 08       		.uleb128 0x8
 2458 081a 86060000 		.4byte	.LASF167
 2459 081e 0B       		.byte	0xb
 2460 081f 43       		.byte	0x43
 2461 0820 FB000000 		.4byte	0xfb
 2462 0824 34       		.byte	0x34
 2463 0825 08       		.uleb128 0x8
 2464 0826 F1010000 		.4byte	.LASF168
 2465 082a 0B       		.byte	0xb
 2466 082b 45       		.byte	0x45
 2467 082c FB000000 		.4byte	0xfb
 2468 0830 38       		.byte	0x38
 2469 0831 08       		.uleb128 0x8
 2470 0832 60000000 		.4byte	.LASF169
 2471 0836 0B       		.byte	0xb
 2472 0837 46       		.byte	0x46
 2473 0838 FB000000 		.4byte	0xfb
 2474 083c 3C       		.byte	0x3c
 2475 083d 08       		.uleb128 0x8
 2476 083e A7020000 		.4byte	.LASF170
 2477 0842 0B       		.byte	0xb
 2478 0843 48       		.byte	0x48
 2479 0844 FB000000 		.4byte	0xfb
 2480 0848 40       		.byte	0x40
 2481 0849 08       		.uleb128 0x8
 2482 084a DB0F0000 		.4byte	.LASF171
 2483 084e 0B       		.byte	0xb
 2484 084f 49       		.byte	0x49
 2485 0850 FB000000 		.4byte	0xfb
 2486 0854 44       		.byte	0x44
 2487 0855 08       		.uleb128 0x8
 2488 0856 A3120000 		.4byte	.LASF172
 2489 085a 0B       		.byte	0xb
 2490 085b 4B       		.byte	0x4b
 2491 085c FB000000 		.4byte	0xfb
 2492 0860 48       		.byte	0x48
 2493 0861 00       		.byte	0
 2494 0862 02       		.uleb128 0x2
 2495 0863 4E0E0000 		.4byte	.LASF173
 2496 0867 0B       		.byte	0xb
 2497 0868 4C       		.byte	0x4c
 2498 0869 71070000 		.4byte	0x771
 2499 086d 13       		.uleb128 0x13
 2500 086e 8F120000 		.4byte	.LASF174
 2501 0872 5008     		.2byte	0x850
 2502 0874 0C       		.byte	0xc
ARM GAS  C:\Users\chris\AppData\Local\Temp\cctP47hK.s 			page 64


 2503 0875 05       		.byte	0x5
 2504 0876 6C090000 		.4byte	0x96c
 2505 087a 08       		.uleb128 0x8
 2506 087b B70B0000 		.4byte	.LASF175
 2507 087f 0C       		.byte	0xc
 2508 0880 07       		.byte	0x7
 2509 0881 CF000000 		.4byte	0xcf
 2510 0885 00       		.byte	0
 2511 0886 08       		.uleb128 0x8
 2512 0887 A6110000 		.4byte	.LASF176
 2513 088b 0C       		.byte	0xc
 2514 088c 08       		.byte	0x8
 2515 088d CF000000 		.4byte	0xcf
 2516 0891 01       		.byte	0x1
 2517 0892 08       		.uleb128 0x8
 2518 0893 5B160000 		.4byte	.LASF177
 2519 0897 0C       		.byte	0xc
 2520 0898 09       		.byte	0x9
 2521 0899 CF000000 		.4byte	0xcf
 2522 089d 02       		.byte	0x2
 2523 089e 08       		.uleb128 0x8
 2524 089f 26010000 		.4byte	.LASF178
 2525 08a3 0C       		.byte	0xc
 2526 08a4 0B       		.byte	0xb
 2527 08a5 CF000000 		.4byte	0xcf
 2528 08a9 03       		.byte	0x3
 2529 08aa 08       		.uleb128 0x8
 2530 08ab F4100000 		.4byte	.LASF179
 2531 08af 0C       		.byte	0xc
 2532 08b0 0C       		.byte	0xc
 2533 08b1 CF000000 		.4byte	0xcf
 2534 08b5 04       		.byte	0x4
 2535 08b6 08       		.uleb128 0x8
 2536 08b7 36140000 		.4byte	.LASF180
 2537 08bb 0C       		.byte	0xc
 2538 08bc 0D       		.byte	0xd
 2539 08bd CF000000 		.4byte	0xcf
 2540 08c1 05       		.byte	0x5
 2541 08c2 08       		.uleb128 0x8
 2542 08c3 720A0000 		.4byte	.LASF181
 2543 08c7 0C       		.byte	0xc
 2544 08c8 0E       		.byte	0xe
 2545 08c9 CF000000 		.4byte	0xcf
 2546 08cd 06       		.byte	0x6
 2547 08ce 08       		.uleb128 0x8
 2548 08cf BE130000 		.4byte	.LASF182
 2549 08d3 0C       		.byte	0xc
 2550 08d4 0F       		.byte	0xf
 2551 08d5 CF000000 		.4byte	0xcf
 2552 08d9 07       		.byte	0x7
 2553 08da 08       		.uleb128 0x8
 2554 08db 800D0000 		.4byte	.LASF183
 2555 08df 0C       		.byte	0xc
 2556 08e0 10       		.byte	0x10
 2557 08e1 CF000000 		.4byte	0xcf
 2558 08e5 08       		.byte	0x8
 2559 08e6 14       		.uleb128 0x14
ARM GAS  C:\Users\chris\AppData\Local\Temp\cctP47hK.s 			page 65


 2560 08e7 49525300 		.ascii	"IRS\000"
 2561 08eb 0C       		.byte	0xc
 2562 08ec 11       		.byte	0x11
 2563 08ed CF000000 		.4byte	0xcf
 2564 08f1 09       		.byte	0x9
 2565 08f2 08       		.uleb128 0x8
 2566 08f3 B1020000 		.4byte	.LASF184
 2567 08f7 0C       		.byte	0xc
 2568 08f8 12       		.byte	0x12
 2569 08f9 CF000000 		.4byte	0xcf
 2570 08fd 0A       		.byte	0xa
 2571 08fe 08       		.uleb128 0x8
 2572 08ff DF060000 		.4byte	.LASF185
 2573 0903 0C       		.byte	0xc
 2574 0904 15       		.byte	0x15
 2575 0905 9F000000 		.4byte	0x9f
 2576 0909 0C       		.byte	0xc
 2577 090a 08       		.uleb128 0x8
 2578 090b 3A0B0000 		.4byte	.LASF186
 2579 090f 0C       		.byte	0xc
 2580 0910 16       		.byte	0x16
 2581 0911 9F000000 		.4byte	0x9f
 2582 0915 10       		.byte	0x10
 2583 0916 08       		.uleb128 0x8
 2584 0917 59150000 		.4byte	.LASF187
 2585 091b 0C       		.byte	0xc
 2586 091c 17       		.byte	0x17
 2587 091d 9F000000 		.4byte	0x9f
 2588 0921 14       		.byte	0x14
 2589 0922 08       		.uleb128 0x8
 2590 0923 85120000 		.4byte	.LASF188
 2591 0927 0C       		.byte	0xc
 2592 0928 19       		.byte	0x19
 2593 0929 CF000000 		.4byte	0xcf
 2594 092d 18       		.byte	0x18
 2595 092e 08       		.uleb128 0x8
 2596 092f F4000000 		.4byte	.LASF189
 2597 0933 0C       		.byte	0xc
 2598 0934 1A       		.byte	0x1a
 2599 0935 CF000000 		.4byte	0xcf
 2600 0939 19       		.byte	0x19
 2601 093a 08       		.uleb128 0x8
 2602 093b 00000000 		.4byte	.LASF190
 2603 093f 0C       		.byte	0xc
 2604 0940 1B       		.byte	0x1b
 2605 0941 CF000000 		.4byte	0xcf
 2606 0945 1A       		.byte	0x1a
 2607 0946 08       		.uleb128 0x8
 2608 0947 75010000 		.4byte	.LASF191
 2609 094b 0C       		.byte	0xc
 2610 094c 1E       		.byte	0x1e
 2611 094d 6C090000 		.4byte	0x96c
 2612 0951 1C       		.byte	0x1c
 2613 0952 08       		.uleb128 0x8
 2614 0953 50090000 		.4byte	.LASF192
 2615 0957 0C       		.byte	0xc
 2616 0958 1F       		.byte	0x1f
ARM GAS  C:\Users\chris\AppData\Local\Temp\cctP47hK.s 			page 66


 2617 0959 7C090000 		.4byte	0x97c
 2618 095d 36       		.byte	0x36
 2619 095e 15       		.uleb128 0x15
 2620 095f E6120000 		.4byte	.LASF193
 2621 0963 0C       		.byte	0xc
 2622 0964 22       		.byte	0x22
 2623 0965 6C090000 		.4byte	0x96c
 2624 0969 3608     		.2byte	0x836
 2625 096b 00       		.byte	0
 2626 096c 16       		.uleb128 0x16
 2627 096d E5000000 		.4byte	0xe5
 2628 0971 7C090000 		.4byte	0x97c
 2629 0975 17       		.uleb128 0x17
 2630 0976 B6000000 		.4byte	0xb6
 2631 097a 0C       		.byte	0xc
 2632 097b 00       		.byte	0
 2633 097c 16       		.uleb128 0x16
 2634 097d E5000000 		.4byte	0xe5
 2635 0981 8D090000 		.4byte	0x98d
 2636 0985 18       		.uleb128 0x18
 2637 0986 B6000000 		.4byte	0xb6
 2638 098a FF03     		.2byte	0x3ff
 2639 098c 00       		.byte	0
 2640 098d 02       		.uleb128 0x2
 2641 098e 82100000 		.4byte	.LASF194
 2642 0992 0D       		.byte	0xd
 2643 0993 3C       		.byte	0x3c
 2644 0994 DA000000 		.4byte	0xda
 2645 0998 02       		.uleb128 0x2
 2646 0999 380C0000 		.4byte	.LASF195
 2647 099d 0E       		.byte	0xe
 2648 099e 2C       		.byte	0x2c
 2649 099f CF000000 		.4byte	0xcf
 2650 09a3 02       		.uleb128 0x2
 2651 09a4 88070000 		.4byte	.LASF196
 2652 09a8 0F       		.byte	0xf
 2653 09a9 1E       		.byte	0x1e
 2654 09aa CF000000 		.4byte	0xcf
 2655 09ae 07       		.uleb128 0x7
 2656 09af 0C       		.byte	0xc
 2657 09b0 0F       		.byte	0xf
 2658 09b1 21       		.byte	0x21
 2659 09b2 DB090000 		.4byte	0x9db
 2660 09b6 08       		.uleb128 0x8
 2661 09b7 E2020000 		.4byte	.LASF197
 2662 09bb 0F       		.byte	0xf
 2663 09bc 23       		.byte	0x23
 2664 09bd FB000000 		.4byte	0xfb
 2665 09c1 00       		.byte	0
 2666 09c2 08       		.uleb128 0x8
 2667 09c3 43060000 		.4byte	.LASF198
 2668 09c7 0F       		.byte	0xf
 2669 09c8 24       		.byte	0x24
 2670 09c9 DB090000 		.4byte	0x9db
 2671 09cd 04       		.byte	0x4
 2672 09ce 08       		.uleb128 0x8
 2673 09cf E1120000 		.4byte	.LASF199
ARM GAS  C:\Users\chris\AppData\Local\Temp\cctP47hK.s 			page 67


 2674 09d3 0F       		.byte	0xf
 2675 09d4 25       		.byte	0x25
 2676 09d5 DB090000 		.4byte	0x9db
 2677 09d9 08       		.byte	0x8
 2678 09da 00       		.byte	0
 2679 09db 0C       		.uleb128 0xc
 2680 09dc 04       		.byte	0x4
 2681 09dd A3090000 		.4byte	0x9a3
 2682 09e1 02       		.uleb128 0x2
 2683 09e2 D4050000 		.4byte	.LASF200
 2684 09e6 0F       		.byte	0xf
 2685 09e7 26       		.byte	0x26
 2686 09e8 AE090000 		.4byte	0x9ae
 2687 09ec 07       		.uleb128 0x7
 2688 09ed 04       		.byte	0x4
 2689 09ee 01       		.byte	0x1
 2690 09ef F3       		.byte	0xf3
 2691 09f0 250A0000 		.4byte	0xa25
 2692 09f4 08       		.uleb128 0x8
 2693 09f5 50100000 		.4byte	.LASF201
 2694 09f9 01       		.byte	0x1
 2695 09fa F5       		.byte	0xf5
 2696 09fb CF000000 		.4byte	0xcf
 2697 09ff 00       		.byte	0
 2698 0a00 08       		.uleb128 0x8
 2699 0a01 B50D0000 		.4byte	.LASF202
 2700 0a05 01       		.byte	0x1
 2701 0a06 F6       		.byte	0xf6
 2702 0a07 CF000000 		.4byte	0xcf
 2703 0a0b 01       		.byte	0x1
 2704 0a0c 14       		.uleb128 0x14
 2705 0a0d 72656400 		.ascii	"red\000"
 2706 0a11 01       		.byte	0x1
 2707 0a12 F7       		.byte	0xf7
 2708 0a13 CF000000 		.4byte	0xcf
 2709 0a17 02       		.byte	0x2
 2710 0a18 08       		.uleb128 0x8
 2711 0a19 95060000 		.4byte	.LASF203
 2712 0a1d 01       		.byte	0x1
 2713 0a1e F8       		.byte	0xf8
 2714 0a1f CF000000 		.4byte	0xcf
 2715 0a23 03       		.byte	0x3
 2716 0a24 00       		.byte	0
 2717 0a25 19       		.uleb128 0x19
 2718 0a26 04       		.byte	0x4
 2719 0a27 01       		.byte	0x1
 2720 0a28 F1       		.byte	0xf1
 2721 0a29 430A0000 		.4byte	0xa43
 2722 0a2d 1A       		.uleb128 0x1a
 2723 0a2e 636800   		.ascii	"ch\000"
 2724 0a31 01       		.byte	0x1
 2725 0a32 F9       		.byte	0xf9
 2726 0a33 EC090000 		.4byte	0x9ec
 2727 0a37 1B       		.uleb128 0x1b
 2728 0a38 5B000000 		.4byte	.LASF204
 2729 0a3c 01       		.byte	0x1
 2730 0a3d FA       		.byte	0xfa
ARM GAS  C:\Users\chris\AppData\Local\Temp\cctP47hK.s 			page 68


 2731 0a3e FB000000 		.4byte	0xfb
 2732 0a42 00       		.byte	0
 2733 0a43 02       		.uleb128 0x2
 2734 0a44 04050000 		.4byte	.LASF205
 2735 0a48 01       		.byte	0x1
 2736 0a49 FB       		.byte	0xfb
 2737 0a4a 250A0000 		.4byte	0xa25
 2738 0a4e 0B       		.uleb128 0xb
 2739 0a4f 5C0D0000 		.4byte	.LASF206
 2740 0a53 01       		.byte	0x1
 2741 0a54 0801     		.2byte	0x108
 2742 0a56 430A0000 		.4byte	0xa43
 2743 0a5a 0B       		.uleb128 0xb
 2744 0a5b 9C0F0000 		.4byte	.LASF207
 2745 0a5f 01       		.byte	0x1
 2746 0a60 0D01     		.2byte	0x10d
 2747 0a62 CF000000 		.4byte	0xcf
 2748 0a66 07       		.uleb128 0x7
 2749 0a67 08       		.byte	0x8
 2750 0a68 10       		.byte	0x10
 2751 0a69 31       		.byte	0x31
 2752 0a6a 9B0A0000 		.4byte	0xa9b
 2753 0a6e 14       		.uleb128 0x14
 2754 0a6f 783100   		.ascii	"x1\000"
 2755 0a72 10       		.byte	0x10
 2756 0a73 33       		.byte	0x33
 2757 0a74 8D090000 		.4byte	0x98d
 2758 0a78 00       		.byte	0
 2759 0a79 14       		.uleb128 0x14
 2760 0a7a 793100   		.ascii	"y1\000"
 2761 0a7d 10       		.byte	0x10
 2762 0a7e 34       		.byte	0x34
 2763 0a7f 8D090000 		.4byte	0x98d
 2764 0a83 02       		.byte	0x2
 2765 0a84 14       		.uleb128 0x14
 2766 0a85 783200   		.ascii	"x2\000"
 2767 0a88 10       		.byte	0x10
 2768 0a89 35       		.byte	0x35
 2769 0a8a 8D090000 		.4byte	0x98d
 2770 0a8e 04       		.byte	0x4
 2771 0a8f 14       		.uleb128 0x14
 2772 0a90 793200   		.ascii	"y2\000"
 2773 0a93 10       		.byte	0x10
 2774 0a94 36       		.byte	0x36
 2775 0a95 8D090000 		.4byte	0x98d
 2776 0a99 06       		.byte	0x6
 2777 0a9a 00       		.byte	0
 2778 0a9b 02       		.uleb128 0x2
 2779 0a9c 8A110000 		.4byte	.LASF208
 2780 0aa0 10       		.byte	0x10
 2781 0aa1 37       		.byte	0x37
 2782 0aa2 660A0000 		.4byte	0xa66
 2783 0aa6 0C       		.uleb128 0xc
 2784 0aa7 04       		.byte	0x4
 2785 0aa8 AC0A0000 		.4byte	0xaac
 2786 0aac 1C       		.uleb128 0x1c
 2787 0aad 9B0A0000 		.4byte	0xa9b
ARM GAS  C:\Users\chris\AppData\Local\Temp\cctP47hK.s 			page 69


 2788 0ab1 12       		.uleb128 0x12
 2789 0ab2 1C000000 		.4byte	.LASF209
 2790 0ab6 40       		.byte	0x40
 2791 0ab7 11       		.byte	0x11
 2792 0ab8 BB       		.byte	0xbb
 2793 0ab9 F30B0000 		.4byte	0xbf3
 2794 0abd 14       		.uleb128 0x14
 2795 0abe 70617200 		.ascii	"par\000"
 2796 0ac2 11       		.byte	0x11
 2797 0ac3 BD       		.byte	0xbd
 2798 0ac4 F30B0000 		.4byte	0xbf3
 2799 0ac8 00       		.byte	0
 2800 0ac9 08       		.uleb128 0x8
 2801 0aca 00130000 		.4byte	.LASF210
 2802 0ace 11       		.byte	0x11
 2803 0acf BE       		.byte	0xbe
 2804 0ad0 E1090000 		.4byte	0x9e1
 2805 0ad4 04       		.byte	0x4
 2806 0ad5 08       		.uleb128 0x8
 2807 0ad6 6F0F0000 		.4byte	.LASF211
 2808 0ada 11       		.byte	0x11
 2809 0adb C0       		.byte	0xc0
 2810 0adc 9B0A0000 		.4byte	0xa9b
 2811 0ae0 10       		.byte	0x10
 2812 0ae1 08       		.uleb128 0x8
 2813 0ae2 5B130000 		.4byte	.LASF212
 2814 0ae6 11       		.byte	0x11
 2815 0ae7 C2       		.byte	0xc2
 2816 0ae8 42100000 		.4byte	0x1042
 2817 0aec 18       		.byte	0x18
 2818 0aed 08       		.uleb128 0x8
 2819 0aee 3B150000 		.4byte	.LASF213
 2820 0af2 11       		.byte	0x11
 2821 0af3 C3       		.byte	0xc3
 2822 0af4 6E100000 		.4byte	0x106e
 2823 0af8 1C       		.byte	0x1c
 2824 0af9 08       		.uleb128 0x8
 2825 0afa 64130000 		.4byte	.LASF214
 2826 0afe 11       		.byte	0x11
 2827 0aff C4       		.byte	0xc4
 2828 0b00 880F0000 		.4byte	0xf88
 2829 0b04 20       		.byte	0x20
 2830 0b05 08       		.uleb128 0x8
 2831 0b06 A1130000 		.4byte	.LASF215
 2832 0b0a 11       		.byte	0x11
 2833 0b0b C6       		.byte	0xc6
 2834 0b0c B4000000 		.4byte	0xb4
 2835 0b10 24       		.byte	0x24
 2836 0b11 08       		.uleb128 0x8
 2837 0b12 35070000 		.4byte	.LASF216
 2838 0b16 11       		.byte	0x11
 2839 0b17 C7       		.byte	0xc7
 2840 0b18 A6110000 		.4byte	0x11a6
 2841 0b1c 28       		.byte	0x28
 2842 0b1d 1D       		.uleb128 0x1d
 2843 0b1e 65050000 		.4byte	.LASF217
 2844 0b22 11       		.byte	0x11
ARM GAS  C:\Users\chris\AppData\Local\Temp\cctP47hK.s 			page 70


 2845 0b23 D7       		.byte	0xd7
 2846 0b24 CF000000 		.4byte	0xcf
 2847 0b28 01       		.byte	0x1
 2848 0b29 01       		.byte	0x1
 2849 0b2a 07       		.byte	0x7
 2850 0b2b 2C       		.byte	0x2c
 2851 0b2c 1D       		.uleb128 0x1d
 2852 0b2d EE140000 		.4byte	.LASF218
 2853 0b31 11       		.byte	0x11
 2854 0b32 D8       		.byte	0xd8
 2855 0b33 CF000000 		.4byte	0xcf
 2856 0b37 01       		.byte	0x1
 2857 0b38 01       		.byte	0x1
 2858 0b39 06       		.byte	0x6
 2859 0b3a 2C       		.byte	0x2c
 2860 0b3b 1D       		.uleb128 0x1d
 2861 0b3c 8E010000 		.4byte	.LASF219
 2862 0b40 11       		.byte	0x11
 2863 0b41 D9       		.byte	0xd9
 2864 0b42 CF000000 		.4byte	0xcf
 2865 0b46 01       		.byte	0x1
 2866 0b47 01       		.byte	0x1
 2867 0b48 05       		.byte	0x5
 2868 0b49 2C       		.byte	0x2c
 2869 0b4a 1D       		.uleb128 0x1d
 2870 0b4b 44090000 		.4byte	.LASF220
 2871 0b4f 11       		.byte	0x11
 2872 0b50 DA       		.byte	0xda
 2873 0b51 CF000000 		.4byte	0xcf
 2874 0b55 01       		.byte	0x1
 2875 0b56 01       		.byte	0x1
 2876 0b57 04       		.byte	0x4
 2877 0b58 2C       		.byte	0x2c
 2878 0b59 1D       		.uleb128 0x1d
 2879 0b5a E4130000 		.4byte	.LASF221
 2880 0b5e 11       		.byte	0x11
 2881 0b5f DB       		.byte	0xdb
 2882 0b60 CF000000 		.4byte	0xcf
 2883 0b64 01       		.byte	0x1
 2884 0b65 01       		.byte	0x1
 2885 0b66 03       		.byte	0x3
 2886 0b67 2C       		.byte	0x2c
 2887 0b68 1E       		.uleb128 0x1e
 2888 0b69 746F7000 		.ascii	"top\000"
 2889 0b6d 11       		.byte	0x11
 2890 0b6e DC       		.byte	0xdc
 2891 0b6f CF000000 		.4byte	0xcf
 2892 0b73 01       		.byte	0x1
 2893 0b74 01       		.byte	0x1
 2894 0b75 02       		.byte	0x2
 2895 0b76 2C       		.byte	0x2c
 2896 0b77 1D       		.uleb128 0x1d
 2897 0b78 8D100000 		.4byte	.LASF222
 2898 0b7c 11       		.byte	0x11
 2899 0b7d DD       		.byte	0xdd
 2900 0b7e CF000000 		.4byte	0xcf
 2901 0b82 01       		.byte	0x1
ARM GAS  C:\Users\chris\AppData\Local\Temp\cctP47hK.s 			page 71


 2902 0b83 01       		.byte	0x1
 2903 0b84 01       		.byte	0x1
 2904 0b85 2C       		.byte	0x2c
 2905 0b86 1D       		.uleb128 0x1d
 2906 0b87 5F010000 		.4byte	.LASF223
 2907 0b8b 11       		.byte	0x11
 2908 0b8c DE       		.byte	0xde
 2909 0b8d CF000000 		.4byte	0xcf
 2910 0b91 01       		.byte	0x1
 2911 0b92 01       		.byte	0x1
 2912 0b93 00       		.byte	0
 2913 0b94 2C       		.byte	0x2c
 2914 0b95 1D       		.uleb128 0x1d
 2915 0b96 3C0A0000 		.4byte	.LASF224
 2916 0b9a 11       		.byte	0x11
 2917 0b9b DF       		.byte	0xdf
 2918 0b9c 9B110000 		.4byte	0x119b
 2919 0ba0 01       		.byte	0x1
 2920 0ba1 02       		.byte	0x2
 2921 0ba2 06       		.byte	0x6
 2922 0ba3 2D       		.byte	0x2d
 2923 0ba4 1D       		.uleb128 0x1d
 2924 0ba5 56010000 		.4byte	.LASF225
 2925 0ba9 11       		.byte	0x11
 2926 0baa E0       		.byte	0xe0
 2927 0bab 720F0000 		.4byte	0xf72
 2928 0baf 01       		.byte	0x1
 2929 0bb0 02       		.byte	0x2
 2930 0bb1 04       		.byte	0x4
 2931 0bb2 2D       		.byte	0x2d
 2932 0bb3 1D       		.uleb128 0x1d
 2933 0bb4 8E140000 		.4byte	.LASF226
 2934 0bb8 11       		.byte	0x11
 2935 0bb9 E1       		.byte	0xe1
 2936 0bba CF000000 		.4byte	0xcf
 2937 0bbe 01       		.byte	0x1
 2938 0bbf 03       		.byte	0x3
 2939 0bc0 01       		.byte	0x1
 2940 0bc1 2D       		.byte	0x2d
 2941 0bc2 08       		.uleb128 0x8
 2942 0bc3 40120000 		.4byte	.LASF227
 2943 0bc7 11       		.byte	0x11
 2944 0bc8 E2       		.byte	0xe2
 2945 0bc9 CF000000 		.4byte	0xcf
 2946 0bcd 2E       		.byte	0x2e
 2947 0bce 08       		.uleb128 0x8
 2948 0bcf 0C120000 		.4byte	.LASF228
 2949 0bd3 11       		.byte	0x11
 2950 0bd4 E4       		.byte	0xe4
 2951 0bd5 5A0A0000 		.4byte	0xa5a
 2952 0bd9 2F       		.byte	0x2f
 2953 0bda 08       		.uleb128 0x8
 2954 0bdb 7B090000 		.4byte	.LASF229
 2955 0bdf 11       		.byte	0x11
 2956 0be0 E6       		.byte	0xe6
 2957 0be1 8D090000 		.4byte	0x98d
 2958 0be5 30       		.byte	0x30
ARM GAS  C:\Users\chris\AppData\Local\Temp\cctP47hK.s 			page 72


 2959 0be6 08       		.uleb128 0x8
 2960 0be7 B2040000 		.4byte	.LASF230
 2961 0beb 11       		.byte	0x11
 2962 0bec E9       		.byte	0xe9
 2963 0bed 90110000 		.4byte	0x1190
 2964 0bf1 34       		.byte	0x34
 2965 0bf2 00       		.byte	0
 2966 0bf3 0C       		.uleb128 0xc
 2967 0bf4 04       		.byte	0x4
 2968 0bf5 B10A0000 		.4byte	0xab1
 2969 0bf9 07       		.uleb128 0x7
 2970 0bfa 08       		.byte	0x8
 2971 0bfb 12       		.byte	0x12
 2972 0bfc 2E       		.byte	0x2e
 2973 0bfd 4A0C0000 		.4byte	0xc4a
 2974 0c01 08       		.uleb128 0x8
 2975 0c02 DF160000 		.4byte	.LASF231
 2976 0c06 12       		.byte	0x12
 2977 0c07 30       		.byte	0x30
 2978 0c08 E5000000 		.4byte	0xe5
 2979 0c0c 00       		.byte	0
 2980 0c0d 08       		.uleb128 0x8
 2981 0c0e BB110000 		.4byte	.LASF232
 2982 0c12 12       		.byte	0x12
 2983 0c13 31       		.byte	0x31
 2984 0c14 CF000000 		.4byte	0xcf
 2985 0c18 02       		.byte	0x2
 2986 0c19 08       		.uleb128 0x8
 2987 0c1a 22110000 		.4byte	.LASF233
 2988 0c1e 12       		.byte	0x12
 2989 0c1f 32       		.byte	0x32
 2990 0c20 CF000000 		.4byte	0xcf
 2991 0c24 03       		.byte	0x3
 2992 0c25 08       		.uleb128 0x8
 2993 0c26 A6010000 		.4byte	.LASF234
 2994 0c2a 12       		.byte	0x12
 2995 0c2b 33       		.byte	0x33
 2996 0c2c C4000000 		.4byte	0xc4
 2997 0c30 04       		.byte	0x4
 2998 0c31 08       		.uleb128 0x8
 2999 0c32 AC010000 		.4byte	.LASF235
 3000 0c36 12       		.byte	0x12
 3001 0c37 34       		.byte	0x34
 3002 0c38 C4000000 		.4byte	0xc4
 3003 0c3c 05       		.byte	0x5
 3004 0c3d 14       		.uleb128 0x14
 3005 0c3e 62707000 		.ascii	"bpp\000"
 3006 0c42 12       		.byte	0x12
 3007 0c43 35       		.byte	0x35
 3008 0c44 CF000000 		.4byte	0xcf
 3009 0c48 06       		.byte	0x6
 3010 0c49 00       		.byte	0
 3011 0c4a 02       		.uleb128 0x2
 3012 0c4b C5090000 		.4byte	.LASF236
 3013 0c4f 12       		.byte	0x12
 3014 0c50 36       		.byte	0x36
 3015 0c51 F90B0000 		.4byte	0xbf9
ARM GAS  C:\Users\chris\AppData\Local\Temp\cctP47hK.s 			page 73


 3016 0c55 12       		.uleb128 0x12
 3017 0c56 F4070000 		.4byte	.LASF237
 3018 0c5a 10       		.byte	0x10
 3019 0c5b 12       		.byte	0x12
 3020 0c5c 44       		.byte	0x44
 3021 0c5d AD0C0000 		.4byte	0xcad
 3022 0c61 08       		.uleb128 0x8
 3023 0c62 CF010000 		.4byte	.LASF238
 3024 0c66 12       		.byte	0x12
 3025 0c67 47       		.byte	0x47
 3026 0c68 DC0C0000 		.4byte	0xcdc
 3027 0c6c 00       		.byte	0
 3028 0c6d 08       		.uleb128 0x8
 3029 0c6e D0120000 		.4byte	.LASF239
 3030 0c72 12       		.byte	0x12
 3031 0c73 4A       		.byte	0x4a
 3032 0c74 010D0000 		.4byte	0xd01
 3033 0c78 04       		.byte	0x4
 3034 0c79 08       		.uleb128 0x8
 3035 0c7a 63080000 		.4byte	.LASF240
 3036 0c7e 12       		.byte	0x12
 3037 0c7f 4D       		.byte	0x4d
 3038 0c80 CF000000 		.4byte	0xcf
 3039 0c84 08       		.byte	0x8
 3040 0c85 08       		.uleb128 0x8
 3041 0c86 EF110000 		.4byte	.LASF241
 3042 0c8a 12       		.byte	0x12
 3043 0c8b 4E       		.byte	0x4e
 3044 0c8c C4000000 		.4byte	0xc4
 3045 0c90 09       		.byte	0x9
 3046 0c91 1D       		.uleb128 0x1d
 3047 0c92 560D0000 		.4byte	.LASF242
 3048 0c96 12       		.byte	0x12
 3049 0c97 4F       		.byte	0x4f
 3050 0c98 CF000000 		.4byte	0xcf
 3051 0c9c 01       		.byte	0x1
 3052 0c9d 02       		.byte	0x2
 3053 0c9e 06       		.byte	0x6
 3054 0c9f 0A       		.byte	0xa
 3055 0ca0 14       		.uleb128 0x14
 3056 0ca1 64736300 		.ascii	"dsc\000"
 3057 0ca5 12       		.byte	0x12
 3058 0ca6 50       		.byte	0x50
 3059 0ca7 B4000000 		.4byte	0xb4
 3060 0cab 0C       		.byte	0xc
 3061 0cac 00       		.byte	0
 3062 0cad 0F       		.uleb128 0xf
 3063 0cae 35050000 		.4byte	0x535
 3064 0cb2 CB0C0000 		.4byte	0xccb
 3065 0cb6 0E       		.uleb128 0xe
 3066 0cb7 CB0C0000 		.4byte	0xccb
 3067 0cbb 0E       		.uleb128 0xe
 3068 0cbc D60C0000 		.4byte	0xcd6
 3069 0cc0 0E       		.uleb128 0xe
 3070 0cc1 FB000000 		.4byte	0xfb
 3071 0cc5 0E       		.uleb128 0xe
 3072 0cc6 FB000000 		.4byte	0xfb
ARM GAS  C:\Users\chris\AppData\Local\Temp\cctP47hK.s 			page 74


 3073 0cca 00       		.byte	0
 3074 0ccb 0C       		.uleb128 0xc
 3075 0ccc 04       		.byte	0x4
 3076 0ccd D10C0000 		.4byte	0xcd1
 3077 0cd1 1C       		.uleb128 0x1c
 3078 0cd2 550C0000 		.4byte	0xc55
 3079 0cd6 0C       		.uleb128 0xc
 3080 0cd7 04       		.byte	0x4
 3081 0cd8 4A0C0000 		.4byte	0xc4a
 3082 0cdc 0C       		.uleb128 0xc
 3083 0cdd 04       		.byte	0x4
 3084 0cde AD0C0000 		.4byte	0xcad
 3085 0ce2 0F       		.uleb128 0xf
 3086 0ce3 F60C0000 		.4byte	0xcf6
 3087 0ce7 F60C0000 		.4byte	0xcf6
 3088 0ceb 0E       		.uleb128 0xe
 3089 0cec CB0C0000 		.4byte	0xccb
 3090 0cf0 0E       		.uleb128 0xe
 3091 0cf1 FB000000 		.4byte	0xfb
 3092 0cf5 00       		.byte	0
 3093 0cf6 0C       		.uleb128 0xc
 3094 0cf7 04       		.byte	0x4
 3095 0cf8 FC0C0000 		.4byte	0xcfc
 3096 0cfc 1C       		.uleb128 0x1c
 3097 0cfd CF000000 		.4byte	0xcf
 3098 0d01 0C       		.uleb128 0xc
 3099 0d02 04       		.byte	0x4
 3100 0d03 E20C0000 		.4byte	0xce2
 3101 0d07 02       		.uleb128 0x2
 3102 0d08 E30E0000 		.4byte	.LASF243
 3103 0d0c 12       		.byte	0x12
 3104 0d0d 56       		.byte	0x56
 3105 0d0e 550C0000 		.4byte	0xc55
 3106 0d12 1F       		.uleb128 0x1f
 3107 0d13 01       		.byte	0x1
 3108 0d14 42000000 		.4byte	0x42
 3109 0d18 13       		.byte	0x13
 3110 0d19 23       		.byte	0x23
 3111 0d1a 2B0D0000 		.4byte	0xd2b
 3112 0d1e 0A       		.uleb128 0xa
 3113 0d1f F9110000 		.4byte	.LASF244
 3114 0d23 00       		.byte	0
 3115 0d24 0A       		.uleb128 0xa
 3116 0d25 030D0000 		.4byte	.LASF245
 3117 0d29 01       		.byte	0x1
 3118 0d2a 00       		.byte	0
 3119 0d2b 02       		.uleb128 0x2
 3120 0d2c 90130000 		.4byte	.LASF246
 3121 0d30 13       		.byte	0x13
 3122 0d31 28       		.byte	0x28
 3123 0d32 CF000000 		.4byte	0xcf
 3124 0d36 02       		.uleb128 0x2
 3125 0d37 A6100000 		.4byte	.LASF247
 3126 0d3b 14       		.byte	0x14
 3127 0d3c 2C       		.byte	0x2c
 3128 0d3d CF000000 		.4byte	0xcf
 3129 0d41 02       		.uleb128 0x2
ARM GAS  C:\Users\chris\AppData\Local\Temp\cctP47hK.s 			page 75


 3130 0d42 7D0A0000 		.4byte	.LASF248
 3131 0d46 14       		.byte	0x14
 3132 0d47 33       		.byte	0x33
 3133 0d48 CF000000 		.4byte	0xcf
 3134 0d4c 07       		.uleb128 0x7
 3135 0d4d 08       		.byte	0x8
 3136 0d4e 14       		.byte	0x14
 3137 0d4f 48       		.byte	0x48
 3138 0d50 850D0000 		.4byte	0xd85
 3139 0d54 08       		.uleb128 0x8
 3140 0d55 E9060000 		.4byte	.LASF249
 3141 0d59 14       		.byte	0x14
 3142 0d5a 4A       		.byte	0x4a
 3143 0d5b 4E0A0000 		.4byte	0xa4e
 3144 0d5f 00       		.byte	0
 3145 0d60 08       		.uleb128 0x8
 3146 0d61 3D070000 		.4byte	.LASF250
 3147 0d65 14       		.byte	0x14
 3148 0d66 4B       		.byte	0x4b
 3149 0d67 8D090000 		.4byte	0x98d
 3150 0d6b 04       		.byte	0x4
 3151 0d6c 08       		.uleb128 0x8
 3152 0d6d 16060000 		.4byte	.LASF251
 3153 0d71 14       		.byte	0x14
 3154 0d72 4C       		.byte	0x4c
 3155 0d73 360D0000 		.4byte	0xd36
 3156 0d77 06       		.byte	0x6
 3157 0d78 14       		.uleb128 0x14
 3158 0d79 6F706100 		.ascii	"opa\000"
 3159 0d7d 14       		.byte	0x14
 3160 0d7e 4D       		.byte	0x4d
 3161 0d7f 5A0A0000 		.4byte	0xa5a
 3162 0d83 07       		.byte	0x7
 3163 0d84 00       		.byte	0
 3164 0d85 07       		.uleb128 0x7
 3165 0d86 08       		.byte	0x8
 3166 0d87 14       		.byte	0x14
 3167 0d88 51       		.byte	0x51
 3168 0d89 B20D0000 		.4byte	0xdb2
 3169 0d8d 08       		.uleb128 0x8
 3170 0d8e E9060000 		.4byte	.LASF249
 3171 0d92 14       		.byte	0x14
 3172 0d93 53       		.byte	0x53
 3173 0d94 4E0A0000 		.4byte	0xa4e
 3174 0d98 00       		.byte	0
 3175 0d99 08       		.uleb128 0x8
 3176 0d9a 3D070000 		.4byte	.LASF250
 3177 0d9e 14       		.byte	0x14
 3178 0d9f 54       		.byte	0x54
 3179 0da0 8D090000 		.4byte	0x98d
 3180 0da4 04       		.byte	0x4
 3181 0da5 08       		.uleb128 0x8
 3182 0da6 260A0000 		.4byte	.LASF252
 3183 0daa 14       		.byte	0x14
 3184 0dab 55       		.byte	0x55
 3185 0dac 410D0000 		.4byte	0xd41
 3186 0db0 06       		.byte	0x6
ARM GAS  C:\Users\chris\AppData\Local\Temp\cctP47hK.s 			page 76


 3187 0db1 00       		.byte	0
 3188 0db2 07       		.uleb128 0x7
 3189 0db3 0A       		.byte	0xa
 3190 0db4 14       		.byte	0x14
 3191 0db5 58       		.byte	0x58
 3192 0db6 F70D0000 		.4byte	0xdf7
 3193 0dba 14       		.uleb128 0x14
 3194 0dbb 746F7000 		.ascii	"top\000"
 3195 0dbf 14       		.byte	0x14
 3196 0dc0 5A       		.byte	0x5a
 3197 0dc1 8D090000 		.4byte	0x98d
 3198 0dc5 00       		.byte	0
 3199 0dc6 08       		.uleb128 0x8
 3200 0dc7 88090000 		.4byte	.LASF253
 3201 0dcb 14       		.byte	0x14
 3202 0dcc 5B       		.byte	0x5b
 3203 0dcd 8D090000 		.4byte	0x98d
 3204 0dd1 02       		.byte	0x2
 3205 0dd2 08       		.uleb128 0x8
 3206 0dd3 B7100000 		.4byte	.LASF254
 3207 0dd7 14       		.byte	0x14
 3208 0dd8 5C       		.byte	0x5c
 3209 0dd9 8D090000 		.4byte	0x98d
 3210 0ddd 04       		.byte	0x4
 3211 0dde 08       		.uleb128 0x8
 3212 0ddf BB0A0000 		.4byte	.LASF255
 3213 0de3 14       		.byte	0x14
 3214 0de4 5D       		.byte	0x5d
 3215 0de5 8D090000 		.4byte	0x98d
 3216 0de9 06       		.byte	0x6
 3217 0dea 08       		.uleb128 0x8
 3218 0deb C6040000 		.4byte	.LASF256
 3219 0def 14       		.byte	0x14
 3220 0df0 5E       		.byte	0x5e
 3221 0df1 8D090000 		.4byte	0x98d
 3222 0df5 08       		.byte	0x8
 3223 0df6 00       		.byte	0
 3224 0df7 07       		.uleb128 0x7
 3225 0df8 28       		.byte	0x28
 3226 0df9 14       		.byte	0x14
 3227 0dfa 41       		.byte	0x41
 3228 0dfb 540E0000 		.4byte	0xe54
 3229 0dff 08       		.uleb128 0x8
 3230 0e00 0F0F0000 		.4byte	.LASF257
 3231 0e04 14       		.byte	0x14
 3232 0e05 43       		.byte	0x43
 3233 0e06 4E0A0000 		.4byte	0xa4e
 3234 0e0a 00       		.byte	0
 3235 0e0b 08       		.uleb128 0x8
 3236 0e0c CD080000 		.4byte	.LASF258
 3237 0e10 14       		.byte	0x14
 3238 0e11 44       		.byte	0x44
 3239 0e12 4E0A0000 		.4byte	0xa4e
 3240 0e16 04       		.byte	0x4
 3241 0e17 08       		.uleb128 0x8
 3242 0e18 05120000 		.4byte	.LASF259
 3243 0e1c 14       		.byte	0x14
ARM GAS  C:\Users\chris\AppData\Local\Temp\cctP47hK.s 			page 77


 3244 0e1d 45       		.byte	0x45
 3245 0e1e 8D090000 		.4byte	0x98d
 3246 0e22 08       		.byte	0x8
 3247 0e23 14       		.uleb128 0x14
 3248 0e24 6F706100 		.ascii	"opa\000"
 3249 0e28 14       		.byte	0x14
 3250 0e29 46       		.byte	0x46
 3251 0e2a 5A0A0000 		.4byte	0xa5a
 3252 0e2e 0A       		.byte	0xa
 3253 0e2f 08       		.uleb128 0x8
 3254 0e30 37100000 		.4byte	.LASF260
 3255 0e34 14       		.byte	0x14
 3256 0e35 4E       		.byte	0x4e
 3257 0e36 4C0D0000 		.4byte	0xd4c
 3258 0e3a 0C       		.byte	0xc
 3259 0e3b 08       		.uleb128 0x8
 3260 0e3c 670D0000 		.4byte	.LASF261
 3261 0e40 14       		.byte	0x14
 3262 0e41 56       		.byte	0x56
 3263 0e42 850D0000 		.4byte	0xd85
 3264 0e46 14       		.byte	0x14
 3265 0e47 08       		.uleb128 0x8
 3266 0e48 440B0000 		.4byte	.LASF262
 3267 0e4c 14       		.byte	0x14
 3268 0e4d 5F       		.byte	0x5f
 3269 0e4e B20D0000 		.4byte	0xdb2
 3270 0e52 1C       		.byte	0x1c
 3271 0e53 00       		.byte	0
 3272 0e54 07       		.uleb128 0x7
 3273 0e55 14       		.byte	0x14
 3274 0e56 14       		.byte	0x14
 3275 0e57 63       		.byte	0x63
 3276 0e58 A50E0000 		.4byte	0xea5
 3277 0e5c 08       		.uleb128 0x8
 3278 0e5d E9060000 		.4byte	.LASF249
 3279 0e61 14       		.byte	0x14
 3280 0e62 65       		.byte	0x65
 3281 0e63 4E0A0000 		.4byte	0xa4e
 3282 0e67 00       		.byte	0
 3283 0e68 08       		.uleb128 0x8
 3284 0e69 5B050000 		.4byte	.LASF263
 3285 0e6d 14       		.byte	0x14
 3286 0e6e 66       		.byte	0x66
 3287 0e6f 4E0A0000 		.4byte	0xa4e
 3288 0e73 04       		.byte	0x4
 3289 0e74 08       		.uleb128 0x8
 3290 0e75 7B020000 		.4byte	.LASF264
 3291 0e79 14       		.byte	0x14
 3292 0e7a 67       		.byte	0x67
 3293 0e7b A50E0000 		.4byte	0xea5
 3294 0e7f 08       		.byte	0x8
 3295 0e80 08       		.uleb128 0x8
 3296 0e81 ED0E0000 		.4byte	.LASF265
 3297 0e85 14       		.byte	0x14
 3298 0e86 68       		.byte	0x68
 3299 0e87 8D090000 		.4byte	0x98d
 3300 0e8b 0C       		.byte	0xc
ARM GAS  C:\Users\chris\AppData\Local\Temp\cctP47hK.s 			page 78


 3301 0e8c 08       		.uleb128 0x8
 3302 0e8d 2A080000 		.4byte	.LASF266
 3303 0e91 14       		.byte	0x14
 3304 0e92 69       		.byte	0x69
 3305 0e93 8D090000 		.4byte	0x98d
 3306 0e97 0E       		.byte	0xe
 3307 0e98 14       		.uleb128 0x14
 3308 0e99 6F706100 		.ascii	"opa\000"
 3309 0e9d 14       		.byte	0x14
 3310 0e9e 6A       		.byte	0x6a
 3311 0e9f 5A0A0000 		.4byte	0xa5a
 3312 0ea3 10       		.byte	0x10
 3313 0ea4 00       		.byte	0
 3314 0ea5 0C       		.uleb128 0xc
 3315 0ea6 04       		.byte	0x4
 3316 0ea7 AB0E0000 		.4byte	0xeab
 3317 0eab 1C       		.uleb128 0x1c
 3318 0eac 070D0000 		.4byte	0xd07
 3319 0eb0 07       		.uleb128 0x7
 3320 0eb1 08       		.byte	0x8
 3321 0eb2 14       		.byte	0x14
 3322 0eb3 6E       		.byte	0x6e
 3323 0eb4 DD0E0000 		.4byte	0xedd
 3324 0eb8 08       		.uleb128 0x8
 3325 0eb9 E9060000 		.4byte	.LASF249
 3326 0ebd 14       		.byte	0x14
 3327 0ebe 70       		.byte	0x70
 3328 0ebf 4E0A0000 		.4byte	0xa4e
 3329 0ec3 00       		.byte	0
 3330 0ec4 08       		.uleb128 0x8
 3331 0ec5 BC100000 		.4byte	.LASF267
 3332 0ec9 14       		.byte	0x14
 3333 0eca 71       		.byte	0x71
 3334 0ecb 5A0A0000 		.4byte	0xa5a
 3335 0ecf 04       		.byte	0x4
 3336 0ed0 14       		.uleb128 0x14
 3337 0ed1 6F706100 		.ascii	"opa\000"
 3338 0ed5 14       		.byte	0x14
 3339 0ed6 72       		.byte	0x72
 3340 0ed7 5A0A0000 		.4byte	0xa5a
 3341 0edb 05       		.byte	0x5
 3342 0edc 00       		.byte	0
 3343 0edd 07       		.uleb128 0x7
 3344 0ede 08       		.byte	0x8
 3345 0edf 14       		.byte	0x14
 3346 0ee0 76       		.byte	0x76
 3347 0ee1 190F0000 		.4byte	0xf19
 3348 0ee5 08       		.uleb128 0x8
 3349 0ee6 E9060000 		.4byte	.LASF249
 3350 0eea 14       		.byte	0x14
 3351 0eeb 78       		.byte	0x78
 3352 0eec 4E0A0000 		.4byte	0xa4e
 3353 0ef0 00       		.byte	0
 3354 0ef1 08       		.uleb128 0x8
 3355 0ef2 3D070000 		.4byte	.LASF250
 3356 0ef6 14       		.byte	0x14
 3357 0ef7 79       		.byte	0x79
ARM GAS  C:\Users\chris\AppData\Local\Temp\cctP47hK.s 			page 79


 3358 0ef8 8D090000 		.4byte	0x98d
 3359 0efc 04       		.byte	0x4
 3360 0efd 14       		.uleb128 0x14
 3361 0efe 6F706100 		.ascii	"opa\000"
 3362 0f02 14       		.byte	0x14
 3363 0f03 7A       		.byte	0x7a
 3364 0f04 5A0A0000 		.4byte	0xa5a
 3365 0f08 06       		.byte	0x6
 3366 0f09 1D       		.uleb128 0x1d
 3367 0f0a 0E070000 		.4byte	.LASF268
 3368 0f0e 14       		.byte	0x14
 3369 0f0f 7B       		.byte	0x7b
 3370 0f10 CF000000 		.4byte	0xcf
 3371 0f14 01       		.byte	0x1
 3372 0f15 01       		.byte	0x1
 3373 0f16 07       		.byte	0x7
 3374 0f17 07       		.byte	0x7
 3375 0f18 00       		.byte	0
 3376 0f19 07       		.uleb128 0x7
 3377 0f1a 50       		.byte	0x50
 3378 0f1b 14       		.byte	0x14
 3379 0f1c 3C       		.byte	0x3c
 3380 0f1d 610F0000 		.4byte	0xf61
 3381 0f21 1D       		.uleb128 0x1d
 3382 0f22 DD0A0000 		.4byte	.LASF269
 3383 0f26 14       		.byte	0x14
 3384 0f27 3E       		.byte	0x3e
 3385 0f28 CF000000 		.4byte	0xcf
 3386 0f2c 01       		.byte	0x1
 3387 0f2d 01       		.byte	0x1
 3388 0f2e 07       		.byte	0x7
 3389 0f2f 00       		.byte	0
 3390 0f30 08       		.uleb128 0x8
 3391 0f31 16120000 		.4byte	.LASF270
 3392 0f35 14       		.byte	0x14
 3393 0f36 60       		.byte	0x60
 3394 0f37 F70D0000 		.4byte	0xdf7
 3395 0f3b 04       		.byte	0x4
 3396 0f3c 08       		.uleb128 0x8
 3397 0f3d 130B0000 		.4byte	.LASF271
 3398 0f41 14       		.byte	0x14
 3399 0f42 6B       		.byte	0x6b
 3400 0f43 540E0000 		.4byte	0xe54
 3401 0f47 2C       		.byte	0x2c
 3402 0f48 08       		.uleb128 0x8
 3403 0f49 10040000 		.4byte	.LASF272
 3404 0f4d 14       		.byte	0x14
 3405 0f4e 73       		.byte	0x73
 3406 0f4f B00E0000 		.4byte	0xeb0
 3407 0f53 40       		.byte	0x40
 3408 0f54 08       		.uleb128 0x8
 3409 0f55 9E120000 		.4byte	.LASF273
 3410 0f59 14       		.byte	0x14
 3411 0f5a 7C       		.byte	0x7c
 3412 0f5b DD0E0000 		.4byte	0xedd
 3413 0f5f 48       		.byte	0x48
 3414 0f60 00       		.byte	0
ARM GAS  C:\Users\chris\AppData\Local\Temp\cctP47hK.s 			page 80


 3415 0f61 02       		.uleb128 0x2
 3416 0f62 DD010000 		.4byte	.LASF274
 3417 0f66 14       		.byte	0x14
 3418 0f67 84       		.byte	0x84
 3419 0f68 190F0000 		.4byte	0xf19
 3420 0f6c 0C       		.uleb128 0xc
 3421 0f6d 04       		.byte	0x4
 3422 0f6e 610F0000 		.4byte	0xf61
 3423 0f72 02       		.uleb128 0x2
 3424 0f73 D60B0000 		.4byte	.LASF275
 3425 0f77 15       		.byte	0x15
 3426 0f78 30       		.byte	0x30
 3427 0f79 CF000000 		.4byte	0xcf
 3428 0f7d 02       		.uleb128 0x2
 3429 0f7e 2C130000 		.4byte	.LASF276
 3430 0f82 11       		.byte	0x11
 3431 0f83 42       		.byte	0x42
 3432 0f84 CF000000 		.4byte	0xcf
 3433 0f88 02       		.uleb128 0x2
 3434 0f89 39020000 		.4byte	.LASF277
 3435 0f8d 11       		.byte	0x11
 3436 0f8e 48       		.byte	0x48
 3437 0f8f 930F0000 		.4byte	0xf93
 3438 0f93 0C       		.uleb128 0xc
 3439 0f94 04       		.byte	0x4
 3440 0f95 990F0000 		.4byte	0xf99
 3441 0f99 0F       		.uleb128 0xf
 3442 0f9a 35050000 		.4byte	0x535
 3443 0f9e B20F0000 		.4byte	0xfb2
 3444 0fa2 0E       		.uleb128 0xe
 3445 0fa3 F30B0000 		.4byte	0xbf3
 3446 0fa7 0E       		.uleb128 0xe
 3447 0fa8 A60A0000 		.4byte	0xaa6
 3448 0fac 0E       		.uleb128 0xe
 3449 0fad 7D0F0000 		.4byte	0xf7d
 3450 0fb1 00       		.byte	0
 3451 0fb2 1F       		.uleb128 0x1f
 3452 0fb3 01       		.byte	0x1
 3453 0fb4 42000000 		.4byte	0x42
 3454 0fb8 11       		.byte	0x11
 3455 0fb9 4A       		.byte	0x4a
 3456 0fba 37100000 		.4byte	0x1037
 3457 0fbe 0A       		.uleb128 0xa
 3458 0fbf 19080000 		.4byte	.LASF278
 3459 0fc3 00       		.byte	0
 3460 0fc4 0A       		.uleb128 0xa
 3461 0fc5 3E100000 		.4byte	.LASF279
 3462 0fc9 01       		.byte	0x1
 3463 0fca 0A       		.uleb128 0xa
 3464 0fcb B2070000 		.4byte	.LASF280
 3465 0fcf 02       		.byte	0x2
 3466 0fd0 0A       		.uleb128 0xa
 3467 0fd1 78150000 		.4byte	.LASF281
 3468 0fd5 03       		.byte	0x3
 3469 0fd6 0A       		.uleb128 0xa
 3470 0fd7 97160000 		.4byte	.LASF282
 3471 0fdb 04       		.byte	0x4
ARM GAS  C:\Users\chris\AppData\Local\Temp\cctP47hK.s 			page 81


 3472 0fdc 0A       		.uleb128 0xa
 3473 0fdd 97140000 		.4byte	.LASF283
 3474 0fe1 05       		.byte	0x5
 3475 0fe2 0A       		.uleb128 0xa
 3476 0fe3 980D0000 		.4byte	.LASF284
 3477 0fe7 06       		.byte	0x6
 3478 0fe8 0A       		.uleb128 0xa
 3479 0fe9 2C0F0000 		.4byte	.LASF285
 3480 0fed 07       		.byte	0x7
 3481 0fee 0A       		.uleb128 0xa
 3482 0fef AB0C0000 		.4byte	.LASF286
 3483 0ff3 08       		.byte	0x8
 3484 0ff4 0A       		.uleb128 0xa
 3485 0ff5 B8020000 		.4byte	.LASF287
 3486 0ff9 09       		.byte	0x9
 3487 0ffa 0A       		.uleb128 0xa
 3488 0ffb 6B120000 		.4byte	.LASF288
 3489 0fff 0A       		.byte	0xa
 3490 1000 0A       		.uleb128 0xa
 3491 1001 78030000 		.4byte	.LASF289
 3492 1005 0B       		.byte	0xb
 3493 1006 0A       		.uleb128 0xa
 3494 1007 28110000 		.4byte	.LASF290
 3495 100b 0C       		.byte	0xc
 3496 100c 0A       		.uleb128 0xa
 3497 100d 980C0000 		.4byte	.LASF291
 3498 1011 0D       		.byte	0xd
 3499 1012 0A       		.uleb128 0xa
 3500 1013 06010000 		.4byte	.LASF292
 3501 1017 0E       		.byte	0xe
 3502 1018 0A       		.uleb128 0xa
 3503 1019 11050000 		.4byte	.LASF293
 3504 101d 0F       		.byte	0xf
 3505 101e 0A       		.uleb128 0xa
 3506 101f 45010000 		.4byte	.LASF294
 3507 1023 10       		.byte	0x10
 3508 1024 0A       		.uleb128 0xa
 3509 1025 98020000 		.4byte	.LASF295
 3510 1029 11       		.byte	0x11
 3511 102a 0A       		.uleb128 0xa
 3512 102b 620A0000 		.4byte	.LASF296
 3513 102f 12       		.byte	0x12
 3514 1030 0A       		.uleb128 0xa
 3515 1031 78070000 		.4byte	.LASF297
 3516 1035 13       		.byte	0x13
 3517 1036 00       		.byte	0
 3518 1037 02       		.uleb128 0x2
 3519 1038 E40B0000 		.4byte	.LASF298
 3520 103c 11       		.byte	0x11
 3521 103d 61       		.byte	0x61
 3522 103e CF000000 		.4byte	0xcf
 3523 1042 02       		.uleb128 0x2
 3524 1043 AD160000 		.4byte	.LASF299
 3525 1047 11       		.byte	0x11
 3526 1048 68       		.byte	0x68
 3527 1049 4D100000 		.4byte	0x104d
 3528 104d 0C       		.uleb128 0xc
ARM GAS  C:\Users\chris\AppData\Local\Temp\cctP47hK.s 			page 82


 3529 104e 04       		.byte	0x4
 3530 104f 53100000 		.4byte	0x1053
 3531 1053 0D       		.uleb128 0xd
 3532 1054 63100000 		.4byte	0x1063
 3533 1058 0E       		.uleb128 0xe
 3534 1059 F30B0000 		.4byte	0xbf3
 3535 105d 0E       		.uleb128 0xe
 3536 105e 37100000 		.4byte	0x1037
 3537 1062 00       		.byte	0
 3538 1063 02       		.uleb128 0x2
 3539 1064 1B120000 		.4byte	.LASF300
 3540 1068 11       		.byte	0x11
 3541 1069 88       		.byte	0x88
 3542 106a CF000000 		.4byte	0xcf
 3543 106e 02       		.uleb128 0x2
 3544 106f F3050000 		.4byte	.LASF301
 3545 1073 11       		.byte	0x11
 3546 1074 8A       		.byte	0x8a
 3547 1075 79100000 		.4byte	0x1079
 3548 1079 0C       		.uleb128 0xc
 3549 107a 04       		.byte	0x4
 3550 107b 7F100000 		.4byte	0x107f
 3551 107f 0F       		.uleb128 0xf
 3552 1080 98090000 		.4byte	0x998
 3553 1084 98100000 		.4byte	0x1098
 3554 1088 0E       		.uleb128 0xe
 3555 1089 F30B0000 		.4byte	0xbf3
 3556 108d 0E       		.uleb128 0xe
 3557 108e 63100000 		.4byte	0x1063
 3558 1092 0E       		.uleb128 0xe
 3559 1093 B4000000 		.4byte	0xb4
 3560 1097 00       		.byte	0
 3561 1098 1F       		.uleb128 0x1f
 3562 1099 01       		.byte	0x1
 3563 109a 42000000 		.4byte	0x42
 3564 109e 11       		.byte	0x11
 3565 109f 8D       		.byte	0x8d
 3566 10a0 23110000 		.4byte	0x1123
 3567 10a4 0A       		.uleb128 0xa
 3568 10a5 7E010000 		.4byte	.LASF302
 3569 10a9 00       		.byte	0
 3570 10aa 0A       		.uleb128 0xa
 3571 10ab 82160000 		.4byte	.LASF303
 3572 10af 01       		.byte	0x1
 3573 10b0 0A       		.uleb128 0xa
 3574 10b1 3E0F0000 		.4byte	.LASF304
 3575 10b5 02       		.byte	0x2
 3576 10b6 0A       		.uleb128 0xa
 3577 10b7 D9110000 		.4byte	.LASF305
 3578 10bb 03       		.byte	0x3
 3579 10bc 0A       		.uleb128 0xa
 3580 10bd C1110000 		.4byte	.LASF306
 3581 10c1 04       		.byte	0x4
 3582 10c2 0A       		.uleb128 0xa
 3583 10c3 5F0C0000 		.4byte	.LASF307
 3584 10c7 05       		.byte	0x5
 3585 10c8 0A       		.uleb128 0xa
ARM GAS  C:\Users\chris\AppData\Local\Temp\cctP47hK.s 			page 83


 3586 10c9 FE090000 		.4byte	.LASF308
 3587 10cd 06       		.byte	0x6
 3588 10ce 0A       		.uleb128 0xa
 3589 10cf 15020000 		.4byte	.LASF309
 3590 10d3 07       		.byte	0x7
 3591 10d4 0A       		.uleb128 0xa
 3592 10d5 2C0D0000 		.4byte	.LASF310
 3593 10d9 08       		.byte	0x8
 3594 10da 0A       		.uleb128 0xa
 3595 10db 380E0000 		.4byte	.LASF311
 3596 10df 09       		.byte	0x9
 3597 10e0 0A       		.uleb128 0xa
 3598 10e1 870F0000 		.4byte	.LASF312
 3599 10e5 0A       		.byte	0xa
 3600 10e6 0A       		.uleb128 0xa
 3601 10e7 B9120000 		.4byte	.LASF313
 3602 10eb 0B       		.byte	0xb
 3603 10ec 0A       		.uleb128 0xa
 3604 10ed 56020000 		.4byte	.LASF314
 3605 10f1 0C       		.byte	0xc
 3606 10f2 0A       		.uleb128 0xa
 3607 10f3 AC060000 		.4byte	.LASF315
 3608 10f7 0D       		.byte	0xd
 3609 10f8 0A       		.uleb128 0xa
 3610 10f9 3B050000 		.4byte	.LASF316
 3611 10fd 0E       		.byte	0xe
 3612 10fe 0A       		.uleb128 0xa
 3613 10ff F20A0000 		.4byte	.LASF317
 3614 1103 0F       		.byte	0xf
 3615 1104 0A       		.uleb128 0xa
 3616 1105 16070000 		.4byte	.LASF318
 3617 1109 10       		.byte	0x10
 3618 110a 0A       		.uleb128 0xa
 3619 110b 65140000 		.4byte	.LASF319
 3620 110f 11       		.byte	0x11
 3621 1110 0A       		.uleb128 0xa
 3622 1111 DD040000 		.4byte	.LASF320
 3623 1115 12       		.byte	0x12
 3624 1116 0A       		.uleb128 0xa
 3625 1117 50110000 		.4byte	.LASF321
 3626 111b 13       		.byte	0x13
 3627 111c 0A       		.uleb128 0xa
 3628 111d 1B060000 		.4byte	.LASF322
 3629 1121 14       		.byte	0x14
 3630 1122 00       		.byte	0
 3631 1123 02       		.uleb128 0x2
 3632 1124 4C0B0000 		.4byte	.LASF323
 3633 1128 11       		.byte	0x11
 3634 1129 A4       		.byte	0xa4
 3635 112a CF000000 		.4byte	0xcf
 3636 112e 07       		.uleb128 0x7
 3637 112f 0C       		.byte	0xc
 3638 1130 11       		.byte	0x11
 3639 1131 A7       		.byte	0xa7
 3640 1132 85110000 		.4byte	0x1185
 3641 1136 08       		.uleb128 0x8
 3642 1137 7D050000 		.4byte	.LASF324
ARM GAS  C:\Users\chris\AppData\Local\Temp\cctP47hK.s 			page 84


 3643 113b 11       		.byte	0x11
 3644 113c A9       		.byte	0xa9
 3645 113d 85110000 		.4byte	0x1185
 3646 1141 00       		.byte	0
 3647 1142 08       		.uleb128 0x8
 3648 1143 8A0B0000 		.4byte	.LASF325
 3649 1147 11       		.byte	0x11
 3650 1148 AA       		.byte	0xaa
 3651 1149 8D090000 		.4byte	0x98d
 3652 114d 04       		.byte	0x4
 3653 114e 08       		.uleb128 0x8
 3654 114f 2A020000 		.4byte	.LASF326
 3655 1153 11       		.byte	0x11
 3656 1154 AB       		.byte	0xab
 3657 1155 8D090000 		.4byte	0x98d
 3658 1159 06       		.byte	0x6
 3659 115a 08       		.uleb128 0x8
 3660 115b 55160000 		.4byte	.LASF327
 3661 115f 11       		.byte	0x11
 3662 1160 AC       		.byte	0xac
 3663 1161 23110000 		.4byte	0x1123
 3664 1165 08       		.byte	0x8
 3665 1166 1D       		.uleb128 0x1d
 3666 1167 180B0000 		.4byte	.LASF328
 3667 116b 11       		.byte	0x11
 3668 116c AD       		.byte	0xad
 3669 116d CF000000 		.4byte	0xcf
 3670 1171 01       		.byte	0x1
 3671 1172 01       		.byte	0x1
 3672 1173 07       		.byte	0x7
 3673 1174 09       		.byte	0x9
 3674 1175 1D       		.uleb128 0x1d
 3675 1176 130C0000 		.4byte	.LASF329
 3676 117a 11       		.byte	0x11
 3677 117b AE       		.byte	0xae
 3678 117c CF000000 		.4byte	0xcf
 3679 1180 01       		.byte	0x1
 3680 1181 01       		.byte	0x1
 3681 1182 06       		.byte	0x6
 3682 1183 09       		.byte	0x9
 3683 1184 00       		.byte	0
 3684 1185 0C       		.uleb128 0xc
 3685 1186 04       		.byte	0x4
 3686 1187 8B110000 		.4byte	0x118b
 3687 118b 1C       		.uleb128 0x1c
 3688 118c B10A0000 		.4byte	0xab1
 3689 1190 02       		.uleb128 0x2
 3690 1191 C8160000 		.4byte	.LASF330
 3691 1195 11       		.byte	0x11
 3692 1196 B0       		.byte	0xb0
 3693 1197 2E110000 		.4byte	0x112e
 3694 119b 02       		.uleb128 0x2
 3695 119c 510C0000 		.4byte	.LASF331
 3696 11a0 11       		.byte	0x11
 3697 11a1 B9       		.byte	0xb9
 3698 11a2 CF000000 		.4byte	0xcf
 3699 11a6 0C       		.uleb128 0xc
ARM GAS  C:\Users\chris\AppData\Local\Temp\cctP47hK.s 			page 85


 3700 11a7 04       		.byte	0x4
 3701 11a8 AC110000 		.4byte	0x11ac
 3702 11ac 1C       		.uleb128 0x1c
 3703 11ad 610F0000 		.4byte	0xf61
 3704 11b1 02       		.uleb128 0x2
 3705 11b2 F1030000 		.4byte	.LASF332
 3706 11b6 11       		.byte	0x11
 3707 11b7 F0       		.byte	0xf0
 3708 11b8 B10A0000 		.4byte	0xab1
 3709 11bc 1F       		.uleb128 0x1f
 3710 11bd 01       		.byte	0x1
 3711 11be 42000000 		.4byte	0x42
 3712 11c2 16       		.byte	0x16
 3713 11c3 2A       		.byte	0x2a
 3714 11c4 ED110000 		.4byte	0x11ed
 3715 11c8 0A       		.uleb128 0xa
 3716 11c9 E3100000 		.4byte	.LASF333
 3717 11cd 00       		.byte	0
 3718 11ce 0A       		.uleb128 0xa
 3719 11cf A1030000 		.4byte	.LASF334
 3720 11d3 01       		.byte	0x1
 3721 11d4 0A       		.uleb128 0xa
 3722 11d5 63150000 		.4byte	.LASF335
 3723 11d9 02       		.byte	0x2
 3724 11da 0A       		.uleb128 0xa
 3725 11db 35080000 		.4byte	.LASF336
 3726 11df 03       		.byte	0x3
 3727 11e0 0A       		.uleb128 0xa
 3728 11e1 11110000 		.4byte	.LASF337
 3729 11e5 04       		.byte	0x4
 3730 11e6 0A       		.uleb128 0xa
 3731 11e7 BC0F0000 		.4byte	.LASF338
 3732 11eb 05       		.byte	0x5
 3733 11ec 00       		.byte	0
 3734 11ed 1F       		.uleb128 0x1f
 3735 11ee 01       		.byte	0x1
 3736 11ef 42000000 		.4byte	0x42
 3737 11f3 17       		.byte	0x17
 3738 11f4 2F       		.byte	0x2f
 3739 11f5 1E120000 		.4byte	0x121e
 3740 11f9 0A       		.uleb128 0xa
 3741 11fa 04080000 		.4byte	.LASF339
 3742 11fe 00       		.byte	0
 3743 11ff 0A       		.uleb128 0xa
 3744 1200 9C0A0000 		.4byte	.LASF340
 3745 1204 01       		.byte	0x1
 3746 1205 0A       		.uleb128 0xa
 3747 1206 B2000000 		.4byte	.LASF341
 3748 120a 02       		.byte	0x2
 3749 120b 0A       		.uleb128 0xa
 3750 120c C0050000 		.4byte	.LASF342
 3751 1210 03       		.byte	0x3
 3752 1211 0A       		.uleb128 0xa
 3753 1212 670B0000 		.4byte	.LASF343
 3754 1216 04       		.byte	0x4
 3755 1217 0A       		.uleb128 0xa
 3756 1218 48130000 		.4byte	.LASF344
ARM GAS  C:\Users\chris\AppData\Local\Temp\cctP47hK.s 			page 86


 3757 121c 05       		.byte	0x5
 3758 121d 00       		.byte	0
 3759 121e 16       		.uleb128 0x16
 3760 121f BD000000 		.4byte	0xbd
 3761 1223 2E120000 		.4byte	0x122e
 3762 1227 17       		.uleb128 0x17
 3763 1228 B6000000 		.4byte	0xb6
 3764 122c 03       		.byte	0x3
 3765 122d 00       		.byte	0
 3766 122e 0C       		.uleb128 0xc
 3767 122f 04       		.byte	0x4
 3768 1230 B1110000 		.4byte	0x11b1
 3769 1234 1F       		.uleb128 0x1f
 3770 1235 01       		.byte	0x1
 3771 1236 42000000 		.4byte	0x42
 3772 123a 18       		.byte	0x18
 3773 123b 2D       		.byte	0x2d
 3774 123c 65120000 		.4byte	0x1265
 3775 1240 0A       		.uleb128 0xa
 3776 1241 13130000 		.4byte	.LASF345
 3777 1245 00       		.byte	0
 3778 1246 0A       		.uleb128 0xa
 3779 1247 95070000 		.4byte	.LASF346
 3780 124b 01       		.byte	0x1
 3781 124c 0A       		.uleb128 0xa
 3782 124d 770E0000 		.4byte	.LASF347
 3783 1251 02       		.byte	0x2
 3784 1252 0A       		.uleb128 0xa
 3785 1253 6E100000 		.4byte	.LASF348
 3786 1257 04       		.byte	0x4
 3787 1258 0A       		.uleb128 0xa
 3788 1259 B4140000 		.4byte	.LASF349
 3789 125d 08       		.byte	0x8
 3790 125e 0A       		.uleb128 0xa
 3791 125f 8F150000 		.4byte	.LASF350
 3792 1263 10       		.byte	0x10
 3793 1264 00       		.byte	0
 3794 1265 07       		.uleb128 0x7
 3795 1266 0C       		.byte	0xc
 3796 1267 18       		.byte	0x18
 3797 1268 3E       		.byte	0x3e
 3798 1269 92120000 		.4byte	0x1292
 3799 126d 08       		.uleb128 0x8
 3800 126e 7B160000 		.4byte	.LASF351
 3801 1272 18       		.byte	0x18
 3802 1273 40       		.byte	0x40
 3803 1274 92120000 		.4byte	0x1292
 3804 1278 00       		.byte	0
 3805 1279 08       		.uleb128 0x8
 3806 127a E9060000 		.4byte	.LASF249
 3807 127e 18       		.byte	0x18
 3808 127f 41       		.byte	0x41
 3809 1280 4E0A0000 		.4byte	0xa4e
 3810 1284 04       		.byte	0x4
 3811 1285 08       		.uleb128 0x8
 3812 1286 9A100000 		.4byte	.LASF352
 3813 128a 18       		.byte	0x18
ARM GAS  C:\Users\chris\AppData\Local\Temp\cctP47hK.s 			page 87


 3814 128b 42       		.byte	0x42
 3815 128c E5000000 		.4byte	0xe5
 3816 1290 08       		.byte	0x8
 3817 1291 00       		.byte	0
 3818 1292 0C       		.uleb128 0xc
 3819 1293 04       		.byte	0x4
 3820 1294 8D090000 		.4byte	0x98d
 3821 1298 02       		.uleb128 0x2
 3822 1299 16100000 		.4byte	.LASF353
 3823 129d 18       		.byte	0x18
 3824 129e 43       		.byte	0x43
 3825 129f 65120000 		.4byte	0x1265
 3826 12a3 20       		.uleb128 0x20
 3827 12a4 8E0A0000 		.4byte	.LASF354
 3828 12a8 01       		.byte	0x1
 3829 12a9 DD01     		.2byte	0x1dd
 3830 12ab 4E0A0000 		.4byte	0xa4e
 3831 12af 00000000 		.4byte	.LFB588
 3832 12b3 38000000 		.4byte	.LFE588-.LFB588
 3833 12b7 01       		.uleb128 0x1
 3834 12b8 9C       		.byte	0x9c
 3835 12b9 E5120000 		.4byte	0x12e5
 3836 12bd 21       		.uleb128 0x21
 3837 12be 7200     		.ascii	"r\000"
 3838 12c0 01       		.byte	0x1
 3839 12c1 DD01     		.2byte	0x1dd
 3840 12c3 CF000000 		.4byte	0xcf
 3841 12c7 02       		.uleb128 0x2
 3842 12c8 91       		.byte	0x91
 3843 12c9 77       		.sleb128 -9
 3844 12ca 21       		.uleb128 0x21
 3845 12cb 6700     		.ascii	"g\000"
 3846 12cd 01       		.byte	0x1
 3847 12ce DD01     		.2byte	0x1dd
 3848 12d0 CF000000 		.4byte	0xcf
 3849 12d4 02       		.uleb128 0x2
 3850 12d5 91       		.byte	0x91
 3851 12d6 76       		.sleb128 -10
 3852 12d7 21       		.uleb128 0x21
 3853 12d8 6200     		.ascii	"b\000"
 3854 12da 01       		.byte	0x1
 3855 12db DD01     		.2byte	0x1dd
 3856 12dd CF000000 		.4byte	0xcf
 3857 12e1 02       		.uleb128 0x2
 3858 12e2 91       		.byte	0x91
 3859 12e3 75       		.sleb128 -11
 3860 12e4 00       		.byte	0
 3861 12e5 22       		.uleb128 0x22
 3862 12e6 C0080000 		.4byte	.LASF355
 3863 12ea 01       		.byte	0x1
 3864 12eb E201     		.2byte	0x1e2
 3865 12ed 4E0A0000 		.4byte	0xa4e
 3866 12f1 00000000 		.4byte	.LFB589
 3867 12f5 28000000 		.4byte	.LFE589-.LFB589
 3868 12f9 01       		.uleb128 0x1
 3869 12fa 9C       		.byte	0x9c
 3870 12fb 0D130000 		.4byte	0x130d
ARM GAS  C:\Users\chris\AppData\Local\Temp\cctP47hK.s 			page 88


 3871 12ff 21       		.uleb128 0x21
 3872 1300 6300     		.ascii	"c\000"
 3873 1302 01       		.byte	0x1
 3874 1303 E201     		.2byte	0x1e2
 3875 1305 FB000000 		.4byte	0xfb
 3876 1309 02       		.uleb128 0x2
 3877 130a 91       		.byte	0x91
 3878 130b 74       		.sleb128 -12
 3879 130c 00       		.byte	0
 3880 130d 23       		.uleb128 0x23
 3881 130e B00A0000 		.4byte	.LASF403
 3882 1312 02       		.byte	0x2
 3883 1313 61       		.byte	0x61
 3884 1314 2E120000 		.4byte	0x122e
 3885 1318 00000000 		.4byte	.LFB613
 3886 131c 16000000 		.4byte	.LFE613-.LFB613
 3887 1320 01       		.uleb128 0x1
 3888 1321 9C       		.byte	0x9c
 3889 1322 24       		.uleb128 0x24
 3890 1323 90080000 		.4byte	.LASF359
 3891 1327 03       		.byte	0x3
 3892 1328 4F       		.byte	0x4f
 3893 1329 00000000 		.4byte	.LFB668
 3894 132d 26000000 		.4byte	.LFE668-.LFB668
 3895 1331 01       		.uleb128 0x1
 3896 1332 9C       		.byte	0x9c
 3897 1333 62130000 		.4byte	0x1362
 3898 1337 25       		.uleb128 0x25
 3899 1338 CA060000 		.4byte	.LASF356
 3900 133c 03       		.byte	0x3
 3901 133d 4F       		.byte	0x4f
 3902 133e 2E120000 		.4byte	0x122e
 3903 1342 02       		.uleb128 0x2
 3904 1343 91       		.byte	0x91
 3905 1344 74       		.sleb128 -12
 3906 1345 25       		.uleb128 0x25
 3907 1346 C4060000 		.4byte	.LASF357
 3908 134a 03       		.byte	0x3
 3909 134b 4F       		.byte	0x4f
 3910 134c DA000000 		.4byte	0xda
 3911 1350 02       		.uleb128 0x2
 3912 1351 91       		.byte	0x91
 3913 1352 72       		.sleb128 -14
 3914 1353 25       		.uleb128 0x25
 3915 1354 85030000 		.4byte	.LASF358
 3916 1358 03       		.byte	0x3
 3917 1359 4F       		.byte	0x4f
 3918 135a 2B0D0000 		.4byte	0xd2b
 3919 135e 02       		.uleb128 0x2
 3920 135f 91       		.byte	0x91
 3921 1360 71       		.sleb128 -15
 3922 1361 00       		.byte	0
 3923 1362 24       		.uleb128 0x24
 3924 1363 B00E0000 		.4byte	.LASF360
 3925 1367 03       		.byte	0x3
 3926 1368 5A       		.byte	0x5a
 3927 1369 00000000 		.4byte	.LFB669
ARM GAS  C:\Users\chris\AppData\Local\Temp\cctP47hK.s 			page 89


 3928 136d 28000000 		.4byte	.LFE669-.LFB669
 3929 1371 01       		.uleb128 0x1
 3930 1372 9C       		.byte	0x9c
 3931 1373 A2130000 		.4byte	0x13a2
 3932 1377 25       		.uleb128 0x25
 3933 1378 CA060000 		.4byte	.LASF356
 3934 137c 03       		.byte	0x3
 3935 137d 5A       		.byte	0x5a
 3936 137e 2E120000 		.4byte	0x122e
 3937 1382 02       		.uleb128 0x2
 3938 1383 91       		.byte	0x91
 3939 1384 74       		.sleb128 -12
 3940 1385 26       		.uleb128 0x26
 3941 1386 6D696E00 		.ascii	"min\000"
 3942 138a 03       		.byte	0x3
 3943 138b 5A       		.byte	0x5a
 3944 138c DA000000 		.4byte	0xda
 3945 1390 02       		.uleb128 0x2
 3946 1391 91       		.byte	0x91
 3947 1392 72       		.sleb128 -14
 3948 1393 26       		.uleb128 0x26
 3949 1394 6D617800 		.ascii	"max\000"
 3950 1398 03       		.byte	0x3
 3951 1399 5A       		.byte	0x5a
 3952 139a DA000000 		.4byte	0xda
 3953 139e 02       		.uleb128 0x2
 3954 139f 91       		.byte	0x91
 3955 13a0 70       		.sleb128 -16
 3956 13a1 00       		.byte	0
 3957 13a2 27       		.uleb128 0x27
 3958 13a3 55140000 		.4byte	.LASF361
 3959 13a7 04       		.byte	0x4
 3960 13a8 81       		.byte	0x81
 3961 13a9 35050000 		.4byte	0x535
 3962 13ad 00000000 		.4byte	.LFB714
 3963 13b1 22000000 		.4byte	.LFE714-.LFB714
 3964 13b5 01       		.uleb128 0x1
 3965 13b6 9C       		.byte	0x9c
 3966 13b7 C9130000 		.4byte	0x13c9
 3967 13bb 26       		.uleb128 0x26
 3968 13bc 737700   		.ascii	"sw\000"
 3969 13bf 04       		.byte	0x4
 3970 13c0 81       		.byte	0x81
 3971 13c1 C9130000 		.4byte	0x13c9
 3972 13c5 02       		.uleb128 0x2
 3973 13c6 91       		.byte	0x91
 3974 13c7 74       		.sleb128 -12
 3975 13c8 00       		.byte	0
 3976 13c9 0C       		.uleb128 0xc
 3977 13ca 04       		.byte	0x4
 3978 13cb CF130000 		.4byte	0x13cf
 3979 13cf 1C       		.uleb128 0x1c
 3980 13d0 B1110000 		.4byte	0x11b1
 3981 13d4 24       		.uleb128 0x24
 3982 13d5 87020000 		.4byte	.LASF362
 3983 13d9 05       		.byte	0x5
 3984 13da 1B       		.byte	0x1b
ARM GAS  C:\Users\chris\AppData\Local\Temp\cctP47hK.s 			page 90


 3985 13db 00000000 		.4byte	.LFB717
 3986 13df 40000000 		.4byte	.LFE717-.LFB717
 3987 13e3 01       		.uleb128 0x1
 3988 13e4 9C       		.byte	0x9c
 3989 13e5 06140000 		.4byte	0x1406
 3990 13e9 26       		.uleb128 0x26
 3991 13ea 6F626A00 		.ascii	"obj\000"
 3992 13ee 05       		.byte	0x5
 3993 13ef 1B       		.byte	0x1b
 3994 13f0 2E120000 		.4byte	0x122e
 3995 13f4 02       		.uleb128 0x2
 3996 13f5 91       		.byte	0x91
 3997 13f6 74       		.sleb128 -12
 3998 13f7 25       		.uleb128 0x25
 3999 13f8 6B050000 		.4byte	.LASF363
 4000 13fc 05       		.byte	0x5
 4001 13fd 1B       		.byte	0x1b
 4002 13fe 37100000 		.4byte	0x1037
 4003 1402 02       		.uleb128 0x2
 4004 1403 91       		.byte	0x91
 4005 1404 73       		.sleb128 -13
 4006 1405 00       		.byte	0
 4007 1406 24       		.uleb128 0x24
 4008 1407 05000000 		.4byte	.LASF364
 4009 140b 05       		.byte	0x5
 4010 140c 24       		.byte	0x24
 4011 140d 00000000 		.4byte	.LFB718
 4012 1411 58000000 		.4byte	.LFE718-.LFB718
 4013 1415 01       		.uleb128 0x1
 4014 1416 9C       		.byte	0x9c
 4015 1417 53140000 		.4byte	0x1453
 4016 141b 25       		.uleb128 0x25
 4017 141c CA060000 		.4byte	.LASF356
 4018 1420 05       		.byte	0x5
 4019 1421 24       		.byte	0x24
 4020 1422 2E120000 		.4byte	0x122e
 4021 1426 02       		.uleb128 0x2
 4022 1427 91       		.byte	0x91
 4023 1428 74       		.sleb128 -12
 4024 1429 25       		.uleb128 0x25
 4025 142a 6B050000 		.4byte	.LASF363
 4026 142e 05       		.byte	0x5
 4027 142f 24       		.byte	0x24
 4028 1430 37100000 		.4byte	0x1037
 4029 1434 02       		.uleb128 0x2
 4030 1435 91       		.byte	0x91
 4031 1436 73       		.sleb128 -13
 4032 1437 28       		.uleb128 0x28
 4033 1438 12000000 		.4byte	.LBB2
 4034 143c 2C000000 		.4byte	.LBE2-.LBB2
 4035 1440 29       		.uleb128 0x29
 4036 1441 62756600 		.ascii	"buf\000"
 4037 1445 05       		.byte	0x5
 4038 1446 27       		.byte	0x27
 4039 1447 1E120000 		.4byte	0x121e
 4040 144b 05       		.uleb128 0x5
 4041 144c 03       		.byte	0x3
ARM GAS  C:\Users\chris\AppData\Local\Temp\cctP47hK.s 			page 91


 4042 144d 18000000 		.4byte	buf.20852
 4043 1451 00       		.byte	0
 4044 1452 00       		.byte	0
 4045 1453 24       		.uleb128 0x24
 4046 1454 130E0000 		.4byte	.LASF365
 4047 1458 05       		.byte	0x5
 4048 1459 2F       		.byte	0x2f
 4049 145a 00000000 		.4byte	.LFB719
 4050 145e 58000000 		.4byte	.LFE719-.LFB719
 4051 1462 01       		.uleb128 0x1
 4052 1463 9C       		.byte	0x9c
 4053 1464 A0140000 		.4byte	0x14a0
 4054 1468 25       		.uleb128 0x25
 4055 1469 CA060000 		.4byte	.LASF356
 4056 146d 05       		.byte	0x5
 4057 146e 2F       		.byte	0x2f
 4058 146f 2E120000 		.4byte	0x122e
 4059 1473 02       		.uleb128 0x2
 4060 1474 91       		.byte	0x91
 4061 1475 74       		.sleb128 -12
 4062 1476 25       		.uleb128 0x25
 4063 1477 6B050000 		.4byte	.LASF363
 4064 147b 05       		.byte	0x5
 4065 147c 2F       		.byte	0x2f
 4066 147d 37100000 		.4byte	0x1037
 4067 1481 02       		.uleb128 0x2
 4068 1482 91       		.byte	0x91
 4069 1483 73       		.sleb128 -13
 4070 1484 28       		.uleb128 0x28
 4071 1485 12000000 		.4byte	.LBB3
 4072 1489 2C000000 		.4byte	.LBE3-.LBB3
 4073 148d 29       		.uleb128 0x29
 4074 148e 62756600 		.ascii	"buf\000"
 4075 1492 05       		.byte	0x5
 4076 1493 32       		.byte	0x32
 4077 1494 1E120000 		.4byte	0x121e
 4078 1498 05       		.uleb128 0x5
 4079 1499 03       		.byte	0x3
 4080 149a 1C000000 		.4byte	buf.20857
 4081 149e 00       		.byte	0
 4082 149f 00       		.byte	0
 4083 14a0 24       		.uleb128 0x24
 4084 14a1 30010000 		.4byte	.LASF366
 4085 14a5 05       		.byte	0x5
 4086 14a6 3A       		.byte	0x3a
 4087 14a7 00000000 		.4byte	.LFB720
 4088 14ab 58000000 		.4byte	.LFE720-.LFB720
 4089 14af 01       		.uleb128 0x1
 4090 14b0 9C       		.byte	0x9c
 4091 14b1 ED140000 		.4byte	0x14ed
 4092 14b5 25       		.uleb128 0x25
 4093 14b6 CA060000 		.4byte	.LASF356
 4094 14ba 05       		.byte	0x5
 4095 14bb 3A       		.byte	0x3a
 4096 14bc 2E120000 		.4byte	0x122e
 4097 14c0 02       		.uleb128 0x2
 4098 14c1 91       		.byte	0x91
ARM GAS  C:\Users\chris\AppData\Local\Temp\cctP47hK.s 			page 92


 4099 14c2 74       		.sleb128 -12
 4100 14c3 25       		.uleb128 0x25
 4101 14c4 6B050000 		.4byte	.LASF363
 4102 14c8 05       		.byte	0x5
 4103 14c9 3A       		.byte	0x3a
 4104 14ca 37100000 		.4byte	0x1037
 4105 14ce 02       		.uleb128 0x2
 4106 14cf 91       		.byte	0x91
 4107 14d0 73       		.sleb128 -13
 4108 14d1 28       		.uleb128 0x28
 4109 14d2 12000000 		.4byte	.LBB4
 4110 14d6 2C000000 		.4byte	.LBE4-.LBB4
 4111 14da 29       		.uleb128 0x29
 4112 14db 62756600 		.ascii	"buf\000"
 4113 14df 05       		.byte	0x5
 4114 14e0 3D       		.byte	0x3d
 4115 14e1 1E120000 		.4byte	0x121e
 4116 14e5 05       		.uleb128 0x5
 4117 14e6 03       		.byte	0x3
 4118 14e7 20000000 		.4byte	buf.20862
 4119 14eb 00       		.byte	0
 4120 14ec 00       		.byte	0
 4121 14ed 24       		.uleb128 0x24
 4122 14ee 0A090000 		.4byte	.LASF367
 4123 14f2 05       		.byte	0x5
 4124 14f3 45       		.byte	0x45
 4125 14f4 00000000 		.4byte	.LFB721
 4126 14f8 58000000 		.4byte	.LFE721-.LFB721
 4127 14fc 01       		.uleb128 0x1
 4128 14fd 9C       		.byte	0x9c
 4129 14fe 3A150000 		.4byte	0x153a
 4130 1502 25       		.uleb128 0x25
 4131 1503 CA060000 		.4byte	.LASF356
 4132 1507 05       		.byte	0x5
 4133 1508 45       		.byte	0x45
 4134 1509 2E120000 		.4byte	0x122e
 4135 150d 02       		.uleb128 0x2
 4136 150e 91       		.byte	0x91
 4137 150f 74       		.sleb128 -12
 4138 1510 25       		.uleb128 0x25
 4139 1511 6B050000 		.4byte	.LASF363
 4140 1515 05       		.byte	0x5
 4141 1516 45       		.byte	0x45
 4142 1517 37100000 		.4byte	0x1037
 4143 151b 02       		.uleb128 0x2
 4144 151c 91       		.byte	0x91
 4145 151d 73       		.sleb128 -13
 4146 151e 28       		.uleb128 0x28
 4147 151f 12000000 		.4byte	.LBB5
 4148 1523 2C000000 		.4byte	.LBE5-.LBB5
 4149 1527 29       		.uleb128 0x29
 4150 1528 62756600 		.ascii	"buf\000"
 4151 152c 05       		.byte	0x5
 4152 152d 48       		.byte	0x48
 4153 152e 1E120000 		.4byte	0x121e
 4154 1532 05       		.uleb128 0x5
 4155 1533 03       		.byte	0x3
ARM GAS  C:\Users\chris\AppData\Local\Temp\cctP47hK.s 			page 93


 4156 1534 24000000 		.4byte	buf.20867
 4157 1538 00       		.byte	0
 4158 1539 00       		.byte	0
 4159 153a 24       		.uleb128 0x24
 4160 153b 82050000 		.4byte	.LASF368
 4161 153f 05       		.byte	0x5
 4162 1540 50       		.byte	0x50
 4163 1541 00000000 		.4byte	.LFB722
 4164 1545 58000000 		.4byte	.LFE722-.LFB722
 4165 1549 01       		.uleb128 0x1
 4166 154a 9C       		.byte	0x9c
 4167 154b 87150000 		.4byte	0x1587
 4168 154f 25       		.uleb128 0x25
 4169 1550 CA060000 		.4byte	.LASF356
 4170 1554 05       		.byte	0x5
 4171 1555 50       		.byte	0x50
 4172 1556 2E120000 		.4byte	0x122e
 4173 155a 02       		.uleb128 0x2
 4174 155b 91       		.byte	0x91
 4175 155c 74       		.sleb128 -12
 4176 155d 25       		.uleb128 0x25
 4177 155e 6B050000 		.4byte	.LASF363
 4178 1562 05       		.byte	0x5
 4179 1563 50       		.byte	0x50
 4180 1564 37100000 		.4byte	0x1037
 4181 1568 02       		.uleb128 0x2
 4182 1569 91       		.byte	0x91
 4183 156a 73       		.sleb128 -13
 4184 156b 28       		.uleb128 0x28
 4185 156c 12000000 		.4byte	.LBB6
 4186 1570 2C000000 		.4byte	.LBE6-.LBB6
 4187 1574 29       		.uleb128 0x29
 4188 1575 62756600 		.ascii	"buf\000"
 4189 1579 05       		.byte	0x5
 4190 157a 53       		.byte	0x53
 4191 157b 1E120000 		.4byte	0x121e
 4192 157f 05       		.uleb128 0x5
 4193 1580 03       		.byte	0x3
 4194 1581 28000000 		.4byte	buf.20872
 4195 1585 00       		.byte	0
 4196 1586 00       		.byte	0
 4197 1587 2A       		.uleb128 0x2a
 4198 1588 55100000 		.4byte	.LASF404
 4199 158c 05       		.byte	0x5
 4200 158d 64       		.byte	0x64
 4201 158e 00000000 		.4byte	.LFB723
 4202 1592 1C050000 		.4byte	.LFE723-.LFB723
 4203 1596 01       		.uleb128 0x1
 4204 1597 9C       		.byte	0x9c
 4205 1598 CB160000 		.4byte	0x16cb
 4206 159c 2B       		.uleb128 0x2b
 4207 159d BA040000 		.4byte	.LASF369
 4208 15a1 05       		.byte	0x5
 4209 15a2 67       		.byte	0x67
 4210 15a3 CB160000 		.4byte	0x16cb
 4211 15a7 02       		.uleb128 0x2
 4212 15a8 91       		.byte	0x91
ARM GAS  C:\Users\chris\AppData\Local\Temp\cctP47hK.s 			page 94


 4213 15a9 68       		.sleb128 -24
 4214 15aa 2B       		.uleb128 0x2b
 4215 15ab 2B0E0000 		.4byte	.LASF370
 4216 15af 05       		.byte	0x5
 4217 15b0 68       		.byte	0x68
 4218 15b1 CB160000 		.4byte	0x16cb
 4219 15b5 02       		.uleb128 0x2
 4220 15b6 91       		.byte	0x91
 4221 15b7 64       		.sleb128 -28
 4222 15b8 2B       		.uleb128 0x2b
 4223 15b9 55080000 		.4byte	.LASF371
 4224 15bd 05       		.byte	0x5
 4225 15be 69       		.byte	0x69
 4226 15bf CB160000 		.4byte	0x16cb
 4227 15c3 02       		.uleb128 0x2
 4228 15c4 91       		.byte	0x91
 4229 15c5 60       		.sleb128 -32
 4230 15c6 2B       		.uleb128 0x2b
 4231 15c7 F3140000 		.4byte	.LASF372
 4232 15cb 05       		.byte	0x5
 4233 15cc 6A       		.byte	0x6a
 4234 15cd CB160000 		.4byte	0x16cb
 4235 15d1 02       		.uleb128 0x2
 4236 15d2 91       		.byte	0x91
 4237 15d3 5C       		.sleb128 -36
 4238 15d4 2B       		.uleb128 0x2b
 4239 15d5 43140000 		.4byte	.LASF373
 4240 15d9 05       		.byte	0x5
 4241 15da 6C       		.byte	0x6c
 4242 15db 2E120000 		.4byte	0x122e
 4243 15df 05       		.uleb128 0x5
 4244 15e0 03       		.byte	0x3
 4245 15e1 34000000 		.4byte	my_label.20879
 4246 15e5 2B       		.uleb128 0x2b
 4247 15e6 A8070000 		.4byte	.LASF374
 4248 15ea 05       		.byte	0x5
 4249 15eb 6D       		.byte	0x6d
 4250 15ec 6C0F0000 		.4byte	0xf6c
 4251 15f0 05       		.uleb128 0x5
 4252 15f1 03       		.byte	0x3
 4253 15f2 30000000 		.4byte	lbl_style.20880
 4254 15f6 2B       		.uleb128 0x2b
 4255 15f7 AB000000 		.4byte	.LASF375
 4256 15fb 05       		.byte	0x5
 4257 15fc 6F       		.byte	0x6f
 4258 15fd 2E120000 		.4byte	0x122e
 4259 1601 05       		.uleb128 0x5
 4260 1602 03       		.byte	0x3
 4261 1603 2C000000 		.4byte	chart1.20881
 4262 1607 2B       		.uleb128 0x2b
 4263 1608 760C0000 		.4byte	.LASF376
 4264 160c 05       		.byte	0x5
 4265 160d 76       		.byte	0x76
 4266 160e 2E120000 		.4byte	0x122e
 4267 1612 02       		.uleb128 0x2
 4268 1613 91       		.byte	0x91
 4269 1614 58       		.sleb128 -40
ARM GAS  C:\Users\chris\AppData\Local\Temp\cctP47hK.s 			page 95


 4270 1615 2B       		.uleb128 0x2b
 4271 1616 F1160000 		.4byte	.LASF377
 4272 161a 05       		.byte	0x5
 4273 161b 84       		.byte	0x84
 4274 161c 2E120000 		.4byte	0x122e
 4275 1620 02       		.uleb128 0x2
 4276 1621 91       		.byte	0x91
 4277 1622 54       		.sleb128 -44
 4278 1623 2B       		.uleb128 0x2b
 4279 1624 50060000 		.4byte	.LASF378
 4280 1628 05       		.byte	0x5
 4281 1629 8C       		.byte	0x8c
 4282 162a 2E120000 		.4byte	0x122e
 4283 162e 02       		.uleb128 0x2
 4284 162f 91       		.byte	0x91
 4285 1630 50       		.sleb128 -48
 4286 1631 2B       		.uleb128 0x2b
 4287 1632 420D0000 		.4byte	.LASF379
 4288 1636 05       		.byte	0x5
 4289 1637 9A       		.byte	0x9a
 4290 1638 2E120000 		.4byte	0x122e
 4291 163c 02       		.uleb128 0x2
 4292 163d 91       		.byte	0x91
 4293 163e 4C       		.sleb128 -52
 4294 163f 2B       		.uleb128 0x2b
 4295 1640 64070000 		.4byte	.LASF380
 4296 1644 05       		.byte	0x5
 4297 1645 A1       		.byte	0xa1
 4298 1646 2E120000 		.4byte	0x122e
 4299 164a 02       		.uleb128 0x2
 4300 164b 91       		.byte	0x91
 4301 164c 48       		.sleb128 -56
 4302 164d 2B       		.uleb128 0x2b
 4303 164e CF0E0000 		.4byte	.LASF381
 4304 1652 05       		.byte	0x5
 4305 1653 AF       		.byte	0xaf
 4306 1654 2E120000 		.4byte	0x122e
 4307 1658 02       		.uleb128 0x2
 4308 1659 91       		.byte	0x91
 4309 165a 44       		.sleb128 -60
 4310 165b 2B       		.uleb128 0x2b
 4311 165c AE120000 		.4byte	.LASF382
 4312 1660 05       		.byte	0x5
 4313 1661 B5       		.byte	0xb5
 4314 1662 2E120000 		.4byte	0x122e
 4315 1666 02       		.uleb128 0x2
 4316 1667 91       		.byte	0x91
 4317 1668 40       		.sleb128 -64
 4318 1669 2B       		.uleb128 0x2b
 4319 166a 05040000 		.4byte	.LASF383
 4320 166e 05       		.byte	0x5
 4321 166f C3       		.byte	0xc3
 4322 1670 2E120000 		.4byte	0x122e
 4323 1674 03       		.uleb128 0x3
 4324 1675 91       		.byte	0x91
 4325 1676 BC7F     		.sleb128 -68
 4326 1678 2B       		.uleb128 0x2b
ARM GAS  C:\Users\chris\AppData\Local\Temp\cctP47hK.s 			page 96


 4327 1679 61100000 		.4byte	.LASF384
 4328 167d 05       		.byte	0x5
 4329 167e CA       		.byte	0xca
 4330 167f 2E120000 		.4byte	0x122e
 4331 1683 03       		.uleb128 0x3
 4332 1684 91       		.byte	0x91
 4333 1685 B87F     		.sleb128 -72
 4334 1687 29       		.uleb128 0x29
 4335 1688 733100   		.ascii	"s1\000"
 4336 168b 05       		.byte	0x5
 4337 168c E4       		.byte	0xe4
 4338 168d D0160000 		.4byte	0x16d0
 4339 1691 03       		.uleb128 0x3
 4340 1692 91       		.byte	0x91
 4341 1693 B47F     		.sleb128 -76
 4342 1695 2B       		.uleb128 0x2b
 4343 1696 A90D0000 		.4byte	.LASF385
 4344 169a 05       		.byte	0x5
 4345 169b FF       		.byte	0xff
 4346 169c 2E120000 		.4byte	0x122e
 4347 16a0 03       		.uleb128 0x3
 4348 16a1 91       		.byte	0x91
 4349 16a2 B07F     		.sleb128 -80
 4350 16a4 2C       		.uleb128 0x2c
 4351 16a5 73773100 		.ascii	"sw1\000"
 4352 16a9 05       		.byte	0x5
 4353 16aa 0401     		.2byte	0x104
 4354 16ac 2E120000 		.4byte	0x122e
 4355 16b0 03       		.uleb128 0x3
 4356 16b1 91       		.byte	0x91
 4357 16b2 AC7F     		.sleb128 -84
 4358 16b4 28       		.uleb128 0x28
 4359 16b5 64040000 		.4byte	.LBB7
 4360 16b9 30000000 		.4byte	.LBE7-.LBB7
 4361 16bd 29       		.uleb128 0x29
 4362 16be 6900     		.ascii	"i\000"
 4363 16c0 05       		.byte	0x5
 4364 16c1 F8       		.byte	0xf8
 4365 16c2 9F000000 		.4byte	0x9f
 4366 16c6 02       		.uleb128 0x2
 4367 16c7 91       		.byte	0x91
 4368 16c8 6C       		.sleb128 -20
 4369 16c9 00       		.byte	0
 4370 16ca 00       		.byte	0
 4371 16cb 1C       		.uleb128 0x1c
 4372 16cc 9F000000 		.4byte	0x9f
 4373 16d0 0C       		.uleb128 0xc
 4374 16d1 04       		.byte	0x4
 4375 16d2 98120000 		.4byte	0x1298
 4376 16d6 2B       		.uleb128 0x2b
 4377 16d7 E1090000 		.4byte	.LASF386
 4378 16db 05       		.byte	0x5
 4379 16dc 13       		.byte	0x13
 4380 16dd 2E120000 		.4byte	0x122e
 4381 16e1 05       		.uleb128 0x5
 4382 16e2 03       		.byte	0x3
 4383 16e3 00000000 		.4byte	offsetLabel
ARM GAS  C:\Users\chris\AppData\Local\Temp\cctP47hK.s 			page 97


 4384 16e7 2B       		.uleb128 0x2b
 4385 16e8 20090000 		.4byte	.LASF387
 4386 16ec 05       		.byte	0x5
 4387 16ed 14       		.byte	0x14
 4388 16ee 2E120000 		.4byte	0x122e
 4389 16f2 05       		.uleb128 0x5
 4390 16f3 03       		.byte	0x3
 4391 16f4 04000000 		.4byte	triggerLabel
 4392 16f8 2B       		.uleb128 0x2b
 4393 16f9 C40E0000 		.4byte	.LASF388
 4394 16fd 05       		.byte	0x5
 4395 16fe 15       		.byte	0x15
 4396 16ff 2E120000 		.4byte	0x122e
 4397 1703 05       		.uleb128 0x5
 4398 1704 03       		.byte	0x3
 4399 1705 08000000 		.4byte	horiLabel1
 4400 1709 2B       		.uleb128 0x2b
 4401 170a FA030000 		.4byte	.LASF389
 4402 170e 05       		.byte	0x5
 4403 170f 16       		.byte	0x16
 4404 1710 2E120000 		.4byte	0x122e
 4405 1714 05       		.uleb128 0x5
 4406 1715 03       		.byte	0x3
 4407 1716 0C000000 		.4byte	vertLabel1
 4408 171a 2B       		.uleb128 0x2b
 4409 171b 82000000 		.4byte	.LASF390
 4410 171f 05       		.byte	0x5
 4411 1720 17       		.byte	0x17
 4412 1721 2E120000 		.4byte	0x122e
 4413 1725 05       		.uleb128 0x5
 4414 1726 03       		.byte	0x3
 4415 1727 10000000 		.4byte	windowLabel
 4416 172b 2D       		.uleb128 0x2d
 4417 172c CE0F0000 		.4byte	.LASF391
 4418 1730 19       		.byte	0x19
 4419 1731 F907     		.2byte	0x7f9
 4420 1733 37170000 		.4byte	0x1737
 4421 1737 06       		.uleb128 0x6
 4422 1738 F0000000 		.4byte	0xf0
 4423 173c 2E       		.uleb128 0x2e
 4424 173d 8E000000 		.4byte	.LASF392
 4425 1741 08       		.byte	0x8
 4426 1742 A7       		.byte	0xa7
 4427 1743 47170000 		.4byte	0x1747
 4428 1747 0C       		.uleb128 0xc
 4429 1748 04       		.byte	0x4
 4430 1749 4D170000 		.4byte	0x174d
 4431 174d 1C       		.uleb128 0x1c
 4432 174e 1C050000 		.4byte	0x51c
 4433 1752 2E       		.uleb128 0x2e
 4434 1753 44000000 		.4byte	.LASF393
 4435 1757 1A       		.byte	0x1a
 4436 1758 1F       		.byte	0x1f
 4437 1759 5D170000 		.4byte	0x175d
 4438 175d 1C       		.uleb128 0x1c
 4439 175e 62080000 		.4byte	0x862
 4440 1762 2E       		.uleb128 0x2e
ARM GAS  C:\Users\chris\AppData\Local\Temp\cctP47hK.s 			page 98


 4441 1763 98000000 		.4byte	.LASF394
 4442 1767 1B       		.byte	0x1b
 4443 1768 7F       		.byte	0x7f
 4444 1769 CA060000 		.4byte	0x6ca
 4445 176d 2E       		.uleb128 0x2e
 4446 176e AF090000 		.4byte	.LASF395
 4447 1772 1C       		.byte	0x1c
 4448 1773 5E       		.byte	0x5e
 4449 1774 65070000 		.4byte	0x765
 4450 1778 2F       		.uleb128 0x2f
 4451 1779 636D3400 		.ascii	"cm4\000"
 4452 177d 0C       		.byte	0xc
 4453 177e 25       		.byte	0x25
 4454 177f 6D080000 		.4byte	0x86d
 4455 1783 05       		.uleb128 0x5
 4456 1784 03       		.byte	0x3
 4457 1785 00000000 		.4byte	cm4
 4458 1789 16       		.uleb128 0x16
 4459 178a FC0C0000 		.4byte	0xcfc
 4460 178e 99170000 		.4byte	0x1799
 4461 1792 17       		.uleb128 0x17
 4462 1793 B6000000 		.4byte	0xb6
 4463 1797 02       		.byte	0x2
 4464 1798 00       		.byte	0
 4465 1799 30       		.uleb128 0x30
 4466 179a 09130000 		.4byte	.LASF396
 4467 179e 05       		.byte	0x5
 4468 179f 0E       		.byte	0xe
 4469 17a0 AA170000 		.4byte	0x17aa
 4470 17a4 05       		.uleb128 0x5
 4471 17a5 03       		.byte	0x3
 4472 17a6 00000000 		.4byte	tcnj_blue
 4473 17aa 1C       		.uleb128 0x1c
 4474 17ab 89170000 		.4byte	0x1789
 4475 17af 30       		.uleb128 0x30
 4476 17b0 CC070000 		.4byte	.LASF397
 4477 17b4 05       		.byte	0x5
 4478 17b5 0F       		.byte	0xf
 4479 17b6 C0170000 		.4byte	0x17c0
 4480 17ba 05       		.uleb128 0x5
 4481 17bb 03       		.byte	0x3
 4482 17bc 00000000 		.4byte	tcnj_gold
 4483 17c0 1C       		.uleb128 0x1c
 4484 17c1 89170000 		.4byte	0x1789
 4485 17c5 16       		.uleb128 0x16
 4486 17c6 BD000000 		.4byte	0xbd
 4487 17ca D5170000 		.4byte	0x17d5
 4488 17ce 17       		.uleb128 0x17
 4489 17cf B6000000 		.4byte	0xb6
 4490 17d3 02       		.byte	0x2
 4491 17d4 00       		.byte	0
 4492 17d5 30       		.uleb128 0x30
 4493 17d6 27120000 		.4byte	.LASF398
 4494 17da 05       		.byte	0x5
 4495 17db 11       		.byte	0x11
 4496 17dc C5170000 		.4byte	0x17c5
 4497 17e0 05       		.uleb128 0x5
ARM GAS  C:\Users\chris\AppData\Local\Temp\cctP47hK.s 			page 99


 4498 17e1 03       		.byte	0x3
 4499 17e2 00000000 		.4byte	offset_str
 4500 17e6 30       		.uleb128 0x30
 4501 17e7 21050000 		.4byte	.LASF399
 4502 17eb 05       		.byte	0x5
 4503 17ec 19       		.byte	0x19
 4504 17ed CF000000 		.4byte	0xcf
 4505 17f1 05       		.uleb128 0x5
 4506 17f2 03       		.byte	0x3
 4507 17f3 00000000 		.4byte	zeros
 4508 17f7 00       		.byte	0
 4509              		.section	.debug_abbrev,"",%progbits
 4510              	.Ldebug_abbrev0:
 4511 0000 01       		.uleb128 0x1
 4512 0001 11       		.uleb128 0x11
 4513 0002 01       		.byte	0x1
 4514 0003 25       		.uleb128 0x25
 4515 0004 0E       		.uleb128 0xe
 4516 0005 13       		.uleb128 0x13
 4517 0006 0B       		.uleb128 0xb
 4518 0007 03       		.uleb128 0x3
 4519 0008 0E       		.uleb128 0xe
 4520 0009 1B       		.uleb128 0x1b
 4521 000a 0E       		.uleb128 0xe
 4522 000b 55       		.uleb128 0x55
 4523 000c 17       		.uleb128 0x17
 4524 000d 11       		.uleb128 0x11
 4525 000e 01       		.uleb128 0x1
 4526 000f 10       		.uleb128 0x10
 4527 0010 17       		.uleb128 0x17
 4528 0011 00       		.byte	0
 4529 0012 00       		.byte	0
 4530 0013 02       		.uleb128 0x2
 4531 0014 16       		.uleb128 0x16
 4532 0015 00       		.byte	0
 4533 0016 03       		.uleb128 0x3
 4534 0017 0E       		.uleb128 0xe
 4535 0018 3A       		.uleb128 0x3a
 4536 0019 0B       		.uleb128 0xb
 4537 001a 3B       		.uleb128 0x3b
 4538 001b 0B       		.uleb128 0xb
 4539 001c 49       		.uleb128 0x49
 4540 001d 13       		.uleb128 0x13
 4541 001e 00       		.byte	0
 4542 001f 00       		.byte	0
 4543 0020 03       		.uleb128 0x3
 4544 0021 24       		.uleb128 0x24
 4545 0022 00       		.byte	0
 4546 0023 0B       		.uleb128 0xb
 4547 0024 0B       		.uleb128 0xb
 4548 0025 3E       		.uleb128 0x3e
 4549 0026 0B       		.uleb128 0xb
 4550 0027 03       		.uleb128 0x3
 4551 0028 0E       		.uleb128 0xe
 4552 0029 00       		.byte	0
 4553 002a 00       		.byte	0
 4554 002b 04       		.uleb128 0x4
ARM GAS  C:\Users\chris\AppData\Local\Temp\cctP47hK.s 			page 100


 4555 002c 24       		.uleb128 0x24
 4556 002d 00       		.byte	0
 4557 002e 0B       		.uleb128 0xb
 4558 002f 0B       		.uleb128 0xb
 4559 0030 3E       		.uleb128 0x3e
 4560 0031 0B       		.uleb128 0xb
 4561 0032 03       		.uleb128 0x3
 4562 0033 08       		.uleb128 0x8
 4563 0034 00       		.byte	0
 4564 0035 00       		.byte	0
 4565 0036 05       		.uleb128 0x5
 4566 0037 0F       		.uleb128 0xf
 4567 0038 00       		.byte	0
 4568 0039 0B       		.uleb128 0xb
 4569 003a 0B       		.uleb128 0xb
 4570 003b 00       		.byte	0
 4571 003c 00       		.byte	0
 4572 003d 06       		.uleb128 0x6
 4573 003e 35       		.uleb128 0x35
 4574 003f 00       		.byte	0
 4575 0040 49       		.uleb128 0x49
 4576 0041 13       		.uleb128 0x13
 4577 0042 00       		.byte	0
 4578 0043 00       		.byte	0
 4579 0044 07       		.uleb128 0x7
 4580 0045 13       		.uleb128 0x13
 4581 0046 01       		.byte	0x1
 4582 0047 0B       		.uleb128 0xb
 4583 0048 0B       		.uleb128 0xb
 4584 0049 3A       		.uleb128 0x3a
 4585 004a 0B       		.uleb128 0xb
 4586 004b 3B       		.uleb128 0x3b
 4587 004c 0B       		.uleb128 0xb
 4588 004d 01       		.uleb128 0x1
 4589 004e 13       		.uleb128 0x13
 4590 004f 00       		.byte	0
 4591 0050 00       		.byte	0
 4592 0051 08       		.uleb128 0x8
 4593 0052 0D       		.uleb128 0xd
 4594 0053 00       		.byte	0
 4595 0054 03       		.uleb128 0x3
 4596 0055 0E       		.uleb128 0xe
 4597 0056 3A       		.uleb128 0x3a
 4598 0057 0B       		.uleb128 0xb
 4599 0058 3B       		.uleb128 0x3b
 4600 0059 0B       		.uleb128 0xb
 4601 005a 49       		.uleb128 0x49
 4602 005b 13       		.uleb128 0x13
 4603 005c 38       		.uleb128 0x38
 4604 005d 0B       		.uleb128 0xb
 4605 005e 00       		.byte	0
 4606 005f 00       		.byte	0
 4607 0060 09       		.uleb128 0x9
 4608 0061 04       		.uleb128 0x4
 4609 0062 01       		.byte	0x1
 4610 0063 0B       		.uleb128 0xb
 4611 0064 0B       		.uleb128 0xb
ARM GAS  C:\Users\chris\AppData\Local\Temp\cctP47hK.s 			page 101


 4612 0065 49       		.uleb128 0x49
 4613 0066 13       		.uleb128 0x13
 4614 0067 3A       		.uleb128 0x3a
 4615 0068 0B       		.uleb128 0xb
 4616 0069 3B       		.uleb128 0x3b
 4617 006a 05       		.uleb128 0x5
 4618 006b 01       		.uleb128 0x1
 4619 006c 13       		.uleb128 0x13
 4620 006d 00       		.byte	0
 4621 006e 00       		.byte	0
 4622 006f 0A       		.uleb128 0xa
 4623 0070 28       		.uleb128 0x28
 4624 0071 00       		.byte	0
 4625 0072 03       		.uleb128 0x3
 4626 0073 0E       		.uleb128 0xe
 4627 0074 1C       		.uleb128 0x1c
 4628 0075 0B       		.uleb128 0xb
 4629 0076 00       		.byte	0
 4630 0077 00       		.byte	0
 4631 0078 0B       		.uleb128 0xb
 4632 0079 16       		.uleb128 0x16
 4633 007a 00       		.byte	0
 4634 007b 03       		.uleb128 0x3
 4635 007c 0E       		.uleb128 0xe
 4636 007d 3A       		.uleb128 0x3a
 4637 007e 0B       		.uleb128 0xb
 4638 007f 3B       		.uleb128 0x3b
 4639 0080 05       		.uleb128 0x5
 4640 0081 49       		.uleb128 0x49
 4641 0082 13       		.uleb128 0x13
 4642 0083 00       		.byte	0
 4643 0084 00       		.byte	0
 4644 0085 0C       		.uleb128 0xc
 4645 0086 0F       		.uleb128 0xf
 4646 0087 00       		.byte	0
 4647 0088 0B       		.uleb128 0xb
 4648 0089 0B       		.uleb128 0xb
 4649 008a 49       		.uleb128 0x49
 4650 008b 13       		.uleb128 0x13
 4651 008c 00       		.byte	0
 4652 008d 00       		.byte	0
 4653 008e 0D       		.uleb128 0xd
 4654 008f 15       		.uleb128 0x15
 4655 0090 01       		.byte	0x1
 4656 0091 27       		.uleb128 0x27
 4657 0092 19       		.uleb128 0x19
 4658 0093 01       		.uleb128 0x1
 4659 0094 13       		.uleb128 0x13
 4660 0095 00       		.byte	0
 4661 0096 00       		.byte	0
 4662 0097 0E       		.uleb128 0xe
 4663 0098 05       		.uleb128 0x5
 4664 0099 00       		.byte	0
 4665 009a 49       		.uleb128 0x49
 4666 009b 13       		.uleb128 0x13
 4667 009c 00       		.byte	0
 4668 009d 00       		.byte	0
ARM GAS  C:\Users\chris\AppData\Local\Temp\cctP47hK.s 			page 102


 4669 009e 0F       		.uleb128 0xf
 4670 009f 15       		.uleb128 0x15
 4671 00a0 01       		.byte	0x1
 4672 00a1 27       		.uleb128 0x27
 4673 00a2 19       		.uleb128 0x19
 4674 00a3 49       		.uleb128 0x49
 4675 00a4 13       		.uleb128 0x13
 4676 00a5 01       		.uleb128 0x1
 4677 00a6 13       		.uleb128 0x13
 4678 00a7 00       		.byte	0
 4679 00a8 00       		.byte	0
 4680 00a9 10       		.uleb128 0x10
 4681 00aa 13       		.uleb128 0x13
 4682 00ab 01       		.byte	0x1
 4683 00ac 03       		.uleb128 0x3
 4684 00ad 0E       		.uleb128 0xe
 4685 00ae 0B       		.uleb128 0xb
 4686 00af 0B       		.uleb128 0xb
 4687 00b0 3A       		.uleb128 0x3a
 4688 00b1 0B       		.uleb128 0xb
 4689 00b2 3B       		.uleb128 0x3b
 4690 00b3 05       		.uleb128 0x5
 4691 00b4 01       		.uleb128 0x1
 4692 00b5 13       		.uleb128 0x13
 4693 00b6 00       		.byte	0
 4694 00b7 00       		.byte	0
 4695 00b8 11       		.uleb128 0x11
 4696 00b9 0D       		.uleb128 0xd
 4697 00ba 00       		.byte	0
 4698 00bb 03       		.uleb128 0x3
 4699 00bc 0E       		.uleb128 0xe
 4700 00bd 3A       		.uleb128 0x3a
 4701 00be 0B       		.uleb128 0xb
 4702 00bf 3B       		.uleb128 0x3b
 4703 00c0 05       		.uleb128 0x5
 4704 00c1 49       		.uleb128 0x49
 4705 00c2 13       		.uleb128 0x13
 4706 00c3 38       		.uleb128 0x38
 4707 00c4 0B       		.uleb128 0xb
 4708 00c5 00       		.byte	0
 4709 00c6 00       		.byte	0
 4710 00c7 12       		.uleb128 0x12
 4711 00c8 13       		.uleb128 0x13
 4712 00c9 01       		.byte	0x1
 4713 00ca 03       		.uleb128 0x3
 4714 00cb 0E       		.uleb128 0xe
 4715 00cc 0B       		.uleb128 0xb
 4716 00cd 0B       		.uleb128 0xb
 4717 00ce 3A       		.uleb128 0x3a
 4718 00cf 0B       		.uleb128 0xb
 4719 00d0 3B       		.uleb128 0x3b
 4720 00d1 0B       		.uleb128 0xb
 4721 00d2 01       		.uleb128 0x1
 4722 00d3 13       		.uleb128 0x13
 4723 00d4 00       		.byte	0
 4724 00d5 00       		.byte	0
 4725 00d6 13       		.uleb128 0x13
ARM GAS  C:\Users\chris\AppData\Local\Temp\cctP47hK.s 			page 103


 4726 00d7 13       		.uleb128 0x13
 4727 00d8 01       		.byte	0x1
 4728 00d9 03       		.uleb128 0x3
 4729 00da 0E       		.uleb128 0xe
 4730 00db 0B       		.uleb128 0xb
 4731 00dc 05       		.uleb128 0x5
 4732 00dd 3A       		.uleb128 0x3a
 4733 00de 0B       		.uleb128 0xb
 4734 00df 3B       		.uleb128 0x3b
 4735 00e0 0B       		.uleb128 0xb
 4736 00e1 01       		.uleb128 0x1
 4737 00e2 13       		.uleb128 0x13
 4738 00e3 00       		.byte	0
 4739 00e4 00       		.byte	0
 4740 00e5 14       		.uleb128 0x14
 4741 00e6 0D       		.uleb128 0xd
 4742 00e7 00       		.byte	0
 4743 00e8 03       		.uleb128 0x3
 4744 00e9 08       		.uleb128 0x8
 4745 00ea 3A       		.uleb128 0x3a
 4746 00eb 0B       		.uleb128 0xb
 4747 00ec 3B       		.uleb128 0x3b
 4748 00ed 0B       		.uleb128 0xb
 4749 00ee 49       		.uleb128 0x49
 4750 00ef 13       		.uleb128 0x13
 4751 00f0 38       		.uleb128 0x38
 4752 00f1 0B       		.uleb128 0xb
 4753 00f2 00       		.byte	0
 4754 00f3 00       		.byte	0
 4755 00f4 15       		.uleb128 0x15
 4756 00f5 0D       		.uleb128 0xd
 4757 00f6 00       		.byte	0
 4758 00f7 03       		.uleb128 0x3
 4759 00f8 0E       		.uleb128 0xe
 4760 00f9 3A       		.uleb128 0x3a
 4761 00fa 0B       		.uleb128 0xb
 4762 00fb 3B       		.uleb128 0x3b
 4763 00fc 0B       		.uleb128 0xb
 4764 00fd 49       		.uleb128 0x49
 4765 00fe 13       		.uleb128 0x13
 4766 00ff 38       		.uleb128 0x38
 4767 0100 05       		.uleb128 0x5
 4768 0101 00       		.byte	0
 4769 0102 00       		.byte	0
 4770 0103 16       		.uleb128 0x16
 4771 0104 01       		.uleb128 0x1
 4772 0105 01       		.byte	0x1
 4773 0106 49       		.uleb128 0x49
 4774 0107 13       		.uleb128 0x13
 4775 0108 01       		.uleb128 0x1
 4776 0109 13       		.uleb128 0x13
 4777 010a 00       		.byte	0
 4778 010b 00       		.byte	0
 4779 010c 17       		.uleb128 0x17
 4780 010d 21       		.uleb128 0x21
 4781 010e 00       		.byte	0
 4782 010f 49       		.uleb128 0x49
ARM GAS  C:\Users\chris\AppData\Local\Temp\cctP47hK.s 			page 104


 4783 0110 13       		.uleb128 0x13
 4784 0111 2F       		.uleb128 0x2f
 4785 0112 0B       		.uleb128 0xb
 4786 0113 00       		.byte	0
 4787 0114 00       		.byte	0
 4788 0115 18       		.uleb128 0x18
 4789 0116 21       		.uleb128 0x21
 4790 0117 00       		.byte	0
 4791 0118 49       		.uleb128 0x49
 4792 0119 13       		.uleb128 0x13
 4793 011a 2F       		.uleb128 0x2f
 4794 011b 05       		.uleb128 0x5
 4795 011c 00       		.byte	0
 4796 011d 00       		.byte	0
 4797 011e 19       		.uleb128 0x19
 4798 011f 17       		.uleb128 0x17
 4799 0120 01       		.byte	0x1
 4800 0121 0B       		.uleb128 0xb
 4801 0122 0B       		.uleb128 0xb
 4802 0123 3A       		.uleb128 0x3a
 4803 0124 0B       		.uleb128 0xb
 4804 0125 3B       		.uleb128 0x3b
 4805 0126 0B       		.uleb128 0xb
 4806 0127 01       		.uleb128 0x1
 4807 0128 13       		.uleb128 0x13
 4808 0129 00       		.byte	0
 4809 012a 00       		.byte	0
 4810 012b 1A       		.uleb128 0x1a
 4811 012c 0D       		.uleb128 0xd
 4812 012d 00       		.byte	0
 4813 012e 03       		.uleb128 0x3
 4814 012f 08       		.uleb128 0x8
 4815 0130 3A       		.uleb128 0x3a
 4816 0131 0B       		.uleb128 0xb
 4817 0132 3B       		.uleb128 0x3b
 4818 0133 0B       		.uleb128 0xb
 4819 0134 49       		.uleb128 0x49
 4820 0135 13       		.uleb128 0x13
 4821 0136 00       		.byte	0
 4822 0137 00       		.byte	0
 4823 0138 1B       		.uleb128 0x1b
 4824 0139 0D       		.uleb128 0xd
 4825 013a 00       		.byte	0
 4826 013b 03       		.uleb128 0x3
 4827 013c 0E       		.uleb128 0xe
 4828 013d 3A       		.uleb128 0x3a
 4829 013e 0B       		.uleb128 0xb
 4830 013f 3B       		.uleb128 0x3b
 4831 0140 0B       		.uleb128 0xb
 4832 0141 49       		.uleb128 0x49
 4833 0142 13       		.uleb128 0x13
 4834 0143 00       		.byte	0
 4835 0144 00       		.byte	0
 4836 0145 1C       		.uleb128 0x1c
 4837 0146 26       		.uleb128 0x26
 4838 0147 00       		.byte	0
 4839 0148 49       		.uleb128 0x49
ARM GAS  C:\Users\chris\AppData\Local\Temp\cctP47hK.s 			page 105


 4840 0149 13       		.uleb128 0x13
 4841 014a 00       		.byte	0
 4842 014b 00       		.byte	0
 4843 014c 1D       		.uleb128 0x1d
 4844 014d 0D       		.uleb128 0xd
 4845 014e 00       		.byte	0
 4846 014f 03       		.uleb128 0x3
 4847 0150 0E       		.uleb128 0xe
 4848 0151 3A       		.uleb128 0x3a
 4849 0152 0B       		.uleb128 0xb
 4850 0153 3B       		.uleb128 0x3b
 4851 0154 0B       		.uleb128 0xb
 4852 0155 49       		.uleb128 0x49
 4853 0156 13       		.uleb128 0x13
 4854 0157 0B       		.uleb128 0xb
 4855 0158 0B       		.uleb128 0xb
 4856 0159 0D       		.uleb128 0xd
 4857 015a 0B       		.uleb128 0xb
 4858 015b 0C       		.uleb128 0xc
 4859 015c 0B       		.uleb128 0xb
 4860 015d 38       		.uleb128 0x38
 4861 015e 0B       		.uleb128 0xb
 4862 015f 00       		.byte	0
 4863 0160 00       		.byte	0
 4864 0161 1E       		.uleb128 0x1e
 4865 0162 0D       		.uleb128 0xd
 4866 0163 00       		.byte	0
 4867 0164 03       		.uleb128 0x3
 4868 0165 08       		.uleb128 0x8
 4869 0166 3A       		.uleb128 0x3a
 4870 0167 0B       		.uleb128 0xb
 4871 0168 3B       		.uleb128 0x3b
 4872 0169 0B       		.uleb128 0xb
 4873 016a 49       		.uleb128 0x49
 4874 016b 13       		.uleb128 0x13
 4875 016c 0B       		.uleb128 0xb
 4876 016d 0B       		.uleb128 0xb
 4877 016e 0D       		.uleb128 0xd
 4878 016f 0B       		.uleb128 0xb
 4879 0170 0C       		.uleb128 0xc
 4880 0171 0B       		.uleb128 0xb
 4881 0172 38       		.uleb128 0x38
 4882 0173 0B       		.uleb128 0xb
 4883 0174 00       		.byte	0
 4884 0175 00       		.byte	0
 4885 0176 1F       		.uleb128 0x1f
 4886 0177 04       		.uleb128 0x4
 4887 0178 01       		.byte	0x1
 4888 0179 0B       		.uleb128 0xb
 4889 017a 0B       		.uleb128 0xb
 4890 017b 49       		.uleb128 0x49
 4891 017c 13       		.uleb128 0x13
 4892 017d 3A       		.uleb128 0x3a
 4893 017e 0B       		.uleb128 0xb
 4894 017f 3B       		.uleb128 0x3b
 4895 0180 0B       		.uleb128 0xb
 4896 0181 01       		.uleb128 0x1
ARM GAS  C:\Users\chris\AppData\Local\Temp\cctP47hK.s 			page 106


 4897 0182 13       		.uleb128 0x13
 4898 0183 00       		.byte	0
 4899 0184 00       		.byte	0
 4900 0185 20       		.uleb128 0x20
 4901 0186 2E       		.uleb128 0x2e
 4902 0187 01       		.byte	0x1
 4903 0188 03       		.uleb128 0x3
 4904 0189 0E       		.uleb128 0xe
 4905 018a 3A       		.uleb128 0x3a
 4906 018b 0B       		.uleb128 0xb
 4907 018c 3B       		.uleb128 0x3b
 4908 018d 05       		.uleb128 0x5
 4909 018e 27       		.uleb128 0x27
 4910 018f 19       		.uleb128 0x19
 4911 0190 49       		.uleb128 0x49
 4912 0191 13       		.uleb128 0x13
 4913 0192 11       		.uleb128 0x11
 4914 0193 01       		.uleb128 0x1
 4915 0194 12       		.uleb128 0x12
 4916 0195 06       		.uleb128 0x6
 4917 0196 40       		.uleb128 0x40
 4918 0197 18       		.uleb128 0x18
 4919 0198 9742     		.uleb128 0x2117
 4920 019a 19       		.uleb128 0x19
 4921 019b 01       		.uleb128 0x1
 4922 019c 13       		.uleb128 0x13
 4923 019d 00       		.byte	0
 4924 019e 00       		.byte	0
 4925 019f 21       		.uleb128 0x21
 4926 01a0 05       		.uleb128 0x5
 4927 01a1 00       		.byte	0
 4928 01a2 03       		.uleb128 0x3
 4929 01a3 08       		.uleb128 0x8
 4930 01a4 3A       		.uleb128 0x3a
 4931 01a5 0B       		.uleb128 0xb
 4932 01a6 3B       		.uleb128 0x3b
 4933 01a7 05       		.uleb128 0x5
 4934 01a8 49       		.uleb128 0x49
 4935 01a9 13       		.uleb128 0x13
 4936 01aa 02       		.uleb128 0x2
 4937 01ab 18       		.uleb128 0x18
 4938 01ac 00       		.byte	0
 4939 01ad 00       		.byte	0
 4940 01ae 22       		.uleb128 0x22
 4941 01af 2E       		.uleb128 0x2e
 4942 01b0 01       		.byte	0x1
 4943 01b1 03       		.uleb128 0x3
 4944 01b2 0E       		.uleb128 0xe
 4945 01b3 3A       		.uleb128 0x3a
 4946 01b4 0B       		.uleb128 0xb
 4947 01b5 3B       		.uleb128 0x3b
 4948 01b6 05       		.uleb128 0x5
 4949 01b7 27       		.uleb128 0x27
 4950 01b8 19       		.uleb128 0x19
 4951 01b9 49       		.uleb128 0x49
 4952 01ba 13       		.uleb128 0x13
 4953 01bb 11       		.uleb128 0x11
ARM GAS  C:\Users\chris\AppData\Local\Temp\cctP47hK.s 			page 107


 4954 01bc 01       		.uleb128 0x1
 4955 01bd 12       		.uleb128 0x12
 4956 01be 06       		.uleb128 0x6
 4957 01bf 40       		.uleb128 0x40
 4958 01c0 18       		.uleb128 0x18
 4959 01c1 9642     		.uleb128 0x2116
 4960 01c3 19       		.uleb128 0x19
 4961 01c4 01       		.uleb128 0x1
 4962 01c5 13       		.uleb128 0x13
 4963 01c6 00       		.byte	0
 4964 01c7 00       		.byte	0
 4965 01c8 23       		.uleb128 0x23
 4966 01c9 2E       		.uleb128 0x2e
 4967 01ca 00       		.byte	0
 4968 01cb 03       		.uleb128 0x3
 4969 01cc 0E       		.uleb128 0xe
 4970 01cd 3A       		.uleb128 0x3a
 4971 01ce 0B       		.uleb128 0xb
 4972 01cf 3B       		.uleb128 0x3b
 4973 01d0 0B       		.uleb128 0xb
 4974 01d1 27       		.uleb128 0x27
 4975 01d2 19       		.uleb128 0x19
 4976 01d3 49       		.uleb128 0x49
 4977 01d4 13       		.uleb128 0x13
 4978 01d5 11       		.uleb128 0x11
 4979 01d6 01       		.uleb128 0x1
 4980 01d7 12       		.uleb128 0x12
 4981 01d8 06       		.uleb128 0x6
 4982 01d9 40       		.uleb128 0x40
 4983 01da 18       		.uleb128 0x18
 4984 01db 9642     		.uleb128 0x2116
 4985 01dd 19       		.uleb128 0x19
 4986 01de 00       		.byte	0
 4987 01df 00       		.byte	0
 4988 01e0 24       		.uleb128 0x24
 4989 01e1 2E       		.uleb128 0x2e
 4990 01e2 01       		.byte	0x1
 4991 01e3 03       		.uleb128 0x3
 4992 01e4 0E       		.uleb128 0xe
 4993 01e5 3A       		.uleb128 0x3a
 4994 01e6 0B       		.uleb128 0xb
 4995 01e7 3B       		.uleb128 0x3b
 4996 01e8 0B       		.uleb128 0xb
 4997 01e9 27       		.uleb128 0x27
 4998 01ea 19       		.uleb128 0x19
 4999 01eb 11       		.uleb128 0x11
 5000 01ec 01       		.uleb128 0x1
 5001 01ed 12       		.uleb128 0x12
 5002 01ee 06       		.uleb128 0x6
 5003 01ef 40       		.uleb128 0x40
 5004 01f0 18       		.uleb128 0x18
 5005 01f1 9642     		.uleb128 0x2116
 5006 01f3 19       		.uleb128 0x19
 5007 01f4 01       		.uleb128 0x1
 5008 01f5 13       		.uleb128 0x13
 5009 01f6 00       		.byte	0
 5010 01f7 00       		.byte	0
ARM GAS  C:\Users\chris\AppData\Local\Temp\cctP47hK.s 			page 108


 5011 01f8 25       		.uleb128 0x25
 5012 01f9 05       		.uleb128 0x5
 5013 01fa 00       		.byte	0
 5014 01fb 03       		.uleb128 0x3
 5015 01fc 0E       		.uleb128 0xe
 5016 01fd 3A       		.uleb128 0x3a
 5017 01fe 0B       		.uleb128 0xb
 5018 01ff 3B       		.uleb128 0x3b
 5019 0200 0B       		.uleb128 0xb
 5020 0201 49       		.uleb128 0x49
 5021 0202 13       		.uleb128 0x13
 5022 0203 02       		.uleb128 0x2
 5023 0204 18       		.uleb128 0x18
 5024 0205 00       		.byte	0
 5025 0206 00       		.byte	0
 5026 0207 26       		.uleb128 0x26
 5027 0208 05       		.uleb128 0x5
 5028 0209 00       		.byte	0
 5029 020a 03       		.uleb128 0x3
 5030 020b 08       		.uleb128 0x8
 5031 020c 3A       		.uleb128 0x3a
 5032 020d 0B       		.uleb128 0xb
 5033 020e 3B       		.uleb128 0x3b
 5034 020f 0B       		.uleb128 0xb
 5035 0210 49       		.uleb128 0x49
 5036 0211 13       		.uleb128 0x13
 5037 0212 02       		.uleb128 0x2
 5038 0213 18       		.uleb128 0x18
 5039 0214 00       		.byte	0
 5040 0215 00       		.byte	0
 5041 0216 27       		.uleb128 0x27
 5042 0217 2E       		.uleb128 0x2e
 5043 0218 01       		.byte	0x1
 5044 0219 03       		.uleb128 0x3
 5045 021a 0E       		.uleb128 0xe
 5046 021b 3A       		.uleb128 0x3a
 5047 021c 0B       		.uleb128 0xb
 5048 021d 3B       		.uleb128 0x3b
 5049 021e 0B       		.uleb128 0xb
 5050 021f 27       		.uleb128 0x27
 5051 0220 19       		.uleb128 0x19
 5052 0221 49       		.uleb128 0x49
 5053 0222 13       		.uleb128 0x13
 5054 0223 11       		.uleb128 0x11
 5055 0224 01       		.uleb128 0x1
 5056 0225 12       		.uleb128 0x12
 5057 0226 06       		.uleb128 0x6
 5058 0227 40       		.uleb128 0x40
 5059 0228 18       		.uleb128 0x18
 5060 0229 9642     		.uleb128 0x2116
 5061 022b 19       		.uleb128 0x19
 5062 022c 01       		.uleb128 0x1
 5063 022d 13       		.uleb128 0x13
 5064 022e 00       		.byte	0
 5065 022f 00       		.byte	0
 5066 0230 28       		.uleb128 0x28
 5067 0231 0B       		.uleb128 0xb
ARM GAS  C:\Users\chris\AppData\Local\Temp\cctP47hK.s 			page 109


 5068 0232 01       		.byte	0x1
 5069 0233 11       		.uleb128 0x11
 5070 0234 01       		.uleb128 0x1
 5071 0235 12       		.uleb128 0x12
 5072 0236 06       		.uleb128 0x6
 5073 0237 00       		.byte	0
 5074 0238 00       		.byte	0
 5075 0239 29       		.uleb128 0x29
 5076 023a 34       		.uleb128 0x34
 5077 023b 00       		.byte	0
 5078 023c 03       		.uleb128 0x3
 5079 023d 08       		.uleb128 0x8
 5080 023e 3A       		.uleb128 0x3a
 5081 023f 0B       		.uleb128 0xb
 5082 0240 3B       		.uleb128 0x3b
 5083 0241 0B       		.uleb128 0xb
 5084 0242 49       		.uleb128 0x49
 5085 0243 13       		.uleb128 0x13
 5086 0244 02       		.uleb128 0x2
 5087 0245 18       		.uleb128 0x18
 5088 0246 00       		.byte	0
 5089 0247 00       		.byte	0
 5090 0248 2A       		.uleb128 0x2a
 5091 0249 2E       		.uleb128 0x2e
 5092 024a 01       		.byte	0x1
 5093 024b 3F       		.uleb128 0x3f
 5094 024c 19       		.uleb128 0x19
 5095 024d 03       		.uleb128 0x3
 5096 024e 0E       		.uleb128 0xe
 5097 024f 3A       		.uleb128 0x3a
 5098 0250 0B       		.uleb128 0xb
 5099 0251 3B       		.uleb128 0x3b
 5100 0252 0B       		.uleb128 0xb
 5101 0253 11       		.uleb128 0x11
 5102 0254 01       		.uleb128 0x1
 5103 0255 12       		.uleb128 0x12
 5104 0256 06       		.uleb128 0x6
 5105 0257 40       		.uleb128 0x40
 5106 0258 18       		.uleb128 0x18
 5107 0259 9642     		.uleb128 0x2116
 5108 025b 19       		.uleb128 0x19
 5109 025c 01       		.uleb128 0x1
 5110 025d 13       		.uleb128 0x13
 5111 025e 00       		.byte	0
 5112 025f 00       		.byte	0
 5113 0260 2B       		.uleb128 0x2b
 5114 0261 34       		.uleb128 0x34
 5115 0262 00       		.byte	0
 5116 0263 03       		.uleb128 0x3
 5117 0264 0E       		.uleb128 0xe
 5118 0265 3A       		.uleb128 0x3a
 5119 0266 0B       		.uleb128 0xb
 5120 0267 3B       		.uleb128 0x3b
 5121 0268 0B       		.uleb128 0xb
 5122 0269 49       		.uleb128 0x49
 5123 026a 13       		.uleb128 0x13
 5124 026b 02       		.uleb128 0x2
ARM GAS  C:\Users\chris\AppData\Local\Temp\cctP47hK.s 			page 110


 5125 026c 18       		.uleb128 0x18
 5126 026d 00       		.byte	0
 5127 026e 00       		.byte	0
 5128 026f 2C       		.uleb128 0x2c
 5129 0270 34       		.uleb128 0x34
 5130 0271 00       		.byte	0
 5131 0272 03       		.uleb128 0x3
 5132 0273 08       		.uleb128 0x8
 5133 0274 3A       		.uleb128 0x3a
 5134 0275 0B       		.uleb128 0xb
 5135 0276 3B       		.uleb128 0x3b
 5136 0277 05       		.uleb128 0x5
 5137 0278 49       		.uleb128 0x49
 5138 0279 13       		.uleb128 0x13
 5139 027a 02       		.uleb128 0x2
 5140 027b 18       		.uleb128 0x18
 5141 027c 00       		.byte	0
 5142 027d 00       		.byte	0
 5143 027e 2D       		.uleb128 0x2d
 5144 027f 34       		.uleb128 0x34
 5145 0280 00       		.byte	0
 5146 0281 03       		.uleb128 0x3
 5147 0282 0E       		.uleb128 0xe
 5148 0283 3A       		.uleb128 0x3a
 5149 0284 0B       		.uleb128 0xb
 5150 0285 3B       		.uleb128 0x3b
 5151 0286 05       		.uleb128 0x5
 5152 0287 49       		.uleb128 0x49
 5153 0288 13       		.uleb128 0x13
 5154 0289 3F       		.uleb128 0x3f
 5155 028a 19       		.uleb128 0x19
 5156 028b 3C       		.uleb128 0x3c
 5157 028c 19       		.uleb128 0x19
 5158 028d 00       		.byte	0
 5159 028e 00       		.byte	0
 5160 028f 2E       		.uleb128 0x2e
 5161 0290 34       		.uleb128 0x34
 5162 0291 00       		.byte	0
 5163 0292 03       		.uleb128 0x3
 5164 0293 0E       		.uleb128 0xe
 5165 0294 3A       		.uleb128 0x3a
 5166 0295 0B       		.uleb128 0xb
 5167 0296 3B       		.uleb128 0x3b
 5168 0297 0B       		.uleb128 0xb
 5169 0298 49       		.uleb128 0x49
 5170 0299 13       		.uleb128 0x13
 5171 029a 3F       		.uleb128 0x3f
 5172 029b 19       		.uleb128 0x19
 5173 029c 3C       		.uleb128 0x3c
 5174 029d 19       		.uleb128 0x19
 5175 029e 00       		.byte	0
 5176 029f 00       		.byte	0
 5177 02a0 2F       		.uleb128 0x2f
 5178 02a1 34       		.uleb128 0x34
 5179 02a2 00       		.byte	0
 5180 02a3 03       		.uleb128 0x3
 5181 02a4 08       		.uleb128 0x8
ARM GAS  C:\Users\chris\AppData\Local\Temp\cctP47hK.s 			page 111


 5182 02a5 3A       		.uleb128 0x3a
 5183 02a6 0B       		.uleb128 0xb
 5184 02a7 3B       		.uleb128 0x3b
 5185 02a8 0B       		.uleb128 0xb
 5186 02a9 49       		.uleb128 0x49
 5187 02aa 13       		.uleb128 0x13
 5188 02ab 3F       		.uleb128 0x3f
 5189 02ac 19       		.uleb128 0x19
 5190 02ad 02       		.uleb128 0x2
 5191 02ae 18       		.uleb128 0x18
 5192 02af 00       		.byte	0
 5193 02b0 00       		.byte	0
 5194 02b1 30       		.uleb128 0x30
 5195 02b2 34       		.uleb128 0x34
 5196 02b3 00       		.byte	0
 5197 02b4 03       		.uleb128 0x3
 5198 02b5 0E       		.uleb128 0xe
 5199 02b6 3A       		.uleb128 0x3a
 5200 02b7 0B       		.uleb128 0xb
 5201 02b8 3B       		.uleb128 0x3b
 5202 02b9 0B       		.uleb128 0xb
 5203 02ba 49       		.uleb128 0x49
 5204 02bb 13       		.uleb128 0x13
 5205 02bc 3F       		.uleb128 0x3f
 5206 02bd 19       		.uleb128 0x19
 5207 02be 02       		.uleb128 0x2
 5208 02bf 18       		.uleb128 0x18
 5209 02c0 00       		.byte	0
 5210 02c1 00       		.byte	0
 5211 02c2 00       		.byte	0
 5212              		.section	.debug_aranges,"",%progbits
 5213 0000 7C000000 		.4byte	0x7c
 5214 0004 0200     		.2byte	0x2
 5215 0006 00000000 		.4byte	.Ldebug_info0
 5216 000a 04       		.byte	0x4
 5217 000b 00       		.byte	0
 5218 000c 0000     		.2byte	0
 5219 000e 0000     		.2byte	0
 5220 0010 00000000 		.4byte	.LFB588
 5221 0014 38000000 		.4byte	.LFE588-.LFB588
 5222 0018 00000000 		.4byte	.LFB589
 5223 001c 28000000 		.4byte	.LFE589-.LFB589
 5224 0020 00000000 		.4byte	.LFB613
 5225 0024 16000000 		.4byte	.LFE613-.LFB613
 5226 0028 00000000 		.4byte	.LFB668
 5227 002c 26000000 		.4byte	.LFE668-.LFB668
 5228 0030 00000000 		.4byte	.LFB669
 5229 0034 28000000 		.4byte	.LFE669-.LFB669
 5230 0038 00000000 		.4byte	.LFB714
 5231 003c 22000000 		.4byte	.LFE714-.LFB714
 5232 0040 00000000 		.4byte	.LFB717
 5233 0044 40000000 		.4byte	.LFE717-.LFB717
 5234 0048 00000000 		.4byte	.LFB718
 5235 004c 58000000 		.4byte	.LFE718-.LFB718
 5236 0050 00000000 		.4byte	.LFB719
 5237 0054 58000000 		.4byte	.LFE719-.LFB719
 5238 0058 00000000 		.4byte	.LFB720
ARM GAS  C:\Users\chris\AppData\Local\Temp\cctP47hK.s 			page 112


 5239 005c 58000000 		.4byte	.LFE720-.LFB720
 5240 0060 00000000 		.4byte	.LFB721
 5241 0064 58000000 		.4byte	.LFE721-.LFB721
 5242 0068 00000000 		.4byte	.LFB722
 5243 006c 58000000 		.4byte	.LFE722-.LFB722
 5244 0070 00000000 		.4byte	.LFB723
 5245 0074 1C050000 		.4byte	.LFE723-.LFB723
 5246 0078 00000000 		.4byte	0
 5247 007c 00000000 		.4byte	0
 5248              		.section	.debug_ranges,"",%progbits
 5249              	.Ldebug_ranges0:
 5250 0000 00000000 		.4byte	.LFB588
 5251 0004 38000000 		.4byte	.LFE588
 5252 0008 00000000 		.4byte	.LFB589
 5253 000c 28000000 		.4byte	.LFE589
 5254 0010 00000000 		.4byte	.LFB613
 5255 0014 16000000 		.4byte	.LFE613
 5256 0018 00000000 		.4byte	.LFB668
 5257 001c 26000000 		.4byte	.LFE668
 5258 0020 00000000 		.4byte	.LFB669
 5259 0024 28000000 		.4byte	.LFE669
 5260 0028 00000000 		.4byte	.LFB714
 5261 002c 22000000 		.4byte	.LFE714
 5262 0030 00000000 		.4byte	.LFB717
 5263 0034 40000000 		.4byte	.LFE717
 5264 0038 00000000 		.4byte	.LFB718
 5265 003c 58000000 		.4byte	.LFE718
 5266 0040 00000000 		.4byte	.LFB719
 5267 0044 58000000 		.4byte	.LFE719
 5268 0048 00000000 		.4byte	.LFB720
 5269 004c 58000000 		.4byte	.LFE720
 5270 0050 00000000 		.4byte	.LFB721
 5271 0054 58000000 		.4byte	.LFE721
 5272 0058 00000000 		.4byte	.LFB722
 5273 005c 58000000 		.4byte	.LFE722
 5274 0060 00000000 		.4byte	.LFB723
 5275 0064 1C050000 		.4byte	.LFE723
 5276 0068 00000000 		.4byte	0
 5277 006c 00000000 		.4byte	0
 5278              		.section	.debug_line,"",%progbits
 5279              	.Ldebug_line0:
 5280 0000 48060000 		.section	.debug_str,"MS",%progbits,1
 5280      0200B104 
 5280      00000201 
 5280      FB0E0D00 
 5280      01010101 
 5281              	.LASF190:
 5282 0000 4761696E 		.ascii	"Gain\000"
 5282      00
 5283              	.LASF364:
 5284 0005 6F666673 		.ascii	"offset_slider_event_cb\000"
 5284      65745F73 
 5284      6C696465 
 5284      725F6576 
 5284      656E745F 
 5285              	.LASF209:
 5286 001c 5F6C765F 		.ascii	"_lv_obj_t\000"
ARM GAS  C:\Users\chris\AppData\Local\Temp\cctP47hK.s 			page 113


 5286      6F626A5F 
 5286      7400
 5287              	.LASF141:
 5288 0026 63795F63 		.ascii	"cy_cb_scb_spi_handle_events_t\000"
 5288      625F7363 
 5288      625F7370 
 5288      695F6861 
 5288      6E646C65 
 5289              	.LASF393:
 5290 0044 44495350 		.ascii	"DISP_TICK_TIMER_config\000"
 5290      5F544943 
 5290      4B5F5449 
 5290      4D45525F 
 5290      636F6E66 
 5291              	.LASF204:
 5292 005b 66756C6C 		.ascii	"full\000"
 5292      00
 5293              	.LASF169:
 5294 0060 73746F70 		.ascii	"stopInputMode\000"
 5294      496E7075 
 5294      744D6F64 
 5294      6500
 5295              	.LASF109:
 5296 006e 6970634C 		.ascii	"ipcLockStatusOffset\000"
 5296      6F636B53 
 5296      74617475 
 5296      734F6666 
 5296      73657400 
 5297              	.LASF390:
 5298 0082 77696E64 		.ascii	"windowLabel\000"
 5298      6F774C61 
 5298      62656C00 
 5299              	.LASF392:
 5300 008e 63795F64 		.ascii	"cy_device\000"
 5300      65766963 
 5300      6500
 5301              	.LASF394:
 5302 0098 4932435F 		.ascii	"I2C_MASTER_context\000"
 5302      4D415354 
 5302      45525F63 
 5302      6F6E7465 
 5302      787400
 5303              	.LASF375:
 5304 00ab 63686172 		.ascii	"chart1\000"
 5304      743100
 5305              	.LASF341:
 5306 00b2 4C565F4C 		.ascii	"LV_LABEL_LONG_DOT\000"
 5306      4142454C 
 5306      5F4C4F4E 
 5306      475F444F 
 5306      5400
 5307              	.LASF94:
 5308 00c4 63707573 		.ascii	"cpussCm0ClockCtlOffset\000"
 5308      73436D30 
 5308      436C6F63 
 5308      6B43746C 
 5308      4F666673 
ARM GAS  C:\Users\chris\AppData\Local\Temp\cctP47hK.s 			page 114


 5309              	.LASF53:
 5310 00db 70657269 		.ascii	"periClockNr\000"
 5310      436C6F63 
 5310      6B4E7200 
 5311              	.LASF122:
 5312 00e7 6D617374 		.ascii	"masterStatus\000"
 5312      65725374 
 5312      61747573 
 5312      00
 5313              	.LASF189:
 5314 00f4 56657274 		.ascii	"VertScale\000"
 5314      5363616C 
 5314      6500
 5315              	.LASF27:
 5316 00fe 75646242 		.ascii	"udbBase\000"
 5316      61736500 
 5317              	.LASF292:
 5318 0106 4C565F45 		.ascii	"LV_EVENT_VALUE_CHANGED\000"
 5318      56454E54 
 5318      5F56414C 
 5318      55455F43 
 5318      48414E47 
 5319              	.LASF26:
 5320 011d 70657269 		.ascii	"periBase\000"
 5320      42617365 
 5320      00
 5321              	.LASF178:
 5322 0126 56657273 		.ascii	"VersionID\000"
 5322      696F6E49 
 5322      4400
 5323              	.LASF366:
 5324 0130 686F7269 		.ascii	"hori_slider_event_cb\000"
 5324      5F736C69 
 5324      6465725F 
 5324      6576656E 
 5324      745F6362 
 5325              	.LASF294:
 5326 0145 4C565F45 		.ascii	"LV_EVENT_REFRESH\000"
 5326      56454E54 
 5326      5F524546 
 5326      52455348 
 5326      00
 5327              	.LASF225:
 5328 0156 62617365 		.ascii	"base_dir\000"
 5328      5F646972 
 5328      00
 5329              	.LASF223:
 5330 015f 70617265 		.ascii	"parent_event\000"
 5330      6E745F65 
 5330      76656E74 
 5330      00
 5331              	.LASF72:
 5332 016c 64774368 		.ascii	"dwChSize\000"
 5332      53697A65 
 5332      00
 5333              	.LASF191:
 5334 0175 54784275 		.ascii	"TxBuffer\000"
ARM GAS  C:\Users\chris\AppData\Local\Temp\cctP47hK.s 			page 115


 5334      66666572 
 5334      00
 5335              	.LASF302:
 5336 017e 4C565F41 		.ascii	"LV_ALIGN_CENTER\000"
 5336      4C49474E 
 5336      5F43454E 
 5336      54455200 
 5337              	.LASF219:
 5338 018e 64726167 		.ascii	"drag_throw\000"
 5338      5F746872 
 5338      6F7700
 5339              	.LASF14:
 5340 0199 756E7369 		.ascii	"unsigned int\000"
 5340      676E6564 
 5340      20696E74 
 5340      00
 5341              	.LASF234:
 5342 01a6 6F66735F 		.ascii	"ofs_x\000"
 5342      7800
 5343              	.LASF235:
 5344 01ac 6F66735F 		.ascii	"ofs_y\000"
 5344      7900
 5345              	.LASF127:
 5346 01b2 6D617374 		.ascii	"masterBufferIdx\000"
 5346      65724275 
 5346      66666572 
 5346      49647800 
 5347              	.LASF54:
 5348 01c2 736D6966 		.ascii	"smifDeviceNr\000"
 5348      44657669 
 5348      63654E72 
 5348      00
 5349              	.LASF238:
 5350 01cf 6765745F 		.ascii	"get_glyph_dsc\000"
 5350      676C7970 
 5350      685F6473 
 5350      6300
 5351              	.LASF274:
 5352 01dd 6C765F73 		.ascii	"lv_style_t\000"
 5352      74796C65 
 5352      5F7400
 5353              	.LASF150:
 5354 01e8 74784275 		.ascii	"txBufIdx\000"
 5354      66496478 
 5354      00
 5355              	.LASF168:
 5356 01f1 73746172 		.ascii	"startInput\000"
 5356      74496E70 
 5356      757400
 5357              	.LASF8:
 5358 01fc 5F5F696E 		.ascii	"__int32_t\000"
 5358      7433325F 
 5358      7400
 5359              	.LASF50:
 5360 0206 73727373 		.ascii	"srssNumClkpath\000"
 5360      4E756D43 
 5360      6C6B7061 
ARM GAS  C:\Users\chris\AppData\Local\Temp\cctP47hK.s 			page 116


 5360      746800
 5361              	.LASF309:
 5362 0215 4C565F41 		.ascii	"LV_ALIGN_IN_LEFT_MID\000"
 5362      4C49474E 
 5362      5F494E5F 
 5362      4C454654 
 5362      5F4D4944 
 5363              	.LASF326:
 5364 022a 796F6673 		.ascii	"yofs\000"
 5364      00
 5365              	.LASF24:
 5366 022f 63707573 		.ascii	"cpussBase\000"
 5366      73426173 
 5366      6500
 5367              	.LASF277:
 5368 0239 6C765F64 		.ascii	"lv_design_cb_t\000"
 5368      65736967 
 5368      6E5F6362 
 5368      5F7400
 5369              	.LASF135:
 5370 0248 736C6176 		.ascii	"slaveRxBuffer\000"
 5370      65527842 
 5370      75666665 
 5370      7200
 5371              	.LASF314:
 5372 0256 4C565F41 		.ascii	"LV_ALIGN_OUT_BOTTOM_LEFT\000"
 5372      4C49474E 
 5372      5F4F5554 
 5372      5F424F54 
 5372      544F4D5F 
 5373              	.LASF41:
 5374 026f 70657269 		.ascii	"periVersion\000"
 5374      56657273 
 5374      696F6E00 
 5375              	.LASF264:
 5376 027b 666F6E74 		.ascii	"font\000"
 5376      00
 5377              	.LASF139:
 5378 0280 63624164 		.ascii	"cbAddr\000"
 5378      647200
 5379              	.LASF362:
 5380 0287 73775F65 		.ascii	"sw_event_handler\000"
 5380      76656E74 
 5380      5F68616E 
 5380      646C6572 
 5380      00
 5381              	.LASF295:
 5382 0298 4C565F45 		.ascii	"LV_EVENT_APPLY\000"
 5382      56454E54 
 5382      5F415050 
 5382      4C5900
 5383              	.LASF170:
 5384 02a7 73746F70 		.ascii	"stopInput\000"
 5384      496E7075 
 5384      7400
 5385              	.LASF184:
 5386 02b1 4F666673 		.ascii	"Offset\000"
ARM GAS  C:\Users\chris\AppData\Local\Temp\cctP47hK.s 			page 117


 5386      657400
 5387              	.LASF287:
 5388 02b8 4C565F45 		.ascii	"LV_EVENT_DRAG_END\000"
 5388      56454E54 
 5388      5F445241 
 5388      475F454E 
 5388      4400
 5389              	.LASF116:
 5390 02ca 63795F65 		.ascii	"cy_en_scb_i2c_command_t\000"
 5390      6E5F7363 
 5390      625F6932 
 5390      635F636F 
 5390      6D6D616E 
 5391              	.LASF197:
 5392 02e2 6E5F7369 		.ascii	"n_size\000"
 5392      7A6500
 5393              	.LASF130:
 5394 02e9 736C6176 		.ascii	"slaveRdBufEmpty\000"
 5394      65526442 
 5394      7566456D 
 5394      70747900 
 5395              	.LASF80:
 5396 02f9 70657269 		.ascii	"periTrGrSize\000"
 5396      54724772 
 5396      53697A65 
 5396      00
 5397              	.LASF60:
 5398 0306 63727970 		.ascii	"cryptoMemSize\000"
 5398      746F4D65 
 5398      6D53697A 
 5398      6500
 5399              	.LASF106:
 5400 0314 63707573 		.ascii	"cpussRam1Ctl0\000"
 5400      7352616D 
 5400      3143746C 
 5400      3000
 5401              	.LASF108:
 5402 0322 69706353 		.ascii	"ipcStructSize\000"
 5402      74727563 
 5402      7453697A 
 5402      6500
 5403              	.LASF115:
 5404 0330 43595F53 		.ascii	"CY_SCB_I2C_NAK\000"
 5404      43425F49 
 5404      32435F4E 
 5404      414B00
 5405              	.LASF48:
 5406 033f 63707573 		.ascii	"cpussFmIrq\000"
 5406      73466D49 
 5406      727100
 5407              	.LASF118:
 5408 034a 63795F63 		.ascii	"cy_cb_scb_i2c_handle_addr_t\000"
 5408      625F7363 
 5408      625F6932 
 5408      635F6861 
 5408      6E646C65 
 5409              	.LASF159:
ARM GAS  C:\Users\chris\AppData\Local\Temp\cctP47hK.s 			page 118


 5410 0366 636F6D70 		.ascii	"compare0\000"
 5410      61726530 
 5410      00
 5411              	.LASF160:
 5412 036f 636F6D70 		.ascii	"compare1\000"
 5412      61726531 
 5412      00
 5413              	.LASF289:
 5414 0378 4C565F45 		.ascii	"LV_EVENT_KEY\000"
 5414      56454E54 
 5414      5F4B4559 
 5414      00
 5415              	.LASF358:
 5416 0385 616E696D 		.ascii	"anim\000"
 5416      00
 5417              	.LASF142:
 5418 038a 63795F73 		.ascii	"cy_stc_scb_i2c_context\000"
 5418      74635F73 
 5418      63625F69 
 5418      32635F63 
 5418      6F6E7465 
 5419              	.LASF334:
 5420 03a1 4C565F42 		.ascii	"LV_BTN_STATE_PR\000"
 5420      544E5F53 
 5420      54415445 
 5420      5F505200 
 5421              	.LASF82:
 5422 03b1 70657269 		.ascii	"periDivCmdTypeSelPos\000"
 5422      44697643 
 5422      6D645479 
 5422      70655365 
 5422      6C506F73 
 5423              	.LASF99:
 5424 03c6 63707573 		.ascii	"cpussTrimRamCtlOffset\000"
 5424      73547269 
 5424      6D52616D 
 5424      43746C4F 
 5424      66667365 
 5425              	.LASF102:
 5426 03dc 63707573 		.ascii	"cpussCm0NmiCtlOffset\000"
 5426      73436D30 
 5426      4E6D6943 
 5426      746C4F66 
 5426      66736574 
 5427              	.LASF332:
 5428 03f1 6C765F6F 		.ascii	"lv_obj_t\000"
 5428      626A5F74 
 5428      00
 5429              	.LASF389:
 5430 03fa 76657274 		.ascii	"vertLabel1\000"
 5430      4C616265 
 5430      6C3100
 5431              	.LASF383:
 5432 0405 76657274 		.ascii	"vertLabel2\000"
 5432      4C616265 
 5432      6C3200
 5433              	.LASF272:
ARM GAS  C:\Users\chris\AppData\Local\Temp\cctP47hK.s 			page 119


 5434 0410 696D6167 		.ascii	"image\000"
 5434      6500
 5435              	.LASF402:
 5436 0416 453A5C43 		.ascii	"E:\\College Work\\SeniorProject\\Oscilloscope_Senio"
 5436      6F6C6C65 
 5436      67652057 
 5436      6F726B5C 
 5436      53656E69 
 5437 0446 725F5072 		.ascii	"r_Project\\tcom_engineering\\embed_sw\\tcom_app\\tc"
 5437      6F6A6563 
 5437      745C7463 
 5437      6F6D5F65 
 5437      6E67696E 
 5438 0475 6F6D5F61 		.ascii	"om_app_psoc6_lvgl6\\tcom_displ_test_psoc6.cydsn\000"
 5438      70705F70 
 5438      736F6336 
 5438      5F6C7667 
 5438      6C365C74 
 5439              	.LASF131:
 5440 04a4 736C6176 		.ascii	"slaveTxBuffer\000"
 5440      65547842 
 5440      75666665 
 5440      7200
 5441              	.LASF230:
 5442 04b2 7265616C 		.ascii	"realign\000"
 5442      69676E00 
 5443              	.LASF369:
 5444 04ba 63686172 		.ascii	"chart_width\000"
 5444      745F7769 
 5444      64746800 
 5445              	.LASF256:
 5446 04c6 696E6E65 		.ascii	"inner\000"
 5446      7200
 5447              	.LASF133:
 5448 04cc 736C6176 		.ascii	"slaveTxBufferIdx\000"
 5448      65547842 
 5448      75666665 
 5448      72496478 
 5448      00
 5449              	.LASF320:
 5450 04dd 4C565F41 		.ascii	"LV_ALIGN_OUT_RIGHT_TOP\000"
 5450      4C49474E 
 5450      5F4F5554 
 5450      5F524947 
 5450      48545F54 
 5451              	.LASF23:
 5452 04f4 75696E74 		.ascii	"uint32_t\000"
 5452      33325F74 
 5452      00
 5453              	.LASF18:
 5454 04fd 696E7438 		.ascii	"int8_t\000"
 5454      5F7400
 5455              	.LASF205:
 5456 0504 6C765F63 		.ascii	"lv_color32_t\000"
 5456      6F6C6F72 
 5456      33325F74 
 5456      00
ARM GAS  C:\Users\chris\AppData\Local\Temp\cctP47hK.s 			page 120


 5457              	.LASF293:
 5458 0511 4C565F45 		.ascii	"LV_EVENT_INSERT\000"
 5458      56454E54 
 5458      5F494E53 
 5458      45525400 
 5459              	.LASF399:
 5460 0521 7A65726F 		.ascii	"zeros\000"
 5460      7300
 5461              	.LASF92:
 5462 0527 6770696F 		.ascii	"gpioPrtCfgOutOffset\000"
 5462      50727443 
 5462      66674F75 
 5462      744F6666 
 5462      73657400 
 5463              	.LASF316:
 5464 053b 4C565F41 		.ascii	"LV_ALIGN_OUT_BOTTOM_RIGHT\000"
 5464      4C49474E 
 5464      5F4F5554 
 5464      5F424F54 
 5464      544F4D5F 
 5465              	.LASF111:
 5466 0555 666C6F61 		.ascii	"float\000"
 5466      7400
 5467              	.LASF263:
 5468 055b 73656C5F 		.ascii	"sel_color\000"
 5468      636F6C6F 
 5468      7200
 5469              	.LASF217:
 5470 0565 636C6963 		.ascii	"click\000"
 5470      6B00
 5471              	.LASF363:
 5472 056b 6576656E 		.ascii	"event\000"
 5472      7400
 5473              	.LASF56:
 5474 0571 65704D6F 		.ascii	"epMonitorNr\000"
 5474      6E69746F 
 5474      724E7200 
 5475              	.LASF324:
 5476 057d 62617365 		.ascii	"base\000"
 5476      00
 5477              	.LASF368:
 5478 0582 77696E64 		.ascii	"window_slider_event_cb\000"
 5478      6F775F73 
 5478      6C696465 
 5478      725F6576 
 5478      656E745F 
 5479              	.LASF166:
 5480 0599 72656C6F 		.ascii	"reloadInput\000"
 5480      6164496E 
 5480      70757400 
 5481              	.LASF20:
 5482 05a5 696E7431 		.ascii	"int16_t\000"
 5482      365F7400 
 5483              	.LASF91:
 5484 05ad 6770696F 		.ascii	"gpioPrtCfgInOffset\000"
 5484      50727443 
 5484      6667496E 
ARM GAS  C:\Users\chris\AppData\Local\Temp\cctP47hK.s 			page 121


 5484      4F666673 
 5484      657400
 5485              	.LASF342:
 5486 05c0 4C565F4C 		.ascii	"LV_LABEL_LONG_SROLL\000"
 5486      4142454C 
 5486      5F4C4F4E 
 5486      475F5352 
 5486      4F4C4C00 
 5487              	.LASF200:
 5488 05d4 6C765F6C 		.ascii	"lv_ll_t\000"
 5488      6C5F7400 
 5489              	.LASF13:
 5490 05dc 6C6F6E67 		.ascii	"long long unsigned int\000"
 5490      206C6F6E 
 5490      6720756E 
 5490      7369676E 
 5490      65642069 
 5491              	.LASF301:
 5492 05f3 6C765F73 		.ascii	"lv_signal_cb_t\000"
 5492      69676E61 
 5492      6C5F6362 
 5492      5F7400
 5493              	.LASF93:
 5494 0602 6770696F 		.ascii	"gpioPrtCfgSioOffset\000"
 5494      50727443 
 5494      66675369 
 5494      6F4F6666 
 5494      73657400 
 5495              	.LASF251:
 5496 0616 70617274 		.ascii	"part\000"
 5496      00
 5497              	.LASF322:
 5498 061b 4C565F41 		.ascii	"LV_ALIGN_OUT_RIGHT_BOTTOM\000"
 5498      4C49474E 
 5498      5F4F5554 
 5498      5F524947 
 5498      48545F42 
 5499              	.LASF52:
 5500 0635 73727373 		.ascii	"srssNumHfroot\000"
 5500      4E756D48 
 5500      66726F6F 
 5500      7400
 5501              	.LASF198:
 5502 0643 68656164 		.ascii	"head\000"
 5502      00
 5503              	.LASF22:
 5504 0648 696E7433 		.ascii	"int32_t\000"
 5504      325F7400 
 5505              	.LASF378:
 5506 0650 74726967 		.ascii	"triggerSlider\000"
 5506      67657253 
 5506      6C696465 
 5506      7200
 5507              	.LASF132:
 5508 065e 736C6176 		.ascii	"slaveTxBufferSize\000"
 5508      65547842 
 5508      75666665 
ARM GAS  C:\Users\chris\AppData\Local\Temp\cctP47hK.s 			page 122


 5508      7253697A 
 5508      6500
 5509              	.LASF83:
 5510 0670 70657269 		.ascii	"periDivCmdPaDivSelPos\000"
 5510      44697643 
 5510      6D645061 
 5510      44697653 
 5510      656C506F 
 5511              	.LASF167:
 5512 0686 73746172 		.ascii	"startInputMode\000"
 5512      74496E70 
 5512      75744D6F 
 5512      646500
 5513              	.LASF203:
 5514 0695 616C7068 		.ascii	"alpha\000"
 5514      6100
 5515              	.LASF163:
 5516 069b 63617074 		.ascii	"captureInputMode\000"
 5516      75726549 
 5516      6E707574 
 5516      4D6F6465 
 5516      00
 5517              	.LASF315:
 5518 06ac 4C565F41 		.ascii	"LV_ALIGN_OUT_BOTTOM_MID\000"
 5518      4C49474E 
 5518      5F4F5554 
 5518      5F424F54 
 5518      544F4D5F 
 5519              	.LASF357:
 5520 06c4 76616C75 		.ascii	"value\000"
 5520      6500
 5521              	.LASF356:
 5522 06ca 736C6964 		.ascii	"slider\000"
 5522      657200
 5523              	.LASF145:
 5524 06d1 72784275 		.ascii	"rxBuf\000"
 5524      6600
 5525              	.LASF32:
 5526 06d7 69706342 		.ascii	"ipcBase\000"
 5526      61736500 
 5527              	.LASF185:
 5528 06df 77696E64 		.ascii	"windowPos\000"
 5528      6F77506F 
 5528      7300
 5529              	.LASF249:
 5530 06e9 636F6C6F 		.ascii	"color\000"
 5530      7200
 5531              	.LASF69:
 5532 06ef 666C6173 		.ascii	"flashCtlMainWs3Freq\000"
 5532      6843746C 
 5532      4D61696E 
 5532      57733346 
 5532      72657100 
 5533              	.LASF51:
 5534 0703 73727373 		.ascii	"srssNumPll\000"
 5534      4E756D50 
 5534      6C6C00
ARM GAS  C:\Users\chris\AppData\Local\Temp\cctP47hK.s 			page 123


 5535              	.LASF268:
 5536 070e 726F756E 		.ascii	"rounded\000"
 5536      64656400 
 5537              	.LASF318:
 5538 0716 4C565F41 		.ascii	"LV_ALIGN_OUT_LEFT_MID\000"
 5538      4C49474E 
 5538      5F4F5554 
 5538      5F4C4546 
 5538      545F4D49 
 5539              	.LASF30:
 5540 072c 6770696F 		.ascii	"gpioBase\000"
 5540      42617365 
 5540      00
 5541              	.LASF216:
 5542 0735 7374796C 		.ascii	"style_p\000"
 5542      655F7000 
 5543              	.LASF250:
 5544 073d 77696474 		.ascii	"width\000"
 5544      6800
 5545              	.LASF62:
 5546 0743 666C6173 		.ascii	"flashPipeRequired\000"
 5546      68506970 
 5546      65526571 
 5546      75697265 
 5546      6400
 5547              	.LASF128:
 5548 0755 6D617374 		.ascii	"masterNumBytes\000"
 5548      65724E75 
 5548      6D427974 
 5548      657300
 5549              	.LASF380:
 5550 0764 686F7269 		.ascii	"horiSlider\000"
 5550      536C6964 
 5550      657200
 5551              	.LASF138:
 5552 076f 63624576 		.ascii	"cbEvents\000"
 5552      656E7473 
 5552      00
 5553              	.LASF297:
 5554 0778 4C565F45 		.ascii	"LV_EVENT_DELETE\000"
 5554      56454E54 
 5554      5F44454C 
 5554      45544500 
 5555              	.LASF196:
 5556 0788 6C765F6C 		.ascii	"lv_ll_node_t\000"
 5556      6C5F6E6F 
 5556      64655F74 
 5556      00
 5557              	.LASF346:
 5558 0795 4C565F43 		.ascii	"LV_CHART_TYPE_LINE\000"
 5558      48415254 
 5558      5F545950 
 5558      455F4C49 
 5558      4E4500
 5559              	.LASF374:
 5560 07a8 6C626C5F 		.ascii	"lbl_style\000"
 5560      7374796C 
ARM GAS  C:\Users\chris\AppData\Local\Temp\cctP47hK.s 			page 124


 5560      6500
 5561              	.LASF280:
 5562 07b2 4C565F45 		.ascii	"LV_EVENT_PRESS_LOST\000"
 5562      56454E54 
 5562      5F505245 
 5562      53535F4C 
 5562      4F535400 
 5563              	.LASF113:
 5564 07c6 5F426F6F 		.ascii	"_Bool\000"
 5564      6C00
 5565              	.LASF397:
 5566 07cc 74636E6A 		.ascii	"tcnj_gold\000"
 5566      5F676F6C 
 5566      6400
 5567              	.LASF66:
 5568 07d6 666C6173 		.ascii	"flashCtlMainWs0Freq\000"
 5568      6843746C 
 5568      4D61696E 
 5568      57733046 
 5568      72657100 
 5569              	.LASF119:
 5570 07ea 75736552 		.ascii	"useRxFifo\000"
 5570      78466966 
 5570      6F00
 5571              	.LASF237:
 5572 07f4 5F6C765F 		.ascii	"_lv_font_struct\000"
 5572      666F6E74 
 5572      5F737472 
 5572      75637400 
 5573              	.LASF339:
 5574 0804 4C565F4C 		.ascii	"LV_LABEL_LONG_EXPAND\000"
 5574      4142454C 
 5574      5F4C4F4E 
 5574      475F4558 
 5574      50414E44 
 5575              	.LASF278:
 5576 0819 4C565F45 		.ascii	"LV_EVENT_PRESSED\000"
 5576      56454E54 
 5576      5F505245 
 5576      53534544 
 5576      00
 5577              	.LASF266:
 5578 082a 6C696E65 		.ascii	"line_space\000"
 5578      5F737061 
 5578      636500
 5579              	.LASF336:
 5580 0835 4C565F42 		.ascii	"LV_BTN_STATE_TGL_PR\000"
 5580      544E5F53 
 5580      54415445 
 5580      5F54474C 
 5580      5F505200 
 5581              	.LASF42:
 5582 0849 70726F74 		.ascii	"protVersion\000"
 5582      56657273 
 5582      696F6E00 
 5583              	.LASF371:
 5584 0855 63686172 		.ascii	"chart_vertPos\000"
ARM GAS  C:\Users\chris\AppData\Local\Temp\cctP47hK.s 			page 125


 5584      745F7665 
 5584      7274506F 
 5584      7300
 5585              	.LASF240:
 5586 0863 6C696E65 		.ascii	"line_height\000"
 5586      5F686569 
 5586      67687400 
 5587              	.LASF101:
 5588 086f 63707573 		.ascii	"cpussSysTickCtlOffset\000"
 5588      73537973 
 5588      5469636B 
 5588      43746C4F 
 5588      66667365 
 5589              	.LASF57:
 5590 0885 75646250 		.ascii	"udbPresent\000"
 5590      72657365 
 5590      6E7400
 5591              	.LASF359:
 5592 0890 6C765F73 		.ascii	"lv_slider_set_value\000"
 5592      6C696465 
 5592      725F7365 
 5592      745F7661 
 5592      6C756500 
 5593              	.LASF75:
 5594 08a4 64775374 		.ascii	"dwStatusChIdxPos\000"
 5594      61747573 
 5594      43684964 
 5594      78506F73 
 5594      00
 5595              	.LASF6:
 5596 08b5 5F5F7569 		.ascii	"__uint16_t\000"
 5596      6E743136 
 5596      5F7400
 5597              	.LASF355:
 5598 08c0 6C765F63 		.ascii	"lv_color_hex\000"
 5598      6F6C6F72 
 5598      5F686578 
 5598      00
 5599              	.LASF258:
 5600 08cd 67726164 		.ascii	"grad_color\000"
 5600      5F636F6C 
 5600      6F7200
 5601              	.LASF46:
 5602 08d8 63707573 		.ascii	"cpussFlashPaSize\000"
 5602      73466C61 
 5602      73685061 
 5602      53697A65 
 5602      00
 5603              	.LASF164:
 5604 08e9 63617074 		.ascii	"captureInput\000"
 5604      75726549 
 5604      6E707574 
 5604      00
 5605              	.LASF114:
 5606 08f6 43595F53 		.ascii	"CY_SCB_I2C_ACK\000"
 5606      43425F49 
 5606      32435F41 
ARM GAS  C:\Users\chris\AppData\Local\Temp\cctP47hK.s 			page 126


 5606      434B00
 5607              	.LASF17:
 5608 0905 63686172 		.ascii	"char\000"
 5608      00
 5609              	.LASF367:
 5610 090a 76657274 		.ascii	"verti_slider_event_cb\000"
 5610      695F736C 
 5610      69646572 
 5610      5F657665 
 5610      6E745F63 
 5611              	.LASF387:
 5612 0920 74726967 		.ascii	"triggerLabel\000"
 5612      6765724C 
 5612      6162656C 
 5612      00
 5613              	.LASF84:
 5614 092d 70657269 		.ascii	"periDivCmdPaTypeSelPos\000"
 5614      44697643 
 5614      6D645061 
 5614      54797065 
 5614      53656C50 
 5615              	.LASF220:
 5616 0944 64726167 		.ascii	"drag_parent\000"
 5616      5F706172 
 5616      656E7400 
 5617              	.LASF192:
 5618 0950 52784275 		.ascii	"RxBuffer\000"
 5618      66666572 
 5618      00
 5619              	.LASF58:
 5620 0959 73797350 		.ascii	"sysPmSimoPresent\000"
 5620      6D53696D 
 5620      6F507265 
 5620      73656E74 
 5620      00
 5621              	.LASF126:
 5622 096a 6D617374 		.ascii	"masterBufferSize\000"
 5622      65724275 
 5622      66666572 
 5622      53697A65 
 5622      00
 5623              	.LASF229:
 5624 097b 6578745F 		.ascii	"ext_draw_pad\000"
 5624      64726177 
 5624      5F706164 
 5624      00
 5625              	.LASF253:
 5626 0988 626F7474 		.ascii	"bottom\000"
 5626      6F6D00
 5627              	.LASF158:
 5628 098f 636F6D70 		.ascii	"compareOrCapture\000"
 5628      6172654F 
 5628      72436170 
 5628      74757265 
 5628      00
 5629              	.LASF155:
 5630 09a0 636C6F63 		.ascii	"clockPrescaler\000"
ARM GAS  C:\Users\chris\AppData\Local\Temp\cctP47hK.s 			page 127


 5630      6B507265 
 5630      7363616C 
 5630      657200
 5631              	.LASF395:
 5632 09af 5350494D 		.ascii	"SPIM_context\000"
 5632      5F636F6E 
 5632      74657874 
 5632      00
 5633              	.LASF147:
 5634 09bc 72784275 		.ascii	"rxBufIdx\000"
 5634      66496478 
 5634      00
 5635              	.LASF236:
 5636 09c5 6C765F66 		.ascii	"lv_font_glyph_dsc_t\000"
 5636      6F6E745F 
 5636      676C7970 
 5636      685F6473 
 5636      635F7400 
 5637              	.LASF151:
 5638 09d9 696E6974 		.ascii	"initKey\000"
 5638      4B657900 
 5639              	.LASF386:
 5640 09e1 6F666673 		.ascii	"offsetLabel\000"
 5640      65744C61 
 5640      62656C00 
 5641              	.LASF76:
 5642 09ed 64775374 		.ascii	"dwStatusChIdxMsk\000"
 5642      61747573 
 5642      43684964 
 5642      784D736B 
 5642      00
 5643              	.LASF308:
 5644 09fe 4C565F41 		.ascii	"LV_ALIGN_IN_BOTTOM_RIGHT\000"
 5644      4C49474E 
 5644      5F494E5F 
 5644      424F5454 
 5644      4F4D5F52 
 5645              	.LASF19:
 5646 0a17 75696E74 		.ascii	"uint8_t\000"
 5646      385F7400 
 5647              	.LASF144:
 5648 0a1f 73746174 		.ascii	"status\000"
 5648      757300
 5649              	.LASF252:
 5650 0a26 74797065 		.ascii	"type\000"
 5650      00
 5651              	.LASF134:
 5652 0a2b 736C6176 		.ascii	"slaveTxBufferCnt\000"
 5652      65547842 
 5652      75666665 
 5652      72436E74 
 5652      00
 5653              	.LASF224:
 5654 0a3c 64726167 		.ascii	"drag_dir\000"
 5654      5F646972 
 5654      00
 5655              	.LASF31:
ARM GAS  C:\Users\chris\AppData\Local\Temp\cctP47hK.s 			page 128


 5656 0a45 70617373 		.ascii	"passBase\000"
 5656      42617365 
 5656      00
 5657              	.LASF81:
 5658 0a4e 70657269 		.ascii	"periDivCmdDivSelMsk\000"
 5658      44697643 
 5658      6D644469 
 5658      7653656C 
 5658      4D736B00 
 5659              	.LASF296:
 5660 0a62 4C565F45 		.ascii	"LV_EVENT_CANCEL\000"
 5660      56454E54 
 5660      5F43414E 
 5660      43454C00 
 5661              	.LASF181:
 5662 0a72 53616D70 		.ascii	"SampleRate\000"
 5662      6C655261 
 5662      746500
 5663              	.LASF248:
 5664 0a7d 6C765F73 		.ascii	"lv_shadow_type_t\000"
 5664      6861646F 
 5664      775F7479 
 5664      70655F74 
 5664      00
 5665              	.LASF354:
 5666 0a8e 6C765F63 		.ascii	"lv_color_make\000"
 5666      6F6C6F72 
 5666      5F6D616B 
 5666      6500
 5667              	.LASF340:
 5668 0a9c 4C565F4C 		.ascii	"LV_LABEL_LONG_BREAK\000"
 5668      4142454C 
 5668      5F4C4F4E 
 5668      475F4252 
 5668      45414B00 
 5669              	.LASF403:
 5670 0ab0 6C765F73 		.ascii	"lv_scr_act\000"
 5670      63725F61 
 5670      637400
 5671              	.LASF255:
 5672 0abb 72696768 		.ascii	"right\000"
 5672      7400
 5673              	.LASF105:
 5674 0ac1 63707573 		.ascii	"cpussRam0Ctl0\000"
 5674      7352616D 
 5674      3043746C 
 5674      3000
 5675              	.LASF12:
 5676 0acf 6C6F6E67 		.ascii	"long long int\000"
 5676      206C6F6E 
 5676      6720696E 
 5676      7400
 5677              	.LASF269:
 5678 0add 676C6173 		.ascii	"glass\000"
 5678      7300
 5679              	.LASF73:
 5680 0ae3 64774368 		.ascii	"dwChCtlPrioPos\000"
ARM GAS  C:\Users\chris\AppData\Local\Temp\cctP47hK.s 			page 129


 5680      43746C50 
 5680      72696F50 
 5680      6F7300
 5681              	.LASF317:
 5682 0af2 4C565F41 		.ascii	"LV_ALIGN_OUT_LEFT_TOP\000"
 5682      4C49474E 
 5682      5F4F5554 
 5682      5F4C4546 
 5682      545F544F 
 5683              	.LASF33:
 5684 0b08 63727970 		.ascii	"cryptoBase\000"
 5684      746F4261 
 5684      736500
 5685              	.LASF271:
 5686 0b13 74657874 		.ascii	"text\000"
 5686      00
 5687              	.LASF328:
 5688 0b18 6175746F 		.ascii	"auto_realign\000"
 5688      5F726561 
 5688      6C69676E 
 5688      00
 5689              	.LASF88:
 5690 0b25 70657269 		.ascii	"periDiv24_5CtlOffset\000"
 5690      44697632 
 5690      345F3543 
 5690      746C4F66 
 5690      66736574 
 5691              	.LASF186:
 5692 0b3a 77696E64 		.ascii	"windowMin\000"
 5692      6F774D69 
 5692      6E00
 5693              	.LASF262:
 5694 0b44 70616464 		.ascii	"padding\000"
 5694      696E6700 
 5695              	.LASF323:
 5696 0b4c 6C765F61 		.ascii	"lv_align_t\000"
 5696      6C69676E 
 5696      5F7400
 5697              	.LASF63:
 5698 0b57 666C6173 		.ascii	"flashWriteDelay\000"
 5698      68577269 
 5698      74654465 
 5698      6C617900 
 5699              	.LASF343:
 5700 0b67 4C565F4C 		.ascii	"LV_LABEL_LONG_SROLL_CIRC\000"
 5700      4142454C 
 5700      5F4C4F4E 
 5700      475F5352 
 5700      4F4C4C5F 
 5701              	.LASF120:
 5702 0b80 75736554 		.ascii	"useTxFifo\000"
 5702      78466966 
 5702      6F00
 5703              	.LASF325:
 5704 0b8a 786F6673 		.ascii	"xofs\000"
 5704      00
 5705              	.LASF117:
ARM GAS  C:\Users\chris\AppData\Local\Temp\cctP47hK.s 			page 130


 5706 0b8f 63795F63 		.ascii	"cy_cb_scb_i2c_handle_events_t\000"
 5706      625F7363 
 5706      625F6932 
 5706      635F6861 
 5706      6E646C65 
 5707              	.LASF4:
 5708 0bad 5F5F696E 		.ascii	"__int16_t\000"
 5708      7431365F 
 5708      7400
 5709              	.LASF175:
 5710 0bb7 42726961 		.ascii	"BrianReg\000"
 5710      6E526567 
 5710      00
 5711              	.LASF29:
 5712 0bc0 6873696F 		.ascii	"hsiomBase\000"
 5712      6D426173 
 5712      6500
 5713              	.LASF124:
 5714 0bca 6D617374 		.ascii	"masterRdDir\000"
 5714      65725264 
 5714      44697200 
 5715              	.LASF275:
 5716 0bd6 6C765F62 		.ascii	"lv_bidi_dir_t\000"
 5716      6964695F 
 5716      6469725F 
 5716      7400
 5717              	.LASF298:
 5718 0be4 6C765F65 		.ascii	"lv_event_t\000"
 5718      76656E74 
 5718      5F7400
 5719              	.LASF79:
 5720 0bef 70657269 		.ascii	"periTrGrOffset\000"
 5720      54724772 
 5720      4F666673 
 5720      657400
 5721              	.LASF49:
 5722 0bfe 63707573 		.ascii	"cpussNotConnectedIrq\000"
 5722      734E6F74 
 5722      436F6E6E 
 5722      65637465 
 5722      64497271 
 5723              	.LASF329:
 5724 0c13 6F726967 		.ascii	"origo_align\000"
 5724      6F5F616C 
 5724      69676E00 
 5725              	.LASF152:
 5726 0c1f 63795F73 		.ascii	"cy_stc_scb_spi_context_t\000"
 5726      74635F73 
 5726      63625F73 
 5726      70695F63 
 5726      6F6E7465 
 5727              	.LASF195:
 5728 0c38 6C765F72 		.ascii	"lv_res_t\000"
 5728      65735F74 
 5728      00
 5729              	.LASF165:
 5730 0c41 72656C6F 		.ascii	"reloadInputMode\000"
ARM GAS  C:\Users\chris\AppData\Local\Temp\cctP47hK.s 			page 131


 5730      6164496E 
 5730      7075744D 
 5730      6F646500 
 5731              	.LASF331:
 5732 0c51 6C765F64 		.ascii	"lv_drag_dir_t\000"
 5732      7261675F 
 5732      6469725F 
 5732      7400
 5733              	.LASF307:
 5734 0c5f 4C565F41 		.ascii	"LV_ALIGN_IN_BOTTOM_MID\000"
 5734      4C49474E 
 5734      5F494E5F 
 5734      424F5454 
 5734      4F4D5F4D 
 5735              	.LASF376:
 5736 0c76 6F666673 		.ascii	"offsetSlider\000"
 5736      6574536C 
 5736      69646572 
 5736      00
 5737              	.LASF149:
 5738 0c83 74784275 		.ascii	"txBufSize\000"
 5738      6653697A 
 5738      6500
 5739              	.LASF43:
 5740 0c8d 63707573 		.ascii	"cpussIpcNr\000"
 5740      73497063 
 5740      4E7200
 5741              	.LASF291:
 5742 0c98 4C565F45 		.ascii	"LV_EVENT_DEFOCUSED\000"
 5742      56454E54 
 5742      5F444546 
 5742      4F435553 
 5742      454400
 5743              	.LASF286:
 5744 0cab 4C565F45 		.ascii	"LV_EVENT_DRAG_BEGIN\000"
 5744      56454E54 
 5744      5F445241 
 5744      475F4245 
 5744      47494E00 
 5745              	.LASF96:
 5746 0cbf 63707573 		.ascii	"cpussCm4StatusOffset\000"
 5746      73436D34 
 5746      53746174 
 5746      75734F66 
 5746      66736574 
 5747              	.LASF55:
 5748 0cd4 70617373 		.ascii	"passSarChannels\000"
 5748      53617243 
 5748      68616E6E 
 5748      656C7300 
 5749              	.LASF137:
 5750 0ce4 736C6176 		.ascii	"slaveRxBufferIdx\000"
 5750      65527842 
 5750      75666665 
 5750      72496478 
 5750      00
 5751              	.LASF107:
ARM GAS  C:\Users\chris\AppData\Local\Temp\cctP47hK.s 			page 132


 5752 0cf5 63707573 		.ascii	"cpussRam2Ctl0\000"
 5752      7352616D 
 5752      3243746C 
 5752      3000
 5753              	.LASF245:
 5754 0d03 4C565F41 		.ascii	"LV_ANIM_ON\000"
 5754      4E494D5F 
 5754      4F4E00
 5755              	.LASF123:
 5756 0d0e 6D617374 		.ascii	"masterPause\000"
 5756      65725061 
 5756      75736500 
 5757              	.LASF161:
 5758 0d1a 656E6162 		.ascii	"enableCompareSwap\000"
 5758      6C65436F 
 5758      6D706172 
 5758      65537761 
 5758      7000
 5759              	.LASF310:
 5760 0d2c 4C565F41 		.ascii	"LV_ALIGN_IN_RIGHT_MID\000"
 5760      4C49474E 
 5760      5F494E5F 
 5760      52494748 
 5760      545F4D49 
 5761              	.LASF379:
 5762 0d42 74726967 		.ascii	"triggerLabel2\000"
 5762      6765724C 
 5762      6162656C 
 5762      3200
 5763              	.LASF148:
 5764 0d50 74784275 		.ascii	"txBuf\000"
 5764      6600
 5765              	.LASF242:
 5766 0d56 73756270 		.ascii	"subpx\000"
 5766      7800
 5767              	.LASF206:
 5768 0d5c 6C765F63 		.ascii	"lv_color_t\000"
 5768      6F6C6F72 
 5768      5F7400
 5769              	.LASF261:
 5770 0d67 73686164 		.ascii	"shadow\000"
 5770      6F7700
 5771              	.LASF64:
 5772 0d6e 666C6173 		.ascii	"flashProgramDelay\000"
 5772      6850726F 
 5772      6772616D 
 5772      44656C61 
 5772      7900
 5773              	.LASF183:
 5774 0d80 52657365 		.ascii	"Reset\000"
 5774      7400
 5775              	.LASF136:
 5776 0d86 736C6176 		.ascii	"slaveRxBufferSize\000"
 5776      65527842 
 5776      75666665 
 5776      7253697A 
 5776      6500
ARM GAS  C:\Users\chris\AppData\Local\Temp\cctP47hK.s 			page 133


 5777              	.LASF284:
 5778 0d98 4C565F45 		.ascii	"LV_EVENT_CLICKED\000"
 5778      56454E54 
 5778      5F434C49 
 5778      434B4544 
 5778      00
 5779              	.LASF385:
 5780 0da9 73776974 		.ascii	"switchLabel\000"
 5780      63684C61 
 5780      62656C00 
 5781              	.LASF202:
 5782 0db5 67726565 		.ascii	"green\000"
 5782      6E00
 5783              	.LASF7:
 5784 0dbb 73686F72 		.ascii	"short unsigned int\000"
 5784      7420756E 
 5784      7369676E 
 5784      65642069 
 5784      6E7400
 5785              	.LASF15:
 5786 0dce 6C6F6E67 		.ascii	"long double\000"
 5786      20646F75 
 5786      626C6500 
 5787              	.LASF21:
 5788 0dda 75696E74 		.ascii	"uint16_t\000"
 5788      31365F74 
 5788      00
 5789              	.LASF28:
 5790 0de3 70726F74 		.ascii	"protBase\000"
 5790      42617365 
 5790      00
 5791              	.LASF156:
 5792 0dec 72756E4D 		.ascii	"runMode\000"
 5792      6F646500 
 5793              	.LASF78:
 5794 0df4 70657269 		.ascii	"periTrCmdGrSelMsk\000"
 5794      5472436D 
 5794      64477253 
 5794      656C4D73 
 5794      6B00
 5795              	.LASF125:
 5796 0e06 6D617374 		.ascii	"masterBuffer\000"
 5796      65724275 
 5796      66666572 
 5796      00
 5797              	.LASF365:
 5798 0e13 74726967 		.ascii	"trigger_slider_event_cb\000"
 5798      6765725F 
 5798      736C6964 
 5798      65725F65 
 5798      76656E74 
 5799              	.LASF370:
 5800 0e2b 63686172 		.ascii	"chart_heigth\000"
 5800      745F6865 
 5800      69677468 
 5800      00
 5801              	.LASF311:
ARM GAS  C:\Users\chris\AppData\Local\Temp\cctP47hK.s 			page 134


 5802 0e38 4C565F41 		.ascii	"LV_ALIGN_OUT_TOP_LEFT\000"
 5802      4C49474E 
 5802      5F4F5554 
 5802      5F544F50 
 5802      5F4C4546 
 5803              	.LASF173:
 5804 0e4e 63795F73 		.ascii	"cy_stc_tcpwm_counter_config_t\000"
 5804      74635F74 
 5804      6370776D 
 5804      5F636F75 
 5804      6E746572 
 5805              	.LASF40:
 5806 0e6c 69706356 		.ascii	"ipcVersion\000"
 5806      65727369 
 5806      6F6E00
 5807              	.LASF347:
 5808 0e77 4C565F43 		.ascii	"LV_CHART_TYPE_COLUMN\000"
 5808      48415254 
 5808      5F545950 
 5808      455F434F 
 5808      4C554D4E 
 5809              	.LASF68:
 5810 0e8c 666C6173 		.ascii	"flashCtlMainWs2Freq\000"
 5810      6843746C 
 5810      4D61696E 
 5810      57733246 
 5810      72657100 
 5811              	.LASF77:
 5812 0ea0 70657269 		.ascii	"periTrCmdOffset\000"
 5812      5472436D 
 5812      644F6666 
 5812      73657400 
 5813              	.LASF360:
 5814 0eb0 6C765F73 		.ascii	"lv_slider_set_range\000"
 5814      6C696465 
 5814      725F7365 
 5814      745F7261 
 5814      6E676500 
 5815              	.LASF388:
 5816 0ec4 686F7269 		.ascii	"horiLabel1\000"
 5816      4C616265 
 5816      6C3100
 5817              	.LASF381:
 5818 0ecf 686F7269 		.ascii	"horiLabel2\000"
 5818      4C616265 
 5818      6C3200
 5819              	.LASF16:
 5820 0eda 73697A65 		.ascii	"sizetype\000"
 5820      74797065 
 5820      00
 5821              	.LASF243:
 5822 0ee3 6C765F66 		.ascii	"lv_font_t\000"
 5822      6F6E745F 
 5822      7400
 5823              	.LASF265:
 5824 0eed 6C657474 		.ascii	"letter_space\000"
 5824      65725F73 
ARM GAS  C:\Users\chris\AppData\Local\Temp\cctP47hK.s 			page 135


 5824      70616365 
 5824      00
 5825              	.LASF103:
 5826 0efa 63707573 		.ascii	"cpussCm4NmiCtlOffset\000"
 5826      73436D34 
 5826      4E6D6943 
 5826      746C4F66 
 5826      66736574 
 5827              	.LASF257:
 5828 0f0f 6D61696E 		.ascii	"main_color\000"
 5828      5F636F6C 
 5828      6F7200
 5829              	.LASF85:
 5830 0f1a 70657269 		.ascii	"periDiv8CtlOffset\000"
 5830      44697638 
 5830      43746C4F 
 5830      66667365 
 5830      7400
 5831              	.LASF285:
 5832 0f2c 4C565F45 		.ascii	"LV_EVENT_RELEASED\000"
 5832      56454E54 
 5832      5F52454C 
 5832      45415345 
 5832      4400
 5833              	.LASF304:
 5834 0f3e 4C565F41 		.ascii	"LV_ALIGN_IN_TOP_MID\000"
 5834      4C49474E 
 5834      5F494E5F 
 5834      544F505F 
 5834      4D494400 
 5835              	.LASF5:
 5836 0f52 73686F72 		.ascii	"short int\000"
 5836      7420696E 
 5836      7400
 5837              	.LASF86:
 5838 0f5c 70657269 		.ascii	"periDiv16CtlOffset\000"
 5838      44697631 
 5838      3643746C 
 5838      4F666673 
 5838      657400
 5839              	.LASF211:
 5840 0f6f 636F6F72 		.ascii	"coords\000"
 5840      647300
 5841              	.LASF162:
 5842 0f76 696E7465 		.ascii	"interruptSources\000"
 5842      72727570 
 5842      74536F75 
 5842      72636573 
 5842      00
 5843              	.LASF312:
 5844 0f87 4C565F41 		.ascii	"LV_ALIGN_OUT_TOP_MID\000"
 5844      4C49474E 
 5844      5F4F5554 
 5844      5F544F50 
 5844      5F4D4944 
 5845              	.LASF207:
 5846 0f9c 6C765F6F 		.ascii	"lv_opa_t\000"
ARM GAS  C:\Users\chris\AppData\Local\Temp\cctP47hK.s 			page 136


 5846      70615F74 
 5846      00
 5847              	.LASF35:
 5848 0fa5 63727970 		.ascii	"cryptoVersion\000"
 5848      746F5665 
 5848      7273696F 
 5848      6E00
 5849              	.LASF9:
 5850 0fb3 6C6F6E67 		.ascii	"long int\000"
 5850      20696E74 
 5850      00
 5851              	.LASF338:
 5852 0fbc 5F4C565F 		.ascii	"_LV_BTN_STATE_NUM\000"
 5852      42544E5F 
 5852      53544154 
 5852      455F4E55 
 5852      4D00
 5853              	.LASF391:
 5854 0fce 49544D5F 		.ascii	"ITM_RxBuffer\000"
 5854      52784275 
 5854      66666572 
 5854      00
 5855              	.LASF171:
 5856 0fdb 636F756E 		.ascii	"countInputMode\000"
 5856      74496E70 
 5856      75744D6F 
 5856      646500
 5857              	.LASF38:
 5858 0fea 6770696F 		.ascii	"gpioVersion\000"
 5858      56657273 
 5858      696F6E00 
 5859              	.LASF37:
 5860 0ff6 666C6173 		.ascii	"flashcVersion\000"
 5860      68635665 
 5860      7273696F 
 5860      6E00
 5861              	.LASF59:
 5862 1004 70726F74 		.ascii	"protBusMasterMask\000"
 5862      4275734D 
 5862      61737465 
 5862      724D6173 
 5862      6B00
 5863              	.LASF353:
 5864 1016 6C765F63 		.ascii	"lv_chart_series_t\000"
 5864      68617274 
 5864      5F736572 
 5864      6965735F 
 5864      7400
 5865              	.LASF157:
 5866 1028 636F756E 		.ascii	"countDirection\000"
 5866      74446972 
 5866      65637469 
 5866      6F6E00
 5867              	.LASF260:
 5868 1037 626F7264 		.ascii	"border\000"
 5868      657200
 5869              	.LASF279:
ARM GAS  C:\Users\chris\AppData\Local\Temp\cctP47hK.s 			page 137


 5870 103e 4C565F45 		.ascii	"LV_EVENT_PRESSING\000"
 5870      56454E54 
 5870      5F505245 
 5870      5353494E 
 5870      4700
 5871              	.LASF201:
 5872 1050 626C7565 		.ascii	"blue\000"
 5872      00
 5873              	.LASF404:
 5874 1055 686F6D65 		.ascii	"home_screen\000"
 5874      5F736372 
 5874      65656E00 
 5875              	.LASF384:
 5876 1061 77696E64 		.ascii	"windowSlider\000"
 5876      6F77536C 
 5876      69646572 
 5876      00
 5877              	.LASF348:
 5878 106e 4C565F43 		.ascii	"LV_CHART_TYPE_POINT\000"
 5878      48415254 
 5878      5F545950 
 5878      455F504F 
 5878      494E5400 
 5879              	.LASF194:
 5880 1082 6C765F63 		.ascii	"lv_coord_t\000"
 5880      6F6F7264 
 5880      5F7400
 5881              	.LASF222:
 5882 108d 6F70615F 		.ascii	"opa_scale_en\000"
 5882      7363616C 
 5882      655F656E 
 5882      00
 5883              	.LASF352:
 5884 109a 73746172 		.ascii	"start_point\000"
 5884      745F706F 
 5884      696E7400 
 5885              	.LASF247:
 5886 10a6 6C765F62 		.ascii	"lv_border_part_t\000"
 5886      6F726465 
 5886      725F7061 
 5886      72745F74 
 5886      00
 5887              	.LASF254:
 5888 10b7 6C656674 		.ascii	"left\000"
 5888      00
 5889              	.LASF267:
 5890 10bc 696E7465 		.ascii	"intense\000"
 5890      6E736500 
 5891              	.LASF98:
 5892 10c4 63707573 		.ascii	"cpussCm4PwrCtlOffset\000"
 5892      73436D34 
 5892      50777243 
 5892      746C4F66 
 5892      66736574 
 5893              	.LASF1:
 5894 10d9 5F5F7569 		.ascii	"__uint8_t\000"
 5894      6E74385F 
ARM GAS  C:\Users\chris\AppData\Local\Temp\cctP47hK.s 			page 138


 5894      7400
 5895              	.LASF333:
 5896 10e3 4C565F42 		.ascii	"LV_BTN_STATE_REL\000"
 5896      544E5F53 
 5896      54415445 
 5896      5F52454C 
 5896      00
 5897              	.LASF179:
 5898 10f4 54726967 		.ascii	"Trigger\000"
 5898      67657200 
 5899              	.LASF89:
 5900 10fc 6770696F 		.ascii	"gpioPrtIntrCfgOffset\000"
 5900      50727449 
 5900      6E747243 
 5900      66674F66 
 5900      66736574 
 5901              	.LASF337:
 5902 1111 4C565F42 		.ascii	"LV_BTN_STATE_INA\000"
 5902      544E5F53 
 5902      54415445 
 5902      5F494E41 
 5902      00
 5903              	.LASF233:
 5904 1122 626F785F 		.ascii	"box_h\000"
 5904      6800
 5905              	.LASF290:
 5906 1128 4C565F45 		.ascii	"LV_EVENT_FOCUSED\000"
 5906      56454E54 
 5906      5F464F43 
 5906      55534544 
 5906      00
 5907              	.LASF95:
 5908 1139 63707573 		.ascii	"cpussCm4ClockCtlOffset\000"
 5908      73436D34 
 5908      436C6F63 
 5908      6B43746C 
 5908      4F666673 
 5909              	.LASF321:
 5910 1150 4C565F41 		.ascii	"LV_ALIGN_OUT_RIGHT_MID\000"
 5910      4C49474E 
 5910      5F4F5554 
 5910      5F524947 
 5910      48545F4D 
 5911              	.LASF100:
 5912 1167 63707573 		.ascii	"cpussTrimRomCtlOffset\000"
 5912      73547269 
 5912      6D526F6D 
 5912      43746C4F 
 5912      66667365 
 5913              	.LASF39:
 5914 117d 6873696F 		.ascii	"hsiomVersion\000"
 5914      6D566572 
 5914      73696F6E 
 5914      00
 5915              	.LASF208:
 5916 118a 6C765F61 		.ascii	"lv_area_t\000"
 5916      7265615F 
ARM GAS  C:\Users\chris\AppData\Local\Temp\cctP47hK.s 			page 139


 5916      7400
 5917              	.LASF11:
 5918 1194 6C6F6E67 		.ascii	"long unsigned int\000"
 5918      20756E73 
 5918      69676E65 
 5918      6420696E 
 5918      7400
 5919              	.LASF176:
 5920 11a6 43687269 		.ascii	"ChrisReg\000"
 5920      73526567 
 5920      00
 5921              	.LASF104:
 5922 11af 63707573 		.ascii	"cpussRomCtl\000"
 5922      73526F6D 
 5922      43746C00 
 5923              	.LASF232:
 5924 11bb 626F785F 		.ascii	"box_w\000"
 5924      7700
 5925              	.LASF306:
 5926 11c1 4C565F41 		.ascii	"LV_ALIGN_IN_BOTTOM_LEFT\000"
 5926      4C49474E 
 5926      5F494E5F 
 5926      424F5454 
 5926      4F4D5F4C 
 5927              	.LASF305:
 5928 11d9 4C565F41 		.ascii	"LV_ALIGN_IN_TOP_RIGHT\000"
 5928      4C49474E 
 5928      5F494E5F 
 5928      544F505F 
 5928      52494748 
 5929              	.LASF241:
 5930 11ef 62617365 		.ascii	"base_line\000"
 5930      5F6C696E 
 5930      6500
 5931              	.LASF244:
 5932 11f9 4C565F41 		.ascii	"LV_ANIM_OFF\000"
 5932      4E494D5F 
 5932      4F464600 
 5933              	.LASF259:
 5934 1205 72616469 		.ascii	"radius\000"
 5934      757300
 5935              	.LASF228:
 5936 120c 6F70615F 		.ascii	"opa_scale\000"
 5936      7363616C 
 5936      6500
 5937              	.LASF270:
 5938 1216 626F6479 		.ascii	"body\000"
 5938      00
 5939              	.LASF300:
 5940 121b 6C765F73 		.ascii	"lv_signal_t\000"
 5940      69676E61 
 5940      6C5F7400 
 5941              	.LASF398:
 5942 1227 6F666673 		.ascii	"offset_str\000"
 5942      65745F73 
 5942      747200
 5943              	.LASF401:
ARM GAS  C:\Users\chris\AppData\Local\Temp\cctP47hK.s 			page 140


 5944 1232 686F6D65 		.ascii	"home_screen.c\000"
 5944      5F736372 
 5944      65656E2E 
 5944      6300
 5945              	.LASF227:
 5946 1240 70726F74 		.ascii	"protect\000"
 5946      65637400 
 5947              	.LASF36:
 5948 1248 64775665 		.ascii	"dwVersion\000"
 5948      7273696F 
 5948      6E00
 5949              	.LASF3:
 5950 1252 756E7369 		.ascii	"unsigned char\000"
 5950      676E6564 
 5950      20636861 
 5950      7200
 5951              	.LASF10:
 5952 1260 5F5F7569 		.ascii	"__uint32_t\000"
 5952      6E743332 
 5952      5F7400
 5953              	.LASF288:
 5954 126b 4C565F45 		.ascii	"LV_EVENT_DRAG_THROW_BEGIN\000"
 5954      56454E54 
 5954      5F445241 
 5954      475F5448 
 5954      524F575F 
 5955              	.LASF188:
 5956 1285 486F7269 		.ascii	"HoriScale\000"
 5956      5363616C 
 5956      6500
 5957              	.LASF174:
 5958 128f 5350495F 		.ascii	"SPI_parameters\000"
 5958      70617261 
 5958      6D657465 
 5958      727300
 5959              	.LASF273:
 5960 129e 6C696E65 		.ascii	"line\000"
 5960      00
 5961              	.LASF172:
 5962 12a3 636F756E 		.ascii	"countInput\000"
 5962      74496E70 
 5962      757400
 5963              	.LASF382:
 5964 12ae 76657274 		.ascii	"vertSlider\000"
 5964      536C6964 
 5964      657200
 5965              	.LASF313:
 5966 12b9 4C565F41 		.ascii	"LV_ALIGN_OUT_TOP_RIGHT\000"
 5966      4C49474E 
 5966      5F4F5554 
 5966      5F544F50 
 5966      5F524947 
 5967              	.LASF239:
 5968 12d0 6765745F 		.ascii	"get_glyph_bitmap\000"
 5968      676C7970 
 5968      685F6269 
 5968      746D6170 
ARM GAS  C:\Users\chris\AppData\Local\Temp\cctP47hK.s 			page 141


 5968      00
 5969              	.LASF199:
 5970 12e1 7461696C 		.ascii	"tail\000"
 5970      00
 5971              	.LASF193:
 5972 12e6 52656742 		.ascii	"RegBuffer\000"
 5972      75666665 
 5972      7200
 5973              	.LASF65:
 5974 12f0 666C6173 		.ascii	"flashEraseDelay\000"
 5974      68457261 
 5974      73654465 
 5974      6C617900 
 5975              	.LASF210:
 5976 1300 6368696C 		.ascii	"child_ll\000"
 5976      645F6C6C 
 5976      00
 5977              	.LASF396:
 5978 1309 74636E6A 		.ascii	"tcnj_blue\000"
 5978      5F626C75 
 5978      6500
 5979              	.LASF345:
 5980 1313 4C565F43 		.ascii	"LV_CHART_TYPE_NONE\000"
 5980      48415254 
 5980      5F545950 
 5980      455F4E4F 
 5980      4E4500
 5981              	.LASF121:
 5982 1326 73746174 		.ascii	"state\000"
 5982      6500
 5983              	.LASF276:
 5984 132c 6C765F64 		.ascii	"lv_design_mode_t\000"
 5984      65736967 
 5984      6E5F6D6F 
 5984      64655F74 
 5984      00
 5985              	.LASF25:
 5986 133d 666C6173 		.ascii	"flashcBase\000"
 5986      68634261 
 5986      736500
 5987              	.LASF344:
 5988 1348 4C565F4C 		.ascii	"LV_LABEL_LONG_CROP\000"
 5988      4142454C 
 5988      5F4C4F4E 
 5988      475F4352 
 5988      4F5000
 5989              	.LASF212:
 5990 135b 6576656E 		.ascii	"event_cb\000"
 5990      745F6362 
 5990      00
 5991              	.LASF214:
 5992 1364 64657369 		.ascii	"design_cb\000"
 5992      676E5F63 
 5992      6200
 5993              	.LASF61:
 5994 136e 666C6173 		.ascii	"flashRwwRequired\000"
 5994      68527777 
ARM GAS  C:\Users\chris\AppData\Local\Temp\cctP47hK.s 			page 142


 5994      52657175 
 5994      69726564 
 5994      00
 5995              	.LASF90:
 5996 137f 6770696F 		.ascii	"gpioPrtCfgOffset\000"
 5996      50727443 
 5996      66674F66 
 5996      66736574 
 5996      00
 5997              	.LASF246:
 5998 1390 6C765F61 		.ascii	"lv_anim_enable_t\000"
 5998      6E696D5F 
 5998      656E6162 
 5998      6C655F74 
 5998      00
 5999              	.LASF215:
 6000 13a1 6578745F 		.ascii	"ext_attr\000"
 6000      61747472 
 6000      00
 6001              	.LASF67:
 6002 13aa 666C6173 		.ascii	"flashCtlMainWs1Freq\000"
 6002      6843746C 
 6002      4D61696E 
 6002      57733146 
 6002      72657100 
 6003              	.LASF182:
 6004 13be 6F6E4269 		.ascii	"onBit\000"
 6004      7400
 6005              	.LASF47:
 6006 13c4 63707573 		.ascii	"cpussIpc0Irq\000"
 6006      73497063 
 6006      30497271 
 6006      00
 6007              	.LASF2:
 6008 13d1 7369676E 		.ascii	"signed char\000"
 6008      65642063 
 6008      68617200 
 6009              	.LASF154:
 6010 13dd 70657269 		.ascii	"period\000"
 6010      6F6400
 6011              	.LASF221:
 6012 13e4 68696464 		.ascii	"hidden\000"
 6012      656E00
 6013              	.LASF71:
 6014 13eb 64774368 		.ascii	"dwChOffset\000"
 6014      4F666673 
 6014      657400
 6015              	.LASF44:
 6016 13f6 63707573 		.ascii	"cpussIpcIrqNr\000"
 6016      73497063 
 6016      4972714E 
 6016      7200
 6017              	.LASF153:
 6018 1404 63795F73 		.ascii	"cy_stc_tcpwm_counter_config\000"
 6018      74635F74 
 6018      6370776D 
 6018      5F636F75 
ARM GAS  C:\Users\chris\AppData\Local\Temp\cctP47hK.s 			page 143


 6018      6E746572 
 6019              	.LASF74:
 6020 1420 64774368 		.ascii	"dwChCtlPreemptablePos\000"
 6020      43746C50 
 6020      7265656D 
 6020      70746162 
 6020      6C65506F 
 6021              	.LASF180:
 6022 1436 54726967 		.ascii	"TriggerSlope\000"
 6022      67657253 
 6022      6C6F7065 
 6022      00
 6023              	.LASF373:
 6024 1443 6D795F6C 		.ascii	"my_label\000"
 6024      6162656C 
 6024      00
 6025              	.LASF0:
 6026 144c 5F5F696E 		.ascii	"__int8_t\000"
 6026      74385F74 
 6026      00
 6027              	.LASF361:
 6028 1455 6C765F73 		.ascii	"lv_sw_get_state\000"
 6028      775F6765 
 6028      745F7374 
 6028      61746500 
 6029              	.LASF319:
 6030 1465 4C565F41 		.ascii	"LV_ALIGN_OUT_LEFT_BOTTOM\000"
 6030      4C49474E 
 6030      5F4F5554 
 6030      5F4C4546 
 6030      545F424F 
 6031              	.LASF110:
 6032 147e 63795F73 		.ascii	"cy_stc_device_t\000"
 6032      74635F64 
 6032      65766963 
 6032      655F7400 
 6033              	.LASF226:
 6034 148e 72657365 		.ascii	"reserved\000"
 6034      72766564 
 6034      00
 6035              	.LASF283:
 6036 1497 4C565F45 		.ascii	"LV_EVENT_LONG_PRESSED_REPEAT\000"
 6036      56454E54 
 6036      5F4C4F4E 
 6036      475F5052 
 6036      45535345 
 6037              	.LASF349:
 6038 14b4 4C565F43 		.ascii	"LV_CHART_TYPE_VERTICAL_LINE\000"
 6038      48415254 
 6038      5F545950 
 6038      455F5645 
 6038      52544943 
 6039              	.LASF143:
 6040 14d0 63795F73 		.ascii	"cy_stc_scb_spi_context\000"
 6040      74635F73 
 6040      63625F73 
 6040      70695F63 
ARM GAS  C:\Users\chris\AppData\Local\Temp\cctP47hK.s 			page 144


 6040      6F6E7465 
 6041              	.LASF112:
 6042 14e7 646F7562 		.ascii	"double\000"
 6042      6C6500
 6043              	.LASF218:
 6044 14ee 64726167 		.ascii	"drag\000"
 6044      00
 6045              	.LASF372:
 6046 14f3 63686172 		.ascii	"chart_horiPos\000"
 6046      745F686F 
 6046      7269506F 
 6046      7300
 6047              	.LASF87:
 6048 1501 70657269 		.ascii	"periDiv16_5CtlOffset\000"
 6048      44697631 
 6048      365F3543 
 6048      746C4F66 
 6048      66736574 
 6049              	.LASF45:
 6050 1516 63707573 		.ascii	"cpussDwChNr\000"
 6050      73447743 
 6050      684E7200 
 6051              	.LASF140:
 6052 1522 63795F73 		.ascii	"cy_stc_scb_i2c_context_t\000"
 6052      74635F73 
 6052      63625F69 
 6052      32635F63 
 6052      6F6E7465 
 6053              	.LASF213:
 6054 153b 7369676E 		.ascii	"signal_cb\000"
 6054      616C5F63 
 6054      6200
 6055              	.LASF70:
 6056 1545 666C6173 		.ascii	"flashCtlMainWs4Freq\000"
 6056      6843746C 
 6056      4D61696E 
 6056      57733446 
 6056      72657100 
 6057              	.LASF187:
 6058 1559 77696E64 		.ascii	"windowMax\000"
 6058      6F774D61 
 6058      7800
 6059              	.LASF335:
 6060 1563 4C565F42 		.ascii	"LV_BTN_STATE_TGL_REL\000"
 6060      544E5F53 
 6060      54415445 
 6060      5F54474C 
 6060      5F52454C 
 6061              	.LASF281:
 6062 1578 4C565F45 		.ascii	"LV_EVENT_SHORT_CLICKED\000"
 6062      56454E54 
 6062      5F53484F 
 6062      52545F43 
 6062      4C49434B 
 6063              	.LASF350:
 6064 158f 4C565F43 		.ascii	"LV_CHART_TYPE_AREA\000"
 6064      48415254 
ARM GAS  C:\Users\chris\AppData\Local\Temp\cctP47hK.s 			page 145


 6064      5F545950 
 6064      455F4152 
 6064      454100
 6065              	.LASF400:
 6066 15a2 474E5520 		.ascii	"GNU C11 5.4.1 20160609 (release) [ARM/embedded-5-br"
 6066      43313120 
 6066      352E342E 
 6066      31203230 
 6066      31363036 
 6067 15d5 616E6368 		.ascii	"anch revision 237715] -mcpu=cortex-m4 -mfloat-abi=s"
 6067      20726576 
 6067      6973696F 
 6067      6E203233 
 6067      37373135 
 6068 1608 6F667466 		.ascii	"oftfp -mfpu=fpv4-sp-d16 -mthumb -g -O0 -ffunction-s"
 6068      70202D6D 
 6068      6670753D 
 6068      66707634 
 6068      2D73702D 
 6069 163b 65637469 		.ascii	"ections -ffat-lto-objects\000"
 6069      6F6E7320 
 6069      2D666661 
 6069      742D6C74 
 6069      6F2D6F62 
 6070              	.LASF327:
 6071 1655 616C6967 		.ascii	"align\000"
 6071      6E00
 6072              	.LASF177:
 6073 165b 5368616E 		.ascii	"ShannonReg\000"
 6073      6E6F6E52 
 6073      656700
 6074              	.LASF97:
 6075 1666 63707573 		.ascii	"cpussCm0StatusOffset\000"
 6075      73436D30 
 6075      53746174 
 6075      75734F66 
 6075      66736574 
 6076              	.LASF351:
 6077 167b 706F696E 		.ascii	"points\000"
 6077      747300
 6078              	.LASF303:
 6079 1682 4C565F41 		.ascii	"LV_ALIGN_IN_TOP_LEFT\000"
 6079      4C49474E 
 6079      5F494E5F 
 6079      544F505F 
 6079      4C454654 
 6080              	.LASF282:
 6081 1697 4C565F45 		.ascii	"LV_EVENT_LONG_PRESSED\000"
 6081      56454E54 
 6081      5F4C4F4E 
 6081      475F5052 
 6081      45535345 
 6082              	.LASF299:
 6083 16ad 6C765F65 		.ascii	"lv_event_cb_t\000"
 6083      76656E74 
 6083      5F63625F 
 6083      7400
ARM GAS  C:\Users\chris\AppData\Local\Temp\cctP47hK.s 			page 146


 6084              	.LASF34:
 6085 16bb 63707573 		.ascii	"cpussVersion\000"
 6085      73566572 
 6085      73696F6E 
 6085      00
 6086              	.LASF330:
 6087 16c8 6C765F72 		.ascii	"lv_reailgn_t\000"
 6087      6561696C 
 6087      676E5F74 
 6087      00
 6088              	.LASF146:
 6089 16d5 72784275 		.ascii	"rxBufSize\000"
 6089      6653697A 
 6089      6500
 6090              	.LASF231:
 6091 16df 6164765F 		.ascii	"adv_w\000"
 6091      7700
 6092              	.LASF129:
 6093 16e5 736C6176 		.ascii	"slaveStatus\000"
 6093      65537461 
 6093      74757300 
 6094              	.LASF377:
 6095 16f1 6F666673 		.ascii	"offsetLabel2\000"
 6095      65744C61 
 6095      62656C32 
 6095      00
 6096              		.ident	"GCC: (GNU Tools for ARM Embedded Processors) 5.4.1 20160609 (release) [ARM/embedded-5-bran
