ARM GAS  C:\Users\tmj32\AppData\Local\Temp\ccmPTl49.s 			page 1


   1              		.syntax unified
   2              		.cpu cortex-m4
   3              		.eabi_attribute 27, 1
   4              		.fpu fpv4-sp-d16
   5              		.eabi_attribute 20, 1
   6              		.eabi_attribute 21, 1
   7              		.eabi_attribute 23, 3
   8              		.eabi_attribute 24, 1
   9              		.eabi_attribute 25, 1
  10              		.eabi_attribute 26, 1
  11              		.eabi_attribute 30, 6
  12              		.eabi_attribute 34, 1
  13              		.eabi_attribute 18, 4
  14              		.thumb
  15              		.syntax unified
  16              		.file	"home_screen.c"
  17              		.text
  18              	.Ltext0:
  19              		.cfi_sections	.debug_frame
  20              		.comm	cm4,1120,4
  21              		.section	.text.lv_color_make,"ax",%progbits
  22              		.align	2
  23              		.thumb
  24              		.thumb_func
  25              		.type	lv_color_make, %function
  26              	lv_color_make:
  27              	.LFB588:
  28              		.file 1 "..\\..\\..\\lvgl\\version_6.1.2\\lvgl/src/lv_hal/../lv_misc/lv_color.h"
   1:..\..\..\lvgl\version_6.1.2\lvgl/src/lv_hal/../lv_misc/lv_color.h **** /**
   2:..\..\..\lvgl\version_6.1.2\lvgl/src/lv_hal/../lv_misc/lv_color.h ****  * @file lv_color.h
   3:..\..\..\lvgl\version_6.1.2\lvgl/src/lv_hal/../lv_misc/lv_color.h ****  *
   4:..\..\..\lvgl\version_6.1.2\lvgl/src/lv_hal/../lv_misc/lv_color.h ****  */
   5:..\..\..\lvgl\version_6.1.2\lvgl/src/lv_hal/../lv_misc/lv_color.h **** 
   6:..\..\..\lvgl\version_6.1.2\lvgl/src/lv_hal/../lv_misc/lv_color.h **** #ifndef LV_COLOR_H
   7:..\..\..\lvgl\version_6.1.2\lvgl/src/lv_hal/../lv_misc/lv_color.h **** #define LV_COLOR_H
   8:..\..\..\lvgl\version_6.1.2\lvgl/src/lv_hal/../lv_misc/lv_color.h **** 
   9:..\..\..\lvgl\version_6.1.2\lvgl/src/lv_hal/../lv_misc/lv_color.h **** #ifdef __cplusplus
  10:..\..\..\lvgl\version_6.1.2\lvgl/src/lv_hal/../lv_misc/lv_color.h **** extern "C" {
  11:..\..\..\lvgl\version_6.1.2\lvgl/src/lv_hal/../lv_misc/lv_color.h **** #endif
  12:..\..\..\lvgl\version_6.1.2\lvgl/src/lv_hal/../lv_misc/lv_color.h **** 
  13:..\..\..\lvgl\version_6.1.2\lvgl/src/lv_hal/../lv_misc/lv_color.h **** /*********************
  14:..\..\..\lvgl\version_6.1.2\lvgl/src/lv_hal/../lv_misc/lv_color.h ****  *      INCLUDES
  15:..\..\..\lvgl\version_6.1.2\lvgl/src/lv_hal/../lv_misc/lv_color.h ****  *********************/
  16:..\..\..\lvgl\version_6.1.2\lvgl/src/lv_hal/../lv_misc/lv_color.h **** #ifdef LV_CONF_INCLUDE_SIMPLE
  17:..\..\..\lvgl\version_6.1.2\lvgl/src/lv_hal/../lv_misc/lv_color.h **** #include "lv_conf.h"
  18:..\..\..\lvgl\version_6.1.2\lvgl/src/lv_hal/../lv_misc/lv_color.h **** #else
  19:..\..\..\lvgl\version_6.1.2\lvgl/src/lv_hal/../lv_misc/lv_color.h **** #include "../../../lv_conf.h"
  20:..\..\..\lvgl\version_6.1.2\lvgl/src/lv_hal/../lv_misc/lv_color.h **** #endif
  21:..\..\..\lvgl\version_6.1.2\lvgl/src/lv_hal/../lv_misc/lv_color.h **** 
  22:..\..\..\lvgl\version_6.1.2\lvgl/src/lv_hal/../lv_misc/lv_color.h **** /*Error checking*/
  23:..\..\..\lvgl\version_6.1.2\lvgl/src/lv_hal/../lv_misc/lv_color.h **** #if LV_COLOR_DEPTH == 24
  24:..\..\..\lvgl\version_6.1.2\lvgl/src/lv_hal/../lv_misc/lv_color.h **** #error "LV_COLOR_DEPTH  24 is deprecated. Use LV_COLOR_DEPTH  32 instead (lv_conf.h)"
  25:..\..\..\lvgl\version_6.1.2\lvgl/src/lv_hal/../lv_misc/lv_color.h **** #endif
  26:..\..\..\lvgl\version_6.1.2\lvgl/src/lv_hal/../lv_misc/lv_color.h **** 
  27:..\..\..\lvgl\version_6.1.2\lvgl/src/lv_hal/../lv_misc/lv_color.h **** #if LV_COLOR_DEPTH != 32 && LV_COLOR_SCREEN_TRANSP != 0
  28:..\..\..\lvgl\version_6.1.2\lvgl/src/lv_hal/../lv_misc/lv_color.h **** #error "LV_COLOR_SCREEN_TRANSP requires LV_COLOR_DEPTH == 32. Set it in lv_conf.h"
  29:..\..\..\lvgl\version_6.1.2\lvgl/src/lv_hal/../lv_misc/lv_color.h **** #endif
ARM GAS  C:\Users\tmj32\AppData\Local\Temp\ccmPTl49.s 			page 2


  30:..\..\..\lvgl\version_6.1.2\lvgl/src/lv_hal/../lv_misc/lv_color.h **** 
  31:..\..\..\lvgl\version_6.1.2\lvgl/src/lv_hal/../lv_misc/lv_color.h **** #if LV_COLOR_DEPTH != 16 && LV_COLOR_16_SWAP != 0
  32:..\..\..\lvgl\version_6.1.2\lvgl/src/lv_hal/../lv_misc/lv_color.h **** #error "LV_COLOR_16_SWAP requires LV_COLOR_DEPTH == 16. Set it in lv_conf.h"
  33:..\..\..\lvgl\version_6.1.2\lvgl/src/lv_hal/../lv_misc/lv_color.h **** #endif
  34:..\..\..\lvgl\version_6.1.2\lvgl/src/lv_hal/../lv_misc/lv_color.h **** 
  35:..\..\..\lvgl\version_6.1.2\lvgl/src/lv_hal/../lv_misc/lv_color.h **** #include <stdint.h>
  36:..\..\..\lvgl\version_6.1.2\lvgl/src/lv_hal/../lv_misc/lv_color.h **** 
  37:..\..\..\lvgl\version_6.1.2\lvgl/src/lv_hal/../lv_misc/lv_color.h **** /*********************
  38:..\..\..\lvgl\version_6.1.2\lvgl/src/lv_hal/../lv_misc/lv_color.h ****  *      DEFINES
  39:..\..\..\lvgl\version_6.1.2\lvgl/src/lv_hal/../lv_misc/lv_color.h ****  *********************/
  40:..\..\..\lvgl\version_6.1.2\lvgl/src/lv_hal/../lv_misc/lv_color.h **** #define LV_COLOR_WHITE LV_COLOR_MAKE(0xFF, 0xFF, 0xFF)
  41:..\..\..\lvgl\version_6.1.2\lvgl/src/lv_hal/../lv_misc/lv_color.h **** #define LV_COLOR_SILVER LV_COLOR_MAKE(0xC0, 0xC0, 0xC0)
  42:..\..\..\lvgl\version_6.1.2\lvgl/src/lv_hal/../lv_misc/lv_color.h **** #define LV_COLOR_GRAY LV_COLOR_MAKE(0x80, 0x80, 0x80)
  43:..\..\..\lvgl\version_6.1.2\lvgl/src/lv_hal/../lv_misc/lv_color.h **** #define LV_COLOR_BLACK LV_COLOR_MAKE(0x00, 0x00, 0x00)
  44:..\..\..\lvgl\version_6.1.2\lvgl/src/lv_hal/../lv_misc/lv_color.h **** #define LV_COLOR_RED LV_COLOR_MAKE(0xFF, 0x00, 0x00)
  45:..\..\..\lvgl\version_6.1.2\lvgl/src/lv_hal/../lv_misc/lv_color.h **** #define LV_COLOR_MAROON LV_COLOR_MAKE(0x80, 0x00, 0x00)
  46:..\..\..\lvgl\version_6.1.2\lvgl/src/lv_hal/../lv_misc/lv_color.h **** #define LV_COLOR_YELLOW LV_COLOR_MAKE(0xFF, 0xFF, 0x00)
  47:..\..\..\lvgl\version_6.1.2\lvgl/src/lv_hal/../lv_misc/lv_color.h **** #define LV_COLOR_OLIVE LV_COLOR_MAKE(0x80, 0x80, 0x00)
  48:..\..\..\lvgl\version_6.1.2\lvgl/src/lv_hal/../lv_misc/lv_color.h **** #define LV_COLOR_LIME LV_COLOR_MAKE(0x00, 0xFF, 0x00)
  49:..\..\..\lvgl\version_6.1.2\lvgl/src/lv_hal/../lv_misc/lv_color.h **** #define LV_COLOR_GREEN LV_COLOR_MAKE(0x00, 0x80, 0x00)
  50:..\..\..\lvgl\version_6.1.2\lvgl/src/lv_hal/../lv_misc/lv_color.h **** #define LV_COLOR_CYAN LV_COLOR_MAKE(0x00, 0xFF, 0xFF)
  51:..\..\..\lvgl\version_6.1.2\lvgl/src/lv_hal/../lv_misc/lv_color.h **** #define LV_COLOR_AQUA LV_COLOR_CYAN
  52:..\..\..\lvgl\version_6.1.2\lvgl/src/lv_hal/../lv_misc/lv_color.h **** #define LV_COLOR_TEAL LV_COLOR_MAKE(0x00, 0x80, 0x80)
  53:..\..\..\lvgl\version_6.1.2\lvgl/src/lv_hal/../lv_misc/lv_color.h **** #define LV_COLOR_BLUE LV_COLOR_MAKE(0x00, 0x00, 0xFF)
  54:..\..\..\lvgl\version_6.1.2\lvgl/src/lv_hal/../lv_misc/lv_color.h **** #define LV_COLOR_NAVY LV_COLOR_MAKE(0x00, 0x00, 0x80)
  55:..\..\..\lvgl\version_6.1.2\lvgl/src/lv_hal/../lv_misc/lv_color.h **** #define LV_COLOR_MAGENTA LV_COLOR_MAKE(0xFF, 0x00, 0xFF)
  56:..\..\..\lvgl\version_6.1.2\lvgl/src/lv_hal/../lv_misc/lv_color.h **** #define LV_COLOR_PURPLE LV_COLOR_MAKE(0x80, 0x00, 0x80)
  57:..\..\..\lvgl\version_6.1.2\lvgl/src/lv_hal/../lv_misc/lv_color.h **** #define LV_COLOR_ORANGE LV_COLOR_MAKE(0xFF, 0xA5, 0x00)
  58:..\..\..\lvgl\version_6.1.2\lvgl/src/lv_hal/../lv_misc/lv_color.h **** 
  59:..\..\..\lvgl\version_6.1.2\lvgl/src/lv_hal/../lv_misc/lv_color.h **** /**
  60:..\..\..\lvgl\version_6.1.2\lvgl/src/lv_hal/../lv_misc/lv_color.h ****  * Opacity percentages.
  61:..\..\..\lvgl\version_6.1.2\lvgl/src/lv_hal/../lv_misc/lv_color.h ****  */
  62:..\..\..\lvgl\version_6.1.2\lvgl/src/lv_hal/../lv_misc/lv_color.h **** enum {
  63:..\..\..\lvgl\version_6.1.2\lvgl/src/lv_hal/../lv_misc/lv_color.h ****     LV_OPA_TRANSP = 0,
  64:..\..\..\lvgl\version_6.1.2\lvgl/src/lv_hal/../lv_misc/lv_color.h ****     LV_OPA_0      = 0,
  65:..\..\..\lvgl\version_6.1.2\lvgl/src/lv_hal/../lv_misc/lv_color.h ****     LV_OPA_10     = 25,
  66:..\..\..\lvgl\version_6.1.2\lvgl/src/lv_hal/../lv_misc/lv_color.h ****     LV_OPA_20     = 51,
  67:..\..\..\lvgl\version_6.1.2\lvgl/src/lv_hal/../lv_misc/lv_color.h ****     LV_OPA_30     = 76,
  68:..\..\..\lvgl\version_6.1.2\lvgl/src/lv_hal/../lv_misc/lv_color.h ****     LV_OPA_40     = 102,
  69:..\..\..\lvgl\version_6.1.2\lvgl/src/lv_hal/../lv_misc/lv_color.h ****     LV_OPA_50     = 127,
  70:..\..\..\lvgl\version_6.1.2\lvgl/src/lv_hal/../lv_misc/lv_color.h ****     LV_OPA_60     = 153,
  71:..\..\..\lvgl\version_6.1.2\lvgl/src/lv_hal/../lv_misc/lv_color.h ****     LV_OPA_70     = 178,
  72:..\..\..\lvgl\version_6.1.2\lvgl/src/lv_hal/../lv_misc/lv_color.h ****     LV_OPA_80     = 204,
  73:..\..\..\lvgl\version_6.1.2\lvgl/src/lv_hal/../lv_misc/lv_color.h ****     LV_OPA_90     = 229,
  74:..\..\..\lvgl\version_6.1.2\lvgl/src/lv_hal/../lv_misc/lv_color.h ****     LV_OPA_100    = 255,
  75:..\..\..\lvgl\version_6.1.2\lvgl/src/lv_hal/../lv_misc/lv_color.h ****     LV_OPA_COVER  = 255,
  76:..\..\..\lvgl\version_6.1.2\lvgl/src/lv_hal/../lv_misc/lv_color.h **** };
  77:..\..\..\lvgl\version_6.1.2\lvgl/src/lv_hal/../lv_misc/lv_color.h **** 
  78:..\..\..\lvgl\version_6.1.2\lvgl/src/lv_hal/../lv_misc/lv_color.h **** #define LV_OPA_MIN 16  /*Opacities below this will be transparent*/
  79:..\..\..\lvgl\version_6.1.2\lvgl/src/lv_hal/../lv_misc/lv_color.h **** #define LV_OPA_MAX 251 /*Opacities above this will fully cover*/
  80:..\..\..\lvgl\version_6.1.2\lvgl/src/lv_hal/../lv_misc/lv_color.h **** 
  81:..\..\..\lvgl\version_6.1.2\lvgl/src/lv_hal/../lv_misc/lv_color.h **** #if LV_COLOR_DEPTH == 1
  82:..\..\..\lvgl\version_6.1.2\lvgl/src/lv_hal/../lv_misc/lv_color.h **** #define LV_COLOR_SIZE 8
  83:..\..\..\lvgl\version_6.1.2\lvgl/src/lv_hal/../lv_misc/lv_color.h **** #elif LV_COLOR_DEPTH == 8
  84:..\..\..\lvgl\version_6.1.2\lvgl/src/lv_hal/../lv_misc/lv_color.h **** #define LV_COLOR_SIZE 8
  85:..\..\..\lvgl\version_6.1.2\lvgl/src/lv_hal/../lv_misc/lv_color.h **** #elif LV_COLOR_DEPTH == 16
  86:..\..\..\lvgl\version_6.1.2\lvgl/src/lv_hal/../lv_misc/lv_color.h **** #define LV_COLOR_SIZE 16
ARM GAS  C:\Users\tmj32\AppData\Local\Temp\ccmPTl49.s 			page 3


  87:..\..\..\lvgl\version_6.1.2\lvgl/src/lv_hal/../lv_misc/lv_color.h **** #elif LV_COLOR_DEPTH == 32
  88:..\..\..\lvgl\version_6.1.2\lvgl/src/lv_hal/../lv_misc/lv_color.h **** #define LV_COLOR_SIZE 32
  89:..\..\..\lvgl\version_6.1.2\lvgl/src/lv_hal/../lv_misc/lv_color.h **** #else
  90:..\..\..\lvgl\version_6.1.2\lvgl/src/lv_hal/../lv_misc/lv_color.h **** #error "Invalid LV_COLOR_DEPTH in lv_conf.h! Set it to 1, 8, 16 or 32!"
  91:..\..\..\lvgl\version_6.1.2\lvgl/src/lv_hal/../lv_misc/lv_color.h **** #endif
  92:..\..\..\lvgl\version_6.1.2\lvgl/src/lv_hal/../lv_misc/lv_color.h **** 
  93:..\..\..\lvgl\version_6.1.2\lvgl/src/lv_hal/../lv_misc/lv_color.h **** /*---------------------------------------
  94:..\..\..\lvgl\version_6.1.2\lvgl/src/lv_hal/../lv_misc/lv_color.h ****  * Macros for all existing  color depths
  95:..\..\..\lvgl\version_6.1.2\lvgl/src/lv_hal/../lv_misc/lv_color.h ****  * to set/get values of the color channels
  96:..\..\..\lvgl\version_6.1.2\lvgl/src/lv_hal/../lv_misc/lv_color.h ****  *------------------------------------------*/
  97:..\..\..\lvgl\version_6.1.2\lvgl/src/lv_hal/../lv_misc/lv_color.h **** # define LV_COLOR_SET_R1(c, v) (c).ch.red = (uint8_t)((v) & 0x1);
  98:..\..\..\lvgl\version_6.1.2\lvgl/src/lv_hal/../lv_misc/lv_color.h **** # define LV_COLOR_SET_G1(c, v) (c).ch.green = (uint8_t)((v) & 0x1);
  99:..\..\..\lvgl\version_6.1.2\lvgl/src/lv_hal/../lv_misc/lv_color.h **** # define LV_COLOR_SET_B1(c, v) (c).ch.blue = (uint8_t)((v) & 0x1);
 100:..\..\..\lvgl\version_6.1.2\lvgl/src/lv_hal/../lv_misc/lv_color.h **** # define LV_COLOR_SET_A1(c, v)
 101:..\..\..\lvgl\version_6.1.2\lvgl/src/lv_hal/../lv_misc/lv_color.h **** 
 102:..\..\..\lvgl\version_6.1.2\lvgl/src/lv_hal/../lv_misc/lv_color.h **** # define LV_COLOR_GET_R1(c) (c).ch.red
 103:..\..\..\lvgl\version_6.1.2\lvgl/src/lv_hal/../lv_misc/lv_color.h **** # define LV_COLOR_GET_G1(c) (c).ch.green
 104:..\..\..\lvgl\version_6.1.2\lvgl/src/lv_hal/../lv_misc/lv_color.h **** # define LV_COLOR_GET_B1(c) (c).ch.blue
 105:..\..\..\lvgl\version_6.1.2\lvgl/src/lv_hal/../lv_misc/lv_color.h **** # define LV_COLOR_GET_A1(c) 1
 106:..\..\..\lvgl\version_6.1.2\lvgl/src/lv_hal/../lv_misc/lv_color.h **** 
 107:..\..\..\lvgl\version_6.1.2\lvgl/src/lv_hal/../lv_misc/lv_color.h **** # define LV_COLOR_SET_R8(c, v) (c).ch.red = (uint8_t)(v) & 0x7U;
 108:..\..\..\lvgl\version_6.1.2\lvgl/src/lv_hal/../lv_misc/lv_color.h **** # define LV_COLOR_SET_G8(c, v) (c).ch.green = (uint8_t)(v) & 0x7U;
 109:..\..\..\lvgl\version_6.1.2\lvgl/src/lv_hal/../lv_misc/lv_color.h **** # define LV_COLOR_SET_B8(c, v) (c).ch.blue = (uint8_t)(v) & 0x3U;
 110:..\..\..\lvgl\version_6.1.2\lvgl/src/lv_hal/../lv_misc/lv_color.h **** # define LV_COLOR_SET_A8(c, v) do {} while(0)
 111:..\..\..\lvgl\version_6.1.2\lvgl/src/lv_hal/../lv_misc/lv_color.h **** 
 112:..\..\..\lvgl\version_6.1.2\lvgl/src/lv_hal/../lv_misc/lv_color.h **** # define LV_COLOR_GET_R8(c) (c).ch.red
 113:..\..\..\lvgl\version_6.1.2\lvgl/src/lv_hal/../lv_misc/lv_color.h **** # define LV_COLOR_GET_G8(c) (c).ch.green
 114:..\..\..\lvgl\version_6.1.2\lvgl/src/lv_hal/../lv_misc/lv_color.h **** # define LV_COLOR_GET_B8(c) (c).ch.blue
 115:..\..\..\lvgl\version_6.1.2\lvgl/src/lv_hal/../lv_misc/lv_color.h **** # define LV_COLOR_GET_A8(c) 0xFF
 116:..\..\..\lvgl\version_6.1.2\lvgl/src/lv_hal/../lv_misc/lv_color.h **** 
 117:..\..\..\lvgl\version_6.1.2\lvgl/src/lv_hal/../lv_misc/lv_color.h **** # define LV_COLOR_SET_R16(c, v) (c).ch.red = (uint8_t)(v) & 0x1FU;
 118:..\..\..\lvgl\version_6.1.2\lvgl/src/lv_hal/../lv_misc/lv_color.h **** # define LV_COLOR_SET_G16(c, v) (c).ch.green = (uint8_t)(v) & 0x3FU;
 119:..\..\..\lvgl\version_6.1.2\lvgl/src/lv_hal/../lv_misc/lv_color.h **** # define LV_COLOR_SET_G16_SWAP(c, v) {(c).ch.green_h = (uint8_t)(((v) >> 3) & 0x7); (c).ch.green_l 
 120:..\..\..\lvgl\version_6.1.2\lvgl/src/lv_hal/../lv_misc/lv_color.h **** # define LV_COLOR_SET_B16(c, v) (c).ch.blue = (uint8_t)(v) & 0x1FU;
 121:..\..\..\lvgl\version_6.1.2\lvgl/src/lv_hal/../lv_misc/lv_color.h **** # define LV_COLOR_SET_A16(c, v) do {} while(0)
 122:..\..\..\lvgl\version_6.1.2\lvgl/src/lv_hal/../lv_misc/lv_color.h **** 
 123:..\..\..\lvgl\version_6.1.2\lvgl/src/lv_hal/../lv_misc/lv_color.h **** # define LV_COLOR_GET_R16(c) (c).ch.red
 124:..\..\..\lvgl\version_6.1.2\lvgl/src/lv_hal/../lv_misc/lv_color.h **** # define LV_COLOR_GET_G16(c) (c).ch.green
 125:..\..\..\lvgl\version_6.1.2\lvgl/src/lv_hal/../lv_misc/lv_color.h **** # define LV_COLOR_GET_G16_SWAP(c) (((c).ch.green_h << 3) + (c).ch.green_l)
 126:..\..\..\lvgl\version_6.1.2\lvgl/src/lv_hal/../lv_misc/lv_color.h **** # define LV_COLOR_GET_B16(c) (c).ch.blue
 127:..\..\..\lvgl\version_6.1.2\lvgl/src/lv_hal/../lv_misc/lv_color.h **** # define LV_COLOR_GET_A16(c) 0xFF
 128:..\..\..\lvgl\version_6.1.2\lvgl/src/lv_hal/../lv_misc/lv_color.h **** 
 129:..\..\..\lvgl\version_6.1.2\lvgl/src/lv_hal/../lv_misc/lv_color.h **** # define LV_COLOR_SET_R32(c, v) (c).ch.red = (uint32_t)((v) & 0xFF);
 130:..\..\..\lvgl\version_6.1.2\lvgl/src/lv_hal/../lv_misc/lv_color.h **** # define LV_COLOR_SET_G32(c, v) (c).ch.green = (uint32_t)((v) & 0xFF);
 131:..\..\..\lvgl\version_6.1.2\lvgl/src/lv_hal/../lv_misc/lv_color.h **** # define LV_COLOR_SET_B32(c, v) (c).ch.blue = (uint32_t)((v) & 0xFF);
 132:..\..\..\lvgl\version_6.1.2\lvgl/src/lv_hal/../lv_misc/lv_color.h **** # define LV_COLOR_SET_A32(c, v) (c).ch.alpha = (uint32_t)((v) & 0xFF);
 133:..\..\..\lvgl\version_6.1.2\lvgl/src/lv_hal/../lv_misc/lv_color.h **** 
 134:..\..\..\lvgl\version_6.1.2\lvgl/src/lv_hal/../lv_misc/lv_color.h **** # define LV_COLOR_GET_R32(c) (c).ch.red
 135:..\..\..\lvgl\version_6.1.2\lvgl/src/lv_hal/../lv_misc/lv_color.h **** # define LV_COLOR_GET_G32(c) (c).ch.green
 136:..\..\..\lvgl\version_6.1.2\lvgl/src/lv_hal/../lv_misc/lv_color.h **** # define LV_COLOR_GET_B32(c) (c).ch.blue
 137:..\..\..\lvgl\version_6.1.2\lvgl/src/lv_hal/../lv_misc/lv_color.h **** # define LV_COLOR_GET_A32(c) (c).ch.alpha
 138:..\..\..\lvgl\version_6.1.2\lvgl/src/lv_hal/../lv_misc/lv_color.h **** 
 139:..\..\..\lvgl\version_6.1.2\lvgl/src/lv_hal/../lv_misc/lv_color.h **** 
 140:..\..\..\lvgl\version_6.1.2\lvgl/src/lv_hal/../lv_misc/lv_color.h **** /*---------------------------------------
 141:..\..\..\lvgl\version_6.1.2\lvgl/src/lv_hal/../lv_misc/lv_color.h ****  * Macros for the current color depth
 142:..\..\..\lvgl\version_6.1.2\lvgl/src/lv_hal/../lv_misc/lv_color.h ****  * to set/get values of the color channels
 143:..\..\..\lvgl\version_6.1.2\lvgl/src/lv_hal/../lv_misc/lv_color.h ****  *------------------------------------------*/
ARM GAS  C:\Users\tmj32\AppData\Local\Temp\ccmPTl49.s 			page 4


 144:..\..\..\lvgl\version_6.1.2\lvgl/src/lv_hal/../lv_misc/lv_color.h **** #if LV_COLOR_DEPTH == 1
 145:..\..\..\lvgl\version_6.1.2\lvgl/src/lv_hal/../lv_misc/lv_color.h **** # define LV_COLOR_SET_R(c, v) LV_COLOR_SET_R1(c,v)
 146:..\..\..\lvgl\version_6.1.2\lvgl/src/lv_hal/../lv_misc/lv_color.h **** # define LV_COLOR_SET_G(c, v) LV_COLOR_SET_G1(c,v)
 147:..\..\..\lvgl\version_6.1.2\lvgl/src/lv_hal/../lv_misc/lv_color.h **** # define LV_COLOR_SET_B(c, v) LV_COLOR_SET_B1(c,v)
 148:..\..\..\lvgl\version_6.1.2\lvgl/src/lv_hal/../lv_misc/lv_color.h **** # define LV_COLOR_SET_A(c, v) LV_COLOR_SET_A1(c,v)
 149:..\..\..\lvgl\version_6.1.2\lvgl/src/lv_hal/../lv_misc/lv_color.h **** 
 150:..\..\..\lvgl\version_6.1.2\lvgl/src/lv_hal/../lv_misc/lv_color.h **** # define LV_COLOR_GET_R(c) LV_COLOR_GET_R1(c)
 151:..\..\..\lvgl\version_6.1.2\lvgl/src/lv_hal/../lv_misc/lv_color.h **** # define LV_COLOR_GET_G(c) LV_COLOR_GET_G1(c)
 152:..\..\..\lvgl\version_6.1.2\lvgl/src/lv_hal/../lv_misc/lv_color.h **** # define LV_COLOR_GET_B(c) LV_COLOR_GET_B1(c)
 153:..\..\..\lvgl\version_6.1.2\lvgl/src/lv_hal/../lv_misc/lv_color.h **** # define LV_COLOR_GET_A(c) LV_COLOR_GET_A1(c)
 154:..\..\..\lvgl\version_6.1.2\lvgl/src/lv_hal/../lv_misc/lv_color.h **** 
 155:..\..\..\lvgl\version_6.1.2\lvgl/src/lv_hal/../lv_misc/lv_color.h **** #elif LV_COLOR_DEPTH == 8
 156:..\..\..\lvgl\version_6.1.2\lvgl/src/lv_hal/../lv_misc/lv_color.h **** # define LV_COLOR_SET_R(c, v) LV_COLOR_SET_R8(c,v)
 157:..\..\..\lvgl\version_6.1.2\lvgl/src/lv_hal/../lv_misc/lv_color.h **** # define LV_COLOR_SET_G(c, v) LV_COLOR_SET_G8(c,v)
 158:..\..\..\lvgl\version_6.1.2\lvgl/src/lv_hal/../lv_misc/lv_color.h **** # define LV_COLOR_SET_B(c, v) LV_COLOR_SET_B8(c,v)
 159:..\..\..\lvgl\version_6.1.2\lvgl/src/lv_hal/../lv_misc/lv_color.h **** # define LV_COLOR_SET_A(c, v) LV_COLOR_SET_A8(c,v)
 160:..\..\..\lvgl\version_6.1.2\lvgl/src/lv_hal/../lv_misc/lv_color.h **** 
 161:..\..\..\lvgl\version_6.1.2\lvgl/src/lv_hal/../lv_misc/lv_color.h **** # define LV_COLOR_GET_R(c) LV_COLOR_GET_R8(c)
 162:..\..\..\lvgl\version_6.1.2\lvgl/src/lv_hal/../lv_misc/lv_color.h **** # define LV_COLOR_GET_G(c) LV_COLOR_GET_G8(c)
 163:..\..\..\lvgl\version_6.1.2\lvgl/src/lv_hal/../lv_misc/lv_color.h **** # define LV_COLOR_GET_B(c) LV_COLOR_GET_B8(c)
 164:..\..\..\lvgl\version_6.1.2\lvgl/src/lv_hal/../lv_misc/lv_color.h **** # define LV_COLOR_GET_A(c) LV_COLOR_GET_A8(c)
 165:..\..\..\lvgl\version_6.1.2\lvgl/src/lv_hal/../lv_misc/lv_color.h **** 
 166:..\..\..\lvgl\version_6.1.2\lvgl/src/lv_hal/../lv_misc/lv_color.h **** #elif LV_COLOR_DEPTH == 16
 167:..\..\..\lvgl\version_6.1.2\lvgl/src/lv_hal/../lv_misc/lv_color.h **** # define LV_COLOR_SET_R(c, v) LV_COLOR_SET_R16(c,v)
 168:..\..\..\lvgl\version_6.1.2\lvgl/src/lv_hal/../lv_misc/lv_color.h **** # if LV_COLOR_16_SWAP == 0
 169:..\..\..\lvgl\version_6.1.2\lvgl/src/lv_hal/../lv_misc/lv_color.h **** #   define LV_COLOR_SET_G(c, v) LV_COLOR_SET_G16(c,v)
 170:..\..\..\lvgl\version_6.1.2\lvgl/src/lv_hal/../lv_misc/lv_color.h **** # else
 171:..\..\..\lvgl\version_6.1.2\lvgl/src/lv_hal/../lv_misc/lv_color.h **** #   define LV_COLOR_SET_G(c, v) LV_COLOR_SET_G16_SWAP(c,v)
 172:..\..\..\lvgl\version_6.1.2\lvgl/src/lv_hal/../lv_misc/lv_color.h **** # endif
 173:..\..\..\lvgl\version_6.1.2\lvgl/src/lv_hal/../lv_misc/lv_color.h **** # define LV_COLOR_SET_B(c, v) LV_COLOR_SET_B16(c,v)
 174:..\..\..\lvgl\version_6.1.2\lvgl/src/lv_hal/../lv_misc/lv_color.h **** # define LV_COLOR_SET_A(c, v) LV_COLOR_SET_A16(c,v)
 175:..\..\..\lvgl\version_6.1.2\lvgl/src/lv_hal/../lv_misc/lv_color.h **** 
 176:..\..\..\lvgl\version_6.1.2\lvgl/src/lv_hal/../lv_misc/lv_color.h **** # define LV_COLOR_GET_R(c) LV_COLOR_GET_R16(c)
 177:..\..\..\lvgl\version_6.1.2\lvgl/src/lv_hal/../lv_misc/lv_color.h **** # if LV_COLOR_16_SWAP == 0
 178:..\..\..\lvgl\version_6.1.2\lvgl/src/lv_hal/../lv_misc/lv_color.h **** #   define LV_COLOR_GET_G(c) LV_COLOR_GET_G16(c)
 179:..\..\..\lvgl\version_6.1.2\lvgl/src/lv_hal/../lv_misc/lv_color.h **** # else
 180:..\..\..\lvgl\version_6.1.2\lvgl/src/lv_hal/../lv_misc/lv_color.h **** #   define LV_COLOR_GET_G(c) LV_COLOR_GET_G16_SWAP(c)
 181:..\..\..\lvgl\version_6.1.2\lvgl/src/lv_hal/../lv_misc/lv_color.h **** # endif
 182:..\..\..\lvgl\version_6.1.2\lvgl/src/lv_hal/../lv_misc/lv_color.h **** # define LV_COLOR_GET_B(c)   LV_COLOR_GET_B16(c)
 183:..\..\..\lvgl\version_6.1.2\lvgl/src/lv_hal/../lv_misc/lv_color.h **** # define LV_COLOR_GET_A(c)   LV_COLOR_GET_A16(c)
 184:..\..\..\lvgl\version_6.1.2\lvgl/src/lv_hal/../lv_misc/lv_color.h **** 
 185:..\..\..\lvgl\version_6.1.2\lvgl/src/lv_hal/../lv_misc/lv_color.h **** #elif LV_COLOR_DEPTH == 32
 186:..\..\..\lvgl\version_6.1.2\lvgl/src/lv_hal/../lv_misc/lv_color.h **** # define LV_COLOR_SET_R(c, v) LV_COLOR_SET_R32(c,v)
 187:..\..\..\lvgl\version_6.1.2\lvgl/src/lv_hal/../lv_misc/lv_color.h **** # define LV_COLOR_SET_G(c, v) LV_COLOR_SET_G32(c,v)
 188:..\..\..\lvgl\version_6.1.2\lvgl/src/lv_hal/../lv_misc/lv_color.h **** # define LV_COLOR_SET_B(c, v) LV_COLOR_SET_B32(c,v)
 189:..\..\..\lvgl\version_6.1.2\lvgl/src/lv_hal/../lv_misc/lv_color.h **** # define LV_COLOR_SET_A(c, v) LV_COLOR_SET_A32(c,v)
 190:..\..\..\lvgl\version_6.1.2\lvgl/src/lv_hal/../lv_misc/lv_color.h **** 
 191:..\..\..\lvgl\version_6.1.2\lvgl/src/lv_hal/../lv_misc/lv_color.h **** # define LV_COLOR_GET_R(c) LV_COLOR_GET_R32(c)
 192:..\..\..\lvgl\version_6.1.2\lvgl/src/lv_hal/../lv_misc/lv_color.h **** # define LV_COLOR_GET_G(c) LV_COLOR_GET_G32(c)
 193:..\..\..\lvgl\version_6.1.2\lvgl/src/lv_hal/../lv_misc/lv_color.h **** # define LV_COLOR_GET_B(c) LV_COLOR_GET_B32(c)
 194:..\..\..\lvgl\version_6.1.2\lvgl/src/lv_hal/../lv_misc/lv_color.h **** # define LV_COLOR_GET_A(c) LV_COLOR_GET_A32(c)
 195:..\..\..\lvgl\version_6.1.2\lvgl/src/lv_hal/../lv_misc/lv_color.h **** #endif
 196:..\..\..\lvgl\version_6.1.2\lvgl/src/lv_hal/../lv_misc/lv_color.h **** 
 197:..\..\..\lvgl\version_6.1.2\lvgl/src/lv_hal/../lv_misc/lv_color.h **** /**********************
 198:..\..\..\lvgl\version_6.1.2\lvgl/src/lv_hal/../lv_misc/lv_color.h ****  *      TYPEDEFS
 199:..\..\..\lvgl\version_6.1.2\lvgl/src/lv_hal/../lv_misc/lv_color.h ****  **********************/
 200:..\..\..\lvgl\version_6.1.2\lvgl/src/lv_hal/../lv_misc/lv_color.h **** 
ARM GAS  C:\Users\tmj32\AppData\Local\Temp\ccmPTl49.s 			page 5


 201:..\..\..\lvgl\version_6.1.2\lvgl/src/lv_hal/../lv_misc/lv_color.h **** typedef union
 202:..\..\..\lvgl\version_6.1.2\lvgl/src/lv_hal/../lv_misc/lv_color.h **** {
 203:..\..\..\lvgl\version_6.1.2\lvgl/src/lv_hal/../lv_misc/lv_color.h ****     struct
 204:..\..\..\lvgl\version_6.1.2\lvgl/src/lv_hal/../lv_misc/lv_color.h ****     {
 205:..\..\..\lvgl\version_6.1.2\lvgl/src/lv_hal/../lv_misc/lv_color.h ****         uint8_t blue : 1;
 206:..\..\..\lvgl\version_6.1.2\lvgl/src/lv_hal/../lv_misc/lv_color.h ****         uint8_t green : 1;
 207:..\..\..\lvgl\version_6.1.2\lvgl/src/lv_hal/../lv_misc/lv_color.h ****         uint8_t red : 1;
 208:..\..\..\lvgl\version_6.1.2\lvgl/src/lv_hal/../lv_misc/lv_color.h ****     } ch;
 209:..\..\..\lvgl\version_6.1.2\lvgl/src/lv_hal/../lv_misc/lv_color.h ****     uint8_t full;
 210:..\..\..\lvgl\version_6.1.2\lvgl/src/lv_hal/../lv_misc/lv_color.h **** } lv_color1_t;
 211:..\..\..\lvgl\version_6.1.2\lvgl/src/lv_hal/../lv_misc/lv_color.h **** 
 212:..\..\..\lvgl\version_6.1.2\lvgl/src/lv_hal/../lv_misc/lv_color.h **** typedef union
 213:..\..\..\lvgl\version_6.1.2\lvgl/src/lv_hal/../lv_misc/lv_color.h **** {
 214:..\..\..\lvgl\version_6.1.2\lvgl/src/lv_hal/../lv_misc/lv_color.h ****     struct
 215:..\..\..\lvgl\version_6.1.2\lvgl/src/lv_hal/../lv_misc/lv_color.h ****     {
 216:..\..\..\lvgl\version_6.1.2\lvgl/src/lv_hal/../lv_misc/lv_color.h ****         uint8_t blue : 2;
 217:..\..\..\lvgl\version_6.1.2\lvgl/src/lv_hal/../lv_misc/lv_color.h ****         uint8_t green : 3;
 218:..\..\..\lvgl\version_6.1.2\lvgl/src/lv_hal/../lv_misc/lv_color.h ****         uint8_t red : 3;
 219:..\..\..\lvgl\version_6.1.2\lvgl/src/lv_hal/../lv_misc/lv_color.h ****     } ch;
 220:..\..\..\lvgl\version_6.1.2\lvgl/src/lv_hal/../lv_misc/lv_color.h ****     uint8_t full;
 221:..\..\..\lvgl\version_6.1.2\lvgl/src/lv_hal/../lv_misc/lv_color.h **** } lv_color8_t;
 222:..\..\..\lvgl\version_6.1.2\lvgl/src/lv_hal/../lv_misc/lv_color.h **** 
 223:..\..\..\lvgl\version_6.1.2\lvgl/src/lv_hal/../lv_misc/lv_color.h **** typedef union
 224:..\..\..\lvgl\version_6.1.2\lvgl/src/lv_hal/../lv_misc/lv_color.h **** {
 225:..\..\..\lvgl\version_6.1.2\lvgl/src/lv_hal/../lv_misc/lv_color.h ****     struct
 226:..\..\..\lvgl\version_6.1.2\lvgl/src/lv_hal/../lv_misc/lv_color.h ****     {
 227:..\..\..\lvgl\version_6.1.2\lvgl/src/lv_hal/../lv_misc/lv_color.h **** #if LV_COLOR_16_SWAP == 0
 228:..\..\..\lvgl\version_6.1.2\lvgl/src/lv_hal/../lv_misc/lv_color.h ****         uint16_t blue : 5;
 229:..\..\..\lvgl\version_6.1.2\lvgl/src/lv_hal/../lv_misc/lv_color.h ****         uint16_t green : 6;
 230:..\..\..\lvgl\version_6.1.2\lvgl/src/lv_hal/../lv_misc/lv_color.h ****         uint16_t red : 5;
 231:..\..\..\lvgl\version_6.1.2\lvgl/src/lv_hal/../lv_misc/lv_color.h **** #else
 232:..\..\..\lvgl\version_6.1.2\lvgl/src/lv_hal/../lv_misc/lv_color.h ****         uint16_t green_h : 3;
 233:..\..\..\lvgl\version_6.1.2\lvgl/src/lv_hal/../lv_misc/lv_color.h ****         uint16_t red : 5;
 234:..\..\..\lvgl\version_6.1.2\lvgl/src/lv_hal/../lv_misc/lv_color.h ****         uint16_t blue : 5;
 235:..\..\..\lvgl\version_6.1.2\lvgl/src/lv_hal/../lv_misc/lv_color.h ****         uint16_t green_l : 3;
 236:..\..\..\lvgl\version_6.1.2\lvgl/src/lv_hal/../lv_misc/lv_color.h **** #endif
 237:..\..\..\lvgl\version_6.1.2\lvgl/src/lv_hal/../lv_misc/lv_color.h ****     } ch;
 238:..\..\..\lvgl\version_6.1.2\lvgl/src/lv_hal/../lv_misc/lv_color.h ****     uint16_t full;
 239:..\..\..\lvgl\version_6.1.2\lvgl/src/lv_hal/../lv_misc/lv_color.h **** } lv_color16_t;
 240:..\..\..\lvgl\version_6.1.2\lvgl/src/lv_hal/../lv_misc/lv_color.h **** 
 241:..\..\..\lvgl\version_6.1.2\lvgl/src/lv_hal/../lv_misc/lv_color.h **** typedef union
 242:..\..\..\lvgl\version_6.1.2\lvgl/src/lv_hal/../lv_misc/lv_color.h **** {
 243:..\..\..\lvgl\version_6.1.2\lvgl/src/lv_hal/../lv_misc/lv_color.h ****     struct
 244:..\..\..\lvgl\version_6.1.2\lvgl/src/lv_hal/../lv_misc/lv_color.h ****     {
 245:..\..\..\lvgl\version_6.1.2\lvgl/src/lv_hal/../lv_misc/lv_color.h ****         uint8_t blue;
 246:..\..\..\lvgl\version_6.1.2\lvgl/src/lv_hal/../lv_misc/lv_color.h ****         uint8_t green;
 247:..\..\..\lvgl\version_6.1.2\lvgl/src/lv_hal/../lv_misc/lv_color.h ****         uint8_t red;
 248:..\..\..\lvgl\version_6.1.2\lvgl/src/lv_hal/../lv_misc/lv_color.h ****         uint8_t alpha;
 249:..\..\..\lvgl\version_6.1.2\lvgl/src/lv_hal/../lv_misc/lv_color.h ****     } ch;
 250:..\..\..\lvgl\version_6.1.2\lvgl/src/lv_hal/../lv_misc/lv_color.h ****     uint32_t full;
 251:..\..\..\lvgl\version_6.1.2\lvgl/src/lv_hal/../lv_misc/lv_color.h **** } lv_color32_t;
 252:..\..\..\lvgl\version_6.1.2\lvgl/src/lv_hal/../lv_misc/lv_color.h **** 
 253:..\..\..\lvgl\version_6.1.2\lvgl/src/lv_hal/../lv_misc/lv_color.h **** #if LV_COLOR_DEPTH == 1
 254:..\..\..\lvgl\version_6.1.2\lvgl/src/lv_hal/../lv_misc/lv_color.h **** typedef uint8_t lv_color_int_t;
 255:..\..\..\lvgl\version_6.1.2\lvgl/src/lv_hal/../lv_misc/lv_color.h **** typedef lv_color1_t lv_color_t;
 256:..\..\..\lvgl\version_6.1.2\lvgl/src/lv_hal/../lv_misc/lv_color.h **** #elif LV_COLOR_DEPTH == 8
 257:..\..\..\lvgl\version_6.1.2\lvgl/src/lv_hal/../lv_misc/lv_color.h **** typedef uint8_t lv_color_int_t;
ARM GAS  C:\Users\tmj32\AppData\Local\Temp\ccmPTl49.s 			page 6


 258:..\..\..\lvgl\version_6.1.2\lvgl/src/lv_hal/../lv_misc/lv_color.h **** typedef lv_color8_t lv_color_t;
 259:..\..\..\lvgl\version_6.1.2\lvgl/src/lv_hal/../lv_misc/lv_color.h **** #elif LV_COLOR_DEPTH == 16
 260:..\..\..\lvgl\version_6.1.2\lvgl/src/lv_hal/../lv_misc/lv_color.h **** typedef uint16_t lv_color_int_t;
 261:..\..\..\lvgl\version_6.1.2\lvgl/src/lv_hal/../lv_misc/lv_color.h **** typedef lv_color16_t lv_color_t;
 262:..\..\..\lvgl\version_6.1.2\lvgl/src/lv_hal/../lv_misc/lv_color.h **** #elif LV_COLOR_DEPTH == 32
 263:..\..\..\lvgl\version_6.1.2\lvgl/src/lv_hal/../lv_misc/lv_color.h **** typedef uint32_t lv_color_int_t;
 264:..\..\..\lvgl\version_6.1.2\lvgl/src/lv_hal/../lv_misc/lv_color.h **** typedef lv_color32_t lv_color_t;
 265:..\..\..\lvgl\version_6.1.2\lvgl/src/lv_hal/../lv_misc/lv_color.h **** #else
 266:..\..\..\lvgl\version_6.1.2\lvgl/src/lv_hal/../lv_misc/lv_color.h **** #error "Invalid LV_COLOR_DEPTH in lv_conf.h! Set it to 1, 8, 16 or 32!"
 267:..\..\..\lvgl\version_6.1.2\lvgl/src/lv_hal/../lv_misc/lv_color.h **** #endif
 268:..\..\..\lvgl\version_6.1.2\lvgl/src/lv_hal/../lv_misc/lv_color.h **** 
 269:..\..\..\lvgl\version_6.1.2\lvgl/src/lv_hal/../lv_misc/lv_color.h **** typedef uint8_t lv_opa_t;
 270:..\..\..\lvgl\version_6.1.2\lvgl/src/lv_hal/../lv_misc/lv_color.h **** 
 271:..\..\..\lvgl\version_6.1.2\lvgl/src/lv_hal/../lv_misc/lv_color.h **** typedef struct
 272:..\..\..\lvgl\version_6.1.2\lvgl/src/lv_hal/../lv_misc/lv_color.h **** {
 273:..\..\..\lvgl\version_6.1.2\lvgl/src/lv_hal/../lv_misc/lv_color.h ****     uint16_t h;
 274:..\..\..\lvgl\version_6.1.2\lvgl/src/lv_hal/../lv_misc/lv_color.h ****     uint8_t s;
 275:..\..\..\lvgl\version_6.1.2\lvgl/src/lv_hal/../lv_misc/lv_color.h ****     uint8_t v;
 276:..\..\..\lvgl\version_6.1.2\lvgl/src/lv_hal/../lv_misc/lv_color.h **** } lv_color_hsv_t;
 277:..\..\..\lvgl\version_6.1.2\lvgl/src/lv_hal/../lv_misc/lv_color.h **** 
 278:..\..\..\lvgl\version_6.1.2\lvgl/src/lv_hal/../lv_misc/lv_color.h **** /**********************
 279:..\..\..\lvgl\version_6.1.2\lvgl/src/lv_hal/../lv_misc/lv_color.h ****  * GLOBAL PROTOTYPES
 280:..\..\..\lvgl\version_6.1.2\lvgl/src/lv_hal/../lv_misc/lv_color.h ****  **********************/
 281:..\..\..\lvgl\version_6.1.2\lvgl/src/lv_hal/../lv_misc/lv_color.h **** 
 282:..\..\..\lvgl\version_6.1.2\lvgl/src/lv_hal/../lv_misc/lv_color.h **** /*In color conversations:
 283:..\..\..\lvgl\version_6.1.2\lvgl/src/lv_hal/../lv_misc/lv_color.h ****  * - When converting to bigger color type the LSB weight of 1 LSB is calculated
 284:..\..\..\lvgl\version_6.1.2\lvgl/src/lv_hal/../lv_misc/lv_color.h ****  *   E.g. 16 bit Red has 5 bits
 285:..\..\..\lvgl\version_6.1.2\lvgl/src/lv_hal/../lv_misc/lv_color.h ****  *         8 bit Red has 2 bits
 286:..\..\..\lvgl\version_6.1.2\lvgl/src/lv_hal/../lv_misc/lv_color.h ****  *        ----------------------
 287:..\..\..\lvgl\version_6.1.2\lvgl/src/lv_hal/../lv_misc/lv_color.h ****  *        8 bit red LSB = (2^5 - 1) / (2^2 - 1) = 31 / 3 = 10
 288:..\..\..\lvgl\version_6.1.2\lvgl/src/lv_hal/../lv_misc/lv_color.h ****  *
 289:..\..\..\lvgl\version_6.1.2\lvgl/src/lv_hal/../lv_misc/lv_color.h ****  * - When calculating to smaller color type simply shift out the LSBs
 290:..\..\..\lvgl\version_6.1.2\lvgl/src/lv_hal/../lv_misc/lv_color.h ****  *   E.g.  8 bit Red has 2 bits
 291:..\..\..\lvgl\version_6.1.2\lvgl/src/lv_hal/../lv_misc/lv_color.h ****  *        16 bit Red has 5 bits
 292:..\..\..\lvgl\version_6.1.2\lvgl/src/lv_hal/../lv_misc/lv_color.h ****  *        ----------------------
 293:..\..\..\lvgl\version_6.1.2\lvgl/src/lv_hal/../lv_misc/lv_color.h ****  *         Shift right with 5 - 3 = 2
 294:..\..\..\lvgl\version_6.1.2\lvgl/src/lv_hal/../lv_misc/lv_color.h ****  */
 295:..\..\..\lvgl\version_6.1.2\lvgl/src/lv_hal/../lv_misc/lv_color.h **** 
 296:..\..\..\lvgl\version_6.1.2\lvgl/src/lv_hal/../lv_misc/lv_color.h **** static inline uint8_t lv_color_to1(lv_color_t color)
 297:..\..\..\lvgl\version_6.1.2\lvgl/src/lv_hal/../lv_misc/lv_color.h **** {
 298:..\..\..\lvgl\version_6.1.2\lvgl/src/lv_hal/../lv_misc/lv_color.h **** #if LV_COLOR_DEPTH == 1
 299:..\..\..\lvgl\version_6.1.2\lvgl/src/lv_hal/../lv_misc/lv_color.h ****     return color.full;
 300:..\..\..\lvgl\version_6.1.2\lvgl/src/lv_hal/../lv_misc/lv_color.h **** #elif LV_COLOR_DEPTH == 8
 301:..\..\..\lvgl\version_6.1.2\lvgl/src/lv_hal/../lv_misc/lv_color.h ****     if((LV_COLOR_GET_R(color) & 0x4) || (LV_COLOR_GET_G(color) & 0x4) || (LV_COLOR_GET_B(color) & 0
 302:..\..\..\lvgl\version_6.1.2\lvgl/src/lv_hal/../lv_misc/lv_color.h ****         return 1;
 303:..\..\..\lvgl\version_6.1.2\lvgl/src/lv_hal/../lv_misc/lv_color.h ****     } else {
 304:..\..\..\lvgl\version_6.1.2\lvgl/src/lv_hal/../lv_misc/lv_color.h ****         return 0;
 305:..\..\..\lvgl\version_6.1.2\lvgl/src/lv_hal/../lv_misc/lv_color.h ****     }
 306:..\..\..\lvgl\version_6.1.2\lvgl/src/lv_hal/../lv_misc/lv_color.h **** #elif LV_COLOR_DEPTH == 16
 307:..\..\..\lvgl\version_6.1.2\lvgl/src/lv_hal/../lv_misc/lv_color.h ****     if((LV_COLOR_GET_R(color) & 0x10) || (LV_COLOR_GET_G(color) & 0x20) || (LV_COLOR_GET_B(color) &
 308:..\..\..\lvgl\version_6.1.2\lvgl/src/lv_hal/../lv_misc/lv_color.h ****         return 1;
 309:..\..\..\lvgl\version_6.1.2\lvgl/src/lv_hal/../lv_misc/lv_color.h ****     } else {
 310:..\..\..\lvgl\version_6.1.2\lvgl/src/lv_hal/../lv_misc/lv_color.h ****         return 0;
 311:..\..\..\lvgl\version_6.1.2\lvgl/src/lv_hal/../lv_misc/lv_color.h ****     }
 312:..\..\..\lvgl\version_6.1.2\lvgl/src/lv_hal/../lv_misc/lv_color.h **** #elif LV_COLOR_DEPTH == 32
 313:..\..\..\lvgl\version_6.1.2\lvgl/src/lv_hal/../lv_misc/lv_color.h ****     if((LV_COLOR_GET_R(color) & 0x80) || (LV_COLOR_GET_G(color) & 0x80) || (LV_COLOR_GET_B(color) &
 314:..\..\..\lvgl\version_6.1.2\lvgl/src/lv_hal/../lv_misc/lv_color.h ****         return 1;
ARM GAS  C:\Users\tmj32\AppData\Local\Temp\ccmPTl49.s 			page 7


 315:..\..\..\lvgl\version_6.1.2\lvgl/src/lv_hal/../lv_misc/lv_color.h ****     } else {
 316:..\..\..\lvgl\version_6.1.2\lvgl/src/lv_hal/../lv_misc/lv_color.h ****         return 0;
 317:..\..\..\lvgl\version_6.1.2\lvgl/src/lv_hal/../lv_misc/lv_color.h ****     }
 318:..\..\..\lvgl\version_6.1.2\lvgl/src/lv_hal/../lv_misc/lv_color.h **** #endif
 319:..\..\..\lvgl\version_6.1.2\lvgl/src/lv_hal/../lv_misc/lv_color.h **** }
 320:..\..\..\lvgl\version_6.1.2\lvgl/src/lv_hal/../lv_misc/lv_color.h **** 
 321:..\..\..\lvgl\version_6.1.2\lvgl/src/lv_hal/../lv_misc/lv_color.h **** static inline uint8_t lv_color_to8(lv_color_t color)
 322:..\..\..\lvgl\version_6.1.2\lvgl/src/lv_hal/../lv_misc/lv_color.h **** {
 323:..\..\..\lvgl\version_6.1.2\lvgl/src/lv_hal/../lv_misc/lv_color.h **** #if LV_COLOR_DEPTH == 1
 324:..\..\..\lvgl\version_6.1.2\lvgl/src/lv_hal/../lv_misc/lv_color.h ****     if(color.full == 0)
 325:..\..\..\lvgl\version_6.1.2\lvgl/src/lv_hal/../lv_misc/lv_color.h ****         return 0;
 326:..\..\..\lvgl\version_6.1.2\lvgl/src/lv_hal/../lv_misc/lv_color.h ****     else
 327:..\..\..\lvgl\version_6.1.2\lvgl/src/lv_hal/../lv_misc/lv_color.h ****         return 0xFF;
 328:..\..\..\lvgl\version_6.1.2\lvgl/src/lv_hal/../lv_misc/lv_color.h **** #elif LV_COLOR_DEPTH == 8
 329:..\..\..\lvgl\version_6.1.2\lvgl/src/lv_hal/../lv_misc/lv_color.h ****     return color.full;
 330:..\..\..\lvgl\version_6.1.2\lvgl/src/lv_hal/../lv_misc/lv_color.h **** #elif LV_COLOR_DEPTH == 16
 331:..\..\..\lvgl\version_6.1.2\lvgl/src/lv_hal/../lv_misc/lv_color.h ****     lv_color8_t ret;
 332:..\..\..\lvgl\version_6.1.2\lvgl/src/lv_hal/../lv_misc/lv_color.h ****     LV_COLOR_SET_R8(ret, LV_COLOR_GET_R(color) >> 2);   /* 5 - 3  = 2*/
 333:..\..\..\lvgl\version_6.1.2\lvgl/src/lv_hal/../lv_misc/lv_color.h ****     LV_COLOR_SET_G8(ret, LV_COLOR_GET_G(color) >> 3); /* 6 - 3  = 3*/
 334:..\..\..\lvgl\version_6.1.2\lvgl/src/lv_hal/../lv_misc/lv_color.h ****     LV_COLOR_SET_B8(ret, LV_COLOR_GET_B(color) >> 3);  /* 5 - 2  = 3*/
 335:..\..\..\lvgl\version_6.1.2\lvgl/src/lv_hal/../lv_misc/lv_color.h ****     return ret.full;
 336:..\..\..\lvgl\version_6.1.2\lvgl/src/lv_hal/../lv_misc/lv_color.h **** #elif LV_COLOR_DEPTH == 32
 337:..\..\..\lvgl\version_6.1.2\lvgl/src/lv_hal/../lv_misc/lv_color.h ****     lv_color8_t ret;
 338:..\..\..\lvgl\version_6.1.2\lvgl/src/lv_hal/../lv_misc/lv_color.h ****     LV_COLOR_SET_R8(ret, LV_COLOR_GET_R(color) >> 5);   /* 8 - 3  = 5*/
 339:..\..\..\lvgl\version_6.1.2\lvgl/src/lv_hal/../lv_misc/lv_color.h ****     LV_COLOR_SET_G8(ret, LV_COLOR_GET_G(color) >> 5); /* 8 - 3  = 5*/
 340:..\..\..\lvgl\version_6.1.2\lvgl/src/lv_hal/../lv_misc/lv_color.h ****     LV_COLOR_SET_B8(ret, LV_COLOR_GET_B(color) >> 6);  /* 8 - 2  = 6*/
 341:..\..\..\lvgl\version_6.1.2\lvgl/src/lv_hal/../lv_misc/lv_color.h ****     return ret.full;
 342:..\..\..\lvgl\version_6.1.2\lvgl/src/lv_hal/../lv_misc/lv_color.h **** #endif
 343:..\..\..\lvgl\version_6.1.2\lvgl/src/lv_hal/../lv_misc/lv_color.h **** }
 344:..\..\..\lvgl\version_6.1.2\lvgl/src/lv_hal/../lv_misc/lv_color.h **** 
 345:..\..\..\lvgl\version_6.1.2\lvgl/src/lv_hal/../lv_misc/lv_color.h **** static inline uint16_t lv_color_to16(lv_color_t color)
 346:..\..\..\lvgl\version_6.1.2\lvgl/src/lv_hal/../lv_misc/lv_color.h **** {
 347:..\..\..\lvgl\version_6.1.2\lvgl/src/lv_hal/../lv_misc/lv_color.h **** #if LV_COLOR_DEPTH == 1
 348:..\..\..\lvgl\version_6.1.2\lvgl/src/lv_hal/../lv_misc/lv_color.h ****     if(color.full == 0)
 349:..\..\..\lvgl\version_6.1.2\lvgl/src/lv_hal/../lv_misc/lv_color.h ****         return 0;
 350:..\..\..\lvgl\version_6.1.2\lvgl/src/lv_hal/../lv_misc/lv_color.h ****     else
 351:..\..\..\lvgl\version_6.1.2\lvgl/src/lv_hal/../lv_misc/lv_color.h ****         return 0xFFFF;
 352:..\..\..\lvgl\version_6.1.2\lvgl/src/lv_hal/../lv_misc/lv_color.h **** #elif LV_COLOR_DEPTH == 8
 353:..\..\..\lvgl\version_6.1.2\lvgl/src/lv_hal/../lv_misc/lv_color.h ****     lv_color16_t ret;
 354:..\..\..\lvgl\version_6.1.2\lvgl/src/lv_hal/../lv_misc/lv_color.h ****     LV_COLOR_SET_R16(ret, LV_COLOR_GET_R(color) * 4);     /*(2^5 - 1)/(2^3 - 1) = 31/7 = 4*/
 355:..\..\..\lvgl\version_6.1.2\lvgl/src/lv_hal/../lv_misc/lv_color.h **** #if LV_COLOR_16_SWAP == 0
 356:..\..\..\lvgl\version_6.1.2\lvgl/src/lv_hal/../lv_misc/lv_color.h ****     LV_COLOR_SET_G16(ret,  LV_COLOR_GET_G(color) * 9); /*(2^6 - 1)/(2^3 - 1) = 63/7 = 9*/
 357:..\..\..\lvgl\version_6.1.2\lvgl/src/lv_hal/../lv_misc/lv_color.h **** #else
 358:..\..\..\lvgl\version_6.1.2\lvgl/src/lv_hal/../lv_misc/lv_color.h ****     LV_COLOR_SET_G16_SWAP(ret, (LV_COLOR_GET_G(color) * 9)); /*(2^6 - 1)/(2^3 - 1) = 63/7 = 9*/
 359:..\..\..\lvgl\version_6.1.2\lvgl/src/lv_hal/../lv_misc/lv_color.h **** #endif
 360:..\..\..\lvgl\version_6.1.2\lvgl/src/lv_hal/../lv_misc/lv_color.h ****     LV_COLOR_SET_B16(ret, LV_COLOR_GET_B(color) * 10);  /*(2^5 - 1)/(2^2 - 1) = 31/3 = 10*/
 361:..\..\..\lvgl\version_6.1.2\lvgl/src/lv_hal/../lv_misc/lv_color.h ****     return ret.full;
 362:..\..\..\lvgl\version_6.1.2\lvgl/src/lv_hal/../lv_misc/lv_color.h **** #elif LV_COLOR_DEPTH == 16
 363:..\..\..\lvgl\version_6.1.2\lvgl/src/lv_hal/../lv_misc/lv_color.h ****     return color.full;
 364:..\..\..\lvgl\version_6.1.2\lvgl/src/lv_hal/../lv_misc/lv_color.h **** #elif LV_COLOR_DEPTH == 32
 365:..\..\..\lvgl\version_6.1.2\lvgl/src/lv_hal/../lv_misc/lv_color.h ****     lv_color16_t ret;
 366:..\..\..\lvgl\version_6.1.2\lvgl/src/lv_hal/../lv_misc/lv_color.h ****     LV_COLOR_SET_R16(ret, LV_COLOR_GET_R(color) >> 3);   /* 8 - 5  = 3*/
 367:..\..\..\lvgl\version_6.1.2\lvgl/src/lv_hal/../lv_misc/lv_color.h **** 
 368:..\..\..\lvgl\version_6.1.2\lvgl/src/lv_hal/../lv_misc/lv_color.h **** #if LV_COLOR_16_SWAP == 0
 369:..\..\..\lvgl\version_6.1.2\lvgl/src/lv_hal/../lv_misc/lv_color.h ****     LV_COLOR_SET_G16(ret, LV_COLOR_GET_G(color) >> 2); /* 8 - 6  = 2*/
 370:..\..\..\lvgl\version_6.1.2\lvgl/src/lv_hal/../lv_misc/lv_color.h **** #else
 371:..\..\..\lvgl\version_6.1.2\lvgl/src/lv_hal/../lv_misc/lv_color.h ****     LV_COLOR_SET_G16_SWAP(ret, ret.ch.green_h = (LV_COLOR_GET_G(color) >> 2); /*(2^6 - 1)/(2^3 - 1)
ARM GAS  C:\Users\tmj32\AppData\Local\Temp\ccmPTl49.s 			page 8


 372:..\..\..\lvgl\version_6.1.2\lvgl/src/lv_hal/../lv_misc/lv_color.h **** #endif
 373:..\..\..\lvgl\version_6.1.2\lvgl/src/lv_hal/../lv_misc/lv_color.h ****     LV_COLOR_SET_B16(ret, LV_COLOR_GET_B(color) >> 3);  /* 8 - 5  = 3*/
 374:..\..\..\lvgl\version_6.1.2\lvgl/src/lv_hal/../lv_misc/lv_color.h ****     return ret.full;
 375:..\..\..\lvgl\version_6.1.2\lvgl/src/lv_hal/../lv_misc/lv_color.h **** #endif                         
 376:..\..\..\lvgl\version_6.1.2\lvgl/src/lv_hal/../lv_misc/lv_color.h **** }
 377:..\..\..\lvgl\version_6.1.2\lvgl/src/lv_hal/../lv_misc/lv_color.h **** 
 378:..\..\..\lvgl\version_6.1.2\lvgl/src/lv_hal/../lv_misc/lv_color.h **** static inline uint32_t lv_color_to32(lv_color_t color)
 379:..\..\..\lvgl\version_6.1.2\lvgl/src/lv_hal/../lv_misc/lv_color.h **** {
 380:..\..\..\lvgl\version_6.1.2\lvgl/src/lv_hal/../lv_misc/lv_color.h **** #if LV_COLOR_DEPTH == 1
 381:..\..\..\lvgl\version_6.1.2\lvgl/src/lv_hal/../lv_misc/lv_color.h ****     if(color.full == 0)
 382:..\..\..\lvgl\version_6.1.2\lvgl/src/lv_hal/../lv_misc/lv_color.h ****         return 0;
 383:..\..\..\lvgl\version_6.1.2\lvgl/src/lv_hal/../lv_misc/lv_color.h ****     else
 384:..\..\..\lvgl\version_6.1.2\lvgl/src/lv_hal/../lv_misc/lv_color.h ****         return 0xFFFFFFFF;
 385:..\..\..\lvgl\version_6.1.2\lvgl/src/lv_hal/../lv_misc/lv_color.h **** #elif LV_COLOR_DEPTH == 8
 386:..\..\..\lvgl\version_6.1.2\lvgl/src/lv_hal/../lv_misc/lv_color.h ****     lv_color32_t ret;
 387:..\..\..\lvgl\version_6.1.2\lvgl/src/lv_hal/../lv_misc/lv_color.h ****     LV_COLOR_SET_R32(ret, LV_COLOR_GET_R(color) * 36);     /*(2^8 - 1)/(2^3 - 1) = 255/7 = 36*/
 388:..\..\..\lvgl\version_6.1.2\lvgl/src/lv_hal/../lv_misc/lv_color.h ****     LV_COLOR_SET_G32(ret, LV_COLOR_GET_G(color) * 36); /*(2^8 - 1)/(2^3 - 1) = 255/7 = 36*/
 389:..\..\..\lvgl\version_6.1.2\lvgl/src/lv_hal/../lv_misc/lv_color.h ****     LV_COLOR_SET_B32(ret, LV_COLOR_GET_B(color) * 85);   /*(2^8 - 1)/(2^2 - 1) = 255/3 = 85*/
 390:..\..\..\lvgl\version_6.1.2\lvgl/src/lv_hal/../lv_misc/lv_color.h ****     LV_COLOR_SET_A32(ret, 0xFF);
 391:..\..\..\lvgl\version_6.1.2\lvgl/src/lv_hal/../lv_misc/lv_color.h ****     return ret.full;
 392:..\..\..\lvgl\version_6.1.2\lvgl/src/lv_hal/../lv_misc/lv_color.h **** #elif LV_COLOR_DEPTH == 16
 393:..\..\..\lvgl\version_6.1.2\lvgl/src/lv_hal/../lv_misc/lv_color.h ****     /**
 394:..\..\..\lvgl\version_6.1.2\lvgl/src/lv_hal/../lv_misc/lv_color.h ****      * The floating point math for conversion is:
 395:..\..\..\lvgl\version_6.1.2\lvgl/src/lv_hal/../lv_misc/lv_color.h ****      *  valueto = valuefrom * ( (2^bitsto - 1) / (float)(2^bitsfrom - 1) )
 396:..\..\..\lvgl\version_6.1.2\lvgl/src/lv_hal/../lv_misc/lv_color.h ****      * The faster integer math for conversion is:
 397:..\..\..\lvgl\version_6.1.2\lvgl/src/lv_hal/../lv_misc/lv_color.h ****      *  valueto = ( valuefrom * multiplier + adder ) >> divisor
 398:..\..\..\lvgl\version_6.1.2\lvgl/src/lv_hal/../lv_misc/lv_color.h ****      *   multiplier = FLOOR( ( (2^bitsto - 1) << divisor ) / (float)(2^bitsfrom - 1) )
 399:..\..\..\lvgl\version_6.1.2\lvgl/src/lv_hal/../lv_misc/lv_color.h ****      * 
 400:..\..\..\lvgl\version_6.1.2\lvgl/src/lv_hal/../lv_misc/lv_color.h ****      * Find the first divisor where ( adder >> divisor ) <= 0
 401:..\..\..\lvgl\version_6.1.2\lvgl/src/lv_hal/../lv_misc/lv_color.h ****      * 
 402:..\..\..\lvgl\version_6.1.2\lvgl/src/lv_hal/../lv_misc/lv_color.h ****      * 5-bit to 8-bit: ( 31 * multiplier + adder ) >> divisor = 255
 403:..\..\..\lvgl\version_6.1.2\lvgl/src/lv_hal/../lv_misc/lv_color.h ****      * divisor  multiplier  adder  min (0)  max (31)
 404:..\..\..\lvgl\version_6.1.2\lvgl/src/lv_hal/../lv_misc/lv_color.h ****      *       0           8      7        7       255
 405:..\..\..\lvgl\version_6.1.2\lvgl/src/lv_hal/../lv_misc/lv_color.h ****      *       1          16     14        7       255
 406:..\..\..\lvgl\version_6.1.2\lvgl/src/lv_hal/../lv_misc/lv_color.h ****      *       2          32     28        7       255
 407:..\..\..\lvgl\version_6.1.2\lvgl/src/lv_hal/../lv_misc/lv_color.h ****      *       3          65     25        3       255
 408:..\..\..\lvgl\version_6.1.2\lvgl/src/lv_hal/../lv_misc/lv_color.h ****      *       4         131     19        1       255
 409:..\..\..\lvgl\version_6.1.2\lvgl/src/lv_hal/../lv_misc/lv_color.h ****      *       5         263      7        0       255
 410:..\..\..\lvgl\version_6.1.2\lvgl/src/lv_hal/../lv_misc/lv_color.h ****      * 
 411:..\..\..\lvgl\version_6.1.2\lvgl/src/lv_hal/../lv_misc/lv_color.h ****      * 6-bit to 8-bit: 255 = ( 63 * multiplier + adder ) >> divisor
 412:..\..\..\lvgl\version_6.1.2\lvgl/src/lv_hal/../lv_misc/lv_color.h ****      * divisor  multiplier  adder  min (0)  max (63)
 413:..\..\..\lvgl\version_6.1.2\lvgl/src/lv_hal/../lv_misc/lv_color.h ****      *       0           4      3        3       255
 414:..\..\..\lvgl\version_6.1.2\lvgl/src/lv_hal/../lv_misc/lv_color.h ****      *       1           8      6        3       255
 415:..\..\..\lvgl\version_6.1.2\lvgl/src/lv_hal/../lv_misc/lv_color.h ****      *       2          16     12        3       255
 416:..\..\..\lvgl\version_6.1.2\lvgl/src/lv_hal/../lv_misc/lv_color.h ****      *       3          32     24        3       255
 417:..\..\..\lvgl\version_6.1.2\lvgl/src/lv_hal/../lv_misc/lv_color.h ****      *       4          64     48        3       255
 418:..\..\..\lvgl\version_6.1.2\lvgl/src/lv_hal/../lv_misc/lv_color.h ****      *       5         129     33        1       255
 419:..\..\..\lvgl\version_6.1.2\lvgl/src/lv_hal/../lv_misc/lv_color.h ****      *       6         259      3        0       255
 420:..\..\..\lvgl\version_6.1.2\lvgl/src/lv_hal/../lv_misc/lv_color.h ****      */
 421:..\..\..\lvgl\version_6.1.2\lvgl/src/lv_hal/../lv_misc/lv_color.h ****     lv_color32_t ret;
 422:..\..\..\lvgl\version_6.1.2\lvgl/src/lv_hal/../lv_misc/lv_color.h ****     LV_COLOR_SET_R32(ret, (LV_COLOR_GET_R(color) * 263 + 7 ) >> 5);
 423:..\..\..\lvgl\version_6.1.2\lvgl/src/lv_hal/../lv_misc/lv_color.h ****     LV_COLOR_SET_G32(ret, (LV_COLOR_GET_G(color) * 259 + 3 ) >> 6);
 424:..\..\..\lvgl\version_6.1.2\lvgl/src/lv_hal/../lv_misc/lv_color.h ****     LV_COLOR_SET_B32(ret, (LV_COLOR_GET_B(color) * 263 + 7 ) >> 5);
 425:..\..\..\lvgl\version_6.1.2\lvgl/src/lv_hal/../lv_misc/lv_color.h ****     LV_COLOR_SET_A32(ret, 0xFF);
 426:..\..\..\lvgl\version_6.1.2\lvgl/src/lv_hal/../lv_misc/lv_color.h ****     return ret.full;
 427:..\..\..\lvgl\version_6.1.2\lvgl/src/lv_hal/../lv_misc/lv_color.h **** #elif LV_COLOR_DEPTH == 32
 428:..\..\..\lvgl\version_6.1.2\lvgl/src/lv_hal/../lv_misc/lv_color.h ****     return color.full;
ARM GAS  C:\Users\tmj32\AppData\Local\Temp\ccmPTl49.s 			page 9


 429:..\..\..\lvgl\version_6.1.2\lvgl/src/lv_hal/../lv_misc/lv_color.h **** #endif
 430:..\..\..\lvgl\version_6.1.2\lvgl/src/lv_hal/../lv_misc/lv_color.h **** }
 431:..\..\..\lvgl\version_6.1.2\lvgl/src/lv_hal/../lv_misc/lv_color.h **** 
 432:..\..\..\lvgl\version_6.1.2\lvgl/src/lv_hal/../lv_misc/lv_color.h **** static inline lv_color_t lv_color_mix(lv_color_t c1, lv_color_t c2, uint8_t mix)
 433:..\..\..\lvgl\version_6.1.2\lvgl/src/lv_hal/../lv_misc/lv_color.h **** {
 434:..\..\..\lvgl\version_6.1.2\lvgl/src/lv_hal/../lv_misc/lv_color.h ****     lv_color_t ret;
 435:..\..\..\lvgl\version_6.1.2\lvgl/src/lv_hal/../lv_misc/lv_color.h **** #if LV_COLOR_DEPTH != 1
 436:..\..\..\lvgl\version_6.1.2\lvgl/src/lv_hal/../lv_misc/lv_color.h ****     /*LV_COLOR_DEPTH == 8, 16 or 32*/
 437:..\..\..\lvgl\version_6.1.2\lvgl/src/lv_hal/../lv_misc/lv_color.h ****     LV_COLOR_SET_R(ret, (uint16_t)((uint16_t) LV_COLOR_GET_R(c1) * mix + LV_COLOR_GET_R(c2) * (255 
 438:..\..\..\lvgl\version_6.1.2\lvgl/src/lv_hal/../lv_misc/lv_color.h ****     LV_COLOR_SET_G(ret, (uint16_t)((uint16_t) LV_COLOR_GET_G(c1) * mix + LV_COLOR_GET_G(c2) * (255 
 439:..\..\..\lvgl\version_6.1.2\lvgl/src/lv_hal/../lv_misc/lv_color.h ****     LV_COLOR_SET_B(ret, (uint16_t)((uint16_t) LV_COLOR_GET_B(c1) * mix + LV_COLOR_GET_B(c2) * (255 
 440:..\..\..\lvgl\version_6.1.2\lvgl/src/lv_hal/../lv_misc/lv_color.h ****     LV_COLOR_SET_A(ret, 0xFF);
 441:..\..\..\lvgl\version_6.1.2\lvgl/src/lv_hal/../lv_misc/lv_color.h **** #else
 442:..\..\..\lvgl\version_6.1.2\lvgl/src/lv_hal/../lv_misc/lv_color.h ****     /*LV_COLOR_DEPTH == 1*/
 443:..\..\..\lvgl\version_6.1.2\lvgl/src/lv_hal/../lv_misc/lv_color.h ****     ret.full = mix > LV_OPA_50 ? c1.full : c2.full;
 444:..\..\..\lvgl\version_6.1.2\lvgl/src/lv_hal/../lv_misc/lv_color.h **** #endif
 445:..\..\..\lvgl\version_6.1.2\lvgl/src/lv_hal/../lv_misc/lv_color.h **** 
 446:..\..\..\lvgl\version_6.1.2\lvgl/src/lv_hal/../lv_misc/lv_color.h ****     return ret;
 447:..\..\..\lvgl\version_6.1.2\lvgl/src/lv_hal/../lv_misc/lv_color.h **** }
 448:..\..\..\lvgl\version_6.1.2\lvgl/src/lv_hal/../lv_misc/lv_color.h **** 
 449:..\..\..\lvgl\version_6.1.2\lvgl/src/lv_hal/../lv_misc/lv_color.h **** /**
 450:..\..\..\lvgl\version_6.1.2\lvgl/src/lv_hal/../lv_misc/lv_color.h ****  * Get the brightness of a color
 451:..\..\..\lvgl\version_6.1.2\lvgl/src/lv_hal/../lv_misc/lv_color.h ****  * @param color a color
 452:..\..\..\lvgl\version_6.1.2\lvgl/src/lv_hal/../lv_misc/lv_color.h ****  * @return the brightness [0..255]
 453:..\..\..\lvgl\version_6.1.2\lvgl/src/lv_hal/../lv_misc/lv_color.h ****  */
 454:..\..\..\lvgl\version_6.1.2\lvgl/src/lv_hal/../lv_misc/lv_color.h **** static inline uint8_t lv_color_brightness(lv_color_t color)
 455:..\..\..\lvgl\version_6.1.2\lvgl/src/lv_hal/../lv_misc/lv_color.h **** {
 456:..\..\..\lvgl\version_6.1.2\lvgl/src/lv_hal/../lv_misc/lv_color.h ****     lv_color32_t c32;
 457:..\..\..\lvgl\version_6.1.2\lvgl/src/lv_hal/../lv_misc/lv_color.h ****     c32.full        = lv_color_to32(color);
 458:..\..\..\lvgl\version_6.1.2\lvgl/src/lv_hal/../lv_misc/lv_color.h ****     uint16_t bright = (uint16_t)(3u * LV_COLOR_GET_R32(c32) + LV_COLOR_GET_B32(c32) + 4u * LV_COLOR
 459:..\..\..\lvgl\version_6.1.2\lvgl/src/lv_hal/../lv_misc/lv_color.h ****     return (uint8_t)(bright >> 3);
 460:..\..\..\lvgl\version_6.1.2\lvgl/src/lv_hal/../lv_misc/lv_color.h **** }
 461:..\..\..\lvgl\version_6.1.2\lvgl/src/lv_hal/../lv_misc/lv_color.h **** 
 462:..\..\..\lvgl\version_6.1.2\lvgl/src/lv_hal/../lv_misc/lv_color.h **** /* The most simple macro to create a color from R,G and B values */
 463:..\..\..\lvgl\version_6.1.2\lvgl/src/lv_hal/../lv_misc/lv_color.h **** #if LV_COLOR_DEPTH == 1
 464:..\..\..\lvgl\version_6.1.2\lvgl/src/lv_hal/../lv_misc/lv_color.h **** #define LV_COLOR_MAKE(r8, g8, b8) ((lv_color_t){.full = (uint8_t)((b8 >> 7) | (g8 >> 7) | (r8 >> 7)
 465:..\..\..\lvgl\version_6.1.2\lvgl/src/lv_hal/../lv_misc/lv_color.h **** #elif LV_COLOR_DEPTH == 8
 466:..\..\..\lvgl\version_6.1.2\lvgl/src/lv_hal/../lv_misc/lv_color.h **** #define LV_COLOR_MAKE(r8, g8, b8) ((lv_color_t){{(uint8_t)((b8 >> 6) & 0x3U), (uint8_t)((g8 >> 5) &
 467:..\..\..\lvgl\version_6.1.2\lvgl/src/lv_hal/../lv_misc/lv_color.h **** #elif LV_COLOR_DEPTH == 16
 468:..\..\..\lvgl\version_6.1.2\lvgl/src/lv_hal/../lv_misc/lv_color.h **** #if LV_COLOR_16_SWAP == 0
 469:..\..\..\lvgl\version_6.1.2\lvgl/src/lv_hal/../lv_misc/lv_color.h **** #define LV_COLOR_MAKE(r8, g8, b8) ((lv_color_t){{(uint16_t)((b8 >> 3) & 0x1FU), (uint16_t)((g8 >> 2
 470:..\..\..\lvgl\version_6.1.2\lvgl/src/lv_hal/../lv_misc/lv_color.h **** #else
 471:..\..\..\lvgl\version_6.1.2\lvgl/src/lv_hal/../lv_misc/lv_color.h **** #define LV_COLOR_MAKE(r8, g8, b8) ((lv_color_t){{(uint16_t)((g8 >> 5) & 0x7U), (uint16_t)((r8 >> 3)
 472:..\..\..\lvgl\version_6.1.2\lvgl/src/lv_hal/../lv_misc/lv_color.h **** #endif
 473:..\..\..\lvgl\version_6.1.2\lvgl/src/lv_hal/../lv_misc/lv_color.h **** #elif LV_COLOR_DEPTH == 32
 474:..\..\..\lvgl\version_6.1.2\lvgl/src/lv_hal/../lv_misc/lv_color.h **** #define LV_COLOR_MAKE(r8, g8, b8) ((lv_color_t){{b8, g8, r8, 0xff}}) /*Fix 0xff alpha*/
 475:..\..\..\lvgl\version_6.1.2\lvgl/src/lv_hal/../lv_misc/lv_color.h **** #endif
 476:..\..\..\lvgl\version_6.1.2\lvgl/src/lv_hal/../lv_misc/lv_color.h **** 
 477:..\..\..\lvgl\version_6.1.2\lvgl/src/lv_hal/../lv_misc/lv_color.h **** static inline lv_color_t lv_color_make(uint8_t r, uint8_t g, uint8_t b)
 478:..\..\..\lvgl\version_6.1.2\lvgl/src/lv_hal/../lv_misc/lv_color.h **** {
  29              		.loc 1 478 0
  30              		.cfi_startproc
  31              		@ args = 0, pretend = 0, frame = 8
  32              		@ frame_needed = 1, uses_anonymous_args = 0
  33              		@ link register save eliminated.
  34 0000 90B4     		push	{r4, r7}
  35              		.cfi_def_cfa_offset 8
ARM GAS  C:\Users\tmj32\AppData\Local\Temp\ccmPTl49.s 			page 10


  36              		.cfi_offset 4, -8
  37              		.cfi_offset 7, -4
  38 0002 82B0     		sub	sp, sp, #8
  39              		.cfi_def_cfa_offset 16
  40 0004 00AF     		add	r7, sp, #0
  41              		.cfi_def_cfa_register 7
  42 0006 0446     		mov	r4, r0
  43 0008 0846     		mov	r0, r1
  44 000a 1146     		mov	r1, r2
  45 000c 2246     		mov	r2, r4
  46 000e FA71     		strb	r2, [r7, #7]
  47 0010 0246     		mov	r2, r0
  48 0012 BA71     		strb	r2, [r7, #6]
  49 0014 0A46     		mov	r2, r1
  50 0016 7A71     		strb	r2, [r7, #5]
 479:..\..\..\lvgl\version_6.1.2\lvgl/src/lv_hal/../lv_misc/lv_color.h ****     return LV_COLOR_MAKE(r, g, b);
  51              		.loc 1 479 0
  52 0018 7A79     		ldrb	r2, [r7, #5]
  53 001a 62F30703 		bfi	r3, r2, #0, #8
  54 001e BA79     		ldrb	r2, [r7, #6]
  55 0020 62F30F23 		bfi	r3, r2, #8, #8
  56 0024 FA79     		ldrb	r2, [r7, #7]
  57 0026 62F31743 		bfi	r3, r2, #16, #8
  58 002a 43F07F43 		orr	r3, r3, #-16777216
 480:..\..\..\lvgl\version_6.1.2\lvgl/src/lv_hal/../lv_misc/lv_color.h **** }
  59              		.loc 1 480 0
  60 002e 1846     		mov	r0, r3
  61 0030 0837     		adds	r7, r7, #8
  62              		.cfi_def_cfa_offset 8
  63 0032 BD46     		mov	sp, r7
  64              		.cfi_def_cfa_register 13
  65              		@ sp needed
  66 0034 90BC     		pop	{r4, r7}
  67              		.cfi_restore 7
  68              		.cfi_restore 4
  69              		.cfi_def_cfa_offset 0
  70 0036 7047     		bx	lr
  71              		.cfi_endproc
  72              	.LFE588:
  73              		.size	lv_color_make, .-lv_color_make
  74              		.section	.text.lv_color_hex,"ax",%progbits
  75              		.align	2
  76              		.thumb
  77              		.thumb_func
  78              		.type	lv_color_hex, %function
  79              	lv_color_hex:
  80              	.LFB589:
 481:..\..\..\lvgl\version_6.1.2\lvgl/src/lv_hal/../lv_misc/lv_color.h **** 
 482:..\..\..\lvgl\version_6.1.2\lvgl/src/lv_hal/../lv_misc/lv_color.h **** static inline lv_color_t lv_color_hex(uint32_t c)
 483:..\..\..\lvgl\version_6.1.2\lvgl/src/lv_hal/../lv_misc/lv_color.h **** {
  81              		.loc 1 483 0
  82              		.cfi_startproc
  83              		@ args = 0, pretend = 0, frame = 8
  84              		@ frame_needed = 1, uses_anonymous_args = 0
  85 0000 80B5     		push	{r7, lr}
  86              		.cfi_def_cfa_offset 8
  87              		.cfi_offset 7, -8
ARM GAS  C:\Users\tmj32\AppData\Local\Temp\ccmPTl49.s 			page 11


  88              		.cfi_offset 14, -4
  89 0002 82B0     		sub	sp, sp, #8
  90              		.cfi_def_cfa_offset 16
  91 0004 00AF     		add	r7, sp, #0
  92              		.cfi_def_cfa_register 7
  93 0006 7860     		str	r0, [r7, #4]
 484:..\..\..\lvgl\version_6.1.2\lvgl/src/lv_hal/../lv_misc/lv_color.h ****     return lv_color_make((uint8_t)((c >> 16) & 0xFF), (uint8_t)((c >> 8) & 0xFF), (uint8_t)(c & 0xF
  94              		.loc 1 484 0
  95 0008 7B68     		ldr	r3, [r7, #4]
  96 000a 1B0C     		lsrs	r3, r3, #16
  97 000c D8B2     		uxtb	r0, r3
  98 000e 7B68     		ldr	r3, [r7, #4]
  99 0010 1B0A     		lsrs	r3, r3, #8
 100 0012 DBB2     		uxtb	r3, r3
 101 0014 7A68     		ldr	r2, [r7, #4]
 102 0016 D2B2     		uxtb	r2, r2
 103 0018 1946     		mov	r1, r3
 104 001a FFF7FEFF 		bl	lv_color_make
 105 001e 0346     		mov	r3, r0
 485:..\..\..\lvgl\version_6.1.2\lvgl/src/lv_hal/../lv_misc/lv_color.h **** }
 106              		.loc 1 485 0
 107 0020 1846     		mov	r0, r3
 108 0022 0837     		adds	r7, r7, #8
 109              		.cfi_def_cfa_offset 8
 110 0024 BD46     		mov	sp, r7
 111              		.cfi_def_cfa_register 13
 112              		@ sp needed
 113 0026 80BD     		pop	{r7, pc}
 114              		.cfi_endproc
 115              	.LFE589:
 116              		.size	lv_color_hex, .-lv_color_hex
 117              		.section	.text.lv_scr_act,"ax",%progbits
 118              		.align	2
 119              		.thumb
 120              		.thumb_func
 121              		.type	lv_scr_act, %function
 122              	lv_scr_act:
 123              	.LFB613:
 124              		.file 2 "..\\..\\..\\lvgl\\version_6.1.2\\lvgl/src/lv_core/lv_disp.h"
   1:..\..\..\lvgl\version_6.1.2\lvgl/src/lv_core/lv_disp.h **** /**
   2:..\..\..\lvgl\version_6.1.2\lvgl/src/lv_core/lv_disp.h ****  * @file lv_disp.h
   3:..\..\..\lvgl\version_6.1.2\lvgl/src/lv_core/lv_disp.h ****  *
   4:..\..\..\lvgl\version_6.1.2\lvgl/src/lv_core/lv_disp.h ****  */
   5:..\..\..\lvgl\version_6.1.2\lvgl/src/lv_core/lv_disp.h **** 
   6:..\..\..\lvgl\version_6.1.2\lvgl/src/lv_core/lv_disp.h **** #ifndef LV_DISP_H
   7:..\..\..\lvgl\version_6.1.2\lvgl/src/lv_core/lv_disp.h **** #define LV_DISP_H
   8:..\..\..\lvgl\version_6.1.2\lvgl/src/lv_core/lv_disp.h **** 
   9:..\..\..\lvgl\version_6.1.2\lvgl/src/lv_core/lv_disp.h **** #ifdef __cplusplus
  10:..\..\..\lvgl\version_6.1.2\lvgl/src/lv_core/lv_disp.h **** extern "C" {
  11:..\..\..\lvgl\version_6.1.2\lvgl/src/lv_core/lv_disp.h **** #endif
  12:..\..\..\lvgl\version_6.1.2\lvgl/src/lv_core/lv_disp.h **** 
  13:..\..\..\lvgl\version_6.1.2\lvgl/src/lv_core/lv_disp.h **** /*********************
  14:..\..\..\lvgl\version_6.1.2\lvgl/src/lv_core/lv_disp.h ****  *      INCLUDES
  15:..\..\..\lvgl\version_6.1.2\lvgl/src/lv_core/lv_disp.h ****  *********************/
  16:..\..\..\lvgl\version_6.1.2\lvgl/src/lv_core/lv_disp.h **** #include "../lv_hal/lv_hal.h"
  17:..\..\..\lvgl\version_6.1.2\lvgl/src/lv_core/lv_disp.h **** #include "lv_obj.h"
  18:..\..\..\lvgl\version_6.1.2\lvgl/src/lv_core/lv_disp.h **** 
ARM GAS  C:\Users\tmj32\AppData\Local\Temp\ccmPTl49.s 			page 12


  19:..\..\..\lvgl\version_6.1.2\lvgl/src/lv_core/lv_disp.h **** /*********************
  20:..\..\..\lvgl\version_6.1.2\lvgl/src/lv_core/lv_disp.h ****  *      DEFINES
  21:..\..\..\lvgl\version_6.1.2\lvgl/src/lv_core/lv_disp.h ****  *********************/
  22:..\..\..\lvgl\version_6.1.2\lvgl/src/lv_core/lv_disp.h **** 
  23:..\..\..\lvgl\version_6.1.2\lvgl/src/lv_core/lv_disp.h **** /**********************
  24:..\..\..\lvgl\version_6.1.2\lvgl/src/lv_core/lv_disp.h ****  *      TYPEDEFS
  25:..\..\..\lvgl\version_6.1.2\lvgl/src/lv_core/lv_disp.h ****  **********************/
  26:..\..\..\lvgl\version_6.1.2\lvgl/src/lv_core/lv_disp.h **** 
  27:..\..\..\lvgl\version_6.1.2\lvgl/src/lv_core/lv_disp.h **** /**********************
  28:..\..\..\lvgl\version_6.1.2\lvgl/src/lv_core/lv_disp.h ****  * GLOBAL PROTOTYPES
  29:..\..\..\lvgl\version_6.1.2\lvgl/src/lv_core/lv_disp.h ****  **********************/
  30:..\..\..\lvgl\version_6.1.2\lvgl/src/lv_core/lv_disp.h **** 
  31:..\..\..\lvgl\version_6.1.2\lvgl/src/lv_core/lv_disp.h **** /**
  32:..\..\..\lvgl\version_6.1.2\lvgl/src/lv_core/lv_disp.h ****  * Return with a pointer to the active screen
  33:..\..\..\lvgl\version_6.1.2\lvgl/src/lv_core/lv_disp.h ****  * @param disp pointer to display which active screen should be get. (NULL to use the default
  34:..\..\..\lvgl\version_6.1.2\lvgl/src/lv_core/lv_disp.h ****  * screen)
  35:..\..\..\lvgl\version_6.1.2\lvgl/src/lv_core/lv_disp.h ****  * @return pointer to the active screen object (loaded by 'lv_scr_load()')
  36:..\..\..\lvgl\version_6.1.2\lvgl/src/lv_core/lv_disp.h ****  */
  37:..\..\..\lvgl\version_6.1.2\lvgl/src/lv_core/lv_disp.h **** lv_obj_t * lv_disp_get_scr_act(lv_disp_t * disp);
  38:..\..\..\lvgl\version_6.1.2\lvgl/src/lv_core/lv_disp.h **** 
  39:..\..\..\lvgl\version_6.1.2\lvgl/src/lv_core/lv_disp.h **** /**
  40:..\..\..\lvgl\version_6.1.2\lvgl/src/lv_core/lv_disp.h ****  * Make a screen active
  41:..\..\..\lvgl\version_6.1.2\lvgl/src/lv_core/lv_disp.h ****  * @param scr pointer to a screen
  42:..\..\..\lvgl\version_6.1.2\lvgl/src/lv_core/lv_disp.h ****  */
  43:..\..\..\lvgl\version_6.1.2\lvgl/src/lv_core/lv_disp.h **** void lv_disp_load_scr(lv_obj_t * scr);
  44:..\..\..\lvgl\version_6.1.2\lvgl/src/lv_core/lv_disp.h **** 
  45:..\..\..\lvgl\version_6.1.2\lvgl/src/lv_core/lv_disp.h **** /**
  46:..\..\..\lvgl\version_6.1.2\lvgl/src/lv_core/lv_disp.h ****  * Return with the top layer. (Same on every screen and it is above the normal screen layer)
  47:..\..\..\lvgl\version_6.1.2\lvgl/src/lv_core/lv_disp.h ****  * @param disp pointer to display which top layer should be get. (NULL to use the default screen)
  48:..\..\..\lvgl\version_6.1.2\lvgl/src/lv_core/lv_disp.h ****  * @return pointer to the top layer object  (transparent screen sized lv_obj)
  49:..\..\..\lvgl\version_6.1.2\lvgl/src/lv_core/lv_disp.h ****  */
  50:..\..\..\lvgl\version_6.1.2\lvgl/src/lv_core/lv_disp.h **** lv_obj_t * lv_disp_get_layer_top(lv_disp_t * disp);
  51:..\..\..\lvgl\version_6.1.2\lvgl/src/lv_core/lv_disp.h **** 
  52:..\..\..\lvgl\version_6.1.2\lvgl/src/lv_core/lv_disp.h **** /**
  53:..\..\..\lvgl\version_6.1.2\lvgl/src/lv_core/lv_disp.h ****  * Return with the sys. layer. (Same on every screen and it is above the normal screen and the top
  54:..\..\..\lvgl\version_6.1.2\lvgl/src/lv_core/lv_disp.h ****  * layer)
  55:..\..\..\lvgl\version_6.1.2\lvgl/src/lv_core/lv_disp.h ****  * @param disp pointer to display which sys. layer  should be get. (NULL to use the default screen)
  56:..\..\..\lvgl\version_6.1.2\lvgl/src/lv_core/lv_disp.h ****  * @return pointer to the sys layer object  (transparent screen sized lv_obj)
  57:..\..\..\lvgl\version_6.1.2\lvgl/src/lv_core/lv_disp.h ****  */
  58:..\..\..\lvgl\version_6.1.2\lvgl/src/lv_core/lv_disp.h **** lv_obj_t * lv_disp_get_layer_sys(lv_disp_t * disp);
  59:..\..\..\lvgl\version_6.1.2\lvgl/src/lv_core/lv_disp.h **** 
  60:..\..\..\lvgl\version_6.1.2\lvgl/src/lv_core/lv_disp.h **** /**
  61:..\..\..\lvgl\version_6.1.2\lvgl/src/lv_core/lv_disp.h ****  * Assign a screen to a display.
  62:..\..\..\lvgl\version_6.1.2\lvgl/src/lv_core/lv_disp.h ****  * @param disp pointer to a display where to assign the screen
  63:..\..\..\lvgl\version_6.1.2\lvgl/src/lv_core/lv_disp.h ****  * @param scr pointer to a screen object to assign
  64:..\..\..\lvgl\version_6.1.2\lvgl/src/lv_core/lv_disp.h ****  */
  65:..\..\..\lvgl\version_6.1.2\lvgl/src/lv_core/lv_disp.h **** void lv_disp_assign_screen(lv_disp_t * disp, lv_obj_t * scr);
  66:..\..\..\lvgl\version_6.1.2\lvgl/src/lv_core/lv_disp.h **** 
  67:..\..\..\lvgl\version_6.1.2\lvgl/src/lv_core/lv_disp.h **** /**
  68:..\..\..\lvgl\version_6.1.2\lvgl/src/lv_core/lv_disp.h ****  * Get a pointer to the screen refresher task to
  69:..\..\..\lvgl\version_6.1.2\lvgl/src/lv_core/lv_disp.h ****  * modify its parameters with `lv_task_...` functions.
  70:..\..\..\lvgl\version_6.1.2\lvgl/src/lv_core/lv_disp.h ****  * @param disp pointer to a display
  71:..\..\..\lvgl\version_6.1.2\lvgl/src/lv_core/lv_disp.h ****  * @return pointer to the display refresher task. (NULL on error)
  72:..\..\..\lvgl\version_6.1.2\lvgl/src/lv_core/lv_disp.h ****  */
  73:..\..\..\lvgl\version_6.1.2\lvgl/src/lv_core/lv_disp.h **** lv_task_t * lv_disp_get_refr_task(lv_disp_t * disp);
  74:..\..\..\lvgl\version_6.1.2\lvgl/src/lv_core/lv_disp.h **** 
  75:..\..\..\lvgl\version_6.1.2\lvgl/src/lv_core/lv_disp.h **** /**
ARM GAS  C:\Users\tmj32\AppData\Local\Temp\ccmPTl49.s 			page 13


  76:..\..\..\lvgl\version_6.1.2\lvgl/src/lv_core/lv_disp.h ****  * Get elapsed time since last user activity on a display (e.g. click)
  77:..\..\..\lvgl\version_6.1.2\lvgl/src/lv_core/lv_disp.h ****  * @param disp pointer to an display (NULL to get the overall smallest inactivity)
  78:..\..\..\lvgl\version_6.1.2\lvgl/src/lv_core/lv_disp.h ****  * @return elapsed ticks (milliseconds) since the last activity
  79:..\..\..\lvgl\version_6.1.2\lvgl/src/lv_core/lv_disp.h ****  */
  80:..\..\..\lvgl\version_6.1.2\lvgl/src/lv_core/lv_disp.h **** uint32_t lv_disp_get_inactive_time(const lv_disp_t * disp);
  81:..\..\..\lvgl\version_6.1.2\lvgl/src/lv_core/lv_disp.h **** 
  82:..\..\..\lvgl\version_6.1.2\lvgl/src/lv_core/lv_disp.h **** /**
  83:..\..\..\lvgl\version_6.1.2\lvgl/src/lv_core/lv_disp.h ****  * Manually trigger an activity on a display
  84:..\..\..\lvgl\version_6.1.2\lvgl/src/lv_core/lv_disp.h ****  * @param disp pointer to an display (NULL to use the default display)
  85:..\..\..\lvgl\version_6.1.2\lvgl/src/lv_core/lv_disp.h ****  */
  86:..\..\..\lvgl\version_6.1.2\lvgl/src/lv_core/lv_disp.h **** void lv_disp_trig_activity(lv_disp_t * disp);
  87:..\..\..\lvgl\version_6.1.2\lvgl/src/lv_core/lv_disp.h **** 
  88:..\..\..\lvgl\version_6.1.2\lvgl/src/lv_core/lv_disp.h **** /*------------------------------------------------
  89:..\..\..\lvgl\version_6.1.2\lvgl/src/lv_core/lv_disp.h ****  * To improve backward compatibility
  90:..\..\..\lvgl\version_6.1.2\lvgl/src/lv_core/lv_disp.h ****  * Recommended only if you have one display
  91:..\..\..\lvgl\version_6.1.2\lvgl/src/lv_core/lv_disp.h ****  *------------------------------------------------*/
  92:..\..\..\lvgl\version_6.1.2\lvgl/src/lv_core/lv_disp.h **** 
  93:..\..\..\lvgl\version_6.1.2\lvgl/src/lv_core/lv_disp.h **** /**
  94:..\..\..\lvgl\version_6.1.2\lvgl/src/lv_core/lv_disp.h ****  * Get the active screen of the default display
  95:..\..\..\lvgl\version_6.1.2\lvgl/src/lv_core/lv_disp.h ****  * @return pointer to the active screen
  96:..\..\..\lvgl\version_6.1.2\lvgl/src/lv_core/lv_disp.h ****  */
  97:..\..\..\lvgl\version_6.1.2\lvgl/src/lv_core/lv_disp.h **** static inline lv_obj_t * lv_scr_act(void)
  98:..\..\..\lvgl\version_6.1.2\lvgl/src/lv_core/lv_disp.h **** {
 125              		.loc 2 98 0
 126              		.cfi_startproc
 127              		@ args = 0, pretend = 0, frame = 0
 128              		@ frame_needed = 1, uses_anonymous_args = 0
 129 0000 80B5     		push	{r7, lr}
 130              		.cfi_def_cfa_offset 8
 131              		.cfi_offset 7, -8
 132              		.cfi_offset 14, -4
 133 0002 00AF     		add	r7, sp, #0
 134              		.cfi_def_cfa_register 7
  99:..\..\..\lvgl\version_6.1.2\lvgl/src/lv_core/lv_disp.h ****     return lv_disp_get_scr_act(lv_disp_get_default());
 135              		.loc 2 99 0
 136 0004 FFF7FEFF 		bl	lv_disp_get_default
 137 0008 0346     		mov	r3, r0
 138 000a 1846     		mov	r0, r3
 139 000c FFF7FEFF 		bl	lv_disp_get_scr_act
 140 0010 0346     		mov	r3, r0
 100:..\..\..\lvgl\version_6.1.2\lvgl/src/lv_core/lv_disp.h **** }
 141              		.loc 2 100 0
 142 0012 1846     		mov	r0, r3
 143 0014 80BD     		pop	{r7, pc}
 144              		.cfi_endproc
 145              	.LFE613:
 146              		.size	lv_scr_act, .-lv_scr_act
 147 0016 00BF     		.section	.text.lv_slider_set_value,"ax",%progbits
 148              		.align	2
 149              		.thumb
 150              		.thumb_func
 151              		.type	lv_slider_set_value, %function
 152              	lv_slider_set_value:
 153              	.LFB668:
 154              		.file 3 "..\\..\\..\\lvgl\\version_6.1.2\\lvgl/src/lv_objx/lv_slider.h"
   1:..\..\..\lvgl\version_6.1.2\lvgl/src/lv_objx/lv_slider.h **** /**
   2:..\..\..\lvgl\version_6.1.2\lvgl/src/lv_objx/lv_slider.h ****  * @file lv_slider.h
ARM GAS  C:\Users\tmj32\AppData\Local\Temp\ccmPTl49.s 			page 14


   3:..\..\..\lvgl\version_6.1.2\lvgl/src/lv_objx/lv_slider.h ****  *
   4:..\..\..\lvgl\version_6.1.2\lvgl/src/lv_objx/lv_slider.h ****  */
   5:..\..\..\lvgl\version_6.1.2\lvgl/src/lv_objx/lv_slider.h **** 
   6:..\..\..\lvgl\version_6.1.2\lvgl/src/lv_objx/lv_slider.h **** #ifndef LV_SLIDER_H
   7:..\..\..\lvgl\version_6.1.2\lvgl/src/lv_objx/lv_slider.h **** #define LV_SLIDER_H
   8:..\..\..\lvgl\version_6.1.2\lvgl/src/lv_objx/lv_slider.h **** 
   9:..\..\..\lvgl\version_6.1.2\lvgl/src/lv_objx/lv_slider.h **** #ifdef __cplusplus
  10:..\..\..\lvgl\version_6.1.2\lvgl/src/lv_objx/lv_slider.h **** extern "C" {
  11:..\..\..\lvgl\version_6.1.2\lvgl/src/lv_objx/lv_slider.h **** #endif
  12:..\..\..\lvgl\version_6.1.2\lvgl/src/lv_objx/lv_slider.h **** 
  13:..\..\..\lvgl\version_6.1.2\lvgl/src/lv_objx/lv_slider.h **** /*********************
  14:..\..\..\lvgl\version_6.1.2\lvgl/src/lv_objx/lv_slider.h ****  *      INCLUDES
  15:..\..\..\lvgl\version_6.1.2\lvgl/src/lv_objx/lv_slider.h ****  *********************/
  16:..\..\..\lvgl\version_6.1.2\lvgl/src/lv_objx/lv_slider.h **** #ifdef LV_CONF_INCLUDE_SIMPLE
  17:..\..\..\lvgl\version_6.1.2\lvgl/src/lv_objx/lv_slider.h **** #include "lv_conf.h"
  18:..\..\..\lvgl\version_6.1.2\lvgl/src/lv_objx/lv_slider.h **** #else
  19:..\..\..\lvgl\version_6.1.2\lvgl/src/lv_objx/lv_slider.h **** #include "../../../lv_conf.h"
  20:..\..\..\lvgl\version_6.1.2\lvgl/src/lv_objx/lv_slider.h **** #endif
  21:..\..\..\lvgl\version_6.1.2\lvgl/src/lv_objx/lv_slider.h **** 
  22:..\..\..\lvgl\version_6.1.2\lvgl/src/lv_objx/lv_slider.h **** #if LV_USE_SLIDER != 0
  23:..\..\..\lvgl\version_6.1.2\lvgl/src/lv_objx/lv_slider.h **** 
  24:..\..\..\lvgl\version_6.1.2\lvgl/src/lv_objx/lv_slider.h **** /*Testing of dependencies*/
  25:..\..\..\lvgl\version_6.1.2\lvgl/src/lv_objx/lv_slider.h **** #if LV_USE_BAR == 0
  26:..\..\..\lvgl\version_6.1.2\lvgl/src/lv_objx/lv_slider.h **** #error "lv_slider: lv_bar is required. Enable it in lv_conf.h (LV_USE_BAR  1) "
  27:..\..\..\lvgl\version_6.1.2\lvgl/src/lv_objx/lv_slider.h **** #endif
  28:..\..\..\lvgl\version_6.1.2\lvgl/src/lv_objx/lv_slider.h **** 
  29:..\..\..\lvgl\version_6.1.2\lvgl/src/lv_objx/lv_slider.h **** #include "../lv_core/lv_obj.h"
  30:..\..\..\lvgl\version_6.1.2\lvgl/src/lv_objx/lv_slider.h **** #include "lv_bar.h"
  31:..\..\..\lvgl\version_6.1.2\lvgl/src/lv_objx/lv_slider.h **** 
  32:..\..\..\lvgl\version_6.1.2\lvgl/src/lv_objx/lv_slider.h **** /*********************
  33:..\..\..\lvgl\version_6.1.2\lvgl/src/lv_objx/lv_slider.h ****  *      DEFINES
  34:..\..\..\lvgl\version_6.1.2\lvgl/src/lv_objx/lv_slider.h ****  *********************/
  35:..\..\..\lvgl\version_6.1.2\lvgl/src/lv_objx/lv_slider.h **** 
  36:..\..\..\lvgl\version_6.1.2\lvgl/src/lv_objx/lv_slider.h **** /**********************
  37:..\..\..\lvgl\version_6.1.2\lvgl/src/lv_objx/lv_slider.h ****  *      TYPEDEFS
  38:..\..\..\lvgl\version_6.1.2\lvgl/src/lv_objx/lv_slider.h ****  **********************/
  39:..\..\..\lvgl\version_6.1.2\lvgl/src/lv_objx/lv_slider.h **** /*Data of slider*/
  40:..\..\..\lvgl\version_6.1.2\lvgl/src/lv_objx/lv_slider.h **** typedef struct
  41:..\..\..\lvgl\version_6.1.2\lvgl/src/lv_objx/lv_slider.h **** {
  42:..\..\..\lvgl\version_6.1.2\lvgl/src/lv_objx/lv_slider.h ****     lv_bar_ext_t bar; /*Ext. of ancestor*/
  43:..\..\..\lvgl\version_6.1.2\lvgl/src/lv_objx/lv_slider.h ****     /*New data for this type */
  44:..\..\..\lvgl\version_6.1.2\lvgl/src/lv_objx/lv_slider.h ****     const lv_style_t * style_knob; /*Style of the knob*/
  45:..\..\..\lvgl\version_6.1.2\lvgl/src/lv_objx/lv_slider.h ****     int16_t drag_value;            /*Store a temporal value during press until release (Handled by 
  46:..\..\..\lvgl\version_6.1.2\lvgl/src/lv_objx/lv_slider.h ****     uint8_t knob_in : 1;           /*1: Draw the knob inside the bar*/
  47:..\..\..\lvgl\version_6.1.2\lvgl/src/lv_objx/lv_slider.h **** } lv_slider_ext_t;
  48:..\..\..\lvgl\version_6.1.2\lvgl/src/lv_objx/lv_slider.h **** 
  49:..\..\..\lvgl\version_6.1.2\lvgl/src/lv_objx/lv_slider.h **** /** Built-in styles of slider*/
  50:..\..\..\lvgl\version_6.1.2\lvgl/src/lv_objx/lv_slider.h **** enum {
  51:..\..\..\lvgl\version_6.1.2\lvgl/src/lv_objx/lv_slider.h ****     LV_SLIDER_STYLE_BG, /** Slider background style. */
  52:..\..\..\lvgl\version_6.1.2\lvgl/src/lv_objx/lv_slider.h ****     LV_SLIDER_STYLE_INDIC, /** Slider indicator (filled area) style. */
  53:..\..\..\lvgl\version_6.1.2\lvgl/src/lv_objx/lv_slider.h ****     LV_SLIDER_STYLE_KNOB, /** Slider knob style. */
  54:..\..\..\lvgl\version_6.1.2\lvgl/src/lv_objx/lv_slider.h **** };
  55:..\..\..\lvgl\version_6.1.2\lvgl/src/lv_objx/lv_slider.h **** typedef uint8_t lv_slider_style_t;
  56:..\..\..\lvgl\version_6.1.2\lvgl/src/lv_objx/lv_slider.h **** 
  57:..\..\..\lvgl\version_6.1.2\lvgl/src/lv_objx/lv_slider.h **** /**********************
  58:..\..\..\lvgl\version_6.1.2\lvgl/src/lv_objx/lv_slider.h ****  * GLOBAL PROTOTYPES
  59:..\..\..\lvgl\version_6.1.2\lvgl/src/lv_objx/lv_slider.h ****  **********************/
ARM GAS  C:\Users\tmj32\AppData\Local\Temp\ccmPTl49.s 			page 15


  60:..\..\..\lvgl\version_6.1.2\lvgl/src/lv_objx/lv_slider.h **** 
  61:..\..\..\lvgl\version_6.1.2\lvgl/src/lv_objx/lv_slider.h **** /**
  62:..\..\..\lvgl\version_6.1.2\lvgl/src/lv_objx/lv_slider.h ****  * Create a slider objects
  63:..\..\..\lvgl\version_6.1.2\lvgl/src/lv_objx/lv_slider.h ****  * @param par pointer to an object, it will be the parent of the new slider
  64:..\..\..\lvgl\version_6.1.2\lvgl/src/lv_objx/lv_slider.h ****  * @param copy pointer to a slider object, if not NULL then the new object will be copied from it
  65:..\..\..\lvgl\version_6.1.2\lvgl/src/lv_objx/lv_slider.h ****  * @return pointer to the created slider
  66:..\..\..\lvgl\version_6.1.2\lvgl/src/lv_objx/lv_slider.h ****  */
  67:..\..\..\lvgl\version_6.1.2\lvgl/src/lv_objx/lv_slider.h **** lv_obj_t * lv_slider_create(lv_obj_t * par, const lv_obj_t * copy);
  68:..\..\..\lvgl\version_6.1.2\lvgl/src/lv_objx/lv_slider.h **** 
  69:..\..\..\lvgl\version_6.1.2\lvgl/src/lv_objx/lv_slider.h **** /*=====================
  70:..\..\..\lvgl\version_6.1.2\lvgl/src/lv_objx/lv_slider.h ****  * Setter functions
  71:..\..\..\lvgl\version_6.1.2\lvgl/src/lv_objx/lv_slider.h ****  *====================*/
  72:..\..\..\lvgl\version_6.1.2\lvgl/src/lv_objx/lv_slider.h **** 
  73:..\..\..\lvgl\version_6.1.2\lvgl/src/lv_objx/lv_slider.h **** /**
  74:..\..\..\lvgl\version_6.1.2\lvgl/src/lv_objx/lv_slider.h ****  * Set a new value on the slider
  75:..\..\..\lvgl\version_6.1.2\lvgl/src/lv_objx/lv_slider.h ****  * @param slider pointer to a slider object
  76:..\..\..\lvgl\version_6.1.2\lvgl/src/lv_objx/lv_slider.h ****  * @param value new value
  77:..\..\..\lvgl\version_6.1.2\lvgl/src/lv_objx/lv_slider.h ****  * @param anim LV_ANIM_ON: set the value with an animation; LV_ANIM_OFF: change the value immediate
  78:..\..\..\lvgl\version_6.1.2\lvgl/src/lv_objx/lv_slider.h ****  */
  79:..\..\..\lvgl\version_6.1.2\lvgl/src/lv_objx/lv_slider.h **** static inline void lv_slider_set_value(lv_obj_t * slider, int16_t value, lv_anim_enable_t anim)
  80:..\..\..\lvgl\version_6.1.2\lvgl/src/lv_objx/lv_slider.h **** {
 155              		.loc 3 80 0
 156              		.cfi_startproc
 157              		@ args = 0, pretend = 0, frame = 8
 158              		@ frame_needed = 1, uses_anonymous_args = 0
 159 0000 80B5     		push	{r7, lr}
 160              		.cfi_def_cfa_offset 8
 161              		.cfi_offset 7, -8
 162              		.cfi_offset 14, -4
 163 0002 82B0     		sub	sp, sp, #8
 164              		.cfi_def_cfa_offset 16
 165 0004 00AF     		add	r7, sp, #0
 166              		.cfi_def_cfa_register 7
 167 0006 7860     		str	r0, [r7, #4]
 168 0008 0B46     		mov	r3, r1
 169 000a 7B80     		strh	r3, [r7, #2]	@ movhi
 170 000c 1346     		mov	r3, r2
 171 000e 7B70     		strb	r3, [r7, #1]
  81:..\..\..\lvgl\version_6.1.2\lvgl/src/lv_objx/lv_slider.h ****     lv_bar_set_value(slider, value, anim);
 172              		.loc 3 81 0
 173 0010 7A78     		ldrb	r2, [r7, #1]	@ zero_extendqisi2
 174 0012 B7F90230 		ldrsh	r3, [r7, #2]
 175 0016 1946     		mov	r1, r3
 176 0018 7868     		ldr	r0, [r7, #4]
 177 001a FFF7FEFF 		bl	lv_bar_set_value
  82:..\..\..\lvgl\version_6.1.2\lvgl/src/lv_objx/lv_slider.h **** }
 178              		.loc 3 82 0
 179 001e 00BF     		nop
 180 0020 0837     		adds	r7, r7, #8
 181              		.cfi_def_cfa_offset 8
 182 0022 BD46     		mov	sp, r7
 183              		.cfi_def_cfa_register 13
 184              		@ sp needed
 185 0024 80BD     		pop	{r7, pc}
 186              		.cfi_endproc
 187              	.LFE668:
 188              		.size	lv_slider_set_value, .-lv_slider_set_value
ARM GAS  C:\Users\tmj32\AppData\Local\Temp\ccmPTl49.s 			page 16


 189 0026 00BF     		.section	.text.lv_slider_set_range,"ax",%progbits
 190              		.align	2
 191              		.thumb
 192              		.thumb_func
 193              		.type	lv_slider_set_range, %function
 194              	lv_slider_set_range:
 195              	.LFB669:
  83:..\..\..\lvgl\version_6.1.2\lvgl/src/lv_objx/lv_slider.h **** 
  84:..\..\..\lvgl\version_6.1.2\lvgl/src/lv_objx/lv_slider.h **** /**
  85:..\..\..\lvgl\version_6.1.2\lvgl/src/lv_objx/lv_slider.h ****  * Set minimum and the maximum values of a bar
  86:..\..\..\lvgl\version_6.1.2\lvgl/src/lv_objx/lv_slider.h ****  * @param slider pointer to the slider object
  87:..\..\..\lvgl\version_6.1.2\lvgl/src/lv_objx/lv_slider.h ****  * @param min minimum value
  88:..\..\..\lvgl\version_6.1.2\lvgl/src/lv_objx/lv_slider.h ****  * @param max maximum value
  89:..\..\..\lvgl\version_6.1.2\lvgl/src/lv_objx/lv_slider.h ****  */
  90:..\..\..\lvgl\version_6.1.2\lvgl/src/lv_objx/lv_slider.h **** static inline void lv_slider_set_range(lv_obj_t * slider, int16_t min, int16_t max)
  91:..\..\..\lvgl\version_6.1.2\lvgl/src/lv_objx/lv_slider.h **** {
 196              		.loc 3 91 0
 197              		.cfi_startproc
 198              		@ args = 0, pretend = 0, frame = 8
 199              		@ frame_needed = 1, uses_anonymous_args = 0
 200 0000 80B5     		push	{r7, lr}
 201              		.cfi_def_cfa_offset 8
 202              		.cfi_offset 7, -8
 203              		.cfi_offset 14, -4
 204 0002 82B0     		sub	sp, sp, #8
 205              		.cfi_def_cfa_offset 16
 206 0004 00AF     		add	r7, sp, #0
 207              		.cfi_def_cfa_register 7
 208 0006 7860     		str	r0, [r7, #4]
 209 0008 0B46     		mov	r3, r1
 210 000a 7B80     		strh	r3, [r7, #2]	@ movhi
 211 000c 1346     		mov	r3, r2	@ movhi
 212 000e 3B80     		strh	r3, [r7]	@ movhi
  92:..\..\..\lvgl\version_6.1.2\lvgl/src/lv_objx/lv_slider.h ****     lv_bar_set_range(slider, min, max);
 213              		.loc 3 92 0
 214 0010 B7F90020 		ldrsh	r2, [r7]
 215 0014 B7F90230 		ldrsh	r3, [r7, #2]
 216 0018 1946     		mov	r1, r3
 217 001a 7868     		ldr	r0, [r7, #4]
 218 001c FFF7FEFF 		bl	lv_bar_set_range
  93:..\..\..\lvgl\version_6.1.2\lvgl/src/lv_objx/lv_slider.h **** }
 219              		.loc 3 93 0
 220 0020 00BF     		nop
 221 0022 0837     		adds	r7, r7, #8
 222              		.cfi_def_cfa_offset 8
 223 0024 BD46     		mov	sp, r7
 224              		.cfi_def_cfa_register 13
 225              		@ sp needed
 226 0026 80BD     		pop	{r7, pc}
 227              		.cfi_endproc
 228              	.LFE669:
 229              		.size	lv_slider_set_range, .-lv_slider_set_range
 230              		.section	.text.lv_sw_get_state,"ax",%progbits
 231              		.align	2
 232              		.thumb
 233              		.thumb_func
 234              		.type	lv_sw_get_state, %function
ARM GAS  C:\Users\tmj32\AppData\Local\Temp\ccmPTl49.s 			page 17


 235              	lv_sw_get_state:
 236              	.LFB714:
 237              		.file 4 "..\\..\\..\\lvgl\\version_6.1.2\\lvgl/src/lv_objx/lv_sw.h"
   1:..\..\..\lvgl\version_6.1.2\lvgl/src/lv_objx/lv_sw.h **** /**
   2:..\..\..\lvgl\version_6.1.2\lvgl/src/lv_objx/lv_sw.h ****  * @file lv_sw.h
   3:..\..\..\lvgl\version_6.1.2\lvgl/src/lv_objx/lv_sw.h ****  *
   4:..\..\..\lvgl\version_6.1.2\lvgl/src/lv_objx/lv_sw.h ****  */
   5:..\..\..\lvgl\version_6.1.2\lvgl/src/lv_objx/lv_sw.h **** 
   6:..\..\..\lvgl\version_6.1.2\lvgl/src/lv_objx/lv_sw.h **** #ifndef LV_SW_H
   7:..\..\..\lvgl\version_6.1.2\lvgl/src/lv_objx/lv_sw.h **** #define LV_SW_H
   8:..\..\..\lvgl\version_6.1.2\lvgl/src/lv_objx/lv_sw.h **** 
   9:..\..\..\lvgl\version_6.1.2\lvgl/src/lv_objx/lv_sw.h **** #ifdef __cplusplus
  10:..\..\..\lvgl\version_6.1.2\lvgl/src/lv_objx/lv_sw.h **** extern "C" {
  11:..\..\..\lvgl\version_6.1.2\lvgl/src/lv_objx/lv_sw.h **** #endif
  12:..\..\..\lvgl\version_6.1.2\lvgl/src/lv_objx/lv_sw.h **** 
  13:..\..\..\lvgl\version_6.1.2\lvgl/src/lv_objx/lv_sw.h **** /*********************
  14:..\..\..\lvgl\version_6.1.2\lvgl/src/lv_objx/lv_sw.h ****  *      INCLUDES
  15:..\..\..\lvgl\version_6.1.2\lvgl/src/lv_objx/lv_sw.h ****  *********************/
  16:..\..\..\lvgl\version_6.1.2\lvgl/src/lv_objx/lv_sw.h **** #ifdef LV_CONF_INCLUDE_SIMPLE
  17:..\..\..\lvgl\version_6.1.2\lvgl/src/lv_objx/lv_sw.h **** #include "lv_conf.h"
  18:..\..\..\lvgl\version_6.1.2\lvgl/src/lv_objx/lv_sw.h **** #else
  19:..\..\..\lvgl\version_6.1.2\lvgl/src/lv_objx/lv_sw.h **** #include "../../../lv_conf.h"
  20:..\..\..\lvgl\version_6.1.2\lvgl/src/lv_objx/lv_sw.h **** #endif
  21:..\..\..\lvgl\version_6.1.2\lvgl/src/lv_objx/lv_sw.h **** 
  22:..\..\..\lvgl\version_6.1.2\lvgl/src/lv_objx/lv_sw.h **** #if LV_USE_SW != 0
  23:..\..\..\lvgl\version_6.1.2\lvgl/src/lv_objx/lv_sw.h **** 
  24:..\..\..\lvgl\version_6.1.2\lvgl/src/lv_objx/lv_sw.h **** /*Testing of dependencies*/
  25:..\..\..\lvgl\version_6.1.2\lvgl/src/lv_objx/lv_sw.h **** #if LV_USE_SLIDER == 0
  26:..\..\..\lvgl\version_6.1.2\lvgl/src/lv_objx/lv_sw.h **** #error "lv_sw: lv_slider is required. Enable it in lv_conf.h (LV_USE_SLIDER  1)"
  27:..\..\..\lvgl\version_6.1.2\lvgl/src/lv_objx/lv_sw.h **** #endif
  28:..\..\..\lvgl\version_6.1.2\lvgl/src/lv_objx/lv_sw.h **** 
  29:..\..\..\lvgl\version_6.1.2\lvgl/src/lv_objx/lv_sw.h **** #include "../lv_core/lv_obj.h"
  30:..\..\..\lvgl\version_6.1.2\lvgl/src/lv_objx/lv_sw.h **** #include "lv_slider.h"
  31:..\..\..\lvgl\version_6.1.2\lvgl/src/lv_objx/lv_sw.h **** 
  32:..\..\..\lvgl\version_6.1.2\lvgl/src/lv_objx/lv_sw.h **** /*********************
  33:..\..\..\lvgl\version_6.1.2\lvgl/src/lv_objx/lv_sw.h ****  *      DEFINES
  34:..\..\..\lvgl\version_6.1.2\lvgl/src/lv_objx/lv_sw.h ****  *********************/
  35:..\..\..\lvgl\version_6.1.2\lvgl/src/lv_objx/lv_sw.h **** #define LV_SW_MAX_VALUE 100
  36:..\..\..\lvgl\version_6.1.2\lvgl/src/lv_objx/lv_sw.h **** 
  37:..\..\..\lvgl\version_6.1.2\lvgl/src/lv_objx/lv_sw.h **** /**********************
  38:..\..\..\lvgl\version_6.1.2\lvgl/src/lv_objx/lv_sw.h ****  *      TYPEDEFS
  39:..\..\..\lvgl\version_6.1.2\lvgl/src/lv_objx/lv_sw.h ****  **********************/
  40:..\..\..\lvgl\version_6.1.2\lvgl/src/lv_objx/lv_sw.h **** /*Data of switch*/
  41:..\..\..\lvgl\version_6.1.2\lvgl/src/lv_objx/lv_sw.h **** typedef struct
  42:..\..\..\lvgl\version_6.1.2\lvgl/src/lv_objx/lv_sw.h **** {
  43:..\..\..\lvgl\version_6.1.2\lvgl/src/lv_objx/lv_sw.h ****     lv_slider_ext_t slider; /*Ext. of ancestor*/
  44:..\..\..\lvgl\version_6.1.2\lvgl/src/lv_objx/lv_sw.h ****     /*New data for this type */
  45:..\..\..\lvgl\version_6.1.2\lvgl/src/lv_objx/lv_sw.h ****     const lv_style_t * style_knob_off; /**< Style of the knob when the switch is OFF*/
  46:..\..\..\lvgl\version_6.1.2\lvgl/src/lv_objx/lv_sw.h ****     const lv_style_t * style_knob_on;  /**< Style of the knob when the switch is ON (NULL to use th
  47:..\..\..\lvgl\version_6.1.2\lvgl/src/lv_objx/lv_sw.h ****     lv_coord_t start_x;
  48:..\..\..\lvgl\version_6.1.2\lvgl/src/lv_objx/lv_sw.h ****     uint8_t changed : 1; /*Indicates the switch state explicitly changed by drag*/
  49:..\..\..\lvgl\version_6.1.2\lvgl/src/lv_objx/lv_sw.h ****     uint8_t slided : 1;
  50:..\..\..\lvgl\version_6.1.2\lvgl/src/lv_objx/lv_sw.h **** #if LV_USE_ANIMATION
  51:..\..\..\lvgl\version_6.1.2\lvgl/src/lv_objx/lv_sw.h ****     uint16_t anim_time; /*switch animation time */
  52:..\..\..\lvgl\version_6.1.2\lvgl/src/lv_objx/lv_sw.h **** #endif
  53:..\..\..\lvgl\version_6.1.2\lvgl/src/lv_objx/lv_sw.h **** } lv_sw_ext_t;
  54:..\..\..\lvgl\version_6.1.2\lvgl/src/lv_objx/lv_sw.h **** 
ARM GAS  C:\Users\tmj32\AppData\Local\Temp\ccmPTl49.s 			page 18


  55:..\..\..\lvgl\version_6.1.2\lvgl/src/lv_objx/lv_sw.h **** /**
  56:..\..\..\lvgl\version_6.1.2\lvgl/src/lv_objx/lv_sw.h ****  * Switch styles.
  57:..\..\..\lvgl\version_6.1.2\lvgl/src/lv_objx/lv_sw.h ****  */
  58:..\..\..\lvgl\version_6.1.2\lvgl/src/lv_objx/lv_sw.h **** enum {
  59:..\..\..\lvgl\version_6.1.2\lvgl/src/lv_objx/lv_sw.h ****     LV_SW_STYLE_BG, /**< Switch background. */
  60:..\..\..\lvgl\version_6.1.2\lvgl/src/lv_objx/lv_sw.h ****     LV_SW_STYLE_INDIC, /**< Switch fill area. */
  61:..\..\..\lvgl\version_6.1.2\lvgl/src/lv_objx/lv_sw.h ****     LV_SW_STYLE_KNOB_OFF, /**< Switch knob (when off). */
  62:..\..\..\lvgl\version_6.1.2\lvgl/src/lv_objx/lv_sw.h ****     LV_SW_STYLE_KNOB_ON, /**< Switch knob (when on). */
  63:..\..\..\lvgl\version_6.1.2\lvgl/src/lv_objx/lv_sw.h **** };
  64:..\..\..\lvgl\version_6.1.2\lvgl/src/lv_objx/lv_sw.h **** typedef uint8_t lv_sw_style_t;
  65:..\..\..\lvgl\version_6.1.2\lvgl/src/lv_objx/lv_sw.h **** 
  66:..\..\..\lvgl\version_6.1.2\lvgl/src/lv_objx/lv_sw.h **** /**********************
  67:..\..\..\lvgl\version_6.1.2\lvgl/src/lv_objx/lv_sw.h ****  * GLOBAL PROTOTYPES
  68:..\..\..\lvgl\version_6.1.2\lvgl/src/lv_objx/lv_sw.h ****  **********************/
  69:..\..\..\lvgl\version_6.1.2\lvgl/src/lv_objx/lv_sw.h **** 
  70:..\..\..\lvgl\version_6.1.2\lvgl/src/lv_objx/lv_sw.h **** /**
  71:..\..\..\lvgl\version_6.1.2\lvgl/src/lv_objx/lv_sw.h ****  * Create a switch objects
  72:..\..\..\lvgl\version_6.1.2\lvgl/src/lv_objx/lv_sw.h ****  * @param par pointer to an object, it will be the parent of the new switch
  73:..\..\..\lvgl\version_6.1.2\lvgl/src/lv_objx/lv_sw.h ****  * @param copy pointer to a switch object, if not NULL then the new object will be copied from it
  74:..\..\..\lvgl\version_6.1.2\lvgl/src/lv_objx/lv_sw.h ****  * @return pointer to the created switch
  75:..\..\..\lvgl\version_6.1.2\lvgl/src/lv_objx/lv_sw.h ****  */
  76:..\..\..\lvgl\version_6.1.2\lvgl/src/lv_objx/lv_sw.h **** lv_obj_t * lv_sw_create(lv_obj_t * par, const lv_obj_t * copy);
  77:..\..\..\lvgl\version_6.1.2\lvgl/src/lv_objx/lv_sw.h **** 
  78:..\..\..\lvgl\version_6.1.2\lvgl/src/lv_objx/lv_sw.h **** /*=====================
  79:..\..\..\lvgl\version_6.1.2\lvgl/src/lv_objx/lv_sw.h ****  * Setter functions
  80:..\..\..\lvgl\version_6.1.2\lvgl/src/lv_objx/lv_sw.h ****  *====================*/
  81:..\..\..\lvgl\version_6.1.2\lvgl/src/lv_objx/lv_sw.h **** 
  82:..\..\..\lvgl\version_6.1.2\lvgl/src/lv_objx/lv_sw.h **** /**
  83:..\..\..\lvgl\version_6.1.2\lvgl/src/lv_objx/lv_sw.h ****  * Turn ON the switch
  84:..\..\..\lvgl\version_6.1.2\lvgl/src/lv_objx/lv_sw.h ****  * @param sw pointer to a switch object
  85:..\..\..\lvgl\version_6.1.2\lvgl/src/lv_objx/lv_sw.h ****  * @param anim LV_ANIM_ON: set the value with an animation; LV_ANIM_OFF: change the value immediate
  86:..\..\..\lvgl\version_6.1.2\lvgl/src/lv_objx/lv_sw.h ****  */
  87:..\..\..\lvgl\version_6.1.2\lvgl/src/lv_objx/lv_sw.h **** void lv_sw_on(lv_obj_t * sw, lv_anim_enable_t anim);
  88:..\..\..\lvgl\version_6.1.2\lvgl/src/lv_objx/lv_sw.h **** 
  89:..\..\..\lvgl\version_6.1.2\lvgl/src/lv_objx/lv_sw.h **** /**
  90:..\..\..\lvgl\version_6.1.2\lvgl/src/lv_objx/lv_sw.h ****  * Turn OFF the switch
  91:..\..\..\lvgl\version_6.1.2\lvgl/src/lv_objx/lv_sw.h ****  * @param sw pointer to a switch object
  92:..\..\..\lvgl\version_6.1.2\lvgl/src/lv_objx/lv_sw.h ****  * @param anim LV_ANIM_ON: set the value with an animation; LV_ANIM_OFF: change the value immediate
  93:..\..\..\lvgl\version_6.1.2\lvgl/src/lv_objx/lv_sw.h ****  */
  94:..\..\..\lvgl\version_6.1.2\lvgl/src/lv_objx/lv_sw.h **** void lv_sw_off(lv_obj_t * sw, lv_anim_enable_t anim);
  95:..\..\..\lvgl\version_6.1.2\lvgl/src/lv_objx/lv_sw.h **** 
  96:..\..\..\lvgl\version_6.1.2\lvgl/src/lv_objx/lv_sw.h **** /**
  97:..\..\..\lvgl\version_6.1.2\lvgl/src/lv_objx/lv_sw.h ****  * Toggle the position of the switch
  98:..\..\..\lvgl\version_6.1.2\lvgl/src/lv_objx/lv_sw.h ****  * @param sw pointer to a switch object
  99:..\..\..\lvgl\version_6.1.2\lvgl/src/lv_objx/lv_sw.h ****  * @param anim LV_ANIM_ON: set the value with an animation; LV_ANIM_OFF: change the value immediate
 100:..\..\..\lvgl\version_6.1.2\lvgl/src/lv_objx/lv_sw.h ****  * @return resulting state of the switch.
 101:..\..\..\lvgl\version_6.1.2\lvgl/src/lv_objx/lv_sw.h ****  */
 102:..\..\..\lvgl\version_6.1.2\lvgl/src/lv_objx/lv_sw.h **** bool lv_sw_toggle(lv_obj_t * sw, lv_anim_enable_t anim);
 103:..\..\..\lvgl\version_6.1.2\lvgl/src/lv_objx/lv_sw.h **** 
 104:..\..\..\lvgl\version_6.1.2\lvgl/src/lv_objx/lv_sw.h **** /**
 105:..\..\..\lvgl\version_6.1.2\lvgl/src/lv_objx/lv_sw.h ****  * Set a style of a switch
 106:..\..\..\lvgl\version_6.1.2\lvgl/src/lv_objx/lv_sw.h ****  * @param sw pointer to a switch object
 107:..\..\..\lvgl\version_6.1.2\lvgl/src/lv_objx/lv_sw.h ****  * @param type which style should be set
 108:..\..\..\lvgl\version_6.1.2\lvgl/src/lv_objx/lv_sw.h ****  * @param style pointer to a style
 109:..\..\..\lvgl\version_6.1.2\lvgl/src/lv_objx/lv_sw.h ****  */
 110:..\..\..\lvgl\version_6.1.2\lvgl/src/lv_objx/lv_sw.h **** void lv_sw_set_style(lv_obj_t * sw, lv_sw_style_t type, const lv_style_t * style);
 111:..\..\..\lvgl\version_6.1.2\lvgl/src/lv_objx/lv_sw.h **** 
ARM GAS  C:\Users\tmj32\AppData\Local\Temp\ccmPTl49.s 			page 19


 112:..\..\..\lvgl\version_6.1.2\lvgl/src/lv_objx/lv_sw.h **** /**
 113:..\..\..\lvgl\version_6.1.2\lvgl/src/lv_objx/lv_sw.h ****  * Set the animation time of the switch
 114:..\..\..\lvgl\version_6.1.2\lvgl/src/lv_objx/lv_sw.h ****  * @param sw pointer to a  switch object
 115:..\..\..\lvgl\version_6.1.2\lvgl/src/lv_objx/lv_sw.h ****  * @param anim_time animation time
 116:..\..\..\lvgl\version_6.1.2\lvgl/src/lv_objx/lv_sw.h ****  * @return style pointer to a style
 117:..\..\..\lvgl\version_6.1.2\lvgl/src/lv_objx/lv_sw.h ****  */
 118:..\..\..\lvgl\version_6.1.2\lvgl/src/lv_objx/lv_sw.h **** void lv_sw_set_anim_time(lv_obj_t * sw, uint16_t anim_time);
 119:..\..\..\lvgl\version_6.1.2\lvgl/src/lv_objx/lv_sw.h **** 
 120:..\..\..\lvgl\version_6.1.2\lvgl/src/lv_objx/lv_sw.h **** /*=====================
 121:..\..\..\lvgl\version_6.1.2\lvgl/src/lv_objx/lv_sw.h ****  * Getter functions
 122:..\..\..\lvgl\version_6.1.2\lvgl/src/lv_objx/lv_sw.h ****  *====================*/
 123:..\..\..\lvgl\version_6.1.2\lvgl/src/lv_objx/lv_sw.h **** 
 124:..\..\..\lvgl\version_6.1.2\lvgl/src/lv_objx/lv_sw.h **** /**
 125:..\..\..\lvgl\version_6.1.2\lvgl/src/lv_objx/lv_sw.h ****  * Get the state of a switch
 126:..\..\..\lvgl\version_6.1.2\lvgl/src/lv_objx/lv_sw.h ****  * @param sw pointer to a switch object
 127:..\..\..\lvgl\version_6.1.2\lvgl/src/lv_objx/lv_sw.h ****  * @return false: OFF; true: ON
 128:..\..\..\lvgl\version_6.1.2\lvgl/src/lv_objx/lv_sw.h ****  */
 129:..\..\..\lvgl\version_6.1.2\lvgl/src/lv_objx/lv_sw.h **** static inline bool lv_sw_get_state(const lv_obj_t * sw)
 130:..\..\..\lvgl\version_6.1.2\lvgl/src/lv_objx/lv_sw.h **** {
 238              		.loc 4 130 0
 239              		.cfi_startproc
 240              		@ args = 0, pretend = 0, frame = 8
 241              		@ frame_needed = 1, uses_anonymous_args = 0
 242 0000 80B5     		push	{r7, lr}
 243              		.cfi_def_cfa_offset 8
 244              		.cfi_offset 7, -8
 245              		.cfi_offset 14, -4
 246 0002 82B0     		sub	sp, sp, #8
 247              		.cfi_def_cfa_offset 16
 248 0004 00AF     		add	r7, sp, #0
 249              		.cfi_def_cfa_register 7
 250 0006 7860     		str	r0, [r7, #4]
 131:..\..\..\lvgl\version_6.1.2\lvgl/src/lv_objx/lv_sw.h ****     return lv_bar_get_value(sw) < LV_SW_MAX_VALUE / 2 ? false : true;
 251              		.loc 4 131 0
 252 0008 7868     		ldr	r0, [r7, #4]
 253 000a FFF7FEFF 		bl	lv_bar_get_value
 254 000e 0346     		mov	r3, r0
 255 0010 312B     		cmp	r3, #49
 256 0012 CCBF     		ite	gt
 257 0014 0123     		movgt	r3, #1
 258 0016 0023     		movle	r3, #0
 259 0018 DBB2     		uxtb	r3, r3
 132:..\..\..\lvgl\version_6.1.2\lvgl/src/lv_objx/lv_sw.h **** }
 260              		.loc 4 132 0
 261 001a 1846     		mov	r0, r3
 262 001c 0837     		adds	r7, r7, #8
 263              		.cfi_def_cfa_offset 8
 264 001e BD46     		mov	sp, r7
 265              		.cfi_def_cfa_register 13
 266              		@ sp needed
 267 0020 80BD     		pop	{r7, pc}
 268              		.cfi_endproc
 269              	.LFE714:
 270              		.size	lv_sw_get_state, .-lv_sw_get_state
 271              		.global	tcnj_blue
 272 0022 00BF     		.section	.rodata
 273              		.align	2
ARM GAS  C:\Users\tmj32\AppData\Local\Temp\ccmPTl49.s 			page 20


 274              		.type	tcnj_blue, %object
 275              		.size	tcnj_blue, 3
 276              	tcnj_blue:
 277 0000 29       		.byte	41
 278 0001 3F       		.byte	63
 279 0002 6F       		.byte	111
 280              		.global	tcnj_gold
 281 0003 00       		.align	2
 282              		.type	tcnj_gold, %object
 283              		.size	tcnj_gold, 3
 284              	tcnj_gold:
 285 0004 A6       		.byte	-90
 286 0005 7A       		.byte	122
 287 0006 00       		.byte	0
 288              		.bss
 289              		.align	2
 290              	offsetLabel:
 291 0000 00000000 		.space	4
 292              		.align	2
 293              	triggerLabel:
 294 0004 00000000 		.space	4
 295              		.align	2
 296              	horiLabel1:
 297 0008 00000000 		.space	4
 298              		.align	2
 299              	vertLabel1:
 300 000c 00000000 		.space	4
 301              		.align	2
 302              	windowLabel:
 303 0010 00000000 		.space	4
 304              		.global	startup
 305              		.align	2
 306              		.type	startup, %object
 307              		.size	startup, 4
 308              	startup:
 309 0014 00000000 		.space	4
 310              		.section	.text.chart_actions,"ax",%progbits
 311              		.align	2
 312              		.thumb
 313              		.thumb_func
 314              		.type	chart_actions, %function
 315              	chart_actions:
 316              	.LFB717:
 317              		.file 5 "home_screen.c"
   1:home_screen.c **** #include <stdio.h>
   2:home_screen.c **** 
   3:home_screen.c **** #include "project.h"
   4:home_screen.c **** #include "globalStruct.h"
   5:home_screen.c **** #include "lvgl.h"
   6:home_screen.c **** #include "home_screen.h"
   7:home_screen.c **** #include "slider_activity.h"
   8:home_screen.c **** #include "math.h"
   9:home_screen.c **** 
  10:home_screen.c **** const uint8_t tcnj_blue[] = { 41, 63, 111 };
  11:home_screen.c **** const uint8_t tcnj_gold[] = { 166, 122, 0 };
  12:home_screen.c **** 
  13:home_screen.c **** static lv_obj_t * offsetLabel;
ARM GAS  C:\Users\tmj32\AppData\Local\Temp\ccmPTl49.s 			page 21


  14:home_screen.c **** static lv_obj_t * triggerLabel;
  15:home_screen.c **** static lv_obj_t * horiLabel1;
  16:home_screen.c **** static lv_obj_t * vertLabel1;
  17:home_screen.c **** static lv_obj_t * windowLabel;
  18:home_screen.c **** 
  19:home_screen.c **** int startup = 0;
  20:home_screen.c **** 
  21:home_screen.c **** static void chart_actions()
  22:home_screen.c **** {    
 318              		.loc 5 22 0
 319              		.cfi_startproc
 320              		@ args = 0, pretend = 0, frame = 24
 321              		@ frame_needed = 1, uses_anonymous_args = 0
 322 0000 90B5     		push	{r4, r7, lr}
 323              		.cfi_def_cfa_offset 12
 324              		.cfi_offset 4, -12
 325              		.cfi_offset 7, -8
 326              		.cfi_offset 14, -4
 327 0002 87B0     		sub	sp, sp, #28
 328              		.cfi_def_cfa_offset 40
 329 0004 00AF     		add	r7, sp, #0
 330              		.cfi_def_cfa_register 7
  23:home_screen.c ****     const int chart_width = 280;
 331              		.loc 5 23 0
 332 0006 4FF48C73 		mov	r3, #280
 333 000a 3B61     		str	r3, [r7, #16]
  24:home_screen.c ****     const int chart_heigth = 200;
 334              		.loc 5 24 0
 335 000c C823     		movs	r3, #200
 336 000e FB60     		str	r3, [r7, #12]
  25:home_screen.c ****     const int chart_vertPos = 20;
 337              		.loc 5 25 0
 338 0010 1423     		movs	r3, #20
 339 0012 BB60     		str	r3, [r7, #8]
  26:home_screen.c ****     const int chart_horiPos = 20;  
 340              		.loc 5 26 0
 341 0014 1423     		movs	r3, #20
 342 0016 7B60     		str	r3, [r7, #4]
  27:home_screen.c ****     
  28:home_screen.c **** 
  29:home_screen.c ****     static lv_obj_t *chart1;        //declaring the chart
  30:home_screen.c ****     if(startup == 1){
 343              		.loc 5 30 0
 344 0018 374B     		ldr	r3, .L15
 345 001a 1B68     		ldr	r3, [r3]
 346 001c 012B     		cmp	r3, #1
 347 001e 04D1     		bne	.L12
  31:home_screen.c ****         lv_obj_del(chart1);
 348              		.loc 5 31 0
 349 0020 364B     		ldr	r3, .L15+4
 350 0022 1B68     		ldr	r3, [r3]
 351 0024 1846     		mov	r0, r3
 352 0026 FFF7FEFF 		bl	lv_obj_del
 353              	.L12:
  32:home_screen.c ****     }   
  33:home_screen.c ****     /* Display chart                         */        
  34:home_screen.c ****     chart1 = lv_chart_create(lv_scr_act(), NULL);                     //Add a chart to the current 
ARM GAS  C:\Users\tmj32\AppData\Local\Temp\ccmPTl49.s 			page 22


 354              		.loc 5 34 0
 355 002a FFF7FEFF 		bl	lv_scr_act
 356 002e 0346     		mov	r3, r0
 357 0030 0021     		movs	r1, #0
 358 0032 1846     		mov	r0, r3
 359 0034 FFF7FEFF 		bl	lv_chart_create
 360 0038 0246     		mov	r2, r0
 361 003a 304B     		ldr	r3, .L15+4
 362 003c 1A60     		str	r2, [r3]
  35:home_screen.c ****     lv_obj_set_pos(chart1, chart_horiPos, chart_vertPos);             /*Set its position*/
 363              		.loc 5 35 0
 364 003e 2F4B     		ldr	r3, .L15+4
 365 0040 1B68     		ldr	r3, [r3]
 366 0042 7A68     		ldr	r2, [r7, #4]
 367 0044 11B2     		sxth	r1, r2
 368 0046 BA68     		ldr	r2, [r7, #8]
 369 0048 12B2     		sxth	r2, r2
 370 004a 1846     		mov	r0, r3
 371 004c FFF7FEFF 		bl	lv_obj_set_pos
  36:home_screen.c ****     lv_obj_set_size(chart1, chart_width, chart_heigth);               /*Set its size*/ 
 372              		.loc 5 36 0
 373 0050 2A4B     		ldr	r3, .L15+4
 374 0052 1B68     		ldr	r3, [r3]
 375 0054 3A69     		ldr	r2, [r7, #16]
 376 0056 11B2     		sxth	r1, r2
 377 0058 FA68     		ldr	r2, [r7, #12]
 378 005a 12B2     		sxth	r2, r2
 379 005c 1846     		mov	r0, r3
 380 005e FFF7FEFF 		bl	lv_obj_set_size
  37:home_screen.c ****     
  38:home_screen.c ****     //GIVE IMPACT BASED ON THE VERT AND HORI SCALE
  39:home_screen.c ****     lv_chart_set_div_line_count(chart1, 3, 4);                        //sets the grid lines
 381              		.loc 5 39 0
 382 0062 264B     		ldr	r3, .L15+4
 383 0064 1B68     		ldr	r3, [r3]
 384 0066 0422     		movs	r2, #4
 385 0068 0321     		movs	r1, #3
 386 006a 1846     		mov	r0, r3
 387 006c FFF7FEFF 		bl	lv_chart_set_div_line_count
  40:home_screen.c ****     lv_chart_set_point_count(chart1, 128);                              //setting the number of poi
 388              		.loc 5 40 0
 389 0070 224B     		ldr	r3, .L15+4
 390 0072 1B68     		ldr	r3, [r3]
 391 0074 8021     		movs	r1, #128
 392 0076 1846     		mov	r0, r3
 393 0078 FFF7FEFF 		bl	lv_chart_set_point_count
  41:home_screen.c ****     lv_chart_set_type(chart1, LV_CHART_TYPE_POINT);                    //set graph to points, as op
 394              		.loc 5 41 0
 395 007c 1F4B     		ldr	r3, .L15+4
 396 007e 1B68     		ldr	r3, [r3]
 397 0080 0421     		movs	r1, #4
 398 0082 1846     		mov	r0, r3
 399 0084 FFF7FEFF 		bl	lv_chart_set_type
  42:home_screen.c ****     
  43:home_screen.c ****     //Have the chart only display the current serie
  44:home_screen.c ****     lv_chart_series_t * s1 = lv_chart_add_series(chart1, lv_color_hex(0x01a2b1));
 400              		.loc 5 44 0
ARM GAS  C:\Users\tmj32\AppData\Local\Temp\ccmPTl49.s 			page 23


 401 0088 1C4B     		ldr	r3, .L15+4
 402 008a 1C68     		ldr	r4, [r3]
 403 008c 1C48     		ldr	r0, .L15+8
 404 008e FFF7FEFF 		bl	lv_color_hex
 405 0092 0346     		mov	r3, r0
 406 0094 1946     		mov	r1, r3
 407 0096 2046     		mov	r0, r4
 408 0098 FFF7FEFF 		bl	lv_chart_add_series
 409 009c 3860     		str	r0, [r7]
  45:home_screen.c ****     
  46:home_screen.c ****     lv_chart_clear_serie(chart1, s1);
 410              		.loc 5 46 0
 411 009e 174B     		ldr	r3, .L15+4
 412 00a0 1B68     		ldr	r3, [r3]
 413 00a2 3968     		ldr	r1, [r7]
 414 00a4 1846     		mov	r0, r3
 415 00a6 FFF7FEFF 		bl	lv_chart_clear_serie
  47:home_screen.c ****     lv_chart_refresh(chart1);
 416              		.loc 5 47 0
 417 00aa 144B     		ldr	r3, .L15+4
 418 00ac 1B68     		ldr	r3, [r3]
 419 00ae 1846     		mov	r0, r3
 420 00b0 FFF7FEFF 		bl	lv_chart_refresh
 421              	.LBB2:
  48:home_screen.c ****     
  49:home_screen.c ****     
  50:home_screen.c ****     
  51:home_screen.c ****     /*
  52:home_screen.c ****     // Need to calculate the desired indexes in RxBuffer, Based on HoriScale
  53:home_screen.c ****     cm4.windowMin = cm4.windowPos - 100;
  54:home_screen.c ****     cm4.windowMax = cm4.windowPos + 100;
  55:home_screen.c ****     
  56:home_screen.c ****     if(cm4.windowMin - 100 < 0){
  57:home_screen.c ****         cm4.windowMax = (cm4.windowMin * -1) + cm4.windowMax;
  58:home_screen.c ****         cm4.windowMin = 0;
  59:home_screen.c ****     }
  60:home_screen.c ****     //if(windowMax + 100 > pow(2, cm4.HoriScale + 6)){
  61:home_screen.c ****     if(cm4.windowMax + 100 > 1024){
  62:home_screen.c ****         //windowMin = windowMin - (windowMax - pow(2, cm4.HoriScale + 6)); 
  63:home_screen.c ****         cm4.windowMin = cm4.windowMin - (cm4.windowMax - 1024); 
  64:home_screen.c ****         //windowMax = pow(2, cm4.HoriScale + 6); 
  65:home_screen.c ****         cm4.windowMax = 1024; 
  66:home_screen.c ****     }
  67:home_screen.c ****    */
  68:home_screen.c **** 
  69:home_screen.c ****     //for(int i = cm4.windowMin; i < cm4.windowMax; ++i){
  70:home_screen.c ****     for(int i = 0; i < 128; ++i){
 422              		.loc 5 70 0
 423 00b4 0023     		movs	r3, #0
 424 00b6 7B61     		str	r3, [r7, #20]
 425 00b8 14E0     		b	.L13
 426              	.L14:
  71:home_screen.c ****         lv_chart_set_next(chart1, s1, cm4.RamReadBuffer[i] + cm4.Offset);
 427              		.loc 5 71 0 discriminator 3
 428 00ba 104B     		ldr	r3, .L15+4
 429 00bc 1868     		ldr	r0, [r3]
 430 00be 114A     		ldr	r2, .L15+12
ARM GAS  C:\Users\tmj32\AppData\Local\Temp\ccmPTl49.s 			page 24


 431 00c0 7B69     		ldr	r3, [r7, #20]
 432 00c2 1344     		add	r3, r3, r2
 433 00c4 4633     		adds	r3, r3, #70
 434 00c6 1B78     		ldrb	r3, [r3]	@ zero_extendqisi2
 435 00c8 9AB2     		uxth	r2, r3
 436 00ca 0E4B     		ldr	r3, .L15+12
 437 00cc 9B7A     		ldrb	r3, [r3, #10]	@ zero_extendqisi2
 438 00ce 9BB2     		uxth	r3, r3
 439 00d0 1344     		add	r3, r3, r2
 440 00d2 9BB2     		uxth	r3, r3
 441 00d4 1BB2     		sxth	r3, r3
 442 00d6 1A46     		mov	r2, r3
 443 00d8 3968     		ldr	r1, [r7]
 444 00da FFF7FEFF 		bl	lv_chart_set_next
  70:home_screen.c ****         lv_chart_set_next(chart1, s1, cm4.RamReadBuffer[i] + cm4.Offset);
 445              		.loc 5 70 0 discriminator 3
 446 00de 7B69     		ldr	r3, [r7, #20]
 447 00e0 0133     		adds	r3, r3, #1
 448 00e2 7B61     		str	r3, [r7, #20]
 449              	.L13:
  70:home_screen.c ****         lv_chart_set_next(chart1, s1, cm4.RamReadBuffer[i] + cm4.Offset);
 450              		.loc 5 70 0 is_stmt 0 discriminator 1
 451 00e4 7B69     		ldr	r3, [r7, #20]
 452 00e6 7F2B     		cmp	r3, #127
 453 00e8 E7DD     		ble	.L14
 454              	.LBE2:
  72:home_screen.c ****         //lv_chart_set_next(chart1, s1, cm4.RamReadBuffer[i]);
  73:home_screen.c ****     }   
  74:home_screen.c ****     startup = 1;
 455              		.loc 5 74 0 is_stmt 1
 456 00ea 034B     		ldr	r3, .L15
 457 00ec 0122     		movs	r2, #1
 458 00ee 1A60     		str	r2, [r3]
  75:home_screen.c **** }
 459              		.loc 5 75 0
 460 00f0 00BF     		nop
 461 00f2 1C37     		adds	r7, r7, #28
 462              		.cfi_def_cfa_offset 12
 463 00f4 BD46     		mov	sp, r7
 464              		.cfi_def_cfa_register 13
 465              		@ sp needed
 466 00f6 90BD     		pop	{r4, r7, pc}
 467              	.L16:
 468              		.align	2
 469              	.L15:
 470 00f8 00000000 		.word	startup
 471 00fc 18000000 		.word	chart1.20847
 472 0100 B1A20100 		.word	107185
 473 0104 00000000 		.word	cm4
 474              		.cfi_endproc
 475              	.LFE717:
 476              		.size	chart_actions, .-chart_actions
 477              		.section	.rodata
 478 0007 00       		.align	2
 479              	.LC0:
 480 0008 4F6E00   		.ascii	"On\000"
 481 000b 00       		.align	2
ARM GAS  C:\Users\tmj32\AppData\Local\Temp\ccmPTl49.s 			page 25


 482              	.LC1:
 483 000c 4F666600 		.ascii	"Off\000"
 484              		.align	2
 485              	.LC2:
 486 0010 53746174 		.ascii	"State: %s\012\000"
 486      653A2025 
 486      730A00
 487              		.section	.text.sw_event_handler,"ax",%progbits
 488              		.align	2
 489              		.thumb
 490              		.thumb_func
 491              		.type	sw_event_handler, %function
 492              	sw_event_handler:
 493              	.LFB718:
  76:home_screen.c **** 
  77:home_screen.c **** static void sw_event_handler(lv_obj_t * obj, lv_event_t event)
  78:home_screen.c **** {
 494              		.loc 5 78 0
 495              		.cfi_startproc
 496              		@ args = 0, pretend = 0, frame = 8
 497              		@ frame_needed = 1, uses_anonymous_args = 0
 498 0000 80B5     		push	{r7, lr}
 499              		.cfi_def_cfa_offset 8
 500              		.cfi_offset 7, -8
 501              		.cfi_offset 14, -4
 502 0002 82B0     		sub	sp, sp, #8
 503              		.cfi_def_cfa_offset 16
 504 0004 00AF     		add	r7, sp, #0
 505              		.cfi_def_cfa_register 7
 506 0006 7860     		str	r0, [r7, #4]
 507 0008 0B46     		mov	r3, r1
 508 000a FB70     		strb	r3, [r7, #3]
  79:home_screen.c ****     if(event == (LV_EVENT_VALUE_CHANGED)) {
 509              		.loc 5 79 0
 510 000c FB78     		ldrb	r3, [r7, #3]	@ zero_extendqisi2
 511 000e 0E2B     		cmp	r3, #14
 512 0010 0CD1     		bne	.L21
  80:home_screen.c ****         printf("State: %s\n", lv_sw_get_state(obj) ? "On" : "Off");
 513              		.loc 5 80 0
 514 0012 7868     		ldr	r0, [r7, #4]
 515 0014 FFF7FEFF 		bl	lv_sw_get_state
 516 0018 0346     		mov	r3, r0
 517 001a 002B     		cmp	r3, #0
 518 001c 01D0     		beq	.L19
 519              		.loc 5 80 0 is_stmt 0 discriminator 1
 520 001e 054B     		ldr	r3, .L22
 521 0020 00E0     		b	.L20
 522              	.L19:
 523              		.loc 5 80 0 discriminator 2
 524 0022 054B     		ldr	r3, .L22+4
 525              	.L20:
 526              		.loc 5 80 0 discriminator 4
 527 0024 1946     		mov	r1, r3
 528 0026 0548     		ldr	r0, .L22+8
 529 0028 FFF7FEFF 		bl	printf
 530              	.L21:
  81:home_screen.c ****         //cm4.onBit = !cm4.onBit;
ARM GAS  C:\Users\tmj32\AppData\Local\Temp\ccmPTl49.s 			page 26


  82:home_screen.c ****     }
  83:home_screen.c **** }
 531              		.loc 5 83 0 is_stmt 1
 532 002c 00BF     		nop
 533 002e 0837     		adds	r7, r7, #8
 534              		.cfi_def_cfa_offset 8
 535 0030 BD46     		mov	sp, r7
 536              		.cfi_def_cfa_register 13
 537              		@ sp needed
 538 0032 80BD     		pop	{r7, pc}
 539              	.L23:
 540              		.align	2
 541              	.L22:
 542 0034 08000000 		.word	.LC0
 543 0038 0C000000 		.word	.LC1
 544 003c 10000000 		.word	.LC2
 545              		.cfi_endproc
 546              	.LFE718:
 547              		.size	sw_event_handler, .-sw_event_handler
 548              		.section	.rodata
 549 001b 00       		.align	2
 550              	.LC3:
 551 001c 257500   		.ascii	"%u\000"
 552              		.section	.text.offset_slider_event_cb,"ax",%progbits
 553              		.align	2
 554              		.thumb
 555              		.thumb_func
 556              		.type	offset_slider_event_cb, %function
 557              	offset_slider_event_cb:
 558              	.LFB719:
  84:home_screen.c **** static void offset_slider_event_cb(lv_obj_t * slider, lv_event_t event)
  85:home_screen.c **** {
 559              		.loc 5 85 0
 560              		.cfi_startproc
 561              		@ args = 0, pretend = 0, frame = 8
 562              		@ frame_needed = 1, uses_anonymous_args = 0
 563 0000 80B5     		push	{r7, lr}
 564              		.cfi_def_cfa_offset 8
 565              		.cfi_offset 7, -8
 566              		.cfi_offset 14, -4
 567 0002 82B0     		sub	sp, sp, #8
 568              		.cfi_def_cfa_offset 16
 569 0004 00AF     		add	r7, sp, #0
 570              		.cfi_def_cfa_register 7
 571 0006 7860     		str	r0, [r7, #4]
 572 0008 0B46     		mov	r3, r1
 573 000a FB70     		strb	r3, [r7, #3]
  86:home_screen.c ****     if(event == (LV_EVENT_VALUE_CHANGED)) {
 574              		.loc 5 86 0
 575 000c FB78     		ldrb	r3, [r7, #3]	@ zero_extendqisi2
 576 000e 0E2B     		cmp	r3, #14
 577 0010 17D1     		bne	.L26
 578              	.LBB3:
  87:home_screen.c ****         static char buf[4]; /* max 3 bytes for number plus 1 null terminating byte */
  88:home_screen.c ****         snprintf(buf, 4, "%u", lv_slider_get_value(slider));
 579              		.loc 5 88 0
 580 0012 7868     		ldr	r0, [r7, #4]
ARM GAS  C:\Users\tmj32\AppData\Local\Temp\ccmPTl49.s 			page 27


 581 0014 FFF7FEFF 		bl	lv_slider_get_value
 582 0018 0346     		mov	r3, r0
 583 001a 0C4A     		ldr	r2, .L27
 584 001c 0421     		movs	r1, #4
 585 001e 0C48     		ldr	r0, .L27+4
 586 0020 FFF7FEFF 		bl	snprintf
  89:home_screen.c ****         lv_label_set_text(offsetLabel, buf);
 587              		.loc 5 89 0
 588 0024 0B4B     		ldr	r3, .L27+8
 589 0026 1B68     		ldr	r3, [r3]
 590 0028 0949     		ldr	r1, .L27+4
 591 002a 1846     		mov	r0, r3
 592 002c FFF7FEFF 		bl	lv_label_set_text
  90:home_screen.c ****         cm4.Offset = lv_slider_get_value(slider);
 593              		.loc 5 90 0
 594 0030 7868     		ldr	r0, [r7, #4]
 595 0032 FFF7FEFF 		bl	lv_slider_get_value
 596 0036 0346     		mov	r3, r0
 597 0038 DAB2     		uxtb	r2, r3
 598 003a 074B     		ldr	r3, .L27+12
 599 003c 9A72     		strb	r2, [r3, #10]
  91:home_screen.c ****         chart_actions();    //call to update the chart
 600              		.loc 5 91 0
 601 003e FFF7FEFF 		bl	chart_actions
 602              	.L26:
 603              	.LBE3:
  92:home_screen.c ****     }
  93:home_screen.c **** }
 604              		.loc 5 93 0
 605 0042 00BF     		nop
 606 0044 0837     		adds	r7, r7, #8
 607              		.cfi_def_cfa_offset 8
 608 0046 BD46     		mov	sp, r7
 609              		.cfi_def_cfa_register 13
 610              		@ sp needed
 611 0048 80BD     		pop	{r7, pc}
 612              	.L28:
 613 004a 00BF     		.align	2
 614              	.L27:
 615 004c 1C000000 		.word	.LC3
 616 0050 1C000000 		.word	buf.20861
 617 0054 00000000 		.word	offsetLabel
 618 0058 00000000 		.word	cm4
 619              		.cfi_endproc
 620              	.LFE719:
 621              		.size	offset_slider_event_cb, .-offset_slider_event_cb
 622              		.section	.text.trigger_slider_event_cb,"ax",%progbits
 623              		.align	2
 624              		.thumb
 625              		.thumb_func
 626              		.type	trigger_slider_event_cb, %function
 627              	trigger_slider_event_cb:
 628              	.LFB720:
  94:home_screen.c **** static void trigger_slider_event_cb(lv_obj_t * slider, lv_event_t event)
  95:home_screen.c **** {
 629              		.loc 5 95 0
 630              		.cfi_startproc
ARM GAS  C:\Users\tmj32\AppData\Local\Temp\ccmPTl49.s 			page 28


 631              		@ args = 0, pretend = 0, frame = 8
 632              		@ frame_needed = 1, uses_anonymous_args = 0
 633 0000 80B5     		push	{r7, lr}
 634              		.cfi_def_cfa_offset 8
 635              		.cfi_offset 7, -8
 636              		.cfi_offset 14, -4
 637 0002 82B0     		sub	sp, sp, #8
 638              		.cfi_def_cfa_offset 16
 639 0004 00AF     		add	r7, sp, #0
 640              		.cfi_def_cfa_register 7
 641 0006 7860     		str	r0, [r7, #4]
 642 0008 0B46     		mov	r3, r1
 643 000a FB70     		strb	r3, [r7, #3]
  96:home_screen.c ****     if(event == (LV_EVENT_VALUE_CHANGED)) {
 644              		.loc 5 96 0
 645 000c FB78     		ldrb	r3, [r7, #3]	@ zero_extendqisi2
 646 000e 0E2B     		cmp	r3, #14
 647 0010 17D1     		bne	.L31
 648              	.LBB4:
  97:home_screen.c ****         static char buf[4]; /* max 3 bytes for number plus 1 null terminating byte */
  98:home_screen.c ****         snprintf(buf, 4, "%u", lv_slider_get_value(slider));
 649              		.loc 5 98 0
 650 0012 7868     		ldr	r0, [r7, #4]
 651 0014 FFF7FEFF 		bl	lv_slider_get_value
 652 0018 0346     		mov	r3, r0
 653 001a 0C4A     		ldr	r2, .L32
 654 001c 0421     		movs	r1, #4
 655 001e 0C48     		ldr	r0, .L32+4
 656 0020 FFF7FEFF 		bl	snprintf
  99:home_screen.c ****         lv_label_set_text(triggerLabel, buf);
 657              		.loc 5 99 0
 658 0024 0B4B     		ldr	r3, .L32+8
 659 0026 1B68     		ldr	r3, [r3]
 660 0028 0949     		ldr	r1, .L32+4
 661 002a 1846     		mov	r0, r3
 662 002c FFF7FEFF 		bl	lv_label_set_text
 100:home_screen.c ****         cm4.Trigger = lv_slider_get_value(slider);
 663              		.loc 5 100 0
 664 0030 7868     		ldr	r0, [r7, #4]
 665 0032 FFF7FEFF 		bl	lv_slider_get_value
 666 0036 0346     		mov	r3, r0
 667 0038 DAB2     		uxtb	r2, r3
 668 003a 074B     		ldr	r3, .L32+12
 669 003c 1A71     		strb	r2, [r3, #4]
 101:home_screen.c ****         chart_actions();    //call to update the chart
 670              		.loc 5 101 0
 671 003e FFF7FEFF 		bl	chart_actions
 672              	.L31:
 673              	.LBE4:
 102:home_screen.c ****     }
 103:home_screen.c **** }
 674              		.loc 5 103 0
 675 0042 00BF     		nop
 676 0044 0837     		adds	r7, r7, #8
 677              		.cfi_def_cfa_offset 8
 678 0046 BD46     		mov	sp, r7
 679              		.cfi_def_cfa_register 13
ARM GAS  C:\Users\tmj32\AppData\Local\Temp\ccmPTl49.s 			page 29


 680              		@ sp needed
 681 0048 80BD     		pop	{r7, pc}
 682              	.L33:
 683 004a 00BF     		.align	2
 684              	.L32:
 685 004c 1C000000 		.word	.LC3
 686 0050 20000000 		.word	buf.20866
 687 0054 04000000 		.word	triggerLabel
 688 0058 00000000 		.word	cm4
 689              		.cfi_endproc
 690              	.LFE720:
 691              		.size	trigger_slider_event_cb, .-trigger_slider_event_cb
 692              		.section	.text.hori_slider_event_cb,"ax",%progbits
 693              		.align	2
 694              		.thumb
 695              		.thumb_func
 696              		.type	hori_slider_event_cb, %function
 697              	hori_slider_event_cb:
 698              	.LFB721:
 104:home_screen.c **** static void hori_slider_event_cb(lv_obj_t * slider, lv_event_t event)
 105:home_screen.c **** {
 699              		.loc 5 105 0
 700              		.cfi_startproc
 701              		@ args = 0, pretend = 0, frame = 8
 702              		@ frame_needed = 1, uses_anonymous_args = 0
 703 0000 80B5     		push	{r7, lr}
 704              		.cfi_def_cfa_offset 8
 705              		.cfi_offset 7, -8
 706              		.cfi_offset 14, -4
 707 0002 82B0     		sub	sp, sp, #8
 708              		.cfi_def_cfa_offset 16
 709 0004 00AF     		add	r7, sp, #0
 710              		.cfi_def_cfa_register 7
 711 0006 7860     		str	r0, [r7, #4]
 712 0008 0B46     		mov	r3, r1
 713 000a FB70     		strb	r3, [r7, #3]
 106:home_screen.c ****     if(event == (LV_EVENT_VALUE_CHANGED)) {
 714              		.loc 5 106 0
 715 000c FB78     		ldrb	r3, [r7, #3]	@ zero_extendqisi2
 716 000e 0E2B     		cmp	r3, #14
 717 0010 17D1     		bne	.L36
 718              	.LBB5:
 107:home_screen.c ****         static char buf[4]; /* max 3 bytes for number plus 1 null terminating byte */
 108:home_screen.c ****         snprintf(buf, 4, "%u", lv_slider_get_value(slider));
 719              		.loc 5 108 0
 720 0012 7868     		ldr	r0, [r7, #4]
 721 0014 FFF7FEFF 		bl	lv_slider_get_value
 722 0018 0346     		mov	r3, r0
 723 001a 0C4A     		ldr	r2, .L37
 724 001c 0421     		movs	r1, #4
 725 001e 0C48     		ldr	r0, .L37+4
 726 0020 FFF7FEFF 		bl	snprintf
 109:home_screen.c ****         lv_label_set_text(horiLabel1, buf);
 727              		.loc 5 109 0
 728 0024 0B4B     		ldr	r3, .L37+8
 729 0026 1B68     		ldr	r3, [r3]
 730 0028 0949     		ldr	r1, .L37+4
ARM GAS  C:\Users\tmj32\AppData\Local\Temp\ccmPTl49.s 			page 30


 731 002a 1846     		mov	r0, r3
 732 002c FFF7FEFF 		bl	lv_label_set_text
 110:home_screen.c ****         cm4.HoriScale = lv_slider_get_value(slider);
 733              		.loc 5 110 0
 734 0030 7868     		ldr	r0, [r7, #4]
 735 0032 FFF7FEFF 		bl	lv_slider_get_value
 736 0036 0346     		mov	r3, r0
 737 0038 DAB2     		uxtb	r2, r3
 738 003a 074B     		ldr	r3, .L37+12
 739 003c 1A76     		strb	r2, [r3, #24]
 111:home_screen.c ****         chart_actions();    //call to update the chart
 740              		.loc 5 111 0
 741 003e FFF7FEFF 		bl	chart_actions
 742              	.L36:
 743              	.LBE5:
 112:home_screen.c ****     }
 113:home_screen.c **** }
 744              		.loc 5 113 0
 745 0042 00BF     		nop
 746 0044 0837     		adds	r7, r7, #8
 747              		.cfi_def_cfa_offset 8
 748 0046 BD46     		mov	sp, r7
 749              		.cfi_def_cfa_register 13
 750              		@ sp needed
 751 0048 80BD     		pop	{r7, pc}
 752              	.L38:
 753 004a 00BF     		.align	2
 754              	.L37:
 755 004c 1C000000 		.word	.LC3
 756 0050 24000000 		.word	buf.20871
 757 0054 08000000 		.word	horiLabel1
 758 0058 00000000 		.word	cm4
 759              		.cfi_endproc
 760              	.LFE721:
 761              		.size	hori_slider_event_cb, .-hori_slider_event_cb
 762              		.section	.text.verti_slider_event_cb,"ax",%progbits
 763              		.align	2
 764              		.thumb
 765              		.thumb_func
 766              		.type	verti_slider_event_cb, %function
 767              	verti_slider_event_cb:
 768              	.LFB722:
 114:home_screen.c **** static void verti_slider_event_cb(lv_obj_t * slider, lv_event_t event)
 115:home_screen.c **** {
 769              		.loc 5 115 0
 770              		.cfi_startproc
 771              		@ args = 0, pretend = 0, frame = 8
 772              		@ frame_needed = 1, uses_anonymous_args = 0
 773 0000 80B5     		push	{r7, lr}
 774              		.cfi_def_cfa_offset 8
 775              		.cfi_offset 7, -8
 776              		.cfi_offset 14, -4
 777 0002 82B0     		sub	sp, sp, #8
 778              		.cfi_def_cfa_offset 16
 779 0004 00AF     		add	r7, sp, #0
 780              		.cfi_def_cfa_register 7
 781 0006 7860     		str	r0, [r7, #4]
ARM GAS  C:\Users\tmj32\AppData\Local\Temp\ccmPTl49.s 			page 31


 782 0008 0B46     		mov	r3, r1
 783 000a FB70     		strb	r3, [r7, #3]
 116:home_screen.c ****     if(event == (LV_EVENT_VALUE_CHANGED)) {
 784              		.loc 5 116 0
 785 000c FB78     		ldrb	r3, [r7, #3]	@ zero_extendqisi2
 786 000e 0E2B     		cmp	r3, #14
 787 0010 17D1     		bne	.L41
 788              	.LBB6:
 117:home_screen.c ****         static char buf[4]; /* max 3 bytes for number plus 1 null terminating byte */
 118:home_screen.c ****         snprintf(buf, 4, "%u", lv_slider_get_value(slider));
 789              		.loc 5 118 0
 790 0012 7868     		ldr	r0, [r7, #4]
 791 0014 FFF7FEFF 		bl	lv_slider_get_value
 792 0018 0346     		mov	r3, r0
 793 001a 0C4A     		ldr	r2, .L42
 794 001c 0421     		movs	r1, #4
 795 001e 0C48     		ldr	r0, .L42+4
 796 0020 FFF7FEFF 		bl	snprintf
 119:home_screen.c ****         lv_label_set_text(vertLabel1, buf);
 797              		.loc 5 119 0
 798 0024 0B4B     		ldr	r3, .L42+8
 799 0026 1B68     		ldr	r3, [r3]
 800 0028 0949     		ldr	r1, .L42+4
 801 002a 1846     		mov	r0, r3
 802 002c FFF7FEFF 		bl	lv_label_set_text
 120:home_screen.c ****         cm4.VertScale = lv_slider_get_value(slider);
 803              		.loc 5 120 0
 804 0030 7868     		ldr	r0, [r7, #4]
 805 0032 FFF7FEFF 		bl	lv_slider_get_value
 806 0036 0346     		mov	r3, r0
 807 0038 DAB2     		uxtb	r2, r3
 808 003a 074B     		ldr	r3, .L42+12
 809 003c 5A76     		strb	r2, [r3, #25]
 121:home_screen.c ****         chart_actions();    //call to update the chart
 810              		.loc 5 121 0
 811 003e FFF7FEFF 		bl	chart_actions
 812              	.L41:
 813              	.LBE6:
 122:home_screen.c ****     }
 123:home_screen.c **** }
 814              		.loc 5 123 0
 815 0042 00BF     		nop
 816 0044 0837     		adds	r7, r7, #8
 817              		.cfi_def_cfa_offset 8
 818 0046 BD46     		mov	sp, r7
 819              		.cfi_def_cfa_register 13
 820              		@ sp needed
 821 0048 80BD     		pop	{r7, pc}
 822              	.L43:
 823 004a 00BF     		.align	2
 824              	.L42:
 825 004c 1C000000 		.word	.LC3
 826 0050 28000000 		.word	buf.20876
 827 0054 0C000000 		.word	vertLabel1
 828 0058 00000000 		.word	cm4
 829              		.cfi_endproc
 830              	.LFE722:
ARM GAS  C:\Users\tmj32\AppData\Local\Temp\ccmPTl49.s 			page 32


 831              		.size	verti_slider_event_cb, .-verti_slider_event_cb
 832              		.section	.text.window_slider_event_cb,"ax",%progbits
 833              		.align	2
 834              		.thumb
 835              		.thumb_func
 836              		.type	window_slider_event_cb, %function
 837              	window_slider_event_cb:
 838              	.LFB723:
 124:home_screen.c **** static void window_slider_event_cb(lv_obj_t * slider, lv_event_t event)
 125:home_screen.c **** {
 839              		.loc 5 125 0
 840              		.cfi_startproc
 841              		@ args = 0, pretend = 0, frame = 8
 842              		@ frame_needed = 1, uses_anonymous_args = 0
 843 0000 80B5     		push	{r7, lr}
 844              		.cfi_def_cfa_offset 8
 845              		.cfi_offset 7, -8
 846              		.cfi_offset 14, -4
 847 0002 82B0     		sub	sp, sp, #8
 848              		.cfi_def_cfa_offset 16
 849 0004 00AF     		add	r7, sp, #0
 850              		.cfi_def_cfa_register 7
 851 0006 7860     		str	r0, [r7, #4]
 852 0008 0B46     		mov	r3, r1
 853 000a FB70     		strb	r3, [r7, #3]
 126:home_screen.c ****     if(event == (LV_EVENT_VALUE_CHANGED)) {
 854              		.loc 5 126 0
 855 000c FB78     		ldrb	r3, [r7, #3]	@ zero_extendqisi2
 856 000e 0E2B     		cmp	r3, #14
 857 0010 17D1     		bne	.L46
 858              	.LBB7:
 127:home_screen.c ****         static char buf[6]; /* max 3 bytes for number plus 1 null terminating byte */
 128:home_screen.c ****         snprintf(buf, 6, "%u", lv_slider_get_value(slider));
 859              		.loc 5 128 0
 860 0012 7868     		ldr	r0, [r7, #4]
 861 0014 FFF7FEFF 		bl	lv_slider_get_value
 862 0018 0346     		mov	r3, r0
 863 001a 0C4A     		ldr	r2, .L47
 864 001c 0621     		movs	r1, #6
 865 001e 0C48     		ldr	r0, .L47+4
 866 0020 FFF7FEFF 		bl	snprintf
 129:home_screen.c ****         lv_label_set_text(windowLabel, buf);
 867              		.loc 5 129 0
 868 0024 0B4B     		ldr	r3, .L47+8
 869 0026 1B68     		ldr	r3, [r3]
 870 0028 0949     		ldr	r1, .L47+4
 871 002a 1846     		mov	r0, r3
 872 002c FFF7FEFF 		bl	lv_label_set_text
 130:home_screen.c ****         cm4.windowPos = lv_slider_get_value(slider);
 873              		.loc 5 130 0
 874 0030 7868     		ldr	r0, [r7, #4]
 875 0032 FFF7FEFF 		bl	lv_slider_get_value
 876 0036 0346     		mov	r3, r0
 877 0038 1A46     		mov	r2, r3
 878 003a 074B     		ldr	r3, .L47+12
 879 003c DA60     		str	r2, [r3, #12]
 131:home_screen.c ****         chart_actions();    //call to update the chart
ARM GAS  C:\Users\tmj32\AppData\Local\Temp\ccmPTl49.s 			page 33


 880              		.loc 5 131 0
 881 003e FFF7FEFF 		bl	chart_actions
 882              	.L46:
 883              	.LBE7:
 132:home_screen.c ****     }
 133:home_screen.c **** }
 884              		.loc 5 133 0
 885 0042 00BF     		nop
 886 0044 0837     		adds	r7, r7, #8
 887              		.cfi_def_cfa_offset 8
 888 0046 BD46     		mov	sp, r7
 889              		.cfi_def_cfa_register 13
 890              		@ sp needed
 891 0048 80BD     		pop	{r7, pc}
 892              	.L48:
 893 004a 00BF     		.align	2
 894              	.L47:
 895 004c 1C000000 		.word	.LC3
 896 0050 2C000000 		.word	buf.20881
 897 0054 10000000 		.word	windowLabel
 898 0058 00000000 		.word	cm4
 899              		.cfi_endproc
 900              	.LFE723:
 901              		.size	window_slider_event_cb, .-window_slider_event_cb
 902              		.section	.rodata
 903 001f 00       		.align	2
 904              	.LC4:
 905 0020 3000     		.ascii	"0\000"
 906 0022 0000     		.align	2
 907              	.LC5:
 908 0024 4F666673 		.ascii	"Offset:\000"
 908      65743A00 
 909              		.align	2
 910              	.LC6:
 911 002c 3500     		.ascii	"5\000"
 912 002e 0000     		.align	2
 913              	.LC7:
 914 0030 54726967 		.ascii	"Trigger: \000"
 914      6765723A 
 914      2000
 915 003a 0000     		.align	2
 916              	.LC8:
 917 003c 486F7269 		.ascii	"Hori. Scale: \000"
 917      2E205363 
 917      616C653A 
 917      2000
 918 004a 0000     		.align	2
 919              	.LC9:
 920 004c 56657274 		.ascii	"Vert. Scale: \000"
 920      2E205363 
 920      616C653A 
 920      2000
 921 005a 0000     		.align	2
 922              	.LC10:
 923 005c 35313200 		.ascii	"512\000"
 924              		.align	2
 925              	.LC11:
ARM GAS  C:\Users\tmj32\AppData\Local\Temp\ccmPTl49.s 			page 34


 926 0060 4F6E5C4F 		.ascii	"On\\Off\000"
 926      666600
 927              		.section	.text.home_screen,"ax",%progbits
 928              		.align	2
 929              		.global	home_screen
 930              		.thumb
 931              		.thumb_func
 932              		.type	home_screen, %function
 933              	home_screen:
 934              	.LFB724:
 134:home_screen.c **** 
 135:home_screen.c **** void home_screen()
 136:home_screen.c **** {    
 935              		.loc 5 136 0
 936              		.cfi_startproc
 937              		@ args = 0, pretend = 0, frame = 48
 938              		@ frame_needed = 1, uses_anonymous_args = 0
 939 0000 80B5     		push	{r7, lr}
 940              		.cfi_def_cfa_offset 8
 941              		.cfi_offset 7, -8
 942              		.cfi_offset 14, -4
 943 0002 8EB0     		sub	sp, sp, #56
 944              		.cfi_def_cfa_offset 64
 945 0004 02AF     		add	r7, sp, #8
 946              		.cfi_def_cfa 7, 56
 137:home_screen.c ****     /* First Slider: Offset */
 138:home_screen.c ****     lv_obj_t * offsetSlider = lv_slider_create(lv_scr_act(), NULL);
 947              		.loc 5 138 0
 948 0006 FFF7FEFF 		bl	lv_scr_act
 949 000a 0346     		mov	r3, r0
 950 000c 0021     		movs	r1, #0
 951 000e 1846     		mov	r0, r3
 952 0010 FFF7FEFF 		bl	lv_slider_create
 953 0014 F862     		str	r0, [r7, #44]
 139:home_screen.c ****     lv_obj_set_pos(offsetSlider, 20, 295);                         /*Set its position*/
 954              		.loc 5 139 0
 955 0016 40F22712 		movw	r2, #295
 956 001a 1421     		movs	r1, #20
 957 001c F86A     		ldr	r0, [r7, #44]
 958 001e FFF7FEFF 		bl	lv_obj_set_pos
 140:home_screen.c ****     lv_obj_set_size(offsetSlider, 130, 30);                        /*Set its size*/
 959              		.loc 5 140 0
 960 0022 1E22     		movs	r2, #30
 961 0024 8221     		movs	r1, #130
 962 0026 F86A     		ldr	r0, [r7, #44]
 963 0028 FFF7FEFF 		bl	lv_obj_set_size
 141:home_screen.c ****     lv_slider_set_value(offsetSlider, 0, LV_ANIM_ON);
 964              		.loc 5 141 0
 965 002c 0122     		movs	r2, #1
 966 002e 0021     		movs	r1, #0
 967 0030 F86A     		ldr	r0, [r7, #44]
 968 0032 FFF7FEFF 		bl	lv_slider_set_value
 142:home_screen.c ****     lv_obj_set_event_cb(offsetSlider, offset_slider_event_cb);
 969              		.loc 5 142 0
 970 0036 C549     		ldr	r1, .L50
 971 0038 F86A     		ldr	r0, [r7, #44]
 972 003a FFF7FEFF 		bl	lv_obj_set_event_cb
ARM GAS  C:\Users\tmj32\AppData\Local\Temp\ccmPTl49.s 			page 35


 143:home_screen.c ****     lv_slider_set_range(offsetSlider, 0, 10);
 973              		.loc 5 143 0
 974 003e 0A22     		movs	r2, #10
 975 0040 0021     		movs	r1, #0
 976 0042 F86A     		ldr	r0, [r7, #44]
 977 0044 FFF7FEFF 		bl	lv_slider_set_range
 144:home_screen.c ****         
 145:home_screen.c ****             /* Create a label below the slider */
 146:home_screen.c ****             offsetLabel = lv_label_create(lv_scr_act(), NULL);
 978              		.loc 5 146 0
 979 0048 FFF7FEFF 		bl	lv_scr_act
 980 004c 0346     		mov	r3, r0
 981 004e 0021     		movs	r1, #0
 982 0050 1846     		mov	r0, r3
 983 0052 FFF7FEFF 		bl	lv_label_create
 984 0056 0246     		mov	r2, r0
 985 0058 BD4B     		ldr	r3, .L50+4
 986 005a 1A60     		str	r2, [r3]
 147:home_screen.c ****             lv_label_set_text(offsetLabel, "0");
 987              		.loc 5 147 0
 988 005c BC4B     		ldr	r3, .L50+4
 989 005e 1B68     		ldr	r3, [r3]
 990 0060 BC49     		ldr	r1, .L50+8
 991 0062 1846     		mov	r0, r3
 992 0064 FFF7FEFF 		bl	lv_label_set_text
 148:home_screen.c ****             lv_obj_set_auto_realign(offsetLabel, true);
 993              		.loc 5 148 0
 994 0068 B94B     		ldr	r3, .L50+4
 995 006a 1B68     		ldr	r3, [r3]
 996 006c 0121     		movs	r1, #1
 997 006e 1846     		mov	r0, r3
 998 0070 FFF7FEFF 		bl	lv_obj_set_auto_realign
 149:home_screen.c ****             lv_obj_align(offsetLabel, offsetSlider, LV_ALIGN_OUT_BOTTOM_MID, 0, 0);
 999              		.loc 5 149 0
 1000 0074 B64B     		ldr	r3, .L50+4
 1001 0076 1868     		ldr	r0, [r3]
 1002 0078 0023     		movs	r3, #0
 1003 007a 0093     		str	r3, [sp]
 1004 007c 0023     		movs	r3, #0
 1005 007e 0D22     		movs	r2, #13
 1006 0080 F96A     		ldr	r1, [r7, #44]
 1007 0082 FFF7FEFF 		bl	lv_obj_align
 150:home_screen.c ****         
 151:home_screen.c ****             /* Create a label above the slider */
 152:home_screen.c ****         	lv_obj_t* offsetLabel2 = lv_label_create(lv_scr_act(), NULL);
 1008              		.loc 5 152 0
 1009 0086 FFF7FEFF 		bl	lv_scr_act
 1010 008a 0346     		mov	r3, r0
 1011 008c 0021     		movs	r1, #0
 1012 008e 1846     		mov	r0, r3
 1013 0090 FFF7FEFF 		bl	lv_label_create
 1014 0094 B862     		str	r0, [r7, #40]
 153:home_screen.c ****         	lv_obj_set_drag(offsetLabel2, false);
 1015              		.loc 5 153 0
 1016 0096 0021     		movs	r1, #0
 1017 0098 B86A     		ldr	r0, [r7, #40]
 1018 009a FFF7FEFF 		bl	lv_obj_set_drag
ARM GAS  C:\Users\tmj32\AppData\Local\Temp\ccmPTl49.s 			page 36


 154:home_screen.c ****             lv_label_set_text(offsetLabel2, "Offset:");
 1019              		.loc 5 154 0
 1020 009e AE49     		ldr	r1, .L50+12
 1021 00a0 B86A     		ldr	r0, [r7, #40]
 1022 00a2 FFF7FEFF 		bl	lv_label_set_text
 155:home_screen.c ****             lv_label_set_long_mode(offsetLabel2, LV_LABEL_LONG_EXPAND);
 1023              		.loc 5 155 0
 1024 00a6 0021     		movs	r1, #0
 1025 00a8 B86A     		ldr	r0, [r7, #40]
 1026 00aa FFF7FEFF 		bl	lv_label_set_long_mode
 156:home_screen.c ****             lv_obj_align(offsetLabel2, offsetSlider, LV_ALIGN_OUT_TOP_MID, 0, 0);                  
 1027              		.loc 5 156 0
 1028 00ae 0023     		movs	r3, #0
 1029 00b0 0093     		str	r3, [sp]
 1030 00b2 0023     		movs	r3, #0
 1031 00b4 0A22     		movs	r2, #10
 1032 00b6 F96A     		ldr	r1, [r7, #44]
 1033 00b8 B86A     		ldr	r0, [r7, #40]
 1034 00ba FFF7FEFF 		bl	lv_obj_align
 157:home_screen.c ****     
 158:home_screen.c ****             
 159:home_screen.c ****             
 160:home_screen.c ****     /* Second Slider: Trigger */
 161:home_screen.c ****     lv_obj_t * triggerSlider = lv_slider_create(lv_scr_act(), NULL);
 1035              		.loc 5 161 0
 1036 00be FFF7FEFF 		bl	lv_scr_act
 1037 00c2 0346     		mov	r3, r0
 1038 00c4 0021     		movs	r1, #0
 1039 00c6 1846     		mov	r0, r3
 1040 00c8 FFF7FEFF 		bl	lv_slider_create
 1041 00cc 7862     		str	r0, [r7, #36]
 162:home_screen.c ****     lv_obj_set_pos(triggerSlider, 170, 295);                         /*Set its position*/
 1042              		.loc 5 162 0
 1043 00ce 40F22712 		movw	r2, #295
 1044 00d2 AA21     		movs	r1, #170
 1045 00d4 786A     		ldr	r0, [r7, #36]
 1046 00d6 FFF7FEFF 		bl	lv_obj_set_pos
 163:home_screen.c ****     lv_obj_set_size(triggerSlider, 130, 30);                        /*Set its size*/
 1047              		.loc 5 163 0
 1048 00da 1E22     		movs	r2, #30
 1049 00dc 8221     		movs	r1, #130
 1050 00de 786A     		ldr	r0, [r7, #36]
 1051 00e0 FFF7FEFF 		bl	lv_obj_set_size
 164:home_screen.c ****     lv_slider_set_value(triggerSlider, 5, LV_ANIM_ON);
 1052              		.loc 5 164 0
 1053 00e4 0122     		movs	r2, #1
 1054 00e6 0521     		movs	r1, #5
 1055 00e8 786A     		ldr	r0, [r7, #36]
 1056 00ea FFF7FEFF 		bl	lv_slider_set_value
 165:home_screen.c ****     lv_obj_set_event_cb(triggerSlider, trigger_slider_event_cb);
 1057              		.loc 5 165 0
 1058 00ee 9B49     		ldr	r1, .L50+16
 1059 00f0 786A     		ldr	r0, [r7, #36]
 1060 00f2 FFF7FEFF 		bl	lv_obj_set_event_cb
 166:home_screen.c ****     lv_slider_set_range(triggerSlider, 0, 10);
 1061              		.loc 5 166 0
 1062 00f6 0A22     		movs	r2, #10
ARM GAS  C:\Users\tmj32\AppData\Local\Temp\ccmPTl49.s 			page 37


 1063 00f8 0021     		movs	r1, #0
 1064 00fa 786A     		ldr	r0, [r7, #36]
 1065 00fc FFF7FEFF 		bl	lv_slider_set_range
 167:home_screen.c ****     
 168:home_screen.c ****             /* Create a label below the slider */
 169:home_screen.c ****             triggerLabel = lv_label_create(lv_scr_act(), NULL);
 1066              		.loc 5 169 0
 1067 0100 FFF7FEFF 		bl	lv_scr_act
 1068 0104 0346     		mov	r3, r0
 1069 0106 0021     		movs	r1, #0
 1070 0108 1846     		mov	r0, r3
 1071 010a FFF7FEFF 		bl	lv_label_create
 1072 010e 0246     		mov	r2, r0
 1073 0110 934B     		ldr	r3, .L50+20
 1074 0112 1A60     		str	r2, [r3]
 170:home_screen.c ****             lv_label_set_text(triggerLabel, "5");
 1075              		.loc 5 170 0
 1076 0114 924B     		ldr	r3, .L50+20
 1077 0116 1B68     		ldr	r3, [r3]
 1078 0118 9249     		ldr	r1, .L50+24
 1079 011a 1846     		mov	r0, r3
 1080 011c FFF7FEFF 		bl	lv_label_set_text
 171:home_screen.c ****             lv_obj_set_auto_realign(triggerLabel, true);
 1081              		.loc 5 171 0
 1082 0120 8F4B     		ldr	r3, .L50+20
 1083 0122 1B68     		ldr	r3, [r3]
 1084 0124 0121     		movs	r1, #1
 1085 0126 1846     		mov	r0, r3
 1086 0128 FFF7FEFF 		bl	lv_obj_set_auto_realign
 172:home_screen.c ****             lv_obj_align(triggerLabel, triggerSlider, LV_ALIGN_OUT_BOTTOM_MID, 0, 0);
 1087              		.loc 5 172 0
 1088 012c 8C4B     		ldr	r3, .L50+20
 1089 012e 1868     		ldr	r0, [r3]
 1090 0130 0023     		movs	r3, #0
 1091 0132 0093     		str	r3, [sp]
 1092 0134 0023     		movs	r3, #0
 1093 0136 0D22     		movs	r2, #13
 1094 0138 796A     		ldr	r1, [r7, #36]
 1095 013a FFF7FEFF 		bl	lv_obj_align
 173:home_screen.c ****             
 174:home_screen.c ****             /* Create a label above the slider */
 175:home_screen.c ****         	lv_obj_t* triggerLabel2 = lv_label_create(lv_scr_act(), NULL);
 1096              		.loc 5 175 0
 1097 013e FFF7FEFF 		bl	lv_scr_act
 1098 0142 0346     		mov	r3, r0
 1099 0144 0021     		movs	r1, #0
 1100 0146 1846     		mov	r0, r3
 1101 0148 FFF7FEFF 		bl	lv_label_create
 1102 014c 3862     		str	r0, [r7, #32]
 176:home_screen.c ****         	lv_obj_set_drag(triggerLabel2, false);
 1103              		.loc 5 176 0
 1104 014e 0021     		movs	r1, #0
 1105 0150 386A     		ldr	r0, [r7, #32]
 1106 0152 FFF7FEFF 		bl	lv_obj_set_drag
 177:home_screen.c ****             lv_label_set_text(triggerLabel2, "Trigger: ");
 1107              		.loc 5 177 0
 1108 0156 8449     		ldr	r1, .L50+28
ARM GAS  C:\Users\tmj32\AppData\Local\Temp\ccmPTl49.s 			page 38


 1109 0158 386A     		ldr	r0, [r7, #32]
 1110 015a FFF7FEFF 		bl	lv_label_set_text
 178:home_screen.c ****             lv_obj_align(triggerLabel2, triggerSlider, LV_ALIGN_OUT_TOP_MID, 0, 0); 
 1111              		.loc 5 178 0
 1112 015e 0023     		movs	r3, #0
 1113 0160 0093     		str	r3, [sp]
 1114 0162 0023     		movs	r3, #0
 1115 0164 0A22     		movs	r2, #10
 1116 0166 796A     		ldr	r1, [r7, #36]
 1117 0168 386A     		ldr	r0, [r7, #32]
 1118 016a FFF7FEFF 		bl	lv_obj_align
 179:home_screen.c **** 
 180:home_screen.c ****     
 181:home_screen.c ****             
 182:home_screen.c ****     /* Third Slider: Hori. Scale */
 183:home_screen.c ****     lv_obj_t * horiSlider = lv_slider_create(lv_scr_act(), NULL);
 1119              		.loc 5 183 0
 1120 016e FFF7FEFF 		bl	lv_scr_act
 1121 0172 0346     		mov	r3, r0
 1122 0174 0021     		movs	r1, #0
 1123 0176 1846     		mov	r0, r3
 1124 0178 FFF7FEFF 		bl	lv_slider_create
 1125 017c F861     		str	r0, [r7, #28]
 184:home_screen.c ****     lv_obj_set_pos(horiSlider, 20, 375);                         /*Set its position*/
 1126              		.loc 5 184 0
 1127 017e 40F27712 		movw	r2, #375
 1128 0182 1421     		movs	r1, #20
 1129 0184 F869     		ldr	r0, [r7, #28]
 1130 0186 FFF7FEFF 		bl	lv_obj_set_pos
 185:home_screen.c ****     lv_obj_set_size(horiSlider, 130, 30);                        /*Set its size*/
 1131              		.loc 5 185 0
 1132 018a 1E22     		movs	r2, #30
 1133 018c 8221     		movs	r1, #130
 1134 018e F869     		ldr	r0, [r7, #28]
 1135 0190 FFF7FEFF 		bl	lv_obj_set_size
 186:home_screen.c ****     lv_slider_set_value(horiSlider, 4, LV_ANIM_ON);
 1136              		.loc 5 186 0
 1137 0194 0122     		movs	r2, #1
 1138 0196 0421     		movs	r1, #4
 1139 0198 F869     		ldr	r0, [r7, #28]
 1140 019a FFF7FEFF 		bl	lv_slider_set_value
 187:home_screen.c ****     lv_obj_set_event_cb(horiSlider, hori_slider_event_cb);
 1141              		.loc 5 187 0
 1142 019e 7349     		ldr	r1, .L50+32
 1143 01a0 F869     		ldr	r0, [r7, #28]
 1144 01a2 FFF7FEFF 		bl	lv_obj_set_event_cb
 188:home_screen.c ****     lv_slider_set_range(horiSlider, 0, 10);                      // 11 options for the 11 different
 1145              		.loc 5 188 0
 1146 01a6 0A22     		movs	r2, #10
 1147 01a8 0021     		movs	r1, #0
 1148 01aa F869     		ldr	r0, [r7, #28]
 1149 01ac FFF7FEFF 		bl	lv_slider_set_range
 189:home_screen.c ****     
 190:home_screen.c ****             /* Create a label below the slider */
 191:home_screen.c ****             horiLabel1 = lv_label_create(lv_scr_act(), NULL);
 1150              		.loc 5 191 0
 1151 01b0 FFF7FEFF 		bl	lv_scr_act
ARM GAS  C:\Users\tmj32\AppData\Local\Temp\ccmPTl49.s 			page 39


 1152 01b4 0346     		mov	r3, r0
 1153 01b6 0021     		movs	r1, #0
 1154 01b8 1846     		mov	r0, r3
 1155 01ba FFF7FEFF 		bl	lv_label_create
 1156 01be 0246     		mov	r2, r0
 1157 01c0 6B4B     		ldr	r3, .L50+36
 1158 01c2 1A60     		str	r2, [r3]
 192:home_screen.c ****             lv_label_set_text(horiLabel1, "5");
 1159              		.loc 5 192 0
 1160 01c4 6A4B     		ldr	r3, .L50+36
 1161 01c6 1B68     		ldr	r3, [r3]
 1162 01c8 6649     		ldr	r1, .L50+24
 1163 01ca 1846     		mov	r0, r3
 1164 01cc FFF7FEFF 		bl	lv_label_set_text
 193:home_screen.c ****             lv_obj_set_auto_realign(horiLabel1, true);
 1165              		.loc 5 193 0
 1166 01d0 674B     		ldr	r3, .L50+36
 1167 01d2 1B68     		ldr	r3, [r3]
 1168 01d4 0121     		movs	r1, #1
 1169 01d6 1846     		mov	r0, r3
 1170 01d8 FFF7FEFF 		bl	lv_obj_set_auto_realign
 194:home_screen.c ****             lv_obj_align(horiLabel1, horiSlider, LV_ALIGN_OUT_BOTTOM_MID, 0, 0);
 1171              		.loc 5 194 0
 1172 01dc 644B     		ldr	r3, .L50+36
 1173 01de 1868     		ldr	r0, [r3]
 1174 01e0 0023     		movs	r3, #0
 1175 01e2 0093     		str	r3, [sp]
 1176 01e4 0023     		movs	r3, #0
 1177 01e6 0D22     		movs	r2, #13
 1178 01e8 F969     		ldr	r1, [r7, #28]
 1179 01ea FFF7FEFF 		bl	lv_obj_align
 195:home_screen.c ****             
 196:home_screen.c ****             /* Create a label above the slider */
 197:home_screen.c ****         	lv_obj_t* horiLabel2 = lv_label_create(lv_scr_act(), NULL);
 1180              		.loc 5 197 0
 1181 01ee FFF7FEFF 		bl	lv_scr_act
 1182 01f2 0346     		mov	r3, r0
 1183 01f4 0021     		movs	r1, #0
 1184 01f6 1846     		mov	r0, r3
 1185 01f8 FFF7FEFF 		bl	lv_label_create
 1186 01fc B861     		str	r0, [r7, #24]
 198:home_screen.c ****         	lv_obj_set_drag(horiLabel2, false);
 1187              		.loc 5 198 0
 1188 01fe 0021     		movs	r1, #0
 1189 0200 B869     		ldr	r0, [r7, #24]
 1190 0202 FFF7FEFF 		bl	lv_obj_set_drag
 199:home_screen.c ****             lv_label_set_text(horiLabel2, "Hori. Scale: ");
 1191              		.loc 5 199 0
 1192 0206 5B49     		ldr	r1, .L50+40
 1193 0208 B869     		ldr	r0, [r7, #24]
 1194 020a FFF7FEFF 		bl	lv_label_set_text
 200:home_screen.c ****             lv_obj_align(horiLabel2, horiSlider, LV_ALIGN_OUT_TOP_MID, 0, 0);
 1195              		.loc 5 200 0
 1196 020e 0023     		movs	r3, #0
 1197 0210 0093     		str	r3, [sp]
 1198 0212 0023     		movs	r3, #0
 1199 0214 0A22     		movs	r2, #10
ARM GAS  C:\Users\tmj32\AppData\Local\Temp\ccmPTl49.s 			page 40


 1200 0216 F969     		ldr	r1, [r7, #28]
 1201 0218 B869     		ldr	r0, [r7, #24]
 1202 021a FFF7FEFF 		bl	lv_obj_align
 201:home_screen.c ****     
 202:home_screen.c ****             
 203:home_screen.c ****             
 204:home_screen.c ****     /* Fourth Slider: Vert. Scale */
 205:home_screen.c ****     lv_obj_t * vertSlider = lv_slider_create(lv_scr_act(), NULL);
 1203              		.loc 5 205 0
 1204 021e FFF7FEFF 		bl	lv_scr_act
 1205 0222 0346     		mov	r3, r0
 1206 0224 0021     		movs	r1, #0
 1207 0226 1846     		mov	r0, r3
 1208 0228 FFF7FEFF 		bl	lv_slider_create
 1209 022c 7861     		str	r0, [r7, #20]
 206:home_screen.c ****     lv_obj_set_pos(vertSlider, 170, 375);                         /*Set its position*/
 1210              		.loc 5 206 0
 1211 022e 40F27712 		movw	r2, #375
 1212 0232 AA21     		movs	r1, #170
 1213 0234 7869     		ldr	r0, [r7, #20]
 1214 0236 FFF7FEFF 		bl	lv_obj_set_pos
 207:home_screen.c ****     lv_obj_set_size(vertSlider, 130, 30);                        /*Set its size*/
 1215              		.loc 5 207 0
 1216 023a 1E22     		movs	r2, #30
 1217 023c 8221     		movs	r1, #130
 1218 023e 7869     		ldr	r0, [r7, #20]
 1219 0240 FFF7FEFF 		bl	lv_obj_set_size
 208:home_screen.c ****     lv_slider_set_value(vertSlider, 5, LV_ANIM_ON);
 1220              		.loc 5 208 0
 1221 0244 0122     		movs	r2, #1
 1222 0246 0521     		movs	r1, #5
 1223 0248 7869     		ldr	r0, [r7, #20]
 1224 024a FFF7FEFF 		bl	lv_slider_set_value
 209:home_screen.c ****     lv_obj_set_event_cb(vertSlider, verti_slider_event_cb);
 1225              		.loc 5 209 0
 1226 024e 4A49     		ldr	r1, .L50+44
 1227 0250 7869     		ldr	r0, [r7, #20]
 1228 0252 FFF7FEFF 		bl	lv_obj_set_event_cb
 210:home_screen.c ****     lv_slider_set_range(vertSlider, 0, 10);
 1229              		.loc 5 210 0
 1230 0256 0A22     		movs	r2, #10
 1231 0258 0021     		movs	r1, #0
 1232 025a 7869     		ldr	r0, [r7, #20]
 1233 025c FFF7FEFF 		bl	lv_slider_set_range
 211:home_screen.c ****     
 212:home_screen.c ****             /* Create a label below the slider */
 213:home_screen.c ****             vertLabel1 = lv_label_create(lv_scr_act(), NULL);
 1234              		.loc 5 213 0
 1235 0260 FFF7FEFF 		bl	lv_scr_act
 1236 0264 0346     		mov	r3, r0
 1237 0266 0021     		movs	r1, #0
 1238 0268 1846     		mov	r0, r3
 1239 026a FFF7FEFF 		bl	lv_label_create
 1240 026e 0246     		mov	r2, r0
 1241 0270 424B     		ldr	r3, .L50+48
 1242 0272 1A60     		str	r2, [r3]
 214:home_screen.c ****             lv_label_set_text(vertLabel1, "5");
ARM GAS  C:\Users\tmj32\AppData\Local\Temp\ccmPTl49.s 			page 41


 1243              		.loc 5 214 0
 1244 0274 414B     		ldr	r3, .L50+48
 1245 0276 1B68     		ldr	r3, [r3]
 1246 0278 3A49     		ldr	r1, .L50+24
 1247 027a 1846     		mov	r0, r3
 1248 027c FFF7FEFF 		bl	lv_label_set_text
 215:home_screen.c ****             lv_obj_set_auto_realign(vertLabel1, true);
 1249              		.loc 5 215 0
 1250 0280 3E4B     		ldr	r3, .L50+48
 1251 0282 1B68     		ldr	r3, [r3]
 1252 0284 0121     		movs	r1, #1
 1253 0286 1846     		mov	r0, r3
 1254 0288 FFF7FEFF 		bl	lv_obj_set_auto_realign
 216:home_screen.c ****             lv_obj_align(vertLabel1, vertSlider, LV_ALIGN_OUT_BOTTOM_MID, 0, 0);
 1255              		.loc 5 216 0
 1256 028c 3B4B     		ldr	r3, .L50+48
 1257 028e 1868     		ldr	r0, [r3]
 1258 0290 0023     		movs	r3, #0
 1259 0292 0093     		str	r3, [sp]
 1260 0294 0023     		movs	r3, #0
 1261 0296 0D22     		movs	r2, #13
 1262 0298 7969     		ldr	r1, [r7, #20]
 1263 029a FFF7FEFF 		bl	lv_obj_align
 217:home_screen.c ****             
 218:home_screen.c ****             /* Create a label above the slider */
 219:home_screen.c ****         	lv_obj_t* vertLabel2 = lv_label_create(lv_scr_act(), NULL);
 1264              		.loc 5 219 0
 1265 029e FFF7FEFF 		bl	lv_scr_act
 1266 02a2 0346     		mov	r3, r0
 1267 02a4 0021     		movs	r1, #0
 1268 02a6 1846     		mov	r0, r3
 1269 02a8 FFF7FEFF 		bl	lv_label_create
 1270 02ac 3861     		str	r0, [r7, #16]
 220:home_screen.c ****         	lv_obj_set_drag(vertLabel2, false);
 1271              		.loc 5 220 0
 1272 02ae 0021     		movs	r1, #0
 1273 02b0 3869     		ldr	r0, [r7, #16]
 1274 02b2 FFF7FEFF 		bl	lv_obj_set_drag
 221:home_screen.c ****             lv_label_set_text(vertLabel2, "Vert. Scale: ");
 1275              		.loc 5 221 0
 1276 02b6 3249     		ldr	r1, .L50+52
 1277 02b8 3869     		ldr	r0, [r7, #16]
 1278 02ba FFF7FEFF 		bl	lv_label_set_text
 222:home_screen.c ****             lv_obj_align(vertLabel2, vertSlider, LV_ALIGN_OUT_TOP_MID, 0, 0);
 1279              		.loc 5 222 0
 1280 02be 0023     		movs	r3, #0
 1281 02c0 0093     		str	r3, [sp]
 1282 02c2 0023     		movs	r3, #0
 1283 02c4 0A22     		movs	r2, #10
 1284 02c6 7969     		ldr	r1, [r7, #20]
 1285 02c8 3869     		ldr	r0, [r7, #16]
 1286 02ca FFF7FEFF 		bl	lv_obj_align
 223:home_screen.c ****     
 224:home_screen.c ****         
 225:home_screen.c ****             
 226:home_screen.c ****     /* Fifth Slider: Horizontal Window      Control Range of Points shown */
 227:home_screen.c ****     lv_obj_t * windowSlider = lv_slider_create(lv_scr_act(), NULL);
ARM GAS  C:\Users\tmj32\AppData\Local\Temp\ccmPTl49.s 			page 42


 1287              		.loc 5 227 0
 1288 02ce FFF7FEFF 		bl	lv_scr_act
 1289 02d2 0346     		mov	r3, r0
 1290 02d4 0021     		movs	r1, #0
 1291 02d6 1846     		mov	r0, r3
 1292 02d8 FFF7FEFF 		bl	lv_slider_create
 1293 02dc F860     		str	r0, [r7, #12]
 228:home_screen.c ****     lv_obj_set_pos(windowSlider, 20, 225);                         /*Set its position*/
 1294              		.loc 5 228 0
 1295 02de E122     		movs	r2, #225
 1296 02e0 1421     		movs	r1, #20
 1297 02e2 F868     		ldr	r0, [r7, #12]
 1298 02e4 FFF7FEFF 		bl	lv_obj_set_pos
 229:home_screen.c ****     lv_obj_set_size(windowSlider, 280, 30);                        /*Set its size*/
 1299              		.loc 5 229 0
 1300 02e8 1E22     		movs	r2, #30
 1301 02ea 4FF48C71 		mov	r1, #280
 1302 02ee F868     		ldr	r0, [r7, #12]
 1303 02f0 FFF7FEFF 		bl	lv_obj_set_size
 230:home_screen.c ****     lv_obj_set_event_cb(windowSlider, window_slider_event_cb);
 1304              		.loc 5 230 0
 1305 02f4 2349     		ldr	r1, .L50+56
 1306 02f6 F868     		ldr	r0, [r7, #12]
 1307 02f8 FFF7FEFF 		bl	lv_obj_set_event_cb
 231:home_screen.c ****     //lv_slider_set_range(windowSlider, 0, pow(2, cm4.HoriScale + 6));
 232:home_screen.c ****     lv_slider_set_range(windowSlider, 0, 1024);        
 1308              		.loc 5 232 0
 1309 02fc 4FF48062 		mov	r2, #1024
 1310 0300 0021     		movs	r1, #0
 1311 0302 F868     		ldr	r0, [r7, #12]
 1312 0304 FFF7FEFF 		bl	lv_slider_set_range
 233:home_screen.c ****     lv_slider_set_value(windowSlider, 512, LV_ANIM_ON);
 1313              		.loc 5 233 0
 1314 0308 0122     		movs	r2, #1
 1315 030a 4FF40071 		mov	r1, #512
 1316 030e F868     		ldr	r0, [r7, #12]
 1317 0310 FFF7FEFF 		bl	lv_slider_set_value
 234:home_screen.c ****     
 235:home_screen.c ****             /* Create a label below the slider */
 236:home_screen.c ****             windowLabel = lv_label_create(lv_scr_act(), NULL);
 1318              		.loc 5 236 0
 1319 0314 FFF7FEFF 		bl	lv_scr_act
 1320 0318 0346     		mov	r3, r0
 1321 031a 0021     		movs	r1, #0
 1322 031c 1846     		mov	r0, r3
 1323 031e FFF7FEFF 		bl	lv_label_create
 1324 0322 0246     		mov	r2, r0
 1325 0324 184B     		ldr	r3, .L50+60
 1326 0326 1A60     		str	r2, [r3]
 237:home_screen.c ****             lv_label_set_text(windowLabel, "512");
 1327              		.loc 5 237 0
 1328 0328 174B     		ldr	r3, .L50+60
 1329 032a 1B68     		ldr	r3, [r3]
 1330 032c 1749     		ldr	r1, .L50+64
 1331 032e 1846     		mov	r0, r3
 1332 0330 FFF7FEFF 		bl	lv_label_set_text
 238:home_screen.c ****             lv_obj_set_auto_realign(windowLabel, true);
ARM GAS  C:\Users\tmj32\AppData\Local\Temp\ccmPTl49.s 			page 43


 1333              		.loc 5 238 0
 1334 0334 144B     		ldr	r3, .L50+60
 1335 0336 1B68     		ldr	r3, [r3]
 1336 0338 0121     		movs	r1, #1
 1337 033a 1846     		mov	r0, r3
 1338 033c FFF7FEFF 		bl	lv_obj_set_auto_realign
 239:home_screen.c ****             lv_obj_align(windowLabel, windowSlider, LV_ALIGN_OUT_BOTTOM_MID, 0, 0);
 1339              		.loc 5 239 0
 1340 0340 114B     		ldr	r3, .L50+60
 1341 0342 1868     		ldr	r0, [r3]
 1342 0344 0023     		movs	r3, #0
 1343 0346 0093     		str	r3, [sp]
 1344 0348 0023     		movs	r3, #0
 1345 034a 21E0     		b	.L51
 1346              	.L52:
 1347              		.align	2
 1348              	.L50:
 1349 034c 00000000 		.word	offset_slider_event_cb
 1350 0350 00000000 		.word	offsetLabel
 1351 0354 20000000 		.word	.LC4
 1352 0358 24000000 		.word	.LC5
 1353 035c 00000000 		.word	trigger_slider_event_cb
 1354 0360 04000000 		.word	triggerLabel
 1355 0364 2C000000 		.word	.LC6
 1356 0368 30000000 		.word	.LC7
 1357 036c 00000000 		.word	hori_slider_event_cb
 1358 0370 08000000 		.word	horiLabel1
 1359 0374 3C000000 		.word	.LC8
 1360 0378 00000000 		.word	verti_slider_event_cb
 1361 037c 0C000000 		.word	vertLabel1
 1362 0380 4C000000 		.word	.LC9
 1363 0384 00000000 		.word	window_slider_event_cb
 1364 0388 10000000 		.word	windowLabel
 1365 038c 5C000000 		.word	.LC10
 1366              	.L51:
 1367 0390 0D22     		movs	r2, #13
 1368 0392 F968     		ldr	r1, [r7, #12]
 1369 0394 FFF7FEFF 		bl	lv_obj_align
 240:home_screen.c ****             
 241:home_screen.c ****             
 242:home_screen.c ****     //Draw the ogriginal chart... should be empty or zeroes
 243:home_screen.c ****     chart_actions();
 1370              		.loc 5 243 0
 1371 0398 FFF7FEFF 		bl	chart_actions
 244:home_screen.c ****             
 245:home_screen.c ****     
 246:home_screen.c ****     //Adding an on/off switch 
 247:home_screen.c ****     lv_obj_t * sw1 = lv_sw_create(lv_scr_act(), NULL);
 1372              		.loc 5 247 0
 1373 039c FFF7FEFF 		bl	lv_scr_act
 1374 03a0 0346     		mov	r3, r0
 1375 03a2 0021     		movs	r1, #0
 1376 03a4 1846     		mov	r0, r3
 1377 03a6 FFF7FEFF 		bl	lv_sw_create
 1378 03aa B860     		str	r0, [r7, #8]
 248:home_screen.c ****     lv_obj_align(sw1, NULL, LV_ALIGN_CENTER, 0, -50);
 1379              		.loc 5 248 0
ARM GAS  C:\Users\tmj32\AppData\Local\Temp\ccmPTl49.s 			page 44


 1380 03ac 6FF03103 		mvn	r3, #49
 1381 03b0 0093     		str	r3, [sp]
 1382 03b2 0023     		movs	r3, #0
 1383 03b4 0022     		movs	r2, #0
 1384 03b6 0021     		movs	r1, #0
 1385 03b8 B868     		ldr	r0, [r7, #8]
 1386 03ba FFF7FEFF 		bl	lv_obj_align
 249:home_screen.c ****     lv_obj_set_event_cb(sw1, sw_event_handler);
 1387              		.loc 5 249 0
 1388 03be 1549     		ldr	r1, .L53
 1389 03c0 B868     		ldr	r0, [r7, #8]
 1390 03c2 FFF7FEFF 		bl	lv_obj_set_event_cb
 250:home_screen.c ****     //lv_obj_set_event_cb(sw1,  breath_activity_action);             /*Assign a callback to the but
 251:home_screen.c ****     lv_obj_set_pos(sw1, 70, 440);                         /*Set its position*/
 1391              		.loc 5 251 0
 1392 03c6 4FF4DC72 		mov	r2, #440
 1393 03ca 4621     		movs	r1, #70
 1394 03cc B868     		ldr	r0, [r7, #8]
 1395 03ce FFF7FEFF 		bl	lv_obj_set_pos
 252:home_screen.c ****     lv_obj_set_size(sw1, 90, 30);               /*Set its size*/ 
 1396              		.loc 5 252 0
 1397 03d2 1E22     		movs	r2, #30
 1398 03d4 5A21     		movs	r1, #90
 1399 03d6 B868     		ldr	r0, [r7, #8]
 1400 03d8 FFF7FEFF 		bl	lv_obj_set_size
 253:home_screen.c ****     
 254:home_screen.c ****     lv_obj_t * switchLabel = lv_label_create(lv_scr_act(), NULL);
 1401              		.loc 5 254 0
 1402 03dc FFF7FEFF 		bl	lv_scr_act
 1403 03e0 0346     		mov	r3, r0
 1404 03e2 0021     		movs	r1, #0
 1405 03e4 1846     		mov	r0, r3
 1406 03e6 FFF7FEFF 		bl	lv_label_create
 1407 03ea 7860     		str	r0, [r7, #4]
 255:home_screen.c **** 	lv_obj_set_drag(switchLabel, false);
 1408              		.loc 5 255 0
 1409 03ec 0021     		movs	r1, #0
 1410 03ee 7868     		ldr	r0, [r7, #4]
 1411 03f0 FFF7FEFF 		bl	lv_obj_set_drag
 256:home_screen.c ****     lv_label_set_text(switchLabel, "On\\Off");
 1412              		.loc 5 256 0
 1413 03f4 0849     		ldr	r1, .L53+4
 1414 03f6 7868     		ldr	r0, [r7, #4]
 1415 03f8 FFF7FEFF 		bl	lv_label_set_text
 257:home_screen.c ****     //lv_obj_set_pos(switchLabel, 15, 445);
 258:home_screen.c ****     lv_obj_align(switchLabel, sw1, LV_ALIGN_OUT_LEFT_MID, 0, 0);
 1416              		.loc 5 258 0
 1417 03fc 0023     		movs	r3, #0
 1418 03fe 0093     		str	r3, [sp]
 1419 0400 0023     		movs	r3, #0
 1420 0402 1022     		movs	r2, #16
 1421 0404 B968     		ldr	r1, [r7, #8]
 1422 0406 7868     		ldr	r0, [r7, #4]
 1423 0408 FFF7FEFF 		bl	lv_obj_align
 259:home_screen.c **** }...
 1424              		.loc 5 259 0
 1425 040c 00BF     		nop
ARM GAS  C:\Users\tmj32\AppData\Local\Temp\ccmPTl49.s 			page 45


 1426 040e 3037     		adds	r7, r7, #48
 1427              		.cfi_def_cfa_offset 8
 1428 0410 BD46     		mov	sp, r7
 1429              		.cfi_def_cfa_register 13
 1430              		@ sp needed
 1431 0412 80BD     		pop	{r7, pc}
 1432              	.L54:
 1433              		.align	2
 1434              	.L53:
 1435 0414 00000000 		.word	sw_event_handler
 1436 0418 60000000 		.word	.LC11
 1437              		.cfi_endproc
 1438              	.LFE724:
 1439              		.size	home_screen, .-home_screen
 1440              		.bss
 1441              		.align	2
 1442              	chart1.20847:
 1443 0018 00000000 		.space	4
 1444              		.align	2
 1445              	buf.20861:
 1446 001c 00000000 		.space	4
 1447              		.align	2
 1448              	buf.20866:
 1449 0020 00000000 		.space	4
 1450              		.align	2
 1451              	buf.20871:
 1452 0024 00000000 		.space	4
 1453              		.align	2
 1454              	buf.20876:
 1455 0028 00000000 		.space	4
 1456              		.align	2
 1457              	buf.20881:
 1458 002c 00000000 		.space	6
 1458      0000
 1459              		.text
 1460              	.Letext0:
 1461              		.file 6 "c:\\program files (x86)\\cypress\\psoc creator\\4.3\\psoc creator\\import\\gnu\\arm\\5.4.
 1462              		.file 7 "c:\\program files (x86)\\cypress\\psoc creator\\4.3\\psoc creator\\import\\gnu\\arm\\5.4.
 1463              		.file 8 "Generated_Source\\PSoC6\\pdl\\drivers/peripheral/device/cy_device.h"
 1464              		.file 9 "Generated_Source\\PSoC6\\pdl\\drivers/peripheral/scb/cy_scb_i2c.h"
 1465              		.file 10 "Generated_Source\\PSoC6\\pdl\\drivers/peripheral/scb/cy_scb_spi.h"
 1466              		.file 11 "Generated_Source\\PSoC6\\pdl\\drivers/peripheral/tcpwm/cy_tcpwm_counter.h"
 1467              		.file 12 "globalStruct.h"
 1468              		.file 13 "..\\..\\..\\lvgl\\version_6.1.2\\lvgl/src/lv_misc/../../../lv_conf.h"
 1469              		.file 14 "..\\..\\..\\lvgl\\version_6.1.2\\lvgl/src/lv_misc/lv_types.h"
 1470              		.file 15 "..\\..\\..\\lvgl\\version_6.1.2\\lvgl/src/lv_misc/lv_ll.h"
 1471              		.file 16 "..\\..\\..\\lvgl\\version_6.1.2\\lvgl/src/lv_hal/../lv_misc/lv_area.h"
 1472              		.file 17 "..\\..\\..\\lvgl\\version_6.1.2\\lvgl/src/lv_core/lv_obj.h"
 1473              		.file 18 "..\\..\\..\\lvgl\\version_6.1.2\\lvgl/src/lv_core/../lv_font/lv_font.h"
 1474              		.file 19 "..\\..\\..\\lvgl\\version_6.1.2\\lvgl/src/lv_core/../lv_misc/lv_anim.h"
 1475              		.file 20 "..\\..\\..\\lvgl\\version_6.1.2\\lvgl/src/lv_core/lv_style.h"
 1476              		.file 21 "..\\..\\..\\lvgl\\version_6.1.2\\lvgl/src/lv_core/../lv_misc/lv_bidi.h"
 1477              		.file 22 "..\\..\\..\\lvgl\\version_6.1.2\\lvgl/src/lv_objx/lv_btn.h"
 1478              		.file 23 "..\\..\\..\\lvgl\\version_6.1.2\\lvgl/src/lv_objx/lv_label.h"
 1479              		.file 24 "..\\..\\..\\lvgl\\version_6.1.2\\lvgl/src/lv_objx/lv_chart.h"
 1480              		.file 25 "Generated_Source\\PSoC6\\pdl\\cmsis/include/core_cm4.h"
 1481              		.file 26 "Generated_Source\\PSoC6/DISP_TICK_TIMER.h"
ARM GAS  C:\Users\tmj32\AppData\Local\Temp\ccmPTl49.s 			page 46


 1482              		.file 27 "Generated_Source\\PSoC6/I2C_MASTER.h"
 1483              		.file 28 "Generated_Source\\PSoC6/SPIM.h"
 1484              		.section	.debug_info,"",%progbits
 1485              	.Ldebug_info0:
 1486 0000 E7170000 		.4byte	0x17e7
 1487 0004 0400     		.2byte	0x4
 1488 0006 00000000 		.4byte	.Ldebug_abbrev0
 1489 000a 04       		.byte	0x4
 1490 000b 01       		.uleb128 0x1
 1491 000c B1150000 		.4byte	.LASF398
 1492 0010 0C       		.byte	0xc
 1493 0011 4A120000 		.4byte	.LASF399
 1494 0015 2D040000 		.4byte	.LASF400
 1495 0019 00000000 		.4byte	.Ldebug_ranges0+0
 1496 001d 00000000 		.4byte	0
 1497 0021 00000000 		.4byte	.Ldebug_line0
 1498 0025 02       		.uleb128 0x2
 1499 0026 5B140000 		.4byte	.LASF0
 1500 002a 06       		.byte	0x6
 1501 002b 1B       		.byte	0x1b
 1502 002c 30000000 		.4byte	0x30
 1503 0030 03       		.uleb128 0x3
 1504 0031 01       		.byte	0x1
 1505 0032 06       		.byte	0x6
 1506 0033 E9130000 		.4byte	.LASF2
 1507 0037 02       		.uleb128 0x2
 1508 0038 FC100000 		.4byte	.LASF1
 1509 003c 06       		.byte	0x6
 1510 003d 1D       		.byte	0x1d
 1511 003e 42000000 		.4byte	0x42
 1512 0042 03       		.uleb128 0x3
 1513 0043 01       		.byte	0x1
 1514 0044 08       		.byte	0x8
 1515 0045 6A120000 		.4byte	.LASF3
 1516 0049 02       		.uleb128 0x2
 1517 004a D80B0000 		.4byte	.LASF4
 1518 004e 06       		.byte	0x6
 1519 004f 29       		.byte	0x29
 1520 0050 54000000 		.4byte	0x54
 1521 0054 03       		.uleb128 0x3
 1522 0055 02       		.byte	0x2
 1523 0056 05       		.byte	0x5
 1524 0057 700F0000 		.4byte	.LASF5
 1525 005b 02       		.uleb128 0x2
 1526 005c CB080000 		.4byte	.LASF6
 1527 0060 06       		.byte	0x6
 1528 0061 2B       		.byte	0x2b
 1529 0062 66000000 		.4byte	0x66
 1530 0066 03       		.uleb128 0x3
 1531 0067 02       		.byte	0x2
 1532 0068 07       		.byte	0x7
 1533 0069 E60D0000 		.4byte	.LASF7
 1534 006d 02       		.uleb128 0x2
 1535 006e 05020000 		.4byte	.LASF8
 1536 0072 06       		.byte	0x6
 1537 0073 3F       		.byte	0x3f
 1538 0074 78000000 		.4byte	0x78
ARM GAS  C:\Users\tmj32\AppData\Local\Temp\ccmPTl49.s 			page 47


 1539 0078 03       		.uleb128 0x3
 1540 0079 04       		.byte	0x4
 1541 007a 05       		.byte	0x5
 1542 007b 05000000 		.4byte	.LASF9
 1543 007f 02       		.uleb128 0x2
 1544 0080 78120000 		.4byte	.LASF10
 1545 0084 06       		.byte	0x6
 1546 0085 41       		.byte	0x41
 1547 0086 8A000000 		.4byte	0x8a
 1548 008a 03       		.uleb128 0x3
 1549 008b 04       		.byte	0x4
 1550 008c 07       		.byte	0x7
 1551 008d B7110000 		.4byte	.LASF11
 1552 0091 03       		.uleb128 0x3
 1553 0092 08       		.byte	0x8
 1554 0093 05       		.byte	0x5
 1555 0094 FA0A0000 		.4byte	.LASF12
 1556 0098 03       		.uleb128 0x3
 1557 0099 08       		.byte	0x8
 1558 009a 07       		.byte	0x7
 1559 009b EE050000 		.4byte	.LASF13
 1560 009f 04       		.uleb128 0x4
 1561 00a0 04       		.byte	0x4
 1562 00a1 05       		.byte	0x5
 1563 00a2 696E7400 		.ascii	"int\000"
 1564 00a6 03       		.uleb128 0x3
 1565 00a7 04       		.byte	0x4
 1566 00a8 07       		.byte	0x7
 1567 00a9 A2010000 		.4byte	.LASF14
 1568 00ad 03       		.uleb128 0x3
 1569 00ae 08       		.byte	0x8
 1570 00af 04       		.byte	0x4
 1571 00b0 F90D0000 		.4byte	.LASF15
 1572 00b4 05       		.uleb128 0x5
 1573 00b5 04       		.byte	0x4
 1574 00b6 03       		.uleb128 0x3
 1575 00b7 04       		.byte	0x4
 1576 00b8 07       		.byte	0x7
 1577 00b9 F80E0000 		.4byte	.LASF16
 1578 00bd 03       		.uleb128 0x3
 1579 00be 01       		.byte	0x1
 1580 00bf 08       		.byte	0x8
 1581 00c0 30090000 		.4byte	.LASF17
 1582 00c4 02       		.uleb128 0x2
 1583 00c5 15050000 		.4byte	.LASF18
 1584 00c9 07       		.byte	0x7
 1585 00ca 14       		.byte	0x14
 1586 00cb 25000000 		.4byte	0x25
 1587 00cf 02       		.uleb128 0x2
 1588 00d0 420A0000 		.4byte	.LASF19
 1589 00d4 07       		.byte	0x7
 1590 00d5 18       		.byte	0x18
 1591 00d6 37000000 		.4byte	0x37
 1592 00da 02       		.uleb128 0x2
 1593 00db B7050000 		.4byte	.LASF20
 1594 00df 07       		.byte	0x7
 1595 00e0 20       		.byte	0x20
ARM GAS  C:\Users\tmj32\AppData\Local\Temp\ccmPTl49.s 			page 48


 1596 00e1 49000000 		.4byte	0x49
 1597 00e5 02       		.uleb128 0x2
 1598 00e6 050E0000 		.4byte	.LASF21
 1599 00ea 07       		.byte	0x7
 1600 00eb 24       		.byte	0x24
 1601 00ec 5B000000 		.4byte	0x5b
 1602 00f0 02       		.uleb128 0x2
 1603 00f1 5A060000 		.4byte	.LASF22
 1604 00f5 07       		.byte	0x7
 1605 00f6 2C       		.byte	0x2c
 1606 00f7 6D000000 		.4byte	0x6d
 1607 00fb 02       		.uleb128 0x2
 1608 00fc 0C050000 		.4byte	.LASF23
 1609 0100 07       		.byte	0x7
 1610 0101 30       		.byte	0x30
 1611 0102 7F000000 		.4byte	0x7f
 1612 0106 06       		.uleb128 0x6
 1613 0107 FB000000 		.4byte	0xfb
 1614 010b 07       		.uleb128 0x7
 1615 010c B8       		.byte	0xb8
 1616 010d 08       		.byte	0x8
 1617 010e 34       		.byte	0x34
 1618 010f 1C050000 		.4byte	0x51c
 1619 0113 08       		.uleb128 0x8
 1620 0114 38020000 		.4byte	.LASF24
 1621 0118 08       		.byte	0x8
 1622 0119 37       		.byte	0x37
 1623 011a FB000000 		.4byte	0xfb
 1624 011e 00       		.byte	0
 1625 011f 08       		.uleb128 0x8
 1626 0120 55130000 		.4byte	.LASF25
 1627 0124 08       		.byte	0x8
 1628 0125 38       		.byte	0x38
 1629 0126 FB000000 		.4byte	0xfb
 1630 012a 04       		.byte	0x4
 1631 012b 08       		.uleb128 0x8
 1632 012c 26010000 		.4byte	.LASF26
 1633 0130 08       		.byte	0x8
 1634 0131 39       		.byte	0x39
 1635 0132 FB000000 		.4byte	0xfb
 1636 0136 08       		.byte	0x8
 1637 0137 08       		.uleb128 0x8
 1638 0138 07010000 		.4byte	.LASF27
 1639 013c 08       		.byte	0x8
 1640 013d 3A       		.byte	0x3a
 1641 013e FB000000 		.4byte	0xfb
 1642 0142 0C       		.byte	0xc
 1643 0143 08       		.uleb128 0x8
 1644 0144 0E0E0000 		.4byte	.LASF28
 1645 0148 08       		.byte	0x8
 1646 0149 3B       		.byte	0x3b
 1647 014a FB000000 		.4byte	0xfb
 1648 014e 10       		.byte	0x10
 1649 014f 08       		.uleb128 0x8
 1650 0150 EB0B0000 		.4byte	.LASF29
 1651 0154 08       		.byte	0x8
 1652 0155 3C       		.byte	0x3c
ARM GAS  C:\Users\tmj32\AppData\Local\Temp\ccmPTl49.s 			page 49


 1653 0156 FB000000 		.4byte	0xfb
 1654 015a 14       		.byte	0x14
 1655 015b 08       		.uleb128 0x8
 1656 015c 4C070000 		.4byte	.LASF30
 1657 0160 08       		.byte	0x8
 1658 0161 3D       		.byte	0x3d
 1659 0162 FB000000 		.4byte	0xfb
 1660 0166 18       		.byte	0x18
 1661 0167 08       		.uleb128 0x8
 1662 0168 700A0000 		.4byte	.LASF31
 1663 016c 08       		.byte	0x8
 1664 016d 3E       		.byte	0x3e
 1665 016e FB000000 		.4byte	0xfb
 1666 0172 1C       		.byte	0x1c
 1667 0173 08       		.uleb128 0x8
 1668 0174 F7060000 		.4byte	.LASF32
 1669 0178 08       		.byte	0x8
 1670 0179 3F       		.byte	0x3f
 1671 017a FB000000 		.4byte	0xfb
 1672 017e 20       		.byte	0x20
 1673 017f 08       		.uleb128 0x8
 1674 0180 330B0000 		.4byte	.LASF33
 1675 0184 08       		.byte	0x8
 1676 0185 40       		.byte	0x40
 1677 0186 FB000000 		.4byte	0xfb
 1678 018a 24       		.byte	0x24
 1679 018b 08       		.uleb128 0x8
 1680 018c CA160000 		.4byte	.LASF34
 1681 0190 08       		.byte	0x8
 1682 0191 43       		.byte	0x43
 1683 0192 CF000000 		.4byte	0xcf
 1684 0196 28       		.byte	0x28
 1685 0197 08       		.uleb128 0x8
 1686 0198 C30F0000 		.4byte	.LASF35
 1687 019c 08       		.byte	0x8
 1688 019d 44       		.byte	0x44
 1689 019e CF000000 		.4byte	0xcf
 1690 01a2 29       		.byte	0x29
 1691 01a3 08       		.uleb128 0x8
 1692 01a4 60120000 		.4byte	.LASF36
 1693 01a8 08       		.byte	0x8
 1694 01a9 45       		.byte	0x45
 1695 01aa CF000000 		.4byte	0xcf
 1696 01ae 2A       		.byte	0x2a
 1697 01af 08       		.uleb128 0x8
 1698 01b0 19100000 		.4byte	.LASF37
 1699 01b4 08       		.byte	0x8
 1700 01b5 46       		.byte	0x46
 1701 01b6 CF000000 		.4byte	0xcf
 1702 01ba 2B       		.byte	0x2b
 1703 01bb 08       		.uleb128 0x8
 1704 01bc 0D100000 		.4byte	.LASF38
 1705 01c0 08       		.byte	0x8
 1706 01c1 47       		.byte	0x47
 1707 01c2 CF000000 		.4byte	0xcf
 1708 01c6 2C       		.byte	0x2c
 1709 01c7 08       		.uleb128 0x8
ARM GAS  C:\Users\tmj32\AppData\Local\Temp\ccmPTl49.s 			page 50


 1710 01c8 A0110000 		.4byte	.LASF39
 1711 01cc 08       		.byte	0x8
 1712 01cd 48       		.byte	0x48
 1713 01ce CF000000 		.4byte	0xcf
 1714 01d2 2D       		.byte	0x2d
 1715 01d3 08       		.uleb128 0x8
 1716 01d4 970E0000 		.4byte	.LASF40
 1717 01d8 08       		.byte	0x8
 1718 01d9 49       		.byte	0x49
 1719 01da CF000000 		.4byte	0xcf
 1720 01de 2E       		.byte	0x2e
 1721 01df 08       		.uleb128 0x8
 1722 01e0 78020000 		.4byte	.LASF41
 1723 01e4 08       		.byte	0x8
 1724 01e5 4A       		.byte	0x4a
 1725 01e6 CF000000 		.4byte	0xcf
 1726 01ea 2F       		.byte	0x2f
 1727 01eb 08       		.uleb128 0x8
 1728 01ec 5F080000 		.4byte	.LASF42
 1729 01f0 08       		.byte	0x8
 1730 01f1 4B       		.byte	0x4b
 1731 01f2 CF000000 		.4byte	0xcf
 1732 01f6 30       		.byte	0x30
 1733 01f7 08       		.uleb128 0x8
 1734 01f8 B80C0000 		.4byte	.LASF43
 1735 01fc 08       		.byte	0x8
 1736 01fd 4E       		.byte	0x4e
 1737 01fe CF000000 		.4byte	0xcf
 1738 0202 31       		.byte	0x31
 1739 0203 08       		.uleb128 0x8
 1740 0204 0E140000 		.4byte	.LASF44
 1741 0208 08       		.byte	0x8
 1742 0209 4F       		.byte	0x4f
 1743 020a CF000000 		.4byte	0xcf
 1744 020e 32       		.byte	0x32
 1745 020f 08       		.uleb128 0x8
 1746 0210 25150000 		.4byte	.LASF45
 1747 0214 08       		.byte	0x8
 1748 0215 50       		.byte	0x50
 1749 0216 CF000000 		.4byte	0xcf
 1750 021a 33       		.byte	0x33
 1751 021b 08       		.uleb128 0x8
 1752 021c EE080000 		.4byte	.LASF46
 1753 0220 08       		.byte	0x8
 1754 0221 51       		.byte	0x51
 1755 0222 CF000000 		.4byte	0xcf
 1756 0226 34       		.byte	0x34
 1757 0227 08       		.uleb128 0x8
 1758 0228 DC130000 		.4byte	.LASF47
 1759 022c 08       		.byte	0x8
 1760 022d 52       		.byte	0x52
 1761 022e DA000000 		.4byte	0xda
 1762 0232 36       		.byte	0x36
 1763 0233 08       		.uleb128 0x8
 1764 0234 48030000 		.4byte	.LASF48
 1765 0238 08       		.byte	0x8
 1766 0239 53       		.byte	0x53
ARM GAS  C:\Users\tmj32\AppData\Local\Temp\ccmPTl49.s 			page 51


 1767 023a DA000000 		.4byte	0xda
 1768 023e 38       		.byte	0x38
 1769 023f 08       		.uleb128 0x8
 1770 0240 290C0000 		.4byte	.LASF49
 1771 0244 08       		.byte	0x8
 1772 0245 54       		.byte	0x54
 1773 0246 DA000000 		.4byte	0xda
 1774 024a 3A       		.byte	0x3a
 1775 024b 08       		.uleb128 0x8
 1776 024c 0F020000 		.4byte	.LASF50
 1777 0250 08       		.byte	0x8
 1778 0251 55       		.byte	0x55
 1779 0252 CF000000 		.4byte	0xcf
 1780 0256 3C       		.byte	0x3c
 1781 0257 08       		.uleb128 0x8
 1782 0258 23070000 		.4byte	.LASF51
 1783 025c 08       		.byte	0x8
 1784 025d 56       		.byte	0x56
 1785 025e CF000000 		.4byte	0xcf
 1786 0262 3D       		.byte	0x3d
 1787 0263 08       		.uleb128 0x8
 1788 0264 47060000 		.4byte	.LASF52
 1789 0268 08       		.byte	0x8
 1790 0269 57       		.byte	0x57
 1791 026a CF000000 		.4byte	0xcf
 1792 026e 3E       		.byte	0x3e
 1793 026f 08       		.uleb128 0x8
 1794 0270 E4000000 		.4byte	.LASF53
 1795 0274 08       		.byte	0x8
 1796 0275 58       		.byte	0x58
 1797 0276 CF000000 		.4byte	0xcf
 1798 027a 3F       		.byte	0x3f
 1799 027b 08       		.uleb128 0x8
 1800 027c CB010000 		.4byte	.LASF54
 1801 0280 08       		.byte	0x8
 1802 0281 59       		.byte	0x59
 1803 0282 CF000000 		.4byte	0xcf
 1804 0286 40       		.byte	0x40
 1805 0287 08       		.uleb128 0x8
 1806 0288 FF0C0000 		.4byte	.LASF55
 1807 028c 08       		.byte	0x8
 1808 028d 5A       		.byte	0x5a
 1809 028e CF000000 		.4byte	0xcf
 1810 0292 41       		.byte	0x41
 1811 0293 08       		.uleb128 0x8
 1812 0294 83050000 		.4byte	.LASF56
 1813 0298 08       		.byte	0x8
 1814 0299 5B       		.byte	0x5b
 1815 029a CF000000 		.4byte	0xcf
 1816 029e 42       		.byte	0x42
 1817 029f 08       		.uleb128 0x8
 1818 02a0 9B080000 		.4byte	.LASF57
 1819 02a4 08       		.byte	0x8
 1820 02a5 5C       		.byte	0x5c
 1821 02a6 CF000000 		.4byte	0xcf
 1822 02aa 43       		.byte	0x43
 1823 02ab 08       		.uleb128 0x8
ARM GAS  C:\Users\tmj32\AppData\Local\Temp\ccmPTl49.s 			page 52


 1824 02ac 84090000 		.4byte	.LASF58
 1825 02b0 08       		.byte	0x8
 1826 02b1 5D       		.byte	0x5d
 1827 02b2 CF000000 		.4byte	0xcf
 1828 02b6 44       		.byte	0x44
 1829 02b7 08       		.uleb128 0x8
 1830 02b8 27100000 		.4byte	.LASF59
 1831 02bc 08       		.byte	0x8
 1832 02bd 5E       		.byte	0x5e
 1833 02be FB000000 		.4byte	0xfb
 1834 02c2 48       		.byte	0x48
 1835 02c3 08       		.uleb128 0x8
 1836 02c4 0F030000 		.4byte	.LASF60
 1837 02c8 08       		.byte	0x8
 1838 02c9 5F       		.byte	0x5f
 1839 02ca FB000000 		.4byte	0xfb
 1840 02ce 4C       		.byte	0x4c
 1841 02cf 08       		.uleb128 0x8
 1842 02d0 86130000 		.4byte	.LASF61
 1843 02d4 08       		.byte	0x8
 1844 02d5 60       		.byte	0x60
 1845 02d6 CF000000 		.4byte	0xcf
 1846 02da 50       		.byte	0x50
 1847 02db 08       		.uleb128 0x8
 1848 02dc 63070000 		.4byte	.LASF62
 1849 02e0 08       		.byte	0x8
 1850 02e1 61       		.byte	0x61
 1851 02e2 CF000000 		.4byte	0xcf
 1852 02e6 51       		.byte	0x51
 1853 02e7 08       		.uleb128 0x8
 1854 02e8 820B0000 		.4byte	.LASF63
 1855 02ec 08       		.byte	0x8
 1856 02ed 62       		.byte	0x62
 1857 02ee CF000000 		.4byte	0xcf
 1858 02f2 52       		.byte	0x52
 1859 02f3 08       		.uleb128 0x8
 1860 02f4 990D0000 		.4byte	.LASF64
 1861 02f8 08       		.byte	0x8
 1862 02f9 63       		.byte	0x63
 1863 02fa CF000000 		.4byte	0xcf
 1864 02fe 53       		.byte	0x53
 1865 02ff 08       		.uleb128 0x8
 1866 0300 08130000 		.4byte	.LASF65
 1867 0304 08       		.byte	0x8
 1868 0305 64       		.byte	0x64
 1869 0306 CF000000 		.4byte	0xcf
 1870 030a 54       		.byte	0x54
 1871 030b 08       		.uleb128 0x8
 1872 030c EC070000 		.4byte	.LASF66
 1873 0310 08       		.byte	0x8
 1874 0311 65       		.byte	0x65
 1875 0312 CF000000 		.4byte	0xcf
 1876 0316 55       		.byte	0x55
 1877 0317 08       		.uleb128 0x8
 1878 0318 C2130000 		.4byte	.LASF67
 1879 031c 08       		.byte	0x8
 1880 031d 66       		.byte	0x66
ARM GAS  C:\Users\tmj32\AppData\Local\Temp\ccmPTl49.s 			page 53


 1881 031e CF000000 		.4byte	0xcf
 1882 0322 56       		.byte	0x56
 1883 0323 08       		.uleb128 0x8
 1884 0324 AA0E0000 		.4byte	.LASF68
 1885 0328 08       		.byte	0x8
 1886 0329 67       		.byte	0x67
 1887 032a CF000000 		.4byte	0xcf
 1888 032e 57       		.byte	0x57
 1889 032f 08       		.uleb128 0x8
 1890 0330 0F070000 		.4byte	.LASF69
 1891 0334 08       		.byte	0x8
 1892 0335 68       		.byte	0x68
 1893 0336 CF000000 		.4byte	0xcf
 1894 033a 58       		.byte	0x58
 1895 033b 08       		.uleb128 0x8
 1896 033c 54150000 		.4byte	.LASF70
 1897 0340 08       		.byte	0x8
 1898 0341 69       		.byte	0x69
 1899 0342 CF000000 		.4byte	0xcf
 1900 0346 59       		.byte	0x59
 1901 0347 08       		.uleb128 0x8
 1902 0348 03140000 		.4byte	.LASF71
 1903 034c 08       		.byte	0x8
 1904 034d 6E       		.byte	0x6e
 1905 034e E5000000 		.4byte	0xe5
 1906 0352 5A       		.byte	0x5a
 1907 0353 08       		.uleb128 0x8
 1908 0354 75010000 		.4byte	.LASF72
 1909 0358 08       		.byte	0x8
 1910 0359 6F       		.byte	0x6f
 1911 035a E5000000 		.4byte	0xe5
 1912 035e 5C       		.byte	0x5c
 1913 035f 08       		.uleb128 0x8
 1914 0360 0E0B0000 		.4byte	.LASF73
 1915 0364 08       		.byte	0x8
 1916 0365 70       		.byte	0x70
 1917 0366 CF000000 		.4byte	0xcf
 1918 036a 5E       		.byte	0x5e
 1919 036b 08       		.uleb128 0x8
 1920 036c 38140000 		.4byte	.LASF74
 1921 0370 08       		.byte	0x8
 1922 0371 71       		.byte	0x71
 1923 0372 CF000000 		.4byte	0xcf
 1924 0376 5F       		.byte	0x5f
 1925 0377 08       		.uleb128 0x8
 1926 0378 BA080000 		.4byte	.LASF75
 1927 037c 08       		.byte	0x8
 1928 037d 72       		.byte	0x72
 1929 037e CF000000 		.4byte	0xcf
 1930 0382 60       		.byte	0x60
 1931 0383 08       		.uleb128 0x8
 1932 0384 180A0000 		.4byte	.LASF76
 1933 0388 08       		.byte	0x8
 1934 0389 73       		.byte	0x73
 1935 038a FB000000 		.4byte	0xfb
 1936 038e 64       		.byte	0x64
 1937 038f 08       		.uleb128 0x8
ARM GAS  C:\Users\tmj32\AppData\Local\Temp\ccmPTl49.s 			page 54


 1938 0390 BE0E0000 		.4byte	.LASF77
 1939 0394 08       		.byte	0x8
 1940 0395 76       		.byte	0x76
 1941 0396 E5000000 		.4byte	0xe5
 1942 039a 68       		.byte	0x68
 1943 039b 08       		.uleb128 0x8
 1944 039c 1F0E0000 		.4byte	.LASF78
 1945 03a0 08       		.byte	0x8
 1946 03a1 77       		.byte	0x77
 1947 03a2 E5000000 		.4byte	0xe5
 1948 03a6 6A       		.byte	0x6a
 1949 03a7 08       		.uleb128 0x8
 1950 03a8 1A0C0000 		.4byte	.LASF79
 1951 03ac 08       		.byte	0x8
 1952 03ad 78       		.byte	0x78
 1953 03ae E5000000 		.4byte	0xe5
 1954 03b2 6C       		.byte	0x6c
 1955 03b3 08       		.uleb128 0x8
 1956 03b4 02030000 		.4byte	.LASF80
 1957 03b8 08       		.byte	0x8
 1958 03b9 79       		.byte	0x79
 1959 03ba E5000000 		.4byte	0xe5
 1960 03be 6E       		.byte	0x6e
 1961 03bf 08       		.uleb128 0x8
 1962 03c0 790A0000 		.4byte	.LASF81
 1963 03c4 08       		.byte	0x8
 1964 03c5 7B       		.byte	0x7b
 1965 03c6 CF000000 		.4byte	0xcf
 1966 03ca 70       		.byte	0x70
 1967 03cb 08       		.uleb128 0x8
 1968 03cc BA030000 		.4byte	.LASF82
 1969 03d0 08       		.byte	0x8
 1970 03d1 7C       		.byte	0x7c
 1971 03d2 CF000000 		.4byte	0xcf
 1972 03d6 71       		.byte	0x71
 1973 03d7 08       		.uleb128 0x8
 1974 03d8 82060000 		.4byte	.LASF83
 1975 03dc 08       		.byte	0x8
 1976 03dd 7D       		.byte	0x7d
 1977 03de CF000000 		.4byte	0xcf
 1978 03e2 72       		.byte	0x72
 1979 03e3 08       		.uleb128 0x8
 1980 03e4 58090000 		.4byte	.LASF84
 1981 03e8 08       		.byte	0x8
 1982 03e9 7E       		.byte	0x7e
 1983 03ea CF000000 		.4byte	0xcf
 1984 03ee 73       		.byte	0x73
 1985 03ef 08       		.uleb128 0x8
 1986 03f0 380F0000 		.4byte	.LASF85
 1987 03f4 08       		.byte	0x8
 1988 03f5 80       		.byte	0x80
 1989 03f6 E5000000 		.4byte	0xe5
 1990 03fa 74       		.byte	0x74
 1991 03fb 08       		.uleb128 0x8
 1992 03fc 7A0F0000 		.4byte	.LASF86
 1993 0400 08       		.byte	0x8
 1994 0401 81       		.byte	0x81
ARM GAS  C:\Users\tmj32\AppData\Local\Temp\ccmPTl49.s 			page 55


 1995 0402 E5000000 		.4byte	0xe5
 1996 0406 76       		.byte	0x76
 1997 0407 08       		.uleb128 0x8
 1998 0408 10150000 		.4byte	.LASF87
 1999 040c 08       		.byte	0x8
 2000 040d 82       		.byte	0x82
 2001 040e E5000000 		.4byte	0xe5
 2002 0412 78       		.byte	0x78
 2003 0413 08       		.uleb128 0x8
 2004 0414 500B0000 		.4byte	.LASF88
 2005 0418 08       		.byte	0x8
 2006 0419 83       		.byte	0x83
 2007 041a E5000000 		.4byte	0xe5
 2008 041e 7A       		.byte	0x7a
 2009 041f 08       		.uleb128 0x8
 2010 0420 1F110000 		.4byte	.LASF89
 2011 0424 08       		.byte	0x8
 2012 0425 86       		.byte	0x86
 2013 0426 CF000000 		.4byte	0xcf
 2014 042a 7C       		.byte	0x7c
 2015 042b 08       		.uleb128 0x8
 2016 042c 97130000 		.4byte	.LASF90
 2017 0430 08       		.byte	0x8
 2018 0431 87       		.byte	0x87
 2019 0432 CF000000 		.4byte	0xcf
 2020 0436 7D       		.byte	0x7d
 2021 0437 08       		.uleb128 0x8
 2022 0438 BF050000 		.4byte	.LASF91
 2023 043c 08       		.byte	0x8
 2024 043d 88       		.byte	0x88
 2025 043e CF000000 		.4byte	0xcf
 2026 0442 7E       		.byte	0x7e
 2027 0443 08       		.uleb128 0x8
 2028 0444 39050000 		.4byte	.LASF92
 2029 0448 08       		.byte	0x8
 2030 0449 89       		.byte	0x89
 2031 044a CF000000 		.4byte	0xcf
 2032 044e 7F       		.byte	0x7f
 2033 044f 08       		.uleb128 0x8
 2034 0450 14060000 		.4byte	.LASF93
 2035 0454 08       		.byte	0x8
 2036 0455 8A       		.byte	0x8a
 2037 0456 CF000000 		.4byte	0xcf
 2038 045a 80       		.byte	0x80
 2039 045b 08       		.uleb128 0x8
 2040 045c CD000000 		.4byte	.LASF94
 2041 0460 08       		.byte	0x8
 2042 0461 8D       		.byte	0x8d
 2043 0462 FB000000 		.4byte	0xfb
 2044 0466 84       		.byte	0x84
 2045 0467 08       		.uleb128 0x8
 2046 0468 5C110000 		.4byte	.LASF95
 2047 046c 08       		.byte	0x8
 2048 046d 8E       		.byte	0x8e
 2049 046e FB000000 		.4byte	0xfb
 2050 0472 88       		.byte	0x88
 2051 0473 08       		.uleb128 0x8
ARM GAS  C:\Users\tmj32\AppData\Local\Temp\ccmPTl49.s 			page 56


 2052 0474 EA0C0000 		.4byte	.LASF96
 2053 0478 08       		.byte	0x8
 2054 0479 8F       		.byte	0x8f
 2055 047a FB000000 		.4byte	0xfb
 2056 047e 8C       		.byte	0x8c
 2057 047f 08       		.uleb128 0x8
 2058 0480 75160000 		.4byte	.LASF97
 2059 0484 08       		.byte	0x8
 2060 0485 90       		.byte	0x90
 2061 0486 FB000000 		.4byte	0xfb
 2062 048a 90       		.byte	0x90
 2063 048b 08       		.uleb128 0x8
 2064 048c E7100000 		.4byte	.LASF98
 2065 0490 08       		.byte	0x8
 2066 0491 91       		.byte	0x91
 2067 0492 FB000000 		.4byte	0xfb
 2068 0496 94       		.byte	0x94
 2069 0497 08       		.uleb128 0x8
 2070 0498 CF030000 		.4byte	.LASF99
 2071 049c 08       		.byte	0x8
 2072 049d 92       		.byte	0x92
 2073 049e FB000000 		.4byte	0xfb
 2074 04a2 98       		.byte	0x98
 2075 04a3 08       		.uleb128 0x8
 2076 04a4 8A110000 		.4byte	.LASF100
 2077 04a8 08       		.byte	0x8
 2078 04a9 93       		.byte	0x93
 2079 04aa FB000000 		.4byte	0xfb
 2080 04ae 9C       		.byte	0x9c
 2081 04af 08       		.uleb128 0x8
 2082 04b0 85080000 		.4byte	.LASF101
 2083 04b4 08       		.byte	0x8
 2084 04b5 94       		.byte	0x94
 2085 04b6 FB000000 		.4byte	0xfb
 2086 04ba A0       		.byte	0xa0
 2087 04bb 08       		.uleb128 0x8
 2088 04bc E5030000 		.4byte	.LASF102
 2089 04c0 08       		.byte	0x8
 2090 04c1 95       		.byte	0x95
 2091 04c2 E5000000 		.4byte	0xe5
 2092 04c6 A4       		.byte	0xa4
 2093 04c7 08       		.uleb128 0x8
 2094 04c8 180F0000 		.4byte	.LASF103
 2095 04cc 08       		.byte	0x8
 2096 04cd 96       		.byte	0x96
 2097 04ce E5000000 		.4byte	0xe5
 2098 04d2 A6       		.byte	0xa6
 2099 04d3 08       		.uleb128 0x8
 2100 04d4 D2110000 		.4byte	.LASF104
 2101 04d8 08       		.byte	0x8
 2102 04d9 97       		.byte	0x97
 2103 04da E5000000 		.4byte	0xe5
 2104 04de A8       		.byte	0xa8
 2105 04df 08       		.uleb128 0x8
 2106 04e0 EC0A0000 		.4byte	.LASF105
 2107 04e4 08       		.byte	0x8
 2108 04e5 98       		.byte	0x98
ARM GAS  C:\Users\tmj32\AppData\Local\Temp\ccmPTl49.s 			page 57


 2109 04e6 E5000000 		.4byte	0xe5
 2110 04ea AA       		.byte	0xaa
 2111 04eb 08       		.uleb128 0x8
 2112 04ec 1D030000 		.4byte	.LASF106
 2113 04f0 08       		.byte	0x8
 2114 04f1 99       		.byte	0x99
 2115 04f2 E5000000 		.4byte	0xe5
 2116 04f6 AC       		.byte	0xac
 2117 04f7 08       		.uleb128 0x8
 2118 04f8 200D0000 		.4byte	.LASF107
 2119 04fc 08       		.byte	0x8
 2120 04fd 9A       		.byte	0x9a
 2121 04fe E5000000 		.4byte	0xe5
 2122 0502 AE       		.byte	0xae
 2123 0503 08       		.uleb128 0x8
 2124 0504 2B030000 		.4byte	.LASF108
 2125 0508 08       		.byte	0x8
 2126 0509 9D       		.byte	0x9d
 2127 050a E5000000 		.4byte	0xe5
 2128 050e B0       		.byte	0xb0
 2129 050f 08       		.uleb128 0x8
 2130 0510 77000000 		.4byte	.LASF109
 2131 0514 08       		.byte	0x8
 2132 0515 9E       		.byte	0x9e
 2133 0516 FB000000 		.4byte	0xfb
 2134 051a B4       		.byte	0xb4
 2135 051b 00       		.byte	0
 2136 051c 02       		.uleb128 0x2
 2137 051d 8D140000 		.4byte	.LASF110
 2138 0521 08       		.byte	0x8
 2139 0522 9F       		.byte	0x9f
 2140 0523 0B010000 		.4byte	0x10b
 2141 0527 03       		.uleb128 0x3
 2142 0528 04       		.byte	0x4
 2143 0529 04       		.byte	0x4
 2144 052a 67050000 		.4byte	.LASF111
 2145 052e 03       		.uleb128 0x3
 2146 052f 08       		.byte	0x8
 2147 0530 04       		.byte	0x4
 2148 0531 F6140000 		.4byte	.LASF112
 2149 0535 03       		.uleb128 0x3
 2150 0536 01       		.byte	0x1
 2151 0537 02       		.byte	0x2
 2152 0538 DC070000 		.4byte	.LASF113
 2153 053c 09       		.uleb128 0x9
 2154 053d 01       		.byte	0x1
 2155 053e 42000000 		.4byte	0x42
 2156 0542 09       		.byte	0x9
 2157 0543 2402     		.2byte	0x224
 2158 0545 56050000 		.4byte	0x556
 2159 0549 0A       		.uleb128 0xa
 2160 054a 21090000 		.4byte	.LASF114
 2161 054e 00       		.byte	0
 2162 054f 0A       		.uleb128 0xa
 2163 0550 39030000 		.4byte	.LASF115
 2164 0554 01       		.byte	0x1
 2165 0555 00       		.byte	0
ARM GAS  C:\Users\tmj32\AppData\Local\Temp\ccmPTl49.s 			page 58


 2166 0556 0B       		.uleb128 0xb
 2167 0557 D3020000 		.4byte	.LASF116
 2168 055b 09       		.byte	0x9
 2169 055c 2702     		.2byte	0x227
 2170 055e 3C050000 		.4byte	0x53c
 2171 0562 0B       		.uleb128 0xb
 2172 0563 BA0B0000 		.4byte	.LASF117
 2173 0567 09       		.byte	0x9
 2174 0568 3902     		.2byte	0x239
 2175 056a 6E050000 		.4byte	0x56e
 2176 056e 0C       		.uleb128 0xc
 2177 056f 04       		.byte	0x4
 2178 0570 74050000 		.4byte	0x574
 2179 0574 0D       		.uleb128 0xd
 2180 0575 7F050000 		.4byte	0x57f
 2181 0579 0E       		.uleb128 0xe
 2182 057a FB000000 		.4byte	0xfb
 2183 057e 00       		.byte	0
 2184 057f 0B       		.uleb128 0xb
 2185 0580 53030000 		.4byte	.LASF118
 2186 0584 09       		.byte	0x9
 2187 0585 4402     		.2byte	0x244
 2188 0587 8B050000 		.4byte	0x58b
 2189 058b 0C       		.uleb128 0xc
 2190 058c 04       		.byte	0x4
 2191 058d 91050000 		.4byte	0x591
 2192 0591 0F       		.uleb128 0xf
 2193 0592 56050000 		.4byte	0x556
 2194 0596 A0050000 		.4byte	0x5a0
 2195 059a 0E       		.uleb128 0xe
 2196 059b FB000000 		.4byte	0xfb
 2197 059f 00       		.byte	0
 2198 05a0 10       		.uleb128 0x10
 2199 05a1 93030000 		.4byte	.LASF142
 2200 05a5 4C       		.byte	0x4c
 2201 05a6 09       		.byte	0x9
 2202 05a7 C302     		.2byte	0x2c3
 2203 05a9 BF060000 		.4byte	0x6bf
 2204 05ad 11       		.uleb128 0x11
 2205 05ae 00080000 		.4byte	.LASF119
 2206 05b2 09       		.byte	0x9
 2207 05b3 C602     		.2byte	0x2c6
 2208 05b5 35050000 		.4byte	0x535
 2209 05b9 00       		.byte	0
 2210 05ba 11       		.uleb128 0x11
 2211 05bb AB0B0000 		.4byte	.LASF120
 2212 05bf 09       		.byte	0x9
 2213 05c0 C702     		.2byte	0x2c7
 2214 05c2 35050000 		.4byte	0x535
 2215 05c6 01       		.byte	0x1
 2216 05c7 11       		.uleb128 0x11
 2217 05c8 3E130000 		.4byte	.LASF121
 2218 05cc 09       		.byte	0x9
 2219 05cd C902     		.2byte	0x2c9
 2220 05cf 06010000 		.4byte	0x106
 2221 05d3 04       		.byte	0x4
 2222 05d4 11       		.uleb128 0x11
ARM GAS  C:\Users\tmj32\AppData\Local\Temp\ccmPTl49.s 			page 59


 2223 05d5 F0000000 		.4byte	.LASF122
 2224 05d9 09       		.byte	0x9
 2225 05da CB02     		.2byte	0x2cb
 2226 05dc 06010000 		.4byte	0x106
 2227 05e0 08       		.byte	0x8
 2228 05e1 11       		.uleb128 0x11
 2229 05e2 390D0000 		.4byte	.LASF123
 2230 05e6 09       		.byte	0x9
 2231 05e7 CC02     		.2byte	0x2cc
 2232 05e9 35050000 		.4byte	0x535
 2233 05ed 0C       		.byte	0xc
 2234 05ee 11       		.uleb128 0x11
 2235 05ef F50B0000 		.4byte	.LASF124
 2236 05f3 09       		.byte	0x9
 2237 05f4 CD02     		.2byte	0x2cd
 2238 05f6 35050000 		.4byte	0x535
 2239 05fa 0D       		.byte	0xd
 2240 05fb 11       		.uleb128 0x11
 2241 05fc 310E0000 		.4byte	.LASF125
 2242 0600 09       		.byte	0x9
 2243 0601 CF02     		.2byte	0x2cf
 2244 0603 BF060000 		.4byte	0x6bf
 2245 0607 10       		.byte	0x10
 2246 0608 11       		.uleb128 0x11
 2247 0609 95090000 		.4byte	.LASF126
 2248 060d 09       		.byte	0x9
 2249 060e D002     		.2byte	0x2d0
 2250 0610 FB000000 		.4byte	0xfb
 2251 0614 14       		.byte	0x14
 2252 0615 11       		.uleb128 0x11
 2253 0616 BB010000 		.4byte	.LASF127
 2254 061a 09       		.byte	0x9
 2255 061b D102     		.2byte	0x2d1
 2256 061d 06010000 		.4byte	0x106
 2257 0621 18       		.byte	0x18
 2258 0622 11       		.uleb128 0x11
 2259 0623 75070000 		.4byte	.LASF128
 2260 0627 09       		.byte	0x9
 2261 0628 D202     		.2byte	0x2d2
 2262 062a 06010000 		.4byte	0x106
 2263 062e 1C       		.byte	0x1c
 2264 062f 11       		.uleb128 0x11
 2265 0630 F4160000 		.4byte	.LASF129
 2266 0634 09       		.byte	0x9
 2267 0635 D402     		.2byte	0x2d4
 2268 0637 06010000 		.4byte	0x106
 2269 063b 20       		.byte	0x20
 2270 063c 11       		.uleb128 0x11
 2271 063d F2020000 		.4byte	.LASF130
 2272 0641 09       		.byte	0x9
 2273 0642 D502     		.2byte	0x2d5
 2274 0644 C5060000 		.4byte	0x6c5
 2275 0648 24       		.byte	0x24
 2276 0649 11       		.uleb128 0x11
 2277 064a 1F040000 		.4byte	.LASF131
 2278 064e 09       		.byte	0x9
 2279 064f D702     		.2byte	0x2d7
ARM GAS  C:\Users\tmj32\AppData\Local\Temp\ccmPTl49.s 			page 60


 2280 0651 BF060000 		.4byte	0x6bf
 2281 0655 28       		.byte	0x28
 2282 0656 11       		.uleb128 0x11
 2283 0657 70060000 		.4byte	.LASF132
 2284 065b 09       		.byte	0x9
 2285 065c D802     		.2byte	0x2d8
 2286 065e FB000000 		.4byte	0xfb
 2287 0662 2C       		.byte	0x2c
 2288 0663 11       		.uleb128 0x11
 2289 0664 E4040000 		.4byte	.LASF133
 2290 0668 09       		.byte	0x9
 2291 0669 D902     		.2byte	0x2d9
 2292 066b 06010000 		.4byte	0x106
 2293 066f 30       		.byte	0x30
 2294 0670 11       		.uleb128 0x11
 2295 0671 560A0000 		.4byte	.LASF134
 2296 0675 09       		.byte	0x9
 2297 0676 DA02     		.2byte	0x2da
 2298 0678 06010000 		.4byte	0x106
 2299 067c 34       		.byte	0x34
 2300 067d 11       		.uleb128 0x11
 2301 067e 51020000 		.4byte	.LASF135
 2302 0682 09       		.byte	0x9
 2303 0683 DC02     		.2byte	0x2dc
 2304 0685 BF060000 		.4byte	0x6bf
 2305 0689 38       		.byte	0x38
 2306 068a 11       		.uleb128 0x11
 2307 068b B10D0000 		.4byte	.LASF136
 2308 068f 09       		.byte	0x9
 2309 0690 DD02     		.2byte	0x2dd
 2310 0692 FB000000 		.4byte	0xfb
 2311 0696 3C       		.byte	0x3c
 2312 0697 11       		.uleb128 0x11
 2313 0698 0F0D0000 		.4byte	.LASF137
 2314 069c 09       		.byte	0x9
 2315 069d DE02     		.2byte	0x2de
 2316 069f 06010000 		.4byte	0x106
 2317 06a3 40       		.byte	0x40
 2318 06a4 11       		.uleb128 0x11
 2319 06a5 8F070000 		.4byte	.LASF138
 2320 06a9 09       		.byte	0x9
 2321 06aa E402     		.2byte	0x2e4
 2322 06ac 62050000 		.4byte	0x562
 2323 06b0 44       		.byte	0x44
 2324 06b1 11       		.uleb128 0x11
 2325 06b2 89020000 		.4byte	.LASF139
 2326 06b6 09       		.byte	0x9
 2327 06b7 EB02     		.2byte	0x2eb
 2328 06b9 7F050000 		.4byte	0x57f
 2329 06bd 48       		.byte	0x48
 2330 06be 00       		.byte	0
 2331 06bf 0C       		.uleb128 0xc
 2332 06c0 04       		.byte	0x4
 2333 06c1 CF000000 		.4byte	0xcf
 2334 06c5 06       		.uleb128 0x6
 2335 06c6 35050000 		.4byte	0x535
 2336 06ca 0B       		.uleb128 0xb
ARM GAS  C:\Users\tmj32\AppData\Local\Temp\ccmPTl49.s 			page 61


 2337 06cb 31150000 		.4byte	.LASF140
 2338 06cf 09       		.byte	0x9
 2339 06d0 EE02     		.2byte	0x2ee
 2340 06d2 A0050000 		.4byte	0x5a0
 2341 06d6 0B       		.uleb128 0xb
 2342 06d7 2F000000 		.4byte	.LASF141
 2343 06db 0A       		.byte	0xa
 2344 06dc F201     		.2byte	0x1f2
 2345 06de 6E050000 		.4byte	0x56e
 2346 06e2 10       		.uleb128 0x10
 2347 06e3 DF140000 		.4byte	.LASF143
 2348 06e7 24       		.byte	0x24
 2349 06e8 0A       		.byte	0xa
 2350 06e9 7402     		.2byte	0x274
 2351 06eb 65070000 		.4byte	0x765
 2352 06ef 11       		.uleb128 0x11
 2353 06f0 4A0A0000 		.4byte	.LASF144
 2354 06f4 0A       		.byte	0xa
 2355 06f5 7702     		.2byte	0x277
 2356 06f7 06010000 		.4byte	0x106
 2357 06fb 00       		.byte	0
 2358 06fc 11       		.uleb128 0x11
 2359 06fd F1060000 		.4byte	.LASF145
 2360 0701 0A       		.byte	0xa
 2361 0702 7902     		.2byte	0x279
 2362 0704 B4000000 		.4byte	0xb4
 2363 0708 04       		.byte	0x4
 2364 0709 11       		.uleb128 0x11
 2365 070a E4160000 		.4byte	.LASF146
 2366 070e 0A       		.byte	0xa
 2367 070f 7A02     		.2byte	0x27a
 2368 0711 FB000000 		.4byte	0xfb
 2369 0715 08       		.byte	0x8
 2370 0716 11       		.uleb128 0x11
 2371 0717 E7090000 		.4byte	.LASF147
 2372 071b 0A       		.byte	0xa
 2373 071c 7B02     		.2byte	0x27b
 2374 071e 06010000 		.4byte	0x106
 2375 0722 0C       		.byte	0xc
 2376 0723 11       		.uleb128 0x11
 2377 0724 7B0D0000 		.4byte	.LASF148
 2378 0728 0A       		.byte	0xa
 2379 0729 7D02     		.2byte	0x27d
 2380 072b B4000000 		.4byte	0xb4
 2381 072f 10       		.byte	0x10
 2382 0730 11       		.uleb128 0x11
 2383 0731 AE0C0000 		.4byte	.LASF149
 2384 0735 0A       		.byte	0xa
 2385 0736 7E02     		.2byte	0x27e
 2386 0738 FB000000 		.4byte	0xfb
 2387 073c 14       		.byte	0x14
 2388 073d 11       		.uleb128 0x11
 2389 073e F1010000 		.4byte	.LASF150
 2390 0742 0A       		.byte	0xa
 2391 0743 7F02     		.2byte	0x27f
 2392 0745 06010000 		.4byte	0x106
 2393 0749 18       		.byte	0x18
ARM GAS  C:\Users\tmj32\AppData\Local\Temp\ccmPTl49.s 			page 62


 2394 074a 11       		.uleb128 0x11
 2395 074b 8F070000 		.4byte	.LASF138
 2396 074f 0A       		.byte	0xa
 2397 0750 8502     		.2byte	0x285
 2398 0752 D6060000 		.4byte	0x6d6
 2399 0756 1C       		.byte	0x1c
 2400 0757 11       		.uleb128 0x11
 2401 0758 040A0000 		.4byte	.LASF151
 2402 075c 0A       		.byte	0xa
 2403 075d 8802     		.2byte	0x288
 2404 075f FB000000 		.4byte	0xfb
 2405 0763 20       		.byte	0x20
 2406 0764 00       		.byte	0
 2407 0765 0B       		.uleb128 0xb
 2408 0766 4A0C0000 		.4byte	.LASF152
 2409 076a 0A       		.byte	0xa
 2410 076b 8B02     		.2byte	0x28b
 2411 076d E2060000 		.4byte	0x6e2
 2412 0771 12       		.uleb128 0x12
 2413 0772 1C140000 		.4byte	.LASF153
 2414 0776 4C       		.byte	0x4c
 2415 0777 0B       		.byte	0xb
 2416 0778 2F       		.byte	0x2f
 2417 0779 62080000 		.4byte	0x862
 2418 077d 08       		.uleb128 0x8
 2419 077e F5130000 		.4byte	.LASF154
 2420 0782 0B       		.byte	0xb
 2421 0783 31       		.byte	0x31
 2422 0784 FB000000 		.4byte	0xfb
 2423 0788 00       		.byte	0
 2424 0789 08       		.uleb128 0x8
 2425 078a CB090000 		.4byte	.LASF155
 2426 078e 0B       		.byte	0xb
 2427 078f 33       		.byte	0x33
 2428 0790 FB000000 		.4byte	0xfb
 2429 0794 04       		.byte	0x4
 2430 0795 08       		.uleb128 0x8
 2431 0796 170E0000 		.4byte	.LASF156
 2432 079a 0B       		.byte	0xb
 2433 079b 34       		.byte	0x34
 2434 079c FB000000 		.4byte	0xfb
 2435 07a0 08       		.byte	0x8
 2436 07a1 08       		.uleb128 0x8
 2437 07a2 4B100000 		.4byte	.LASF157
 2438 07a6 0B       		.byte	0xb
 2439 07a7 35       		.byte	0x35
 2440 07a8 FB000000 		.4byte	0xfb
 2441 07ac 0C       		.byte	0xc
 2442 07ad 08       		.uleb128 0x8
 2443 07ae BA090000 		.4byte	.LASF158
 2444 07b2 0B       		.byte	0xb
 2445 07b3 37       		.byte	0x37
 2446 07b4 FB000000 		.4byte	0xfb
 2447 07b8 10       		.byte	0x10
 2448 07b9 08       		.uleb128 0x8
 2449 07ba 6F030000 		.4byte	.LASF159
 2450 07be 0B       		.byte	0xb
ARM GAS  C:\Users\tmj32\AppData\Local\Temp\ccmPTl49.s 			page 63


 2451 07bf 38       		.byte	0x38
 2452 07c0 FB000000 		.4byte	0xfb
 2453 07c4 14       		.byte	0x14
 2454 07c5 08       		.uleb128 0x8
 2455 07c6 78030000 		.4byte	.LASF160
 2456 07ca 0B       		.byte	0xb
 2457 07cb 39       		.byte	0x39
 2458 07cc FB000000 		.4byte	0xfb
 2459 07d0 18       		.byte	0x18
 2460 07d1 08       		.uleb128 0x8
 2461 07d2 450D0000 		.4byte	.LASF161
 2462 07d6 0B       		.byte	0xb
 2463 07d7 3A       		.byte	0x3a
 2464 07d8 35050000 		.4byte	0x535
 2465 07dc 1C       		.byte	0x1c
 2466 07dd 08       		.uleb128 0x8
 2467 07de 940F0000 		.4byte	.LASF162
 2468 07e2 0B       		.byte	0xb
 2469 07e3 3C       		.byte	0x3c
 2470 07e4 FB000000 		.4byte	0xfb
 2471 07e8 20       		.byte	0x20
 2472 07e9 08       		.uleb128 0x8
 2473 07ea AD060000 		.4byte	.LASF163
 2474 07ee 0B       		.byte	0xb
 2475 07ef 3D       		.byte	0x3d
 2476 07f0 FB000000 		.4byte	0xfb
 2477 07f4 24       		.byte	0x24
 2478 07f5 08       		.uleb128 0x8
 2479 07f6 FF080000 		.4byte	.LASF164
 2480 07fa 0B       		.byte	0xb
 2481 07fb 3F       		.byte	0x3f
 2482 07fc FB000000 		.4byte	0xfb
 2483 0800 28       		.byte	0x28
 2484 0801 08       		.uleb128 0x8
 2485 0802 6C0C0000 		.4byte	.LASF165
 2486 0806 0B       		.byte	0xb
 2487 0807 40       		.byte	0x40
 2488 0808 FB000000 		.4byte	0xfb
 2489 080c 2C       		.byte	0x2c
 2490 080d 08       		.uleb128 0x8
 2491 080e AB050000 		.4byte	.LASF166
 2492 0812 0B       		.byte	0xb
 2493 0813 42       		.byte	0x42
 2494 0814 FB000000 		.4byte	0xfb
 2495 0818 30       		.byte	0x30
 2496 0819 08       		.uleb128 0x8
 2497 081a 98060000 		.4byte	.LASF167
 2498 081e 0B       		.byte	0xb
 2499 081f 43       		.byte	0x43
 2500 0820 FB000000 		.4byte	0xfb
 2501 0824 34       		.byte	0x34
 2502 0825 08       		.uleb128 0x8
 2503 0826 FA010000 		.4byte	.LASF168
 2504 082a 0B       		.byte	0xb
 2505 082b 45       		.byte	0x45
 2506 082c FB000000 		.4byte	0xfb
 2507 0830 38       		.byte	0x38
ARM GAS  C:\Users\tmj32\AppData\Local\Temp\ccmPTl49.s 			page 64


 2508 0831 08       		.uleb128 0x8
 2509 0832 69000000 		.4byte	.LASF169
 2510 0836 0B       		.byte	0xb
 2511 0837 46       		.byte	0x46
 2512 0838 FB000000 		.4byte	0xfb
 2513 083c 3C       		.byte	0x3c
 2514 083d 08       		.uleb128 0x8
 2515 083e B0020000 		.4byte	.LASF170
 2516 0842 0B       		.byte	0xb
 2517 0843 48       		.byte	0x48
 2518 0844 FB000000 		.4byte	0xfb
 2519 0848 40       		.byte	0x40
 2520 0849 08       		.uleb128 0x8
 2521 084a FE0F0000 		.4byte	.LASF171
 2522 084e 0B       		.byte	0xb
 2523 084f 49       		.byte	0x49
 2524 0850 FB000000 		.4byte	0xfb
 2525 0854 44       		.byte	0x44
 2526 0855 08       		.uleb128 0x8
 2527 0856 BB120000 		.4byte	.LASF172
 2528 085a 0B       		.byte	0xb
 2529 085b 4B       		.byte	0x4b
 2530 085c FB000000 		.4byte	0xfb
 2531 0860 48       		.byte	0x48
 2532 0861 00       		.byte	0
 2533 0862 02       		.uleb128 0x2
 2534 0863 790E0000 		.4byte	.LASF173
 2535 0867 0B       		.byte	0xb
 2536 0868 4C       		.byte	0x4c
 2537 0869 71070000 		.4byte	0x771
 2538 086d 13       		.uleb128 0x13
 2539 086e A7120000 		.4byte	.LASF174
 2540 0872 6004     		.2byte	0x460
 2541 0874 0C       		.byte	0xc
 2542 0875 05       		.byte	0x5
 2543 0876 78090000 		.4byte	0x978
 2544 087a 08       		.uleb128 0x8
 2545 087b E20B0000 		.4byte	.LASF175
 2546 087f 0C       		.byte	0xc
 2547 0880 07       		.byte	0x7
 2548 0881 CF000000 		.4byte	0xcf
 2549 0885 00       		.byte	0
 2550 0886 08       		.uleb128 0x8
 2551 0887 C9110000 		.4byte	.LASF176
 2552 088b 0C       		.byte	0xc
 2553 088c 08       		.byte	0x8
 2554 088d CF000000 		.4byte	0xcf
 2555 0891 01       		.byte	0x1
 2556 0892 08       		.uleb128 0x8
 2557 0893 6A160000 		.4byte	.LASF177
 2558 0897 0C       		.byte	0xc
 2559 0898 09       		.byte	0x9
 2560 0899 CF000000 		.4byte	0xcf
 2561 089d 02       		.byte	0x2
 2562 089e 08       		.uleb128 0x8
 2563 089f 2F010000 		.4byte	.LASF178
 2564 08a3 0C       		.byte	0xc
ARM GAS  C:\Users\tmj32\AppData\Local\Temp\ccmPTl49.s 			page 65


 2565 08a4 0B       		.byte	0xb
 2566 08a5 CF000000 		.4byte	0xcf
 2567 08a9 03       		.byte	0x3
 2568 08aa 08       		.uleb128 0x8
 2569 08ab 17110000 		.4byte	.LASF179
 2570 08af 0C       		.byte	0xc
 2571 08b0 0C       		.byte	0xc
 2572 08b1 CF000000 		.4byte	0xcf
 2573 08b5 04       		.byte	0x4
 2574 08b6 08       		.uleb128 0x8
 2575 08b7 4E140000 		.4byte	.LASF180
 2576 08bb 0C       		.byte	0xc
 2577 08bc 0D       		.byte	0xd
 2578 08bd CF000000 		.4byte	0xcf
 2579 08c1 05       		.byte	0x5
 2580 08c2 08       		.uleb128 0x8
 2581 08c3 9D0A0000 		.4byte	.LASF181
 2582 08c7 0C       		.byte	0xc
 2583 08c8 0E       		.byte	0xe
 2584 08c9 CF000000 		.4byte	0xcf
 2585 08cd 06       		.byte	0x6
 2586 08ce 08       		.uleb128 0x8
 2587 08cf D6130000 		.4byte	.LASF182
 2588 08d3 0C       		.byte	0xc
 2589 08d4 0F       		.byte	0xf
 2590 08d5 CF000000 		.4byte	0xcf
 2591 08d9 07       		.byte	0x7
 2592 08da 08       		.uleb128 0x8
 2593 08db AB0D0000 		.4byte	.LASF183
 2594 08df 0C       		.byte	0xc
 2595 08e0 10       		.byte	0x10
 2596 08e1 CF000000 		.4byte	0xcf
 2597 08e5 08       		.byte	0x8
 2598 08e6 14       		.uleb128 0x14
 2599 08e7 49525300 		.ascii	"IRS\000"
 2600 08eb 0C       		.byte	0xc
 2601 08ec 11       		.byte	0x11
 2602 08ed CF000000 		.4byte	0xcf
 2603 08f1 09       		.byte	0x9
 2604 08f2 08       		.uleb128 0x8
 2605 08f3 BA020000 		.4byte	.LASF184
 2606 08f7 0C       		.byte	0xc
 2607 08f8 12       		.byte	0x12
 2608 08f9 CF000000 		.4byte	0xcf
 2609 08fd 0A       		.byte	0xa
 2610 08fe 08       		.uleb128 0x8
 2611 08ff FF060000 		.4byte	.LASF185
 2612 0903 0C       		.byte	0xc
 2613 0904 15       		.byte	0x15
 2614 0905 9F000000 		.4byte	0x9f
 2615 0909 0C       		.byte	0xc
 2616 090a 08       		.uleb128 0x8
 2617 090b 650B0000 		.4byte	.LASF186
 2618 090f 0C       		.byte	0xc
 2619 0910 16       		.byte	0x16
 2620 0911 9F000000 		.4byte	0x9f
 2621 0915 10       		.byte	0x10
ARM GAS  C:\Users\tmj32\AppData\Local\Temp\ccmPTl49.s 			page 66


 2622 0916 08       		.uleb128 0x8
 2623 0917 68150000 		.4byte	.LASF187
 2624 091b 0C       		.byte	0xc
 2625 091c 17       		.byte	0x17
 2626 091d 9F000000 		.4byte	0x9f
 2627 0921 14       		.byte	0x14
 2628 0922 08       		.uleb128 0x8
 2629 0923 9D120000 		.4byte	.LASF188
 2630 0927 0C       		.byte	0xc
 2631 0928 19       		.byte	0x19
 2632 0929 CF000000 		.4byte	0xcf
 2633 092d 18       		.byte	0x18
 2634 092e 08       		.uleb128 0x8
 2635 092f FD000000 		.4byte	.LASF189
 2636 0933 0C       		.byte	0xc
 2637 0934 1A       		.byte	0x1a
 2638 0935 CF000000 		.4byte	0xcf
 2639 0939 19       		.byte	0x19
 2640 093a 08       		.uleb128 0x8
 2641 093b 00000000 		.4byte	.LASF190
 2642 093f 0C       		.byte	0xc
 2643 0940 1B       		.byte	0x1b
 2644 0941 CF000000 		.4byte	0xcf
 2645 0945 1A       		.byte	0x1a
 2646 0946 08       		.uleb128 0x8
 2647 0947 7E010000 		.4byte	.LASF191
 2648 094b 0C       		.byte	0xc
 2649 094c 1E       		.byte	0x1e
 2650 094d 78090000 		.4byte	0x978
 2651 0951 1C       		.byte	0x1c
 2652 0952 08       		.uleb128 0x8
 2653 0953 7B090000 		.4byte	.LASF192
 2654 0957 0C       		.byte	0xc
 2655 0958 1F       		.byte	0x1f
 2656 0959 88090000 		.4byte	0x988
 2657 095d 36       		.byte	0x36
 2658 095e 08       		.uleb128 0x8
 2659 095f D10F0000 		.4byte	.LASF193
 2660 0963 0C       		.byte	0xc
 2661 0964 20       		.byte	0x20
 2662 0965 98090000 		.4byte	0x998
 2663 0969 46       		.byte	0x46
 2664 096a 15       		.uleb128 0x15
 2665 096b FE120000 		.4byte	.LASF194
 2666 096f 0C       		.byte	0xc
 2667 0970 23       		.byte	0x23
 2668 0971 78090000 		.4byte	0x978
 2669 0975 4604     		.2byte	0x446
 2670 0977 00       		.byte	0
 2671 0978 16       		.uleb128 0x16
 2672 0979 E5000000 		.4byte	0xe5
 2673 097d 88090000 		.4byte	0x988
 2674 0981 17       		.uleb128 0x17
 2675 0982 B6000000 		.4byte	0xb6
 2676 0986 0C       		.byte	0xc
 2677 0987 00       		.byte	0
 2678 0988 16       		.uleb128 0x16
ARM GAS  C:\Users\tmj32\AppData\Local\Temp\ccmPTl49.s 			page 67


 2679 0989 E5000000 		.4byte	0xe5
 2680 098d 98090000 		.4byte	0x998
 2681 0991 17       		.uleb128 0x17
 2682 0992 B6000000 		.4byte	0xb6
 2683 0996 07       		.byte	0x7
 2684 0997 00       		.byte	0
 2685 0998 16       		.uleb128 0x16
 2686 0999 CF000000 		.4byte	0xcf
 2687 099d A9090000 		.4byte	0x9a9
 2688 09a1 18       		.uleb128 0x18
 2689 09a2 B6000000 		.4byte	0xb6
 2690 09a6 FF03     		.2byte	0x3ff
 2691 09a8 00       		.byte	0
 2692 09a9 02       		.uleb128 0x2
 2693 09aa A5100000 		.4byte	.LASF195
 2694 09ae 0D       		.byte	0xd
 2695 09af 3C       		.byte	0x3c
 2696 09b0 DA000000 		.4byte	0xda
 2697 09b4 02       		.uleb128 0x2
 2698 09b5 630C0000 		.4byte	.LASF196
 2699 09b9 0E       		.byte	0xe
 2700 09ba 2C       		.byte	0x2c
 2701 09bb CF000000 		.4byte	0xcf
 2702 09bf 02       		.uleb128 0x2
 2703 09c0 A8070000 		.4byte	.LASF197
 2704 09c4 0F       		.byte	0xf
 2705 09c5 1E       		.byte	0x1e
 2706 09c6 CF000000 		.4byte	0xcf
 2707 09ca 07       		.uleb128 0x7
 2708 09cb 0C       		.byte	0xc
 2709 09cc 0F       		.byte	0xf
 2710 09cd 21       		.byte	0x21
 2711 09ce F7090000 		.4byte	0x9f7
 2712 09d2 08       		.uleb128 0x8
 2713 09d3 EB020000 		.4byte	.LASF198
 2714 09d7 0F       		.byte	0xf
 2715 09d8 23       		.byte	0x23
 2716 09d9 FB000000 		.4byte	0xfb
 2717 09dd 00       		.byte	0
 2718 09de 08       		.uleb128 0x8
 2719 09df 55060000 		.4byte	.LASF199
 2720 09e3 0F       		.byte	0xf
 2721 09e4 24       		.byte	0x24
 2722 09e5 F7090000 		.4byte	0x9f7
 2723 09e9 04       		.byte	0x4
 2724 09ea 08       		.uleb128 0x8
 2725 09eb F9120000 		.4byte	.LASF200
 2726 09ef 0F       		.byte	0xf
 2727 09f0 25       		.byte	0x25
 2728 09f1 F7090000 		.4byte	0x9f7
 2729 09f5 08       		.byte	0x8
 2730 09f6 00       		.byte	0
 2731 09f7 0C       		.uleb128 0xc
 2732 09f8 04       		.byte	0x4
 2733 09f9 BF090000 		.4byte	0x9bf
 2734 09fd 02       		.uleb128 0x2
 2735 09fe E6050000 		.4byte	.LASF201
ARM GAS  C:\Users\tmj32\AppData\Local\Temp\ccmPTl49.s 			page 68


 2736 0a02 0F       		.byte	0xf
 2737 0a03 26       		.byte	0x26
 2738 0a04 CA090000 		.4byte	0x9ca
 2739 0a08 07       		.uleb128 0x7
 2740 0a09 04       		.byte	0x4
 2741 0a0a 01       		.byte	0x1
 2742 0a0b F3       		.byte	0xf3
 2743 0a0c 410A0000 		.4byte	0xa41
 2744 0a10 08       		.uleb128 0x8
 2745 0a11 73100000 		.4byte	.LASF202
 2746 0a15 01       		.byte	0x1
 2747 0a16 F5       		.byte	0xf5
 2748 0a17 CF000000 		.4byte	0xcf
 2749 0a1b 00       		.byte	0
 2750 0a1c 08       		.uleb128 0x8
 2751 0a1d E00D0000 		.4byte	.LASF203
 2752 0a21 01       		.byte	0x1
 2753 0a22 F6       		.byte	0xf6
 2754 0a23 CF000000 		.4byte	0xcf
 2755 0a27 01       		.byte	0x1
 2756 0a28 14       		.uleb128 0x14
 2757 0a29 72656400 		.ascii	"red\000"
 2758 0a2d 01       		.byte	0x1
 2759 0a2e F7       		.byte	0xf7
 2760 0a2f CF000000 		.4byte	0xcf
 2761 0a33 02       		.byte	0x2
 2762 0a34 08       		.uleb128 0x8
 2763 0a35 A7060000 		.4byte	.LASF204
 2764 0a39 01       		.byte	0x1
 2765 0a3a F8       		.byte	0xf8
 2766 0a3b CF000000 		.4byte	0xcf
 2767 0a3f 03       		.byte	0x3
 2768 0a40 00       		.byte	0
 2769 0a41 19       		.uleb128 0x19
 2770 0a42 04       		.byte	0x4
 2771 0a43 01       		.byte	0x1
 2772 0a44 F1       		.byte	0xf1
 2773 0a45 5F0A0000 		.4byte	0xa5f
 2774 0a49 1A       		.uleb128 0x1a
 2775 0a4a 636800   		.ascii	"ch\000"
 2776 0a4d 01       		.byte	0x1
 2777 0a4e F9       		.byte	0xf9
 2778 0a4f 080A0000 		.4byte	0xa08
 2779 0a53 1B       		.uleb128 0x1b
 2780 0a54 64000000 		.4byte	.LASF205
 2781 0a58 01       		.byte	0x1
 2782 0a59 FA       		.byte	0xfa
 2783 0a5a FB000000 		.4byte	0xfb
 2784 0a5e 00       		.byte	0
 2785 0a5f 02       		.uleb128 0x2
 2786 0a60 1C050000 		.4byte	.LASF206
 2787 0a64 01       		.byte	0x1
 2788 0a65 FB       		.byte	0xfb
 2789 0a66 410A0000 		.4byte	0xa41
 2790 0a6a 0B       		.uleb128 0xb
 2791 0a6b 870D0000 		.4byte	.LASF207
 2792 0a6f 01       		.byte	0x1
ARM GAS  C:\Users\tmj32\AppData\Local\Temp\ccmPTl49.s 			page 69


 2793 0a70 0801     		.2byte	0x108
 2794 0a72 5F0A0000 		.4byte	0xa5f
 2795 0a76 0B       		.uleb128 0xb
 2796 0a77 BA0F0000 		.4byte	.LASF208
 2797 0a7b 01       		.byte	0x1
 2798 0a7c 0D01     		.2byte	0x10d
 2799 0a7e CF000000 		.4byte	0xcf
 2800 0a82 07       		.uleb128 0x7
 2801 0a83 08       		.byte	0x8
 2802 0a84 10       		.byte	0x10
 2803 0a85 31       		.byte	0x31
 2804 0a86 B70A0000 		.4byte	0xab7
 2805 0a8a 14       		.uleb128 0x14
 2806 0a8b 783100   		.ascii	"x1\000"
 2807 0a8e 10       		.byte	0x10
 2808 0a8f 33       		.byte	0x33
 2809 0a90 A9090000 		.4byte	0x9a9
 2810 0a94 00       		.byte	0
 2811 0a95 14       		.uleb128 0x14
 2812 0a96 793100   		.ascii	"y1\000"
 2813 0a99 10       		.byte	0x10
 2814 0a9a 34       		.byte	0x34
 2815 0a9b A9090000 		.4byte	0x9a9
 2816 0a9f 02       		.byte	0x2
 2817 0aa0 14       		.uleb128 0x14
 2818 0aa1 783200   		.ascii	"x2\000"
 2819 0aa4 10       		.byte	0x10
 2820 0aa5 35       		.byte	0x35
 2821 0aa6 A9090000 		.4byte	0x9a9
 2822 0aaa 04       		.byte	0x4
 2823 0aab 14       		.uleb128 0x14
 2824 0aac 793200   		.ascii	"y2\000"
 2825 0aaf 10       		.byte	0x10
 2826 0ab0 36       		.byte	0x36
 2827 0ab1 A9090000 		.4byte	0x9a9
 2828 0ab5 06       		.byte	0x6
 2829 0ab6 00       		.byte	0
 2830 0ab7 02       		.uleb128 0x2
 2831 0ab8 AD110000 		.4byte	.LASF209
 2832 0abc 10       		.byte	0x10
 2833 0abd 37       		.byte	0x37
 2834 0abe 820A0000 		.4byte	0xa82
 2835 0ac2 0C       		.uleb128 0xc
 2836 0ac3 04       		.byte	0x4
 2837 0ac4 C80A0000 		.4byte	0xac8
 2838 0ac8 1C       		.uleb128 0x1c
 2839 0ac9 B70A0000 		.4byte	0xab7
 2840 0acd 12       		.uleb128 0x12
 2841 0ace 25000000 		.4byte	.LASF210
 2842 0ad2 40       		.byte	0x40
 2843 0ad3 11       		.byte	0x11
 2844 0ad4 BB       		.byte	0xbb
 2845 0ad5 0F0C0000 		.4byte	0xc0f
 2846 0ad9 14       		.uleb128 0x14
 2847 0ada 70617200 		.ascii	"par\000"
 2848 0ade 11       		.byte	0x11
 2849 0adf BD       		.byte	0xbd
ARM GAS  C:\Users\tmj32\AppData\Local\Temp\ccmPTl49.s 			page 70


 2850 0ae0 0F0C0000 		.4byte	0xc0f
 2851 0ae4 00       		.byte	0
 2852 0ae5 08       		.uleb128 0x8
 2853 0ae6 18130000 		.4byte	.LASF211
 2854 0aea 11       		.byte	0x11
 2855 0aeb BE       		.byte	0xbe
 2856 0aec FD090000 		.4byte	0x9fd
 2857 0af0 04       		.byte	0x4
 2858 0af1 08       		.uleb128 0x8
 2859 0af2 8D0F0000 		.4byte	.LASF212
 2860 0af6 11       		.byte	0x11
 2861 0af7 C0       		.byte	0xc0
 2862 0af8 B70A0000 		.4byte	0xab7
 2863 0afc 10       		.byte	0x10
 2864 0afd 08       		.uleb128 0x8
 2865 0afe 73130000 		.4byte	.LASF213
 2866 0b02 11       		.byte	0x11
 2867 0b03 C2       		.byte	0xc2
 2868 0b04 58100000 		.4byte	0x1058
 2869 0b08 18       		.byte	0x18
 2870 0b09 08       		.uleb128 0x8
 2871 0b0a 4A150000 		.4byte	.LASF214
 2872 0b0e 11       		.byte	0x11
 2873 0b0f C3       		.byte	0xc3
 2874 0b10 84100000 		.4byte	0x1084
 2875 0b14 1C       		.byte	0x1c
 2876 0b15 08       		.uleb128 0x8
 2877 0b16 7C130000 		.4byte	.LASF215
 2878 0b1a 11       		.byte	0x11
 2879 0b1b C4       		.byte	0xc4
 2880 0b1c 9E0F0000 		.4byte	0xf9e
 2881 0b20 20       		.byte	0x20
 2882 0b21 08       		.uleb128 0x8
 2883 0b22 B9130000 		.4byte	.LASF216
 2884 0b26 11       		.byte	0x11
 2885 0b27 C6       		.byte	0xc6
 2886 0b28 B4000000 		.4byte	0xb4
 2887 0b2c 24       		.byte	0x24
 2888 0b2d 08       		.uleb128 0x8
 2889 0b2e 55070000 		.4byte	.LASF217
 2890 0b32 11       		.byte	0x11
 2891 0b33 C7       		.byte	0xc7
 2892 0b34 BC110000 		.4byte	0x11bc
 2893 0b38 28       		.byte	0x28
 2894 0b39 1D       		.uleb128 0x1d
 2895 0b3a 77050000 		.4byte	.LASF218
 2896 0b3e 11       		.byte	0x11
 2897 0b3f D7       		.byte	0xd7
 2898 0b40 CF000000 		.4byte	0xcf
 2899 0b44 01       		.byte	0x1
 2900 0b45 01       		.byte	0x1
 2901 0b46 07       		.byte	0x7
 2902 0b47 2C       		.byte	0x2c
 2903 0b48 1D       		.uleb128 0x1d
 2904 0b49 FD140000 		.4byte	.LASF219
 2905 0b4d 11       		.byte	0x11
 2906 0b4e D8       		.byte	0xd8
ARM GAS  C:\Users\tmj32\AppData\Local\Temp\ccmPTl49.s 			page 71


 2907 0b4f CF000000 		.4byte	0xcf
 2908 0b53 01       		.byte	0x1
 2909 0b54 01       		.byte	0x1
 2910 0b55 06       		.byte	0x6
 2911 0b56 2C       		.byte	0x2c
 2912 0b57 1D       		.uleb128 0x1d
 2913 0b58 97010000 		.4byte	.LASF220
 2914 0b5c 11       		.byte	0x11
 2915 0b5d D9       		.byte	0xd9
 2916 0b5e CF000000 		.4byte	0xcf
 2917 0b62 01       		.byte	0x1
 2918 0b63 01       		.byte	0x1
 2919 0b64 05       		.byte	0x5
 2920 0b65 2C       		.byte	0x2c
 2921 0b66 1D       		.uleb128 0x1d
 2922 0b67 6F090000 		.4byte	.LASF221
 2923 0b6b 11       		.byte	0x11
 2924 0b6c DA       		.byte	0xda
 2925 0b6d CF000000 		.4byte	0xcf
 2926 0b71 01       		.byte	0x1
 2927 0b72 01       		.byte	0x1
 2928 0b73 04       		.byte	0x4
 2929 0b74 2C       		.byte	0x2c
 2930 0b75 1D       		.uleb128 0x1d
 2931 0b76 FC130000 		.4byte	.LASF222
 2932 0b7a 11       		.byte	0x11
 2933 0b7b DB       		.byte	0xdb
 2934 0b7c CF000000 		.4byte	0xcf
 2935 0b80 01       		.byte	0x1
 2936 0b81 01       		.byte	0x1
 2937 0b82 03       		.byte	0x3
 2938 0b83 2C       		.byte	0x2c
 2939 0b84 1E       		.uleb128 0x1e
 2940 0b85 746F7000 		.ascii	"top\000"
 2941 0b89 11       		.byte	0x11
 2942 0b8a DC       		.byte	0xdc
 2943 0b8b CF000000 		.4byte	0xcf
 2944 0b8f 01       		.byte	0x1
 2945 0b90 01       		.byte	0x1
 2946 0b91 02       		.byte	0x2
 2947 0b92 2C       		.byte	0x2c
 2948 0b93 1D       		.uleb128 0x1d
 2949 0b94 B0100000 		.4byte	.LASF223
 2950 0b98 11       		.byte	0x11
 2951 0b99 DD       		.byte	0xdd
 2952 0b9a CF000000 		.4byte	0xcf
 2953 0b9e 01       		.byte	0x1
 2954 0b9f 01       		.byte	0x1
 2955 0ba0 01       		.byte	0x1
 2956 0ba1 2C       		.byte	0x2c
 2957 0ba2 1D       		.uleb128 0x1d
 2958 0ba3 68010000 		.4byte	.LASF224
 2959 0ba7 11       		.byte	0x11
 2960 0ba8 DE       		.byte	0xde
 2961 0ba9 CF000000 		.4byte	0xcf
 2962 0bad 01       		.byte	0x1
 2963 0bae 01       		.byte	0x1
ARM GAS  C:\Users\tmj32\AppData\Local\Temp\ccmPTl49.s 			page 72


 2964 0baf 00       		.byte	0
 2965 0bb0 2C       		.byte	0x2c
 2966 0bb1 1D       		.uleb128 0x1d
 2967 0bb2 670A0000 		.4byte	.LASF225
 2968 0bb6 11       		.byte	0x11
 2969 0bb7 DF       		.byte	0xdf
 2970 0bb8 B1110000 		.4byte	0x11b1
 2971 0bbc 01       		.byte	0x1
 2972 0bbd 02       		.byte	0x2
 2973 0bbe 06       		.byte	0x6
 2974 0bbf 2D       		.byte	0x2d
 2975 0bc0 1D       		.uleb128 0x1d
 2976 0bc1 5F010000 		.4byte	.LASF226
 2977 0bc5 11       		.byte	0x11
 2978 0bc6 E0       		.byte	0xe0
 2979 0bc7 880F0000 		.4byte	0xf88
 2980 0bcb 01       		.byte	0x1
 2981 0bcc 02       		.byte	0x2
 2982 0bcd 04       		.byte	0x4
 2983 0bce 2D       		.byte	0x2d
 2984 0bcf 1D       		.uleb128 0x1d
 2985 0bd0 9D140000 		.4byte	.LASF227
 2986 0bd4 11       		.byte	0x11
 2987 0bd5 E1       		.byte	0xe1
 2988 0bd6 CF000000 		.4byte	0xcf
 2989 0bda 01       		.byte	0x1
 2990 0bdb 03       		.byte	0x3
 2991 0bdc 01       		.byte	0x1
 2992 0bdd 2D       		.byte	0x2d
 2993 0bde 08       		.uleb128 0x8
 2994 0bdf 58120000 		.4byte	.LASF228
 2995 0be3 11       		.byte	0x11
 2996 0be4 E2       		.byte	0xe2
 2997 0be5 CF000000 		.4byte	0xcf
 2998 0be9 2E       		.byte	0x2e
 2999 0bea 08       		.uleb128 0x8
 3000 0beb 2F120000 		.4byte	.LASF229
 3001 0bef 11       		.byte	0x11
 3002 0bf0 E4       		.byte	0xe4
 3003 0bf1 760A0000 		.4byte	0xa76
 3004 0bf5 2F       		.byte	0x2f
 3005 0bf6 08       		.uleb128 0x8
 3006 0bf7 A6090000 		.4byte	.LASF230
 3007 0bfb 11       		.byte	0x11
 3008 0bfc E6       		.byte	0xe6
 3009 0bfd A9090000 		.4byte	0x9a9
 3010 0c01 30       		.byte	0x30
 3011 0c02 08       		.uleb128 0x8
 3012 0c03 CA040000 		.4byte	.LASF231
 3013 0c07 11       		.byte	0x11
 3014 0c08 E9       		.byte	0xe9
 3015 0c09 A6110000 		.4byte	0x11a6
 3016 0c0d 34       		.byte	0x34
 3017 0c0e 00       		.byte	0
 3018 0c0f 0C       		.uleb128 0xc
 3019 0c10 04       		.byte	0x4
 3020 0c11 CD0A0000 		.4byte	0xacd
ARM GAS  C:\Users\tmj32\AppData\Local\Temp\ccmPTl49.s 			page 73


 3021 0c15 07       		.uleb128 0x7
 3022 0c16 08       		.byte	0x8
 3023 0c17 12       		.byte	0x12
 3024 0c18 2E       		.byte	0x2e
 3025 0c19 660C0000 		.4byte	0xc66
 3026 0c1d 08       		.uleb128 0x8
 3027 0c1e EE160000 		.4byte	.LASF232
 3028 0c22 12       		.byte	0x12
 3029 0c23 30       		.byte	0x30
 3030 0c24 E5000000 		.4byte	0xe5
 3031 0c28 00       		.byte	0
 3032 0c29 08       		.uleb128 0x8
 3033 0c2a DE110000 		.4byte	.LASF233
 3034 0c2e 12       		.byte	0x12
 3035 0c2f 31       		.byte	0x31
 3036 0c30 CF000000 		.4byte	0xcf
 3037 0c34 02       		.byte	0x2
 3038 0c35 08       		.uleb128 0x8
 3039 0c36 45110000 		.4byte	.LASF234
 3040 0c3a 12       		.byte	0x12
 3041 0c3b 32       		.byte	0x32
 3042 0c3c CF000000 		.4byte	0xcf
 3043 0c40 03       		.byte	0x3
 3044 0c41 08       		.uleb128 0x8
 3045 0c42 AF010000 		.4byte	.LASF235
 3046 0c46 12       		.byte	0x12
 3047 0c47 33       		.byte	0x33
 3048 0c48 C4000000 		.4byte	0xc4
 3049 0c4c 04       		.byte	0x4
 3050 0c4d 08       		.uleb128 0x8
 3051 0c4e B5010000 		.4byte	.LASF236
 3052 0c52 12       		.byte	0x12
 3053 0c53 34       		.byte	0x34
 3054 0c54 C4000000 		.4byte	0xc4
 3055 0c58 05       		.byte	0x5
 3056 0c59 14       		.uleb128 0x14
 3057 0c5a 62707000 		.ascii	"bpp\000"
 3058 0c5e 12       		.byte	0x12
 3059 0c5f 35       		.byte	0x35
 3060 0c60 CF000000 		.4byte	0xcf
 3061 0c64 06       		.byte	0x6
 3062 0c65 00       		.byte	0
 3063 0c66 02       		.uleb128 0x2
 3064 0c67 F0090000 		.4byte	.LASF237
 3065 0c6b 12       		.byte	0x12
 3066 0c6c 36       		.byte	0x36
 3067 0c6d 150C0000 		.4byte	0xc15
 3068 0c71 12       		.uleb128 0x12
 3069 0c72 0A080000 		.4byte	.LASF238
 3070 0c76 10       		.byte	0x10
 3071 0c77 12       		.byte	0x12
 3072 0c78 44       		.byte	0x44
 3073 0c79 C90C0000 		.4byte	0xcc9
 3074 0c7d 08       		.uleb128 0x8
 3075 0c7e D8010000 		.4byte	.LASF239
 3076 0c82 12       		.byte	0x12
 3077 0c83 47       		.byte	0x47
ARM GAS  C:\Users\tmj32\AppData\Local\Temp\ccmPTl49.s 			page 74


 3078 0c84 F80C0000 		.4byte	0xcf8
 3079 0c88 00       		.byte	0
 3080 0c89 08       		.uleb128 0x8
 3081 0c8a E8120000 		.4byte	.LASF240
 3082 0c8e 12       		.byte	0x12
 3083 0c8f 4A       		.byte	0x4a
 3084 0c90 1D0D0000 		.4byte	0xd1d
 3085 0c94 04       		.byte	0x4
 3086 0c95 08       		.uleb128 0x8
 3087 0c96 79080000 		.4byte	.LASF241
 3088 0c9a 12       		.byte	0x12
 3089 0c9b 4D       		.byte	0x4d
 3090 0c9c CF000000 		.4byte	0xcf
 3091 0ca0 08       		.byte	0x8
 3092 0ca1 08       		.uleb128 0x8
 3093 0ca2 12120000 		.4byte	.LASF242
 3094 0ca6 12       		.byte	0x12
 3095 0ca7 4E       		.byte	0x4e
 3096 0ca8 C4000000 		.4byte	0xc4
 3097 0cac 09       		.byte	0x9
 3098 0cad 1D       		.uleb128 0x1d
 3099 0cae 810D0000 		.4byte	.LASF243
 3100 0cb2 12       		.byte	0x12
 3101 0cb3 4F       		.byte	0x4f
 3102 0cb4 CF000000 		.4byte	0xcf
 3103 0cb8 01       		.byte	0x1
 3104 0cb9 02       		.byte	0x2
 3105 0cba 06       		.byte	0x6
 3106 0cbb 0A       		.byte	0xa
 3107 0cbc 14       		.uleb128 0x14
 3108 0cbd 64736300 		.ascii	"dsc\000"
 3109 0cc1 12       		.byte	0x12
 3110 0cc2 50       		.byte	0x50
 3111 0cc3 B4000000 		.4byte	0xb4
 3112 0cc7 0C       		.byte	0xc
 3113 0cc8 00       		.byte	0
 3114 0cc9 0F       		.uleb128 0xf
 3115 0cca 35050000 		.4byte	0x535
 3116 0cce E70C0000 		.4byte	0xce7
 3117 0cd2 0E       		.uleb128 0xe
 3118 0cd3 E70C0000 		.4byte	0xce7
 3119 0cd7 0E       		.uleb128 0xe
 3120 0cd8 F20C0000 		.4byte	0xcf2
 3121 0cdc 0E       		.uleb128 0xe
 3122 0cdd FB000000 		.4byte	0xfb
 3123 0ce1 0E       		.uleb128 0xe
 3124 0ce2 FB000000 		.4byte	0xfb
 3125 0ce6 00       		.byte	0
 3126 0ce7 0C       		.uleb128 0xc
 3127 0ce8 04       		.byte	0x4
 3128 0ce9 ED0C0000 		.4byte	0xced
 3129 0ced 1C       		.uleb128 0x1c
 3130 0cee 710C0000 		.4byte	0xc71
 3131 0cf2 0C       		.uleb128 0xc
 3132 0cf3 04       		.byte	0x4
 3133 0cf4 660C0000 		.4byte	0xc66
 3134 0cf8 0C       		.uleb128 0xc
ARM GAS  C:\Users\tmj32\AppData\Local\Temp\ccmPTl49.s 			page 75


 3135 0cf9 04       		.byte	0x4
 3136 0cfa C90C0000 		.4byte	0xcc9
 3137 0cfe 0F       		.uleb128 0xf
 3138 0cff 120D0000 		.4byte	0xd12
 3139 0d03 120D0000 		.4byte	0xd12
 3140 0d07 0E       		.uleb128 0xe
 3141 0d08 E70C0000 		.4byte	0xce7
 3142 0d0c 0E       		.uleb128 0xe
 3143 0d0d FB000000 		.4byte	0xfb
 3144 0d11 00       		.byte	0
 3145 0d12 0C       		.uleb128 0xc
 3146 0d13 04       		.byte	0x4
 3147 0d14 180D0000 		.4byte	0xd18
 3148 0d18 1C       		.uleb128 0x1c
 3149 0d19 CF000000 		.4byte	0xcf
 3150 0d1d 0C       		.uleb128 0xc
 3151 0d1e 04       		.byte	0x4
 3152 0d1f FE0C0000 		.4byte	0xcfe
 3153 0d23 02       		.uleb128 0x2
 3154 0d24 010F0000 		.4byte	.LASF244
 3155 0d28 12       		.byte	0x12
 3156 0d29 56       		.byte	0x56
 3157 0d2a 710C0000 		.4byte	0xc71
 3158 0d2e 1F       		.uleb128 0x1f
 3159 0d2f 01       		.byte	0x1
 3160 0d30 42000000 		.4byte	0x42
 3161 0d34 13       		.byte	0x13
 3162 0d35 23       		.byte	0x23
 3163 0d36 470D0000 		.4byte	0xd47
 3164 0d3a 0A       		.uleb128 0xa
 3165 0d3b 1C120000 		.4byte	.LASF245
 3166 0d3f 00       		.byte	0
 3167 0d40 0A       		.uleb128 0xa
 3168 0d41 2E0D0000 		.4byte	.LASF246
 3169 0d45 01       		.byte	0x1
 3170 0d46 00       		.byte	0
 3171 0d47 02       		.uleb128 0x2
 3172 0d48 A8130000 		.4byte	.LASF247
 3173 0d4c 13       		.byte	0x13
 3174 0d4d 28       		.byte	0x28
 3175 0d4e CF000000 		.4byte	0xcf
 3176 0d52 02       		.uleb128 0x2
 3177 0d53 C9100000 		.4byte	.LASF248
 3178 0d57 14       		.byte	0x14
 3179 0d58 2C       		.byte	0x2c
 3180 0d59 CF000000 		.4byte	0xcf
 3181 0d5d 02       		.uleb128 0x2
 3182 0d5e A80A0000 		.4byte	.LASF249
 3183 0d62 14       		.byte	0x14
 3184 0d63 33       		.byte	0x33
 3185 0d64 CF000000 		.4byte	0xcf
 3186 0d68 07       		.uleb128 0x7
 3187 0d69 08       		.byte	0x8
 3188 0d6a 14       		.byte	0x14
 3189 0d6b 48       		.byte	0x48
 3190 0d6c A10D0000 		.4byte	0xda1
 3191 0d70 08       		.uleb128 0x8
ARM GAS  C:\Users\tmj32\AppData\Local\Temp\ccmPTl49.s 			page 76


 3192 0d71 09070000 		.4byte	.LASF250
 3193 0d75 14       		.byte	0x14
 3194 0d76 4A       		.byte	0x4a
 3195 0d77 6A0A0000 		.4byte	0xa6a
 3196 0d7b 00       		.byte	0
 3197 0d7c 08       		.uleb128 0x8
 3198 0d7d 5D070000 		.4byte	.LASF251
 3199 0d81 14       		.byte	0x14
 3200 0d82 4B       		.byte	0x4b
 3201 0d83 A9090000 		.4byte	0x9a9
 3202 0d87 04       		.byte	0x4
 3203 0d88 08       		.uleb128 0x8
 3204 0d89 28060000 		.4byte	.LASF252
 3205 0d8d 14       		.byte	0x14
 3206 0d8e 4C       		.byte	0x4c
 3207 0d8f 520D0000 		.4byte	0xd52
 3208 0d93 06       		.byte	0x6
 3209 0d94 14       		.uleb128 0x14
 3210 0d95 6F706100 		.ascii	"opa\000"
 3211 0d99 14       		.byte	0x14
 3212 0d9a 4D       		.byte	0x4d
 3213 0d9b 760A0000 		.4byte	0xa76
 3214 0d9f 07       		.byte	0x7
 3215 0da0 00       		.byte	0
 3216 0da1 07       		.uleb128 0x7
 3217 0da2 08       		.byte	0x8
 3218 0da3 14       		.byte	0x14
 3219 0da4 51       		.byte	0x51
 3220 0da5 CE0D0000 		.4byte	0xdce
 3221 0da9 08       		.uleb128 0x8
 3222 0daa 09070000 		.4byte	.LASF250
 3223 0dae 14       		.byte	0x14
 3224 0daf 53       		.byte	0x53
 3225 0db0 6A0A0000 		.4byte	0xa6a
 3226 0db4 00       		.byte	0
 3227 0db5 08       		.uleb128 0x8
 3228 0db6 5D070000 		.4byte	.LASF251
 3229 0dba 14       		.byte	0x14
 3230 0dbb 54       		.byte	0x54
 3231 0dbc A9090000 		.4byte	0x9a9
 3232 0dc0 04       		.byte	0x4
 3233 0dc1 08       		.uleb128 0x8
 3234 0dc2 510A0000 		.4byte	.LASF253
 3235 0dc6 14       		.byte	0x14
 3236 0dc7 55       		.byte	0x55
 3237 0dc8 5D0D0000 		.4byte	0xd5d
 3238 0dcc 06       		.byte	0x6
 3239 0dcd 00       		.byte	0
 3240 0dce 07       		.uleb128 0x7
 3241 0dcf 0A       		.byte	0xa
 3242 0dd0 14       		.byte	0x14
 3243 0dd1 58       		.byte	0x58
 3244 0dd2 130E0000 		.4byte	0xe13
 3245 0dd6 14       		.uleb128 0x14
 3246 0dd7 746F7000 		.ascii	"top\000"
 3247 0ddb 14       		.byte	0x14
 3248 0ddc 5A       		.byte	0x5a
ARM GAS  C:\Users\tmj32\AppData\Local\Temp\ccmPTl49.s 			page 77


 3249 0ddd A9090000 		.4byte	0x9a9
 3250 0de1 00       		.byte	0
 3251 0de2 08       		.uleb128 0x8
 3252 0de3 B3090000 		.4byte	.LASF254
 3253 0de7 14       		.byte	0x14
 3254 0de8 5B       		.byte	0x5b
 3255 0de9 A9090000 		.4byte	0x9a9
 3256 0ded 02       		.byte	0x2
 3257 0dee 08       		.uleb128 0x8
 3258 0def DA100000 		.4byte	.LASF255
 3259 0df3 14       		.byte	0x14
 3260 0df4 5C       		.byte	0x5c
 3261 0df5 A9090000 		.4byte	0x9a9
 3262 0df9 04       		.byte	0x4
 3263 0dfa 08       		.uleb128 0x8
 3264 0dfb E60A0000 		.4byte	.LASF256
 3265 0dff 14       		.byte	0x14
 3266 0e00 5D       		.byte	0x5d
 3267 0e01 A9090000 		.4byte	0x9a9
 3268 0e05 06       		.byte	0x6
 3269 0e06 08       		.uleb128 0x8
 3270 0e07 DE040000 		.4byte	.LASF257
 3271 0e0b 14       		.byte	0x14
 3272 0e0c 5E       		.byte	0x5e
 3273 0e0d A9090000 		.4byte	0x9a9
 3274 0e11 08       		.byte	0x8
 3275 0e12 00       		.byte	0
 3276 0e13 07       		.uleb128 0x7
 3277 0e14 28       		.byte	0x28
 3278 0e15 14       		.byte	0x14
 3279 0e16 41       		.byte	0x41
 3280 0e17 700E0000 		.4byte	0xe70
 3281 0e1b 08       		.uleb128 0x8
 3282 0e1c 2D0F0000 		.4byte	.LASF258
 3283 0e20 14       		.byte	0x14
 3284 0e21 43       		.byte	0x43
 3285 0e22 6A0A0000 		.4byte	0xa6a
 3286 0e26 00       		.byte	0
 3287 0e27 08       		.uleb128 0x8
 3288 0e28 E3080000 		.4byte	.LASF259
 3289 0e2c 14       		.byte	0x14
 3290 0e2d 44       		.byte	0x44
 3291 0e2e 6A0A0000 		.4byte	0xa6a
 3292 0e32 04       		.byte	0x4
 3293 0e33 08       		.uleb128 0x8
 3294 0e34 28120000 		.4byte	.LASF260
 3295 0e38 14       		.byte	0x14
 3296 0e39 45       		.byte	0x45
 3297 0e3a A9090000 		.4byte	0x9a9
 3298 0e3e 08       		.byte	0x8
 3299 0e3f 14       		.uleb128 0x14
 3300 0e40 6F706100 		.ascii	"opa\000"
 3301 0e44 14       		.byte	0x14
 3302 0e45 46       		.byte	0x46
 3303 0e46 760A0000 		.4byte	0xa76
 3304 0e4a 0A       		.byte	0xa
 3305 0e4b 08       		.uleb128 0x8
ARM GAS  C:\Users\tmj32\AppData\Local\Temp\ccmPTl49.s 			page 78


 3306 0e4c 5A100000 		.4byte	.LASF261
 3307 0e50 14       		.byte	0x14
 3308 0e51 4E       		.byte	0x4e
 3309 0e52 680D0000 		.4byte	0xd68
 3310 0e56 0C       		.byte	0xc
 3311 0e57 08       		.uleb128 0x8
 3312 0e58 920D0000 		.4byte	.LASF262
 3313 0e5c 14       		.byte	0x14
 3314 0e5d 56       		.byte	0x56
 3315 0e5e A10D0000 		.4byte	0xda1
 3316 0e62 14       		.byte	0x14
 3317 0e63 08       		.uleb128 0x8
 3318 0e64 6F0B0000 		.4byte	.LASF263
 3319 0e68 14       		.byte	0x14
 3320 0e69 5F       		.byte	0x5f
 3321 0e6a CE0D0000 		.4byte	0xdce
 3322 0e6e 1C       		.byte	0x1c
 3323 0e6f 00       		.byte	0
 3324 0e70 07       		.uleb128 0x7
 3325 0e71 14       		.byte	0x14
 3326 0e72 14       		.byte	0x14
 3327 0e73 63       		.byte	0x63
 3328 0e74 C10E0000 		.4byte	0xec1
 3329 0e78 08       		.uleb128 0x8
 3330 0e79 09070000 		.4byte	.LASF250
 3331 0e7d 14       		.byte	0x14
 3332 0e7e 65       		.byte	0x65
 3333 0e7f 6A0A0000 		.4byte	0xa6a
 3334 0e83 00       		.byte	0
 3335 0e84 08       		.uleb128 0x8
 3336 0e85 6D050000 		.4byte	.LASF264
 3337 0e89 14       		.byte	0x14
 3338 0e8a 66       		.byte	0x66
 3339 0e8b 6A0A0000 		.4byte	0xa6a
 3340 0e8f 04       		.byte	0x4
 3341 0e90 08       		.uleb128 0x8
 3342 0e91 84020000 		.4byte	.LASF265
 3343 0e95 14       		.byte	0x14
 3344 0e96 67       		.byte	0x67
 3345 0e97 C10E0000 		.4byte	0xec1
 3346 0e9b 08       		.byte	0x8
 3347 0e9c 08       		.uleb128 0x8
 3348 0e9d 0B0F0000 		.4byte	.LASF266
 3349 0ea1 14       		.byte	0x14
 3350 0ea2 68       		.byte	0x68
 3351 0ea3 A9090000 		.4byte	0x9a9
 3352 0ea7 0C       		.byte	0xc
 3353 0ea8 08       		.uleb128 0x8
 3354 0ea9 40080000 		.4byte	.LASF267
 3355 0ead 14       		.byte	0x14
 3356 0eae 69       		.byte	0x69
 3357 0eaf A9090000 		.4byte	0x9a9
 3358 0eb3 0E       		.byte	0xe
 3359 0eb4 14       		.uleb128 0x14
 3360 0eb5 6F706100 		.ascii	"opa\000"
 3361 0eb9 14       		.byte	0x14
 3362 0eba 6A       		.byte	0x6a
ARM GAS  C:\Users\tmj32\AppData\Local\Temp\ccmPTl49.s 			page 79


 3363 0ebb 760A0000 		.4byte	0xa76
 3364 0ebf 10       		.byte	0x10
 3365 0ec0 00       		.byte	0
 3366 0ec1 0C       		.uleb128 0xc
 3367 0ec2 04       		.byte	0x4
 3368 0ec3 C70E0000 		.4byte	0xec7
 3369 0ec7 1C       		.uleb128 0x1c
 3370 0ec8 230D0000 		.4byte	0xd23
 3371 0ecc 07       		.uleb128 0x7
 3372 0ecd 08       		.byte	0x8
 3373 0ece 14       		.byte	0x14
 3374 0ecf 6E       		.byte	0x6e
 3375 0ed0 F90E0000 		.4byte	0xef9
 3376 0ed4 08       		.uleb128 0x8
 3377 0ed5 09070000 		.4byte	.LASF250
 3378 0ed9 14       		.byte	0x14
 3379 0eda 70       		.byte	0x70
 3380 0edb 6A0A0000 		.4byte	0xa6a
 3381 0edf 00       		.byte	0
 3382 0ee0 08       		.uleb128 0x8
 3383 0ee1 DF100000 		.4byte	.LASF268
 3384 0ee5 14       		.byte	0x14
 3385 0ee6 71       		.byte	0x71
 3386 0ee7 760A0000 		.4byte	0xa76
 3387 0eeb 04       		.byte	0x4
 3388 0eec 14       		.uleb128 0x14
 3389 0eed 6F706100 		.ascii	"opa\000"
 3390 0ef1 14       		.byte	0x14
 3391 0ef2 72       		.byte	0x72
 3392 0ef3 760A0000 		.4byte	0xa76
 3393 0ef7 05       		.byte	0x5
 3394 0ef8 00       		.byte	0
 3395 0ef9 07       		.uleb128 0x7
 3396 0efa 08       		.byte	0x8
 3397 0efb 14       		.byte	0x14
 3398 0efc 76       		.byte	0x76
 3399 0efd 350F0000 		.4byte	0xf35
 3400 0f01 08       		.uleb128 0x8
 3401 0f02 09070000 		.4byte	.LASF250
 3402 0f06 14       		.byte	0x14
 3403 0f07 78       		.byte	0x78
 3404 0f08 6A0A0000 		.4byte	0xa6a
 3405 0f0c 00       		.byte	0
 3406 0f0d 08       		.uleb128 0x8
 3407 0f0e 5D070000 		.4byte	.LASF251
 3408 0f12 14       		.byte	0x14
 3409 0f13 79       		.byte	0x79
 3410 0f14 A9090000 		.4byte	0x9a9
 3411 0f18 04       		.byte	0x4
 3412 0f19 14       		.uleb128 0x14
 3413 0f1a 6F706100 		.ascii	"opa\000"
 3414 0f1e 14       		.byte	0x14
 3415 0f1f 7A       		.byte	0x7a
 3416 0f20 760A0000 		.4byte	0xa76
 3417 0f24 06       		.byte	0x6
 3418 0f25 1D       		.uleb128 0x1d
 3419 0f26 2E070000 		.4byte	.LASF269
ARM GAS  C:\Users\tmj32\AppData\Local\Temp\ccmPTl49.s 			page 80


 3420 0f2a 14       		.byte	0x14
 3421 0f2b 7B       		.byte	0x7b
 3422 0f2c CF000000 		.4byte	0xcf
 3423 0f30 01       		.byte	0x1
 3424 0f31 01       		.byte	0x1
 3425 0f32 07       		.byte	0x7
 3426 0f33 07       		.byte	0x7
 3427 0f34 00       		.byte	0
 3428 0f35 07       		.uleb128 0x7
 3429 0f36 50       		.byte	0x50
 3430 0f37 14       		.byte	0x14
 3431 0f38 3C       		.byte	0x3c
 3432 0f39 7D0F0000 		.4byte	0xf7d
 3433 0f3d 1D       		.uleb128 0x1d
 3434 0f3e 080B0000 		.4byte	.LASF270
 3435 0f42 14       		.byte	0x14
 3436 0f43 3E       		.byte	0x3e
 3437 0f44 CF000000 		.4byte	0xcf
 3438 0f48 01       		.byte	0x1
 3439 0f49 01       		.byte	0x1
 3440 0f4a 07       		.byte	0x7
 3441 0f4b 00       		.byte	0
 3442 0f4c 08       		.uleb128 0x8
 3443 0f4d 39120000 		.4byte	.LASF271
 3444 0f51 14       		.byte	0x14
 3445 0f52 60       		.byte	0x60
 3446 0f53 130E0000 		.4byte	0xe13
 3447 0f57 04       		.byte	0x4
 3448 0f58 08       		.uleb128 0x8
 3449 0f59 3E0B0000 		.4byte	.LASF272
 3450 0f5d 14       		.byte	0x14
 3451 0f5e 6B       		.byte	0x6b
 3452 0f5f 700E0000 		.4byte	0xe70
 3453 0f63 2C       		.byte	0x2c
 3454 0f64 08       		.uleb128 0x8
 3455 0f65 19040000 		.4byte	.LASF273
 3456 0f69 14       		.byte	0x14
 3457 0f6a 73       		.byte	0x73
 3458 0f6b CC0E0000 		.4byte	0xecc
 3459 0f6f 40       		.byte	0x40
 3460 0f70 08       		.uleb128 0x8
 3461 0f71 B6120000 		.4byte	.LASF274
 3462 0f75 14       		.byte	0x14
 3463 0f76 7C       		.byte	0x7c
 3464 0f77 F90E0000 		.4byte	0xef9
 3465 0f7b 48       		.byte	0x48
 3466 0f7c 00       		.byte	0
 3467 0f7d 02       		.uleb128 0x2
 3468 0f7e E6010000 		.4byte	.LASF275
 3469 0f82 14       		.byte	0x14
 3470 0f83 84       		.byte	0x84
 3471 0f84 350F0000 		.4byte	0xf35
 3472 0f88 02       		.uleb128 0x2
 3473 0f89 010C0000 		.4byte	.LASF276
 3474 0f8d 15       		.byte	0x15
 3475 0f8e 30       		.byte	0x30
 3476 0f8f CF000000 		.4byte	0xcf
ARM GAS  C:\Users\tmj32\AppData\Local\Temp\ccmPTl49.s 			page 81


 3477 0f93 02       		.uleb128 0x2
 3478 0f94 44130000 		.4byte	.LASF277
 3479 0f98 11       		.byte	0x11
 3480 0f99 42       		.byte	0x42
 3481 0f9a CF000000 		.4byte	0xcf
 3482 0f9e 02       		.uleb128 0x2
 3483 0f9f 42020000 		.4byte	.LASF278
 3484 0fa3 11       		.byte	0x11
 3485 0fa4 48       		.byte	0x48
 3486 0fa5 A90F0000 		.4byte	0xfa9
 3487 0fa9 0C       		.uleb128 0xc
 3488 0faa 04       		.byte	0x4
 3489 0fab AF0F0000 		.4byte	0xfaf
 3490 0faf 0F       		.uleb128 0xf
 3491 0fb0 35050000 		.4byte	0x535
 3492 0fb4 C80F0000 		.4byte	0xfc8
 3493 0fb8 0E       		.uleb128 0xe
 3494 0fb9 0F0C0000 		.4byte	0xc0f
 3495 0fbd 0E       		.uleb128 0xe
 3496 0fbe C20A0000 		.4byte	0xac2
 3497 0fc2 0E       		.uleb128 0xe
 3498 0fc3 930F0000 		.4byte	0xf93
 3499 0fc7 00       		.byte	0
 3500 0fc8 1F       		.uleb128 0x1f
 3501 0fc9 01       		.byte	0x1
 3502 0fca 42000000 		.4byte	0x42
 3503 0fce 11       		.byte	0x11
 3504 0fcf 4A       		.byte	0x4a
 3505 0fd0 4D100000 		.4byte	0x104d
 3506 0fd4 0A       		.uleb128 0xa
 3507 0fd5 2F080000 		.4byte	.LASF279
 3508 0fd9 00       		.byte	0
 3509 0fda 0A       		.uleb128 0xa
 3510 0fdb 61100000 		.4byte	.LASF280
 3511 0fdf 01       		.byte	0x1
 3512 0fe0 0A       		.uleb128 0xa
 3513 0fe1 C8070000 		.4byte	.LASF281
 3514 0fe5 02       		.byte	0x2
 3515 0fe6 0A       		.uleb128 0xa
 3516 0fe7 87150000 		.4byte	.LASF282
 3517 0feb 03       		.byte	0x3
 3518 0fec 0A       		.uleb128 0xa
 3519 0fed A6160000 		.4byte	.LASF283
 3520 0ff1 04       		.byte	0x4
 3521 0ff2 0A       		.uleb128 0xa
 3522 0ff3 A6140000 		.4byte	.LASF284
 3523 0ff7 05       		.byte	0x5
 3524 0ff8 0A       		.uleb128 0xa
 3525 0ff9 C30D0000 		.4byte	.LASF285
 3526 0ffd 06       		.byte	0x6
 3527 0ffe 0A       		.uleb128 0xa
 3528 0fff 4A0F0000 		.4byte	.LASF286
 3529 1003 07       		.byte	0x7
 3530 1004 0A       		.uleb128 0xa
 3531 1005 D60C0000 		.4byte	.LASF287
 3532 1009 08       		.byte	0x8
 3533 100a 0A       		.uleb128 0xa
ARM GAS  C:\Users\tmj32\AppData\Local\Temp\ccmPTl49.s 			page 82


 3534 100b C1020000 		.4byte	.LASF288
 3535 100f 09       		.byte	0x9
 3536 1010 0A       		.uleb128 0xa
 3537 1011 83120000 		.4byte	.LASF289
 3538 1015 0A       		.byte	0xa
 3539 1016 0A       		.uleb128 0xa
 3540 1017 81030000 		.4byte	.LASF290
 3541 101b 0B       		.byte	0xb
 3542 101c 0A       		.uleb128 0xa
 3543 101d 4B110000 		.4byte	.LASF291
 3544 1021 0C       		.byte	0xc
 3545 1022 0A       		.uleb128 0xa
 3546 1023 C30C0000 		.4byte	.LASF292
 3547 1027 0D       		.byte	0xd
 3548 1028 0A       		.uleb128 0xa
 3549 1029 0F010000 		.4byte	.LASF293
 3550 102d 0E       		.byte	0xe
 3551 102e 0A       		.uleb128 0xa
 3552 102f 29050000 		.4byte	.LASF294
 3553 1033 0F       		.byte	0xf
 3554 1034 0A       		.uleb128 0xa
 3555 1035 4E010000 		.4byte	.LASF295
 3556 1039 10       		.byte	0x10
 3557 103a 0A       		.uleb128 0xa
 3558 103b A1020000 		.4byte	.LASF296
 3559 103f 11       		.byte	0x11
 3560 1040 0A       		.uleb128 0xa
 3561 1041 8D0A0000 		.4byte	.LASF297
 3562 1045 12       		.byte	0x12
 3563 1046 0A       		.uleb128 0xa
 3564 1047 98070000 		.4byte	.LASF298
 3565 104b 13       		.byte	0x13
 3566 104c 00       		.byte	0
 3567 104d 02       		.uleb128 0x2
 3568 104e 0F0C0000 		.4byte	.LASF299
 3569 1052 11       		.byte	0x11
 3570 1053 61       		.byte	0x61
 3571 1054 CF000000 		.4byte	0xcf
 3572 1058 02       		.uleb128 0x2
 3573 1059 BC160000 		.4byte	.LASF300
 3574 105d 11       		.byte	0x11
 3575 105e 68       		.byte	0x68
 3576 105f 63100000 		.4byte	0x1063
 3577 1063 0C       		.uleb128 0xc
 3578 1064 04       		.byte	0x4
 3579 1065 69100000 		.4byte	0x1069
 3580 1069 0D       		.uleb128 0xd
 3581 106a 79100000 		.4byte	0x1079
 3582 106e 0E       		.uleb128 0xe
 3583 106f 0F0C0000 		.4byte	0xc0f
 3584 1073 0E       		.uleb128 0xe
 3585 1074 4D100000 		.4byte	0x104d
 3586 1078 00       		.byte	0
 3587 1079 02       		.uleb128 0x2
 3588 107a 3E120000 		.4byte	.LASF301
 3589 107e 11       		.byte	0x11
 3590 107f 88       		.byte	0x88
ARM GAS  C:\Users\tmj32\AppData\Local\Temp\ccmPTl49.s 			page 83


 3591 1080 CF000000 		.4byte	0xcf
 3592 1084 02       		.uleb128 0x2
 3593 1085 05060000 		.4byte	.LASF302
 3594 1089 11       		.byte	0x11
 3595 108a 8A       		.byte	0x8a
 3596 108b 8F100000 		.4byte	0x108f
 3597 108f 0C       		.uleb128 0xc
 3598 1090 04       		.byte	0x4
 3599 1091 95100000 		.4byte	0x1095
 3600 1095 0F       		.uleb128 0xf
 3601 1096 B4090000 		.4byte	0x9b4
 3602 109a AE100000 		.4byte	0x10ae
 3603 109e 0E       		.uleb128 0xe
 3604 109f 0F0C0000 		.4byte	0xc0f
 3605 10a3 0E       		.uleb128 0xe
 3606 10a4 79100000 		.4byte	0x1079
 3607 10a8 0E       		.uleb128 0xe
 3608 10a9 B4000000 		.4byte	0xb4
 3609 10ad 00       		.byte	0
 3610 10ae 1F       		.uleb128 0x1f
 3611 10af 01       		.byte	0x1
 3612 10b0 42000000 		.4byte	0x42
 3613 10b4 11       		.byte	0x11
 3614 10b5 8D       		.byte	0x8d
 3615 10b6 39110000 		.4byte	0x1139
 3616 10ba 0A       		.uleb128 0xa
 3617 10bb 87010000 		.4byte	.LASF303
 3618 10bf 00       		.byte	0
 3619 10c0 0A       		.uleb128 0xa
 3620 10c1 91160000 		.4byte	.LASF304
 3621 10c5 01       		.byte	0x1
 3622 10c6 0A       		.uleb128 0xa
 3623 10c7 5C0F0000 		.4byte	.LASF305
 3624 10cb 02       		.byte	0x2
 3625 10cc 0A       		.uleb128 0xa
 3626 10cd FC110000 		.4byte	.LASF306
 3627 10d1 03       		.byte	0x3
 3628 10d2 0A       		.uleb128 0xa
 3629 10d3 E4110000 		.4byte	.LASF307
 3630 10d7 04       		.byte	0x4
 3631 10d8 0A       		.uleb128 0xa
 3632 10d9 8A0C0000 		.4byte	.LASF308
 3633 10dd 05       		.byte	0x5
 3634 10de 0A       		.uleb128 0xa
 3635 10df 290A0000 		.4byte	.LASF309
 3636 10e3 06       		.byte	0x6
 3637 10e4 0A       		.uleb128 0xa
 3638 10e5 1E020000 		.4byte	.LASF310
 3639 10e9 07       		.byte	0x7
 3640 10ea 0A       		.uleb128 0xa
 3641 10eb 570D0000 		.4byte	.LASF311
 3642 10ef 08       		.byte	0x8
 3643 10f0 0A       		.uleb128 0xa
 3644 10f1 630E0000 		.4byte	.LASF312
 3645 10f5 09       		.byte	0x9
 3646 10f6 0A       		.uleb128 0xa
 3647 10f7 A50F0000 		.4byte	.LASF313
ARM GAS  C:\Users\tmj32\AppData\Local\Temp\ccmPTl49.s 			page 84


 3648 10fb 0A       		.byte	0xa
 3649 10fc 0A       		.uleb128 0xa
 3650 10fd D1120000 		.4byte	.LASF314
 3651 1101 0B       		.byte	0xb
 3652 1102 0A       		.uleb128 0xa
 3653 1103 5F020000 		.4byte	.LASF315
 3654 1107 0C       		.byte	0xc
 3655 1108 0A       		.uleb128 0xa
 3656 1109 BE060000 		.4byte	.LASF316
 3657 110d 0D       		.byte	0xd
 3658 110e 0A       		.uleb128 0xa
 3659 110f 4D050000 		.4byte	.LASF317
 3660 1113 0E       		.byte	0xe
 3661 1114 0A       		.uleb128 0xa
 3662 1115 1D0B0000 		.4byte	.LASF318
 3663 1119 0F       		.byte	0xf
 3664 111a 0A       		.uleb128 0xa
 3665 111b 36070000 		.4byte	.LASF319
 3666 111f 10       		.byte	0x10
 3667 1120 0A       		.uleb128 0xa
 3668 1121 74140000 		.4byte	.LASF320
 3669 1125 11       		.byte	0x11
 3670 1126 0A       		.uleb128 0xa
 3671 1127 F5040000 		.4byte	.LASF321
 3672 112b 12       		.byte	0x12
 3673 112c 0A       		.uleb128 0xa
 3674 112d 73110000 		.4byte	.LASF322
 3675 1131 13       		.byte	0x13
 3676 1132 0A       		.uleb128 0xa
 3677 1133 2D060000 		.4byte	.LASF323
 3678 1137 14       		.byte	0x14
 3679 1138 00       		.byte	0
 3680 1139 02       		.uleb128 0x2
 3681 113a 770B0000 		.4byte	.LASF324
 3682 113e 11       		.byte	0x11
 3683 113f A4       		.byte	0xa4
 3684 1140 CF000000 		.4byte	0xcf
 3685 1144 07       		.uleb128 0x7
 3686 1145 0C       		.byte	0xc
 3687 1146 11       		.byte	0x11
 3688 1147 A7       		.byte	0xa7
 3689 1148 9B110000 		.4byte	0x119b
 3690 114c 08       		.uleb128 0x8
 3691 114d 8F050000 		.4byte	.LASF325
 3692 1151 11       		.byte	0x11
 3693 1152 A9       		.byte	0xa9
 3694 1153 9B110000 		.4byte	0x119b
 3695 1157 00       		.byte	0
 3696 1158 08       		.uleb128 0x8
 3697 1159 B50B0000 		.4byte	.LASF326
 3698 115d 11       		.byte	0x11
 3699 115e AA       		.byte	0xaa
 3700 115f A9090000 		.4byte	0x9a9
 3701 1163 04       		.byte	0x4
 3702 1164 08       		.uleb128 0x8
 3703 1165 33020000 		.4byte	.LASF327
 3704 1169 11       		.byte	0x11
ARM GAS  C:\Users\tmj32\AppData\Local\Temp\ccmPTl49.s 			page 85


 3705 116a AB       		.byte	0xab
 3706 116b A9090000 		.4byte	0x9a9
 3707 116f 06       		.byte	0x6
 3708 1170 08       		.uleb128 0x8
 3709 1171 64160000 		.4byte	.LASF328
 3710 1175 11       		.byte	0x11
 3711 1176 AC       		.byte	0xac
 3712 1177 39110000 		.4byte	0x1139
 3713 117b 08       		.byte	0x8
 3714 117c 1D       		.uleb128 0x1d
 3715 117d 430B0000 		.4byte	.LASF329
 3716 1181 11       		.byte	0x11
 3717 1182 AD       		.byte	0xad
 3718 1183 CF000000 		.4byte	0xcf
 3719 1187 01       		.byte	0x1
 3720 1188 01       		.byte	0x1
 3721 1189 07       		.byte	0x7
 3722 118a 09       		.byte	0x9
 3723 118b 1D       		.uleb128 0x1d
 3724 118c 3E0C0000 		.4byte	.LASF330
 3725 1190 11       		.byte	0x11
 3726 1191 AE       		.byte	0xae
 3727 1192 CF000000 		.4byte	0xcf
 3728 1196 01       		.byte	0x1
 3729 1197 01       		.byte	0x1
 3730 1198 06       		.byte	0x6
 3731 1199 09       		.byte	0x9
 3732 119a 00       		.byte	0
 3733 119b 0C       		.uleb128 0xc
 3734 119c 04       		.byte	0x4
 3735 119d A1110000 		.4byte	0x11a1
 3736 11a1 1C       		.uleb128 0x1c
 3737 11a2 CD0A0000 		.4byte	0xacd
 3738 11a6 02       		.uleb128 0x2
 3739 11a7 D7160000 		.4byte	.LASF331
 3740 11ab 11       		.byte	0x11
 3741 11ac B0       		.byte	0xb0
 3742 11ad 44110000 		.4byte	0x1144
 3743 11b1 02       		.uleb128 0x2
 3744 11b2 7C0C0000 		.4byte	.LASF332
 3745 11b6 11       		.byte	0x11
 3746 11b7 B9       		.byte	0xb9
 3747 11b8 CF000000 		.4byte	0xcf
 3748 11bc 0C       		.uleb128 0xc
 3749 11bd 04       		.byte	0x4
 3750 11be C2110000 		.4byte	0x11c2
 3751 11c2 1C       		.uleb128 0x1c
 3752 11c3 7D0F0000 		.4byte	0xf7d
 3753 11c7 02       		.uleb128 0x2
 3754 11c8 FA030000 		.4byte	.LASF333
 3755 11cc 11       		.byte	0x11
 3756 11cd F0       		.byte	0xf0
 3757 11ce CD0A0000 		.4byte	0xacd
 3758 11d2 1F       		.uleb128 0x1f
 3759 11d3 01       		.byte	0x1
 3760 11d4 42000000 		.4byte	0x42
 3761 11d8 16       		.byte	0x16
ARM GAS  C:\Users\tmj32\AppData\Local\Temp\ccmPTl49.s 			page 86


 3762 11d9 2A       		.byte	0x2a
 3763 11da 03120000 		.4byte	0x1203
 3764 11de 0A       		.uleb128 0xa
 3765 11df 06110000 		.4byte	.LASF334
 3766 11e3 00       		.byte	0
 3767 11e4 0A       		.uleb128 0xa
 3768 11e5 AA030000 		.4byte	.LASF335
 3769 11e9 01       		.byte	0x1
 3770 11ea 0A       		.uleb128 0xa
 3771 11eb 72150000 		.4byte	.LASF336
 3772 11ef 02       		.byte	0x2
 3773 11f0 0A       		.uleb128 0xa
 3774 11f1 4B080000 		.4byte	.LASF337
 3775 11f5 03       		.byte	0x3
 3776 11f6 0A       		.uleb128 0xa
 3777 11f7 34110000 		.4byte	.LASF338
 3778 11fb 04       		.byte	0x4
 3779 11fc 0A       		.uleb128 0xa
 3780 11fd DF0F0000 		.4byte	.LASF339
 3781 1201 05       		.byte	0x5
 3782 1202 00       		.byte	0
 3783 1203 1F       		.uleb128 0x1f
 3784 1204 01       		.byte	0x1
 3785 1205 42000000 		.4byte	0x42
 3786 1209 17       		.byte	0x17
 3787 120a 2F       		.byte	0x2f
 3788 120b 34120000 		.4byte	0x1234
 3789 120f 0A       		.uleb128 0xa
 3790 1210 1A080000 		.4byte	.LASF340
 3791 1214 00       		.byte	0
 3792 1215 0A       		.uleb128 0xa
 3793 1216 C70A0000 		.4byte	.LASF341
 3794 121a 01       		.byte	0x1
 3795 121b 0A       		.uleb128 0xa
 3796 121c BB000000 		.4byte	.LASF342
 3797 1220 02       		.byte	0x2
 3798 1221 0A       		.uleb128 0xa
 3799 1222 D2050000 		.4byte	.LASF343
 3800 1226 03       		.byte	0x3
 3801 1227 0A       		.uleb128 0xa
 3802 1228 920B0000 		.4byte	.LASF344
 3803 122c 04       		.byte	0x4
 3804 122d 0A       		.uleb128 0xa
 3805 122e 60130000 		.4byte	.LASF345
 3806 1232 05       		.byte	0x5
 3807 1233 00       		.byte	0
 3808 1234 16       		.uleb128 0x16
 3809 1235 BD000000 		.4byte	0xbd
 3810 1239 44120000 		.4byte	0x1244
 3811 123d 17       		.uleb128 0x17
 3812 123e B6000000 		.4byte	0xb6
 3813 1242 03       		.byte	0x3
 3814 1243 00       		.byte	0
 3815 1244 0C       		.uleb128 0xc
 3816 1245 04       		.byte	0x4
 3817 1246 C7110000 		.4byte	0x11c7
 3818 124a 1F       		.uleb128 0x1f
ARM GAS  C:\Users\tmj32\AppData\Local\Temp\ccmPTl49.s 			page 87


 3819 124b 01       		.byte	0x1
 3820 124c 42000000 		.4byte	0x42
 3821 1250 18       		.byte	0x18
 3822 1251 2D       		.byte	0x2d
 3823 1252 7B120000 		.4byte	0x127b
 3824 1256 0A       		.uleb128 0xa
 3825 1257 2B130000 		.4byte	.LASF346
 3826 125b 00       		.byte	0
 3827 125c 0A       		.uleb128 0xa
 3828 125d B5070000 		.4byte	.LASF347
 3829 1261 01       		.byte	0x1
 3830 1262 0A       		.uleb128 0xa
 3831 1263 0C090000 		.4byte	.LASF348
 3832 1267 02       		.byte	0x2
 3833 1268 0A       		.uleb128 0xa
 3834 1269 91100000 		.4byte	.LASF349
 3835 126d 04       		.byte	0x4
 3836 126e 0A       		.uleb128 0xa
 3837 126f C3140000 		.4byte	.LASF350
 3838 1273 08       		.byte	0x8
 3839 1274 0A       		.uleb128 0xa
 3840 1275 9E150000 		.4byte	.LASF351
 3841 1279 10       		.byte	0x10
 3842 127a 00       		.byte	0
 3843 127b 07       		.uleb128 0x7
 3844 127c 0C       		.byte	0xc
 3845 127d 18       		.byte	0x18
 3846 127e 3E       		.byte	0x3e
 3847 127f A8120000 		.4byte	0x12a8
 3848 1283 08       		.uleb128 0x8
 3849 1284 8A160000 		.4byte	.LASF352
 3850 1288 18       		.byte	0x18
 3851 1289 40       		.byte	0x40
 3852 128a A8120000 		.4byte	0x12a8
 3853 128e 00       		.byte	0
 3854 128f 08       		.uleb128 0x8
 3855 1290 09070000 		.4byte	.LASF250
 3856 1294 18       		.byte	0x18
 3857 1295 41       		.byte	0x41
 3858 1296 6A0A0000 		.4byte	0xa6a
 3859 129a 04       		.byte	0x4
 3860 129b 08       		.uleb128 0x8
 3861 129c BD100000 		.4byte	.LASF353
 3862 12a0 18       		.byte	0x18
 3863 12a1 42       		.byte	0x42
 3864 12a2 E5000000 		.4byte	0xe5
 3865 12a6 08       		.byte	0x8
 3866 12a7 00       		.byte	0
 3867 12a8 0C       		.uleb128 0xc
 3868 12a9 04       		.byte	0x4
 3869 12aa A9090000 		.4byte	0x9a9
 3870 12ae 02       		.uleb128 0x2
 3871 12af 39100000 		.4byte	.LASF354
 3872 12b3 18       		.byte	0x18
 3873 12b4 43       		.byte	0x43
 3874 12b5 7B120000 		.4byte	0x127b
 3875 12b9 20       		.uleb128 0x20
ARM GAS  C:\Users\tmj32\AppData\Local\Temp\ccmPTl49.s 			page 88


 3876 12ba B90A0000 		.4byte	.LASF355
 3877 12be 01       		.byte	0x1
 3878 12bf DD01     		.2byte	0x1dd
 3879 12c1 6A0A0000 		.4byte	0xa6a
 3880 12c5 00000000 		.4byte	.LFB588
 3881 12c9 38000000 		.4byte	.LFE588-.LFB588
 3882 12cd 01       		.uleb128 0x1
 3883 12ce 9C       		.byte	0x9c
 3884 12cf FB120000 		.4byte	0x12fb
 3885 12d3 21       		.uleb128 0x21
 3886 12d4 7200     		.ascii	"r\000"
 3887 12d6 01       		.byte	0x1
 3888 12d7 DD01     		.2byte	0x1dd
 3889 12d9 CF000000 		.4byte	0xcf
 3890 12dd 02       		.uleb128 0x2
 3891 12de 91       		.byte	0x91
 3892 12df 77       		.sleb128 -9
 3893 12e0 21       		.uleb128 0x21
 3894 12e1 6700     		.ascii	"g\000"
 3895 12e3 01       		.byte	0x1
 3896 12e4 DD01     		.2byte	0x1dd
 3897 12e6 CF000000 		.4byte	0xcf
 3898 12ea 02       		.uleb128 0x2
 3899 12eb 91       		.byte	0x91
 3900 12ec 76       		.sleb128 -10
 3901 12ed 21       		.uleb128 0x21
 3902 12ee 6200     		.ascii	"b\000"
 3903 12f0 01       		.byte	0x1
 3904 12f1 DD01     		.2byte	0x1dd
 3905 12f3 CF000000 		.4byte	0xcf
 3906 12f7 02       		.uleb128 0x2
 3907 12f8 91       		.byte	0x91
 3908 12f9 75       		.sleb128 -11
 3909 12fa 00       		.byte	0
 3910 12fb 22       		.uleb128 0x22
 3911 12fc D6080000 		.4byte	.LASF356
 3912 1300 01       		.byte	0x1
 3913 1301 E201     		.2byte	0x1e2
 3914 1303 6A0A0000 		.4byte	0xa6a
 3915 1307 00000000 		.4byte	.LFB589
 3916 130b 28000000 		.4byte	.LFE589-.LFB589
 3917 130f 01       		.uleb128 0x1
 3918 1310 9C       		.byte	0x9c
 3919 1311 23130000 		.4byte	0x1323
 3920 1315 21       		.uleb128 0x21
 3921 1316 6300     		.ascii	"c\000"
 3922 1318 01       		.byte	0x1
 3923 1319 E201     		.2byte	0x1e2
 3924 131b FB000000 		.4byte	0xfb
 3925 131f 02       		.uleb128 0x2
 3926 1320 91       		.byte	0x91
 3927 1321 74       		.sleb128 -12
 3928 1322 00       		.byte	0
 3929 1323 23       		.uleb128 0x23
 3930 1324 DB0A0000 		.4byte	.LASF401
 3931 1328 02       		.byte	0x2
 3932 1329 61       		.byte	0x61
ARM GAS  C:\Users\tmj32\AppData\Local\Temp\ccmPTl49.s 			page 89


 3933 132a 44120000 		.4byte	0x1244
 3934 132e 00000000 		.4byte	.LFB613
 3935 1332 16000000 		.4byte	.LFE613-.LFB613
 3936 1336 01       		.uleb128 0x1
 3937 1337 9C       		.byte	0x9c
 3938 1338 24       		.uleb128 0x24
 3939 1339 A6080000 		.4byte	.LASF360
 3940 133d 03       		.byte	0x3
 3941 133e 4F       		.byte	0x4f
 3942 133f 00000000 		.4byte	.LFB668
 3943 1343 26000000 		.4byte	.LFE668-.LFB668
 3944 1347 01       		.uleb128 0x1
 3945 1348 9C       		.byte	0x9c
 3946 1349 78130000 		.4byte	0x1378
 3947 134d 25       		.uleb128 0x25
 3948 134e EA060000 		.4byte	.LASF357
 3949 1352 03       		.byte	0x3
 3950 1353 4F       		.byte	0x4f
 3951 1354 44120000 		.4byte	0x1244
 3952 1358 02       		.uleb128 0x2
 3953 1359 91       		.byte	0x91
 3954 135a 74       		.sleb128 -12
 3955 135b 25       		.uleb128 0x25
 3956 135c E4060000 		.4byte	.LASF358
 3957 1360 03       		.byte	0x3
 3958 1361 4F       		.byte	0x4f
 3959 1362 DA000000 		.4byte	0xda
 3960 1366 02       		.uleb128 0x2
 3961 1367 91       		.byte	0x91
 3962 1368 72       		.sleb128 -14
 3963 1369 25       		.uleb128 0x25
 3964 136a 8E030000 		.4byte	.LASF359
 3965 136e 03       		.byte	0x3
 3966 136f 4F       		.byte	0x4f
 3967 1370 470D0000 		.4byte	0xd47
 3968 1374 02       		.uleb128 0x2
 3969 1375 91       		.byte	0x91
 3970 1376 71       		.sleb128 -15
 3971 1377 00       		.byte	0
 3972 1378 24       		.uleb128 0x24
 3973 1379 CE0E0000 		.4byte	.LASF361
 3974 137d 03       		.byte	0x3
 3975 137e 5A       		.byte	0x5a
 3976 137f 00000000 		.4byte	.LFB669
 3977 1383 28000000 		.4byte	.LFE669-.LFB669
 3978 1387 01       		.uleb128 0x1
 3979 1388 9C       		.byte	0x9c
 3980 1389 B8130000 		.4byte	0x13b8
 3981 138d 25       		.uleb128 0x25
 3982 138e EA060000 		.4byte	.LASF357
 3983 1392 03       		.byte	0x3
 3984 1393 5A       		.byte	0x5a
 3985 1394 44120000 		.4byte	0x1244
 3986 1398 02       		.uleb128 0x2
 3987 1399 91       		.byte	0x91
 3988 139a 74       		.sleb128 -12
 3989 139b 26       		.uleb128 0x26
ARM GAS  C:\Users\tmj32\AppData\Local\Temp\ccmPTl49.s 			page 90


 3990 139c 6D696E00 		.ascii	"min\000"
 3991 13a0 03       		.byte	0x3
 3992 13a1 5A       		.byte	0x5a
 3993 13a2 DA000000 		.4byte	0xda
 3994 13a6 02       		.uleb128 0x2
 3995 13a7 91       		.byte	0x91
 3996 13a8 72       		.sleb128 -14
 3997 13a9 26       		.uleb128 0x26
 3998 13aa 6D617800 		.ascii	"max\000"
 3999 13ae 03       		.byte	0x3
 4000 13af 5A       		.byte	0x5a
 4001 13b0 DA000000 		.4byte	0xda
 4002 13b4 02       		.uleb128 0x2
 4003 13b5 91       		.byte	0x91
 4004 13b6 70       		.sleb128 -16
 4005 13b7 00       		.byte	0
 4006 13b8 27       		.uleb128 0x27
 4007 13b9 64140000 		.4byte	.LASF362
 4008 13bd 04       		.byte	0x4
 4009 13be 81       		.byte	0x81
 4010 13bf 35050000 		.4byte	0x535
 4011 13c3 00000000 		.4byte	.LFB714
 4012 13c7 22000000 		.4byte	.LFE714-.LFB714
 4013 13cb 01       		.uleb128 0x1
 4014 13cc 9C       		.byte	0x9c
 4015 13cd DF130000 		.4byte	0x13df
 4016 13d1 26       		.uleb128 0x26
 4017 13d2 737700   		.ascii	"sw\000"
 4018 13d5 04       		.byte	0x4
 4019 13d6 81       		.byte	0x81
 4020 13d7 DF130000 		.4byte	0x13df
 4021 13db 02       		.uleb128 0x2
 4022 13dc 91       		.byte	0x91
 4023 13dd 74       		.sleb128 -12
 4024 13de 00       		.byte	0
 4025 13df 0C       		.uleb128 0xc
 4026 13e0 04       		.byte	0x4
 4027 13e1 E5130000 		.4byte	0x13e5
 4028 13e5 1C       		.uleb128 0x1c
 4029 13e6 C7110000 		.4byte	0x11c7
 4030 13ea 28       		.uleb128 0x28
 4031 13eb D6060000 		.4byte	.LASF402
 4032 13ef 05       		.byte	0x5
 4033 13f0 15       		.byte	0x15
 4034 13f1 00000000 		.4byte	.LFB717
 4035 13f5 08010000 		.4byte	.LFE717-.LFB717
 4036 13f9 01       		.uleb128 0x1
 4037 13fa 9C       		.byte	0x9c
 4038 13fb 6C140000 		.4byte	0x146c
 4039 13ff 29       		.uleb128 0x29
 4040 1400 D2040000 		.4byte	.LASF363
 4041 1404 05       		.byte	0x5
 4042 1405 17       		.byte	0x17
 4043 1406 6C140000 		.4byte	0x146c
 4044 140a 02       		.uleb128 0x2
 4045 140b 91       		.byte	0x91
 4046 140c 68       		.sleb128 -24
ARM GAS  C:\Users\tmj32\AppData\Local\Temp\ccmPTl49.s 			page 91


 4047 140d 29       		.uleb128 0x29
 4048 140e 560E0000 		.4byte	.LASF364
 4049 1412 05       		.byte	0x5
 4050 1413 18       		.byte	0x18
 4051 1414 6C140000 		.4byte	0x146c
 4052 1418 02       		.uleb128 0x2
 4053 1419 91       		.byte	0x91
 4054 141a 64       		.sleb128 -28
 4055 141b 29       		.uleb128 0x29
 4056 141c 6B080000 		.4byte	.LASF365
 4057 1420 05       		.byte	0x5
 4058 1421 19       		.byte	0x19
 4059 1422 6C140000 		.4byte	0x146c
 4060 1426 02       		.uleb128 0x2
 4061 1427 91       		.byte	0x91
 4062 1428 60       		.sleb128 -32
 4063 1429 29       		.uleb128 0x29
 4064 142a 02150000 		.4byte	.LASF366
 4065 142e 05       		.byte	0x5
 4066 142f 1A       		.byte	0x1a
 4067 1430 6C140000 		.4byte	0x146c
 4068 1434 02       		.uleb128 0x2
 4069 1435 91       		.byte	0x91
 4070 1436 5C       		.sleb128 -36
 4071 1437 29       		.uleb128 0x29
 4072 1438 B4000000 		.4byte	.LASF367
 4073 143c 05       		.byte	0x5
 4074 143d 1D       		.byte	0x1d
 4075 143e 44120000 		.4byte	0x1244
 4076 1442 05       		.uleb128 0x5
 4077 1443 03       		.byte	0x3
 4078 1444 18000000 		.4byte	chart1.20847
 4079 1448 2A       		.uleb128 0x2a
 4080 1449 733100   		.ascii	"s1\000"
 4081 144c 05       		.byte	0x5
 4082 144d 2C       		.byte	0x2c
 4083 144e 71140000 		.4byte	0x1471
 4084 1452 02       		.uleb128 0x2
 4085 1453 91       		.byte	0x91
 4086 1454 58       		.sleb128 -40
 4087 1455 2B       		.uleb128 0x2b
 4088 1456 B4000000 		.4byte	.LBB2
 4089 145a 36000000 		.4byte	.LBE2-.LBB2
 4090 145e 2A       		.uleb128 0x2a
 4091 145f 6900     		.ascii	"i\000"
 4092 1461 05       		.byte	0x5
 4093 1462 46       		.byte	0x46
 4094 1463 9F000000 		.4byte	0x9f
 4095 1467 02       		.uleb128 0x2
 4096 1468 91       		.byte	0x91
 4097 1469 6C       		.sleb128 -20
 4098 146a 00       		.byte	0
 4099 146b 00       		.byte	0
 4100 146c 1C       		.uleb128 0x1c
 4101 146d 9F000000 		.4byte	0x9f
 4102 1471 0C       		.uleb128 0xc
 4103 1472 04       		.byte	0x4
ARM GAS  C:\Users\tmj32\AppData\Local\Temp\ccmPTl49.s 			page 92


 4104 1473 AE120000 		.4byte	0x12ae
 4105 1477 24       		.uleb128 0x24
 4106 1478 90020000 		.4byte	.LASF368
 4107 147c 05       		.byte	0x5
 4108 147d 4D       		.byte	0x4d
 4109 147e 00000000 		.4byte	.LFB718
 4110 1482 40000000 		.4byte	.LFE718-.LFB718
 4111 1486 01       		.uleb128 0x1
 4112 1487 9C       		.byte	0x9c
 4113 1488 A9140000 		.4byte	0x14a9
 4114 148c 26       		.uleb128 0x26
 4115 148d 6F626A00 		.ascii	"obj\000"
 4116 1491 05       		.byte	0x5
 4117 1492 4D       		.byte	0x4d
 4118 1493 44120000 		.4byte	0x1244
 4119 1497 02       		.uleb128 0x2
 4120 1498 91       		.byte	0x91
 4121 1499 74       		.sleb128 -12
 4122 149a 25       		.uleb128 0x25
 4123 149b 7D050000 		.4byte	.LASF369
 4124 149f 05       		.byte	0x5
 4125 14a0 4D       		.byte	0x4d
 4126 14a1 4D100000 		.4byte	0x104d
 4127 14a5 02       		.uleb128 0x2
 4128 14a6 91       		.byte	0x91
 4129 14a7 73       		.sleb128 -13
 4130 14a8 00       		.byte	0
 4131 14a9 24       		.uleb128 0x24
 4132 14aa 0E000000 		.4byte	.LASF370
 4133 14ae 05       		.byte	0x5
 4134 14af 54       		.byte	0x54
 4135 14b0 00000000 		.4byte	.LFB719
 4136 14b4 5C000000 		.4byte	.LFE719-.LFB719
 4137 14b8 01       		.uleb128 0x1
 4138 14b9 9C       		.byte	0x9c
 4139 14ba F6140000 		.4byte	0x14f6
 4140 14be 25       		.uleb128 0x25
 4141 14bf EA060000 		.4byte	.LASF357
 4142 14c3 05       		.byte	0x5
 4143 14c4 54       		.byte	0x54
 4144 14c5 44120000 		.4byte	0x1244
 4145 14c9 02       		.uleb128 0x2
 4146 14ca 91       		.byte	0x91
 4147 14cb 74       		.sleb128 -12
 4148 14cc 25       		.uleb128 0x25
 4149 14cd 7D050000 		.4byte	.LASF369
 4150 14d1 05       		.byte	0x5
 4151 14d2 54       		.byte	0x54
 4152 14d3 4D100000 		.4byte	0x104d
 4153 14d7 02       		.uleb128 0x2
 4154 14d8 91       		.byte	0x91
 4155 14d9 73       		.sleb128 -13
 4156 14da 2B       		.uleb128 0x2b
 4157 14db 12000000 		.4byte	.LBB3
 4158 14df 30000000 		.4byte	.LBE3-.LBB3
 4159 14e3 2A       		.uleb128 0x2a
 4160 14e4 62756600 		.ascii	"buf\000"
ARM GAS  C:\Users\tmj32\AppData\Local\Temp\ccmPTl49.s 			page 93


 4161 14e8 05       		.byte	0x5
 4162 14e9 57       		.byte	0x57
 4163 14ea 34120000 		.4byte	0x1234
 4164 14ee 05       		.uleb128 0x5
 4165 14ef 03       		.byte	0x3
 4166 14f0 1C000000 		.4byte	buf.20861
 4167 14f4 00       		.byte	0
 4168 14f5 00       		.byte	0
 4169 14f6 24       		.uleb128 0x24
 4170 14f7 3E0E0000 		.4byte	.LASF371
 4171 14fb 05       		.byte	0x5
 4172 14fc 5E       		.byte	0x5e
 4173 14fd 00000000 		.4byte	.LFB720
 4174 1501 5C000000 		.4byte	.LFE720-.LFB720
 4175 1505 01       		.uleb128 0x1
 4176 1506 9C       		.byte	0x9c
 4177 1507 43150000 		.4byte	0x1543
 4178 150b 25       		.uleb128 0x25
 4179 150c EA060000 		.4byte	.LASF357
 4180 1510 05       		.byte	0x5
 4181 1511 5E       		.byte	0x5e
 4182 1512 44120000 		.4byte	0x1244
 4183 1516 02       		.uleb128 0x2
 4184 1517 91       		.byte	0x91
 4185 1518 74       		.sleb128 -12
 4186 1519 25       		.uleb128 0x25
 4187 151a 7D050000 		.4byte	.LASF369
 4188 151e 05       		.byte	0x5
 4189 151f 5E       		.byte	0x5e
 4190 1520 4D100000 		.4byte	0x104d
 4191 1524 02       		.uleb128 0x2
 4192 1525 91       		.byte	0x91
 4193 1526 73       		.sleb128 -13
 4194 1527 2B       		.uleb128 0x2b
 4195 1528 12000000 		.4byte	.LBB4
 4196 152c 30000000 		.4byte	.LBE4-.LBB4
 4197 1530 2A       		.uleb128 0x2a
 4198 1531 62756600 		.ascii	"buf\000"
 4199 1535 05       		.byte	0x5
 4200 1536 61       		.byte	0x61
 4201 1537 34120000 		.4byte	0x1234
 4202 153b 05       		.uleb128 0x5
 4203 153c 03       		.byte	0x3
 4204 153d 20000000 		.4byte	buf.20866
 4205 1541 00       		.byte	0
 4206 1542 00       		.byte	0
 4207 1543 24       		.uleb128 0x24
 4208 1544 39010000 		.4byte	.LASF372
 4209 1548 05       		.byte	0x5
 4210 1549 68       		.byte	0x68
 4211 154a 00000000 		.4byte	.LFB721
 4212 154e 5C000000 		.4byte	.LFE721-.LFB721
 4213 1552 01       		.uleb128 0x1
 4214 1553 9C       		.byte	0x9c
 4215 1554 90150000 		.4byte	0x1590
 4216 1558 25       		.uleb128 0x25
 4217 1559 EA060000 		.4byte	.LASF357
ARM GAS  C:\Users\tmj32\AppData\Local\Temp\ccmPTl49.s 			page 94


 4218 155d 05       		.byte	0x5
 4219 155e 68       		.byte	0x68
 4220 155f 44120000 		.4byte	0x1244
 4221 1563 02       		.uleb128 0x2
 4222 1564 91       		.byte	0x91
 4223 1565 74       		.sleb128 -12
 4224 1566 25       		.uleb128 0x25
 4225 1567 7D050000 		.4byte	.LASF369
 4226 156b 05       		.byte	0x5
 4227 156c 68       		.byte	0x68
 4228 156d 4D100000 		.4byte	0x104d
 4229 1571 02       		.uleb128 0x2
 4230 1572 91       		.byte	0x91
 4231 1573 73       		.sleb128 -13
 4232 1574 2B       		.uleb128 0x2b
 4233 1575 12000000 		.4byte	.LBB5
 4234 1579 30000000 		.4byte	.LBE5-.LBB5
 4235 157d 2A       		.uleb128 0x2a
 4236 157e 62756600 		.ascii	"buf\000"
 4237 1582 05       		.byte	0x5
 4238 1583 6B       		.byte	0x6b
 4239 1584 34120000 		.4byte	0x1234
 4240 1588 05       		.uleb128 0x5
 4241 1589 03       		.byte	0x3
 4242 158a 24000000 		.4byte	buf.20871
 4243 158e 00       		.byte	0
 4244 158f 00       		.byte	0
 4245 1590 24       		.uleb128 0x24
 4246 1591 35090000 		.4byte	.LASF373
 4247 1595 05       		.byte	0x5
 4248 1596 72       		.byte	0x72
 4249 1597 00000000 		.4byte	.LFB722
 4250 159b 5C000000 		.4byte	.LFE722-.LFB722
 4251 159f 01       		.uleb128 0x1
 4252 15a0 9C       		.byte	0x9c
 4253 15a1 DD150000 		.4byte	0x15dd
 4254 15a5 25       		.uleb128 0x25
 4255 15a6 EA060000 		.4byte	.LASF357
 4256 15aa 05       		.byte	0x5
 4257 15ab 72       		.byte	0x72
 4258 15ac 44120000 		.4byte	0x1244
 4259 15b0 02       		.uleb128 0x2
 4260 15b1 91       		.byte	0x91
 4261 15b2 74       		.sleb128 -12
 4262 15b3 25       		.uleb128 0x25
 4263 15b4 7D050000 		.4byte	.LASF369
 4264 15b8 05       		.byte	0x5
 4265 15b9 72       		.byte	0x72
 4266 15ba 4D100000 		.4byte	0x104d
 4267 15be 02       		.uleb128 0x2
 4268 15bf 91       		.byte	0x91
 4269 15c0 73       		.sleb128 -13
 4270 15c1 2B       		.uleb128 0x2b
 4271 15c2 12000000 		.4byte	.LBB6
 4272 15c6 30000000 		.4byte	.LBE6-.LBB6
 4273 15ca 2A       		.uleb128 0x2a
 4274 15cb 62756600 		.ascii	"buf\000"
ARM GAS  C:\Users\tmj32\AppData\Local\Temp\ccmPTl49.s 			page 95


 4275 15cf 05       		.byte	0x5
 4276 15d0 75       		.byte	0x75
 4277 15d1 34120000 		.4byte	0x1234
 4278 15d5 05       		.uleb128 0x5
 4279 15d6 03       		.byte	0x3
 4280 15d7 28000000 		.4byte	buf.20876
 4281 15db 00       		.byte	0
 4282 15dc 00       		.byte	0
 4283 15dd 24       		.uleb128 0x24
 4284 15de 94050000 		.4byte	.LASF374
 4285 15e2 05       		.byte	0x5
 4286 15e3 7C       		.byte	0x7c
 4287 15e4 00000000 		.4byte	.LFB723
 4288 15e8 5C000000 		.4byte	.LFE723-.LFB723
 4289 15ec 01       		.uleb128 0x1
 4290 15ed 9C       		.byte	0x9c
 4291 15ee 2A160000 		.4byte	0x162a
 4292 15f2 25       		.uleb128 0x25
 4293 15f3 EA060000 		.4byte	.LASF357
 4294 15f7 05       		.byte	0x5
 4295 15f8 7C       		.byte	0x7c
 4296 15f9 44120000 		.4byte	0x1244
 4297 15fd 02       		.uleb128 0x2
 4298 15fe 91       		.byte	0x91
 4299 15ff 74       		.sleb128 -12
 4300 1600 25       		.uleb128 0x25
 4301 1601 7D050000 		.4byte	.LASF369
 4302 1605 05       		.byte	0x5
 4303 1606 7C       		.byte	0x7c
 4304 1607 4D100000 		.4byte	0x104d
 4305 160b 02       		.uleb128 0x2
 4306 160c 91       		.byte	0x91
 4307 160d 73       		.sleb128 -13
 4308 160e 2B       		.uleb128 0x2b
 4309 160f 12000000 		.4byte	.LBB7
 4310 1613 30000000 		.4byte	.LBE7-.LBB7
 4311 1617 2A       		.uleb128 0x2a
 4312 1618 62756600 		.ascii	"buf\000"
 4313 161c 05       		.byte	0x5
 4314 161d 7F       		.byte	0x7f
 4315 161e 2A160000 		.4byte	0x162a
 4316 1622 05       		.uleb128 0x5
 4317 1623 03       		.byte	0x3
 4318 1624 2C000000 		.4byte	buf.20881
 4319 1628 00       		.byte	0
 4320 1629 00       		.byte	0
 4321 162a 16       		.uleb128 0x16
 4322 162b BD000000 		.4byte	0xbd
 4323 162f 3A160000 		.4byte	0x163a
 4324 1633 17       		.uleb128 0x17
 4325 1634 B6000000 		.4byte	0xb6
 4326 1638 05       		.byte	0x5
 4327 1639 00       		.byte	0
 4328 163a 2C       		.uleb128 0x2c
 4329 163b 78100000 		.4byte	.LASF403
 4330 163f 05       		.byte	0x5
 4331 1640 87       		.byte	0x87
ARM GAS  C:\Users\tmj32\AppData\Local\Temp\ccmPTl49.s 			page 96


 4332 1641 00000000 		.4byte	.LFB724
 4333 1645 1C040000 		.4byte	.LFE724-.LFB724
 4334 1649 01       		.uleb128 0x1
 4335 164a 9C       		.byte	0x9c
 4336 164b EA160000 		.4byte	0x16ea
 4337 164f 29       		.uleb128 0x29
 4338 1650 A10C0000 		.4byte	.LASF375
 4339 1654 05       		.byte	0x5
 4340 1655 8A       		.byte	0x8a
 4341 1656 44120000 		.4byte	0x1244
 4342 165a 02       		.uleb128 0x2
 4343 165b 91       		.byte	0x91
 4344 165c 74       		.sleb128 -12
 4345 165d 29       		.uleb128 0x29
 4346 165e 00170000 		.4byte	.LASF376
 4347 1662 05       		.byte	0x5
 4348 1663 98       		.byte	0x98
 4349 1664 44120000 		.4byte	0x1244
 4350 1668 02       		.uleb128 0x2
 4351 1669 91       		.byte	0x91
 4352 166a 70       		.sleb128 -16
 4353 166b 29       		.uleb128 0x29
 4354 166c 62060000 		.4byte	.LASF377
 4355 1670 05       		.byte	0x5
 4356 1671 A1       		.byte	0xa1
 4357 1672 44120000 		.4byte	0x1244
 4358 1676 02       		.uleb128 0x2
 4359 1677 91       		.byte	0x91
 4360 1678 6C       		.sleb128 -20
 4361 1679 29       		.uleb128 0x29
 4362 167a 6D0D0000 		.4byte	.LASF378
 4363 167e 05       		.byte	0x5
 4364 167f AF       		.byte	0xaf
 4365 1680 44120000 		.4byte	0x1244
 4366 1684 02       		.uleb128 0x2
 4367 1685 91       		.byte	0x91
 4368 1686 68       		.sleb128 -24
 4369 1687 29       		.uleb128 0x29
 4370 1688 84070000 		.4byte	.LASF379
 4371 168c 05       		.byte	0x5
 4372 168d B7       		.byte	0xb7
 4373 168e 44120000 		.4byte	0x1244
 4374 1692 02       		.uleb128 0x2
 4375 1693 91       		.byte	0x91
 4376 1694 64       		.sleb128 -28
 4377 1695 29       		.uleb128 0x29
 4378 1696 ED0E0000 		.4byte	.LASF380
 4379 169a 05       		.byte	0x5
 4380 169b C5       		.byte	0xc5
 4381 169c 44120000 		.4byte	0x1244
 4382 16a0 02       		.uleb128 0x2
 4383 16a1 91       		.byte	0x91
 4384 16a2 60       		.sleb128 -32
 4385 16a3 29       		.uleb128 0x29
 4386 16a4 C6120000 		.4byte	.LASF381
 4387 16a8 05       		.byte	0x5
 4388 16a9 CD       		.byte	0xcd
ARM GAS  C:\Users\tmj32\AppData\Local\Temp\ccmPTl49.s 			page 97


 4389 16aa 44120000 		.4byte	0x1244
 4390 16ae 02       		.uleb128 0x2
 4391 16af 91       		.byte	0x91
 4392 16b0 5C       		.sleb128 -36
 4393 16b1 29       		.uleb128 0x29
 4394 16b2 0E040000 		.4byte	.LASF382
 4395 16b6 05       		.byte	0x5
 4396 16b7 DB       		.byte	0xdb
 4397 16b8 44120000 		.4byte	0x1244
 4398 16bc 02       		.uleb128 0x2
 4399 16bd 91       		.byte	0x91
 4400 16be 58       		.sleb128 -40
 4401 16bf 29       		.uleb128 0x29
 4402 16c0 84100000 		.4byte	.LASF383
 4403 16c4 05       		.byte	0x5
 4404 16c5 E3       		.byte	0xe3
 4405 16c6 44120000 		.4byte	0x1244
 4406 16ca 02       		.uleb128 0x2
 4407 16cb 91       		.byte	0x91
 4408 16cc 54       		.sleb128 -44
 4409 16cd 2A       		.uleb128 0x2a
 4410 16ce 73773100 		.ascii	"sw1\000"
 4411 16d2 05       		.byte	0x5
 4412 16d3 F7       		.byte	0xf7
 4413 16d4 44120000 		.4byte	0x1244
 4414 16d8 02       		.uleb128 0x2
 4415 16d9 91       		.byte	0x91
 4416 16da 50       		.sleb128 -48
 4417 16db 29       		.uleb128 0x29
 4418 16dc D40D0000 		.4byte	.LASF384
 4419 16e0 05       		.byte	0x5
 4420 16e1 FE       		.byte	0xfe
 4421 16e2 44120000 		.4byte	0x1244
 4422 16e6 02       		.uleb128 0x2
 4423 16e7 91       		.byte	0x91
 4424 16e8 4C       		.sleb128 -52
 4425 16e9 00       		.byte	0
 4426 16ea 29       		.uleb128 0x29
 4427 16eb 0C0A0000 		.4byte	.LASF385
 4428 16ef 05       		.byte	0x5
 4429 16f0 0D       		.byte	0xd
 4430 16f1 44120000 		.4byte	0x1244
 4431 16f5 05       		.uleb128 0x5
 4432 16f6 03       		.byte	0x3
 4433 16f7 00000000 		.4byte	offsetLabel
 4434 16fb 29       		.uleb128 0x29
 4435 16fc 4B090000 		.4byte	.LASF386
 4436 1700 05       		.byte	0x5
 4437 1701 0E       		.byte	0xe
 4438 1702 44120000 		.4byte	0x1244
 4439 1706 05       		.uleb128 0x5
 4440 1707 03       		.byte	0x3
 4441 1708 04000000 		.4byte	triggerLabel
 4442 170c 29       		.uleb128 0x29
 4443 170d E20E0000 		.4byte	.LASF387
 4444 1711 05       		.byte	0x5
 4445 1712 0F       		.byte	0xf
ARM GAS  C:\Users\tmj32\AppData\Local\Temp\ccmPTl49.s 			page 98


 4446 1713 44120000 		.4byte	0x1244
 4447 1717 05       		.uleb128 0x5
 4448 1718 03       		.byte	0x3
 4449 1719 08000000 		.4byte	horiLabel1
 4450 171d 29       		.uleb128 0x29
 4451 171e 03040000 		.4byte	.LASF388
 4452 1722 05       		.byte	0x5
 4453 1723 10       		.byte	0x10
 4454 1724 44120000 		.4byte	0x1244
 4455 1728 05       		.uleb128 0x5
 4456 1729 03       		.byte	0x3
 4457 172a 0C000000 		.4byte	vertLabel1
 4458 172e 29       		.uleb128 0x29
 4459 172f 8B000000 		.4byte	.LASF389
 4460 1733 05       		.byte	0x5
 4461 1734 11       		.byte	0x11
 4462 1735 44120000 		.4byte	0x1244
 4463 1739 05       		.uleb128 0x5
 4464 173a 03       		.byte	0x3
 4465 173b 10000000 		.4byte	windowLabel
 4466 173f 2D       		.uleb128 0x2d
 4467 1740 F10F0000 		.4byte	.LASF390
 4468 1744 19       		.byte	0x19
 4469 1745 F907     		.2byte	0x7f9
 4470 1747 4B170000 		.4byte	0x174b
 4471 174b 06       		.uleb128 0x6
 4472 174c F0000000 		.4byte	0xf0
 4473 1750 2E       		.uleb128 0x2e
 4474 1751 97000000 		.4byte	.LASF391
 4475 1755 08       		.byte	0x8
 4476 1756 A7       		.byte	0xa7
 4477 1757 5B170000 		.4byte	0x175b
 4478 175b 0C       		.uleb128 0xc
 4479 175c 04       		.byte	0x4
 4480 175d 61170000 		.4byte	0x1761
 4481 1761 1C       		.uleb128 0x1c
 4482 1762 1C050000 		.4byte	0x51c
 4483 1766 2E       		.uleb128 0x2e
 4484 1767 4D000000 		.4byte	.LASF392
 4485 176b 1A       		.byte	0x1a
 4486 176c 1F       		.byte	0x1f
 4487 176d 71170000 		.4byte	0x1771
 4488 1771 1C       		.uleb128 0x1c
 4489 1772 62080000 		.4byte	0x862
 4490 1776 2E       		.uleb128 0x2e
 4491 1777 A1000000 		.4byte	.LASF393
 4492 177b 1B       		.byte	0x1b
 4493 177c 7F       		.byte	0x7f
 4494 177d CA060000 		.4byte	0x6ca
 4495 1781 2E       		.uleb128 0x2e
 4496 1782 DA090000 		.4byte	.LASF394
 4497 1786 1C       		.byte	0x1c
 4498 1787 5E       		.byte	0x5e
 4499 1788 65070000 		.4byte	0x765
 4500 178c 2F       		.uleb128 0x2f
 4501 178d 636D3400 		.ascii	"cm4\000"
 4502 1791 0C       		.byte	0xc
ARM GAS  C:\Users\tmj32\AppData\Local\Temp\ccmPTl49.s 			page 99


 4503 1792 26       		.byte	0x26
 4504 1793 6D080000 		.4byte	0x86d
 4505 1797 05       		.uleb128 0x5
 4506 1798 03       		.byte	0x3
 4507 1799 00000000 		.4byte	cm4
 4508 179d 16       		.uleb128 0x16
 4509 179e 180D0000 		.4byte	0xd18
 4510 17a2 AD170000 		.4byte	0x17ad
 4511 17a6 17       		.uleb128 0x17
 4512 17a7 B6000000 		.4byte	0xb6
 4513 17ab 02       		.byte	0x2
 4514 17ac 00       		.byte	0
 4515 17ad 30       		.uleb128 0x30
 4516 17ae 21130000 		.4byte	.LASF395
 4517 17b2 05       		.byte	0x5
 4518 17b3 0A       		.byte	0xa
 4519 17b4 BE170000 		.4byte	0x17be
 4520 17b8 05       		.uleb128 0x5
 4521 17b9 03       		.byte	0x3
 4522 17ba 00000000 		.4byte	tcnj_blue
 4523 17be 1C       		.uleb128 0x1c
 4524 17bf 9D170000 		.4byte	0x179d
 4525 17c3 30       		.uleb128 0x30
 4526 17c4 E2070000 		.4byte	.LASF396
 4527 17c8 05       		.byte	0x5
 4528 17c9 0B       		.byte	0xb
 4529 17ca D4170000 		.4byte	0x17d4
 4530 17ce 05       		.uleb128 0x5
 4531 17cf 03       		.byte	0x3
 4532 17d0 00000000 		.4byte	tcnj_gold
 4533 17d4 1C       		.uleb128 0x1c
 4534 17d5 9D170000 		.4byte	0x179d
 4535 17d9 30       		.uleb128 0x30
 4536 17da A20E0000 		.4byte	.LASF397
 4537 17de 05       		.byte	0x5
 4538 17df 13       		.byte	0x13
 4539 17e0 9F000000 		.4byte	0x9f
 4540 17e4 05       		.uleb128 0x5
 4541 17e5 03       		.byte	0x3
 4542 17e6 00000000 		.4byte	startup
 4543 17ea 00       		.byte	0
 4544              		.section	.debug_abbrev,"",%progbits
 4545              	.Ldebug_abbrev0:
 4546 0000 01       		.uleb128 0x1
 4547 0001 11       		.uleb128 0x11
 4548 0002 01       		.byte	0x1
 4549 0003 25       		.uleb128 0x25
 4550 0004 0E       		.uleb128 0xe
 4551 0005 13       		.uleb128 0x13
 4552 0006 0B       		.uleb128 0xb
 4553 0007 03       		.uleb128 0x3
 4554 0008 0E       		.uleb128 0xe
 4555 0009 1B       		.uleb128 0x1b
 4556 000a 0E       		.uleb128 0xe
 4557 000b 55       		.uleb128 0x55
 4558 000c 17       		.uleb128 0x17
 4559 000d 11       		.uleb128 0x11
ARM GAS  C:\Users\tmj32\AppData\Local\Temp\ccmPTl49.s 			page 100


 4560 000e 01       		.uleb128 0x1
 4561 000f 10       		.uleb128 0x10
 4562 0010 17       		.uleb128 0x17
 4563 0011 00       		.byte	0
 4564 0012 00       		.byte	0
 4565 0013 02       		.uleb128 0x2
 4566 0014 16       		.uleb128 0x16
 4567 0015 00       		.byte	0
 4568 0016 03       		.uleb128 0x3
 4569 0017 0E       		.uleb128 0xe
 4570 0018 3A       		.uleb128 0x3a
 4571 0019 0B       		.uleb128 0xb
 4572 001a 3B       		.uleb128 0x3b
 4573 001b 0B       		.uleb128 0xb
 4574 001c 49       		.uleb128 0x49
 4575 001d 13       		.uleb128 0x13
 4576 001e 00       		.byte	0
 4577 001f 00       		.byte	0
 4578 0020 03       		.uleb128 0x3
 4579 0021 24       		.uleb128 0x24
 4580 0022 00       		.byte	0
 4581 0023 0B       		.uleb128 0xb
 4582 0024 0B       		.uleb128 0xb
 4583 0025 3E       		.uleb128 0x3e
 4584 0026 0B       		.uleb128 0xb
 4585 0027 03       		.uleb128 0x3
 4586 0028 0E       		.uleb128 0xe
 4587 0029 00       		.byte	0
 4588 002a 00       		.byte	0
 4589 002b 04       		.uleb128 0x4
 4590 002c 24       		.uleb128 0x24
 4591 002d 00       		.byte	0
 4592 002e 0B       		.uleb128 0xb
 4593 002f 0B       		.uleb128 0xb
 4594 0030 3E       		.uleb128 0x3e
 4595 0031 0B       		.uleb128 0xb
 4596 0032 03       		.uleb128 0x3
 4597 0033 08       		.uleb128 0x8
 4598 0034 00       		.byte	0
 4599 0035 00       		.byte	0
 4600 0036 05       		.uleb128 0x5
 4601 0037 0F       		.uleb128 0xf
 4602 0038 00       		.byte	0
 4603 0039 0B       		.uleb128 0xb
 4604 003a 0B       		.uleb128 0xb
 4605 003b 00       		.byte	0
 4606 003c 00       		.byte	0
 4607 003d 06       		.uleb128 0x6
 4608 003e 35       		.uleb128 0x35
 4609 003f 00       		.byte	0
 4610 0040 49       		.uleb128 0x49
 4611 0041 13       		.uleb128 0x13
 4612 0042 00       		.byte	0
 4613 0043 00       		.byte	0
 4614 0044 07       		.uleb128 0x7
 4615 0045 13       		.uleb128 0x13
 4616 0046 01       		.byte	0x1
ARM GAS  C:\Users\tmj32\AppData\Local\Temp\ccmPTl49.s 			page 101


 4617 0047 0B       		.uleb128 0xb
 4618 0048 0B       		.uleb128 0xb
 4619 0049 3A       		.uleb128 0x3a
 4620 004a 0B       		.uleb128 0xb
 4621 004b 3B       		.uleb128 0x3b
 4622 004c 0B       		.uleb128 0xb
 4623 004d 01       		.uleb128 0x1
 4624 004e 13       		.uleb128 0x13
 4625 004f 00       		.byte	0
 4626 0050 00       		.byte	0
 4627 0051 08       		.uleb128 0x8
 4628 0052 0D       		.uleb128 0xd
 4629 0053 00       		.byte	0
 4630 0054 03       		.uleb128 0x3
 4631 0055 0E       		.uleb128 0xe
 4632 0056 3A       		.uleb128 0x3a
 4633 0057 0B       		.uleb128 0xb
 4634 0058 3B       		.uleb128 0x3b
 4635 0059 0B       		.uleb128 0xb
 4636 005a 49       		.uleb128 0x49
 4637 005b 13       		.uleb128 0x13
 4638 005c 38       		.uleb128 0x38
 4639 005d 0B       		.uleb128 0xb
 4640 005e 00       		.byte	0
 4641 005f 00       		.byte	0
 4642 0060 09       		.uleb128 0x9
 4643 0061 04       		.uleb128 0x4
 4644 0062 01       		.byte	0x1
 4645 0063 0B       		.uleb128 0xb
 4646 0064 0B       		.uleb128 0xb
 4647 0065 49       		.uleb128 0x49
 4648 0066 13       		.uleb128 0x13
 4649 0067 3A       		.uleb128 0x3a
 4650 0068 0B       		.uleb128 0xb
 4651 0069 3B       		.uleb128 0x3b
 4652 006a 05       		.uleb128 0x5
 4653 006b 01       		.uleb128 0x1
 4654 006c 13       		.uleb128 0x13
 4655 006d 00       		.byte	0
 4656 006e 00       		.byte	0
 4657 006f 0A       		.uleb128 0xa
 4658 0070 28       		.uleb128 0x28
 4659 0071 00       		.byte	0
 4660 0072 03       		.uleb128 0x3
 4661 0073 0E       		.uleb128 0xe
 4662 0074 1C       		.uleb128 0x1c
 4663 0075 0B       		.uleb128 0xb
 4664 0076 00       		.byte	0
 4665 0077 00       		.byte	0
 4666 0078 0B       		.uleb128 0xb
 4667 0079 16       		.uleb128 0x16
 4668 007a 00       		.byte	0
 4669 007b 03       		.uleb128 0x3
 4670 007c 0E       		.uleb128 0xe
 4671 007d 3A       		.uleb128 0x3a
 4672 007e 0B       		.uleb128 0xb
 4673 007f 3B       		.uleb128 0x3b
ARM GAS  C:\Users\tmj32\AppData\Local\Temp\ccmPTl49.s 			page 102


 4674 0080 05       		.uleb128 0x5
 4675 0081 49       		.uleb128 0x49
 4676 0082 13       		.uleb128 0x13
 4677 0083 00       		.byte	0
 4678 0084 00       		.byte	0
 4679 0085 0C       		.uleb128 0xc
 4680 0086 0F       		.uleb128 0xf
 4681 0087 00       		.byte	0
 4682 0088 0B       		.uleb128 0xb
 4683 0089 0B       		.uleb128 0xb
 4684 008a 49       		.uleb128 0x49
 4685 008b 13       		.uleb128 0x13
 4686 008c 00       		.byte	0
 4687 008d 00       		.byte	0
 4688 008e 0D       		.uleb128 0xd
 4689 008f 15       		.uleb128 0x15
 4690 0090 01       		.byte	0x1
 4691 0091 27       		.uleb128 0x27
 4692 0092 19       		.uleb128 0x19
 4693 0093 01       		.uleb128 0x1
 4694 0094 13       		.uleb128 0x13
 4695 0095 00       		.byte	0
 4696 0096 00       		.byte	0
 4697 0097 0E       		.uleb128 0xe
 4698 0098 05       		.uleb128 0x5
 4699 0099 00       		.byte	0
 4700 009a 49       		.uleb128 0x49
 4701 009b 13       		.uleb128 0x13
 4702 009c 00       		.byte	0
 4703 009d 00       		.byte	0
 4704 009e 0F       		.uleb128 0xf
 4705 009f 15       		.uleb128 0x15
 4706 00a0 01       		.byte	0x1
 4707 00a1 27       		.uleb128 0x27
 4708 00a2 19       		.uleb128 0x19
 4709 00a3 49       		.uleb128 0x49
 4710 00a4 13       		.uleb128 0x13
 4711 00a5 01       		.uleb128 0x1
 4712 00a6 13       		.uleb128 0x13
 4713 00a7 00       		.byte	0
 4714 00a8 00       		.byte	0
 4715 00a9 10       		.uleb128 0x10
 4716 00aa 13       		.uleb128 0x13
 4717 00ab 01       		.byte	0x1
 4718 00ac 03       		.uleb128 0x3
 4719 00ad 0E       		.uleb128 0xe
 4720 00ae 0B       		.uleb128 0xb
 4721 00af 0B       		.uleb128 0xb
 4722 00b0 3A       		.uleb128 0x3a
 4723 00b1 0B       		.uleb128 0xb
 4724 00b2 3B       		.uleb128 0x3b
 4725 00b3 05       		.uleb128 0x5
 4726 00b4 01       		.uleb128 0x1
 4727 00b5 13       		.uleb128 0x13
 4728 00b6 00       		.byte	0
 4729 00b7 00       		.byte	0
 4730 00b8 11       		.uleb128 0x11
ARM GAS  C:\Users\tmj32\AppData\Local\Temp\ccmPTl49.s 			page 103


 4731 00b9 0D       		.uleb128 0xd
 4732 00ba 00       		.byte	0
 4733 00bb 03       		.uleb128 0x3
 4734 00bc 0E       		.uleb128 0xe
 4735 00bd 3A       		.uleb128 0x3a
 4736 00be 0B       		.uleb128 0xb
 4737 00bf 3B       		.uleb128 0x3b
 4738 00c0 05       		.uleb128 0x5
 4739 00c1 49       		.uleb128 0x49
 4740 00c2 13       		.uleb128 0x13
 4741 00c3 38       		.uleb128 0x38
 4742 00c4 0B       		.uleb128 0xb
 4743 00c5 00       		.byte	0
 4744 00c6 00       		.byte	0
 4745 00c7 12       		.uleb128 0x12
 4746 00c8 13       		.uleb128 0x13
 4747 00c9 01       		.byte	0x1
 4748 00ca 03       		.uleb128 0x3
 4749 00cb 0E       		.uleb128 0xe
 4750 00cc 0B       		.uleb128 0xb
 4751 00cd 0B       		.uleb128 0xb
 4752 00ce 3A       		.uleb128 0x3a
 4753 00cf 0B       		.uleb128 0xb
 4754 00d0 3B       		.uleb128 0x3b
 4755 00d1 0B       		.uleb128 0xb
 4756 00d2 01       		.uleb128 0x1
 4757 00d3 13       		.uleb128 0x13
 4758 00d4 00       		.byte	0
 4759 00d5 00       		.byte	0
 4760 00d6 13       		.uleb128 0x13
 4761 00d7 13       		.uleb128 0x13
 4762 00d8 01       		.byte	0x1
 4763 00d9 03       		.uleb128 0x3
 4764 00da 0E       		.uleb128 0xe
 4765 00db 0B       		.uleb128 0xb
 4766 00dc 05       		.uleb128 0x5
 4767 00dd 3A       		.uleb128 0x3a
 4768 00de 0B       		.uleb128 0xb
 4769 00df 3B       		.uleb128 0x3b
 4770 00e0 0B       		.uleb128 0xb
 4771 00e1 01       		.uleb128 0x1
 4772 00e2 13       		.uleb128 0x13
 4773 00e3 00       		.byte	0
 4774 00e4 00       		.byte	0
 4775 00e5 14       		.uleb128 0x14
 4776 00e6 0D       		.uleb128 0xd
 4777 00e7 00       		.byte	0
 4778 00e8 03       		.uleb128 0x3
 4779 00e9 08       		.uleb128 0x8
 4780 00ea 3A       		.uleb128 0x3a
 4781 00eb 0B       		.uleb128 0xb
 4782 00ec 3B       		.uleb128 0x3b
 4783 00ed 0B       		.uleb128 0xb
 4784 00ee 49       		.uleb128 0x49
 4785 00ef 13       		.uleb128 0x13
 4786 00f0 38       		.uleb128 0x38
 4787 00f1 0B       		.uleb128 0xb
ARM GAS  C:\Users\tmj32\AppData\Local\Temp\ccmPTl49.s 			page 104


 4788 00f2 00       		.byte	0
 4789 00f3 00       		.byte	0
 4790 00f4 15       		.uleb128 0x15
 4791 00f5 0D       		.uleb128 0xd
 4792 00f6 00       		.byte	0
 4793 00f7 03       		.uleb128 0x3
 4794 00f8 0E       		.uleb128 0xe
 4795 00f9 3A       		.uleb128 0x3a
 4796 00fa 0B       		.uleb128 0xb
 4797 00fb 3B       		.uleb128 0x3b
 4798 00fc 0B       		.uleb128 0xb
 4799 00fd 49       		.uleb128 0x49
 4800 00fe 13       		.uleb128 0x13
 4801 00ff 38       		.uleb128 0x38
 4802 0100 05       		.uleb128 0x5
 4803 0101 00       		.byte	0
 4804 0102 00       		.byte	0
 4805 0103 16       		.uleb128 0x16
 4806 0104 01       		.uleb128 0x1
 4807 0105 01       		.byte	0x1
 4808 0106 49       		.uleb128 0x49
 4809 0107 13       		.uleb128 0x13
 4810 0108 01       		.uleb128 0x1
 4811 0109 13       		.uleb128 0x13
 4812 010a 00       		.byte	0
 4813 010b 00       		.byte	0
 4814 010c 17       		.uleb128 0x17
 4815 010d 21       		.uleb128 0x21
 4816 010e 00       		.byte	0
 4817 010f 49       		.uleb128 0x49
 4818 0110 13       		.uleb128 0x13
 4819 0111 2F       		.uleb128 0x2f
 4820 0112 0B       		.uleb128 0xb
 4821 0113 00       		.byte	0
 4822 0114 00       		.byte	0
 4823 0115 18       		.uleb128 0x18
 4824 0116 21       		.uleb128 0x21
 4825 0117 00       		.byte	0
 4826 0118 49       		.uleb128 0x49
 4827 0119 13       		.uleb128 0x13
 4828 011a 2F       		.uleb128 0x2f
 4829 011b 05       		.uleb128 0x5
 4830 011c 00       		.byte	0
 4831 011d 00       		.byte	0
 4832 011e 19       		.uleb128 0x19
 4833 011f 17       		.uleb128 0x17
 4834 0120 01       		.byte	0x1
 4835 0121 0B       		.uleb128 0xb
 4836 0122 0B       		.uleb128 0xb
 4837 0123 3A       		.uleb128 0x3a
 4838 0124 0B       		.uleb128 0xb
 4839 0125 3B       		.uleb128 0x3b
 4840 0126 0B       		.uleb128 0xb
 4841 0127 01       		.uleb128 0x1
 4842 0128 13       		.uleb128 0x13
 4843 0129 00       		.byte	0
 4844 012a 00       		.byte	0
ARM GAS  C:\Users\tmj32\AppData\Local\Temp\ccmPTl49.s 			page 105


 4845 012b 1A       		.uleb128 0x1a
 4846 012c 0D       		.uleb128 0xd
 4847 012d 00       		.byte	0
 4848 012e 03       		.uleb128 0x3
 4849 012f 08       		.uleb128 0x8
 4850 0130 3A       		.uleb128 0x3a
 4851 0131 0B       		.uleb128 0xb
 4852 0132 3B       		.uleb128 0x3b
 4853 0133 0B       		.uleb128 0xb
 4854 0134 49       		.uleb128 0x49
 4855 0135 13       		.uleb128 0x13
 4856 0136 00       		.byte	0
 4857 0137 00       		.byte	0
 4858 0138 1B       		.uleb128 0x1b
 4859 0139 0D       		.uleb128 0xd
 4860 013a 00       		.byte	0
 4861 013b 03       		.uleb128 0x3
 4862 013c 0E       		.uleb128 0xe
 4863 013d 3A       		.uleb128 0x3a
 4864 013e 0B       		.uleb128 0xb
 4865 013f 3B       		.uleb128 0x3b
 4866 0140 0B       		.uleb128 0xb
 4867 0141 49       		.uleb128 0x49
 4868 0142 13       		.uleb128 0x13
 4869 0143 00       		.byte	0
 4870 0144 00       		.byte	0
 4871 0145 1C       		.uleb128 0x1c
 4872 0146 26       		.uleb128 0x26
 4873 0147 00       		.byte	0
 4874 0148 49       		.uleb128 0x49
 4875 0149 13       		.uleb128 0x13
 4876 014a 00       		.byte	0
 4877 014b 00       		.byte	0
 4878 014c 1D       		.uleb128 0x1d
 4879 014d 0D       		.uleb128 0xd
 4880 014e 00       		.byte	0
 4881 014f 03       		.uleb128 0x3
 4882 0150 0E       		.uleb128 0xe
 4883 0151 3A       		.uleb128 0x3a
 4884 0152 0B       		.uleb128 0xb
 4885 0153 3B       		.uleb128 0x3b
 4886 0154 0B       		.uleb128 0xb
 4887 0155 49       		.uleb128 0x49
 4888 0156 13       		.uleb128 0x13
 4889 0157 0B       		.uleb128 0xb
 4890 0158 0B       		.uleb128 0xb
 4891 0159 0D       		.uleb128 0xd
 4892 015a 0B       		.uleb128 0xb
 4893 015b 0C       		.uleb128 0xc
 4894 015c 0B       		.uleb128 0xb
 4895 015d 38       		.uleb128 0x38
 4896 015e 0B       		.uleb128 0xb
 4897 015f 00       		.byte	0
 4898 0160 00       		.byte	0
 4899 0161 1E       		.uleb128 0x1e
 4900 0162 0D       		.uleb128 0xd
 4901 0163 00       		.byte	0
ARM GAS  C:\Users\tmj32\AppData\Local\Temp\ccmPTl49.s 			page 106


 4902 0164 03       		.uleb128 0x3
 4903 0165 08       		.uleb128 0x8
 4904 0166 3A       		.uleb128 0x3a
 4905 0167 0B       		.uleb128 0xb
 4906 0168 3B       		.uleb128 0x3b
 4907 0169 0B       		.uleb128 0xb
 4908 016a 49       		.uleb128 0x49
 4909 016b 13       		.uleb128 0x13
 4910 016c 0B       		.uleb128 0xb
 4911 016d 0B       		.uleb128 0xb
 4912 016e 0D       		.uleb128 0xd
 4913 016f 0B       		.uleb128 0xb
 4914 0170 0C       		.uleb128 0xc
 4915 0171 0B       		.uleb128 0xb
 4916 0172 38       		.uleb128 0x38
 4917 0173 0B       		.uleb128 0xb
 4918 0174 00       		.byte	0
 4919 0175 00       		.byte	0
 4920 0176 1F       		.uleb128 0x1f
 4921 0177 04       		.uleb128 0x4
 4922 0178 01       		.byte	0x1
 4923 0179 0B       		.uleb128 0xb
 4924 017a 0B       		.uleb128 0xb
 4925 017b 49       		.uleb128 0x49
 4926 017c 13       		.uleb128 0x13
 4927 017d 3A       		.uleb128 0x3a
 4928 017e 0B       		.uleb128 0xb
 4929 017f 3B       		.uleb128 0x3b
 4930 0180 0B       		.uleb128 0xb
 4931 0181 01       		.uleb128 0x1
 4932 0182 13       		.uleb128 0x13
 4933 0183 00       		.byte	0
 4934 0184 00       		.byte	0
 4935 0185 20       		.uleb128 0x20
 4936 0186 2E       		.uleb128 0x2e
 4937 0187 01       		.byte	0x1
 4938 0188 03       		.uleb128 0x3
 4939 0189 0E       		.uleb128 0xe
 4940 018a 3A       		.uleb128 0x3a
 4941 018b 0B       		.uleb128 0xb
 4942 018c 3B       		.uleb128 0x3b
 4943 018d 05       		.uleb128 0x5
 4944 018e 27       		.uleb128 0x27
 4945 018f 19       		.uleb128 0x19
 4946 0190 49       		.uleb128 0x49
 4947 0191 13       		.uleb128 0x13
 4948 0192 11       		.uleb128 0x11
 4949 0193 01       		.uleb128 0x1
 4950 0194 12       		.uleb128 0x12
 4951 0195 06       		.uleb128 0x6
 4952 0196 40       		.uleb128 0x40
 4953 0197 18       		.uleb128 0x18
 4954 0198 9742     		.uleb128 0x2117
 4955 019a 19       		.uleb128 0x19
 4956 019b 01       		.uleb128 0x1
 4957 019c 13       		.uleb128 0x13
 4958 019d 00       		.byte	0
ARM GAS  C:\Users\tmj32\AppData\Local\Temp\ccmPTl49.s 			page 107


 4959 019e 00       		.byte	0
 4960 019f 21       		.uleb128 0x21
 4961 01a0 05       		.uleb128 0x5
 4962 01a1 00       		.byte	0
 4963 01a2 03       		.uleb128 0x3
 4964 01a3 08       		.uleb128 0x8
 4965 01a4 3A       		.uleb128 0x3a
 4966 01a5 0B       		.uleb128 0xb
 4967 01a6 3B       		.uleb128 0x3b
 4968 01a7 05       		.uleb128 0x5
 4969 01a8 49       		.uleb128 0x49
 4970 01a9 13       		.uleb128 0x13
 4971 01aa 02       		.uleb128 0x2
 4972 01ab 18       		.uleb128 0x18
 4973 01ac 00       		.byte	0
 4974 01ad 00       		.byte	0
 4975 01ae 22       		.uleb128 0x22
 4976 01af 2E       		.uleb128 0x2e
 4977 01b0 01       		.byte	0x1
 4978 01b1 03       		.uleb128 0x3
 4979 01b2 0E       		.uleb128 0xe
 4980 01b3 3A       		.uleb128 0x3a
 4981 01b4 0B       		.uleb128 0xb
 4982 01b5 3B       		.uleb128 0x3b
 4983 01b6 05       		.uleb128 0x5
 4984 01b7 27       		.uleb128 0x27
 4985 01b8 19       		.uleb128 0x19
 4986 01b9 49       		.uleb128 0x49
 4987 01ba 13       		.uleb128 0x13
 4988 01bb 11       		.uleb128 0x11
 4989 01bc 01       		.uleb128 0x1
 4990 01bd 12       		.uleb128 0x12
 4991 01be 06       		.uleb128 0x6
 4992 01bf 40       		.uleb128 0x40
 4993 01c0 18       		.uleb128 0x18
 4994 01c1 9642     		.uleb128 0x2116
 4995 01c3 19       		.uleb128 0x19
 4996 01c4 01       		.uleb128 0x1
 4997 01c5 13       		.uleb128 0x13
 4998 01c6 00       		.byte	0
 4999 01c7 00       		.byte	0
 5000 01c8 23       		.uleb128 0x23
 5001 01c9 2E       		.uleb128 0x2e
 5002 01ca 00       		.byte	0
 5003 01cb 03       		.uleb128 0x3
 5004 01cc 0E       		.uleb128 0xe
 5005 01cd 3A       		.uleb128 0x3a
 5006 01ce 0B       		.uleb128 0xb
 5007 01cf 3B       		.uleb128 0x3b
 5008 01d0 0B       		.uleb128 0xb
 5009 01d1 27       		.uleb128 0x27
 5010 01d2 19       		.uleb128 0x19
 5011 01d3 49       		.uleb128 0x49
 5012 01d4 13       		.uleb128 0x13
 5013 01d5 11       		.uleb128 0x11
 5014 01d6 01       		.uleb128 0x1
 5015 01d7 12       		.uleb128 0x12
ARM GAS  C:\Users\tmj32\AppData\Local\Temp\ccmPTl49.s 			page 108


 5016 01d8 06       		.uleb128 0x6
 5017 01d9 40       		.uleb128 0x40
 5018 01da 18       		.uleb128 0x18
 5019 01db 9642     		.uleb128 0x2116
 5020 01dd 19       		.uleb128 0x19
 5021 01de 00       		.byte	0
 5022 01df 00       		.byte	0
 5023 01e0 24       		.uleb128 0x24
 5024 01e1 2E       		.uleb128 0x2e
 5025 01e2 01       		.byte	0x1
 5026 01e3 03       		.uleb128 0x3
 5027 01e4 0E       		.uleb128 0xe
 5028 01e5 3A       		.uleb128 0x3a
 5029 01e6 0B       		.uleb128 0xb
 5030 01e7 3B       		.uleb128 0x3b
 5031 01e8 0B       		.uleb128 0xb
 5032 01e9 27       		.uleb128 0x27
 5033 01ea 19       		.uleb128 0x19
 5034 01eb 11       		.uleb128 0x11
 5035 01ec 01       		.uleb128 0x1
 5036 01ed 12       		.uleb128 0x12
 5037 01ee 06       		.uleb128 0x6
 5038 01ef 40       		.uleb128 0x40
 5039 01f0 18       		.uleb128 0x18
 5040 01f1 9642     		.uleb128 0x2116
 5041 01f3 19       		.uleb128 0x19
 5042 01f4 01       		.uleb128 0x1
 5043 01f5 13       		.uleb128 0x13
 5044 01f6 00       		.byte	0
 5045 01f7 00       		.byte	0
 5046 01f8 25       		.uleb128 0x25
 5047 01f9 05       		.uleb128 0x5
 5048 01fa 00       		.byte	0
 5049 01fb 03       		.uleb128 0x3
 5050 01fc 0E       		.uleb128 0xe
 5051 01fd 3A       		.uleb128 0x3a
 5052 01fe 0B       		.uleb128 0xb
 5053 01ff 3B       		.uleb128 0x3b
 5054 0200 0B       		.uleb128 0xb
 5055 0201 49       		.uleb128 0x49
 5056 0202 13       		.uleb128 0x13
 5057 0203 02       		.uleb128 0x2
 5058 0204 18       		.uleb128 0x18
 5059 0205 00       		.byte	0
 5060 0206 00       		.byte	0
 5061 0207 26       		.uleb128 0x26
 5062 0208 05       		.uleb128 0x5
 5063 0209 00       		.byte	0
 5064 020a 03       		.uleb128 0x3
 5065 020b 08       		.uleb128 0x8
 5066 020c 3A       		.uleb128 0x3a
 5067 020d 0B       		.uleb128 0xb
 5068 020e 3B       		.uleb128 0x3b
 5069 020f 0B       		.uleb128 0xb
 5070 0210 49       		.uleb128 0x49
 5071 0211 13       		.uleb128 0x13
 5072 0212 02       		.uleb128 0x2
ARM GAS  C:\Users\tmj32\AppData\Local\Temp\ccmPTl49.s 			page 109


 5073 0213 18       		.uleb128 0x18
 5074 0214 00       		.byte	0
 5075 0215 00       		.byte	0
 5076 0216 27       		.uleb128 0x27
 5077 0217 2E       		.uleb128 0x2e
 5078 0218 01       		.byte	0x1
 5079 0219 03       		.uleb128 0x3
 5080 021a 0E       		.uleb128 0xe
 5081 021b 3A       		.uleb128 0x3a
 5082 021c 0B       		.uleb128 0xb
 5083 021d 3B       		.uleb128 0x3b
 5084 021e 0B       		.uleb128 0xb
 5085 021f 27       		.uleb128 0x27
 5086 0220 19       		.uleb128 0x19
 5087 0221 49       		.uleb128 0x49
 5088 0222 13       		.uleb128 0x13
 5089 0223 11       		.uleb128 0x11
 5090 0224 01       		.uleb128 0x1
 5091 0225 12       		.uleb128 0x12
 5092 0226 06       		.uleb128 0x6
 5093 0227 40       		.uleb128 0x40
 5094 0228 18       		.uleb128 0x18
 5095 0229 9642     		.uleb128 0x2116
 5096 022b 19       		.uleb128 0x19
 5097 022c 01       		.uleb128 0x1
 5098 022d 13       		.uleb128 0x13
 5099 022e 00       		.byte	0
 5100 022f 00       		.byte	0
 5101 0230 28       		.uleb128 0x28
 5102 0231 2E       		.uleb128 0x2e
 5103 0232 01       		.byte	0x1
 5104 0233 03       		.uleb128 0x3
 5105 0234 0E       		.uleb128 0xe
 5106 0235 3A       		.uleb128 0x3a
 5107 0236 0B       		.uleb128 0xb
 5108 0237 3B       		.uleb128 0x3b
 5109 0238 0B       		.uleb128 0xb
 5110 0239 11       		.uleb128 0x11
 5111 023a 01       		.uleb128 0x1
 5112 023b 12       		.uleb128 0x12
 5113 023c 06       		.uleb128 0x6
 5114 023d 40       		.uleb128 0x40
 5115 023e 18       		.uleb128 0x18
 5116 023f 9642     		.uleb128 0x2116
 5117 0241 19       		.uleb128 0x19
 5118 0242 01       		.uleb128 0x1
 5119 0243 13       		.uleb128 0x13
 5120 0244 00       		.byte	0
 5121 0245 00       		.byte	0
 5122 0246 29       		.uleb128 0x29
 5123 0247 34       		.uleb128 0x34
 5124 0248 00       		.byte	0
 5125 0249 03       		.uleb128 0x3
 5126 024a 0E       		.uleb128 0xe
 5127 024b 3A       		.uleb128 0x3a
 5128 024c 0B       		.uleb128 0xb
 5129 024d 3B       		.uleb128 0x3b
ARM GAS  C:\Users\tmj32\AppData\Local\Temp\ccmPTl49.s 			page 110


 5130 024e 0B       		.uleb128 0xb
 5131 024f 49       		.uleb128 0x49
 5132 0250 13       		.uleb128 0x13
 5133 0251 02       		.uleb128 0x2
 5134 0252 18       		.uleb128 0x18
 5135 0253 00       		.byte	0
 5136 0254 00       		.byte	0
 5137 0255 2A       		.uleb128 0x2a
 5138 0256 34       		.uleb128 0x34
 5139 0257 00       		.byte	0
 5140 0258 03       		.uleb128 0x3
 5141 0259 08       		.uleb128 0x8
 5142 025a 3A       		.uleb128 0x3a
 5143 025b 0B       		.uleb128 0xb
 5144 025c 3B       		.uleb128 0x3b
 5145 025d 0B       		.uleb128 0xb
 5146 025e 49       		.uleb128 0x49
 5147 025f 13       		.uleb128 0x13
 5148 0260 02       		.uleb128 0x2
 5149 0261 18       		.uleb128 0x18
 5150 0262 00       		.byte	0
 5151 0263 00       		.byte	0
 5152 0264 2B       		.uleb128 0x2b
 5153 0265 0B       		.uleb128 0xb
 5154 0266 01       		.byte	0x1
 5155 0267 11       		.uleb128 0x11
 5156 0268 01       		.uleb128 0x1
 5157 0269 12       		.uleb128 0x12
 5158 026a 06       		.uleb128 0x6
 5159 026b 00       		.byte	0
 5160 026c 00       		.byte	0
 5161 026d 2C       		.uleb128 0x2c
 5162 026e 2E       		.uleb128 0x2e
 5163 026f 01       		.byte	0x1
 5164 0270 3F       		.uleb128 0x3f
 5165 0271 19       		.uleb128 0x19
 5166 0272 03       		.uleb128 0x3
 5167 0273 0E       		.uleb128 0xe
 5168 0274 3A       		.uleb128 0x3a
 5169 0275 0B       		.uleb128 0xb
 5170 0276 3B       		.uleb128 0x3b
 5171 0277 0B       		.uleb128 0xb
 5172 0278 11       		.uleb128 0x11
 5173 0279 01       		.uleb128 0x1
 5174 027a 12       		.uleb128 0x12
 5175 027b 06       		.uleb128 0x6
 5176 027c 40       		.uleb128 0x40
 5177 027d 18       		.uleb128 0x18
 5178 027e 9642     		.uleb128 0x2116
 5179 0280 19       		.uleb128 0x19
 5180 0281 01       		.uleb128 0x1
 5181 0282 13       		.uleb128 0x13
 5182 0283 00       		.byte	0
 5183 0284 00       		.byte	0
 5184 0285 2D       		.uleb128 0x2d
 5185 0286 34       		.uleb128 0x34
 5186 0287 00       		.byte	0
ARM GAS  C:\Users\tmj32\AppData\Local\Temp\ccmPTl49.s 			page 111


 5187 0288 03       		.uleb128 0x3
 5188 0289 0E       		.uleb128 0xe
 5189 028a 3A       		.uleb128 0x3a
 5190 028b 0B       		.uleb128 0xb
 5191 028c 3B       		.uleb128 0x3b
 5192 028d 05       		.uleb128 0x5
 5193 028e 49       		.uleb128 0x49
 5194 028f 13       		.uleb128 0x13
 5195 0290 3F       		.uleb128 0x3f
 5196 0291 19       		.uleb128 0x19
 5197 0292 3C       		.uleb128 0x3c
 5198 0293 19       		.uleb128 0x19
 5199 0294 00       		.byte	0
 5200 0295 00       		.byte	0
 5201 0296 2E       		.uleb128 0x2e
 5202 0297 34       		.uleb128 0x34
 5203 0298 00       		.byte	0
 5204 0299 03       		.uleb128 0x3
 5205 029a 0E       		.uleb128 0xe
 5206 029b 3A       		.uleb128 0x3a
 5207 029c 0B       		.uleb128 0xb
 5208 029d 3B       		.uleb128 0x3b
 5209 029e 0B       		.uleb128 0xb
 5210 029f 49       		.uleb128 0x49
 5211 02a0 13       		.uleb128 0x13
 5212 02a1 3F       		.uleb128 0x3f
 5213 02a2 19       		.uleb128 0x19
 5214 02a3 3C       		.uleb128 0x3c
 5215 02a4 19       		.uleb128 0x19
 5216 02a5 00       		.byte	0
 5217 02a6 00       		.byte	0
 5218 02a7 2F       		.uleb128 0x2f
 5219 02a8 34       		.uleb128 0x34
 5220 02a9 00       		.byte	0
 5221 02aa 03       		.uleb128 0x3
 5222 02ab 08       		.uleb128 0x8
 5223 02ac 3A       		.uleb128 0x3a
 5224 02ad 0B       		.uleb128 0xb
 5225 02ae 3B       		.uleb128 0x3b
 5226 02af 0B       		.uleb128 0xb
 5227 02b0 49       		.uleb128 0x49
 5228 02b1 13       		.uleb128 0x13
 5229 02b2 3F       		.uleb128 0x3f
 5230 02b3 19       		.uleb128 0x19
 5231 02b4 02       		.uleb128 0x2
 5232 02b5 18       		.uleb128 0x18
 5233 02b6 00       		.byte	0
 5234 02b7 00       		.byte	0
 5235 02b8 30       		.uleb128 0x30
 5236 02b9 34       		.uleb128 0x34
 5237 02ba 00       		.byte	0
 5238 02bb 03       		.uleb128 0x3
 5239 02bc 0E       		.uleb128 0xe
 5240 02bd 3A       		.uleb128 0x3a
 5241 02be 0B       		.uleb128 0xb
 5242 02bf 3B       		.uleb128 0x3b
 5243 02c0 0B       		.uleb128 0xb
ARM GAS  C:\Users\tmj32\AppData\Local\Temp\ccmPTl49.s 			page 112


 5244 02c1 49       		.uleb128 0x49
 5245 02c2 13       		.uleb128 0x13
 5246 02c3 3F       		.uleb128 0x3f
 5247 02c4 19       		.uleb128 0x19
 5248 02c5 02       		.uleb128 0x2
 5249 02c6 18       		.uleb128 0x18
 5250 02c7 00       		.byte	0
 5251 02c8 00       		.byte	0
 5252 02c9 00       		.byte	0
 5253              		.section	.debug_aranges,"",%progbits
 5254 0000 84000000 		.4byte	0x84
 5255 0004 0200     		.2byte	0x2
 5256 0006 00000000 		.4byte	.Ldebug_info0
 5257 000a 04       		.byte	0x4
 5258 000b 00       		.byte	0
 5259 000c 0000     		.2byte	0
 5260 000e 0000     		.2byte	0
 5261 0010 00000000 		.4byte	.LFB588
 5262 0014 38000000 		.4byte	.LFE588-.LFB588
 5263 0018 00000000 		.4byte	.LFB589
 5264 001c 28000000 		.4byte	.LFE589-.LFB589
 5265 0020 00000000 		.4byte	.LFB613
 5266 0024 16000000 		.4byte	.LFE613-.LFB613
 5267 0028 00000000 		.4byte	.LFB668
 5268 002c 26000000 		.4byte	.LFE668-.LFB668
 5269 0030 00000000 		.4byte	.LFB669
 5270 0034 28000000 		.4byte	.LFE669-.LFB669
 5271 0038 00000000 		.4byte	.LFB714
 5272 003c 22000000 		.4byte	.LFE714-.LFB714
 5273 0040 00000000 		.4byte	.LFB717
 5274 0044 08010000 		.4byte	.LFE717-.LFB717
 5275 0048 00000000 		.4byte	.LFB718
 5276 004c 40000000 		.4byte	.LFE718-.LFB718
 5277 0050 00000000 		.4byte	.LFB719
 5278 0054 5C000000 		.4byte	.LFE719-.LFB719
 5279 0058 00000000 		.4byte	.LFB720
 5280 005c 5C000000 		.4byte	.LFE720-.LFB720
 5281 0060 00000000 		.4byte	.LFB721
 5282 0064 5C000000 		.4byte	.LFE721-.LFB721
 5283 0068 00000000 		.4byte	.LFB722
 5284 006c 5C000000 		.4byte	.LFE722-.LFB722
 5285 0070 00000000 		.4byte	.LFB723
 5286 0074 5C000000 		.4byte	.LFE723-.LFB723
 5287 0078 00000000 		.4byte	.LFB724
 5288 007c 1C040000 		.4byte	.LFE724-.LFB724
 5289 0080 00000000 		.4byte	0
 5290 0084 00000000 		.4byte	0
 5291              		.section	.debug_ranges,"",%progbits
 5292              	.Ldebug_ranges0:
 5293 0000 00000000 		.4byte	.LFB588
 5294 0004 38000000 		.4byte	.LFE588
 5295 0008 00000000 		.4byte	.LFB589
 5296 000c 28000000 		.4byte	.LFE589
 5297 0010 00000000 		.4byte	.LFB613
 5298 0014 16000000 		.4byte	.LFE613
 5299 0018 00000000 		.4byte	.LFB668
 5300 001c 26000000 		.4byte	.LFE668
ARM GAS  C:\Users\tmj32\AppData\Local\Temp\ccmPTl49.s 			page 113


 5301 0020 00000000 		.4byte	.LFB669
 5302 0024 28000000 		.4byte	.LFE669
 5303 0028 00000000 		.4byte	.LFB714
 5304 002c 22000000 		.4byte	.LFE714
 5305 0030 00000000 		.4byte	.LFB717
 5306 0034 08010000 		.4byte	.LFE717
 5307 0038 00000000 		.4byte	.LFB718
 5308 003c 40000000 		.4byte	.LFE718
 5309 0040 00000000 		.4byte	.LFB719
 5310 0044 5C000000 		.4byte	.LFE719
 5311 0048 00000000 		.4byte	.LFB720
 5312 004c 5C000000 		.4byte	.LFE720
 5313 0050 00000000 		.4byte	.LFB721
 5314 0054 5C000000 		.4byte	.LFE721
 5315 0058 00000000 		.4byte	.LFB722
 5316 005c 5C000000 		.4byte	.LFE722
 5317 0060 00000000 		.4byte	.LFB723
 5318 0064 5C000000 		.4byte	.LFE723
 5319 0068 00000000 		.4byte	.LFB724
 5320 006c 1C040000 		.4byte	.LFE724
 5321 0070 00000000 		.4byte	0
 5322 0074 00000000 		.4byte	0
 5323              		.section	.debug_line,"",%progbits
 5324              	.Ldebug_line0:
 5325 0000 76060000 		.section	.debug_str,"MS",%progbits,1
 5325      0200C504 
 5325      00000201 
 5325      FB0E0D00 
 5325      01010101 
 5326              	.LASF190:
 5327 0000 4761696E 		.ascii	"Gain\000"
 5327      00
 5328              	.LASF9:
 5329 0005 6C6F6E67 		.ascii	"long int\000"
 5329      20696E74 
 5329      00
 5330              	.LASF370:
 5331 000e 6F666673 		.ascii	"offset_slider_event_cb\000"
 5331      65745F73 
 5331      6C696465 
 5331      725F6576 
 5331      656E745F 
 5332              	.LASF210:
 5333 0025 5F6C765F 		.ascii	"_lv_obj_t\000"
 5333      6F626A5F 
 5333      7400
 5334              	.LASF141:
 5335 002f 63795F63 		.ascii	"cy_cb_scb_spi_handle_events_t\000"
 5335      625F7363 
 5335      625F7370 
 5335      695F6861 
 5335      6E646C65 
 5336              	.LASF392:
 5337 004d 44495350 		.ascii	"DISP_TICK_TIMER_config\000"
 5337      5F544943 
 5337      4B5F5449 
 5337      4D45525F 
ARM GAS  C:\Users\tmj32\AppData\Local\Temp\ccmPTl49.s 			page 114


 5337      636F6E66 
 5338              	.LASF205:
 5339 0064 66756C6C 		.ascii	"full\000"
 5339      00
 5340              	.LASF169:
 5341 0069 73746F70 		.ascii	"stopInputMode\000"
 5341      496E7075 
 5341      744D6F64 
 5341      6500
 5342              	.LASF109:
 5343 0077 6970634C 		.ascii	"ipcLockStatusOffset\000"
 5343      6F636B53 
 5343      74617475 
 5343      734F6666 
 5343      73657400 
 5344              	.LASF389:
 5345 008b 77696E64 		.ascii	"windowLabel\000"
 5345      6F774C61 
 5345      62656C00 
 5346              	.LASF391:
 5347 0097 63795F64 		.ascii	"cy_device\000"
 5347      65766963 
 5347      6500
 5348              	.LASF393:
 5349 00a1 4932435F 		.ascii	"I2C_MASTER_context\000"
 5349      4D415354 
 5349      45525F63 
 5349      6F6E7465 
 5349      787400
 5350              	.LASF367:
 5351 00b4 63686172 		.ascii	"chart1\000"
 5351      743100
 5352              	.LASF342:
 5353 00bb 4C565F4C 		.ascii	"LV_LABEL_LONG_DOT\000"
 5353      4142454C 
 5353      5F4C4F4E 
 5353      475F444F 
 5353      5400
 5354              	.LASF94:
 5355 00cd 63707573 		.ascii	"cpussCm0ClockCtlOffset\000"
 5355      73436D30 
 5355      436C6F63 
 5355      6B43746C 
 5355      4F666673 
 5356              	.LASF53:
 5357 00e4 70657269 		.ascii	"periClockNr\000"
 5357      436C6F63 
 5357      6B4E7200 
 5358              	.LASF122:
 5359 00f0 6D617374 		.ascii	"masterStatus\000"
 5359      65725374 
 5359      61747573 
 5359      00
 5360              	.LASF189:
 5361 00fd 56657274 		.ascii	"VertScale\000"
 5361      5363616C 
 5361      6500
ARM GAS  C:\Users\tmj32\AppData\Local\Temp\ccmPTl49.s 			page 115


 5362              	.LASF27:
 5363 0107 75646242 		.ascii	"udbBase\000"
 5363      61736500 
 5364              	.LASF293:
 5365 010f 4C565F45 		.ascii	"LV_EVENT_VALUE_CHANGED\000"
 5365      56454E54 
 5365      5F56414C 
 5365      55455F43 
 5365      48414E47 
 5366              	.LASF26:
 5367 0126 70657269 		.ascii	"periBase\000"
 5367      42617365 
 5367      00
 5368              	.LASF178:
 5369 012f 56657273 		.ascii	"VersionID\000"
 5369      696F6E49 
 5369      4400
 5370              	.LASF372:
 5371 0139 686F7269 		.ascii	"hori_slider_event_cb\000"
 5371      5F736C69 
 5371      6465725F 
 5371      6576656E 
 5371      745F6362 
 5372              	.LASF295:
 5373 014e 4C565F45 		.ascii	"LV_EVENT_REFRESH\000"
 5373      56454E54 
 5373      5F524546 
 5373      52455348 
 5373      00
 5374              	.LASF226:
 5375 015f 62617365 		.ascii	"base_dir\000"
 5375      5F646972 
 5375      00
 5376              	.LASF224:
 5377 0168 70617265 		.ascii	"parent_event\000"
 5377      6E745F65 
 5377      76656E74 
 5377      00
 5378              	.LASF72:
 5379 0175 64774368 		.ascii	"dwChSize\000"
 5379      53697A65 
 5379      00
 5380              	.LASF191:
 5381 017e 54784275 		.ascii	"TxBuffer\000"
 5381      66666572 
 5381      00
 5382              	.LASF303:
 5383 0187 4C565F41 		.ascii	"LV_ALIGN_CENTER\000"
 5383      4C49474E 
 5383      5F43454E 
 5383      54455200 
 5384              	.LASF220:
 5385 0197 64726167 		.ascii	"drag_throw\000"
 5385      5F746872 
 5385      6F7700
 5386              	.LASF14:
 5387 01a2 756E7369 		.ascii	"unsigned int\000"
ARM GAS  C:\Users\tmj32\AppData\Local\Temp\ccmPTl49.s 			page 116


 5387      676E6564 
 5387      20696E74 
 5387      00
 5388              	.LASF235:
 5389 01af 6F66735F 		.ascii	"ofs_x\000"
 5389      7800
 5390              	.LASF236:
 5391 01b5 6F66735F 		.ascii	"ofs_y\000"
 5391      7900
 5392              	.LASF127:
 5393 01bb 6D617374 		.ascii	"masterBufferIdx\000"
 5393      65724275 
 5393      66666572 
 5393      49647800 
 5394              	.LASF54:
 5395 01cb 736D6966 		.ascii	"smifDeviceNr\000"
 5395      44657669 
 5395      63654E72 
 5395      00
 5396              	.LASF239:
 5397 01d8 6765745F 		.ascii	"get_glyph_dsc\000"
 5397      676C7970 
 5397      685F6473 
 5397      6300
 5398              	.LASF275:
 5399 01e6 6C765F73 		.ascii	"lv_style_t\000"
 5399      74796C65 
 5399      5F7400
 5400              	.LASF150:
 5401 01f1 74784275 		.ascii	"txBufIdx\000"
 5401      66496478 
 5401      00
 5402              	.LASF168:
 5403 01fa 73746172 		.ascii	"startInput\000"
 5403      74496E70 
 5403      757400
 5404              	.LASF8:
 5405 0205 5F5F696E 		.ascii	"__int32_t\000"
 5405      7433325F 
 5405      7400
 5406              	.LASF50:
 5407 020f 73727373 		.ascii	"srssNumClkpath\000"
 5407      4E756D43 
 5407      6C6B7061 
 5407      746800
 5408              	.LASF310:
 5409 021e 4C565F41 		.ascii	"LV_ALIGN_IN_LEFT_MID\000"
 5409      4C49474E 
 5409      5F494E5F 
 5409      4C454654 
 5409      5F4D4944 
 5410              	.LASF327:
 5411 0233 796F6673 		.ascii	"yofs\000"
 5411      00
 5412              	.LASF24:
 5413 0238 63707573 		.ascii	"cpussBase\000"
 5413      73426173 
ARM GAS  C:\Users\tmj32\AppData\Local\Temp\ccmPTl49.s 			page 117


 5413      6500
 5414              	.LASF278:
 5415 0242 6C765F64 		.ascii	"lv_design_cb_t\000"
 5415      65736967 
 5415      6E5F6362 
 5415      5F7400
 5416              	.LASF135:
 5417 0251 736C6176 		.ascii	"slaveRxBuffer\000"
 5417      65527842 
 5417      75666665 
 5417      7200
 5418              	.LASF315:
 5419 025f 4C565F41 		.ascii	"LV_ALIGN_OUT_BOTTOM_LEFT\000"
 5419      4C49474E 
 5419      5F4F5554 
 5419      5F424F54 
 5419      544F4D5F 
 5420              	.LASF41:
 5421 0278 70657269 		.ascii	"periVersion\000"
 5421      56657273 
 5421      696F6E00 
 5422              	.LASF265:
 5423 0284 666F6E74 		.ascii	"font\000"
 5423      00
 5424              	.LASF139:
 5425 0289 63624164 		.ascii	"cbAddr\000"
 5425      647200
 5426              	.LASF368:
 5427 0290 73775F65 		.ascii	"sw_event_handler\000"
 5427      76656E74 
 5427      5F68616E 
 5427      646C6572 
 5427      00
 5428              	.LASF296:
 5429 02a1 4C565F45 		.ascii	"LV_EVENT_APPLY\000"
 5429      56454E54 
 5429      5F415050 
 5429      4C5900
 5430              	.LASF170:
 5431 02b0 73746F70 		.ascii	"stopInput\000"
 5431      496E7075 
 5431      7400
 5432              	.LASF184:
 5433 02ba 4F666673 		.ascii	"Offset\000"
 5433      657400
 5434              	.LASF288:
 5435 02c1 4C565F45 		.ascii	"LV_EVENT_DRAG_END\000"
 5435      56454E54 
 5435      5F445241 
 5435      475F454E 
 5435      4400
 5436              	.LASF116:
 5437 02d3 63795F65 		.ascii	"cy_en_scb_i2c_command_t\000"
 5437      6E5F7363 
 5437      625F6932 
 5437      635F636F 
 5437      6D6D616E 
ARM GAS  C:\Users\tmj32\AppData\Local\Temp\ccmPTl49.s 			page 118


 5438              	.LASF198:
 5439 02eb 6E5F7369 		.ascii	"n_size\000"
 5439      7A6500
 5440              	.LASF130:
 5441 02f2 736C6176 		.ascii	"slaveRdBufEmpty\000"
 5441      65526442 
 5441      7566456D 
 5441      70747900 
 5442              	.LASF80:
 5443 0302 70657269 		.ascii	"periTrGrSize\000"
 5443      54724772 
 5443      53697A65 
 5443      00
 5444              	.LASF60:
 5445 030f 63727970 		.ascii	"cryptoMemSize\000"
 5445      746F4D65 
 5445      6D53697A 
 5445      6500
 5446              	.LASF106:
 5447 031d 63707573 		.ascii	"cpussRam1Ctl0\000"
 5447      7352616D 
 5447      3143746C 
 5447      3000
 5448              	.LASF108:
 5449 032b 69706353 		.ascii	"ipcStructSize\000"
 5449      74727563 
 5449      7453697A 
 5449      6500
 5450              	.LASF115:
 5451 0339 43595F53 		.ascii	"CY_SCB_I2C_NAK\000"
 5451      43425F49 
 5451      32435F4E 
 5451      414B00
 5452              	.LASF48:
 5453 0348 63707573 		.ascii	"cpussFmIrq\000"
 5453      73466D49 
 5453      727100
 5454              	.LASF118:
 5455 0353 63795F63 		.ascii	"cy_cb_scb_i2c_handle_addr_t\000"
 5455      625F7363 
 5455      625F6932 
 5455      635F6861 
 5455      6E646C65 
 5456              	.LASF159:
 5457 036f 636F6D70 		.ascii	"compare0\000"
 5457      61726530 
 5457      00
 5458              	.LASF160:
 5459 0378 636F6D70 		.ascii	"compare1\000"
 5459      61726531 
 5459      00
 5460              	.LASF290:
 5461 0381 4C565F45 		.ascii	"LV_EVENT_KEY\000"
 5461      56454E54 
 5461      5F4B4559 
 5461      00
 5462              	.LASF359:
ARM GAS  C:\Users\tmj32\AppData\Local\Temp\ccmPTl49.s 			page 119


 5463 038e 616E696D 		.ascii	"anim\000"
 5463      00
 5464              	.LASF142:
 5465 0393 63795F73 		.ascii	"cy_stc_scb_i2c_context\000"
 5465      74635F73 
 5465      63625F69 
 5465      32635F63 
 5465      6F6E7465 
 5466              	.LASF335:
 5467 03aa 4C565F42 		.ascii	"LV_BTN_STATE_PR\000"
 5467      544E5F53 
 5467      54415445 
 5467      5F505200 
 5468              	.LASF82:
 5469 03ba 70657269 		.ascii	"periDivCmdTypeSelPos\000"
 5469      44697643 
 5469      6D645479 
 5469      70655365 
 5469      6C506F73 
 5470              	.LASF99:
 5471 03cf 63707573 		.ascii	"cpussTrimRamCtlOffset\000"
 5471      73547269 
 5471      6D52616D 
 5471      43746C4F 
 5471      66667365 
 5472              	.LASF102:
 5473 03e5 63707573 		.ascii	"cpussCm0NmiCtlOffset\000"
 5473      73436D30 
 5473      4E6D6943 
 5473      746C4F66 
 5473      66736574 
 5474              	.LASF333:
 5475 03fa 6C765F6F 		.ascii	"lv_obj_t\000"
 5475      626A5F74 
 5475      00
 5476              	.LASF388:
 5477 0403 76657274 		.ascii	"vertLabel1\000"
 5477      4C616265 
 5477      6C3100
 5478              	.LASF382:
 5479 040e 76657274 		.ascii	"vertLabel2\000"
 5479      4C616265 
 5479      6C3200
 5480              	.LASF273:
 5481 0419 696D6167 		.ascii	"image\000"
 5481      6500
 5482              	.LASF131:
 5483 041f 736C6176 		.ascii	"slaveTxBuffer\000"
 5483      65547842 
 5483      75666665 
 5483      7200
 5484              	.LASF400:
 5485 042d 433A5C55 		.ascii	"C:\\Users\\tmj32\\Documents\\TCNJ\\Senior_Project\\"
 5485      73657273 
 5485      5C746D6A 
 5485      33325C44 
 5485      6F63756D 
ARM GAS  C:\Users\tmj32\AppData\Local\Temp\ccmPTl49.s 			page 120


 5486 045a 4F736369 		.ascii	"Oscilloscope_Senior_Project\\tcom_engineering\\embe"
 5486      6C6C6F73 
 5486      636F7065 
 5486      5F53656E 
 5486      696F725F 
 5487 048b 645F7377 		.ascii	"d_sw\\tcom_app\\tcom_app_psoc6_lvgl6\\tcom_displ_te"
 5487      5C74636F 
 5487      6D5F6170 
 5487      705C7463 
 5487      6F6D5F61 
 5488 04bb 73745F70 		.ascii	"st_psoc6.cydsn\000"
 5488      736F6336 
 5488      2E637964 
 5488      736E00
 5489              	.LASF231:
 5490 04ca 7265616C 		.ascii	"realign\000"
 5490      69676E00 
 5491              	.LASF363:
 5492 04d2 63686172 		.ascii	"chart_width\000"
 5492      745F7769 
 5492      64746800 
 5493              	.LASF257:
 5494 04de 696E6E65 		.ascii	"inner\000"
 5494      7200
 5495              	.LASF133:
 5496 04e4 736C6176 		.ascii	"slaveTxBufferIdx\000"
 5496      65547842 
 5496      75666665 
 5496      72496478 
 5496      00
 5497              	.LASF321:
 5498 04f5 4C565F41 		.ascii	"LV_ALIGN_OUT_RIGHT_TOP\000"
 5498      4C49474E 
 5498      5F4F5554 
 5498      5F524947 
 5498      48545F54 
 5499              	.LASF23:
 5500 050c 75696E74 		.ascii	"uint32_t\000"
 5500      33325F74 
 5500      00
 5501              	.LASF18:
 5502 0515 696E7438 		.ascii	"int8_t\000"
 5502      5F7400
 5503              	.LASF206:
 5504 051c 6C765F63 		.ascii	"lv_color32_t\000"
 5504      6F6C6F72 
 5504      33325F74 
 5504      00
 5505              	.LASF294:
 5506 0529 4C565F45 		.ascii	"LV_EVENT_INSERT\000"
 5506      56454E54 
 5506      5F494E53 
 5506      45525400 
 5507              	.LASF92:
 5508 0539 6770696F 		.ascii	"gpioPrtCfgOutOffset\000"
 5508      50727443 
 5508      66674F75 
ARM GAS  C:\Users\tmj32\AppData\Local\Temp\ccmPTl49.s 			page 121


 5508      744F6666 
 5508      73657400 
 5509              	.LASF317:
 5510 054d 4C565F41 		.ascii	"LV_ALIGN_OUT_BOTTOM_RIGHT\000"
 5510      4C49474E 
 5510      5F4F5554 
 5510      5F424F54 
 5510      544F4D5F 
 5511              	.LASF111:
 5512 0567 666C6F61 		.ascii	"float\000"
 5512      7400
 5513              	.LASF264:
 5514 056d 73656C5F 		.ascii	"sel_color\000"
 5514      636F6C6F 
 5514      7200
 5515              	.LASF218:
 5516 0577 636C6963 		.ascii	"click\000"
 5516      6B00
 5517              	.LASF369:
 5518 057d 6576656E 		.ascii	"event\000"
 5518      7400
 5519              	.LASF56:
 5520 0583 65704D6F 		.ascii	"epMonitorNr\000"
 5520      6E69746F 
 5520      724E7200 
 5521              	.LASF325:
 5522 058f 62617365 		.ascii	"base\000"
 5522      00
 5523              	.LASF374:
 5524 0594 77696E64 		.ascii	"window_slider_event_cb\000"
 5524      6F775F73 
 5524      6C696465 
 5524      725F6576 
 5524      656E745F 
 5525              	.LASF166:
 5526 05ab 72656C6F 		.ascii	"reloadInput\000"
 5526      6164496E 
 5526      70757400 
 5527              	.LASF20:
 5528 05b7 696E7431 		.ascii	"int16_t\000"
 5528      365F7400 
 5529              	.LASF91:
 5530 05bf 6770696F 		.ascii	"gpioPrtCfgInOffset\000"
 5530      50727443 
 5530      6667496E 
 5530      4F666673 
 5530      657400
 5531              	.LASF343:
 5532 05d2 4C565F4C 		.ascii	"LV_LABEL_LONG_SROLL\000"
 5532      4142454C 
 5532      5F4C4F4E 
 5532      475F5352 
 5532      4F4C4C00 
 5533              	.LASF201:
 5534 05e6 6C765F6C 		.ascii	"lv_ll_t\000"
 5534      6C5F7400 
 5535              	.LASF13:
ARM GAS  C:\Users\tmj32\AppData\Local\Temp\ccmPTl49.s 			page 122


 5536 05ee 6C6F6E67 		.ascii	"long long unsigned int\000"
 5536      206C6F6E 
 5536      6720756E 
 5536      7369676E 
 5536      65642069 
 5537              	.LASF302:
 5538 0605 6C765F73 		.ascii	"lv_signal_cb_t\000"
 5538      69676E61 
 5538      6C5F6362 
 5538      5F7400
 5539              	.LASF93:
 5540 0614 6770696F 		.ascii	"gpioPrtCfgSioOffset\000"
 5540      50727443 
 5540      66675369 
 5540      6F4F6666 
 5540      73657400 
 5541              	.LASF252:
 5542 0628 70617274 		.ascii	"part\000"
 5542      00
 5543              	.LASF323:
 5544 062d 4C565F41 		.ascii	"LV_ALIGN_OUT_RIGHT_BOTTOM\000"
 5544      4C49474E 
 5544      5F4F5554 
 5544      5F524947 
 5544      48545F42 
 5545              	.LASF52:
 5546 0647 73727373 		.ascii	"srssNumHfroot\000"
 5546      4E756D48 
 5546      66726F6F 
 5546      7400
 5547              	.LASF199:
 5548 0655 68656164 		.ascii	"head\000"
 5548      00
 5549              	.LASF22:
 5550 065a 696E7433 		.ascii	"int32_t\000"
 5550      325F7400 
 5551              	.LASF377:
 5552 0662 74726967 		.ascii	"triggerSlider\000"
 5552      67657253 
 5552      6C696465 
 5552      7200
 5553              	.LASF132:
 5554 0670 736C6176 		.ascii	"slaveTxBufferSize\000"
 5554      65547842 
 5554      75666665 
 5554      7253697A 
 5554      6500
 5555              	.LASF83:
 5556 0682 70657269 		.ascii	"periDivCmdPaDivSelPos\000"
 5556      44697643 
 5556      6D645061 
 5556      44697653 
 5556      656C506F 
 5557              	.LASF167:
 5558 0698 73746172 		.ascii	"startInputMode\000"
 5558      74496E70 
 5558      75744D6F 
ARM GAS  C:\Users\tmj32\AppData\Local\Temp\ccmPTl49.s 			page 123


 5558      646500
 5559              	.LASF204:
 5560 06a7 616C7068 		.ascii	"alpha\000"
 5560      6100
 5561              	.LASF163:
 5562 06ad 63617074 		.ascii	"captureInputMode\000"
 5562      75726549 
 5562      6E707574 
 5562      4D6F6465 
 5562      00
 5563              	.LASF316:
 5564 06be 4C565F41 		.ascii	"LV_ALIGN_OUT_BOTTOM_MID\000"
 5564      4C49474E 
 5564      5F4F5554 
 5564      5F424F54 
 5564      544F4D5F 
 5565              	.LASF402:
 5566 06d6 63686172 		.ascii	"chart_actions\000"
 5566      745F6163 
 5566      74696F6E 
 5566      7300
 5567              	.LASF358:
 5568 06e4 76616C75 		.ascii	"value\000"
 5568      6500
 5569              	.LASF357:
 5570 06ea 736C6964 		.ascii	"slider\000"
 5570      657200
 5571              	.LASF145:
 5572 06f1 72784275 		.ascii	"rxBuf\000"
 5572      6600
 5573              	.LASF32:
 5574 06f7 69706342 		.ascii	"ipcBase\000"
 5574      61736500 
 5575              	.LASF185:
 5576 06ff 77696E64 		.ascii	"windowPos\000"
 5576      6F77506F 
 5576      7300
 5577              	.LASF250:
 5578 0709 636F6C6F 		.ascii	"color\000"
 5578      7200
 5579              	.LASF69:
 5580 070f 666C6173 		.ascii	"flashCtlMainWs3Freq\000"
 5580      6843746C 
 5580      4D61696E 
 5580      57733346 
 5580      72657100 
 5581              	.LASF51:
 5582 0723 73727373 		.ascii	"srssNumPll\000"
 5582      4E756D50 
 5582      6C6C00
 5583              	.LASF269:
 5584 072e 726F756E 		.ascii	"rounded\000"
 5584      64656400 
 5585              	.LASF319:
 5586 0736 4C565F41 		.ascii	"LV_ALIGN_OUT_LEFT_MID\000"
 5586      4C49474E 
 5586      5F4F5554 
ARM GAS  C:\Users\tmj32\AppData\Local\Temp\ccmPTl49.s 			page 124


 5586      5F4C4546 
 5586      545F4D49 
 5587              	.LASF30:
 5588 074c 6770696F 		.ascii	"gpioBase\000"
 5588      42617365 
 5588      00
 5589              	.LASF217:
 5590 0755 7374796C 		.ascii	"style_p\000"
 5590      655F7000 
 5591              	.LASF251:
 5592 075d 77696474 		.ascii	"width\000"
 5592      6800
 5593              	.LASF62:
 5594 0763 666C6173 		.ascii	"flashPipeRequired\000"
 5594      68506970 
 5594      65526571 
 5594      75697265 
 5594      6400
 5595              	.LASF128:
 5596 0775 6D617374 		.ascii	"masterNumBytes\000"
 5596      65724E75 
 5596      6D427974 
 5596      657300
 5597              	.LASF379:
 5598 0784 686F7269 		.ascii	"horiSlider\000"
 5598      536C6964 
 5598      657200
 5599              	.LASF138:
 5600 078f 63624576 		.ascii	"cbEvents\000"
 5600      656E7473 
 5600      00
 5601              	.LASF298:
 5602 0798 4C565F45 		.ascii	"LV_EVENT_DELETE\000"
 5602      56454E54 
 5602      5F44454C 
 5602      45544500 
 5603              	.LASF197:
 5604 07a8 6C765F6C 		.ascii	"lv_ll_node_t\000"
 5604      6C5F6E6F 
 5604      64655F74 
 5604      00
 5605              	.LASF347:
 5606 07b5 4C565F43 		.ascii	"LV_CHART_TYPE_LINE\000"
 5606      48415254 
 5606      5F545950 
 5606      455F4C49 
 5606      4E4500
 5607              	.LASF281:
 5608 07c8 4C565F45 		.ascii	"LV_EVENT_PRESS_LOST\000"
 5608      56454E54 
 5608      5F505245 
 5608      53535F4C 
 5608      4F535400 
 5609              	.LASF113:
 5610 07dc 5F426F6F 		.ascii	"_Bool\000"
 5610      6C00
 5611              	.LASF396:
ARM GAS  C:\Users\tmj32\AppData\Local\Temp\ccmPTl49.s 			page 125


 5612 07e2 74636E6A 		.ascii	"tcnj_gold\000"
 5612      5F676F6C 
 5612      6400
 5613              	.LASF66:
 5614 07ec 666C6173 		.ascii	"flashCtlMainWs0Freq\000"
 5614      6843746C 
 5614      4D61696E 
 5614      57733046 
 5614      72657100 
 5615              	.LASF119:
 5616 0800 75736552 		.ascii	"useRxFifo\000"
 5616      78466966 
 5616      6F00
 5617              	.LASF238:
 5618 080a 5F6C765F 		.ascii	"_lv_font_struct\000"
 5618      666F6E74 
 5618      5F737472 
 5618      75637400 
 5619              	.LASF340:
 5620 081a 4C565F4C 		.ascii	"LV_LABEL_LONG_EXPAND\000"
 5620      4142454C 
 5620      5F4C4F4E 
 5620      475F4558 
 5620      50414E44 
 5621              	.LASF279:
 5622 082f 4C565F45 		.ascii	"LV_EVENT_PRESSED\000"
 5622      56454E54 
 5622      5F505245 
 5622      53534544 
 5622      00
 5623              	.LASF267:
 5624 0840 6C696E65 		.ascii	"line_space\000"
 5624      5F737061 
 5624      636500
 5625              	.LASF337:
 5626 084b 4C565F42 		.ascii	"LV_BTN_STATE_TGL_PR\000"
 5626      544E5F53 
 5626      54415445 
 5626      5F54474C 
 5626      5F505200 
 5627              	.LASF42:
 5628 085f 70726F74 		.ascii	"protVersion\000"
 5628      56657273 
 5628      696F6E00 
 5629              	.LASF365:
 5630 086b 63686172 		.ascii	"chart_vertPos\000"
 5630      745F7665 
 5630      7274506F 
 5630      7300
 5631              	.LASF241:
 5632 0879 6C696E65 		.ascii	"line_height\000"
 5632      5F686569 
 5632      67687400 
 5633              	.LASF101:
 5634 0885 63707573 		.ascii	"cpussSysTickCtlOffset\000"
 5634      73537973 
 5634      5469636B 
ARM GAS  C:\Users\tmj32\AppData\Local\Temp\ccmPTl49.s 			page 126


 5634      43746C4F 
 5634      66667365 
 5635              	.LASF57:
 5636 089b 75646250 		.ascii	"udbPresent\000"
 5636      72657365 
 5636      6E7400
 5637              	.LASF360:
 5638 08a6 6C765F73 		.ascii	"lv_slider_set_value\000"
 5638      6C696465 
 5638      725F7365 
 5638      745F7661 
 5638      6C756500 
 5639              	.LASF75:
 5640 08ba 64775374 		.ascii	"dwStatusChIdxPos\000"
 5640      61747573 
 5640      43684964 
 5640      78506F73 
 5640      00
 5641              	.LASF6:
 5642 08cb 5F5F7569 		.ascii	"__uint16_t\000"
 5642      6E743136 
 5642      5F7400
 5643              	.LASF356:
 5644 08d6 6C765F63 		.ascii	"lv_color_hex\000"
 5644      6F6C6F72 
 5644      5F686578 
 5644      00
 5645              	.LASF259:
 5646 08e3 67726164 		.ascii	"grad_color\000"
 5646      5F636F6C 
 5646      6F7200
 5647              	.LASF46:
 5648 08ee 63707573 		.ascii	"cpussFlashPaSize\000"
 5648      73466C61 
 5648      73685061 
 5648      53697A65 
 5648      00
 5649              	.LASF164:
 5650 08ff 63617074 		.ascii	"captureInput\000"
 5650      75726549 
 5650      6E707574 
 5650      00
 5651              	.LASF348:
 5652 090c 4C565F43 		.ascii	"LV_CHART_TYPE_COLUMN\000"
 5652      48415254 
 5652      5F545950 
 5652      455F434F 
 5652      4C554D4E 
 5653              	.LASF114:
 5654 0921 43595F53 		.ascii	"CY_SCB_I2C_ACK\000"
 5654      43425F49 
 5654      32435F41 
 5654      434B00
 5655              	.LASF17:
 5656 0930 63686172 		.ascii	"char\000"
 5656      00
 5657              	.LASF373:
ARM GAS  C:\Users\tmj32\AppData\Local\Temp\ccmPTl49.s 			page 127


 5658 0935 76657274 		.ascii	"verti_slider_event_cb\000"
 5658      695F736C 
 5658      69646572 
 5658      5F657665 
 5658      6E745F63 
 5659              	.LASF386:
 5660 094b 74726967 		.ascii	"triggerLabel\000"
 5660      6765724C 
 5660      6162656C 
 5660      00
 5661              	.LASF84:
 5662 0958 70657269 		.ascii	"periDivCmdPaTypeSelPos\000"
 5662      44697643 
 5662      6D645061 
 5662      54797065 
 5662      53656C50 
 5663              	.LASF221:
 5664 096f 64726167 		.ascii	"drag_parent\000"
 5664      5F706172 
 5664      656E7400 
 5665              	.LASF192:
 5666 097b 52784275 		.ascii	"RxBuffer\000"
 5666      66666572 
 5666      00
 5667              	.LASF58:
 5668 0984 73797350 		.ascii	"sysPmSimoPresent\000"
 5668      6D53696D 
 5668      6F507265 
 5668      73656E74 
 5668      00
 5669              	.LASF126:
 5670 0995 6D617374 		.ascii	"masterBufferSize\000"
 5670      65724275 
 5670      66666572 
 5670      53697A65 
 5670      00
 5671              	.LASF230:
 5672 09a6 6578745F 		.ascii	"ext_draw_pad\000"
 5672      64726177 
 5672      5F706164 
 5672      00
 5673              	.LASF254:
 5674 09b3 626F7474 		.ascii	"bottom\000"
 5674      6F6D00
 5675              	.LASF158:
 5676 09ba 636F6D70 		.ascii	"compareOrCapture\000"
 5676      6172654F 
 5676      72436170 
 5676      74757265 
 5676      00
 5677              	.LASF155:
 5678 09cb 636C6F63 		.ascii	"clockPrescaler\000"
 5678      6B507265 
 5678      7363616C 
 5678      657200
 5679              	.LASF394:
 5680 09da 5350494D 		.ascii	"SPIM_context\000"
ARM GAS  C:\Users\tmj32\AppData\Local\Temp\ccmPTl49.s 			page 128


 5680      5F636F6E 
 5680      74657874 
 5680      00
 5681              	.LASF147:
 5682 09e7 72784275 		.ascii	"rxBufIdx\000"
 5682      66496478 
 5682      00
 5683              	.LASF237:
 5684 09f0 6C765F66 		.ascii	"lv_font_glyph_dsc_t\000"
 5684      6F6E745F 
 5684      676C7970 
 5684      685F6473 
 5684      635F7400 
 5685              	.LASF151:
 5686 0a04 696E6974 		.ascii	"initKey\000"
 5686      4B657900 
 5687              	.LASF385:
 5688 0a0c 6F666673 		.ascii	"offsetLabel\000"
 5688      65744C61 
 5688      62656C00 
 5689              	.LASF76:
 5690 0a18 64775374 		.ascii	"dwStatusChIdxMsk\000"
 5690      61747573 
 5690      43684964 
 5690      784D736B 
 5690      00
 5691              	.LASF309:
 5692 0a29 4C565F41 		.ascii	"LV_ALIGN_IN_BOTTOM_RIGHT\000"
 5692      4C49474E 
 5692      5F494E5F 
 5692      424F5454 
 5692      4F4D5F52 
 5693              	.LASF19:
 5694 0a42 75696E74 		.ascii	"uint8_t\000"
 5694      385F7400 
 5695              	.LASF144:
 5696 0a4a 73746174 		.ascii	"status\000"
 5696      757300
 5697              	.LASF253:
 5698 0a51 74797065 		.ascii	"type\000"
 5698      00
 5699              	.LASF134:
 5700 0a56 736C6176 		.ascii	"slaveTxBufferCnt\000"
 5700      65547842 
 5700      75666665 
 5700      72436E74 
 5700      00
 5701              	.LASF225:
 5702 0a67 64726167 		.ascii	"drag_dir\000"
 5702      5F646972 
 5702      00
 5703              	.LASF31:
 5704 0a70 70617373 		.ascii	"passBase\000"
 5704      42617365 
 5704      00
 5705              	.LASF81:
 5706 0a79 70657269 		.ascii	"periDivCmdDivSelMsk\000"
ARM GAS  C:\Users\tmj32\AppData\Local\Temp\ccmPTl49.s 			page 129


 5706      44697643 
 5706      6D644469 
 5706      7653656C 
 5706      4D736B00 
 5707              	.LASF297:
 5708 0a8d 4C565F45 		.ascii	"LV_EVENT_CANCEL\000"
 5708      56454E54 
 5708      5F43414E 
 5708      43454C00 
 5709              	.LASF181:
 5710 0a9d 53616D70 		.ascii	"SampleRate\000"
 5710      6C655261 
 5710      746500
 5711              	.LASF249:
 5712 0aa8 6C765F73 		.ascii	"lv_shadow_type_t\000"
 5712      6861646F 
 5712      775F7479 
 5712      70655F74 
 5712      00
 5713              	.LASF355:
 5714 0ab9 6C765F63 		.ascii	"lv_color_make\000"
 5714      6F6C6F72 
 5714      5F6D616B 
 5714      6500
 5715              	.LASF341:
 5716 0ac7 4C565F4C 		.ascii	"LV_LABEL_LONG_BREAK\000"
 5716      4142454C 
 5716      5F4C4F4E 
 5716      475F4252 
 5716      45414B00 
 5717              	.LASF401:
 5718 0adb 6C765F73 		.ascii	"lv_scr_act\000"
 5718      63725F61 
 5718      637400
 5719              	.LASF256:
 5720 0ae6 72696768 		.ascii	"right\000"
 5720      7400
 5721              	.LASF105:
 5722 0aec 63707573 		.ascii	"cpussRam0Ctl0\000"
 5722      7352616D 
 5722      3043746C 
 5722      3000
 5723              	.LASF12:
 5724 0afa 6C6F6E67 		.ascii	"long long int\000"
 5724      206C6F6E 
 5724      6720696E 
 5724      7400
 5725              	.LASF270:
 5726 0b08 676C6173 		.ascii	"glass\000"
 5726      7300
 5727              	.LASF73:
 5728 0b0e 64774368 		.ascii	"dwChCtlPrioPos\000"
 5728      43746C50 
 5728      72696F50 
 5728      6F7300
 5729              	.LASF318:
 5730 0b1d 4C565F41 		.ascii	"LV_ALIGN_OUT_LEFT_TOP\000"
ARM GAS  C:\Users\tmj32\AppData\Local\Temp\ccmPTl49.s 			page 130


 5730      4C49474E 
 5730      5F4F5554 
 5730      5F4C4546 
 5730      545F544F 
 5731              	.LASF33:
 5732 0b33 63727970 		.ascii	"cryptoBase\000"
 5732      746F4261 
 5732      736500
 5733              	.LASF272:
 5734 0b3e 74657874 		.ascii	"text\000"
 5734      00
 5735              	.LASF329:
 5736 0b43 6175746F 		.ascii	"auto_realign\000"
 5736      5F726561 
 5736      6C69676E 
 5736      00
 5737              	.LASF88:
 5738 0b50 70657269 		.ascii	"periDiv24_5CtlOffset\000"
 5738      44697632 
 5738      345F3543 
 5738      746C4F66 
 5738      66736574 
 5739              	.LASF186:
 5740 0b65 77696E64 		.ascii	"windowMin\000"
 5740      6F774D69 
 5740      6E00
 5741              	.LASF263:
 5742 0b6f 70616464 		.ascii	"padding\000"
 5742      696E6700 
 5743              	.LASF324:
 5744 0b77 6C765F61 		.ascii	"lv_align_t\000"
 5744      6C69676E 
 5744      5F7400
 5745              	.LASF63:
 5746 0b82 666C6173 		.ascii	"flashWriteDelay\000"
 5746      68577269 
 5746      74654465 
 5746      6C617900 
 5747              	.LASF344:
 5748 0b92 4C565F4C 		.ascii	"LV_LABEL_LONG_SROLL_CIRC\000"
 5748      4142454C 
 5748      5F4C4F4E 
 5748      475F5352 
 5748      4F4C4C5F 
 5749              	.LASF120:
 5750 0bab 75736554 		.ascii	"useTxFifo\000"
 5750      78466966 
 5750      6F00
 5751              	.LASF326:
 5752 0bb5 786F6673 		.ascii	"xofs\000"
 5752      00
 5753              	.LASF117:
 5754 0bba 63795F63 		.ascii	"cy_cb_scb_i2c_handle_events_t\000"
 5754      625F7363 
 5754      625F6932 
 5754      635F6861 
 5754      6E646C65 
ARM GAS  C:\Users\tmj32\AppData\Local\Temp\ccmPTl49.s 			page 131


 5755              	.LASF4:
 5756 0bd8 5F5F696E 		.ascii	"__int16_t\000"
 5756      7431365F 
 5756      7400
 5757              	.LASF175:
 5758 0be2 42726961 		.ascii	"BrianReg\000"
 5758      6E526567 
 5758      00
 5759              	.LASF29:
 5760 0beb 6873696F 		.ascii	"hsiomBase\000"
 5760      6D426173 
 5760      6500
 5761              	.LASF124:
 5762 0bf5 6D617374 		.ascii	"masterRdDir\000"
 5762      65725264 
 5762      44697200 
 5763              	.LASF276:
 5764 0c01 6C765F62 		.ascii	"lv_bidi_dir_t\000"
 5764      6964695F 
 5764      6469725F 
 5764      7400
 5765              	.LASF299:
 5766 0c0f 6C765F65 		.ascii	"lv_event_t\000"
 5766      76656E74 
 5766      5F7400
 5767              	.LASF79:
 5768 0c1a 70657269 		.ascii	"periTrGrOffset\000"
 5768      54724772 
 5768      4F666673 
 5768      657400
 5769              	.LASF49:
 5770 0c29 63707573 		.ascii	"cpussNotConnectedIrq\000"
 5770      734E6F74 
 5770      436F6E6E 
 5770      65637465 
 5770      64497271 
 5771              	.LASF330:
 5772 0c3e 6F726967 		.ascii	"origo_align\000"
 5772      6F5F616C 
 5772      69676E00 
 5773              	.LASF152:
 5774 0c4a 63795F73 		.ascii	"cy_stc_scb_spi_context_t\000"
 5774      74635F73 
 5774      63625F73 
 5774      70695F63 
 5774      6F6E7465 
 5775              	.LASF196:
 5776 0c63 6C765F72 		.ascii	"lv_res_t\000"
 5776      65735F74 
 5776      00
 5777              	.LASF165:
 5778 0c6c 72656C6F 		.ascii	"reloadInputMode\000"
 5778      6164496E 
 5778      7075744D 
 5778      6F646500 
 5779              	.LASF332:
 5780 0c7c 6C765F64 		.ascii	"lv_drag_dir_t\000"
ARM GAS  C:\Users\tmj32\AppData\Local\Temp\ccmPTl49.s 			page 132


 5780      7261675F 
 5780      6469725F 
 5780      7400
 5781              	.LASF308:
 5782 0c8a 4C565F41 		.ascii	"LV_ALIGN_IN_BOTTOM_MID\000"
 5782      4C49474E 
 5782      5F494E5F 
 5782      424F5454 
 5782      4F4D5F4D 
 5783              	.LASF375:
 5784 0ca1 6F666673 		.ascii	"offsetSlider\000"
 5784      6574536C 
 5784      69646572 
 5784      00
 5785              	.LASF149:
 5786 0cae 74784275 		.ascii	"txBufSize\000"
 5786      6653697A 
 5786      6500
 5787              	.LASF43:
 5788 0cb8 63707573 		.ascii	"cpussIpcNr\000"
 5788      73497063 
 5788      4E7200
 5789              	.LASF292:
 5790 0cc3 4C565F45 		.ascii	"LV_EVENT_DEFOCUSED\000"
 5790      56454E54 
 5790      5F444546 
 5790      4F435553 
 5790      454400
 5791              	.LASF287:
 5792 0cd6 4C565F45 		.ascii	"LV_EVENT_DRAG_BEGIN\000"
 5792      56454E54 
 5792      5F445241 
 5792      475F4245 
 5792      47494E00 
 5793              	.LASF96:
 5794 0cea 63707573 		.ascii	"cpussCm4StatusOffset\000"
 5794      73436D34 
 5794      53746174 
 5794      75734F66 
 5794      66736574 
 5795              	.LASF55:
 5796 0cff 70617373 		.ascii	"passSarChannels\000"
 5796      53617243 
 5796      68616E6E 
 5796      656C7300 
 5797              	.LASF137:
 5798 0d0f 736C6176 		.ascii	"slaveRxBufferIdx\000"
 5798      65527842 
 5798      75666665 
 5798      72496478 
 5798      00
 5799              	.LASF107:
 5800 0d20 63707573 		.ascii	"cpussRam2Ctl0\000"
 5800      7352616D 
 5800      3243746C 
 5800      3000
 5801              	.LASF246:
ARM GAS  C:\Users\tmj32\AppData\Local\Temp\ccmPTl49.s 			page 133


 5802 0d2e 4C565F41 		.ascii	"LV_ANIM_ON\000"
 5802      4E494D5F 
 5802      4F4E00
 5803              	.LASF123:
 5804 0d39 6D617374 		.ascii	"masterPause\000"
 5804      65725061 
 5804      75736500 
 5805              	.LASF161:
 5806 0d45 656E6162 		.ascii	"enableCompareSwap\000"
 5806      6C65436F 
 5806      6D706172 
 5806      65537761 
 5806      7000
 5807              	.LASF311:
 5808 0d57 4C565F41 		.ascii	"LV_ALIGN_IN_RIGHT_MID\000"
 5808      4C49474E 
 5808      5F494E5F 
 5808      52494748 
 5808      545F4D49 
 5809              	.LASF378:
 5810 0d6d 74726967 		.ascii	"triggerLabel2\000"
 5810      6765724C 
 5810      6162656C 
 5810      3200
 5811              	.LASF148:
 5812 0d7b 74784275 		.ascii	"txBuf\000"
 5812      6600
 5813              	.LASF243:
 5814 0d81 73756270 		.ascii	"subpx\000"
 5814      7800
 5815              	.LASF207:
 5816 0d87 6C765F63 		.ascii	"lv_color_t\000"
 5816      6F6C6F72 
 5816      5F7400
 5817              	.LASF262:
 5818 0d92 73686164 		.ascii	"shadow\000"
 5818      6F7700
 5819              	.LASF64:
 5820 0d99 666C6173 		.ascii	"flashProgramDelay\000"
 5820      6850726F 
 5820      6772616D 
 5820      44656C61 
 5820      7900
 5821              	.LASF183:
 5822 0dab 52657365 		.ascii	"Reset\000"
 5822      7400
 5823              	.LASF136:
 5824 0db1 736C6176 		.ascii	"slaveRxBufferSize\000"
 5824      65527842 
 5824      75666665 
 5824      7253697A 
 5824      6500
 5825              	.LASF285:
 5826 0dc3 4C565F45 		.ascii	"LV_EVENT_CLICKED\000"
 5826      56454E54 
 5826      5F434C49 
 5826      434B4544 
ARM GAS  C:\Users\tmj32\AppData\Local\Temp\ccmPTl49.s 			page 134


 5826      00
 5827              	.LASF384:
 5828 0dd4 73776974 		.ascii	"switchLabel\000"
 5828      63684C61 
 5828      62656C00 
 5829              	.LASF203:
 5830 0de0 67726565 		.ascii	"green\000"
 5830      6E00
 5831              	.LASF7:
 5832 0de6 73686F72 		.ascii	"short unsigned int\000"
 5832      7420756E 
 5832      7369676E 
 5832      65642069 
 5832      6E7400
 5833              	.LASF15:
 5834 0df9 6C6F6E67 		.ascii	"long double\000"
 5834      20646F75 
 5834      626C6500 
 5835              	.LASF21:
 5836 0e05 75696E74 		.ascii	"uint16_t\000"
 5836      31365F74 
 5836      00
 5837              	.LASF28:
 5838 0e0e 70726F74 		.ascii	"protBase\000"
 5838      42617365 
 5838      00
 5839              	.LASF156:
 5840 0e17 72756E4D 		.ascii	"runMode\000"
 5840      6F646500 
 5841              	.LASF78:
 5842 0e1f 70657269 		.ascii	"periTrCmdGrSelMsk\000"
 5842      5472436D 
 5842      64477253 
 5842      656C4D73 
 5842      6B00
 5843              	.LASF125:
 5844 0e31 6D617374 		.ascii	"masterBuffer\000"
 5844      65724275 
 5844      66666572 
 5844      00
 5845              	.LASF371:
 5846 0e3e 74726967 		.ascii	"trigger_slider_event_cb\000"
 5846      6765725F 
 5846      736C6964 
 5846      65725F65 
 5846      76656E74 
 5847              	.LASF364:
 5848 0e56 63686172 		.ascii	"chart_heigth\000"
 5848      745F6865 
 5848      69677468 
 5848      00
 5849              	.LASF312:
 5850 0e63 4C565F41 		.ascii	"LV_ALIGN_OUT_TOP_LEFT\000"
 5850      4C49474E 
 5850      5F4F5554 
 5850      5F544F50 
 5850      5F4C4546 
ARM GAS  C:\Users\tmj32\AppData\Local\Temp\ccmPTl49.s 			page 135


 5851              	.LASF173:
 5852 0e79 63795F73 		.ascii	"cy_stc_tcpwm_counter_config_t\000"
 5852      74635F74 
 5852      6370776D 
 5852      5F636F75 
 5852      6E746572 
 5853              	.LASF40:
 5854 0e97 69706356 		.ascii	"ipcVersion\000"
 5854      65727369 
 5854      6F6E00
 5855              	.LASF397:
 5856 0ea2 73746172 		.ascii	"startup\000"
 5856      74757000 
 5857              	.LASF68:
 5858 0eaa 666C6173 		.ascii	"flashCtlMainWs2Freq\000"
 5858      6843746C 
 5858      4D61696E 
 5858      57733246 
 5858      72657100 
 5859              	.LASF77:
 5860 0ebe 70657269 		.ascii	"periTrCmdOffset\000"
 5860      5472436D 
 5860      644F6666 
 5860      73657400 
 5861              	.LASF361:
 5862 0ece 6C765F73 		.ascii	"lv_slider_set_range\000"
 5862      6C696465 
 5862      725F7365 
 5862      745F7261 
 5862      6E676500 
 5863              	.LASF387:
 5864 0ee2 686F7269 		.ascii	"horiLabel1\000"
 5864      4C616265 
 5864      6C3100
 5865              	.LASF380:
 5866 0eed 686F7269 		.ascii	"horiLabel2\000"
 5866      4C616265 
 5866      6C3200
 5867              	.LASF16:
 5868 0ef8 73697A65 		.ascii	"sizetype\000"
 5868      74797065 
 5868      00
 5869              	.LASF244:
 5870 0f01 6C765F66 		.ascii	"lv_font_t\000"
 5870      6F6E745F 
 5870      7400
 5871              	.LASF266:
 5872 0f0b 6C657474 		.ascii	"letter_space\000"
 5872      65725F73 
 5872      70616365 
 5872      00
 5873              	.LASF103:
 5874 0f18 63707573 		.ascii	"cpussCm4NmiCtlOffset\000"
 5874      73436D34 
 5874      4E6D6943 
 5874      746C4F66 
 5874      66736574 
ARM GAS  C:\Users\tmj32\AppData\Local\Temp\ccmPTl49.s 			page 136


 5875              	.LASF258:
 5876 0f2d 6D61696E 		.ascii	"main_color\000"
 5876      5F636F6C 
 5876      6F7200
 5877              	.LASF85:
 5878 0f38 70657269 		.ascii	"periDiv8CtlOffset\000"
 5878      44697638 
 5878      43746C4F 
 5878      66667365 
 5878      7400
 5879              	.LASF286:
 5880 0f4a 4C565F45 		.ascii	"LV_EVENT_RELEASED\000"
 5880      56454E54 
 5880      5F52454C 
 5880      45415345 
 5880      4400
 5881              	.LASF305:
 5882 0f5c 4C565F41 		.ascii	"LV_ALIGN_IN_TOP_MID\000"
 5882      4C49474E 
 5882      5F494E5F 
 5882      544F505F 
 5882      4D494400 
 5883              	.LASF5:
 5884 0f70 73686F72 		.ascii	"short int\000"
 5884      7420696E 
 5884      7400
 5885              	.LASF86:
 5886 0f7a 70657269 		.ascii	"periDiv16CtlOffset\000"
 5886      44697631 
 5886      3643746C 
 5886      4F666673 
 5886      657400
 5887              	.LASF212:
 5888 0f8d 636F6F72 		.ascii	"coords\000"
 5888      647300
 5889              	.LASF162:
 5890 0f94 696E7465 		.ascii	"interruptSources\000"
 5890      72727570 
 5890      74536F75 
 5890      72636573 
 5890      00
 5891              	.LASF313:
 5892 0fa5 4C565F41 		.ascii	"LV_ALIGN_OUT_TOP_MID\000"
 5892      4C49474E 
 5892      5F4F5554 
 5892      5F544F50 
 5892      5F4D4944 
 5893              	.LASF208:
 5894 0fba 6C765F6F 		.ascii	"lv_opa_t\000"
 5894      70615F74 
 5894      00
 5895              	.LASF35:
 5896 0fc3 63727970 		.ascii	"cryptoVersion\000"
 5896      746F5665 
 5896      7273696F 
 5896      6E00
 5897              	.LASF193:
ARM GAS  C:\Users\tmj32\AppData\Local\Temp\ccmPTl49.s 			page 137


 5898 0fd1 52616D52 		.ascii	"RamReadBuffer\000"
 5898      65616442 
 5898      75666665 
 5898      7200
 5899              	.LASF339:
 5900 0fdf 5F4C565F 		.ascii	"_LV_BTN_STATE_NUM\000"
 5900      42544E5F 
 5900      53544154 
 5900      455F4E55 
 5900      4D00
 5901              	.LASF390:
 5902 0ff1 49544D5F 		.ascii	"ITM_RxBuffer\000"
 5902      52784275 
 5902      66666572 
 5902      00
 5903              	.LASF171:
 5904 0ffe 636F756E 		.ascii	"countInputMode\000"
 5904      74496E70 
 5904      75744D6F 
 5904      646500
 5905              	.LASF38:
 5906 100d 6770696F 		.ascii	"gpioVersion\000"
 5906      56657273 
 5906      696F6E00 
 5907              	.LASF37:
 5908 1019 666C6173 		.ascii	"flashcVersion\000"
 5908      68635665 
 5908      7273696F 
 5908      6E00
 5909              	.LASF59:
 5910 1027 70726F74 		.ascii	"protBusMasterMask\000"
 5910      4275734D 
 5910      61737465 
 5910      724D6173 
 5910      6B00
 5911              	.LASF354:
 5912 1039 6C765F63 		.ascii	"lv_chart_series_t\000"
 5912      68617274 
 5912      5F736572 
 5912      6965735F 
 5912      7400
 5913              	.LASF157:
 5914 104b 636F756E 		.ascii	"countDirection\000"
 5914      74446972 
 5914      65637469 
 5914      6F6E00
 5915              	.LASF261:
 5916 105a 626F7264 		.ascii	"border\000"
 5916      657200
 5917              	.LASF280:
 5918 1061 4C565F45 		.ascii	"LV_EVENT_PRESSING\000"
 5918      56454E54 
 5918      5F505245 
 5918      5353494E 
 5918      4700
 5919              	.LASF202:
 5920 1073 626C7565 		.ascii	"blue\000"
ARM GAS  C:\Users\tmj32\AppData\Local\Temp\ccmPTl49.s 			page 138


 5920      00
 5921              	.LASF403:
 5922 1078 686F6D65 		.ascii	"home_screen\000"
 5922      5F736372 
 5922      65656E00 
 5923              	.LASF383:
 5924 1084 77696E64 		.ascii	"windowSlider\000"
 5924      6F77536C 
 5924      69646572 
 5924      00
 5925              	.LASF349:
 5926 1091 4C565F43 		.ascii	"LV_CHART_TYPE_POINT\000"
 5926      48415254 
 5926      5F545950 
 5926      455F504F 
 5926      494E5400 
 5927              	.LASF195:
 5928 10a5 6C765F63 		.ascii	"lv_coord_t\000"
 5928      6F6F7264 
 5928      5F7400
 5929              	.LASF223:
 5930 10b0 6F70615F 		.ascii	"opa_scale_en\000"
 5930      7363616C 
 5930      655F656E 
 5930      00
 5931              	.LASF353:
 5932 10bd 73746172 		.ascii	"start_point\000"
 5932      745F706F 
 5932      696E7400 
 5933              	.LASF248:
 5934 10c9 6C765F62 		.ascii	"lv_border_part_t\000"
 5934      6F726465 
 5934      725F7061 
 5934      72745F74 
 5934      00
 5935              	.LASF255:
 5936 10da 6C656674 		.ascii	"left\000"
 5936      00
 5937              	.LASF268:
 5938 10df 696E7465 		.ascii	"intense\000"
 5938      6E736500 
 5939              	.LASF98:
 5940 10e7 63707573 		.ascii	"cpussCm4PwrCtlOffset\000"
 5940      73436D34 
 5940      50777243 
 5940      746C4F66 
 5940      66736574 
 5941              	.LASF1:
 5942 10fc 5F5F7569 		.ascii	"__uint8_t\000"
 5942      6E74385F 
 5942      7400
 5943              	.LASF334:
 5944 1106 4C565F42 		.ascii	"LV_BTN_STATE_REL\000"
 5944      544E5F53 
 5944      54415445 
 5944      5F52454C 
 5944      00
ARM GAS  C:\Users\tmj32\AppData\Local\Temp\ccmPTl49.s 			page 139


 5945              	.LASF179:
 5946 1117 54726967 		.ascii	"Trigger\000"
 5946      67657200 
 5947              	.LASF89:
 5948 111f 6770696F 		.ascii	"gpioPrtIntrCfgOffset\000"
 5948      50727449 
 5948      6E747243 
 5948      66674F66 
 5948      66736574 
 5949              	.LASF338:
 5950 1134 4C565F42 		.ascii	"LV_BTN_STATE_INA\000"
 5950      544E5F53 
 5950      54415445 
 5950      5F494E41 
 5950      00
 5951              	.LASF234:
 5952 1145 626F785F 		.ascii	"box_h\000"
 5952      6800
 5953              	.LASF291:
 5954 114b 4C565F45 		.ascii	"LV_EVENT_FOCUSED\000"
 5954      56454E54 
 5954      5F464F43 
 5954      55534544 
 5954      00
 5955              	.LASF95:
 5956 115c 63707573 		.ascii	"cpussCm4ClockCtlOffset\000"
 5956      73436D34 
 5956      436C6F63 
 5956      6B43746C 
 5956      4F666673 
 5957              	.LASF322:
 5958 1173 4C565F41 		.ascii	"LV_ALIGN_OUT_RIGHT_MID\000"
 5958      4C49474E 
 5958      5F4F5554 
 5958      5F524947 
 5958      48545F4D 
 5959              	.LASF100:
 5960 118a 63707573 		.ascii	"cpussTrimRomCtlOffset\000"
 5960      73547269 
 5960      6D526F6D 
 5960      43746C4F 
 5960      66667365 
 5961              	.LASF39:
 5962 11a0 6873696F 		.ascii	"hsiomVersion\000"
 5962      6D566572 
 5962      73696F6E 
 5962      00
 5963              	.LASF209:
 5964 11ad 6C765F61 		.ascii	"lv_area_t\000"
 5964      7265615F 
 5964      7400
 5965              	.LASF11:
 5966 11b7 6C6F6E67 		.ascii	"long unsigned int\000"
 5966      20756E73 
 5966      69676E65 
 5966      6420696E 
 5966      7400
ARM GAS  C:\Users\tmj32\AppData\Local\Temp\ccmPTl49.s 			page 140


 5967              	.LASF176:
 5968 11c9 43687269 		.ascii	"ChrisReg\000"
 5968      73526567 
 5968      00
 5969              	.LASF104:
 5970 11d2 63707573 		.ascii	"cpussRomCtl\000"
 5970      73526F6D 
 5970      43746C00 
 5971              	.LASF233:
 5972 11de 626F785F 		.ascii	"box_w\000"
 5972      7700
 5973              	.LASF307:
 5974 11e4 4C565F41 		.ascii	"LV_ALIGN_IN_BOTTOM_LEFT\000"
 5974      4C49474E 
 5974      5F494E5F 
 5974      424F5454 
 5974      4F4D5F4C 
 5975              	.LASF306:
 5976 11fc 4C565F41 		.ascii	"LV_ALIGN_IN_TOP_RIGHT\000"
 5976      4C49474E 
 5976      5F494E5F 
 5976      544F505F 
 5976      52494748 
 5977              	.LASF242:
 5978 1212 62617365 		.ascii	"base_line\000"
 5978      5F6C696E 
 5978      6500
 5979              	.LASF245:
 5980 121c 4C565F41 		.ascii	"LV_ANIM_OFF\000"
 5980      4E494D5F 
 5980      4F464600 
 5981              	.LASF260:
 5982 1228 72616469 		.ascii	"radius\000"
 5982      757300
 5983              	.LASF229:
 5984 122f 6F70615F 		.ascii	"opa_scale\000"
 5984      7363616C 
 5984      6500
 5985              	.LASF271:
 5986 1239 626F6479 		.ascii	"body\000"
 5986      00
 5987              	.LASF301:
 5988 123e 6C765F73 		.ascii	"lv_signal_t\000"
 5988      69676E61 
 5988      6C5F7400 
 5989              	.LASF399:
 5990 124a 686F6D65 		.ascii	"home_screen.c\000"
 5990      5F736372 
 5990      65656E2E 
 5990      6300
 5991              	.LASF228:
 5992 1258 70726F74 		.ascii	"protect\000"
 5992      65637400 
 5993              	.LASF36:
 5994 1260 64775665 		.ascii	"dwVersion\000"
 5994      7273696F 
 5994      6E00
ARM GAS  C:\Users\tmj32\AppData\Local\Temp\ccmPTl49.s 			page 141


 5995              	.LASF3:
 5996 126a 756E7369 		.ascii	"unsigned char\000"
 5996      676E6564 
 5996      20636861 
 5996      7200
 5997              	.LASF10:
 5998 1278 5F5F7569 		.ascii	"__uint32_t\000"
 5998      6E743332 
 5998      5F7400
 5999              	.LASF289:
 6000 1283 4C565F45 		.ascii	"LV_EVENT_DRAG_THROW_BEGIN\000"
 6000      56454E54 
 6000      5F445241 
 6000      475F5448 
 6000      524F575F 
 6001              	.LASF188:
 6002 129d 486F7269 		.ascii	"HoriScale\000"
 6002      5363616C 
 6002      6500
 6003              	.LASF174:
 6004 12a7 5350495F 		.ascii	"SPI_parameters\000"
 6004      70617261 
 6004      6D657465 
 6004      727300
 6005              	.LASF274:
 6006 12b6 6C696E65 		.ascii	"line\000"
 6006      00
 6007              	.LASF172:
 6008 12bb 636F756E 		.ascii	"countInput\000"
 6008      74496E70 
 6008      757400
 6009              	.LASF381:
 6010 12c6 76657274 		.ascii	"vertSlider\000"
 6010      536C6964 
 6010      657200
 6011              	.LASF314:
 6012 12d1 4C565F41 		.ascii	"LV_ALIGN_OUT_TOP_RIGHT\000"
 6012      4C49474E 
 6012      5F4F5554 
 6012      5F544F50 
 6012      5F524947 
 6013              	.LASF240:
 6014 12e8 6765745F 		.ascii	"get_glyph_bitmap\000"
 6014      676C7970 
 6014      685F6269 
 6014      746D6170 
 6014      00
 6015              	.LASF200:
 6016 12f9 7461696C 		.ascii	"tail\000"
 6016      00
 6017              	.LASF194:
 6018 12fe 52656742 		.ascii	"RegBuffer\000"
 6018      75666665 
 6018      7200
 6019              	.LASF65:
 6020 1308 666C6173 		.ascii	"flashEraseDelay\000"
 6020      68457261 
ARM GAS  C:\Users\tmj32\AppData\Local\Temp\ccmPTl49.s 			page 142


 6020      73654465 
 6020      6C617900 
 6021              	.LASF211:
 6022 1318 6368696C 		.ascii	"child_ll\000"
 6022      645F6C6C 
 6022      00
 6023              	.LASF395:
 6024 1321 74636E6A 		.ascii	"tcnj_blue\000"
 6024      5F626C75 
 6024      6500
 6025              	.LASF346:
 6026 132b 4C565F43 		.ascii	"LV_CHART_TYPE_NONE\000"
 6026      48415254 
 6026      5F545950 
 6026      455F4E4F 
 6026      4E4500
 6027              	.LASF121:
 6028 133e 73746174 		.ascii	"state\000"
 6028      6500
 6029              	.LASF277:
 6030 1344 6C765F64 		.ascii	"lv_design_mode_t\000"
 6030      65736967 
 6030      6E5F6D6F 
 6030      64655F74 
 6030      00
 6031              	.LASF25:
 6032 1355 666C6173 		.ascii	"flashcBase\000"
 6032      68634261 
 6032      736500
 6033              	.LASF345:
 6034 1360 4C565F4C 		.ascii	"LV_LABEL_LONG_CROP\000"
 6034      4142454C 
 6034      5F4C4F4E 
 6034      475F4352 
 6034      4F5000
 6035              	.LASF213:
 6036 1373 6576656E 		.ascii	"event_cb\000"
 6036      745F6362 
 6036      00
 6037              	.LASF215:
 6038 137c 64657369 		.ascii	"design_cb\000"
 6038      676E5F63 
 6038      6200
 6039              	.LASF61:
 6040 1386 666C6173 		.ascii	"flashRwwRequired\000"
 6040      68527777 
 6040      52657175 
 6040      69726564 
 6040      00
 6041              	.LASF90:
 6042 1397 6770696F 		.ascii	"gpioPrtCfgOffset\000"
 6042      50727443 
 6042      66674F66 
 6042      66736574 
 6042      00
 6043              	.LASF247:
 6044 13a8 6C765F61 		.ascii	"lv_anim_enable_t\000"
ARM GAS  C:\Users\tmj32\AppData\Local\Temp\ccmPTl49.s 			page 143


 6044      6E696D5F 
 6044      656E6162 
 6044      6C655F74 
 6044      00
 6045              	.LASF216:
 6046 13b9 6578745F 		.ascii	"ext_attr\000"
 6046      61747472 
 6046      00
 6047              	.LASF67:
 6048 13c2 666C6173 		.ascii	"flashCtlMainWs1Freq\000"
 6048      6843746C 
 6048      4D61696E 
 6048      57733146 
 6048      72657100 
 6049              	.LASF182:
 6050 13d6 6F6E4269 		.ascii	"onBit\000"
 6050      7400
 6051              	.LASF47:
 6052 13dc 63707573 		.ascii	"cpussIpc0Irq\000"
 6052      73497063 
 6052      30497271 
 6052      00
 6053              	.LASF2:
 6054 13e9 7369676E 		.ascii	"signed char\000"
 6054      65642063 
 6054      68617200 
 6055              	.LASF154:
 6056 13f5 70657269 		.ascii	"period\000"
 6056      6F6400
 6057              	.LASF222:
 6058 13fc 68696464 		.ascii	"hidden\000"
 6058      656E00
 6059              	.LASF71:
 6060 1403 64774368 		.ascii	"dwChOffset\000"
 6060      4F666673 
 6060      657400
 6061              	.LASF44:
 6062 140e 63707573 		.ascii	"cpussIpcIrqNr\000"
 6062      73497063 
 6062      4972714E 
 6062      7200
 6063              	.LASF153:
 6064 141c 63795F73 		.ascii	"cy_stc_tcpwm_counter_config\000"
 6064      74635F74 
 6064      6370776D 
 6064      5F636F75 
 6064      6E746572 
 6065              	.LASF74:
 6066 1438 64774368 		.ascii	"dwChCtlPreemptablePos\000"
 6066      43746C50 
 6066      7265656D 
 6066      70746162 
 6066      6C65506F 
 6067              	.LASF180:
 6068 144e 54726967 		.ascii	"TriggerSlope\000"
 6068      67657253 
 6068      6C6F7065 
ARM GAS  C:\Users\tmj32\AppData\Local\Temp\ccmPTl49.s 			page 144


 6068      00
 6069              	.LASF0:
 6070 145b 5F5F696E 		.ascii	"__int8_t\000"
 6070      74385F74 
 6070      00
 6071              	.LASF362:
 6072 1464 6C765F73 		.ascii	"lv_sw_get_state\000"
 6072      775F6765 
 6072      745F7374 
 6072      61746500 
 6073              	.LASF320:
 6074 1474 4C565F41 		.ascii	"LV_ALIGN_OUT_LEFT_BOTTOM\000"
 6074      4C49474E 
 6074      5F4F5554 
 6074      5F4C4546 
 6074      545F424F 
 6075              	.LASF110:
 6076 148d 63795F73 		.ascii	"cy_stc_device_t\000"
 6076      74635F64 
 6076      65766963 
 6076      655F7400 
 6077              	.LASF227:
 6078 149d 72657365 		.ascii	"reserved\000"
 6078      72766564 
 6078      00
 6079              	.LASF284:
 6080 14a6 4C565F45 		.ascii	"LV_EVENT_LONG_PRESSED_REPEAT\000"
 6080      56454E54 
 6080      5F4C4F4E 
 6080      475F5052 
 6080      45535345 
 6081              	.LASF350:
 6082 14c3 4C565F43 		.ascii	"LV_CHART_TYPE_VERTICAL_LINE\000"
 6082      48415254 
 6082      5F545950 
 6082      455F5645 
 6082      52544943 
 6083              	.LASF143:
 6084 14df 63795F73 		.ascii	"cy_stc_scb_spi_context\000"
 6084      74635F73 
 6084      63625F73 
 6084      70695F63 
 6084      6F6E7465 
 6085              	.LASF112:
 6086 14f6 646F7562 		.ascii	"double\000"
 6086      6C6500
 6087              	.LASF219:
 6088 14fd 64726167 		.ascii	"drag\000"
 6088      00
 6089              	.LASF366:
 6090 1502 63686172 		.ascii	"chart_horiPos\000"
 6090      745F686F 
 6090      7269506F 
 6090      7300
 6091              	.LASF87:
 6092 1510 70657269 		.ascii	"periDiv16_5CtlOffset\000"
 6092      44697631 
ARM GAS  C:\Users\tmj32\AppData\Local\Temp\ccmPTl49.s 			page 145


 6092      365F3543 
 6092      746C4F66 
 6092      66736574 
 6093              	.LASF45:
 6094 1525 63707573 		.ascii	"cpussDwChNr\000"
 6094      73447743 
 6094      684E7200 
 6095              	.LASF140:
 6096 1531 63795F73 		.ascii	"cy_stc_scb_i2c_context_t\000"
 6096      74635F73 
 6096      63625F69 
 6096      32635F63 
 6096      6F6E7465 
 6097              	.LASF214:
 6098 154a 7369676E 		.ascii	"signal_cb\000"
 6098      616C5F63 
 6098      6200
 6099              	.LASF70:
 6100 1554 666C6173 		.ascii	"flashCtlMainWs4Freq\000"
 6100      6843746C 
 6100      4D61696E 
 6100      57733446 
 6100      72657100 
 6101              	.LASF187:
 6102 1568 77696E64 		.ascii	"windowMax\000"
 6102      6F774D61 
 6102      7800
 6103              	.LASF336:
 6104 1572 4C565F42 		.ascii	"LV_BTN_STATE_TGL_REL\000"
 6104      544E5F53 
 6104      54415445 
 6104      5F54474C 
 6104      5F52454C 
 6105              	.LASF282:
 6106 1587 4C565F45 		.ascii	"LV_EVENT_SHORT_CLICKED\000"
 6106      56454E54 
 6106      5F53484F 
 6106      52545F43 
 6106      4C49434B 
 6107              	.LASF351:
 6108 159e 4C565F43 		.ascii	"LV_CHART_TYPE_AREA\000"
 6108      48415254 
 6108      5F545950 
 6108      455F4152 
 6108      454100
 6109              	.LASF398:
 6110 15b1 474E5520 		.ascii	"GNU C11 5.4.1 20160609 (release) [ARM/embedded-5-br"
 6110      43313120 
 6110      352E342E 
 6110      31203230 
 6110      31363036 
 6111 15e4 616E6368 		.ascii	"anch revision 237715] -mcpu=cortex-m4 -mfloat-abi=s"
 6111      20726576 
 6111      6973696F 
 6111      6E203233 
 6111      37373135 
 6112 1617 6F667466 		.ascii	"oftfp -mfpu=fpv4-sp-d16 -mthumb -g -O0 -ffunction-s"
ARM GAS  C:\Users\tmj32\AppData\Local\Temp\ccmPTl49.s 			page 146


 6112      70202D6D 
 6112      6670753D 
 6112      66707634 
 6112      2D73702D 
 6113 164a 65637469 		.ascii	"ections -ffat-lto-objects\000"
 6113      6F6E7320 
 6113      2D666661 
 6113      742D6C74 
 6113      6F2D6F62 
 6114              	.LASF328:
 6115 1664 616C6967 		.ascii	"align\000"
 6115      6E00
 6116              	.LASF177:
 6117 166a 5368616E 		.ascii	"ShannonReg\000"
 6117      6E6F6E52 
 6117      656700
 6118              	.LASF97:
 6119 1675 63707573 		.ascii	"cpussCm0StatusOffset\000"
 6119      73436D30 
 6119      53746174 
 6119      75734F66 
 6119      66736574 
 6120              	.LASF352:
 6121 168a 706F696E 		.ascii	"points\000"
 6121      747300
 6122              	.LASF304:
 6123 1691 4C565F41 		.ascii	"LV_ALIGN_IN_TOP_LEFT\000"
 6123      4C49474E 
 6123      5F494E5F 
 6123      544F505F 
 6123      4C454654 
 6124              	.LASF283:
 6125 16a6 4C565F45 		.ascii	"LV_EVENT_LONG_PRESSED\000"
 6125      56454E54 
 6125      5F4C4F4E 
 6125      475F5052 
 6125      45535345 
 6126              	.LASF300:
 6127 16bc 6C765F65 		.ascii	"lv_event_cb_t\000"
 6127      76656E74 
 6127      5F63625F 
 6127      7400
 6128              	.LASF34:
 6129 16ca 63707573 		.ascii	"cpussVersion\000"
 6129      73566572 
 6129      73696F6E 
 6129      00
 6130              	.LASF331:
 6131 16d7 6C765F72 		.ascii	"lv_reailgn_t\000"
 6131      6561696C 
 6131      676E5F74 
 6131      00
 6132              	.LASF146:
 6133 16e4 72784275 		.ascii	"rxBufSize\000"
 6133      6653697A 
 6133      6500
 6134              	.LASF232:
ARM GAS  C:\Users\tmj32\AppData\Local\Temp\ccmPTl49.s 			page 147


 6135 16ee 6164765F 		.ascii	"adv_w\000"
 6135      7700
 6136              	.LASF129:
 6137 16f4 736C6176 		.ascii	"slaveStatus\000"
 6137      65537461 
 6137      74757300 
 6138              	.LASF376:
 6139 1700 6F666673 		.ascii	"offsetLabel2\000"
 6139      65744C61 
 6139      62656C32 
 6139      00
 6140              		.ident	"GCC: (GNU Tools for ARM Embedded Processors) 5.4.1 20160609 (release) [ARM/embedded-5-bran
