ARM GAS  C:\Users\tmj32\AppData\Local\Temp\ccs01wAd.s 			page 1


   1              		.syntax unified
   2              		.cpu cortex-m4
   3              		.eabi_attribute 27, 1
   4              		.fpu fpv4-sp-d16
   5              		.eabi_attribute 20, 1
   6              		.eabi_attribute 21, 1
   7              		.eabi_attribute 23, 3
   8              		.eabi_attribute 24, 1
   9              		.eabi_attribute 25, 1
  10              		.eabi_attribute 26, 1
  11              		.eabi_attribute 30, 6
  12              		.eabi_attribute 34, 1
  13              		.eabi_attribute 18, 4
  14              		.thumb
  15              		.syntax unified
  16              		.file	"home_screen.c"
  17              		.text
  18              	.Ltext0:
  19              		.cfi_sections	.debug_frame
  20              		.comm	cm4,2112,4
  21              		.section	.text.lv_color_make,"ax",%progbits
  22              		.align	2
  23              		.thumb
  24              		.thumb_func
  25              		.type	lv_color_make, %function
  26              	lv_color_make:
  27              	.LFB588:
  28              		.file 1 "..\\..\\..\\lvgl\\version_6.1.2\\lvgl/src/lv_hal/../lv_misc/lv_color.h"
   1:..\..\..\lvgl\version_6.1.2\lvgl/src/lv_hal/../lv_misc/lv_color.h **** /**
   2:..\..\..\lvgl\version_6.1.2\lvgl/src/lv_hal/../lv_misc/lv_color.h ****  * @file lv_color.h
   3:..\..\..\lvgl\version_6.1.2\lvgl/src/lv_hal/../lv_misc/lv_color.h ****  *
   4:..\..\..\lvgl\version_6.1.2\lvgl/src/lv_hal/../lv_misc/lv_color.h ****  */
   5:..\..\..\lvgl\version_6.1.2\lvgl/src/lv_hal/../lv_misc/lv_color.h **** 
   6:..\..\..\lvgl\version_6.1.2\lvgl/src/lv_hal/../lv_misc/lv_color.h **** #ifndef LV_COLOR_H
   7:..\..\..\lvgl\version_6.1.2\lvgl/src/lv_hal/../lv_misc/lv_color.h **** #define LV_COLOR_H
   8:..\..\..\lvgl\version_6.1.2\lvgl/src/lv_hal/../lv_misc/lv_color.h **** 
   9:..\..\..\lvgl\version_6.1.2\lvgl/src/lv_hal/../lv_misc/lv_color.h **** #ifdef __cplusplus
  10:..\..\..\lvgl\version_6.1.2\lvgl/src/lv_hal/../lv_misc/lv_color.h **** extern "C" {
  11:..\..\..\lvgl\version_6.1.2\lvgl/src/lv_hal/../lv_misc/lv_color.h **** #endif
  12:..\..\..\lvgl\version_6.1.2\lvgl/src/lv_hal/../lv_misc/lv_color.h **** 
  13:..\..\..\lvgl\version_6.1.2\lvgl/src/lv_hal/../lv_misc/lv_color.h **** /*********************
  14:..\..\..\lvgl\version_6.1.2\lvgl/src/lv_hal/../lv_misc/lv_color.h ****  *      INCLUDES
  15:..\..\..\lvgl\version_6.1.2\lvgl/src/lv_hal/../lv_misc/lv_color.h ****  *********************/
  16:..\..\..\lvgl\version_6.1.2\lvgl/src/lv_hal/../lv_misc/lv_color.h **** #ifdef LV_CONF_INCLUDE_SIMPLE
  17:..\..\..\lvgl\version_6.1.2\lvgl/src/lv_hal/../lv_misc/lv_color.h **** #include "lv_conf.h"
  18:..\..\..\lvgl\version_6.1.2\lvgl/src/lv_hal/../lv_misc/lv_color.h **** #else
  19:..\..\..\lvgl\version_6.1.2\lvgl/src/lv_hal/../lv_misc/lv_color.h **** #include "../../../lv_conf.h"
  20:..\..\..\lvgl\version_6.1.2\lvgl/src/lv_hal/../lv_misc/lv_color.h **** #endif
  21:..\..\..\lvgl\version_6.1.2\lvgl/src/lv_hal/../lv_misc/lv_color.h **** 
  22:..\..\..\lvgl\version_6.1.2\lvgl/src/lv_hal/../lv_misc/lv_color.h **** /*Error checking*/
  23:..\..\..\lvgl\version_6.1.2\lvgl/src/lv_hal/../lv_misc/lv_color.h **** #if LV_COLOR_DEPTH == 24
  24:..\..\..\lvgl\version_6.1.2\lvgl/src/lv_hal/../lv_misc/lv_color.h **** #error "LV_COLOR_DEPTH  24 is deprecated. Use LV_COLOR_DEPTH  32 instead (lv_conf.h)"
  25:..\..\..\lvgl\version_6.1.2\lvgl/src/lv_hal/../lv_misc/lv_color.h **** #endif
  26:..\..\..\lvgl\version_6.1.2\lvgl/src/lv_hal/../lv_misc/lv_color.h **** 
  27:..\..\..\lvgl\version_6.1.2\lvgl/src/lv_hal/../lv_misc/lv_color.h **** #if LV_COLOR_DEPTH != 32 && LV_COLOR_SCREEN_TRANSP != 0
  28:..\..\..\lvgl\version_6.1.2\lvgl/src/lv_hal/../lv_misc/lv_color.h **** #error "LV_COLOR_SCREEN_TRANSP requires LV_COLOR_DEPTH == 32. Set it in lv_conf.h"
  29:..\..\..\lvgl\version_6.1.2\lvgl/src/lv_hal/../lv_misc/lv_color.h **** #endif
ARM GAS  C:\Users\tmj32\AppData\Local\Temp\ccs01wAd.s 			page 2


  30:..\..\..\lvgl\version_6.1.2\lvgl/src/lv_hal/../lv_misc/lv_color.h **** 
  31:..\..\..\lvgl\version_6.1.2\lvgl/src/lv_hal/../lv_misc/lv_color.h **** #if LV_COLOR_DEPTH != 16 && LV_COLOR_16_SWAP != 0
  32:..\..\..\lvgl\version_6.1.2\lvgl/src/lv_hal/../lv_misc/lv_color.h **** #error "LV_COLOR_16_SWAP requires LV_COLOR_DEPTH == 16. Set it in lv_conf.h"
  33:..\..\..\lvgl\version_6.1.2\lvgl/src/lv_hal/../lv_misc/lv_color.h **** #endif
  34:..\..\..\lvgl\version_6.1.2\lvgl/src/lv_hal/../lv_misc/lv_color.h **** 
  35:..\..\..\lvgl\version_6.1.2\lvgl/src/lv_hal/../lv_misc/lv_color.h **** #include <stdint.h>
  36:..\..\..\lvgl\version_6.1.2\lvgl/src/lv_hal/../lv_misc/lv_color.h **** 
  37:..\..\..\lvgl\version_6.1.2\lvgl/src/lv_hal/../lv_misc/lv_color.h **** /*********************
  38:..\..\..\lvgl\version_6.1.2\lvgl/src/lv_hal/../lv_misc/lv_color.h ****  *      DEFINES
  39:..\..\..\lvgl\version_6.1.2\lvgl/src/lv_hal/../lv_misc/lv_color.h ****  *********************/
  40:..\..\..\lvgl\version_6.1.2\lvgl/src/lv_hal/../lv_misc/lv_color.h **** #define LV_COLOR_WHITE LV_COLOR_MAKE(0xFF, 0xFF, 0xFF)
  41:..\..\..\lvgl\version_6.1.2\lvgl/src/lv_hal/../lv_misc/lv_color.h **** #define LV_COLOR_SILVER LV_COLOR_MAKE(0xC0, 0xC0, 0xC0)
  42:..\..\..\lvgl\version_6.1.2\lvgl/src/lv_hal/../lv_misc/lv_color.h **** #define LV_COLOR_GRAY LV_COLOR_MAKE(0x80, 0x80, 0x80)
  43:..\..\..\lvgl\version_6.1.2\lvgl/src/lv_hal/../lv_misc/lv_color.h **** #define LV_COLOR_BLACK LV_COLOR_MAKE(0x00, 0x00, 0x00)
  44:..\..\..\lvgl\version_6.1.2\lvgl/src/lv_hal/../lv_misc/lv_color.h **** #define LV_COLOR_RED LV_COLOR_MAKE(0xFF, 0x00, 0x00)
  45:..\..\..\lvgl\version_6.1.2\lvgl/src/lv_hal/../lv_misc/lv_color.h **** #define LV_COLOR_MAROON LV_COLOR_MAKE(0x80, 0x00, 0x00)
  46:..\..\..\lvgl\version_6.1.2\lvgl/src/lv_hal/../lv_misc/lv_color.h **** #define LV_COLOR_YELLOW LV_COLOR_MAKE(0xFF, 0xFF, 0x00)
  47:..\..\..\lvgl\version_6.1.2\lvgl/src/lv_hal/../lv_misc/lv_color.h **** #define LV_COLOR_OLIVE LV_COLOR_MAKE(0x80, 0x80, 0x00)
  48:..\..\..\lvgl\version_6.1.2\lvgl/src/lv_hal/../lv_misc/lv_color.h **** #define LV_COLOR_LIME LV_COLOR_MAKE(0x00, 0xFF, 0x00)
  49:..\..\..\lvgl\version_6.1.2\lvgl/src/lv_hal/../lv_misc/lv_color.h **** #define LV_COLOR_GREEN LV_COLOR_MAKE(0x00, 0x80, 0x00)
  50:..\..\..\lvgl\version_6.1.2\lvgl/src/lv_hal/../lv_misc/lv_color.h **** #define LV_COLOR_CYAN LV_COLOR_MAKE(0x00, 0xFF, 0xFF)
  51:..\..\..\lvgl\version_6.1.2\lvgl/src/lv_hal/../lv_misc/lv_color.h **** #define LV_COLOR_AQUA LV_COLOR_CYAN
  52:..\..\..\lvgl\version_6.1.2\lvgl/src/lv_hal/../lv_misc/lv_color.h **** #define LV_COLOR_TEAL LV_COLOR_MAKE(0x00, 0x80, 0x80)
  53:..\..\..\lvgl\version_6.1.2\lvgl/src/lv_hal/../lv_misc/lv_color.h **** #define LV_COLOR_BLUE LV_COLOR_MAKE(0x00, 0x00, 0xFF)
  54:..\..\..\lvgl\version_6.1.2\lvgl/src/lv_hal/../lv_misc/lv_color.h **** #define LV_COLOR_NAVY LV_COLOR_MAKE(0x00, 0x00, 0x80)
  55:..\..\..\lvgl\version_6.1.2\lvgl/src/lv_hal/../lv_misc/lv_color.h **** #define LV_COLOR_MAGENTA LV_COLOR_MAKE(0xFF, 0x00, 0xFF)
  56:..\..\..\lvgl\version_6.1.2\lvgl/src/lv_hal/../lv_misc/lv_color.h **** #define LV_COLOR_PURPLE LV_COLOR_MAKE(0x80, 0x00, 0x80)
  57:..\..\..\lvgl\version_6.1.2\lvgl/src/lv_hal/../lv_misc/lv_color.h **** #define LV_COLOR_ORANGE LV_COLOR_MAKE(0xFF, 0xA5, 0x00)
  58:..\..\..\lvgl\version_6.1.2\lvgl/src/lv_hal/../lv_misc/lv_color.h **** 
  59:..\..\..\lvgl\version_6.1.2\lvgl/src/lv_hal/../lv_misc/lv_color.h **** /**
  60:..\..\..\lvgl\version_6.1.2\lvgl/src/lv_hal/../lv_misc/lv_color.h ****  * Opacity percentages.
  61:..\..\..\lvgl\version_6.1.2\lvgl/src/lv_hal/../lv_misc/lv_color.h ****  */
  62:..\..\..\lvgl\version_6.1.2\lvgl/src/lv_hal/../lv_misc/lv_color.h **** enum {
  63:..\..\..\lvgl\version_6.1.2\lvgl/src/lv_hal/../lv_misc/lv_color.h ****     LV_OPA_TRANSP = 0,
  64:..\..\..\lvgl\version_6.1.2\lvgl/src/lv_hal/../lv_misc/lv_color.h ****     LV_OPA_0      = 0,
  65:..\..\..\lvgl\version_6.1.2\lvgl/src/lv_hal/../lv_misc/lv_color.h ****     LV_OPA_10     = 25,
  66:..\..\..\lvgl\version_6.1.2\lvgl/src/lv_hal/../lv_misc/lv_color.h ****     LV_OPA_20     = 51,
  67:..\..\..\lvgl\version_6.1.2\lvgl/src/lv_hal/../lv_misc/lv_color.h ****     LV_OPA_30     = 76,
  68:..\..\..\lvgl\version_6.1.2\lvgl/src/lv_hal/../lv_misc/lv_color.h ****     LV_OPA_40     = 102,
  69:..\..\..\lvgl\version_6.1.2\lvgl/src/lv_hal/../lv_misc/lv_color.h ****     LV_OPA_50     = 127,
  70:..\..\..\lvgl\version_6.1.2\lvgl/src/lv_hal/../lv_misc/lv_color.h ****     LV_OPA_60     = 153,
  71:..\..\..\lvgl\version_6.1.2\lvgl/src/lv_hal/../lv_misc/lv_color.h ****     LV_OPA_70     = 178,
  72:..\..\..\lvgl\version_6.1.2\lvgl/src/lv_hal/../lv_misc/lv_color.h ****     LV_OPA_80     = 204,
  73:..\..\..\lvgl\version_6.1.2\lvgl/src/lv_hal/../lv_misc/lv_color.h ****     LV_OPA_90     = 229,
  74:..\..\..\lvgl\version_6.1.2\lvgl/src/lv_hal/../lv_misc/lv_color.h ****     LV_OPA_100    = 255,
  75:..\..\..\lvgl\version_6.1.2\lvgl/src/lv_hal/../lv_misc/lv_color.h ****     LV_OPA_COVER  = 255,
  76:..\..\..\lvgl\version_6.1.2\lvgl/src/lv_hal/../lv_misc/lv_color.h **** };
  77:..\..\..\lvgl\version_6.1.2\lvgl/src/lv_hal/../lv_misc/lv_color.h **** 
  78:..\..\..\lvgl\version_6.1.2\lvgl/src/lv_hal/../lv_misc/lv_color.h **** #define LV_OPA_MIN 16  /*Opacities below this will be transparent*/
  79:..\..\..\lvgl\version_6.1.2\lvgl/src/lv_hal/../lv_misc/lv_color.h **** #define LV_OPA_MAX 251 /*Opacities above this will fully cover*/
  80:..\..\..\lvgl\version_6.1.2\lvgl/src/lv_hal/../lv_misc/lv_color.h **** 
  81:..\..\..\lvgl\version_6.1.2\lvgl/src/lv_hal/../lv_misc/lv_color.h **** #if LV_COLOR_DEPTH == 1
  82:..\..\..\lvgl\version_6.1.2\lvgl/src/lv_hal/../lv_misc/lv_color.h **** #define LV_COLOR_SIZE 8
  83:..\..\..\lvgl\version_6.1.2\lvgl/src/lv_hal/../lv_misc/lv_color.h **** #elif LV_COLOR_DEPTH == 8
  84:..\..\..\lvgl\version_6.1.2\lvgl/src/lv_hal/../lv_misc/lv_color.h **** #define LV_COLOR_SIZE 8
  85:..\..\..\lvgl\version_6.1.2\lvgl/src/lv_hal/../lv_misc/lv_color.h **** #elif LV_COLOR_DEPTH == 16
  86:..\..\..\lvgl\version_6.1.2\lvgl/src/lv_hal/../lv_misc/lv_color.h **** #define LV_COLOR_SIZE 16
ARM GAS  C:\Users\tmj32\AppData\Local\Temp\ccs01wAd.s 			page 3


  87:..\..\..\lvgl\version_6.1.2\lvgl/src/lv_hal/../lv_misc/lv_color.h **** #elif LV_COLOR_DEPTH == 32
  88:..\..\..\lvgl\version_6.1.2\lvgl/src/lv_hal/../lv_misc/lv_color.h **** #define LV_COLOR_SIZE 32
  89:..\..\..\lvgl\version_6.1.2\lvgl/src/lv_hal/../lv_misc/lv_color.h **** #else
  90:..\..\..\lvgl\version_6.1.2\lvgl/src/lv_hal/../lv_misc/lv_color.h **** #error "Invalid LV_COLOR_DEPTH in lv_conf.h! Set it to 1, 8, 16 or 32!"
  91:..\..\..\lvgl\version_6.1.2\lvgl/src/lv_hal/../lv_misc/lv_color.h **** #endif
  92:..\..\..\lvgl\version_6.1.2\lvgl/src/lv_hal/../lv_misc/lv_color.h **** 
  93:..\..\..\lvgl\version_6.1.2\lvgl/src/lv_hal/../lv_misc/lv_color.h **** /*---------------------------------------
  94:..\..\..\lvgl\version_6.1.2\lvgl/src/lv_hal/../lv_misc/lv_color.h ****  * Macros for all existing  color depths
  95:..\..\..\lvgl\version_6.1.2\lvgl/src/lv_hal/../lv_misc/lv_color.h ****  * to set/get values of the color channels
  96:..\..\..\lvgl\version_6.1.2\lvgl/src/lv_hal/../lv_misc/lv_color.h ****  *------------------------------------------*/
  97:..\..\..\lvgl\version_6.1.2\lvgl/src/lv_hal/../lv_misc/lv_color.h **** # define LV_COLOR_SET_R1(c, v) (c).ch.red = (uint8_t)((v) & 0x1);
  98:..\..\..\lvgl\version_6.1.2\lvgl/src/lv_hal/../lv_misc/lv_color.h **** # define LV_COLOR_SET_G1(c, v) (c).ch.green = (uint8_t)((v) & 0x1);
  99:..\..\..\lvgl\version_6.1.2\lvgl/src/lv_hal/../lv_misc/lv_color.h **** # define LV_COLOR_SET_B1(c, v) (c).ch.blue = (uint8_t)((v) & 0x1);
 100:..\..\..\lvgl\version_6.1.2\lvgl/src/lv_hal/../lv_misc/lv_color.h **** # define LV_COLOR_SET_A1(c, v)
 101:..\..\..\lvgl\version_6.1.2\lvgl/src/lv_hal/../lv_misc/lv_color.h **** 
 102:..\..\..\lvgl\version_6.1.2\lvgl/src/lv_hal/../lv_misc/lv_color.h **** # define LV_COLOR_GET_R1(c) (c).ch.red
 103:..\..\..\lvgl\version_6.1.2\lvgl/src/lv_hal/../lv_misc/lv_color.h **** # define LV_COLOR_GET_G1(c) (c).ch.green
 104:..\..\..\lvgl\version_6.1.2\lvgl/src/lv_hal/../lv_misc/lv_color.h **** # define LV_COLOR_GET_B1(c) (c).ch.blue
 105:..\..\..\lvgl\version_6.1.2\lvgl/src/lv_hal/../lv_misc/lv_color.h **** # define LV_COLOR_GET_A1(c) 1
 106:..\..\..\lvgl\version_6.1.2\lvgl/src/lv_hal/../lv_misc/lv_color.h **** 
 107:..\..\..\lvgl\version_6.1.2\lvgl/src/lv_hal/../lv_misc/lv_color.h **** # define LV_COLOR_SET_R8(c, v) (c).ch.red = (uint8_t)(v) & 0x7U;
 108:..\..\..\lvgl\version_6.1.2\lvgl/src/lv_hal/../lv_misc/lv_color.h **** # define LV_COLOR_SET_G8(c, v) (c).ch.green = (uint8_t)(v) & 0x7U;
 109:..\..\..\lvgl\version_6.1.2\lvgl/src/lv_hal/../lv_misc/lv_color.h **** # define LV_COLOR_SET_B8(c, v) (c).ch.blue = (uint8_t)(v) & 0x3U;
 110:..\..\..\lvgl\version_6.1.2\lvgl/src/lv_hal/../lv_misc/lv_color.h **** # define LV_COLOR_SET_A8(c, v) do {} while(0)
 111:..\..\..\lvgl\version_6.1.2\lvgl/src/lv_hal/../lv_misc/lv_color.h **** 
 112:..\..\..\lvgl\version_6.1.2\lvgl/src/lv_hal/../lv_misc/lv_color.h **** # define LV_COLOR_GET_R8(c) (c).ch.red
 113:..\..\..\lvgl\version_6.1.2\lvgl/src/lv_hal/../lv_misc/lv_color.h **** # define LV_COLOR_GET_G8(c) (c).ch.green
 114:..\..\..\lvgl\version_6.1.2\lvgl/src/lv_hal/../lv_misc/lv_color.h **** # define LV_COLOR_GET_B8(c) (c).ch.blue
 115:..\..\..\lvgl\version_6.1.2\lvgl/src/lv_hal/../lv_misc/lv_color.h **** # define LV_COLOR_GET_A8(c) 0xFF
 116:..\..\..\lvgl\version_6.1.2\lvgl/src/lv_hal/../lv_misc/lv_color.h **** 
 117:..\..\..\lvgl\version_6.1.2\lvgl/src/lv_hal/../lv_misc/lv_color.h **** # define LV_COLOR_SET_R16(c, v) (c).ch.red = (uint8_t)(v) & 0x1FU;
 118:..\..\..\lvgl\version_6.1.2\lvgl/src/lv_hal/../lv_misc/lv_color.h **** # define LV_COLOR_SET_G16(c, v) (c).ch.green = (uint8_t)(v) & 0x3FU;
 119:..\..\..\lvgl\version_6.1.2\lvgl/src/lv_hal/../lv_misc/lv_color.h **** # define LV_COLOR_SET_G16_SWAP(c, v) {(c).ch.green_h = (uint8_t)(((v) >> 3) & 0x7); (c).ch.green_l 
 120:..\..\..\lvgl\version_6.1.2\lvgl/src/lv_hal/../lv_misc/lv_color.h **** # define LV_COLOR_SET_B16(c, v) (c).ch.blue = (uint8_t)(v) & 0x1FU;
 121:..\..\..\lvgl\version_6.1.2\lvgl/src/lv_hal/../lv_misc/lv_color.h **** # define LV_COLOR_SET_A16(c, v) do {} while(0)
 122:..\..\..\lvgl\version_6.1.2\lvgl/src/lv_hal/../lv_misc/lv_color.h **** 
 123:..\..\..\lvgl\version_6.1.2\lvgl/src/lv_hal/../lv_misc/lv_color.h **** # define LV_COLOR_GET_R16(c) (c).ch.red
 124:..\..\..\lvgl\version_6.1.2\lvgl/src/lv_hal/../lv_misc/lv_color.h **** # define LV_COLOR_GET_G16(c) (c).ch.green
 125:..\..\..\lvgl\version_6.1.2\lvgl/src/lv_hal/../lv_misc/lv_color.h **** # define LV_COLOR_GET_G16_SWAP(c) (((c).ch.green_h << 3) + (c).ch.green_l)
 126:..\..\..\lvgl\version_6.1.2\lvgl/src/lv_hal/../lv_misc/lv_color.h **** # define LV_COLOR_GET_B16(c) (c).ch.blue
 127:..\..\..\lvgl\version_6.1.2\lvgl/src/lv_hal/../lv_misc/lv_color.h **** # define LV_COLOR_GET_A16(c) 0xFF
 128:..\..\..\lvgl\version_6.1.2\lvgl/src/lv_hal/../lv_misc/lv_color.h **** 
 129:..\..\..\lvgl\version_6.1.2\lvgl/src/lv_hal/../lv_misc/lv_color.h **** # define LV_COLOR_SET_R32(c, v) (c).ch.red = (uint32_t)((v) & 0xFF);
 130:..\..\..\lvgl\version_6.1.2\lvgl/src/lv_hal/../lv_misc/lv_color.h **** # define LV_COLOR_SET_G32(c, v) (c).ch.green = (uint32_t)((v) & 0xFF);
 131:..\..\..\lvgl\version_6.1.2\lvgl/src/lv_hal/../lv_misc/lv_color.h **** # define LV_COLOR_SET_B32(c, v) (c).ch.blue = (uint32_t)((v) & 0xFF);
 132:..\..\..\lvgl\version_6.1.2\lvgl/src/lv_hal/../lv_misc/lv_color.h **** # define LV_COLOR_SET_A32(c, v) (c).ch.alpha = (uint32_t)((v) & 0xFF);
 133:..\..\..\lvgl\version_6.1.2\lvgl/src/lv_hal/../lv_misc/lv_color.h **** 
 134:..\..\..\lvgl\version_6.1.2\lvgl/src/lv_hal/../lv_misc/lv_color.h **** # define LV_COLOR_GET_R32(c) (c).ch.red
 135:..\..\..\lvgl\version_6.1.2\lvgl/src/lv_hal/../lv_misc/lv_color.h **** # define LV_COLOR_GET_G32(c) (c).ch.green
 136:..\..\..\lvgl\version_6.1.2\lvgl/src/lv_hal/../lv_misc/lv_color.h **** # define LV_COLOR_GET_B32(c) (c).ch.blue
 137:..\..\..\lvgl\version_6.1.2\lvgl/src/lv_hal/../lv_misc/lv_color.h **** # define LV_COLOR_GET_A32(c) (c).ch.alpha
 138:..\..\..\lvgl\version_6.1.2\lvgl/src/lv_hal/../lv_misc/lv_color.h **** 
 139:..\..\..\lvgl\version_6.1.2\lvgl/src/lv_hal/../lv_misc/lv_color.h **** 
 140:..\..\..\lvgl\version_6.1.2\lvgl/src/lv_hal/../lv_misc/lv_color.h **** /*---------------------------------------
 141:..\..\..\lvgl\version_6.1.2\lvgl/src/lv_hal/../lv_misc/lv_color.h ****  * Macros for the current color depth
 142:..\..\..\lvgl\version_6.1.2\lvgl/src/lv_hal/../lv_misc/lv_color.h ****  * to set/get values of the color channels
 143:..\..\..\lvgl\version_6.1.2\lvgl/src/lv_hal/../lv_misc/lv_color.h ****  *------------------------------------------*/
ARM GAS  C:\Users\tmj32\AppData\Local\Temp\ccs01wAd.s 			page 4


 144:..\..\..\lvgl\version_6.1.2\lvgl/src/lv_hal/../lv_misc/lv_color.h **** #if LV_COLOR_DEPTH == 1
 145:..\..\..\lvgl\version_6.1.2\lvgl/src/lv_hal/../lv_misc/lv_color.h **** # define LV_COLOR_SET_R(c, v) LV_COLOR_SET_R1(c,v)
 146:..\..\..\lvgl\version_6.1.2\lvgl/src/lv_hal/../lv_misc/lv_color.h **** # define LV_COLOR_SET_G(c, v) LV_COLOR_SET_G1(c,v)
 147:..\..\..\lvgl\version_6.1.2\lvgl/src/lv_hal/../lv_misc/lv_color.h **** # define LV_COLOR_SET_B(c, v) LV_COLOR_SET_B1(c,v)
 148:..\..\..\lvgl\version_6.1.2\lvgl/src/lv_hal/../lv_misc/lv_color.h **** # define LV_COLOR_SET_A(c, v) LV_COLOR_SET_A1(c,v)
 149:..\..\..\lvgl\version_6.1.2\lvgl/src/lv_hal/../lv_misc/lv_color.h **** 
 150:..\..\..\lvgl\version_6.1.2\lvgl/src/lv_hal/../lv_misc/lv_color.h **** # define LV_COLOR_GET_R(c) LV_COLOR_GET_R1(c)
 151:..\..\..\lvgl\version_6.1.2\lvgl/src/lv_hal/../lv_misc/lv_color.h **** # define LV_COLOR_GET_G(c) LV_COLOR_GET_G1(c)
 152:..\..\..\lvgl\version_6.1.2\lvgl/src/lv_hal/../lv_misc/lv_color.h **** # define LV_COLOR_GET_B(c) LV_COLOR_GET_B1(c)
 153:..\..\..\lvgl\version_6.1.2\lvgl/src/lv_hal/../lv_misc/lv_color.h **** # define LV_COLOR_GET_A(c) LV_COLOR_GET_A1(c)
 154:..\..\..\lvgl\version_6.1.2\lvgl/src/lv_hal/../lv_misc/lv_color.h **** 
 155:..\..\..\lvgl\version_6.1.2\lvgl/src/lv_hal/../lv_misc/lv_color.h **** #elif LV_COLOR_DEPTH == 8
 156:..\..\..\lvgl\version_6.1.2\lvgl/src/lv_hal/../lv_misc/lv_color.h **** # define LV_COLOR_SET_R(c, v) LV_COLOR_SET_R8(c,v)
 157:..\..\..\lvgl\version_6.1.2\lvgl/src/lv_hal/../lv_misc/lv_color.h **** # define LV_COLOR_SET_G(c, v) LV_COLOR_SET_G8(c,v)
 158:..\..\..\lvgl\version_6.1.2\lvgl/src/lv_hal/../lv_misc/lv_color.h **** # define LV_COLOR_SET_B(c, v) LV_COLOR_SET_B8(c,v)
 159:..\..\..\lvgl\version_6.1.2\lvgl/src/lv_hal/../lv_misc/lv_color.h **** # define LV_COLOR_SET_A(c, v) LV_COLOR_SET_A8(c,v)
 160:..\..\..\lvgl\version_6.1.2\lvgl/src/lv_hal/../lv_misc/lv_color.h **** 
 161:..\..\..\lvgl\version_6.1.2\lvgl/src/lv_hal/../lv_misc/lv_color.h **** # define LV_COLOR_GET_R(c) LV_COLOR_GET_R8(c)
 162:..\..\..\lvgl\version_6.1.2\lvgl/src/lv_hal/../lv_misc/lv_color.h **** # define LV_COLOR_GET_G(c) LV_COLOR_GET_G8(c)
 163:..\..\..\lvgl\version_6.1.2\lvgl/src/lv_hal/../lv_misc/lv_color.h **** # define LV_COLOR_GET_B(c) LV_COLOR_GET_B8(c)
 164:..\..\..\lvgl\version_6.1.2\lvgl/src/lv_hal/../lv_misc/lv_color.h **** # define LV_COLOR_GET_A(c) LV_COLOR_GET_A8(c)
 165:..\..\..\lvgl\version_6.1.2\lvgl/src/lv_hal/../lv_misc/lv_color.h **** 
 166:..\..\..\lvgl\version_6.1.2\lvgl/src/lv_hal/../lv_misc/lv_color.h **** #elif LV_COLOR_DEPTH == 16
 167:..\..\..\lvgl\version_6.1.2\lvgl/src/lv_hal/../lv_misc/lv_color.h **** # define LV_COLOR_SET_R(c, v) LV_COLOR_SET_R16(c,v)
 168:..\..\..\lvgl\version_6.1.2\lvgl/src/lv_hal/../lv_misc/lv_color.h **** # if LV_COLOR_16_SWAP == 0
 169:..\..\..\lvgl\version_6.1.2\lvgl/src/lv_hal/../lv_misc/lv_color.h **** #   define LV_COLOR_SET_G(c, v) LV_COLOR_SET_G16(c,v)
 170:..\..\..\lvgl\version_6.1.2\lvgl/src/lv_hal/../lv_misc/lv_color.h **** # else
 171:..\..\..\lvgl\version_6.1.2\lvgl/src/lv_hal/../lv_misc/lv_color.h **** #   define LV_COLOR_SET_G(c, v) LV_COLOR_SET_G16_SWAP(c,v)
 172:..\..\..\lvgl\version_6.1.2\lvgl/src/lv_hal/../lv_misc/lv_color.h **** # endif
 173:..\..\..\lvgl\version_6.1.2\lvgl/src/lv_hal/../lv_misc/lv_color.h **** # define LV_COLOR_SET_B(c, v) LV_COLOR_SET_B16(c,v)
 174:..\..\..\lvgl\version_6.1.2\lvgl/src/lv_hal/../lv_misc/lv_color.h **** # define LV_COLOR_SET_A(c, v) LV_COLOR_SET_A16(c,v)
 175:..\..\..\lvgl\version_6.1.2\lvgl/src/lv_hal/../lv_misc/lv_color.h **** 
 176:..\..\..\lvgl\version_6.1.2\lvgl/src/lv_hal/../lv_misc/lv_color.h **** # define LV_COLOR_GET_R(c) LV_COLOR_GET_R16(c)
 177:..\..\..\lvgl\version_6.1.2\lvgl/src/lv_hal/../lv_misc/lv_color.h **** # if LV_COLOR_16_SWAP == 0
 178:..\..\..\lvgl\version_6.1.2\lvgl/src/lv_hal/../lv_misc/lv_color.h **** #   define LV_COLOR_GET_G(c) LV_COLOR_GET_G16(c)
 179:..\..\..\lvgl\version_6.1.2\lvgl/src/lv_hal/../lv_misc/lv_color.h **** # else
 180:..\..\..\lvgl\version_6.1.2\lvgl/src/lv_hal/../lv_misc/lv_color.h **** #   define LV_COLOR_GET_G(c) LV_COLOR_GET_G16_SWAP(c)
 181:..\..\..\lvgl\version_6.1.2\lvgl/src/lv_hal/../lv_misc/lv_color.h **** # endif
 182:..\..\..\lvgl\version_6.1.2\lvgl/src/lv_hal/../lv_misc/lv_color.h **** # define LV_COLOR_GET_B(c)   LV_COLOR_GET_B16(c)
 183:..\..\..\lvgl\version_6.1.2\lvgl/src/lv_hal/../lv_misc/lv_color.h **** # define LV_COLOR_GET_A(c)   LV_COLOR_GET_A16(c)
 184:..\..\..\lvgl\version_6.1.2\lvgl/src/lv_hal/../lv_misc/lv_color.h **** 
 185:..\..\..\lvgl\version_6.1.2\lvgl/src/lv_hal/../lv_misc/lv_color.h **** #elif LV_COLOR_DEPTH == 32
 186:..\..\..\lvgl\version_6.1.2\lvgl/src/lv_hal/../lv_misc/lv_color.h **** # define LV_COLOR_SET_R(c, v) LV_COLOR_SET_R32(c,v)
 187:..\..\..\lvgl\version_6.1.2\lvgl/src/lv_hal/../lv_misc/lv_color.h **** # define LV_COLOR_SET_G(c, v) LV_COLOR_SET_G32(c,v)
 188:..\..\..\lvgl\version_6.1.2\lvgl/src/lv_hal/../lv_misc/lv_color.h **** # define LV_COLOR_SET_B(c, v) LV_COLOR_SET_B32(c,v)
 189:..\..\..\lvgl\version_6.1.2\lvgl/src/lv_hal/../lv_misc/lv_color.h **** # define LV_COLOR_SET_A(c, v) LV_COLOR_SET_A32(c,v)
 190:..\..\..\lvgl\version_6.1.2\lvgl/src/lv_hal/../lv_misc/lv_color.h **** 
 191:..\..\..\lvgl\version_6.1.2\lvgl/src/lv_hal/../lv_misc/lv_color.h **** # define LV_COLOR_GET_R(c) LV_COLOR_GET_R32(c)
 192:..\..\..\lvgl\version_6.1.2\lvgl/src/lv_hal/../lv_misc/lv_color.h **** # define LV_COLOR_GET_G(c) LV_COLOR_GET_G32(c)
 193:..\..\..\lvgl\version_6.1.2\lvgl/src/lv_hal/../lv_misc/lv_color.h **** # define LV_COLOR_GET_B(c) LV_COLOR_GET_B32(c)
 194:..\..\..\lvgl\version_6.1.2\lvgl/src/lv_hal/../lv_misc/lv_color.h **** # define LV_COLOR_GET_A(c) LV_COLOR_GET_A32(c)
 195:..\..\..\lvgl\version_6.1.2\lvgl/src/lv_hal/../lv_misc/lv_color.h **** #endif
 196:..\..\..\lvgl\version_6.1.2\lvgl/src/lv_hal/../lv_misc/lv_color.h **** 
 197:..\..\..\lvgl\version_6.1.2\lvgl/src/lv_hal/../lv_misc/lv_color.h **** /**********************
 198:..\..\..\lvgl\version_6.1.2\lvgl/src/lv_hal/../lv_misc/lv_color.h ****  *      TYPEDEFS
 199:..\..\..\lvgl\version_6.1.2\lvgl/src/lv_hal/../lv_misc/lv_color.h ****  **********************/
 200:..\..\..\lvgl\version_6.1.2\lvgl/src/lv_hal/../lv_misc/lv_color.h **** 
ARM GAS  C:\Users\tmj32\AppData\Local\Temp\ccs01wAd.s 			page 5


 201:..\..\..\lvgl\version_6.1.2\lvgl/src/lv_hal/../lv_misc/lv_color.h **** typedef union
 202:..\..\..\lvgl\version_6.1.2\lvgl/src/lv_hal/../lv_misc/lv_color.h **** {
 203:..\..\..\lvgl\version_6.1.2\lvgl/src/lv_hal/../lv_misc/lv_color.h ****     struct
 204:..\..\..\lvgl\version_6.1.2\lvgl/src/lv_hal/../lv_misc/lv_color.h ****     {
 205:..\..\..\lvgl\version_6.1.2\lvgl/src/lv_hal/../lv_misc/lv_color.h ****         uint8_t blue : 1;
 206:..\..\..\lvgl\version_6.1.2\lvgl/src/lv_hal/../lv_misc/lv_color.h ****         uint8_t green : 1;
 207:..\..\..\lvgl\version_6.1.2\lvgl/src/lv_hal/../lv_misc/lv_color.h ****         uint8_t red : 1;
 208:..\..\..\lvgl\version_6.1.2\lvgl/src/lv_hal/../lv_misc/lv_color.h ****     } ch;
 209:..\..\..\lvgl\version_6.1.2\lvgl/src/lv_hal/../lv_misc/lv_color.h ****     uint8_t full;
 210:..\..\..\lvgl\version_6.1.2\lvgl/src/lv_hal/../lv_misc/lv_color.h **** } lv_color1_t;
 211:..\..\..\lvgl\version_6.1.2\lvgl/src/lv_hal/../lv_misc/lv_color.h **** 
 212:..\..\..\lvgl\version_6.1.2\lvgl/src/lv_hal/../lv_misc/lv_color.h **** typedef union
 213:..\..\..\lvgl\version_6.1.2\lvgl/src/lv_hal/../lv_misc/lv_color.h **** {
 214:..\..\..\lvgl\version_6.1.2\lvgl/src/lv_hal/../lv_misc/lv_color.h ****     struct
 215:..\..\..\lvgl\version_6.1.2\lvgl/src/lv_hal/../lv_misc/lv_color.h ****     {
 216:..\..\..\lvgl\version_6.1.2\lvgl/src/lv_hal/../lv_misc/lv_color.h ****         uint8_t blue : 2;
 217:..\..\..\lvgl\version_6.1.2\lvgl/src/lv_hal/../lv_misc/lv_color.h ****         uint8_t green : 3;
 218:..\..\..\lvgl\version_6.1.2\lvgl/src/lv_hal/../lv_misc/lv_color.h ****         uint8_t red : 3;
 219:..\..\..\lvgl\version_6.1.2\lvgl/src/lv_hal/../lv_misc/lv_color.h ****     } ch;
 220:..\..\..\lvgl\version_6.1.2\lvgl/src/lv_hal/../lv_misc/lv_color.h ****     uint8_t full;
 221:..\..\..\lvgl\version_6.1.2\lvgl/src/lv_hal/../lv_misc/lv_color.h **** } lv_color8_t;
 222:..\..\..\lvgl\version_6.1.2\lvgl/src/lv_hal/../lv_misc/lv_color.h **** 
 223:..\..\..\lvgl\version_6.1.2\lvgl/src/lv_hal/../lv_misc/lv_color.h **** typedef union
 224:..\..\..\lvgl\version_6.1.2\lvgl/src/lv_hal/../lv_misc/lv_color.h **** {
 225:..\..\..\lvgl\version_6.1.2\lvgl/src/lv_hal/../lv_misc/lv_color.h ****     struct
 226:..\..\..\lvgl\version_6.1.2\lvgl/src/lv_hal/../lv_misc/lv_color.h ****     {
 227:..\..\..\lvgl\version_6.1.2\lvgl/src/lv_hal/../lv_misc/lv_color.h **** #if LV_COLOR_16_SWAP == 0
 228:..\..\..\lvgl\version_6.1.2\lvgl/src/lv_hal/../lv_misc/lv_color.h ****         uint16_t blue : 5;
 229:..\..\..\lvgl\version_6.1.2\lvgl/src/lv_hal/../lv_misc/lv_color.h ****         uint16_t green : 6;
 230:..\..\..\lvgl\version_6.1.2\lvgl/src/lv_hal/../lv_misc/lv_color.h ****         uint16_t red : 5;
 231:..\..\..\lvgl\version_6.1.2\lvgl/src/lv_hal/../lv_misc/lv_color.h **** #else
 232:..\..\..\lvgl\version_6.1.2\lvgl/src/lv_hal/../lv_misc/lv_color.h ****         uint16_t green_h : 3;
 233:..\..\..\lvgl\version_6.1.2\lvgl/src/lv_hal/../lv_misc/lv_color.h ****         uint16_t red : 5;
 234:..\..\..\lvgl\version_6.1.2\lvgl/src/lv_hal/../lv_misc/lv_color.h ****         uint16_t blue : 5;
 235:..\..\..\lvgl\version_6.1.2\lvgl/src/lv_hal/../lv_misc/lv_color.h ****         uint16_t green_l : 3;
 236:..\..\..\lvgl\version_6.1.2\lvgl/src/lv_hal/../lv_misc/lv_color.h **** #endif
 237:..\..\..\lvgl\version_6.1.2\lvgl/src/lv_hal/../lv_misc/lv_color.h ****     } ch;
 238:..\..\..\lvgl\version_6.1.2\lvgl/src/lv_hal/../lv_misc/lv_color.h ****     uint16_t full;
 239:..\..\..\lvgl\version_6.1.2\lvgl/src/lv_hal/../lv_misc/lv_color.h **** } lv_color16_t;
 240:..\..\..\lvgl\version_6.1.2\lvgl/src/lv_hal/../lv_misc/lv_color.h **** 
 241:..\..\..\lvgl\version_6.1.2\lvgl/src/lv_hal/../lv_misc/lv_color.h **** typedef union
 242:..\..\..\lvgl\version_6.1.2\lvgl/src/lv_hal/../lv_misc/lv_color.h **** {
 243:..\..\..\lvgl\version_6.1.2\lvgl/src/lv_hal/../lv_misc/lv_color.h ****     struct
 244:..\..\..\lvgl\version_6.1.2\lvgl/src/lv_hal/../lv_misc/lv_color.h ****     {
 245:..\..\..\lvgl\version_6.1.2\lvgl/src/lv_hal/../lv_misc/lv_color.h ****         uint8_t blue;
 246:..\..\..\lvgl\version_6.1.2\lvgl/src/lv_hal/../lv_misc/lv_color.h ****         uint8_t green;
 247:..\..\..\lvgl\version_6.1.2\lvgl/src/lv_hal/../lv_misc/lv_color.h ****         uint8_t red;
 248:..\..\..\lvgl\version_6.1.2\lvgl/src/lv_hal/../lv_misc/lv_color.h ****         uint8_t alpha;
 249:..\..\..\lvgl\version_6.1.2\lvgl/src/lv_hal/../lv_misc/lv_color.h ****     } ch;
 250:..\..\..\lvgl\version_6.1.2\lvgl/src/lv_hal/../lv_misc/lv_color.h ****     uint32_t full;
 251:..\..\..\lvgl\version_6.1.2\lvgl/src/lv_hal/../lv_misc/lv_color.h **** } lv_color32_t;
 252:..\..\..\lvgl\version_6.1.2\lvgl/src/lv_hal/../lv_misc/lv_color.h **** 
 253:..\..\..\lvgl\version_6.1.2\lvgl/src/lv_hal/../lv_misc/lv_color.h **** #if LV_COLOR_DEPTH == 1
 254:..\..\..\lvgl\version_6.1.2\lvgl/src/lv_hal/../lv_misc/lv_color.h **** typedef uint8_t lv_color_int_t;
 255:..\..\..\lvgl\version_6.1.2\lvgl/src/lv_hal/../lv_misc/lv_color.h **** typedef lv_color1_t lv_color_t;
 256:..\..\..\lvgl\version_6.1.2\lvgl/src/lv_hal/../lv_misc/lv_color.h **** #elif LV_COLOR_DEPTH == 8
 257:..\..\..\lvgl\version_6.1.2\lvgl/src/lv_hal/../lv_misc/lv_color.h **** typedef uint8_t lv_color_int_t;
ARM GAS  C:\Users\tmj32\AppData\Local\Temp\ccs01wAd.s 			page 6


 258:..\..\..\lvgl\version_6.1.2\lvgl/src/lv_hal/../lv_misc/lv_color.h **** typedef lv_color8_t lv_color_t;
 259:..\..\..\lvgl\version_6.1.2\lvgl/src/lv_hal/../lv_misc/lv_color.h **** #elif LV_COLOR_DEPTH == 16
 260:..\..\..\lvgl\version_6.1.2\lvgl/src/lv_hal/../lv_misc/lv_color.h **** typedef uint16_t lv_color_int_t;
 261:..\..\..\lvgl\version_6.1.2\lvgl/src/lv_hal/../lv_misc/lv_color.h **** typedef lv_color16_t lv_color_t;
 262:..\..\..\lvgl\version_6.1.2\lvgl/src/lv_hal/../lv_misc/lv_color.h **** #elif LV_COLOR_DEPTH == 32
 263:..\..\..\lvgl\version_6.1.2\lvgl/src/lv_hal/../lv_misc/lv_color.h **** typedef uint32_t lv_color_int_t;
 264:..\..\..\lvgl\version_6.1.2\lvgl/src/lv_hal/../lv_misc/lv_color.h **** typedef lv_color32_t lv_color_t;
 265:..\..\..\lvgl\version_6.1.2\lvgl/src/lv_hal/../lv_misc/lv_color.h **** #else
 266:..\..\..\lvgl\version_6.1.2\lvgl/src/lv_hal/../lv_misc/lv_color.h **** #error "Invalid LV_COLOR_DEPTH in lv_conf.h! Set it to 1, 8, 16 or 32!"
 267:..\..\..\lvgl\version_6.1.2\lvgl/src/lv_hal/../lv_misc/lv_color.h **** #endif
 268:..\..\..\lvgl\version_6.1.2\lvgl/src/lv_hal/../lv_misc/lv_color.h **** 
 269:..\..\..\lvgl\version_6.1.2\lvgl/src/lv_hal/../lv_misc/lv_color.h **** typedef uint8_t lv_opa_t;
 270:..\..\..\lvgl\version_6.1.2\lvgl/src/lv_hal/../lv_misc/lv_color.h **** 
 271:..\..\..\lvgl\version_6.1.2\lvgl/src/lv_hal/../lv_misc/lv_color.h **** typedef struct
 272:..\..\..\lvgl\version_6.1.2\lvgl/src/lv_hal/../lv_misc/lv_color.h **** {
 273:..\..\..\lvgl\version_6.1.2\lvgl/src/lv_hal/../lv_misc/lv_color.h ****     uint16_t h;
 274:..\..\..\lvgl\version_6.1.2\lvgl/src/lv_hal/../lv_misc/lv_color.h ****     uint8_t s;
 275:..\..\..\lvgl\version_6.1.2\lvgl/src/lv_hal/../lv_misc/lv_color.h ****     uint8_t v;
 276:..\..\..\lvgl\version_6.1.2\lvgl/src/lv_hal/../lv_misc/lv_color.h **** } lv_color_hsv_t;
 277:..\..\..\lvgl\version_6.1.2\lvgl/src/lv_hal/../lv_misc/lv_color.h **** 
 278:..\..\..\lvgl\version_6.1.2\lvgl/src/lv_hal/../lv_misc/lv_color.h **** /**********************
 279:..\..\..\lvgl\version_6.1.2\lvgl/src/lv_hal/../lv_misc/lv_color.h ****  * GLOBAL PROTOTYPES
 280:..\..\..\lvgl\version_6.1.2\lvgl/src/lv_hal/../lv_misc/lv_color.h ****  **********************/
 281:..\..\..\lvgl\version_6.1.2\lvgl/src/lv_hal/../lv_misc/lv_color.h **** 
 282:..\..\..\lvgl\version_6.1.2\lvgl/src/lv_hal/../lv_misc/lv_color.h **** /*In color conversations:
 283:..\..\..\lvgl\version_6.1.2\lvgl/src/lv_hal/../lv_misc/lv_color.h ****  * - When converting to bigger color type the LSB weight of 1 LSB is calculated
 284:..\..\..\lvgl\version_6.1.2\lvgl/src/lv_hal/../lv_misc/lv_color.h ****  *   E.g. 16 bit Red has 5 bits
 285:..\..\..\lvgl\version_6.1.2\lvgl/src/lv_hal/../lv_misc/lv_color.h ****  *         8 bit Red has 2 bits
 286:..\..\..\lvgl\version_6.1.2\lvgl/src/lv_hal/../lv_misc/lv_color.h ****  *        ----------------------
 287:..\..\..\lvgl\version_6.1.2\lvgl/src/lv_hal/../lv_misc/lv_color.h ****  *        8 bit red LSB = (2^5 - 1) / (2^2 - 1) = 31 / 3 = 10
 288:..\..\..\lvgl\version_6.1.2\lvgl/src/lv_hal/../lv_misc/lv_color.h ****  *
 289:..\..\..\lvgl\version_6.1.2\lvgl/src/lv_hal/../lv_misc/lv_color.h ****  * - When calculating to smaller color type simply shift out the LSBs
 290:..\..\..\lvgl\version_6.1.2\lvgl/src/lv_hal/../lv_misc/lv_color.h ****  *   E.g.  8 bit Red has 2 bits
 291:..\..\..\lvgl\version_6.1.2\lvgl/src/lv_hal/../lv_misc/lv_color.h ****  *        16 bit Red has 5 bits
 292:..\..\..\lvgl\version_6.1.2\lvgl/src/lv_hal/../lv_misc/lv_color.h ****  *        ----------------------
 293:..\..\..\lvgl\version_6.1.2\lvgl/src/lv_hal/../lv_misc/lv_color.h ****  *         Shift right with 5 - 3 = 2
 294:..\..\..\lvgl\version_6.1.2\lvgl/src/lv_hal/../lv_misc/lv_color.h ****  */
 295:..\..\..\lvgl\version_6.1.2\lvgl/src/lv_hal/../lv_misc/lv_color.h **** 
 296:..\..\..\lvgl\version_6.1.2\lvgl/src/lv_hal/../lv_misc/lv_color.h **** static inline uint8_t lv_color_to1(lv_color_t color)
 297:..\..\..\lvgl\version_6.1.2\lvgl/src/lv_hal/../lv_misc/lv_color.h **** {
 298:..\..\..\lvgl\version_6.1.2\lvgl/src/lv_hal/../lv_misc/lv_color.h **** #if LV_COLOR_DEPTH == 1
 299:..\..\..\lvgl\version_6.1.2\lvgl/src/lv_hal/../lv_misc/lv_color.h ****     return color.full;
 300:..\..\..\lvgl\version_6.1.2\lvgl/src/lv_hal/../lv_misc/lv_color.h **** #elif LV_COLOR_DEPTH == 8
 301:..\..\..\lvgl\version_6.1.2\lvgl/src/lv_hal/../lv_misc/lv_color.h ****     if((LV_COLOR_GET_R(color) & 0x4) || (LV_COLOR_GET_G(color) & 0x4) || (LV_COLOR_GET_B(color) & 0
 302:..\..\..\lvgl\version_6.1.2\lvgl/src/lv_hal/../lv_misc/lv_color.h ****         return 1;
 303:..\..\..\lvgl\version_6.1.2\lvgl/src/lv_hal/../lv_misc/lv_color.h ****     } else {
 304:..\..\..\lvgl\version_6.1.2\lvgl/src/lv_hal/../lv_misc/lv_color.h ****         return 0;
 305:..\..\..\lvgl\version_6.1.2\lvgl/src/lv_hal/../lv_misc/lv_color.h ****     }
 306:..\..\..\lvgl\version_6.1.2\lvgl/src/lv_hal/../lv_misc/lv_color.h **** #elif LV_COLOR_DEPTH == 16
 307:..\..\..\lvgl\version_6.1.2\lvgl/src/lv_hal/../lv_misc/lv_color.h ****     if((LV_COLOR_GET_R(color) & 0x10) || (LV_COLOR_GET_G(color) & 0x20) || (LV_COLOR_GET_B(color) &
 308:..\..\..\lvgl\version_6.1.2\lvgl/src/lv_hal/../lv_misc/lv_color.h ****         return 1;
 309:..\..\..\lvgl\version_6.1.2\lvgl/src/lv_hal/../lv_misc/lv_color.h ****     } else {
 310:..\..\..\lvgl\version_6.1.2\lvgl/src/lv_hal/../lv_misc/lv_color.h ****         return 0;
 311:..\..\..\lvgl\version_6.1.2\lvgl/src/lv_hal/../lv_misc/lv_color.h ****     }
 312:..\..\..\lvgl\version_6.1.2\lvgl/src/lv_hal/../lv_misc/lv_color.h **** #elif LV_COLOR_DEPTH == 32
 313:..\..\..\lvgl\version_6.1.2\lvgl/src/lv_hal/../lv_misc/lv_color.h ****     if((LV_COLOR_GET_R(color) & 0x80) || (LV_COLOR_GET_G(color) & 0x80) || (LV_COLOR_GET_B(color) &
 314:..\..\..\lvgl\version_6.1.2\lvgl/src/lv_hal/../lv_misc/lv_color.h ****         return 1;
ARM GAS  C:\Users\tmj32\AppData\Local\Temp\ccs01wAd.s 			page 7


 315:..\..\..\lvgl\version_6.1.2\lvgl/src/lv_hal/../lv_misc/lv_color.h ****     } else {
 316:..\..\..\lvgl\version_6.1.2\lvgl/src/lv_hal/../lv_misc/lv_color.h ****         return 0;
 317:..\..\..\lvgl\version_6.1.2\lvgl/src/lv_hal/../lv_misc/lv_color.h ****     }
 318:..\..\..\lvgl\version_6.1.2\lvgl/src/lv_hal/../lv_misc/lv_color.h **** #endif
 319:..\..\..\lvgl\version_6.1.2\lvgl/src/lv_hal/../lv_misc/lv_color.h **** }
 320:..\..\..\lvgl\version_6.1.2\lvgl/src/lv_hal/../lv_misc/lv_color.h **** 
 321:..\..\..\lvgl\version_6.1.2\lvgl/src/lv_hal/../lv_misc/lv_color.h **** static inline uint8_t lv_color_to8(lv_color_t color)
 322:..\..\..\lvgl\version_6.1.2\lvgl/src/lv_hal/../lv_misc/lv_color.h **** {
 323:..\..\..\lvgl\version_6.1.2\lvgl/src/lv_hal/../lv_misc/lv_color.h **** #if LV_COLOR_DEPTH == 1
 324:..\..\..\lvgl\version_6.1.2\lvgl/src/lv_hal/../lv_misc/lv_color.h ****     if(color.full == 0)
 325:..\..\..\lvgl\version_6.1.2\lvgl/src/lv_hal/../lv_misc/lv_color.h ****         return 0;
 326:..\..\..\lvgl\version_6.1.2\lvgl/src/lv_hal/../lv_misc/lv_color.h ****     else
 327:..\..\..\lvgl\version_6.1.2\lvgl/src/lv_hal/../lv_misc/lv_color.h ****         return 0xFF;
 328:..\..\..\lvgl\version_6.1.2\lvgl/src/lv_hal/../lv_misc/lv_color.h **** #elif LV_COLOR_DEPTH == 8
 329:..\..\..\lvgl\version_6.1.2\lvgl/src/lv_hal/../lv_misc/lv_color.h ****     return color.full;
 330:..\..\..\lvgl\version_6.1.2\lvgl/src/lv_hal/../lv_misc/lv_color.h **** #elif LV_COLOR_DEPTH == 16
 331:..\..\..\lvgl\version_6.1.2\lvgl/src/lv_hal/../lv_misc/lv_color.h ****     lv_color8_t ret;
 332:..\..\..\lvgl\version_6.1.2\lvgl/src/lv_hal/../lv_misc/lv_color.h ****     LV_COLOR_SET_R8(ret, LV_COLOR_GET_R(color) >> 2);   /* 5 - 3  = 2*/
 333:..\..\..\lvgl\version_6.1.2\lvgl/src/lv_hal/../lv_misc/lv_color.h ****     LV_COLOR_SET_G8(ret, LV_COLOR_GET_G(color) >> 3); /* 6 - 3  = 3*/
 334:..\..\..\lvgl\version_6.1.2\lvgl/src/lv_hal/../lv_misc/lv_color.h ****     LV_COLOR_SET_B8(ret, LV_COLOR_GET_B(color) >> 3);  /* 5 - 2  = 3*/
 335:..\..\..\lvgl\version_6.1.2\lvgl/src/lv_hal/../lv_misc/lv_color.h ****     return ret.full;
 336:..\..\..\lvgl\version_6.1.2\lvgl/src/lv_hal/../lv_misc/lv_color.h **** #elif LV_COLOR_DEPTH == 32
 337:..\..\..\lvgl\version_6.1.2\lvgl/src/lv_hal/../lv_misc/lv_color.h ****     lv_color8_t ret;
 338:..\..\..\lvgl\version_6.1.2\lvgl/src/lv_hal/../lv_misc/lv_color.h ****     LV_COLOR_SET_R8(ret, LV_COLOR_GET_R(color) >> 5);   /* 8 - 3  = 5*/
 339:..\..\..\lvgl\version_6.1.2\lvgl/src/lv_hal/../lv_misc/lv_color.h ****     LV_COLOR_SET_G8(ret, LV_COLOR_GET_G(color) >> 5); /* 8 - 3  = 5*/
 340:..\..\..\lvgl\version_6.1.2\lvgl/src/lv_hal/../lv_misc/lv_color.h ****     LV_COLOR_SET_B8(ret, LV_COLOR_GET_B(color) >> 6);  /* 8 - 2  = 6*/
 341:..\..\..\lvgl\version_6.1.2\lvgl/src/lv_hal/../lv_misc/lv_color.h ****     return ret.full;
 342:..\..\..\lvgl\version_6.1.2\lvgl/src/lv_hal/../lv_misc/lv_color.h **** #endif
 343:..\..\..\lvgl\version_6.1.2\lvgl/src/lv_hal/../lv_misc/lv_color.h **** }
 344:..\..\..\lvgl\version_6.1.2\lvgl/src/lv_hal/../lv_misc/lv_color.h **** 
 345:..\..\..\lvgl\version_6.1.2\lvgl/src/lv_hal/../lv_misc/lv_color.h **** static inline uint16_t lv_color_to16(lv_color_t color)
 346:..\..\..\lvgl\version_6.1.2\lvgl/src/lv_hal/../lv_misc/lv_color.h **** {
 347:..\..\..\lvgl\version_6.1.2\lvgl/src/lv_hal/../lv_misc/lv_color.h **** #if LV_COLOR_DEPTH == 1
 348:..\..\..\lvgl\version_6.1.2\lvgl/src/lv_hal/../lv_misc/lv_color.h ****     if(color.full == 0)
 349:..\..\..\lvgl\version_6.1.2\lvgl/src/lv_hal/../lv_misc/lv_color.h ****         return 0;
 350:..\..\..\lvgl\version_6.1.2\lvgl/src/lv_hal/../lv_misc/lv_color.h ****     else
 351:..\..\..\lvgl\version_6.1.2\lvgl/src/lv_hal/../lv_misc/lv_color.h ****         return 0xFFFF;
 352:..\..\..\lvgl\version_6.1.2\lvgl/src/lv_hal/../lv_misc/lv_color.h **** #elif LV_COLOR_DEPTH == 8
 353:..\..\..\lvgl\version_6.1.2\lvgl/src/lv_hal/../lv_misc/lv_color.h ****     lv_color16_t ret;
 354:..\..\..\lvgl\version_6.1.2\lvgl/src/lv_hal/../lv_misc/lv_color.h ****     LV_COLOR_SET_R16(ret, LV_COLOR_GET_R(color) * 4);     /*(2^5 - 1)/(2^3 - 1) = 31/7 = 4*/
 355:..\..\..\lvgl\version_6.1.2\lvgl/src/lv_hal/../lv_misc/lv_color.h **** #if LV_COLOR_16_SWAP == 0
 356:..\..\..\lvgl\version_6.1.2\lvgl/src/lv_hal/../lv_misc/lv_color.h ****     LV_COLOR_SET_G16(ret,  LV_COLOR_GET_G(color) * 9); /*(2^6 - 1)/(2^3 - 1) = 63/7 = 9*/
 357:..\..\..\lvgl\version_6.1.2\lvgl/src/lv_hal/../lv_misc/lv_color.h **** #else
 358:..\..\..\lvgl\version_6.1.2\lvgl/src/lv_hal/../lv_misc/lv_color.h ****     LV_COLOR_SET_G16_SWAP(ret, (LV_COLOR_GET_G(color) * 9)); /*(2^6 - 1)/(2^3 - 1) = 63/7 = 9*/
 359:..\..\..\lvgl\version_6.1.2\lvgl/src/lv_hal/../lv_misc/lv_color.h **** #endif
 360:..\..\..\lvgl\version_6.1.2\lvgl/src/lv_hal/../lv_misc/lv_color.h ****     LV_COLOR_SET_B16(ret, LV_COLOR_GET_B(color) * 10);  /*(2^5 - 1)/(2^2 - 1) = 31/3 = 10*/
 361:..\..\..\lvgl\version_6.1.2\lvgl/src/lv_hal/../lv_misc/lv_color.h ****     return ret.full;
 362:..\..\..\lvgl\version_6.1.2\lvgl/src/lv_hal/../lv_misc/lv_color.h **** #elif LV_COLOR_DEPTH == 16
 363:..\..\..\lvgl\version_6.1.2\lvgl/src/lv_hal/../lv_misc/lv_color.h ****     return color.full;
 364:..\..\..\lvgl\version_6.1.2\lvgl/src/lv_hal/../lv_misc/lv_color.h **** #elif LV_COLOR_DEPTH == 32
 365:..\..\..\lvgl\version_6.1.2\lvgl/src/lv_hal/../lv_misc/lv_color.h ****     lv_color16_t ret;
 366:..\..\..\lvgl\version_6.1.2\lvgl/src/lv_hal/../lv_misc/lv_color.h ****     LV_COLOR_SET_R16(ret, LV_COLOR_GET_R(color) >> 3);   /* 8 - 5  = 3*/
 367:..\..\..\lvgl\version_6.1.2\lvgl/src/lv_hal/../lv_misc/lv_color.h **** 
 368:..\..\..\lvgl\version_6.1.2\lvgl/src/lv_hal/../lv_misc/lv_color.h **** #if LV_COLOR_16_SWAP == 0
 369:..\..\..\lvgl\version_6.1.2\lvgl/src/lv_hal/../lv_misc/lv_color.h ****     LV_COLOR_SET_G16(ret, LV_COLOR_GET_G(color) >> 2); /* 8 - 6  = 2*/
 370:..\..\..\lvgl\version_6.1.2\lvgl/src/lv_hal/../lv_misc/lv_color.h **** #else
 371:..\..\..\lvgl\version_6.1.2\lvgl/src/lv_hal/../lv_misc/lv_color.h ****     LV_COLOR_SET_G16_SWAP(ret, ret.ch.green_h = (LV_COLOR_GET_G(color) >> 2); /*(2^6 - 1)/(2^3 - 1)
ARM GAS  C:\Users\tmj32\AppData\Local\Temp\ccs01wAd.s 			page 8


 372:..\..\..\lvgl\version_6.1.2\lvgl/src/lv_hal/../lv_misc/lv_color.h **** #endif
 373:..\..\..\lvgl\version_6.1.2\lvgl/src/lv_hal/../lv_misc/lv_color.h ****     LV_COLOR_SET_B16(ret, LV_COLOR_GET_B(color) >> 3);  /* 8 - 5  = 3*/
 374:..\..\..\lvgl\version_6.1.2\lvgl/src/lv_hal/../lv_misc/lv_color.h ****     return ret.full;
 375:..\..\..\lvgl\version_6.1.2\lvgl/src/lv_hal/../lv_misc/lv_color.h **** #endif                         
 376:..\..\..\lvgl\version_6.1.2\lvgl/src/lv_hal/../lv_misc/lv_color.h **** }
 377:..\..\..\lvgl\version_6.1.2\lvgl/src/lv_hal/../lv_misc/lv_color.h **** 
 378:..\..\..\lvgl\version_6.1.2\lvgl/src/lv_hal/../lv_misc/lv_color.h **** static inline uint32_t lv_color_to32(lv_color_t color)
 379:..\..\..\lvgl\version_6.1.2\lvgl/src/lv_hal/../lv_misc/lv_color.h **** {
 380:..\..\..\lvgl\version_6.1.2\lvgl/src/lv_hal/../lv_misc/lv_color.h **** #if LV_COLOR_DEPTH == 1
 381:..\..\..\lvgl\version_6.1.2\lvgl/src/lv_hal/../lv_misc/lv_color.h ****     if(color.full == 0)
 382:..\..\..\lvgl\version_6.1.2\lvgl/src/lv_hal/../lv_misc/lv_color.h ****         return 0;
 383:..\..\..\lvgl\version_6.1.2\lvgl/src/lv_hal/../lv_misc/lv_color.h ****     else
 384:..\..\..\lvgl\version_6.1.2\lvgl/src/lv_hal/../lv_misc/lv_color.h ****         return 0xFFFFFFFF;
 385:..\..\..\lvgl\version_6.1.2\lvgl/src/lv_hal/../lv_misc/lv_color.h **** #elif LV_COLOR_DEPTH == 8
 386:..\..\..\lvgl\version_6.1.2\lvgl/src/lv_hal/../lv_misc/lv_color.h ****     lv_color32_t ret;
 387:..\..\..\lvgl\version_6.1.2\lvgl/src/lv_hal/../lv_misc/lv_color.h ****     LV_COLOR_SET_R32(ret, LV_COLOR_GET_R(color) * 36);     /*(2^8 - 1)/(2^3 - 1) = 255/7 = 36*/
 388:..\..\..\lvgl\version_6.1.2\lvgl/src/lv_hal/../lv_misc/lv_color.h ****     LV_COLOR_SET_G32(ret, LV_COLOR_GET_G(color) * 36); /*(2^8 - 1)/(2^3 - 1) = 255/7 = 36*/
 389:..\..\..\lvgl\version_6.1.2\lvgl/src/lv_hal/../lv_misc/lv_color.h ****     LV_COLOR_SET_B32(ret, LV_COLOR_GET_B(color) * 85);   /*(2^8 - 1)/(2^2 - 1) = 255/3 = 85*/
 390:..\..\..\lvgl\version_6.1.2\lvgl/src/lv_hal/../lv_misc/lv_color.h ****     LV_COLOR_SET_A32(ret, 0xFF);
 391:..\..\..\lvgl\version_6.1.2\lvgl/src/lv_hal/../lv_misc/lv_color.h ****     return ret.full;
 392:..\..\..\lvgl\version_6.1.2\lvgl/src/lv_hal/../lv_misc/lv_color.h **** #elif LV_COLOR_DEPTH == 16
 393:..\..\..\lvgl\version_6.1.2\lvgl/src/lv_hal/../lv_misc/lv_color.h ****     /**
 394:..\..\..\lvgl\version_6.1.2\lvgl/src/lv_hal/../lv_misc/lv_color.h ****      * The floating point math for conversion is:
 395:..\..\..\lvgl\version_6.1.2\lvgl/src/lv_hal/../lv_misc/lv_color.h ****      *  valueto = valuefrom * ( (2^bitsto - 1) / (float)(2^bitsfrom - 1) )
 396:..\..\..\lvgl\version_6.1.2\lvgl/src/lv_hal/../lv_misc/lv_color.h ****      * The faster integer math for conversion is:
 397:..\..\..\lvgl\version_6.1.2\lvgl/src/lv_hal/../lv_misc/lv_color.h ****      *  valueto = ( valuefrom * multiplier + adder ) >> divisor
 398:..\..\..\lvgl\version_6.1.2\lvgl/src/lv_hal/../lv_misc/lv_color.h ****      *   multiplier = FLOOR( ( (2^bitsto - 1) << divisor ) / (float)(2^bitsfrom - 1) )
 399:..\..\..\lvgl\version_6.1.2\lvgl/src/lv_hal/../lv_misc/lv_color.h ****      * 
 400:..\..\..\lvgl\version_6.1.2\lvgl/src/lv_hal/../lv_misc/lv_color.h ****      * Find the first divisor where ( adder >> divisor ) <= 0
 401:..\..\..\lvgl\version_6.1.2\lvgl/src/lv_hal/../lv_misc/lv_color.h ****      * 
 402:..\..\..\lvgl\version_6.1.2\lvgl/src/lv_hal/../lv_misc/lv_color.h ****      * 5-bit to 8-bit: ( 31 * multiplier + adder ) >> divisor = 255
 403:..\..\..\lvgl\version_6.1.2\lvgl/src/lv_hal/../lv_misc/lv_color.h ****      * divisor  multiplier  adder  min (0)  max (31)
 404:..\..\..\lvgl\version_6.1.2\lvgl/src/lv_hal/../lv_misc/lv_color.h ****      *       0           8      7        7       255
 405:..\..\..\lvgl\version_6.1.2\lvgl/src/lv_hal/../lv_misc/lv_color.h ****      *       1          16     14        7       255
 406:..\..\..\lvgl\version_6.1.2\lvgl/src/lv_hal/../lv_misc/lv_color.h ****      *       2          32     28        7       255
 407:..\..\..\lvgl\version_6.1.2\lvgl/src/lv_hal/../lv_misc/lv_color.h ****      *       3          65     25        3       255
 408:..\..\..\lvgl\version_6.1.2\lvgl/src/lv_hal/../lv_misc/lv_color.h ****      *       4         131     19        1       255
 409:..\..\..\lvgl\version_6.1.2\lvgl/src/lv_hal/../lv_misc/lv_color.h ****      *       5         263      7        0       255
 410:..\..\..\lvgl\version_6.1.2\lvgl/src/lv_hal/../lv_misc/lv_color.h ****      * 
 411:..\..\..\lvgl\version_6.1.2\lvgl/src/lv_hal/../lv_misc/lv_color.h ****      * 6-bit to 8-bit: 255 = ( 63 * multiplier + adder ) >> divisor
 412:..\..\..\lvgl\version_6.1.2\lvgl/src/lv_hal/../lv_misc/lv_color.h ****      * divisor  multiplier  adder  min (0)  max (63)
 413:..\..\..\lvgl\version_6.1.2\lvgl/src/lv_hal/../lv_misc/lv_color.h ****      *       0           4      3        3       255
 414:..\..\..\lvgl\version_6.1.2\lvgl/src/lv_hal/../lv_misc/lv_color.h ****      *       1           8      6        3       255
 415:..\..\..\lvgl\version_6.1.2\lvgl/src/lv_hal/../lv_misc/lv_color.h ****      *       2          16     12        3       255
 416:..\..\..\lvgl\version_6.1.2\lvgl/src/lv_hal/../lv_misc/lv_color.h ****      *       3          32     24        3       255
 417:..\..\..\lvgl\version_6.1.2\lvgl/src/lv_hal/../lv_misc/lv_color.h ****      *       4          64     48        3       255
 418:..\..\..\lvgl\version_6.1.2\lvgl/src/lv_hal/../lv_misc/lv_color.h ****      *       5         129     33        1       255
 419:..\..\..\lvgl\version_6.1.2\lvgl/src/lv_hal/../lv_misc/lv_color.h ****      *       6         259      3        0       255
 420:..\..\..\lvgl\version_6.1.2\lvgl/src/lv_hal/../lv_misc/lv_color.h ****      */
 421:..\..\..\lvgl\version_6.1.2\lvgl/src/lv_hal/../lv_misc/lv_color.h ****     lv_color32_t ret;
 422:..\..\..\lvgl\version_6.1.2\lvgl/src/lv_hal/../lv_misc/lv_color.h ****     LV_COLOR_SET_R32(ret, (LV_COLOR_GET_R(color) * 263 + 7 ) >> 5);
 423:..\..\..\lvgl\version_6.1.2\lvgl/src/lv_hal/../lv_misc/lv_color.h ****     LV_COLOR_SET_G32(ret, (LV_COLOR_GET_G(color) * 259 + 3 ) >> 6);
 424:..\..\..\lvgl\version_6.1.2\lvgl/src/lv_hal/../lv_misc/lv_color.h ****     LV_COLOR_SET_B32(ret, (LV_COLOR_GET_B(color) * 263 + 7 ) >> 5);
 425:..\..\..\lvgl\version_6.1.2\lvgl/src/lv_hal/../lv_misc/lv_color.h ****     LV_COLOR_SET_A32(ret, 0xFF);
 426:..\..\..\lvgl\version_6.1.2\lvgl/src/lv_hal/../lv_misc/lv_color.h ****     return ret.full;
 427:..\..\..\lvgl\version_6.1.2\lvgl/src/lv_hal/../lv_misc/lv_color.h **** #elif LV_COLOR_DEPTH == 32
 428:..\..\..\lvgl\version_6.1.2\lvgl/src/lv_hal/../lv_misc/lv_color.h ****     return color.full;
ARM GAS  C:\Users\tmj32\AppData\Local\Temp\ccs01wAd.s 			page 9


 429:..\..\..\lvgl\version_6.1.2\lvgl/src/lv_hal/../lv_misc/lv_color.h **** #endif
 430:..\..\..\lvgl\version_6.1.2\lvgl/src/lv_hal/../lv_misc/lv_color.h **** }
 431:..\..\..\lvgl\version_6.1.2\lvgl/src/lv_hal/../lv_misc/lv_color.h **** 
 432:..\..\..\lvgl\version_6.1.2\lvgl/src/lv_hal/../lv_misc/lv_color.h **** static inline lv_color_t lv_color_mix(lv_color_t c1, lv_color_t c2, uint8_t mix)
 433:..\..\..\lvgl\version_6.1.2\lvgl/src/lv_hal/../lv_misc/lv_color.h **** {
 434:..\..\..\lvgl\version_6.1.2\lvgl/src/lv_hal/../lv_misc/lv_color.h ****     lv_color_t ret;
 435:..\..\..\lvgl\version_6.1.2\lvgl/src/lv_hal/../lv_misc/lv_color.h **** #if LV_COLOR_DEPTH != 1
 436:..\..\..\lvgl\version_6.1.2\lvgl/src/lv_hal/../lv_misc/lv_color.h ****     /*LV_COLOR_DEPTH == 8, 16 or 32*/
 437:..\..\..\lvgl\version_6.1.2\lvgl/src/lv_hal/../lv_misc/lv_color.h ****     LV_COLOR_SET_R(ret, (uint16_t)((uint16_t) LV_COLOR_GET_R(c1) * mix + LV_COLOR_GET_R(c2) * (255 
 438:..\..\..\lvgl\version_6.1.2\lvgl/src/lv_hal/../lv_misc/lv_color.h ****     LV_COLOR_SET_G(ret, (uint16_t)((uint16_t) LV_COLOR_GET_G(c1) * mix + LV_COLOR_GET_G(c2) * (255 
 439:..\..\..\lvgl\version_6.1.2\lvgl/src/lv_hal/../lv_misc/lv_color.h ****     LV_COLOR_SET_B(ret, (uint16_t)((uint16_t) LV_COLOR_GET_B(c1) * mix + LV_COLOR_GET_B(c2) * (255 
 440:..\..\..\lvgl\version_6.1.2\lvgl/src/lv_hal/../lv_misc/lv_color.h ****     LV_COLOR_SET_A(ret, 0xFF);
 441:..\..\..\lvgl\version_6.1.2\lvgl/src/lv_hal/../lv_misc/lv_color.h **** #else
 442:..\..\..\lvgl\version_6.1.2\lvgl/src/lv_hal/../lv_misc/lv_color.h ****     /*LV_COLOR_DEPTH == 1*/
 443:..\..\..\lvgl\version_6.1.2\lvgl/src/lv_hal/../lv_misc/lv_color.h ****     ret.full = mix > LV_OPA_50 ? c1.full : c2.full;
 444:..\..\..\lvgl\version_6.1.2\lvgl/src/lv_hal/../lv_misc/lv_color.h **** #endif
 445:..\..\..\lvgl\version_6.1.2\lvgl/src/lv_hal/../lv_misc/lv_color.h **** 
 446:..\..\..\lvgl\version_6.1.2\lvgl/src/lv_hal/../lv_misc/lv_color.h ****     return ret;
 447:..\..\..\lvgl\version_6.1.2\lvgl/src/lv_hal/../lv_misc/lv_color.h **** }
 448:..\..\..\lvgl\version_6.1.2\lvgl/src/lv_hal/../lv_misc/lv_color.h **** 
 449:..\..\..\lvgl\version_6.1.2\lvgl/src/lv_hal/../lv_misc/lv_color.h **** /**
 450:..\..\..\lvgl\version_6.1.2\lvgl/src/lv_hal/../lv_misc/lv_color.h ****  * Get the brightness of a color
 451:..\..\..\lvgl\version_6.1.2\lvgl/src/lv_hal/../lv_misc/lv_color.h ****  * @param color a color
 452:..\..\..\lvgl\version_6.1.2\lvgl/src/lv_hal/../lv_misc/lv_color.h ****  * @return the brightness [0..255]
 453:..\..\..\lvgl\version_6.1.2\lvgl/src/lv_hal/../lv_misc/lv_color.h ****  */
 454:..\..\..\lvgl\version_6.1.2\lvgl/src/lv_hal/../lv_misc/lv_color.h **** static inline uint8_t lv_color_brightness(lv_color_t color)
 455:..\..\..\lvgl\version_6.1.2\lvgl/src/lv_hal/../lv_misc/lv_color.h **** {
 456:..\..\..\lvgl\version_6.1.2\lvgl/src/lv_hal/../lv_misc/lv_color.h ****     lv_color32_t c32;
 457:..\..\..\lvgl\version_6.1.2\lvgl/src/lv_hal/../lv_misc/lv_color.h ****     c32.full        = lv_color_to32(color);
 458:..\..\..\lvgl\version_6.1.2\lvgl/src/lv_hal/../lv_misc/lv_color.h ****     uint16_t bright = (uint16_t)(3u * LV_COLOR_GET_R32(c32) + LV_COLOR_GET_B32(c32) + 4u * LV_COLOR
 459:..\..\..\lvgl\version_6.1.2\lvgl/src/lv_hal/../lv_misc/lv_color.h ****     return (uint8_t)(bright >> 3);
 460:..\..\..\lvgl\version_6.1.2\lvgl/src/lv_hal/../lv_misc/lv_color.h **** }
 461:..\..\..\lvgl\version_6.1.2\lvgl/src/lv_hal/../lv_misc/lv_color.h **** 
 462:..\..\..\lvgl\version_6.1.2\lvgl/src/lv_hal/../lv_misc/lv_color.h **** /* The most simple macro to create a color from R,G and B values */
 463:..\..\..\lvgl\version_6.1.2\lvgl/src/lv_hal/../lv_misc/lv_color.h **** #if LV_COLOR_DEPTH == 1
 464:..\..\..\lvgl\version_6.1.2\lvgl/src/lv_hal/../lv_misc/lv_color.h **** #define LV_COLOR_MAKE(r8, g8, b8) ((lv_color_t){.full = (uint8_t)((b8 >> 7) | (g8 >> 7) | (r8 >> 7)
 465:..\..\..\lvgl\version_6.1.2\lvgl/src/lv_hal/../lv_misc/lv_color.h **** #elif LV_COLOR_DEPTH == 8
 466:..\..\..\lvgl\version_6.1.2\lvgl/src/lv_hal/../lv_misc/lv_color.h **** #define LV_COLOR_MAKE(r8, g8, b8) ((lv_color_t){{(uint8_t)((b8 >> 6) & 0x3U), (uint8_t)((g8 >> 5) &
 467:..\..\..\lvgl\version_6.1.2\lvgl/src/lv_hal/../lv_misc/lv_color.h **** #elif LV_COLOR_DEPTH == 16
 468:..\..\..\lvgl\version_6.1.2\lvgl/src/lv_hal/../lv_misc/lv_color.h **** #if LV_COLOR_16_SWAP == 0
 469:..\..\..\lvgl\version_6.1.2\lvgl/src/lv_hal/../lv_misc/lv_color.h **** #define LV_COLOR_MAKE(r8, g8, b8) ((lv_color_t){{(uint16_t)((b8 >> 3) & 0x1FU), (uint16_t)((g8 >> 2
 470:..\..\..\lvgl\version_6.1.2\lvgl/src/lv_hal/../lv_misc/lv_color.h **** #else
 471:..\..\..\lvgl\version_6.1.2\lvgl/src/lv_hal/../lv_misc/lv_color.h **** #define LV_COLOR_MAKE(r8, g8, b8) ((lv_color_t){{(uint16_t)((g8 >> 5) & 0x7U), (uint16_t)((r8 >> 3)
 472:..\..\..\lvgl\version_6.1.2\lvgl/src/lv_hal/../lv_misc/lv_color.h **** #endif
 473:..\..\..\lvgl\version_6.1.2\lvgl/src/lv_hal/../lv_misc/lv_color.h **** #elif LV_COLOR_DEPTH == 32
 474:..\..\..\lvgl\version_6.1.2\lvgl/src/lv_hal/../lv_misc/lv_color.h **** #define LV_COLOR_MAKE(r8, g8, b8) ((lv_color_t){{b8, g8, r8, 0xff}}) /*Fix 0xff alpha*/
 475:..\..\..\lvgl\version_6.1.2\lvgl/src/lv_hal/../lv_misc/lv_color.h **** #endif
 476:..\..\..\lvgl\version_6.1.2\lvgl/src/lv_hal/../lv_misc/lv_color.h **** 
 477:..\..\..\lvgl\version_6.1.2\lvgl/src/lv_hal/../lv_misc/lv_color.h **** static inline lv_color_t lv_color_make(uint8_t r, uint8_t g, uint8_t b)
 478:..\..\..\lvgl\version_6.1.2\lvgl/src/lv_hal/../lv_misc/lv_color.h **** {
  29              		.loc 1 478 0
  30              		.cfi_startproc
  31              		@ args = 0, pretend = 0, frame = 8
  32              		@ frame_needed = 1, uses_anonymous_args = 0
  33              		@ link register save eliminated.
  34 0000 90B4     		push	{r4, r7}
  35              		.cfi_def_cfa_offset 8
ARM GAS  C:\Users\tmj32\AppData\Local\Temp\ccs01wAd.s 			page 10


  36              		.cfi_offset 4, -8
  37              		.cfi_offset 7, -4
  38 0002 82B0     		sub	sp, sp, #8
  39              		.cfi_def_cfa_offset 16
  40 0004 00AF     		add	r7, sp, #0
  41              		.cfi_def_cfa_register 7
  42 0006 0446     		mov	r4, r0
  43 0008 0846     		mov	r0, r1
  44 000a 1146     		mov	r1, r2
  45 000c 2246     		mov	r2, r4
  46 000e FA71     		strb	r2, [r7, #7]
  47 0010 0246     		mov	r2, r0
  48 0012 BA71     		strb	r2, [r7, #6]
  49 0014 0A46     		mov	r2, r1
  50 0016 7A71     		strb	r2, [r7, #5]
 479:..\..\..\lvgl\version_6.1.2\lvgl/src/lv_hal/../lv_misc/lv_color.h ****     return LV_COLOR_MAKE(r, g, b);
  51              		.loc 1 479 0
  52 0018 7A79     		ldrb	r2, [r7, #5]
  53 001a 62F30703 		bfi	r3, r2, #0, #8
  54 001e BA79     		ldrb	r2, [r7, #6]
  55 0020 62F30F23 		bfi	r3, r2, #8, #8
  56 0024 FA79     		ldrb	r2, [r7, #7]
  57 0026 62F31743 		bfi	r3, r2, #16, #8
  58 002a 43F07F43 		orr	r3, r3, #-16777216
 480:..\..\..\lvgl\version_6.1.2\lvgl/src/lv_hal/../lv_misc/lv_color.h **** }
  59              		.loc 1 480 0
  60 002e 1846     		mov	r0, r3
  61 0030 0837     		adds	r7, r7, #8
  62              		.cfi_def_cfa_offset 8
  63 0032 BD46     		mov	sp, r7
  64              		.cfi_def_cfa_register 13
  65              		@ sp needed
  66 0034 90BC     		pop	{r4, r7}
  67              		.cfi_restore 7
  68              		.cfi_restore 4
  69              		.cfi_def_cfa_offset 0
  70 0036 7047     		bx	lr
  71              		.cfi_endproc
  72              	.LFE588:
  73              		.size	lv_color_make, .-lv_color_make
  74              		.section	.text.lv_color_hex,"ax",%progbits
  75              		.align	2
  76              		.thumb
  77              		.thumb_func
  78              		.type	lv_color_hex, %function
  79              	lv_color_hex:
  80              	.LFB589:
 481:..\..\..\lvgl\version_6.1.2\lvgl/src/lv_hal/../lv_misc/lv_color.h **** 
 482:..\..\..\lvgl\version_6.1.2\lvgl/src/lv_hal/../lv_misc/lv_color.h **** static inline lv_color_t lv_color_hex(uint32_t c)
 483:..\..\..\lvgl\version_6.1.2\lvgl/src/lv_hal/../lv_misc/lv_color.h **** {
  81              		.loc 1 483 0
  82              		.cfi_startproc
  83              		@ args = 0, pretend = 0, frame = 8
  84              		@ frame_needed = 1, uses_anonymous_args = 0
  85 0000 80B5     		push	{r7, lr}
  86              		.cfi_def_cfa_offset 8
  87              		.cfi_offset 7, -8
ARM GAS  C:\Users\tmj32\AppData\Local\Temp\ccs01wAd.s 			page 11


  88              		.cfi_offset 14, -4
  89 0002 82B0     		sub	sp, sp, #8
  90              		.cfi_def_cfa_offset 16
  91 0004 00AF     		add	r7, sp, #0
  92              		.cfi_def_cfa_register 7
  93 0006 7860     		str	r0, [r7, #4]
 484:..\..\..\lvgl\version_6.1.2\lvgl/src/lv_hal/../lv_misc/lv_color.h ****     return lv_color_make((uint8_t)((c >> 16) & 0xFF), (uint8_t)((c >> 8) & 0xFF), (uint8_t)(c & 0xF
  94              		.loc 1 484 0
  95 0008 7B68     		ldr	r3, [r7, #4]
  96 000a 1B0C     		lsrs	r3, r3, #16
  97 000c D8B2     		uxtb	r0, r3
  98 000e 7B68     		ldr	r3, [r7, #4]
  99 0010 1B0A     		lsrs	r3, r3, #8
 100 0012 DBB2     		uxtb	r3, r3
 101 0014 7A68     		ldr	r2, [r7, #4]
 102 0016 D2B2     		uxtb	r2, r2
 103 0018 1946     		mov	r1, r3
 104 001a FFF7FEFF 		bl	lv_color_make
 105 001e 0346     		mov	r3, r0
 485:..\..\..\lvgl\version_6.1.2\lvgl/src/lv_hal/../lv_misc/lv_color.h **** }
 106              		.loc 1 485 0
 107 0020 1846     		mov	r0, r3
 108 0022 0837     		adds	r7, r7, #8
 109              		.cfi_def_cfa_offset 8
 110 0024 BD46     		mov	sp, r7
 111              		.cfi_def_cfa_register 13
 112              		@ sp needed
 113 0026 80BD     		pop	{r7, pc}
 114              		.cfi_endproc
 115              	.LFE589:
 116              		.size	lv_color_hex, .-lv_color_hex
 117              		.section	.text.lv_scr_act,"ax",%progbits
 118              		.align	2
 119              		.thumb
 120              		.thumb_func
 121              		.type	lv_scr_act, %function
 122              	lv_scr_act:
 123              	.LFB613:
 124              		.file 2 "..\\..\\..\\lvgl\\version_6.1.2\\lvgl/src/lv_core/lv_disp.h"
   1:..\..\..\lvgl\version_6.1.2\lvgl/src/lv_core/lv_disp.h **** /**
   2:..\..\..\lvgl\version_6.1.2\lvgl/src/lv_core/lv_disp.h ****  * @file lv_disp.h
   3:..\..\..\lvgl\version_6.1.2\lvgl/src/lv_core/lv_disp.h ****  *
   4:..\..\..\lvgl\version_6.1.2\lvgl/src/lv_core/lv_disp.h ****  */
   5:..\..\..\lvgl\version_6.1.2\lvgl/src/lv_core/lv_disp.h **** 
   6:..\..\..\lvgl\version_6.1.2\lvgl/src/lv_core/lv_disp.h **** #ifndef LV_DISP_H
   7:..\..\..\lvgl\version_6.1.2\lvgl/src/lv_core/lv_disp.h **** #define LV_DISP_H
   8:..\..\..\lvgl\version_6.1.2\lvgl/src/lv_core/lv_disp.h **** 
   9:..\..\..\lvgl\version_6.1.2\lvgl/src/lv_core/lv_disp.h **** #ifdef __cplusplus
  10:..\..\..\lvgl\version_6.1.2\lvgl/src/lv_core/lv_disp.h **** extern "C" {
  11:..\..\..\lvgl\version_6.1.2\lvgl/src/lv_core/lv_disp.h **** #endif
  12:..\..\..\lvgl\version_6.1.2\lvgl/src/lv_core/lv_disp.h **** 
  13:..\..\..\lvgl\version_6.1.2\lvgl/src/lv_core/lv_disp.h **** /*********************
  14:..\..\..\lvgl\version_6.1.2\lvgl/src/lv_core/lv_disp.h ****  *      INCLUDES
  15:..\..\..\lvgl\version_6.1.2\lvgl/src/lv_core/lv_disp.h ****  *********************/
  16:..\..\..\lvgl\version_6.1.2\lvgl/src/lv_core/lv_disp.h **** #include "../lv_hal/lv_hal.h"
  17:..\..\..\lvgl\version_6.1.2\lvgl/src/lv_core/lv_disp.h **** #include "lv_obj.h"
  18:..\..\..\lvgl\version_6.1.2\lvgl/src/lv_core/lv_disp.h **** 
ARM GAS  C:\Users\tmj32\AppData\Local\Temp\ccs01wAd.s 			page 12


  19:..\..\..\lvgl\version_6.1.2\lvgl/src/lv_core/lv_disp.h **** /*********************
  20:..\..\..\lvgl\version_6.1.2\lvgl/src/lv_core/lv_disp.h ****  *      DEFINES
  21:..\..\..\lvgl\version_6.1.2\lvgl/src/lv_core/lv_disp.h ****  *********************/
  22:..\..\..\lvgl\version_6.1.2\lvgl/src/lv_core/lv_disp.h **** 
  23:..\..\..\lvgl\version_6.1.2\lvgl/src/lv_core/lv_disp.h **** /**********************
  24:..\..\..\lvgl\version_6.1.2\lvgl/src/lv_core/lv_disp.h ****  *      TYPEDEFS
  25:..\..\..\lvgl\version_6.1.2\lvgl/src/lv_core/lv_disp.h ****  **********************/
  26:..\..\..\lvgl\version_6.1.2\lvgl/src/lv_core/lv_disp.h **** 
  27:..\..\..\lvgl\version_6.1.2\lvgl/src/lv_core/lv_disp.h **** /**********************
  28:..\..\..\lvgl\version_6.1.2\lvgl/src/lv_core/lv_disp.h ****  * GLOBAL PROTOTYPES
  29:..\..\..\lvgl\version_6.1.2\lvgl/src/lv_core/lv_disp.h ****  **********************/
  30:..\..\..\lvgl\version_6.1.2\lvgl/src/lv_core/lv_disp.h **** 
  31:..\..\..\lvgl\version_6.1.2\lvgl/src/lv_core/lv_disp.h **** /**
  32:..\..\..\lvgl\version_6.1.2\lvgl/src/lv_core/lv_disp.h ****  * Return with a pointer to the active screen
  33:..\..\..\lvgl\version_6.1.2\lvgl/src/lv_core/lv_disp.h ****  * @param disp pointer to display which active screen should be get. (NULL to use the default
  34:..\..\..\lvgl\version_6.1.2\lvgl/src/lv_core/lv_disp.h ****  * screen)
  35:..\..\..\lvgl\version_6.1.2\lvgl/src/lv_core/lv_disp.h ****  * @return pointer to the active screen object (loaded by 'lv_scr_load()')
  36:..\..\..\lvgl\version_6.1.2\lvgl/src/lv_core/lv_disp.h ****  */
  37:..\..\..\lvgl\version_6.1.2\lvgl/src/lv_core/lv_disp.h **** lv_obj_t * lv_disp_get_scr_act(lv_disp_t * disp);
  38:..\..\..\lvgl\version_6.1.2\lvgl/src/lv_core/lv_disp.h **** 
  39:..\..\..\lvgl\version_6.1.2\lvgl/src/lv_core/lv_disp.h **** /**
  40:..\..\..\lvgl\version_6.1.2\lvgl/src/lv_core/lv_disp.h ****  * Make a screen active
  41:..\..\..\lvgl\version_6.1.2\lvgl/src/lv_core/lv_disp.h ****  * @param scr pointer to a screen
  42:..\..\..\lvgl\version_6.1.2\lvgl/src/lv_core/lv_disp.h ****  */
  43:..\..\..\lvgl\version_6.1.2\lvgl/src/lv_core/lv_disp.h **** void lv_disp_load_scr(lv_obj_t * scr);
  44:..\..\..\lvgl\version_6.1.2\lvgl/src/lv_core/lv_disp.h **** 
  45:..\..\..\lvgl\version_6.1.2\lvgl/src/lv_core/lv_disp.h **** /**
  46:..\..\..\lvgl\version_6.1.2\lvgl/src/lv_core/lv_disp.h ****  * Return with the top layer. (Same on every screen and it is above the normal screen layer)
  47:..\..\..\lvgl\version_6.1.2\lvgl/src/lv_core/lv_disp.h ****  * @param disp pointer to display which top layer should be get. (NULL to use the default screen)
  48:..\..\..\lvgl\version_6.1.2\lvgl/src/lv_core/lv_disp.h ****  * @return pointer to the top layer object  (transparent screen sized lv_obj)
  49:..\..\..\lvgl\version_6.1.2\lvgl/src/lv_core/lv_disp.h ****  */
  50:..\..\..\lvgl\version_6.1.2\lvgl/src/lv_core/lv_disp.h **** lv_obj_t * lv_disp_get_layer_top(lv_disp_t * disp);
  51:..\..\..\lvgl\version_6.1.2\lvgl/src/lv_core/lv_disp.h **** 
  52:..\..\..\lvgl\version_6.1.2\lvgl/src/lv_core/lv_disp.h **** /**
  53:..\..\..\lvgl\version_6.1.2\lvgl/src/lv_core/lv_disp.h ****  * Return with the sys. layer. (Same on every screen and it is above the normal screen and the top
  54:..\..\..\lvgl\version_6.1.2\lvgl/src/lv_core/lv_disp.h ****  * layer)
  55:..\..\..\lvgl\version_6.1.2\lvgl/src/lv_core/lv_disp.h ****  * @param disp pointer to display which sys. layer  should be get. (NULL to use the default screen)
  56:..\..\..\lvgl\version_6.1.2\lvgl/src/lv_core/lv_disp.h ****  * @return pointer to the sys layer object  (transparent screen sized lv_obj)
  57:..\..\..\lvgl\version_6.1.2\lvgl/src/lv_core/lv_disp.h ****  */
  58:..\..\..\lvgl\version_6.1.2\lvgl/src/lv_core/lv_disp.h **** lv_obj_t * lv_disp_get_layer_sys(lv_disp_t * disp);
  59:..\..\..\lvgl\version_6.1.2\lvgl/src/lv_core/lv_disp.h **** 
  60:..\..\..\lvgl\version_6.1.2\lvgl/src/lv_core/lv_disp.h **** /**
  61:..\..\..\lvgl\version_6.1.2\lvgl/src/lv_core/lv_disp.h ****  * Assign a screen to a display.
  62:..\..\..\lvgl\version_6.1.2\lvgl/src/lv_core/lv_disp.h ****  * @param disp pointer to a display where to assign the screen
  63:..\..\..\lvgl\version_6.1.2\lvgl/src/lv_core/lv_disp.h ****  * @param scr pointer to a screen object to assign
  64:..\..\..\lvgl\version_6.1.2\lvgl/src/lv_core/lv_disp.h ****  */
  65:..\..\..\lvgl\version_6.1.2\lvgl/src/lv_core/lv_disp.h **** void lv_disp_assign_screen(lv_disp_t * disp, lv_obj_t * scr);
  66:..\..\..\lvgl\version_6.1.2\lvgl/src/lv_core/lv_disp.h **** 
  67:..\..\..\lvgl\version_6.1.2\lvgl/src/lv_core/lv_disp.h **** /**
  68:..\..\..\lvgl\version_6.1.2\lvgl/src/lv_core/lv_disp.h ****  * Get a pointer to the screen refresher task to
  69:..\..\..\lvgl\version_6.1.2\lvgl/src/lv_core/lv_disp.h ****  * modify its parameters with `lv_task_...` functions.
  70:..\..\..\lvgl\version_6.1.2\lvgl/src/lv_core/lv_disp.h ****  * @param disp pointer to a display
  71:..\..\..\lvgl\version_6.1.2\lvgl/src/lv_core/lv_disp.h ****  * @return pointer to the display refresher task. (NULL on error)
  72:..\..\..\lvgl\version_6.1.2\lvgl/src/lv_core/lv_disp.h ****  */
  73:..\..\..\lvgl\version_6.1.2\lvgl/src/lv_core/lv_disp.h **** lv_task_t * lv_disp_get_refr_task(lv_disp_t * disp);
  74:..\..\..\lvgl\version_6.1.2\lvgl/src/lv_core/lv_disp.h **** 
  75:..\..\..\lvgl\version_6.1.2\lvgl/src/lv_core/lv_disp.h **** /**
ARM GAS  C:\Users\tmj32\AppData\Local\Temp\ccs01wAd.s 			page 13


  76:..\..\..\lvgl\version_6.1.2\lvgl/src/lv_core/lv_disp.h ****  * Get elapsed time since last user activity on a display (e.g. click)
  77:..\..\..\lvgl\version_6.1.2\lvgl/src/lv_core/lv_disp.h ****  * @param disp pointer to an display (NULL to get the overall smallest inactivity)
  78:..\..\..\lvgl\version_6.1.2\lvgl/src/lv_core/lv_disp.h ****  * @return elapsed ticks (milliseconds) since the last activity
  79:..\..\..\lvgl\version_6.1.2\lvgl/src/lv_core/lv_disp.h ****  */
  80:..\..\..\lvgl\version_6.1.2\lvgl/src/lv_core/lv_disp.h **** uint32_t lv_disp_get_inactive_time(const lv_disp_t * disp);
  81:..\..\..\lvgl\version_6.1.2\lvgl/src/lv_core/lv_disp.h **** 
  82:..\..\..\lvgl\version_6.1.2\lvgl/src/lv_core/lv_disp.h **** /**
  83:..\..\..\lvgl\version_6.1.2\lvgl/src/lv_core/lv_disp.h ****  * Manually trigger an activity on a display
  84:..\..\..\lvgl\version_6.1.2\lvgl/src/lv_core/lv_disp.h ****  * @param disp pointer to an display (NULL to use the default display)
  85:..\..\..\lvgl\version_6.1.2\lvgl/src/lv_core/lv_disp.h ****  */
  86:..\..\..\lvgl\version_6.1.2\lvgl/src/lv_core/lv_disp.h **** void lv_disp_trig_activity(lv_disp_t * disp);
  87:..\..\..\lvgl\version_6.1.2\lvgl/src/lv_core/lv_disp.h **** 
  88:..\..\..\lvgl\version_6.1.2\lvgl/src/lv_core/lv_disp.h **** /*------------------------------------------------
  89:..\..\..\lvgl\version_6.1.2\lvgl/src/lv_core/lv_disp.h ****  * To improve backward compatibility
  90:..\..\..\lvgl\version_6.1.2\lvgl/src/lv_core/lv_disp.h ****  * Recommended only if you have one display
  91:..\..\..\lvgl\version_6.1.2\lvgl/src/lv_core/lv_disp.h ****  *------------------------------------------------*/
  92:..\..\..\lvgl\version_6.1.2\lvgl/src/lv_core/lv_disp.h **** 
  93:..\..\..\lvgl\version_6.1.2\lvgl/src/lv_core/lv_disp.h **** /**
  94:..\..\..\lvgl\version_6.1.2\lvgl/src/lv_core/lv_disp.h ****  * Get the active screen of the default display
  95:..\..\..\lvgl\version_6.1.2\lvgl/src/lv_core/lv_disp.h ****  * @return pointer to the active screen
  96:..\..\..\lvgl\version_6.1.2\lvgl/src/lv_core/lv_disp.h ****  */
  97:..\..\..\lvgl\version_6.1.2\lvgl/src/lv_core/lv_disp.h **** static inline lv_obj_t * lv_scr_act(void)
  98:..\..\..\lvgl\version_6.1.2\lvgl/src/lv_core/lv_disp.h **** {
 125              		.loc 2 98 0
 126              		.cfi_startproc
 127              		@ args = 0, pretend = 0, frame = 0
 128              		@ frame_needed = 1, uses_anonymous_args = 0
 129 0000 80B5     		push	{r7, lr}
 130              		.cfi_def_cfa_offset 8
 131              		.cfi_offset 7, -8
 132              		.cfi_offset 14, -4
 133 0002 00AF     		add	r7, sp, #0
 134              		.cfi_def_cfa_register 7
  99:..\..\..\lvgl\version_6.1.2\lvgl/src/lv_core/lv_disp.h ****     return lv_disp_get_scr_act(lv_disp_get_default());
 135              		.loc 2 99 0
 136 0004 FFF7FEFF 		bl	lv_disp_get_default
 137 0008 0346     		mov	r3, r0
 138 000a 1846     		mov	r0, r3
 139 000c FFF7FEFF 		bl	lv_disp_get_scr_act
 140 0010 0346     		mov	r3, r0
 100:..\..\..\lvgl\version_6.1.2\lvgl/src/lv_core/lv_disp.h **** }
 141              		.loc 2 100 0
 142 0012 1846     		mov	r0, r3
 143 0014 80BD     		pop	{r7, pc}
 144              		.cfi_endproc
 145              	.LFE613:
 146              		.size	lv_scr_act, .-lv_scr_act
 147 0016 00BF     		.section	.text.lv_slider_set_value,"ax",%progbits
 148              		.align	2
 149              		.thumb
 150              		.thumb_func
 151              		.type	lv_slider_set_value, %function
 152              	lv_slider_set_value:
 153              	.LFB668:
 154              		.file 3 "..\\..\\..\\lvgl\\version_6.1.2\\lvgl/src/lv_objx/lv_slider.h"
   1:..\..\..\lvgl\version_6.1.2\lvgl/src/lv_objx/lv_slider.h **** /**
   2:..\..\..\lvgl\version_6.1.2\lvgl/src/lv_objx/lv_slider.h ****  * @file lv_slider.h
ARM GAS  C:\Users\tmj32\AppData\Local\Temp\ccs01wAd.s 			page 14


   3:..\..\..\lvgl\version_6.1.2\lvgl/src/lv_objx/lv_slider.h ****  *
   4:..\..\..\lvgl\version_6.1.2\lvgl/src/lv_objx/lv_slider.h ****  */
   5:..\..\..\lvgl\version_6.1.2\lvgl/src/lv_objx/lv_slider.h **** 
   6:..\..\..\lvgl\version_6.1.2\lvgl/src/lv_objx/lv_slider.h **** #ifndef LV_SLIDER_H
   7:..\..\..\lvgl\version_6.1.2\lvgl/src/lv_objx/lv_slider.h **** #define LV_SLIDER_H
   8:..\..\..\lvgl\version_6.1.2\lvgl/src/lv_objx/lv_slider.h **** 
   9:..\..\..\lvgl\version_6.1.2\lvgl/src/lv_objx/lv_slider.h **** #ifdef __cplusplus
  10:..\..\..\lvgl\version_6.1.2\lvgl/src/lv_objx/lv_slider.h **** extern "C" {
  11:..\..\..\lvgl\version_6.1.2\lvgl/src/lv_objx/lv_slider.h **** #endif
  12:..\..\..\lvgl\version_6.1.2\lvgl/src/lv_objx/lv_slider.h **** 
  13:..\..\..\lvgl\version_6.1.2\lvgl/src/lv_objx/lv_slider.h **** /*********************
  14:..\..\..\lvgl\version_6.1.2\lvgl/src/lv_objx/lv_slider.h ****  *      INCLUDES
  15:..\..\..\lvgl\version_6.1.2\lvgl/src/lv_objx/lv_slider.h ****  *********************/
  16:..\..\..\lvgl\version_6.1.2\lvgl/src/lv_objx/lv_slider.h **** #ifdef LV_CONF_INCLUDE_SIMPLE
  17:..\..\..\lvgl\version_6.1.2\lvgl/src/lv_objx/lv_slider.h **** #include "lv_conf.h"
  18:..\..\..\lvgl\version_6.1.2\lvgl/src/lv_objx/lv_slider.h **** #else
  19:..\..\..\lvgl\version_6.1.2\lvgl/src/lv_objx/lv_slider.h **** #include "../../../lv_conf.h"
  20:..\..\..\lvgl\version_6.1.2\lvgl/src/lv_objx/lv_slider.h **** #endif
  21:..\..\..\lvgl\version_6.1.2\lvgl/src/lv_objx/lv_slider.h **** 
  22:..\..\..\lvgl\version_6.1.2\lvgl/src/lv_objx/lv_slider.h **** #if LV_USE_SLIDER != 0
  23:..\..\..\lvgl\version_6.1.2\lvgl/src/lv_objx/lv_slider.h **** 
  24:..\..\..\lvgl\version_6.1.2\lvgl/src/lv_objx/lv_slider.h **** /*Testing of dependencies*/
  25:..\..\..\lvgl\version_6.1.2\lvgl/src/lv_objx/lv_slider.h **** #if LV_USE_BAR == 0
  26:..\..\..\lvgl\version_6.1.2\lvgl/src/lv_objx/lv_slider.h **** #error "lv_slider: lv_bar is required. Enable it in lv_conf.h (LV_USE_BAR  1) "
  27:..\..\..\lvgl\version_6.1.2\lvgl/src/lv_objx/lv_slider.h **** #endif
  28:..\..\..\lvgl\version_6.1.2\lvgl/src/lv_objx/lv_slider.h **** 
  29:..\..\..\lvgl\version_6.1.2\lvgl/src/lv_objx/lv_slider.h **** #include "../lv_core/lv_obj.h"
  30:..\..\..\lvgl\version_6.1.2\lvgl/src/lv_objx/lv_slider.h **** #include "lv_bar.h"
  31:..\..\..\lvgl\version_6.1.2\lvgl/src/lv_objx/lv_slider.h **** 
  32:..\..\..\lvgl\version_6.1.2\lvgl/src/lv_objx/lv_slider.h **** /*********************
  33:..\..\..\lvgl\version_6.1.2\lvgl/src/lv_objx/lv_slider.h ****  *      DEFINES
  34:..\..\..\lvgl\version_6.1.2\lvgl/src/lv_objx/lv_slider.h ****  *********************/
  35:..\..\..\lvgl\version_6.1.2\lvgl/src/lv_objx/lv_slider.h **** 
  36:..\..\..\lvgl\version_6.1.2\lvgl/src/lv_objx/lv_slider.h **** /**********************
  37:..\..\..\lvgl\version_6.1.2\lvgl/src/lv_objx/lv_slider.h ****  *      TYPEDEFS
  38:..\..\..\lvgl\version_6.1.2\lvgl/src/lv_objx/lv_slider.h ****  **********************/
  39:..\..\..\lvgl\version_6.1.2\lvgl/src/lv_objx/lv_slider.h **** /*Data of slider*/
  40:..\..\..\lvgl\version_6.1.2\lvgl/src/lv_objx/lv_slider.h **** typedef struct
  41:..\..\..\lvgl\version_6.1.2\lvgl/src/lv_objx/lv_slider.h **** {
  42:..\..\..\lvgl\version_6.1.2\lvgl/src/lv_objx/lv_slider.h ****     lv_bar_ext_t bar; /*Ext. of ancestor*/
  43:..\..\..\lvgl\version_6.1.2\lvgl/src/lv_objx/lv_slider.h ****     /*New data for this type */
  44:..\..\..\lvgl\version_6.1.2\lvgl/src/lv_objx/lv_slider.h ****     const lv_style_t * style_knob; /*Style of the knob*/
  45:..\..\..\lvgl\version_6.1.2\lvgl/src/lv_objx/lv_slider.h ****     int16_t drag_value;            /*Store a temporal value during press until release (Handled by 
  46:..\..\..\lvgl\version_6.1.2\lvgl/src/lv_objx/lv_slider.h ****     uint8_t knob_in : 1;           /*1: Draw the knob inside the bar*/
  47:..\..\..\lvgl\version_6.1.2\lvgl/src/lv_objx/lv_slider.h **** } lv_slider_ext_t;
  48:..\..\..\lvgl\version_6.1.2\lvgl/src/lv_objx/lv_slider.h **** 
  49:..\..\..\lvgl\version_6.1.2\lvgl/src/lv_objx/lv_slider.h **** /** Built-in styles of slider*/
  50:..\..\..\lvgl\version_6.1.2\lvgl/src/lv_objx/lv_slider.h **** enum {
  51:..\..\..\lvgl\version_6.1.2\lvgl/src/lv_objx/lv_slider.h ****     LV_SLIDER_STYLE_BG, /** Slider background style. */
  52:..\..\..\lvgl\version_6.1.2\lvgl/src/lv_objx/lv_slider.h ****     LV_SLIDER_STYLE_INDIC, /** Slider indicator (filled area) style. */
  53:..\..\..\lvgl\version_6.1.2\lvgl/src/lv_objx/lv_slider.h ****     LV_SLIDER_STYLE_KNOB, /** Slider knob style. */
  54:..\..\..\lvgl\version_6.1.2\lvgl/src/lv_objx/lv_slider.h **** };
  55:..\..\..\lvgl\version_6.1.2\lvgl/src/lv_objx/lv_slider.h **** typedef uint8_t lv_slider_style_t;
  56:..\..\..\lvgl\version_6.1.2\lvgl/src/lv_objx/lv_slider.h **** 
  57:..\..\..\lvgl\version_6.1.2\lvgl/src/lv_objx/lv_slider.h **** /**********************
  58:..\..\..\lvgl\version_6.1.2\lvgl/src/lv_objx/lv_slider.h ****  * GLOBAL PROTOTYPES
  59:..\..\..\lvgl\version_6.1.2\lvgl/src/lv_objx/lv_slider.h ****  **********************/
ARM GAS  C:\Users\tmj32\AppData\Local\Temp\ccs01wAd.s 			page 15


  60:..\..\..\lvgl\version_6.1.2\lvgl/src/lv_objx/lv_slider.h **** 
  61:..\..\..\lvgl\version_6.1.2\lvgl/src/lv_objx/lv_slider.h **** /**
  62:..\..\..\lvgl\version_6.1.2\lvgl/src/lv_objx/lv_slider.h ****  * Create a slider objects
  63:..\..\..\lvgl\version_6.1.2\lvgl/src/lv_objx/lv_slider.h ****  * @param par pointer to an object, it will be the parent of the new slider
  64:..\..\..\lvgl\version_6.1.2\lvgl/src/lv_objx/lv_slider.h ****  * @param copy pointer to a slider object, if not NULL then the new object will be copied from it
  65:..\..\..\lvgl\version_6.1.2\lvgl/src/lv_objx/lv_slider.h ****  * @return pointer to the created slider
  66:..\..\..\lvgl\version_6.1.2\lvgl/src/lv_objx/lv_slider.h ****  */
  67:..\..\..\lvgl\version_6.1.2\lvgl/src/lv_objx/lv_slider.h **** lv_obj_t * lv_slider_create(lv_obj_t * par, const lv_obj_t * copy);
  68:..\..\..\lvgl\version_6.1.2\lvgl/src/lv_objx/lv_slider.h **** 
  69:..\..\..\lvgl\version_6.1.2\lvgl/src/lv_objx/lv_slider.h **** /*=====================
  70:..\..\..\lvgl\version_6.1.2\lvgl/src/lv_objx/lv_slider.h ****  * Setter functions
  71:..\..\..\lvgl\version_6.1.2\lvgl/src/lv_objx/lv_slider.h ****  *====================*/
  72:..\..\..\lvgl\version_6.1.2\lvgl/src/lv_objx/lv_slider.h **** 
  73:..\..\..\lvgl\version_6.1.2\lvgl/src/lv_objx/lv_slider.h **** /**
  74:..\..\..\lvgl\version_6.1.2\lvgl/src/lv_objx/lv_slider.h ****  * Set a new value on the slider
  75:..\..\..\lvgl\version_6.1.2\lvgl/src/lv_objx/lv_slider.h ****  * @param slider pointer to a slider object
  76:..\..\..\lvgl\version_6.1.2\lvgl/src/lv_objx/lv_slider.h ****  * @param value new value
  77:..\..\..\lvgl\version_6.1.2\lvgl/src/lv_objx/lv_slider.h ****  * @param anim LV_ANIM_ON: set the value with an animation; LV_ANIM_OFF: change the value immediate
  78:..\..\..\lvgl\version_6.1.2\lvgl/src/lv_objx/lv_slider.h ****  */
  79:..\..\..\lvgl\version_6.1.2\lvgl/src/lv_objx/lv_slider.h **** static inline void lv_slider_set_value(lv_obj_t * slider, int16_t value, lv_anim_enable_t anim)
  80:..\..\..\lvgl\version_6.1.2\lvgl/src/lv_objx/lv_slider.h **** {
 155              		.loc 3 80 0
 156              		.cfi_startproc
 157              		@ args = 0, pretend = 0, frame = 8
 158              		@ frame_needed = 1, uses_anonymous_args = 0
 159 0000 80B5     		push	{r7, lr}
 160              		.cfi_def_cfa_offset 8
 161              		.cfi_offset 7, -8
 162              		.cfi_offset 14, -4
 163 0002 82B0     		sub	sp, sp, #8
 164              		.cfi_def_cfa_offset 16
 165 0004 00AF     		add	r7, sp, #0
 166              		.cfi_def_cfa_register 7
 167 0006 7860     		str	r0, [r7, #4]
 168 0008 0B46     		mov	r3, r1
 169 000a 7B80     		strh	r3, [r7, #2]	@ movhi
 170 000c 1346     		mov	r3, r2
 171 000e 7B70     		strb	r3, [r7, #1]
  81:..\..\..\lvgl\version_6.1.2\lvgl/src/lv_objx/lv_slider.h ****     lv_bar_set_value(slider, value, anim);
 172              		.loc 3 81 0
 173 0010 7A78     		ldrb	r2, [r7, #1]	@ zero_extendqisi2
 174 0012 B7F90230 		ldrsh	r3, [r7, #2]
 175 0016 1946     		mov	r1, r3
 176 0018 7868     		ldr	r0, [r7, #4]
 177 001a FFF7FEFF 		bl	lv_bar_set_value
  82:..\..\..\lvgl\version_6.1.2\lvgl/src/lv_objx/lv_slider.h **** }
 178              		.loc 3 82 0
 179 001e 00BF     		nop
 180 0020 0837     		adds	r7, r7, #8
 181              		.cfi_def_cfa_offset 8
 182 0022 BD46     		mov	sp, r7
 183              		.cfi_def_cfa_register 13
 184              		@ sp needed
 185 0024 80BD     		pop	{r7, pc}
 186              		.cfi_endproc
 187              	.LFE668:
 188              		.size	lv_slider_set_value, .-lv_slider_set_value
ARM GAS  C:\Users\tmj32\AppData\Local\Temp\ccs01wAd.s 			page 16


 189 0026 00BF     		.section	.text.lv_slider_set_range,"ax",%progbits
 190              		.align	2
 191              		.thumb
 192              		.thumb_func
 193              		.type	lv_slider_set_range, %function
 194              	lv_slider_set_range:
 195              	.LFB669:
  83:..\..\..\lvgl\version_6.1.2\lvgl/src/lv_objx/lv_slider.h **** 
  84:..\..\..\lvgl\version_6.1.2\lvgl/src/lv_objx/lv_slider.h **** /**
  85:..\..\..\lvgl\version_6.1.2\lvgl/src/lv_objx/lv_slider.h ****  * Set minimum and the maximum values of a bar
  86:..\..\..\lvgl\version_6.1.2\lvgl/src/lv_objx/lv_slider.h ****  * @param slider pointer to the slider object
  87:..\..\..\lvgl\version_6.1.2\lvgl/src/lv_objx/lv_slider.h ****  * @param min minimum value
  88:..\..\..\lvgl\version_6.1.2\lvgl/src/lv_objx/lv_slider.h ****  * @param max maximum value
  89:..\..\..\lvgl\version_6.1.2\lvgl/src/lv_objx/lv_slider.h ****  */
  90:..\..\..\lvgl\version_6.1.2\lvgl/src/lv_objx/lv_slider.h **** static inline void lv_slider_set_range(lv_obj_t * slider, int16_t min, int16_t max)
  91:..\..\..\lvgl\version_6.1.2\lvgl/src/lv_objx/lv_slider.h **** {
 196              		.loc 3 91 0
 197              		.cfi_startproc
 198              		@ args = 0, pretend = 0, frame = 8
 199              		@ frame_needed = 1, uses_anonymous_args = 0
 200 0000 80B5     		push	{r7, lr}
 201              		.cfi_def_cfa_offset 8
 202              		.cfi_offset 7, -8
 203              		.cfi_offset 14, -4
 204 0002 82B0     		sub	sp, sp, #8
 205              		.cfi_def_cfa_offset 16
 206 0004 00AF     		add	r7, sp, #0
 207              		.cfi_def_cfa_register 7
 208 0006 7860     		str	r0, [r7, #4]
 209 0008 0B46     		mov	r3, r1
 210 000a 7B80     		strh	r3, [r7, #2]	@ movhi
 211 000c 1346     		mov	r3, r2	@ movhi
 212 000e 3B80     		strh	r3, [r7]	@ movhi
  92:..\..\..\lvgl\version_6.1.2\lvgl/src/lv_objx/lv_slider.h ****     lv_bar_set_range(slider, min, max);
 213              		.loc 3 92 0
 214 0010 B7F90020 		ldrsh	r2, [r7]
 215 0014 B7F90230 		ldrsh	r3, [r7, #2]
 216 0018 1946     		mov	r1, r3
 217 001a 7868     		ldr	r0, [r7, #4]
 218 001c FFF7FEFF 		bl	lv_bar_set_range
  93:..\..\..\lvgl\version_6.1.2\lvgl/src/lv_objx/lv_slider.h **** }
 219              		.loc 3 93 0
 220 0020 00BF     		nop
 221 0022 0837     		adds	r7, r7, #8
 222              		.cfi_def_cfa_offset 8
 223 0024 BD46     		mov	sp, r7
 224              		.cfi_def_cfa_register 13
 225              		@ sp needed
 226 0026 80BD     		pop	{r7, pc}
 227              		.cfi_endproc
 228              	.LFE669:
 229              		.size	lv_slider_set_range, .-lv_slider_set_range
 230              		.section	.text.lv_roller_get_selected_str,"ax",%progbits
 231              		.align	2
 232              		.thumb
 233              		.thumb_func
 234              		.type	lv_roller_get_selected_str, %function
ARM GAS  C:\Users\tmj32\AppData\Local\Temp\ccs01wAd.s 			page 17


 235              	lv_roller_get_selected_str:
 236              	.LFB687:
 237              		.file 4 "..\\..\\..\\lvgl\\version_6.1.2\\lvgl/src/lv_objx/lv_roller.h"
   1:..\..\..\lvgl\version_6.1.2\lvgl/src/lv_objx/lv_roller.h **** /**
   2:..\..\..\lvgl\version_6.1.2\lvgl/src/lv_objx/lv_roller.h ****  * @file lv_roller.h
   3:..\..\..\lvgl\version_6.1.2\lvgl/src/lv_objx/lv_roller.h ****  *
   4:..\..\..\lvgl\version_6.1.2\lvgl/src/lv_objx/lv_roller.h ****  */
   5:..\..\..\lvgl\version_6.1.2\lvgl/src/lv_objx/lv_roller.h **** 
   6:..\..\..\lvgl\version_6.1.2\lvgl/src/lv_objx/lv_roller.h **** #ifndef LV_ROLLER_H
   7:..\..\..\lvgl\version_6.1.2\lvgl/src/lv_objx/lv_roller.h **** #define LV_ROLLER_H
   8:..\..\..\lvgl\version_6.1.2\lvgl/src/lv_objx/lv_roller.h **** 
   9:..\..\..\lvgl\version_6.1.2\lvgl/src/lv_objx/lv_roller.h **** #ifdef __cplusplus
  10:..\..\..\lvgl\version_6.1.2\lvgl/src/lv_objx/lv_roller.h **** extern "C" {
  11:..\..\..\lvgl\version_6.1.2\lvgl/src/lv_objx/lv_roller.h **** #endif
  12:..\..\..\lvgl\version_6.1.2\lvgl/src/lv_objx/lv_roller.h **** 
  13:..\..\..\lvgl\version_6.1.2\lvgl/src/lv_objx/lv_roller.h **** /*********************
  14:..\..\..\lvgl\version_6.1.2\lvgl/src/lv_objx/lv_roller.h ****  *      INCLUDES
  15:..\..\..\lvgl\version_6.1.2\lvgl/src/lv_objx/lv_roller.h ****  *********************/
  16:..\..\..\lvgl\version_6.1.2\lvgl/src/lv_objx/lv_roller.h **** #ifdef LV_CONF_INCLUDE_SIMPLE
  17:..\..\..\lvgl\version_6.1.2\lvgl/src/lv_objx/lv_roller.h **** #include "lv_conf.h"
  18:..\..\..\lvgl\version_6.1.2\lvgl/src/lv_objx/lv_roller.h **** #else
  19:..\..\..\lvgl\version_6.1.2\lvgl/src/lv_objx/lv_roller.h **** #include "../../../lv_conf.h"
  20:..\..\..\lvgl\version_6.1.2\lvgl/src/lv_objx/lv_roller.h **** #endif
  21:..\..\..\lvgl\version_6.1.2\lvgl/src/lv_objx/lv_roller.h **** 
  22:..\..\..\lvgl\version_6.1.2\lvgl/src/lv_objx/lv_roller.h **** #if LV_USE_ROLLER != 0
  23:..\..\..\lvgl\version_6.1.2\lvgl/src/lv_objx/lv_roller.h **** 
  24:..\..\..\lvgl\version_6.1.2\lvgl/src/lv_objx/lv_roller.h **** /*Testing of dependencies*/
  25:..\..\..\lvgl\version_6.1.2\lvgl/src/lv_objx/lv_roller.h **** #if LV_USE_DDLIST == 0
  26:..\..\..\lvgl\version_6.1.2\lvgl/src/lv_objx/lv_roller.h **** #error "lv_roller: lv_ddlist is required. Enable it in lv_conf.h (LV_USE_DDLIST  1) "
  27:..\..\..\lvgl\version_6.1.2\lvgl/src/lv_objx/lv_roller.h **** #endif
  28:..\..\..\lvgl\version_6.1.2\lvgl/src/lv_objx/lv_roller.h **** 
  29:..\..\..\lvgl\version_6.1.2\lvgl/src/lv_objx/lv_roller.h **** #include "../lv_core/lv_obj.h"
  30:..\..\..\lvgl\version_6.1.2\lvgl/src/lv_objx/lv_roller.h **** #include "lv_ddlist.h"
  31:..\..\..\lvgl\version_6.1.2\lvgl/src/lv_objx/lv_roller.h **** #include "lv_label.h"
  32:..\..\..\lvgl\version_6.1.2\lvgl/src/lv_objx/lv_roller.h **** 
  33:..\..\..\lvgl\version_6.1.2\lvgl/src/lv_objx/lv_roller.h **** /*********************
  34:..\..\..\lvgl\version_6.1.2\lvgl/src/lv_objx/lv_roller.h ****  *      DEFINES
  35:..\..\..\lvgl\version_6.1.2\lvgl/src/lv_objx/lv_roller.h ****  *********************/
  36:..\..\..\lvgl\version_6.1.2\lvgl/src/lv_objx/lv_roller.h **** 
  37:..\..\..\lvgl\version_6.1.2\lvgl/src/lv_objx/lv_roller.h **** /**********************
  38:..\..\..\lvgl\version_6.1.2\lvgl/src/lv_objx/lv_roller.h ****  *      TYPEDEFS
  39:..\..\..\lvgl\version_6.1.2\lvgl/src/lv_objx/lv_roller.h ****  **********************/
  40:..\..\..\lvgl\version_6.1.2\lvgl/src/lv_objx/lv_roller.h **** 
  41:..\..\..\lvgl\version_6.1.2\lvgl/src/lv_objx/lv_roller.h **** /** Roller mode. */
  42:..\..\..\lvgl\version_6.1.2\lvgl/src/lv_objx/lv_roller.h **** enum {
  43:..\..\..\lvgl\version_6.1.2\lvgl/src/lv_objx/lv_roller.h ****     LV_ROLLER_MODE_NORMAL, /**< Normal mode (roller ends at the end of the options). */
  44:..\..\..\lvgl\version_6.1.2\lvgl/src/lv_objx/lv_roller.h ****     LV_ROLLER_MODE_INIFINITE, /**< Infinite mode (roller can be scrolled forever). */
  45:..\..\..\lvgl\version_6.1.2\lvgl/src/lv_objx/lv_roller.h **** };
  46:..\..\..\lvgl\version_6.1.2\lvgl/src/lv_objx/lv_roller.h **** 
  47:..\..\..\lvgl\version_6.1.2\lvgl/src/lv_objx/lv_roller.h **** typedef uint8_t lv_roller_mode_t;
  48:..\..\..\lvgl\version_6.1.2\lvgl/src/lv_objx/lv_roller.h **** 
  49:..\..\..\lvgl\version_6.1.2\lvgl/src/lv_objx/lv_roller.h **** 
  50:..\..\..\lvgl\version_6.1.2\lvgl/src/lv_objx/lv_roller.h **** 
  51:..\..\..\lvgl\version_6.1.2\lvgl/src/lv_objx/lv_roller.h **** /*Data of roller*/
  52:..\..\..\lvgl\version_6.1.2\lvgl/src/lv_objx/lv_roller.h **** typedef struct
  53:..\..\..\lvgl\version_6.1.2\lvgl/src/lv_objx/lv_roller.h **** {
  54:..\..\..\lvgl\version_6.1.2\lvgl/src/lv_objx/lv_roller.h ****     lv_ddlist_ext_t ddlist; /*Ext. of ancestor*/
ARM GAS  C:\Users\tmj32\AppData\Local\Temp\ccs01wAd.s 			page 18


  55:..\..\..\lvgl\version_6.1.2\lvgl/src/lv_objx/lv_roller.h ****     /*New data for this type */
  56:..\..\..\lvgl\version_6.1.2\lvgl/src/lv_objx/lv_roller.h ****     lv_roller_mode_t mode : 1;
  57:..\..\..\lvgl\version_6.1.2\lvgl/src/lv_objx/lv_roller.h **** } lv_roller_ext_t;
  58:..\..\..\lvgl\version_6.1.2\lvgl/src/lv_objx/lv_roller.h **** 
  59:..\..\..\lvgl\version_6.1.2\lvgl/src/lv_objx/lv_roller.h **** enum {
  60:..\..\..\lvgl\version_6.1.2\lvgl/src/lv_objx/lv_roller.h ****     LV_ROLLER_STYLE_BG,
  61:..\..\..\lvgl\version_6.1.2\lvgl/src/lv_objx/lv_roller.h ****     LV_ROLLER_STYLE_SEL,
  62:..\..\..\lvgl\version_6.1.2\lvgl/src/lv_objx/lv_roller.h **** };
  63:..\..\..\lvgl\version_6.1.2\lvgl/src/lv_objx/lv_roller.h **** typedef uint8_t lv_roller_style_t;
  64:..\..\..\lvgl\version_6.1.2\lvgl/src/lv_objx/lv_roller.h **** 
  65:..\..\..\lvgl\version_6.1.2\lvgl/src/lv_objx/lv_roller.h **** /**********************
  66:..\..\..\lvgl\version_6.1.2\lvgl/src/lv_objx/lv_roller.h ****  * GLOBAL PROTOTYPES
  67:..\..\..\lvgl\version_6.1.2\lvgl/src/lv_objx/lv_roller.h ****  **********************/
  68:..\..\..\lvgl\version_6.1.2\lvgl/src/lv_objx/lv_roller.h **** 
  69:..\..\..\lvgl\version_6.1.2\lvgl/src/lv_objx/lv_roller.h **** /**
  70:..\..\..\lvgl\version_6.1.2\lvgl/src/lv_objx/lv_roller.h ****  * Create a roller object
  71:..\..\..\lvgl\version_6.1.2\lvgl/src/lv_objx/lv_roller.h ****  * @param par pointer to an object, it will be the parent of the new roller
  72:..\..\..\lvgl\version_6.1.2\lvgl/src/lv_objx/lv_roller.h ****  * @param copy pointer to a roller object, if not NULL then the new object will be copied from it
  73:..\..\..\lvgl\version_6.1.2\lvgl/src/lv_objx/lv_roller.h ****  * @return pointer to the created roller
  74:..\..\..\lvgl\version_6.1.2\lvgl/src/lv_objx/lv_roller.h ****  */
  75:..\..\..\lvgl\version_6.1.2\lvgl/src/lv_objx/lv_roller.h **** lv_obj_t * lv_roller_create(lv_obj_t * par, const lv_obj_t * copy);
  76:..\..\..\lvgl\version_6.1.2\lvgl/src/lv_objx/lv_roller.h **** 
  77:..\..\..\lvgl\version_6.1.2\lvgl/src/lv_objx/lv_roller.h **** /*=====================
  78:..\..\..\lvgl\version_6.1.2\lvgl/src/lv_objx/lv_roller.h ****  * Setter functions
  79:..\..\..\lvgl\version_6.1.2\lvgl/src/lv_objx/lv_roller.h ****  *====================*/
  80:..\..\..\lvgl\version_6.1.2\lvgl/src/lv_objx/lv_roller.h **** 
  81:..\..\..\lvgl\version_6.1.2\lvgl/src/lv_objx/lv_roller.h **** /**
  82:..\..\..\lvgl\version_6.1.2\lvgl/src/lv_objx/lv_roller.h ****  * Set the options on a roller
  83:..\..\..\lvgl\version_6.1.2\lvgl/src/lv_objx/lv_roller.h ****  * @param roller pointer to roller object
  84:..\..\..\lvgl\version_6.1.2\lvgl/src/lv_objx/lv_roller.h ****  * @param options a string with '\n' separated options. E.g. "One\nTwo\nThree"
  85:..\..\..\lvgl\version_6.1.2\lvgl/src/lv_objx/lv_roller.h ****  * @param mode `LV_ROLLER_MODE_NORMAL` or `LV_ROLLER_MODE_INFINITE`
  86:..\..\..\lvgl\version_6.1.2\lvgl/src/lv_objx/lv_roller.h ****  */
  87:..\..\..\lvgl\version_6.1.2\lvgl/src/lv_objx/lv_roller.h **** void lv_roller_set_options(lv_obj_t * roller, const char * options, lv_roller_mode_t mode);
  88:..\..\..\lvgl\version_6.1.2\lvgl/src/lv_objx/lv_roller.h **** 
  89:..\..\..\lvgl\version_6.1.2\lvgl/src/lv_objx/lv_roller.h **** /**
  90:..\..\..\lvgl\version_6.1.2\lvgl/src/lv_objx/lv_roller.h ****  * Set the align of the roller's options (left, right or center[default])
  91:..\..\..\lvgl\version_6.1.2\lvgl/src/lv_objx/lv_roller.h ****  * @param roller - pointer to a roller object
  92:..\..\..\lvgl\version_6.1.2\lvgl/src/lv_objx/lv_roller.h ****  * @param align - one of lv_label_align_t values (left, right, center)
  93:..\..\..\lvgl\version_6.1.2\lvgl/src/lv_objx/lv_roller.h ****  */
  94:..\..\..\lvgl\version_6.1.2\lvgl/src/lv_objx/lv_roller.h **** void lv_roller_set_align(lv_obj_t * roller, lv_label_align_t align);
  95:..\..\..\lvgl\version_6.1.2\lvgl/src/lv_objx/lv_roller.h **** 
  96:..\..\..\lvgl\version_6.1.2\lvgl/src/lv_objx/lv_roller.h **** /**
  97:..\..\..\lvgl\version_6.1.2\lvgl/src/lv_objx/lv_roller.h ****  * Set the selected option
  98:..\..\..\lvgl\version_6.1.2\lvgl/src/lv_objx/lv_roller.h ****  * @param roller pointer to a roller object
  99:..\..\..\lvgl\version_6.1.2\lvgl/src/lv_objx/lv_roller.h ****  * @param sel_opt id of the selected option (0 ... number of option - 1);
 100:..\..\..\lvgl\version_6.1.2\lvgl/src/lv_objx/lv_roller.h ****  * @param anim LV_ANOM_ON: set with animation; LV_ANIM_OFF set immediately
 101:..\..\..\lvgl\version_6.1.2\lvgl/src/lv_objx/lv_roller.h ****  */
 102:..\..\..\lvgl\version_6.1.2\lvgl/src/lv_objx/lv_roller.h **** void lv_roller_set_selected(lv_obj_t * roller, uint16_t sel_opt, lv_anim_enable_t anim);
 103:..\..\..\lvgl\version_6.1.2\lvgl/src/lv_objx/lv_roller.h **** 
 104:..\..\..\lvgl\version_6.1.2\lvgl/src/lv_objx/lv_roller.h **** /**
 105:..\..\..\lvgl\version_6.1.2\lvgl/src/lv_objx/lv_roller.h ****  * Set the height to show the given number of rows (options)
 106:..\..\..\lvgl\version_6.1.2\lvgl/src/lv_objx/lv_roller.h ****  * @param roller pointer to a roller object
 107:..\..\..\lvgl\version_6.1.2\lvgl/src/lv_objx/lv_roller.h ****  * @param row_cnt number of desired visible rows
 108:..\..\..\lvgl\version_6.1.2\lvgl/src/lv_objx/lv_roller.h ****  */
 109:..\..\..\lvgl\version_6.1.2\lvgl/src/lv_objx/lv_roller.h **** void lv_roller_set_visible_row_count(lv_obj_t * roller, uint8_t row_cnt);
 110:..\..\..\lvgl\version_6.1.2\lvgl/src/lv_objx/lv_roller.h **** 
 111:..\..\..\lvgl\version_6.1.2\lvgl/src/lv_objx/lv_roller.h **** /**
ARM GAS  C:\Users\tmj32\AppData\Local\Temp\ccs01wAd.s 			page 19


 112:..\..\..\lvgl\version_6.1.2\lvgl/src/lv_objx/lv_roller.h ****  * Set a fix width for the drop down list
 113:..\..\..\lvgl\version_6.1.2\lvgl/src/lv_objx/lv_roller.h ****  * @param roller pointer to a roller obejct
 114:..\..\..\lvgl\version_6.1.2\lvgl/src/lv_objx/lv_roller.h ****  * @param w the width when the list is opened (0: auto size)
 115:..\..\..\lvgl\version_6.1.2\lvgl/src/lv_objx/lv_roller.h ****  */
 116:..\..\..\lvgl\version_6.1.2\lvgl/src/lv_objx/lv_roller.h **** static inline void lv_roller_set_fix_width(lv_obj_t * roller, lv_coord_t w)
 117:..\..\..\lvgl\version_6.1.2\lvgl/src/lv_objx/lv_roller.h **** {
 118:..\..\..\lvgl\version_6.1.2\lvgl/src/lv_objx/lv_roller.h ****     lv_ddlist_set_fix_width(roller, w);
 119:..\..\..\lvgl\version_6.1.2\lvgl/src/lv_objx/lv_roller.h **** }
 120:..\..\..\lvgl\version_6.1.2\lvgl/src/lv_objx/lv_roller.h **** 
 121:..\..\..\lvgl\version_6.1.2\lvgl/src/lv_objx/lv_roller.h **** /**
 122:..\..\..\lvgl\version_6.1.2\lvgl/src/lv_objx/lv_roller.h ****  * Set the open/close animation time.
 123:..\..\..\lvgl\version_6.1.2\lvgl/src/lv_objx/lv_roller.h ****  * @param roller pointer to a roller object
 124:..\..\..\lvgl\version_6.1.2\lvgl/src/lv_objx/lv_roller.h ****  * @param anim_time: open/close animation time [ms]
 125:..\..\..\lvgl\version_6.1.2\lvgl/src/lv_objx/lv_roller.h ****  */
 126:..\..\..\lvgl\version_6.1.2\lvgl/src/lv_objx/lv_roller.h **** static inline void lv_roller_set_anim_time(lv_obj_t * roller, uint16_t anim_time)
 127:..\..\..\lvgl\version_6.1.2\lvgl/src/lv_objx/lv_roller.h **** {
 128:..\..\..\lvgl\version_6.1.2\lvgl/src/lv_objx/lv_roller.h ****     lv_ddlist_set_anim_time(roller, anim_time);
 129:..\..\..\lvgl\version_6.1.2\lvgl/src/lv_objx/lv_roller.h **** }
 130:..\..\..\lvgl\version_6.1.2\lvgl/src/lv_objx/lv_roller.h **** 
 131:..\..\..\lvgl\version_6.1.2\lvgl/src/lv_objx/lv_roller.h **** /**
 132:..\..\..\lvgl\version_6.1.2\lvgl/src/lv_objx/lv_roller.h ****  * Set a style of a roller
 133:..\..\..\lvgl\version_6.1.2\lvgl/src/lv_objx/lv_roller.h ****  * @param roller pointer to a roller object
 134:..\..\..\lvgl\version_6.1.2\lvgl/src/lv_objx/lv_roller.h ****  * @param type which style should be set
 135:..\..\..\lvgl\version_6.1.2\lvgl/src/lv_objx/lv_roller.h ****  * @param style pointer to a style
 136:..\..\..\lvgl\version_6.1.2\lvgl/src/lv_objx/lv_roller.h ****  */
 137:..\..\..\lvgl\version_6.1.2\lvgl/src/lv_objx/lv_roller.h **** void lv_roller_set_style(lv_obj_t * roller, lv_roller_style_t type, const lv_style_t * style);
 138:..\..\..\lvgl\version_6.1.2\lvgl/src/lv_objx/lv_roller.h **** 
 139:..\..\..\lvgl\version_6.1.2\lvgl/src/lv_objx/lv_roller.h **** /*=====================
 140:..\..\..\lvgl\version_6.1.2\lvgl/src/lv_objx/lv_roller.h ****  * Getter functions
 141:..\..\..\lvgl\version_6.1.2\lvgl/src/lv_objx/lv_roller.h ****  *====================*/
 142:..\..\..\lvgl\version_6.1.2\lvgl/src/lv_objx/lv_roller.h **** /**
 143:..\..\..\lvgl\version_6.1.2\lvgl/src/lv_objx/lv_roller.h ****  * Get the id of the selected option
 144:..\..\..\lvgl\version_6.1.2\lvgl/src/lv_objx/lv_roller.h ****  * @param roller pointer to a roller object
 145:..\..\..\lvgl\version_6.1.2\lvgl/src/lv_objx/lv_roller.h ****  * @return id of the selected option (0 ... number of option - 1);
 146:..\..\..\lvgl\version_6.1.2\lvgl/src/lv_objx/lv_roller.h ****  */
 147:..\..\..\lvgl\version_6.1.2\lvgl/src/lv_objx/lv_roller.h **** uint16_t lv_roller_get_selected(const lv_obj_t * roller);
 148:..\..\..\lvgl\version_6.1.2\lvgl/src/lv_objx/lv_roller.h **** 
 149:..\..\..\lvgl\version_6.1.2\lvgl/src/lv_objx/lv_roller.h **** /**
 150:..\..\..\lvgl\version_6.1.2\lvgl/src/lv_objx/lv_roller.h ****  * Get the current selected option as a string
 151:..\..\..\lvgl\version_6.1.2\lvgl/src/lv_objx/lv_roller.h ****  * @param roller pointer to roller object
 152:..\..\..\lvgl\version_6.1.2\lvgl/src/lv_objx/lv_roller.h ****  * @param buf pointer to an array to store the string
 153:..\..\..\lvgl\version_6.1.2\lvgl/src/lv_objx/lv_roller.h ****  * @param buf_size size of `buf` in bytes. 0: to ignore it.
 154:..\..\..\lvgl\version_6.1.2\lvgl/src/lv_objx/lv_roller.h ****  */
 155:..\..\..\lvgl\version_6.1.2\lvgl/src/lv_objx/lv_roller.h **** static inline void lv_roller_get_selected_str(const lv_obj_t * roller, char * buf, uint16_t buf_siz
 156:..\..\..\lvgl\version_6.1.2\lvgl/src/lv_objx/lv_roller.h **** {
 238              		.loc 4 156 0
 239              		.cfi_startproc
 240              		@ args = 0, pretend = 0, frame = 16
 241              		@ frame_needed = 1, uses_anonymous_args = 0
 242 0000 80B5     		push	{r7, lr}
 243              		.cfi_def_cfa_offset 8
 244              		.cfi_offset 7, -8
 245              		.cfi_offset 14, -4
 246 0002 84B0     		sub	sp, sp, #16
 247              		.cfi_def_cfa_offset 24
 248 0004 00AF     		add	r7, sp, #0
 249              		.cfi_def_cfa_register 7
ARM GAS  C:\Users\tmj32\AppData\Local\Temp\ccs01wAd.s 			page 20


 250 0006 F860     		str	r0, [r7, #12]
 251 0008 B960     		str	r1, [r7, #8]
 252 000a 1346     		mov	r3, r2
 253 000c FB80     		strh	r3, [r7, #6]	@ movhi
 157:..\..\..\lvgl\version_6.1.2\lvgl/src/lv_objx/lv_roller.h ****     lv_ddlist_get_selected_str(roller, buf, buf_size);
 254              		.loc 4 157 0
 255 000e FB88     		ldrh	r3, [r7, #6]
 256 0010 1A46     		mov	r2, r3
 257 0012 B968     		ldr	r1, [r7, #8]
 258 0014 F868     		ldr	r0, [r7, #12]
 259 0016 FFF7FEFF 		bl	lv_ddlist_get_selected_str
 158:..\..\..\lvgl\version_6.1.2\lvgl/src/lv_objx/lv_roller.h **** }
 260              		.loc 4 158 0
 261 001a 00BF     		nop
 262 001c 1037     		adds	r7, r7, #16
 263              		.cfi_def_cfa_offset 8
 264 001e BD46     		mov	sp, r7
 265              		.cfi_def_cfa_register 13
 266              		@ sp needed
 267 0020 80BD     		pop	{r7, pc}
 268              		.cfi_endproc
 269              	.LFE687:
 270              		.size	lv_roller_get_selected_str, .-lv_roller_get_selected_str
 271 0022 00BF     		.section	.text.lv_sw_get_state,"ax",%progbits
 272              		.align	2
 273              		.thumb
 274              		.thumb_func
 275              		.type	lv_sw_get_state, %function
 276              	lv_sw_get_state:
 277              	.LFB714:
 278              		.file 5 "..\\..\\..\\lvgl\\version_6.1.2\\lvgl/src/lv_objx/lv_sw.h"
   1:..\..\..\lvgl\version_6.1.2\lvgl/src/lv_objx/lv_sw.h **** /**
   2:..\..\..\lvgl\version_6.1.2\lvgl/src/lv_objx/lv_sw.h ****  * @file lv_sw.h
   3:..\..\..\lvgl\version_6.1.2\lvgl/src/lv_objx/lv_sw.h ****  *
   4:..\..\..\lvgl\version_6.1.2\lvgl/src/lv_objx/lv_sw.h ****  */
   5:..\..\..\lvgl\version_6.1.2\lvgl/src/lv_objx/lv_sw.h **** 
   6:..\..\..\lvgl\version_6.1.2\lvgl/src/lv_objx/lv_sw.h **** #ifndef LV_SW_H
   7:..\..\..\lvgl\version_6.1.2\lvgl/src/lv_objx/lv_sw.h **** #define LV_SW_H
   8:..\..\..\lvgl\version_6.1.2\lvgl/src/lv_objx/lv_sw.h **** 
   9:..\..\..\lvgl\version_6.1.2\lvgl/src/lv_objx/lv_sw.h **** #ifdef __cplusplus
  10:..\..\..\lvgl\version_6.1.2\lvgl/src/lv_objx/lv_sw.h **** extern "C" {
  11:..\..\..\lvgl\version_6.1.2\lvgl/src/lv_objx/lv_sw.h **** #endif
  12:..\..\..\lvgl\version_6.1.2\lvgl/src/lv_objx/lv_sw.h **** 
  13:..\..\..\lvgl\version_6.1.2\lvgl/src/lv_objx/lv_sw.h **** /*********************
  14:..\..\..\lvgl\version_6.1.2\lvgl/src/lv_objx/lv_sw.h ****  *      INCLUDES
  15:..\..\..\lvgl\version_6.1.2\lvgl/src/lv_objx/lv_sw.h ****  *********************/
  16:..\..\..\lvgl\version_6.1.2\lvgl/src/lv_objx/lv_sw.h **** #ifdef LV_CONF_INCLUDE_SIMPLE
  17:..\..\..\lvgl\version_6.1.2\lvgl/src/lv_objx/lv_sw.h **** #include "lv_conf.h"
  18:..\..\..\lvgl\version_6.1.2\lvgl/src/lv_objx/lv_sw.h **** #else
  19:..\..\..\lvgl\version_6.1.2\lvgl/src/lv_objx/lv_sw.h **** #include "../../../lv_conf.h"
  20:..\..\..\lvgl\version_6.1.2\lvgl/src/lv_objx/lv_sw.h **** #endif
  21:..\..\..\lvgl\version_6.1.2\lvgl/src/lv_objx/lv_sw.h **** 
  22:..\..\..\lvgl\version_6.1.2\lvgl/src/lv_objx/lv_sw.h **** #if LV_USE_SW != 0
  23:..\..\..\lvgl\version_6.1.2\lvgl/src/lv_objx/lv_sw.h **** 
  24:..\..\..\lvgl\version_6.1.2\lvgl/src/lv_objx/lv_sw.h **** /*Testing of dependencies*/
  25:..\..\..\lvgl\version_6.1.2\lvgl/src/lv_objx/lv_sw.h **** #if LV_USE_SLIDER == 0
  26:..\..\..\lvgl\version_6.1.2\lvgl/src/lv_objx/lv_sw.h **** #error "lv_sw: lv_slider is required. Enable it in lv_conf.h (LV_USE_SLIDER  1)"
ARM GAS  C:\Users\tmj32\AppData\Local\Temp\ccs01wAd.s 			page 21


  27:..\..\..\lvgl\version_6.1.2\lvgl/src/lv_objx/lv_sw.h **** #endif
  28:..\..\..\lvgl\version_6.1.2\lvgl/src/lv_objx/lv_sw.h **** 
  29:..\..\..\lvgl\version_6.1.2\lvgl/src/lv_objx/lv_sw.h **** #include "../lv_core/lv_obj.h"
  30:..\..\..\lvgl\version_6.1.2\lvgl/src/lv_objx/lv_sw.h **** #include "lv_slider.h"
  31:..\..\..\lvgl\version_6.1.2\lvgl/src/lv_objx/lv_sw.h **** 
  32:..\..\..\lvgl\version_6.1.2\lvgl/src/lv_objx/lv_sw.h **** /*********************
  33:..\..\..\lvgl\version_6.1.2\lvgl/src/lv_objx/lv_sw.h ****  *      DEFINES
  34:..\..\..\lvgl\version_6.1.2\lvgl/src/lv_objx/lv_sw.h ****  *********************/
  35:..\..\..\lvgl\version_6.1.2\lvgl/src/lv_objx/lv_sw.h **** #define LV_SW_MAX_VALUE 100
  36:..\..\..\lvgl\version_6.1.2\lvgl/src/lv_objx/lv_sw.h **** 
  37:..\..\..\lvgl\version_6.1.2\lvgl/src/lv_objx/lv_sw.h **** /**********************
  38:..\..\..\lvgl\version_6.1.2\lvgl/src/lv_objx/lv_sw.h ****  *      TYPEDEFS
  39:..\..\..\lvgl\version_6.1.2\lvgl/src/lv_objx/lv_sw.h ****  **********************/
  40:..\..\..\lvgl\version_6.1.2\lvgl/src/lv_objx/lv_sw.h **** /*Data of switch*/
  41:..\..\..\lvgl\version_6.1.2\lvgl/src/lv_objx/lv_sw.h **** typedef struct
  42:..\..\..\lvgl\version_6.1.2\lvgl/src/lv_objx/lv_sw.h **** {
  43:..\..\..\lvgl\version_6.1.2\lvgl/src/lv_objx/lv_sw.h ****     lv_slider_ext_t slider; /*Ext. of ancestor*/
  44:..\..\..\lvgl\version_6.1.2\lvgl/src/lv_objx/lv_sw.h ****     /*New data for this type */
  45:..\..\..\lvgl\version_6.1.2\lvgl/src/lv_objx/lv_sw.h ****     const lv_style_t * style_knob_off; /**< Style of the knob when the switch is OFF*/
  46:..\..\..\lvgl\version_6.1.2\lvgl/src/lv_objx/lv_sw.h ****     const lv_style_t * style_knob_on;  /**< Style of the knob when the switch is ON (NULL to use th
  47:..\..\..\lvgl\version_6.1.2\lvgl/src/lv_objx/lv_sw.h ****     lv_coord_t start_x;
  48:..\..\..\lvgl\version_6.1.2\lvgl/src/lv_objx/lv_sw.h ****     uint8_t changed : 1; /*Indicates the switch state explicitly changed by drag*/
  49:..\..\..\lvgl\version_6.1.2\lvgl/src/lv_objx/lv_sw.h ****     uint8_t slided : 1;
  50:..\..\..\lvgl\version_6.1.2\lvgl/src/lv_objx/lv_sw.h **** #if LV_USE_ANIMATION
  51:..\..\..\lvgl\version_6.1.2\lvgl/src/lv_objx/lv_sw.h ****     uint16_t anim_time; /*switch animation time */
  52:..\..\..\lvgl\version_6.1.2\lvgl/src/lv_objx/lv_sw.h **** #endif
  53:..\..\..\lvgl\version_6.1.2\lvgl/src/lv_objx/lv_sw.h **** } lv_sw_ext_t;
  54:..\..\..\lvgl\version_6.1.2\lvgl/src/lv_objx/lv_sw.h **** 
  55:..\..\..\lvgl\version_6.1.2\lvgl/src/lv_objx/lv_sw.h **** /**
  56:..\..\..\lvgl\version_6.1.2\lvgl/src/lv_objx/lv_sw.h ****  * Switch styles.
  57:..\..\..\lvgl\version_6.1.2\lvgl/src/lv_objx/lv_sw.h ****  */
  58:..\..\..\lvgl\version_6.1.2\lvgl/src/lv_objx/lv_sw.h **** enum {
  59:..\..\..\lvgl\version_6.1.2\lvgl/src/lv_objx/lv_sw.h ****     LV_SW_STYLE_BG, /**< Switch background. */
  60:..\..\..\lvgl\version_6.1.2\lvgl/src/lv_objx/lv_sw.h ****     LV_SW_STYLE_INDIC, /**< Switch fill area. */
  61:..\..\..\lvgl\version_6.1.2\lvgl/src/lv_objx/lv_sw.h ****     LV_SW_STYLE_KNOB_OFF, /**< Switch knob (when off). */
  62:..\..\..\lvgl\version_6.1.2\lvgl/src/lv_objx/lv_sw.h ****     LV_SW_STYLE_KNOB_ON, /**< Switch knob (when on). */
  63:..\..\..\lvgl\version_6.1.2\lvgl/src/lv_objx/lv_sw.h **** };
  64:..\..\..\lvgl\version_6.1.2\lvgl/src/lv_objx/lv_sw.h **** typedef uint8_t lv_sw_style_t;
  65:..\..\..\lvgl\version_6.1.2\lvgl/src/lv_objx/lv_sw.h **** 
  66:..\..\..\lvgl\version_6.1.2\lvgl/src/lv_objx/lv_sw.h **** /**********************
  67:..\..\..\lvgl\version_6.1.2\lvgl/src/lv_objx/lv_sw.h ****  * GLOBAL PROTOTYPES
  68:..\..\..\lvgl\version_6.1.2\lvgl/src/lv_objx/lv_sw.h ****  **********************/
  69:..\..\..\lvgl\version_6.1.2\lvgl/src/lv_objx/lv_sw.h **** 
  70:..\..\..\lvgl\version_6.1.2\lvgl/src/lv_objx/lv_sw.h **** /**
  71:..\..\..\lvgl\version_6.1.2\lvgl/src/lv_objx/lv_sw.h ****  * Create a switch objects
  72:..\..\..\lvgl\version_6.1.2\lvgl/src/lv_objx/lv_sw.h ****  * @param par pointer to an object, it will be the parent of the new switch
  73:..\..\..\lvgl\version_6.1.2\lvgl/src/lv_objx/lv_sw.h ****  * @param copy pointer to a switch object, if not NULL then the new object will be copied from it
  74:..\..\..\lvgl\version_6.1.2\lvgl/src/lv_objx/lv_sw.h ****  * @return pointer to the created switch
  75:..\..\..\lvgl\version_6.1.2\lvgl/src/lv_objx/lv_sw.h ****  */
  76:..\..\..\lvgl\version_6.1.2\lvgl/src/lv_objx/lv_sw.h **** lv_obj_t * lv_sw_create(lv_obj_t * par, const lv_obj_t * copy);
  77:..\..\..\lvgl\version_6.1.2\lvgl/src/lv_objx/lv_sw.h **** 
  78:..\..\..\lvgl\version_6.1.2\lvgl/src/lv_objx/lv_sw.h **** /*=====================
  79:..\..\..\lvgl\version_6.1.2\lvgl/src/lv_objx/lv_sw.h ****  * Setter functions
  80:..\..\..\lvgl\version_6.1.2\lvgl/src/lv_objx/lv_sw.h ****  *====================*/
  81:..\..\..\lvgl\version_6.1.2\lvgl/src/lv_objx/lv_sw.h **** 
  82:..\..\..\lvgl\version_6.1.2\lvgl/src/lv_objx/lv_sw.h **** /**
  83:..\..\..\lvgl\version_6.1.2\lvgl/src/lv_objx/lv_sw.h ****  * Turn ON the switch
ARM GAS  C:\Users\tmj32\AppData\Local\Temp\ccs01wAd.s 			page 22


  84:..\..\..\lvgl\version_6.1.2\lvgl/src/lv_objx/lv_sw.h ****  * @param sw pointer to a switch object
  85:..\..\..\lvgl\version_6.1.2\lvgl/src/lv_objx/lv_sw.h ****  * @param anim LV_ANIM_ON: set the value with an animation; LV_ANIM_OFF: change the value immediate
  86:..\..\..\lvgl\version_6.1.2\lvgl/src/lv_objx/lv_sw.h ****  */
  87:..\..\..\lvgl\version_6.1.2\lvgl/src/lv_objx/lv_sw.h **** void lv_sw_on(lv_obj_t * sw, lv_anim_enable_t anim);
  88:..\..\..\lvgl\version_6.1.2\lvgl/src/lv_objx/lv_sw.h **** 
  89:..\..\..\lvgl\version_6.1.2\lvgl/src/lv_objx/lv_sw.h **** /**
  90:..\..\..\lvgl\version_6.1.2\lvgl/src/lv_objx/lv_sw.h ****  * Turn OFF the switch
  91:..\..\..\lvgl\version_6.1.2\lvgl/src/lv_objx/lv_sw.h ****  * @param sw pointer to a switch object
  92:..\..\..\lvgl\version_6.1.2\lvgl/src/lv_objx/lv_sw.h ****  * @param anim LV_ANIM_ON: set the value with an animation; LV_ANIM_OFF: change the value immediate
  93:..\..\..\lvgl\version_6.1.2\lvgl/src/lv_objx/lv_sw.h ****  */
  94:..\..\..\lvgl\version_6.1.2\lvgl/src/lv_objx/lv_sw.h **** void lv_sw_off(lv_obj_t * sw, lv_anim_enable_t anim);
  95:..\..\..\lvgl\version_6.1.2\lvgl/src/lv_objx/lv_sw.h **** 
  96:..\..\..\lvgl\version_6.1.2\lvgl/src/lv_objx/lv_sw.h **** /**
  97:..\..\..\lvgl\version_6.1.2\lvgl/src/lv_objx/lv_sw.h ****  * Toggle the position of the switch
  98:..\..\..\lvgl\version_6.1.2\lvgl/src/lv_objx/lv_sw.h ****  * @param sw pointer to a switch object
  99:..\..\..\lvgl\version_6.1.2\lvgl/src/lv_objx/lv_sw.h ****  * @param anim LV_ANIM_ON: set the value with an animation; LV_ANIM_OFF: change the value immediate
 100:..\..\..\lvgl\version_6.1.2\lvgl/src/lv_objx/lv_sw.h ****  * @return resulting state of the switch.
 101:..\..\..\lvgl\version_6.1.2\lvgl/src/lv_objx/lv_sw.h ****  */
 102:..\..\..\lvgl\version_6.1.2\lvgl/src/lv_objx/lv_sw.h **** bool lv_sw_toggle(lv_obj_t * sw, lv_anim_enable_t anim);
 103:..\..\..\lvgl\version_6.1.2\lvgl/src/lv_objx/lv_sw.h **** 
 104:..\..\..\lvgl\version_6.1.2\lvgl/src/lv_objx/lv_sw.h **** /**
 105:..\..\..\lvgl\version_6.1.2\lvgl/src/lv_objx/lv_sw.h ****  * Set a style of a switch
 106:..\..\..\lvgl\version_6.1.2\lvgl/src/lv_objx/lv_sw.h ****  * @param sw pointer to a switch object
 107:..\..\..\lvgl\version_6.1.2\lvgl/src/lv_objx/lv_sw.h ****  * @param type which style should be set
 108:..\..\..\lvgl\version_6.1.2\lvgl/src/lv_objx/lv_sw.h ****  * @param style pointer to a style
 109:..\..\..\lvgl\version_6.1.2\lvgl/src/lv_objx/lv_sw.h ****  */
 110:..\..\..\lvgl\version_6.1.2\lvgl/src/lv_objx/lv_sw.h **** void lv_sw_set_style(lv_obj_t * sw, lv_sw_style_t type, const lv_style_t * style);
 111:..\..\..\lvgl\version_6.1.2\lvgl/src/lv_objx/lv_sw.h **** 
 112:..\..\..\lvgl\version_6.1.2\lvgl/src/lv_objx/lv_sw.h **** /**
 113:..\..\..\lvgl\version_6.1.2\lvgl/src/lv_objx/lv_sw.h ****  * Set the animation time of the switch
 114:..\..\..\lvgl\version_6.1.2\lvgl/src/lv_objx/lv_sw.h ****  * @param sw pointer to a  switch object
 115:..\..\..\lvgl\version_6.1.2\lvgl/src/lv_objx/lv_sw.h ****  * @param anim_time animation time
 116:..\..\..\lvgl\version_6.1.2\lvgl/src/lv_objx/lv_sw.h ****  * @return style pointer to a style
 117:..\..\..\lvgl\version_6.1.2\lvgl/src/lv_objx/lv_sw.h ****  */
 118:..\..\..\lvgl\version_6.1.2\lvgl/src/lv_objx/lv_sw.h **** void lv_sw_set_anim_time(lv_obj_t * sw, uint16_t anim_time);
 119:..\..\..\lvgl\version_6.1.2\lvgl/src/lv_objx/lv_sw.h **** 
 120:..\..\..\lvgl\version_6.1.2\lvgl/src/lv_objx/lv_sw.h **** /*=====================
 121:..\..\..\lvgl\version_6.1.2\lvgl/src/lv_objx/lv_sw.h ****  * Getter functions
 122:..\..\..\lvgl\version_6.1.2\lvgl/src/lv_objx/lv_sw.h ****  *====================*/
 123:..\..\..\lvgl\version_6.1.2\lvgl/src/lv_objx/lv_sw.h **** 
 124:..\..\..\lvgl\version_6.1.2\lvgl/src/lv_objx/lv_sw.h **** /**
 125:..\..\..\lvgl\version_6.1.2\lvgl/src/lv_objx/lv_sw.h ****  * Get the state of a switch
 126:..\..\..\lvgl\version_6.1.2\lvgl/src/lv_objx/lv_sw.h ****  * @param sw pointer to a switch object
 127:..\..\..\lvgl\version_6.1.2\lvgl/src/lv_objx/lv_sw.h ****  * @return false: OFF; true: ON
 128:..\..\..\lvgl\version_6.1.2\lvgl/src/lv_objx/lv_sw.h ****  */
 129:..\..\..\lvgl\version_6.1.2\lvgl/src/lv_objx/lv_sw.h **** static inline bool lv_sw_get_state(const lv_obj_t * sw)
 130:..\..\..\lvgl\version_6.1.2\lvgl/src/lv_objx/lv_sw.h **** {
 279              		.loc 5 130 0
 280              		.cfi_startproc
 281              		@ args = 0, pretend = 0, frame = 8
 282              		@ frame_needed = 1, uses_anonymous_args = 0
 283 0000 80B5     		push	{r7, lr}
 284              		.cfi_def_cfa_offset 8
 285              		.cfi_offset 7, -8
 286              		.cfi_offset 14, -4
 287 0002 82B0     		sub	sp, sp, #8
 288              		.cfi_def_cfa_offset 16
ARM GAS  C:\Users\tmj32\AppData\Local\Temp\ccs01wAd.s 			page 23


 289 0004 00AF     		add	r7, sp, #0
 290              		.cfi_def_cfa_register 7
 291 0006 7860     		str	r0, [r7, #4]
 131:..\..\..\lvgl\version_6.1.2\lvgl/src/lv_objx/lv_sw.h ****     return lv_bar_get_value(sw) < LV_SW_MAX_VALUE / 2 ? false : true;
 292              		.loc 5 131 0
 293 0008 7868     		ldr	r0, [r7, #4]
 294 000a FFF7FEFF 		bl	lv_bar_get_value
 295 000e 0346     		mov	r3, r0
 296 0010 312B     		cmp	r3, #49
 297 0012 CCBF     		ite	gt
 298 0014 0123     		movgt	r3, #1
 299 0016 0023     		movle	r3, #0
 300 0018 DBB2     		uxtb	r3, r3
 132:..\..\..\lvgl\version_6.1.2\lvgl/src/lv_objx/lv_sw.h **** }
 301              		.loc 5 132 0
 302 001a 1846     		mov	r0, r3
 303 001c 0837     		adds	r7, r7, #8
 304              		.cfi_def_cfa_offset 8
 305 001e BD46     		mov	sp, r7
 306              		.cfi_def_cfa_register 13
 307              		@ sp needed
 308 0020 80BD     		pop	{r7, pc}
 309              		.cfi_endproc
 310              	.LFE714:
 311              		.size	lv_sw_get_state, .-lv_sw_get_state
 312              		.global	tcnj_blue
 313 0022 00BF     		.section	.rodata
 314              		.align	2
 315              		.type	tcnj_blue, %object
 316              		.size	tcnj_blue, 3
 317              	tcnj_blue:
 318 0000 29       		.byte	41
 319 0001 3F       		.byte	63
 320 0002 6F       		.byte	111
 321              		.global	tcnj_gold
 322 0003 00       		.align	2
 323              		.type	tcnj_gold, %object
 324              		.size	tcnj_gold, 3
 325              	tcnj_gold:
 326 0004 A6       		.byte	-90
 327 0005 7A       		.byte	122
 328 0006 00       		.byte	0
 329              		.bss
 330              		.align	2
 331              	offsetLabel:
 332 0000 00000000 		.space	4
 333              		.align	2
 334              	triggerLabel:
 335 0004 00000000 		.space	4
 336              		.align	2
 337              	horiLabel1:
 338 0008 00000000 		.space	4
 339              		.align	2
 340              	vertLabel1:
 341 000c 00000000 		.space	4
 342              		.global	startup
 343              		.align	2
ARM GAS  C:\Users\tmj32\AppData\Local\Temp\ccs01wAd.s 			page 24


 344              		.type	startup, %object
 345              		.size	startup, 4
 346              	startup:
 347 0010 00000000 		.space	4
 348              		.global	__aeabi_i2d
 349              		.global	__aeabi_dmul
 350              		.global	__aeabi_ddiv
 351              		.global	__aeabi_dadd
 352              		.global	__aeabi_d2iz
 353              		.section	.text.chart_actions,"ax",%progbits
 354              		.align	2
 355              		.thumb
 356              		.thumb_func
 357              		.type	chart_actions, %function
 358              	chart_actions:
 359              	.LFB717:
 360              		.file 6 "home_screen.c"
   1:home_screen.c **** #include <stdio.h>
   2:home_screen.c **** 
   3:home_screen.c **** #include "project.h"
   4:home_screen.c **** #include "globalStruct.h"
   5:home_screen.c **** #include "lvgl.h"
   6:home_screen.c **** #include "home_screen.h"
   7:home_screen.c **** #include "slider_activity.h"
   8:home_screen.c **** #include "math.h"
   9:home_screen.c **** 
  10:home_screen.c **** const uint8_t tcnj_blue[] = { 41, 63, 111 };
  11:home_screen.c **** const uint8_t tcnj_gold[] = { 166, 122, 0 };
  12:home_screen.c **** 
  13:home_screen.c **** static lv_obj_t * offsetLabel;
  14:home_screen.c **** static lv_obj_t * triggerLabel;
  15:home_screen.c **** static lv_obj_t * horiLabel1;
  16:home_screen.c **** static lv_obj_t * vertLabel1;
  17:home_screen.c **** //static lv_obj_t * windowLabel;
  18:home_screen.c **** 
  19:home_screen.c **** int startup = 0;
  20:home_screen.c **** 
  21:home_screen.c **** static void chart_actions()
  22:home_screen.c **** {    
 361              		.loc 6 22 0
 362              		.cfi_startproc
 363              		@ args = 0, pretend = 0, frame = 48
 364              		@ frame_needed = 1, uses_anonymous_args = 0
 365 0000 90B5     		push	{r4, r7, lr}
 366              		.cfi_def_cfa_offset 12
 367              		.cfi_offset 4, -12
 368              		.cfi_offset 7, -8
 369              		.cfi_offset 14, -4
 370 0002 8DB0     		sub	sp, sp, #52
 371              		.cfi_def_cfa_offset 64
 372 0004 00AF     		add	r7, sp, #0
 373              		.cfi_def_cfa_register 7
  23:home_screen.c ****     const int chart_width = 280;
 374              		.loc 6 23 0
 375 0006 4FF48C73 		mov	r3, #280
 376 000a FB61     		str	r3, [r7, #28]
  24:home_screen.c ****     const int chart_heigth = 200;
ARM GAS  C:\Users\tmj32\AppData\Local\Temp\ccs01wAd.s 			page 25


 377              		.loc 6 24 0
 378 000c C823     		movs	r3, #200
 379 000e BB61     		str	r3, [r7, #24]
  25:home_screen.c ****     const int chart_vertPos = 20;
 380              		.loc 6 25 0
 381 0010 1423     		movs	r3, #20
 382 0012 7B61     		str	r3, [r7, #20]
  26:home_screen.c ****     const int chart_horiPos = 20; 
 383              		.loc 6 26 0
 384 0014 1423     		movs	r3, #20
 385 0016 3B61     		str	r3, [r7, #16]
  27:home_screen.c ****     int windowSize;
  28:home_screen.c ****     
  29:home_screen.c ****     static lv_obj_t *chart1;        //declaring the chart
  30:home_screen.c ****     if(startup == 1){
 386              		.loc 6 30 0
 387 0018 A94B     		ldr	r3, .L34+16
 388 001a 1B68     		ldr	r3, [r3]
 389 001c 012B     		cmp	r3, #1
 390 001e 04D1     		bne	.L13
  31:home_screen.c ****         lv_obj_del(chart1);
 391              		.loc 6 31 0
 392 0020 A84B     		ldr	r3, .L34+20
 393 0022 1B68     		ldr	r3, [r3]
 394 0024 1846     		mov	r0, r3
 395 0026 FFF7FEFF 		bl	lv_obj_del
 396              	.L13:
  32:home_screen.c ****     }   
  33:home_screen.c ****     
  34:home_screen.c ****     /* Display chart                         */        
  35:home_screen.c ****     chart1 = lv_chart_create(lv_scr_act(), NULL);                     //Add a chart to the current 
 397              		.loc 6 35 0
 398 002a FFF7FEFF 		bl	lv_scr_act
 399 002e 0346     		mov	r3, r0
 400 0030 0021     		movs	r1, #0
 401 0032 1846     		mov	r0, r3
 402 0034 FFF7FEFF 		bl	lv_chart_create
 403 0038 0246     		mov	r2, r0
 404 003a A24B     		ldr	r3, .L34+20
 405 003c 1A60     		str	r2, [r3]
  36:home_screen.c ****     lv_obj_set_pos(chart1, chart_horiPos, chart_vertPos);             /*Set its position*/
 406              		.loc 6 36 0
 407 003e A14B     		ldr	r3, .L34+20
 408 0040 1B68     		ldr	r3, [r3]
 409 0042 3A69     		ldr	r2, [r7, #16]
 410 0044 11B2     		sxth	r1, r2
 411 0046 7A69     		ldr	r2, [r7, #20]
 412 0048 12B2     		sxth	r2, r2
 413 004a 1846     		mov	r0, r3
 414 004c FFF7FEFF 		bl	lv_obj_set_pos
  37:home_screen.c ****     lv_obj_set_size(chart1, chart_width, chart_heigth);               /*Set its size*/ 
 415              		.loc 6 37 0
 416 0050 9C4B     		ldr	r3, .L34+20
 417 0052 1B68     		ldr	r3, [r3]
 418 0054 FA69     		ldr	r2, [r7, #28]
 419 0056 11B2     		sxth	r1, r2
 420 0058 BA69     		ldr	r2, [r7, #24]
ARM GAS  C:\Users\tmj32\AppData\Local\Temp\ccs01wAd.s 			page 26


 421 005a 12B2     		sxth	r2, r2
 422 005c 1846     		mov	r0, r3
 423 005e FFF7FEFF 		bl	lv_obj_set_size
  38:home_screen.c ****     
  39:home_screen.c ****     //sets the grid lines, hori, verti
  40:home_screen.c ****     lv_chart_set_div_line_count(chart1, 7, 5);
 424              		.loc 6 40 0
 425 0062 984B     		ldr	r3, .L34+20
 426 0064 1B68     		ldr	r3, [r3]
 427 0066 0522     		movs	r2, #5
 428 0068 0721     		movs	r1, #7
 429 006a 1846     		mov	r0, r3
 430 006c FFF7FEFF 		bl	lv_chart_set_div_line_count
  41:home_screen.c ****     
  42:home_screen.c ****     //determine the vertical limits of the chart
  43:home_screen.c ****     //lv_chart_set_range(chart1, y_min, y_max);
  44:home_screen.c ****     switch(cm4.VertScale){
 431              		.loc 6 44 0
 432 0070 954B     		ldr	r3, .L34+24
 433 0072 5B7C     		ldrb	r3, [r3, #17]	@ zero_extendqisi2
 434 0074 033B     		subs	r3, r3, #3
 435 0076 042B     		cmp	r3, #4
 436 0078 3CD8     		bhi	.L14
 437 007a 01A2     		adr	r2, .L16
 438 007c 52F823F0 		ldr	pc, [r2, r3, lsl #2]
 439              		.p2align 2
 440              	.L16:
 441 0080 95000000 		.word	.L15+1
 442 0084 A9000000 		.word	.L17+1
 443 0088 BD000000 		.word	.L18+1
 444 008c D1000000 		.word	.L19+1
 445 0090 E3000000 		.word	.L20+1
 446              		.p2align 1
 447              	.L15:
  45:home_screen.c ****     case 3 :
  46:home_screen.c ****         lv_chart_set_range(chart1, 475, 525);
 448              		.loc 6 46 0
 449 0094 8B4B     		ldr	r3, .L34+20
 450 0096 1B68     		ldr	r3, [r3]
 451 0098 40F20D22 		movw	r2, #525
 452 009c 40F2DB11 		movw	r1, #475
 453 00a0 1846     		mov	r0, r3
 454 00a2 FFF7FEFF 		bl	lv_chart_set_range
  47:home_screen.c ****         break;
 455              		.loc 6 47 0
 456 00a6 2DE0     		b	.L21
 457              	.L17:
  48:home_screen.c ****     case 4 :
  49:home_screen.c ****         lv_chart_set_range(chart1, 450, 550);
 458              		.loc 6 49 0
 459 00a8 864B     		ldr	r3, .L34+20
 460 00aa 1B68     		ldr	r3, [r3]
 461 00ac 40F22622 		movw	r2, #550
 462 00b0 4FF4E171 		mov	r1, #450
 463 00b4 1846     		mov	r0, r3
 464 00b6 FFF7FEFF 		bl	lv_chart_set_range
  50:home_screen.c ****         break;
ARM GAS  C:\Users\tmj32\AppData\Local\Temp\ccs01wAd.s 			page 27


 465              		.loc 6 50 0
 466 00ba 23E0     		b	.L21
 467              	.L18:
  51:home_screen.c ****     case 5 :
  52:home_screen.c ****         lv_chart_set_range(chart1, 375, 625);
 468              		.loc 6 52 0
 469 00bc 814B     		ldr	r3, .L34+20
 470 00be 1B68     		ldr	r3, [r3]
 471 00c0 40F27122 		movw	r2, #625
 472 00c4 40F27711 		movw	r1, #375
 473 00c8 1846     		mov	r0, r3
 474 00ca FFF7FEFF 		bl	lv_chart_set_range
  53:home_screen.c ****         break;
 475              		.loc 6 53 0
 476 00ce 19E0     		b	.L21
 477              	.L19:
  54:home_screen.c ****     case 6 :
  55:home_screen.c ****         lv_chart_set_range(chart1, 250, 750);
 478              		.loc 6 55 0
 479 00d0 7C4B     		ldr	r3, .L34+20
 480 00d2 1B68     		ldr	r3, [r3]
 481 00d4 40F2EE22 		movw	r2, #750
 482 00d8 FA21     		movs	r1, #250
 483 00da 1846     		mov	r0, r3
 484 00dc FFF7FEFF 		bl	lv_chart_set_range
  56:home_screen.c ****         break;
 485              		.loc 6 56 0
 486 00e0 10E0     		b	.L21
 487              	.L20:
  57:home_screen.c ****     case 7 :
  58:home_screen.c ****         lv_chart_set_range(chart1, 0, 1000);
 488              		.loc 6 58 0
 489 00e2 784B     		ldr	r3, .L34+20
 490 00e4 1B68     		ldr	r3, [r3]
 491 00e6 4FF47A72 		mov	r2, #1000
 492 00ea 0021     		movs	r1, #0
 493 00ec 1846     		mov	r0, r3
 494 00ee FFF7FEFF 		bl	lv_chart_set_range
  59:home_screen.c ****         break;
 495              		.loc 6 59 0
 496 00f2 07E0     		b	.L21
 497              	.L14:
  60:home_screen.c ****     default:
  61:home_screen.c ****         lv_chart_set_range(chart1, 0, 100);
 498              		.loc 6 61 0
 499 00f4 734B     		ldr	r3, .L34+20
 500 00f6 1B68     		ldr	r3, [r3]
 501 00f8 6422     		movs	r2, #100
 502 00fa 0021     		movs	r1, #0
 503 00fc 1846     		mov	r0, r3
 504 00fe FFF7FEFF 		bl	lv_chart_set_range
  62:home_screen.c ****         break;
 505              		.loc 6 62 0
 506 0102 00BF     		nop
 507              	.L21:
  63:home_screen.c ****     }
  64:home_screen.c ****     
ARM GAS  C:\Users\tmj32\AppData\Local\Temp\ccs01wAd.s 			page 28


  65:home_screen.c ****     
  66:home_screen.c ****     //determine horizontal limits of the chart 
  67:home_screen.c ****     switch(cm4.HoriScale){
 508              		.loc 6 67 0
 509 0104 704B     		ldr	r3, .L34+24
 510 0106 1B7C     		ldrb	r3, [r3, #16]	@ zero_extendqisi2
 511 0108 033B     		subs	r3, r3, #3
 512 010a 042B     		cmp	r3, #4
 513 010c 1ED8     		bhi	.L22
 514 010e 01A2     		adr	r2, .L24
 515 0110 52F823F0 		ldr	pc, [r2, r3, lsl #2]
 516              		.p2align 2
 517              	.L24:
 518 0114 29010000 		.word	.L23+1
 519 0118 2F010000 		.word	.L25+1
 520 011c 35010000 		.word	.L26+1
 521 0120 3D010000 		.word	.L27+1
 522 0124 45010000 		.word	.L28+1
 523              		.p2align 1
 524              	.L23:
  68:home_screen.c ****     case 3 :
  69:home_screen.c ****         windowSize = 100;
 525              		.loc 6 69 0
 526 0128 6423     		movs	r3, #100
 527 012a FB62     		str	r3, [r7, #44]
  70:home_screen.c ****         break;
 528              		.loc 6 70 0
 529 012c 11E0     		b	.L29
 530              	.L25:
  71:home_screen.c ****     case 4 :
  72:home_screen.c ****         windowSize = 200;
 531              		.loc 6 72 0
 532 012e C823     		movs	r3, #200
 533 0130 FB62     		str	r3, [r7, #44]
  73:home_screen.c ****         break;
 534              		.loc 6 73 0
 535 0132 0EE0     		b	.L29
 536              	.L26:
  74:home_screen.c ****     case 5 :
  75:home_screen.c ****         windowSize = 500;
 537              		.loc 6 75 0
 538 0134 4FF4FA73 		mov	r3, #500
 539 0138 FB62     		str	r3, [r7, #44]
  76:home_screen.c ****         break;
 540              		.loc 6 76 0
 541 013a 0AE0     		b	.L29
 542              	.L27:
  77:home_screen.c ****     case 6 :
  78:home_screen.c ****         windowSize = 1000;
 543              		.loc 6 78 0
 544 013c 4FF47A73 		mov	r3, #1000
 545 0140 FB62     		str	r3, [r7, #44]
  79:home_screen.c ****         break;
 546              		.loc 6 79 0
 547 0142 06E0     		b	.L29
 548              	.L28:
  80:home_screen.c ****     case 7 :
ARM GAS  C:\Users\tmj32\AppData\Local\Temp\ccs01wAd.s 			page 29


  81:home_screen.c ****         windowSize = 2000;
 549              		.loc 6 81 0
 550 0144 4FF4FA63 		mov	r3, #2000
 551 0148 FB62     		str	r3, [r7, #44]
  82:home_screen.c ****         break;
 552              		.loc 6 82 0
 553 014a 02E0     		b	.L29
 554              	.L22:
  83:home_screen.c ****     default:
  84:home_screen.c ****         windowSize = 100;
 555              		.loc 6 84 0
 556 014c 6423     		movs	r3, #100
 557 014e FB62     		str	r3, [r7, #44]
  85:home_screen.c ****         break;
 558              		.loc 6 85 0
 559 0150 00BF     		nop
 560              	.L29:
  86:home_screen.c ****     }    
  87:home_screen.c ****     lv_chart_set_point_count(chart1, windowSize);                  //setting the number of points o
 561              		.loc 6 87 0
 562 0152 5C4B     		ldr	r3, .L34+20
 563 0154 1B68     		ldr	r3, [r3]
 564 0156 FA6A     		ldr	r2, [r7, #44]
 565 0158 92B2     		uxth	r2, r2
 566 015a 1146     		mov	r1, r2
 567 015c 1846     		mov	r0, r3
 568 015e FFF7FEFF 		bl	lv_chart_set_point_count
  88:home_screen.c ****     lv_chart_set_type(chart1, LV_CHART_TYPE_POINT);                    //set graph to points, as op
 569              		.loc 6 88 0
 570 0162 584B     		ldr	r3, .L34+20
 571 0164 1B68     		ldr	r3, [r3]
 572 0166 0421     		movs	r1, #4
 573 0168 1846     		mov	r0, r3
 574 016a FFF7FEFF 		bl	lv_chart_set_type
  89:home_screen.c ****     
  90:home_screen.c ****     //Add series to the chart
  91:home_screen.c ****     lv_chart_series_t * s1 = lv_chart_add_series(chart1, lv_color_hex(0x01a2b1));
 575              		.loc 6 91 0
 576 016e 554B     		ldr	r3, .L34+20
 577 0170 1C68     		ldr	r4, [r3]
 578 0172 5648     		ldr	r0, .L34+28
 579 0174 FFF7FEFF 		bl	lv_color_hex
 580 0178 0346     		mov	r3, r0
 581 017a 1946     		mov	r1, r3
 582 017c 2046     		mov	r0, r4
 583 017e FFF7FEFF 		bl	lv_chart_add_series
 584 0182 F860     		str	r0, [r7, #12]
  92:home_screen.c ****     
  93:home_screen.c ****     lv_chart_clear_serie(chart1, s1);
 585              		.loc 6 93 0
 586 0184 4F4B     		ldr	r3, .L34+20
 587 0186 1B68     		ldr	r3, [r3]
 588 0188 F968     		ldr	r1, [r7, #12]
 589 018a 1846     		mov	r0, r3
 590 018c FFF7FEFF 		bl	lv_chart_clear_serie
  94:home_screen.c ****     lv_chart_refresh(chart1);
 591              		.loc 6 94 0
ARM GAS  C:\Users\tmj32\AppData\Local\Temp\ccs01wAd.s 			page 30


 592 0190 4C4B     		ldr	r3, .L34+20
 593 0192 1B68     		ldr	r3, [r3]
 594 0194 1846     		mov	r0, r3
 595 0196 FFF7FEFF 		bl	lv_chart_refresh
  95:home_screen.c ****     
  96:home_screen.c ****     // Need to calculate the desired indexes in RxBuffer, Based on HoriScale
  97:home_screen.c ****     int bufferFirst = cm4.windowPos - windowSize/2;
 596              		.loc 6 97 0
 597 019a 4B4B     		ldr	r3, .L34+24
 598 019c DA68     		ldr	r2, [r3, #12]
 599 019e FB6A     		ldr	r3, [r7, #44]
 600 01a0 D90F     		lsrs	r1, r3, #31
 601 01a2 0B44     		add	r3, r3, r1
 602 01a4 5B10     		asrs	r3, r3, #1
 603 01a6 D31A     		subs	r3, r2, r3
 604 01a8 BB62     		str	r3, [r7, #40]
  98:home_screen.c ****     int bufferLast = cm4.windowPos + windowSize/2;
 605              		.loc 6 98 0
 606 01aa 474B     		ldr	r3, .L34+24
 607 01ac DA68     		ldr	r2, [r3, #12]
 608 01ae FB6A     		ldr	r3, [r7, #44]
 609 01b0 D90F     		lsrs	r1, r3, #31
 610 01b2 0B44     		add	r3, r3, r1
 611 01b4 5B10     		asrs	r3, r3, #1
 612 01b6 1344     		add	r3, r3, r2
 613 01b8 7B62     		str	r3, [r7, #36]
  99:home_screen.c ****     
 100:home_screen.c ****     //handle negative edge cases
 101:home_screen.c ****     if(bufferFirst < 0){
 614              		.loc 6 101 0
 615 01ba BB6A     		ldr	r3, [r7, #40]
 616 01bc 002B     		cmp	r3, #0
 617 01be 03DA     		bge	.L30
 102:home_screen.c ****         bufferFirst = 0;
 618              		.loc 6 102 0
 619 01c0 0023     		movs	r3, #0
 620 01c2 BB62     		str	r3, [r7, #40]
 103:home_screen.c ****         bufferLast = windowSize;
 621              		.loc 6 103 0
 622 01c4 FB6A     		ldr	r3, [r7, #44]
 623 01c6 7B62     		str	r3, [r7, #36]
 624              	.L30:
 104:home_screen.c ****     }
 105:home_screen.c ****     
 106:home_screen.c ****     //handle overflow edge cases
 107:home_screen.c ****     if(bufferLast < 2048){
 625              		.loc 6 107 0
 626 01c8 7B6A     		ldr	r3, [r7, #36]
 627 01ca B3F5006F 		cmp	r3, #2048
 628 01ce 06DA     		bge	.L31
 108:home_screen.c ****         bufferLast = 2048;
 629              		.loc 6 108 0
 630 01d0 4FF40063 		mov	r3, #2048
 631 01d4 7B62     		str	r3, [r7, #36]
 109:home_screen.c ****         bufferFirst = 2048 - windowSize;
 632              		.loc 6 109 0
 633 01d6 FB6A     		ldr	r3, [r7, #44]
ARM GAS  C:\Users\tmj32\AppData\Local\Temp\ccs01wAd.s 			page 31


 634 01d8 C3F50063 		rsb	r3, r3, #2048
 635 01dc BB62     		str	r3, [r7, #40]
 636              	.L31:
 110:home_screen.c ****     }    
 111:home_screen.c **** 
 112:home_screen.c ****     //draw the series
 113:home_screen.c ****     double voltage = 0; //convert the code from brian to voltage using:
 637              		.loc 6 113 0
 638 01de 4FF00003 		mov	r3, #0
 639 01e2 4FF00004 		mov	r4, #0
 640 01e6 C7E90034 		strd	r3, [r7]
 641              	.LBB2:
 114:home_screen.c ****     //voltage = ((code*0.5)/128)+1.45
 115:home_screen.c ****     for(int i = bufferFirst; i < bufferLast; ++i){
 642              		.loc 6 115 0
 643 01ea BB6A     		ldr	r3, [r7, #40]
 644 01ec 3B62     		str	r3, [r7, #32]
 645 01ee 52E0     		b	.L32
 646              	.L33:
 116:home_screen.c ****         /*        |---------code to voltage equation-----------------|* show decimals| + internal o
 117:home_screen.c ****         voltage = (((cm4.RamReadBuffer[i]*0.5)/128)+1.45)*100;
 647              		.loc 6 117 0 discriminator 3
 648 01f0 354A     		ldr	r2, .L34+24
 649 01f2 3B6A     		ldr	r3, [r7, #32]
 650 01f4 1344     		add	r3, r3, r2
 651 01f6 3E33     		adds	r3, r3, #62
 652 01f8 93F90030 		ldrsb	r3, [r3]
 653 01fc 1846     		mov	r0, r3
 654 01fe FFF7FEFF 		bl	__aeabi_i2d
 655 0202 4FF00002 		mov	r2, #0
 656 0206 324B     		ldr	r3, .L34+32
 657 0208 FFF7FEFF 		bl	__aeabi_dmul
 658 020c 0346     		mov	r3, r0
 659 020e 0C46     		mov	r4, r1
 660 0210 1846     		mov	r0, r3
 661 0212 2146     		mov	r1, r4
 662 0214 4FF00002 		mov	r2, #0
 663 0218 2E4B     		ldr	r3, .L34+36
 664 021a FFF7FEFF 		bl	__aeabi_ddiv
 665 021e 0346     		mov	r3, r0
 666 0220 0C46     		mov	r4, r1
 667 0222 1846     		mov	r0, r3
 668 0224 2146     		mov	r1, r4
 669 0226 22A3     		adr	r3, .L34
 670 0228 D3E90023 		ldrd	r2, [r3]
 671 022c FFF7FEFF 		bl	__aeabi_dadd
 672 0230 0346     		mov	r3, r0
 673 0232 0C46     		mov	r4, r1
 674 0234 1846     		mov	r0, r3
 675 0236 2146     		mov	r1, r4
 676 0238 4FF00002 		mov	r2, #0
 677 023c 264B     		ldr	r3, .L34+40
 678 023e FFF7FEFF 		bl	__aeabi_dmul
 679 0242 0346     		mov	r3, r0
 680 0244 0C46     		mov	r4, r1
 681 0246 C7E90034 		strd	r3, [r7]
 118:home_screen.c ****         voltage = voltage + cm4.Offset + 355;
ARM GAS  C:\Users\tmj32\AppData\Local\Temp\ccs01wAd.s 			page 32


 682              		.loc 6 118 0 discriminator 3
 683 024a 1F4B     		ldr	r3, .L34+24
 684 024c 9B7A     		ldrb	r3, [r3, #10]	@ zero_extendqisi2
 685 024e 1846     		mov	r0, r3
 686 0250 FFF7FEFF 		bl	__aeabi_i2d
 687 0254 D7E90023 		ldrd	r2, [r7]
 688 0258 FFF7FEFF 		bl	__aeabi_dadd
 689 025c 0346     		mov	r3, r0
 690 025e 0C46     		mov	r4, r1
 691 0260 1846     		mov	r0, r3
 692 0262 2146     		mov	r1, r4
 693 0264 14A3     		adr	r3, .L34+8
 694 0266 D3E90023 		ldrd	r2, [r3]
 695 026a FFF7FEFF 		bl	__aeabi_dadd
 696 026e 0346     		mov	r3, r0
 697 0270 0C46     		mov	r4, r1
 698 0272 C7E90034 		strd	r3, [r7]
 119:home_screen.c ****         lv_chart_set_next(chart1, s1, voltage);
 699              		.loc 6 119 0 discriminator 3
 700 0276 134B     		ldr	r3, .L34+20
 701 0278 1C68     		ldr	r4, [r3]
 702 027a D7E90001 		ldrd	r0, [r7]
 703 027e FFF7FEFF 		bl	__aeabi_d2iz
 704 0282 0346     		mov	r3, r0
 705 0284 1BB2     		sxth	r3, r3
 706 0286 1A46     		mov	r2, r3
 707 0288 F968     		ldr	r1, [r7, #12]
 708 028a 2046     		mov	r0, r4
 709 028c FFF7FEFF 		bl	lv_chart_set_next
 115:home_screen.c ****         /*        |---------code to voltage equation-----------------|* show decimals| + internal o
 710              		.loc 6 115 0 discriminator 3
 711 0290 3B6A     		ldr	r3, [r7, #32]
 712 0292 0133     		adds	r3, r3, #1
 713 0294 3B62     		str	r3, [r7, #32]
 714              	.L32:
 115:home_screen.c ****         /*        |---------code to voltage equation-----------------|* show decimals| + internal o
 715              		.loc 6 115 0 is_stmt 0 discriminator 1
 716 0296 3A6A     		ldr	r2, [r7, #32]
 717 0298 7B6A     		ldr	r3, [r7, #36]
 718 029a 9A42     		cmp	r2, r3
 719 029c A8DB     		blt	.L33
 720              	.LBE2:
 120:home_screen.c ****     }   
 121:home_screen.c ****     startup = 1;
 721              		.loc 6 121 0 is_stmt 1
 722 029e 084B     		ldr	r3, .L34+16
 723 02a0 0122     		movs	r2, #1
 724 02a2 1A60     		str	r2, [r3]
 122:home_screen.c **** }
 725              		.loc 6 122 0
 726 02a4 00BF     		nop
 727 02a6 3437     		adds	r7, r7, #52
 728              		.cfi_def_cfa_offset 12
 729 02a8 BD46     		mov	sp, r7
 730              		.cfi_def_cfa_register 13
 731              		@ sp needed
 732 02aa 90BD     		pop	{r4, r7, pc}
ARM GAS  C:\Users\tmj32\AppData\Local\Temp\ccs01wAd.s 			page 33


 733              	.L35:
 734 02ac AFF30080 		.align	3
 735              	.L34:
 736 02b0 33333333 		.word	858993459
 737 02b4 3333F73F 		.word	1073165107
 738 02b8 00000000 		.word	0
 739 02bc 00307640 		.word	1081487360
 740 02c0 00000000 		.word	startup
 741 02c4 14000000 		.word	chart1.20844
 742 02c8 00000000 		.word	cm4
 743 02cc B1A20100 		.word	107185
 744 02d0 0000E03F 		.word	1071644672
 745 02d4 00006040 		.word	1080033280
 746 02d8 00005940 		.word	1079574528
 747              		.cfi_endproc
 748              	.LFE717:
 749              		.size	chart_actions, .-chart_actions
 750              		.section	.text.roller1_event,"ax",%progbits
 751              		.align	2
 752              		.thumb
 753              		.thumb_func
 754              		.type	roller1_event, %function
 755              	roller1_event:
 756              	.LFB718:
 123:home_screen.c **** 
 124:home_screen.c **** static void roller1_event(lv_obj_t * obj, lv_event_t event)
 125:home_screen.c **** {
 757              		.loc 6 125 0
 758              		.cfi_startproc
 759              		@ args = 0, pretend = 0, frame = 40
 760              		@ frame_needed = 1, uses_anonymous_args = 0
 761 0000 80B5     		push	{r7, lr}
 762              		.cfi_def_cfa_offset 8
 763              		.cfi_offset 7, -8
 764              		.cfi_offset 14, -4
 765 0002 8AB0     		sub	sp, sp, #40
 766              		.cfi_def_cfa_offset 48
 767 0004 00AF     		add	r7, sp, #0
 768              		.cfi_def_cfa_register 7
 769 0006 7860     		str	r0, [r7, #4]
 770 0008 0B46     		mov	r3, r1
 771 000a FB70     		strb	r3, [r7, #3]
 126:home_screen.c ****     if(event == (LV_EVENT_VALUE_CHANGED)) {
 772              		.loc 6 126 0
 773 000c FB78     		ldrb	r3, [r7, #3]	@ zero_extendqisi2
 774 000e 0E2B     		cmp	r3, #14
 775 0010 06D1     		bne	.L38
 776              	.LBB3:
 127:home_screen.c ****         char buf[32];
 128:home_screen.c ****         lv_roller_get_selected_str(obj, buf, sizeof(buf));
 777              		.loc 6 128 0
 778 0012 07F10803 		add	r3, r7, #8
 779 0016 2022     		movs	r2, #32
 780 0018 1946     		mov	r1, r3
 781 001a 7868     		ldr	r0, [r7, #4]
 782 001c FFF7FEFF 		bl	lv_roller_get_selected_str
 783              	.L38:
ARM GAS  C:\Users\tmj32\AppData\Local\Temp\ccs01wAd.s 			page 34


 784              	.LBE3:
 129:home_screen.c ****     }
 130:home_screen.c **** }
 785              		.loc 6 130 0
 786 0020 00BF     		nop
 787 0022 2837     		adds	r7, r7, #40
 788              		.cfi_def_cfa_offset 8
 789 0024 BD46     		mov	sp, r7
 790              		.cfi_def_cfa_register 13
 791              		@ sp needed
 792 0026 80BD     		pop	{r7, pc}
 793              		.cfi_endproc
 794              	.LFE718:
 795              		.size	roller1_event, .-roller1_event
 796              		.section	.text.roller2_event,"ax",%progbits
 797              		.align	2
 798              		.thumb
 799              		.thumb_func
 800              		.type	roller2_event, %function
 801              	roller2_event:
 802              	.LFB719:
 131:home_screen.c **** static void roller2_event(lv_obj_t * obj, lv_event_t event)
 132:home_screen.c **** {
 803              		.loc 6 132 0
 804              		.cfi_startproc
 805              		@ args = 0, pretend = 0, frame = 40
 806              		@ frame_needed = 1, uses_anonymous_args = 0
 807 0000 80B5     		push	{r7, lr}
 808              		.cfi_def_cfa_offset 8
 809              		.cfi_offset 7, -8
 810              		.cfi_offset 14, -4
 811 0002 8AB0     		sub	sp, sp, #40
 812              		.cfi_def_cfa_offset 48
 813 0004 00AF     		add	r7, sp, #0
 814              		.cfi_def_cfa_register 7
 815 0006 7860     		str	r0, [r7, #4]
 816 0008 0B46     		mov	r3, r1
 817 000a FB70     		strb	r3, [r7, #3]
 133:home_screen.c ****     if(event == (LV_EVENT_VALUE_CHANGED)) {
 818              		.loc 6 133 0
 819 000c FB78     		ldrb	r3, [r7, #3]	@ zero_extendqisi2
 820 000e 0E2B     		cmp	r3, #14
 821 0010 06D1     		bne	.L41
 822              	.LBB4:
 134:home_screen.c ****         char buf[32];
 135:home_screen.c ****         lv_roller_get_selected_str(obj, buf, sizeof(buf));
 823              		.loc 6 135 0
 824 0012 07F10803 		add	r3, r7, #8
 825 0016 2022     		movs	r2, #32
 826 0018 1946     		mov	r1, r3
 827 001a 7868     		ldr	r0, [r7, #4]
 828 001c FFF7FEFF 		bl	lv_roller_get_selected_str
 829              	.L41:
 830              	.LBE4:
 136:home_screen.c ****     }
 137:home_screen.c **** }
 831              		.loc 6 137 0
ARM GAS  C:\Users\tmj32\AppData\Local\Temp\ccs01wAd.s 			page 35


 832 0020 00BF     		nop
 833 0022 2837     		adds	r7, r7, #40
 834              		.cfi_def_cfa_offset 8
 835 0024 BD46     		mov	sp, r7
 836              		.cfi_def_cfa_register 13
 837              		@ sp needed
 838 0026 80BD     		pop	{r7, pc}
 839              		.cfi_endproc
 840              	.LFE719:
 841              		.size	roller2_event, .-roller2_event
 842              		.section	.rodata
 843 0007 00       		.align	2
 844              	.LC0:
 845 0008 4F6E00   		.ascii	"On\000"
 846 000b 00       		.align	2
 847              	.LC1:
 848 000c 4F666600 		.ascii	"Off\000"
 849              		.align	2
 850              	.LC2:
 851 0010 53746174 		.ascii	"State: %s\012\000"
 851      653A2025 
 851      730A00
 852              		.section	.text.sw_event_handler,"ax",%progbits
 853              		.align	2
 854              		.thumb
 855              		.thumb_func
 856              		.type	sw_event_handler, %function
 857              	sw_event_handler:
 858              	.LFB720:
 138:home_screen.c **** static void sw_event_handler(lv_obj_t * obj, lv_event_t event)
 139:home_screen.c **** {
 859              		.loc 6 139 0
 860              		.cfi_startproc
 861              		@ args = 0, pretend = 0, frame = 8
 862              		@ frame_needed = 1, uses_anonymous_args = 0
 863 0000 80B5     		push	{r7, lr}
 864              		.cfi_def_cfa_offset 8
 865              		.cfi_offset 7, -8
 866              		.cfi_offset 14, -4
 867 0002 82B0     		sub	sp, sp, #8
 868              		.cfi_def_cfa_offset 16
 869 0004 00AF     		add	r7, sp, #0
 870              		.cfi_def_cfa_register 7
 871 0006 7860     		str	r0, [r7, #4]
 872 0008 0B46     		mov	r3, r1
 873 000a FB70     		strb	r3, [r7, #3]
 140:home_screen.c ****     if(event == (LV_EVENT_VALUE_CHANGED)) {
 874              		.loc 6 140 0
 875 000c FB78     		ldrb	r3, [r7, #3]	@ zero_extendqisi2
 876 000e 0E2B     		cmp	r3, #14
 877 0010 0CD1     		bne	.L46
 141:home_screen.c ****         printf("State: %s\n", lv_sw_get_state(obj) ? "On" : "Off");
 878              		.loc 6 141 0
 879 0012 7868     		ldr	r0, [r7, #4]
 880 0014 FFF7FEFF 		bl	lv_sw_get_state
 881 0018 0346     		mov	r3, r0
 882 001a 002B     		cmp	r3, #0
ARM GAS  C:\Users\tmj32\AppData\Local\Temp\ccs01wAd.s 			page 36


 883 001c 01D0     		beq	.L44
 884              		.loc 6 141 0 is_stmt 0 discriminator 1
 885 001e 054B     		ldr	r3, .L47
 886 0020 00E0     		b	.L45
 887              	.L44:
 888              		.loc 6 141 0 discriminator 2
 889 0022 054B     		ldr	r3, .L47+4
 890              	.L45:
 891              		.loc 6 141 0 discriminator 4
 892 0024 1946     		mov	r1, r3
 893 0026 0548     		ldr	r0, .L47+8
 894 0028 FFF7FEFF 		bl	printf
 895              	.L46:
 142:home_screen.c ****         //cm4.onBit = !cm4.onBit;
 143:home_screen.c ****     }
 144:home_screen.c **** }
 896              		.loc 6 144 0 is_stmt 1
 897 002c 00BF     		nop
 898 002e 0837     		adds	r7, r7, #8
 899              		.cfi_def_cfa_offset 8
 900 0030 BD46     		mov	sp, r7
 901              		.cfi_def_cfa_register 13
 902              		@ sp needed
 903 0032 80BD     		pop	{r7, pc}
 904              	.L48:
 905              		.align	2
 906              	.L47:
 907 0034 08000000 		.word	.LC0
 908 0038 0C000000 		.word	.LC1
 909 003c 10000000 		.word	.LC2
 910              		.cfi_endproc
 911              	.LFE720:
 912              		.size	sw_event_handler, .-sw_event_handler
 913              		.section	.rodata
 914 001b 00       		.align	2
 915              	.LC3:
 916 001c 257500   		.ascii	"%u\000"
 917              		.section	.text.offset_slider_event_cb,"ax",%progbits
 918              		.align	2
 919              		.thumb
 920              		.thumb_func
 921              		.type	offset_slider_event_cb, %function
 922              	offset_slider_event_cb:
 923              	.LFB721:
 145:home_screen.c **** static void offset_slider_event_cb(lv_obj_t * slider, lv_event_t event)
 146:home_screen.c **** {
 924              		.loc 6 146 0
 925              		.cfi_startproc
 926              		@ args = 0, pretend = 0, frame = 8
 927              		@ frame_needed = 1, uses_anonymous_args = 0
 928 0000 80B5     		push	{r7, lr}
 929              		.cfi_def_cfa_offset 8
 930              		.cfi_offset 7, -8
 931              		.cfi_offset 14, -4
 932 0002 82B0     		sub	sp, sp, #8
 933              		.cfi_def_cfa_offset 16
 934 0004 00AF     		add	r7, sp, #0
ARM GAS  C:\Users\tmj32\AppData\Local\Temp\ccs01wAd.s 			page 37


 935              		.cfi_def_cfa_register 7
 936 0006 7860     		str	r0, [r7, #4]
 937 0008 0B46     		mov	r3, r1
 938 000a FB70     		strb	r3, [r7, #3]
 147:home_screen.c ****     if(event == (LV_EVENT_VALUE_CHANGED)) {
 939              		.loc 6 147 0
 940 000c FB78     		ldrb	r3, [r7, #3]	@ zero_extendqisi2
 941 000e 0E2B     		cmp	r3, #14
 942 0010 17D1     		bne	.L51
 943              	.LBB5:
 148:home_screen.c ****         static char buf[4]; /* max 3 bytes for number plus 1 null terminating byte */
 149:home_screen.c ****         snprintf(buf, 4, "%u", lv_slider_get_value(slider));
 944              		.loc 6 149 0
 945 0012 7868     		ldr	r0, [r7, #4]
 946 0014 FFF7FEFF 		bl	lv_slider_get_value
 947 0018 0346     		mov	r3, r0
 948 001a 0C4A     		ldr	r2, .L52
 949 001c 0421     		movs	r1, #4
 950 001e 0C48     		ldr	r0, .L52+4
 951 0020 FFF7FEFF 		bl	snprintf
 150:home_screen.c ****         lv_label_set_text(offsetLabel, buf);
 952              		.loc 6 150 0
 953 0024 0B4B     		ldr	r3, .L52+8
 954 0026 1B68     		ldr	r3, [r3]
 955 0028 0949     		ldr	r1, .L52+4
 956 002a 1846     		mov	r0, r3
 957 002c FFF7FEFF 		bl	lv_label_set_text
 151:home_screen.c ****         cm4.Offset = lv_slider_get_value(slider);
 958              		.loc 6 151 0
 959 0030 7868     		ldr	r0, [r7, #4]
 960 0032 FFF7FEFF 		bl	lv_slider_get_value
 961 0036 0346     		mov	r3, r0
 962 0038 DAB2     		uxtb	r2, r3
 963 003a 074B     		ldr	r3, .L52+12
 964 003c 9A72     		strb	r2, [r3, #10]
 152:home_screen.c ****         chart_actions();    //call to update the chart
 965              		.loc 6 152 0
 966 003e FFF7FEFF 		bl	chart_actions
 967              	.L51:
 968              	.LBE5:
 153:home_screen.c ****     }
 154:home_screen.c **** }
 969              		.loc 6 154 0
 970 0042 00BF     		nop
 971 0044 0837     		adds	r7, r7, #8
 972              		.cfi_def_cfa_offset 8
 973 0046 BD46     		mov	sp, r7
 974              		.cfi_def_cfa_register 13
 975              		@ sp needed
 976 0048 80BD     		pop	{r7, pc}
 977              	.L53:
 978 004a 00BF     		.align	2
 979              	.L52:
 980 004c 1C000000 		.word	.LC3
 981 0050 18000000 		.word	buf.20885
 982 0054 00000000 		.word	offsetLabel
 983 0058 00000000 		.word	cm4
ARM GAS  C:\Users\tmj32\AppData\Local\Temp\ccs01wAd.s 			page 38


 984              		.cfi_endproc
 985              	.LFE721:
 986              		.size	offset_slider_event_cb, .-offset_slider_event_cb
 987              		.section	.text.trigger_slider_event_cb,"ax",%progbits
 988              		.align	2
 989              		.thumb
 990              		.thumb_func
 991              		.type	trigger_slider_event_cb, %function
 992              	trigger_slider_event_cb:
 993              	.LFB722:
 155:home_screen.c **** static void trigger_slider_event_cb(lv_obj_t * slider, lv_event_t event)
 156:home_screen.c **** {
 994              		.loc 6 156 0
 995              		.cfi_startproc
 996              		@ args = 0, pretend = 0, frame = 8
 997              		@ frame_needed = 1, uses_anonymous_args = 0
 998 0000 80B5     		push	{r7, lr}
 999              		.cfi_def_cfa_offset 8
 1000              		.cfi_offset 7, -8
 1001              		.cfi_offset 14, -4
 1002 0002 82B0     		sub	sp, sp, #8
 1003              		.cfi_def_cfa_offset 16
 1004 0004 00AF     		add	r7, sp, #0
 1005              		.cfi_def_cfa_register 7
 1006 0006 7860     		str	r0, [r7, #4]
 1007 0008 0B46     		mov	r3, r1
 1008 000a FB70     		strb	r3, [r7, #3]
 157:home_screen.c ****     if(event == (LV_EVENT_VALUE_CHANGED)) {
 1009              		.loc 6 157 0
 1010 000c FB78     		ldrb	r3, [r7, #3]	@ zero_extendqisi2
 1011 000e 0E2B     		cmp	r3, #14
 1012 0010 17D1     		bne	.L56
 1013              	.LBB6:
 158:home_screen.c ****         static char buf[4]; /* max 3 bytes for number plus 1 null terminating byte */
 159:home_screen.c ****         snprintf(buf, 4, "%u", lv_slider_get_value(slider));
 1014              		.loc 6 159 0
 1015 0012 7868     		ldr	r0, [r7, #4]
 1016 0014 FFF7FEFF 		bl	lv_slider_get_value
 1017 0018 0346     		mov	r3, r0
 1018 001a 0C4A     		ldr	r2, .L57
 1019 001c 0421     		movs	r1, #4
 1020 001e 0C48     		ldr	r0, .L57+4
 1021 0020 FFF7FEFF 		bl	snprintf
 160:home_screen.c ****         lv_label_set_text(triggerLabel, buf);
 1022              		.loc 6 160 0
 1023 0024 0B4B     		ldr	r3, .L57+8
 1024 0026 1B68     		ldr	r3, [r3]
 1025 0028 0949     		ldr	r1, .L57+4
 1026 002a 1846     		mov	r0, r3
 1027 002c FFF7FEFF 		bl	lv_label_set_text
 161:home_screen.c ****         cm4.Trigger = lv_slider_get_value(slider);
 1028              		.loc 6 161 0
 1029 0030 7868     		ldr	r0, [r7, #4]
 1030 0032 FFF7FEFF 		bl	lv_slider_get_value
 1031 0036 0346     		mov	r3, r0
 1032 0038 DAB2     		uxtb	r2, r3
 1033 003a 074B     		ldr	r3, .L57+12
ARM GAS  C:\Users\tmj32\AppData\Local\Temp\ccs01wAd.s 			page 39


 1034 003c 1A71     		strb	r2, [r3, #4]
 162:home_screen.c ****         chart_actions();    //call to update the chart
 1035              		.loc 6 162 0
 1036 003e FFF7FEFF 		bl	chart_actions
 1037              	.L56:
 1038              	.LBE6:
 163:home_screen.c ****     }
 164:home_screen.c **** }
 1039              		.loc 6 164 0
 1040 0042 00BF     		nop
 1041 0044 0837     		adds	r7, r7, #8
 1042              		.cfi_def_cfa_offset 8
 1043 0046 BD46     		mov	sp, r7
 1044              		.cfi_def_cfa_register 13
 1045              		@ sp needed
 1046 0048 80BD     		pop	{r7, pc}
 1047              	.L58:
 1048 004a 00BF     		.align	2
 1049              	.L57:
 1050 004c 1C000000 		.word	.LC3
 1051 0050 1C000000 		.word	buf.20890
 1052 0054 04000000 		.word	triggerLabel
 1053 0058 00000000 		.word	cm4
 1054              		.cfi_endproc
 1055              	.LFE722:
 1056              		.size	trigger_slider_event_cb, .-trigger_slider_event_cb
 1057              		.section	.rodata
 1058 001f 00       		.align	2
 1059              	.LC4:
 1060 0020 3130306D 		.ascii	"100mV\000"
 1060      5600
 1061 0026 0000     		.align	2
 1062              	.LC5:
 1063 0028 3230306D 		.ascii	"200mV\000"
 1063      5600
 1064 002e 0000     		.align	2
 1065              	.LC6:
 1066 0030 3530306D 		.ascii	"500mV\000"
 1066      5600
 1067 0036 0000     		.align	2
 1068              	.LC7:
 1069 0038 315600   		.ascii	"1V\000"
 1070 003b 00       		.align	2
 1071              	.LC8:
 1072 003c 325600   		.ascii	"2V\000"
 1073 003f 00       		.align	2
 1074              	.LC9:
 1075 0040 48656C6C 		.ascii	"Hello World\000"
 1075      6F20576F 
 1075      726C6400 
 1076              		.section	.text.hori_slider_event_cb,"ax",%progbits
 1077              		.align	2
 1078              		.thumb
 1079              		.thumb_func
 1080              		.type	hori_slider_event_cb, %function
 1081              	hori_slider_event_cb:
 1082              	.LFB723:
ARM GAS  C:\Users\tmj32\AppData\Local\Temp\ccs01wAd.s 			page 40


 165:home_screen.c **** static void hori_slider_event_cb(lv_obj_t * slider, lv_event_t event)
 166:home_screen.c **** {
 1083              		.loc 6 166 0
 1084              		.cfi_startproc
 1085              		@ args = 0, pretend = 0, frame = 8
 1086              		@ frame_needed = 1, uses_anonymous_args = 0
 1087 0000 80B5     		push	{r7, lr}
 1088              		.cfi_def_cfa_offset 8
 1089              		.cfi_offset 7, -8
 1090              		.cfi_offset 14, -4
 1091 0002 82B0     		sub	sp, sp, #8
 1092              		.cfi_def_cfa_offset 16
 1093 0004 00AF     		add	r7, sp, #0
 1094              		.cfi_def_cfa_register 7
 1095 0006 7860     		str	r0, [r7, #4]
 1096 0008 0B46     		mov	r3, r1
 1097 000a FB70     		strb	r3, [r7, #3]
 167:home_screen.c ****     if(event == (LV_EVENT_VALUE_CHANGED)) {
 1098              		.loc 6 167 0
 1099 000c FB78     		ldrb	r3, [r7, #3]	@ zero_extendqisi2
 1100 000e 0E2B     		cmp	r3, #14
 1101 0010 50D1     		bne	.L69
 1102              	.LBB7:
 168:home_screen.c ****         static char buf[10]; /* max 3 bytes for number plus 1 null terminating byte */
 169:home_screen.c ****         //snprintf(buf, 10, "%u", lv_slider_get_value(slider));
 170:home_screen.c ****         //lv_label_set_text(horiLabel1, buf);
 171:home_screen.c ****         cm4.HoriScale = lv_slider_get_value(slider);
 1103              		.loc 6 171 0
 1104 0012 7868     		ldr	r0, [r7, #4]
 1105 0014 FFF7FEFF 		bl	lv_slider_get_value
 1106 0018 0346     		mov	r3, r0
 1107 001a DAB2     		uxtb	r2, r3
 1108 001c 274B     		ldr	r3, .L70
 1109 001e 1A74     		strb	r2, [r3, #16]
 172:home_screen.c ****         
 173:home_screen.c ****         switch(cm4.HoriScale){
 1110              		.loc 6 173 0
 1111 0020 264B     		ldr	r3, .L70
 1112 0022 1B7C     		ldrb	r3, [r3, #16]	@ zero_extendqisi2
 1113 0024 053B     		subs	r3, r3, #5
 1114 0026 042B     		cmp	r3, #4
 1115 0028 36D8     		bhi	.L61
 1116 002a 01A2     		adr	r2, .L63
 1117 002c 52F823F0 		ldr	pc, [r2, r3, lsl #2]
 1118              		.p2align 2
 1119              	.L63:
 1120 0030 45000000 		.word	.L62+1
 1121 0034 55000000 		.word	.L64+1
 1122 0038 65000000 		.word	.L65+1
 1123 003c 75000000 		.word	.L66+1
 1124 0040 87000000 		.word	.L67+1
 1125              		.p2align 1
 1126              	.L62:
 174:home_screen.c **** 
 175:home_screen.c ****             case 5 :
 176:home_screen.c ****                 snprintf(buf, 10, "100mV");
 1127              		.loc 6 176 0
ARM GAS  C:\Users\tmj32\AppData\Local\Temp\ccs01wAd.s 			page 41


 1128 0044 1E4B     		ldr	r3, .L70+4
 1129 0046 1F4A     		ldr	r2, .L70+8
 1130 0048 92E80300 		ldmia	r2, {r0, r1}
 1131 004c 1860     		str	r0, [r3]
 1132 004e 0433     		adds	r3, r3, #4
 1133 0050 1980     		strh	r1, [r3]	@ movhi
 177:home_screen.c ****                 break;
 1134              		.loc 6 177 0
 1135 0052 27E0     		b	.L68
 1136              	.L64:
 178:home_screen.c ****             case 6 :
 179:home_screen.c ****                 snprintf(buf, 10, "200mV");
 1137              		.loc 6 179 0
 1138 0054 1A4B     		ldr	r3, .L70+4
 1139 0056 1C4A     		ldr	r2, .L70+12
 1140 0058 92E80300 		ldmia	r2, {r0, r1}
 1141 005c 1860     		str	r0, [r3]
 1142 005e 0433     		adds	r3, r3, #4
 1143 0060 1980     		strh	r1, [r3]	@ movhi
 180:home_screen.c ****                 break;
 1144              		.loc 6 180 0
 1145 0062 1FE0     		b	.L68
 1146              	.L65:
 181:home_screen.c ****             case 7 :
 182:home_screen.c ****                 snprintf(buf, 10, "500mV");
 1147              		.loc 6 182 0
 1148 0064 164B     		ldr	r3, .L70+4
 1149 0066 194A     		ldr	r2, .L70+16
 1150 0068 92E80300 		ldmia	r2, {r0, r1}
 1151 006c 1860     		str	r0, [r3]
 1152 006e 0433     		adds	r3, r3, #4
 1153 0070 1980     		strh	r1, [r3]	@ movhi
 183:home_screen.c ****                 break;            
 1154              		.loc 6 183 0
 1155 0072 17E0     		b	.L68
 1156              	.L66:
 184:home_screen.c ****             case 8 :
 185:home_screen.c ****                 snprintf(buf, 10, "1V");
 1157              		.loc 6 185 0
 1158 0074 124B     		ldr	r3, .L70+4
 1159 0076 164A     		ldr	r2, .L70+20
 1160 0078 1268     		ldr	r2, [r2]
 1161 007a 1146     		mov	r1, r2	@ movhi
 1162 007c 1980     		strh	r1, [r3]	@ movhi
 1163 007e 0233     		adds	r3, r3, #2
 1164 0080 120C     		lsrs	r2, r2, #16
 1165 0082 1A70     		strb	r2, [r3]
 186:home_screen.c ****                 break;
 1166              		.loc 6 186 0
 1167 0084 0EE0     		b	.L68
 1168              	.L67:
 187:home_screen.c ****             case 9 :
 188:home_screen.c ****                 snprintf(buf, 10, "2V");
 1169              		.loc 6 188 0
 1170 0086 0E4B     		ldr	r3, .L70+4
 1171 0088 124A     		ldr	r2, .L70+24
 1172 008a 1268     		ldr	r2, [r2]
ARM GAS  C:\Users\tmj32\AppData\Local\Temp\ccs01wAd.s 			page 42


 1173 008c 1146     		mov	r1, r2	@ movhi
 1174 008e 1980     		strh	r1, [r3]	@ movhi
 1175 0090 0233     		adds	r3, r3, #2
 1176 0092 120C     		lsrs	r2, r2, #16
 1177 0094 1A70     		strb	r2, [r3]
 189:home_screen.c ****                 break;
 1178              		.loc 6 189 0
 1179 0096 05E0     		b	.L68
 1180              	.L61:
 190:home_screen.c ****             default:
 191:home_screen.c ****                 snprintf(buf, 10, "Hello World");
 1181              		.loc 6 191 0
 1182 0098 0F4A     		ldr	r2, .L70+28
 1183 009a 0A21     		movs	r1, #10
 1184 009c 0848     		ldr	r0, .L70+4
 1185 009e FFF7FEFF 		bl	snprintf
 192:home_screen.c ****                 break;
 1186              		.loc 6 192 0
 1187 00a2 00BF     		nop
 1188              	.L68:
 193:home_screen.c ****         }        
 194:home_screen.c ****         lv_label_set_text(horiLabel1, buf);
 1189              		.loc 6 194 0
 1190 00a4 0D4B     		ldr	r3, .L70+32
 1191 00a6 1B68     		ldr	r3, [r3]
 1192 00a8 0549     		ldr	r1, .L70+4
 1193 00aa 1846     		mov	r0, r3
 1194 00ac FFF7FEFF 		bl	lv_label_set_text
 195:home_screen.c ****         chart_actions();    //call to update the chart
 1195              		.loc 6 195 0
 1196 00b0 FFF7FEFF 		bl	chart_actions
 1197              	.L69:
 1198              	.LBE7:
 196:home_screen.c ****     }
 197:home_screen.c **** }
 1199              		.loc 6 197 0
 1200 00b4 00BF     		nop
 1201 00b6 0837     		adds	r7, r7, #8
 1202              		.cfi_def_cfa_offset 8
 1203 00b8 BD46     		mov	sp, r7
 1204              		.cfi_def_cfa_register 13
 1205              		@ sp needed
 1206 00ba 80BD     		pop	{r7, pc}
 1207              	.L71:
 1208              		.align	2
 1209              	.L70:
 1210 00bc 00000000 		.word	cm4
 1211 00c0 20000000 		.word	buf.20895
 1212 00c4 20000000 		.word	.LC4
 1213 00c8 28000000 		.word	.LC5
 1214 00cc 30000000 		.word	.LC6
 1215 00d0 38000000 		.word	.LC7
 1216 00d4 3C000000 		.word	.LC8
 1217 00d8 40000000 		.word	.LC9
 1218 00dc 08000000 		.word	horiLabel1
 1219              		.cfi_endproc
 1220              	.LFE723:
ARM GAS  C:\Users\tmj32\AppData\Local\Temp\ccs01wAd.s 			page 43


 1221              		.size	hori_slider_event_cb, .-hori_slider_event_cb
 1222              		.section	.text.verti_slider_event_cb,"ax",%progbits
 1223              		.align	2
 1224              		.thumb
 1225              		.thumb_func
 1226              		.type	verti_slider_event_cb, %function
 1227              	verti_slider_event_cb:
 1228              	.LFB724:
 198:home_screen.c **** static void verti_slider_event_cb(lv_obj_t * slider, lv_event_t event)
 199:home_screen.c **** {
 1229              		.loc 6 199 0
 1230              		.cfi_startproc
 1231              		@ args = 0, pretend = 0, frame = 8
 1232              		@ frame_needed = 1, uses_anonymous_args = 0
 1233 0000 80B5     		push	{r7, lr}
 1234              		.cfi_def_cfa_offset 8
 1235              		.cfi_offset 7, -8
 1236              		.cfi_offset 14, -4
 1237 0002 82B0     		sub	sp, sp, #8
 1238              		.cfi_def_cfa_offset 16
 1239 0004 00AF     		add	r7, sp, #0
 1240              		.cfi_def_cfa_register 7
 1241 0006 7860     		str	r0, [r7, #4]
 1242 0008 0B46     		mov	r3, r1
 1243 000a FB70     		strb	r3, [r7, #3]
 200:home_screen.c ****     if(event == (LV_EVENT_VALUE_CHANGED)) {
 1244              		.loc 6 200 0
 1245 000c FB78     		ldrb	r3, [r7, #3]	@ zero_extendqisi2
 1246 000e 0E2B     		cmp	r3, #14
 1247 0010 50D1     		bne	.L82
 1248              	.LBB8:
 201:home_screen.c ****         static char buf[10]; /* max 3 bytes for number plus 1 null terminating byte */
 202:home_screen.c ****         cm4.VertScale = lv_slider_get_value(slider);
 1249              		.loc 6 202 0
 1250 0012 7868     		ldr	r0, [r7, #4]
 1251 0014 FFF7FEFF 		bl	lv_slider_get_value
 1252 0018 0346     		mov	r3, r0
 1253 001a DAB2     		uxtb	r2, r3
 1254 001c 274B     		ldr	r3, .L83
 1255 001e 5A74     		strb	r2, [r3, #17]
 203:home_screen.c ****         switch(cm4.VertScale){
 1256              		.loc 6 203 0
 1257 0020 264B     		ldr	r3, .L83
 1258 0022 5B7C     		ldrb	r3, [r3, #17]	@ zero_extendqisi2
 1259 0024 033B     		subs	r3, r3, #3
 1260 0026 042B     		cmp	r3, #4
 1261 0028 36D8     		bhi	.L74
 1262 002a 01A2     		adr	r2, .L76
 1263 002c 52F823F0 		ldr	pc, [r2, r3, lsl #2]
 1264              		.p2align 2
 1265              	.L76:
 1266 0030 45000000 		.word	.L75+1
 1267 0034 55000000 		.word	.L77+1
 1268 0038 65000000 		.word	.L78+1
 1269 003c 75000000 		.word	.L79+1
 1270 0040 87000000 		.word	.L80+1
 1271              		.p2align 1
ARM GAS  C:\Users\tmj32\AppData\Local\Temp\ccs01wAd.s 			page 44


 1272              	.L75:
 204:home_screen.c ****             case 3 :
 205:home_screen.c ****                 snprintf(buf, 10, "100mV");
 1273              		.loc 6 205 0
 1274 0044 1E4B     		ldr	r3, .L83+4
 1275 0046 1F4A     		ldr	r2, .L83+8
 1276 0048 92E80300 		ldmia	r2, {r0, r1}
 1277 004c 1860     		str	r0, [r3]
 1278 004e 0433     		adds	r3, r3, #4
 1279 0050 1980     		strh	r1, [r3]	@ movhi
 206:home_screen.c ****                 break;
 1280              		.loc 6 206 0
 1281 0052 27E0     		b	.L81
 1282              	.L77:
 207:home_screen.c ****             case 4 :
 208:home_screen.c ****                 snprintf(buf, 10, "200mV");
 1283              		.loc 6 208 0
 1284 0054 1A4B     		ldr	r3, .L83+4
 1285 0056 1C4A     		ldr	r2, .L83+12
 1286 0058 92E80300 		ldmia	r2, {r0, r1}
 1287 005c 1860     		str	r0, [r3]
 1288 005e 0433     		adds	r3, r3, #4
 1289 0060 1980     		strh	r1, [r3]	@ movhi
 209:home_screen.c ****                 break;
 1290              		.loc 6 209 0
 1291 0062 1FE0     		b	.L81
 1292              	.L78:
 210:home_screen.c ****             case 5 :
 211:home_screen.c ****                 snprintf(buf, 10, "500mV");
 1293              		.loc 6 211 0
 1294 0064 164B     		ldr	r3, .L83+4
 1295 0066 194A     		ldr	r2, .L83+16
 1296 0068 92E80300 		ldmia	r2, {r0, r1}
 1297 006c 1860     		str	r0, [r3]
 1298 006e 0433     		adds	r3, r3, #4
 1299 0070 1980     		strh	r1, [r3]	@ movhi
 212:home_screen.c ****                 break;
 1300              		.loc 6 212 0
 1301 0072 17E0     		b	.L81
 1302              	.L79:
 213:home_screen.c ****             case 6 :
 214:home_screen.c ****                 snprintf(buf, 10, "1V");
 1303              		.loc 6 214 0
 1304 0074 124B     		ldr	r3, .L83+4
 1305 0076 164A     		ldr	r2, .L83+20
 1306 0078 1268     		ldr	r2, [r2]
 1307 007a 1146     		mov	r1, r2	@ movhi
 1308 007c 1980     		strh	r1, [r3]	@ movhi
 1309 007e 0233     		adds	r3, r3, #2
 1310 0080 120C     		lsrs	r2, r2, #16
 1311 0082 1A70     		strb	r2, [r3]
 215:home_screen.c ****                 break;
 1312              		.loc 6 215 0
 1313 0084 0EE0     		b	.L81
 1314              	.L80:
 216:home_screen.c ****             case 7 :
 217:home_screen.c ****                 snprintf(buf, 10, "2V");
ARM GAS  C:\Users\tmj32\AppData\Local\Temp\ccs01wAd.s 			page 45


 1315              		.loc 6 217 0
 1316 0086 0E4B     		ldr	r3, .L83+4
 1317 0088 124A     		ldr	r2, .L83+24
 1318 008a 1268     		ldr	r2, [r2]
 1319 008c 1146     		mov	r1, r2	@ movhi
 1320 008e 1980     		strh	r1, [r3]	@ movhi
 1321 0090 0233     		adds	r3, r3, #2
 1322 0092 120C     		lsrs	r2, r2, #16
 1323 0094 1A70     		strb	r2, [r3]
 218:home_screen.c ****                 break;
 1324              		.loc 6 218 0
 1325 0096 05E0     		b	.L81
 1326              	.L74:
 219:home_screen.c ****             default:
 220:home_screen.c ****                 snprintf(buf, 10, "Hello World");
 1327              		.loc 6 220 0
 1328 0098 0F4A     		ldr	r2, .L83+28
 1329 009a 0A21     		movs	r1, #10
 1330 009c 0848     		ldr	r0, .L83+4
 1331 009e FFF7FEFF 		bl	snprintf
 221:home_screen.c ****                 break;
 1332              		.loc 6 221 0
 1333 00a2 00BF     		nop
 1334              	.L81:
 222:home_screen.c ****         }
 223:home_screen.c ****         lv_label_set_text(vertLabel1, buf);
 1335              		.loc 6 223 0
 1336 00a4 0D4B     		ldr	r3, .L83+32
 1337 00a6 1B68     		ldr	r3, [r3]
 1338 00a8 0549     		ldr	r1, .L83+4
 1339 00aa 1846     		mov	r0, r3
 1340 00ac FFF7FEFF 		bl	lv_label_set_text
 224:home_screen.c ****         chart_actions();    //call to update the chart
 1341              		.loc 6 224 0
 1342 00b0 FFF7FEFF 		bl	chart_actions
 1343              	.L82:
 1344              	.LBE8:
 225:home_screen.c ****     }
 226:home_screen.c **** }
 1345              		.loc 6 226 0
 1346 00b4 00BF     		nop
 1347 00b6 0837     		adds	r7, r7, #8
 1348              		.cfi_def_cfa_offset 8
 1349 00b8 BD46     		mov	sp, r7
 1350              		.cfi_def_cfa_register 13
 1351              		@ sp needed
 1352 00ba 80BD     		pop	{r7, pc}
 1353              	.L84:
 1354              		.align	2
 1355              	.L83:
 1356 00bc 00000000 		.word	cm4
 1357 00c0 2C000000 		.word	buf.20907
 1358 00c4 20000000 		.word	.LC4
 1359 00c8 28000000 		.word	.LC5
 1360 00cc 30000000 		.word	.LC6
 1361 00d0 38000000 		.word	.LC7
 1362 00d4 3C000000 		.word	.LC8
ARM GAS  C:\Users\tmj32\AppData\Local\Temp\ccs01wAd.s 			page 46


 1363 00d8 40000000 		.word	.LC9
 1364 00dc 0C000000 		.word	vertLabel1
 1365              		.cfi_endproc
 1366              	.LFE724:
 1367              		.size	verti_slider_event_cb, .-verti_slider_event_cb
 1368              		.section	.text.window_slider_event_cb,"ax",%progbits
 1369              		.align	2
 1370              		.thumb
 1371              		.thumb_func
 1372              		.type	window_slider_event_cb, %function
 1373              	window_slider_event_cb:
 1374              	.LFB725:
 227:home_screen.c **** static void window_slider_event_cb(lv_obj_t * slider, lv_event_t event)
 228:home_screen.c **** {
 1375              		.loc 6 228 0
 1376              		.cfi_startproc
 1377              		@ args = 0, pretend = 0, frame = 8
 1378              		@ frame_needed = 1, uses_anonymous_args = 0
 1379 0000 80B5     		push	{r7, lr}
 1380              		.cfi_def_cfa_offset 8
 1381              		.cfi_offset 7, -8
 1382              		.cfi_offset 14, -4
 1383 0002 82B0     		sub	sp, sp, #8
 1384              		.cfi_def_cfa_offset 16
 1385 0004 00AF     		add	r7, sp, #0
 1386              		.cfi_def_cfa_register 7
 1387 0006 7860     		str	r0, [r7, #4]
 1388 0008 0B46     		mov	r3, r1
 1389 000a FB70     		strb	r3, [r7, #3]
 229:home_screen.c ****     if(event == (LV_EVENT_VALUE_CHANGED)) {
 1390              		.loc 6 229 0
 1391 000c FB78     		ldrb	r3, [r7, #3]	@ zero_extendqisi2
 1392 000e 0E2B     		cmp	r3, #14
 1393 0010 08D1     		bne	.L87
 230:home_screen.c ****         //static char buf[6]; /* max 3 bytes for number plus 1 null terminating byte */
 231:home_screen.c ****         //snprintf(buf, 6, "%u", lv_slider_get_value(slider));
 232:home_screen.c ****         //lv_label_set_text(windowLabel, buf);
 233:home_screen.c ****         cm4.windowPos = lv_slider_get_value(slider);
 1394              		.loc 6 233 0
 1395 0012 7868     		ldr	r0, [r7, #4]
 1396 0014 FFF7FEFF 		bl	lv_slider_get_value
 1397 0018 0346     		mov	r3, r0
 1398 001a 1A46     		mov	r2, r3
 1399 001c 034B     		ldr	r3, .L88
 1400 001e DA60     		str	r2, [r3, #12]
 234:home_screen.c ****         chart_actions();    //call to update the chart
 1401              		.loc 6 234 0
 1402 0020 FFF7FEFF 		bl	chart_actions
 1403              	.L87:
 235:home_screen.c ****     }
 236:home_screen.c **** }
 1404              		.loc 6 236 0
 1405 0024 00BF     		nop
 1406 0026 0837     		adds	r7, r7, #8
 1407              		.cfi_def_cfa_offset 8
 1408 0028 BD46     		mov	sp, r7
 1409              		.cfi_def_cfa_register 13
ARM GAS  C:\Users\tmj32\AppData\Local\Temp\ccs01wAd.s 			page 47


 1410              		@ sp needed
 1411 002a 80BD     		pop	{r7, pc}
 1412              	.L89:
 1413              		.align	2
 1414              	.L88:
 1415 002c 00000000 		.word	cm4
 1416              		.cfi_endproc
 1417              	.LFE725:
 1418              		.size	window_slider_event_cb, .-window_slider_event_cb
 1419              		.section	.rodata
 1420              		.align	2
 1421              	.LC10:
 1422 004c 3000     		.ascii	"0\000"
 1423 004e 0000     		.align	2
 1424              	.LC11:
 1425 0050 4F666673 		.ascii	"Offset:\000"
 1425      65743A00 
 1426              		.align	2
 1427              	.LC12:
 1428 0058 31343530 		.ascii	"1450mV\000"
 1428      6D5600
 1429 005f 00       		.align	2
 1430              	.LC13:
 1431 0060 54726967 		.ascii	"Trigger: \000"
 1431      6765723A 
 1431      2000
 1432 006a 0000     		.align	2
 1433              	.LC14:
 1434 006c 48205363 		.ascii	"H Scale: \000"
 1434      616C653A 
 1434      2000
 1435 0076 0000     		.align	2
 1436              	.LC15:
 1437 0078 56205363 		.ascii	"V Scale: \000"
 1437      616C653A 
 1437      2000
 1438 0082 0000     		.align	2
 1439              	.LC16:
 1440 0084 4F6E5C4F 		.ascii	"On\\Off\000"
 1440      666600
 1441 008b 00       		.align	2
 1442              	.LC17:
 1443 008c 52697369 		.ascii	"Rising\012Falling\012Threshold\000"
 1443      6E670A46 
 1443      616C6C69 
 1443      6E670A54 
 1443      68726573 
 1444 00a5 000000   		.align	2
 1445              	.LC18:
 1446 00a8 53696E67 		.ascii	"Single\012Auto\012Normal\000"
 1446      6C650A41 
 1446      75746F0A 
 1446      4E6F726D 
 1446      616C00
 1447              		.section	.text.home_screen,"ax",%progbits
 1448              		.align	2
 1449              		.global	home_screen
ARM GAS  C:\Users\tmj32\AppData\Local\Temp\ccs01wAd.s 			page 48


 1450              		.thumb
 1451              		.thumb_func
 1452              		.type	home_screen, %function
 1453              	home_screen:
 1454              	.LFB726:
 237:home_screen.c **** 
 238:home_screen.c **** void home_screen()
 239:home_screen.c **** {   
 1455              		.loc 6 239 0
 1456              		.cfi_startproc
 1457              		@ args = 0, pretend = 0, frame = 56
 1458              		@ frame_needed = 1, uses_anonymous_args = 0
 1459 0000 80B5     		push	{r7, lr}
 1460              		.cfi_def_cfa_offset 8
 1461              		.cfi_offset 7, -8
 1462              		.cfi_offset 14, -4
 1463 0002 90B0     		sub	sp, sp, #64
 1464              		.cfi_def_cfa_offset 72
 1465 0004 02AF     		add	r7, sp, #8
 1466              		.cfi_def_cfa 7, 64
 240:home_screen.c ****     /* First Slider: Offset */
 241:home_screen.c ****     lv_obj_t * offsetSlider = lv_slider_create(lv_scr_act(), NULL);
 1467              		.loc 6 241 0
 1468 0006 FFF7FEFF 		bl	lv_scr_act
 1469 000a 0346     		mov	r3, r0
 1470 000c 0021     		movs	r1, #0
 1471 000e 1846     		mov	r0, r3
 1472 0010 FFF7FEFF 		bl	lv_slider_create
 1473 0014 7863     		str	r0, [r7, #52]
 242:home_screen.c ****     lv_obj_set_pos(offsetSlider, 20, 290);                         /*Set its position*/
 1474              		.loc 6 242 0
 1475 0016 4FF49172 		mov	r2, #290
 1476 001a 1421     		movs	r1, #20
 1477 001c 786B     		ldr	r0, [r7, #52]
 1478 001e FFF7FEFF 		bl	lv_obj_set_pos
 243:home_screen.c ****     lv_obj_set_size(offsetSlider, 130, 30);                        /*Set its size*/
 1479              		.loc 6 243 0
 1480 0022 1E22     		movs	r2, #30
 1481 0024 8221     		movs	r1, #130
 1482 0026 786B     		ldr	r0, [r7, #52]
 1483 0028 FFF7FEFF 		bl	lv_obj_set_size
 244:home_screen.c ****     lv_slider_set_value(offsetSlider, 0, LV_ANIM_ON);
 1484              		.loc 6 244 0
 1485 002c 0122     		movs	r2, #1
 1486 002e 0021     		movs	r1, #0
 1487 0030 786B     		ldr	r0, [r7, #52]
 1488 0032 FFF7FEFF 		bl	lv_slider_set_value
 245:home_screen.c ****     lv_obj_set_event_cb(offsetSlider, offset_slider_event_cb);
 1489              		.loc 6 245 0
 1490 0036 C749     		ldr	r1, .L91
 1491 0038 786B     		ldr	r0, [r7, #52]
 1492 003a FFF7FEFF 		bl	lv_obj_set_event_cb
 246:home_screen.c ****     lv_slider_set_range(offsetSlider, 0, 100);
 1493              		.loc 6 246 0
 1494 003e 6422     		movs	r2, #100
 1495 0040 0021     		movs	r1, #0
 1496 0042 786B     		ldr	r0, [r7, #52]
ARM GAS  C:\Users\tmj32\AppData\Local\Temp\ccs01wAd.s 			page 49


 1497 0044 FFF7FEFF 		bl	lv_slider_set_range
 247:home_screen.c **** 
 248:home_screen.c ****             /* Create a label below the slider */
 249:home_screen.c ****             offsetLabel = lv_label_create(lv_scr_act(), NULL);
 1498              		.loc 6 249 0
 1499 0048 FFF7FEFF 		bl	lv_scr_act
 1500 004c 0346     		mov	r3, r0
 1501 004e 0021     		movs	r1, #0
 1502 0050 1846     		mov	r0, r3
 1503 0052 FFF7FEFF 		bl	lv_label_create
 1504 0056 0246     		mov	r2, r0
 1505 0058 BF4B     		ldr	r3, .L91+4
 1506 005a 1A60     		str	r2, [r3]
 250:home_screen.c ****             lv_label_set_text(offsetLabel, "0");
 1507              		.loc 6 250 0
 1508 005c BE4B     		ldr	r3, .L91+4
 1509 005e 1B68     		ldr	r3, [r3]
 1510 0060 BE49     		ldr	r1, .L91+8
 1511 0062 1846     		mov	r0, r3
 1512 0064 FFF7FEFF 		bl	lv_label_set_text
 251:home_screen.c ****             lv_obj_set_auto_realign(offsetLabel, true);
 1513              		.loc 6 251 0
 1514 0068 BB4B     		ldr	r3, .L91+4
 1515 006a 1B68     		ldr	r3, [r3]
 1516 006c 0121     		movs	r1, #1
 1517 006e 1846     		mov	r0, r3
 1518 0070 FFF7FEFF 		bl	lv_obj_set_auto_realign
 252:home_screen.c ****             lv_obj_align(offsetLabel, offsetSlider, LV_ALIGN_OUT_TOP_MID, 0, 0);
 1519              		.loc 6 252 0
 1520 0074 B84B     		ldr	r3, .L91+4
 1521 0076 1868     		ldr	r0, [r3]
 1522 0078 0023     		movs	r3, #0
 1523 007a 0093     		str	r3, [sp]
 1524 007c 0023     		movs	r3, #0
 1525 007e 0A22     		movs	r2, #10
 1526 0080 796B     		ldr	r1, [r7, #52]
 1527 0082 FFF7FEFF 		bl	lv_obj_align
 253:home_screen.c ****         
 254:home_screen.c ****             /* Create a label above the slider */
 255:home_screen.c ****         	lv_obj_t* offsetLabel2 = lv_label_create(lv_scr_act(), NULL);
 1528              		.loc 6 255 0
 1529 0086 FFF7FEFF 		bl	lv_scr_act
 1530 008a 0346     		mov	r3, r0
 1531 008c 0021     		movs	r1, #0
 1532 008e 1846     		mov	r0, r3
 1533 0090 FFF7FEFF 		bl	lv_label_create
 1534 0094 3863     		str	r0, [r7, #48]
 256:home_screen.c ****         	lv_obj_set_drag(offsetLabel2, false);
 1535              		.loc 6 256 0
 1536 0096 0021     		movs	r1, #0
 1537 0098 386B     		ldr	r0, [r7, #48]
 1538 009a FFF7FEFF 		bl	lv_obj_set_drag
 257:home_screen.c ****             lv_label_set_text(offsetLabel2, "Offset:");
 1539              		.loc 6 257 0
 1540 009e B049     		ldr	r1, .L91+12
 1541 00a0 386B     		ldr	r0, [r7, #48]
 1542 00a2 FFF7FEFF 		bl	lv_label_set_text
ARM GAS  C:\Users\tmj32\AppData\Local\Temp\ccs01wAd.s 			page 50


 258:home_screen.c ****             lv_label_set_long_mode(offsetLabel2, LV_LABEL_LONG_EXPAND);
 1543              		.loc 6 258 0
 1544 00a6 0021     		movs	r1, #0
 1545 00a8 386B     		ldr	r0, [r7, #48]
 1546 00aa FFF7FEFF 		bl	lv_label_set_long_mode
 259:home_screen.c ****             lv_obj_align(offsetLabel2, offsetSlider, LV_ALIGN_OUT_TOP_LEFT, 0, 0);                 
 1547              		.loc 6 259 0
 1548 00ae 0023     		movs	r3, #0
 1549 00b0 0093     		str	r3, [sp]
 1550 00b2 0023     		movs	r3, #0
 1551 00b4 0922     		movs	r2, #9
 1552 00b6 796B     		ldr	r1, [r7, #52]
 1553 00b8 386B     		ldr	r0, [r7, #48]
 1554 00ba FFF7FEFF 		bl	lv_obj_align
 260:home_screen.c ****     
 261:home_screen.c ****             
 262:home_screen.c ****             
 263:home_screen.c ****     /* Second Slider: Trigger */
 264:home_screen.c ****     lv_obj_t * triggerSlider = lv_slider_create(lv_scr_act(), NULL);
 1555              		.loc 6 264 0
 1556 00be FFF7FEFF 		bl	lv_scr_act
 1557 00c2 0346     		mov	r3, r0
 1558 00c4 0021     		movs	r1, #0
 1559 00c6 1846     		mov	r0, r3
 1560 00c8 FFF7FEFF 		bl	lv_slider_create
 1561 00cc F862     		str	r0, [r7, #44]
 265:home_screen.c ****     lv_obj_set_pos(triggerSlider, 170, 290);                         /*Set its position*/
 1562              		.loc 6 265 0
 1563 00ce 4FF49172 		mov	r2, #290
 1564 00d2 AA21     		movs	r1, #170
 1565 00d4 F86A     		ldr	r0, [r7, #44]
 1566 00d6 FFF7FEFF 		bl	lv_obj_set_pos
 266:home_screen.c ****     lv_obj_set_size(triggerSlider, 130, 30);                        /*Set its size*/
 1567              		.loc 6 266 0
 1568 00da 1E22     		movs	r2, #30
 1569 00dc 8221     		movs	r1, #130
 1570 00de F86A     		ldr	r0, [r7, #44]
 1571 00e0 FFF7FEFF 		bl	lv_obj_set_size
 267:home_screen.c ****     lv_obj_set_event_cb(triggerSlider, trigger_slider_event_cb);
 1572              		.loc 6 267 0
 1573 00e4 9F49     		ldr	r1, .L91+16
 1574 00e6 F86A     		ldr	r0, [r7, #44]
 1575 00e8 FFF7FEFF 		bl	lv_obj_set_event_cb
 268:home_screen.c ****     lv_slider_set_range(triggerSlider, 375, 625);
 1576              		.loc 6 268 0
 1577 00ec 40F27122 		movw	r2, #625
 1578 00f0 40F27711 		movw	r1, #375
 1579 00f4 F86A     		ldr	r0, [r7, #44]
 1580 00f6 FFF7FEFF 		bl	lv_slider_set_range
 269:home_screen.c ****     lv_slider_set_value(triggerSlider, 500, LV_ANIM_ON);
 1581              		.loc 6 269 0
 1582 00fa 0122     		movs	r2, #1
 1583 00fc 4FF4FA71 		mov	r1, #500
 1584 0100 F86A     		ldr	r0, [r7, #44]
 1585 0102 FFF7FEFF 		bl	lv_slider_set_value
 270:home_screen.c ****             
 271:home_screen.c ****             /* Create a label below the slider */
ARM GAS  C:\Users\tmj32\AppData\Local\Temp\ccs01wAd.s 			page 51


 272:home_screen.c ****             triggerLabel = lv_label_create(lv_scr_act(), NULL);
 1586              		.loc 6 272 0
 1587 0106 FFF7FEFF 		bl	lv_scr_act
 1588 010a 0346     		mov	r3, r0
 1589 010c 0021     		movs	r1, #0
 1590 010e 1846     		mov	r0, r3
 1591 0110 FFF7FEFF 		bl	lv_label_create
 1592 0114 0246     		mov	r2, r0
 1593 0116 944B     		ldr	r3, .L91+20
 1594 0118 1A60     		str	r2, [r3]
 273:home_screen.c ****             lv_label_set_text(triggerLabel, "1450mV");
 1595              		.loc 6 273 0
 1596 011a 934B     		ldr	r3, .L91+20
 1597 011c 1B68     		ldr	r3, [r3]
 1598 011e 9349     		ldr	r1, .L91+24
 1599 0120 1846     		mov	r0, r3
 1600 0122 FFF7FEFF 		bl	lv_label_set_text
 274:home_screen.c ****             lv_obj_set_auto_realign(triggerLabel, true);
 1601              		.loc 6 274 0
 1602 0126 904B     		ldr	r3, .L91+20
 1603 0128 1B68     		ldr	r3, [r3]
 1604 012a 0121     		movs	r1, #1
 1605 012c 1846     		mov	r0, r3
 1606 012e FFF7FEFF 		bl	lv_obj_set_auto_realign
 275:home_screen.c ****             lv_obj_align(triggerLabel, triggerSlider, LV_ALIGN_OUT_TOP_RIGHT, 0, 0);
 1607              		.loc 6 275 0
 1608 0132 8D4B     		ldr	r3, .L91+20
 1609 0134 1868     		ldr	r0, [r3]
 1610 0136 0023     		movs	r3, #0
 1611 0138 0093     		str	r3, [sp]
 1612 013a 0023     		movs	r3, #0
 1613 013c 0B22     		movs	r2, #11
 1614 013e F96A     		ldr	r1, [r7, #44]
 1615 0140 FFF7FEFF 		bl	lv_obj_align
 276:home_screen.c ****             
 277:home_screen.c ****             /* Create a label above the slider */
 278:home_screen.c ****         	lv_obj_t* triggerLabel2 = lv_label_create(lv_scr_act(), NULL);
 1616              		.loc 6 278 0
 1617 0144 FFF7FEFF 		bl	lv_scr_act
 1618 0148 0346     		mov	r3, r0
 1619 014a 0021     		movs	r1, #0
 1620 014c 1846     		mov	r0, r3
 1621 014e FFF7FEFF 		bl	lv_label_create
 1622 0152 B862     		str	r0, [r7, #40]
 279:home_screen.c ****         	lv_obj_set_drag(triggerLabel2, false);
 1623              		.loc 6 279 0
 1624 0154 0021     		movs	r1, #0
 1625 0156 B86A     		ldr	r0, [r7, #40]
 1626 0158 FFF7FEFF 		bl	lv_obj_set_drag
 280:home_screen.c ****             lv_label_set_text(triggerLabel2, "Trigger: ");
 1627              		.loc 6 280 0
 1628 015c 8449     		ldr	r1, .L91+28
 1629 015e B86A     		ldr	r0, [r7, #40]
 1630 0160 FFF7FEFF 		bl	lv_label_set_text
 281:home_screen.c ****             lv_obj_align(triggerLabel2, triggerSlider, LV_ALIGN_OUT_TOP_LEFT, 0, 0); 
 1631              		.loc 6 281 0
 1632 0164 0023     		movs	r3, #0
ARM GAS  C:\Users\tmj32\AppData\Local\Temp\ccs01wAd.s 			page 52


 1633 0166 0093     		str	r3, [sp]
 1634 0168 0023     		movs	r3, #0
 1635 016a 0922     		movs	r2, #9
 1636 016c F96A     		ldr	r1, [r7, #44]
 1637 016e B86A     		ldr	r0, [r7, #40]
 1638 0170 FFF7FEFF 		bl	lv_obj_align
 282:home_screen.c **** 
 283:home_screen.c ****     
 284:home_screen.c ****             
 285:home_screen.c ****     /* Third Slider: Hori. Scale */
 286:home_screen.c ****     lv_obj_t * horiSlider = lv_slider_create(lv_scr_act(), NULL);
 1639              		.loc 6 286 0
 1640 0174 FFF7FEFF 		bl	lv_scr_act
 1641 0178 0346     		mov	r3, r0
 1642 017a 0021     		movs	r1, #0
 1643 017c 1846     		mov	r0, r3
 1644 017e FFF7FEFF 		bl	lv_slider_create
 1645 0182 7862     		str	r0, [r7, #36]
 287:home_screen.c ****     lv_obj_set_pos(horiSlider, 20, 365);                         /*Set its position*/
 1646              		.loc 6 287 0
 1647 0184 40F26D12 		movw	r2, #365
 1648 0188 1421     		movs	r1, #20
 1649 018a 786A     		ldr	r0, [r7, #36]
 1650 018c FFF7FEFF 		bl	lv_obj_set_pos
 288:home_screen.c ****     lv_obj_set_size(horiSlider, 130, 30);                        /*Set its size*/
 1651              		.loc 6 288 0
 1652 0190 1E22     		movs	r2, #30
 1653 0192 8221     		movs	r1, #130
 1654 0194 786A     		ldr	r0, [r7, #36]
 1655 0196 FFF7FEFF 		bl	lv_obj_set_size
 289:home_screen.c ****     lv_slider_set_value(horiSlider, 7, LV_ANIM_ON);
 1656              		.loc 6 289 0
 1657 019a 0122     		movs	r2, #1
 1658 019c 0721     		movs	r1, #7
 1659 019e 786A     		ldr	r0, [r7, #36]
 1660 01a0 FFF7FEFF 		bl	lv_slider_set_value
 290:home_screen.c ****     lv_obj_set_event_cb(horiSlider, hori_slider_event_cb);
 1661              		.loc 6 290 0
 1662 01a4 7349     		ldr	r1, .L91+32
 1663 01a6 786A     		ldr	r0, [r7, #36]
 1664 01a8 FFF7FEFF 		bl	lv_obj_set_event_cb
 291:home_screen.c ****     lv_slider_set_range(horiSlider, 5, 9);                      // 11 options for the 11 different 
 1665              		.loc 6 291 0
 1666 01ac 0922     		movs	r2, #9
 1667 01ae 0521     		movs	r1, #5
 1668 01b0 786A     		ldr	r0, [r7, #36]
 1669 01b2 FFF7FEFF 		bl	lv_slider_set_range
 292:home_screen.c ****     
 293:home_screen.c ****             /* Create a label below the slider */
 294:home_screen.c ****             horiLabel1 = lv_label_create(lv_scr_act(), NULL);
 1670              		.loc 6 294 0
 1671 01b6 FFF7FEFF 		bl	lv_scr_act
 1672 01ba 0346     		mov	r3, r0
 1673 01bc 0021     		movs	r1, #0
 1674 01be 1846     		mov	r0, r3
 1675 01c0 FFF7FEFF 		bl	lv_label_create
 1676 01c4 0246     		mov	r2, r0
ARM GAS  C:\Users\tmj32\AppData\Local\Temp\ccs01wAd.s 			page 53


 1677 01c6 6C4B     		ldr	r3, .L91+36
 1678 01c8 1A60     		str	r2, [r3]
 295:home_screen.c ****             lv_label_set_text(horiLabel1, "500mV");
 1679              		.loc 6 295 0
 1680 01ca 6B4B     		ldr	r3, .L91+36
 1681 01cc 1B68     		ldr	r3, [r3]
 1682 01ce 6B49     		ldr	r1, .L91+40
 1683 01d0 1846     		mov	r0, r3
 1684 01d2 FFF7FEFF 		bl	lv_label_set_text
 296:home_screen.c ****             lv_obj_set_auto_realign(horiLabel1, true);
 1685              		.loc 6 296 0
 1686 01d6 684B     		ldr	r3, .L91+36
 1687 01d8 1B68     		ldr	r3, [r3]
 1688 01da 0121     		movs	r1, #1
 1689 01dc 1846     		mov	r0, r3
 1690 01de FFF7FEFF 		bl	lv_obj_set_auto_realign
 297:home_screen.c ****             lv_obj_align(horiLabel1, horiSlider, LV_ALIGN_OUT_TOP_RIGHT, 0, 0);
 1691              		.loc 6 297 0
 1692 01e2 654B     		ldr	r3, .L91+36
 1693 01e4 1868     		ldr	r0, [r3]
 1694 01e6 0023     		movs	r3, #0
 1695 01e8 0093     		str	r3, [sp]
 1696 01ea 0023     		movs	r3, #0
 1697 01ec 0B22     		movs	r2, #11
 1698 01ee 796A     		ldr	r1, [r7, #36]
 1699 01f0 FFF7FEFF 		bl	lv_obj_align
 298:home_screen.c ****             
 299:home_screen.c ****             /* Create a label above the slider */
 300:home_screen.c ****         	lv_obj_t* horiLabel2 = lv_label_create(lv_scr_act(), NULL);
 1700              		.loc 6 300 0
 1701 01f4 FFF7FEFF 		bl	lv_scr_act
 1702 01f8 0346     		mov	r3, r0
 1703 01fa 0021     		movs	r1, #0
 1704 01fc 1846     		mov	r0, r3
 1705 01fe FFF7FEFF 		bl	lv_label_create
 1706 0202 3862     		str	r0, [r7, #32]
 301:home_screen.c ****         	lv_obj_set_drag(horiLabel2, false);
 1707              		.loc 6 301 0
 1708 0204 0021     		movs	r1, #0
 1709 0206 386A     		ldr	r0, [r7, #32]
 1710 0208 FFF7FEFF 		bl	lv_obj_set_drag
 302:home_screen.c ****             lv_label_set_text(horiLabel2, "H Scale: ");
 1711              		.loc 6 302 0
 1712 020c 5C49     		ldr	r1, .L91+44
 1713 020e 386A     		ldr	r0, [r7, #32]
 1714 0210 FFF7FEFF 		bl	lv_label_set_text
 303:home_screen.c ****             lv_obj_align(horiLabel2, horiSlider, LV_ALIGN_OUT_TOP_LEFT, 0, 0);
 1715              		.loc 6 303 0
 1716 0214 0023     		movs	r3, #0
 1717 0216 0093     		str	r3, [sp]
 1718 0218 0023     		movs	r3, #0
 1719 021a 0922     		movs	r2, #9
 1720 021c 796A     		ldr	r1, [r7, #36]
 1721 021e 386A     		ldr	r0, [r7, #32]
 1722 0220 FFF7FEFF 		bl	lv_obj_align
 304:home_screen.c ****     
 305:home_screen.c ****             
ARM GAS  C:\Users\tmj32\AppData\Local\Temp\ccs01wAd.s 			page 54


 306:home_screen.c ****             
 307:home_screen.c ****     /* Fourth Slider: Vert. Scale */
 308:home_screen.c ****     lv_obj_t * vertSlider = lv_slider_create(lv_scr_act(), NULL);
 1723              		.loc 6 308 0
 1724 0224 FFF7FEFF 		bl	lv_scr_act
 1725 0228 0346     		mov	r3, r0
 1726 022a 0021     		movs	r1, #0
 1727 022c 1846     		mov	r0, r3
 1728 022e FFF7FEFF 		bl	lv_slider_create
 1729 0232 F861     		str	r0, [r7, #28]
 309:home_screen.c ****     lv_obj_set_pos(vertSlider, 170, 365);                         /*Set its position*/
 1730              		.loc 6 309 0
 1731 0234 40F26D12 		movw	r2, #365
 1732 0238 AA21     		movs	r1, #170
 1733 023a F869     		ldr	r0, [r7, #28]
 1734 023c FFF7FEFF 		bl	lv_obj_set_pos
 310:home_screen.c ****     lv_obj_set_size(vertSlider, 130, 30);                        /*Set its size*/
 1735              		.loc 6 310 0
 1736 0240 1E22     		movs	r2, #30
 1737 0242 8221     		movs	r1, #130
 1738 0244 F869     		ldr	r0, [r7, #28]
 1739 0246 FFF7FEFF 		bl	lv_obj_set_size
 311:home_screen.c ****     lv_slider_set_value(vertSlider, 5, LV_ANIM_ON);
 1740              		.loc 6 311 0
 1741 024a 0122     		movs	r2, #1
 1742 024c 0521     		movs	r1, #5
 1743 024e F869     		ldr	r0, [r7, #28]
 1744 0250 FFF7FEFF 		bl	lv_slider_set_value
 312:home_screen.c ****     lv_obj_set_event_cb(vertSlider, verti_slider_event_cb);
 1745              		.loc 6 312 0
 1746 0254 4B49     		ldr	r1, .L91+48
 1747 0256 F869     		ldr	r0, [r7, #28]
 1748 0258 FFF7FEFF 		bl	lv_obj_set_event_cb
 313:home_screen.c ****     lv_slider_set_range(vertSlider, 3, 7);
 1749              		.loc 6 313 0
 1750 025c 0722     		movs	r2, #7
 1751 025e 0321     		movs	r1, #3
 1752 0260 F869     		ldr	r0, [r7, #28]
 1753 0262 FFF7FEFF 		bl	lv_slider_set_range
 314:home_screen.c **** 
 315:home_screen.c ****             /* Create a label below the slider */
 316:home_screen.c ****             vertLabel1 = lv_label_create(lv_scr_act(), NULL);
 1754              		.loc 6 316 0
 1755 0266 FFF7FEFF 		bl	lv_scr_act
 1756 026a 0346     		mov	r3, r0
 1757 026c 0021     		movs	r1, #0
 1758 026e 1846     		mov	r0, r3
 1759 0270 FFF7FEFF 		bl	lv_label_create
 1760 0274 0246     		mov	r2, r0
 1761 0276 444B     		ldr	r3, .L91+52
 1762 0278 1A60     		str	r2, [r3]
 317:home_screen.c ****             lv_label_set_text(vertLabel1, "500mV");
 1763              		.loc 6 317 0
 1764 027a 434B     		ldr	r3, .L91+52
 1765 027c 1B68     		ldr	r3, [r3]
 1766 027e 3F49     		ldr	r1, .L91+40
 1767 0280 1846     		mov	r0, r3
ARM GAS  C:\Users\tmj32\AppData\Local\Temp\ccs01wAd.s 			page 55


 1768 0282 FFF7FEFF 		bl	lv_label_set_text
 318:home_screen.c ****             lv_obj_set_auto_realign(vertLabel1, true);
 1769              		.loc 6 318 0
 1770 0286 404B     		ldr	r3, .L91+52
 1771 0288 1B68     		ldr	r3, [r3]
 1772 028a 0121     		movs	r1, #1
 1773 028c 1846     		mov	r0, r3
 1774 028e FFF7FEFF 		bl	lv_obj_set_auto_realign
 319:home_screen.c ****             lv_obj_align(vertLabel1, vertSlider, LV_ALIGN_OUT_TOP_RIGHT, 0, 0);
 1775              		.loc 6 319 0
 1776 0292 3D4B     		ldr	r3, .L91+52
 1777 0294 1868     		ldr	r0, [r3]
 1778 0296 0023     		movs	r3, #0
 1779 0298 0093     		str	r3, [sp]
 1780 029a 0023     		movs	r3, #0
 1781 029c 0B22     		movs	r2, #11
 1782 029e F969     		ldr	r1, [r7, #28]
 1783 02a0 FFF7FEFF 		bl	lv_obj_align
 320:home_screen.c ****             
 321:home_screen.c ****             /* Create a label above the slider */
 322:home_screen.c ****         	lv_obj_t* vertLabel2 = lv_label_create(lv_scr_act(), NULL);
 1784              		.loc 6 322 0
 1785 02a4 FFF7FEFF 		bl	lv_scr_act
 1786 02a8 0346     		mov	r3, r0
 1787 02aa 0021     		movs	r1, #0
 1788 02ac 1846     		mov	r0, r3
 1789 02ae FFF7FEFF 		bl	lv_label_create
 1790 02b2 B861     		str	r0, [r7, #24]
 323:home_screen.c ****         	lv_obj_set_drag(vertLabel2, false);
 1791              		.loc 6 323 0
 1792 02b4 0021     		movs	r1, #0
 1793 02b6 B869     		ldr	r0, [r7, #24]
 1794 02b8 FFF7FEFF 		bl	lv_obj_set_drag
 324:home_screen.c ****             lv_label_set_text(vertLabel2, "V Scale: ");
 1795              		.loc 6 324 0
 1796 02bc 3349     		ldr	r1, .L91+56
 1797 02be B869     		ldr	r0, [r7, #24]
 1798 02c0 FFF7FEFF 		bl	lv_label_set_text
 325:home_screen.c ****             lv_obj_align(vertLabel2, vertSlider, LV_ALIGN_OUT_TOP_LEFT, 0, 0);
 1799              		.loc 6 325 0
 1800 02c4 0023     		movs	r3, #0
 1801 02c6 0093     		str	r3, [sp]
 1802 02c8 0023     		movs	r3, #0
 1803 02ca 0922     		movs	r2, #9
 1804 02cc F969     		ldr	r1, [r7, #28]
 1805 02ce B869     		ldr	r0, [r7, #24]
 1806 02d0 FFF7FEFF 		bl	lv_obj_align
 326:home_screen.c ****     
 327:home_screen.c ****         
 328:home_screen.c ****             
 329:home_screen.c ****     /* Fifth Slider: Horizontal Window      Control Range of Points shown */
 330:home_screen.c ****     cm4.windowPos = 1024;
 1807              		.loc 6 330 0
 1808 02d4 2E4B     		ldr	r3, .L91+60
 1809 02d6 4FF48062 		mov	r2, #1024
 1810 02da DA60     		str	r2, [r3, #12]
 331:home_screen.c ****     lv_obj_t * windowSlider = lv_slider_create(lv_scr_act(), NULL);
ARM GAS  C:\Users\tmj32\AppData\Local\Temp\ccs01wAd.s 			page 56


 1811              		.loc 6 331 0
 1812 02dc FFF7FEFF 		bl	lv_scr_act
 1813 02e0 0346     		mov	r3, r0
 1814 02e2 0021     		movs	r1, #0
 1815 02e4 1846     		mov	r0, r3
 1816 02e6 FFF7FEFF 		bl	lv_slider_create
 1817 02ea 7861     		str	r0, [r7, #20]
 332:home_screen.c ****     lv_obj_set_pos(windowSlider, 20, 225);                         /*Set its position*/
 1818              		.loc 6 332 0
 1819 02ec E122     		movs	r2, #225
 1820 02ee 1421     		movs	r1, #20
 1821 02f0 7869     		ldr	r0, [r7, #20]
 1822 02f2 FFF7FEFF 		bl	lv_obj_set_pos
 333:home_screen.c ****     lv_obj_set_size(windowSlider, 280, 30);                        /*Set its size*/
 1823              		.loc 6 333 0
 1824 02f6 1E22     		movs	r2, #30
 1825 02f8 4FF48C71 		mov	r1, #280
 1826 02fc 7869     		ldr	r0, [r7, #20]
 1827 02fe FFF7FEFF 		bl	lv_obj_set_size
 334:home_screen.c ****     lv_obj_set_event_cb(windowSlider, window_slider_event_cb);
 1828              		.loc 6 334 0
 1829 0302 2449     		ldr	r1, .L91+64
 1830 0304 7869     		ldr	r0, [r7, #20]
 1831 0306 FFF7FEFF 		bl	lv_obj_set_event_cb
 335:home_screen.c ****     lv_slider_set_range(windowSlider, 0, 2048);        
 1832              		.loc 6 335 0
 1833 030a 4FF40062 		mov	r2, #2048
 1834 030e 0021     		movs	r1, #0
 1835 0310 7869     		ldr	r0, [r7, #20]
 1836 0312 FFF7FEFF 		bl	lv_slider_set_range
 336:home_screen.c ****     lv_slider_set_value(windowSlider, 1024, LV_ANIM_ON);
 1837              		.loc 6 336 0
 1838 0316 0122     		movs	r2, #1
 1839 0318 4FF48061 		mov	r1, #1024
 1840 031c 7869     		ldr	r0, [r7, #20]
 1841 031e FFF7FEFF 		bl	lv_slider_set_value
 337:home_screen.c ****     
 338:home_screen.c ****             
 339:home_screen.c ****     //Adding an on/off switch 
 340:home_screen.c ****     lv_obj_t * sw1 = lv_sw_create(lv_scr_act(), NULL);
 1842              		.loc 6 340 0
 1843 0322 FFF7FEFF 		bl	lv_scr_act
 1844 0326 0346     		mov	r3, r0
 1845 0328 0021     		movs	r1, #0
 1846 032a 1846     		mov	r0, r3
 1847 032c FFF7FEFF 		bl	lv_sw_create
 1848 0330 3861     		str	r0, [r7, #16]
 341:home_screen.c ****     lv_obj_align(sw1, NULL, LV_ALIGN_CENTER, 0, -50);
 1849              		.loc 6 341 0
 1850 0332 6FF03103 		mvn	r3, #49
 1851 0336 0093     		str	r3, [sp]
 1852 0338 0023     		movs	r3, #0
 1853 033a 0022     		movs	r2, #0
 1854 033c 0021     		movs	r1, #0
 1855 033e 3869     		ldr	r0, [r7, #16]
 1856 0340 FFF7FEFF 		bl	lv_obj_align
 342:home_screen.c ****     lv_obj_set_event_cb(sw1, sw_event_handler);
ARM GAS  C:\Users\tmj32\AppData\Local\Temp\ccs01wAd.s 			page 57


 1857              		.loc 6 342 0
 1858 0344 1449     		ldr	r1, .L91+68
 1859 0346 3869     		ldr	r0, [r7, #16]
 1860 0348 FFF7FEFF 		bl	lv_obj_set_event_cb
 343:home_screen.c ****     lv_obj_set_pos(sw1, 20, 430);                         /*Set its position*/
 1861              		.loc 6 343 0
 1862 034c 4FF4D772 		mov	r2, #430
 1863 0350 24E0     		b	.L92
 1864              	.L93:
 1865 0352 00BF     		.align	2
 1866              	.L91:
 1867 0354 00000000 		.word	offset_slider_event_cb
 1868 0358 00000000 		.word	offsetLabel
 1869 035c 4C000000 		.word	.LC10
 1870 0360 50000000 		.word	.LC11
 1871 0364 00000000 		.word	trigger_slider_event_cb
 1872 0368 04000000 		.word	triggerLabel
 1873 036c 58000000 		.word	.LC12
 1874 0370 60000000 		.word	.LC13
 1875 0374 00000000 		.word	hori_slider_event_cb
 1876 0378 08000000 		.word	horiLabel1
 1877 037c 30000000 		.word	.LC6
 1878 0380 6C000000 		.word	.LC14
 1879 0384 00000000 		.word	verti_slider_event_cb
 1880 0388 0C000000 		.word	vertLabel1
 1881 038c 78000000 		.word	.LC15
 1882 0390 00000000 		.word	cm4
 1883 0394 00000000 		.word	window_slider_event_cb
 1884 0398 00000000 		.word	sw_event_handler
 1885              	.L92:
 1886 039c 1421     		movs	r1, #20
 1887 039e 3869     		ldr	r0, [r7, #16]
 1888 03a0 FFF7FEFF 		bl	lv_obj_set_pos
 344:home_screen.c ****     lv_obj_set_size(sw1, 90, 30);               /*Set its size*/ 
 1889              		.loc 6 344 0
 1890 03a4 1E22     		movs	r2, #30
 1891 03a6 5A21     		movs	r1, #90
 1892 03a8 3869     		ldr	r0, [r7, #16]
 1893 03aa FFF7FEFF 		bl	lv_obj_set_size
 345:home_screen.c ****     
 346:home_screen.c ****     lv_obj_t * switchLabel = lv_label_create(lv_scr_act(), NULL);
 1894              		.loc 6 346 0
 1895 03ae FFF7FEFF 		bl	lv_scr_act
 1896 03b2 0346     		mov	r3, r0
 1897 03b4 0021     		movs	r1, #0
 1898 03b6 1846     		mov	r0, r3
 1899 03b8 FFF7FEFF 		bl	lv_label_create
 1900 03bc F860     		str	r0, [r7, #12]
 347:home_screen.c **** 	lv_obj_set_drag(switchLabel, false);
 1901              		.loc 6 347 0
 1902 03be 0021     		movs	r1, #0
 1903 03c0 F868     		ldr	r0, [r7, #12]
 1904 03c2 FFF7FEFF 		bl	lv_obj_set_drag
 348:home_screen.c ****     lv_label_set_text(switchLabel, "On\\Off");
 1905              		.loc 6 348 0
 1906 03c6 2449     		ldr	r1, .L94
 1907 03c8 F868     		ldr	r0, [r7, #12]
ARM GAS  C:\Users\tmj32\AppData\Local\Temp\ccs01wAd.s 			page 58


 1908 03ca FFF7FEFF 		bl	lv_label_set_text
 349:home_screen.c ****     //lv_obj_set_pos(switchLabel, 15, 445);
 350:home_screen.c ****     lv_obj_align(switchLabel, sw1, LV_ALIGN_OUT_TOP_MID, 0, 0);
 1909              		.loc 6 350 0
 1910 03ce 0023     		movs	r3, #0
 1911 03d0 0093     		str	r3, [sp]
 1912 03d2 0023     		movs	r3, #0
 1913 03d4 0A22     		movs	r2, #10
 1914 03d6 3969     		ldr	r1, [r7, #16]
 1915 03d8 F868     		ldr	r0, [r7, #12]
 1916 03da FFF7FEFF 		bl	lv_obj_align
 351:home_screen.c ****     
 352:home_screen.c ****     
 353:home_screen.c ****     
 354:home_screen.c ****     //Adding a drop down menu for the trigger slope
 355:home_screen.c ****     lv_obj_t * roller1 = lv_roller_create(lv_scr_act(),NULL);
 1917              		.loc 6 355 0
 1918 03de FFF7FEFF 		bl	lv_scr_act
 1919 03e2 0346     		mov	r3, r0
 1920 03e4 0021     		movs	r1, #0
 1921 03e6 1846     		mov	r0, r3
 1922 03e8 FFF7FEFF 		bl	lv_roller_create
 1923 03ec B860     		str	r0, [r7, #8]
 356:home_screen.c ****     lv_roller_set_options(roller1, "Rising\n"
 1924              		.loc 6 356 0
 1925 03ee 0122     		movs	r2, #1
 1926 03f0 1A49     		ldr	r1, .L94+4
 1927 03f2 B868     		ldr	r0, [r7, #8]
 1928 03f4 FFF7FEFF 		bl	lv_roller_set_options
 357:home_screen.c ****                                    "Falling\n"
 358:home_screen.c ****                                    "Threshold",
 359:home_screen.c ****                                    LV_ROLLER_MODE_INIFINITE);
 360:home_screen.c ****     lv_roller_set_visible_row_count(roller1, 1);
 1929              		.loc 6 360 0
 1930 03f8 0121     		movs	r1, #1
 1931 03fa B868     		ldr	r0, [r7, #8]
 1932 03fc FFF7FEFF 		bl	lv_roller_set_visible_row_count
 361:home_screen.c ****     lv_obj_set_pos(roller1, 200, 425);                         /*Set its position*/
 1933              		.loc 6 361 0
 1934 0400 40F2A912 		movw	r2, #425
 1935 0404 C821     		movs	r1, #200
 1936 0406 B868     		ldr	r0, [r7, #8]
 1937 0408 FFF7FEFF 		bl	lv_obj_set_pos
 362:home_screen.c ****     lv_obj_set_event_cb(roller1, roller1_event);
 1938              		.loc 6 362 0
 1939 040c 1449     		ldr	r1, .L94+8
 1940 040e B868     		ldr	r0, [r7, #8]
 1941 0410 FFF7FEFF 		bl	lv_obj_set_event_cb
 363:home_screen.c ****     
 364:home_screen.c ****     //Adding a drop down menu for the trigger type
 365:home_screen.c ****     lv_obj_t * roller2 = lv_roller_create(lv_scr_act(),NULL);
 1942              		.loc 6 365 0
 1943 0414 FFF7FEFF 		bl	lv_scr_act
 1944 0418 0346     		mov	r3, r0
 1945 041a 0021     		movs	r1, #0
 1946 041c 1846     		mov	r0, r3
 1947 041e FFF7FEFF 		bl	lv_roller_create
ARM GAS  C:\Users\tmj32\AppData\Local\Temp\ccs01wAd.s 			page 59


 1948 0422 7860     		str	r0, [r7, #4]
 366:home_screen.c ****     lv_roller_set_options(roller2, "Single\n"
 1949              		.loc 6 366 0
 1950 0424 0122     		movs	r2, #1
 1951 0426 0F49     		ldr	r1, .L94+12
 1952 0428 7868     		ldr	r0, [r7, #4]
 1953 042a FFF7FEFF 		bl	lv_roller_set_options
 367:home_screen.c ****                                    "Auto\n"
 368:home_screen.c ****                                    "Normal",
 369:home_screen.c ****                                    LV_ROLLER_MODE_INIFINITE);
 370:home_screen.c ****     lv_roller_set_visible_row_count(roller2, 1);
 1954              		.loc 6 370 0
 1955 042e 0121     		movs	r1, #1
 1956 0430 7868     		ldr	r0, [r7, #4]
 1957 0432 FFF7FEFF 		bl	lv_roller_set_visible_row_count
 371:home_screen.c ****     lv_obj_set_pos(roller2, 115, 425);                         /*Set its position*/
 1958              		.loc 6 371 0
 1959 0436 40F2A912 		movw	r2, #425
 1960 043a 7321     		movs	r1, #115
 1961 043c 7868     		ldr	r0, [r7, #4]
 1962 043e FFF7FEFF 		bl	lv_obj_set_pos
 372:home_screen.c ****     lv_obj_set_event_cb(roller2, roller2_event);
 1963              		.loc 6 372 0
 1964 0442 0949     		ldr	r1, .L94+16
 1965 0444 7868     		ldr	r0, [r7, #4]
 1966 0446 FFF7FEFF 		bl	lv_obj_set_event_cb
 373:home_screen.c ****     
 374:home_screen.c ****     
 375:home_screen.c ****     //Draw the ogriginal chart... should be empty or zeroes
 376:home_screen.c ****     chart_actions();
 1967              		.loc 6 376 0
 1968 044a FFF7FEFF 		bl	chart_actions
 377:home_screen.c **** }...
 1969              		.loc 6 377 0
 1970 044e 00BF     		nop
 1971 0450 3837     		adds	r7, r7, #56
 1972              		.cfi_def_cfa_offset 8
 1973 0452 BD46     		mov	sp, r7
 1974              		.cfi_def_cfa_register 13
 1975              		@ sp needed
 1976 0454 80BD     		pop	{r7, pc}
 1977              	.L95:
 1978 0456 00BF     		.align	2
 1979              	.L94:
 1980 0458 84000000 		.word	.LC16
 1981 045c 8C000000 		.word	.LC17
 1982 0460 00000000 		.word	roller1_event
 1983 0464 A8000000 		.word	.LC18
 1984 0468 00000000 		.word	roller2_event
 1985              		.cfi_endproc
 1986              	.LFE726:
 1987              		.size	home_screen, .-home_screen
 1988              		.bss
 1989              		.align	2
 1990              	chart1.20844:
 1991 0014 00000000 		.space	4
 1992              		.align	2
ARM GAS  C:\Users\tmj32\AppData\Local\Temp\ccs01wAd.s 			page 60


 1993              	buf.20885:
 1994 0018 00000000 		.space	4
 1995              		.align	2
 1996              	buf.20890:
 1997 001c 00000000 		.space	4
 1998              		.align	2
 1999              	buf.20895:
 2000 0020 00000000 		.space	10
 2000      00000000 
 2000      0000
 2001 002a 0000     		.align	2
 2002              	buf.20907:
 2003 002c 00000000 		.space	10
 2003      00000000 
 2003      0000
 2004              		.text
 2005              	.Letext0:
 2006              		.file 7 "c:\\program files (x86)\\cypress\\psoc creator\\4.3\\psoc creator\\import\\gnu\\arm\\5.4.
 2007              		.file 8 "c:\\program files (x86)\\cypress\\psoc creator\\4.3\\psoc creator\\import\\gnu\\arm\\5.4.
 2008              		.file 9 "Generated_Source\\PSoC6\\pdl\\drivers/peripheral/device/cy_device.h"
 2009              		.file 10 "Generated_Source\\PSoC6\\pdl\\drivers/peripheral/scb/cy_scb_i2c.h"
 2010              		.file 11 "Generated_Source\\PSoC6\\pdl\\drivers/peripheral/scb/cy_scb_spi.h"
 2011              		.file 12 "Generated_Source\\PSoC6\\pdl\\drivers/peripheral/tcpwm/cy_tcpwm_counter.h"
 2012              		.file 13 "globalStruct.h"
 2013              		.file 14 "..\\..\\..\\lvgl\\version_6.1.2\\lvgl/src/lv_misc/../../../lv_conf.h"
 2014              		.file 15 "..\\..\\..\\lvgl\\version_6.1.2\\lvgl/src/lv_misc/lv_types.h"
 2015              		.file 16 "..\\..\\..\\lvgl\\version_6.1.2\\lvgl/src/lv_misc/lv_ll.h"
 2016              		.file 17 "..\\..\\..\\lvgl\\version_6.1.2\\lvgl/src/lv_hal/../lv_misc/lv_area.h"
 2017              		.file 18 "..\\..\\..\\lvgl\\version_6.1.2\\lvgl/src/lv_core/lv_obj.h"
 2018              		.file 19 "..\\..\\..\\lvgl\\version_6.1.2\\lvgl/src/lv_core/../lv_font/lv_font.h"
 2019              		.file 20 "..\\..\\..\\lvgl\\version_6.1.2\\lvgl/src/lv_core/../lv_misc/lv_anim.h"
 2020              		.file 21 "..\\..\\..\\lvgl\\version_6.1.2\\lvgl/src/lv_core/lv_style.h"
 2021              		.file 22 "..\\..\\..\\lvgl\\version_6.1.2\\lvgl/src/lv_core/../lv_misc/lv_bidi.h"
 2022              		.file 23 "..\\..\\..\\lvgl\\version_6.1.2\\lvgl/src/lv_objx/lv_btn.h"
 2023              		.file 24 "..\\..\\..\\lvgl\\version_6.1.2\\lvgl/src/lv_objx/lv_label.h"
 2024              		.file 25 "..\\..\\..\\lvgl\\version_6.1.2\\lvgl/src/lv_objx/lv_chart.h"
 2025              		.file 26 "Generated_Source\\PSoC6\\pdl\\cmsis/include/core_cm4.h"
 2026              		.file 27 "Generated_Source\\PSoC6/DISP_TICK_TIMER.h"
 2027              		.file 28 "Generated_Source\\PSoC6/I2C_MASTER.h"
 2028              		.file 29 "Generated_Source\\PSoC6/SPIM.h"
 2029              		.section	.debug_info,"",%progbits
 2030              	.Ldebug_info0:
 2031 0000 F8180000 		.4byte	0x18f8
 2032 0004 0400     		.2byte	0x4
 2033 0006 00000000 		.4byte	.Ldebug_abbrev0
 2034 000a 04       		.byte	0x4
 2035 000b 01       		.uleb128 0x1
 2036 000c 31160000 		.4byte	.LASF407
 2037 0010 0C       		.byte	0xc
 2038 0011 D6120000 		.4byte	.LASF408
 2039 0015 2E040000 		.4byte	.LASF409
 2040 0019 00000000 		.4byte	.Ldebug_ranges0+0
 2041 001d 00000000 		.4byte	0
 2042 0021 00000000 		.4byte	.Ldebug_line0
 2043 0025 02       		.uleb128 0x2
 2044 0026 E5140000 		.4byte	.LASF0
 2045 002a 07       		.byte	0x7
ARM GAS  C:\Users\tmj32\AppData\Local\Temp\ccs01wAd.s 			page 61


 2046 002b 1B       		.byte	0x1b
 2047 002c 30000000 		.4byte	0x30
 2048 0030 03       		.uleb128 0x3
 2049 0031 01       		.byte	0x1
 2050 0032 06       		.byte	0x6
 2051 0033 73140000 		.4byte	.LASF2
 2052 0037 02       		.uleb128 0x2
 2053 0038 7D110000 		.4byte	.LASF1
 2054 003c 07       		.byte	0x7
 2055 003d 1D       		.byte	0x1d
 2056 003e 42000000 		.4byte	0x42
 2057 0042 03       		.uleb128 0x3
 2058 0043 01       		.byte	0x1
 2059 0044 08       		.byte	0x8
 2060 0045 F6120000 		.4byte	.LASF3
 2061 0049 02       		.uleb128 0x2
 2062 004a 250C0000 		.4byte	.LASF4
 2063 004e 07       		.byte	0x7
 2064 004f 29       		.byte	0x29
 2065 0050 54000000 		.4byte	0x54
 2066 0054 03       		.uleb128 0x3
 2067 0055 02       		.byte	0x2
 2068 0056 05       		.byte	0x5
 2069 0057 EA0F0000 		.4byte	.LASF5
 2070 005b 02       		.uleb128 0x2
 2071 005c 1B090000 		.4byte	.LASF6
 2072 0060 07       		.byte	0x7
 2073 0061 2B       		.byte	0x2b
 2074 0062 66000000 		.4byte	0x66
 2075 0066 03       		.uleb128 0x3
 2076 0067 02       		.byte	0x2
 2077 0068 07       		.byte	0x7
 2078 0069 550E0000 		.4byte	.LASF7
 2079 006d 02       		.uleb128 0x2
 2080 006e 06020000 		.4byte	.LASF8
 2081 0072 07       		.byte	0x7
 2082 0073 3F       		.byte	0x3f
 2083 0074 78000000 		.4byte	0x78
 2084 0078 03       		.uleb128 0x3
 2085 0079 04       		.byte	0x4
 2086 007a 05       		.byte	0x5
 2087 007b 05000000 		.4byte	.LASF9
 2088 007f 02       		.uleb128 0x2
 2089 0080 04130000 		.4byte	.LASF10
 2090 0084 07       		.byte	0x7
 2091 0085 41       		.byte	0x41
 2092 0086 8A000000 		.4byte	0x8a
 2093 008a 03       		.uleb128 0x3
 2094 008b 04       		.byte	0x4
 2095 008c 07       		.byte	0x7
 2096 008d 43120000 		.4byte	.LASF11
 2097 0091 03       		.uleb128 0x3
 2098 0092 08       		.byte	0x8
 2099 0093 05       		.byte	0x5
 2100 0094 4A0B0000 		.4byte	.LASF12
 2101 0098 03       		.uleb128 0x3
 2102 0099 08       		.byte	0x8
ARM GAS  C:\Users\tmj32\AppData\Local\Temp\ccs01wAd.s 			page 62


 2103 009a 07       		.byte	0x7
 2104 009b 03060000 		.4byte	.LASF13
 2105 009f 04       		.uleb128 0x4
 2106 00a0 04       		.byte	0x4
 2107 00a1 05       		.byte	0x5
 2108 00a2 696E7400 		.ascii	"int\000"
 2109 00a6 03       		.uleb128 0x3
 2110 00a7 04       		.byte	0x4
 2111 00a8 07       		.byte	0x7
 2112 00a9 9D010000 		.4byte	.LASF14
 2113 00ad 03       		.uleb128 0x3
 2114 00ae 08       		.byte	0x8
 2115 00af 04       		.byte	0x4
 2116 00b0 680E0000 		.4byte	.LASF15
 2117 00b4 05       		.uleb128 0x5
 2118 00b5 04       		.byte	0x4
 2119 00b6 03       		.uleb128 0x3
 2120 00b7 04       		.byte	0x4
 2121 00b8 07       		.byte	0x7
 2122 00b9 720F0000 		.4byte	.LASF16
 2123 00bd 06       		.uleb128 0x6
 2124 00be 04       		.byte	0x4
 2125 00bf C3000000 		.4byte	0xc3
 2126 00c3 03       		.uleb128 0x3
 2127 00c4 01       		.byte	0x1
 2128 00c5 08       		.byte	0x8
 2129 00c6 80090000 		.4byte	.LASF17
 2130 00ca 02       		.uleb128 0x2
 2131 00cb 16050000 		.4byte	.LASF18
 2132 00cf 08       		.byte	0x8
 2133 00d0 14       		.byte	0x14
 2134 00d1 25000000 		.4byte	0x25
 2135 00d5 02       		.uleb128 0x2
 2136 00d6 920A0000 		.4byte	.LASF19
 2137 00da 08       		.byte	0x8
 2138 00db 18       		.byte	0x18
 2139 00dc 37000000 		.4byte	0x37
 2140 00e0 02       		.uleb128 0x2
 2141 00e1 CC050000 		.4byte	.LASF20
 2142 00e5 08       		.byte	0x8
 2143 00e6 20       		.byte	0x20
 2144 00e7 49000000 		.4byte	0x49
 2145 00eb 02       		.uleb128 0x2
 2146 00ec 740E0000 		.4byte	.LASF21
 2147 00f0 08       		.byte	0x8
 2148 00f1 24       		.byte	0x24
 2149 00f2 5B000000 		.4byte	0x5b
 2150 00f6 02       		.uleb128 0x2
 2151 00f7 7B060000 		.4byte	.LASF22
 2152 00fb 08       		.byte	0x8
 2153 00fc 2C       		.byte	0x2c
 2154 00fd 6D000000 		.4byte	0x6d
 2155 0101 02       		.uleb128 0x2
 2156 0102 0D050000 		.4byte	.LASF23
 2157 0106 08       		.byte	0x8
 2158 0107 30       		.byte	0x30
 2159 0108 7F000000 		.4byte	0x7f
ARM GAS  C:\Users\tmj32\AppData\Local\Temp\ccs01wAd.s 			page 63


 2160 010c 07       		.uleb128 0x7
 2161 010d 01010000 		.4byte	0x101
 2162 0111 08       		.uleb128 0x8
 2163 0112 B8       		.byte	0xb8
 2164 0113 09       		.byte	0x9
 2165 0114 34       		.byte	0x34
 2166 0115 22050000 		.4byte	0x522
 2167 0119 09       		.uleb128 0x9
 2168 011a 39020000 		.4byte	.LASF24
 2169 011e 09       		.byte	0x9
 2170 011f 37       		.byte	0x37
 2171 0120 01010000 		.4byte	0x101
 2172 0124 00       		.byte	0
 2173 0125 09       		.uleb128 0x9
 2174 0126 DF130000 		.4byte	.LASF25
 2175 012a 09       		.byte	0x9
 2176 012b 38       		.byte	0x38
 2177 012c 01010000 		.4byte	0x101
 2178 0130 04       		.byte	0x4
 2179 0131 09       		.uleb128 0x9
 2180 0132 21010000 		.4byte	.LASF26
 2181 0136 09       		.byte	0x9
 2182 0137 39       		.byte	0x39
 2183 0138 01010000 		.4byte	0x101
 2184 013c 08       		.byte	0x8
 2185 013d 09       		.uleb128 0x9
 2186 013e 02010000 		.4byte	.LASF27
 2187 0142 09       		.byte	0x9
 2188 0143 3A       		.byte	0x3a
 2189 0144 01010000 		.4byte	0x101
 2190 0148 0C       		.byte	0xc
 2191 0149 09       		.uleb128 0x9
 2192 014a 7D0E0000 		.4byte	.LASF28
 2193 014e 09       		.byte	0x9
 2194 014f 3B       		.byte	0x3b
 2195 0150 01010000 		.4byte	0x101
 2196 0154 10       		.byte	0x10
 2197 0155 09       		.uleb128 0x9
 2198 0156 380C0000 		.4byte	.LASF29
 2199 015a 09       		.byte	0x9
 2200 015b 3C       		.byte	0x3c
 2201 015c 01010000 		.4byte	0x101
 2202 0160 14       		.byte	0x14
 2203 0161 09       		.uleb128 0x9
 2204 0162 7B070000 		.4byte	.LASF30
 2205 0166 09       		.byte	0x9
 2206 0167 3D       		.byte	0x3d
 2207 0168 01010000 		.4byte	0x101
 2208 016c 18       		.byte	0x18
 2209 016d 09       		.uleb128 0x9
 2210 016e C00A0000 		.4byte	.LASF31
 2211 0172 09       		.byte	0x9
 2212 0173 3E       		.byte	0x3e
 2213 0174 01010000 		.4byte	0x101
 2214 0178 1C       		.byte	0x1c
 2215 0179 09       		.uleb128 0x9
 2216 017a 26070000 		.4byte	.LASF32
ARM GAS  C:\Users\tmj32\AppData\Local\Temp\ccs01wAd.s 			page 64


 2217 017e 09       		.byte	0x9
 2218 017f 3F       		.byte	0x3f
 2219 0180 01010000 		.4byte	0x101
 2220 0184 20       		.byte	0x20
 2221 0185 09       		.uleb128 0x9
 2222 0186 7E0B0000 		.4byte	.LASF33
 2223 018a 09       		.byte	0x9
 2224 018b 40       		.byte	0x40
 2225 018c 01010000 		.4byte	0x101
 2226 0190 24       		.byte	0x24
 2227 0191 09       		.uleb128 0x9
 2228 0192 50170000 		.4byte	.LASF34
 2229 0196 09       		.byte	0x9
 2230 0197 43       		.byte	0x43
 2231 0198 D5000000 		.4byte	0xd5
 2232 019c 28       		.byte	0x28
 2233 019d 09       		.uleb128 0x9
 2234 019e 44100000 		.4byte	.LASF35
 2235 01a2 09       		.byte	0x9
 2236 01a3 44       		.byte	0x44
 2237 01a4 D5000000 		.4byte	0xd5
 2238 01a8 29       		.byte	0x29
 2239 01a9 09       		.uleb128 0x9
 2240 01aa EC120000 		.4byte	.LASF36
 2241 01ae 09       		.byte	0x9
 2242 01af 45       		.byte	0x45
 2243 01b0 D5000000 		.4byte	0xd5
 2244 01b4 2A       		.byte	0x2a
 2245 01b5 09       		.uleb128 0x9
 2246 01b6 9A100000 		.4byte	.LASF37
 2247 01ba 09       		.byte	0x9
 2248 01bb 46       		.byte	0x46
 2249 01bc D5000000 		.4byte	0xd5
 2250 01c0 2B       		.byte	0x2b
 2251 01c1 09       		.uleb128 0x9
 2252 01c2 8E100000 		.4byte	.LASF38
 2253 01c6 09       		.byte	0x9
 2254 01c7 47       		.byte	0x47
 2255 01c8 D5000000 		.4byte	0xd5
 2256 01cc 2C       		.byte	0x2c
 2257 01cd 09       		.uleb128 0x9
 2258 01ce 2C120000 		.4byte	.LASF39
 2259 01d2 09       		.byte	0x9
 2260 01d3 48       		.byte	0x48
 2261 01d4 D5000000 		.4byte	0xd5
 2262 01d8 2D       		.byte	0x2d
 2263 01d9 09       		.uleb128 0x9
 2264 01da 060F0000 		.4byte	.LASF40
 2265 01de 09       		.byte	0x9
 2266 01df 49       		.byte	0x49
 2267 01e0 D5000000 		.4byte	0xd5
 2268 01e4 2E       		.byte	0x2e
 2269 01e5 09       		.uleb128 0x9
 2270 01e6 79020000 		.4byte	.LASF41
 2271 01ea 09       		.byte	0x9
 2272 01eb 4A       		.byte	0x4a
 2273 01ec D5000000 		.4byte	0xd5
ARM GAS  C:\Users\tmj32\AppData\Local\Temp\ccs01wAd.s 			page 65


 2274 01f0 2F       		.byte	0x2f
 2275 01f1 09       		.uleb128 0x9
 2276 01f2 D00D0000 		.4byte	.LASF42
 2277 01f6 09       		.byte	0x9
 2278 01f7 4B       		.byte	0x4b
 2279 01f8 D5000000 		.4byte	0xd5
 2280 01fc 30       		.byte	0x30
 2281 01fd 09       		.uleb128 0x9
 2282 01fe 1B0D0000 		.4byte	.LASF43
 2283 0202 09       		.byte	0x9
 2284 0203 4E       		.byte	0x4e
 2285 0204 D5000000 		.4byte	0xd5
 2286 0208 31       		.byte	0x31
 2287 0209 09       		.uleb128 0x9
 2288 020a 98140000 		.4byte	.LASF44
 2289 020e 09       		.byte	0x9
 2290 020f 4F       		.byte	0x4f
 2291 0210 D5000000 		.4byte	0xd5
 2292 0214 32       		.byte	0x32
 2293 0215 09       		.uleb128 0x9
 2294 0216 AF150000 		.4byte	.LASF45
 2295 021a 09       		.byte	0x9
 2296 021b 50       		.byte	0x50
 2297 021c D5000000 		.4byte	0xd5
 2298 0220 33       		.byte	0x33
 2299 0221 09       		.uleb128 0x9
 2300 0222 3E090000 		.4byte	.LASF46
 2301 0226 09       		.byte	0x9
 2302 0227 51       		.byte	0x51
 2303 0228 D5000000 		.4byte	0xd5
 2304 022c 34       		.byte	0x34
 2305 022d 09       		.uleb128 0x9
 2306 022e 66140000 		.4byte	.LASF47
 2307 0232 09       		.byte	0x9
 2308 0233 52       		.byte	0x52
 2309 0234 E0000000 		.4byte	0xe0
 2310 0238 36       		.byte	0x36
 2311 0239 09       		.uleb128 0x9
 2312 023a 49030000 		.4byte	.LASF48
 2313 023e 09       		.byte	0x9
 2314 023f 53       		.byte	0x53
 2315 0240 E0000000 		.4byte	0xe0
 2316 0244 38       		.byte	0x38
 2317 0245 09       		.uleb128 0x9
 2318 0246 760C0000 		.4byte	.LASF49
 2319 024a 09       		.byte	0x9
 2320 024b 54       		.byte	0x54
 2321 024c E0000000 		.4byte	0xe0
 2322 0250 3A       		.byte	0x3a
 2323 0251 09       		.uleb128 0x9
 2324 0252 10020000 		.4byte	.LASF50
 2325 0256 09       		.byte	0x9
 2326 0257 55       		.byte	0x55
 2327 0258 D5000000 		.4byte	0xd5
 2328 025c 3C       		.byte	0x3c
 2329 025d 09       		.uleb128 0x9
 2330 025e 52070000 		.4byte	.LASF51
ARM GAS  C:\Users\tmj32\AppData\Local\Temp\ccs01wAd.s 			page 66


 2331 0262 09       		.byte	0x9
 2332 0263 56       		.byte	0x56
 2333 0264 D5000000 		.4byte	0xd5
 2334 0268 3D       		.byte	0x3d
 2335 0269 09       		.uleb128 0x9
 2336 026a 5C060000 		.4byte	.LASF52
 2337 026e 09       		.byte	0x9
 2338 026f 57       		.byte	0x57
 2339 0270 D5000000 		.4byte	0xd5
 2340 0274 3E       		.byte	0x3e
 2341 0275 09       		.uleb128 0x9
 2342 0276 DF000000 		.4byte	.LASF53
 2343 027a 09       		.byte	0x9
 2344 027b 58       		.byte	0x58
 2345 027c D5000000 		.4byte	0xd5
 2346 0280 3F       		.byte	0x3f
 2347 0281 09       		.uleb128 0x9
 2348 0282 C6010000 		.4byte	.LASF54
 2349 0286 09       		.byte	0x9
 2350 0287 59       		.byte	0x59
 2351 0288 D5000000 		.4byte	0xd5
 2352 028c 40       		.byte	0x40
 2353 028d 09       		.uleb128 0x9
 2354 028e 620D0000 		.4byte	.LASF55
 2355 0292 09       		.byte	0x9
 2356 0293 5A       		.byte	0x5a
 2357 0294 D5000000 		.4byte	0xd5
 2358 0298 41       		.byte	0x41
 2359 0299 09       		.uleb128 0x9
 2360 029a 98050000 		.4byte	.LASF56
 2361 029e 09       		.byte	0x9
 2362 029f 5B       		.byte	0x5b
 2363 02a0 D5000000 		.4byte	0xd5
 2364 02a4 42       		.byte	0x42
 2365 02a5 09       		.uleb128 0x9
 2366 02a6 EB080000 		.4byte	.LASF57
 2367 02aa 09       		.byte	0x9
 2368 02ab 5C       		.byte	0x5c
 2369 02ac D5000000 		.4byte	0xd5
 2370 02b0 43       		.byte	0x43
 2371 02b1 09       		.uleb128 0x9
 2372 02b2 D4090000 		.4byte	.LASF58
 2373 02b6 09       		.byte	0x9
 2374 02b7 5D       		.byte	0x5d
 2375 02b8 D5000000 		.4byte	0xd5
 2376 02bc 44       		.byte	0x44
 2377 02bd 09       		.uleb128 0x9
 2378 02be A8100000 		.4byte	.LASF59
 2379 02c2 09       		.byte	0x9
 2380 02c3 5E       		.byte	0x5e
 2381 02c4 01010000 		.4byte	0x101
 2382 02c8 48       		.byte	0x48
 2383 02c9 09       		.uleb128 0x9
 2384 02ca 10030000 		.4byte	.LASF60
 2385 02ce 09       		.byte	0x9
 2386 02cf 5F       		.byte	0x5f
 2387 02d0 01010000 		.4byte	0x101
ARM GAS  C:\Users\tmj32\AppData\Local\Temp\ccs01wAd.s 			page 67


 2388 02d4 4C       		.byte	0x4c
 2389 02d5 09       		.uleb128 0x9
 2390 02d6 10140000 		.4byte	.LASF61
 2391 02da 09       		.byte	0x9
 2392 02db 60       		.byte	0x60
 2393 02dc D5000000 		.4byte	0xd5
 2394 02e0 50       		.byte	0x50
 2395 02e1 09       		.uleb128 0x9
 2396 02e2 AB070000 		.4byte	.LASF62
 2397 02e6 09       		.byte	0x9
 2398 02e7 61       		.byte	0x61
 2399 02e8 D5000000 		.4byte	0xd5
 2400 02ec 51       		.byte	0x51
 2401 02ed 09       		.uleb128 0x9
 2402 02ee C60B0000 		.4byte	.LASF63
 2403 02f2 09       		.byte	0x9
 2404 02f3 62       		.byte	0x62
 2405 02f4 D5000000 		.4byte	0xd5
 2406 02f8 52       		.byte	0x52
 2407 02f9 09       		.uleb128 0x9
 2408 02fa 080E0000 		.4byte	.LASF64
 2409 02fe 09       		.byte	0x9
 2410 02ff 63       		.byte	0x63
 2411 0300 D5000000 		.4byte	0xd5
 2412 0304 53       		.byte	0x53
 2413 0305 09       		.uleb128 0x9
 2414 0306 8A130000 		.4byte	.LASF65
 2415 030a 09       		.byte	0x9
 2416 030b 64       		.byte	0x64
 2417 030c D5000000 		.4byte	0xd5
 2418 0310 54       		.byte	0x54
 2419 0311 09       		.uleb128 0x9
 2420 0312 34080000 		.4byte	.LASF66
 2421 0316 09       		.byte	0x9
 2422 0317 65       		.byte	0x65
 2423 0318 D5000000 		.4byte	0xd5
 2424 031c 55       		.byte	0x55
 2425 031d 09       		.uleb128 0x9
 2426 031e 4C140000 		.4byte	.LASF67
 2427 0322 09       		.byte	0x9
 2428 0323 66       		.byte	0x66
 2429 0324 D5000000 		.4byte	0xd5
 2430 0328 56       		.byte	0x56
 2431 0329 09       		.uleb128 0x9
 2432 032a 190F0000 		.4byte	.LASF68
 2433 032e 09       		.byte	0x9
 2434 032f 67       		.byte	0x67
 2435 0330 D5000000 		.4byte	0xd5
 2436 0334 57       		.byte	0x57
 2437 0335 09       		.uleb128 0x9
 2438 0336 3E070000 		.4byte	.LASF69
 2439 033a 09       		.byte	0x9
 2440 033b 68       		.byte	0x68
 2441 033c D5000000 		.4byte	0xd5
 2442 0340 58       		.byte	0x58
 2443 0341 09       		.uleb128 0x9
 2444 0342 DE150000 		.4byte	.LASF70
ARM GAS  C:\Users\tmj32\AppData\Local\Temp\ccs01wAd.s 			page 68


 2445 0346 09       		.byte	0x9
 2446 0347 69       		.byte	0x69
 2447 0348 D5000000 		.4byte	0xd5
 2448 034c 59       		.byte	0x59
 2449 034d 09       		.uleb128 0x9
 2450 034e 8D140000 		.4byte	.LASF71
 2451 0352 09       		.byte	0x9
 2452 0353 6E       		.byte	0x6e
 2453 0354 EB000000 		.4byte	0xeb
 2454 0358 5A       		.byte	0x5a
 2455 0359 09       		.uleb128 0x9
 2456 035a 70010000 		.4byte	.LASF72
 2457 035e 09       		.byte	0x9
 2458 035f 6F       		.byte	0x6f
 2459 0360 EB000000 		.4byte	0xeb
 2460 0364 5C       		.byte	0x5c
 2461 0365 09       		.uleb128 0x9
 2462 0366 EC010000 		.4byte	.LASF73
 2463 036a 09       		.byte	0x9
 2464 036b 70       		.byte	0x70
 2465 036c D5000000 		.4byte	0xd5
 2466 0370 5E       		.byte	0x5e
 2467 0371 09       		.uleb128 0x9
 2468 0372 C2140000 		.4byte	.LASF74
 2469 0376 09       		.byte	0x9
 2470 0377 71       		.byte	0x71
 2471 0378 D5000000 		.4byte	0xd5
 2472 037c 5F       		.byte	0x5f
 2473 037d 09       		.uleb128 0x9
 2474 037e 0A090000 		.4byte	.LASF75
 2475 0382 09       		.byte	0x9
 2476 0383 72       		.byte	0x72
 2477 0384 D5000000 		.4byte	0xd5
 2478 0388 60       		.byte	0x60
 2479 0389 09       		.uleb128 0x9
 2480 038a 680A0000 		.4byte	.LASF76
 2481 038e 09       		.byte	0x9
 2482 038f 73       		.byte	0x73
 2483 0390 01010000 		.4byte	0x101
 2484 0394 64       		.byte	0x64
 2485 0395 09       		.uleb128 0x9
 2486 0396 2D0F0000 		.4byte	.LASF77
 2487 039a 09       		.byte	0x9
 2488 039b 76       		.byte	0x76
 2489 039c EB000000 		.4byte	0xeb
 2490 03a0 68       		.byte	0x68
 2491 03a1 09       		.uleb128 0x9
 2492 03a2 8E0E0000 		.4byte	.LASF78
 2493 03a6 09       		.byte	0x9
 2494 03a7 77       		.byte	0x77
 2495 03a8 EB000000 		.4byte	0xeb
 2496 03ac 6A       		.byte	0x6a
 2497 03ad 09       		.uleb128 0x9
 2498 03ae 670C0000 		.4byte	.LASF79
 2499 03b2 09       		.byte	0x9
 2500 03b3 78       		.byte	0x78
 2501 03b4 EB000000 		.4byte	0xeb
ARM GAS  C:\Users\tmj32\AppData\Local\Temp\ccs01wAd.s 			page 69


 2502 03b8 6C       		.byte	0x6c
 2503 03b9 09       		.uleb128 0x9
 2504 03ba 03030000 		.4byte	.LASF80
 2505 03be 09       		.byte	0x9
 2506 03bf 79       		.byte	0x79
 2507 03c0 EB000000 		.4byte	0xeb
 2508 03c4 6E       		.byte	0x6e
 2509 03c5 09       		.uleb128 0x9
 2510 03c6 C90A0000 		.4byte	.LASF81
 2511 03ca 09       		.byte	0x9
 2512 03cb 7B       		.byte	0x7b
 2513 03cc D5000000 		.4byte	0xd5
 2514 03d0 70       		.byte	0x70
 2515 03d1 09       		.uleb128 0x9
 2516 03d2 BB030000 		.4byte	.LASF82
 2517 03d6 09       		.byte	0x9
 2518 03d7 7C       		.byte	0x7c
 2519 03d8 D5000000 		.4byte	0xd5
 2520 03dc 71       		.byte	0x71
 2521 03dd 09       		.uleb128 0x9
 2522 03de B1060000 		.4byte	.LASF83
 2523 03e2 09       		.byte	0x9
 2524 03e3 7D       		.byte	0x7d
 2525 03e4 D5000000 		.4byte	0xd5
 2526 03e8 72       		.byte	0x72
 2527 03e9 09       		.uleb128 0x9
 2528 03ea A8090000 		.4byte	.LASF84
 2529 03ee 09       		.byte	0x9
 2530 03ef 7E       		.byte	0x7e
 2531 03f0 D5000000 		.4byte	0xd5
 2532 03f4 73       		.byte	0x73
 2533 03f5 09       		.uleb128 0x9
 2534 03f6 B20F0000 		.4byte	.LASF85
 2535 03fa 09       		.byte	0x9
 2536 03fb 80       		.byte	0x80
 2537 03fc EB000000 		.4byte	0xeb
 2538 0400 74       		.byte	0x74
 2539 0401 09       		.uleb128 0x9
 2540 0402 F40F0000 		.4byte	.LASF86
 2541 0406 09       		.byte	0x9
 2542 0407 81       		.byte	0x81
 2543 0408 EB000000 		.4byte	0xeb
 2544 040c 76       		.byte	0x76
 2545 040d 09       		.uleb128 0x9
 2546 040e 9A150000 		.4byte	.LASF87
 2547 0412 09       		.byte	0x9
 2548 0413 82       		.byte	0x82
 2549 0414 EB000000 		.4byte	0xeb
 2550 0418 78       		.byte	0x78
 2551 0419 09       		.uleb128 0x9
 2552 041a 9B0B0000 		.4byte	.LASF88
 2553 041e 09       		.byte	0x9
 2554 041f 83       		.byte	0x83
 2555 0420 EB000000 		.4byte	0xeb
 2556 0424 7A       		.byte	0x7a
 2557 0425 09       		.uleb128 0x9
 2558 0426 A0110000 		.4byte	.LASF89
ARM GAS  C:\Users\tmj32\AppData\Local\Temp\ccs01wAd.s 			page 70


 2559 042a 09       		.byte	0x9
 2560 042b 86       		.byte	0x86
 2561 042c D5000000 		.4byte	0xd5
 2562 0430 7C       		.byte	0x7c
 2563 0431 09       		.uleb128 0x9
 2564 0432 21140000 		.4byte	.LASF90
 2565 0436 09       		.byte	0x9
 2566 0437 87       		.byte	0x87
 2567 0438 D5000000 		.4byte	0xd5
 2568 043c 7D       		.byte	0x7d
 2569 043d 09       		.uleb128 0x9
 2570 043e D4050000 		.4byte	.LASF91
 2571 0442 09       		.byte	0x9
 2572 0443 88       		.byte	0x88
 2573 0444 D5000000 		.4byte	0xd5
 2574 0448 7E       		.byte	0x7e
 2575 0449 09       		.uleb128 0x9
 2576 044a 43050000 		.4byte	.LASF92
 2577 044e 09       		.byte	0x9
 2578 044f 89       		.byte	0x89
 2579 0450 D5000000 		.4byte	0xd5
 2580 0454 7F       		.byte	0x7f
 2581 0455 09       		.uleb128 0x9
 2582 0456 29060000 		.4byte	.LASF93
 2583 045a 09       		.byte	0x9
 2584 045b 8A       		.byte	0x8a
 2585 045c D5000000 		.4byte	0xd5
 2586 0460 80       		.byte	0x80
 2587 0461 09       		.uleb128 0x9
 2588 0462 C8000000 		.4byte	.LASF94
 2589 0466 09       		.byte	0x9
 2590 0467 8D       		.byte	0x8d
 2591 0468 01010000 		.4byte	0x101
 2592 046c 84       		.byte	0x84
 2593 046d 09       		.uleb128 0x9
 2594 046e E8110000 		.4byte	.LASF95
 2595 0472 09       		.byte	0x9
 2596 0473 8E       		.byte	0x8e
 2597 0474 01010000 		.4byte	0x101
 2598 0478 88       		.byte	0x88
 2599 0479 09       		.uleb128 0x9
 2600 047a 4D0D0000 		.4byte	.LASF96
 2601 047e 09       		.byte	0x9
 2602 047f 8F       		.byte	0x8f
 2603 0480 01010000 		.4byte	0x101
 2604 0484 8C       		.byte	0x8c
 2605 0485 09       		.uleb128 0x9
 2606 0486 FB160000 		.4byte	.LASF97
 2607 048a 09       		.byte	0x9
 2608 048b 90       		.byte	0x90
 2609 048c 01010000 		.4byte	0x101
 2610 0490 90       		.byte	0x90
 2611 0491 09       		.uleb128 0x9
 2612 0492 68110000 		.4byte	.LASF98
 2613 0496 09       		.byte	0x9
 2614 0497 91       		.byte	0x91
 2615 0498 01010000 		.4byte	0x101
ARM GAS  C:\Users\tmj32\AppData\Local\Temp\ccs01wAd.s 			page 71


 2616 049c 94       		.byte	0x94
 2617 049d 09       		.uleb128 0x9
 2618 049e D0030000 		.4byte	.LASF99
 2619 04a2 09       		.byte	0x9
 2620 04a3 92       		.byte	0x92
 2621 04a4 01010000 		.4byte	0x101
 2622 04a8 98       		.byte	0x98
 2623 04a9 09       		.uleb128 0x9
 2624 04aa 16120000 		.4byte	.LASF100
 2625 04ae 09       		.byte	0x9
 2626 04af 93       		.byte	0x93
 2627 04b0 01010000 		.4byte	0x101
 2628 04b4 9C       		.byte	0x9c
 2629 04b5 09       		.uleb128 0x9
 2630 04b6 D5080000 		.4byte	.LASF101
 2631 04ba 09       		.byte	0x9
 2632 04bb 94       		.byte	0x94
 2633 04bc 01010000 		.4byte	0x101
 2634 04c0 A0       		.byte	0xa0
 2635 04c1 09       		.uleb128 0x9
 2636 04c2 E6030000 		.4byte	.LASF102
 2637 04c6 09       		.byte	0x9
 2638 04c7 95       		.byte	0x95
 2639 04c8 EB000000 		.4byte	0xeb
 2640 04cc A4       		.byte	0xa4
 2641 04cd 09       		.uleb128 0x9
 2642 04ce 920F0000 		.4byte	.LASF103
 2643 04d2 09       		.byte	0x9
 2644 04d3 96       		.byte	0x96
 2645 04d4 EB000000 		.4byte	0xeb
 2646 04d8 A6       		.byte	0xa6
 2647 04d9 09       		.uleb128 0x9
 2648 04da 5E120000 		.4byte	.LASF104
 2649 04de 09       		.byte	0x9
 2650 04df 97       		.byte	0x97
 2651 04e0 EB000000 		.4byte	0xeb
 2652 04e4 A8       		.byte	0xa8
 2653 04e5 09       		.uleb128 0x9
 2654 04e6 3C0B0000 		.4byte	.LASF105
 2655 04ea 09       		.byte	0x9
 2656 04eb 98       		.byte	0x98
 2657 04ec EB000000 		.4byte	0xeb
 2658 04f0 AA       		.byte	0xaa
 2659 04f1 09       		.uleb128 0x9
 2660 04f2 1E030000 		.4byte	.LASF106
 2661 04f6 09       		.byte	0x9
 2662 04f7 99       		.byte	0x99
 2663 04f8 EB000000 		.4byte	0xeb
 2664 04fc AC       		.byte	0xac
 2665 04fd 09       		.uleb128 0x9
 2666 04fe 830D0000 		.4byte	.LASF107
 2667 0502 09       		.byte	0x9
 2668 0503 9A       		.byte	0x9a
 2669 0504 EB000000 		.4byte	0xeb
 2670 0508 AE       		.byte	0xae
 2671 0509 09       		.uleb128 0x9
 2672 050a 2C030000 		.4byte	.LASF108
ARM GAS  C:\Users\tmj32\AppData\Local\Temp\ccs01wAd.s 			page 72


 2673 050e 09       		.byte	0x9
 2674 050f 9D       		.byte	0x9d
 2675 0510 EB000000 		.4byte	0xeb
 2676 0514 B0       		.byte	0xb0
 2677 0515 09       		.uleb128 0x9
 2678 0516 A7080000 		.4byte	.LASF109
 2679 051a 09       		.byte	0x9
 2680 051b 9E       		.byte	0x9e
 2681 051c 01010000 		.4byte	0x101
 2682 0520 B4       		.byte	0xb4
 2683 0521 00       		.byte	0
 2684 0522 02       		.uleb128 0x2
 2685 0523 17150000 		.4byte	.LASF110
 2686 0527 09       		.byte	0x9
 2687 0528 9F       		.byte	0x9f
 2688 0529 11010000 		.4byte	0x111
 2689 052d 03       		.uleb128 0x3
 2690 052e 04       		.byte	0x4
 2691 052f 04       		.byte	0x4
 2692 0530 71050000 		.4byte	.LASF111
 2693 0534 03       		.uleb128 0x3
 2694 0535 08       		.byte	0x8
 2695 0536 04       		.byte	0x4
 2696 0537 80150000 		.4byte	.LASF112
 2697 053b 03       		.uleb128 0x3
 2698 053c 01       		.byte	0x1
 2699 053d 02       		.byte	0x2
 2700 053e 24080000 		.4byte	.LASF113
 2701 0542 0A       		.uleb128 0xa
 2702 0543 01       		.byte	0x1
 2703 0544 42000000 		.4byte	0x42
 2704 0548 0A       		.byte	0xa
 2705 0549 2402     		.2byte	0x224
 2706 054b 5C050000 		.4byte	0x55c
 2707 054f 0B       		.uleb128 0xb
 2708 0550 71090000 		.4byte	.LASF114
 2709 0554 00       		.byte	0
 2710 0555 0B       		.uleb128 0xb
 2711 0556 3A030000 		.4byte	.LASF115
 2712 055a 01       		.byte	0x1
 2713 055b 00       		.byte	0
 2714 055c 0C       		.uleb128 0xc
 2715 055d D4020000 		.4byte	.LASF116
 2716 0561 0A       		.byte	0xa
 2717 0562 2702     		.2byte	0x227
 2718 0564 42050000 		.4byte	0x542
 2719 0568 0C       		.uleb128 0xc
 2720 0569 070C0000 		.4byte	.LASF117
 2721 056d 0A       		.byte	0xa
 2722 056e 3902     		.2byte	0x239
 2723 0570 74050000 		.4byte	0x574
 2724 0574 06       		.uleb128 0x6
 2725 0575 04       		.byte	0x4
 2726 0576 7A050000 		.4byte	0x57a
 2727 057a 0D       		.uleb128 0xd
 2728 057b 85050000 		.4byte	0x585
 2729 057f 0E       		.uleb128 0xe
ARM GAS  C:\Users\tmj32\AppData\Local\Temp\ccs01wAd.s 			page 73


 2730 0580 01010000 		.4byte	0x101
 2731 0584 00       		.byte	0
 2732 0585 0C       		.uleb128 0xc
 2733 0586 54030000 		.4byte	.LASF118
 2734 058a 0A       		.byte	0xa
 2735 058b 4402     		.2byte	0x244
 2736 058d 91050000 		.4byte	0x591
 2737 0591 06       		.uleb128 0x6
 2738 0592 04       		.byte	0x4
 2739 0593 97050000 		.4byte	0x597
 2740 0597 0F       		.uleb128 0xf
 2741 0598 5C050000 		.4byte	0x55c
 2742 059c A6050000 		.4byte	0x5a6
 2743 05a0 0E       		.uleb128 0xe
 2744 05a1 01010000 		.4byte	0x101
 2745 05a5 00       		.byte	0
 2746 05a6 10       		.uleb128 0x10
 2747 05a7 94030000 		.4byte	.LASF142
 2748 05ab 4C       		.byte	0x4c
 2749 05ac 0A       		.byte	0xa
 2750 05ad C302     		.2byte	0x2c3
 2751 05af C5060000 		.4byte	0x6c5
 2752 05b3 11       		.uleb128 0x11
 2753 05b4 48080000 		.4byte	.LASF119
 2754 05b8 0A       		.byte	0xa
 2755 05b9 C602     		.2byte	0x2c6
 2756 05bb 3B050000 		.4byte	0x53b
 2757 05bf 00       		.byte	0
 2758 05c0 11       		.uleb128 0x11
 2759 05c1 F80B0000 		.4byte	.LASF120
 2760 05c5 0A       		.byte	0xa
 2761 05c6 C702     		.2byte	0x2c7
 2762 05c8 3B050000 		.4byte	0x53b
 2763 05cc 01       		.byte	0x1
 2764 05cd 11       		.uleb128 0x11
 2765 05ce C8130000 		.4byte	.LASF121
 2766 05d2 0A       		.byte	0xa
 2767 05d3 C902     		.2byte	0x2c9
 2768 05d5 0C010000 		.4byte	0x10c
 2769 05d9 04       		.byte	0x4
 2770 05da 11       		.uleb128 0x11
 2771 05db EB000000 		.4byte	.LASF122
 2772 05df 0A       		.byte	0xa
 2773 05e0 CB02     		.2byte	0x2cb
 2774 05e2 0C010000 		.4byte	0x10c
 2775 05e6 08       		.byte	0x8
 2776 05e7 11       		.uleb128 0x11
 2777 05e8 9C0D0000 		.4byte	.LASF123
 2778 05ec 0A       		.byte	0xa
 2779 05ed CC02     		.2byte	0x2cc
 2780 05ef 3B050000 		.4byte	0x53b
 2781 05f3 0C       		.byte	0xc
 2782 05f4 11       		.uleb128 0x11
 2783 05f5 420C0000 		.4byte	.LASF124
 2784 05f9 0A       		.byte	0xa
 2785 05fa CD02     		.2byte	0x2cd
 2786 05fc 3B050000 		.4byte	0x53b
ARM GAS  C:\Users\tmj32\AppData\Local\Temp\ccs01wAd.s 			page 74


 2787 0600 0D       		.byte	0xd
 2788 0601 11       		.uleb128 0x11
 2789 0602 A00E0000 		.4byte	.LASF125
 2790 0606 0A       		.byte	0xa
 2791 0607 CF02     		.2byte	0x2cf
 2792 0609 C5060000 		.4byte	0x6c5
 2793 060d 10       		.byte	0x10
 2794 060e 11       		.uleb128 0x11
 2795 060f E5090000 		.4byte	.LASF126
 2796 0613 0A       		.byte	0xa
 2797 0614 D002     		.2byte	0x2d0
 2798 0616 01010000 		.4byte	0x101
 2799 061a 14       		.byte	0x14
 2800 061b 11       		.uleb128 0x11
 2801 061c B6010000 		.4byte	.LASF127
 2802 0620 0A       		.byte	0xa
 2803 0621 D102     		.2byte	0x2d1
 2804 0623 0C010000 		.4byte	0x10c
 2805 0627 18       		.byte	0x18
 2806 0628 11       		.uleb128 0x11
 2807 0629 BD070000 		.4byte	.LASF128
 2808 062d 0A       		.byte	0xa
 2809 062e D202     		.2byte	0x2d2
 2810 0630 0C010000 		.4byte	0x10c
 2811 0634 1C       		.byte	0x1c
 2812 0635 11       		.uleb128 0x11
 2813 0636 7A170000 		.4byte	.LASF129
 2814 063a 0A       		.byte	0xa
 2815 063b D402     		.2byte	0x2d4
 2816 063d 0C010000 		.4byte	0x10c
 2817 0641 20       		.byte	0x20
 2818 0642 11       		.uleb128 0x11
 2819 0643 F3020000 		.4byte	.LASF130
 2820 0647 0A       		.byte	0xa
 2821 0648 D502     		.2byte	0x2d5
 2822 064a CB060000 		.4byte	0x6cb
 2823 064e 24       		.byte	0x24
 2824 064f 11       		.uleb128 0x11
 2825 0650 20040000 		.4byte	.LASF131
 2826 0654 0A       		.byte	0xa
 2827 0655 D702     		.2byte	0x2d7
 2828 0657 C5060000 		.4byte	0x6c5
 2829 065b 28       		.byte	0x28
 2830 065c 11       		.uleb128 0x11
 2831 065d 91060000 		.4byte	.LASF132
 2832 0661 0A       		.byte	0xa
 2833 0662 D802     		.2byte	0x2d8
 2834 0664 01010000 		.4byte	0x101
 2835 0668 2C       		.byte	0x2c
 2836 0669 11       		.uleb128 0x11
 2837 066a E5040000 		.4byte	.LASF133
 2838 066e 0A       		.byte	0xa
 2839 066f D902     		.2byte	0x2d9
 2840 0671 0C010000 		.4byte	0x10c
 2841 0675 30       		.byte	0x30
 2842 0676 11       		.uleb128 0x11
 2843 0677 A60A0000 		.4byte	.LASF134
ARM GAS  C:\Users\tmj32\AppData\Local\Temp\ccs01wAd.s 			page 75


 2844 067b 0A       		.byte	0xa
 2845 067c DA02     		.2byte	0x2da
 2846 067e 0C010000 		.4byte	0x10c
 2847 0682 34       		.byte	0x34
 2848 0683 11       		.uleb128 0x11
 2849 0684 52020000 		.4byte	.LASF135
 2850 0688 0A       		.byte	0xa
 2851 0689 DC02     		.2byte	0x2dc
 2852 068b C5060000 		.4byte	0x6c5
 2853 068f 38       		.byte	0x38
 2854 0690 11       		.uleb128 0x11
 2855 0691 200E0000 		.4byte	.LASF136
 2856 0695 0A       		.byte	0xa
 2857 0696 DD02     		.2byte	0x2dd
 2858 0698 01010000 		.4byte	0x101
 2859 069c 3C       		.byte	0x3c
 2860 069d 11       		.uleb128 0x11
 2861 069e 720D0000 		.4byte	.LASF137
 2862 06a2 0A       		.byte	0xa
 2863 06a3 DE02     		.2byte	0x2de
 2864 06a5 0C010000 		.4byte	0x10c
 2865 06a9 40       		.byte	0x40
 2866 06aa 11       		.uleb128 0x11
 2867 06ab D7070000 		.4byte	.LASF138
 2868 06af 0A       		.byte	0xa
 2869 06b0 E402     		.2byte	0x2e4
 2870 06b2 68050000 		.4byte	0x568
 2871 06b6 44       		.byte	0x44
 2872 06b7 11       		.uleb128 0x11
 2873 06b8 8A020000 		.4byte	.LASF139
 2874 06bc 0A       		.byte	0xa
 2875 06bd EB02     		.2byte	0x2eb
 2876 06bf 85050000 		.4byte	0x585
 2877 06c3 48       		.byte	0x48
 2878 06c4 00       		.byte	0
 2879 06c5 06       		.uleb128 0x6
 2880 06c6 04       		.byte	0x4
 2881 06c7 D5000000 		.4byte	0xd5
 2882 06cb 07       		.uleb128 0x7
 2883 06cc 3B050000 		.4byte	0x53b
 2884 06d0 0C       		.uleb128 0xc
 2885 06d1 BB150000 		.4byte	.LASF140
 2886 06d5 0A       		.byte	0xa
 2887 06d6 EE02     		.2byte	0x2ee
 2888 06d8 A6050000 		.4byte	0x5a6
 2889 06dc 0C       		.uleb128 0xc
 2890 06dd 2F000000 		.4byte	.LASF141
 2891 06e1 0B       		.byte	0xb
 2892 06e2 F201     		.2byte	0x1f2
 2893 06e4 74050000 		.4byte	0x574
 2894 06e8 10       		.uleb128 0x10
 2895 06e9 69150000 		.4byte	.LASF143
 2896 06ed 24       		.byte	0x24
 2897 06ee 0B       		.byte	0xb
 2898 06ef 7402     		.2byte	0x274
 2899 06f1 6B070000 		.4byte	0x76b
 2900 06f5 11       		.uleb128 0x11
ARM GAS  C:\Users\tmj32\AppData\Local\Temp\ccs01wAd.s 			page 76


 2901 06f6 9A0A0000 		.4byte	.LASF144
 2902 06fa 0B       		.byte	0xb
 2903 06fb 7702     		.2byte	0x277
 2904 06fd 0C010000 		.4byte	0x10c
 2905 0701 00       		.byte	0
 2906 0702 11       		.uleb128 0x11
 2907 0703 20070000 		.4byte	.LASF145
 2908 0707 0B       		.byte	0xb
 2909 0708 7902     		.2byte	0x279
 2910 070a B4000000 		.4byte	0xb4
 2911 070e 04       		.byte	0x4
 2912 070f 11       		.uleb128 0x11
 2913 0710 6A170000 		.4byte	.LASF146
 2914 0714 0B       		.byte	0xb
 2915 0715 7A02     		.2byte	0x27a
 2916 0717 01010000 		.4byte	0x101
 2917 071b 08       		.byte	0x8
 2918 071c 11       		.uleb128 0x11
 2919 071d 370A0000 		.4byte	.LASF147
 2920 0721 0B       		.byte	0xb
 2921 0722 7B02     		.2byte	0x27b
 2922 0724 0C010000 		.4byte	0x10c
 2923 0728 0C       		.byte	0xc
 2924 0729 11       		.uleb128 0x11
 2925 072a EA0D0000 		.4byte	.LASF148
 2926 072e 0B       		.byte	0xb
 2927 072f 7D02     		.2byte	0x27d
 2928 0731 B4000000 		.4byte	0xb4
 2929 0735 10       		.byte	0x10
 2930 0736 11       		.uleb128 0x11
 2931 0737 110D0000 		.4byte	.LASF149
 2932 073b 0B       		.byte	0xb
 2933 073c 7E02     		.2byte	0x27e
 2934 073e 01010000 		.4byte	0x101
 2935 0742 14       		.byte	0x14
 2936 0743 11       		.uleb128 0x11
 2937 0744 EF0B0000 		.4byte	.LASF150
 2938 0748 0B       		.byte	0xb
 2939 0749 7F02     		.2byte	0x27f
 2940 074b 0C010000 		.4byte	0x10c
 2941 074f 18       		.byte	0x18
 2942 0750 11       		.uleb128 0x11
 2943 0751 D7070000 		.4byte	.LASF138
 2944 0755 0B       		.byte	0xb
 2945 0756 8502     		.2byte	0x285
 2946 0758 DC060000 		.4byte	0x6dc
 2947 075c 1C       		.byte	0x1c
 2948 075d 11       		.uleb128 0x11
 2949 075e 540A0000 		.4byte	.LASF151
 2950 0762 0B       		.byte	0xb
 2951 0763 8802     		.2byte	0x288
 2952 0765 01010000 		.4byte	0x101
 2953 0769 20       		.byte	0x20
 2954 076a 00       		.byte	0
 2955 076b 0C       		.uleb128 0xc
 2956 076c 970C0000 		.4byte	.LASF152
 2957 0770 0B       		.byte	0xb
ARM GAS  C:\Users\tmj32\AppData\Local\Temp\ccs01wAd.s 			page 77


 2958 0771 8B02     		.2byte	0x28b
 2959 0773 E8060000 		.4byte	0x6e8
 2960 0777 12       		.uleb128 0x12
 2961 0778 A6140000 		.4byte	.LASF153
 2962 077c 4C       		.byte	0x4c
 2963 077d 0C       		.byte	0xc
 2964 077e 2F       		.byte	0x2f
 2965 077f 68080000 		.4byte	0x868
 2966 0783 09       		.uleb128 0x9
 2967 0784 7F140000 		.4byte	.LASF154
 2968 0788 0C       		.byte	0xc
 2969 0789 31       		.byte	0x31
 2970 078a 01010000 		.4byte	0x101
 2971 078e 00       		.byte	0
 2972 078f 09       		.uleb128 0x9
 2973 0790 1B0A0000 		.4byte	.LASF155
 2974 0794 0C       		.byte	0xc
 2975 0795 33       		.byte	0x33
 2976 0796 01010000 		.4byte	0x101
 2977 079a 04       		.byte	0x4
 2978 079b 09       		.uleb128 0x9
 2979 079c 860E0000 		.4byte	.LASF156
 2980 07a0 0C       		.byte	0xc
 2981 07a1 34       		.byte	0x34
 2982 07a2 01010000 		.4byte	0x101
 2983 07a6 08       		.byte	0x8
 2984 07a7 09       		.uleb128 0x9
 2985 07a8 CC100000 		.4byte	.LASF157
 2986 07ac 0C       		.byte	0xc
 2987 07ad 35       		.byte	0x35
 2988 07ae 01010000 		.4byte	0x101
 2989 07b2 0C       		.byte	0xc
 2990 07b3 09       		.uleb128 0x9
 2991 07b4 0A0A0000 		.4byte	.LASF158
 2992 07b8 0C       		.byte	0xc
 2993 07b9 37       		.byte	0x37
 2994 07ba 01010000 		.4byte	0x101
 2995 07be 10       		.byte	0x10
 2996 07bf 09       		.uleb128 0x9
 2997 07c0 70030000 		.4byte	.LASF159
 2998 07c4 0C       		.byte	0xc
 2999 07c5 38       		.byte	0x38
 3000 07c6 01010000 		.4byte	0x101
 3001 07ca 14       		.byte	0x14
 3002 07cb 09       		.uleb128 0x9
 3003 07cc 79030000 		.4byte	.LASF160
 3004 07d0 0C       		.byte	0xc
 3005 07d1 39       		.byte	0x39
 3006 07d2 01010000 		.4byte	0x101
 3007 07d6 18       		.byte	0x18
 3008 07d7 09       		.uleb128 0x9
 3009 07d8 A80D0000 		.4byte	.LASF161
 3010 07dc 0C       		.byte	0xc
 3011 07dd 3A       		.byte	0x3a
 3012 07de 3B050000 		.4byte	0x53b
 3013 07e2 1C       		.byte	0x1c
 3014 07e3 09       		.uleb128 0x9
ARM GAS  C:\Users\tmj32\AppData\Local\Temp\ccs01wAd.s 			page 78


 3015 07e4 0E100000 		.4byte	.LASF162
 3016 07e8 0C       		.byte	0xc
 3017 07e9 3C       		.byte	0x3c
 3018 07ea 01010000 		.4byte	0x101
 3019 07ee 20       		.byte	0x20
 3020 07ef 09       		.uleb128 0x9
 3021 07f0 DC060000 		.4byte	.LASF163
 3022 07f4 0C       		.byte	0xc
 3023 07f5 3D       		.byte	0x3d
 3024 07f6 01010000 		.4byte	0x101
 3025 07fa 24       		.byte	0x24
 3026 07fb 09       		.uleb128 0x9
 3027 07fc 4F090000 		.4byte	.LASF164
 3028 0800 0C       		.byte	0xc
 3029 0801 3F       		.byte	0x3f
 3030 0802 01010000 		.4byte	0x101
 3031 0806 28       		.byte	0x28
 3032 0807 09       		.uleb128 0x9
 3033 0808 B90C0000 		.4byte	.LASF165
 3034 080c 0C       		.byte	0xc
 3035 080d 40       		.byte	0x40
 3036 080e 01010000 		.4byte	0x101
 3037 0812 2C       		.byte	0x2c
 3038 0813 09       		.uleb128 0x9
 3039 0814 C0050000 		.4byte	.LASF166
 3040 0818 0C       		.byte	0xc
 3041 0819 42       		.byte	0x42
 3042 081a 01010000 		.4byte	0x101
 3043 081e 30       		.byte	0x30
 3044 081f 09       		.uleb128 0x9
 3045 0820 C7060000 		.4byte	.LASF167
 3046 0824 0C       		.byte	0xc
 3047 0825 43       		.byte	0x43
 3048 0826 01010000 		.4byte	0x101
 3049 082a 34       		.byte	0x34
 3050 082b 09       		.uleb128 0x9
 3051 082c FB010000 		.4byte	.LASF168
 3052 0830 0C       		.byte	0xc
 3053 0831 45       		.byte	0x45
 3054 0832 01010000 		.4byte	0x101
 3055 0836 38       		.byte	0x38
 3056 0837 09       		.uleb128 0x9
 3057 0838 69000000 		.4byte	.LASF169
 3058 083c 0C       		.byte	0xc
 3059 083d 46       		.byte	0x46
 3060 083e 01010000 		.4byte	0x101
 3061 0842 3C       		.byte	0x3c
 3062 0843 09       		.uleb128 0x9
 3063 0844 B1020000 		.4byte	.LASF170
 3064 0848 0C       		.byte	0xc
 3065 0849 48       		.byte	0x48
 3066 084a 01010000 		.4byte	0x101
 3067 084e 40       		.byte	0x40
 3068 084f 09       		.uleb128 0x9
 3069 0850 7F100000 		.4byte	.LASF171
 3070 0854 0C       		.byte	0xc
 3071 0855 49       		.byte	0x49
ARM GAS  C:\Users\tmj32\AppData\Local\Temp\ccs01wAd.s 			page 79


 3072 0856 01010000 		.4byte	0x101
 3073 085a 44       		.byte	0x44
 3074 085b 09       		.uleb128 0x9
 3075 085c 47130000 		.4byte	.LASF172
 3076 0860 0C       		.byte	0xc
 3077 0861 4B       		.byte	0x4b
 3078 0862 01010000 		.4byte	0x101
 3079 0866 48       		.byte	0x48
 3080 0867 00       		.byte	0
 3081 0868 02       		.uleb128 0x2
 3082 0869 E80E0000 		.4byte	.LASF173
 3083 086d 0C       		.byte	0xc
 3084 086e 4C       		.byte	0x4c
 3085 086f 77070000 		.4byte	0x777
 3086 0873 13       		.uleb128 0x13
 3087 0874 33130000 		.4byte	.LASF174
 3088 0878 4008     		.2byte	0x840
 3089 087a 0D       		.byte	0xd
 3090 087b 05       		.byte	0x5
 3091 087c 59090000 		.4byte	0x959
 3092 0880 09       		.uleb128 0x9
 3093 0881 2F0C0000 		.4byte	.LASF175
 3094 0885 0D       		.byte	0xd
 3095 0886 07       		.byte	0x7
 3096 0887 D5000000 		.4byte	0xd5
 3097 088b 00       		.byte	0
 3098 088c 09       		.uleb128 0x9
 3099 088d 55120000 		.4byte	.LASF176
 3100 0891 0D       		.byte	0xd
 3101 0892 08       		.byte	0x8
 3102 0893 D5000000 		.4byte	0xd5
 3103 0897 01       		.byte	0x1
 3104 0898 09       		.uleb128 0x9
 3105 0899 EA160000 		.4byte	.LASF177
 3106 089d 0D       		.byte	0xd
 3107 089e 09       		.byte	0x9
 3108 089f D5000000 		.4byte	0xd5
 3109 08a3 02       		.byte	0x2
 3110 08a4 09       		.uleb128 0x9
 3111 08a5 2A010000 		.4byte	.LASF178
 3112 08a9 0D       		.byte	0xd
 3113 08aa 0B       		.byte	0xb
 3114 08ab D5000000 		.4byte	0xd5
 3115 08af 03       		.byte	0x3
 3116 08b0 09       		.uleb128 0x9
 3117 08b1 98110000 		.4byte	.LASF179
 3118 08b5 0D       		.byte	0xd
 3119 08b6 0C       		.byte	0xc
 3120 08b7 D5000000 		.4byte	0xd5
 3121 08bb 04       		.byte	0x4
 3122 08bc 09       		.uleb128 0x9
 3123 08bd D8140000 		.4byte	.LASF180
 3124 08c1 0D       		.byte	0xd
 3125 08c2 0D       		.byte	0xd
 3126 08c3 D5000000 		.4byte	0xd5
 3127 08c7 05       		.byte	0x5
 3128 08c8 09       		.uleb128 0x9
ARM GAS  C:\Users\tmj32\AppData\Local\Temp\ccs01wAd.s 			page 80


 3129 08c9 ED0A0000 		.4byte	.LASF181
 3130 08cd 0D       		.byte	0xd
 3131 08ce 0E       		.byte	0xe
 3132 08cf D5000000 		.4byte	0xd5
 3133 08d3 06       		.byte	0x6
 3134 08d4 09       		.uleb128 0x9
 3135 08d5 60140000 		.4byte	.LASF182
 3136 08d9 0D       		.byte	0xd
 3137 08da 0F       		.byte	0xf
 3138 08db D5000000 		.4byte	0xd5
 3139 08df 07       		.byte	0x7
 3140 08e0 09       		.uleb128 0x9
 3141 08e1 1A0E0000 		.4byte	.LASF183
 3142 08e5 0D       		.byte	0xd
 3143 08e6 10       		.byte	0x10
 3144 08e7 D5000000 		.4byte	0xd5
 3145 08eb 08       		.byte	0x8
 3146 08ec 14       		.uleb128 0x14
 3147 08ed 49525300 		.ascii	"IRS\000"
 3148 08f1 0D       		.byte	0xd
 3149 08f2 11       		.byte	0x11
 3150 08f3 D5000000 		.4byte	0xd5
 3151 08f7 09       		.byte	0x9
 3152 08f8 09       		.uleb128 0x9
 3153 08f9 BB020000 		.4byte	.LASF184
 3154 08fd 0D       		.byte	0xd
 3155 08fe 12       		.byte	0x12
 3156 08ff D5000000 		.4byte	0xd5
 3157 0903 0A       		.byte	0xa
 3158 0904 09       		.uleb128 0x9
 3159 0905 2E070000 		.4byte	.LASF185
 3160 0909 0D       		.byte	0xd
 3161 090a 15       		.byte	0x15
 3162 090b 9F000000 		.4byte	0x9f
 3163 090f 0C       		.byte	0xc
 3164 0910 09       		.uleb128 0x9
 3165 0911 29130000 		.4byte	.LASF186
 3166 0915 0D       		.byte	0xd
 3167 0916 17       		.byte	0x17
 3168 0917 D5000000 		.4byte	0xd5
 3169 091b 10       		.byte	0x10
 3170 091c 09       		.uleb128 0x9
 3171 091d F8000000 		.4byte	.LASF187
 3172 0921 0D       		.byte	0xd
 3173 0922 18       		.byte	0x18
 3174 0923 D5000000 		.4byte	0xd5
 3175 0927 11       		.byte	0x11
 3176 0928 09       		.uleb128 0x9
 3177 0929 00000000 		.4byte	.LASF188
 3178 092d 0D       		.byte	0xd
 3179 092e 19       		.byte	0x19
 3180 092f D5000000 		.4byte	0xd5
 3181 0933 12       		.byte	0x12
 3182 0934 09       		.uleb128 0x9
 3183 0935 79010000 		.4byte	.LASF189
 3184 0939 0D       		.byte	0xd
 3185 093a 1C       		.byte	0x1c
ARM GAS  C:\Users\tmj32\AppData\Local\Temp\ccs01wAd.s 			page 81


 3186 093b 59090000 		.4byte	0x959
 3187 093f 14       		.byte	0x14
 3188 0940 09       		.uleb128 0x9
 3189 0941 CB090000 		.4byte	.LASF190
 3190 0945 0D       		.byte	0xd
 3191 0946 1D       		.byte	0x1d
 3192 0947 69090000 		.4byte	0x969
 3193 094b 2E       		.byte	0x2e
 3194 094c 09       		.uleb128 0x9
 3195 094d 52100000 		.4byte	.LASF191
 3196 0951 0D       		.byte	0xd
 3197 0952 1E       		.byte	0x1e
 3198 0953 79090000 		.4byte	0x979
 3199 0957 3E       		.byte	0x3e
 3200 0958 00       		.byte	0
 3201 0959 15       		.uleb128 0x15
 3202 095a EB000000 		.4byte	0xeb
 3203 095e 69090000 		.4byte	0x969
 3204 0962 16       		.uleb128 0x16
 3205 0963 B6000000 		.4byte	0xb6
 3206 0967 0C       		.byte	0xc
 3207 0968 00       		.byte	0
 3208 0969 15       		.uleb128 0x15
 3209 096a E0000000 		.4byte	0xe0
 3210 096e 79090000 		.4byte	0x979
 3211 0972 16       		.uleb128 0x16
 3212 0973 B6000000 		.4byte	0xb6
 3213 0977 07       		.byte	0x7
 3214 0978 00       		.byte	0
 3215 0979 15       		.uleb128 0x15
 3216 097a CA000000 		.4byte	0xca
 3217 097e 8A090000 		.4byte	0x98a
 3218 0982 17       		.uleb128 0x17
 3219 0983 B6000000 		.4byte	0xb6
 3220 0987 FF07     		.2byte	0x7ff
 3221 0989 00       		.byte	0
 3222 098a 02       		.uleb128 0x2
 3223 098b 26110000 		.4byte	.LASF192
 3224 098f 0E       		.byte	0xe
 3225 0990 3C       		.byte	0x3c
 3226 0991 E0000000 		.4byte	0xe0
 3227 0995 02       		.uleb128 0x2
 3228 0996 B00C0000 		.4byte	.LASF193
 3229 099a 0F       		.byte	0xf
 3230 099b 2C       		.byte	0x2c
 3231 099c D5000000 		.4byte	0xd5
 3232 09a0 02       		.uleb128 0x2
 3233 09a1 F0070000 		.4byte	.LASF194
 3234 09a5 10       		.byte	0x10
 3235 09a6 1E       		.byte	0x1e
 3236 09a7 D5000000 		.4byte	0xd5
 3237 09ab 08       		.uleb128 0x8
 3238 09ac 0C       		.byte	0xc
 3239 09ad 10       		.byte	0x10
 3240 09ae 21       		.byte	0x21
 3241 09af D8090000 		.4byte	0x9d8
 3242 09b3 09       		.uleb128 0x9
ARM GAS  C:\Users\tmj32\AppData\Local\Temp\ccs01wAd.s 			page 82


 3243 09b4 EC020000 		.4byte	.LASF195
 3244 09b8 10       		.byte	0x10
 3245 09b9 23       		.byte	0x23
 3246 09ba 01010000 		.4byte	0x101
 3247 09be 00       		.byte	0
 3248 09bf 09       		.uleb128 0x9
 3249 09c0 6A060000 		.4byte	.LASF196
 3250 09c4 10       		.byte	0x10
 3251 09c5 24       		.byte	0x24
 3252 09c6 D8090000 		.4byte	0x9d8
 3253 09ca 04       		.byte	0x4
 3254 09cb 09       		.uleb128 0x9
 3255 09cc 85130000 		.4byte	.LASF197
 3256 09d0 10       		.byte	0x10
 3257 09d1 25       		.byte	0x25
 3258 09d2 D8090000 		.4byte	0x9d8
 3259 09d6 08       		.byte	0x8
 3260 09d7 00       		.byte	0
 3261 09d8 06       		.uleb128 0x6
 3262 09d9 04       		.byte	0x4
 3263 09da A0090000 		.4byte	0x9a0
 3264 09de 02       		.uleb128 0x2
 3265 09df FB050000 		.4byte	.LASF198
 3266 09e3 10       		.byte	0x10
 3267 09e4 26       		.byte	0x26
 3268 09e5 AB090000 		.4byte	0x9ab
 3269 09e9 08       		.uleb128 0x8
 3270 09ea 04       		.byte	0x4
 3271 09eb 01       		.byte	0x1
 3272 09ec F3       		.byte	0xf3
 3273 09ed 220A0000 		.4byte	0xa22
 3274 09f1 09       		.uleb128 0x9
 3275 09f2 F4100000 		.4byte	.LASF199
 3276 09f6 01       		.byte	0x1
 3277 09f7 F5       		.byte	0xf5
 3278 09f8 D5000000 		.4byte	0xd5
 3279 09fc 00       		.byte	0
 3280 09fd 09       		.uleb128 0x9
 3281 09fe 4F0E0000 		.4byte	.LASF200
 3282 0a02 01       		.byte	0x1
 3283 0a03 F6       		.byte	0xf6
 3284 0a04 D5000000 		.4byte	0xd5
 3285 0a08 01       		.byte	0x1
 3286 0a09 14       		.uleb128 0x14
 3287 0a0a 72656400 		.ascii	"red\000"
 3288 0a0e 01       		.byte	0x1
 3289 0a0f F7       		.byte	0xf7
 3290 0a10 D5000000 		.4byte	0xd5
 3291 0a14 02       		.byte	0x2
 3292 0a15 09       		.uleb128 0x9
 3293 0a16 D6060000 		.4byte	.LASF201
 3294 0a1a 01       		.byte	0x1
 3295 0a1b F8       		.byte	0xf8
 3296 0a1c D5000000 		.4byte	0xd5
 3297 0a20 03       		.byte	0x3
 3298 0a21 00       		.byte	0
 3299 0a22 18       		.uleb128 0x18
ARM GAS  C:\Users\tmj32\AppData\Local\Temp\ccs01wAd.s 			page 83


 3300 0a23 04       		.byte	0x4
 3301 0a24 01       		.byte	0x1
 3302 0a25 F1       		.byte	0xf1
 3303 0a26 400A0000 		.4byte	0xa40
 3304 0a2a 19       		.uleb128 0x19
 3305 0a2b 636800   		.ascii	"ch\000"
 3306 0a2e 01       		.byte	0x1
 3307 0a2f F9       		.byte	0xf9
 3308 0a30 E9090000 		.4byte	0x9e9
 3309 0a34 1A       		.uleb128 0x1a
 3310 0a35 64000000 		.4byte	.LASF202
 3311 0a39 01       		.byte	0x1
 3312 0a3a FA       		.byte	0xfa
 3313 0a3b 01010000 		.4byte	0x101
 3314 0a3f 00       		.byte	0
 3315 0a40 02       		.uleb128 0x2
 3316 0a41 1D050000 		.4byte	.LASF203
 3317 0a45 01       		.byte	0x1
 3318 0a46 FB       		.byte	0xfb
 3319 0a47 220A0000 		.4byte	0xa22
 3320 0a4b 0C       		.uleb128 0xc
 3321 0a4c F60D0000 		.4byte	.LASF204
 3322 0a50 01       		.byte	0x1
 3323 0a51 0801     		.2byte	0x108
 3324 0a53 400A0000 		.4byte	0xa40
 3325 0a57 0C       		.uleb128 0xc
 3326 0a58 34100000 		.4byte	.LASF205
 3327 0a5c 01       		.byte	0x1
 3328 0a5d 0D01     		.2byte	0x10d
 3329 0a5f D5000000 		.4byte	0xd5
 3330 0a63 08       		.uleb128 0x8
 3331 0a64 08       		.byte	0x8
 3332 0a65 11       		.byte	0x11
 3333 0a66 31       		.byte	0x31
 3334 0a67 980A0000 		.4byte	0xa98
 3335 0a6b 14       		.uleb128 0x14
 3336 0a6c 783100   		.ascii	"x1\000"
 3337 0a6f 11       		.byte	0x11
 3338 0a70 33       		.byte	0x33
 3339 0a71 8A090000 		.4byte	0x98a
 3340 0a75 00       		.byte	0
 3341 0a76 14       		.uleb128 0x14
 3342 0a77 793100   		.ascii	"y1\000"
 3343 0a7a 11       		.byte	0x11
 3344 0a7b 34       		.byte	0x34
 3345 0a7c 8A090000 		.4byte	0x98a
 3346 0a80 02       		.byte	0x2
 3347 0a81 14       		.uleb128 0x14
 3348 0a82 783200   		.ascii	"x2\000"
 3349 0a85 11       		.byte	0x11
 3350 0a86 35       		.byte	0x35
 3351 0a87 8A090000 		.4byte	0x98a
 3352 0a8b 04       		.byte	0x4
 3353 0a8c 14       		.uleb128 0x14
 3354 0a8d 793200   		.ascii	"y2\000"
 3355 0a90 11       		.byte	0x11
 3356 0a91 36       		.byte	0x36
ARM GAS  C:\Users\tmj32\AppData\Local\Temp\ccs01wAd.s 			page 84


 3357 0a92 8A090000 		.4byte	0x98a
 3358 0a96 06       		.byte	0x6
 3359 0a97 00       		.byte	0
 3360 0a98 02       		.uleb128 0x2
 3361 0a99 39120000 		.4byte	.LASF206
 3362 0a9d 11       		.byte	0x11
 3363 0a9e 37       		.byte	0x37
 3364 0a9f 630A0000 		.4byte	0xa63
 3365 0aa3 06       		.uleb128 0x6
 3366 0aa4 04       		.byte	0x4
 3367 0aa5 A90A0000 		.4byte	0xaa9
 3368 0aa9 1B       		.uleb128 0x1b
 3369 0aaa 980A0000 		.4byte	0xa98
 3370 0aae 12       		.uleb128 0x12
 3371 0aaf 25000000 		.4byte	.LASF207
 3372 0ab3 40       		.byte	0x40
 3373 0ab4 12       		.byte	0x12
 3374 0ab5 BB       		.byte	0xbb
 3375 0ab6 F00B0000 		.4byte	0xbf0
 3376 0aba 14       		.uleb128 0x14
 3377 0abb 70617200 		.ascii	"par\000"
 3378 0abf 12       		.byte	0x12
 3379 0ac0 BD       		.byte	0xbd
 3380 0ac1 F00B0000 		.4byte	0xbf0
 3381 0ac5 00       		.byte	0
 3382 0ac6 09       		.uleb128 0x9
 3383 0ac7 9A130000 		.4byte	.LASF208
 3384 0acb 12       		.byte	0x12
 3385 0acc BE       		.byte	0xbe
 3386 0acd DE090000 		.4byte	0x9de
 3387 0ad1 04       		.byte	0x4
 3388 0ad2 09       		.uleb128 0x9
 3389 0ad3 07100000 		.4byte	.LASF209
 3390 0ad7 12       		.byte	0x12
 3391 0ad8 C0       		.byte	0xc0
 3392 0ad9 980A0000 		.4byte	0xa98
 3393 0add 10       		.byte	0x10
 3394 0ade 09       		.uleb128 0x9
 3395 0adf FD130000 		.4byte	.LASF210
 3396 0ae3 12       		.byte	0x12
 3397 0ae4 C2       		.byte	0xc2
 3398 0ae5 39100000 		.4byte	0x1039
 3399 0ae9 18       		.byte	0x18
 3400 0aea 09       		.uleb128 0x9
 3401 0aeb D4150000 		.4byte	.LASF211
 3402 0aef 12       		.byte	0x12
 3403 0af0 C3       		.byte	0xc3
 3404 0af1 65100000 		.4byte	0x1065
 3405 0af5 1C       		.byte	0x1c
 3406 0af6 09       		.uleb128 0x9
 3407 0af7 06140000 		.4byte	.LASF212
 3408 0afb 12       		.byte	0x12
 3409 0afc C4       		.byte	0xc4
 3410 0afd 7F0F0000 		.4byte	0xf7f
 3411 0b01 20       		.byte	0x20
 3412 0b02 09       		.uleb128 0x9
 3413 0b03 43140000 		.4byte	.LASF213
ARM GAS  C:\Users\tmj32\AppData\Local\Temp\ccs01wAd.s 			page 85


 3414 0b07 12       		.byte	0x12
 3415 0b08 C6       		.byte	0xc6
 3416 0b09 B4000000 		.4byte	0xb4
 3417 0b0d 24       		.byte	0x24
 3418 0b0e 09       		.uleb128 0x9
 3419 0b0f 84070000 		.4byte	.LASF214
 3420 0b13 12       		.byte	0x12
 3421 0b14 C7       		.byte	0xc7
 3422 0b15 9D110000 		.4byte	0x119d
 3423 0b19 28       		.byte	0x28
 3424 0b1a 1C       		.uleb128 0x1c
 3425 0b1b 81050000 		.4byte	.LASF215
 3426 0b1f 12       		.byte	0x12
 3427 0b20 D7       		.byte	0xd7
 3428 0b21 D5000000 		.4byte	0xd5
 3429 0b25 01       		.byte	0x1
 3430 0b26 01       		.byte	0x1
 3431 0b27 07       		.byte	0x7
 3432 0b28 2C       		.byte	0x2c
 3433 0b29 1C       		.uleb128 0x1c
 3434 0b2a 87150000 		.4byte	.LASF216
 3435 0b2e 12       		.byte	0x12
 3436 0b2f D8       		.byte	0xd8
 3437 0b30 D5000000 		.4byte	0xd5
 3438 0b34 01       		.byte	0x1
 3439 0b35 01       		.byte	0x1
 3440 0b36 06       		.byte	0x6
 3441 0b37 2C       		.byte	0x2c
 3442 0b38 1C       		.uleb128 0x1c
 3443 0b39 92010000 		.4byte	.LASF217
 3444 0b3d 12       		.byte	0x12
 3445 0b3e D9       		.byte	0xd9
 3446 0b3f D5000000 		.4byte	0xd5
 3447 0b43 01       		.byte	0x1
 3448 0b44 01       		.byte	0x1
 3449 0b45 05       		.byte	0x5
 3450 0b46 2C       		.byte	0x2c
 3451 0b47 1C       		.uleb128 0x1c
 3452 0b48 BF090000 		.4byte	.LASF218
 3453 0b4c 12       		.byte	0x12
 3454 0b4d DA       		.byte	0xda
 3455 0b4e D5000000 		.4byte	0xd5
 3456 0b52 01       		.byte	0x1
 3457 0b53 01       		.byte	0x1
 3458 0b54 04       		.byte	0x4
 3459 0b55 2C       		.byte	0x2c
 3460 0b56 1C       		.uleb128 0x1c
 3461 0b57 86140000 		.4byte	.LASF219
 3462 0b5b 12       		.byte	0x12
 3463 0b5c DB       		.byte	0xdb
 3464 0b5d D5000000 		.4byte	0xd5
 3465 0b61 01       		.byte	0x1
 3466 0b62 01       		.byte	0x1
 3467 0b63 03       		.byte	0x3
 3468 0b64 2C       		.byte	0x2c
 3469 0b65 1D       		.uleb128 0x1d
 3470 0b66 746F7000 		.ascii	"top\000"
ARM GAS  C:\Users\tmj32\AppData\Local\Temp\ccs01wAd.s 			page 86


 3471 0b6a 12       		.byte	0x12
 3472 0b6b DC       		.byte	0xdc
 3473 0b6c D5000000 		.4byte	0xd5
 3474 0b70 01       		.byte	0x1
 3475 0b71 01       		.byte	0x1
 3476 0b72 02       		.byte	0x2
 3477 0b73 2C       		.byte	0x2c
 3478 0b74 1C       		.uleb128 0x1c
 3479 0b75 31110000 		.4byte	.LASF220
 3480 0b79 12       		.byte	0x12
 3481 0b7a DD       		.byte	0xdd
 3482 0b7b D5000000 		.4byte	0xd5
 3483 0b7f 01       		.byte	0x1
 3484 0b80 01       		.byte	0x1
 3485 0b81 01       		.byte	0x1
 3486 0b82 2C       		.byte	0x2c
 3487 0b83 1C       		.uleb128 0x1c
 3488 0b84 63010000 		.4byte	.LASF221
 3489 0b88 12       		.byte	0x12
 3490 0b89 DE       		.byte	0xde
 3491 0b8a D5000000 		.4byte	0xd5
 3492 0b8e 01       		.byte	0x1
 3493 0b8f 01       		.byte	0x1
 3494 0b90 00       		.byte	0
 3495 0b91 2C       		.byte	0x2c
 3496 0b92 1C       		.uleb128 0x1c
 3497 0b93 B70A0000 		.4byte	.LASF222
 3498 0b97 12       		.byte	0x12
 3499 0b98 DF       		.byte	0xdf
 3500 0b99 92110000 		.4byte	0x1192
 3501 0b9d 01       		.byte	0x1
 3502 0b9e 02       		.byte	0x2
 3503 0b9f 06       		.byte	0x6
 3504 0ba0 2D       		.byte	0x2d
 3505 0ba1 1C       		.uleb128 0x1c
 3506 0ba2 5A010000 		.4byte	.LASF223
 3507 0ba6 12       		.byte	0x12
 3508 0ba7 E0       		.byte	0xe0
 3509 0ba8 690F0000 		.4byte	0xf69
 3510 0bac 01       		.byte	0x1
 3511 0bad 02       		.byte	0x2
 3512 0bae 04       		.byte	0x4
 3513 0baf 2D       		.byte	0x2d
 3514 0bb0 1C       		.uleb128 0x1c
 3515 0bb1 27150000 		.4byte	.LASF224
 3516 0bb5 12       		.byte	0x12
 3517 0bb6 E1       		.byte	0xe1
 3518 0bb7 D5000000 		.4byte	0xd5
 3519 0bbb 01       		.byte	0x1
 3520 0bbc 03       		.byte	0x3
 3521 0bbd 01       		.byte	0x1
 3522 0bbe 2D       		.byte	0x2d
 3523 0bbf 09       		.uleb128 0x9
 3524 0bc0 E4120000 		.4byte	.LASF225
 3525 0bc4 12       		.byte	0x12
 3526 0bc5 E2       		.byte	0xe2
 3527 0bc6 D5000000 		.4byte	0xd5
ARM GAS  C:\Users\tmj32\AppData\Local\Temp\ccs01wAd.s 			page 87


 3528 0bca 2E       		.byte	0x2e
 3529 0bcb 09       		.uleb128 0x9
 3530 0bcc BB120000 		.4byte	.LASF226
 3531 0bd0 12       		.byte	0x12
 3532 0bd1 E4       		.byte	0xe4
 3533 0bd2 570A0000 		.4byte	0xa57
 3534 0bd6 2F       		.byte	0x2f
 3535 0bd7 09       		.uleb128 0x9
 3536 0bd8 F6090000 		.4byte	.LASF227
 3537 0bdc 12       		.byte	0x12
 3538 0bdd E6       		.byte	0xe6
 3539 0bde 8A090000 		.4byte	0x98a
 3540 0be2 30       		.byte	0x30
 3541 0be3 09       		.uleb128 0x9
 3542 0be4 CB040000 		.4byte	.LASF228
 3543 0be8 12       		.byte	0x12
 3544 0be9 E9       		.byte	0xe9
 3545 0bea 87110000 		.4byte	0x1187
 3546 0bee 34       		.byte	0x34
 3547 0bef 00       		.byte	0
 3548 0bf0 06       		.uleb128 0x6
 3549 0bf1 04       		.byte	0x4
 3550 0bf2 AE0A0000 		.4byte	0xaae
 3551 0bf6 08       		.uleb128 0x8
 3552 0bf7 08       		.byte	0x8
 3553 0bf8 13       		.byte	0x13
 3554 0bf9 2E       		.byte	0x2e
 3555 0bfa 470C0000 		.4byte	0xc47
 3556 0bfe 09       		.uleb128 0x9
 3557 0bff 74170000 		.4byte	.LASF229
 3558 0c03 13       		.byte	0x13
 3559 0c04 30       		.byte	0x30
 3560 0c05 EB000000 		.4byte	0xeb
 3561 0c09 00       		.byte	0
 3562 0c0a 09       		.uleb128 0x9
 3563 0c0b 6A120000 		.4byte	.LASF230
 3564 0c0f 13       		.byte	0x13
 3565 0c10 31       		.byte	0x31
 3566 0c11 D5000000 		.4byte	0xd5
 3567 0c15 02       		.byte	0x2
 3568 0c16 09       		.uleb128 0x9
 3569 0c17 D1110000 		.4byte	.LASF231
 3570 0c1b 13       		.byte	0x13
 3571 0c1c 32       		.byte	0x32
 3572 0c1d D5000000 		.4byte	0xd5
 3573 0c21 03       		.byte	0x3
 3574 0c22 09       		.uleb128 0x9
 3575 0c23 AA010000 		.4byte	.LASF232
 3576 0c27 13       		.byte	0x13
 3577 0c28 33       		.byte	0x33
 3578 0c29 CA000000 		.4byte	0xca
 3579 0c2d 04       		.byte	0x4
 3580 0c2e 09       		.uleb128 0x9
 3581 0c2f B0010000 		.4byte	.LASF233
 3582 0c33 13       		.byte	0x13
 3583 0c34 34       		.byte	0x34
 3584 0c35 CA000000 		.4byte	0xca
ARM GAS  C:\Users\tmj32\AppData\Local\Temp\ccs01wAd.s 			page 88


 3585 0c39 05       		.byte	0x5
 3586 0c3a 14       		.uleb128 0x14
 3587 0c3b 62707000 		.ascii	"bpp\000"
 3588 0c3f 13       		.byte	0x13
 3589 0c40 35       		.byte	0x35
 3590 0c41 D5000000 		.4byte	0xd5
 3591 0c45 06       		.byte	0x6
 3592 0c46 00       		.byte	0
 3593 0c47 02       		.uleb128 0x2
 3594 0c48 400A0000 		.4byte	.LASF234
 3595 0c4c 13       		.byte	0x13
 3596 0c4d 36       		.byte	0x36
 3597 0c4e F60B0000 		.4byte	0xbf6
 3598 0c52 12       		.uleb128 0x12
 3599 0c53 52080000 		.4byte	.LASF235
 3600 0c57 10       		.byte	0x10
 3601 0c58 13       		.byte	0x13
 3602 0c59 44       		.byte	0x44
 3603 0c5a AA0C0000 		.4byte	0xcaa
 3604 0c5e 09       		.uleb128 0x9
 3605 0c5f D3010000 		.4byte	.LASF236
 3606 0c63 13       		.byte	0x13
 3607 0c64 47       		.byte	0x47
 3608 0c65 D90C0000 		.4byte	0xcd9
 3609 0c69 00       		.byte	0
 3610 0c6a 09       		.uleb128 0x9
 3611 0c6b 74130000 		.4byte	.LASF237
 3612 0c6f 13       		.byte	0x13
 3613 0c70 4A       		.byte	0x4a
 3614 0c71 FE0C0000 		.4byte	0xcfe
 3615 0c75 04       		.byte	0x4
 3616 0c76 09       		.uleb128 0x9
 3617 0c77 C9080000 		.4byte	.LASF238
 3618 0c7b 13       		.byte	0x13
 3619 0c7c 4D       		.byte	0x4d
 3620 0c7d D5000000 		.4byte	0xd5
 3621 0c81 08       		.byte	0x8
 3622 0c82 09       		.uleb128 0x9
 3623 0c83 9E120000 		.4byte	.LASF239
 3624 0c87 13       		.byte	0x13
 3625 0c88 4E       		.byte	0x4e
 3626 0c89 CA000000 		.4byte	0xca
 3627 0c8d 09       		.byte	0x9
 3628 0c8e 1C       		.uleb128 0x1c
 3629 0c8f F00D0000 		.4byte	.LASF240
 3630 0c93 13       		.byte	0x13
 3631 0c94 4F       		.byte	0x4f
 3632 0c95 D5000000 		.4byte	0xd5
 3633 0c99 01       		.byte	0x1
 3634 0c9a 02       		.byte	0x2
 3635 0c9b 06       		.byte	0x6
 3636 0c9c 0A       		.byte	0xa
 3637 0c9d 14       		.uleb128 0x14
 3638 0c9e 64736300 		.ascii	"dsc\000"
 3639 0ca2 13       		.byte	0x13
 3640 0ca3 50       		.byte	0x50
 3641 0ca4 B4000000 		.4byte	0xb4
ARM GAS  C:\Users\tmj32\AppData\Local\Temp\ccs01wAd.s 			page 89


 3642 0ca8 0C       		.byte	0xc
 3643 0ca9 00       		.byte	0
 3644 0caa 0F       		.uleb128 0xf
 3645 0cab 3B050000 		.4byte	0x53b
 3646 0caf C80C0000 		.4byte	0xcc8
 3647 0cb3 0E       		.uleb128 0xe
 3648 0cb4 C80C0000 		.4byte	0xcc8
 3649 0cb8 0E       		.uleb128 0xe
 3650 0cb9 D30C0000 		.4byte	0xcd3
 3651 0cbd 0E       		.uleb128 0xe
 3652 0cbe 01010000 		.4byte	0x101
 3653 0cc2 0E       		.uleb128 0xe
 3654 0cc3 01010000 		.4byte	0x101
 3655 0cc7 00       		.byte	0
 3656 0cc8 06       		.uleb128 0x6
 3657 0cc9 04       		.byte	0x4
 3658 0cca CE0C0000 		.4byte	0xcce
 3659 0cce 1B       		.uleb128 0x1b
 3660 0ccf 520C0000 		.4byte	0xc52
 3661 0cd3 06       		.uleb128 0x6
 3662 0cd4 04       		.byte	0x4
 3663 0cd5 470C0000 		.4byte	0xc47
 3664 0cd9 06       		.uleb128 0x6
 3665 0cda 04       		.byte	0x4
 3666 0cdb AA0C0000 		.4byte	0xcaa
 3667 0cdf 0F       		.uleb128 0xf
 3668 0ce0 F30C0000 		.4byte	0xcf3
 3669 0ce4 F30C0000 		.4byte	0xcf3
 3670 0ce8 0E       		.uleb128 0xe
 3671 0ce9 C80C0000 		.4byte	0xcc8
 3672 0ced 0E       		.uleb128 0xe
 3673 0cee 01010000 		.4byte	0x101
 3674 0cf2 00       		.byte	0
 3675 0cf3 06       		.uleb128 0x6
 3676 0cf4 04       		.byte	0x4
 3677 0cf5 F90C0000 		.4byte	0xcf9
 3678 0cf9 1B       		.uleb128 0x1b
 3679 0cfa D5000000 		.4byte	0xd5
 3680 0cfe 06       		.uleb128 0x6
 3681 0cff 04       		.byte	0x4
 3682 0d00 DF0C0000 		.4byte	0xcdf
 3683 0d04 02       		.uleb128 0x2
 3684 0d05 7B0F0000 		.4byte	.LASF241
 3685 0d09 13       		.byte	0x13
 3686 0d0a 56       		.byte	0x56
 3687 0d0b 520C0000 		.4byte	0xc52
 3688 0d0f 1E       		.uleb128 0x1e
 3689 0d10 01       		.byte	0x1
 3690 0d11 42000000 		.4byte	0x42
 3691 0d15 14       		.byte	0x14
 3692 0d16 23       		.byte	0x23
 3693 0d17 280D0000 		.4byte	0xd28
 3694 0d1b 0B       		.uleb128 0xb
 3695 0d1c A8120000 		.4byte	.LASF242
 3696 0d20 00       		.byte	0
 3697 0d21 0B       		.uleb128 0xb
 3698 0d22 910D0000 		.4byte	.LASF243
ARM GAS  C:\Users\tmj32\AppData\Local\Temp\ccs01wAd.s 			page 90


 3699 0d26 01       		.byte	0x1
 3700 0d27 00       		.byte	0
 3701 0d28 02       		.uleb128 0x2
 3702 0d29 32140000 		.4byte	.LASF244
 3703 0d2d 14       		.byte	0x14
 3704 0d2e 28       		.byte	0x28
 3705 0d2f D5000000 		.4byte	0xd5
 3706 0d33 02       		.uleb128 0x2
 3707 0d34 4A110000 		.4byte	.LASF245
 3708 0d38 15       		.byte	0x15
 3709 0d39 2C       		.byte	0x2c
 3710 0d3a D5000000 		.4byte	0xd5
 3711 0d3e 02       		.uleb128 0x2
 3712 0d3f F80A0000 		.4byte	.LASF246
 3713 0d43 15       		.byte	0x15
 3714 0d44 33       		.byte	0x33
 3715 0d45 D5000000 		.4byte	0xd5
 3716 0d49 08       		.uleb128 0x8
 3717 0d4a 08       		.byte	0x8
 3718 0d4b 15       		.byte	0x15
 3719 0d4c 48       		.byte	0x48
 3720 0d4d 820D0000 		.4byte	0xd82
 3721 0d51 09       		.uleb128 0x9
 3722 0d52 38070000 		.4byte	.LASF247
 3723 0d56 15       		.byte	0x15
 3724 0d57 4A       		.byte	0x4a
 3725 0d58 4B0A0000 		.4byte	0xa4b
 3726 0d5c 00       		.byte	0
 3727 0d5d 09       		.uleb128 0x9
 3728 0d5e A5070000 		.4byte	.LASF248
 3729 0d62 15       		.byte	0x15
 3730 0d63 4B       		.byte	0x4b
 3731 0d64 8A090000 		.4byte	0x98a
 3732 0d68 04       		.byte	0x4
 3733 0d69 09       		.uleb128 0x9
 3734 0d6a 3D060000 		.4byte	.LASF249
 3735 0d6e 15       		.byte	0x15
 3736 0d6f 4C       		.byte	0x4c
 3737 0d70 330D0000 		.4byte	0xd33
 3738 0d74 06       		.byte	0x6
 3739 0d75 14       		.uleb128 0x14
 3740 0d76 6F706100 		.ascii	"opa\000"
 3741 0d7a 15       		.byte	0x15
 3742 0d7b 4D       		.byte	0x4d
 3743 0d7c 570A0000 		.4byte	0xa57
 3744 0d80 07       		.byte	0x7
 3745 0d81 00       		.byte	0
 3746 0d82 08       		.uleb128 0x8
 3747 0d83 08       		.byte	0x8
 3748 0d84 15       		.byte	0x15
 3749 0d85 51       		.byte	0x51
 3750 0d86 AF0D0000 		.4byte	0xdaf
 3751 0d8a 09       		.uleb128 0x9
 3752 0d8b 38070000 		.4byte	.LASF247
 3753 0d8f 15       		.byte	0x15
 3754 0d90 53       		.byte	0x53
 3755 0d91 4B0A0000 		.4byte	0xa4b
ARM GAS  C:\Users\tmj32\AppData\Local\Temp\ccs01wAd.s 			page 91


 3756 0d95 00       		.byte	0
 3757 0d96 09       		.uleb128 0x9
 3758 0d97 A5070000 		.4byte	.LASF248
 3759 0d9b 15       		.byte	0x15
 3760 0d9c 54       		.byte	0x54
 3761 0d9d 8A090000 		.4byte	0x98a
 3762 0da1 04       		.byte	0x4
 3763 0da2 09       		.uleb128 0x9
 3764 0da3 A10A0000 		.4byte	.LASF250
 3765 0da7 15       		.byte	0x15
 3766 0da8 55       		.byte	0x55
 3767 0da9 3E0D0000 		.4byte	0xd3e
 3768 0dad 06       		.byte	0x6
 3769 0dae 00       		.byte	0
 3770 0daf 08       		.uleb128 0x8
 3771 0db0 0A       		.byte	0xa
 3772 0db1 15       		.byte	0x15
 3773 0db2 58       		.byte	0x58
 3774 0db3 F40D0000 		.4byte	0xdf4
 3775 0db7 14       		.uleb128 0x14
 3776 0db8 746F7000 		.ascii	"top\000"
 3777 0dbc 15       		.byte	0x15
 3778 0dbd 5A       		.byte	0x5a
 3779 0dbe 8A090000 		.4byte	0x98a
 3780 0dc2 00       		.byte	0
 3781 0dc3 09       		.uleb128 0x9
 3782 0dc4 030A0000 		.4byte	.LASF251
 3783 0dc8 15       		.byte	0x15
 3784 0dc9 5B       		.byte	0x5b
 3785 0dca 8A090000 		.4byte	0x98a
 3786 0dce 02       		.byte	0x2
 3787 0dcf 09       		.uleb128 0x9
 3788 0dd0 5B110000 		.4byte	.LASF252
 3789 0dd4 15       		.byte	0x15
 3790 0dd5 5C       		.byte	0x5c
 3791 0dd6 8A090000 		.4byte	0x98a
 3792 0dda 04       		.byte	0x4
 3793 0ddb 09       		.uleb128 0x9
 3794 0ddc 360B0000 		.4byte	.LASF253
 3795 0de0 15       		.byte	0x15
 3796 0de1 5D       		.byte	0x5d
 3797 0de2 8A090000 		.4byte	0x98a
 3798 0de6 06       		.byte	0x6
 3799 0de7 09       		.uleb128 0x9
 3800 0de8 DF040000 		.4byte	.LASF254
 3801 0dec 15       		.byte	0x15
 3802 0ded 5E       		.byte	0x5e
 3803 0dee 8A090000 		.4byte	0x98a
 3804 0df2 08       		.byte	0x8
 3805 0df3 00       		.byte	0
 3806 0df4 08       		.uleb128 0x8
 3807 0df5 28       		.byte	0x28
 3808 0df6 15       		.byte	0x15
 3809 0df7 41       		.byte	0x41
 3810 0df8 510E0000 		.4byte	0xe51
 3811 0dfc 09       		.uleb128 0x9
 3812 0dfd A70F0000 		.4byte	.LASF255
ARM GAS  C:\Users\tmj32\AppData\Local\Temp\ccs01wAd.s 			page 92


 3813 0e01 15       		.byte	0x15
 3814 0e02 43       		.byte	0x43
 3815 0e03 4B0A0000 		.4byte	0xa4b
 3816 0e07 00       		.byte	0
 3817 0e08 09       		.uleb128 0x9
 3818 0e09 33090000 		.4byte	.LASF256
 3819 0e0d 15       		.byte	0x15
 3820 0e0e 44       		.byte	0x44
 3821 0e0f 4B0A0000 		.4byte	0xa4b
 3822 0e13 04       		.byte	0x4
 3823 0e14 09       		.uleb128 0x9
 3824 0e15 B4120000 		.4byte	.LASF257
 3825 0e19 15       		.byte	0x15
 3826 0e1a 45       		.byte	0x45
 3827 0e1b 8A090000 		.4byte	0x98a
 3828 0e1f 08       		.byte	0x8
 3829 0e20 14       		.uleb128 0x14
 3830 0e21 6F706100 		.ascii	"opa\000"
 3831 0e25 15       		.byte	0x15
 3832 0e26 46       		.byte	0x46
 3833 0e27 570A0000 		.4byte	0xa57
 3834 0e2b 0A       		.byte	0xa
 3835 0e2c 09       		.uleb128 0x9
 3836 0e2d DB100000 		.4byte	.LASF258
 3837 0e31 15       		.byte	0x15
 3838 0e32 4E       		.byte	0x4e
 3839 0e33 490D0000 		.4byte	0xd49
 3840 0e37 0C       		.byte	0xc
 3841 0e38 09       		.uleb128 0x9
 3842 0e39 010E0000 		.4byte	.LASF259
 3843 0e3d 15       		.byte	0x15
 3844 0e3e 56       		.byte	0x56
 3845 0e3f 820D0000 		.4byte	0xd82
 3846 0e43 14       		.byte	0x14
 3847 0e44 09       		.uleb128 0x9
 3848 0e45 B00B0000 		.4byte	.LASF260
 3849 0e49 15       		.byte	0x15
 3850 0e4a 5F       		.byte	0x5f
 3851 0e4b AF0D0000 		.4byte	0xdaf
 3852 0e4f 1C       		.byte	0x1c
 3853 0e50 00       		.byte	0
 3854 0e51 08       		.uleb128 0x8
 3855 0e52 14       		.byte	0x14
 3856 0e53 15       		.byte	0x15
 3857 0e54 63       		.byte	0x63
 3858 0e55 A20E0000 		.4byte	0xea2
 3859 0e59 09       		.uleb128 0x9
 3860 0e5a 38070000 		.4byte	.LASF247
 3861 0e5e 15       		.byte	0x15
 3862 0e5f 65       		.byte	0x65
 3863 0e60 4B0A0000 		.4byte	0xa4b
 3864 0e64 00       		.byte	0
 3865 0e65 09       		.uleb128 0x9
 3866 0e66 77050000 		.4byte	.LASF261
 3867 0e6a 15       		.byte	0x15
 3868 0e6b 66       		.byte	0x66
 3869 0e6c 4B0A0000 		.4byte	0xa4b
ARM GAS  C:\Users\tmj32\AppData\Local\Temp\ccs01wAd.s 			page 93


 3870 0e70 04       		.byte	0x4
 3871 0e71 09       		.uleb128 0x9
 3872 0e72 85020000 		.4byte	.LASF262
 3873 0e76 15       		.byte	0x15
 3874 0e77 67       		.byte	0x67
 3875 0e78 A20E0000 		.4byte	0xea2
 3876 0e7c 08       		.byte	0x8
 3877 0e7d 09       		.uleb128 0x9
 3878 0e7e 850F0000 		.4byte	.LASF263
 3879 0e82 15       		.byte	0x15
 3880 0e83 68       		.byte	0x68
 3881 0e84 8A090000 		.4byte	0x98a
 3882 0e88 0C       		.byte	0xc
 3883 0e89 09       		.uleb128 0x9
 3884 0e8a B5110000 		.4byte	.LASF264
 3885 0e8e 15       		.byte	0x15
 3886 0e8f 69       		.byte	0x69
 3887 0e90 8A090000 		.4byte	0x98a
 3888 0e94 0E       		.byte	0xe
 3889 0e95 14       		.uleb128 0x14
 3890 0e96 6F706100 		.ascii	"opa\000"
 3891 0e9a 15       		.byte	0x15
 3892 0e9b 6A       		.byte	0x6a
 3893 0e9c 570A0000 		.4byte	0xa57
 3894 0ea0 10       		.byte	0x10
 3895 0ea1 00       		.byte	0
 3896 0ea2 06       		.uleb128 0x6
 3897 0ea3 04       		.byte	0x4
 3898 0ea4 A80E0000 		.4byte	0xea8
 3899 0ea8 1B       		.uleb128 0x1b
 3900 0ea9 040D0000 		.4byte	0xd04
 3901 0ead 08       		.uleb128 0x8
 3902 0eae 08       		.byte	0x8
 3903 0eaf 15       		.byte	0x15
 3904 0eb0 6E       		.byte	0x6e
 3905 0eb1 DA0E0000 		.4byte	0xeda
 3906 0eb5 09       		.uleb128 0x9
 3907 0eb6 38070000 		.4byte	.LASF247
 3908 0eba 15       		.byte	0x15
 3909 0ebb 70       		.byte	0x70
 3910 0ebc 4B0A0000 		.4byte	0xa4b
 3911 0ec0 00       		.byte	0
 3912 0ec1 09       		.uleb128 0x9
 3913 0ec2 60110000 		.4byte	.LASF265
 3914 0ec6 15       		.byte	0x15
 3915 0ec7 71       		.byte	0x71
 3916 0ec8 570A0000 		.4byte	0xa57
 3917 0ecc 04       		.byte	0x4
 3918 0ecd 14       		.uleb128 0x14
 3919 0ece 6F706100 		.ascii	"opa\000"
 3920 0ed2 15       		.byte	0x15
 3921 0ed3 72       		.byte	0x72
 3922 0ed4 570A0000 		.4byte	0xa57
 3923 0ed8 05       		.byte	0x5
 3924 0ed9 00       		.byte	0
 3925 0eda 08       		.uleb128 0x8
 3926 0edb 08       		.byte	0x8
ARM GAS  C:\Users\tmj32\AppData\Local\Temp\ccs01wAd.s 			page 94


 3927 0edc 15       		.byte	0x15
 3928 0edd 76       		.byte	0x76
 3929 0ede 160F0000 		.4byte	0xf16
 3930 0ee2 09       		.uleb128 0x9
 3931 0ee3 38070000 		.4byte	.LASF247
 3932 0ee7 15       		.byte	0x15
 3933 0ee8 78       		.byte	0x78
 3934 0ee9 4B0A0000 		.4byte	0xa4b
 3935 0eed 00       		.byte	0
 3936 0eee 09       		.uleb128 0x9
 3937 0eef A5070000 		.4byte	.LASF248
 3938 0ef3 15       		.byte	0x15
 3939 0ef4 79       		.byte	0x79
 3940 0ef5 8A090000 		.4byte	0x98a
 3941 0ef9 04       		.byte	0x4
 3942 0efa 14       		.uleb128 0x14
 3943 0efb 6F706100 		.ascii	"opa\000"
 3944 0eff 15       		.byte	0x15
 3945 0f00 7A       		.byte	0x7a
 3946 0f01 570A0000 		.4byte	0xa57
 3947 0f05 06       		.byte	0x6
 3948 0f06 1C       		.uleb128 0x1c
 3949 0f07 5D070000 		.4byte	.LASF266
 3950 0f0b 15       		.byte	0x15
 3951 0f0c 7B       		.byte	0x7b
 3952 0f0d D5000000 		.4byte	0xd5
 3953 0f11 01       		.byte	0x1
 3954 0f12 01       		.byte	0x1
 3955 0f13 07       		.byte	0x7
 3956 0f14 07       		.byte	0x7
 3957 0f15 00       		.byte	0
 3958 0f16 08       		.uleb128 0x8
 3959 0f17 50       		.byte	0x50
 3960 0f18 15       		.byte	0x15
 3961 0f19 3C       		.byte	0x3c
 3962 0f1a 5E0F0000 		.4byte	0xf5e
 3963 0f1e 1C       		.uleb128 0x1c
 3964 0f1f F5160000 		.4byte	.LASF267
 3965 0f23 15       		.byte	0x15
 3966 0f24 3E       		.byte	0x3e
 3967 0f25 D5000000 		.4byte	0xd5
 3968 0f29 01       		.byte	0x1
 3969 0f2a 01       		.byte	0x1
 3970 0f2b 07       		.byte	0x7
 3971 0f2c 00       		.byte	0
 3972 0f2d 09       		.uleb128 0x9
 3973 0f2e C5120000 		.4byte	.LASF268
 3974 0f32 15       		.byte	0x15
 3975 0f33 60       		.byte	0x60
 3976 0f34 F40D0000 		.4byte	0xdf4
 3977 0f38 04       		.byte	0x4
 3978 0f39 09       		.uleb128 0x9
 3979 0f3a 890B0000 		.4byte	.LASF269
 3980 0f3e 15       		.byte	0x15
 3981 0f3f 6B       		.byte	0x6b
 3982 0f40 510E0000 		.4byte	0xe51
 3983 0f44 2C       		.byte	0x2c
ARM GAS  C:\Users\tmj32\AppData\Local\Temp\ccs01wAd.s 			page 95


 3984 0f45 09       		.uleb128 0x9
 3985 0f46 1A040000 		.4byte	.LASF270
 3986 0f4a 15       		.byte	0x15
 3987 0f4b 73       		.byte	0x73
 3988 0f4c AD0E0000 		.4byte	0xead
 3989 0f50 40       		.byte	0x40
 3990 0f51 09       		.uleb128 0x9
 3991 0f52 42130000 		.4byte	.LASF271
 3992 0f56 15       		.byte	0x15
 3993 0f57 7C       		.byte	0x7c
 3994 0f58 DA0E0000 		.4byte	0xeda
 3995 0f5c 48       		.byte	0x48
 3996 0f5d 00       		.byte	0
 3997 0f5e 02       		.uleb128 0x2
 3998 0f5f E1010000 		.4byte	.LASF272
 3999 0f63 15       		.byte	0x15
 4000 0f64 84       		.byte	0x84
 4001 0f65 160F0000 		.4byte	0xf16
 4002 0f69 02       		.uleb128 0x2
 4003 0f6a 4E0C0000 		.4byte	.LASF273
 4004 0f6e 16       		.byte	0x16
 4005 0f6f 30       		.byte	0x30
 4006 0f70 D5000000 		.4byte	0xd5
 4007 0f74 02       		.uleb128 0x2
 4008 0f75 CE130000 		.4byte	.LASF274
 4009 0f79 12       		.byte	0x12
 4010 0f7a 42       		.byte	0x42
 4011 0f7b D5000000 		.4byte	0xd5
 4012 0f7f 02       		.uleb128 0x2
 4013 0f80 43020000 		.4byte	.LASF275
 4014 0f84 12       		.byte	0x12
 4015 0f85 48       		.byte	0x48
 4016 0f86 8A0F0000 		.4byte	0xf8a
 4017 0f8a 06       		.uleb128 0x6
 4018 0f8b 04       		.byte	0x4
 4019 0f8c 900F0000 		.4byte	0xf90
 4020 0f90 0F       		.uleb128 0xf
 4021 0f91 3B050000 		.4byte	0x53b
 4022 0f95 A90F0000 		.4byte	0xfa9
 4023 0f99 0E       		.uleb128 0xe
 4024 0f9a F00B0000 		.4byte	0xbf0
 4025 0f9e 0E       		.uleb128 0xe
 4026 0f9f A30A0000 		.4byte	0xaa3
 4027 0fa3 0E       		.uleb128 0xe
 4028 0fa4 740F0000 		.4byte	0xf74
 4029 0fa8 00       		.byte	0
 4030 0fa9 1E       		.uleb128 0x1e
 4031 0faa 01       		.byte	0x1
 4032 0fab 42000000 		.4byte	0x42
 4033 0faf 12       		.byte	0x12
 4034 0fb0 4A       		.byte	0x4a
 4035 0fb1 2E100000 		.4byte	0x102e
 4036 0fb5 0B       		.uleb128 0xb
 4037 0fb6 77080000 		.4byte	.LASF276
 4038 0fba 00       		.byte	0
 4039 0fbb 0B       		.uleb128 0xb
 4040 0fbc E2100000 		.4byte	.LASF277
ARM GAS  C:\Users\tmj32\AppData\Local\Temp\ccs01wAd.s 			page 96


 4041 0fc0 01       		.byte	0x1
 4042 0fc1 0B       		.uleb128 0xb
 4043 0fc2 10080000 		.4byte	.LASF278
 4044 0fc6 02       		.byte	0x2
 4045 0fc7 0B       		.uleb128 0xb
 4046 0fc8 07160000 		.4byte	.LASF279
 4047 0fcc 03       		.byte	0x3
 4048 0fcd 0B       		.uleb128 0xb
 4049 0fce 2C170000 		.4byte	.LASF280
 4050 0fd2 04       		.byte	0x4
 4051 0fd3 0B       		.uleb128 0xb
 4052 0fd4 30150000 		.4byte	.LASF281
 4053 0fd8 05       		.byte	0x5
 4054 0fd9 0B       		.uleb128 0xb
 4055 0fda 320E0000 		.4byte	.LASF282
 4056 0fde 06       		.byte	0x6
 4057 0fdf 0B       		.uleb128 0xb
 4058 0fe0 C40F0000 		.4byte	.LASF283
 4059 0fe4 07       		.byte	0x7
 4060 0fe5 0B       		.uleb128 0xb
 4061 0fe6 390D0000 		.4byte	.LASF284
 4062 0fea 08       		.byte	0x8
 4063 0feb 0B       		.uleb128 0xb
 4064 0fec C2020000 		.4byte	.LASF285
 4065 0ff0 09       		.byte	0x9
 4066 0ff1 0B       		.uleb128 0xb
 4067 0ff2 0F130000 		.4byte	.LASF286
 4068 0ff6 0A       		.byte	0xa
 4069 0ff7 0B       		.uleb128 0xb
 4070 0ff8 82030000 		.4byte	.LASF287
 4071 0ffc 0B       		.byte	0xb
 4072 0ffd 0B       		.uleb128 0xb
 4073 0ffe D7110000 		.4byte	.LASF288
 4074 1002 0C       		.byte	0xc
 4075 1003 0B       		.uleb128 0xb
 4076 1004 260D0000 		.4byte	.LASF289
 4077 1008 0D       		.byte	0xd
 4078 1009 0B       		.uleb128 0xb
 4079 100a 0A010000 		.4byte	.LASF290
 4080 100e 0E       		.byte	0xe
 4081 100f 0B       		.uleb128 0xb
 4082 1010 33050000 		.4byte	.LASF291
 4083 1014 0F       		.byte	0xf
 4084 1015 0B       		.uleb128 0xb
 4085 1016 49010000 		.4byte	.LASF292
 4086 101a 10       		.byte	0x10
 4087 101b 0B       		.uleb128 0xb
 4088 101c A2020000 		.4byte	.LASF293
 4089 1020 11       		.byte	0x11
 4090 1021 0B       		.uleb128 0xb
 4091 1022 DD0A0000 		.4byte	.LASF294
 4092 1026 12       		.byte	0x12
 4093 1027 0B       		.uleb128 0xb
 4094 1028 E0070000 		.4byte	.LASF295
 4095 102c 13       		.byte	0x13
 4096 102d 00       		.byte	0
 4097 102e 02       		.uleb128 0x2
ARM GAS  C:\Users\tmj32\AppData\Local\Temp\ccs01wAd.s 			page 97


 4098 102f 5C0C0000 		.4byte	.LASF296
 4099 1033 12       		.byte	0x12
 4100 1034 61       		.byte	0x61
 4101 1035 D5000000 		.4byte	0xd5
 4102 1039 02       		.uleb128 0x2
 4103 103a 42170000 		.4byte	.LASF297
 4104 103e 12       		.byte	0x12
 4105 103f 68       		.byte	0x68
 4106 1040 44100000 		.4byte	0x1044
 4107 1044 06       		.uleb128 0x6
 4108 1045 04       		.byte	0x4
 4109 1046 4A100000 		.4byte	0x104a
 4110 104a 0D       		.uleb128 0xd
 4111 104b 5A100000 		.4byte	0x105a
 4112 104f 0E       		.uleb128 0xe
 4113 1050 F00B0000 		.4byte	0xbf0
 4114 1054 0E       		.uleb128 0xe
 4115 1055 2E100000 		.4byte	0x102e
 4116 1059 00       		.byte	0
 4117 105a 02       		.uleb128 0x2
 4118 105b CA120000 		.4byte	.LASF298
 4119 105f 12       		.byte	0x12
 4120 1060 88       		.byte	0x88
 4121 1061 D5000000 		.4byte	0xd5
 4122 1065 02       		.uleb128 0x2
 4123 1066 1A060000 		.4byte	.LASF299
 4124 106a 12       		.byte	0x12
 4125 106b 8A       		.byte	0x8a
 4126 106c 70100000 		.4byte	0x1070
 4127 1070 06       		.uleb128 0x6
 4128 1071 04       		.byte	0x4
 4129 1072 76100000 		.4byte	0x1076
 4130 1076 0F       		.uleb128 0xf
 4131 1077 95090000 		.4byte	0x995
 4132 107b 8F100000 		.4byte	0x108f
 4133 107f 0E       		.uleb128 0xe
 4134 1080 F00B0000 		.4byte	0xbf0
 4135 1084 0E       		.uleb128 0xe
 4136 1085 5A100000 		.4byte	0x105a
 4137 1089 0E       		.uleb128 0xe
 4138 108a B4000000 		.4byte	0xb4
 4139 108e 00       		.byte	0
 4140 108f 1E       		.uleb128 0x1e
 4141 1090 01       		.byte	0x1
 4142 1091 42000000 		.4byte	0x42
 4143 1095 12       		.byte	0x12
 4144 1096 8D       		.byte	0x8d
 4145 1097 1A110000 		.4byte	0x111a
 4146 109b 0B       		.uleb128 0xb
 4147 109c 82010000 		.4byte	.LASF300
 4148 10a0 00       		.byte	0
 4149 10a1 0B       		.uleb128 0xb
 4150 10a2 17170000 		.4byte	.LASF301
 4151 10a6 01       		.byte	0x1
 4152 10a7 0B       		.uleb128 0xb
 4153 10a8 D60F0000 		.4byte	.LASF302
 4154 10ac 02       		.byte	0x2
ARM GAS  C:\Users\tmj32\AppData\Local\Temp\ccs01wAd.s 			page 98


 4155 10ad 0B       		.uleb128 0xb
 4156 10ae 88120000 		.4byte	.LASF303
 4157 10b2 03       		.byte	0x3
 4158 10b3 0B       		.uleb128 0xb
 4159 10b4 70120000 		.4byte	.LASF304
 4160 10b8 04       		.byte	0x4
 4161 10b9 0B       		.uleb128 0xb
 4162 10ba ED0C0000 		.4byte	.LASF305
 4163 10be 05       		.byte	0x5
 4164 10bf 0B       		.uleb128 0xb
 4165 10c0 790A0000 		.4byte	.LASF306
 4166 10c4 06       		.byte	0x6
 4167 10c5 0B       		.uleb128 0xb
 4168 10c6 1F020000 		.4byte	.LASF307
 4169 10ca 07       		.byte	0x7
 4170 10cb 0B       		.uleb128 0xb
 4171 10cc BA0D0000 		.4byte	.LASF308
 4172 10d0 08       		.byte	0x8
 4173 10d1 0B       		.uleb128 0xb
 4174 10d2 D20E0000 		.4byte	.LASF309
 4175 10d6 09       		.byte	0x9
 4176 10d7 0B       		.uleb128 0xb
 4177 10d8 1F100000 		.4byte	.LASF310
 4178 10dc 0A       		.byte	0xa
 4179 10dd 0B       		.uleb128 0xb
 4180 10de 5D130000 		.4byte	.LASF311
 4181 10e2 0B       		.byte	0xb
 4182 10e3 0B       		.uleb128 0xb
 4183 10e4 60020000 		.4byte	.LASF312
 4184 10e8 0C       		.byte	0xc
 4185 10e9 0B       		.uleb128 0xb
 4186 10ea ED060000 		.4byte	.LASF313
 4187 10ee 0D       		.byte	0xd
 4188 10ef 0B       		.uleb128 0xb
 4189 10f0 57050000 		.4byte	.LASF314
 4190 10f4 0E       		.byte	0xe
 4191 10f5 0B       		.uleb128 0xb
 4192 10f6 680B0000 		.4byte	.LASF315
 4193 10fa 0F       		.byte	0xf
 4194 10fb 0B       		.uleb128 0xb
 4195 10fc 65070000 		.4byte	.LASF316
 4196 1100 10       		.byte	0x10
 4197 1101 0B       		.uleb128 0xb
 4198 1102 FE140000 		.4byte	.LASF317
 4199 1106 11       		.byte	0x11
 4200 1107 0B       		.uleb128 0xb
 4201 1108 F6040000 		.4byte	.LASF318
 4202 110c 12       		.byte	0x12
 4203 110d 0B       		.uleb128 0xb
 4204 110e FF110000 		.4byte	.LASF319
 4205 1112 13       		.byte	0x13
 4206 1113 0B       		.uleb128 0xb
 4207 1114 42060000 		.4byte	.LASF320
 4208 1118 14       		.byte	0x14
 4209 1119 00       		.byte	0
 4210 111a 02       		.uleb128 0x2
 4211 111b 87050000 		.4byte	.LASF321
ARM GAS  C:\Users\tmj32\AppData\Local\Temp\ccs01wAd.s 			page 99


 4212 111f 12       		.byte	0x12
 4213 1120 A4       		.byte	0xa4
 4214 1121 D5000000 		.4byte	0xd5
 4215 1125 08       		.uleb128 0x8
 4216 1126 0C       		.byte	0xc
 4217 1127 12       		.byte	0x12
 4218 1128 A7       		.byte	0xa7
 4219 1129 7C110000 		.4byte	0x117c
 4220 112d 09       		.uleb128 0x9
 4221 112e A4050000 		.4byte	.LASF322
 4222 1132 12       		.byte	0x12
 4223 1133 A9       		.byte	0xa9
 4224 1134 7C110000 		.4byte	0x117c
 4225 1138 00       		.byte	0
 4226 1139 09       		.uleb128 0x9
 4227 113a 020C0000 		.4byte	.LASF323
 4228 113e 12       		.byte	0x12
 4229 113f AA       		.byte	0xaa
 4230 1140 8A090000 		.4byte	0x98a
 4231 1144 04       		.byte	0x4
 4232 1145 09       		.uleb128 0x9
 4233 1146 34020000 		.4byte	.LASF324
 4234 114a 12       		.byte	0x12
 4235 114b AB       		.byte	0xab
 4236 114c 8A090000 		.4byte	0x98a
 4237 1150 06       		.byte	0x6
 4238 1151 09       		.uleb128 0x9
 4239 1152 E4160000 		.4byte	.LASF325
 4240 1156 12       		.byte	0x12
 4241 1157 AC       		.byte	0xac
 4242 1158 1A110000 		.4byte	0x111a
 4243 115c 08       		.byte	0x8
 4244 115d 1C       		.uleb128 0x1c
 4245 115e 8E0B0000 		.4byte	.LASF326
 4246 1162 12       		.byte	0x12
 4247 1163 AD       		.byte	0xad
 4248 1164 D5000000 		.4byte	0xd5
 4249 1168 01       		.byte	0x1
 4250 1169 01       		.byte	0x1
 4251 116a 07       		.byte	0x7
 4252 116b 09       		.byte	0x9
 4253 116c 1C       		.uleb128 0x1c
 4254 116d 8B0C0000 		.4byte	.LASF327
 4255 1171 12       		.byte	0x12
 4256 1172 AE       		.byte	0xae
 4257 1173 D5000000 		.4byte	0xd5
 4258 1177 01       		.byte	0x1
 4259 1178 01       		.byte	0x1
 4260 1179 06       		.byte	0x6
 4261 117a 09       		.byte	0x9
 4262 117b 00       		.byte	0
 4263 117c 06       		.uleb128 0x6
 4264 117d 04       		.byte	0x4
 4265 117e 82110000 		.4byte	0x1182
 4266 1182 1B       		.uleb128 0x1b
 4267 1183 AE0A0000 		.4byte	0xaae
 4268 1187 02       		.uleb128 0x2
ARM GAS  C:\Users\tmj32\AppData\Local\Temp\ccs01wAd.s 			page 100


 4269 1188 5D170000 		.4byte	.LASF328
 4270 118c 12       		.byte	0x12
 4271 118d B0       		.byte	0xb0
 4272 118e 25110000 		.4byte	0x1125
 4273 1192 02       		.uleb128 0x2
 4274 1193 DF0C0000 		.4byte	.LASF329
 4275 1197 12       		.byte	0x12
 4276 1198 B9       		.byte	0xb9
 4277 1199 D5000000 		.4byte	0xd5
 4278 119d 06       		.uleb128 0x6
 4279 119e 04       		.byte	0x4
 4280 119f A3110000 		.4byte	0x11a3
 4281 11a3 1B       		.uleb128 0x1b
 4282 11a4 5E0F0000 		.4byte	0xf5e
 4283 11a8 02       		.uleb128 0x2
 4284 11a9 FB030000 		.4byte	.LASF330
 4285 11ad 12       		.byte	0x12
 4286 11ae F0       		.byte	0xf0
 4287 11af AE0A0000 		.4byte	0xaae
 4288 11b3 1E       		.uleb128 0x1e
 4289 11b4 01       		.byte	0x1
 4290 11b5 42000000 		.4byte	0x42
 4291 11b9 17       		.byte	0x17
 4292 11ba 2A       		.byte	0x2a
 4293 11bb E4110000 		.4byte	0x11e4
 4294 11bf 0B       		.uleb128 0xb
 4295 11c0 87110000 		.4byte	.LASF331
 4296 11c4 00       		.byte	0
 4297 11c5 0B       		.uleb128 0xb
 4298 11c6 AB030000 		.4byte	.LASF332
 4299 11ca 01       		.byte	0x1
 4300 11cb 0B       		.uleb128 0xb
 4301 11cc F2150000 		.4byte	.LASF333
 4302 11d0 02       		.byte	0x2
 4303 11d1 0B       		.uleb128 0xb
 4304 11d2 93080000 		.4byte	.LASF334
 4305 11d6 03       		.byte	0x3
 4306 11d7 0B       		.uleb128 0xb
 4307 11d8 C0110000 		.4byte	.LASF335
 4308 11dc 04       		.byte	0x4
 4309 11dd 0B       		.uleb128 0xb
 4310 11de 60100000 		.4byte	.LASF336
 4311 11e2 05       		.byte	0x5
 4312 11e3 00       		.byte	0
 4313 11e4 1E       		.uleb128 0x1e
 4314 11e5 01       		.byte	0x1
 4315 11e6 42000000 		.4byte	0x42
 4316 11ea 18       		.byte	0x18
 4317 11eb 2F       		.byte	0x2f
 4318 11ec 15120000 		.4byte	0x1215
 4319 11f0 0B       		.uleb128 0xb
 4320 11f1 62080000 		.4byte	.LASF337
 4321 11f5 00       		.byte	0
 4322 11f6 0B       		.uleb128 0xb
 4323 11f7 170B0000 		.4byte	.LASF338
 4324 11fb 01       		.byte	0x1
 4325 11fc 0B       		.uleb128 0xb
ARM GAS  C:\Users\tmj32\AppData\Local\Temp\ccs01wAd.s 			page 101


 4326 11fd B6000000 		.4byte	.LASF339
 4327 1201 02       		.byte	0x2
 4328 1202 0B       		.uleb128 0xb
 4329 1203 E7050000 		.4byte	.LASF340
 4330 1207 03       		.byte	0x3
 4331 1208 0B       		.uleb128 0xb
 4332 1209 D60B0000 		.4byte	.LASF341
 4333 120d 04       		.byte	0x4
 4334 120e 0B       		.uleb128 0xb
 4335 120f EA130000 		.4byte	.LASF342
 4336 1213 05       		.byte	0x5
 4337 1214 00       		.byte	0
 4338 1215 15       		.uleb128 0x15
 4339 1216 C3000000 		.4byte	0xc3
 4340 121a 25120000 		.4byte	0x1225
 4341 121e 16       		.uleb128 0x16
 4342 121f B6000000 		.4byte	0xb6
 4343 1223 03       		.byte	0x3
 4344 1224 00       		.byte	0
 4345 1225 06       		.uleb128 0x6
 4346 1226 04       		.byte	0x4
 4347 1227 A8110000 		.4byte	0x11a8
 4348 122b 1E       		.uleb128 0x1e
 4349 122c 01       		.byte	0x1
 4350 122d 42000000 		.4byte	0x42
 4351 1231 19       		.byte	0x19
 4352 1232 2D       		.byte	0x2d
 4353 1233 5C120000 		.4byte	0x125c
 4354 1237 0B       		.uleb128 0xb
 4355 1238 B5130000 		.4byte	.LASF343
 4356 123c 00       		.byte	0
 4357 123d 0B       		.uleb128 0xb
 4358 123e FD070000 		.4byte	.LASF344
 4359 1242 01       		.byte	0x1
 4360 1243 0B       		.uleb128 0xb
 4361 1244 5C090000 		.4byte	.LASF345
 4362 1248 02       		.byte	0x2
 4363 1249 0B       		.uleb128 0xb
 4364 124a 12110000 		.4byte	.LASF346
 4365 124e 04       		.byte	0x4
 4366 124f 0B       		.uleb128 0xb
 4367 1250 4D150000 		.4byte	.LASF347
 4368 1254 08       		.byte	0x8
 4369 1255 0B       		.uleb128 0xb
 4370 1256 1E160000 		.4byte	.LASF348
 4371 125a 10       		.byte	0x10
 4372 125b 00       		.byte	0
 4373 125c 08       		.uleb128 0x8
 4374 125d 0C       		.byte	0xc
 4375 125e 19       		.byte	0x19
 4376 125f 3E       		.byte	0x3e
 4377 1260 89120000 		.4byte	0x1289
 4378 1264 09       		.uleb128 0x9
 4379 1265 10170000 		.4byte	.LASF349
 4380 1269 19       		.byte	0x19
 4381 126a 40       		.byte	0x40
 4382 126b 89120000 		.4byte	0x1289
ARM GAS  C:\Users\tmj32\AppData\Local\Temp\ccs01wAd.s 			page 102


 4383 126f 00       		.byte	0
 4384 1270 09       		.uleb128 0x9
 4385 1271 38070000 		.4byte	.LASF247
 4386 1275 19       		.byte	0x19
 4387 1276 41       		.byte	0x41
 4388 1277 4B0A0000 		.4byte	0xa4b
 4389 127b 04       		.byte	0x4
 4390 127c 09       		.uleb128 0x9
 4391 127d 3E110000 		.4byte	.LASF350
 4392 1281 19       		.byte	0x19
 4393 1282 42       		.byte	0x42
 4394 1283 EB000000 		.4byte	0xeb
 4395 1287 08       		.byte	0x8
 4396 1288 00       		.byte	0
 4397 1289 06       		.uleb128 0x6
 4398 128a 04       		.byte	0x4
 4399 128b 8A090000 		.4byte	0x98a
 4400 128f 02       		.uleb128 0x2
 4401 1290 BA100000 		.4byte	.LASF351
 4402 1294 19       		.byte	0x19
 4403 1295 43       		.byte	0x43
 4404 1296 5C120000 		.4byte	0x125c
 4405 129a 1E       		.uleb128 0x1e
 4406 129b 01       		.byte	0x1
 4407 129c 42000000 		.4byte	0x42
 4408 12a0 04       		.byte	0x4
 4409 12a1 2A       		.byte	0x2a
 4410 12a2 B3120000 		.4byte	0x12b3
 4411 12a6 0B       		.uleb128 0xb
 4412 12a7 C90C0000 		.4byte	.LASF352
 4413 12ab 00       		.byte	0
 4414 12ac 0B       		.uleb128 0xb
 4415 12ad 8C070000 		.4byte	.LASF353
 4416 12b1 01       		.byte	0x1
 4417 12b2 00       		.byte	0
 4418 12b3 1F       		.uleb128 0x1f
 4419 12b4 090B0000 		.4byte	.LASF354
 4420 12b8 01       		.byte	0x1
 4421 12b9 DD01     		.2byte	0x1dd
 4422 12bb 4B0A0000 		.4byte	0xa4b
 4423 12bf 00000000 		.4byte	.LFB588
 4424 12c3 38000000 		.4byte	.LFE588-.LFB588
 4425 12c7 01       		.uleb128 0x1
 4426 12c8 9C       		.byte	0x9c
 4427 12c9 F5120000 		.4byte	0x12f5
 4428 12cd 20       		.uleb128 0x20
 4429 12ce 7200     		.ascii	"r\000"
 4430 12d0 01       		.byte	0x1
 4431 12d1 DD01     		.2byte	0x1dd
 4432 12d3 D5000000 		.4byte	0xd5
 4433 12d7 02       		.uleb128 0x2
 4434 12d8 91       		.byte	0x91
 4435 12d9 77       		.sleb128 -9
 4436 12da 20       		.uleb128 0x20
 4437 12db 6700     		.ascii	"g\000"
 4438 12dd 01       		.byte	0x1
 4439 12de DD01     		.2byte	0x1dd
ARM GAS  C:\Users\tmj32\AppData\Local\Temp\ccs01wAd.s 			page 103


 4440 12e0 D5000000 		.4byte	0xd5
 4441 12e4 02       		.uleb128 0x2
 4442 12e5 91       		.byte	0x91
 4443 12e6 76       		.sleb128 -10
 4444 12e7 20       		.uleb128 0x20
 4445 12e8 6200     		.ascii	"b\000"
 4446 12ea 01       		.byte	0x1
 4447 12eb DD01     		.2byte	0x1dd
 4448 12ed D5000000 		.4byte	0xd5
 4449 12f1 02       		.uleb128 0x2
 4450 12f2 91       		.byte	0x91
 4451 12f3 75       		.sleb128 -11
 4452 12f4 00       		.byte	0
 4453 12f5 21       		.uleb128 0x21
 4454 12f6 26090000 		.4byte	.LASF355
 4455 12fa 01       		.byte	0x1
 4456 12fb E201     		.2byte	0x1e2
 4457 12fd 4B0A0000 		.4byte	0xa4b
 4458 1301 00000000 		.4byte	.LFB589
 4459 1305 28000000 		.4byte	.LFE589-.LFB589
 4460 1309 01       		.uleb128 0x1
 4461 130a 9C       		.byte	0x9c
 4462 130b 1D130000 		.4byte	0x131d
 4463 130f 20       		.uleb128 0x20
 4464 1310 6300     		.ascii	"c\000"
 4465 1312 01       		.byte	0x1
 4466 1313 E201     		.2byte	0x1e2
 4467 1315 01010000 		.4byte	0x101
 4468 1319 02       		.uleb128 0x2
 4469 131a 91       		.byte	0x91
 4470 131b 74       		.sleb128 -12
 4471 131c 00       		.byte	0
 4472 131d 22       		.uleb128 0x22
 4473 131e 2B0B0000 		.4byte	.LASF410
 4474 1322 02       		.byte	0x2
 4475 1323 61       		.byte	0x61
 4476 1324 25120000 		.4byte	0x1225
 4477 1328 00000000 		.4byte	.LFB613
 4478 132c 16000000 		.4byte	.LFE613-.LFB613
 4479 1330 01       		.uleb128 0x1
 4480 1331 9C       		.byte	0x9c
 4481 1332 23       		.uleb128 0x23
 4482 1333 F6080000 		.4byte	.LASF359
 4483 1337 03       		.byte	0x3
 4484 1338 4F       		.byte	0x4f
 4485 1339 00000000 		.4byte	.LFB668
 4486 133d 26000000 		.4byte	.LFE668-.LFB668
 4487 1341 01       		.uleb128 0x1
 4488 1342 9C       		.byte	0x9c
 4489 1343 72130000 		.4byte	0x1372
 4490 1347 24       		.uleb128 0x24
 4491 1348 19070000 		.4byte	.LASF356
 4492 134c 03       		.byte	0x3
 4493 134d 4F       		.byte	0x4f
 4494 134e 25120000 		.4byte	0x1225
 4495 1352 02       		.uleb128 0x2
 4496 1353 91       		.byte	0x91
ARM GAS  C:\Users\tmj32\AppData\Local\Temp\ccs01wAd.s 			page 104


 4497 1354 74       		.sleb128 -12
 4498 1355 24       		.uleb128 0x24
 4499 1356 13070000 		.4byte	.LASF357
 4500 135a 03       		.byte	0x3
 4501 135b 4F       		.byte	0x4f
 4502 135c E0000000 		.4byte	0xe0
 4503 1360 02       		.uleb128 0x2
 4504 1361 91       		.byte	0x91
 4505 1362 72       		.sleb128 -14
 4506 1363 24       		.uleb128 0x24
 4507 1364 8F030000 		.4byte	.LASF358
 4508 1368 03       		.byte	0x3
 4509 1369 4F       		.byte	0x4f
 4510 136a 280D0000 		.4byte	0xd28
 4511 136e 02       		.uleb128 0x2
 4512 136f 91       		.byte	0x91
 4513 1370 71       		.sleb128 -15
 4514 1371 00       		.byte	0
 4515 1372 23       		.uleb128 0x23
 4516 1373 3D0F0000 		.4byte	.LASF360
 4517 1377 03       		.byte	0x3
 4518 1378 5A       		.byte	0x5a
 4519 1379 00000000 		.4byte	.LFB669
 4520 137d 28000000 		.4byte	.LFE669-.LFB669
 4521 1381 01       		.uleb128 0x1
 4522 1382 9C       		.byte	0x9c
 4523 1383 B2130000 		.4byte	0x13b2
 4524 1387 24       		.uleb128 0x24
 4525 1388 19070000 		.4byte	.LASF356
 4526 138c 03       		.byte	0x3
 4527 138d 5A       		.byte	0x5a
 4528 138e 25120000 		.4byte	0x1225
 4529 1392 02       		.uleb128 0x2
 4530 1393 91       		.byte	0x91
 4531 1394 74       		.sleb128 -12
 4532 1395 25       		.uleb128 0x25
 4533 1396 6D696E00 		.ascii	"min\000"
 4534 139a 03       		.byte	0x3
 4535 139b 5A       		.byte	0x5a
 4536 139c E0000000 		.4byte	0xe0
 4537 13a0 02       		.uleb128 0x2
 4538 13a1 91       		.byte	0x91
 4539 13a2 72       		.sleb128 -14
 4540 13a3 25       		.uleb128 0x25
 4541 13a4 6D617800 		.ascii	"max\000"
 4542 13a8 03       		.byte	0x3
 4543 13a9 5A       		.byte	0x5a
 4544 13aa E0000000 		.4byte	0xe0
 4545 13ae 02       		.uleb128 0x2
 4546 13af 91       		.byte	0x91
 4547 13b0 70       		.sleb128 -16
 4548 13b1 00       		.byte	0
 4549 13b2 23       		.uleb128 0x23
 4550 13b3 77000000 		.4byte	.LASF361
 4551 13b7 04       		.byte	0x4
 4552 13b8 9B       		.byte	0x9b
 4553 13b9 00000000 		.4byte	.LFB687
ARM GAS  C:\Users\tmj32\AppData\Local\Temp\ccs01wAd.s 			page 105


 4554 13bd 22000000 		.4byte	.LFE687-.LFB687
 4555 13c1 01       		.uleb128 0x1
 4556 13c2 9C       		.byte	0x9c
 4557 13c3 F2130000 		.4byte	0x13f2
 4558 13c7 24       		.uleb128 0x24
 4559 13c8 3D100000 		.4byte	.LASF362
 4560 13cc 04       		.byte	0x4
 4561 13cd 9B       		.byte	0x9b
 4562 13ce F2130000 		.4byte	0x13f2
 4563 13d2 02       		.uleb128 0x2
 4564 13d3 91       		.byte	0x91
 4565 13d4 74       		.sleb128 -12
 4566 13d5 25       		.uleb128 0x25
 4567 13d6 62756600 		.ascii	"buf\000"
 4568 13da 04       		.byte	0x4
 4569 13db 9B       		.byte	0x9b
 4570 13dc BD000000 		.4byte	0xbd
 4571 13e0 02       		.uleb128 0x2
 4572 13e1 91       		.byte	0x91
 4573 13e2 70       		.sleb128 -16
 4574 13e3 24       		.uleb128 0x24
 4575 13e4 2A050000 		.4byte	.LASF363
 4576 13e8 04       		.byte	0x4
 4577 13e9 9B       		.byte	0x9b
 4578 13ea EB000000 		.4byte	0xeb
 4579 13ee 02       		.uleb128 0x2
 4580 13ef 91       		.byte	0x91
 4581 13f0 6E       		.sleb128 -18
 4582 13f1 00       		.byte	0
 4583 13f2 06       		.uleb128 0x6
 4584 13f3 04       		.byte	0x4
 4585 13f4 F8130000 		.4byte	0x13f8
 4586 13f8 1B       		.uleb128 0x1b
 4587 13f9 A8110000 		.4byte	0x11a8
 4588 13fd 26       		.uleb128 0x26
 4589 13fe EE140000 		.4byte	.LASF364
 4590 1402 05       		.byte	0x5
 4591 1403 81       		.byte	0x81
 4592 1404 3B050000 		.4byte	0x53b
 4593 1408 00000000 		.4byte	.LFB714
 4594 140c 22000000 		.4byte	.LFE714-.LFB714
 4595 1410 01       		.uleb128 0x1
 4596 1411 9C       		.byte	0x9c
 4597 1412 24140000 		.4byte	0x1424
 4598 1416 25       		.uleb128 0x25
 4599 1417 737700   		.ascii	"sw\000"
 4600 141a 05       		.byte	0x5
 4601 141b 81       		.byte	0x81
 4602 141c F2130000 		.4byte	0x13f2
 4603 1420 02       		.uleb128 0x2
 4604 1421 91       		.byte	0x91
 4605 1422 74       		.sleb128 -12
 4606 1423 00       		.byte	0
 4607 1424 27       		.uleb128 0x27
 4608 1425 05070000 		.4byte	.LASF411
 4609 1429 06       		.byte	0x6
 4610 142a 15       		.byte	0x15
ARM GAS  C:\Users\tmj32\AppData\Local\Temp\ccs01wAd.s 			page 106


 4611 142b 00000000 		.4byte	.LFB717
 4612 142f DC020000 		.4byte	.LFE717-.LFB717
 4613 1433 01       		.uleb128 0x1
 4614 1434 9C       		.byte	0x9c
 4615 1435 DE140000 		.4byte	0x14de
 4616 1439 28       		.uleb128 0x28
 4617 143a D3040000 		.4byte	.LASF365
 4618 143e 06       		.byte	0x6
 4619 143f 17       		.byte	0x17
 4620 1440 DE140000 		.4byte	0x14de
 4621 1444 02       		.uleb128 0x2
 4622 1445 91       		.byte	0x91
 4623 1446 5C       		.sleb128 -36
 4624 1447 28       		.uleb128 0x28
 4625 1448 C50E0000 		.4byte	.LASF366
 4626 144c 06       		.byte	0x6
 4627 144d 18       		.byte	0x18
 4628 144e DE140000 		.4byte	0x14de
 4629 1452 02       		.uleb128 0x2
 4630 1453 91       		.byte	0x91
 4631 1454 58       		.sleb128 -40
 4632 1455 28       		.uleb128 0x28
 4633 1456 BB080000 		.4byte	.LASF367
 4634 145a 06       		.byte	0x6
 4635 145b 19       		.byte	0x19
 4636 145c DE140000 		.4byte	0x14de
 4637 1460 02       		.uleb128 0x2
 4638 1461 91       		.byte	0x91
 4639 1462 54       		.sleb128 -44
 4640 1463 28       		.uleb128 0x28
 4641 1464 A3060000 		.4byte	.LASF368
 4642 1468 06       		.byte	0x6
 4643 1469 1A       		.byte	0x1a
 4644 146a DE140000 		.4byte	0x14de
 4645 146e 02       		.uleb128 0x2
 4646 146f 91       		.byte	0x91
 4647 1470 50       		.sleb128 -48
 4648 1471 28       		.uleb128 0x28
 4649 1472 510F0000 		.4byte	.LASF369
 4650 1476 06       		.byte	0x6
 4651 1477 1B       		.byte	0x1b
 4652 1478 9F000000 		.4byte	0x9f
 4653 147c 02       		.uleb128 0x2
 4654 147d 91       		.byte	0x91
 4655 147e 6C       		.sleb128 -20
 4656 147f 28       		.uleb128 0x28
 4657 1480 AF000000 		.4byte	.LASF370
 4658 1484 06       		.byte	0x6
 4659 1485 1D       		.byte	0x1d
 4660 1486 25120000 		.4byte	0x1225
 4661 148a 05       		.uleb128 0x5
 4662 148b 03       		.byte	0x3
 4663 148c 14000000 		.4byte	chart1.20844
 4664 1490 29       		.uleb128 0x29
 4665 1491 733100   		.ascii	"s1\000"
 4666 1494 06       		.byte	0x6
 4667 1495 5B       		.byte	0x5b
ARM GAS  C:\Users\tmj32\AppData\Local\Temp\ccs01wAd.s 			page 107


 4668 1496 E3140000 		.4byte	0x14e3
 4669 149a 02       		.uleb128 0x2
 4670 149b 91       		.byte	0x91
 4671 149c 4C       		.sleb128 -52
 4672 149d 28       		.uleb128 0x28
 4673 149e 6F060000 		.4byte	.LASF371
 4674 14a2 06       		.byte	0x6
 4675 14a3 61       		.byte	0x61
 4676 14a4 9F000000 		.4byte	0x9f
 4677 14a8 02       		.uleb128 0x2
 4678 14a9 91       		.byte	0x91
 4679 14aa 68       		.sleb128 -24
 4680 14ab 28       		.uleb128 0x28
 4681 14ac 88080000 		.4byte	.LASF372
 4682 14b0 06       		.byte	0x6
 4683 14b1 62       		.byte	0x62
 4684 14b2 9F000000 		.4byte	0x9f
 4685 14b6 02       		.uleb128 0x2
 4686 14b7 91       		.byte	0x91
 4687 14b8 64       		.sleb128 -28
 4688 14b9 28       		.uleb128 0x28
 4689 14ba A3130000 		.4byte	.LASF373
 4690 14be 06       		.byte	0x6
 4691 14bf 71       		.byte	0x71
 4692 14c0 34050000 		.4byte	0x534
 4693 14c4 02       		.uleb128 0x2
 4694 14c5 91       		.byte	0x91
 4695 14c6 40       		.sleb128 -64
 4696 14c7 2A       		.uleb128 0x2a
 4697 14c8 EA010000 		.4byte	.LBB2
 4698 14cc B4000000 		.4byte	.LBE2-.LBB2
 4699 14d0 29       		.uleb128 0x29
 4700 14d1 6900     		.ascii	"i\000"
 4701 14d3 06       		.byte	0x6
 4702 14d4 73       		.byte	0x73
 4703 14d5 9F000000 		.4byte	0x9f
 4704 14d9 02       		.uleb128 0x2
 4705 14da 91       		.byte	0x91
 4706 14db 60       		.sleb128 -32
 4707 14dc 00       		.byte	0
 4708 14dd 00       		.byte	0
 4709 14de 1B       		.uleb128 0x1b
 4710 14df 9F000000 		.4byte	0x9f
 4711 14e3 06       		.uleb128 0x6
 4712 14e4 04       		.byte	0x4
 4713 14e5 8F120000 		.4byte	0x128f
 4714 14e9 23       		.uleb128 0x23
 4715 14ea 8C150000 		.4byte	.LASF374
 4716 14ee 06       		.byte	0x6
 4717 14ef 7C       		.byte	0x7c
 4718 14f0 00000000 		.4byte	.LFB718
 4719 14f4 28000000 		.4byte	.LFE718-.LFB718
 4720 14f8 01       		.uleb128 0x1
 4721 14f9 9C       		.byte	0x9c
 4722 14fa 33150000 		.4byte	0x1533
 4723 14fe 25       		.uleb128 0x25
 4724 14ff 6F626A00 		.ascii	"obj\000"
ARM GAS  C:\Users\tmj32\AppData\Local\Temp\ccs01wAd.s 			page 108


 4725 1503 06       		.byte	0x6
 4726 1504 7C       		.byte	0x7c
 4727 1505 25120000 		.4byte	0x1225
 4728 1509 02       		.uleb128 0x2
 4729 150a 91       		.byte	0x91
 4730 150b 54       		.sleb128 -44
 4731 150c 24       		.uleb128 0x24
 4732 150d 92050000 		.4byte	.LASF375
 4733 1511 06       		.byte	0x6
 4734 1512 7C       		.byte	0x7c
 4735 1513 2E100000 		.4byte	0x102e
 4736 1517 02       		.uleb128 0x2
 4737 1518 91       		.byte	0x91
 4738 1519 53       		.sleb128 -45
 4739 151a 2A       		.uleb128 0x2a
 4740 151b 12000000 		.4byte	.LBB3
 4741 151f 0E000000 		.4byte	.LBE3-.LBB3
 4742 1523 29       		.uleb128 0x29
 4743 1524 62756600 		.ascii	"buf\000"
 4744 1528 06       		.byte	0x6
 4745 1529 7F       		.byte	0x7f
 4746 152a 33150000 		.4byte	0x1533
 4747 152e 02       		.uleb128 0x2
 4748 152f 91       		.byte	0x91
 4749 1530 58       		.sleb128 -40
 4750 1531 00       		.byte	0
 4751 1532 00       		.byte	0
 4752 1533 15       		.uleb128 0x15
 4753 1534 C3000000 		.4byte	0xc3
 4754 1538 43150000 		.4byte	0x1543
 4755 153c 16       		.uleb128 0x16
 4756 153d B6000000 		.4byte	0xb6
 4757 1541 1F       		.byte	0x1f
 4758 1542 00       		.byte	0
 4759 1543 23       		.uleb128 0x23
 4760 1544 B80B0000 		.4byte	.LASF376
 4761 1548 06       		.byte	0x6
 4762 1549 83       		.byte	0x83
 4763 154a 00000000 		.4byte	.LFB719
 4764 154e 28000000 		.4byte	.LFE719-.LFB719
 4765 1552 01       		.uleb128 0x1
 4766 1553 9C       		.byte	0x9c
 4767 1554 8D150000 		.4byte	0x158d
 4768 1558 25       		.uleb128 0x25
 4769 1559 6F626A00 		.ascii	"obj\000"
 4770 155d 06       		.byte	0x6
 4771 155e 83       		.byte	0x83
 4772 155f 25120000 		.4byte	0x1225
 4773 1563 02       		.uleb128 0x2
 4774 1564 91       		.byte	0x91
 4775 1565 54       		.sleb128 -44
 4776 1566 24       		.uleb128 0x24
 4777 1567 92050000 		.4byte	.LASF375
 4778 156b 06       		.byte	0x6
 4779 156c 83       		.byte	0x83
 4780 156d 2E100000 		.4byte	0x102e
 4781 1571 02       		.uleb128 0x2
ARM GAS  C:\Users\tmj32\AppData\Local\Temp\ccs01wAd.s 			page 109


 4782 1572 91       		.byte	0x91
 4783 1573 53       		.sleb128 -45
 4784 1574 2A       		.uleb128 0x2a
 4785 1575 12000000 		.4byte	.LBB4
 4786 1579 0E000000 		.4byte	.LBE4-.LBB4
 4787 157d 29       		.uleb128 0x29
 4788 157e 62756600 		.ascii	"buf\000"
 4789 1582 06       		.byte	0x6
 4790 1583 86       		.byte	0x86
 4791 1584 33150000 		.4byte	0x1533
 4792 1588 02       		.uleb128 0x2
 4793 1589 91       		.byte	0x91
 4794 158a 58       		.sleb128 -40
 4795 158b 00       		.byte	0
 4796 158c 00       		.byte	0
 4797 158d 23       		.uleb128 0x23
 4798 158e 91020000 		.4byte	.LASF377
 4799 1592 06       		.byte	0x6
 4800 1593 8A       		.byte	0x8a
 4801 1594 00000000 		.4byte	.LFB720
 4802 1598 40000000 		.4byte	.LFE720-.LFB720
 4803 159c 01       		.uleb128 0x1
 4804 159d 9C       		.byte	0x9c
 4805 159e BF150000 		.4byte	0x15bf
 4806 15a2 25       		.uleb128 0x25
 4807 15a3 6F626A00 		.ascii	"obj\000"
 4808 15a7 06       		.byte	0x6
 4809 15a8 8A       		.byte	0x8a
 4810 15a9 25120000 		.4byte	0x1225
 4811 15ad 02       		.uleb128 0x2
 4812 15ae 91       		.byte	0x91
 4813 15af 74       		.sleb128 -12
 4814 15b0 24       		.uleb128 0x24
 4815 15b1 92050000 		.4byte	.LASF375
 4816 15b5 06       		.byte	0x6
 4817 15b6 8A       		.byte	0x8a
 4818 15b7 2E100000 		.4byte	0x102e
 4819 15bb 02       		.uleb128 0x2
 4820 15bc 91       		.byte	0x91
 4821 15bd 73       		.sleb128 -13
 4822 15be 00       		.byte	0
 4823 15bf 23       		.uleb128 0x23
 4824 15c0 0E000000 		.4byte	.LASF378
 4825 15c4 06       		.byte	0x6
 4826 15c5 91       		.byte	0x91
 4827 15c6 00000000 		.4byte	.LFB721
 4828 15ca 5C000000 		.4byte	.LFE721-.LFB721
 4829 15ce 01       		.uleb128 0x1
 4830 15cf 9C       		.byte	0x9c
 4831 15d0 0C160000 		.4byte	0x160c
 4832 15d4 24       		.uleb128 0x24
 4833 15d5 19070000 		.4byte	.LASF356
 4834 15d9 06       		.byte	0x6
 4835 15da 91       		.byte	0x91
 4836 15db 25120000 		.4byte	0x1225
 4837 15df 02       		.uleb128 0x2
 4838 15e0 91       		.byte	0x91
ARM GAS  C:\Users\tmj32\AppData\Local\Temp\ccs01wAd.s 			page 110


 4839 15e1 74       		.sleb128 -12
 4840 15e2 24       		.uleb128 0x24
 4841 15e3 92050000 		.4byte	.LASF375
 4842 15e7 06       		.byte	0x6
 4843 15e8 91       		.byte	0x91
 4844 15e9 2E100000 		.4byte	0x102e
 4845 15ed 02       		.uleb128 0x2
 4846 15ee 91       		.byte	0x91
 4847 15ef 73       		.sleb128 -13
 4848 15f0 2A       		.uleb128 0x2a
 4849 15f1 12000000 		.4byte	.LBB5
 4850 15f5 30000000 		.4byte	.LBE5-.LBB5
 4851 15f9 29       		.uleb128 0x29
 4852 15fa 62756600 		.ascii	"buf\000"
 4853 15fe 06       		.byte	0x6
 4854 15ff 94       		.byte	0x94
 4855 1600 15120000 		.4byte	0x1215
 4856 1604 05       		.uleb128 0x5
 4857 1605 03       		.byte	0x3
 4858 1606 18000000 		.4byte	buf.20885
 4859 160a 00       		.byte	0
 4860 160b 00       		.byte	0
 4861 160c 23       		.uleb128 0x23
 4862 160d AD0E0000 		.4byte	.LASF379
 4863 1611 06       		.byte	0x6
 4864 1612 9B       		.byte	0x9b
 4865 1613 00000000 		.4byte	.LFB722
 4866 1617 5C000000 		.4byte	.LFE722-.LFB722
 4867 161b 01       		.uleb128 0x1
 4868 161c 9C       		.byte	0x9c
 4869 161d 59160000 		.4byte	0x1659
 4870 1621 24       		.uleb128 0x24
 4871 1622 19070000 		.4byte	.LASF356
 4872 1626 06       		.byte	0x6
 4873 1627 9B       		.byte	0x9b
 4874 1628 25120000 		.4byte	0x1225
 4875 162c 02       		.uleb128 0x2
 4876 162d 91       		.byte	0x91
 4877 162e 74       		.sleb128 -12
 4878 162f 24       		.uleb128 0x24
 4879 1630 92050000 		.4byte	.LASF375
 4880 1634 06       		.byte	0x6
 4881 1635 9B       		.byte	0x9b
 4882 1636 2E100000 		.4byte	0x102e
 4883 163a 02       		.uleb128 0x2
 4884 163b 91       		.byte	0x91
 4885 163c 73       		.sleb128 -13
 4886 163d 2A       		.uleb128 0x2a
 4887 163e 12000000 		.4byte	.LBB6
 4888 1642 30000000 		.4byte	.LBE6-.LBB6
 4889 1646 29       		.uleb128 0x29
 4890 1647 62756600 		.ascii	"buf\000"
 4891 164b 06       		.byte	0x6
 4892 164c 9E       		.byte	0x9e
 4893 164d 15120000 		.4byte	0x1215
 4894 1651 05       		.uleb128 0x5
 4895 1652 03       		.byte	0x3
ARM GAS  C:\Users\tmj32\AppData\Local\Temp\ccs01wAd.s 			page 111


 4896 1653 1C000000 		.4byte	buf.20890
 4897 1657 00       		.byte	0
 4898 1658 00       		.byte	0
 4899 1659 23       		.uleb128 0x23
 4900 165a 34010000 		.4byte	.LASF380
 4901 165e 06       		.byte	0x6
 4902 165f A5       		.byte	0xa5
 4903 1660 00000000 		.4byte	.LFB723
 4904 1664 E0000000 		.4byte	.LFE723-.LFB723
 4905 1668 01       		.uleb128 0x1
 4906 1669 9C       		.byte	0x9c
 4907 166a A6160000 		.4byte	0x16a6
 4908 166e 24       		.uleb128 0x24
 4909 166f 19070000 		.4byte	.LASF356
 4910 1673 06       		.byte	0x6
 4911 1674 A5       		.byte	0xa5
 4912 1675 25120000 		.4byte	0x1225
 4913 1679 02       		.uleb128 0x2
 4914 167a 91       		.byte	0x91
 4915 167b 74       		.sleb128 -12
 4916 167c 24       		.uleb128 0x24
 4917 167d 92050000 		.4byte	.LASF375
 4918 1681 06       		.byte	0x6
 4919 1682 A5       		.byte	0xa5
 4920 1683 2E100000 		.4byte	0x102e
 4921 1687 02       		.uleb128 0x2
 4922 1688 91       		.byte	0x91
 4923 1689 73       		.sleb128 -13
 4924 168a 2A       		.uleb128 0x2a
 4925 168b 12000000 		.4byte	.LBB7
 4926 168f A2000000 		.4byte	.LBE7-.LBB7
 4927 1693 29       		.uleb128 0x29
 4928 1694 62756600 		.ascii	"buf\000"
 4929 1698 06       		.byte	0x6
 4930 1699 A8       		.byte	0xa8
 4931 169a A6160000 		.4byte	0x16a6
 4932 169e 05       		.uleb128 0x5
 4933 169f 03       		.byte	0x3
 4934 16a0 20000000 		.4byte	buf.20895
 4935 16a4 00       		.byte	0
 4936 16a5 00       		.byte	0
 4937 16a6 15       		.uleb128 0x15
 4938 16a7 C3000000 		.4byte	0xc3
 4939 16ab B6160000 		.4byte	0x16b6
 4940 16af 16       		.uleb128 0x16
 4941 16b0 B6000000 		.4byte	0xb6
 4942 16b4 09       		.byte	0x9
 4943 16b5 00       		.byte	0
 4944 16b6 23       		.uleb128 0x23
 4945 16b7 85090000 		.4byte	.LASF381
 4946 16bb 06       		.byte	0x6
 4947 16bc C6       		.byte	0xc6
 4948 16bd 00000000 		.4byte	.LFB724
 4949 16c1 E0000000 		.4byte	.LFE724-.LFB724
 4950 16c5 01       		.uleb128 0x1
 4951 16c6 9C       		.byte	0x9c
 4952 16c7 03170000 		.4byte	0x1703
ARM GAS  C:\Users\tmj32\AppData\Local\Temp\ccs01wAd.s 			page 112


 4953 16cb 24       		.uleb128 0x24
 4954 16cc 19070000 		.4byte	.LASF356
 4955 16d0 06       		.byte	0x6
 4956 16d1 C6       		.byte	0xc6
 4957 16d2 25120000 		.4byte	0x1225
 4958 16d6 02       		.uleb128 0x2
 4959 16d7 91       		.byte	0x91
 4960 16d8 74       		.sleb128 -12
 4961 16d9 24       		.uleb128 0x24
 4962 16da 92050000 		.4byte	.LASF375
 4963 16de 06       		.byte	0x6
 4964 16df C6       		.byte	0xc6
 4965 16e0 2E100000 		.4byte	0x102e
 4966 16e4 02       		.uleb128 0x2
 4967 16e5 91       		.byte	0x91
 4968 16e6 73       		.sleb128 -13
 4969 16e7 2A       		.uleb128 0x2a
 4970 16e8 12000000 		.4byte	.LBB8
 4971 16ec A2000000 		.4byte	.LBE8-.LBB8
 4972 16f0 29       		.uleb128 0x29
 4973 16f1 62756600 		.ascii	"buf\000"
 4974 16f5 06       		.byte	0x6
 4975 16f6 C9       		.byte	0xc9
 4976 16f7 A6160000 		.4byte	0x16a6
 4977 16fb 05       		.uleb128 0x5
 4978 16fc 03       		.byte	0x3
 4979 16fd 2C000000 		.4byte	buf.20907
 4980 1701 00       		.byte	0
 4981 1702 00       		.byte	0
 4982 1703 23       		.uleb128 0x23
 4983 1704 A9050000 		.4byte	.LASF382
 4984 1708 06       		.byte	0x6
 4985 1709 E3       		.byte	0xe3
 4986 170a 00000000 		.4byte	.LFB725
 4987 170e 30000000 		.4byte	.LFE725-.LFB725
 4988 1712 01       		.uleb128 0x1
 4989 1713 9C       		.byte	0x9c
 4990 1714 35170000 		.4byte	0x1735
 4991 1718 24       		.uleb128 0x24
 4992 1719 19070000 		.4byte	.LASF356
 4993 171d 06       		.byte	0x6
 4994 171e E3       		.byte	0xe3
 4995 171f 25120000 		.4byte	0x1225
 4996 1723 02       		.uleb128 0x2
 4997 1724 91       		.byte	0x91
 4998 1725 74       		.sleb128 -12
 4999 1726 24       		.uleb128 0x24
 5000 1727 92050000 		.4byte	.LASF375
 5001 172b 06       		.byte	0x6
 5002 172c E3       		.byte	0xe3
 5003 172d 2E100000 		.4byte	0x102e
 5004 1731 02       		.uleb128 0x2
 5005 1732 91       		.byte	0x91
 5006 1733 73       		.sleb128 -13
 5007 1734 00       		.byte	0
 5008 1735 2B       		.uleb128 0x2b
 5009 1736 F9100000 		.4byte	.LASF412
ARM GAS  C:\Users\tmj32\AppData\Local\Temp\ccs01wAd.s 			page 113


 5010 173a 06       		.byte	0x6
 5011 173b EE       		.byte	0xee
 5012 173c 00000000 		.4byte	.LFB726
 5013 1740 6C040000 		.4byte	.LFE726-.LFB726
 5014 1744 01       		.uleb128 0x1
 5015 1745 9C       		.byte	0x9c
 5016 1746 0C180000 		.4byte	0x180c
 5017 174a 28       		.uleb128 0x28
 5018 174b 040D0000 		.4byte	.LASF383
 5019 174f 06       		.byte	0x6
 5020 1750 F1       		.byte	0xf1
 5021 1751 25120000 		.4byte	0x1225
 5022 1755 02       		.uleb128 0x2
 5023 1756 91       		.byte	0x91
 5024 1757 74       		.sleb128 -12
 5025 1758 28       		.uleb128 0x28
 5026 1759 86170000 		.4byte	.LASF384
 5027 175d 06       		.byte	0x6
 5028 175e FF       		.byte	0xff
 5029 175f 25120000 		.4byte	0x1225
 5030 1763 02       		.uleb128 0x2
 5031 1764 91       		.byte	0x91
 5032 1765 70       		.sleb128 -16
 5033 1766 2C       		.uleb128 0x2c
 5034 1767 83060000 		.4byte	.LASF385
 5035 176b 06       		.byte	0x6
 5036 176c 0801     		.2byte	0x108
 5037 176e 25120000 		.4byte	0x1225
 5038 1772 02       		.uleb128 0x2
 5039 1773 91       		.byte	0x91
 5040 1774 6C       		.sleb128 -20
 5041 1775 2C       		.uleb128 0x2c
 5042 1776 DC0D0000 		.4byte	.LASF386
 5043 177a 06       		.byte	0x6
 5044 177b 1601     		.2byte	0x116
 5045 177d 25120000 		.4byte	0x1225
 5046 1781 02       		.uleb128 0x2
 5047 1782 91       		.byte	0x91
 5048 1783 68       		.sleb128 -24
 5049 1784 2C       		.uleb128 0x2c
 5050 1785 CC070000 		.4byte	.LASF387
 5051 1789 06       		.byte	0x6
 5052 178a 1E01     		.2byte	0x11e
 5053 178c 25120000 		.4byte	0x1225
 5054 1790 02       		.uleb128 0x2
 5055 1791 91       		.byte	0x91
 5056 1792 64       		.sleb128 -28
 5057 1793 2C       		.uleb128 0x2c
 5058 1794 670F0000 		.4byte	.LASF388
 5059 1798 06       		.byte	0x6
 5060 1799 2C01     		.2byte	0x12c
 5061 179b 25120000 		.4byte	0x1225
 5062 179f 02       		.uleb128 0x2
 5063 17a0 91       		.byte	0x91
 5064 17a1 60       		.sleb128 -32
 5065 17a2 2C       		.uleb128 0x2c
 5066 17a3 52130000 		.4byte	.LASF389
ARM GAS  C:\Users\tmj32\AppData\Local\Temp\ccs01wAd.s 			page 114


 5067 17a7 06       		.byte	0x6
 5068 17a8 3401     		.2byte	0x134
 5069 17aa 25120000 		.4byte	0x1225
 5070 17ae 02       		.uleb128 0x2
 5071 17af 91       		.byte	0x91
 5072 17b0 5C       		.sleb128 -36
 5073 17b1 2C       		.uleb128 0x2c
 5074 17b2 0F040000 		.4byte	.LASF390
 5075 17b6 06       		.byte	0x6
 5076 17b7 4201     		.2byte	0x142
 5077 17b9 25120000 		.4byte	0x1225
 5078 17bd 02       		.uleb128 0x2
 5079 17be 91       		.byte	0x91
 5080 17bf 58       		.sleb128 -40
 5081 17c0 2C       		.uleb128 0x2c
 5082 17c1 05110000 		.4byte	.LASF391
 5083 17c5 06       		.byte	0x6
 5084 17c6 4B01     		.2byte	0x14b
 5085 17c8 25120000 		.4byte	0x1225
 5086 17cc 02       		.uleb128 0x2
 5087 17cd 91       		.byte	0x91
 5088 17ce 54       		.sleb128 -44
 5089 17cf 2D       		.uleb128 0x2d
 5090 17d0 73773100 		.ascii	"sw1\000"
 5091 17d4 06       		.byte	0x6
 5092 17d5 5401     		.2byte	0x154
 5093 17d7 25120000 		.4byte	0x1225
 5094 17db 02       		.uleb128 0x2
 5095 17dc 91       		.byte	0x91
 5096 17dd 50       		.sleb128 -48
 5097 17de 2C       		.uleb128 0x2c
 5098 17df 430E0000 		.4byte	.LASF392
 5099 17e3 06       		.byte	0x6
 5100 17e4 5A01     		.2byte	0x15a
 5101 17e6 25120000 		.4byte	0x1225
 5102 17ea 02       		.uleb128 0x2
 5103 17eb 91       		.byte	0x91
 5104 17ec 4C       		.sleb128 -52
 5105 17ed 2C       		.uleb128 0x2c
 5106 17ee 580B0000 		.4byte	.LASF393
 5107 17f2 06       		.byte	0x6
 5108 17f3 6301     		.2byte	0x163
 5109 17f5 25120000 		.4byte	0x1225
 5110 17f9 02       		.uleb128 0x2
 5111 17fa 91       		.byte	0x91
 5112 17fb 48       		.sleb128 -56
 5113 17fc 2C       		.uleb128 0x2c
 5114 17fd 600B0000 		.4byte	.LASF394
 5115 1801 06       		.byte	0x6
 5116 1802 6D01     		.2byte	0x16d
 5117 1804 25120000 		.4byte	0x1225
 5118 1808 02       		.uleb128 0x2
 5119 1809 91       		.byte	0x91
 5120 180a 44       		.sleb128 -60
 5121 180b 00       		.byte	0
 5122 180c 28       		.uleb128 0x28
 5123 180d 5C0A0000 		.4byte	.LASF395
ARM GAS  C:\Users\tmj32\AppData\Local\Temp\ccs01wAd.s 			page 115


 5124 1811 06       		.byte	0x6
 5125 1812 0D       		.byte	0xd
 5126 1813 25120000 		.4byte	0x1225
 5127 1817 05       		.uleb128 0x5
 5128 1818 03       		.byte	0x3
 5129 1819 00000000 		.4byte	offsetLabel
 5130 181d 28       		.uleb128 0x28
 5131 181e 9B090000 		.4byte	.LASF396
 5132 1822 06       		.byte	0x6
 5133 1823 0E       		.byte	0xe
 5134 1824 25120000 		.4byte	0x1225
 5135 1828 05       		.uleb128 0x5
 5136 1829 03       		.byte	0x3
 5137 182a 04000000 		.4byte	triggerLabel
 5138 182e 28       		.uleb128 0x28
 5139 182f 5C0F0000 		.4byte	.LASF397
 5140 1833 06       		.byte	0x6
 5141 1834 0F       		.byte	0xf
 5142 1835 25120000 		.4byte	0x1225
 5143 1839 05       		.uleb128 0x5
 5144 183a 03       		.byte	0x3
 5145 183b 08000000 		.4byte	horiLabel1
 5146 183f 28       		.uleb128 0x28
 5147 1840 04040000 		.4byte	.LASF398
 5148 1844 06       		.byte	0x6
 5149 1845 10       		.byte	0x10
 5150 1846 25120000 		.4byte	0x1225
 5151 184a 05       		.uleb128 0x5
 5152 184b 03       		.byte	0x3
 5153 184c 0C000000 		.4byte	vertLabel1
 5154 1850 2E       		.uleb128 0x2e
 5155 1851 72100000 		.4byte	.LASF399
 5156 1855 1A       		.byte	0x1a
 5157 1856 F907     		.2byte	0x7f9
 5158 1858 5C180000 		.4byte	0x185c
 5159 185c 07       		.uleb128 0x7
 5160 185d F6000000 		.4byte	0xf6
 5161 1861 2F       		.uleb128 0x2f
 5162 1862 92000000 		.4byte	.LASF400
 5163 1866 09       		.byte	0x9
 5164 1867 A7       		.byte	0xa7
 5165 1868 6C180000 		.4byte	0x186c
 5166 186c 06       		.uleb128 0x6
 5167 186d 04       		.byte	0x4
 5168 186e 72180000 		.4byte	0x1872
 5169 1872 1B       		.uleb128 0x1b
 5170 1873 22050000 		.4byte	0x522
 5171 1877 2F       		.uleb128 0x2f
 5172 1878 4D000000 		.4byte	.LASF401
 5173 187c 1B       		.byte	0x1b
 5174 187d 1F       		.byte	0x1f
 5175 187e 82180000 		.4byte	0x1882
 5176 1882 1B       		.uleb128 0x1b
 5177 1883 68080000 		.4byte	0x868
 5178 1887 2F       		.uleb128 0x2f
 5179 1888 9C000000 		.4byte	.LASF402
 5180 188c 1C       		.byte	0x1c
ARM GAS  C:\Users\tmj32\AppData\Local\Temp\ccs01wAd.s 			page 116


 5181 188d 7F       		.byte	0x7f
 5182 188e D0060000 		.4byte	0x6d0
 5183 1892 2F       		.uleb128 0x2f
 5184 1893 2A0A0000 		.4byte	.LASF403
 5185 1897 1D       		.byte	0x1d
 5186 1898 5E       		.byte	0x5e
 5187 1899 6B070000 		.4byte	0x76b
 5188 189d 30       		.uleb128 0x30
 5189 189e 636D3400 		.ascii	"cm4\000"
 5190 18a2 0D       		.byte	0xd
 5191 18a3 20       		.byte	0x20
 5192 18a4 73080000 		.4byte	0x873
 5193 18a8 05       		.uleb128 0x5
 5194 18a9 03       		.byte	0x3
 5195 18aa 00000000 		.4byte	cm4
 5196 18ae 15       		.uleb128 0x15
 5197 18af F90C0000 		.4byte	0xcf9
 5198 18b3 BE180000 		.4byte	0x18be
 5199 18b7 16       		.uleb128 0x16
 5200 18b8 B6000000 		.4byte	0xb6
 5201 18bc 02       		.byte	0x2
 5202 18bd 00       		.byte	0
 5203 18be 31       		.uleb128 0x31
 5204 18bf AB130000 		.4byte	.LASF404
 5205 18c3 06       		.byte	0x6
 5206 18c4 0A       		.byte	0xa
 5207 18c5 CF180000 		.4byte	0x18cf
 5208 18c9 05       		.uleb128 0x5
 5209 18ca 03       		.byte	0x3
 5210 18cb 00000000 		.4byte	tcnj_blue
 5211 18cf 1B       		.uleb128 0x1b
 5212 18d0 AE180000 		.4byte	0x18ae
 5213 18d4 31       		.uleb128 0x31
 5214 18d5 2A080000 		.4byte	.LASF405
 5215 18d9 06       		.byte	0x6
 5216 18da 0B       		.byte	0xb
 5217 18db E5180000 		.4byte	0x18e5
 5218 18df 05       		.uleb128 0x5
 5219 18e0 03       		.byte	0x3
 5220 18e1 00000000 		.4byte	tcnj_gold
 5221 18e5 1B       		.uleb128 0x1b
 5222 18e6 AE180000 		.4byte	0x18ae
 5223 18ea 31       		.uleb128 0x31
 5224 18eb 110F0000 		.4byte	.LASF406
 5225 18ef 06       		.byte	0x6
 5226 18f0 13       		.byte	0x13
 5227 18f1 9F000000 		.4byte	0x9f
 5228 18f5 05       		.uleb128 0x5
 5229 18f6 03       		.byte	0x3
 5230 18f7 00000000 		.4byte	startup
 5231 18fb 00       		.byte	0
 5232              		.section	.debug_abbrev,"",%progbits
 5233              	.Ldebug_abbrev0:
 5234 0000 01       		.uleb128 0x1
 5235 0001 11       		.uleb128 0x11
 5236 0002 01       		.byte	0x1
 5237 0003 25       		.uleb128 0x25
ARM GAS  C:\Users\tmj32\AppData\Local\Temp\ccs01wAd.s 			page 117


 5238 0004 0E       		.uleb128 0xe
 5239 0005 13       		.uleb128 0x13
 5240 0006 0B       		.uleb128 0xb
 5241 0007 03       		.uleb128 0x3
 5242 0008 0E       		.uleb128 0xe
 5243 0009 1B       		.uleb128 0x1b
 5244 000a 0E       		.uleb128 0xe
 5245 000b 55       		.uleb128 0x55
 5246 000c 17       		.uleb128 0x17
 5247 000d 11       		.uleb128 0x11
 5248 000e 01       		.uleb128 0x1
 5249 000f 10       		.uleb128 0x10
 5250 0010 17       		.uleb128 0x17
 5251 0011 00       		.byte	0
 5252 0012 00       		.byte	0
 5253 0013 02       		.uleb128 0x2
 5254 0014 16       		.uleb128 0x16
 5255 0015 00       		.byte	0
 5256 0016 03       		.uleb128 0x3
 5257 0017 0E       		.uleb128 0xe
 5258 0018 3A       		.uleb128 0x3a
 5259 0019 0B       		.uleb128 0xb
 5260 001a 3B       		.uleb128 0x3b
 5261 001b 0B       		.uleb128 0xb
 5262 001c 49       		.uleb128 0x49
 5263 001d 13       		.uleb128 0x13
 5264 001e 00       		.byte	0
 5265 001f 00       		.byte	0
 5266 0020 03       		.uleb128 0x3
 5267 0021 24       		.uleb128 0x24
 5268 0022 00       		.byte	0
 5269 0023 0B       		.uleb128 0xb
 5270 0024 0B       		.uleb128 0xb
 5271 0025 3E       		.uleb128 0x3e
 5272 0026 0B       		.uleb128 0xb
 5273 0027 03       		.uleb128 0x3
 5274 0028 0E       		.uleb128 0xe
 5275 0029 00       		.byte	0
 5276 002a 00       		.byte	0
 5277 002b 04       		.uleb128 0x4
 5278 002c 24       		.uleb128 0x24
 5279 002d 00       		.byte	0
 5280 002e 0B       		.uleb128 0xb
 5281 002f 0B       		.uleb128 0xb
 5282 0030 3E       		.uleb128 0x3e
 5283 0031 0B       		.uleb128 0xb
 5284 0032 03       		.uleb128 0x3
 5285 0033 08       		.uleb128 0x8
 5286 0034 00       		.byte	0
 5287 0035 00       		.byte	0
 5288 0036 05       		.uleb128 0x5
 5289 0037 0F       		.uleb128 0xf
 5290 0038 00       		.byte	0
 5291 0039 0B       		.uleb128 0xb
 5292 003a 0B       		.uleb128 0xb
 5293 003b 00       		.byte	0
 5294 003c 00       		.byte	0
ARM GAS  C:\Users\tmj32\AppData\Local\Temp\ccs01wAd.s 			page 118


 5295 003d 06       		.uleb128 0x6
 5296 003e 0F       		.uleb128 0xf
 5297 003f 00       		.byte	0
 5298 0040 0B       		.uleb128 0xb
 5299 0041 0B       		.uleb128 0xb
 5300 0042 49       		.uleb128 0x49
 5301 0043 13       		.uleb128 0x13
 5302 0044 00       		.byte	0
 5303 0045 00       		.byte	0
 5304 0046 07       		.uleb128 0x7
 5305 0047 35       		.uleb128 0x35
 5306 0048 00       		.byte	0
 5307 0049 49       		.uleb128 0x49
 5308 004a 13       		.uleb128 0x13
 5309 004b 00       		.byte	0
 5310 004c 00       		.byte	0
 5311 004d 08       		.uleb128 0x8
 5312 004e 13       		.uleb128 0x13
 5313 004f 01       		.byte	0x1
 5314 0050 0B       		.uleb128 0xb
 5315 0051 0B       		.uleb128 0xb
 5316 0052 3A       		.uleb128 0x3a
 5317 0053 0B       		.uleb128 0xb
 5318 0054 3B       		.uleb128 0x3b
 5319 0055 0B       		.uleb128 0xb
 5320 0056 01       		.uleb128 0x1
 5321 0057 13       		.uleb128 0x13
 5322 0058 00       		.byte	0
 5323 0059 00       		.byte	0
 5324 005a 09       		.uleb128 0x9
 5325 005b 0D       		.uleb128 0xd
 5326 005c 00       		.byte	0
 5327 005d 03       		.uleb128 0x3
 5328 005e 0E       		.uleb128 0xe
 5329 005f 3A       		.uleb128 0x3a
 5330 0060 0B       		.uleb128 0xb
 5331 0061 3B       		.uleb128 0x3b
 5332 0062 0B       		.uleb128 0xb
 5333 0063 49       		.uleb128 0x49
 5334 0064 13       		.uleb128 0x13
 5335 0065 38       		.uleb128 0x38
 5336 0066 0B       		.uleb128 0xb
 5337 0067 00       		.byte	0
 5338 0068 00       		.byte	0
 5339 0069 0A       		.uleb128 0xa
 5340 006a 04       		.uleb128 0x4
 5341 006b 01       		.byte	0x1
 5342 006c 0B       		.uleb128 0xb
 5343 006d 0B       		.uleb128 0xb
 5344 006e 49       		.uleb128 0x49
 5345 006f 13       		.uleb128 0x13
 5346 0070 3A       		.uleb128 0x3a
 5347 0071 0B       		.uleb128 0xb
 5348 0072 3B       		.uleb128 0x3b
 5349 0073 05       		.uleb128 0x5
 5350 0074 01       		.uleb128 0x1
 5351 0075 13       		.uleb128 0x13
ARM GAS  C:\Users\tmj32\AppData\Local\Temp\ccs01wAd.s 			page 119


 5352 0076 00       		.byte	0
 5353 0077 00       		.byte	0
 5354 0078 0B       		.uleb128 0xb
 5355 0079 28       		.uleb128 0x28
 5356 007a 00       		.byte	0
 5357 007b 03       		.uleb128 0x3
 5358 007c 0E       		.uleb128 0xe
 5359 007d 1C       		.uleb128 0x1c
 5360 007e 0B       		.uleb128 0xb
 5361 007f 00       		.byte	0
 5362 0080 00       		.byte	0
 5363 0081 0C       		.uleb128 0xc
 5364 0082 16       		.uleb128 0x16
 5365 0083 00       		.byte	0
 5366 0084 03       		.uleb128 0x3
 5367 0085 0E       		.uleb128 0xe
 5368 0086 3A       		.uleb128 0x3a
 5369 0087 0B       		.uleb128 0xb
 5370 0088 3B       		.uleb128 0x3b
 5371 0089 05       		.uleb128 0x5
 5372 008a 49       		.uleb128 0x49
 5373 008b 13       		.uleb128 0x13
 5374 008c 00       		.byte	0
 5375 008d 00       		.byte	0
 5376 008e 0D       		.uleb128 0xd
 5377 008f 15       		.uleb128 0x15
 5378 0090 01       		.byte	0x1
 5379 0091 27       		.uleb128 0x27
 5380 0092 19       		.uleb128 0x19
 5381 0093 01       		.uleb128 0x1
 5382 0094 13       		.uleb128 0x13
 5383 0095 00       		.byte	0
 5384 0096 00       		.byte	0
 5385 0097 0E       		.uleb128 0xe
 5386 0098 05       		.uleb128 0x5
 5387 0099 00       		.byte	0
 5388 009a 49       		.uleb128 0x49
 5389 009b 13       		.uleb128 0x13
 5390 009c 00       		.byte	0
 5391 009d 00       		.byte	0
 5392 009e 0F       		.uleb128 0xf
 5393 009f 15       		.uleb128 0x15
 5394 00a0 01       		.byte	0x1
 5395 00a1 27       		.uleb128 0x27
 5396 00a2 19       		.uleb128 0x19
 5397 00a3 49       		.uleb128 0x49
 5398 00a4 13       		.uleb128 0x13
 5399 00a5 01       		.uleb128 0x1
 5400 00a6 13       		.uleb128 0x13
 5401 00a7 00       		.byte	0
 5402 00a8 00       		.byte	0
 5403 00a9 10       		.uleb128 0x10
 5404 00aa 13       		.uleb128 0x13
 5405 00ab 01       		.byte	0x1
 5406 00ac 03       		.uleb128 0x3
 5407 00ad 0E       		.uleb128 0xe
 5408 00ae 0B       		.uleb128 0xb
ARM GAS  C:\Users\tmj32\AppData\Local\Temp\ccs01wAd.s 			page 120


 5409 00af 0B       		.uleb128 0xb
 5410 00b0 3A       		.uleb128 0x3a
 5411 00b1 0B       		.uleb128 0xb
 5412 00b2 3B       		.uleb128 0x3b
 5413 00b3 05       		.uleb128 0x5
 5414 00b4 01       		.uleb128 0x1
 5415 00b5 13       		.uleb128 0x13
 5416 00b6 00       		.byte	0
 5417 00b7 00       		.byte	0
 5418 00b8 11       		.uleb128 0x11
 5419 00b9 0D       		.uleb128 0xd
 5420 00ba 00       		.byte	0
 5421 00bb 03       		.uleb128 0x3
 5422 00bc 0E       		.uleb128 0xe
 5423 00bd 3A       		.uleb128 0x3a
 5424 00be 0B       		.uleb128 0xb
 5425 00bf 3B       		.uleb128 0x3b
 5426 00c0 05       		.uleb128 0x5
 5427 00c1 49       		.uleb128 0x49
 5428 00c2 13       		.uleb128 0x13
 5429 00c3 38       		.uleb128 0x38
 5430 00c4 0B       		.uleb128 0xb
 5431 00c5 00       		.byte	0
 5432 00c6 00       		.byte	0
 5433 00c7 12       		.uleb128 0x12
 5434 00c8 13       		.uleb128 0x13
 5435 00c9 01       		.byte	0x1
 5436 00ca 03       		.uleb128 0x3
 5437 00cb 0E       		.uleb128 0xe
 5438 00cc 0B       		.uleb128 0xb
 5439 00cd 0B       		.uleb128 0xb
 5440 00ce 3A       		.uleb128 0x3a
 5441 00cf 0B       		.uleb128 0xb
 5442 00d0 3B       		.uleb128 0x3b
 5443 00d1 0B       		.uleb128 0xb
 5444 00d2 01       		.uleb128 0x1
 5445 00d3 13       		.uleb128 0x13
 5446 00d4 00       		.byte	0
 5447 00d5 00       		.byte	0
 5448 00d6 13       		.uleb128 0x13
 5449 00d7 13       		.uleb128 0x13
 5450 00d8 01       		.byte	0x1
 5451 00d9 03       		.uleb128 0x3
 5452 00da 0E       		.uleb128 0xe
 5453 00db 0B       		.uleb128 0xb
 5454 00dc 05       		.uleb128 0x5
 5455 00dd 3A       		.uleb128 0x3a
 5456 00de 0B       		.uleb128 0xb
 5457 00df 3B       		.uleb128 0x3b
 5458 00e0 0B       		.uleb128 0xb
 5459 00e1 01       		.uleb128 0x1
 5460 00e2 13       		.uleb128 0x13
 5461 00e3 00       		.byte	0
 5462 00e4 00       		.byte	0
 5463 00e5 14       		.uleb128 0x14
 5464 00e6 0D       		.uleb128 0xd
 5465 00e7 00       		.byte	0
ARM GAS  C:\Users\tmj32\AppData\Local\Temp\ccs01wAd.s 			page 121


 5466 00e8 03       		.uleb128 0x3
 5467 00e9 08       		.uleb128 0x8
 5468 00ea 3A       		.uleb128 0x3a
 5469 00eb 0B       		.uleb128 0xb
 5470 00ec 3B       		.uleb128 0x3b
 5471 00ed 0B       		.uleb128 0xb
 5472 00ee 49       		.uleb128 0x49
 5473 00ef 13       		.uleb128 0x13
 5474 00f0 38       		.uleb128 0x38
 5475 00f1 0B       		.uleb128 0xb
 5476 00f2 00       		.byte	0
 5477 00f3 00       		.byte	0
 5478 00f4 15       		.uleb128 0x15
 5479 00f5 01       		.uleb128 0x1
 5480 00f6 01       		.byte	0x1
 5481 00f7 49       		.uleb128 0x49
 5482 00f8 13       		.uleb128 0x13
 5483 00f9 01       		.uleb128 0x1
 5484 00fa 13       		.uleb128 0x13
 5485 00fb 00       		.byte	0
 5486 00fc 00       		.byte	0
 5487 00fd 16       		.uleb128 0x16
 5488 00fe 21       		.uleb128 0x21
 5489 00ff 00       		.byte	0
 5490 0100 49       		.uleb128 0x49
 5491 0101 13       		.uleb128 0x13
 5492 0102 2F       		.uleb128 0x2f
 5493 0103 0B       		.uleb128 0xb
 5494 0104 00       		.byte	0
 5495 0105 00       		.byte	0
 5496 0106 17       		.uleb128 0x17
 5497 0107 21       		.uleb128 0x21
 5498 0108 00       		.byte	0
 5499 0109 49       		.uleb128 0x49
 5500 010a 13       		.uleb128 0x13
 5501 010b 2F       		.uleb128 0x2f
 5502 010c 05       		.uleb128 0x5
 5503 010d 00       		.byte	0
 5504 010e 00       		.byte	0
 5505 010f 18       		.uleb128 0x18
 5506 0110 17       		.uleb128 0x17
 5507 0111 01       		.byte	0x1
 5508 0112 0B       		.uleb128 0xb
 5509 0113 0B       		.uleb128 0xb
 5510 0114 3A       		.uleb128 0x3a
 5511 0115 0B       		.uleb128 0xb
 5512 0116 3B       		.uleb128 0x3b
 5513 0117 0B       		.uleb128 0xb
 5514 0118 01       		.uleb128 0x1
 5515 0119 13       		.uleb128 0x13
 5516 011a 00       		.byte	0
 5517 011b 00       		.byte	0
 5518 011c 19       		.uleb128 0x19
 5519 011d 0D       		.uleb128 0xd
 5520 011e 00       		.byte	0
 5521 011f 03       		.uleb128 0x3
 5522 0120 08       		.uleb128 0x8
ARM GAS  C:\Users\tmj32\AppData\Local\Temp\ccs01wAd.s 			page 122


 5523 0121 3A       		.uleb128 0x3a
 5524 0122 0B       		.uleb128 0xb
 5525 0123 3B       		.uleb128 0x3b
 5526 0124 0B       		.uleb128 0xb
 5527 0125 49       		.uleb128 0x49
 5528 0126 13       		.uleb128 0x13
 5529 0127 00       		.byte	0
 5530 0128 00       		.byte	0
 5531 0129 1A       		.uleb128 0x1a
 5532 012a 0D       		.uleb128 0xd
 5533 012b 00       		.byte	0
 5534 012c 03       		.uleb128 0x3
 5535 012d 0E       		.uleb128 0xe
 5536 012e 3A       		.uleb128 0x3a
 5537 012f 0B       		.uleb128 0xb
 5538 0130 3B       		.uleb128 0x3b
 5539 0131 0B       		.uleb128 0xb
 5540 0132 49       		.uleb128 0x49
 5541 0133 13       		.uleb128 0x13
 5542 0134 00       		.byte	0
 5543 0135 00       		.byte	0
 5544 0136 1B       		.uleb128 0x1b
 5545 0137 26       		.uleb128 0x26
 5546 0138 00       		.byte	0
 5547 0139 49       		.uleb128 0x49
 5548 013a 13       		.uleb128 0x13
 5549 013b 00       		.byte	0
 5550 013c 00       		.byte	0
 5551 013d 1C       		.uleb128 0x1c
 5552 013e 0D       		.uleb128 0xd
 5553 013f 00       		.byte	0
 5554 0140 03       		.uleb128 0x3
 5555 0141 0E       		.uleb128 0xe
 5556 0142 3A       		.uleb128 0x3a
 5557 0143 0B       		.uleb128 0xb
 5558 0144 3B       		.uleb128 0x3b
 5559 0145 0B       		.uleb128 0xb
 5560 0146 49       		.uleb128 0x49
 5561 0147 13       		.uleb128 0x13
 5562 0148 0B       		.uleb128 0xb
 5563 0149 0B       		.uleb128 0xb
 5564 014a 0D       		.uleb128 0xd
 5565 014b 0B       		.uleb128 0xb
 5566 014c 0C       		.uleb128 0xc
 5567 014d 0B       		.uleb128 0xb
 5568 014e 38       		.uleb128 0x38
 5569 014f 0B       		.uleb128 0xb
 5570 0150 00       		.byte	0
 5571 0151 00       		.byte	0
 5572 0152 1D       		.uleb128 0x1d
 5573 0153 0D       		.uleb128 0xd
 5574 0154 00       		.byte	0
 5575 0155 03       		.uleb128 0x3
 5576 0156 08       		.uleb128 0x8
 5577 0157 3A       		.uleb128 0x3a
 5578 0158 0B       		.uleb128 0xb
 5579 0159 3B       		.uleb128 0x3b
ARM GAS  C:\Users\tmj32\AppData\Local\Temp\ccs01wAd.s 			page 123


 5580 015a 0B       		.uleb128 0xb
 5581 015b 49       		.uleb128 0x49
 5582 015c 13       		.uleb128 0x13
 5583 015d 0B       		.uleb128 0xb
 5584 015e 0B       		.uleb128 0xb
 5585 015f 0D       		.uleb128 0xd
 5586 0160 0B       		.uleb128 0xb
 5587 0161 0C       		.uleb128 0xc
 5588 0162 0B       		.uleb128 0xb
 5589 0163 38       		.uleb128 0x38
 5590 0164 0B       		.uleb128 0xb
 5591 0165 00       		.byte	0
 5592 0166 00       		.byte	0
 5593 0167 1E       		.uleb128 0x1e
 5594 0168 04       		.uleb128 0x4
 5595 0169 01       		.byte	0x1
 5596 016a 0B       		.uleb128 0xb
 5597 016b 0B       		.uleb128 0xb
 5598 016c 49       		.uleb128 0x49
 5599 016d 13       		.uleb128 0x13
 5600 016e 3A       		.uleb128 0x3a
 5601 016f 0B       		.uleb128 0xb
 5602 0170 3B       		.uleb128 0x3b
 5603 0171 0B       		.uleb128 0xb
 5604 0172 01       		.uleb128 0x1
 5605 0173 13       		.uleb128 0x13
 5606 0174 00       		.byte	0
 5607 0175 00       		.byte	0
 5608 0176 1F       		.uleb128 0x1f
 5609 0177 2E       		.uleb128 0x2e
 5610 0178 01       		.byte	0x1
 5611 0179 03       		.uleb128 0x3
 5612 017a 0E       		.uleb128 0xe
 5613 017b 3A       		.uleb128 0x3a
 5614 017c 0B       		.uleb128 0xb
 5615 017d 3B       		.uleb128 0x3b
 5616 017e 05       		.uleb128 0x5
 5617 017f 27       		.uleb128 0x27
 5618 0180 19       		.uleb128 0x19
 5619 0181 49       		.uleb128 0x49
 5620 0182 13       		.uleb128 0x13
 5621 0183 11       		.uleb128 0x11
 5622 0184 01       		.uleb128 0x1
 5623 0185 12       		.uleb128 0x12
 5624 0186 06       		.uleb128 0x6
 5625 0187 40       		.uleb128 0x40
 5626 0188 18       		.uleb128 0x18
 5627 0189 9742     		.uleb128 0x2117
 5628 018b 19       		.uleb128 0x19
 5629 018c 01       		.uleb128 0x1
 5630 018d 13       		.uleb128 0x13
 5631 018e 00       		.byte	0
 5632 018f 00       		.byte	0
 5633 0190 20       		.uleb128 0x20
 5634 0191 05       		.uleb128 0x5
 5635 0192 00       		.byte	0
 5636 0193 03       		.uleb128 0x3
ARM GAS  C:\Users\tmj32\AppData\Local\Temp\ccs01wAd.s 			page 124


 5637 0194 08       		.uleb128 0x8
 5638 0195 3A       		.uleb128 0x3a
 5639 0196 0B       		.uleb128 0xb
 5640 0197 3B       		.uleb128 0x3b
 5641 0198 05       		.uleb128 0x5
 5642 0199 49       		.uleb128 0x49
 5643 019a 13       		.uleb128 0x13
 5644 019b 02       		.uleb128 0x2
 5645 019c 18       		.uleb128 0x18
 5646 019d 00       		.byte	0
 5647 019e 00       		.byte	0
 5648 019f 21       		.uleb128 0x21
 5649 01a0 2E       		.uleb128 0x2e
 5650 01a1 01       		.byte	0x1
 5651 01a2 03       		.uleb128 0x3
 5652 01a3 0E       		.uleb128 0xe
 5653 01a4 3A       		.uleb128 0x3a
 5654 01a5 0B       		.uleb128 0xb
 5655 01a6 3B       		.uleb128 0x3b
 5656 01a7 05       		.uleb128 0x5
 5657 01a8 27       		.uleb128 0x27
 5658 01a9 19       		.uleb128 0x19
 5659 01aa 49       		.uleb128 0x49
 5660 01ab 13       		.uleb128 0x13
 5661 01ac 11       		.uleb128 0x11
 5662 01ad 01       		.uleb128 0x1
 5663 01ae 12       		.uleb128 0x12
 5664 01af 06       		.uleb128 0x6
 5665 01b0 40       		.uleb128 0x40
 5666 01b1 18       		.uleb128 0x18
 5667 01b2 9642     		.uleb128 0x2116
 5668 01b4 19       		.uleb128 0x19
 5669 01b5 01       		.uleb128 0x1
 5670 01b6 13       		.uleb128 0x13
 5671 01b7 00       		.byte	0
 5672 01b8 00       		.byte	0
 5673 01b9 22       		.uleb128 0x22
 5674 01ba 2E       		.uleb128 0x2e
 5675 01bb 00       		.byte	0
 5676 01bc 03       		.uleb128 0x3
 5677 01bd 0E       		.uleb128 0xe
 5678 01be 3A       		.uleb128 0x3a
 5679 01bf 0B       		.uleb128 0xb
 5680 01c0 3B       		.uleb128 0x3b
 5681 01c1 0B       		.uleb128 0xb
 5682 01c2 27       		.uleb128 0x27
 5683 01c3 19       		.uleb128 0x19
 5684 01c4 49       		.uleb128 0x49
 5685 01c5 13       		.uleb128 0x13
 5686 01c6 11       		.uleb128 0x11
 5687 01c7 01       		.uleb128 0x1
 5688 01c8 12       		.uleb128 0x12
 5689 01c9 06       		.uleb128 0x6
 5690 01ca 40       		.uleb128 0x40
 5691 01cb 18       		.uleb128 0x18
 5692 01cc 9642     		.uleb128 0x2116
 5693 01ce 19       		.uleb128 0x19
ARM GAS  C:\Users\tmj32\AppData\Local\Temp\ccs01wAd.s 			page 125


 5694 01cf 00       		.byte	0
 5695 01d0 00       		.byte	0
 5696 01d1 23       		.uleb128 0x23
 5697 01d2 2E       		.uleb128 0x2e
 5698 01d3 01       		.byte	0x1
 5699 01d4 03       		.uleb128 0x3
 5700 01d5 0E       		.uleb128 0xe
 5701 01d6 3A       		.uleb128 0x3a
 5702 01d7 0B       		.uleb128 0xb
 5703 01d8 3B       		.uleb128 0x3b
 5704 01d9 0B       		.uleb128 0xb
 5705 01da 27       		.uleb128 0x27
 5706 01db 19       		.uleb128 0x19
 5707 01dc 11       		.uleb128 0x11
 5708 01dd 01       		.uleb128 0x1
 5709 01de 12       		.uleb128 0x12
 5710 01df 06       		.uleb128 0x6
 5711 01e0 40       		.uleb128 0x40
 5712 01e1 18       		.uleb128 0x18
 5713 01e2 9642     		.uleb128 0x2116
 5714 01e4 19       		.uleb128 0x19
 5715 01e5 01       		.uleb128 0x1
 5716 01e6 13       		.uleb128 0x13
 5717 01e7 00       		.byte	0
 5718 01e8 00       		.byte	0
 5719 01e9 24       		.uleb128 0x24
 5720 01ea 05       		.uleb128 0x5
 5721 01eb 00       		.byte	0
 5722 01ec 03       		.uleb128 0x3
 5723 01ed 0E       		.uleb128 0xe
 5724 01ee 3A       		.uleb128 0x3a
 5725 01ef 0B       		.uleb128 0xb
 5726 01f0 3B       		.uleb128 0x3b
 5727 01f1 0B       		.uleb128 0xb
 5728 01f2 49       		.uleb128 0x49
 5729 01f3 13       		.uleb128 0x13
 5730 01f4 02       		.uleb128 0x2
 5731 01f5 18       		.uleb128 0x18
 5732 01f6 00       		.byte	0
 5733 01f7 00       		.byte	0
 5734 01f8 25       		.uleb128 0x25
 5735 01f9 05       		.uleb128 0x5
 5736 01fa 00       		.byte	0
 5737 01fb 03       		.uleb128 0x3
 5738 01fc 08       		.uleb128 0x8
 5739 01fd 3A       		.uleb128 0x3a
 5740 01fe 0B       		.uleb128 0xb
 5741 01ff 3B       		.uleb128 0x3b
 5742 0200 0B       		.uleb128 0xb
 5743 0201 49       		.uleb128 0x49
 5744 0202 13       		.uleb128 0x13
 5745 0203 02       		.uleb128 0x2
 5746 0204 18       		.uleb128 0x18
 5747 0205 00       		.byte	0
 5748 0206 00       		.byte	0
 5749 0207 26       		.uleb128 0x26
 5750 0208 2E       		.uleb128 0x2e
ARM GAS  C:\Users\tmj32\AppData\Local\Temp\ccs01wAd.s 			page 126


 5751 0209 01       		.byte	0x1
 5752 020a 03       		.uleb128 0x3
 5753 020b 0E       		.uleb128 0xe
 5754 020c 3A       		.uleb128 0x3a
 5755 020d 0B       		.uleb128 0xb
 5756 020e 3B       		.uleb128 0x3b
 5757 020f 0B       		.uleb128 0xb
 5758 0210 27       		.uleb128 0x27
 5759 0211 19       		.uleb128 0x19
 5760 0212 49       		.uleb128 0x49
 5761 0213 13       		.uleb128 0x13
 5762 0214 11       		.uleb128 0x11
 5763 0215 01       		.uleb128 0x1
 5764 0216 12       		.uleb128 0x12
 5765 0217 06       		.uleb128 0x6
 5766 0218 40       		.uleb128 0x40
 5767 0219 18       		.uleb128 0x18
 5768 021a 9642     		.uleb128 0x2116
 5769 021c 19       		.uleb128 0x19
 5770 021d 01       		.uleb128 0x1
 5771 021e 13       		.uleb128 0x13
 5772 021f 00       		.byte	0
 5773 0220 00       		.byte	0
 5774 0221 27       		.uleb128 0x27
 5775 0222 2E       		.uleb128 0x2e
 5776 0223 01       		.byte	0x1
 5777 0224 03       		.uleb128 0x3
 5778 0225 0E       		.uleb128 0xe
 5779 0226 3A       		.uleb128 0x3a
 5780 0227 0B       		.uleb128 0xb
 5781 0228 3B       		.uleb128 0x3b
 5782 0229 0B       		.uleb128 0xb
 5783 022a 11       		.uleb128 0x11
 5784 022b 01       		.uleb128 0x1
 5785 022c 12       		.uleb128 0x12
 5786 022d 06       		.uleb128 0x6
 5787 022e 40       		.uleb128 0x40
 5788 022f 18       		.uleb128 0x18
 5789 0230 9642     		.uleb128 0x2116
 5790 0232 19       		.uleb128 0x19
 5791 0233 01       		.uleb128 0x1
 5792 0234 13       		.uleb128 0x13
 5793 0235 00       		.byte	0
 5794 0236 00       		.byte	0
 5795 0237 28       		.uleb128 0x28
 5796 0238 34       		.uleb128 0x34
 5797 0239 00       		.byte	0
 5798 023a 03       		.uleb128 0x3
 5799 023b 0E       		.uleb128 0xe
 5800 023c 3A       		.uleb128 0x3a
 5801 023d 0B       		.uleb128 0xb
 5802 023e 3B       		.uleb128 0x3b
 5803 023f 0B       		.uleb128 0xb
 5804 0240 49       		.uleb128 0x49
 5805 0241 13       		.uleb128 0x13
 5806 0242 02       		.uleb128 0x2
 5807 0243 18       		.uleb128 0x18
ARM GAS  C:\Users\tmj32\AppData\Local\Temp\ccs01wAd.s 			page 127


 5808 0244 00       		.byte	0
 5809 0245 00       		.byte	0
 5810 0246 29       		.uleb128 0x29
 5811 0247 34       		.uleb128 0x34
 5812 0248 00       		.byte	0
 5813 0249 03       		.uleb128 0x3
 5814 024a 08       		.uleb128 0x8
 5815 024b 3A       		.uleb128 0x3a
 5816 024c 0B       		.uleb128 0xb
 5817 024d 3B       		.uleb128 0x3b
 5818 024e 0B       		.uleb128 0xb
 5819 024f 49       		.uleb128 0x49
 5820 0250 13       		.uleb128 0x13
 5821 0251 02       		.uleb128 0x2
 5822 0252 18       		.uleb128 0x18
 5823 0253 00       		.byte	0
 5824 0254 00       		.byte	0
 5825 0255 2A       		.uleb128 0x2a
 5826 0256 0B       		.uleb128 0xb
 5827 0257 01       		.byte	0x1
 5828 0258 11       		.uleb128 0x11
 5829 0259 01       		.uleb128 0x1
 5830 025a 12       		.uleb128 0x12
 5831 025b 06       		.uleb128 0x6
 5832 025c 00       		.byte	0
 5833 025d 00       		.byte	0
 5834 025e 2B       		.uleb128 0x2b
 5835 025f 2E       		.uleb128 0x2e
 5836 0260 01       		.byte	0x1
 5837 0261 3F       		.uleb128 0x3f
 5838 0262 19       		.uleb128 0x19
 5839 0263 03       		.uleb128 0x3
 5840 0264 0E       		.uleb128 0xe
 5841 0265 3A       		.uleb128 0x3a
 5842 0266 0B       		.uleb128 0xb
 5843 0267 3B       		.uleb128 0x3b
 5844 0268 0B       		.uleb128 0xb
 5845 0269 11       		.uleb128 0x11
 5846 026a 01       		.uleb128 0x1
 5847 026b 12       		.uleb128 0x12
 5848 026c 06       		.uleb128 0x6
 5849 026d 40       		.uleb128 0x40
 5850 026e 18       		.uleb128 0x18
 5851 026f 9642     		.uleb128 0x2116
 5852 0271 19       		.uleb128 0x19
 5853 0272 01       		.uleb128 0x1
 5854 0273 13       		.uleb128 0x13
 5855 0274 00       		.byte	0
 5856 0275 00       		.byte	0
 5857 0276 2C       		.uleb128 0x2c
 5858 0277 34       		.uleb128 0x34
 5859 0278 00       		.byte	0
 5860 0279 03       		.uleb128 0x3
 5861 027a 0E       		.uleb128 0xe
 5862 027b 3A       		.uleb128 0x3a
 5863 027c 0B       		.uleb128 0xb
 5864 027d 3B       		.uleb128 0x3b
ARM GAS  C:\Users\tmj32\AppData\Local\Temp\ccs01wAd.s 			page 128


 5865 027e 05       		.uleb128 0x5
 5866 027f 49       		.uleb128 0x49
 5867 0280 13       		.uleb128 0x13
 5868 0281 02       		.uleb128 0x2
 5869 0282 18       		.uleb128 0x18
 5870 0283 00       		.byte	0
 5871 0284 00       		.byte	0
 5872 0285 2D       		.uleb128 0x2d
 5873 0286 34       		.uleb128 0x34
 5874 0287 00       		.byte	0
 5875 0288 03       		.uleb128 0x3
 5876 0289 08       		.uleb128 0x8
 5877 028a 3A       		.uleb128 0x3a
 5878 028b 0B       		.uleb128 0xb
 5879 028c 3B       		.uleb128 0x3b
 5880 028d 05       		.uleb128 0x5
 5881 028e 49       		.uleb128 0x49
 5882 028f 13       		.uleb128 0x13
 5883 0290 02       		.uleb128 0x2
 5884 0291 18       		.uleb128 0x18
 5885 0292 00       		.byte	0
 5886 0293 00       		.byte	0
 5887 0294 2E       		.uleb128 0x2e
 5888 0295 34       		.uleb128 0x34
 5889 0296 00       		.byte	0
 5890 0297 03       		.uleb128 0x3
 5891 0298 0E       		.uleb128 0xe
 5892 0299 3A       		.uleb128 0x3a
 5893 029a 0B       		.uleb128 0xb
 5894 029b 3B       		.uleb128 0x3b
 5895 029c 05       		.uleb128 0x5
 5896 029d 49       		.uleb128 0x49
 5897 029e 13       		.uleb128 0x13
 5898 029f 3F       		.uleb128 0x3f
 5899 02a0 19       		.uleb128 0x19
 5900 02a1 3C       		.uleb128 0x3c
 5901 02a2 19       		.uleb128 0x19
 5902 02a3 00       		.byte	0
 5903 02a4 00       		.byte	0
 5904 02a5 2F       		.uleb128 0x2f
 5905 02a6 34       		.uleb128 0x34
 5906 02a7 00       		.byte	0
 5907 02a8 03       		.uleb128 0x3
 5908 02a9 0E       		.uleb128 0xe
 5909 02aa 3A       		.uleb128 0x3a
 5910 02ab 0B       		.uleb128 0xb
 5911 02ac 3B       		.uleb128 0x3b
 5912 02ad 0B       		.uleb128 0xb
 5913 02ae 49       		.uleb128 0x49
 5914 02af 13       		.uleb128 0x13
 5915 02b0 3F       		.uleb128 0x3f
 5916 02b1 19       		.uleb128 0x19
 5917 02b2 3C       		.uleb128 0x3c
 5918 02b3 19       		.uleb128 0x19
 5919 02b4 00       		.byte	0
 5920 02b5 00       		.byte	0
 5921 02b6 30       		.uleb128 0x30
ARM GAS  C:\Users\tmj32\AppData\Local\Temp\ccs01wAd.s 			page 129


 5922 02b7 34       		.uleb128 0x34
 5923 02b8 00       		.byte	0
 5924 02b9 03       		.uleb128 0x3
 5925 02ba 08       		.uleb128 0x8
 5926 02bb 3A       		.uleb128 0x3a
 5927 02bc 0B       		.uleb128 0xb
 5928 02bd 3B       		.uleb128 0x3b
 5929 02be 0B       		.uleb128 0xb
 5930 02bf 49       		.uleb128 0x49
 5931 02c0 13       		.uleb128 0x13
 5932 02c1 3F       		.uleb128 0x3f
 5933 02c2 19       		.uleb128 0x19
 5934 02c3 02       		.uleb128 0x2
 5935 02c4 18       		.uleb128 0x18
 5936 02c5 00       		.byte	0
 5937 02c6 00       		.byte	0
 5938 02c7 31       		.uleb128 0x31
 5939 02c8 34       		.uleb128 0x34
 5940 02c9 00       		.byte	0
 5941 02ca 03       		.uleb128 0x3
 5942 02cb 0E       		.uleb128 0xe
 5943 02cc 3A       		.uleb128 0x3a
 5944 02cd 0B       		.uleb128 0xb
 5945 02ce 3B       		.uleb128 0x3b
 5946 02cf 0B       		.uleb128 0xb
 5947 02d0 49       		.uleb128 0x49
 5948 02d1 13       		.uleb128 0x13
 5949 02d2 3F       		.uleb128 0x3f
 5950 02d3 19       		.uleb128 0x19
 5951 02d4 02       		.uleb128 0x2
 5952 02d5 18       		.uleb128 0x18
 5953 02d6 00       		.byte	0
 5954 02d7 00       		.byte	0
 5955 02d8 00       		.byte	0
 5956              		.section	.debug_aranges,"",%progbits
 5957 0000 9C000000 		.4byte	0x9c
 5958 0004 0200     		.2byte	0x2
 5959 0006 00000000 		.4byte	.Ldebug_info0
 5960 000a 04       		.byte	0x4
 5961 000b 00       		.byte	0
 5962 000c 0000     		.2byte	0
 5963 000e 0000     		.2byte	0
 5964 0010 00000000 		.4byte	.LFB588
 5965 0014 38000000 		.4byte	.LFE588-.LFB588
 5966 0018 00000000 		.4byte	.LFB589
 5967 001c 28000000 		.4byte	.LFE589-.LFB589
 5968 0020 00000000 		.4byte	.LFB613
 5969 0024 16000000 		.4byte	.LFE613-.LFB613
 5970 0028 00000000 		.4byte	.LFB668
 5971 002c 26000000 		.4byte	.LFE668-.LFB668
 5972 0030 00000000 		.4byte	.LFB669
 5973 0034 28000000 		.4byte	.LFE669-.LFB669
 5974 0038 00000000 		.4byte	.LFB687
 5975 003c 22000000 		.4byte	.LFE687-.LFB687
 5976 0040 00000000 		.4byte	.LFB714
 5977 0044 22000000 		.4byte	.LFE714-.LFB714
 5978 0048 00000000 		.4byte	.LFB717
ARM GAS  C:\Users\tmj32\AppData\Local\Temp\ccs01wAd.s 			page 130


 5979 004c DC020000 		.4byte	.LFE717-.LFB717
 5980 0050 00000000 		.4byte	.LFB718
 5981 0054 28000000 		.4byte	.LFE718-.LFB718
 5982 0058 00000000 		.4byte	.LFB719
 5983 005c 28000000 		.4byte	.LFE719-.LFB719
 5984 0060 00000000 		.4byte	.LFB720
 5985 0064 40000000 		.4byte	.LFE720-.LFB720
 5986 0068 00000000 		.4byte	.LFB721
 5987 006c 5C000000 		.4byte	.LFE721-.LFB721
 5988 0070 00000000 		.4byte	.LFB722
 5989 0074 5C000000 		.4byte	.LFE722-.LFB722
 5990 0078 00000000 		.4byte	.LFB723
 5991 007c E0000000 		.4byte	.LFE723-.LFB723
 5992 0080 00000000 		.4byte	.LFB724
 5993 0084 E0000000 		.4byte	.LFE724-.LFB724
 5994 0088 00000000 		.4byte	.LFB725
 5995 008c 30000000 		.4byte	.LFE725-.LFB725
 5996 0090 00000000 		.4byte	.LFB726
 5997 0094 6C040000 		.4byte	.LFE726-.LFB726
 5998 0098 00000000 		.4byte	0
 5999 009c 00000000 		.4byte	0
 6000              		.section	.debug_ranges,"",%progbits
 6001              	.Ldebug_ranges0:
 6002 0000 00000000 		.4byte	.LFB588
 6003 0004 38000000 		.4byte	.LFE588
 6004 0008 00000000 		.4byte	.LFB589
 6005 000c 28000000 		.4byte	.LFE589
 6006 0010 00000000 		.4byte	.LFB613
 6007 0014 16000000 		.4byte	.LFE613
 6008 0018 00000000 		.4byte	.LFB668
 6009 001c 26000000 		.4byte	.LFE668
 6010 0020 00000000 		.4byte	.LFB669
 6011 0024 28000000 		.4byte	.LFE669
 6012 0028 00000000 		.4byte	.LFB687
 6013 002c 22000000 		.4byte	.LFE687
 6014 0030 00000000 		.4byte	.LFB714
 6015 0034 22000000 		.4byte	.LFE714
 6016 0038 00000000 		.4byte	.LFB717
 6017 003c DC020000 		.4byte	.LFE717
 6018 0040 00000000 		.4byte	.LFB718
 6019 0044 28000000 		.4byte	.LFE718
 6020 0048 00000000 		.4byte	.LFB719
 6021 004c 28000000 		.4byte	.LFE719
 6022 0050 00000000 		.4byte	.LFB720
 6023 0054 40000000 		.4byte	.LFE720
 6024 0058 00000000 		.4byte	.LFB721
 6025 005c 5C000000 		.4byte	.LFE721
 6026 0060 00000000 		.4byte	.LFB722
 6027 0064 5C000000 		.4byte	.LFE722
 6028 0068 00000000 		.4byte	.LFB723
 6029 006c E0000000 		.4byte	.LFE723
 6030 0070 00000000 		.4byte	.LFB724
 6031 0074 E0000000 		.4byte	.LFE724
 6032 0078 00000000 		.4byte	.LFB725
 6033 007c 30000000 		.4byte	.LFE725
 6034 0080 00000000 		.4byte	.LFB726
 6035 0084 6C040000 		.4byte	.LFE726
ARM GAS  C:\Users\tmj32\AppData\Local\Temp\ccs01wAd.s 			page 131


 6036 0088 00000000 		.4byte	0
 6037 008c 00000000 		.4byte	0
 6038              		.section	.debug_line,"",%progbits
 6039              	.Ldebug_line0:
 6040 0000 11070000 		.section	.debug_str,"MS",%progbits,1
 6040      0200D404 
 6040      00000201 
 6040      FB0E0D00 
 6040      01010101 
 6041              	.LASF188:
 6042 0000 4761696E 		.ascii	"Gain\000"
 6042      00
 6043              	.LASF9:
 6044 0005 6C6F6E67 		.ascii	"long int\000"
 6044      20696E74 
 6044      00
 6045              	.LASF378:
 6046 000e 6F666673 		.ascii	"offset_slider_event_cb\000"
 6046      65745F73 
 6046      6C696465 
 6046      725F6576 
 6046      656E745F 
 6047              	.LASF207:
 6048 0025 5F6C765F 		.ascii	"_lv_obj_t\000"
 6048      6F626A5F 
 6048      7400
 6049              	.LASF141:
 6050 002f 63795F63 		.ascii	"cy_cb_scb_spi_handle_events_t\000"
 6050      625F7363 
 6050      625F7370 
 6050      695F6861 
 6050      6E646C65 
 6051              	.LASF401:
 6052 004d 44495350 		.ascii	"DISP_TICK_TIMER_config\000"
 6052      5F544943 
 6052      4B5F5449 
 6052      4D45525F 
 6052      636F6E66 
 6053              	.LASF202:
 6054 0064 66756C6C 		.ascii	"full\000"
 6054      00
 6055              	.LASF169:
 6056 0069 73746F70 		.ascii	"stopInputMode\000"
 6056      496E7075 
 6056      744D6F64 
 6056      6500
 6057              	.LASF361:
 6058 0077 6C765F72 		.ascii	"lv_roller_get_selected_str\000"
 6058      6F6C6C65 
 6058      725F6765 
 6058      745F7365 
 6058      6C656374 
 6059              	.LASF400:
 6060 0092 63795F64 		.ascii	"cy_device\000"
 6060      65766963 
 6060      6500
 6061              	.LASF402:
ARM GAS  C:\Users\tmj32\AppData\Local\Temp\ccs01wAd.s 			page 132


 6062 009c 4932435F 		.ascii	"I2C_MASTER_context\000"
 6062      4D415354 
 6062      45525F63 
 6062      6F6E7465 
 6062      787400
 6063              	.LASF370:
 6064 00af 63686172 		.ascii	"chart1\000"
 6064      743100
 6065              	.LASF339:
 6066 00b6 4C565F4C 		.ascii	"LV_LABEL_LONG_DOT\000"
 6066      4142454C 
 6066      5F4C4F4E 
 6066      475F444F 
 6066      5400
 6067              	.LASF94:
 6068 00c8 63707573 		.ascii	"cpussCm0ClockCtlOffset\000"
 6068      73436D30 
 6068      436C6F63 
 6068      6B43746C 
 6068      4F666673 
 6069              	.LASF53:
 6070 00df 70657269 		.ascii	"periClockNr\000"
 6070      436C6F63 
 6070      6B4E7200 
 6071              	.LASF122:
 6072 00eb 6D617374 		.ascii	"masterStatus\000"
 6072      65725374 
 6072      61747573 
 6072      00
 6073              	.LASF187:
 6074 00f8 56657274 		.ascii	"VertScale\000"
 6074      5363616C 
 6074      6500
 6075              	.LASF27:
 6076 0102 75646242 		.ascii	"udbBase\000"
 6076      61736500 
 6077              	.LASF290:
 6078 010a 4C565F45 		.ascii	"LV_EVENT_VALUE_CHANGED\000"
 6078      56454E54 
 6078      5F56414C 
 6078      55455F43 
 6078      48414E47 
 6079              	.LASF26:
 6080 0121 70657269 		.ascii	"periBase\000"
 6080      42617365 
 6080      00
 6081              	.LASF178:
 6082 012a 56657273 		.ascii	"VersionID\000"
 6082      696F6E49 
 6082      4400
 6083              	.LASF380:
 6084 0134 686F7269 		.ascii	"hori_slider_event_cb\000"
 6084      5F736C69 
 6084      6465725F 
 6084      6576656E 
 6084      745F6362 
 6085              	.LASF292:
ARM GAS  C:\Users\tmj32\AppData\Local\Temp\ccs01wAd.s 			page 133


 6086 0149 4C565F45 		.ascii	"LV_EVENT_REFRESH\000"
 6086      56454E54 
 6086      5F524546 
 6086      52455348 
 6086      00
 6087              	.LASF223:
 6088 015a 62617365 		.ascii	"base_dir\000"
 6088      5F646972 
 6088      00
 6089              	.LASF221:
 6090 0163 70617265 		.ascii	"parent_event\000"
 6090      6E745F65 
 6090      76656E74 
 6090      00
 6091              	.LASF72:
 6092 0170 64774368 		.ascii	"dwChSize\000"
 6092      53697A65 
 6092      00
 6093              	.LASF189:
 6094 0179 54784275 		.ascii	"TxBuffer\000"
 6094      66666572 
 6094      00
 6095              	.LASF300:
 6096 0182 4C565F41 		.ascii	"LV_ALIGN_CENTER\000"
 6096      4C49474E 
 6096      5F43454E 
 6096      54455200 
 6097              	.LASF217:
 6098 0192 64726167 		.ascii	"drag_throw\000"
 6098      5F746872 
 6098      6F7700
 6099              	.LASF14:
 6100 019d 756E7369 		.ascii	"unsigned int\000"
 6100      676E6564 
 6100      20696E74 
 6100      00
 6101              	.LASF232:
 6102 01aa 6F66735F 		.ascii	"ofs_x\000"
 6102      7800
 6103              	.LASF233:
 6104 01b0 6F66735F 		.ascii	"ofs_y\000"
 6104      7900
 6105              	.LASF127:
 6106 01b6 6D617374 		.ascii	"masterBufferIdx\000"
 6106      65724275 
 6106      66666572 
 6106      49647800 
 6107              	.LASF54:
 6108 01c6 736D6966 		.ascii	"smifDeviceNr\000"
 6108      44657669 
 6108      63654E72 
 6108      00
 6109              	.LASF236:
 6110 01d3 6765745F 		.ascii	"get_glyph_dsc\000"
 6110      676C7970 
 6110      685F6473 
 6110      6300
ARM GAS  C:\Users\tmj32\AppData\Local\Temp\ccs01wAd.s 			page 134


 6111              	.LASF272:
 6112 01e1 6C765F73 		.ascii	"lv_style_t\000"
 6112      74796C65 
 6112      5F7400
 6113              	.LASF73:
 6114 01ec 64774368 		.ascii	"dwChCtlPrioPos\000"
 6114      43746C50 
 6114      72696F50 
 6114      6F7300
 6115              	.LASF168:
 6116 01fb 73746172 		.ascii	"startInput\000"
 6116      74496E70 
 6116      757400
 6117              	.LASF8:
 6118 0206 5F5F696E 		.ascii	"__int32_t\000"
 6118      7433325F 
 6118      7400
 6119              	.LASF50:
 6120 0210 73727373 		.ascii	"srssNumClkpath\000"
 6120      4E756D43 
 6120      6C6B7061 
 6120      746800
 6121              	.LASF307:
 6122 021f 4C565F41 		.ascii	"LV_ALIGN_IN_LEFT_MID\000"
 6122      4C49474E 
 6122      5F494E5F 
 6122      4C454654 
 6122      5F4D4944 
 6123              	.LASF324:
 6124 0234 796F6673 		.ascii	"yofs\000"
 6124      00
 6125              	.LASF24:
 6126 0239 63707573 		.ascii	"cpussBase\000"
 6126      73426173 
 6126      6500
 6127              	.LASF275:
 6128 0243 6C765F64 		.ascii	"lv_design_cb_t\000"
 6128      65736967 
 6128      6E5F6362 
 6128      5F7400
 6129              	.LASF135:
 6130 0252 736C6176 		.ascii	"slaveRxBuffer\000"
 6130      65527842 
 6130      75666665 
 6130      7200
 6131              	.LASF312:
 6132 0260 4C565F41 		.ascii	"LV_ALIGN_OUT_BOTTOM_LEFT\000"
 6132      4C49474E 
 6132      5F4F5554 
 6132      5F424F54 
 6132      544F4D5F 
 6133              	.LASF41:
 6134 0279 70657269 		.ascii	"periVersion\000"
 6134      56657273 
 6134      696F6E00 
 6135              	.LASF262:
 6136 0285 666F6E74 		.ascii	"font\000"
ARM GAS  C:\Users\tmj32\AppData\Local\Temp\ccs01wAd.s 			page 135


 6136      00
 6137              	.LASF139:
 6138 028a 63624164 		.ascii	"cbAddr\000"
 6138      647200
 6139              	.LASF377:
 6140 0291 73775F65 		.ascii	"sw_event_handler\000"
 6140      76656E74 
 6140      5F68616E 
 6140      646C6572 
 6140      00
 6141              	.LASF293:
 6142 02a2 4C565F45 		.ascii	"LV_EVENT_APPLY\000"
 6142      56454E54 
 6142      5F415050 
 6142      4C5900
 6143              	.LASF170:
 6144 02b1 73746F70 		.ascii	"stopInput\000"
 6144      496E7075 
 6144      7400
 6145              	.LASF184:
 6146 02bb 4F666673 		.ascii	"Offset\000"
 6146      657400
 6147              	.LASF285:
 6148 02c2 4C565F45 		.ascii	"LV_EVENT_DRAG_END\000"
 6148      56454E54 
 6148      5F445241 
 6148      475F454E 
 6148      4400
 6149              	.LASF116:
 6150 02d4 63795F65 		.ascii	"cy_en_scb_i2c_command_t\000"
 6150      6E5F7363 
 6150      625F6932 
 6150      635F636F 
 6150      6D6D616E 
 6151              	.LASF195:
 6152 02ec 6E5F7369 		.ascii	"n_size\000"
 6152      7A6500
 6153              	.LASF130:
 6154 02f3 736C6176 		.ascii	"slaveRdBufEmpty\000"
 6154      65526442 
 6154      7566456D 
 6154      70747900 
 6155              	.LASF80:
 6156 0303 70657269 		.ascii	"periTrGrSize\000"
 6156      54724772 
 6156      53697A65 
 6156      00
 6157              	.LASF60:
 6158 0310 63727970 		.ascii	"cryptoMemSize\000"
 6158      746F4D65 
 6158      6D53697A 
 6158      6500
 6159              	.LASF106:
 6160 031e 63707573 		.ascii	"cpussRam1Ctl0\000"
 6160      7352616D 
 6160      3143746C 
 6160      3000
ARM GAS  C:\Users\tmj32\AppData\Local\Temp\ccs01wAd.s 			page 136


 6161              	.LASF108:
 6162 032c 69706353 		.ascii	"ipcStructSize\000"
 6162      74727563 
 6162      7453697A 
 6162      6500
 6163              	.LASF115:
 6164 033a 43595F53 		.ascii	"CY_SCB_I2C_NAK\000"
 6164      43425F49 
 6164      32435F4E 
 6164      414B00
 6165              	.LASF48:
 6166 0349 63707573 		.ascii	"cpussFmIrq\000"
 6166      73466D49 
 6166      727100
 6167              	.LASF118:
 6168 0354 63795F63 		.ascii	"cy_cb_scb_i2c_handle_addr_t\000"
 6168      625F7363 
 6168      625F6932 
 6168      635F6861 
 6168      6E646C65 
 6169              	.LASF159:
 6170 0370 636F6D70 		.ascii	"compare0\000"
 6170      61726530 
 6170      00
 6171              	.LASF160:
 6172 0379 636F6D70 		.ascii	"compare1\000"
 6172      61726531 
 6172      00
 6173              	.LASF287:
 6174 0382 4C565F45 		.ascii	"LV_EVENT_KEY\000"
 6174      56454E54 
 6174      5F4B4559 
 6174      00
 6175              	.LASF358:
 6176 038f 616E696D 		.ascii	"anim\000"
 6176      00
 6177              	.LASF142:
 6178 0394 63795F73 		.ascii	"cy_stc_scb_i2c_context\000"
 6178      74635F73 
 6178      63625F69 
 6178      32635F63 
 6178      6F6E7465 
 6179              	.LASF332:
 6180 03ab 4C565F42 		.ascii	"LV_BTN_STATE_PR\000"
 6180      544E5F53 
 6180      54415445 
 6180      5F505200 
 6181              	.LASF82:
 6182 03bb 70657269 		.ascii	"periDivCmdTypeSelPos\000"
 6182      44697643 
 6182      6D645479 
 6182      70655365 
 6182      6C506F73 
 6183              	.LASF99:
 6184 03d0 63707573 		.ascii	"cpussTrimRamCtlOffset\000"
 6184      73547269 
 6184      6D52616D 
ARM GAS  C:\Users\tmj32\AppData\Local\Temp\ccs01wAd.s 			page 137


 6184      43746C4F 
 6184      66667365 
 6185              	.LASF102:
 6186 03e6 63707573 		.ascii	"cpussCm0NmiCtlOffset\000"
 6186      73436D30 
 6186      4E6D6943 
 6186      746C4F66 
 6186      66736574 
 6187              	.LASF330:
 6188 03fb 6C765F6F 		.ascii	"lv_obj_t\000"
 6188      626A5F74 
 6188      00
 6189              	.LASF398:
 6190 0404 76657274 		.ascii	"vertLabel1\000"
 6190      4C616265 
 6190      6C3100
 6191              	.LASF390:
 6192 040f 76657274 		.ascii	"vertLabel2\000"
 6192      4C616265 
 6192      6C3200
 6193              	.LASF270:
 6194 041a 696D6167 		.ascii	"image\000"
 6194      6500
 6195              	.LASF131:
 6196 0420 736C6176 		.ascii	"slaveTxBuffer\000"
 6196      65547842 
 6196      75666665 
 6196      7200
 6197              	.LASF409:
 6198 042e 433A5C55 		.ascii	"C:\\Users\\tmj32\\Documents\\TCNJ\\Senior_Project\\"
 6198      73657273 
 6198      5C746D6A 
 6198      33325C44 
 6198      6F63756D 
 6199 045b 4F736369 		.ascii	"Oscilloscope_Senior_Project\\tcom_engineering\\embe"
 6199      6C6C6F73 
 6199      636F7065 
 6199      5F53656E 
 6199      696F725F 
 6200 048c 645F7377 		.ascii	"d_sw\\tcom_app\\tcom_app_psoc6_lvgl6\\tcom_displ_te"
 6200      5C74636F 
 6200      6D5F6170 
 6200      705C7463 
 6200      6F6D5F61 
 6201 04bc 73745F70 		.ascii	"st_psoc6.cydsn\000"
 6201      736F6336 
 6201      2E637964 
 6201      736E00
 6202              	.LASF228:
 6203 04cb 7265616C 		.ascii	"realign\000"
 6203      69676E00 
 6204              	.LASF365:
 6205 04d3 63686172 		.ascii	"chart_width\000"
 6205      745F7769 
 6205      64746800 
 6206              	.LASF254:
 6207 04df 696E6E65 		.ascii	"inner\000"
ARM GAS  C:\Users\tmj32\AppData\Local\Temp\ccs01wAd.s 			page 138


 6207      7200
 6208              	.LASF133:
 6209 04e5 736C6176 		.ascii	"slaveTxBufferIdx\000"
 6209      65547842 
 6209      75666665 
 6209      72496478 
 6209      00
 6210              	.LASF318:
 6211 04f6 4C565F41 		.ascii	"LV_ALIGN_OUT_RIGHT_TOP\000"
 6211      4C49474E 
 6211      5F4F5554 
 6211      5F524947 
 6211      48545F54 
 6212              	.LASF23:
 6213 050d 75696E74 		.ascii	"uint32_t\000"
 6213      33325F74 
 6213      00
 6214              	.LASF18:
 6215 0516 696E7438 		.ascii	"int8_t\000"
 6215      5F7400
 6216              	.LASF203:
 6217 051d 6C765F63 		.ascii	"lv_color32_t\000"
 6217      6F6C6F72 
 6217      33325F74 
 6217      00
 6218              	.LASF363:
 6219 052a 6275665F 		.ascii	"buf_size\000"
 6219      73697A65 
 6219      00
 6220              	.LASF291:
 6221 0533 4C565F45 		.ascii	"LV_EVENT_INSERT\000"
 6221      56454E54 
 6221      5F494E53 
 6221      45525400 
 6222              	.LASF92:
 6223 0543 6770696F 		.ascii	"gpioPrtCfgOutOffset\000"
 6223      50727443 
 6223      66674F75 
 6223      744F6666 
 6223      73657400 
 6224              	.LASF314:
 6225 0557 4C565F41 		.ascii	"LV_ALIGN_OUT_BOTTOM_RIGHT\000"
 6225      4C49474E 
 6225      5F4F5554 
 6225      5F424F54 
 6225      544F4D5F 
 6226              	.LASF111:
 6227 0571 666C6F61 		.ascii	"float\000"
 6227      7400
 6228              	.LASF261:
 6229 0577 73656C5F 		.ascii	"sel_color\000"
 6229      636F6C6F 
 6229      7200
 6230              	.LASF215:
 6231 0581 636C6963 		.ascii	"click\000"
 6231      6B00
 6232              	.LASF321:
ARM GAS  C:\Users\tmj32\AppData\Local\Temp\ccs01wAd.s 			page 139


 6233 0587 6C765F61 		.ascii	"lv_align_t\000"
 6233      6C69676E 
 6233      5F7400
 6234              	.LASF375:
 6235 0592 6576656E 		.ascii	"event\000"
 6235      7400
 6236              	.LASF56:
 6237 0598 65704D6F 		.ascii	"epMonitorNr\000"
 6237      6E69746F 
 6237      724E7200 
 6238              	.LASF322:
 6239 05a4 62617365 		.ascii	"base\000"
 6239      00
 6240              	.LASF382:
 6241 05a9 77696E64 		.ascii	"window_slider_event_cb\000"
 6241      6F775F73 
 6241      6C696465 
 6241      725F6576 
 6241      656E745F 
 6242              	.LASF166:
 6243 05c0 72656C6F 		.ascii	"reloadInput\000"
 6243      6164496E 
 6243      70757400 
 6244              	.LASF20:
 6245 05cc 696E7431 		.ascii	"int16_t\000"
 6245      365F7400 
 6246              	.LASF91:
 6247 05d4 6770696F 		.ascii	"gpioPrtCfgInOffset\000"
 6247      50727443 
 6247      6667496E 
 6247      4F666673 
 6247      657400
 6248              	.LASF340:
 6249 05e7 4C565F4C 		.ascii	"LV_LABEL_LONG_SROLL\000"
 6249      4142454C 
 6249      5F4C4F4E 
 6249      475F5352 
 6249      4F4C4C00 
 6250              	.LASF198:
 6251 05fb 6C765F6C 		.ascii	"lv_ll_t\000"
 6251      6C5F7400 
 6252              	.LASF13:
 6253 0603 6C6F6E67 		.ascii	"long long unsigned int\000"
 6253      206C6F6E 
 6253      6720756E 
 6253      7369676E 
 6253      65642069 
 6254              	.LASF299:
 6255 061a 6C765F73 		.ascii	"lv_signal_cb_t\000"
 6255      69676E61 
 6255      6C5F6362 
 6255      5F7400
 6256              	.LASF93:
 6257 0629 6770696F 		.ascii	"gpioPrtCfgSioOffset\000"
 6257      50727443 
 6257      66675369 
 6257      6F4F6666 
ARM GAS  C:\Users\tmj32\AppData\Local\Temp\ccs01wAd.s 			page 140


 6257      73657400 
 6258              	.LASF249:
 6259 063d 70617274 		.ascii	"part\000"
 6259      00
 6260              	.LASF320:
 6261 0642 4C565F41 		.ascii	"LV_ALIGN_OUT_RIGHT_BOTTOM\000"
 6261      4C49474E 
 6261      5F4F5554 
 6261      5F524947 
 6261      48545F42 
 6262              	.LASF52:
 6263 065c 73727373 		.ascii	"srssNumHfroot\000"
 6263      4E756D48 
 6263      66726F6F 
 6263      7400
 6264              	.LASF196:
 6265 066a 68656164 		.ascii	"head\000"
 6265      00
 6266              	.LASF371:
 6267 066f 62756666 		.ascii	"bufferFirst\000"
 6267      65724669 
 6267      72737400 
 6268              	.LASF22:
 6269 067b 696E7433 		.ascii	"int32_t\000"
 6269      325F7400 
 6270              	.LASF385:
 6271 0683 74726967 		.ascii	"triggerSlider\000"
 6271      67657253 
 6271      6C696465 
 6271      7200
 6272              	.LASF132:
 6273 0691 736C6176 		.ascii	"slaveTxBufferSize\000"
 6273      65547842 
 6273      75666665 
 6273      7253697A 
 6273      6500
 6274              	.LASF368:
 6275 06a3 63686172 		.ascii	"chart_horiPos\000"
 6275      745F686F 
 6275      7269506F 
 6275      7300
 6276              	.LASF83:
 6277 06b1 70657269 		.ascii	"periDivCmdPaDivSelPos\000"
 6277      44697643 
 6277      6D645061 
 6277      44697653 
 6277      656C506F 
 6278              	.LASF167:
 6279 06c7 73746172 		.ascii	"startInputMode\000"
 6279      74496E70 
 6279      75744D6F 
 6279      646500
 6280              	.LASF201:
 6281 06d6 616C7068 		.ascii	"alpha\000"
 6281      6100
 6282              	.LASF163:
 6283 06dc 63617074 		.ascii	"captureInputMode\000"
ARM GAS  C:\Users\tmj32\AppData\Local\Temp\ccs01wAd.s 			page 141


 6283      75726549 
 6283      6E707574 
 6283      4D6F6465 
 6283      00
 6284              	.LASF313:
 6285 06ed 4C565F41 		.ascii	"LV_ALIGN_OUT_BOTTOM_MID\000"
 6285      4C49474E 
 6285      5F4F5554 
 6285      5F424F54 
 6285      544F4D5F 
 6286              	.LASF411:
 6287 0705 63686172 		.ascii	"chart_actions\000"
 6287      745F6163 
 6287      74696F6E 
 6287      7300
 6288              	.LASF357:
 6289 0713 76616C75 		.ascii	"value\000"
 6289      6500
 6290              	.LASF356:
 6291 0719 736C6964 		.ascii	"slider\000"
 6291      657200
 6292              	.LASF145:
 6293 0720 72784275 		.ascii	"rxBuf\000"
 6293      6600
 6294              	.LASF32:
 6295 0726 69706342 		.ascii	"ipcBase\000"
 6295      61736500 
 6296              	.LASF185:
 6297 072e 77696E64 		.ascii	"windowPos\000"
 6297      6F77506F 
 6297      7300
 6298              	.LASF247:
 6299 0738 636F6C6F 		.ascii	"color\000"
 6299      7200
 6300              	.LASF69:
 6301 073e 666C6173 		.ascii	"flashCtlMainWs3Freq\000"
 6301      6843746C 
 6301      4D61696E 
 6301      57733346 
 6301      72657100 
 6302              	.LASF51:
 6303 0752 73727373 		.ascii	"srssNumPll\000"
 6303      4E756D50 
 6303      6C6C00
 6304              	.LASF266:
 6305 075d 726F756E 		.ascii	"rounded\000"
 6305      64656400 
 6306              	.LASF316:
 6307 0765 4C565F41 		.ascii	"LV_ALIGN_OUT_LEFT_MID\000"
 6307      4C49474E 
 6307      5F4F5554 
 6307      5F4C4546 
 6307      545F4D49 
 6308              	.LASF30:
 6309 077b 6770696F 		.ascii	"gpioBase\000"
 6309      42617365 
 6309      00
ARM GAS  C:\Users\tmj32\AppData\Local\Temp\ccs01wAd.s 			page 142


 6310              	.LASF214:
 6311 0784 7374796C 		.ascii	"style_p\000"
 6311      655F7000 
 6312              	.LASF353:
 6313 078c 4C565F52 		.ascii	"LV_ROLLER_MODE_INIFINITE\000"
 6313      4F4C4C45 
 6313      525F4D4F 
 6313      44455F49 
 6313      4E494649 
 6314              	.LASF248:
 6315 07a5 77696474 		.ascii	"width\000"
 6315      6800
 6316              	.LASF62:
 6317 07ab 666C6173 		.ascii	"flashPipeRequired\000"
 6317      68506970 
 6317      65526571 
 6317      75697265 
 6317      6400
 6318              	.LASF128:
 6319 07bd 6D617374 		.ascii	"masterNumBytes\000"
 6319      65724E75 
 6319      6D427974 
 6319      657300
 6320              	.LASF387:
 6321 07cc 686F7269 		.ascii	"horiSlider\000"
 6321      536C6964 
 6321      657200
 6322              	.LASF138:
 6323 07d7 63624576 		.ascii	"cbEvents\000"
 6323      656E7473 
 6323      00
 6324              	.LASF295:
 6325 07e0 4C565F45 		.ascii	"LV_EVENT_DELETE\000"
 6325      56454E54 
 6325      5F44454C 
 6325      45544500 
 6326              	.LASF194:
 6327 07f0 6C765F6C 		.ascii	"lv_ll_node_t\000"
 6327      6C5F6E6F 
 6327      64655F74 
 6327      00
 6328              	.LASF344:
 6329 07fd 4C565F43 		.ascii	"LV_CHART_TYPE_LINE\000"
 6329      48415254 
 6329      5F545950 
 6329      455F4C49 
 6329      4E4500
 6330              	.LASF278:
 6331 0810 4C565F45 		.ascii	"LV_EVENT_PRESS_LOST\000"
 6331      56454E54 
 6331      5F505245 
 6331      53535F4C 
 6331      4F535400 
 6332              	.LASF113:
 6333 0824 5F426F6F 		.ascii	"_Bool\000"
 6333      6C00
 6334              	.LASF405:
ARM GAS  C:\Users\tmj32\AppData\Local\Temp\ccs01wAd.s 			page 143


 6335 082a 74636E6A 		.ascii	"tcnj_gold\000"
 6335      5F676F6C 
 6335      6400
 6336              	.LASF66:
 6337 0834 666C6173 		.ascii	"flashCtlMainWs0Freq\000"
 6337      6843746C 
 6337      4D61696E 
 6337      57733046 
 6337      72657100 
 6338              	.LASF119:
 6339 0848 75736552 		.ascii	"useRxFifo\000"
 6339      78466966 
 6339      6F00
 6340              	.LASF235:
 6341 0852 5F6C765F 		.ascii	"_lv_font_struct\000"
 6341      666F6E74 
 6341      5F737472 
 6341      75637400 
 6342              	.LASF337:
 6343 0862 4C565F4C 		.ascii	"LV_LABEL_LONG_EXPAND\000"
 6343      4142454C 
 6343      5F4C4F4E 
 6343      475F4558 
 6343      50414E44 
 6344              	.LASF276:
 6345 0877 4C565F45 		.ascii	"LV_EVENT_PRESSED\000"
 6345      56454E54 
 6345      5F505245 
 6345      53534544 
 6345      00
 6346              	.LASF372:
 6347 0888 62756666 		.ascii	"bufferLast\000"
 6347      65724C61 
 6347      737400
 6348              	.LASF334:
 6349 0893 4C565F42 		.ascii	"LV_BTN_STATE_TGL_PR\000"
 6349      544E5F53 
 6349      54415445 
 6349      5F54474C 
 6349      5F505200 
 6350              	.LASF109:
 6351 08a7 6970634C 		.ascii	"ipcLockStatusOffset\000"
 6351      6F636B53 
 6351      74617475 
 6351      734F6666 
 6351      73657400 
 6352              	.LASF367:
 6353 08bb 63686172 		.ascii	"chart_vertPos\000"
 6353      745F7665 
 6353      7274506F 
 6353      7300
 6354              	.LASF238:
 6355 08c9 6C696E65 		.ascii	"line_height\000"
 6355      5F686569 
 6355      67687400 
 6356              	.LASF101:
 6357 08d5 63707573 		.ascii	"cpussSysTickCtlOffset\000"
ARM GAS  C:\Users\tmj32\AppData\Local\Temp\ccs01wAd.s 			page 144


 6357      73537973 
 6357      5469636B 
 6357      43746C4F 
 6357      66667365 
 6358              	.LASF57:
 6359 08eb 75646250 		.ascii	"udbPresent\000"
 6359      72657365 
 6359      6E7400
 6360              	.LASF359:
 6361 08f6 6C765F73 		.ascii	"lv_slider_set_value\000"
 6361      6C696465 
 6361      725F7365 
 6361      745F7661 
 6361      6C756500 
 6362              	.LASF75:
 6363 090a 64775374 		.ascii	"dwStatusChIdxPos\000"
 6363      61747573 
 6363      43684964 
 6363      78506F73 
 6363      00
 6364              	.LASF6:
 6365 091b 5F5F7569 		.ascii	"__uint16_t\000"
 6365      6E743136 
 6365      5F7400
 6366              	.LASF355:
 6367 0926 6C765F63 		.ascii	"lv_color_hex\000"
 6367      6F6C6F72 
 6367      5F686578 
 6367      00
 6368              	.LASF256:
 6369 0933 67726164 		.ascii	"grad_color\000"
 6369      5F636F6C 
 6369      6F7200
 6370              	.LASF46:
 6371 093e 63707573 		.ascii	"cpussFlashPaSize\000"
 6371      73466C61 
 6371      73685061 
 6371      53697A65 
 6371      00
 6372              	.LASF164:
 6373 094f 63617074 		.ascii	"captureInput\000"
 6373      75726549 
 6373      6E707574 
 6373      00
 6374              	.LASF345:
 6375 095c 4C565F43 		.ascii	"LV_CHART_TYPE_COLUMN\000"
 6375      48415254 
 6375      5F545950 
 6375      455F434F 
 6375      4C554D4E 
 6376              	.LASF114:
 6377 0971 43595F53 		.ascii	"CY_SCB_I2C_ACK\000"
 6377      43425F49 
 6377      32435F41 
 6377      434B00
 6378              	.LASF17:
 6379 0980 63686172 		.ascii	"char\000"
ARM GAS  C:\Users\tmj32\AppData\Local\Temp\ccs01wAd.s 			page 145


 6379      00
 6380              	.LASF381:
 6381 0985 76657274 		.ascii	"verti_slider_event_cb\000"
 6381      695F736C 
 6381      69646572 
 6381      5F657665 
 6381      6E745F63 
 6382              	.LASF396:
 6383 099b 74726967 		.ascii	"triggerLabel\000"
 6383      6765724C 
 6383      6162656C 
 6383      00
 6384              	.LASF84:
 6385 09a8 70657269 		.ascii	"periDivCmdPaTypeSelPos\000"
 6385      44697643 
 6385      6D645061 
 6385      54797065 
 6385      53656C50 
 6386              	.LASF218:
 6387 09bf 64726167 		.ascii	"drag_parent\000"
 6387      5F706172 
 6387      656E7400 
 6388              	.LASF190:
 6389 09cb 52784275 		.ascii	"RxBuffer\000"
 6389      66666572 
 6389      00
 6390              	.LASF58:
 6391 09d4 73797350 		.ascii	"sysPmSimoPresent\000"
 6391      6D53696D 
 6391      6F507265 
 6391      73656E74 
 6391      00
 6392              	.LASF126:
 6393 09e5 6D617374 		.ascii	"masterBufferSize\000"
 6393      65724275 
 6393      66666572 
 6393      53697A65 
 6393      00
 6394              	.LASF227:
 6395 09f6 6578745F 		.ascii	"ext_draw_pad\000"
 6395      64726177 
 6395      5F706164 
 6395      00
 6396              	.LASF251:
 6397 0a03 626F7474 		.ascii	"bottom\000"
 6397      6F6D00
 6398              	.LASF158:
 6399 0a0a 636F6D70 		.ascii	"compareOrCapture\000"
 6399      6172654F 
 6399      72436170 
 6399      74757265 
 6399      00
 6400              	.LASF155:
 6401 0a1b 636C6F63 		.ascii	"clockPrescaler\000"
 6401      6B507265 
 6401      7363616C 
 6401      657200
ARM GAS  C:\Users\tmj32\AppData\Local\Temp\ccs01wAd.s 			page 146


 6402              	.LASF403:
 6403 0a2a 5350494D 		.ascii	"SPIM_context\000"
 6403      5F636F6E 
 6403      74657874 
 6403      00
 6404              	.LASF147:
 6405 0a37 72784275 		.ascii	"rxBufIdx\000"
 6405      66496478 
 6405      00
 6406              	.LASF234:
 6407 0a40 6C765F66 		.ascii	"lv_font_glyph_dsc_t\000"
 6407      6F6E745F 
 6407      676C7970 
 6407      685F6473 
 6407      635F7400 
 6408              	.LASF151:
 6409 0a54 696E6974 		.ascii	"initKey\000"
 6409      4B657900 
 6410              	.LASF395:
 6411 0a5c 6F666673 		.ascii	"offsetLabel\000"
 6411      65744C61 
 6411      62656C00 
 6412              	.LASF76:
 6413 0a68 64775374 		.ascii	"dwStatusChIdxMsk\000"
 6413      61747573 
 6413      43684964 
 6413      784D736B 
 6413      00
 6414              	.LASF306:
 6415 0a79 4C565F41 		.ascii	"LV_ALIGN_IN_BOTTOM_RIGHT\000"
 6415      4C49474E 
 6415      5F494E5F 
 6415      424F5454 
 6415      4F4D5F52 
 6416              	.LASF19:
 6417 0a92 75696E74 		.ascii	"uint8_t\000"
 6417      385F7400 
 6418              	.LASF144:
 6419 0a9a 73746174 		.ascii	"status\000"
 6419      757300
 6420              	.LASF250:
 6421 0aa1 74797065 		.ascii	"type\000"
 6421      00
 6422              	.LASF134:
 6423 0aa6 736C6176 		.ascii	"slaveTxBufferCnt\000"
 6423      65547842 
 6423      75666665 
 6423      72436E74 
 6423      00
 6424              	.LASF222:
 6425 0ab7 64726167 		.ascii	"drag_dir\000"
 6425      5F646972 
 6425      00
 6426              	.LASF31:
 6427 0ac0 70617373 		.ascii	"passBase\000"
 6427      42617365 
 6427      00
ARM GAS  C:\Users\tmj32\AppData\Local\Temp\ccs01wAd.s 			page 147


 6428              	.LASF81:
 6429 0ac9 70657269 		.ascii	"periDivCmdDivSelMsk\000"
 6429      44697643 
 6429      6D644469 
 6429      7653656C 
 6429      4D736B00 
 6430              	.LASF294:
 6431 0add 4C565F45 		.ascii	"LV_EVENT_CANCEL\000"
 6431      56454E54 
 6431      5F43414E 
 6431      43454C00 
 6432              	.LASF181:
 6433 0aed 53616D70 		.ascii	"SampleRate\000"
 6433      6C655261 
 6433      746500
 6434              	.LASF246:
 6435 0af8 6C765F73 		.ascii	"lv_shadow_type_t\000"
 6435      6861646F 
 6435      775F7479 
 6435      70655F74 
 6435      00
 6436              	.LASF354:
 6437 0b09 6C765F63 		.ascii	"lv_color_make\000"
 6437      6F6C6F72 
 6437      5F6D616B 
 6437      6500
 6438              	.LASF338:
 6439 0b17 4C565F4C 		.ascii	"LV_LABEL_LONG_BREAK\000"
 6439      4142454C 
 6439      5F4C4F4E 
 6439      475F4252 
 6439      45414B00 
 6440              	.LASF410:
 6441 0b2b 6C765F73 		.ascii	"lv_scr_act\000"
 6441      63725F61 
 6441      637400
 6442              	.LASF253:
 6443 0b36 72696768 		.ascii	"right\000"
 6443      7400
 6444              	.LASF105:
 6445 0b3c 63707573 		.ascii	"cpussRam0Ctl0\000"
 6445      7352616D 
 6445      3043746C 
 6445      3000
 6446              	.LASF12:
 6447 0b4a 6C6F6E67 		.ascii	"long long int\000"
 6447      206C6F6E 
 6447      6720696E 
 6447      7400
 6448              	.LASF393:
 6449 0b58 726F6C6C 		.ascii	"roller1\000"
 6449      65723100 
 6450              	.LASF394:
 6451 0b60 726F6C6C 		.ascii	"roller2\000"
 6451      65723200 
 6452              	.LASF315:
 6453 0b68 4C565F41 		.ascii	"LV_ALIGN_OUT_LEFT_TOP\000"
ARM GAS  C:\Users\tmj32\AppData\Local\Temp\ccs01wAd.s 			page 148


 6453      4C49474E 
 6453      5F4F5554 
 6453      5F4C4546 
 6453      545F544F 
 6454              	.LASF33:
 6455 0b7e 63727970 		.ascii	"cryptoBase\000"
 6455      746F4261 
 6455      736500
 6456              	.LASF269:
 6457 0b89 74657874 		.ascii	"text\000"
 6457      00
 6458              	.LASF326:
 6459 0b8e 6175746F 		.ascii	"auto_realign\000"
 6459      5F726561 
 6459      6C69676E 
 6459      00
 6460              	.LASF88:
 6461 0b9b 70657269 		.ascii	"periDiv24_5CtlOffset\000"
 6461      44697632 
 6461      345F3543 
 6461      746C4F66 
 6461      66736574 
 6462              	.LASF260:
 6463 0bb0 70616464 		.ascii	"padding\000"
 6463      696E6700 
 6464              	.LASF376:
 6465 0bb8 726F6C6C 		.ascii	"roller2_event\000"
 6465      6572325F 
 6465      6576656E 
 6465      7400
 6466              	.LASF63:
 6467 0bc6 666C6173 		.ascii	"flashWriteDelay\000"
 6467      68577269 
 6467      74654465 
 6467      6C617900 
 6468              	.LASF341:
 6469 0bd6 4C565F4C 		.ascii	"LV_LABEL_LONG_SROLL_CIRC\000"
 6469      4142454C 
 6469      5F4C4F4E 
 6469      475F5352 
 6469      4F4C4C5F 
 6470              	.LASF150:
 6471 0bef 74784275 		.ascii	"txBufIdx\000"
 6471      66496478 
 6471      00
 6472              	.LASF120:
 6473 0bf8 75736554 		.ascii	"useTxFifo\000"
 6473      78466966 
 6473      6F00
 6474              	.LASF323:
 6475 0c02 786F6673 		.ascii	"xofs\000"
 6475      00
 6476              	.LASF117:
 6477 0c07 63795F63 		.ascii	"cy_cb_scb_i2c_handle_events_t\000"
 6477      625F7363 
 6477      625F6932 
 6477      635F6861 
ARM GAS  C:\Users\tmj32\AppData\Local\Temp\ccs01wAd.s 			page 149


 6477      6E646C65 
 6478              	.LASF4:
 6479 0c25 5F5F696E 		.ascii	"__int16_t\000"
 6479      7431365F 
 6479      7400
 6480              	.LASF175:
 6481 0c2f 42726961 		.ascii	"BrianReg\000"
 6481      6E526567 
 6481      00
 6482              	.LASF29:
 6483 0c38 6873696F 		.ascii	"hsiomBase\000"
 6483      6D426173 
 6483      6500
 6484              	.LASF124:
 6485 0c42 6D617374 		.ascii	"masterRdDir\000"
 6485      65725264 
 6485      44697200 
 6486              	.LASF273:
 6487 0c4e 6C765F62 		.ascii	"lv_bidi_dir_t\000"
 6487      6964695F 
 6487      6469725F 
 6487      7400
 6488              	.LASF296:
 6489 0c5c 6C765F65 		.ascii	"lv_event_t\000"
 6489      76656E74 
 6489      5F7400
 6490              	.LASF79:
 6491 0c67 70657269 		.ascii	"periTrGrOffset\000"
 6491      54724772 
 6491      4F666673 
 6491      657400
 6492              	.LASF49:
 6493 0c76 63707573 		.ascii	"cpussNotConnectedIrq\000"
 6493      734E6F74 
 6493      436F6E6E 
 6493      65637465 
 6493      64497271 
 6494              	.LASF327:
 6495 0c8b 6F726967 		.ascii	"origo_align\000"
 6495      6F5F616C 
 6495      69676E00 
 6496              	.LASF152:
 6497 0c97 63795F73 		.ascii	"cy_stc_scb_spi_context_t\000"
 6497      74635F73 
 6497      63625F73 
 6497      70695F63 
 6497      6F6E7465 
 6498              	.LASF193:
 6499 0cb0 6C765F72 		.ascii	"lv_res_t\000"
 6499      65735F74 
 6499      00
 6500              	.LASF165:
 6501 0cb9 72656C6F 		.ascii	"reloadInputMode\000"
 6501      6164496E 
 6501      7075744D 
 6501      6F646500 
 6502              	.LASF352:
ARM GAS  C:\Users\tmj32\AppData\Local\Temp\ccs01wAd.s 			page 150


 6503 0cc9 4C565F52 		.ascii	"LV_ROLLER_MODE_NORMAL\000"
 6503      4F4C4C45 
 6503      525F4D4F 
 6503      44455F4E 
 6503      4F524D41 
 6504              	.LASF329:
 6505 0cdf 6C765F64 		.ascii	"lv_drag_dir_t\000"
 6505      7261675F 
 6505      6469725F 
 6505      7400
 6506              	.LASF305:
 6507 0ced 4C565F41 		.ascii	"LV_ALIGN_IN_BOTTOM_MID\000"
 6507      4C49474E 
 6507      5F494E5F 
 6507      424F5454 
 6507      4F4D5F4D 
 6508              	.LASF383:
 6509 0d04 6F666673 		.ascii	"offsetSlider\000"
 6509      6574536C 
 6509      69646572 
 6509      00
 6510              	.LASF149:
 6511 0d11 74784275 		.ascii	"txBufSize\000"
 6511      6653697A 
 6511      6500
 6512              	.LASF43:
 6513 0d1b 63707573 		.ascii	"cpussIpcNr\000"
 6513      73497063 
 6513      4E7200
 6514              	.LASF289:
 6515 0d26 4C565F45 		.ascii	"LV_EVENT_DEFOCUSED\000"
 6515      56454E54 
 6515      5F444546 
 6515      4F435553 
 6515      454400
 6516              	.LASF284:
 6517 0d39 4C565F45 		.ascii	"LV_EVENT_DRAG_BEGIN\000"
 6517      56454E54 
 6517      5F445241 
 6517      475F4245 
 6517      47494E00 
 6518              	.LASF96:
 6519 0d4d 63707573 		.ascii	"cpussCm4StatusOffset\000"
 6519      73436D34 
 6519      53746174 
 6519      75734F66 
 6519      66736574 
 6520              	.LASF55:
 6521 0d62 70617373 		.ascii	"passSarChannels\000"
 6521      53617243 
 6521      68616E6E 
 6521      656C7300 
 6522              	.LASF137:
 6523 0d72 736C6176 		.ascii	"slaveRxBufferIdx\000"
 6523      65527842 
 6523      75666665 
 6523      72496478 
ARM GAS  C:\Users\tmj32\AppData\Local\Temp\ccs01wAd.s 			page 151


 6523      00
 6524              	.LASF107:
 6525 0d83 63707573 		.ascii	"cpussRam2Ctl0\000"
 6525      7352616D 
 6525      3243746C 
 6525      3000
 6526              	.LASF243:
 6527 0d91 4C565F41 		.ascii	"LV_ANIM_ON\000"
 6527      4E494D5F 
 6527      4F4E00
 6528              	.LASF123:
 6529 0d9c 6D617374 		.ascii	"masterPause\000"
 6529      65725061 
 6529      75736500 
 6530              	.LASF161:
 6531 0da8 656E6162 		.ascii	"enableCompareSwap\000"
 6531      6C65436F 
 6531      6D706172 
 6531      65537761 
 6531      7000
 6532              	.LASF308:
 6533 0dba 4C565F41 		.ascii	"LV_ALIGN_IN_RIGHT_MID\000"
 6533      4C49474E 
 6533      5F494E5F 
 6533      52494748 
 6533      545F4D49 
 6534              	.LASF42:
 6535 0dd0 70726F74 		.ascii	"protVersion\000"
 6535      56657273 
 6535      696F6E00 
 6536              	.LASF386:
 6537 0ddc 74726967 		.ascii	"triggerLabel2\000"
 6537      6765724C 
 6537      6162656C 
 6537      3200
 6538              	.LASF148:
 6539 0dea 74784275 		.ascii	"txBuf\000"
 6539      6600
 6540              	.LASF240:
 6541 0df0 73756270 		.ascii	"subpx\000"
 6541      7800
 6542              	.LASF204:
 6543 0df6 6C765F63 		.ascii	"lv_color_t\000"
 6543      6F6C6F72 
 6543      5F7400
 6544              	.LASF259:
 6545 0e01 73686164 		.ascii	"shadow\000"
 6545      6F7700
 6546              	.LASF64:
 6547 0e08 666C6173 		.ascii	"flashProgramDelay\000"
 6547      6850726F 
 6547      6772616D 
 6547      44656C61 
 6547      7900
 6548              	.LASF183:
 6549 0e1a 52657365 		.ascii	"Reset\000"
 6549      7400
ARM GAS  C:\Users\tmj32\AppData\Local\Temp\ccs01wAd.s 			page 152


 6550              	.LASF136:
 6551 0e20 736C6176 		.ascii	"slaveRxBufferSize\000"
 6551      65527842 
 6551      75666665 
 6551      7253697A 
 6551      6500
 6552              	.LASF282:
 6553 0e32 4C565F45 		.ascii	"LV_EVENT_CLICKED\000"
 6553      56454E54 
 6553      5F434C49 
 6553      434B4544 
 6553      00
 6554              	.LASF392:
 6555 0e43 73776974 		.ascii	"switchLabel\000"
 6555      63684C61 
 6555      62656C00 
 6556              	.LASF200:
 6557 0e4f 67726565 		.ascii	"green\000"
 6557      6E00
 6558              	.LASF7:
 6559 0e55 73686F72 		.ascii	"short unsigned int\000"
 6559      7420756E 
 6559      7369676E 
 6559      65642069 
 6559      6E7400
 6560              	.LASF15:
 6561 0e68 6C6F6E67 		.ascii	"long double\000"
 6561      20646F75 
 6561      626C6500 
 6562              	.LASF21:
 6563 0e74 75696E74 		.ascii	"uint16_t\000"
 6563      31365F74 
 6563      00
 6564              	.LASF28:
 6565 0e7d 70726F74 		.ascii	"protBase\000"
 6565      42617365 
 6565      00
 6566              	.LASF156:
 6567 0e86 72756E4D 		.ascii	"runMode\000"
 6567      6F646500 
 6568              	.LASF78:
 6569 0e8e 70657269 		.ascii	"periTrCmdGrSelMsk\000"
 6569      5472436D 
 6569      64477253 
 6569      656C4D73 
 6569      6B00
 6570              	.LASF125:
 6571 0ea0 6D617374 		.ascii	"masterBuffer\000"
 6571      65724275 
 6571      66666572 
 6571      00
 6572              	.LASF379:
 6573 0ead 74726967 		.ascii	"trigger_slider_event_cb\000"
 6573      6765725F 
 6573      736C6964 
 6573      65725F65 
 6573      76656E74 
ARM GAS  C:\Users\tmj32\AppData\Local\Temp\ccs01wAd.s 			page 153


 6574              	.LASF366:
 6575 0ec5 63686172 		.ascii	"chart_heigth\000"
 6575      745F6865 
 6575      69677468 
 6575      00
 6576              	.LASF309:
 6577 0ed2 4C565F41 		.ascii	"LV_ALIGN_OUT_TOP_LEFT\000"
 6577      4C49474E 
 6577      5F4F5554 
 6577      5F544F50 
 6577      5F4C4546 
 6578              	.LASF173:
 6579 0ee8 63795F73 		.ascii	"cy_stc_tcpwm_counter_config_t\000"
 6579      74635F74 
 6579      6370776D 
 6579      5F636F75 
 6579      6E746572 
 6580              	.LASF40:
 6581 0f06 69706356 		.ascii	"ipcVersion\000"
 6581      65727369 
 6581      6F6E00
 6582              	.LASF406:
 6583 0f11 73746172 		.ascii	"startup\000"
 6583      74757000 
 6584              	.LASF68:
 6585 0f19 666C6173 		.ascii	"flashCtlMainWs2Freq\000"
 6585      6843746C 
 6585      4D61696E 
 6585      57733246 
 6585      72657100 
 6586              	.LASF77:
 6587 0f2d 70657269 		.ascii	"periTrCmdOffset\000"
 6587      5472436D 
 6587      644F6666 
 6587      73657400 
 6588              	.LASF360:
 6589 0f3d 6C765F73 		.ascii	"lv_slider_set_range\000"
 6589      6C696465 
 6589      725F7365 
 6589      745F7261 
 6589      6E676500 
 6590              	.LASF369:
 6591 0f51 77696E64 		.ascii	"windowSize\000"
 6591      6F775369 
 6591      7A6500
 6592              	.LASF397:
 6593 0f5c 686F7269 		.ascii	"horiLabel1\000"
 6593      4C616265 
 6593      6C3100
 6594              	.LASF388:
 6595 0f67 686F7269 		.ascii	"horiLabel2\000"
 6595      4C616265 
 6595      6C3200
 6596              	.LASF16:
 6597 0f72 73697A65 		.ascii	"sizetype\000"
 6597      74797065 
 6597      00
ARM GAS  C:\Users\tmj32\AppData\Local\Temp\ccs01wAd.s 			page 154


 6598              	.LASF241:
 6599 0f7b 6C765F66 		.ascii	"lv_font_t\000"
 6599      6F6E745F 
 6599      7400
 6600              	.LASF263:
 6601 0f85 6C657474 		.ascii	"letter_space\000"
 6601      65725F73 
 6601      70616365 
 6601      00
 6602              	.LASF103:
 6603 0f92 63707573 		.ascii	"cpussCm4NmiCtlOffset\000"
 6603      73436D34 
 6603      4E6D6943 
 6603      746C4F66 
 6603      66736574 
 6604              	.LASF255:
 6605 0fa7 6D61696E 		.ascii	"main_color\000"
 6605      5F636F6C 
 6605      6F7200
 6606              	.LASF85:
 6607 0fb2 70657269 		.ascii	"periDiv8CtlOffset\000"
 6607      44697638 
 6607      43746C4F 
 6607      66667365 
 6607      7400
 6608              	.LASF283:
 6609 0fc4 4C565F45 		.ascii	"LV_EVENT_RELEASED\000"
 6609      56454E54 
 6609      5F52454C 
 6609      45415345 
 6609      4400
 6610              	.LASF302:
 6611 0fd6 4C565F41 		.ascii	"LV_ALIGN_IN_TOP_MID\000"
 6611      4C49474E 
 6611      5F494E5F 
 6611      544F505F 
 6611      4D494400 
 6612              	.LASF5:
 6613 0fea 73686F72 		.ascii	"short int\000"
 6613      7420696E 
 6613      7400
 6614              	.LASF86:
 6615 0ff4 70657269 		.ascii	"periDiv16CtlOffset\000"
 6615      44697631 
 6615      3643746C 
 6615      4F666673 
 6615      657400
 6616              	.LASF209:
 6617 1007 636F6F72 		.ascii	"coords\000"
 6617      647300
 6618              	.LASF162:
 6619 100e 696E7465 		.ascii	"interruptSources\000"
 6619      72727570 
 6619      74536F75 
 6619      72636573 
 6619      00
 6620              	.LASF310:
ARM GAS  C:\Users\tmj32\AppData\Local\Temp\ccs01wAd.s 			page 155


 6621 101f 4C565F41 		.ascii	"LV_ALIGN_OUT_TOP_MID\000"
 6621      4C49474E 
 6621      5F4F5554 
 6621      5F544F50 
 6621      5F4D4944 
 6622              	.LASF205:
 6623 1034 6C765F6F 		.ascii	"lv_opa_t\000"
 6623      70615F74 
 6623      00
 6624              	.LASF362:
 6625 103d 726F6C6C 		.ascii	"roller\000"
 6625      657200
 6626              	.LASF35:
 6627 1044 63727970 		.ascii	"cryptoVersion\000"
 6627      746F5665 
 6627      7273696F 
 6627      6E00
 6628              	.LASF191:
 6629 1052 52616D52 		.ascii	"RamReadBuffer\000"
 6629      65616442 
 6629      75666665 
 6629      7200
 6630              	.LASF336:
 6631 1060 5F4C565F 		.ascii	"_LV_BTN_STATE_NUM\000"
 6631      42544E5F 
 6631      53544154 
 6631      455F4E55 
 6631      4D00
 6632              	.LASF399:
 6633 1072 49544D5F 		.ascii	"ITM_RxBuffer\000"
 6633      52784275 
 6633      66666572 
 6633      00
 6634              	.LASF171:
 6635 107f 636F756E 		.ascii	"countInputMode\000"
 6635      74496E70 
 6635      75744D6F 
 6635      646500
 6636              	.LASF38:
 6637 108e 6770696F 		.ascii	"gpioVersion\000"
 6637      56657273 
 6637      696F6E00 
 6638              	.LASF37:
 6639 109a 666C6173 		.ascii	"flashcVersion\000"
 6639      68635665 
 6639      7273696F 
 6639      6E00
 6640              	.LASF59:
 6641 10a8 70726F74 		.ascii	"protBusMasterMask\000"
 6641      4275734D 
 6641      61737465 
 6641      724D6173 
 6641      6B00
 6642              	.LASF351:
 6643 10ba 6C765F63 		.ascii	"lv_chart_series_t\000"
 6643      68617274 
 6643      5F736572 
ARM GAS  C:\Users\tmj32\AppData\Local\Temp\ccs01wAd.s 			page 156


 6643      6965735F 
 6643      7400
 6644              	.LASF157:
 6645 10cc 636F756E 		.ascii	"countDirection\000"
 6645      74446972 
 6645      65637469 
 6645      6F6E00
 6646              	.LASF258:
 6647 10db 626F7264 		.ascii	"border\000"
 6647      657200
 6648              	.LASF277:
 6649 10e2 4C565F45 		.ascii	"LV_EVENT_PRESSING\000"
 6649      56454E54 
 6649      5F505245 
 6649      5353494E 
 6649      4700
 6650              	.LASF199:
 6651 10f4 626C7565 		.ascii	"blue\000"
 6651      00
 6652              	.LASF412:
 6653 10f9 686F6D65 		.ascii	"home_screen\000"
 6653      5F736372 
 6653      65656E00 
 6654              	.LASF391:
 6655 1105 77696E64 		.ascii	"windowSlider\000"
 6655      6F77536C 
 6655      69646572 
 6655      00
 6656              	.LASF346:
 6657 1112 4C565F43 		.ascii	"LV_CHART_TYPE_POINT\000"
 6657      48415254 
 6657      5F545950 
 6657      455F504F 
 6657      494E5400 
 6658              	.LASF192:
 6659 1126 6C765F63 		.ascii	"lv_coord_t\000"
 6659      6F6F7264 
 6659      5F7400
 6660              	.LASF220:
 6661 1131 6F70615F 		.ascii	"opa_scale_en\000"
 6661      7363616C 
 6661      655F656E 
 6661      00
 6662              	.LASF350:
 6663 113e 73746172 		.ascii	"start_point\000"
 6663      745F706F 
 6663      696E7400 
 6664              	.LASF245:
 6665 114a 6C765F62 		.ascii	"lv_border_part_t\000"
 6665      6F726465 
 6665      725F7061 
 6665      72745F74 
 6665      00
 6666              	.LASF252:
 6667 115b 6C656674 		.ascii	"left\000"
 6667      00
 6668              	.LASF265:
ARM GAS  C:\Users\tmj32\AppData\Local\Temp\ccs01wAd.s 			page 157


 6669 1160 696E7465 		.ascii	"intense\000"
 6669      6E736500 
 6670              	.LASF98:
 6671 1168 63707573 		.ascii	"cpussCm4PwrCtlOffset\000"
 6671      73436D34 
 6671      50777243 
 6671      746C4F66 
 6671      66736574 
 6672              	.LASF1:
 6673 117d 5F5F7569 		.ascii	"__uint8_t\000"
 6673      6E74385F 
 6673      7400
 6674              	.LASF331:
 6675 1187 4C565F42 		.ascii	"LV_BTN_STATE_REL\000"
 6675      544E5F53 
 6675      54415445 
 6675      5F52454C 
 6675      00
 6676              	.LASF179:
 6677 1198 54726967 		.ascii	"Trigger\000"
 6677      67657200 
 6678              	.LASF89:
 6679 11a0 6770696F 		.ascii	"gpioPrtIntrCfgOffset\000"
 6679      50727449 
 6679      6E747243 
 6679      66674F66 
 6679      66736574 
 6680              	.LASF264:
 6681 11b5 6C696E65 		.ascii	"line_space\000"
 6681      5F737061 
 6681      636500
 6682              	.LASF335:
 6683 11c0 4C565F42 		.ascii	"LV_BTN_STATE_INA\000"
 6683      544E5F53 
 6683      54415445 
 6683      5F494E41 
 6683      00
 6684              	.LASF231:
 6685 11d1 626F785F 		.ascii	"box_h\000"
 6685      6800
 6686              	.LASF288:
 6687 11d7 4C565F45 		.ascii	"LV_EVENT_FOCUSED\000"
 6687      56454E54 
 6687      5F464F43 
 6687      55534544 
 6687      00
 6688              	.LASF95:
 6689 11e8 63707573 		.ascii	"cpussCm4ClockCtlOffset\000"
 6689      73436D34 
 6689      436C6F63 
 6689      6B43746C 
 6689      4F666673 
 6690              	.LASF319:
 6691 11ff 4C565F41 		.ascii	"LV_ALIGN_OUT_RIGHT_MID\000"
 6691      4C49474E 
 6691      5F4F5554 
 6691      5F524947 
ARM GAS  C:\Users\tmj32\AppData\Local\Temp\ccs01wAd.s 			page 158


 6691      48545F4D 
 6692              	.LASF100:
 6693 1216 63707573 		.ascii	"cpussTrimRomCtlOffset\000"
 6693      73547269 
 6693      6D526F6D 
 6693      43746C4F 
 6693      66667365 
 6694              	.LASF39:
 6695 122c 6873696F 		.ascii	"hsiomVersion\000"
 6695      6D566572 
 6695      73696F6E 
 6695      00
 6696              	.LASF206:
 6697 1239 6C765F61 		.ascii	"lv_area_t\000"
 6697      7265615F 
 6697      7400
 6698              	.LASF11:
 6699 1243 6C6F6E67 		.ascii	"long unsigned int\000"
 6699      20756E73 
 6699      69676E65 
 6699      6420696E 
 6699      7400
 6700              	.LASF176:
 6701 1255 43687269 		.ascii	"ChrisReg\000"
 6701      73526567 
 6701      00
 6702              	.LASF104:
 6703 125e 63707573 		.ascii	"cpussRomCtl\000"
 6703      73526F6D 
 6703      43746C00 
 6704              	.LASF230:
 6705 126a 626F785F 		.ascii	"box_w\000"
 6705      7700
 6706              	.LASF304:
 6707 1270 4C565F41 		.ascii	"LV_ALIGN_IN_BOTTOM_LEFT\000"
 6707      4C49474E 
 6707      5F494E5F 
 6707      424F5454 
 6707      4F4D5F4C 
 6708              	.LASF303:
 6709 1288 4C565F41 		.ascii	"LV_ALIGN_IN_TOP_RIGHT\000"
 6709      4C49474E 
 6709      5F494E5F 
 6709      544F505F 
 6709      52494748 
 6710              	.LASF239:
 6711 129e 62617365 		.ascii	"base_line\000"
 6711      5F6C696E 
 6711      6500
 6712              	.LASF242:
 6713 12a8 4C565F41 		.ascii	"LV_ANIM_OFF\000"
 6713      4E494D5F 
 6713      4F464600 
 6714              	.LASF257:
 6715 12b4 72616469 		.ascii	"radius\000"
 6715      757300
 6716              	.LASF226:
ARM GAS  C:\Users\tmj32\AppData\Local\Temp\ccs01wAd.s 			page 159


 6717 12bb 6F70615F 		.ascii	"opa_scale\000"
 6717      7363616C 
 6717      6500
 6718              	.LASF268:
 6719 12c5 626F6479 		.ascii	"body\000"
 6719      00
 6720              	.LASF298:
 6721 12ca 6C765F73 		.ascii	"lv_signal_t\000"
 6721      69676E61 
 6721      6C5F7400 
 6722              	.LASF408:
 6723 12d6 686F6D65 		.ascii	"home_screen.c\000"
 6723      5F736372 
 6723      65656E2E 
 6723      6300
 6724              	.LASF225:
 6725 12e4 70726F74 		.ascii	"protect\000"
 6725      65637400 
 6726              	.LASF36:
 6727 12ec 64775665 		.ascii	"dwVersion\000"
 6727      7273696F 
 6727      6E00
 6728              	.LASF3:
 6729 12f6 756E7369 		.ascii	"unsigned char\000"
 6729      676E6564 
 6729      20636861 
 6729      7200
 6730              	.LASF10:
 6731 1304 5F5F7569 		.ascii	"__uint32_t\000"
 6731      6E743332 
 6731      5F7400
 6732              	.LASF286:
 6733 130f 4C565F45 		.ascii	"LV_EVENT_DRAG_THROW_BEGIN\000"
 6733      56454E54 
 6733      5F445241 
 6733      475F5448 
 6733      524F575F 
 6734              	.LASF186:
 6735 1329 486F7269 		.ascii	"HoriScale\000"
 6735      5363616C 
 6735      6500
 6736              	.LASF174:
 6737 1333 5350495F 		.ascii	"SPI_parameters\000"
 6737      70617261 
 6737      6D657465 
 6737      727300
 6738              	.LASF271:
 6739 1342 6C696E65 		.ascii	"line\000"
 6739      00
 6740              	.LASF172:
 6741 1347 636F756E 		.ascii	"countInput\000"
 6741      74496E70 
 6741      757400
 6742              	.LASF389:
 6743 1352 76657274 		.ascii	"vertSlider\000"
 6743      536C6964 
 6743      657200
ARM GAS  C:\Users\tmj32\AppData\Local\Temp\ccs01wAd.s 			page 160


 6744              	.LASF311:
 6745 135d 4C565F41 		.ascii	"LV_ALIGN_OUT_TOP_RIGHT\000"
 6745      4C49474E 
 6745      5F4F5554 
 6745      5F544F50 
 6745      5F524947 
 6746              	.LASF237:
 6747 1374 6765745F 		.ascii	"get_glyph_bitmap\000"
 6747      676C7970 
 6747      685F6269 
 6747      746D6170 
 6747      00
 6748              	.LASF197:
 6749 1385 7461696C 		.ascii	"tail\000"
 6749      00
 6750              	.LASF65:
 6751 138a 666C6173 		.ascii	"flashEraseDelay\000"
 6751      68457261 
 6751      73654465 
 6751      6C617900 
 6752              	.LASF208:
 6753 139a 6368696C 		.ascii	"child_ll\000"
 6753      645F6C6C 
 6753      00
 6754              	.LASF373:
 6755 13a3 766F6C74 		.ascii	"voltage\000"
 6755      61676500 
 6756              	.LASF404:
 6757 13ab 74636E6A 		.ascii	"tcnj_blue\000"
 6757      5F626C75 
 6757      6500
 6758              	.LASF343:
 6759 13b5 4C565F43 		.ascii	"LV_CHART_TYPE_NONE\000"
 6759      48415254 
 6759      5F545950 
 6759      455F4E4F 
 6759      4E4500
 6760              	.LASF121:
 6761 13c8 73746174 		.ascii	"state\000"
 6761      6500
 6762              	.LASF274:
 6763 13ce 6C765F64 		.ascii	"lv_design_mode_t\000"
 6763      65736967 
 6763      6E5F6D6F 
 6763      64655F74 
 6763      00
 6764              	.LASF25:
 6765 13df 666C6173 		.ascii	"flashcBase\000"
 6765      68634261 
 6765      736500
 6766              	.LASF342:
 6767 13ea 4C565F4C 		.ascii	"LV_LABEL_LONG_CROP\000"
 6767      4142454C 
 6767      5F4C4F4E 
 6767      475F4352 
 6767      4F5000
 6768              	.LASF210:
ARM GAS  C:\Users\tmj32\AppData\Local\Temp\ccs01wAd.s 			page 161


 6769 13fd 6576656E 		.ascii	"event_cb\000"
 6769      745F6362 
 6769      00
 6770              	.LASF212:
 6771 1406 64657369 		.ascii	"design_cb\000"
 6771      676E5F63 
 6771      6200
 6772              	.LASF61:
 6773 1410 666C6173 		.ascii	"flashRwwRequired\000"
 6773      68527777 
 6773      52657175 
 6773      69726564 
 6773      00
 6774              	.LASF90:
 6775 1421 6770696F 		.ascii	"gpioPrtCfgOffset\000"
 6775      50727443 
 6775      66674F66 
 6775      66736574 
 6775      00
 6776              	.LASF244:
 6777 1432 6C765F61 		.ascii	"lv_anim_enable_t\000"
 6777      6E696D5F 
 6777      656E6162 
 6777      6C655F74 
 6777      00
 6778              	.LASF213:
 6779 1443 6578745F 		.ascii	"ext_attr\000"
 6779      61747472 
 6779      00
 6780              	.LASF67:
 6781 144c 666C6173 		.ascii	"flashCtlMainWs1Freq\000"
 6781      6843746C 
 6781      4D61696E 
 6781      57733146 
 6781      72657100 
 6782              	.LASF182:
 6783 1460 6F6E4269 		.ascii	"onBit\000"
 6783      7400
 6784              	.LASF47:
 6785 1466 63707573 		.ascii	"cpussIpc0Irq\000"
 6785      73497063 
 6785      30497271 
 6785      00
 6786              	.LASF2:
 6787 1473 7369676E 		.ascii	"signed char\000"
 6787      65642063 
 6787      68617200 
 6788              	.LASF154:
 6789 147f 70657269 		.ascii	"period\000"
 6789      6F6400
 6790              	.LASF219:
 6791 1486 68696464 		.ascii	"hidden\000"
 6791      656E00
 6792              	.LASF71:
 6793 148d 64774368 		.ascii	"dwChOffset\000"
 6793      4F666673 
 6793      657400
ARM GAS  C:\Users\tmj32\AppData\Local\Temp\ccs01wAd.s 			page 162


 6794              	.LASF44:
 6795 1498 63707573 		.ascii	"cpussIpcIrqNr\000"
 6795      73497063 
 6795      4972714E 
 6795      7200
 6796              	.LASF153:
 6797 14a6 63795F73 		.ascii	"cy_stc_tcpwm_counter_config\000"
 6797      74635F74 
 6797      6370776D 
 6797      5F636F75 
 6797      6E746572 
 6798              	.LASF74:
 6799 14c2 64774368 		.ascii	"dwChCtlPreemptablePos\000"
 6799      43746C50 
 6799      7265656D 
 6799      70746162 
 6799      6C65506F 
 6800              	.LASF180:
 6801 14d8 54726967 		.ascii	"TriggerSlope\000"
 6801      67657253 
 6801      6C6F7065 
 6801      00
 6802              	.LASF0:
 6803 14e5 5F5F696E 		.ascii	"__int8_t\000"
 6803      74385F74 
 6803      00
 6804              	.LASF364:
 6805 14ee 6C765F73 		.ascii	"lv_sw_get_state\000"
 6805      775F6765 
 6805      745F7374 
 6805      61746500 
 6806              	.LASF317:
 6807 14fe 4C565F41 		.ascii	"LV_ALIGN_OUT_LEFT_BOTTOM\000"
 6807      4C49474E 
 6807      5F4F5554 
 6807      5F4C4546 
 6807      545F424F 
 6808              	.LASF110:
 6809 1517 63795F73 		.ascii	"cy_stc_device_t\000"
 6809      74635F64 
 6809      65766963 
 6809      655F7400 
 6810              	.LASF224:
 6811 1527 72657365 		.ascii	"reserved\000"
 6811      72766564 
 6811      00
 6812              	.LASF281:
 6813 1530 4C565F45 		.ascii	"LV_EVENT_LONG_PRESSED_REPEAT\000"
 6813      56454E54 
 6813      5F4C4F4E 
 6813      475F5052 
 6813      45535345 
 6814              	.LASF347:
 6815 154d 4C565F43 		.ascii	"LV_CHART_TYPE_VERTICAL_LINE\000"
 6815      48415254 
 6815      5F545950 
 6815      455F5645 
ARM GAS  C:\Users\tmj32\AppData\Local\Temp\ccs01wAd.s 			page 163


 6815      52544943 
 6816              	.LASF143:
 6817 1569 63795F73 		.ascii	"cy_stc_scb_spi_context\000"
 6817      74635F73 
 6817      63625F73 
 6817      70695F63 
 6817      6F6E7465 
 6818              	.LASF112:
 6819 1580 646F7562 		.ascii	"double\000"
 6819      6C6500
 6820              	.LASF216:
 6821 1587 64726167 		.ascii	"drag\000"
 6821      00
 6822              	.LASF374:
 6823 158c 726F6C6C 		.ascii	"roller1_event\000"
 6823      6572315F 
 6823      6576656E 
 6823      7400
 6824              	.LASF87:
 6825 159a 70657269 		.ascii	"periDiv16_5CtlOffset\000"
 6825      44697631 
 6825      365F3543 
 6825      746C4F66 
 6825      66736574 
 6826              	.LASF45:
 6827 15af 63707573 		.ascii	"cpussDwChNr\000"
 6827      73447743 
 6827      684E7200 
 6828              	.LASF140:
 6829 15bb 63795F73 		.ascii	"cy_stc_scb_i2c_context_t\000"
 6829      74635F73 
 6829      63625F69 
 6829      32635F63 
 6829      6F6E7465 
 6830              	.LASF211:
 6831 15d4 7369676E 		.ascii	"signal_cb\000"
 6831      616C5F63 
 6831      6200
 6832              	.LASF70:
 6833 15de 666C6173 		.ascii	"flashCtlMainWs4Freq\000"
 6833      6843746C 
 6833      4D61696E 
 6833      57733446 
 6833      72657100 
 6834              	.LASF333:
 6835 15f2 4C565F42 		.ascii	"LV_BTN_STATE_TGL_REL\000"
 6835      544E5F53 
 6835      54415445 
 6835      5F54474C 
 6835      5F52454C 
 6836              	.LASF279:
 6837 1607 4C565F45 		.ascii	"LV_EVENT_SHORT_CLICKED\000"
 6837      56454E54 
 6837      5F53484F 
 6837      52545F43 
 6837      4C49434B 
 6838              	.LASF348:
ARM GAS  C:\Users\tmj32\AppData\Local\Temp\ccs01wAd.s 			page 164


 6839 161e 4C565F43 		.ascii	"LV_CHART_TYPE_AREA\000"
 6839      48415254 
 6839      5F545950 
 6839      455F4152 
 6839      454100
 6840              	.LASF407:
 6841 1631 474E5520 		.ascii	"GNU C11 5.4.1 20160609 (release) [ARM/embedded-5-br"
 6841      43313120 
 6841      352E342E 
 6841      31203230 
 6841      31363036 
 6842 1664 616E6368 		.ascii	"anch revision 237715] -mcpu=cortex-m4 -mfloat-abi=s"
 6842      20726576 
 6842      6973696F 
 6842      6E203233 
 6842      37373135 
 6843 1697 6F667466 		.ascii	"oftfp -mfpu=fpv4-sp-d16 -mthumb -g -O0 -ffunction-s"
 6843      70202D6D 
 6843      6670753D 
 6843      66707634 
 6843      2D73702D 
 6844 16ca 65637469 		.ascii	"ections -ffat-lto-objects\000"
 6844      6F6E7320 
 6844      2D666661 
 6844      742D6C74 
 6844      6F2D6F62 
 6845              	.LASF325:
 6846 16e4 616C6967 		.ascii	"align\000"
 6846      6E00
 6847              	.LASF177:
 6848 16ea 5368616E 		.ascii	"ShannonReg\000"
 6848      6E6F6E52 
 6848      656700
 6849              	.LASF267:
 6850 16f5 676C6173 		.ascii	"glass\000"
 6850      7300
 6851              	.LASF97:
 6852 16fb 63707573 		.ascii	"cpussCm0StatusOffset\000"
 6852      73436D30 
 6852      53746174 
 6852      75734F66 
 6852      66736574 
 6853              	.LASF349:
 6854 1710 706F696E 		.ascii	"points\000"
 6854      747300
 6855              	.LASF301:
 6856 1717 4C565F41 		.ascii	"LV_ALIGN_IN_TOP_LEFT\000"
 6856      4C49474E 
 6856      5F494E5F 
 6856      544F505F 
 6856      4C454654 
 6857              	.LASF280:
 6858 172c 4C565F45 		.ascii	"LV_EVENT_LONG_PRESSED\000"
 6858      56454E54 
 6858      5F4C4F4E 
 6858      475F5052 
 6858      45535345 
ARM GAS  C:\Users\tmj32\AppData\Local\Temp\ccs01wAd.s 			page 165


 6859              	.LASF297:
 6860 1742 6C765F65 		.ascii	"lv_event_cb_t\000"
 6860      76656E74 
 6860      5F63625F 
 6860      7400
 6861              	.LASF34:
 6862 1750 63707573 		.ascii	"cpussVersion\000"
 6862      73566572 
 6862      73696F6E 
 6862      00
 6863              	.LASF328:
 6864 175d 6C765F72 		.ascii	"lv_reailgn_t\000"
 6864      6561696C 
 6864      676E5F74 
 6864      00
 6865              	.LASF146:
 6866 176a 72784275 		.ascii	"rxBufSize\000"
 6866      6653697A 
 6866      6500
 6867              	.LASF229:
 6868 1774 6164765F 		.ascii	"adv_w\000"
 6868      7700
 6869              	.LASF129:
 6870 177a 736C6176 		.ascii	"slaveStatus\000"
 6870      65537461 
 6870      74757300 
 6871              	.LASF384:
 6872 1786 6F666673 		.ascii	"offsetLabel2\000"
 6872      65744C61 
 6872      62656C32 
 6872      00
 6873              		.ident	"GCC: (GNU Tools for ARM Embedded Processors) 5.4.1 20160609 (release) [ARM/embedded-5-bran
