ARM GAS  C:\Users\tmj32\AppData\Local\Temp\cco3Klhe.s 			page 1


   1              		.syntax unified
   2              		.cpu cortex-m4
   3              		.eabi_attribute 27, 1
   4              		.fpu fpv4-sp-d16
   5              		.eabi_attribute 20, 1
   6              		.eabi_attribute 21, 1
   7              		.eabi_attribute 23, 3
   8              		.eabi_attribute 24, 1
   9              		.eabi_attribute 25, 1
  10              		.eabi_attribute 26, 1
  11              		.eabi_attribute 30, 6
  12              		.eabi_attribute 34, 1
  13              		.eabi_attribute 18, 4
  14              		.thumb
  15              		.syntax unified
  16              		.file	"home_screen.c"
  17              		.text
  18              	.Ltext0:
  19              		.cfi_sections	.debug_frame
  20              		.section	.text.lv_color_make,"ax",%progbits
  21              		.align	2
  22              		.thumb
  23              		.thumb_func
  24              		.type	lv_color_make, %function
  25              	lv_color_make:
  26              	.LFB588:
  27              		.file 1 "..\\..\\..\\lvgl\\version_6.1.2\\lvgl/src/lv_hal/../lv_misc/lv_color.h"
   1:..\..\..\lvgl\version_6.1.2\lvgl/src/lv_hal/../lv_misc/lv_color.h **** /**
   2:..\..\..\lvgl\version_6.1.2\lvgl/src/lv_hal/../lv_misc/lv_color.h ****  * @file lv_color.h
   3:..\..\..\lvgl\version_6.1.2\lvgl/src/lv_hal/../lv_misc/lv_color.h ****  *
   4:..\..\..\lvgl\version_6.1.2\lvgl/src/lv_hal/../lv_misc/lv_color.h ****  */
   5:..\..\..\lvgl\version_6.1.2\lvgl/src/lv_hal/../lv_misc/lv_color.h **** 
   6:..\..\..\lvgl\version_6.1.2\lvgl/src/lv_hal/../lv_misc/lv_color.h **** #ifndef LV_COLOR_H
   7:..\..\..\lvgl\version_6.1.2\lvgl/src/lv_hal/../lv_misc/lv_color.h **** #define LV_COLOR_H
   8:..\..\..\lvgl\version_6.1.2\lvgl/src/lv_hal/../lv_misc/lv_color.h **** 
   9:..\..\..\lvgl\version_6.1.2\lvgl/src/lv_hal/../lv_misc/lv_color.h **** #ifdef __cplusplus
  10:..\..\..\lvgl\version_6.1.2\lvgl/src/lv_hal/../lv_misc/lv_color.h **** extern "C" {
  11:..\..\..\lvgl\version_6.1.2\lvgl/src/lv_hal/../lv_misc/lv_color.h **** #endif
  12:..\..\..\lvgl\version_6.1.2\lvgl/src/lv_hal/../lv_misc/lv_color.h **** 
  13:..\..\..\lvgl\version_6.1.2\lvgl/src/lv_hal/../lv_misc/lv_color.h **** /*********************
  14:..\..\..\lvgl\version_6.1.2\lvgl/src/lv_hal/../lv_misc/lv_color.h ****  *      INCLUDES
  15:..\..\..\lvgl\version_6.1.2\lvgl/src/lv_hal/../lv_misc/lv_color.h ****  *********************/
  16:..\..\..\lvgl\version_6.1.2\lvgl/src/lv_hal/../lv_misc/lv_color.h **** #ifdef LV_CONF_INCLUDE_SIMPLE
  17:..\..\..\lvgl\version_6.1.2\lvgl/src/lv_hal/../lv_misc/lv_color.h **** #include "lv_conf.h"
  18:..\..\..\lvgl\version_6.1.2\lvgl/src/lv_hal/../lv_misc/lv_color.h **** #else
  19:..\..\..\lvgl\version_6.1.2\lvgl/src/lv_hal/../lv_misc/lv_color.h **** #include "../../../lv_conf.h"
  20:..\..\..\lvgl\version_6.1.2\lvgl/src/lv_hal/../lv_misc/lv_color.h **** #endif
  21:..\..\..\lvgl\version_6.1.2\lvgl/src/lv_hal/../lv_misc/lv_color.h **** 
  22:..\..\..\lvgl\version_6.1.2\lvgl/src/lv_hal/../lv_misc/lv_color.h **** /*Error checking*/
  23:..\..\..\lvgl\version_6.1.2\lvgl/src/lv_hal/../lv_misc/lv_color.h **** #if LV_COLOR_DEPTH == 24
  24:..\..\..\lvgl\version_6.1.2\lvgl/src/lv_hal/../lv_misc/lv_color.h **** #error "LV_COLOR_DEPTH  24 is deprecated. Use LV_COLOR_DEPTH  32 instead (lv_conf.h)"
  25:..\..\..\lvgl\version_6.1.2\lvgl/src/lv_hal/../lv_misc/lv_color.h **** #endif
  26:..\..\..\lvgl\version_6.1.2\lvgl/src/lv_hal/../lv_misc/lv_color.h **** 
  27:..\..\..\lvgl\version_6.1.2\lvgl/src/lv_hal/../lv_misc/lv_color.h **** #if LV_COLOR_DEPTH != 32 && LV_COLOR_SCREEN_TRANSP != 0
  28:..\..\..\lvgl\version_6.1.2\lvgl/src/lv_hal/../lv_misc/lv_color.h **** #error "LV_COLOR_SCREEN_TRANSP requires LV_COLOR_DEPTH == 32. Set it in lv_conf.h"
  29:..\..\..\lvgl\version_6.1.2\lvgl/src/lv_hal/../lv_misc/lv_color.h **** #endif
  30:..\..\..\lvgl\version_6.1.2\lvgl/src/lv_hal/../lv_misc/lv_color.h **** 
ARM GAS  C:\Users\tmj32\AppData\Local\Temp\cco3Klhe.s 			page 2


  31:..\..\..\lvgl\version_6.1.2\lvgl/src/lv_hal/../lv_misc/lv_color.h **** #if LV_COLOR_DEPTH != 16 && LV_COLOR_16_SWAP != 0
  32:..\..\..\lvgl\version_6.1.2\lvgl/src/lv_hal/../lv_misc/lv_color.h **** #error "LV_COLOR_16_SWAP requires LV_COLOR_DEPTH == 16. Set it in lv_conf.h"
  33:..\..\..\lvgl\version_6.1.2\lvgl/src/lv_hal/../lv_misc/lv_color.h **** #endif
  34:..\..\..\lvgl\version_6.1.2\lvgl/src/lv_hal/../lv_misc/lv_color.h **** 
  35:..\..\..\lvgl\version_6.1.2\lvgl/src/lv_hal/../lv_misc/lv_color.h **** #include <stdint.h>
  36:..\..\..\lvgl\version_6.1.2\lvgl/src/lv_hal/../lv_misc/lv_color.h **** 
  37:..\..\..\lvgl\version_6.1.2\lvgl/src/lv_hal/../lv_misc/lv_color.h **** /*********************
  38:..\..\..\lvgl\version_6.1.2\lvgl/src/lv_hal/../lv_misc/lv_color.h ****  *      DEFINES
  39:..\..\..\lvgl\version_6.1.2\lvgl/src/lv_hal/../lv_misc/lv_color.h ****  *********************/
  40:..\..\..\lvgl\version_6.1.2\lvgl/src/lv_hal/../lv_misc/lv_color.h **** #define LV_COLOR_WHITE LV_COLOR_MAKE(0xFF, 0xFF, 0xFF)
  41:..\..\..\lvgl\version_6.1.2\lvgl/src/lv_hal/../lv_misc/lv_color.h **** #define LV_COLOR_SILVER LV_COLOR_MAKE(0xC0, 0xC0, 0xC0)
  42:..\..\..\lvgl\version_6.1.2\lvgl/src/lv_hal/../lv_misc/lv_color.h **** #define LV_COLOR_GRAY LV_COLOR_MAKE(0x80, 0x80, 0x80)
  43:..\..\..\lvgl\version_6.1.2\lvgl/src/lv_hal/../lv_misc/lv_color.h **** #define LV_COLOR_BLACK LV_COLOR_MAKE(0x00, 0x00, 0x00)
  44:..\..\..\lvgl\version_6.1.2\lvgl/src/lv_hal/../lv_misc/lv_color.h **** #define LV_COLOR_RED LV_COLOR_MAKE(0xFF, 0x00, 0x00)
  45:..\..\..\lvgl\version_6.1.2\lvgl/src/lv_hal/../lv_misc/lv_color.h **** #define LV_COLOR_MAROON LV_COLOR_MAKE(0x80, 0x00, 0x00)
  46:..\..\..\lvgl\version_6.1.2\lvgl/src/lv_hal/../lv_misc/lv_color.h **** #define LV_COLOR_YELLOW LV_COLOR_MAKE(0xFF, 0xFF, 0x00)
  47:..\..\..\lvgl\version_6.1.2\lvgl/src/lv_hal/../lv_misc/lv_color.h **** #define LV_COLOR_OLIVE LV_COLOR_MAKE(0x80, 0x80, 0x00)
  48:..\..\..\lvgl\version_6.1.2\lvgl/src/lv_hal/../lv_misc/lv_color.h **** #define LV_COLOR_LIME LV_COLOR_MAKE(0x00, 0xFF, 0x00)
  49:..\..\..\lvgl\version_6.1.2\lvgl/src/lv_hal/../lv_misc/lv_color.h **** #define LV_COLOR_GREEN LV_COLOR_MAKE(0x00, 0x80, 0x00)
  50:..\..\..\lvgl\version_6.1.2\lvgl/src/lv_hal/../lv_misc/lv_color.h **** #define LV_COLOR_CYAN LV_COLOR_MAKE(0x00, 0xFF, 0xFF)
  51:..\..\..\lvgl\version_6.1.2\lvgl/src/lv_hal/../lv_misc/lv_color.h **** #define LV_COLOR_AQUA LV_COLOR_CYAN
  52:..\..\..\lvgl\version_6.1.2\lvgl/src/lv_hal/../lv_misc/lv_color.h **** #define LV_COLOR_TEAL LV_COLOR_MAKE(0x00, 0x80, 0x80)
  53:..\..\..\lvgl\version_6.1.2\lvgl/src/lv_hal/../lv_misc/lv_color.h **** #define LV_COLOR_BLUE LV_COLOR_MAKE(0x00, 0x00, 0xFF)
  54:..\..\..\lvgl\version_6.1.2\lvgl/src/lv_hal/../lv_misc/lv_color.h **** #define LV_COLOR_NAVY LV_COLOR_MAKE(0x00, 0x00, 0x80)
  55:..\..\..\lvgl\version_6.1.2\lvgl/src/lv_hal/../lv_misc/lv_color.h **** #define LV_COLOR_MAGENTA LV_COLOR_MAKE(0xFF, 0x00, 0xFF)
  56:..\..\..\lvgl\version_6.1.2\lvgl/src/lv_hal/../lv_misc/lv_color.h **** #define LV_COLOR_PURPLE LV_COLOR_MAKE(0x80, 0x00, 0x80)
  57:..\..\..\lvgl\version_6.1.2\lvgl/src/lv_hal/../lv_misc/lv_color.h **** #define LV_COLOR_ORANGE LV_COLOR_MAKE(0xFF, 0xA5, 0x00)
  58:..\..\..\lvgl\version_6.1.2\lvgl/src/lv_hal/../lv_misc/lv_color.h **** 
  59:..\..\..\lvgl\version_6.1.2\lvgl/src/lv_hal/../lv_misc/lv_color.h **** /**
  60:..\..\..\lvgl\version_6.1.2\lvgl/src/lv_hal/../lv_misc/lv_color.h ****  * Opacity percentages.
  61:..\..\..\lvgl\version_6.1.2\lvgl/src/lv_hal/../lv_misc/lv_color.h ****  */
  62:..\..\..\lvgl\version_6.1.2\lvgl/src/lv_hal/../lv_misc/lv_color.h **** enum {
  63:..\..\..\lvgl\version_6.1.2\lvgl/src/lv_hal/../lv_misc/lv_color.h ****     LV_OPA_TRANSP = 0,
  64:..\..\..\lvgl\version_6.1.2\lvgl/src/lv_hal/../lv_misc/lv_color.h ****     LV_OPA_0      = 0,
  65:..\..\..\lvgl\version_6.1.2\lvgl/src/lv_hal/../lv_misc/lv_color.h ****     LV_OPA_10     = 25,
  66:..\..\..\lvgl\version_6.1.2\lvgl/src/lv_hal/../lv_misc/lv_color.h ****     LV_OPA_20     = 51,
  67:..\..\..\lvgl\version_6.1.2\lvgl/src/lv_hal/../lv_misc/lv_color.h ****     LV_OPA_30     = 76,
  68:..\..\..\lvgl\version_6.1.2\lvgl/src/lv_hal/../lv_misc/lv_color.h ****     LV_OPA_40     = 102,
  69:..\..\..\lvgl\version_6.1.2\lvgl/src/lv_hal/../lv_misc/lv_color.h ****     LV_OPA_50     = 127,
  70:..\..\..\lvgl\version_6.1.2\lvgl/src/lv_hal/../lv_misc/lv_color.h ****     LV_OPA_60     = 153,
  71:..\..\..\lvgl\version_6.1.2\lvgl/src/lv_hal/../lv_misc/lv_color.h ****     LV_OPA_70     = 178,
  72:..\..\..\lvgl\version_6.1.2\lvgl/src/lv_hal/../lv_misc/lv_color.h ****     LV_OPA_80     = 204,
  73:..\..\..\lvgl\version_6.1.2\lvgl/src/lv_hal/../lv_misc/lv_color.h ****     LV_OPA_90     = 229,
  74:..\..\..\lvgl\version_6.1.2\lvgl/src/lv_hal/../lv_misc/lv_color.h ****     LV_OPA_100    = 255,
  75:..\..\..\lvgl\version_6.1.2\lvgl/src/lv_hal/../lv_misc/lv_color.h ****     LV_OPA_COVER  = 255,
  76:..\..\..\lvgl\version_6.1.2\lvgl/src/lv_hal/../lv_misc/lv_color.h **** };
  77:..\..\..\lvgl\version_6.1.2\lvgl/src/lv_hal/../lv_misc/lv_color.h **** 
  78:..\..\..\lvgl\version_6.1.2\lvgl/src/lv_hal/../lv_misc/lv_color.h **** #define LV_OPA_MIN 16  /*Opacities below this will be transparent*/
  79:..\..\..\lvgl\version_6.1.2\lvgl/src/lv_hal/../lv_misc/lv_color.h **** #define LV_OPA_MAX 251 /*Opacities above this will fully cover*/
  80:..\..\..\lvgl\version_6.1.2\lvgl/src/lv_hal/../lv_misc/lv_color.h **** 
  81:..\..\..\lvgl\version_6.1.2\lvgl/src/lv_hal/../lv_misc/lv_color.h **** #if LV_COLOR_DEPTH == 1
  82:..\..\..\lvgl\version_6.1.2\lvgl/src/lv_hal/../lv_misc/lv_color.h **** #define LV_COLOR_SIZE 8
  83:..\..\..\lvgl\version_6.1.2\lvgl/src/lv_hal/../lv_misc/lv_color.h **** #elif LV_COLOR_DEPTH == 8
  84:..\..\..\lvgl\version_6.1.2\lvgl/src/lv_hal/../lv_misc/lv_color.h **** #define LV_COLOR_SIZE 8
  85:..\..\..\lvgl\version_6.1.2\lvgl/src/lv_hal/../lv_misc/lv_color.h **** #elif LV_COLOR_DEPTH == 16
  86:..\..\..\lvgl\version_6.1.2\lvgl/src/lv_hal/../lv_misc/lv_color.h **** #define LV_COLOR_SIZE 16
  87:..\..\..\lvgl\version_6.1.2\lvgl/src/lv_hal/../lv_misc/lv_color.h **** #elif LV_COLOR_DEPTH == 32
ARM GAS  C:\Users\tmj32\AppData\Local\Temp\cco3Klhe.s 			page 3


  88:..\..\..\lvgl\version_6.1.2\lvgl/src/lv_hal/../lv_misc/lv_color.h **** #define LV_COLOR_SIZE 32
  89:..\..\..\lvgl\version_6.1.2\lvgl/src/lv_hal/../lv_misc/lv_color.h **** #else
  90:..\..\..\lvgl\version_6.1.2\lvgl/src/lv_hal/../lv_misc/lv_color.h **** #error "Invalid LV_COLOR_DEPTH in lv_conf.h! Set it to 1, 8, 16 or 32!"
  91:..\..\..\lvgl\version_6.1.2\lvgl/src/lv_hal/../lv_misc/lv_color.h **** #endif
  92:..\..\..\lvgl\version_6.1.2\lvgl/src/lv_hal/../lv_misc/lv_color.h **** 
  93:..\..\..\lvgl\version_6.1.2\lvgl/src/lv_hal/../lv_misc/lv_color.h **** /*---------------------------------------
  94:..\..\..\lvgl\version_6.1.2\lvgl/src/lv_hal/../lv_misc/lv_color.h ****  * Macros for all existing  color depths
  95:..\..\..\lvgl\version_6.1.2\lvgl/src/lv_hal/../lv_misc/lv_color.h ****  * to set/get values of the color channels
  96:..\..\..\lvgl\version_6.1.2\lvgl/src/lv_hal/../lv_misc/lv_color.h ****  *------------------------------------------*/
  97:..\..\..\lvgl\version_6.1.2\lvgl/src/lv_hal/../lv_misc/lv_color.h **** # define LV_COLOR_SET_R1(c, v) (c).ch.red = (uint8_t)((v) & 0x1);
  98:..\..\..\lvgl\version_6.1.2\lvgl/src/lv_hal/../lv_misc/lv_color.h **** # define LV_COLOR_SET_G1(c, v) (c).ch.green = (uint8_t)((v) & 0x1);
  99:..\..\..\lvgl\version_6.1.2\lvgl/src/lv_hal/../lv_misc/lv_color.h **** # define LV_COLOR_SET_B1(c, v) (c).ch.blue = (uint8_t)((v) & 0x1);
 100:..\..\..\lvgl\version_6.1.2\lvgl/src/lv_hal/../lv_misc/lv_color.h **** # define LV_COLOR_SET_A1(c, v)
 101:..\..\..\lvgl\version_6.1.2\lvgl/src/lv_hal/../lv_misc/lv_color.h **** 
 102:..\..\..\lvgl\version_6.1.2\lvgl/src/lv_hal/../lv_misc/lv_color.h **** # define LV_COLOR_GET_R1(c) (c).ch.red
 103:..\..\..\lvgl\version_6.1.2\lvgl/src/lv_hal/../lv_misc/lv_color.h **** # define LV_COLOR_GET_G1(c) (c).ch.green
 104:..\..\..\lvgl\version_6.1.2\lvgl/src/lv_hal/../lv_misc/lv_color.h **** # define LV_COLOR_GET_B1(c) (c).ch.blue
 105:..\..\..\lvgl\version_6.1.2\lvgl/src/lv_hal/../lv_misc/lv_color.h **** # define LV_COLOR_GET_A1(c) 1
 106:..\..\..\lvgl\version_6.1.2\lvgl/src/lv_hal/../lv_misc/lv_color.h **** 
 107:..\..\..\lvgl\version_6.1.2\lvgl/src/lv_hal/../lv_misc/lv_color.h **** # define LV_COLOR_SET_R8(c, v) (c).ch.red = (uint8_t)(v) & 0x7U;
 108:..\..\..\lvgl\version_6.1.2\lvgl/src/lv_hal/../lv_misc/lv_color.h **** # define LV_COLOR_SET_G8(c, v) (c).ch.green = (uint8_t)(v) & 0x7U;
 109:..\..\..\lvgl\version_6.1.2\lvgl/src/lv_hal/../lv_misc/lv_color.h **** # define LV_COLOR_SET_B8(c, v) (c).ch.blue = (uint8_t)(v) & 0x3U;
 110:..\..\..\lvgl\version_6.1.2\lvgl/src/lv_hal/../lv_misc/lv_color.h **** # define LV_COLOR_SET_A8(c, v) do {} while(0)
 111:..\..\..\lvgl\version_6.1.2\lvgl/src/lv_hal/../lv_misc/lv_color.h **** 
 112:..\..\..\lvgl\version_6.1.2\lvgl/src/lv_hal/../lv_misc/lv_color.h **** # define LV_COLOR_GET_R8(c) (c).ch.red
 113:..\..\..\lvgl\version_6.1.2\lvgl/src/lv_hal/../lv_misc/lv_color.h **** # define LV_COLOR_GET_G8(c) (c).ch.green
 114:..\..\..\lvgl\version_6.1.2\lvgl/src/lv_hal/../lv_misc/lv_color.h **** # define LV_COLOR_GET_B8(c) (c).ch.blue
 115:..\..\..\lvgl\version_6.1.2\lvgl/src/lv_hal/../lv_misc/lv_color.h **** # define LV_COLOR_GET_A8(c) 0xFF
 116:..\..\..\lvgl\version_6.1.2\lvgl/src/lv_hal/../lv_misc/lv_color.h **** 
 117:..\..\..\lvgl\version_6.1.2\lvgl/src/lv_hal/../lv_misc/lv_color.h **** # define LV_COLOR_SET_R16(c, v) (c).ch.red = (uint8_t)(v) & 0x1FU;
 118:..\..\..\lvgl\version_6.1.2\lvgl/src/lv_hal/../lv_misc/lv_color.h **** # define LV_COLOR_SET_G16(c, v) (c).ch.green = (uint8_t)(v) & 0x3FU;
 119:..\..\..\lvgl\version_6.1.2\lvgl/src/lv_hal/../lv_misc/lv_color.h **** # define LV_COLOR_SET_G16_SWAP(c, v) {(c).ch.green_h = (uint8_t)(((v) >> 3) & 0x7); (c).ch.green_l 
 120:..\..\..\lvgl\version_6.1.2\lvgl/src/lv_hal/../lv_misc/lv_color.h **** # define LV_COLOR_SET_B16(c, v) (c).ch.blue = (uint8_t)(v) & 0x1FU;
 121:..\..\..\lvgl\version_6.1.2\lvgl/src/lv_hal/../lv_misc/lv_color.h **** # define LV_COLOR_SET_A16(c, v) do {} while(0)
 122:..\..\..\lvgl\version_6.1.2\lvgl/src/lv_hal/../lv_misc/lv_color.h **** 
 123:..\..\..\lvgl\version_6.1.2\lvgl/src/lv_hal/../lv_misc/lv_color.h **** # define LV_COLOR_GET_R16(c) (c).ch.red
 124:..\..\..\lvgl\version_6.1.2\lvgl/src/lv_hal/../lv_misc/lv_color.h **** # define LV_COLOR_GET_G16(c) (c).ch.green
 125:..\..\..\lvgl\version_6.1.2\lvgl/src/lv_hal/../lv_misc/lv_color.h **** # define LV_COLOR_GET_G16_SWAP(c) (((c).ch.green_h << 3) + (c).ch.green_l)
 126:..\..\..\lvgl\version_6.1.2\lvgl/src/lv_hal/../lv_misc/lv_color.h **** # define LV_COLOR_GET_B16(c) (c).ch.blue
 127:..\..\..\lvgl\version_6.1.2\lvgl/src/lv_hal/../lv_misc/lv_color.h **** # define LV_COLOR_GET_A16(c) 0xFF
 128:..\..\..\lvgl\version_6.1.2\lvgl/src/lv_hal/../lv_misc/lv_color.h **** 
 129:..\..\..\lvgl\version_6.1.2\lvgl/src/lv_hal/../lv_misc/lv_color.h **** # define LV_COLOR_SET_R32(c, v) (c).ch.red = (uint32_t)((v) & 0xFF);
 130:..\..\..\lvgl\version_6.1.2\lvgl/src/lv_hal/../lv_misc/lv_color.h **** # define LV_COLOR_SET_G32(c, v) (c).ch.green = (uint32_t)((v) & 0xFF);
 131:..\..\..\lvgl\version_6.1.2\lvgl/src/lv_hal/../lv_misc/lv_color.h **** # define LV_COLOR_SET_B32(c, v) (c).ch.blue = (uint32_t)((v) & 0xFF);
 132:..\..\..\lvgl\version_6.1.2\lvgl/src/lv_hal/../lv_misc/lv_color.h **** # define LV_COLOR_SET_A32(c, v) (c).ch.alpha = (uint32_t)((v) & 0xFF);
 133:..\..\..\lvgl\version_6.1.2\lvgl/src/lv_hal/../lv_misc/lv_color.h **** 
 134:..\..\..\lvgl\version_6.1.2\lvgl/src/lv_hal/../lv_misc/lv_color.h **** # define LV_COLOR_GET_R32(c) (c).ch.red
 135:..\..\..\lvgl\version_6.1.2\lvgl/src/lv_hal/../lv_misc/lv_color.h **** # define LV_COLOR_GET_G32(c) (c).ch.green
 136:..\..\..\lvgl\version_6.1.2\lvgl/src/lv_hal/../lv_misc/lv_color.h **** # define LV_COLOR_GET_B32(c) (c).ch.blue
 137:..\..\..\lvgl\version_6.1.2\lvgl/src/lv_hal/../lv_misc/lv_color.h **** # define LV_COLOR_GET_A32(c) (c).ch.alpha
 138:..\..\..\lvgl\version_6.1.2\lvgl/src/lv_hal/../lv_misc/lv_color.h **** 
 139:..\..\..\lvgl\version_6.1.2\lvgl/src/lv_hal/../lv_misc/lv_color.h **** 
 140:..\..\..\lvgl\version_6.1.2\lvgl/src/lv_hal/../lv_misc/lv_color.h **** /*---------------------------------------
 141:..\..\..\lvgl\version_6.1.2\lvgl/src/lv_hal/../lv_misc/lv_color.h ****  * Macros for the current color depth
 142:..\..\..\lvgl\version_6.1.2\lvgl/src/lv_hal/../lv_misc/lv_color.h ****  * to set/get values of the color channels
 143:..\..\..\lvgl\version_6.1.2\lvgl/src/lv_hal/../lv_misc/lv_color.h ****  *------------------------------------------*/
 144:..\..\..\lvgl\version_6.1.2\lvgl/src/lv_hal/../lv_misc/lv_color.h **** #if LV_COLOR_DEPTH == 1
ARM GAS  C:\Users\tmj32\AppData\Local\Temp\cco3Klhe.s 			page 4


 145:..\..\..\lvgl\version_6.1.2\lvgl/src/lv_hal/../lv_misc/lv_color.h **** # define LV_COLOR_SET_R(c, v) LV_COLOR_SET_R1(c,v)
 146:..\..\..\lvgl\version_6.1.2\lvgl/src/lv_hal/../lv_misc/lv_color.h **** # define LV_COLOR_SET_G(c, v) LV_COLOR_SET_G1(c,v)
 147:..\..\..\lvgl\version_6.1.2\lvgl/src/lv_hal/../lv_misc/lv_color.h **** # define LV_COLOR_SET_B(c, v) LV_COLOR_SET_B1(c,v)
 148:..\..\..\lvgl\version_6.1.2\lvgl/src/lv_hal/../lv_misc/lv_color.h **** # define LV_COLOR_SET_A(c, v) LV_COLOR_SET_A1(c,v)
 149:..\..\..\lvgl\version_6.1.2\lvgl/src/lv_hal/../lv_misc/lv_color.h **** 
 150:..\..\..\lvgl\version_6.1.2\lvgl/src/lv_hal/../lv_misc/lv_color.h **** # define LV_COLOR_GET_R(c) LV_COLOR_GET_R1(c)
 151:..\..\..\lvgl\version_6.1.2\lvgl/src/lv_hal/../lv_misc/lv_color.h **** # define LV_COLOR_GET_G(c) LV_COLOR_GET_G1(c)
 152:..\..\..\lvgl\version_6.1.2\lvgl/src/lv_hal/../lv_misc/lv_color.h **** # define LV_COLOR_GET_B(c) LV_COLOR_GET_B1(c)
 153:..\..\..\lvgl\version_6.1.2\lvgl/src/lv_hal/../lv_misc/lv_color.h **** # define LV_COLOR_GET_A(c) LV_COLOR_GET_A1(c)
 154:..\..\..\lvgl\version_6.1.2\lvgl/src/lv_hal/../lv_misc/lv_color.h **** 
 155:..\..\..\lvgl\version_6.1.2\lvgl/src/lv_hal/../lv_misc/lv_color.h **** #elif LV_COLOR_DEPTH == 8
 156:..\..\..\lvgl\version_6.1.2\lvgl/src/lv_hal/../lv_misc/lv_color.h **** # define LV_COLOR_SET_R(c, v) LV_COLOR_SET_R8(c,v)
 157:..\..\..\lvgl\version_6.1.2\lvgl/src/lv_hal/../lv_misc/lv_color.h **** # define LV_COLOR_SET_G(c, v) LV_COLOR_SET_G8(c,v)
 158:..\..\..\lvgl\version_6.1.2\lvgl/src/lv_hal/../lv_misc/lv_color.h **** # define LV_COLOR_SET_B(c, v) LV_COLOR_SET_B8(c,v)
 159:..\..\..\lvgl\version_6.1.2\lvgl/src/lv_hal/../lv_misc/lv_color.h **** # define LV_COLOR_SET_A(c, v) LV_COLOR_SET_A8(c,v)
 160:..\..\..\lvgl\version_6.1.2\lvgl/src/lv_hal/../lv_misc/lv_color.h **** 
 161:..\..\..\lvgl\version_6.1.2\lvgl/src/lv_hal/../lv_misc/lv_color.h **** # define LV_COLOR_GET_R(c) LV_COLOR_GET_R8(c)
 162:..\..\..\lvgl\version_6.1.2\lvgl/src/lv_hal/../lv_misc/lv_color.h **** # define LV_COLOR_GET_G(c) LV_COLOR_GET_G8(c)
 163:..\..\..\lvgl\version_6.1.2\lvgl/src/lv_hal/../lv_misc/lv_color.h **** # define LV_COLOR_GET_B(c) LV_COLOR_GET_B8(c)
 164:..\..\..\lvgl\version_6.1.2\lvgl/src/lv_hal/../lv_misc/lv_color.h **** # define LV_COLOR_GET_A(c) LV_COLOR_GET_A8(c)
 165:..\..\..\lvgl\version_6.1.2\lvgl/src/lv_hal/../lv_misc/lv_color.h **** 
 166:..\..\..\lvgl\version_6.1.2\lvgl/src/lv_hal/../lv_misc/lv_color.h **** #elif LV_COLOR_DEPTH == 16
 167:..\..\..\lvgl\version_6.1.2\lvgl/src/lv_hal/../lv_misc/lv_color.h **** # define LV_COLOR_SET_R(c, v) LV_COLOR_SET_R16(c,v)
 168:..\..\..\lvgl\version_6.1.2\lvgl/src/lv_hal/../lv_misc/lv_color.h **** # if LV_COLOR_16_SWAP == 0
 169:..\..\..\lvgl\version_6.1.2\lvgl/src/lv_hal/../lv_misc/lv_color.h **** #   define LV_COLOR_SET_G(c, v) LV_COLOR_SET_G16(c,v)
 170:..\..\..\lvgl\version_6.1.2\lvgl/src/lv_hal/../lv_misc/lv_color.h **** # else
 171:..\..\..\lvgl\version_6.1.2\lvgl/src/lv_hal/../lv_misc/lv_color.h **** #   define LV_COLOR_SET_G(c, v) LV_COLOR_SET_G16_SWAP(c,v)
 172:..\..\..\lvgl\version_6.1.2\lvgl/src/lv_hal/../lv_misc/lv_color.h **** # endif
 173:..\..\..\lvgl\version_6.1.2\lvgl/src/lv_hal/../lv_misc/lv_color.h **** # define LV_COLOR_SET_B(c, v) LV_COLOR_SET_B16(c,v)
 174:..\..\..\lvgl\version_6.1.2\lvgl/src/lv_hal/../lv_misc/lv_color.h **** # define LV_COLOR_SET_A(c, v) LV_COLOR_SET_A16(c,v)
 175:..\..\..\lvgl\version_6.1.2\lvgl/src/lv_hal/../lv_misc/lv_color.h **** 
 176:..\..\..\lvgl\version_6.1.2\lvgl/src/lv_hal/../lv_misc/lv_color.h **** # define LV_COLOR_GET_R(c) LV_COLOR_GET_R16(c)
 177:..\..\..\lvgl\version_6.1.2\lvgl/src/lv_hal/../lv_misc/lv_color.h **** # if LV_COLOR_16_SWAP == 0
 178:..\..\..\lvgl\version_6.1.2\lvgl/src/lv_hal/../lv_misc/lv_color.h **** #   define LV_COLOR_GET_G(c) LV_COLOR_GET_G16(c)
 179:..\..\..\lvgl\version_6.1.2\lvgl/src/lv_hal/../lv_misc/lv_color.h **** # else
 180:..\..\..\lvgl\version_6.1.2\lvgl/src/lv_hal/../lv_misc/lv_color.h **** #   define LV_COLOR_GET_G(c) LV_COLOR_GET_G16_SWAP(c)
 181:..\..\..\lvgl\version_6.1.2\lvgl/src/lv_hal/../lv_misc/lv_color.h **** # endif
 182:..\..\..\lvgl\version_6.1.2\lvgl/src/lv_hal/../lv_misc/lv_color.h **** # define LV_COLOR_GET_B(c)   LV_COLOR_GET_B16(c)
 183:..\..\..\lvgl\version_6.1.2\lvgl/src/lv_hal/../lv_misc/lv_color.h **** # define LV_COLOR_GET_A(c)   LV_COLOR_GET_A16(c)
 184:..\..\..\lvgl\version_6.1.2\lvgl/src/lv_hal/../lv_misc/lv_color.h **** 
 185:..\..\..\lvgl\version_6.1.2\lvgl/src/lv_hal/../lv_misc/lv_color.h **** #elif LV_COLOR_DEPTH == 32
 186:..\..\..\lvgl\version_6.1.2\lvgl/src/lv_hal/../lv_misc/lv_color.h **** # define LV_COLOR_SET_R(c, v) LV_COLOR_SET_R32(c,v)
 187:..\..\..\lvgl\version_6.1.2\lvgl/src/lv_hal/../lv_misc/lv_color.h **** # define LV_COLOR_SET_G(c, v) LV_COLOR_SET_G32(c,v)
 188:..\..\..\lvgl\version_6.1.2\lvgl/src/lv_hal/../lv_misc/lv_color.h **** # define LV_COLOR_SET_B(c, v) LV_COLOR_SET_B32(c,v)
 189:..\..\..\lvgl\version_6.1.2\lvgl/src/lv_hal/../lv_misc/lv_color.h **** # define LV_COLOR_SET_A(c, v) LV_COLOR_SET_A32(c,v)
 190:..\..\..\lvgl\version_6.1.2\lvgl/src/lv_hal/../lv_misc/lv_color.h **** 
 191:..\..\..\lvgl\version_6.1.2\lvgl/src/lv_hal/../lv_misc/lv_color.h **** # define LV_COLOR_GET_R(c) LV_COLOR_GET_R32(c)
 192:..\..\..\lvgl\version_6.1.2\lvgl/src/lv_hal/../lv_misc/lv_color.h **** # define LV_COLOR_GET_G(c) LV_COLOR_GET_G32(c)
 193:..\..\..\lvgl\version_6.1.2\lvgl/src/lv_hal/../lv_misc/lv_color.h **** # define LV_COLOR_GET_B(c) LV_COLOR_GET_B32(c)
 194:..\..\..\lvgl\version_6.1.2\lvgl/src/lv_hal/../lv_misc/lv_color.h **** # define LV_COLOR_GET_A(c) LV_COLOR_GET_A32(c)
 195:..\..\..\lvgl\version_6.1.2\lvgl/src/lv_hal/../lv_misc/lv_color.h **** #endif
 196:..\..\..\lvgl\version_6.1.2\lvgl/src/lv_hal/../lv_misc/lv_color.h **** 
 197:..\..\..\lvgl\version_6.1.2\lvgl/src/lv_hal/../lv_misc/lv_color.h **** /**********************
 198:..\..\..\lvgl\version_6.1.2\lvgl/src/lv_hal/../lv_misc/lv_color.h ****  *      TYPEDEFS
 199:..\..\..\lvgl\version_6.1.2\lvgl/src/lv_hal/../lv_misc/lv_color.h ****  **********************/
 200:..\..\..\lvgl\version_6.1.2\lvgl/src/lv_hal/../lv_misc/lv_color.h **** 
 201:..\..\..\lvgl\version_6.1.2\lvgl/src/lv_hal/../lv_misc/lv_color.h **** typedef union
ARM GAS  C:\Users\tmj32\AppData\Local\Temp\cco3Klhe.s 			page 5


 202:..\..\..\lvgl\version_6.1.2\lvgl/src/lv_hal/../lv_misc/lv_color.h **** {
 203:..\..\..\lvgl\version_6.1.2\lvgl/src/lv_hal/../lv_misc/lv_color.h ****     struct
 204:..\..\..\lvgl\version_6.1.2\lvgl/src/lv_hal/../lv_misc/lv_color.h ****     {
 205:..\..\..\lvgl\version_6.1.2\lvgl/src/lv_hal/../lv_misc/lv_color.h ****         uint8_t blue : 1;
 206:..\..\..\lvgl\version_6.1.2\lvgl/src/lv_hal/../lv_misc/lv_color.h ****         uint8_t green : 1;
 207:..\..\..\lvgl\version_6.1.2\lvgl/src/lv_hal/../lv_misc/lv_color.h ****         uint8_t red : 1;
 208:..\..\..\lvgl\version_6.1.2\lvgl/src/lv_hal/../lv_misc/lv_color.h ****     } ch;
 209:..\..\..\lvgl\version_6.1.2\lvgl/src/lv_hal/../lv_misc/lv_color.h ****     uint8_t full;
 210:..\..\..\lvgl\version_6.1.2\lvgl/src/lv_hal/../lv_misc/lv_color.h **** } lv_color1_t;
 211:..\..\..\lvgl\version_6.1.2\lvgl/src/lv_hal/../lv_misc/lv_color.h **** 
 212:..\..\..\lvgl\version_6.1.2\lvgl/src/lv_hal/../lv_misc/lv_color.h **** typedef union
 213:..\..\..\lvgl\version_6.1.2\lvgl/src/lv_hal/../lv_misc/lv_color.h **** {
 214:..\..\..\lvgl\version_6.1.2\lvgl/src/lv_hal/../lv_misc/lv_color.h ****     struct
 215:..\..\..\lvgl\version_6.1.2\lvgl/src/lv_hal/../lv_misc/lv_color.h ****     {
 216:..\..\..\lvgl\version_6.1.2\lvgl/src/lv_hal/../lv_misc/lv_color.h ****         uint8_t blue : 2;
 217:..\..\..\lvgl\version_6.1.2\lvgl/src/lv_hal/../lv_misc/lv_color.h ****         uint8_t green : 3;
 218:..\..\..\lvgl\version_6.1.2\lvgl/src/lv_hal/../lv_misc/lv_color.h ****         uint8_t red : 3;
 219:..\..\..\lvgl\version_6.1.2\lvgl/src/lv_hal/../lv_misc/lv_color.h ****     } ch;
 220:..\..\..\lvgl\version_6.1.2\lvgl/src/lv_hal/../lv_misc/lv_color.h ****     uint8_t full;
 221:..\..\..\lvgl\version_6.1.2\lvgl/src/lv_hal/../lv_misc/lv_color.h **** } lv_color8_t;
 222:..\..\..\lvgl\version_6.1.2\lvgl/src/lv_hal/../lv_misc/lv_color.h **** 
 223:..\..\..\lvgl\version_6.1.2\lvgl/src/lv_hal/../lv_misc/lv_color.h **** typedef union
 224:..\..\..\lvgl\version_6.1.2\lvgl/src/lv_hal/../lv_misc/lv_color.h **** {
 225:..\..\..\lvgl\version_6.1.2\lvgl/src/lv_hal/../lv_misc/lv_color.h ****     struct
 226:..\..\..\lvgl\version_6.1.2\lvgl/src/lv_hal/../lv_misc/lv_color.h ****     {
 227:..\..\..\lvgl\version_6.1.2\lvgl/src/lv_hal/../lv_misc/lv_color.h **** #if LV_COLOR_16_SWAP == 0
 228:..\..\..\lvgl\version_6.1.2\lvgl/src/lv_hal/../lv_misc/lv_color.h ****         uint16_t blue : 5;
 229:..\..\..\lvgl\version_6.1.2\lvgl/src/lv_hal/../lv_misc/lv_color.h ****         uint16_t green : 6;
 230:..\..\..\lvgl\version_6.1.2\lvgl/src/lv_hal/../lv_misc/lv_color.h ****         uint16_t red : 5;
 231:..\..\..\lvgl\version_6.1.2\lvgl/src/lv_hal/../lv_misc/lv_color.h **** #else
 232:..\..\..\lvgl\version_6.1.2\lvgl/src/lv_hal/../lv_misc/lv_color.h ****         uint16_t green_h : 3;
 233:..\..\..\lvgl\version_6.1.2\lvgl/src/lv_hal/../lv_misc/lv_color.h ****         uint16_t red : 5;
 234:..\..\..\lvgl\version_6.1.2\lvgl/src/lv_hal/../lv_misc/lv_color.h ****         uint16_t blue : 5;
 235:..\..\..\lvgl\version_6.1.2\lvgl/src/lv_hal/../lv_misc/lv_color.h ****         uint16_t green_l : 3;
 236:..\..\..\lvgl\version_6.1.2\lvgl/src/lv_hal/../lv_misc/lv_color.h **** #endif
 237:..\..\..\lvgl\version_6.1.2\lvgl/src/lv_hal/../lv_misc/lv_color.h ****     } ch;
 238:..\..\..\lvgl\version_6.1.2\lvgl/src/lv_hal/../lv_misc/lv_color.h ****     uint16_t full;
 239:..\..\..\lvgl\version_6.1.2\lvgl/src/lv_hal/../lv_misc/lv_color.h **** } lv_color16_t;
 240:..\..\..\lvgl\version_6.1.2\lvgl/src/lv_hal/../lv_misc/lv_color.h **** 
 241:..\..\..\lvgl\version_6.1.2\lvgl/src/lv_hal/../lv_misc/lv_color.h **** typedef union
 242:..\..\..\lvgl\version_6.1.2\lvgl/src/lv_hal/../lv_misc/lv_color.h **** {
 243:..\..\..\lvgl\version_6.1.2\lvgl/src/lv_hal/../lv_misc/lv_color.h ****     struct
 244:..\..\..\lvgl\version_6.1.2\lvgl/src/lv_hal/../lv_misc/lv_color.h ****     {
 245:..\..\..\lvgl\version_6.1.2\lvgl/src/lv_hal/../lv_misc/lv_color.h ****         uint8_t blue;
 246:..\..\..\lvgl\version_6.1.2\lvgl/src/lv_hal/../lv_misc/lv_color.h ****         uint8_t green;
 247:..\..\..\lvgl\version_6.1.2\lvgl/src/lv_hal/../lv_misc/lv_color.h ****         uint8_t red;
 248:..\..\..\lvgl\version_6.1.2\lvgl/src/lv_hal/../lv_misc/lv_color.h ****         uint8_t alpha;
 249:..\..\..\lvgl\version_6.1.2\lvgl/src/lv_hal/../lv_misc/lv_color.h ****     } ch;
 250:..\..\..\lvgl\version_6.1.2\lvgl/src/lv_hal/../lv_misc/lv_color.h ****     uint32_t full;
 251:..\..\..\lvgl\version_6.1.2\lvgl/src/lv_hal/../lv_misc/lv_color.h **** } lv_color32_t;
 252:..\..\..\lvgl\version_6.1.2\lvgl/src/lv_hal/../lv_misc/lv_color.h **** 
 253:..\..\..\lvgl\version_6.1.2\lvgl/src/lv_hal/../lv_misc/lv_color.h **** #if LV_COLOR_DEPTH == 1
 254:..\..\..\lvgl\version_6.1.2\lvgl/src/lv_hal/../lv_misc/lv_color.h **** typedef uint8_t lv_color_int_t;
 255:..\..\..\lvgl\version_6.1.2\lvgl/src/lv_hal/../lv_misc/lv_color.h **** typedef lv_color1_t lv_color_t;
 256:..\..\..\lvgl\version_6.1.2\lvgl/src/lv_hal/../lv_misc/lv_color.h **** #elif LV_COLOR_DEPTH == 8
 257:..\..\..\lvgl\version_6.1.2\lvgl/src/lv_hal/../lv_misc/lv_color.h **** typedef uint8_t lv_color_int_t;
 258:..\..\..\lvgl\version_6.1.2\lvgl/src/lv_hal/../lv_misc/lv_color.h **** typedef lv_color8_t lv_color_t;
ARM GAS  C:\Users\tmj32\AppData\Local\Temp\cco3Klhe.s 			page 6


 259:..\..\..\lvgl\version_6.1.2\lvgl/src/lv_hal/../lv_misc/lv_color.h **** #elif LV_COLOR_DEPTH == 16
 260:..\..\..\lvgl\version_6.1.2\lvgl/src/lv_hal/../lv_misc/lv_color.h **** typedef uint16_t lv_color_int_t;
 261:..\..\..\lvgl\version_6.1.2\lvgl/src/lv_hal/../lv_misc/lv_color.h **** typedef lv_color16_t lv_color_t;
 262:..\..\..\lvgl\version_6.1.2\lvgl/src/lv_hal/../lv_misc/lv_color.h **** #elif LV_COLOR_DEPTH == 32
 263:..\..\..\lvgl\version_6.1.2\lvgl/src/lv_hal/../lv_misc/lv_color.h **** typedef uint32_t lv_color_int_t;
 264:..\..\..\lvgl\version_6.1.2\lvgl/src/lv_hal/../lv_misc/lv_color.h **** typedef lv_color32_t lv_color_t;
 265:..\..\..\lvgl\version_6.1.2\lvgl/src/lv_hal/../lv_misc/lv_color.h **** #else
 266:..\..\..\lvgl\version_6.1.2\lvgl/src/lv_hal/../lv_misc/lv_color.h **** #error "Invalid LV_COLOR_DEPTH in lv_conf.h! Set it to 1, 8, 16 or 32!"
 267:..\..\..\lvgl\version_6.1.2\lvgl/src/lv_hal/../lv_misc/lv_color.h **** #endif
 268:..\..\..\lvgl\version_6.1.2\lvgl/src/lv_hal/../lv_misc/lv_color.h **** 
 269:..\..\..\lvgl\version_6.1.2\lvgl/src/lv_hal/../lv_misc/lv_color.h **** typedef uint8_t lv_opa_t;
 270:..\..\..\lvgl\version_6.1.2\lvgl/src/lv_hal/../lv_misc/lv_color.h **** 
 271:..\..\..\lvgl\version_6.1.2\lvgl/src/lv_hal/../lv_misc/lv_color.h **** typedef struct
 272:..\..\..\lvgl\version_6.1.2\lvgl/src/lv_hal/../lv_misc/lv_color.h **** {
 273:..\..\..\lvgl\version_6.1.2\lvgl/src/lv_hal/../lv_misc/lv_color.h ****     uint16_t h;
 274:..\..\..\lvgl\version_6.1.2\lvgl/src/lv_hal/../lv_misc/lv_color.h ****     uint8_t s;
 275:..\..\..\lvgl\version_6.1.2\lvgl/src/lv_hal/../lv_misc/lv_color.h ****     uint8_t v;
 276:..\..\..\lvgl\version_6.1.2\lvgl/src/lv_hal/../lv_misc/lv_color.h **** } lv_color_hsv_t;
 277:..\..\..\lvgl\version_6.1.2\lvgl/src/lv_hal/../lv_misc/lv_color.h **** 
 278:..\..\..\lvgl\version_6.1.2\lvgl/src/lv_hal/../lv_misc/lv_color.h **** /**********************
 279:..\..\..\lvgl\version_6.1.2\lvgl/src/lv_hal/../lv_misc/lv_color.h ****  * GLOBAL PROTOTYPES
 280:..\..\..\lvgl\version_6.1.2\lvgl/src/lv_hal/../lv_misc/lv_color.h ****  **********************/
 281:..\..\..\lvgl\version_6.1.2\lvgl/src/lv_hal/../lv_misc/lv_color.h **** 
 282:..\..\..\lvgl\version_6.1.2\lvgl/src/lv_hal/../lv_misc/lv_color.h **** /*In color conversations:
 283:..\..\..\lvgl\version_6.1.2\lvgl/src/lv_hal/../lv_misc/lv_color.h ****  * - When converting to bigger color type the LSB weight of 1 LSB is calculated
 284:..\..\..\lvgl\version_6.1.2\lvgl/src/lv_hal/../lv_misc/lv_color.h ****  *   E.g. 16 bit Red has 5 bits
 285:..\..\..\lvgl\version_6.1.2\lvgl/src/lv_hal/../lv_misc/lv_color.h ****  *         8 bit Red has 2 bits
 286:..\..\..\lvgl\version_6.1.2\lvgl/src/lv_hal/../lv_misc/lv_color.h ****  *        ----------------------
 287:..\..\..\lvgl\version_6.1.2\lvgl/src/lv_hal/../lv_misc/lv_color.h ****  *        8 bit red LSB = (2^5 - 1) / (2^2 - 1) = 31 / 3 = 10
 288:..\..\..\lvgl\version_6.1.2\lvgl/src/lv_hal/../lv_misc/lv_color.h ****  *
 289:..\..\..\lvgl\version_6.1.2\lvgl/src/lv_hal/../lv_misc/lv_color.h ****  * - When calculating to smaller color type simply shift out the LSBs
 290:..\..\..\lvgl\version_6.1.2\lvgl/src/lv_hal/../lv_misc/lv_color.h ****  *   E.g.  8 bit Red has 2 bits
 291:..\..\..\lvgl\version_6.1.2\lvgl/src/lv_hal/../lv_misc/lv_color.h ****  *        16 bit Red has 5 bits
 292:..\..\..\lvgl\version_6.1.2\lvgl/src/lv_hal/../lv_misc/lv_color.h ****  *        ----------------------
 293:..\..\..\lvgl\version_6.1.2\lvgl/src/lv_hal/../lv_misc/lv_color.h ****  *         Shift right with 5 - 3 = 2
 294:..\..\..\lvgl\version_6.1.2\lvgl/src/lv_hal/../lv_misc/lv_color.h ****  */
 295:..\..\..\lvgl\version_6.1.2\lvgl/src/lv_hal/../lv_misc/lv_color.h **** 
 296:..\..\..\lvgl\version_6.1.2\lvgl/src/lv_hal/../lv_misc/lv_color.h **** static inline uint8_t lv_color_to1(lv_color_t color)
 297:..\..\..\lvgl\version_6.1.2\lvgl/src/lv_hal/../lv_misc/lv_color.h **** {
 298:..\..\..\lvgl\version_6.1.2\lvgl/src/lv_hal/../lv_misc/lv_color.h **** #if LV_COLOR_DEPTH == 1
 299:..\..\..\lvgl\version_6.1.2\lvgl/src/lv_hal/../lv_misc/lv_color.h ****     return color.full;
 300:..\..\..\lvgl\version_6.1.2\lvgl/src/lv_hal/../lv_misc/lv_color.h **** #elif LV_COLOR_DEPTH == 8
 301:..\..\..\lvgl\version_6.1.2\lvgl/src/lv_hal/../lv_misc/lv_color.h ****     if((LV_COLOR_GET_R(color) & 0x4) || (LV_COLOR_GET_G(color) & 0x4) || (LV_COLOR_GET_B(color) & 0
 302:..\..\..\lvgl\version_6.1.2\lvgl/src/lv_hal/../lv_misc/lv_color.h ****         return 1;
 303:..\..\..\lvgl\version_6.1.2\lvgl/src/lv_hal/../lv_misc/lv_color.h ****     } else {
 304:..\..\..\lvgl\version_6.1.2\lvgl/src/lv_hal/../lv_misc/lv_color.h ****         return 0;
 305:..\..\..\lvgl\version_6.1.2\lvgl/src/lv_hal/../lv_misc/lv_color.h ****     }
 306:..\..\..\lvgl\version_6.1.2\lvgl/src/lv_hal/../lv_misc/lv_color.h **** #elif LV_COLOR_DEPTH == 16
 307:..\..\..\lvgl\version_6.1.2\lvgl/src/lv_hal/../lv_misc/lv_color.h ****     if((LV_COLOR_GET_R(color) & 0x10) || (LV_COLOR_GET_G(color) & 0x20) || (LV_COLOR_GET_B(color) &
 308:..\..\..\lvgl\version_6.1.2\lvgl/src/lv_hal/../lv_misc/lv_color.h ****         return 1;
 309:..\..\..\lvgl\version_6.1.2\lvgl/src/lv_hal/../lv_misc/lv_color.h ****     } else {
 310:..\..\..\lvgl\version_6.1.2\lvgl/src/lv_hal/../lv_misc/lv_color.h ****         return 0;
 311:..\..\..\lvgl\version_6.1.2\lvgl/src/lv_hal/../lv_misc/lv_color.h ****     }
 312:..\..\..\lvgl\version_6.1.2\lvgl/src/lv_hal/../lv_misc/lv_color.h **** #elif LV_COLOR_DEPTH == 32
 313:..\..\..\lvgl\version_6.1.2\lvgl/src/lv_hal/../lv_misc/lv_color.h ****     if((LV_COLOR_GET_R(color) & 0x80) || (LV_COLOR_GET_G(color) & 0x80) || (LV_COLOR_GET_B(color) &
 314:..\..\..\lvgl\version_6.1.2\lvgl/src/lv_hal/../lv_misc/lv_color.h ****         return 1;
 315:..\..\..\lvgl\version_6.1.2\lvgl/src/lv_hal/../lv_misc/lv_color.h ****     } else {
ARM GAS  C:\Users\tmj32\AppData\Local\Temp\cco3Klhe.s 			page 7


 316:..\..\..\lvgl\version_6.1.2\lvgl/src/lv_hal/../lv_misc/lv_color.h ****         return 0;
 317:..\..\..\lvgl\version_6.1.2\lvgl/src/lv_hal/../lv_misc/lv_color.h ****     }
 318:..\..\..\lvgl\version_6.1.2\lvgl/src/lv_hal/../lv_misc/lv_color.h **** #endif
 319:..\..\..\lvgl\version_6.1.2\lvgl/src/lv_hal/../lv_misc/lv_color.h **** }
 320:..\..\..\lvgl\version_6.1.2\lvgl/src/lv_hal/../lv_misc/lv_color.h **** 
 321:..\..\..\lvgl\version_6.1.2\lvgl/src/lv_hal/../lv_misc/lv_color.h **** static inline uint8_t lv_color_to8(lv_color_t color)
 322:..\..\..\lvgl\version_6.1.2\lvgl/src/lv_hal/../lv_misc/lv_color.h **** {
 323:..\..\..\lvgl\version_6.1.2\lvgl/src/lv_hal/../lv_misc/lv_color.h **** #if LV_COLOR_DEPTH == 1
 324:..\..\..\lvgl\version_6.1.2\lvgl/src/lv_hal/../lv_misc/lv_color.h ****     if(color.full == 0)
 325:..\..\..\lvgl\version_6.1.2\lvgl/src/lv_hal/../lv_misc/lv_color.h ****         return 0;
 326:..\..\..\lvgl\version_6.1.2\lvgl/src/lv_hal/../lv_misc/lv_color.h ****     else
 327:..\..\..\lvgl\version_6.1.2\lvgl/src/lv_hal/../lv_misc/lv_color.h ****         return 0xFF;
 328:..\..\..\lvgl\version_6.1.2\lvgl/src/lv_hal/../lv_misc/lv_color.h **** #elif LV_COLOR_DEPTH == 8
 329:..\..\..\lvgl\version_6.1.2\lvgl/src/lv_hal/../lv_misc/lv_color.h ****     return color.full;
 330:..\..\..\lvgl\version_6.1.2\lvgl/src/lv_hal/../lv_misc/lv_color.h **** #elif LV_COLOR_DEPTH == 16
 331:..\..\..\lvgl\version_6.1.2\lvgl/src/lv_hal/../lv_misc/lv_color.h ****     lv_color8_t ret;
 332:..\..\..\lvgl\version_6.1.2\lvgl/src/lv_hal/../lv_misc/lv_color.h ****     LV_COLOR_SET_R8(ret, LV_COLOR_GET_R(color) >> 2);   /* 5 - 3  = 2*/
 333:..\..\..\lvgl\version_6.1.2\lvgl/src/lv_hal/../lv_misc/lv_color.h ****     LV_COLOR_SET_G8(ret, LV_COLOR_GET_G(color) >> 3); /* 6 - 3  = 3*/
 334:..\..\..\lvgl\version_6.1.2\lvgl/src/lv_hal/../lv_misc/lv_color.h ****     LV_COLOR_SET_B8(ret, LV_COLOR_GET_B(color) >> 3);  /* 5 - 2  = 3*/
 335:..\..\..\lvgl\version_6.1.2\lvgl/src/lv_hal/../lv_misc/lv_color.h ****     return ret.full;
 336:..\..\..\lvgl\version_6.1.2\lvgl/src/lv_hal/../lv_misc/lv_color.h **** #elif LV_COLOR_DEPTH == 32
 337:..\..\..\lvgl\version_6.1.2\lvgl/src/lv_hal/../lv_misc/lv_color.h ****     lv_color8_t ret;
 338:..\..\..\lvgl\version_6.1.2\lvgl/src/lv_hal/../lv_misc/lv_color.h ****     LV_COLOR_SET_R8(ret, LV_COLOR_GET_R(color) >> 5);   /* 8 - 3  = 5*/
 339:..\..\..\lvgl\version_6.1.2\lvgl/src/lv_hal/../lv_misc/lv_color.h ****     LV_COLOR_SET_G8(ret, LV_COLOR_GET_G(color) >> 5); /* 8 - 3  = 5*/
 340:..\..\..\lvgl\version_6.1.2\lvgl/src/lv_hal/../lv_misc/lv_color.h ****     LV_COLOR_SET_B8(ret, LV_COLOR_GET_B(color) >> 6);  /* 8 - 2  = 6*/
 341:..\..\..\lvgl\version_6.1.2\lvgl/src/lv_hal/../lv_misc/lv_color.h ****     return ret.full;
 342:..\..\..\lvgl\version_6.1.2\lvgl/src/lv_hal/../lv_misc/lv_color.h **** #endif
 343:..\..\..\lvgl\version_6.1.2\lvgl/src/lv_hal/../lv_misc/lv_color.h **** }
 344:..\..\..\lvgl\version_6.1.2\lvgl/src/lv_hal/../lv_misc/lv_color.h **** 
 345:..\..\..\lvgl\version_6.1.2\lvgl/src/lv_hal/../lv_misc/lv_color.h **** static inline uint16_t lv_color_to16(lv_color_t color)
 346:..\..\..\lvgl\version_6.1.2\lvgl/src/lv_hal/../lv_misc/lv_color.h **** {
 347:..\..\..\lvgl\version_6.1.2\lvgl/src/lv_hal/../lv_misc/lv_color.h **** #if LV_COLOR_DEPTH == 1
 348:..\..\..\lvgl\version_6.1.2\lvgl/src/lv_hal/../lv_misc/lv_color.h ****     if(color.full == 0)
 349:..\..\..\lvgl\version_6.1.2\lvgl/src/lv_hal/../lv_misc/lv_color.h ****         return 0;
 350:..\..\..\lvgl\version_6.1.2\lvgl/src/lv_hal/../lv_misc/lv_color.h ****     else
 351:..\..\..\lvgl\version_6.1.2\lvgl/src/lv_hal/../lv_misc/lv_color.h ****         return 0xFFFF;
 352:..\..\..\lvgl\version_6.1.2\lvgl/src/lv_hal/../lv_misc/lv_color.h **** #elif LV_COLOR_DEPTH == 8
 353:..\..\..\lvgl\version_6.1.2\lvgl/src/lv_hal/../lv_misc/lv_color.h ****     lv_color16_t ret;
 354:..\..\..\lvgl\version_6.1.2\lvgl/src/lv_hal/../lv_misc/lv_color.h ****     LV_COLOR_SET_R16(ret, LV_COLOR_GET_R(color) * 4);     /*(2^5 - 1)/(2^3 - 1) = 31/7 = 4*/
 355:..\..\..\lvgl\version_6.1.2\lvgl/src/lv_hal/../lv_misc/lv_color.h **** #if LV_COLOR_16_SWAP == 0
 356:..\..\..\lvgl\version_6.1.2\lvgl/src/lv_hal/../lv_misc/lv_color.h ****     LV_COLOR_SET_G16(ret,  LV_COLOR_GET_G(color) * 9); /*(2^6 - 1)/(2^3 - 1) = 63/7 = 9*/
 357:..\..\..\lvgl\version_6.1.2\lvgl/src/lv_hal/../lv_misc/lv_color.h **** #else
 358:..\..\..\lvgl\version_6.1.2\lvgl/src/lv_hal/../lv_misc/lv_color.h ****     LV_COLOR_SET_G16_SWAP(ret, (LV_COLOR_GET_G(color) * 9)); /*(2^6 - 1)/(2^3 - 1) = 63/7 = 9*/
 359:..\..\..\lvgl\version_6.1.2\lvgl/src/lv_hal/../lv_misc/lv_color.h **** #endif
 360:..\..\..\lvgl\version_6.1.2\lvgl/src/lv_hal/../lv_misc/lv_color.h ****     LV_COLOR_SET_B16(ret, LV_COLOR_GET_B(color) * 10);  /*(2^5 - 1)/(2^2 - 1) = 31/3 = 10*/
 361:..\..\..\lvgl\version_6.1.2\lvgl/src/lv_hal/../lv_misc/lv_color.h ****     return ret.full;
 362:..\..\..\lvgl\version_6.1.2\lvgl/src/lv_hal/../lv_misc/lv_color.h **** #elif LV_COLOR_DEPTH == 16
 363:..\..\..\lvgl\version_6.1.2\lvgl/src/lv_hal/../lv_misc/lv_color.h ****     return color.full;
 364:..\..\..\lvgl\version_6.1.2\lvgl/src/lv_hal/../lv_misc/lv_color.h **** #elif LV_COLOR_DEPTH == 32
 365:..\..\..\lvgl\version_6.1.2\lvgl/src/lv_hal/../lv_misc/lv_color.h ****     lv_color16_t ret;
 366:..\..\..\lvgl\version_6.1.2\lvgl/src/lv_hal/../lv_misc/lv_color.h ****     LV_COLOR_SET_R16(ret, LV_COLOR_GET_R(color) >> 3);   /* 8 - 5  = 3*/
 367:..\..\..\lvgl\version_6.1.2\lvgl/src/lv_hal/../lv_misc/lv_color.h **** 
 368:..\..\..\lvgl\version_6.1.2\lvgl/src/lv_hal/../lv_misc/lv_color.h **** #if LV_COLOR_16_SWAP == 0
 369:..\..\..\lvgl\version_6.1.2\lvgl/src/lv_hal/../lv_misc/lv_color.h ****     LV_COLOR_SET_G16(ret, LV_COLOR_GET_G(color) >> 2); /* 8 - 6  = 2*/
 370:..\..\..\lvgl\version_6.1.2\lvgl/src/lv_hal/../lv_misc/lv_color.h **** #else
 371:..\..\..\lvgl\version_6.1.2\lvgl/src/lv_hal/../lv_misc/lv_color.h ****     LV_COLOR_SET_G16_SWAP(ret, ret.ch.green_h = (LV_COLOR_GET_G(color) >> 2); /*(2^6 - 1)/(2^3 - 1)
 372:..\..\..\lvgl\version_6.1.2\lvgl/src/lv_hal/../lv_misc/lv_color.h **** #endif
ARM GAS  C:\Users\tmj32\AppData\Local\Temp\cco3Klhe.s 			page 8


 373:..\..\..\lvgl\version_6.1.2\lvgl/src/lv_hal/../lv_misc/lv_color.h ****     LV_COLOR_SET_B16(ret, LV_COLOR_GET_B(color) >> 3);  /* 8 - 5  = 3*/
 374:..\..\..\lvgl\version_6.1.2\lvgl/src/lv_hal/../lv_misc/lv_color.h ****     return ret.full;
 375:..\..\..\lvgl\version_6.1.2\lvgl/src/lv_hal/../lv_misc/lv_color.h **** #endif                         
 376:..\..\..\lvgl\version_6.1.2\lvgl/src/lv_hal/../lv_misc/lv_color.h **** }
 377:..\..\..\lvgl\version_6.1.2\lvgl/src/lv_hal/../lv_misc/lv_color.h **** 
 378:..\..\..\lvgl\version_6.1.2\lvgl/src/lv_hal/../lv_misc/lv_color.h **** static inline uint32_t lv_color_to32(lv_color_t color)
 379:..\..\..\lvgl\version_6.1.2\lvgl/src/lv_hal/../lv_misc/lv_color.h **** {
 380:..\..\..\lvgl\version_6.1.2\lvgl/src/lv_hal/../lv_misc/lv_color.h **** #if LV_COLOR_DEPTH == 1
 381:..\..\..\lvgl\version_6.1.2\lvgl/src/lv_hal/../lv_misc/lv_color.h ****     if(color.full == 0)
 382:..\..\..\lvgl\version_6.1.2\lvgl/src/lv_hal/../lv_misc/lv_color.h ****         return 0;
 383:..\..\..\lvgl\version_6.1.2\lvgl/src/lv_hal/../lv_misc/lv_color.h ****     else
 384:..\..\..\lvgl\version_6.1.2\lvgl/src/lv_hal/../lv_misc/lv_color.h ****         return 0xFFFFFFFF;
 385:..\..\..\lvgl\version_6.1.2\lvgl/src/lv_hal/../lv_misc/lv_color.h **** #elif LV_COLOR_DEPTH == 8
 386:..\..\..\lvgl\version_6.1.2\lvgl/src/lv_hal/../lv_misc/lv_color.h ****     lv_color32_t ret;
 387:..\..\..\lvgl\version_6.1.2\lvgl/src/lv_hal/../lv_misc/lv_color.h ****     LV_COLOR_SET_R32(ret, LV_COLOR_GET_R(color) * 36);     /*(2^8 - 1)/(2^3 - 1) = 255/7 = 36*/
 388:..\..\..\lvgl\version_6.1.2\lvgl/src/lv_hal/../lv_misc/lv_color.h ****     LV_COLOR_SET_G32(ret, LV_COLOR_GET_G(color) * 36); /*(2^8 - 1)/(2^3 - 1) = 255/7 = 36*/
 389:..\..\..\lvgl\version_6.1.2\lvgl/src/lv_hal/../lv_misc/lv_color.h ****     LV_COLOR_SET_B32(ret, LV_COLOR_GET_B(color) * 85);   /*(2^8 - 1)/(2^2 - 1) = 255/3 = 85*/
 390:..\..\..\lvgl\version_6.1.2\lvgl/src/lv_hal/../lv_misc/lv_color.h ****     LV_COLOR_SET_A32(ret, 0xFF);
 391:..\..\..\lvgl\version_6.1.2\lvgl/src/lv_hal/../lv_misc/lv_color.h ****     return ret.full;
 392:..\..\..\lvgl\version_6.1.2\lvgl/src/lv_hal/../lv_misc/lv_color.h **** #elif LV_COLOR_DEPTH == 16
 393:..\..\..\lvgl\version_6.1.2\lvgl/src/lv_hal/../lv_misc/lv_color.h ****     /**
 394:..\..\..\lvgl\version_6.1.2\lvgl/src/lv_hal/../lv_misc/lv_color.h ****      * The floating point math for conversion is:
 395:..\..\..\lvgl\version_6.1.2\lvgl/src/lv_hal/../lv_misc/lv_color.h ****      *  valueto = valuefrom * ( (2^bitsto - 1) / (float)(2^bitsfrom - 1) )
 396:..\..\..\lvgl\version_6.1.2\lvgl/src/lv_hal/../lv_misc/lv_color.h ****      * The faster integer math for conversion is:
 397:..\..\..\lvgl\version_6.1.2\lvgl/src/lv_hal/../lv_misc/lv_color.h ****      *  valueto = ( valuefrom * multiplier + adder ) >> divisor
 398:..\..\..\lvgl\version_6.1.2\lvgl/src/lv_hal/../lv_misc/lv_color.h ****      *   multiplier = FLOOR( ( (2^bitsto - 1) << divisor ) / (float)(2^bitsfrom - 1) )
 399:..\..\..\lvgl\version_6.1.2\lvgl/src/lv_hal/../lv_misc/lv_color.h ****      * 
 400:..\..\..\lvgl\version_6.1.2\lvgl/src/lv_hal/../lv_misc/lv_color.h ****      * Find the first divisor where ( adder >> divisor ) <= 0
 401:..\..\..\lvgl\version_6.1.2\lvgl/src/lv_hal/../lv_misc/lv_color.h ****      * 
 402:..\..\..\lvgl\version_6.1.2\lvgl/src/lv_hal/../lv_misc/lv_color.h ****      * 5-bit to 8-bit: ( 31 * multiplier + adder ) >> divisor = 255
 403:..\..\..\lvgl\version_6.1.2\lvgl/src/lv_hal/../lv_misc/lv_color.h ****      * divisor  multiplier  adder  min (0)  max (31)
 404:..\..\..\lvgl\version_6.1.2\lvgl/src/lv_hal/../lv_misc/lv_color.h ****      *       0           8      7        7       255
 405:..\..\..\lvgl\version_6.1.2\lvgl/src/lv_hal/../lv_misc/lv_color.h ****      *       1          16     14        7       255
 406:..\..\..\lvgl\version_6.1.2\lvgl/src/lv_hal/../lv_misc/lv_color.h ****      *       2          32     28        7       255
 407:..\..\..\lvgl\version_6.1.2\lvgl/src/lv_hal/../lv_misc/lv_color.h ****      *       3          65     25        3       255
 408:..\..\..\lvgl\version_6.1.2\lvgl/src/lv_hal/../lv_misc/lv_color.h ****      *       4         131     19        1       255
 409:..\..\..\lvgl\version_6.1.2\lvgl/src/lv_hal/../lv_misc/lv_color.h ****      *       5         263      7        0       255
 410:..\..\..\lvgl\version_6.1.2\lvgl/src/lv_hal/../lv_misc/lv_color.h ****      * 
 411:..\..\..\lvgl\version_6.1.2\lvgl/src/lv_hal/../lv_misc/lv_color.h ****      * 6-bit to 8-bit: 255 = ( 63 * multiplier + adder ) >> divisor
 412:..\..\..\lvgl\version_6.1.2\lvgl/src/lv_hal/../lv_misc/lv_color.h ****      * divisor  multiplier  adder  min (0)  max (63)
 413:..\..\..\lvgl\version_6.1.2\lvgl/src/lv_hal/../lv_misc/lv_color.h ****      *       0           4      3        3       255
 414:..\..\..\lvgl\version_6.1.2\lvgl/src/lv_hal/../lv_misc/lv_color.h ****      *       1           8      6        3       255
 415:..\..\..\lvgl\version_6.1.2\lvgl/src/lv_hal/../lv_misc/lv_color.h ****      *       2          16     12        3       255
 416:..\..\..\lvgl\version_6.1.2\lvgl/src/lv_hal/../lv_misc/lv_color.h ****      *       3          32     24        3       255
 417:..\..\..\lvgl\version_6.1.2\lvgl/src/lv_hal/../lv_misc/lv_color.h ****      *       4          64     48        3       255
 418:..\..\..\lvgl\version_6.1.2\lvgl/src/lv_hal/../lv_misc/lv_color.h ****      *       5         129     33        1       255
 419:..\..\..\lvgl\version_6.1.2\lvgl/src/lv_hal/../lv_misc/lv_color.h ****      *       6         259      3        0       255
 420:..\..\..\lvgl\version_6.1.2\lvgl/src/lv_hal/../lv_misc/lv_color.h ****      */
 421:..\..\..\lvgl\version_6.1.2\lvgl/src/lv_hal/../lv_misc/lv_color.h ****     lv_color32_t ret;
 422:..\..\..\lvgl\version_6.1.2\lvgl/src/lv_hal/../lv_misc/lv_color.h ****     LV_COLOR_SET_R32(ret, (LV_COLOR_GET_R(color) * 263 + 7 ) >> 5);
 423:..\..\..\lvgl\version_6.1.2\lvgl/src/lv_hal/../lv_misc/lv_color.h ****     LV_COLOR_SET_G32(ret, (LV_COLOR_GET_G(color) * 259 + 3 ) >> 6);
 424:..\..\..\lvgl\version_6.1.2\lvgl/src/lv_hal/../lv_misc/lv_color.h ****     LV_COLOR_SET_B32(ret, (LV_COLOR_GET_B(color) * 263 + 7 ) >> 5);
 425:..\..\..\lvgl\version_6.1.2\lvgl/src/lv_hal/../lv_misc/lv_color.h ****     LV_COLOR_SET_A32(ret, 0xFF);
 426:..\..\..\lvgl\version_6.1.2\lvgl/src/lv_hal/../lv_misc/lv_color.h ****     return ret.full;
 427:..\..\..\lvgl\version_6.1.2\lvgl/src/lv_hal/../lv_misc/lv_color.h **** #elif LV_COLOR_DEPTH == 32
 428:..\..\..\lvgl\version_6.1.2\lvgl/src/lv_hal/../lv_misc/lv_color.h ****     return color.full;
 429:..\..\..\lvgl\version_6.1.2\lvgl/src/lv_hal/../lv_misc/lv_color.h **** #endif
ARM GAS  C:\Users\tmj32\AppData\Local\Temp\cco3Klhe.s 			page 9


 430:..\..\..\lvgl\version_6.1.2\lvgl/src/lv_hal/../lv_misc/lv_color.h **** }
 431:..\..\..\lvgl\version_6.1.2\lvgl/src/lv_hal/../lv_misc/lv_color.h **** 
 432:..\..\..\lvgl\version_6.1.2\lvgl/src/lv_hal/../lv_misc/lv_color.h **** static inline lv_color_t lv_color_mix(lv_color_t c1, lv_color_t c2, uint8_t mix)
 433:..\..\..\lvgl\version_6.1.2\lvgl/src/lv_hal/../lv_misc/lv_color.h **** {
 434:..\..\..\lvgl\version_6.1.2\lvgl/src/lv_hal/../lv_misc/lv_color.h ****     lv_color_t ret;
 435:..\..\..\lvgl\version_6.1.2\lvgl/src/lv_hal/../lv_misc/lv_color.h **** #if LV_COLOR_DEPTH != 1
 436:..\..\..\lvgl\version_6.1.2\lvgl/src/lv_hal/../lv_misc/lv_color.h ****     /*LV_COLOR_DEPTH == 8, 16 or 32*/
 437:..\..\..\lvgl\version_6.1.2\lvgl/src/lv_hal/../lv_misc/lv_color.h ****     LV_COLOR_SET_R(ret, (uint16_t)((uint16_t) LV_COLOR_GET_R(c1) * mix + LV_COLOR_GET_R(c2) * (255 
 438:..\..\..\lvgl\version_6.1.2\lvgl/src/lv_hal/../lv_misc/lv_color.h ****     LV_COLOR_SET_G(ret, (uint16_t)((uint16_t) LV_COLOR_GET_G(c1) * mix + LV_COLOR_GET_G(c2) * (255 
 439:..\..\..\lvgl\version_6.1.2\lvgl/src/lv_hal/../lv_misc/lv_color.h ****     LV_COLOR_SET_B(ret, (uint16_t)((uint16_t) LV_COLOR_GET_B(c1) * mix + LV_COLOR_GET_B(c2) * (255 
 440:..\..\..\lvgl\version_6.1.2\lvgl/src/lv_hal/../lv_misc/lv_color.h ****     LV_COLOR_SET_A(ret, 0xFF);
 441:..\..\..\lvgl\version_6.1.2\lvgl/src/lv_hal/../lv_misc/lv_color.h **** #else
 442:..\..\..\lvgl\version_6.1.2\lvgl/src/lv_hal/../lv_misc/lv_color.h ****     /*LV_COLOR_DEPTH == 1*/
 443:..\..\..\lvgl\version_6.1.2\lvgl/src/lv_hal/../lv_misc/lv_color.h ****     ret.full = mix > LV_OPA_50 ? c1.full : c2.full;
 444:..\..\..\lvgl\version_6.1.2\lvgl/src/lv_hal/../lv_misc/lv_color.h **** #endif
 445:..\..\..\lvgl\version_6.1.2\lvgl/src/lv_hal/../lv_misc/lv_color.h **** 
 446:..\..\..\lvgl\version_6.1.2\lvgl/src/lv_hal/../lv_misc/lv_color.h ****     return ret;
 447:..\..\..\lvgl\version_6.1.2\lvgl/src/lv_hal/../lv_misc/lv_color.h **** }
 448:..\..\..\lvgl\version_6.1.2\lvgl/src/lv_hal/../lv_misc/lv_color.h **** 
 449:..\..\..\lvgl\version_6.1.2\lvgl/src/lv_hal/../lv_misc/lv_color.h **** /**
 450:..\..\..\lvgl\version_6.1.2\lvgl/src/lv_hal/../lv_misc/lv_color.h ****  * Get the brightness of a color
 451:..\..\..\lvgl\version_6.1.2\lvgl/src/lv_hal/../lv_misc/lv_color.h ****  * @param color a color
 452:..\..\..\lvgl\version_6.1.2\lvgl/src/lv_hal/../lv_misc/lv_color.h ****  * @return the brightness [0..255]
 453:..\..\..\lvgl\version_6.1.2\lvgl/src/lv_hal/../lv_misc/lv_color.h ****  */
 454:..\..\..\lvgl\version_6.1.2\lvgl/src/lv_hal/../lv_misc/lv_color.h **** static inline uint8_t lv_color_brightness(lv_color_t color)
 455:..\..\..\lvgl\version_6.1.2\lvgl/src/lv_hal/../lv_misc/lv_color.h **** {
 456:..\..\..\lvgl\version_6.1.2\lvgl/src/lv_hal/../lv_misc/lv_color.h ****     lv_color32_t c32;
 457:..\..\..\lvgl\version_6.1.2\lvgl/src/lv_hal/../lv_misc/lv_color.h ****     c32.full        = lv_color_to32(color);
 458:..\..\..\lvgl\version_6.1.2\lvgl/src/lv_hal/../lv_misc/lv_color.h ****     uint16_t bright = (uint16_t)(3u * LV_COLOR_GET_R32(c32) + LV_COLOR_GET_B32(c32) + 4u * LV_COLOR
 459:..\..\..\lvgl\version_6.1.2\lvgl/src/lv_hal/../lv_misc/lv_color.h ****     return (uint8_t)(bright >> 3);
 460:..\..\..\lvgl\version_6.1.2\lvgl/src/lv_hal/../lv_misc/lv_color.h **** }
 461:..\..\..\lvgl\version_6.1.2\lvgl/src/lv_hal/../lv_misc/lv_color.h **** 
 462:..\..\..\lvgl\version_6.1.2\lvgl/src/lv_hal/../lv_misc/lv_color.h **** /* The most simple macro to create a color from R,G and B values */
 463:..\..\..\lvgl\version_6.1.2\lvgl/src/lv_hal/../lv_misc/lv_color.h **** #if LV_COLOR_DEPTH == 1
 464:..\..\..\lvgl\version_6.1.2\lvgl/src/lv_hal/../lv_misc/lv_color.h **** #define LV_COLOR_MAKE(r8, g8, b8) ((lv_color_t){.full = (uint8_t)((b8 >> 7) | (g8 >> 7) | (r8 >> 7)
 465:..\..\..\lvgl\version_6.1.2\lvgl/src/lv_hal/../lv_misc/lv_color.h **** #elif LV_COLOR_DEPTH == 8
 466:..\..\..\lvgl\version_6.1.2\lvgl/src/lv_hal/../lv_misc/lv_color.h **** #define LV_COLOR_MAKE(r8, g8, b8) ((lv_color_t){{(uint8_t)((b8 >> 6) & 0x3U), (uint8_t)((g8 >> 5) &
 467:..\..\..\lvgl\version_6.1.2\lvgl/src/lv_hal/../lv_misc/lv_color.h **** #elif LV_COLOR_DEPTH == 16
 468:..\..\..\lvgl\version_6.1.2\lvgl/src/lv_hal/../lv_misc/lv_color.h **** #if LV_COLOR_16_SWAP == 0
 469:..\..\..\lvgl\version_6.1.2\lvgl/src/lv_hal/../lv_misc/lv_color.h **** #define LV_COLOR_MAKE(r8, g8, b8) ((lv_color_t){{(uint16_t)((b8 >> 3) & 0x1FU), (uint16_t)((g8 >> 2
 470:..\..\..\lvgl\version_6.1.2\lvgl/src/lv_hal/../lv_misc/lv_color.h **** #else
 471:..\..\..\lvgl\version_6.1.2\lvgl/src/lv_hal/../lv_misc/lv_color.h **** #define LV_COLOR_MAKE(r8, g8, b8) ((lv_color_t){{(uint16_t)((g8 >> 5) & 0x7U), (uint16_t)((r8 >> 3)
 472:..\..\..\lvgl\version_6.1.2\lvgl/src/lv_hal/../lv_misc/lv_color.h **** #endif
 473:..\..\..\lvgl\version_6.1.2\lvgl/src/lv_hal/../lv_misc/lv_color.h **** #elif LV_COLOR_DEPTH == 32
 474:..\..\..\lvgl\version_6.1.2\lvgl/src/lv_hal/../lv_misc/lv_color.h **** #define LV_COLOR_MAKE(r8, g8, b8) ((lv_color_t){{b8, g8, r8, 0xff}}) /*Fix 0xff alpha*/
 475:..\..\..\lvgl\version_6.1.2\lvgl/src/lv_hal/../lv_misc/lv_color.h **** #endif
 476:..\..\..\lvgl\version_6.1.2\lvgl/src/lv_hal/../lv_misc/lv_color.h **** 
 477:..\..\..\lvgl\version_6.1.2\lvgl/src/lv_hal/../lv_misc/lv_color.h **** static inline lv_color_t lv_color_make(uint8_t r, uint8_t g, uint8_t b)
 478:..\..\..\lvgl\version_6.1.2\lvgl/src/lv_hal/../lv_misc/lv_color.h **** {
  28              		.loc 1 478 0
  29              		.cfi_startproc
  30              		@ args = 0, pretend = 0, frame = 8
  31              		@ frame_needed = 1, uses_anonymous_args = 0
  32              		@ link register save eliminated.
  33 0000 90B4     		push	{r4, r7}
  34              		.cfi_def_cfa_offset 8
  35              		.cfi_offset 4, -8
ARM GAS  C:\Users\tmj32\AppData\Local\Temp\cco3Klhe.s 			page 10


  36              		.cfi_offset 7, -4
  37 0002 82B0     		sub	sp, sp, #8
  38              		.cfi_def_cfa_offset 16
  39 0004 00AF     		add	r7, sp, #0
  40              		.cfi_def_cfa_register 7
  41 0006 0446     		mov	r4, r0
  42 0008 0846     		mov	r0, r1
  43 000a 1146     		mov	r1, r2
  44 000c 2246     		mov	r2, r4
  45 000e FA71     		strb	r2, [r7, #7]
  46 0010 0246     		mov	r2, r0
  47 0012 BA71     		strb	r2, [r7, #6]
  48 0014 0A46     		mov	r2, r1
  49 0016 7A71     		strb	r2, [r7, #5]
 479:..\..\..\lvgl\version_6.1.2\lvgl/src/lv_hal/../lv_misc/lv_color.h ****     return LV_COLOR_MAKE(r, g, b);
  50              		.loc 1 479 0
  51 0018 7A79     		ldrb	r2, [r7, #5]
  52 001a 62F30703 		bfi	r3, r2, #0, #8
  53 001e BA79     		ldrb	r2, [r7, #6]
  54 0020 62F30F23 		bfi	r3, r2, #8, #8
  55 0024 FA79     		ldrb	r2, [r7, #7]
  56 0026 62F31743 		bfi	r3, r2, #16, #8
  57 002a 43F07F43 		orr	r3, r3, #-16777216
 480:..\..\..\lvgl\version_6.1.2\lvgl/src/lv_hal/../lv_misc/lv_color.h **** }
  58              		.loc 1 480 0
  59 002e 1846     		mov	r0, r3
  60 0030 0837     		adds	r7, r7, #8
  61              		.cfi_def_cfa_offset 8
  62 0032 BD46     		mov	sp, r7
  63              		.cfi_def_cfa_register 13
  64              		@ sp needed
  65 0034 90BC     		pop	{r4, r7}
  66              		.cfi_restore 7
  67              		.cfi_restore 4
  68              		.cfi_def_cfa_offset 0
  69 0036 7047     		bx	lr
  70              		.cfi_endproc
  71              	.LFE588:
  72              		.size	lv_color_make, .-lv_color_make
  73              		.section	.text.lv_color_hex,"ax",%progbits
  74              		.align	2
  75              		.thumb
  76              		.thumb_func
  77              		.type	lv_color_hex, %function
  78              	lv_color_hex:
  79              	.LFB589:
 481:..\..\..\lvgl\version_6.1.2\lvgl/src/lv_hal/../lv_misc/lv_color.h **** 
 482:..\..\..\lvgl\version_6.1.2\lvgl/src/lv_hal/../lv_misc/lv_color.h **** static inline lv_color_t lv_color_hex(uint32_t c)
 483:..\..\..\lvgl\version_6.1.2\lvgl/src/lv_hal/../lv_misc/lv_color.h **** {
  80              		.loc 1 483 0
  81              		.cfi_startproc
  82              		@ args = 0, pretend = 0, frame = 8
  83              		@ frame_needed = 1, uses_anonymous_args = 0
  84 0000 80B5     		push	{r7, lr}
  85              		.cfi_def_cfa_offset 8
  86              		.cfi_offset 7, -8
  87              		.cfi_offset 14, -4
ARM GAS  C:\Users\tmj32\AppData\Local\Temp\cco3Klhe.s 			page 11


  88 0002 82B0     		sub	sp, sp, #8
  89              		.cfi_def_cfa_offset 16
  90 0004 00AF     		add	r7, sp, #0
  91              		.cfi_def_cfa_register 7
  92 0006 7860     		str	r0, [r7, #4]
 484:..\..\..\lvgl\version_6.1.2\lvgl/src/lv_hal/../lv_misc/lv_color.h ****     return lv_color_make((uint8_t)((c >> 16) & 0xFF), (uint8_t)((c >> 8) & 0xFF), (uint8_t)(c & 0xF
  93              		.loc 1 484 0
  94 0008 7B68     		ldr	r3, [r7, #4]
  95 000a 1B0C     		lsrs	r3, r3, #16
  96 000c D8B2     		uxtb	r0, r3
  97 000e 7B68     		ldr	r3, [r7, #4]
  98 0010 1B0A     		lsrs	r3, r3, #8
  99 0012 DBB2     		uxtb	r3, r3
 100 0014 7A68     		ldr	r2, [r7, #4]
 101 0016 D2B2     		uxtb	r2, r2
 102 0018 1946     		mov	r1, r3
 103 001a FFF7FEFF 		bl	lv_color_make
 104 001e 0346     		mov	r3, r0
 485:..\..\..\lvgl\version_6.1.2\lvgl/src/lv_hal/../lv_misc/lv_color.h **** }
 105              		.loc 1 485 0
 106 0020 1846     		mov	r0, r3
 107 0022 0837     		adds	r7, r7, #8
 108              		.cfi_def_cfa_offset 8
 109 0024 BD46     		mov	sp, r7
 110              		.cfi_def_cfa_register 13
 111              		@ sp needed
 112 0026 80BD     		pop	{r7, pc}
 113              		.cfi_endproc
 114              	.LFE589:
 115              		.size	lv_color_hex, .-lv_color_hex
 116              		.section	.text.lv_scr_act,"ax",%progbits
 117              		.align	2
 118              		.thumb
 119              		.thumb_func
 120              		.type	lv_scr_act, %function
 121              	lv_scr_act:
 122              	.LFB613:
 123              		.file 2 "..\\..\\..\\lvgl\\version_6.1.2\\lvgl/src/lv_core/lv_disp.h"
   1:..\..\..\lvgl\version_6.1.2\lvgl/src/lv_core/lv_disp.h **** /**
   2:..\..\..\lvgl\version_6.1.2\lvgl/src/lv_core/lv_disp.h ****  * @file lv_disp.h
   3:..\..\..\lvgl\version_6.1.2\lvgl/src/lv_core/lv_disp.h ****  *
   4:..\..\..\lvgl\version_6.1.2\lvgl/src/lv_core/lv_disp.h ****  */
   5:..\..\..\lvgl\version_6.1.2\lvgl/src/lv_core/lv_disp.h **** 
   6:..\..\..\lvgl\version_6.1.2\lvgl/src/lv_core/lv_disp.h **** #ifndef LV_DISP_H
   7:..\..\..\lvgl\version_6.1.2\lvgl/src/lv_core/lv_disp.h **** #define LV_DISP_H
   8:..\..\..\lvgl\version_6.1.2\lvgl/src/lv_core/lv_disp.h **** 
   9:..\..\..\lvgl\version_6.1.2\lvgl/src/lv_core/lv_disp.h **** #ifdef __cplusplus
  10:..\..\..\lvgl\version_6.1.2\lvgl/src/lv_core/lv_disp.h **** extern "C" {
  11:..\..\..\lvgl\version_6.1.2\lvgl/src/lv_core/lv_disp.h **** #endif
  12:..\..\..\lvgl\version_6.1.2\lvgl/src/lv_core/lv_disp.h **** 
  13:..\..\..\lvgl\version_6.1.2\lvgl/src/lv_core/lv_disp.h **** /*********************
  14:..\..\..\lvgl\version_6.1.2\lvgl/src/lv_core/lv_disp.h ****  *      INCLUDES
  15:..\..\..\lvgl\version_6.1.2\lvgl/src/lv_core/lv_disp.h ****  *********************/
  16:..\..\..\lvgl\version_6.1.2\lvgl/src/lv_core/lv_disp.h **** #include "../lv_hal/lv_hal.h"
  17:..\..\..\lvgl\version_6.1.2\lvgl/src/lv_core/lv_disp.h **** #include "lv_obj.h"
  18:..\..\..\lvgl\version_6.1.2\lvgl/src/lv_core/lv_disp.h **** 
  19:..\..\..\lvgl\version_6.1.2\lvgl/src/lv_core/lv_disp.h **** /*********************
ARM GAS  C:\Users\tmj32\AppData\Local\Temp\cco3Klhe.s 			page 12


  20:..\..\..\lvgl\version_6.1.2\lvgl/src/lv_core/lv_disp.h ****  *      DEFINES
  21:..\..\..\lvgl\version_6.1.2\lvgl/src/lv_core/lv_disp.h ****  *********************/
  22:..\..\..\lvgl\version_6.1.2\lvgl/src/lv_core/lv_disp.h **** 
  23:..\..\..\lvgl\version_6.1.2\lvgl/src/lv_core/lv_disp.h **** /**********************
  24:..\..\..\lvgl\version_6.1.2\lvgl/src/lv_core/lv_disp.h ****  *      TYPEDEFS
  25:..\..\..\lvgl\version_6.1.2\lvgl/src/lv_core/lv_disp.h ****  **********************/
  26:..\..\..\lvgl\version_6.1.2\lvgl/src/lv_core/lv_disp.h **** 
  27:..\..\..\lvgl\version_6.1.2\lvgl/src/lv_core/lv_disp.h **** /**********************
  28:..\..\..\lvgl\version_6.1.2\lvgl/src/lv_core/lv_disp.h ****  * GLOBAL PROTOTYPES
  29:..\..\..\lvgl\version_6.1.2\lvgl/src/lv_core/lv_disp.h ****  **********************/
  30:..\..\..\lvgl\version_6.1.2\lvgl/src/lv_core/lv_disp.h **** 
  31:..\..\..\lvgl\version_6.1.2\lvgl/src/lv_core/lv_disp.h **** /**
  32:..\..\..\lvgl\version_6.1.2\lvgl/src/lv_core/lv_disp.h ****  * Return with a pointer to the active screen
  33:..\..\..\lvgl\version_6.1.2\lvgl/src/lv_core/lv_disp.h ****  * @param disp pointer to display which active screen should be get. (NULL to use the default
  34:..\..\..\lvgl\version_6.1.2\lvgl/src/lv_core/lv_disp.h ****  * screen)
  35:..\..\..\lvgl\version_6.1.2\lvgl/src/lv_core/lv_disp.h ****  * @return pointer to the active screen object (loaded by 'lv_scr_load()')
  36:..\..\..\lvgl\version_6.1.2\lvgl/src/lv_core/lv_disp.h ****  */
  37:..\..\..\lvgl\version_6.1.2\lvgl/src/lv_core/lv_disp.h **** lv_obj_t * lv_disp_get_scr_act(lv_disp_t * disp);
  38:..\..\..\lvgl\version_6.1.2\lvgl/src/lv_core/lv_disp.h **** 
  39:..\..\..\lvgl\version_6.1.2\lvgl/src/lv_core/lv_disp.h **** /**
  40:..\..\..\lvgl\version_6.1.2\lvgl/src/lv_core/lv_disp.h ****  * Make a screen active
  41:..\..\..\lvgl\version_6.1.2\lvgl/src/lv_core/lv_disp.h ****  * @param scr pointer to a screen
  42:..\..\..\lvgl\version_6.1.2\lvgl/src/lv_core/lv_disp.h ****  */
  43:..\..\..\lvgl\version_6.1.2\lvgl/src/lv_core/lv_disp.h **** void lv_disp_load_scr(lv_obj_t * scr);
  44:..\..\..\lvgl\version_6.1.2\lvgl/src/lv_core/lv_disp.h **** 
  45:..\..\..\lvgl\version_6.1.2\lvgl/src/lv_core/lv_disp.h **** /**
  46:..\..\..\lvgl\version_6.1.2\lvgl/src/lv_core/lv_disp.h ****  * Return with the top layer. (Same on every screen and it is above the normal screen layer)
  47:..\..\..\lvgl\version_6.1.2\lvgl/src/lv_core/lv_disp.h ****  * @param disp pointer to display which top layer should be get. (NULL to use the default screen)
  48:..\..\..\lvgl\version_6.1.2\lvgl/src/lv_core/lv_disp.h ****  * @return pointer to the top layer object  (transparent screen sized lv_obj)
  49:..\..\..\lvgl\version_6.1.2\lvgl/src/lv_core/lv_disp.h ****  */
  50:..\..\..\lvgl\version_6.1.2\lvgl/src/lv_core/lv_disp.h **** lv_obj_t * lv_disp_get_layer_top(lv_disp_t * disp);
  51:..\..\..\lvgl\version_6.1.2\lvgl/src/lv_core/lv_disp.h **** 
  52:..\..\..\lvgl\version_6.1.2\lvgl/src/lv_core/lv_disp.h **** /**
  53:..\..\..\lvgl\version_6.1.2\lvgl/src/lv_core/lv_disp.h ****  * Return with the sys. layer. (Same on every screen and it is above the normal screen and the top
  54:..\..\..\lvgl\version_6.1.2\lvgl/src/lv_core/lv_disp.h ****  * layer)
  55:..\..\..\lvgl\version_6.1.2\lvgl/src/lv_core/lv_disp.h ****  * @param disp pointer to display which sys. layer  should be get. (NULL to use the default screen)
  56:..\..\..\lvgl\version_6.1.2\lvgl/src/lv_core/lv_disp.h ****  * @return pointer to the sys layer object  (transparent screen sized lv_obj)
  57:..\..\..\lvgl\version_6.1.2\lvgl/src/lv_core/lv_disp.h ****  */
  58:..\..\..\lvgl\version_6.1.2\lvgl/src/lv_core/lv_disp.h **** lv_obj_t * lv_disp_get_layer_sys(lv_disp_t * disp);
  59:..\..\..\lvgl\version_6.1.2\lvgl/src/lv_core/lv_disp.h **** 
  60:..\..\..\lvgl\version_6.1.2\lvgl/src/lv_core/lv_disp.h **** /**
  61:..\..\..\lvgl\version_6.1.2\lvgl/src/lv_core/lv_disp.h ****  * Assign a screen to a display.
  62:..\..\..\lvgl\version_6.1.2\lvgl/src/lv_core/lv_disp.h ****  * @param disp pointer to a display where to assign the screen
  63:..\..\..\lvgl\version_6.1.2\lvgl/src/lv_core/lv_disp.h ****  * @param scr pointer to a screen object to assign
  64:..\..\..\lvgl\version_6.1.2\lvgl/src/lv_core/lv_disp.h ****  */
  65:..\..\..\lvgl\version_6.1.2\lvgl/src/lv_core/lv_disp.h **** void lv_disp_assign_screen(lv_disp_t * disp, lv_obj_t * scr);
  66:..\..\..\lvgl\version_6.1.2\lvgl/src/lv_core/lv_disp.h **** 
  67:..\..\..\lvgl\version_6.1.2\lvgl/src/lv_core/lv_disp.h **** /**
  68:..\..\..\lvgl\version_6.1.2\lvgl/src/lv_core/lv_disp.h ****  * Get a pointer to the screen refresher task to
  69:..\..\..\lvgl\version_6.1.2\lvgl/src/lv_core/lv_disp.h ****  * modify its parameters with `lv_task_...` functions.
  70:..\..\..\lvgl\version_6.1.2\lvgl/src/lv_core/lv_disp.h ****  * @param disp pointer to a display
  71:..\..\..\lvgl\version_6.1.2\lvgl/src/lv_core/lv_disp.h ****  * @return pointer to the display refresher task. (NULL on error)
  72:..\..\..\lvgl\version_6.1.2\lvgl/src/lv_core/lv_disp.h ****  */
  73:..\..\..\lvgl\version_6.1.2\lvgl/src/lv_core/lv_disp.h **** lv_task_t * lv_disp_get_refr_task(lv_disp_t * disp);
  74:..\..\..\lvgl\version_6.1.2\lvgl/src/lv_core/lv_disp.h **** 
  75:..\..\..\lvgl\version_6.1.2\lvgl/src/lv_core/lv_disp.h **** /**
  76:..\..\..\lvgl\version_6.1.2\lvgl/src/lv_core/lv_disp.h ****  * Get elapsed time since last user activity on a display (e.g. click)
ARM GAS  C:\Users\tmj32\AppData\Local\Temp\cco3Klhe.s 			page 13


  77:..\..\..\lvgl\version_6.1.2\lvgl/src/lv_core/lv_disp.h ****  * @param disp pointer to an display (NULL to get the overall smallest inactivity)
  78:..\..\..\lvgl\version_6.1.2\lvgl/src/lv_core/lv_disp.h ****  * @return elapsed ticks (milliseconds) since the last activity
  79:..\..\..\lvgl\version_6.1.2\lvgl/src/lv_core/lv_disp.h ****  */
  80:..\..\..\lvgl\version_6.1.2\lvgl/src/lv_core/lv_disp.h **** uint32_t lv_disp_get_inactive_time(const lv_disp_t * disp);
  81:..\..\..\lvgl\version_6.1.2\lvgl/src/lv_core/lv_disp.h **** 
  82:..\..\..\lvgl\version_6.1.2\lvgl/src/lv_core/lv_disp.h **** /**
  83:..\..\..\lvgl\version_6.1.2\lvgl/src/lv_core/lv_disp.h ****  * Manually trigger an activity on a display
  84:..\..\..\lvgl\version_6.1.2\lvgl/src/lv_core/lv_disp.h ****  * @param disp pointer to an display (NULL to use the default display)
  85:..\..\..\lvgl\version_6.1.2\lvgl/src/lv_core/lv_disp.h ****  */
  86:..\..\..\lvgl\version_6.1.2\lvgl/src/lv_core/lv_disp.h **** void lv_disp_trig_activity(lv_disp_t * disp);
  87:..\..\..\lvgl\version_6.1.2\lvgl/src/lv_core/lv_disp.h **** 
  88:..\..\..\lvgl\version_6.1.2\lvgl/src/lv_core/lv_disp.h **** /*------------------------------------------------
  89:..\..\..\lvgl\version_6.1.2\lvgl/src/lv_core/lv_disp.h ****  * To improve backward compatibility
  90:..\..\..\lvgl\version_6.1.2\lvgl/src/lv_core/lv_disp.h ****  * Recommended only if you have one display
  91:..\..\..\lvgl\version_6.1.2\lvgl/src/lv_core/lv_disp.h ****  *------------------------------------------------*/
  92:..\..\..\lvgl\version_6.1.2\lvgl/src/lv_core/lv_disp.h **** 
  93:..\..\..\lvgl\version_6.1.2\lvgl/src/lv_core/lv_disp.h **** /**
  94:..\..\..\lvgl\version_6.1.2\lvgl/src/lv_core/lv_disp.h ****  * Get the active screen of the default display
  95:..\..\..\lvgl\version_6.1.2\lvgl/src/lv_core/lv_disp.h ****  * @return pointer to the active screen
  96:..\..\..\lvgl\version_6.1.2\lvgl/src/lv_core/lv_disp.h ****  */
  97:..\..\..\lvgl\version_6.1.2\lvgl/src/lv_core/lv_disp.h **** static inline lv_obj_t * lv_scr_act(void)
  98:..\..\..\lvgl\version_6.1.2\lvgl/src/lv_core/lv_disp.h **** {
 124              		.loc 2 98 0
 125              		.cfi_startproc
 126              		@ args = 0, pretend = 0, frame = 0
 127              		@ frame_needed = 1, uses_anonymous_args = 0
 128 0000 80B5     		push	{r7, lr}
 129              		.cfi_def_cfa_offset 8
 130              		.cfi_offset 7, -8
 131              		.cfi_offset 14, -4
 132 0002 00AF     		add	r7, sp, #0
 133              		.cfi_def_cfa_register 7
  99:..\..\..\lvgl\version_6.1.2\lvgl/src/lv_core/lv_disp.h ****     return lv_disp_get_scr_act(lv_disp_get_default());
 134              		.loc 2 99 0
 135 0004 FFF7FEFF 		bl	lv_disp_get_default
 136 0008 0346     		mov	r3, r0
 137 000a 1846     		mov	r0, r3
 138 000c FFF7FEFF 		bl	lv_disp_get_scr_act
 139 0010 0346     		mov	r3, r0
 100:..\..\..\lvgl\version_6.1.2\lvgl/src/lv_core/lv_disp.h **** }
 140              		.loc 2 100 0
 141 0012 1846     		mov	r0, r3
 142 0014 80BD     		pop	{r7, pc}
 143              		.cfi_endproc
 144              	.LFE613:
 145              		.size	lv_scr_act, .-lv_scr_act
 146 0016 00BF     		.section	.text.lv_slider_set_value,"ax",%progbits
 147              		.align	2
 148              		.thumb
 149              		.thumb_func
 150              		.type	lv_slider_set_value, %function
 151              	lv_slider_set_value:
 152              	.LFB668:
 153              		.file 3 "..\\..\\..\\lvgl\\version_6.1.2\\lvgl/src/lv_objx/lv_slider.h"
   1:..\..\..\lvgl\version_6.1.2\lvgl/src/lv_objx/lv_slider.h **** /**
   2:..\..\..\lvgl\version_6.1.2\lvgl/src/lv_objx/lv_slider.h ****  * @file lv_slider.h
   3:..\..\..\lvgl\version_6.1.2\lvgl/src/lv_objx/lv_slider.h ****  *
ARM GAS  C:\Users\tmj32\AppData\Local\Temp\cco3Klhe.s 			page 14


   4:..\..\..\lvgl\version_6.1.2\lvgl/src/lv_objx/lv_slider.h ****  */
   5:..\..\..\lvgl\version_6.1.2\lvgl/src/lv_objx/lv_slider.h **** 
   6:..\..\..\lvgl\version_6.1.2\lvgl/src/lv_objx/lv_slider.h **** #ifndef LV_SLIDER_H
   7:..\..\..\lvgl\version_6.1.2\lvgl/src/lv_objx/lv_slider.h **** #define LV_SLIDER_H
   8:..\..\..\lvgl\version_6.1.2\lvgl/src/lv_objx/lv_slider.h **** 
   9:..\..\..\lvgl\version_6.1.2\lvgl/src/lv_objx/lv_slider.h **** #ifdef __cplusplus
  10:..\..\..\lvgl\version_6.1.2\lvgl/src/lv_objx/lv_slider.h **** extern "C" {
  11:..\..\..\lvgl\version_6.1.2\lvgl/src/lv_objx/lv_slider.h **** #endif
  12:..\..\..\lvgl\version_6.1.2\lvgl/src/lv_objx/lv_slider.h **** 
  13:..\..\..\lvgl\version_6.1.2\lvgl/src/lv_objx/lv_slider.h **** /*********************
  14:..\..\..\lvgl\version_6.1.2\lvgl/src/lv_objx/lv_slider.h ****  *      INCLUDES
  15:..\..\..\lvgl\version_6.1.2\lvgl/src/lv_objx/lv_slider.h ****  *********************/
  16:..\..\..\lvgl\version_6.1.2\lvgl/src/lv_objx/lv_slider.h **** #ifdef LV_CONF_INCLUDE_SIMPLE
  17:..\..\..\lvgl\version_6.1.2\lvgl/src/lv_objx/lv_slider.h **** #include "lv_conf.h"
  18:..\..\..\lvgl\version_6.1.2\lvgl/src/lv_objx/lv_slider.h **** #else
  19:..\..\..\lvgl\version_6.1.2\lvgl/src/lv_objx/lv_slider.h **** #include "../../../lv_conf.h"
  20:..\..\..\lvgl\version_6.1.2\lvgl/src/lv_objx/lv_slider.h **** #endif
  21:..\..\..\lvgl\version_6.1.2\lvgl/src/lv_objx/lv_slider.h **** 
  22:..\..\..\lvgl\version_6.1.2\lvgl/src/lv_objx/lv_slider.h **** #if LV_USE_SLIDER != 0
  23:..\..\..\lvgl\version_6.1.2\lvgl/src/lv_objx/lv_slider.h **** 
  24:..\..\..\lvgl\version_6.1.2\lvgl/src/lv_objx/lv_slider.h **** /*Testing of dependencies*/
  25:..\..\..\lvgl\version_6.1.2\lvgl/src/lv_objx/lv_slider.h **** #if LV_USE_BAR == 0
  26:..\..\..\lvgl\version_6.1.2\lvgl/src/lv_objx/lv_slider.h **** #error "lv_slider: lv_bar is required. Enable it in lv_conf.h (LV_USE_BAR  1) "
  27:..\..\..\lvgl\version_6.1.2\lvgl/src/lv_objx/lv_slider.h **** #endif
  28:..\..\..\lvgl\version_6.1.2\lvgl/src/lv_objx/lv_slider.h **** 
  29:..\..\..\lvgl\version_6.1.2\lvgl/src/lv_objx/lv_slider.h **** #include "../lv_core/lv_obj.h"
  30:..\..\..\lvgl\version_6.1.2\lvgl/src/lv_objx/lv_slider.h **** #include "lv_bar.h"
  31:..\..\..\lvgl\version_6.1.2\lvgl/src/lv_objx/lv_slider.h **** 
  32:..\..\..\lvgl\version_6.1.2\lvgl/src/lv_objx/lv_slider.h **** /*********************
  33:..\..\..\lvgl\version_6.1.2\lvgl/src/lv_objx/lv_slider.h ****  *      DEFINES
  34:..\..\..\lvgl\version_6.1.2\lvgl/src/lv_objx/lv_slider.h ****  *********************/
  35:..\..\..\lvgl\version_6.1.2\lvgl/src/lv_objx/lv_slider.h **** 
  36:..\..\..\lvgl\version_6.1.2\lvgl/src/lv_objx/lv_slider.h **** /**********************
  37:..\..\..\lvgl\version_6.1.2\lvgl/src/lv_objx/lv_slider.h ****  *      TYPEDEFS
  38:..\..\..\lvgl\version_6.1.2\lvgl/src/lv_objx/lv_slider.h ****  **********************/
  39:..\..\..\lvgl\version_6.1.2\lvgl/src/lv_objx/lv_slider.h **** /*Data of slider*/
  40:..\..\..\lvgl\version_6.1.2\lvgl/src/lv_objx/lv_slider.h **** typedef struct
  41:..\..\..\lvgl\version_6.1.2\lvgl/src/lv_objx/lv_slider.h **** {
  42:..\..\..\lvgl\version_6.1.2\lvgl/src/lv_objx/lv_slider.h ****     lv_bar_ext_t bar; /*Ext. of ancestor*/
  43:..\..\..\lvgl\version_6.1.2\lvgl/src/lv_objx/lv_slider.h ****     /*New data for this type */
  44:..\..\..\lvgl\version_6.1.2\lvgl/src/lv_objx/lv_slider.h ****     const lv_style_t * style_knob; /*Style of the knob*/
  45:..\..\..\lvgl\version_6.1.2\lvgl/src/lv_objx/lv_slider.h ****     int16_t drag_value;            /*Store a temporal value during press until release (Handled by 
  46:..\..\..\lvgl\version_6.1.2\lvgl/src/lv_objx/lv_slider.h ****     uint8_t knob_in : 1;           /*1: Draw the knob inside the bar*/
  47:..\..\..\lvgl\version_6.1.2\lvgl/src/lv_objx/lv_slider.h **** } lv_slider_ext_t;
  48:..\..\..\lvgl\version_6.1.2\lvgl/src/lv_objx/lv_slider.h **** 
  49:..\..\..\lvgl\version_6.1.2\lvgl/src/lv_objx/lv_slider.h **** /** Built-in styles of slider*/
  50:..\..\..\lvgl\version_6.1.2\lvgl/src/lv_objx/lv_slider.h **** enum {
  51:..\..\..\lvgl\version_6.1.2\lvgl/src/lv_objx/lv_slider.h ****     LV_SLIDER_STYLE_BG, /** Slider background style. */
  52:..\..\..\lvgl\version_6.1.2\lvgl/src/lv_objx/lv_slider.h ****     LV_SLIDER_STYLE_INDIC, /** Slider indicator (filled area) style. */
  53:..\..\..\lvgl\version_6.1.2\lvgl/src/lv_objx/lv_slider.h ****     LV_SLIDER_STYLE_KNOB, /** Slider knob style. */
  54:..\..\..\lvgl\version_6.1.2\lvgl/src/lv_objx/lv_slider.h **** };
  55:..\..\..\lvgl\version_6.1.2\lvgl/src/lv_objx/lv_slider.h **** typedef uint8_t lv_slider_style_t;
  56:..\..\..\lvgl\version_6.1.2\lvgl/src/lv_objx/lv_slider.h **** 
  57:..\..\..\lvgl\version_6.1.2\lvgl/src/lv_objx/lv_slider.h **** /**********************
  58:..\..\..\lvgl\version_6.1.2\lvgl/src/lv_objx/lv_slider.h ****  * GLOBAL PROTOTYPES
  59:..\..\..\lvgl\version_6.1.2\lvgl/src/lv_objx/lv_slider.h ****  **********************/
  60:..\..\..\lvgl\version_6.1.2\lvgl/src/lv_objx/lv_slider.h **** 
ARM GAS  C:\Users\tmj32\AppData\Local\Temp\cco3Klhe.s 			page 15


  61:..\..\..\lvgl\version_6.1.2\lvgl/src/lv_objx/lv_slider.h **** /**
  62:..\..\..\lvgl\version_6.1.2\lvgl/src/lv_objx/lv_slider.h ****  * Create a slider objects
  63:..\..\..\lvgl\version_6.1.2\lvgl/src/lv_objx/lv_slider.h ****  * @param par pointer to an object, it will be the parent of the new slider
  64:..\..\..\lvgl\version_6.1.2\lvgl/src/lv_objx/lv_slider.h ****  * @param copy pointer to a slider object, if not NULL then the new object will be copied from it
  65:..\..\..\lvgl\version_6.1.2\lvgl/src/lv_objx/lv_slider.h ****  * @return pointer to the created slider
  66:..\..\..\lvgl\version_6.1.2\lvgl/src/lv_objx/lv_slider.h ****  */
  67:..\..\..\lvgl\version_6.1.2\lvgl/src/lv_objx/lv_slider.h **** lv_obj_t * lv_slider_create(lv_obj_t * par, const lv_obj_t * copy);
  68:..\..\..\lvgl\version_6.1.2\lvgl/src/lv_objx/lv_slider.h **** 
  69:..\..\..\lvgl\version_6.1.2\lvgl/src/lv_objx/lv_slider.h **** /*=====================
  70:..\..\..\lvgl\version_6.1.2\lvgl/src/lv_objx/lv_slider.h ****  * Setter functions
  71:..\..\..\lvgl\version_6.1.2\lvgl/src/lv_objx/lv_slider.h ****  *====================*/
  72:..\..\..\lvgl\version_6.1.2\lvgl/src/lv_objx/lv_slider.h **** 
  73:..\..\..\lvgl\version_6.1.2\lvgl/src/lv_objx/lv_slider.h **** /**
  74:..\..\..\lvgl\version_6.1.2\lvgl/src/lv_objx/lv_slider.h ****  * Set a new value on the slider
  75:..\..\..\lvgl\version_6.1.2\lvgl/src/lv_objx/lv_slider.h ****  * @param slider pointer to a slider object
  76:..\..\..\lvgl\version_6.1.2\lvgl/src/lv_objx/lv_slider.h ****  * @param value new value
  77:..\..\..\lvgl\version_6.1.2\lvgl/src/lv_objx/lv_slider.h ****  * @param anim LV_ANIM_ON: set the value with an animation; LV_ANIM_OFF: change the value immediate
  78:..\..\..\lvgl\version_6.1.2\lvgl/src/lv_objx/lv_slider.h ****  */
  79:..\..\..\lvgl\version_6.1.2\lvgl/src/lv_objx/lv_slider.h **** static inline void lv_slider_set_value(lv_obj_t * slider, int16_t value, lv_anim_enable_t anim)
  80:..\..\..\lvgl\version_6.1.2\lvgl/src/lv_objx/lv_slider.h **** {
 154              		.loc 3 80 0
 155              		.cfi_startproc
 156              		@ args = 0, pretend = 0, frame = 8
 157              		@ frame_needed = 1, uses_anonymous_args = 0
 158 0000 80B5     		push	{r7, lr}
 159              		.cfi_def_cfa_offset 8
 160              		.cfi_offset 7, -8
 161              		.cfi_offset 14, -4
 162 0002 82B0     		sub	sp, sp, #8
 163              		.cfi_def_cfa_offset 16
 164 0004 00AF     		add	r7, sp, #0
 165              		.cfi_def_cfa_register 7
 166 0006 7860     		str	r0, [r7, #4]
 167 0008 0B46     		mov	r3, r1
 168 000a 7B80     		strh	r3, [r7, #2]	@ movhi
 169 000c 1346     		mov	r3, r2
 170 000e 7B70     		strb	r3, [r7, #1]
  81:..\..\..\lvgl\version_6.1.2\lvgl/src/lv_objx/lv_slider.h ****     lv_bar_set_value(slider, value, anim);
 171              		.loc 3 81 0
 172 0010 7A78     		ldrb	r2, [r7, #1]	@ zero_extendqisi2
 173 0012 B7F90230 		ldrsh	r3, [r7, #2]
 174 0016 1946     		mov	r1, r3
 175 0018 7868     		ldr	r0, [r7, #4]
 176 001a FFF7FEFF 		bl	lv_bar_set_value
  82:..\..\..\lvgl\version_6.1.2\lvgl/src/lv_objx/lv_slider.h **** }
 177              		.loc 3 82 0
 178 001e 00BF     		nop
 179 0020 0837     		adds	r7, r7, #8
 180              		.cfi_def_cfa_offset 8
 181 0022 BD46     		mov	sp, r7
 182              		.cfi_def_cfa_register 13
 183              		@ sp needed
 184 0024 80BD     		pop	{r7, pc}
 185              		.cfi_endproc
 186              	.LFE668:
 187              		.size	lv_slider_set_value, .-lv_slider_set_value
 188 0026 00BF     		.section	.text.lv_slider_set_range,"ax",%progbits
ARM GAS  C:\Users\tmj32\AppData\Local\Temp\cco3Klhe.s 			page 16


 189              		.align	2
 190              		.thumb
 191              		.thumb_func
 192              		.type	lv_slider_set_range, %function
 193              	lv_slider_set_range:
 194              	.LFB669:
  83:..\..\..\lvgl\version_6.1.2\lvgl/src/lv_objx/lv_slider.h **** 
  84:..\..\..\lvgl\version_6.1.2\lvgl/src/lv_objx/lv_slider.h **** /**
  85:..\..\..\lvgl\version_6.1.2\lvgl/src/lv_objx/lv_slider.h ****  * Set minimum and the maximum values of a bar
  86:..\..\..\lvgl\version_6.1.2\lvgl/src/lv_objx/lv_slider.h ****  * @param slider pointer to the slider object
  87:..\..\..\lvgl\version_6.1.2\lvgl/src/lv_objx/lv_slider.h ****  * @param min minimum value
  88:..\..\..\lvgl\version_6.1.2\lvgl/src/lv_objx/lv_slider.h ****  * @param max maximum value
  89:..\..\..\lvgl\version_6.1.2\lvgl/src/lv_objx/lv_slider.h ****  */
  90:..\..\..\lvgl\version_6.1.2\lvgl/src/lv_objx/lv_slider.h **** static inline void lv_slider_set_range(lv_obj_t * slider, int16_t min, int16_t max)
  91:..\..\..\lvgl\version_6.1.2\lvgl/src/lv_objx/lv_slider.h **** {
 195              		.loc 3 91 0
 196              		.cfi_startproc
 197              		@ args = 0, pretend = 0, frame = 8
 198              		@ frame_needed = 1, uses_anonymous_args = 0
 199 0000 80B5     		push	{r7, lr}
 200              		.cfi_def_cfa_offset 8
 201              		.cfi_offset 7, -8
 202              		.cfi_offset 14, -4
 203 0002 82B0     		sub	sp, sp, #8
 204              		.cfi_def_cfa_offset 16
 205 0004 00AF     		add	r7, sp, #0
 206              		.cfi_def_cfa_register 7
 207 0006 7860     		str	r0, [r7, #4]
 208 0008 0B46     		mov	r3, r1
 209 000a 7B80     		strh	r3, [r7, #2]	@ movhi
 210 000c 1346     		mov	r3, r2	@ movhi
 211 000e 3B80     		strh	r3, [r7]	@ movhi
  92:..\..\..\lvgl\version_6.1.2\lvgl/src/lv_objx/lv_slider.h ****     lv_bar_set_range(slider, min, max);
 212              		.loc 3 92 0
 213 0010 B7F90020 		ldrsh	r2, [r7]
 214 0014 B7F90230 		ldrsh	r3, [r7, #2]
 215 0018 1946     		mov	r1, r3
 216 001a 7868     		ldr	r0, [r7, #4]
 217 001c FFF7FEFF 		bl	lv_bar_set_range
  93:..\..\..\lvgl\version_6.1.2\lvgl/src/lv_objx/lv_slider.h **** }
 218              		.loc 3 93 0
 219 0020 00BF     		nop
 220 0022 0837     		adds	r7, r7, #8
 221              		.cfi_def_cfa_offset 8
 222 0024 BD46     		mov	sp, r7
 223              		.cfi_def_cfa_register 13
 224              		@ sp needed
 225 0026 80BD     		pop	{r7, pc}
 226              		.cfi_endproc
 227              	.LFE669:
 228              		.size	lv_slider_set_range, .-lv_slider_set_range
 229              		.section	.text.lv_sw_get_state,"ax",%progbits
 230              		.align	2
 231              		.thumb
 232              		.thumb_func
 233              		.type	lv_sw_get_state, %function
 234              	lv_sw_get_state:
ARM GAS  C:\Users\tmj32\AppData\Local\Temp\cco3Klhe.s 			page 17


 235              	.LFB714:
 236              		.file 4 "..\\..\\..\\lvgl\\version_6.1.2\\lvgl/src/lv_objx/lv_sw.h"
   1:..\..\..\lvgl\version_6.1.2\lvgl/src/lv_objx/lv_sw.h **** /**
   2:..\..\..\lvgl\version_6.1.2\lvgl/src/lv_objx/lv_sw.h ****  * @file lv_sw.h
   3:..\..\..\lvgl\version_6.1.2\lvgl/src/lv_objx/lv_sw.h ****  *
   4:..\..\..\lvgl\version_6.1.2\lvgl/src/lv_objx/lv_sw.h ****  */
   5:..\..\..\lvgl\version_6.1.2\lvgl/src/lv_objx/lv_sw.h **** 
   6:..\..\..\lvgl\version_6.1.2\lvgl/src/lv_objx/lv_sw.h **** #ifndef LV_SW_H
   7:..\..\..\lvgl\version_6.1.2\lvgl/src/lv_objx/lv_sw.h **** #define LV_SW_H
   8:..\..\..\lvgl\version_6.1.2\lvgl/src/lv_objx/lv_sw.h **** 
   9:..\..\..\lvgl\version_6.1.2\lvgl/src/lv_objx/lv_sw.h **** #ifdef __cplusplus
  10:..\..\..\lvgl\version_6.1.2\lvgl/src/lv_objx/lv_sw.h **** extern "C" {
  11:..\..\..\lvgl\version_6.1.2\lvgl/src/lv_objx/lv_sw.h **** #endif
  12:..\..\..\lvgl\version_6.1.2\lvgl/src/lv_objx/lv_sw.h **** 
  13:..\..\..\lvgl\version_6.1.2\lvgl/src/lv_objx/lv_sw.h **** /*********************
  14:..\..\..\lvgl\version_6.1.2\lvgl/src/lv_objx/lv_sw.h ****  *      INCLUDES
  15:..\..\..\lvgl\version_6.1.2\lvgl/src/lv_objx/lv_sw.h ****  *********************/
  16:..\..\..\lvgl\version_6.1.2\lvgl/src/lv_objx/lv_sw.h **** #ifdef LV_CONF_INCLUDE_SIMPLE
  17:..\..\..\lvgl\version_6.1.2\lvgl/src/lv_objx/lv_sw.h **** #include "lv_conf.h"
  18:..\..\..\lvgl\version_6.1.2\lvgl/src/lv_objx/lv_sw.h **** #else
  19:..\..\..\lvgl\version_6.1.2\lvgl/src/lv_objx/lv_sw.h **** #include "../../../lv_conf.h"
  20:..\..\..\lvgl\version_6.1.2\lvgl/src/lv_objx/lv_sw.h **** #endif
  21:..\..\..\lvgl\version_6.1.2\lvgl/src/lv_objx/lv_sw.h **** 
  22:..\..\..\lvgl\version_6.1.2\lvgl/src/lv_objx/lv_sw.h **** #if LV_USE_SW != 0
  23:..\..\..\lvgl\version_6.1.2\lvgl/src/lv_objx/lv_sw.h **** 
  24:..\..\..\lvgl\version_6.1.2\lvgl/src/lv_objx/lv_sw.h **** /*Testing of dependencies*/
  25:..\..\..\lvgl\version_6.1.2\lvgl/src/lv_objx/lv_sw.h **** #if LV_USE_SLIDER == 0
  26:..\..\..\lvgl\version_6.1.2\lvgl/src/lv_objx/lv_sw.h **** #error "lv_sw: lv_slider is required. Enable it in lv_conf.h (LV_USE_SLIDER  1)"
  27:..\..\..\lvgl\version_6.1.2\lvgl/src/lv_objx/lv_sw.h **** #endif
  28:..\..\..\lvgl\version_6.1.2\lvgl/src/lv_objx/lv_sw.h **** 
  29:..\..\..\lvgl\version_6.1.2\lvgl/src/lv_objx/lv_sw.h **** #include "../lv_core/lv_obj.h"
  30:..\..\..\lvgl\version_6.1.2\lvgl/src/lv_objx/lv_sw.h **** #include "lv_slider.h"
  31:..\..\..\lvgl\version_6.1.2\lvgl/src/lv_objx/lv_sw.h **** 
  32:..\..\..\lvgl\version_6.1.2\lvgl/src/lv_objx/lv_sw.h **** /*********************
  33:..\..\..\lvgl\version_6.1.2\lvgl/src/lv_objx/lv_sw.h ****  *      DEFINES
  34:..\..\..\lvgl\version_6.1.2\lvgl/src/lv_objx/lv_sw.h ****  *********************/
  35:..\..\..\lvgl\version_6.1.2\lvgl/src/lv_objx/lv_sw.h **** #define LV_SW_MAX_VALUE 100
  36:..\..\..\lvgl\version_6.1.2\lvgl/src/lv_objx/lv_sw.h **** 
  37:..\..\..\lvgl\version_6.1.2\lvgl/src/lv_objx/lv_sw.h **** /**********************
  38:..\..\..\lvgl\version_6.1.2\lvgl/src/lv_objx/lv_sw.h ****  *      TYPEDEFS
  39:..\..\..\lvgl\version_6.1.2\lvgl/src/lv_objx/lv_sw.h ****  **********************/
  40:..\..\..\lvgl\version_6.1.2\lvgl/src/lv_objx/lv_sw.h **** /*Data of switch*/
  41:..\..\..\lvgl\version_6.1.2\lvgl/src/lv_objx/lv_sw.h **** typedef struct
  42:..\..\..\lvgl\version_6.1.2\lvgl/src/lv_objx/lv_sw.h **** {
  43:..\..\..\lvgl\version_6.1.2\lvgl/src/lv_objx/lv_sw.h ****     lv_slider_ext_t slider; /*Ext. of ancestor*/
  44:..\..\..\lvgl\version_6.1.2\lvgl/src/lv_objx/lv_sw.h ****     /*New data for this type */
  45:..\..\..\lvgl\version_6.1.2\lvgl/src/lv_objx/lv_sw.h ****     const lv_style_t * style_knob_off; /**< Style of the knob when the switch is OFF*/
  46:..\..\..\lvgl\version_6.1.2\lvgl/src/lv_objx/lv_sw.h ****     const lv_style_t * style_knob_on;  /**< Style of the knob when the switch is ON (NULL to use th
  47:..\..\..\lvgl\version_6.1.2\lvgl/src/lv_objx/lv_sw.h ****     lv_coord_t start_x;
  48:..\..\..\lvgl\version_6.1.2\lvgl/src/lv_objx/lv_sw.h ****     uint8_t changed : 1; /*Indicates the switch state explicitly changed by drag*/
  49:..\..\..\lvgl\version_6.1.2\lvgl/src/lv_objx/lv_sw.h ****     uint8_t slided : 1;
  50:..\..\..\lvgl\version_6.1.2\lvgl/src/lv_objx/lv_sw.h **** #if LV_USE_ANIMATION
  51:..\..\..\lvgl\version_6.1.2\lvgl/src/lv_objx/lv_sw.h ****     uint16_t anim_time; /*switch animation time */
  52:..\..\..\lvgl\version_6.1.2\lvgl/src/lv_objx/lv_sw.h **** #endif
  53:..\..\..\lvgl\version_6.1.2\lvgl/src/lv_objx/lv_sw.h **** } lv_sw_ext_t;
  54:..\..\..\lvgl\version_6.1.2\lvgl/src/lv_objx/lv_sw.h **** 
  55:..\..\..\lvgl\version_6.1.2\lvgl/src/lv_objx/lv_sw.h **** /**
ARM GAS  C:\Users\tmj32\AppData\Local\Temp\cco3Klhe.s 			page 18


  56:..\..\..\lvgl\version_6.1.2\lvgl/src/lv_objx/lv_sw.h ****  * Switch styles.
  57:..\..\..\lvgl\version_6.1.2\lvgl/src/lv_objx/lv_sw.h ****  */
  58:..\..\..\lvgl\version_6.1.2\lvgl/src/lv_objx/lv_sw.h **** enum {
  59:..\..\..\lvgl\version_6.1.2\lvgl/src/lv_objx/lv_sw.h ****     LV_SW_STYLE_BG, /**< Switch background. */
  60:..\..\..\lvgl\version_6.1.2\lvgl/src/lv_objx/lv_sw.h ****     LV_SW_STYLE_INDIC, /**< Switch fill area. */
  61:..\..\..\lvgl\version_6.1.2\lvgl/src/lv_objx/lv_sw.h ****     LV_SW_STYLE_KNOB_OFF, /**< Switch knob (when off). */
  62:..\..\..\lvgl\version_6.1.2\lvgl/src/lv_objx/lv_sw.h ****     LV_SW_STYLE_KNOB_ON, /**< Switch knob (when on). */
  63:..\..\..\lvgl\version_6.1.2\lvgl/src/lv_objx/lv_sw.h **** };
  64:..\..\..\lvgl\version_6.1.2\lvgl/src/lv_objx/lv_sw.h **** typedef uint8_t lv_sw_style_t;
  65:..\..\..\lvgl\version_6.1.2\lvgl/src/lv_objx/lv_sw.h **** 
  66:..\..\..\lvgl\version_6.1.2\lvgl/src/lv_objx/lv_sw.h **** /**********************
  67:..\..\..\lvgl\version_6.1.2\lvgl/src/lv_objx/lv_sw.h ****  * GLOBAL PROTOTYPES
  68:..\..\..\lvgl\version_6.1.2\lvgl/src/lv_objx/lv_sw.h ****  **********************/
  69:..\..\..\lvgl\version_6.1.2\lvgl/src/lv_objx/lv_sw.h **** 
  70:..\..\..\lvgl\version_6.1.2\lvgl/src/lv_objx/lv_sw.h **** /**
  71:..\..\..\lvgl\version_6.1.2\lvgl/src/lv_objx/lv_sw.h ****  * Create a switch objects
  72:..\..\..\lvgl\version_6.1.2\lvgl/src/lv_objx/lv_sw.h ****  * @param par pointer to an object, it will be the parent of the new switch
  73:..\..\..\lvgl\version_6.1.2\lvgl/src/lv_objx/lv_sw.h ****  * @param copy pointer to a switch object, if not NULL then the new object will be copied from it
  74:..\..\..\lvgl\version_6.1.2\lvgl/src/lv_objx/lv_sw.h ****  * @return pointer to the created switch
  75:..\..\..\lvgl\version_6.1.2\lvgl/src/lv_objx/lv_sw.h ****  */
  76:..\..\..\lvgl\version_6.1.2\lvgl/src/lv_objx/lv_sw.h **** lv_obj_t * lv_sw_create(lv_obj_t * par, const lv_obj_t * copy);
  77:..\..\..\lvgl\version_6.1.2\lvgl/src/lv_objx/lv_sw.h **** 
  78:..\..\..\lvgl\version_6.1.2\lvgl/src/lv_objx/lv_sw.h **** /*=====================
  79:..\..\..\lvgl\version_6.1.2\lvgl/src/lv_objx/lv_sw.h ****  * Setter functions
  80:..\..\..\lvgl\version_6.1.2\lvgl/src/lv_objx/lv_sw.h ****  *====================*/
  81:..\..\..\lvgl\version_6.1.2\lvgl/src/lv_objx/lv_sw.h **** 
  82:..\..\..\lvgl\version_6.1.2\lvgl/src/lv_objx/lv_sw.h **** /**
  83:..\..\..\lvgl\version_6.1.2\lvgl/src/lv_objx/lv_sw.h ****  * Turn ON the switch
  84:..\..\..\lvgl\version_6.1.2\lvgl/src/lv_objx/lv_sw.h ****  * @param sw pointer to a switch object
  85:..\..\..\lvgl\version_6.1.2\lvgl/src/lv_objx/lv_sw.h ****  * @param anim LV_ANIM_ON: set the value with an animation; LV_ANIM_OFF: change the value immediate
  86:..\..\..\lvgl\version_6.1.2\lvgl/src/lv_objx/lv_sw.h ****  */
  87:..\..\..\lvgl\version_6.1.2\lvgl/src/lv_objx/lv_sw.h **** void lv_sw_on(lv_obj_t * sw, lv_anim_enable_t anim);
  88:..\..\..\lvgl\version_6.1.2\lvgl/src/lv_objx/lv_sw.h **** 
  89:..\..\..\lvgl\version_6.1.2\lvgl/src/lv_objx/lv_sw.h **** /**
  90:..\..\..\lvgl\version_6.1.2\lvgl/src/lv_objx/lv_sw.h ****  * Turn OFF the switch
  91:..\..\..\lvgl\version_6.1.2\lvgl/src/lv_objx/lv_sw.h ****  * @param sw pointer to a switch object
  92:..\..\..\lvgl\version_6.1.2\lvgl/src/lv_objx/lv_sw.h ****  * @param anim LV_ANIM_ON: set the value with an animation; LV_ANIM_OFF: change the value immediate
  93:..\..\..\lvgl\version_6.1.2\lvgl/src/lv_objx/lv_sw.h ****  */
  94:..\..\..\lvgl\version_6.1.2\lvgl/src/lv_objx/lv_sw.h **** void lv_sw_off(lv_obj_t * sw, lv_anim_enable_t anim);
  95:..\..\..\lvgl\version_6.1.2\lvgl/src/lv_objx/lv_sw.h **** 
  96:..\..\..\lvgl\version_6.1.2\lvgl/src/lv_objx/lv_sw.h **** /**
  97:..\..\..\lvgl\version_6.1.2\lvgl/src/lv_objx/lv_sw.h ****  * Toggle the position of the switch
  98:..\..\..\lvgl\version_6.1.2\lvgl/src/lv_objx/lv_sw.h ****  * @param sw pointer to a switch object
  99:..\..\..\lvgl\version_6.1.2\lvgl/src/lv_objx/lv_sw.h ****  * @param anim LV_ANIM_ON: set the value with an animation; LV_ANIM_OFF: change the value immediate
 100:..\..\..\lvgl\version_6.1.2\lvgl/src/lv_objx/lv_sw.h ****  * @return resulting state of the switch.
 101:..\..\..\lvgl\version_6.1.2\lvgl/src/lv_objx/lv_sw.h ****  */
 102:..\..\..\lvgl\version_6.1.2\lvgl/src/lv_objx/lv_sw.h **** bool lv_sw_toggle(lv_obj_t * sw, lv_anim_enable_t anim);
 103:..\..\..\lvgl\version_6.1.2\lvgl/src/lv_objx/lv_sw.h **** 
 104:..\..\..\lvgl\version_6.1.2\lvgl/src/lv_objx/lv_sw.h **** /**
 105:..\..\..\lvgl\version_6.1.2\lvgl/src/lv_objx/lv_sw.h ****  * Set a style of a switch
 106:..\..\..\lvgl\version_6.1.2\lvgl/src/lv_objx/lv_sw.h ****  * @param sw pointer to a switch object
 107:..\..\..\lvgl\version_6.1.2\lvgl/src/lv_objx/lv_sw.h ****  * @param type which style should be set
 108:..\..\..\lvgl\version_6.1.2\lvgl/src/lv_objx/lv_sw.h ****  * @param style pointer to a style
 109:..\..\..\lvgl\version_6.1.2\lvgl/src/lv_objx/lv_sw.h ****  */
 110:..\..\..\lvgl\version_6.1.2\lvgl/src/lv_objx/lv_sw.h **** void lv_sw_set_style(lv_obj_t * sw, lv_sw_style_t type, const lv_style_t * style);
 111:..\..\..\lvgl\version_6.1.2\lvgl/src/lv_objx/lv_sw.h **** 
 112:..\..\..\lvgl\version_6.1.2\lvgl/src/lv_objx/lv_sw.h **** /**
ARM GAS  C:\Users\tmj32\AppData\Local\Temp\cco3Klhe.s 			page 19


 113:..\..\..\lvgl\version_6.1.2\lvgl/src/lv_objx/lv_sw.h ****  * Set the animation time of the switch
 114:..\..\..\lvgl\version_6.1.2\lvgl/src/lv_objx/lv_sw.h ****  * @param sw pointer to a  switch object
 115:..\..\..\lvgl\version_6.1.2\lvgl/src/lv_objx/lv_sw.h ****  * @param anim_time animation time
 116:..\..\..\lvgl\version_6.1.2\lvgl/src/lv_objx/lv_sw.h ****  * @return style pointer to a style
 117:..\..\..\lvgl\version_6.1.2\lvgl/src/lv_objx/lv_sw.h ****  */
 118:..\..\..\lvgl\version_6.1.2\lvgl/src/lv_objx/lv_sw.h **** void lv_sw_set_anim_time(lv_obj_t * sw, uint16_t anim_time);
 119:..\..\..\lvgl\version_6.1.2\lvgl/src/lv_objx/lv_sw.h **** 
 120:..\..\..\lvgl\version_6.1.2\lvgl/src/lv_objx/lv_sw.h **** /*=====================
 121:..\..\..\lvgl\version_6.1.2\lvgl/src/lv_objx/lv_sw.h ****  * Getter functions
 122:..\..\..\lvgl\version_6.1.2\lvgl/src/lv_objx/lv_sw.h ****  *====================*/
 123:..\..\..\lvgl\version_6.1.2\lvgl/src/lv_objx/lv_sw.h **** 
 124:..\..\..\lvgl\version_6.1.2\lvgl/src/lv_objx/lv_sw.h **** /**
 125:..\..\..\lvgl\version_6.1.2\lvgl/src/lv_objx/lv_sw.h ****  * Get the state of a switch
 126:..\..\..\lvgl\version_6.1.2\lvgl/src/lv_objx/lv_sw.h ****  * @param sw pointer to a switch object
 127:..\..\..\lvgl\version_6.1.2\lvgl/src/lv_objx/lv_sw.h ****  * @return false: OFF; true: ON
 128:..\..\..\lvgl\version_6.1.2\lvgl/src/lv_objx/lv_sw.h ****  */
 129:..\..\..\lvgl\version_6.1.2\lvgl/src/lv_objx/lv_sw.h **** static inline bool lv_sw_get_state(const lv_obj_t * sw)
 130:..\..\..\lvgl\version_6.1.2\lvgl/src/lv_objx/lv_sw.h **** {
 237              		.loc 4 130 0
 238              		.cfi_startproc
 239              		@ args = 0, pretend = 0, frame = 8
 240              		@ frame_needed = 1, uses_anonymous_args = 0
 241 0000 80B5     		push	{r7, lr}
 242              		.cfi_def_cfa_offset 8
 243              		.cfi_offset 7, -8
 244              		.cfi_offset 14, -4
 245 0002 82B0     		sub	sp, sp, #8
 246              		.cfi_def_cfa_offset 16
 247 0004 00AF     		add	r7, sp, #0
 248              		.cfi_def_cfa_register 7
 249 0006 7860     		str	r0, [r7, #4]
 131:..\..\..\lvgl\version_6.1.2\lvgl/src/lv_objx/lv_sw.h ****     return lv_bar_get_value(sw) < LV_SW_MAX_VALUE / 2 ? false : true;
 250              		.loc 4 131 0
 251 0008 7868     		ldr	r0, [r7, #4]
 252 000a FFF7FEFF 		bl	lv_bar_get_value
 253 000e 0346     		mov	r3, r0
 254 0010 312B     		cmp	r3, #49
 255 0012 CCBF     		ite	gt
 256 0014 0123     		movgt	r3, #1
 257 0016 0023     		movle	r3, #0
 258 0018 DBB2     		uxtb	r3, r3
 132:..\..\..\lvgl\version_6.1.2\lvgl/src/lv_objx/lv_sw.h **** }
 259              		.loc 4 132 0
 260 001a 1846     		mov	r0, r3
 261 001c 0837     		adds	r7, r7, #8
 262              		.cfi_def_cfa_offset 8
 263 001e BD46     		mov	sp, r7
 264              		.cfi_def_cfa_register 13
 265              		@ sp needed
 266 0020 80BD     		pop	{r7, pc}
 267              		.cfi_endproc
 268              	.LFE714:
 269              		.size	lv_sw_get_state, .-lv_sw_get_state
 270              		.global	tcnj_blue
 271 0022 00BF     		.section	.rodata
 272              		.align	2
 273              		.type	tcnj_blue, %object
ARM GAS  C:\Users\tmj32\AppData\Local\Temp\cco3Klhe.s 			page 20


 274              		.size	tcnj_blue, 3
 275              	tcnj_blue:
 276 0000 29       		.byte	41
 277 0001 3F       		.byte	63
 278 0002 6F       		.byte	111
 279              		.global	tcnj_gold
 280 0003 00       		.align	2
 281              		.type	tcnj_gold, %object
 282              		.size	tcnj_gold, 3
 283              	tcnj_gold:
 284 0004 A6       		.byte	-90
 285 0005 7A       		.byte	122
 286 0006 00       		.byte	0
 287              		.global	SPIflag
 288              		.bss
 289              		.align	2
 290              		.type	SPIflag, %object
 291              		.size	SPIflag, 4
 292              	SPIflag:
 293 0000 00000000 		.space	4
 294              		.section	.rodata
 295 0007 00       		.align	2
 296              	.LC1:
 297 0008 4F6E00   		.ascii	"On\000"
 298 000b 00       		.align	2
 299              	.LC2:
 300 000c 4F666600 		.ascii	"Off\000"
 301              		.align	2
 302              	.LC3:
 303 0010 53746174 		.ascii	"State: %s\012\000"
 303      653A2025 
 303      730A00
 304              		.section	.text.sw_event_handler,"ax",%progbits
 305              		.align	2
 306              		.thumb
 307              		.thumb_func
 308              		.type	sw_event_handler, %function
 309              	sw_event_handler:
 310              	.LFB717:
 311              		.file 5 "home_screen.c"
   1:home_screen.c **** #include <stdio.h>
   2:home_screen.c **** 
   3:home_screen.c **** #include "project.h"
   4:home_screen.c **** #include "lvgl.h"
   5:home_screen.c **** #include "home_screen.h"
   6:home_screen.c **** #include "breath_activity.h"
   7:home_screen.c **** #include "time_date_activity.h"
   8:home_screen.c **** #include "slider_activity.h"
   9:home_screen.c **** 
  10:home_screen.c **** //static lv_obj_t * slider_label;
  11:home_screen.c **** 
  12:home_screen.c **** const uint8_t tcnj_blue[] = { 41, 63, 111 };
  13:home_screen.c **** const uint8_t tcnj_gold[] = { 166, 122, 0 };
  14:home_screen.c **** 
  15:home_screen.c **** int SPIflag = 0;        //If you want to send a command, set the flag high
  16:home_screen.c **** 
  17:home_screen.c **** static void sw_event_handler(lv_obj_t * obj, lv_event_t event)
ARM GAS  C:\Users\tmj32\AppData\Local\Temp\cco3Klhe.s 			page 21


  18:home_screen.c **** {
 312              		.loc 5 18 0
 313              		.cfi_startproc
 314              		@ args = 0, pretend = 0, frame = 8
 315              		@ frame_needed = 1, uses_anonymous_args = 0
 316 0000 80B5     		push	{r7, lr}
 317              		.cfi_def_cfa_offset 8
 318              		.cfi_offset 7, -8
 319              		.cfi_offset 14, -4
 320 0002 82B0     		sub	sp, sp, #8
 321              		.cfi_def_cfa_offset 16
 322 0004 00AF     		add	r7, sp, #0
 323              		.cfi_def_cfa_register 7
 324 0006 7860     		str	r0, [r7, #4]
 325 0008 0B46     		mov	r3, r1
 326 000a FB70     		strb	r3, [r7, #3]
  19:home_screen.c ****     if(event == LV_EVENT_CLICKED) {
 327              		.loc 5 19 0
 328 000c FB78     		ldrb	r3, [r7, #3]	@ zero_extendqisi2
 329 000e 062B     		cmp	r3, #6
 330 0010 16D1     		bne	.L15
  20:home_screen.c ****         printf("State: %s\n", lv_sw_get_state(obj) ? "On" : "Off");
 331              		.loc 5 20 0
 332 0012 7868     		ldr	r0, [r7, #4]
 333 0014 FFF7FEFF 		bl	lv_sw_get_state
 334 0018 0346     		mov	r3, r0
 335 001a 002B     		cmp	r3, #0
 336 001c 01D0     		beq	.L13
 337              		.loc 5 20 0 is_stmt 0 discriminator 1
 338 001e 0A4B     		ldr	r3, .L16
 339 0020 00E0     		b	.L14
 340              	.L13:
 341              		.loc 5 20 0 discriminator 2
 342 0022 0A4B     		ldr	r3, .L16+4
 343              	.L14:
 344              		.loc 5 20 0 discriminator 4
 345 0024 1946     		mov	r1, r3
 346 0026 0A48     		ldr	r0, .L16+8
 347 0028 FFF7FEFF 		bl	printf
  21:home_screen.c ****         //lv_sw_toggle(obj, LV_ANIM_ON);
  22:home_screen.c ****         SPIflag = !SPIflag;
 348              		.loc 5 22 0 is_stmt 1 discriminator 4
 349 002c 094B     		ldr	r3, .L16+12
 350 002e 1B68     		ldr	r3, [r3]
 351 0030 002B     		cmp	r3, #0
 352 0032 0CBF     		ite	eq
 353 0034 0123     		moveq	r3, #1
 354 0036 0023     		movne	r3, #0
 355 0038 DBB2     		uxtb	r3, r3
 356 003a 1A46     		mov	r2, r3
 357 003c 054B     		ldr	r3, .L16+12
 358 003e 1A60     		str	r2, [r3]
 359              	.L15:
  23:home_screen.c ****     }
  24:home_screen.c **** }
 360              		.loc 5 24 0
 361 0040 00BF     		nop
ARM GAS  C:\Users\tmj32\AppData\Local\Temp\cco3Klhe.s 			page 22


 362 0042 0837     		adds	r7, r7, #8
 363              		.cfi_def_cfa_offset 8
 364 0044 BD46     		mov	sp, r7
 365              		.cfi_def_cfa_register 13
 366              		@ sp needed
 367 0046 80BD     		pop	{r7, pc}
 368              	.L17:
 369              		.align	2
 370              	.L16:
 371 0048 08000000 		.word	.LC1
 372 004c 0C000000 		.word	.LC2
 373 0050 10000000 		.word	.LC3
 374 0054 00000000 		.word	SPIflag
 375              		.cfi_endproc
 376              	.LFE717:
 377              		.size	sw_event_handler, .-sw_event_handler
 378              		.section	.rodata
 379 001b 00       		.align	2
 380              	.LC4:
 381 001c 257500   		.ascii	"%u\000"
 382              		.section	.text.slider_event_cb,"ax",%progbits
 383              		.align	2
 384              		.thumb
 385              		.thumb_func
 386              		.type	slider_event_cb, %function
 387              	slider_event_cb:
 388              	.LFB718:
  25:home_screen.c **** 
  26:home_screen.c **** static void slider_event_cb(lv_obj_t * slider, lv_event_t event)
  27:home_screen.c **** {
 389              		.loc 5 27 0
 390              		.cfi_startproc
 391              		@ args = 0, pretend = 0, frame = 8
 392              		@ frame_needed = 1, uses_anonymous_args = 0
 393 0000 80B5     		push	{r7, lr}
 394              		.cfi_def_cfa_offset 8
 395              		.cfi_offset 7, -8
 396              		.cfi_offset 14, -4
 397 0002 82B0     		sub	sp, sp, #8
 398              		.cfi_def_cfa_offset 16
 399 0004 00AF     		add	r7, sp, #0
 400              		.cfi_def_cfa_register 7
 401 0006 7860     		str	r0, [r7, #4]
 402 0008 0B46     		mov	r3, r1
 403 000a FB70     		strb	r3, [r7, #3]
  28:home_screen.c ****     if(event == LV_EVENT_VALUE_CHANGED) {
 404              		.loc 5 28 0
 405 000c FB78     		ldrb	r3, [r7, #3]	@ zero_extendqisi2
 406 000e 0E2B     		cmp	r3, #14
 407 0010 08D1     		bne	.L20
 408              	.LBB2:
  29:home_screen.c ****         static char buf[4]; /* max 3 bytes for number plus 1 null terminating byte */
  30:home_screen.c ****         snprintf(buf, 4, "%u", lv_slider_get_value(slider));
 409              		.loc 5 30 0
 410 0012 7868     		ldr	r0, [r7, #4]
 411 0014 FFF7FEFF 		bl	lv_slider_get_value
 412 0018 0346     		mov	r3, r0
ARM GAS  C:\Users\tmj32\AppData\Local\Temp\cco3Klhe.s 			page 23


 413 001a 044A     		ldr	r2, .L21
 414 001c 0421     		movs	r1, #4
 415 001e 0448     		ldr	r0, .L21+4
 416 0020 FFF7FEFF 		bl	snprintf
 417              	.L20:
 418              	.LBE2:
  31:home_screen.c ****         //lv_label_set_text(slider_label, buf);
  32:home_screen.c ****     }
  33:home_screen.c **** }
 419              		.loc 5 33 0
 420 0024 00BF     		nop
 421 0026 0837     		adds	r7, r7, #8
 422              		.cfi_def_cfa_offset 8
 423 0028 BD46     		mov	sp, r7
 424              		.cfi_def_cfa_register 13
 425              		@ sp needed
 426 002a 80BD     		pop	{r7, pc}
 427              	.L22:
 428              		.align	2
 429              	.L21:
 430 002c 1C000000 		.word	.LC4
 431 0030 04000000 		.word	buf.20322
 432              		.cfi_endproc
 433              	.LFE718:
 434              		.size	slider_event_cb, .-slider_event_cb
 435              		.section	.rodata
 436 001f 00       		.align	2
 437              	.LC6:
 438 0020 3000     		.ascii	"0\000"
 439 0022 0000     		.align	2
 440              	.LC7:
 441 0024 4F666673 		.ascii	"Offset\000"
 441      657400
 442 002b 00       		.align	2
 443              	.LC8:
 444 002c 4761696E 		.ascii	"Gain\000"
 444      00
 445 0031 000000   		.align	2
 446              	.LC9:
 447 0034 486F7269 		.ascii	"Hori. Scale\000"
 447      2E205363 
 447      616C6500 
 448              		.align	2
 449              	.LC10:
 450 0040 56657274 		.ascii	"Vert. Scale\000"
 450      2E205363 
 450      616C6500 
 451              		.align	2
 452              	.LC5:
 453 004c 30303030 		.ascii	"0000000000000000\000"
 453      30303030 
 453      30303030 
 453      30303030 
 453      00
 454 005d 000000   		.align	2
 455              	.LC0:
 456 0060 19000000 		.word	25
ARM GAS  C:\Users\tmj32\AppData\Local\Temp\cco3Klhe.s 			page 24


 457 0064 32000000 		.word	50
 458 0068 4B000000 		.word	75
 459 006c 32000000 		.word	50
 460 0070 19000000 		.word	25
 461 0074 32000000 		.word	50
 462 0078 4B000000 		.word	75
 463 007c 32000000 		.word	50
 464              		.section	.text.home_screen,"ax",%progbits
 465              		.align	2
 466              		.global	home_screen
 467              		.thumb
 468              		.thumb_func
 469              		.type	home_screen, %function
 470              	home_screen:
 471              	.LFB719:
  34:home_screen.c **** 
  35:home_screen.c **** 
  36:home_screen.c **** void home_screen()
  37:home_screen.c **** {
 472              		.loc 5 37 0
 473              		.cfi_startproc
 474              		@ args = 0, pretend = 0, frame = 152
 475              		@ frame_needed = 1, uses_anonymous_args = 0
 476 0000 B0B5     		push	{r4, r5, r7, lr}
 477              		.cfi_def_cfa_offset 16
 478              		.cfi_offset 4, -16
 479              		.cfi_offset 5, -12
 480              		.cfi_offset 7, -8
 481              		.cfi_offset 14, -4
 482 0002 A8B0     		sub	sp, sp, #160
 483              		.cfi_def_cfa_offset 176
 484 0004 02AF     		add	r7, sp, #8
 485              		.cfi_def_cfa 7, 168
  38:home_screen.c ****     const int chart_width = 280;
 486              		.loc 5 38 0
 487 0006 4FF48C73 		mov	r3, #280
 488 000a C7F89030 		str	r3, [r7, #144]
  39:home_screen.c ****     const int chart_heigth = 200;
 489              		.loc 5 39 0
 490 000e C823     		movs	r3, #200
 491 0010 C7F88C30 		str	r3, [r7, #140]
  40:home_screen.c ****     const int chart_vertPos = 20;
 492              		.loc 5 40 0
 493 0014 1423     		movs	r3, #20
 494 0016 C7F88830 		str	r3, [r7, #136]
  41:home_screen.c ****     const int chart_horiPos = 20;      
 495              		.loc 5 41 0
 496 001a 1423     		movs	r3, #20
 497 001c C7F88430 		str	r3, [r7, #132]
  42:home_screen.c ****     
  43:home_screen.c ****     char read_test[] = "0000000000000000";
 498              		.loc 5 43 0
 499 0020 CB4B     		ldr	r3, .L26
 500 0022 07F12C04 		add	r4, r7, #44
 501 0026 1D46     		mov	r5, r3
 502 0028 0FCD     		ldmia	r5!, {r0, r1, r2, r3}
 503 002a 0FC4     		stmia	r4!, {r0, r1, r2, r3}
ARM GAS  C:\Users\tmj32\AppData\Local\Temp\cco3Klhe.s 			page 25


 504 002c 2B68     		ldr	r3, [r5]
 505 002e 2370     		strb	r3, [r4]
  44:home_screen.c ****     
  45:home_screen.c ****     static lv_obj_t *my_label;
  46:home_screen.c ****     static lv_style_t *lbl_style;
  47:home_screen.c ****     
  48:home_screen.c ****     static lv_obj_t *chart1;        //declaring the chart
  49:home_screen.c ****     
  50:home_screen.c **** 
  51:home_screen.c ****     
  52:home_screen.c ****     
  53:home_screen.c ****     // SPI TEST CODE //
  54:home_screen.c ****    
  55:home_screen.c ****     //uunt16 because of the command size
  56:home_screen.c ****     //uint16_t txBuffer[BUFFER_SIZE];
  57:home_screen.c ****     uint16_t txBuffer[3];
  58:home_screen.c ****     uint8_t RxBuffer[3];
  59:home_screen.c ****     //int SPIflag = 0;        //If you want to send a command, set the flag high
  60:home_screen.c ****     int readArray_SIZE = 16;
 506              		.loc 5 60 0
 507 0030 1023     		movs	r3, #16
 508 0032 C7F88030 		str	r3, [r7, #128]
  61:home_screen.c ****     
  62:home_screen.c ****     /* Initialize txBuffer with command to transfer */
  63:home_screen.c ****     //txBuffer[0] = CMD_START_TRANSFER;
  64:home_screen.c ****     RxBuffer[0] = 0b11111111; //Junk value 100 01001 11111111
 509              		.loc 5 64 0
 510 0036 FF23     		movs	r3, #255
 511 0038 87F82030 		strb	r3, [r7, #32]
  65:home_screen.c ****     txBuffer[0] = 0b0100010000000000; //010 00100 1111111 command to write 11111111 to reg 4
 512              		.loc 5 65 0
 513 003c 4FF48843 		mov	r3, #17408
 514 0040 BB84     		strh	r3, [r7, #36]	@ movhi
  66:home_screen.c ****     //txBuffer[1] = 0b0100010011111111; //010 00001 01010101 command to write 01010101 to reg 1
  67:home_screen.c ****     txBuffer[1] = 0b0010001100000000; //001 00011 00000000 command to read reg 4
 515              		.loc 5 67 0
 516 0042 4FF40C53 		mov	r3, #8960
 517 0046 FB84     		strh	r3, [r7, #38]	@ movhi
  68:home_screen.c ****     txBuffer[2] = 0b0010010011111111; //010 00001 01010101 command to read 01010101 to reg 1
 518              		.loc 5 68 0
 519 0048 42F2FF43 		movw	r3, #9471
 520 004c 3B85     		strh	r3, [r7, #40]	@ movhi
  69:home_screen.c ****     
  70:home_screen.c ****     // Command to be sent
  71:home_screen.c ****     //if(SPIflag){
  72:home_screen.c ****         /* Master: start a transfer. Slave: prepare for a transfer. */
  73:home_screen.c ****         //for(int i = 0; i < 1; ++i){
  74:home_screen.c ****         //    while(!(Cy_SCB_SPI_GetTxFifoStatus(SPIM_HW) & CY_SCB_SPI_TX_EMPTY)){}
  75:home_screen.c ****         //    Cy_SCB_SPI_Write(SPIM_HW, txBuffer[1]);
  76:home_screen.c **** 
  77:home_screen.c ****         //    CyDelay(1);
  78:home_screen.c **** 
  79:home_screen.c ****         //    while(!(Cy_SCB_SPI_GetRxFifoStatus(SPIM_HW) & CY_SCB_SPI_RX_NOT_EMPTY)){}
  80:home_screen.c ****         //    RxBuffer[0] = Cy_SCB_SPI_Read(SPIM_HW);
  81:home_screen.c ****         //}
  82:home_screen.c ****         //SPIflag = 0;
  83:home_screen.c ****     //}
ARM GAS  C:\Users\tmj32\AppData\Local\Temp\cco3Klhe.s 			page 26


  84:home_screen.c ****     //uint8_t spi_dat = RxBuffer[0];
  85:home_screen.c ****     //char my_str[256];
  86:home_screen.c ****     //sprintf(my_str, 'Received %02X', spi_dat);
  87:home_screen.c ****     /* Handle results of a transfer */    
  88:home_screen.c ****     
  89:home_screen.c ****     //Create a label to display the value read in
  90:home_screen.c ****     lv_obj_t* readLabel = lv_label_create(lv_scr_act(), NULL);
 521              		.loc 5 90 0
 522 004e FFF7FEFF 		bl	lv_scr_act
 523 0052 0346     		mov	r3, r0
 524 0054 0021     		movs	r1, #0
 525 0056 1846     		mov	r0, r3
 526 0058 FFF7FEFF 		bl	lv_label_create
 527 005c F867     		str	r0, [r7, #124]
  91:home_screen.c **** 	lv_obj_set_drag(readLabel, false);
 528              		.loc 5 91 0
 529 005e 0021     		movs	r1, #0
 530 0060 F86F     		ldr	r0, [r7, #124]
 531 0062 FFF7FEFF 		bl	lv_obj_set_drag
  92:home_screen.c **** 	//lv_label_set_text(readLabel, my_str);
  93:home_screen.c ****     lv_label_set_text(readLabel, read_test);
 532              		.loc 5 93 0
 533 0066 07F12C03 		add	r3, r7, #44
 534 006a 1946     		mov	r1, r3
 535 006c F86F     		ldr	r0, [r7, #124]
 536 006e FFF7FEFF 		bl	lv_label_set_text
  94:home_screen.c ****     lv_obj_set_pos(readLabel, 115, 430);                         /*Set its position*/
 537              		.loc 5 94 0
 538 0072 4FF4D772 		mov	r2, #430
 539 0076 7321     		movs	r1, #115
 540 0078 F86F     		ldr	r0, [r7, #124]
 541 007a FFF7FEFF 		bl	lv_obj_set_pos
  95:home_screen.c ****     
  96:home_screen.c ****    
  97:home_screen.c ****     // END SPI TEST CODE //
  98:home_screen.c ****     
  99:home_screen.c ****     
 100:home_screen.c ****     /*===========LEGACY CODE==============//
 101:home_screen.c ****     static lv_obj_t *btn1;
 102:home_screen.c ****     static lv_obj_t *btn2;
 103:home_screen.c ****     static lv_obj_t *btn3;
 104:home_screen.c ****     static lv_obj_t *btn4;
 105:home_screen.c ****     static lv_obj_t *btn_dat;
 106:home_screen.c ****     static lv_obj_t *btn_tim;
 107:home_screen.c ****     
 108:home_screen.c ****     static lv_style_t btn_style1;
 109:home_screen.c ****     static lv_style_t btn_style2;
 110:home_screen.c ****     static lv_style_t btn_style3;
 111:home_screen.c ****     static lv_style_t btn_style4;
 112:home_screen.c ****     static lv_style_t btn_style_tim_dat;
 113:home_screen.c ****     
 114:home_screen.c ****     static lv_obj_t *label1;
 115:home_screen.c ****     static lv_obj_t *label2;
 116:home_screen.c ****     static lv_obj_t *label3;
 117:home_screen.c ****     static lv_obj_t *label4;
 118:home_screen.c ****     
 119:home_screen.c ****     static lv_obj_t *label_dat;
ARM GAS  C:\Users\tmj32\AppData\Local\Temp\cco3Klhe.s 			page 27


 120:home_screen.c ****     static lv_obj_t *label_tim;
 121:home_screen.c ****      //=========END LEGACY CODE==========*/
 122:home_screen.c ****     
 123:home_screen.c ****     
 124:home_screen.c ****     //TRY A DROP DOWN LIST FOR SOME OF THESE
 125:home_screen.c ****     // https://docs.lvgl.io/v6/en/html/object-types/ddlist.html
 126:home_screen.c ****     
 127:home_screen.c ****     
 128:home_screen.c ****     //static lv_style_t style_test;
 129:home_screen.c ****     //style_test.text.font = &lv_font_roboto_22;
 130:home_screen.c ****     
 131:home_screen.c ****     //lbl_style = lv_label_get_style(my_label, LV_LABEL_STYLE_MAIN);
 132:home_screen.c ****     //lbl_style->text.color.full = 0x000000;
 133:home_screen.c ****     
 134:home_screen.c ****     /* First Slider: Offset */
 135:home_screen.c ****     lv_obj_t * offsetSlider = lv_slider_create(lv_scr_act(), NULL);
 542              		.loc 5 135 0
 543 007e FFF7FEFF 		bl	lv_scr_act
 544 0082 0346     		mov	r3, r0
 545 0084 0021     		movs	r1, #0
 546 0086 1846     		mov	r0, r3
 547 0088 FFF7FEFF 		bl	lv_slider_create
 548 008c B867     		str	r0, [r7, #120]
 136:home_screen.c ****     lv_obj_set_pos(offsetSlider, 20, 270);                         /*Set its position*/
 549              		.loc 5 136 0
 550 008e 4FF48772 		mov	r2, #270
 551 0092 1421     		movs	r1, #20
 552 0094 B86F     		ldr	r0, [r7, #120]
 553 0096 FFF7FEFF 		bl	lv_obj_set_pos
 137:home_screen.c ****     lv_obj_set_size(offsetSlider, 130, 35);                        /*Set its size*/
 554              		.loc 5 137 0
 555 009a 2322     		movs	r2, #35
 556 009c 8221     		movs	r1, #130
 557 009e B86F     		ldr	r0, [r7, #120]
 558 00a0 FFF7FEFF 		bl	lv_obj_set_size
 138:home_screen.c ****     lv_slider_set_value(offsetSlider, 50, LV_ANIM_ON);
 559              		.loc 5 138 0
 560 00a4 0122     		movs	r2, #1
 561 00a6 3221     		movs	r1, #50
 562 00a8 B86F     		ldr	r0, [r7, #120]
 563 00aa FFF7FEFF 		bl	lv_slider_set_value
 139:home_screen.c ****     lv_obj_set_event_cb(offsetSlider, slider_event_cb);
 564              		.loc 5 139 0
 565 00ae A949     		ldr	r1, .L26+4
 566 00b0 B86F     		ldr	r0, [r7, #120]
 567 00b2 FFF7FEFF 		bl	lv_obj_set_event_cb
 140:home_screen.c ****     lv_slider_set_range(offsetSlider, 0, 100);
 568              		.loc 5 140 0
 569 00b6 6422     		movs	r2, #100
 570 00b8 0021     		movs	r1, #0
 571 00ba B86F     		ldr	r0, [r7, #120]
 572 00bc FFF7FEFF 		bl	lv_slider_set_range
 141:home_screen.c ****     
 142:home_screen.c ****     /* Create a label below the slider */
 143:home_screen.c ****     lv_obj_t * offsetLabel = lv_label_create(lv_scr_act(), NULL);
 573              		.loc 5 143 0
 574 00c0 FFF7FEFF 		bl	lv_scr_act
ARM GAS  C:\Users\tmj32\AppData\Local\Temp\cco3Klhe.s 			page 28


 575 00c4 0346     		mov	r3, r0
 576 00c6 0021     		movs	r1, #0
 577 00c8 1846     		mov	r0, r3
 578 00ca FFF7FEFF 		bl	lv_label_create
 579 00ce 7867     		str	r0, [r7, #116]
 144:home_screen.c ****     lv_label_set_text(offsetLabel, "0");
 580              		.loc 5 144 0
 581 00d0 A149     		ldr	r1, .L26+8
 582 00d2 786F     		ldr	r0, [r7, #116]
 583 00d4 FFF7FEFF 		bl	lv_label_set_text
 145:home_screen.c ****     lv_obj_set_auto_realign(offsetLabel, true);
 584              		.loc 5 145 0
 585 00d8 0121     		movs	r1, #1
 586 00da 786F     		ldr	r0, [r7, #116]
 587 00dc FFF7FEFF 		bl	lv_obj_set_auto_realign
 146:home_screen.c ****     lv_obj_align(offsetLabel, offsetSlider, LV_ALIGN_OUT_BOTTOM_MID, 0, 0);
 588              		.loc 5 146 0
 589 00e0 0023     		movs	r3, #0
 590 00e2 0093     		str	r3, [sp]
 591 00e4 0023     		movs	r3, #0
 592 00e6 0D22     		movs	r2, #13
 593 00e8 B96F     		ldr	r1, [r7, #120]
 594 00ea 786F     		ldr	r0, [r7, #116]
 595 00ec FFF7FEFF 		bl	lv_obj_align
 147:home_screen.c ****     
 148:home_screen.c ****     /* Create a label above the slider */
 149:home_screen.c **** 	lv_obj_t* offsetLabel2 = lv_label_create(lv_scr_act(), NULL);
 596              		.loc 5 149 0
 597 00f0 FFF7FEFF 		bl	lv_scr_act
 598 00f4 0346     		mov	r3, r0
 599 00f6 0021     		movs	r1, #0
 600 00f8 1846     		mov	r0, r3
 601 00fa FFF7FEFF 		bl	lv_label_create
 602 00fe 3867     		str	r0, [r7, #112]
 150:home_screen.c **** 	lv_obj_set_drag(offsetLabel2, false);
 603              		.loc 5 150 0
 604 0100 0021     		movs	r1, #0
 605 0102 386F     		ldr	r0, [r7, #112]
 606 0104 FFF7FEFF 		bl	lv_obj_set_drag
 151:home_screen.c ****     lv_label_set_text(offsetLabel2, "Offset");
 607              		.loc 5 151 0
 608 0108 9449     		ldr	r1, .L26+12
 609 010a 386F     		ldr	r0, [r7, #112]
 610 010c FFF7FEFF 		bl	lv_label_set_text
 152:home_screen.c ****     lv_obj_set_pos(offsetLabel2, 20, 240);                         /*Set its position*/
 611              		.loc 5 152 0
 612 0110 F022     		movs	r2, #240
 613 0112 1421     		movs	r1, #20
 614 0114 386F     		ldr	r0, [r7, #112]
 615 0116 FFF7FEFF 		bl	lv_obj_set_pos
 153:home_screen.c ****     
 154:home_screen.c ****     
 155:home_screen.c ****     /* Second Slider: Gain */
 156:home_screen.c ****     lv_obj_t * gainSlider = lv_slider_create(lv_scr_act(), NULL);
 616              		.loc 5 156 0
 617 011a FFF7FEFF 		bl	lv_scr_act
 618 011e 0346     		mov	r3, r0
ARM GAS  C:\Users\tmj32\AppData\Local\Temp\cco3Klhe.s 			page 29


 619 0120 0021     		movs	r1, #0
 620 0122 1846     		mov	r0, r3
 621 0124 FFF7FEFF 		bl	lv_slider_create
 622 0128 F866     		str	r0, [r7, #108]
 157:home_screen.c ****     lv_obj_set_pos(gainSlider, 170, 270);                         /*Set its position*/
 623              		.loc 5 157 0
 624 012a 4FF48772 		mov	r2, #270
 625 012e AA21     		movs	r1, #170
 626 0130 F86E     		ldr	r0, [r7, #108]
 627 0132 FFF7FEFF 		bl	lv_obj_set_pos
 158:home_screen.c ****     lv_obj_set_size(gainSlider, 130, 35);                        /*Set its size*/
 628              		.loc 5 158 0
 629 0136 2322     		movs	r2, #35
 630 0138 8221     		movs	r1, #130
 631 013a F86E     		ldr	r0, [r7, #108]
 632 013c FFF7FEFF 		bl	lv_obj_set_size
 159:home_screen.c ****     lv_slider_set_value(gainSlider, 50, LV_ANIM_ON);
 633              		.loc 5 159 0
 634 0140 0122     		movs	r2, #1
 635 0142 3221     		movs	r1, #50
 636 0144 F86E     		ldr	r0, [r7, #108]
 637 0146 FFF7FEFF 		bl	lv_slider_set_value
 160:home_screen.c ****     lv_obj_set_event_cb(gainSlider, slider_event_cb);
 638              		.loc 5 160 0
 639 014a 8249     		ldr	r1, .L26+4
 640 014c F86E     		ldr	r0, [r7, #108]
 641 014e FFF7FEFF 		bl	lv_obj_set_event_cb
 161:home_screen.c ****     lv_slider_set_range(gainSlider, 0, 100);
 642              		.loc 5 161 0
 643 0152 6422     		movs	r2, #100
 644 0154 0021     		movs	r1, #0
 645 0156 F86E     		ldr	r0, [r7, #108]
 646 0158 FFF7FEFF 		bl	lv_slider_set_range
 162:home_screen.c ****     
 163:home_screen.c ****     /* Create a label below the slider */
 164:home_screen.c ****     lv_obj_t * gainLabel = lv_label_create(lv_scr_act(), NULL);
 647              		.loc 5 164 0
 648 015c FFF7FEFF 		bl	lv_scr_act
 649 0160 0346     		mov	r3, r0
 650 0162 0021     		movs	r1, #0
 651 0164 1846     		mov	r0, r3
 652 0166 FFF7FEFF 		bl	lv_label_create
 653 016a B866     		str	r0, [r7, #104]
 165:home_screen.c ****     lv_label_set_text(gainLabel, "0");
 654              		.loc 5 165 0
 655 016c 7A49     		ldr	r1, .L26+8
 656 016e B86E     		ldr	r0, [r7, #104]
 657 0170 FFF7FEFF 		bl	lv_label_set_text
 166:home_screen.c ****     lv_obj_set_auto_realign(gainLabel, true);
 658              		.loc 5 166 0
 659 0174 0121     		movs	r1, #1
 660 0176 B86E     		ldr	r0, [r7, #104]
 661 0178 FFF7FEFF 		bl	lv_obj_set_auto_realign
 167:home_screen.c ****     lv_obj_align(gainLabel, gainSlider, LV_ALIGN_OUT_BOTTOM_MID, 0, 0);
 662              		.loc 5 167 0
 663 017c 0023     		movs	r3, #0
 664 017e 0093     		str	r3, [sp]
ARM GAS  C:\Users\tmj32\AppData\Local\Temp\cco3Klhe.s 			page 30


 665 0180 0023     		movs	r3, #0
 666 0182 0D22     		movs	r2, #13
 667 0184 F96E     		ldr	r1, [r7, #108]
 668 0186 B86E     		ldr	r0, [r7, #104]
 669 0188 FFF7FEFF 		bl	lv_obj_align
 168:home_screen.c ****     
 169:home_screen.c **** 	lv_obj_t* gainLabel2 = lv_label_create(lv_scr_act(), NULL);
 670              		.loc 5 169 0
 671 018c FFF7FEFF 		bl	lv_scr_act
 672 0190 0346     		mov	r3, r0
 673 0192 0021     		movs	r1, #0
 674 0194 1846     		mov	r0, r3
 675 0196 FFF7FEFF 		bl	lv_label_create
 676 019a 7866     		str	r0, [r7, #100]
 170:home_screen.c **** 	lv_obj_set_drag(gainLabel2, false);
 677              		.loc 5 170 0
 678 019c 0021     		movs	r1, #0
 679 019e 786E     		ldr	r0, [r7, #100]
 680 01a0 FFF7FEFF 		bl	lv_obj_set_drag
 171:home_screen.c ****     lv_label_set_text(gainLabel2, "Gain");
 681              		.loc 5 171 0
 682 01a4 6E49     		ldr	r1, .L26+16
 683 01a6 786E     		ldr	r0, [r7, #100]
 684 01a8 FFF7FEFF 		bl	lv_label_set_text
 172:home_screen.c ****     lv_obj_set_pos(gainLabel2, 170, 240); 
 685              		.loc 5 172 0
 686 01ac F022     		movs	r2, #240
 687 01ae AA21     		movs	r1, #170
 688 01b0 786E     		ldr	r0, [r7, #100]
 689 01b2 FFF7FEFF 		bl	lv_obj_set_pos
 173:home_screen.c **** 
 174:home_screen.c ****     
 175:home_screen.c ****     /* Third Slider: Hori. Scale */
 176:home_screen.c ****     lv_obj_t * horiSlider = lv_slider_create(lv_scr_act(), NULL);
 690              		.loc 5 176 0
 691 01b6 FFF7FEFF 		bl	lv_scr_act
 692 01ba 0346     		mov	r3, r0
 693 01bc 0021     		movs	r1, #0
 694 01be 1846     		mov	r0, r3
 695 01c0 FFF7FEFF 		bl	lv_slider_create
 696 01c4 3866     		str	r0, [r7, #96]
 177:home_screen.c ****     lv_obj_set_pos(horiSlider, 20, 360);                         /*Set its position*/
 697              		.loc 5 177 0
 698 01c6 4FF4B472 		mov	r2, #360
 699 01ca 1421     		movs	r1, #20
 700 01cc 386E     		ldr	r0, [r7, #96]
 701 01ce FFF7FEFF 		bl	lv_obj_set_pos
 178:home_screen.c ****     lv_obj_set_size(horiSlider, 130, 35);                        /*Set its size*/
 702              		.loc 5 178 0
 703 01d2 2322     		movs	r2, #35
 704 01d4 8221     		movs	r1, #130
 705 01d6 386E     		ldr	r0, [r7, #96]
 706 01d8 FFF7FEFF 		bl	lv_obj_set_size
 179:home_screen.c ****     lv_slider_set_value(horiSlider, 50, LV_ANIM_ON);
 707              		.loc 5 179 0
 708 01dc 0122     		movs	r2, #1
 709 01de 3221     		movs	r1, #50
ARM GAS  C:\Users\tmj32\AppData\Local\Temp\cco3Klhe.s 			page 31


 710 01e0 386E     		ldr	r0, [r7, #96]
 711 01e2 FFF7FEFF 		bl	lv_slider_set_value
 180:home_screen.c ****     lv_obj_set_event_cb(horiSlider, slider_event_cb);
 712              		.loc 5 180 0
 713 01e6 5B49     		ldr	r1, .L26+4
 714 01e8 386E     		ldr	r0, [r7, #96]
 715 01ea FFF7FEFF 		bl	lv_obj_set_event_cb
 181:home_screen.c ****     lv_slider_set_range(horiSlider, 0, 100);
 716              		.loc 5 181 0
 717 01ee 6422     		movs	r2, #100
 718 01f0 0021     		movs	r1, #0
 719 01f2 386E     		ldr	r0, [r7, #96]
 720 01f4 FFF7FEFF 		bl	lv_slider_set_range
 182:home_screen.c ****     
 183:home_screen.c ****     /* Create a label below the slider */
 184:home_screen.c ****     lv_obj_t * horiLabel1 = lv_label_create(lv_scr_act(), NULL);
 721              		.loc 5 184 0
 722 01f8 FFF7FEFF 		bl	lv_scr_act
 723 01fc 0346     		mov	r3, r0
 724 01fe 0021     		movs	r1, #0
 725 0200 1846     		mov	r0, r3
 726 0202 FFF7FEFF 		bl	lv_label_create
 727 0206 F865     		str	r0, [r7, #92]
 185:home_screen.c ****     lv_label_set_text(horiLabel1, "0");
 728              		.loc 5 185 0
 729 0208 5349     		ldr	r1, .L26+8
 730 020a F86D     		ldr	r0, [r7, #92]
 731 020c FFF7FEFF 		bl	lv_label_set_text
 186:home_screen.c ****     lv_obj_set_auto_realign(horiLabel1, true);
 732              		.loc 5 186 0
 733 0210 0121     		movs	r1, #1
 734 0212 F86D     		ldr	r0, [r7, #92]
 735 0214 FFF7FEFF 		bl	lv_obj_set_auto_realign
 187:home_screen.c ****     lv_obj_align(horiLabel1, horiSlider, LV_ALIGN_OUT_BOTTOM_MID, 0, 0);
 736              		.loc 5 187 0
 737 0218 0023     		movs	r3, #0
 738 021a 0093     		str	r3, [sp]
 739 021c 0023     		movs	r3, #0
 740 021e 0D22     		movs	r2, #13
 741 0220 396E     		ldr	r1, [r7, #96]
 742 0222 F86D     		ldr	r0, [r7, #92]
 743 0224 FFF7FEFF 		bl	lv_obj_align
 188:home_screen.c ****     
 189:home_screen.c **** 	lv_obj_t* horiLabel2 = lv_label_create(lv_scr_act(), NULL);
 744              		.loc 5 189 0
 745 0228 FFF7FEFF 		bl	lv_scr_act
 746 022c 0346     		mov	r3, r0
 747 022e 0021     		movs	r1, #0
 748 0230 1846     		mov	r0, r3
 749 0232 FFF7FEFF 		bl	lv_label_create
 750 0236 B865     		str	r0, [r7, #88]
 190:home_screen.c **** 	lv_obj_set_drag(horiLabel2, false);
 751              		.loc 5 190 0
 752 0238 0021     		movs	r1, #0
 753 023a B86D     		ldr	r0, [r7, #88]
 754 023c FFF7FEFF 		bl	lv_obj_set_drag
 191:home_screen.c ****     lv_label_set_text(horiLabel2, "Hori. Scale");
ARM GAS  C:\Users\tmj32\AppData\Local\Temp\cco3Klhe.s 			page 32


 755              		.loc 5 191 0
 756 0240 4849     		ldr	r1, .L26+20
 757 0242 B86D     		ldr	r0, [r7, #88]
 758 0244 FFF7FEFF 		bl	lv_label_set_text
 192:home_screen.c ****     lv_obj_set_pos(horiLabel2, 20, 340);                         /*Set its position*/
 759              		.loc 5 192 0
 760 0248 4FF4AA72 		mov	r2, #340
 761 024c 1421     		movs	r1, #20
 762 024e B86D     		ldr	r0, [r7, #88]
 763 0250 FFF7FEFF 		bl	lv_obj_set_pos
 193:home_screen.c **** 
 194:home_screen.c ****     
 195:home_screen.c ****     /* Fourth Slider: Vert. Scale */
 196:home_screen.c ****     lv_obj_t * vertSlider = lv_slider_create(lv_scr_act(), NULL);
 764              		.loc 5 196 0
 765 0254 FFF7FEFF 		bl	lv_scr_act
 766 0258 0346     		mov	r3, r0
 767 025a 0021     		movs	r1, #0
 768 025c 1846     		mov	r0, r3
 769 025e FFF7FEFF 		bl	lv_slider_create
 770 0262 7865     		str	r0, [r7, #84]
 197:home_screen.c ****     lv_obj_set_pos(vertSlider, 170, 360);                         /*Set its position*/
 771              		.loc 5 197 0
 772 0264 4FF4B472 		mov	r2, #360
 773 0268 AA21     		movs	r1, #170
 774 026a 786D     		ldr	r0, [r7, #84]
 775 026c FFF7FEFF 		bl	lv_obj_set_pos
 198:home_screen.c ****     lv_obj_set_size(vertSlider, 130, 35);                        /*Set its size*/
 776              		.loc 5 198 0
 777 0270 2322     		movs	r2, #35
 778 0272 8221     		movs	r1, #130
 779 0274 786D     		ldr	r0, [r7, #84]
 780 0276 FFF7FEFF 		bl	lv_obj_set_size
 199:home_screen.c ****     lv_slider_set_value(vertSlider, 50, LV_ANIM_ON);
 781              		.loc 5 199 0
 782 027a 0122     		movs	r2, #1
 783 027c 3221     		movs	r1, #50
 784 027e 786D     		ldr	r0, [r7, #84]
 785 0280 FFF7FEFF 		bl	lv_slider_set_value
 200:home_screen.c ****     lv_obj_set_event_cb(vertSlider, slider_event_cb);
 786              		.loc 5 200 0
 787 0284 3349     		ldr	r1, .L26+4
 788 0286 786D     		ldr	r0, [r7, #84]
 789 0288 FFF7FEFF 		bl	lv_obj_set_event_cb
 201:home_screen.c ****     lv_slider_set_range(vertSlider, 0, 100);
 790              		.loc 5 201 0
 791 028c 6422     		movs	r2, #100
 792 028e 0021     		movs	r1, #0
 793 0290 786D     		ldr	r0, [r7, #84]
 794 0292 FFF7FEFF 		bl	lv_slider_set_range
 202:home_screen.c ****     
 203:home_screen.c ****     /* Create a label below the slider */
 204:home_screen.c ****     lv_obj_t * vertLabel1 = lv_label_create(lv_scr_act(), NULL);
 795              		.loc 5 204 0
 796 0296 FFF7FEFF 		bl	lv_scr_act
 797 029a 0346     		mov	r3, r0
 798 029c 0021     		movs	r1, #0
ARM GAS  C:\Users\tmj32\AppData\Local\Temp\cco3Klhe.s 			page 33


 799 029e 1846     		mov	r0, r3
 800 02a0 FFF7FEFF 		bl	lv_label_create
 801 02a4 3865     		str	r0, [r7, #80]
 205:home_screen.c ****     lv_label_set_text(vertLabel1, "0");
 802              		.loc 5 205 0
 803 02a6 2C49     		ldr	r1, .L26+8
 804 02a8 386D     		ldr	r0, [r7, #80]
 805 02aa FFF7FEFF 		bl	lv_label_set_text
 206:home_screen.c ****     lv_obj_set_auto_realign(vertLabel1, true);
 806              		.loc 5 206 0
 807 02ae 0121     		movs	r1, #1
 808 02b0 386D     		ldr	r0, [r7, #80]
 809 02b2 FFF7FEFF 		bl	lv_obj_set_auto_realign
 207:home_screen.c ****     lv_obj_align(vertLabel1, vertSlider, LV_ALIGN_OUT_BOTTOM_MID, 0, 0);
 810              		.loc 5 207 0
 811 02b6 0023     		movs	r3, #0
 812 02b8 0093     		str	r3, [sp]
 813 02ba 0023     		movs	r3, #0
 814 02bc 0D22     		movs	r2, #13
 815 02be 796D     		ldr	r1, [r7, #84]
 816 02c0 386D     		ldr	r0, [r7, #80]
 817 02c2 FFF7FEFF 		bl	lv_obj_align
 208:home_screen.c ****     
 209:home_screen.c **** 	lv_obj_t* vertLabel2 = lv_label_create(lv_scr_act(), NULL);
 818              		.loc 5 209 0
 819 02c6 FFF7FEFF 		bl	lv_scr_act
 820 02ca 0346     		mov	r3, r0
 821 02cc 0021     		movs	r1, #0
 822 02ce 1846     		mov	r0, r3
 823 02d0 FFF7FEFF 		bl	lv_label_create
 824 02d4 F864     		str	r0, [r7, #76]
 210:home_screen.c **** 	lv_obj_set_drag(vertLabel2, false);
 825              		.loc 5 210 0
 826 02d6 0021     		movs	r1, #0
 827 02d8 F86C     		ldr	r0, [r7, #76]
 828 02da FFF7FEFF 		bl	lv_obj_set_drag
 211:home_screen.c ****     lv_label_set_text(vertLabel2, "Vert. Scale");
 829              		.loc 5 211 0
 830 02de 2249     		ldr	r1, .L26+24
 831 02e0 F86C     		ldr	r0, [r7, #76]
 832 02e2 FFF7FEFF 		bl	lv_label_set_text
 212:home_screen.c ****     lv_obj_set_pos(vertLabel2, 170, 340); 
 833              		.loc 5 212 0
 834 02e6 4FF4AA72 		mov	r2, #340
 835 02ea AA21     		movs	r1, #170
 836 02ec F86C     		ldr	r0, [r7, #76]
 837 02ee FFF7FEFF 		bl	lv_obj_set_pos
 213:home_screen.c ****     
 214:home_screen.c ****     
 215:home_screen.c ****     
 216:home_screen.c ****     chart1 = lv_chart_create(lv_scr_act(), NULL);                     //Add a chart to the current 
 838              		.loc 5 216 0
 839 02f2 FFF7FEFF 		bl	lv_scr_act
 840 02f6 0346     		mov	r3, r0
 841 02f8 0021     		movs	r1, #0
 842 02fa 1846     		mov	r0, r3
 843 02fc FFF7FEFF 		bl	lv_chart_create
ARM GAS  C:\Users\tmj32\AppData\Local\Temp\cco3Klhe.s 			page 34


 844 0300 0246     		mov	r2, r0
 845 0302 1A4B     		ldr	r3, .L26+28
 846 0304 1A60     		str	r2, [r3]
 217:home_screen.c ****     //lv_obj_set_style(chart1, &style_box);                           //sets the style
 218:home_screen.c ****     lv_obj_set_pos(chart1, chart_horiPos, chart_vertPos);                         /*Set its positio
 847              		.loc 5 218 0
 848 0306 194B     		ldr	r3, .L26+28
 849 0308 1B68     		ldr	r3, [r3]
 850 030a D7F88420 		ldr	r2, [r7, #132]
 851 030e 11B2     		sxth	r1, r2
 852 0310 D7F88820 		ldr	r2, [r7, #136]
 853 0314 12B2     		sxth	r2, r2
 854 0316 1846     		mov	r0, r3
 855 0318 FFF7FEFF 		bl	lv_obj_set_pos
 219:home_screen.c ****     lv_obj_set_size(chart1, chart_width, chart_heigth);               /*Set its size*/   
 856              		.loc 5 219 0
 857 031c 134B     		ldr	r3, .L26+28
 858 031e 1B68     		ldr	r3, [r3]
 859 0320 D7F89020 		ldr	r2, [r7, #144]
 860 0324 11B2     		sxth	r1, r2
 861 0326 D7F88C20 		ldr	r2, [r7, #140]
 862 032a 12B2     		sxth	r2, r2
 863 032c 1846     		mov	r0, r3
 864 032e FFF7FEFF 		bl	lv_obj_set_size
 220:home_screen.c ****     lv_chart_set_div_line_count(chart1, 3, 0);                        //LOOK INTO ME
 865              		.loc 5 220 0
 866 0332 0E4B     		ldr	r3, .L26+28
 867 0334 1B68     		ldr	r3, [r3]
 868 0336 0022     		movs	r2, #0
 869 0338 0321     		movs	r1, #3
 870 033a 1846     		mov	r0, r3
 871 033c FFF7FEFF 		bl	lv_chart_set_div_line_count
 221:home_screen.c ****     lv_chart_set_point_count(chart1, 8);                              //setting the number of point
 872              		.loc 5 221 0
 873 0340 0A4B     		ldr	r3, .L26+28
 874 0342 1B68     		ldr	r3, [r3]
 875 0344 0821     		movs	r1, #8
 876 0346 1846     		mov	r0, r3
 877 0348 FFF7FEFF 		bl	lv_chart_set_point_count
 878 034c 10E0     		b	.L27
 879              	.L28:
 880 034e 00BF     		.align	2
 881              	.L26:
 882 0350 4C000000 		.word	.LC5
 883 0354 00000000 		.word	slider_event_cb
 884 0358 20000000 		.word	.LC6
 885 035c 24000000 		.word	.LC7
 886 0360 2C000000 		.word	.LC8
 887 0364 34000000 		.word	.LC9
 888 0368 40000000 		.word	.LC10
 889 036c 08000000 		.word	chart1.20332
 890              	.L27:
 222:home_screen.c ****     lv_chart_set_type(chart1, LV_CHART_TYPE_LINE);                    //set the points to be connec
 891              		.loc 5 222 0
 892 0370 2F4B     		ldr	r3, .L29
 893 0372 1B68     		ldr	r3, [r3]
 894 0374 0121     		movs	r1, #1
ARM GAS  C:\Users\tmj32\AppData\Local\Temp\cco3Klhe.s 			page 35


 895 0376 1846     		mov	r0, r3
 896 0378 FFF7FEFF 		bl	lv_chart_set_type
 223:home_screen.c ****                                                                       //CHANGE TO POINT ONCE MORE S
 224:home_screen.c **** 
 225:home_screen.c ****     lv_chart_series_t * s1 = lv_chart_add_series(chart1, lv_color_hex(0x01a2b1));
 897              		.loc 5 225 0
 898 037c 2C4B     		ldr	r3, .L29
 899 037e 1C68     		ldr	r4, [r3]
 900 0380 2C48     		ldr	r0, .L29+4
 901 0382 FFF7FEFF 		bl	lv_color_hex
 902 0386 0346     		mov	r3, r0
 903 0388 1946     		mov	r1, r3
 904 038a 2046     		mov	r0, r4
 905 038c FFF7FEFF 		bl	lv_chart_add_series
 906 0390 B864     		str	r0, [r7, #72]
 226:home_screen.c ****     //arbitary plot points that will eventually be set by info coming from the FPGA
 227:home_screen.c ****     
 228:home_screen.c ****     //temp sent to 8 to limit the number of points on screen. Will actually be somewhere in the hun
 229:home_screen.c ****     
 230:home_screen.c ****     //CHANGE ME ONCE IMPLEMENTED
 231:home_screen.c ****     uint8 elementsRead = 8;
 907              		.loc 5 231 0
 908 0392 0823     		movs	r3, #8
 909 0394 87F84730 		strb	r3, [r7, #71]
 232:home_screen.c ****     
 233:home_screen.c ****     int points[8] = {25, 50, 75, 50, 25, 50, 75, 50};
 910              		.loc 5 233 0
 911 0398 274B     		ldr	r3, .L29+8
 912 039a 3C46     		mov	r4, r7
 913 039c 1D46     		mov	r5, r3
 914 039e 0FCD     		ldmia	r5!, {r0, r1, r2, r3}
 915 03a0 0FC4     		stmia	r4!, {r0, r1, r2, r3}
 916 03a2 95E80F00 		ldmia	r5, {r0, r1, r2, r3}
 917 03a6 84E80F00 		stmia	r4, {r0, r1, r2, r3}
 918              	.LBB3:
 234:home_screen.c ****     for(int i = 0; i < elementsRead; ++i){
 919              		.loc 5 234 0
 920 03aa 0023     		movs	r3, #0
 921 03ac C7F89430 		str	r3, [r7, #148]
 922 03b0 13E0     		b	.L24
 923              	.L25:
 235:home_screen.c ****         lv_chart_set_next(chart1, s1, points[i]);
 924              		.loc 5 235 0 discriminator 3
 925 03b2 1F4B     		ldr	r3, .L29
 926 03b4 1868     		ldr	r0, [r3]
 927 03b6 D7F89430 		ldr	r3, [r7, #148]
 928 03ba 9B00     		lsls	r3, r3, #2
 929 03bc 07F19802 		add	r2, r7, #152
 930 03c0 1344     		add	r3, r3, r2
 931 03c2 53F8983C 		ldr	r3, [r3, #-152]
 932 03c6 1BB2     		sxth	r3, r3
 933 03c8 1A46     		mov	r2, r3
 934 03ca B96C     		ldr	r1, [r7, #72]
 935 03cc FFF7FEFF 		bl	lv_chart_set_next
 234:home_screen.c ****     for(int i = 0; i < elementsRead; ++i){
 936              		.loc 5 234 0 discriminator 3
 937 03d0 D7F89430 		ldr	r3, [r7, #148]
ARM GAS  C:\Users\tmj32\AppData\Local\Temp\cco3Klhe.s 			page 36


 938 03d4 0133     		adds	r3, r3, #1
 939 03d6 C7F89430 		str	r3, [r7, #148]
 940              	.L24:
 234:home_screen.c ****     for(int i = 0; i < elementsRead; ++i){
 941              		.loc 5 234 0 is_stmt 0 discriminator 1
 942 03da 97F84720 		ldrb	r2, [r7, #71]	@ zero_extendqisi2
 943 03de D7F89430 		ldr	r3, [r7, #148]
 944 03e2 9A42     		cmp	r2, r3
 945 03e4 E5DC     		bgt	.L25
 946              	.LBE3:
 236:home_screen.c ****     }
 237:home_screen.c ****     
 238:home_screen.c ****     
 239:home_screen.c ****     //Adding an on/off switch
 240:home_screen.c ****     lv_obj_t *sw1 = lv_sw_create(lv_scr_act(), NULL);
 947              		.loc 5 240 0 is_stmt 1
 948 03e6 FFF7FEFF 		bl	lv_scr_act
 949 03ea 0346     		mov	r3, r0
 950 03ec 0021     		movs	r1, #0
 951 03ee 1846     		mov	r0, r3
 952 03f0 FFF7FEFF 		bl	lv_sw_create
 953 03f4 3864     		str	r0, [r7, #64]
 241:home_screen.c ****     lv_obj_align(sw1, NULL, LV_ALIGN_CENTER, 0, -50);
 954              		.loc 5 241 0
 955 03f6 6FF03103 		mvn	r3, #49
 956 03fa 0093     		str	r3, [sp]
 957 03fc 0023     		movs	r3, #0
 958 03fe 0022     		movs	r2, #0
 959 0400 0021     		movs	r1, #0
 960 0402 386C     		ldr	r0, [r7, #64]
 961 0404 FFF7FEFF 		bl	lv_obj_align
 242:home_screen.c ****     lv_obj_set_event_cb(sw1, sw_event_handler);
 962              		.loc 5 242 0
 963 0408 0C49     		ldr	r1, .L29+12
 964 040a 386C     		ldr	r0, [r7, #64]
 965 040c FFF7FEFF 		bl	lv_obj_set_event_cb
 243:home_screen.c ****     //lv_obj_set_event_cb(sw1,  breath_activity_action);             /*Assign a callback to the but
 244:home_screen.c ****     lv_obj_set_pos(sw1, 20, 430);                         /*Set its position*/
 966              		.loc 5 244 0
 967 0410 4FF4D772 		mov	r2, #430
 968 0414 1421     		movs	r1, #20
 969 0416 386C     		ldr	r0, [r7, #64]
 970 0418 FFF7FEFF 		bl	lv_obj_set_pos
 245:home_screen.c ****     lv_obj_set_size(sw1, 90, 35);               /*Set its size*/ 
 971              		.loc 5 245 0
 972 041c 2322     		movs	r2, #35
 973 041e 5A21     		movs	r1, #90
 974 0420 386C     		ldr	r0, [r7, #64]
 975 0422 FFF7FEFF 		bl	lv_obj_set_size
 246:home_screen.c ****     
 247:home_screen.c ****     
 248:home_screen.c ****     //=======================LEGACY CODE==========================================//
 249:home_screen.c ****     
 250:home_screen.c ****     //btn1 = lv_btn_create(lv_scr_act(), NULL);                       /*Add a button the current sc
 251:home_screen.c ****     //lv_obj_set_pos(btn1, h_lab_1, v_lab_1);                         /*Set its position*/
 252:home_screen.c ****     //lv_obj_set_size(btn1, btn_wid, btn_hgt);                        /*Set its size*/
 253:home_screen.c ****     //lv_obj_set_event_cb(btn1,  breath_activity_action);             /*Assign a callback to the bu
ARM GAS  C:\Users\tmj32\AppData\Local\Temp\cco3Klhe.s 			page 37


 254:home_screen.c ****     //label1 = lv_label_create(btn1, NULL);                           /*Add a label to the button*/
 255:home_screen.c ****     //my_label = label1;                                              /*Gets the value of label1*/
 256:home_screen.c ****     //lv_label_set_text(my_label, co_btn_txt);                        /*Set the label's text string
 257:home_screen.c ****     //lv_label_set_align(my_label, LV_LABEL_ALIGN_CENTER );           /*Set the label's alignment*/
 258:home_screen.c **** 
 259:home_screen.c ****     //lbl_style = lv_label_get_style(my_label, LV_LABEL_STYLE_MAIN);  /*Get a pointer to label1's s
 260:home_screen.c ****       //                                                                actually returns the parent
 261:home_screen.c ****     //lbl_style->text.color.full = 0x000000;                          /*Set label1's text color to 
 262:home_screen.c ****     
 263:home_screen.c ****     //btn2 = lv_btn_create(lv_scr_act(), NULL);                       /*Add a button the current sc
 264:home_screen.c ****     //lv_obj_set_pos(btn2, h_lab_2, v_lab_1);                         /*Set its position*/
 265:home_screen.c ****     //lv_obj_set_size(btn2, btn_wid, btn_hgt);                        /*Set its size*/
 266:home_screen.c ****     //lv_obj_set_event_cb(btn2,  breath_activity_action);             /*Assign a callback to the bu
 267:home_screen.c ****     //label2 = lv_label_create(btn2, NULL);                           /*Add a label to the button*/
 268:home_screen.c ****     //my_label = label2;
 269:home_screen.c ****     //lv_label_set_text(my_label, gam_btn_txt);                       /*Set the label's text*/
 270:home_screen.c ****     //lv_label_set_align(my_label, LV_LABEL_ALIGN_CENTER );
 271:home_screen.c **** 
 272:home_screen.c ****     //btn3 = lv_btn_create(lv_scr_act(), NULL);                       /*Add a button the current sc
 273:home_screen.c ****     //lv_obj_set_pos(btn3, h_lab_1, v_lab_2);                         /*Set its position*/
 274:home_screen.c ****     //lv_obj_set_size(btn3, btn_wid, btn_hgt);                        /*Set its size*/
 275:home_screen.c ****     //lv_obj_set_event_cb(btn3,  breath_activity_action);             /*Assign a callback to the bu
 276:home_screen.c ****     //label3 = lv_label_create(btn3, NULL);                           /*Add a label to the button*/
 277:home_screen.c ****     //my_label = label3;
 278:home_screen.c ****     //lv_label_set_text(my_label, msg_btn_txt);                       /*Set the label's text*/
 279:home_screen.c ****     //lv_label_set_align(my_label, LV_LABEL_ALIGN_CENTER );
 280:home_screen.c **** 
 281:home_screen.c ****     //btn4 = lv_btn_create(lv_scr_act(), NULL);                       /*Add a button the current sc
 282:home_screen.c ****     //lv_obj_set_pos(btn4, h_lab_2, v_lab_2);                         /*Set its position*/
 283:home_screen.c ****     //lv_obj_set_size(btn4, btn_wid, btn_hgt);                        /*Set its size*/
 284:home_screen.c ****     //lv_obj_set_event_cb(btn4,  breath_activity_action);             /*Assign a callback to the bu
 285:home_screen.c ****     //label4 = lv_label_create(btn4, NULL);                           /*Add a label to the button*/
 286:home_screen.c ****     //my_label = label4;
 287:home_screen.c ****     //lv_label_set_text(my_label, ci_btn_txt);                        /*Set the label's text*/
 288:home_screen.c ****     //lv_label_set_align(my_label, LV_LABEL_ALIGN_CENTER );
 289:home_screen.c **** 
 290:home_screen.c ****     //lv_style_copy(&btn_style1, lv_obj_get_style(btn1));
 291:home_screen.c ****     //lv_style_copy(&btn_style2, lv_obj_get_style(btn2));
 292:home_screen.c ****     //lv_style_copy(&btn_style3, lv_obj_get_style(btn3));
 293:home_screen.c ****     //lv_style_copy(&btn_style4, lv_obj_get_style(btn4));
 294:home_screen.c ****     
 295:home_screen.c ****     //btn_style1.body.main_color.full = 0x0040C0;
 296:home_screen.c ****     //btn_style1.body.grad_color.full = btn_style1.body.main_color.full;
 297:home_screen.c ****     //lv_btn_set_style( btn1, LV_BTN_STATE_REL, &btn_style1 );
 298:home_screen.c ****     
 299:home_screen.c ****     //btn_style2.body.main_color.full = 0xC04000;
 300:home_screen.c ****     //btn_style2.body.grad_color.full = btn_style2.body.main_color.full;
 301:home_screen.c ****     //lv_btn_set_style( btn2, LV_BTN_STATE_REL, &btn_style2 );
 302:home_screen.c ****     
 303:home_screen.c ****     //btn_style3.body.main_color.full = 0x00C040;
 304:home_screen.c ****     //btn_style3.body.grad_color.full = btn_style3.body.main_color.full;
 305:home_screen.c ****     //lv_btn_set_style( btn3, LV_BTN_STATE_REL, &btn_style3 );
 306:home_screen.c ****     
 307:home_screen.c ****     //btn_style4.body.main_color.full = 0x40C000;
 308:home_screen.c ****     //btn_style4.body.grad_color.full = btn_style4.body.main_color.full;
 309:home_screen.c ****     //lv_btn_set_style( btn4, LV_BTN_STATE_REL, &btn_style4 );
 310:home_screen.c **** 
ARM GAS  C:\Users\tmj32\AppData\Local\Temp\cco3Klhe.s 			page 38


 311:home_screen.c ****     //btn_dat = lv_btn_create(lv_scr_act(), NULL);                        /*Add a button the curren
 312:home_screen.c ****     //lv_obj_set_pos(btn_dat, h_ban_1, v_ban_1);                          /*Set its position*/
 313:home_screen.c ****     //lv_obj_set_size(btn_dat, ban_wid, ban_hgt);                         /*Set its size*/
 314:home_screen.c ****     //lv_obj_set_event_cb(btn_dat,  date_activity_action);                /*Assign a callback to th
 315:home_screen.c ****     //label_dat = lv_label_create(btn_dat, NULL);
 316:home_screen.c ****     //lv_label_set_text( label_dat, "Wednesday, January 20  2021" );
 317:home_screen.c ****     //lv_obj_align( label_dat, NULL, LV_ALIGN_IN_TOP_MID, 0,0 );
 318:home_screen.c ****     //set_label_dat(label_dat);
 319:home_screen.c ****     //lv_label_set_long_mode(label_dat, LV_LABEL_LONG_EXPAND);
 320:home_screen.c ****     
 321:home_screen.c ****     //btn_tim = lv_btn_create(lv_scr_act(), NULL);                        /*Add a button the curren
 322:home_screen.c ****     //lv_obj_set_pos(btn_tim, h_ban_1, v_ban_2);                          /*Set its position*/
 323:home_screen.c ****     //lv_obj_set_size(btn_tim, ban_wid, ban_hgt);                         /*Set its size*/
 324:home_screen.c ****     //lv_obj_set_event_cb(btn_tim,  time_activity_action);                /*Assign a callback to th
 325:home_screen.c ****     //label_tim = lv_label_create(btn_tim, NULL);
 326:home_screen.c ****     //lv_label_set_static_text( label_tim, "12:00 AM" );
 327:home_screen.c ****     //lv_obj_align( label_tim, NULL, LV_ALIGN_IN_TOP_MID, 0,0 );
 328:home_screen.c ****     //set_label_tim(label_tim);
 329:home_screen.c ****     
 330:home_screen.c ****     
 331:home_screen.c ****     //lv_style_copy(&btn_style_tim_dat, lv_obj_get_style(btn_dat));
 332:home_screen.c ****     //btn_style_tim_dat.text.font = &lv_font_roboto_16;
 333:home_screen.c ****     //btn_style_tim_dat.body.main_color.full = 0xFFFFFF;
 334:home_screen.c ****     //btn_style_tim_dat.body.grad_color.full = 0xFFFFFF;
 335:home_screen.c ****     //lv_btn_set_style( btn_dat, LV_BTN_STATE_REL, &btn_style_tim_dat );
 336:home_screen.c ****     //lv_btn_set_style( btn_tim, LV_BTN_STATE_REL, &btn_style_tim_dat );
 337:home_screen.c ****     
 338:home_screen.c ****     //=======================LEGACY CODE==========================================//    
 339:home_screen.c **** }...
 976              		.loc 5 339 0
 977 0426 00BF     		nop
 978 0428 9837     		adds	r7, r7, #152
 979              		.cfi_def_cfa_offset 16
 980 042a BD46     		mov	sp, r7
 981              		.cfi_def_cfa_register 13
 982              		@ sp needed
 983 042c B0BD     		pop	{r4, r5, r7, pc}
 984              	.L30:
 985 042e 00BF     		.align	2
 986              	.L29:
 987 0430 08000000 		.word	chart1.20332
 988 0434 B1A20100 		.word	107185
 989 0438 60000000 		.word	.LC0
 990 043c 00000000 		.word	sw_event_handler
 991              		.cfi_endproc
 992              	.LFE719:
 993              		.size	home_screen, .-home_screen
 994              		.bss
 995              		.align	2
 996              	buf.20322:
 997 0004 00000000 		.space	4
 998              		.align	2
 999              	chart1.20332:
 1000 0008 00000000 		.space	4
 1001              		.align	2
 1002              	lbl_style.20331:
 1003 000c 00000000 		.space	4
ARM GAS  C:\Users\tmj32\AppData\Local\Temp\cco3Klhe.s 			page 39


 1004              		.align	2
 1005              	my_label.20330:
 1006 0010 00000000 		.space	4
 1007              		.text
 1008              	.Letext0:
 1009              		.file 6 "c:\\program files (x86)\\cypress\\psoc creator\\4.3\\psoc creator\\import\\gnu\\arm\\5.4.
 1010              		.file 7 "c:\\program files (x86)\\cypress\\psoc creator\\4.3\\psoc creator\\import\\gnu\\arm\\5.4.
 1011              		.file 8 "Generated_Source\\PSoC6\\pdl\\drivers/peripheral/device/cy_device.h"
 1012              		.file 9 "Generated_Source\\PSoC6\\pdl\\drivers/peripheral/syslib/cy_syslib.h"
 1013              		.file 10 "Generated_Source\\PSoC6\\pdl\\drivers/peripheral/scb/cy_scb_i2c.h"
 1014              		.file 11 "Generated_Source\\PSoC6\\pdl\\drivers/peripheral/scb/cy_scb_spi.h"
 1015              		.file 12 "Generated_Source\\PSoC6\\pdl\\drivers/peripheral/tcpwm/cy_tcpwm_counter.h"
 1016              		.file 13 "..\\..\\..\\lvgl\\version_6.1.2\\lvgl/src/lv_misc/../../../lv_conf.h"
 1017              		.file 14 "..\\..\\..\\lvgl\\version_6.1.2\\lvgl/src/lv_misc/lv_types.h"
 1018              		.file 15 "..\\..\\..\\lvgl\\version_6.1.2\\lvgl/src/lv_misc/lv_ll.h"
 1019              		.file 16 "..\\..\\..\\lvgl\\version_6.1.2\\lvgl/src/lv_hal/../lv_misc/lv_area.h"
 1020              		.file 17 "..\\..\\..\\lvgl\\version_6.1.2\\lvgl/src/lv_core/lv_obj.h"
 1021              		.file 18 "..\\..\\..\\lvgl\\version_6.1.2\\lvgl/src/lv_core/../lv_font/lv_font.h"
 1022              		.file 19 "..\\..\\..\\lvgl\\version_6.1.2\\lvgl/src/lv_core/../lv_misc/lv_anim.h"
 1023              		.file 20 "..\\..\\..\\lvgl\\version_6.1.2\\lvgl/src/lv_core/lv_style.h"
 1024              		.file 21 "..\\..\\..\\lvgl\\version_6.1.2\\lvgl/src/lv_core/../lv_misc/lv_bidi.h"
 1025              		.file 22 "..\\..\\..\\lvgl\\version_6.1.2\\lvgl/src/lv_objx/lv_btn.h"
 1026              		.file 23 "..\\..\\..\\lvgl\\version_6.1.2\\lvgl/src/lv_objx/lv_chart.h"
 1027              		.file 24 "Generated_Source\\PSoC6\\pdl\\cmsis/include/core_cm4.h"
 1028              		.file 25 "Generated_Source\\PSoC6/DISP_TICK_TIMER.h"
 1029              		.file 26 "Generated_Source\\PSoC6/I2C_MASTER.h"
 1030              		.file 27 "Generated_Source\\PSoC6/SPIM.h"
 1031              		.section	.debug_info,"",%progbits
 1032              	.Ldebug_info0:
 1033 0000 BA150000 		.4byte	0x15ba
 1034 0004 0400     		.2byte	0x4
 1035 0006 00000000 		.4byte	.Ldebug_abbrev0
 1036 000a 04       		.byte	0x4
 1037 000b 01       		.uleb128 0x1
 1038 000c 32140000 		.4byte	.LASF373
 1039 0010 0C       		.byte	0xc
 1040 0011 D8100000 		.4byte	.LASF374
 1041 0015 B6030000 		.4byte	.LASF375
 1042 0019 00000000 		.4byte	.Ldebug_ranges0+0
 1043 001d 00000000 		.4byte	0
 1044 0021 00000000 		.4byte	.Ldebug_line0
 1045 0025 02       		.uleb128 0x2
 1046 0026 F0120000 		.4byte	.LASF0
 1047 002a 06       		.byte	0x6
 1048 002b 1B       		.byte	0x1b
 1049 002c 30000000 		.4byte	0x30
 1050 0030 03       		.uleb128 0x3
 1051 0031 01       		.byte	0x1
 1052 0032 06       		.byte	0x6
 1053 0033 6D120000 		.4byte	.LASF2
 1054 0037 02       		.uleb128 0x2
 1055 0038 910F0000 		.4byte	.LASF1
 1056 003c 06       		.byte	0x6
 1057 003d 1D       		.byte	0x1d
 1058 003e 42000000 		.4byte	0x42
 1059 0042 03       		.uleb128 0x3
 1060 0043 01       		.byte	0x1
ARM GAS  C:\Users\tmj32\AppData\Local\Temp\cco3Klhe.s 			page 40


 1061 0044 08       		.byte	0x8
 1062 0045 F8100000 		.4byte	.LASF3
 1063 0049 02       		.uleb128 0x2
 1064 004a 29030000 		.4byte	.LASF4
 1065 004e 06       		.byte	0x6
 1066 004f 29       		.byte	0x29
 1067 0050 54000000 		.4byte	0x54
 1068 0054 03       		.uleb128 0x3
 1069 0055 02       		.byte	0x2
 1070 0056 05       		.byte	0x5
 1071 0057 3E0E0000 		.4byte	.LASF5
 1072 005b 02       		.uleb128 0x2
 1073 005c 0A080000 		.4byte	.LASF6
 1074 0060 06       		.byte	0x6
 1075 0061 2B       		.byte	0x2b
 1076 0062 66000000 		.4byte	0x66
 1077 0066 03       		.uleb128 0x3
 1078 0067 02       		.byte	0x2
 1079 0068 07       		.byte	0x7
 1080 0069 BF0C0000 		.4byte	.LASF7
 1081 006d 02       		.uleb128 0x2
 1082 006e 81010000 		.4byte	.LASF8
 1083 0072 06       		.byte	0x6
 1084 0073 3F       		.byte	0x3f
 1085 0074 78000000 		.4byte	0x78
 1086 0078 03       		.uleb128 0x3
 1087 0079 04       		.byte	0x4
 1088 007a 05       		.byte	0x5
 1089 007b 8C0E0000 		.4byte	.LASF9
 1090 007f 02       		.uleb128 0x2
 1091 0080 06110000 		.4byte	.LASF10
 1092 0084 06       		.byte	0x6
 1093 0085 41       		.byte	0x41
 1094 0086 8A000000 		.4byte	0x8a
 1095 008a 03       		.uleb128 0x3
 1096 008b 04       		.byte	0x4
 1097 008c 07       		.byte	0x7
 1098 008d 4E100000 		.4byte	.LASF11
 1099 0091 03       		.uleb128 0x3
 1100 0092 08       		.byte	0x8
 1101 0093 05       		.byte	0x5
 1102 0094 E2090000 		.4byte	.LASF12
 1103 0098 03       		.uleb128 0x3
 1104 0099 08       		.byte	0x8
 1105 009a 07       		.byte	0x7
 1106 009b 56050000 		.4byte	.LASF13
 1107 009f 04       		.uleb128 0x4
 1108 00a0 04       		.byte	0x4
 1109 00a1 05       		.byte	0x5
 1110 00a2 696E7400 		.ascii	"int\000"
 1111 00a6 03       		.uleb128 0x3
 1112 00a7 04       		.byte	0x4
 1113 00a8 07       		.byte	0x7
 1114 00a9 11010000 		.4byte	.LASF14
 1115 00ad 03       		.uleb128 0x3
 1116 00ae 08       		.byte	0x8
 1117 00af 04       		.byte	0x4
ARM GAS  C:\Users\tmj32\AppData\Local\Temp\cco3Klhe.s 			page 41


 1118 00b0 D20C0000 		.4byte	.LASF15
 1119 00b4 05       		.uleb128 0x5
 1120 00b5 04       		.byte	0x4
 1121 00b6 03       		.uleb128 0x3
 1122 00b7 04       		.byte	0x4
 1123 00b8 07       		.byte	0x7
 1124 00b9 C60D0000 		.4byte	.LASF16
 1125 00bd 03       		.uleb128 0x3
 1126 00be 01       		.byte	0x1
 1127 00bf 08       		.byte	0x8
 1128 00c0 5A080000 		.4byte	.LASF17
 1129 00c4 02       		.uleb128 0x2
 1130 00c5 9E040000 		.4byte	.LASF18
 1131 00c9 07       		.byte	0x7
 1132 00ca 14       		.byte	0x14
 1133 00cb 25000000 		.4byte	0x25
 1134 00cf 02       		.uleb128 0x2
 1135 00d0 49090000 		.4byte	.LASF19
 1136 00d4 07       		.byte	0x7
 1137 00d5 18       		.byte	0x18
 1138 00d6 37000000 		.4byte	0x37
 1139 00da 02       		.uleb128 0x2
 1140 00db 23050000 		.4byte	.LASF20
 1141 00df 07       		.byte	0x7
 1142 00e0 20       		.byte	0x20
 1143 00e1 49000000 		.4byte	0x49
 1144 00e5 02       		.uleb128 0x2
 1145 00e6 DE0C0000 		.4byte	.LASF21
 1146 00ea 07       		.byte	0x7
 1147 00eb 24       		.byte	0x24
 1148 00ec 5B000000 		.4byte	0x5b
 1149 00f0 02       		.uleb128 0x2
 1150 00f1 C2050000 		.4byte	.LASF22
 1151 00f5 07       		.byte	0x7
 1152 00f6 2C       		.byte	0x2c
 1153 00f7 6D000000 		.4byte	0x6d
 1154 00fb 02       		.uleb128 0x2
 1155 00fc 95040000 		.4byte	.LASF23
 1156 0100 07       		.byte	0x7
 1157 0101 30       		.byte	0x30
 1158 0102 7F000000 		.4byte	0x7f
 1159 0106 06       		.uleb128 0x6
 1160 0107 FB000000 		.4byte	0xfb
 1161 010b 07       		.uleb128 0x7
 1162 010c CF000000 		.4byte	0xcf
 1163 0110 1B010000 		.4byte	0x11b
 1164 0114 08       		.uleb128 0x8
 1165 0115 B6000000 		.4byte	0xb6
 1166 0119 02       		.byte	0x2
 1167 011a 00       		.byte	0
 1168 011b 09       		.uleb128 0x9
 1169 011c B8       		.byte	0xb8
 1170 011d 08       		.byte	0x8
 1171 011e 34       		.byte	0x34
 1172 011f 2C050000 		.4byte	0x52c
 1173 0123 0A       		.uleb128 0xa
 1174 0124 B4010000 		.4byte	.LASF24
ARM GAS  C:\Users\tmj32\AppData\Local\Temp\cco3Klhe.s 			page 42


 1175 0128 08       		.byte	0x8
 1176 0129 37       		.byte	0x37
 1177 012a FB000000 		.4byte	0xfb
 1178 012e 00       		.byte	0
 1179 012f 0A       		.uleb128 0xa
 1180 0130 DF110000 		.4byte	.LASF25
 1181 0134 08       		.byte	0x8
 1182 0135 38       		.byte	0x38
 1183 0136 FB000000 		.4byte	0xfb
 1184 013a 04       		.byte	0x4
 1185 013b 0A       		.uleb128 0xa
 1186 013c C3000000 		.4byte	.LASF26
 1187 0140 08       		.byte	0x8
 1188 0141 39       		.byte	0x39
 1189 0142 FB000000 		.4byte	0xfb
 1190 0146 08       		.byte	0x8
 1191 0147 0A       		.uleb128 0xa
 1192 0148 CA050000 		.4byte	.LASF27
 1193 014c 08       		.byte	0x8
 1194 014d 3A       		.byte	0x3a
 1195 014e FB000000 		.4byte	0xfb
 1196 0152 0C       		.byte	0xc
 1197 0153 0A       		.uleb128 0xa
 1198 0154 E70C0000 		.4byte	.LASF28
 1199 0158 08       		.byte	0x8
 1200 0159 3B       		.byte	0x3b
 1201 015a FB000000 		.4byte	0xfb
 1202 015e 10       		.byte	0x10
 1203 015f 0A       		.uleb128 0xa
 1204 0160 A80A0000 		.4byte	.LASF29
 1205 0164 08       		.byte	0x8
 1206 0165 3C       		.byte	0x3c
 1207 0166 FB000000 		.4byte	0xfb
 1208 016a 14       		.byte	0x14
 1209 016b 0A       		.uleb128 0xa
 1210 016c 96060000 		.4byte	.LASF30
 1211 0170 08       		.byte	0x8
 1212 0171 3D       		.byte	0x3d
 1213 0172 FB000000 		.4byte	0xfb
 1214 0176 18       		.byte	0x18
 1215 0177 0A       		.uleb128 0xa
 1216 0178 77090000 		.4byte	.LASF31
 1217 017c 08       		.byte	0x8
 1218 017d 3E       		.byte	0x3e
 1219 017e FB000000 		.4byte	0xfb
 1220 0182 1C       		.byte	0x1c
 1221 0183 0A       		.uleb128 0xa
 1222 0184 4B060000 		.4byte	.LASF32
 1223 0188 08       		.byte	0x8
 1224 0189 3F       		.byte	0x3f
 1225 018a FB000000 		.4byte	0xfb
 1226 018e 20       		.byte	0x20
 1227 018f 0A       		.uleb128 0xa
 1228 0190 1B0A0000 		.4byte	.LASF33
 1229 0194 08       		.byte	0x8
 1230 0195 40       		.byte	0x40
 1231 0196 FB000000 		.4byte	0xfb
ARM GAS  C:\Users\tmj32\AppData\Local\Temp\cco3Klhe.s 			page 43


 1232 019a 24       		.byte	0x24
 1233 019b 0A       		.uleb128 0xa
 1234 019c 40150000 		.4byte	.LASF34
 1235 01a0 08       		.byte	0x8
 1236 01a1 43       		.byte	0x43
 1237 01a2 CF000000 		.4byte	0xcf
 1238 01a6 28       		.byte	0x28
 1239 01a7 0A       		.uleb128 0xa
 1240 01a8 7E0E0000 		.4byte	.LASF35
 1241 01ac 08       		.byte	0x8
 1242 01ad 44       		.byte	0x44
 1243 01ae CF000000 		.4byte	0xcf
 1244 01b2 29       		.byte	0x29
 1245 01b3 0A       		.uleb128 0xa
 1246 01b4 EE100000 		.4byte	.LASF36
 1247 01b8 08       		.byte	0x8
 1248 01b9 45       		.byte	0x45
 1249 01ba CF000000 		.4byte	0xcf
 1250 01be 2A       		.byte	0x2a
 1251 01bf 0A       		.uleb128 0xa
 1252 01c0 CF0E0000 		.4byte	.LASF37
 1253 01c4 08       		.byte	0x8
 1254 01c5 46       		.byte	0x46
 1255 01c6 CF000000 		.4byte	0xcf
 1256 01ca 2B       		.byte	0x2b
 1257 01cb 0A       		.uleb128 0xa
 1258 01cc C30E0000 		.4byte	.LASF38
 1259 01d0 08       		.byte	0x8
 1260 01d1 47       		.byte	0x47
 1261 01d2 CF000000 		.4byte	0xcf
 1262 01d6 2C       		.byte	0x2c
 1263 01d7 0A       		.uleb128 0xa
 1264 01d8 2D100000 		.4byte	.LASF39
 1265 01dc 08       		.byte	0x8
 1266 01dd 48       		.byte	0x48
 1267 01de CF000000 		.4byte	0xcf
 1268 01e2 2D       		.byte	0x2d
 1269 01e3 0A       		.uleb128 0xa
 1270 01e4 580D0000 		.4byte	.LASF40
 1271 01e8 08       		.byte	0x8
 1272 01e9 49       		.byte	0x49
 1273 01ea CF000000 		.4byte	0xcf
 1274 01ee 2E       		.byte	0x2e
 1275 01ef 0A       		.uleb128 0xa
 1276 01f0 F4010000 		.4byte	.LASF41
 1277 01f4 08       		.byte	0x8
 1278 01f5 4A       		.byte	0x4a
 1279 01f6 CF000000 		.4byte	0xcf
 1280 01fa 2F       		.byte	0x2f
 1281 01fb 0A       		.uleb128 0xa
 1282 01fc 9E070000 		.4byte	.LASF42
 1283 0200 08       		.byte	0x8
 1284 0201 4B       		.byte	0x4b
 1285 0202 CF000000 		.4byte	0xcf
 1286 0206 30       		.byte	0x30
 1287 0207 0A       		.uleb128 0xa
 1288 0208 840B0000 		.4byte	.LASF43
ARM GAS  C:\Users\tmj32\AppData\Local\Temp\cco3Klhe.s 			page 44


 1289 020c 08       		.byte	0x8
 1290 020d 4E       		.byte	0x4e
 1291 020e CF000000 		.4byte	0xcf
 1292 0212 31       		.byte	0x31
 1293 0213 0A       		.uleb128 0xa
 1294 0214 9A120000 		.4byte	.LASF44
 1295 0218 08       		.byte	0x8
 1296 0219 4F       		.byte	0x4f
 1297 021a CF000000 		.4byte	0xcf
 1298 021e 32       		.byte	0x32
 1299 021f 0A       		.uleb128 0xa
 1300 0220 B0130000 		.4byte	.LASF45
 1301 0224 08       		.byte	0x8
 1302 0225 50       		.byte	0x50
 1303 0226 CF000000 		.4byte	0xcf
 1304 022a 33       		.byte	0x33
 1305 022b 0A       		.uleb128 0xa
 1306 022c 2D080000 		.4byte	.LASF46
 1307 0230 08       		.byte	0x8
 1308 0231 51       		.byte	0x51
 1309 0232 CF000000 		.4byte	0xcf
 1310 0236 34       		.byte	0x34
 1311 0237 0A       		.uleb128 0xa
 1312 0238 60120000 		.4byte	.LASF47
 1313 023c 08       		.byte	0x8
 1314 023d 52       		.byte	0x52
 1315 023e DA000000 		.4byte	0xda
 1316 0242 36       		.byte	0x36
 1317 0243 0A       		.uleb128 0xa
 1318 0244 C7020000 		.4byte	.LASF48
 1319 0248 08       		.byte	0x8
 1320 0249 53       		.byte	0x53
 1321 024a DA000000 		.4byte	0xda
 1322 024e 38       		.byte	0x38
 1323 024f 0A       		.uleb128 0xa
 1324 0250 E60A0000 		.4byte	.LASF49
 1325 0254 08       		.byte	0x8
 1326 0255 54       		.byte	0x54
 1327 0256 DA000000 		.4byte	0xda
 1328 025a 3A       		.byte	0x3a
 1329 025b 0A       		.uleb128 0xa
 1330 025c 8B010000 		.4byte	.LASF50
 1331 0260 08       		.byte	0x8
 1332 0261 55       		.byte	0x55
 1333 0262 CF000000 		.4byte	0xcf
 1334 0266 3C       		.byte	0x3c
 1335 0267 0A       		.uleb128 0xa
 1336 0268 6D060000 		.4byte	.LASF51
 1337 026c 08       		.byte	0x8
 1338 026d 56       		.byte	0x56
 1339 026e CF000000 		.4byte	0xcf
 1340 0272 3D       		.byte	0x3d
 1341 0273 0A       		.uleb128 0xa
 1342 0274 AF050000 		.4byte	.LASF52
 1343 0278 08       		.byte	0x8
 1344 0279 57       		.byte	0x57
 1345 027a CF000000 		.4byte	0xcf
ARM GAS  C:\Users\tmj32\AppData\Local\Temp\cco3Klhe.s 			page 45


 1346 027e 3E       		.byte	0x3e
 1347 027f 0A       		.uleb128 0xa
 1348 0280 93000000 		.4byte	.LASF53
 1349 0284 08       		.byte	0x8
 1350 0285 58       		.byte	0x58
 1351 0286 CF000000 		.4byte	0xcf
 1352 028a 3F       		.byte	0x3f
 1353 028b 0A       		.uleb128 0xa
 1354 028c 3A010000 		.4byte	.LASF54
 1355 0290 08       		.byte	0x8
 1356 0291 59       		.byte	0x59
 1357 0292 CF000000 		.4byte	0xcf
 1358 0296 40       		.byte	0x40
 1359 0297 0A       		.uleb128 0xa
 1360 0298 D50B0000 		.4byte	.LASF55
 1361 029c 08       		.byte	0x8
 1362 029d 5A       		.byte	0x5a
 1363 029e CF000000 		.4byte	0xcf
 1364 02a2 41       		.byte	0x41
 1365 02a3 0A       		.uleb128 0xa
 1366 02a4 06050000 		.4byte	.LASF56
 1367 02a8 08       		.byte	0x8
 1368 02a9 5B       		.byte	0x5b
 1369 02aa CF000000 		.4byte	0xcf
 1370 02ae 42       		.byte	0x42
 1371 02af 0A       		.uleb128 0xa
 1372 02b0 DA070000 		.4byte	.LASF57
 1373 02b4 08       		.byte	0x8
 1374 02b5 5C       		.byte	0x5c
 1375 02b6 CF000000 		.4byte	0xcf
 1376 02ba 43       		.byte	0x43
 1377 02bb 0A       		.uleb128 0xa
 1378 02bc 8B080000 		.4byte	.LASF58
 1379 02c0 08       		.byte	0x8
 1380 02c1 5D       		.byte	0x5d
 1381 02c2 CF000000 		.4byte	0xcf
 1382 02c6 44       		.byte	0x44
 1383 02c7 0A       		.uleb128 0xa
 1384 02c8 DD0E0000 		.4byte	.LASF59
 1385 02cc 08       		.byte	0x8
 1386 02cd 5E       		.byte	0x5e
 1387 02ce FB000000 		.4byte	0xfb
 1388 02d2 48       		.byte	0x48
 1389 02d3 0A       		.uleb128 0xa
 1390 02d4 8E020000 		.4byte	.LASF60
 1391 02d8 08       		.byte	0x8
 1392 02d9 5F       		.byte	0x5f
 1393 02da FB000000 		.4byte	0xfb
 1394 02de 4C       		.byte	0x4c
 1395 02df 0A       		.uleb128 0xa
 1396 02e0 FD110000 		.4byte	.LASF61
 1397 02e4 08       		.byte	0x8
 1398 02e5 60       		.byte	0x60
 1399 02e6 CF000000 		.4byte	0xcf
 1400 02ea 50       		.byte	0x50
 1401 02eb 0A       		.uleb128 0xa
 1402 02ec AD060000 		.4byte	.LASF62
ARM GAS  C:\Users\tmj32\AppData\Local\Temp\cco3Klhe.s 			page 46


 1403 02f0 08       		.byte	0x8
 1404 02f1 61       		.byte	0x61
 1405 02f2 CF000000 		.4byte	0xcf
 1406 02f6 51       		.byte	0x51
 1407 02f7 0A       		.uleb128 0xa
 1408 02f8 600A0000 		.4byte	.LASF63
 1409 02fc 08       		.byte	0x8
 1410 02fd 62       		.byte	0x62
 1411 02fe CF000000 		.4byte	0xcf
 1412 0302 52       		.byte	0x52
 1413 0303 0A       		.uleb128 0xa
 1414 0304 710C0000 		.4byte	.LASF64
 1415 0308 08       		.byte	0x8
 1416 0309 63       		.byte	0x63
 1417 030a CF000000 		.4byte	0xcf
 1418 030e 53       		.byte	0x53
 1419 030f 0A       		.uleb128 0xa
 1420 0310 87110000 		.4byte	.LASF65
 1421 0314 08       		.byte	0x8
 1422 0315 64       		.byte	0x64
 1423 0316 CF000000 		.4byte	0xcf
 1424 031a 54       		.byte	0x54
 1425 031b 0A       		.uleb128 0xa
 1426 031c 40070000 		.4byte	.LASF66
 1427 0320 08       		.byte	0x8
 1428 0321 65       		.byte	0x65
 1429 0322 CF000000 		.4byte	0xcf
 1430 0326 55       		.byte	0x55
 1431 0327 0A       		.uleb128 0xa
 1432 0328 42120000 		.4byte	.LASF67
 1433 032c 08       		.byte	0x8
 1434 032d 66       		.byte	0x66
 1435 032e CF000000 		.4byte	0xcf
 1436 0332 56       		.byte	0x56
 1437 0333 0A       		.uleb128 0xa
 1438 0334 780D0000 		.4byte	.LASF68
 1439 0338 08       		.byte	0x8
 1440 0339 67       		.byte	0x67
 1441 033a CF000000 		.4byte	0xcf
 1442 033e 57       		.byte	0x57
 1443 033f 0A       		.uleb128 0xa
 1444 0340 59060000 		.4byte	.LASF69
 1445 0344 08       		.byte	0x8
 1446 0345 68       		.byte	0x68
 1447 0346 CF000000 		.4byte	0xcf
 1448 034a 58       		.byte	0x58
 1449 034b 0A       		.uleb128 0xa
 1450 034c DF130000 		.4byte	.LASF70
 1451 0350 08       		.byte	0x8
 1452 0351 69       		.byte	0x69
 1453 0352 CF000000 		.4byte	0xcf
 1454 0356 59       		.byte	0x59
 1455 0357 0A       		.uleb128 0xa
 1456 0358 87120000 		.4byte	.LASF71
 1457 035c 08       		.byte	0x8
 1458 035d 6E       		.byte	0x6e
 1459 035e E5000000 		.4byte	0xe5
ARM GAS  C:\Users\tmj32\AppData\Local\Temp\cco3Klhe.s 			page 47


 1460 0362 5A       		.byte	0x5a
 1461 0363 0A       		.uleb128 0xa
 1462 0364 FD000000 		.4byte	.LASF72
 1463 0368 08       		.byte	0x8
 1464 0369 6F       		.byte	0x6f
 1465 036a E5000000 		.4byte	0xe5
 1466 036e 5C       		.byte	0x5c
 1467 036f 0A       		.uleb128 0xa
 1468 0370 F6090000 		.4byte	.LASF73
 1469 0374 08       		.byte	0x8
 1470 0375 70       		.byte	0x70
 1471 0376 CF000000 		.4byte	0xcf
 1472 037a 5E       		.byte	0x5e
 1473 037b 0A       		.uleb128 0xa
 1474 037c C4120000 		.4byte	.LASF74
 1475 0380 08       		.byte	0x8
 1476 0381 71       		.byte	0x71
 1477 0382 CF000000 		.4byte	0xcf
 1478 0386 5F       		.byte	0x5f
 1479 0387 0A       		.uleb128 0xa
 1480 0388 F9070000 		.4byte	.LASF75
 1481 038c 08       		.byte	0x8
 1482 038d 72       		.byte	0x72
 1483 038e CF000000 		.4byte	0xcf
 1484 0392 60       		.byte	0x60
 1485 0393 0A       		.uleb128 0xa
 1486 0394 1F090000 		.4byte	.LASF76
 1487 0398 08       		.byte	0x8
 1488 0399 73       		.byte	0x73
 1489 039a FB000000 		.4byte	0xfb
 1490 039e 64       		.byte	0x64
 1491 039f 0A       		.uleb128 0xa
 1492 03a0 8C0D0000 		.4byte	.LASF77
 1493 03a4 08       		.byte	0x8
 1494 03a5 76       		.byte	0x76
 1495 03a6 E5000000 		.4byte	0xe5
 1496 03aa 68       		.byte	0x68
 1497 03ab 0A       		.uleb128 0xa
 1498 03ac F80C0000 		.4byte	.LASF78
 1499 03b0 08       		.byte	0x8
 1500 03b1 77       		.byte	0x77
 1501 03b2 E5000000 		.4byte	0xe5
 1502 03b6 6A       		.byte	0x6a
 1503 03b7 0A       		.uleb128 0xa
 1504 03b8 D70A0000 		.4byte	.LASF79
 1505 03bc 08       		.byte	0x8
 1506 03bd 78       		.byte	0x78
 1507 03be E5000000 		.4byte	0xe5
 1508 03c2 6C       		.byte	0x6c
 1509 03c3 0A       		.uleb128 0xa
 1510 03c4 81020000 		.4byte	.LASF80
 1511 03c8 08       		.byte	0x8
 1512 03c9 79       		.byte	0x79
 1513 03ca E5000000 		.4byte	0xe5
 1514 03ce 6E       		.byte	0x6e
 1515 03cf 0A       		.uleb128 0xa
 1516 03d0 80090000 		.4byte	.LASF81
ARM GAS  C:\Users\tmj32\AppData\Local\Temp\cco3Klhe.s 			page 48


 1517 03d4 08       		.byte	0x8
 1518 03d5 7B       		.byte	0x7b
 1519 03d6 CF000000 		.4byte	0xcf
 1520 03da 70       		.byte	0x70
 1521 03db 0A       		.uleb128 0xa
 1522 03dc 43030000 		.4byte	.LASF82
 1523 03e0 08       		.byte	0x8
 1524 03e1 7C       		.byte	0x7c
 1525 03e2 CF000000 		.4byte	0xcf
 1526 03e6 71       		.byte	0x71
 1527 03e7 0A       		.uleb128 0xa
 1528 03e8 E4050000 		.4byte	.LASF83
 1529 03ec 08       		.byte	0x8
 1530 03ed 7D       		.byte	0x7d
 1531 03ee CF000000 		.4byte	0xcf
 1532 03f2 72       		.byte	0x72
 1533 03f3 0A       		.uleb128 0xa
 1534 03f4 5F080000 		.4byte	.LASF84
 1535 03f8 08       		.byte	0x8
 1536 03f9 7E       		.byte	0x7e
 1537 03fa CF000000 		.4byte	0xcf
 1538 03fe 73       		.byte	0x73
 1539 03ff 0A       		.uleb128 0xa
 1540 0400 060E0000 		.4byte	.LASF85
 1541 0404 08       		.byte	0x8
 1542 0405 80       		.byte	0x80
 1543 0406 E5000000 		.4byte	0xe5
 1544 040a 74       		.byte	0x74
 1545 040b 0A       		.uleb128 0xa
 1546 040c 830C0000 		.4byte	.LASF86
 1547 0410 08       		.byte	0x8
 1548 0411 81       		.byte	0x81
 1549 0412 E5000000 		.4byte	0xe5
 1550 0416 76       		.byte	0x76
 1551 0417 0A       		.uleb128 0xa
 1552 0418 9B130000 		.4byte	.LASF87
 1553 041c 08       		.byte	0x8
 1554 041d 82       		.byte	0x82
 1555 041e E5000000 		.4byte	0xe5
 1556 0422 78       		.byte	0x78
 1557 0423 0A       		.uleb128 0xa
 1558 0424 380A0000 		.4byte	.LASF88
 1559 0428 08       		.byte	0x8
 1560 0429 83       		.byte	0x83
 1561 042a E5000000 		.4byte	0xe5
 1562 042e 7A       		.byte	0x7a
 1563 042f 0A       		.uleb128 0xa
 1564 0430 AC0F0000 		.4byte	.LASF89
 1565 0434 08       		.byte	0x8
 1566 0435 86       		.byte	0x86
 1567 0436 CF000000 		.4byte	0xcf
 1568 043a 7C       		.byte	0x7c
 1569 043b 0A       		.uleb128 0xa
 1570 043c 0E120000 		.4byte	.LASF90
 1571 0440 08       		.byte	0x8
 1572 0441 87       		.byte	0x87
 1573 0442 CF000000 		.4byte	0xcf
ARM GAS  C:\Users\tmj32\AppData\Local\Temp\cco3Klhe.s 			page 49


 1574 0446 7D       		.byte	0x7d
 1575 0447 0A       		.uleb128 0xa
 1576 0448 2B050000 		.4byte	.LASF91
 1577 044c 08       		.byte	0x8
 1578 044d 88       		.byte	0x88
 1579 044e CF000000 		.4byte	0xcf
 1580 0452 7E       		.byte	0x7e
 1581 0453 0A       		.uleb128 0xa
 1582 0454 C2040000 		.4byte	.LASF92
 1583 0458 08       		.byte	0x8
 1584 0459 89       		.byte	0x89
 1585 045a CF000000 		.4byte	0xcf
 1586 045e 7F       		.byte	0x7f
 1587 045f 0A       		.uleb128 0xa
 1588 0460 7C050000 		.4byte	.LASF93
 1589 0464 08       		.byte	0x8
 1590 0465 8A       		.byte	0x8a
 1591 0466 CF000000 		.4byte	0xcf
 1592 046a 80       		.byte	0x80
 1593 046b 0A       		.uleb128 0xa
 1594 046c 7C000000 		.4byte	.LASF94
 1595 0470 08       		.byte	0x8
 1596 0471 8D       		.byte	0x8d
 1597 0472 FB000000 		.4byte	0xfb
 1598 0476 84       		.byte	0x84
 1599 0477 0A       		.uleb128 0xa
 1600 0478 E90F0000 		.4byte	.LASF95
 1601 047c 08       		.byte	0x8
 1602 047d 8E       		.byte	0x8e
 1603 047e FB000000 		.4byte	0xfb
 1604 0482 88       		.byte	0x88
 1605 0483 0A       		.uleb128 0xa
 1606 0484 B60B0000 		.4byte	.LASF96
 1607 0488 08       		.byte	0x8
 1608 0489 8F       		.byte	0x8f
 1609 048a FB000000 		.4byte	0xfb
 1610 048e 8C       		.byte	0x8c
 1611 048f 0A       		.uleb128 0xa
 1612 0490 EB140000 		.4byte	.LASF97
 1613 0494 08       		.byte	0x8
 1614 0495 90       		.byte	0x90
 1615 0496 FB000000 		.4byte	0xfb
 1616 049a 90       		.byte	0x90
 1617 049b 0A       		.uleb128 0xa
 1618 049c 7C0F0000 		.4byte	.LASF98
 1619 04a0 08       		.byte	0x8
 1620 04a1 91       		.byte	0x91
 1621 04a2 FB000000 		.4byte	0xfb
 1622 04a6 94       		.byte	0x94
 1623 04a7 0A       		.uleb128 0xa
 1624 04a8 58030000 		.4byte	.LASF99
 1625 04ac 08       		.byte	0x8
 1626 04ad 92       		.byte	0x92
 1627 04ae FB000000 		.4byte	0xfb
 1628 04b2 98       		.byte	0x98
 1629 04b3 0A       		.uleb128 0xa
 1630 04b4 17100000 		.4byte	.LASF100
ARM GAS  C:\Users\tmj32\AppData\Local\Temp\cco3Klhe.s 			page 50


 1631 04b8 08       		.byte	0x8
 1632 04b9 93       		.byte	0x93
 1633 04ba FB000000 		.4byte	0xfb
 1634 04be 9C       		.byte	0x9c
 1635 04bf 0A       		.uleb128 0xa
 1636 04c0 C4070000 		.4byte	.LASF101
 1637 04c4 08       		.byte	0x8
 1638 04c5 94       		.byte	0x94
 1639 04c6 FB000000 		.4byte	0xfb
 1640 04ca A0       		.byte	0xa0
 1641 04cb 0A       		.uleb128 0xa
 1642 04cc 6E030000 		.4byte	.LASF102
 1643 04d0 08       		.byte	0x8
 1644 04d1 95       		.byte	0x95
 1645 04d2 E5000000 		.4byte	0xe5
 1646 04d6 A4       		.byte	0xa4
 1647 04d7 0A       		.uleb128 0xa
 1648 04d8 E60D0000 		.4byte	.LASF103
 1649 04dc 08       		.byte	0x8
 1650 04dd 96       		.byte	0x96
 1651 04de E5000000 		.4byte	0xe5
 1652 04e2 A6       		.byte	0xa6
 1653 04e3 0A       		.uleb128 0xa
 1654 04e4 60100000 		.4byte	.LASF104
 1655 04e8 08       		.byte	0x8
 1656 04e9 97       		.byte	0x97
 1657 04ea E5000000 		.4byte	0xe5
 1658 04ee A8       		.byte	0xa8
 1659 04ef 0A       		.uleb128 0xa
 1660 04f0 D4090000 		.4byte	.LASF105
 1661 04f4 08       		.byte	0x8
 1662 04f5 98       		.byte	0x98
 1663 04f6 E5000000 		.4byte	0xe5
 1664 04fa AA       		.byte	0xaa
 1665 04fb 0A       		.uleb128 0xa
 1666 04fc 9C020000 		.4byte	.LASF106
 1667 0500 08       		.byte	0x8
 1668 0501 99       		.byte	0x99
 1669 0502 E5000000 		.4byte	0xe5
 1670 0506 AC       		.byte	0xac
 1671 0507 0A       		.uleb128 0xa
 1672 0508 F60B0000 		.4byte	.LASF107
 1673 050c 08       		.byte	0x8
 1674 050d 9A       		.byte	0x9a
 1675 050e E5000000 		.4byte	0xe5
 1676 0512 AE       		.byte	0xae
 1677 0513 0A       		.uleb128 0xa
 1678 0514 AA020000 		.4byte	.LASF108
 1679 0518 08       		.byte	0x8
 1680 0519 9D       		.byte	0x9d
 1681 051a E5000000 		.4byte	0xe5
 1682 051e B0       		.byte	0xb0
 1683 051f 0A       		.uleb128 0xa
 1684 0520 2B110000 		.4byte	.LASF109
 1685 0524 08       		.byte	0x8
 1686 0525 9E       		.byte	0x9e
 1687 0526 FB000000 		.4byte	0xfb
ARM GAS  C:\Users\tmj32\AppData\Local\Temp\cco3Klhe.s 			page 51


 1688 052a B4       		.byte	0xb4
 1689 052b 00       		.byte	0
 1690 052c 02       		.uleb128 0x2
 1691 052d 12130000 		.4byte	.LASF110
 1692 0531 08       		.byte	0x8
 1693 0532 9F       		.byte	0x9f
 1694 0533 1B010000 		.4byte	0x11b
 1695 0537 03       		.uleb128 0x3
 1696 0538 04       		.byte	0x4
 1697 0539 04       		.byte	0x4
 1698 053a F0040000 		.4byte	.LASF111
 1699 053e 03       		.uleb128 0x3
 1700 053f 08       		.byte	0x8
 1701 0540 04       		.byte	0x4
 1702 0541 81130000 		.4byte	.LASF112
 1703 0545 0B       		.uleb128 0xb
 1704 0546 7B130000 		.4byte	.LASF113
 1705 054a 09       		.byte	0x9
 1706 054b EA03     		.2byte	0x3ea
 1707 054d CF000000 		.4byte	0xcf
 1708 0551 03       		.uleb128 0x3
 1709 0552 01       		.byte	0x1
 1710 0553 02       		.byte	0x2
 1711 0554 30070000 		.4byte	.LASF114
 1712 0558 0C       		.uleb128 0xc
 1713 0559 01       		.byte	0x1
 1714 055a 42000000 		.4byte	0x42
 1715 055e 0A       		.byte	0xa
 1716 055f 2402     		.2byte	0x224
 1717 0561 72050000 		.4byte	0x572
 1718 0565 0D       		.uleb128 0xd
 1719 0566 4B080000 		.4byte	.LASF115
 1720 056a 00       		.byte	0
 1721 056b 0D       		.uleb128 0xd
 1722 056c B8020000 		.4byte	.LASF116
 1723 0570 01       		.byte	0x1
 1724 0571 00       		.byte	0
 1725 0572 0B       		.uleb128 0xb
 1726 0573 52020000 		.4byte	.LASF117
 1727 0577 0A       		.byte	0xa
 1728 0578 2702     		.2byte	0x227
 1729 057a 58050000 		.4byte	0x558
 1730 057e 0B       		.uleb128 0xb
 1731 057f 7F0A0000 		.4byte	.LASF118
 1732 0583 0A       		.byte	0xa
 1733 0584 3902     		.2byte	0x239
 1734 0586 8A050000 		.4byte	0x58a
 1735 058a 0E       		.uleb128 0xe
 1736 058b 04       		.byte	0x4
 1737 058c 90050000 		.4byte	0x590
 1738 0590 0F       		.uleb128 0xf
 1739 0591 9B050000 		.4byte	0x59b
 1740 0595 10       		.uleb128 0x10
 1741 0596 FB000000 		.4byte	0xfb
 1742 059a 00       		.byte	0
 1743 059b 0B       		.uleb128 0xb
 1744 059c D2020000 		.4byte	.LASF119
ARM GAS  C:\Users\tmj32\AppData\Local\Temp\cco3Klhe.s 			page 52


 1745 05a0 0A       		.byte	0xa
 1746 05a1 4402     		.2byte	0x244
 1747 05a3 A7050000 		.4byte	0x5a7
 1748 05a7 0E       		.uleb128 0xe
 1749 05a8 04       		.byte	0x4
 1750 05a9 AD050000 		.4byte	0x5ad
 1751 05ad 11       		.uleb128 0x11
 1752 05ae 72050000 		.4byte	0x572
 1753 05b2 BC050000 		.4byte	0x5bc
 1754 05b6 10       		.uleb128 0x10
 1755 05b7 FB000000 		.4byte	0xfb
 1756 05bb 00       		.byte	0
 1757 05bc 12       		.uleb128 0x12
 1758 05bd 12030000 		.4byte	.LASF143
 1759 05c1 4C       		.byte	0x4c
 1760 05c2 0A       		.byte	0xa
 1761 05c3 C302     		.2byte	0x2c3
 1762 05c5 DB060000 		.4byte	0x6db
 1763 05c9 13       		.uleb128 0x13
 1764 05ca 54070000 		.4byte	.LASF120
 1765 05ce 0A       		.byte	0xa
 1766 05cf C602     		.2byte	0x2c6
 1767 05d1 51050000 		.4byte	0x551
 1768 05d5 00       		.byte	0
 1769 05d6 13       		.uleb128 0x13
 1770 05d7 700A0000 		.4byte	.LASF121
 1771 05db 0A       		.byte	0xa
 1772 05dc C702     		.2byte	0x2c7
 1773 05de 51050000 		.4byte	0x551
 1774 05e2 01       		.byte	0x1
 1775 05e3 13       		.uleb128 0x13
 1776 05e4 C8110000 		.4byte	.LASF122
 1777 05e8 0A       		.byte	0xa
 1778 05e9 C902     		.2byte	0x2c9
 1779 05eb 06010000 		.4byte	0x106
 1780 05ef 04       		.byte	0x4
 1781 05f0 13       		.uleb128 0x13
 1782 05f1 9F000000 		.4byte	.LASF123
 1783 05f5 0A       		.byte	0xa
 1784 05f6 CB02     		.2byte	0x2cb
 1785 05f8 06010000 		.4byte	0x106
 1786 05fc 08       		.byte	0x8
 1787 05fd 13       		.uleb128 0x13
 1788 05fe 0F0C0000 		.4byte	.LASF124
 1789 0602 0A       		.byte	0xa
 1790 0603 CC02     		.2byte	0x2cc
 1791 0605 51050000 		.4byte	0x551
 1792 0609 0C       		.byte	0xc
 1793 060a 13       		.uleb128 0x13
 1794 060b B20A0000 		.4byte	.LASF125
 1795 060f 0A       		.byte	0xa
 1796 0610 CD02     		.2byte	0x2cd
 1797 0612 51050000 		.4byte	0x551
 1798 0616 0D       		.byte	0xd
 1799 0617 13       		.uleb128 0x13
 1800 0618 0A0D0000 		.4byte	.LASF126
 1801 061c 0A       		.byte	0xa
ARM GAS  C:\Users\tmj32\AppData\Local\Temp\cco3Klhe.s 			page 53


 1802 061d CF02     		.2byte	0x2cf
 1803 061f DB060000 		.4byte	0x6db
 1804 0623 10       		.byte	0x10
 1805 0624 13       		.uleb128 0x13
 1806 0625 9C080000 		.4byte	.LASF127
 1807 0629 0A       		.byte	0xa
 1808 062a D002     		.2byte	0x2d0
 1809 062c FB000000 		.4byte	0xfb
 1810 0630 14       		.byte	0x14
 1811 0631 13       		.uleb128 0x13
 1812 0632 2A010000 		.4byte	.LASF128
 1813 0636 0A       		.byte	0xa
 1814 0637 D102     		.2byte	0x2d1
 1815 0639 06010000 		.4byte	0x106
 1816 063d 18       		.byte	0x18
 1817 063e 13       		.uleb128 0x13
 1818 063f BF060000 		.4byte	.LASF129
 1819 0643 0A       		.byte	0xa
 1820 0644 D202     		.2byte	0x2d2
 1821 0646 06010000 		.4byte	0x106
 1822 064a 1C       		.byte	0x1c
 1823 064b 13       		.uleb128 0x13
 1824 064c 6D150000 		.4byte	.LASF130
 1825 0650 0A       		.byte	0xa
 1826 0651 D402     		.2byte	0x2d4
 1827 0653 06010000 		.4byte	0x106
 1828 0657 20       		.byte	0x20
 1829 0658 13       		.uleb128 0x13
 1830 0659 71020000 		.4byte	.LASF131
 1831 065d 0A       		.byte	0xa
 1832 065e D502     		.2byte	0x2d5
 1833 0660 E1060000 		.4byte	0x6e1
 1834 0664 24       		.byte	0x24
 1835 0665 13       		.uleb128 0x13
 1836 0666 A8030000 		.4byte	.LASF132
 1837 066a 0A       		.byte	0xa
 1838 066b D702     		.2byte	0x2d7
 1839 066d DB060000 		.4byte	0x6db
 1840 0671 28       		.byte	0x28
 1841 0672 13       		.uleb128 0x13
 1842 0673 D2050000 		.4byte	.LASF133
 1843 0677 0A       		.byte	0xa
 1844 0678 D802     		.2byte	0x2d8
 1845 067a FB000000 		.4byte	0xfb
 1846 067e 2C       		.byte	0x2c
 1847 067f 13       		.uleb128 0x13
 1848 0680 6D040000 		.4byte	.LASF134
 1849 0684 0A       		.byte	0xa
 1850 0685 D902     		.2byte	0x2d9
 1851 0687 06010000 		.4byte	0x106
 1852 068b 30       		.byte	0x30
 1853 068c 13       		.uleb128 0x13
 1854 068d 5D090000 		.4byte	.LASF135
 1855 0691 0A       		.byte	0xa
 1856 0692 DA02     		.2byte	0x2da
 1857 0694 06010000 		.4byte	0x106
 1858 0698 34       		.byte	0x34
ARM GAS  C:\Users\tmj32\AppData\Local\Temp\cco3Klhe.s 			page 54


 1859 0699 13       		.uleb128 0x13
 1860 069a CD010000 		.4byte	.LASF136
 1861 069e 0A       		.byte	0xa
 1862 069f DC02     		.2byte	0x2dc
 1863 06a1 DB060000 		.4byte	0x6db
 1864 06a5 38       		.byte	0x38
 1865 06a6 13       		.uleb128 0x13
 1866 06a7 960C0000 		.4byte	.LASF137
 1867 06ab 0A       		.byte	0xa
 1868 06ac DD02     		.2byte	0x2dd
 1869 06ae FB000000 		.4byte	0xfb
 1870 06b2 3C       		.byte	0x3c
 1871 06b3 13       		.uleb128 0x13
 1872 06b4 E50B0000 		.4byte	.LASF138
 1873 06b8 0A       		.byte	0xa
 1874 06b9 DE02     		.2byte	0x2de
 1875 06bb 06010000 		.4byte	0x106
 1876 06bf 40       		.byte	0x40
 1877 06c0 13       		.uleb128 0x13
 1878 06c1 D9060000 		.4byte	.LASF139
 1879 06c5 0A       		.byte	0xa
 1880 06c6 E402     		.2byte	0x2e4
 1881 06c8 7E050000 		.4byte	0x57e
 1882 06cc 44       		.byte	0x44
 1883 06cd 13       		.uleb128 0x13
 1884 06ce 05020000 		.4byte	.LASF140
 1885 06d2 0A       		.byte	0xa
 1886 06d3 EB02     		.2byte	0x2eb
 1887 06d5 9B050000 		.4byte	0x59b
 1888 06d9 48       		.byte	0x48
 1889 06da 00       		.byte	0
 1890 06db 0E       		.uleb128 0xe
 1891 06dc 04       		.byte	0x4
 1892 06dd CF000000 		.4byte	0xcf
 1893 06e1 06       		.uleb128 0x6
 1894 06e2 51050000 		.4byte	0x551
 1895 06e6 0B       		.uleb128 0xb
 1896 06e7 BC130000 		.4byte	.LASF141
 1897 06eb 0A       		.byte	0xa
 1898 06ec EE02     		.2byte	0x2ee
 1899 06ee BC050000 		.4byte	0x5bc
 1900 06f2 0B       		.uleb128 0xb
 1901 06f3 10000000 		.4byte	.LASF142
 1902 06f7 0B       		.byte	0xb
 1903 06f8 F201     		.2byte	0x1f2
 1904 06fa 8A050000 		.4byte	0x58a
 1905 06fe 12       		.uleb128 0x12
 1906 06ff 64130000 		.4byte	.LASF144
 1907 0703 24       		.byte	0x24
 1908 0704 0B       		.byte	0xb
 1909 0705 7402     		.2byte	0x274
 1910 0707 81070000 		.4byte	0x781
 1911 070b 13       		.uleb128 0x13
 1912 070c 51090000 		.4byte	.LASF145
 1913 0710 0B       		.byte	0xb
 1914 0711 7702     		.2byte	0x277
 1915 0713 06010000 		.4byte	0x106
ARM GAS  C:\Users\tmj32\AppData\Local\Temp\cco3Klhe.s 			page 55


 1916 0717 00       		.byte	0
 1917 0718 13       		.uleb128 0x13
 1918 0719 45060000 		.4byte	.LASF146
 1919 071d 0B       		.byte	0xb
 1920 071e 7902     		.2byte	0x279
 1921 0720 B4000000 		.4byte	0xb4
 1922 0724 04       		.byte	0x4
 1923 0725 13       		.uleb128 0x13
 1924 0726 5D150000 		.4byte	.LASF147
 1925 072a 0B       		.byte	0xb
 1926 072b 7A02     		.2byte	0x27a
 1927 072d FB000000 		.4byte	0xfb
 1928 0731 08       		.byte	0x8
 1929 0732 13       		.uleb128 0x13
 1930 0733 EE080000 		.4byte	.LASF148
 1931 0737 0B       		.byte	0xb
 1932 0738 7B02     		.2byte	0x27b
 1933 073a 06010000 		.4byte	0x106
 1934 073e 0C       		.byte	0xc
 1935 073f 13       		.uleb128 0x13
 1936 0740 430C0000 		.4byte	.LASF149
 1937 0744 0B       		.byte	0xb
 1938 0745 7D02     		.2byte	0x27d
 1939 0747 B4000000 		.4byte	0xb4
 1940 074b 10       		.byte	0x10
 1941 074c 13       		.uleb128 0x13
 1942 074d 7A0B0000 		.4byte	.LASF150
 1943 0751 0B       		.byte	0xb
 1944 0752 7E02     		.2byte	0x27e
 1945 0754 FB000000 		.4byte	0xfb
 1946 0758 14       		.byte	0x14
 1947 0759 13       		.uleb128 0x13
 1948 075a 60010000 		.4byte	.LASF151
 1949 075e 0B       		.byte	0xb
 1950 075f 7F02     		.2byte	0x27f
 1951 0761 06010000 		.4byte	0x106
 1952 0765 18       		.byte	0x18
 1953 0766 13       		.uleb128 0x13
 1954 0767 D9060000 		.4byte	.LASF139
 1955 076b 0B       		.byte	0xb
 1956 076c 8502     		.2byte	0x285
 1957 076e F2060000 		.4byte	0x6f2
 1958 0772 1C       		.byte	0x1c
 1959 0773 13       		.uleb128 0x13
 1960 0774 0B090000 		.4byte	.LASF152
 1961 0778 0B       		.byte	0xb
 1962 0779 8802     		.2byte	0x288
 1963 077b FB000000 		.4byte	0xfb
 1964 077f 20       		.byte	0x20
 1965 0780 00       		.byte	0
 1966 0781 0B       		.uleb128 0xb
 1967 0782 070B0000 		.4byte	.LASF153
 1968 0786 0B       		.byte	0xb
 1969 0787 8B02     		.2byte	0x28b
 1970 0789 FE060000 		.4byte	0x6fe
 1971 078d 14       		.uleb128 0x14
 1972 078e A8120000 		.4byte	.LASF154
ARM GAS  C:\Users\tmj32\AppData\Local\Temp\cco3Klhe.s 			page 56


 1973 0792 4C       		.byte	0x4c
 1974 0793 0C       		.byte	0xc
 1975 0794 2F       		.byte	0x2f
 1976 0795 7E080000 		.4byte	0x87e
 1977 0799 0A       		.uleb128 0xa
 1978 079a 79120000 		.4byte	.LASF155
 1979 079e 0C       		.byte	0xc
 1980 079f 31       		.byte	0x31
 1981 07a0 FB000000 		.4byte	0xfb
 1982 07a4 00       		.byte	0
 1983 07a5 0A       		.uleb128 0xa
 1984 07a6 D2080000 		.4byte	.LASF156
 1985 07aa 0C       		.byte	0xc
 1986 07ab 33       		.byte	0x33
 1987 07ac FB000000 		.4byte	0xfb
 1988 07b0 04       		.byte	0x4
 1989 07b1 0A       		.uleb128 0xa
 1990 07b2 F00C0000 		.4byte	.LASF157
 1991 07b6 0C       		.byte	0xc
 1992 07b7 34       		.byte	0x34
 1993 07b8 FB000000 		.4byte	0xfb
 1994 07bc 08       		.byte	0x8
 1995 07bd 0A       		.uleb128 0xa
 1996 07be 010F0000 		.4byte	.LASF158
 1997 07c2 0C       		.byte	0xc
 1998 07c3 35       		.byte	0x35
 1999 07c4 FB000000 		.4byte	0xfb
 2000 07c8 0C       		.byte	0xc
 2001 07c9 0A       		.uleb128 0xa
 2002 07ca C1080000 		.4byte	.LASF159
 2003 07ce 0C       		.byte	0xc
 2004 07cf 37       		.byte	0x37
 2005 07d0 FB000000 		.4byte	0xfb
 2006 07d4 10       		.byte	0x10
 2007 07d5 0A       		.uleb128 0xa
 2008 07d6 EE020000 		.4byte	.LASF160
 2009 07da 0C       		.byte	0xc
 2010 07db 38       		.byte	0x38
 2011 07dc FB000000 		.4byte	0xfb
 2012 07e0 14       		.byte	0x14
 2013 07e1 0A       		.uleb128 0xa
 2014 07e2 F7020000 		.4byte	.LASF161
 2015 07e6 0C       		.byte	0xc
 2016 07e7 39       		.byte	0x39
 2017 07e8 FB000000 		.4byte	0xfb
 2018 07ec 18       		.byte	0x18
 2019 07ed 0A       		.uleb128 0xa
 2020 07ee 1B0C0000 		.4byte	.LASF162
 2021 07f2 0C       		.byte	0xc
 2022 07f3 3A       		.byte	0x3a
 2023 07f4 51050000 		.4byte	0x551
 2024 07f8 1C       		.byte	0x1c
 2025 07f9 0A       		.uleb128 0xa
 2026 07fa 4F0E0000 		.4byte	.LASF163
 2027 07fe 0C       		.byte	0xc
 2028 07ff 3C       		.byte	0x3c
 2029 0800 FB000000 		.4byte	0xfb
ARM GAS  C:\Users\tmj32\AppData\Local\Temp\cco3Klhe.s 			page 57


 2030 0804 20       		.byte	0x20
 2031 0805 0A       		.uleb128 0xa
 2032 0806 0F060000 		.4byte	.LASF164
 2033 080a 0C       		.byte	0xc
 2034 080b 3D       		.byte	0x3d
 2035 080c FB000000 		.4byte	0xfb
 2036 0810 24       		.byte	0x24
 2037 0811 0A       		.uleb128 0xa
 2038 0812 3E080000 		.4byte	.LASF165
 2039 0816 0C       		.byte	0xc
 2040 0817 3F       		.byte	0x3f
 2041 0818 FB000000 		.4byte	0xfb
 2042 081c 28       		.byte	0x28
 2043 081d 0A       		.uleb128 0xa
 2044 081e 290B0000 		.4byte	.LASF166
 2045 0822 0C       		.byte	0xc
 2046 0823 40       		.byte	0x40
 2047 0824 FB000000 		.4byte	0xfb
 2048 0828 2C       		.byte	0x2c
 2049 0829 0A       		.uleb128 0xa
 2050 082a 17050000 		.4byte	.LASF167
 2051 082e 0C       		.byte	0xc
 2052 082f 42       		.byte	0x42
 2053 0830 FB000000 		.4byte	0xfb
 2054 0834 30       		.byte	0x30
 2055 0835 0A       		.uleb128 0xa
 2056 0836 FA050000 		.4byte	.LASF168
 2057 083a 0C       		.byte	0xc
 2058 083b 43       		.byte	0x43
 2059 083c FB000000 		.4byte	0xfb
 2060 0840 34       		.byte	0x34
 2061 0841 0A       		.uleb128 0xa
 2062 0842 69010000 		.4byte	.LASF169
 2063 0846 0C       		.byte	0xc
 2064 0847 45       		.byte	0x45
 2065 0848 FB000000 		.4byte	0xfb
 2066 084c 38       		.byte	0x38
 2067 084d 0A       		.uleb128 0xa
 2068 084e 4A000000 		.4byte	.LASF170
 2069 0852 0C       		.byte	0xc
 2070 0853 46       		.byte	0x46
 2071 0854 FB000000 		.4byte	0xfb
 2072 0858 3C       		.byte	0x3c
 2073 0859 0A       		.uleb128 0xa
 2074 085a 2C020000 		.4byte	.LASF171
 2075 085e 0C       		.byte	0xc
 2076 085f 48       		.byte	0x48
 2077 0860 FB000000 		.4byte	0xfb
 2078 0864 40       		.byte	0x40
 2079 0865 0A       		.uleb128 0xa
 2080 0866 B40E0000 		.4byte	.LASF172
 2081 086a 0C       		.byte	0xc
 2082 086b 49       		.byte	0x49
 2083 086c FB000000 		.4byte	0xfb
 2084 0870 44       		.byte	0x44
 2085 0871 0A       		.uleb128 0xa
 2086 0872 44110000 		.4byte	.LASF173
ARM GAS  C:\Users\tmj32\AppData\Local\Temp\cco3Klhe.s 			page 58


 2087 0876 0C       		.byte	0xc
 2088 0877 4B       		.byte	0x4b
 2089 0878 FB000000 		.4byte	0xfb
 2090 087c 48       		.byte	0x48
 2091 087d 00       		.byte	0
 2092 087e 02       		.uleb128 0x2
 2093 087f 3A0D0000 		.4byte	.LASF174
 2094 0883 0C       		.byte	0xc
 2095 0884 4C       		.byte	0x4c
 2096 0885 8D070000 		.4byte	0x78d
 2097 0889 02       		.uleb128 0x2
 2098 088a 3A0F0000 		.4byte	.LASF175
 2099 088e 0D       		.byte	0xd
 2100 088f 3C       		.byte	0x3c
 2101 0890 DA000000 		.4byte	0xda
 2102 0894 02       		.uleb128 0x2
 2103 0895 200B0000 		.4byte	.LASF176
 2104 0899 0E       		.byte	0xe
 2105 089a 2C       		.byte	0x2c
 2106 089b CF000000 		.4byte	0xcf
 2107 089f 02       		.uleb128 0x2
 2108 08a0 F2060000 		.4byte	.LASF177
 2109 08a4 0F       		.byte	0xf
 2110 08a5 1E       		.byte	0x1e
 2111 08a6 CF000000 		.4byte	0xcf
 2112 08aa 09       		.uleb128 0x9
 2113 08ab 0C       		.byte	0xc
 2114 08ac 0F       		.byte	0xf
 2115 08ad 21       		.byte	0x21
 2116 08ae D7080000 		.4byte	0x8d7
 2117 08b2 0A       		.uleb128 0xa
 2118 08b3 6A020000 		.4byte	.LASF178
 2119 08b7 0F       		.byte	0xf
 2120 08b8 23       		.byte	0x23
 2121 08b9 FB000000 		.4byte	0xfb
 2122 08bd 00       		.byte	0
 2123 08be 0A       		.uleb128 0xa
 2124 08bf BD050000 		.4byte	.LASF179
 2125 08c3 0F       		.byte	0xf
 2126 08c4 24       		.byte	0x24
 2127 08c5 D7080000 		.4byte	0x8d7
 2128 08c9 04       		.byte	0x4
 2129 08ca 0A       		.uleb128 0xa
 2130 08cb 82110000 		.4byte	.LASF180
 2131 08cf 0F       		.byte	0xf
 2132 08d0 25       		.byte	0x25
 2133 08d1 D7080000 		.4byte	0x8d7
 2134 08d5 08       		.byte	0x8
 2135 08d6 00       		.byte	0
 2136 08d7 0E       		.uleb128 0xe
 2137 08d8 04       		.byte	0x4
 2138 08d9 9F080000 		.4byte	0x89f
 2139 08dd 02       		.uleb128 0x2
 2140 08de 4E050000 		.4byte	.LASF181
 2141 08e2 0F       		.byte	0xf
 2142 08e3 26       		.byte	0x26
 2143 08e4 AA080000 		.4byte	0x8aa
ARM GAS  C:\Users\tmj32\AppData\Local\Temp\cco3Klhe.s 			page 59


 2144 08e8 09       		.uleb128 0x9
 2145 08e9 04       		.byte	0x4
 2146 08ea 01       		.byte	0x1
 2147 08eb F3       		.byte	0xf3
 2148 08ec 21090000 		.4byte	0x921
 2149 08f0 0A       		.uleb128 0xa
 2150 08f1 290F0000 		.4byte	.LASF182
 2151 08f5 01       		.byte	0x1
 2152 08f6 F5       		.byte	0xf5
 2153 08f7 CF000000 		.4byte	0xcf
 2154 08fb 00       		.byte	0
 2155 08fc 0A       		.uleb128 0xa
 2156 08fd B90C0000 		.4byte	.LASF183
 2157 0901 01       		.byte	0x1
 2158 0902 F6       		.byte	0xf6
 2159 0903 CF000000 		.4byte	0xcf
 2160 0907 01       		.byte	0x1
 2161 0908 15       		.uleb128 0x15
 2162 0909 72656400 		.ascii	"red\000"
 2163 090d 01       		.byte	0x1
 2164 090e F7       		.byte	0xf7
 2165 090f CF000000 		.4byte	0xcf
 2166 0913 02       		.byte	0x2
 2167 0914 0A       		.uleb128 0xa
 2168 0915 09060000 		.4byte	.LASF184
 2169 0919 01       		.byte	0x1
 2170 091a F8       		.byte	0xf8
 2171 091b CF000000 		.4byte	0xcf
 2172 091f 03       		.byte	0x3
 2173 0920 00       		.byte	0
 2174 0921 16       		.uleb128 0x16
 2175 0922 04       		.byte	0x4
 2176 0923 01       		.byte	0x1
 2177 0924 F1       		.byte	0xf1
 2178 0925 3F090000 		.4byte	0x93f
 2179 0929 17       		.uleb128 0x17
 2180 092a 636800   		.ascii	"ch\000"
 2181 092d 01       		.byte	0x1
 2182 092e F9       		.byte	0xf9
 2183 092f E8080000 		.4byte	0x8e8
 2184 0933 18       		.uleb128 0x18
 2185 0934 45000000 		.4byte	.LASF185
 2186 0938 01       		.byte	0x1
 2187 0939 FA       		.byte	0xfa
 2188 093a FB000000 		.4byte	0xfb
 2189 093e 00       		.byte	0
 2190 093f 02       		.uleb128 0x2
 2191 0940 A5040000 		.4byte	.LASF186
 2192 0944 01       		.byte	0x1
 2193 0945 FB       		.byte	0xfb
 2194 0946 21090000 		.4byte	0x921
 2195 094a 0B       		.uleb128 0xb
 2196 094b 4F0C0000 		.4byte	.LASF187
 2197 094f 01       		.byte	0x1
 2198 0950 0801     		.2byte	0x108
 2199 0952 3F090000 		.4byte	0x93f
 2200 0956 0B       		.uleb128 0xb
ARM GAS  C:\Users\tmj32\AppData\Local\Temp\cco3Klhe.s 			page 60


 2201 0957 750E0000 		.4byte	.LASF188
 2202 095b 01       		.byte	0x1
 2203 095c 0D01     		.2byte	0x10d
 2204 095e CF000000 		.4byte	0xcf
 2205 0962 09       		.uleb128 0x9
 2206 0963 08       		.byte	0x8
 2207 0964 10       		.byte	0x10
 2208 0965 31       		.byte	0x31
 2209 0966 97090000 		.4byte	0x997
 2210 096a 15       		.uleb128 0x15
 2211 096b 783100   		.ascii	"x1\000"
 2212 096e 10       		.byte	0x10
 2213 096f 33       		.byte	0x33
 2214 0970 89080000 		.4byte	0x889
 2215 0974 00       		.byte	0
 2216 0975 15       		.uleb128 0x15
 2217 0976 793100   		.ascii	"y1\000"
 2218 0979 10       		.byte	0x10
 2219 097a 34       		.byte	0x34
 2220 097b 89080000 		.4byte	0x889
 2221 097f 02       		.byte	0x2
 2222 0980 15       		.uleb128 0x15
 2223 0981 783200   		.ascii	"x2\000"
 2224 0984 10       		.byte	0x10
 2225 0985 35       		.byte	0x35
 2226 0986 89080000 		.4byte	0x889
 2227 098a 04       		.byte	0x4
 2228 098b 15       		.uleb128 0x15
 2229 098c 793200   		.ascii	"y2\000"
 2230 098f 10       		.byte	0x10
 2231 0990 36       		.byte	0x36
 2232 0991 89080000 		.4byte	0x889
 2233 0995 06       		.byte	0x6
 2234 0996 00       		.byte	0
 2235 0997 02       		.uleb128 0x2
 2236 0998 56120000 		.4byte	.LASF189
 2237 099c 10       		.byte	0x10
 2238 099d 37       		.byte	0x37
 2239 099e 62090000 		.4byte	0x962
 2240 09a2 0E       		.uleb128 0xe
 2241 09a3 04       		.byte	0x4
 2242 09a4 A8090000 		.4byte	0x9a8
 2243 09a8 19       		.uleb128 0x19
 2244 09a9 97090000 		.4byte	0x997
 2245 09ad 14       		.uleb128 0x14
 2246 09ae 06000000 		.4byte	.LASF190
 2247 09b2 40       		.byte	0x40
 2248 09b3 11       		.byte	0x11
 2249 09b4 BB       		.byte	0xbb
 2250 09b5 EF0A0000 		.4byte	0xaef
 2251 09b9 15       		.uleb128 0x15
 2252 09ba 70617200 		.ascii	"par\000"
 2253 09be 11       		.byte	0x11
 2254 09bf BD       		.byte	0xbd
 2255 09c0 EF0A0000 		.4byte	0xaef
 2256 09c4 00       		.byte	0
 2257 09c5 0A       		.uleb128 0xa
ARM GAS  C:\Users\tmj32\AppData\Local\Temp\cco3Klhe.s 			page 61


 2258 09c6 A2110000 		.4byte	.LASF191
 2259 09ca 11       		.byte	0x11
 2260 09cb BE       		.byte	0xbe
 2261 09cc DD080000 		.4byte	0x8dd
 2262 09d0 04       		.byte	0x4
 2263 09d1 0A       		.uleb128 0xa
 2264 09d2 480E0000 		.4byte	.LASF192
 2265 09d6 11       		.byte	0x11
 2266 09d7 C0       		.byte	0xc0
 2267 09d8 97090000 		.4byte	0x997
 2268 09dc 10       		.byte	0x10
 2269 09dd 0A       		.uleb128 0xa
 2270 09de EA110000 		.4byte	.LASF193
 2271 09e2 11       		.byte	0x11
 2272 09e3 C2       		.byte	0xc2
 2273 09e4 3E0F0000 		.4byte	0xf3e
 2274 09e8 18       		.byte	0x18
 2275 09e9 0A       		.uleb128 0xa
 2276 09ea D5130000 		.4byte	.LASF194
 2277 09ee 11       		.byte	0x11
 2278 09ef C3       		.byte	0xc3
 2279 09f0 6A0F0000 		.4byte	0xf6a
 2280 09f4 1C       		.byte	0x1c
 2281 09f5 0A       		.uleb128 0xa
 2282 09f6 F3110000 		.4byte	.LASF195
 2283 09fa 11       		.byte	0x11
 2284 09fb C4       		.byte	0xc4
 2285 09fc 840E0000 		.4byte	0xe84
 2286 0a00 20       		.byte	0x20
 2287 0a01 0A       		.uleb128 0xa
 2288 0a02 39120000 		.4byte	.LASF196
 2289 0a06 11       		.byte	0x11
 2290 0a07 C6       		.byte	0xc6
 2291 0a08 B4000000 		.4byte	0xb4
 2292 0a0c 24       		.byte	0x24
 2293 0a0d 0A       		.uleb128 0xa
 2294 0a0e 9F060000 		.4byte	.LASF197
 2295 0a12 11       		.byte	0x11
 2296 0a13 C7       		.byte	0xc7
 2297 0a14 A2100000 		.4byte	0x10a2
 2298 0a18 28       		.byte	0x28
 2299 0a19 1A       		.uleb128 0x1a
 2300 0a1a 00000000 		.4byte	.LASF198
 2301 0a1e 11       		.byte	0x11
 2302 0a1f D7       		.byte	0xd7
 2303 0a20 CF000000 		.4byte	0xcf
 2304 0a24 01       		.byte	0x1
 2305 0a25 01       		.byte	0x1
 2306 0a26 07       		.byte	0x7
 2307 0a27 2C       		.byte	0x2c
 2308 0a28 1A       		.uleb128 0x1a
 2309 0a29 88130000 		.4byte	.LASF199
 2310 0a2d 11       		.byte	0x11
 2311 0a2e D8       		.byte	0xd8
 2312 0a2f CF000000 		.4byte	0xcf
 2313 0a33 01       		.byte	0x1
 2314 0a34 01       		.byte	0x1
ARM GAS  C:\Users\tmj32\AppData\Local\Temp\cco3Klhe.s 			page 62


 2315 0a35 06       		.byte	0x6
 2316 0a36 2C       		.byte	0x2c
 2317 0a37 1A       		.uleb128 0x1a
 2318 0a38 06010000 		.4byte	.LASF200
 2319 0a3c 11       		.byte	0x11
 2320 0a3d D9       		.byte	0xd9
 2321 0a3e CF000000 		.4byte	0xcf
 2322 0a42 01       		.byte	0x1
 2323 0a43 01       		.byte	0x1
 2324 0a44 05       		.byte	0x5
 2325 0a45 2C       		.byte	0x2c
 2326 0a46 1A       		.uleb128 0x1a
 2327 0a47 76080000 		.4byte	.LASF201
 2328 0a4b 11       		.byte	0x11
 2329 0a4c DA       		.byte	0xda
 2330 0a4d CF000000 		.4byte	0xcf
 2331 0a51 01       		.byte	0x1
 2332 0a52 01       		.byte	0x1
 2333 0a53 04       		.byte	0x4
 2334 0a54 2C       		.byte	0x2c
 2335 0a55 1A       		.uleb128 0x1a
 2336 0a56 80120000 		.4byte	.LASF202
 2337 0a5a 11       		.byte	0x11
 2338 0a5b DB       		.byte	0xdb
 2339 0a5c CF000000 		.4byte	0xcf
 2340 0a60 01       		.byte	0x1
 2341 0a61 01       		.byte	0x1
 2342 0a62 03       		.byte	0x3
 2343 0a63 2C       		.byte	0x2c
 2344 0a64 1B       		.uleb128 0x1b
 2345 0a65 746F7000 		.ascii	"top\000"
 2346 0a69 11       		.byte	0x11
 2347 0a6a DC       		.byte	0xdc
 2348 0a6b CF000000 		.4byte	0xcf
 2349 0a6f 01       		.byte	0x1
 2350 0a70 01       		.byte	0x1
 2351 0a71 02       		.byte	0x2
 2352 0a72 2C       		.byte	0x2c
 2353 0a73 1A       		.uleb128 0x1a
 2354 0a74 450F0000 		.4byte	.LASF203
 2355 0a78 11       		.byte	0x11
 2356 0a79 DD       		.byte	0xdd
 2357 0a7a CF000000 		.4byte	0xcf
 2358 0a7e 01       		.byte	0x1
 2359 0a7f 01       		.byte	0x1
 2360 0a80 01       		.byte	0x1
 2361 0a81 2C       		.byte	0x2c
 2362 0a82 1A       		.uleb128 0x1a
 2363 0a83 F0000000 		.4byte	.LASF204
 2364 0a87 11       		.byte	0x11
 2365 0a88 DE       		.byte	0xde
 2366 0a89 CF000000 		.4byte	0xcf
 2367 0a8d 01       		.byte	0x1
 2368 0a8e 01       		.byte	0x1
 2369 0a8f 00       		.byte	0
 2370 0a90 2C       		.byte	0x2c
 2371 0a91 1A       		.uleb128 0x1a
ARM GAS  C:\Users\tmj32\AppData\Local\Temp\cco3Klhe.s 			page 63


 2372 0a92 6E090000 		.4byte	.LASF205
 2373 0a96 11       		.byte	0x11
 2374 0a97 DF       		.byte	0xdf
 2375 0a98 97100000 		.4byte	0x1097
 2376 0a9c 01       		.byte	0x1
 2377 0a9d 02       		.byte	0x2
 2378 0a9e 06       		.byte	0x6
 2379 0a9f 2D       		.byte	0x2d
 2380 0aa0 1A       		.uleb128 0x1a
 2381 0aa1 E7000000 		.4byte	.LASF206
 2382 0aa5 11       		.byte	0x11
 2383 0aa6 E0       		.byte	0xe0
 2384 0aa7 6E0E0000 		.4byte	0xe6e
 2385 0aab 01       		.byte	0x1
 2386 0aac 02       		.byte	0x2
 2387 0aad 04       		.byte	0x4
 2388 0aae 2D       		.byte	0x2d
 2389 0aaf 1A       		.uleb128 0x1a
 2390 0ab0 22130000 		.4byte	.LASF207
 2391 0ab4 11       		.byte	0x11
 2392 0ab5 E1       		.byte	0xe1
 2393 0ab6 CF000000 		.4byte	0xcf
 2394 0aba 01       		.byte	0x1
 2395 0abb 03       		.byte	0x3
 2396 0abc 01       		.byte	0x1
 2397 0abd 2D       		.byte	0x2d
 2398 0abe 0A       		.uleb128 0xa
 2399 0abf E6100000 		.4byte	.LASF208
 2400 0ac3 11       		.byte	0x11
 2401 0ac4 E2       		.byte	0xe2
 2402 0ac5 CF000000 		.4byte	0xcf
 2403 0ac9 2E       		.byte	0x2e
 2404 0aca 0A       		.uleb128 0xa
 2405 0acb BD100000 		.4byte	.LASF209
 2406 0acf 11       		.byte	0x11
 2407 0ad0 E4       		.byte	0xe4
 2408 0ad1 56090000 		.4byte	0x956
 2409 0ad5 2F       		.byte	0x2f
 2410 0ad6 0A       		.uleb128 0xa
 2411 0ad7 AD080000 		.4byte	.LASF210
 2412 0adb 11       		.byte	0x11
 2413 0adc E6       		.byte	0xe6
 2414 0add 89080000 		.4byte	0x889
 2415 0ae1 30       		.byte	0x30
 2416 0ae2 0A       		.uleb128 0xa
 2417 0ae3 53040000 		.4byte	.LASF211
 2418 0ae7 11       		.byte	0x11
 2419 0ae8 E9       		.byte	0xe9
 2420 0ae9 8C100000 		.4byte	0x108c
 2421 0aed 34       		.byte	0x34
 2422 0aee 00       		.byte	0
 2423 0aef 0E       		.uleb128 0xe
 2424 0af0 04       		.byte	0x4
 2425 0af1 AD090000 		.4byte	0x9ad
 2426 0af5 09       		.uleb128 0x9
 2427 0af6 08       		.byte	0x8
 2428 0af7 12       		.byte	0x12
ARM GAS  C:\Users\tmj32\AppData\Local\Temp\cco3Klhe.s 			page 64


 2429 0af8 2E       		.byte	0x2e
 2430 0af9 460B0000 		.4byte	0xb46
 2431 0afd 0A       		.uleb128 0xa
 2432 0afe 67150000 		.4byte	.LASF212
 2433 0b02 12       		.byte	0x12
 2434 0b03 30       		.byte	0x30
 2435 0b04 E5000000 		.4byte	0xe5
 2436 0b08 00       		.byte	0
 2437 0b09 0A       		.uleb128 0xa
 2438 0b0a 6C100000 		.4byte	.LASF213
 2439 0b0e 12       		.byte	0x12
 2440 0b0f 31       		.byte	0x31
 2441 0b10 CF000000 		.4byte	0xcf
 2442 0b14 02       		.byte	0x2
 2443 0b15 0A       		.uleb128 0xa
 2444 0b16 D20F0000 		.4byte	.LASF214
 2445 0b1a 12       		.byte	0x12
 2446 0b1b 32       		.byte	0x32
 2447 0b1c CF000000 		.4byte	0xcf
 2448 0b20 03       		.byte	0x3
 2449 0b21 0A       		.uleb128 0xa
 2450 0b22 1E010000 		.4byte	.LASF215
 2451 0b26 12       		.byte	0x12
 2452 0b27 33       		.byte	0x33
 2453 0b28 C4000000 		.4byte	0xc4
 2454 0b2c 04       		.byte	0x4
 2455 0b2d 0A       		.uleb128 0xa
 2456 0b2e 24010000 		.4byte	.LASF216
 2457 0b32 12       		.byte	0x12
 2458 0b33 34       		.byte	0x34
 2459 0b34 C4000000 		.4byte	0xc4
 2460 0b38 05       		.byte	0x5
 2461 0b39 15       		.uleb128 0x15
 2462 0b3a 62707000 		.ascii	"bpp\000"
 2463 0b3e 12       		.byte	0x12
 2464 0b3f 35       		.byte	0x35
 2465 0b40 CF000000 		.4byte	0xcf
 2466 0b44 06       		.byte	0x6
 2467 0b45 00       		.byte	0
 2468 0b46 02       		.uleb128 0x2
 2469 0b47 F7080000 		.4byte	.LASF217
 2470 0b4b 12       		.byte	0x12
 2471 0b4c 36       		.byte	0x36
 2472 0b4d F50A0000 		.4byte	0xaf5
 2473 0b51 14       		.uleb128 0x14
 2474 0b52 5E070000 		.4byte	.LASF218
 2475 0b56 10       		.byte	0x10
 2476 0b57 12       		.byte	0x12
 2477 0b58 44       		.byte	0x44
 2478 0b59 A90B0000 		.4byte	0xba9
 2479 0b5d 0A       		.uleb128 0xa
 2480 0b5e 47010000 		.4byte	.LASF219
 2481 0b62 12       		.byte	0x12
 2482 0b63 47       		.byte	0x47
 2483 0b64 D80B0000 		.4byte	0xbd8
 2484 0b68 00       		.byte	0
 2485 0b69 0A       		.uleb128 0xa
ARM GAS  C:\Users\tmj32\AppData\Local\Temp\cco3Klhe.s 			page 65


 2486 0b6a 71110000 		.4byte	.LASF220
 2487 0b6e 12       		.byte	0x12
 2488 0b6f 4A       		.byte	0x4a
 2489 0b70 FD0B0000 		.4byte	0xbfd
 2490 0b74 04       		.byte	0x4
 2491 0b75 0A       		.uleb128 0xa
 2492 0b76 B8070000 		.4byte	.LASF221
 2493 0b7a 12       		.byte	0x12
 2494 0b7b 4D       		.byte	0x4d
 2495 0b7c CF000000 		.4byte	0xcf
 2496 0b80 08       		.byte	0x8
 2497 0b81 0A       		.uleb128 0xa
 2498 0b82 A0100000 		.4byte	.LASF222
 2499 0b86 12       		.byte	0x12
 2500 0b87 4E       		.byte	0x4e
 2501 0b88 C4000000 		.4byte	0xc4
 2502 0b8c 09       		.byte	0x9
 2503 0b8d 1A       		.uleb128 0x1a
 2504 0b8e 490C0000 		.4byte	.LASF223
 2505 0b92 12       		.byte	0x12
 2506 0b93 4F       		.byte	0x4f
 2507 0b94 CF000000 		.4byte	0xcf
 2508 0b98 01       		.byte	0x1
 2509 0b99 02       		.byte	0x2
 2510 0b9a 06       		.byte	0x6
 2511 0b9b 0A       		.byte	0xa
 2512 0b9c 15       		.uleb128 0x15
 2513 0b9d 64736300 		.ascii	"dsc\000"
 2514 0ba1 12       		.byte	0x12
 2515 0ba2 50       		.byte	0x50
 2516 0ba3 B4000000 		.4byte	0xb4
 2517 0ba7 0C       		.byte	0xc
 2518 0ba8 00       		.byte	0
 2519 0ba9 11       		.uleb128 0x11
 2520 0baa 51050000 		.4byte	0x551
 2521 0bae C70B0000 		.4byte	0xbc7
 2522 0bb2 10       		.uleb128 0x10
 2523 0bb3 C70B0000 		.4byte	0xbc7
 2524 0bb7 10       		.uleb128 0x10
 2525 0bb8 D20B0000 		.4byte	0xbd2
 2526 0bbc 10       		.uleb128 0x10
 2527 0bbd FB000000 		.4byte	0xfb
 2528 0bc1 10       		.uleb128 0x10
 2529 0bc2 FB000000 		.4byte	0xfb
 2530 0bc6 00       		.byte	0
 2531 0bc7 0E       		.uleb128 0xe
 2532 0bc8 04       		.byte	0x4
 2533 0bc9 CD0B0000 		.4byte	0xbcd
 2534 0bcd 19       		.uleb128 0x19
 2535 0bce 510B0000 		.4byte	0xb51
 2536 0bd2 0E       		.uleb128 0xe
 2537 0bd3 04       		.byte	0x4
 2538 0bd4 460B0000 		.4byte	0xb46
 2539 0bd8 0E       		.uleb128 0xe
 2540 0bd9 04       		.byte	0x4
 2541 0bda A90B0000 		.4byte	0xba9
 2542 0bde 11       		.uleb128 0x11
ARM GAS  C:\Users\tmj32\AppData\Local\Temp\cco3Klhe.s 			page 66


 2543 0bdf F20B0000 		.4byte	0xbf2
 2544 0be3 F20B0000 		.4byte	0xbf2
 2545 0be7 10       		.uleb128 0x10
 2546 0be8 C70B0000 		.4byte	0xbc7
 2547 0bec 10       		.uleb128 0x10
 2548 0bed FB000000 		.4byte	0xfb
 2549 0bf1 00       		.byte	0
 2550 0bf2 0E       		.uleb128 0xe
 2551 0bf3 04       		.byte	0x4
 2552 0bf4 F80B0000 		.4byte	0xbf8
 2553 0bf8 19       		.uleb128 0x19
 2554 0bf9 CF000000 		.4byte	0xcf
 2555 0bfd 0E       		.uleb128 0xe
 2556 0bfe 04       		.byte	0x4
 2557 0bff DE0B0000 		.4byte	0xbde
 2558 0c03 02       		.uleb128 0x2
 2559 0c04 CF0D0000 		.4byte	.LASF224
 2560 0c08 12       		.byte	0x12
 2561 0c09 56       		.byte	0x56
 2562 0c0a 510B0000 		.4byte	0xb51
 2563 0c0e 1C       		.uleb128 0x1c
 2564 0c0f 01       		.byte	0x1
 2565 0c10 42000000 		.4byte	0x42
 2566 0c14 13       		.byte	0x13
 2567 0c15 23       		.byte	0x23
 2568 0c16 270C0000 		.4byte	0xc27
 2569 0c1a 0D       		.uleb128 0xd
 2570 0c1b AA100000 		.4byte	.LASF225
 2571 0c1f 00       		.byte	0
 2572 0c20 0D       		.uleb128 0xd
 2573 0c21 040C0000 		.4byte	.LASF226
 2574 0c25 01       		.byte	0x1
 2575 0c26 00       		.byte	0
 2576 0c27 02       		.uleb128 0x2
 2577 0c28 28120000 		.4byte	.LASF227
 2578 0c2c 13       		.byte	0x13
 2579 0c2d 28       		.byte	0x28
 2580 0c2e CF000000 		.4byte	0xcf
 2581 0c32 02       		.uleb128 0x2
 2582 0c33 5E0F0000 		.4byte	.LASF228
 2583 0c37 14       		.byte	0x14
 2584 0c38 2C       		.byte	0x2c
 2585 0c39 CF000000 		.4byte	0xcf
 2586 0c3d 02       		.uleb128 0x2
 2587 0c3e A4090000 		.4byte	.LASF229
 2588 0c42 14       		.byte	0x14
 2589 0c43 33       		.byte	0x33
 2590 0c44 CF000000 		.4byte	0xcf
 2591 0c48 09       		.uleb128 0x9
 2592 0c49 08       		.byte	0x8
 2593 0c4a 14       		.byte	0x14
 2594 0c4b 48       		.byte	0x48
 2595 0c4c 810C0000 		.4byte	0xc81
 2596 0c50 0A       		.uleb128 0xa
 2597 0c51 53060000 		.4byte	.LASF230
 2598 0c55 14       		.byte	0x14
 2599 0c56 4A       		.byte	0x4a
ARM GAS  C:\Users\tmj32\AppData\Local\Temp\cco3Klhe.s 			page 67


 2600 0c57 4A090000 		.4byte	0x94a
 2601 0c5b 00       		.byte	0
 2602 0c5c 0A       		.uleb128 0xa
 2603 0c5d A7060000 		.4byte	.LASF231
 2604 0c61 14       		.byte	0x14
 2605 0c62 4B       		.byte	0x4b
 2606 0c63 89080000 		.4byte	0x889
 2607 0c67 04       		.byte	0x4
 2608 0c68 0A       		.uleb128 0xa
 2609 0c69 90050000 		.4byte	.LASF232
 2610 0c6d 14       		.byte	0x14
 2611 0c6e 4C       		.byte	0x4c
 2612 0c6f 320C0000 		.4byte	0xc32
 2613 0c73 06       		.byte	0x6
 2614 0c74 15       		.uleb128 0x15
 2615 0c75 6F706100 		.ascii	"opa\000"
 2616 0c79 14       		.byte	0x14
 2617 0c7a 4D       		.byte	0x4d
 2618 0c7b 56090000 		.4byte	0x956
 2619 0c7f 07       		.byte	0x7
 2620 0c80 00       		.byte	0
 2621 0c81 09       		.uleb128 0x9
 2622 0c82 08       		.byte	0x8
 2623 0c83 14       		.byte	0x14
 2624 0c84 51       		.byte	0x51
 2625 0c85 AE0C0000 		.4byte	0xcae
 2626 0c89 0A       		.uleb128 0xa
 2627 0c8a 53060000 		.4byte	.LASF230
 2628 0c8e 14       		.byte	0x14
 2629 0c8f 53       		.byte	0x53
 2630 0c90 4A090000 		.4byte	0x94a
 2631 0c94 00       		.byte	0
 2632 0c95 0A       		.uleb128 0xa
 2633 0c96 A7060000 		.4byte	.LASF231
 2634 0c9a 14       		.byte	0x14
 2635 0c9b 54       		.byte	0x54
 2636 0c9c 89080000 		.4byte	0x889
 2637 0ca0 04       		.byte	0x4
 2638 0ca1 0A       		.uleb128 0xa
 2639 0ca2 58090000 		.4byte	.LASF233
 2640 0ca6 14       		.byte	0x14
 2641 0ca7 55       		.byte	0x55
 2642 0ca8 3D0C0000 		.4byte	0xc3d
 2643 0cac 06       		.byte	0x6
 2644 0cad 00       		.byte	0
 2645 0cae 09       		.uleb128 0x9
 2646 0caf 0A       		.byte	0xa
 2647 0cb0 14       		.byte	0x14
 2648 0cb1 58       		.byte	0x58
 2649 0cb2 F30C0000 		.4byte	0xcf3
 2650 0cb6 15       		.uleb128 0x15
 2651 0cb7 746F7000 		.ascii	"top\000"
 2652 0cbb 14       		.byte	0x14
 2653 0cbc 5A       		.byte	0x5a
 2654 0cbd 89080000 		.4byte	0x889
 2655 0cc1 00       		.byte	0
 2656 0cc2 0A       		.uleb128 0xa
ARM GAS  C:\Users\tmj32\AppData\Local\Temp\cco3Klhe.s 			page 68


 2657 0cc3 BA080000 		.4byte	.LASF234
 2658 0cc7 14       		.byte	0x14
 2659 0cc8 5B       		.byte	0x5b
 2660 0cc9 89080000 		.4byte	0x889
 2661 0ccd 02       		.byte	0x2
 2662 0cce 0A       		.uleb128 0xa
 2663 0ccf 6F0F0000 		.4byte	.LASF235
 2664 0cd3 14       		.byte	0x14
 2665 0cd4 5C       		.byte	0x5c
 2666 0cd5 89080000 		.4byte	0x889
 2667 0cd9 04       		.byte	0x4
 2668 0cda 0A       		.uleb128 0xa
 2669 0cdb CE090000 		.4byte	.LASF236
 2670 0cdf 14       		.byte	0x14
 2671 0ce0 5D       		.byte	0x5d
 2672 0ce1 89080000 		.4byte	0x889
 2673 0ce5 06       		.byte	0x6
 2674 0ce6 0A       		.uleb128 0xa
 2675 0ce7 67040000 		.4byte	.LASF237
 2676 0ceb 14       		.byte	0x14
 2677 0cec 5E       		.byte	0x5e
 2678 0ced 89080000 		.4byte	0x889
 2679 0cf1 08       		.byte	0x8
 2680 0cf2 00       		.byte	0
 2681 0cf3 09       		.uleb128 0x9
 2682 0cf4 28       		.byte	0x28
 2683 0cf5 14       		.byte	0x14
 2684 0cf6 41       		.byte	0x41
 2685 0cf7 500D0000 		.4byte	0xd50
 2686 0cfb 0A       		.uleb128 0xa
 2687 0cfc FB0D0000 		.4byte	.LASF238
 2688 0d00 14       		.byte	0x14
 2689 0d01 43       		.byte	0x43
 2690 0d02 4A090000 		.4byte	0x94a
 2691 0d06 00       		.byte	0
 2692 0d07 0A       		.uleb128 0xa
 2693 0d08 22080000 		.4byte	.LASF239
 2694 0d0c 14       		.byte	0x14
 2695 0d0d 44       		.byte	0x44
 2696 0d0e 4A090000 		.4byte	0x94a
 2697 0d12 04       		.byte	0x4
 2698 0d13 0A       		.uleb128 0xa
 2699 0d14 B6100000 		.4byte	.LASF240
 2700 0d18 14       		.byte	0x14
 2701 0d19 45       		.byte	0x45
 2702 0d1a 89080000 		.4byte	0x889
 2703 0d1e 08       		.byte	0x8
 2704 0d1f 15       		.uleb128 0x15
 2705 0d20 6F706100 		.ascii	"opa\000"
 2706 0d24 14       		.byte	0x14
 2707 0d25 46       		.byte	0x46
 2708 0d26 56090000 		.4byte	0x956
 2709 0d2a 0A       		.byte	0xa
 2710 0d2b 0A       		.uleb128 0xa
 2711 0d2c 100F0000 		.4byte	.LASF241
 2712 0d30 14       		.byte	0x14
 2713 0d31 4E       		.byte	0x4e
ARM GAS  C:\Users\tmj32\AppData\Local\Temp\cco3Klhe.s 			page 69


 2714 0d32 480C0000 		.4byte	0xc48
 2715 0d36 0C       		.byte	0xc
 2716 0d37 0A       		.uleb128 0xa
 2717 0d38 6A0C0000 		.4byte	.LASF242
 2718 0d3c 14       		.byte	0x14
 2719 0d3d 56       		.byte	0x56
 2720 0d3e 810C0000 		.4byte	0xc81
 2721 0d42 14       		.byte	0x14
 2722 0d43 0A       		.uleb128 0xa
 2723 0d44 4D0A0000 		.4byte	.LASF243
 2724 0d48 14       		.byte	0x14
 2725 0d49 5F       		.byte	0x5f
 2726 0d4a AE0C0000 		.4byte	0xcae
 2727 0d4e 1C       		.byte	0x1c
 2728 0d4f 00       		.byte	0
 2729 0d50 09       		.uleb128 0x9
 2730 0d51 14       		.byte	0x14
 2731 0d52 14       		.byte	0x14
 2732 0d53 63       		.byte	0x63
 2733 0d54 A10D0000 		.4byte	0xda1
 2734 0d58 0A       		.uleb128 0xa
 2735 0d59 53060000 		.4byte	.LASF230
 2736 0d5d 14       		.byte	0x14
 2737 0d5e 65       		.byte	0x65
 2738 0d5f 4A090000 		.4byte	0x94a
 2739 0d63 00       		.byte	0
 2740 0d64 0A       		.uleb128 0xa
 2741 0d65 F6040000 		.4byte	.LASF244
 2742 0d69 14       		.byte	0x14
 2743 0d6a 66       		.byte	0x66
 2744 0d6b 4A090000 		.4byte	0x94a
 2745 0d6f 04       		.byte	0x4
 2746 0d70 0A       		.uleb128 0xa
 2747 0d71 00020000 		.4byte	.LASF245
 2748 0d75 14       		.byte	0x14
 2749 0d76 67       		.byte	0x67
 2750 0d77 A10D0000 		.4byte	0xda1
 2751 0d7b 08       		.byte	0x8
 2752 0d7c 0A       		.uleb128 0xa
 2753 0d7d D90D0000 		.4byte	.LASF246
 2754 0d81 14       		.byte	0x14
 2755 0d82 68       		.byte	0x68
 2756 0d83 89080000 		.4byte	0x889
 2757 0d87 0C       		.byte	0xc
 2758 0d88 0A       		.uleb128 0xa
 2759 0d89 7F070000 		.4byte	.LASF247
 2760 0d8d 14       		.byte	0x14
 2761 0d8e 69       		.byte	0x69
 2762 0d8f 89080000 		.4byte	0x889
 2763 0d93 0E       		.byte	0xe
 2764 0d94 15       		.uleb128 0x15
 2765 0d95 6F706100 		.ascii	"opa\000"
 2766 0d99 14       		.byte	0x14
 2767 0d9a 6A       		.byte	0x6a
 2768 0d9b 56090000 		.4byte	0x956
 2769 0d9f 10       		.byte	0x10
 2770 0da0 00       		.byte	0
ARM GAS  C:\Users\tmj32\AppData\Local\Temp\cco3Klhe.s 			page 70


 2771 0da1 0E       		.uleb128 0xe
 2772 0da2 04       		.byte	0x4
 2773 0da3 A70D0000 		.4byte	0xda7
 2774 0da7 19       		.uleb128 0x19
 2775 0da8 030C0000 		.4byte	0xc03
 2776 0dac 09       		.uleb128 0x9
 2777 0dad 08       		.byte	0x8
 2778 0dae 14       		.byte	0x14
 2779 0daf 6E       		.byte	0x6e
 2780 0db0 D90D0000 		.4byte	0xdd9
 2781 0db4 0A       		.uleb128 0xa
 2782 0db5 53060000 		.4byte	.LASF230
 2783 0db9 14       		.byte	0x14
 2784 0dba 70       		.byte	0x70
 2785 0dbb 4A090000 		.4byte	0x94a
 2786 0dbf 00       		.byte	0
 2787 0dc0 0A       		.uleb128 0xa
 2788 0dc1 740F0000 		.4byte	.LASF248
 2789 0dc5 14       		.byte	0x14
 2790 0dc6 71       		.byte	0x71
 2791 0dc7 56090000 		.4byte	0x956
 2792 0dcb 04       		.byte	0x4
 2793 0dcc 15       		.uleb128 0x15
 2794 0dcd 6F706100 		.ascii	"opa\000"
 2795 0dd1 14       		.byte	0x14
 2796 0dd2 72       		.byte	0x72
 2797 0dd3 56090000 		.4byte	0x956
 2798 0dd7 05       		.byte	0x5
 2799 0dd8 00       		.byte	0
 2800 0dd9 09       		.uleb128 0x9
 2801 0dda 08       		.byte	0x8
 2802 0ddb 14       		.byte	0x14
 2803 0ddc 76       		.byte	0x76
 2804 0ddd 150E0000 		.4byte	0xe15
 2805 0de1 0A       		.uleb128 0xa
 2806 0de2 53060000 		.4byte	.LASF230
 2807 0de6 14       		.byte	0x14
 2808 0de7 78       		.byte	0x78
 2809 0de8 4A090000 		.4byte	0x94a
 2810 0dec 00       		.byte	0
 2811 0ded 0A       		.uleb128 0xa
 2812 0dee A7060000 		.4byte	.LASF231
 2813 0df2 14       		.byte	0x14
 2814 0df3 79       		.byte	0x79
 2815 0df4 89080000 		.4byte	0x889
 2816 0df8 04       		.byte	0x4
 2817 0df9 15       		.uleb128 0x15
 2818 0dfa 6F706100 		.ascii	"opa\000"
 2819 0dfe 14       		.byte	0x14
 2820 0dff 7A       		.byte	0x7a
 2821 0e00 56090000 		.4byte	0x956
 2822 0e04 06       		.byte	0x6
 2823 0e05 1A       		.uleb128 0x1a
 2824 0e06 78060000 		.4byte	.LASF249
 2825 0e0a 14       		.byte	0x14
 2826 0e0b 7B       		.byte	0x7b
 2827 0e0c CF000000 		.4byte	0xcf
ARM GAS  C:\Users\tmj32\AppData\Local\Temp\cco3Klhe.s 			page 71


 2828 0e10 01       		.byte	0x1
 2829 0e11 01       		.byte	0x1
 2830 0e12 07       		.byte	0x7
 2831 0e13 07       		.byte	0x7
 2832 0e14 00       		.byte	0
 2833 0e15 09       		.uleb128 0x9
 2834 0e16 50       		.byte	0x50
 2835 0e17 14       		.byte	0x14
 2836 0e18 3C       		.byte	0x3c
 2837 0e19 5D0E0000 		.4byte	0xe5d
 2838 0e1d 1A       		.uleb128 0x1a
 2839 0e1e F0090000 		.4byte	.LASF250
 2840 0e22 14       		.byte	0x14
 2841 0e23 3E       		.byte	0x3e
 2842 0e24 CF000000 		.4byte	0xcf
 2843 0e28 01       		.byte	0x1
 2844 0e29 01       		.byte	0x1
 2845 0e2a 07       		.byte	0x7
 2846 0e2b 00       		.byte	0
 2847 0e2c 0A       		.uleb128 0xa
 2848 0e2d C7100000 		.4byte	.LASF251
 2849 0e31 14       		.byte	0x14
 2850 0e32 60       		.byte	0x60
 2851 0e33 F30C0000 		.4byte	0xcf3
 2852 0e37 04       		.byte	0x4
 2853 0e38 0A       		.uleb128 0xa
 2854 0e39 260A0000 		.4byte	.LASF252
 2855 0e3d 14       		.byte	0x14
 2856 0e3e 6B       		.byte	0x6b
 2857 0e3f 500D0000 		.4byte	0xd50
 2858 0e43 2C       		.byte	0x2c
 2859 0e44 0A       		.uleb128 0xa
 2860 0e45 A2030000 		.4byte	.LASF253
 2861 0e49 14       		.byte	0x14
 2862 0e4a 73       		.byte	0x73
 2863 0e4b AC0D0000 		.4byte	0xdac
 2864 0e4f 40       		.byte	0x40
 2865 0e50 0A       		.uleb128 0xa
 2866 0e51 3F110000 		.4byte	.LASF254
 2867 0e55 14       		.byte	0x14
 2868 0e56 7C       		.byte	0x7c
 2869 0e57 D90D0000 		.4byte	0xdd9
 2870 0e5b 48       		.byte	0x48
 2871 0e5c 00       		.byte	0
 2872 0e5d 02       		.uleb128 0x2
 2873 0e5e 55010000 		.4byte	.LASF255
 2874 0e62 14       		.byte	0x14
 2875 0e63 84       		.byte	0x84
 2876 0e64 150E0000 		.4byte	0xe15
 2877 0e68 0E       		.uleb128 0xe
 2878 0e69 04       		.byte	0x4
 2879 0e6a 5D0E0000 		.4byte	0xe5d
 2880 0e6e 02       		.uleb128 0x2
 2881 0e6f BE0A0000 		.4byte	.LASF256
 2882 0e73 15       		.byte	0x15
 2883 0e74 30       		.byte	0x30
 2884 0e75 CF000000 		.4byte	0xcf
ARM GAS  C:\Users\tmj32\AppData\Local\Temp\cco3Klhe.s 			page 72


 2885 0e79 02       		.uleb128 0x2
 2886 0e7a CE110000 		.4byte	.LASF257
 2887 0e7e 11       		.byte	0x11
 2888 0e7f 42       		.byte	0x42
 2889 0e80 CF000000 		.4byte	0xcf
 2890 0e84 02       		.uleb128 0x2
 2891 0e85 BE010000 		.4byte	.LASF258
 2892 0e89 11       		.byte	0x11
 2893 0e8a 48       		.byte	0x48
 2894 0e8b 8F0E0000 		.4byte	0xe8f
 2895 0e8f 0E       		.uleb128 0xe
 2896 0e90 04       		.byte	0x4
 2897 0e91 950E0000 		.4byte	0xe95
 2898 0e95 11       		.uleb128 0x11
 2899 0e96 51050000 		.4byte	0x551
 2900 0e9a AE0E0000 		.4byte	0xeae
 2901 0e9e 10       		.uleb128 0x10
 2902 0e9f EF0A0000 		.4byte	0xaef
 2903 0ea3 10       		.uleb128 0x10
 2904 0ea4 A2090000 		.4byte	0x9a2
 2905 0ea8 10       		.uleb128 0x10
 2906 0ea9 790E0000 		.4byte	0xe79
 2907 0ead 00       		.byte	0
 2908 0eae 1C       		.uleb128 0x1c
 2909 0eaf 01       		.byte	0x1
 2910 0eb0 42000000 		.4byte	0x42
 2911 0eb4 11       		.byte	0x11
 2912 0eb5 4A       		.byte	0x4a
 2913 0eb6 330F0000 		.4byte	0xf33
 2914 0eba 0D       		.uleb128 0xd
 2915 0ebb 6E070000 		.4byte	.LASF259
 2916 0ebf 00       		.byte	0
 2917 0ec0 0D       		.uleb128 0xd
 2918 0ec1 170F0000 		.4byte	.LASF260
 2919 0ec5 01       		.byte	0x1
 2920 0ec6 0D       		.uleb128 0xd
 2921 0ec7 1C070000 		.4byte	.LASF261
 2922 0ecb 02       		.byte	0x2
 2923 0ecc 0D       		.uleb128 0xd
 2924 0ecd 08140000 		.4byte	.LASF262
 2925 0ed1 03       		.byte	0x3
 2926 0ed2 0D       		.uleb128 0xd
 2927 0ed3 1C150000 		.4byte	.LASF263
 2928 0ed7 04       		.byte	0x4
 2929 0ed8 0D       		.uleb128 0xd
 2930 0ed9 2B130000 		.4byte	.LASF264
 2931 0edd 05       		.byte	0x5
 2932 0ede 0D       		.uleb128 0xd
 2933 0edf A80C0000 		.4byte	.LASF265
 2934 0ee3 06       		.byte	0x6
 2935 0ee4 0D       		.uleb128 0xd
 2936 0ee5 180E0000 		.4byte	.LASF266
 2937 0ee9 07       		.byte	0x7
 2938 0eea 0D       		.uleb128 0xd
 2939 0eeb A20B0000 		.4byte	.LASF267
 2940 0eef 08       		.byte	0x8
 2941 0ef0 0D       		.uleb128 0xd
ARM GAS  C:\Users\tmj32\AppData\Local\Temp\cco3Klhe.s 			page 73


 2942 0ef1 40020000 		.4byte	.LASF268
 2943 0ef5 09       		.byte	0x9
 2944 0ef6 0D       		.uleb128 0xd
 2945 0ef7 11110000 		.4byte	.LASF269
 2946 0efb 0A       		.byte	0xa
 2947 0efc 0D       		.uleb128 0xd
 2948 0efd 00030000 		.4byte	.LASF270
 2949 0f01 0B       		.byte	0xb
 2950 0f02 0D       		.uleb128 0xd
 2951 0f03 D80F0000 		.4byte	.LASF271
 2952 0f07 0C       		.byte	0xc
 2953 0f08 0D       		.uleb128 0xd
 2954 0f09 8F0B0000 		.4byte	.LASF272
 2955 0f0d 0D       		.byte	0xd
 2956 0f0e 0D       		.uleb128 0xd
 2957 0f0f AC000000 		.4byte	.LASF273
 2958 0f13 0E       		.byte	0xe
 2959 0f14 0D       		.uleb128 0xd
 2960 0f15 B2040000 		.4byte	.LASF274
 2961 0f19 0F       		.byte	0xf
 2962 0f1a 0D       		.uleb128 0xd
 2963 0f1b D6000000 		.4byte	.LASF275
 2964 0f1f 10       		.byte	0x10
 2965 0f20 0D       		.uleb128 0xd
 2966 0f21 1D020000 		.4byte	.LASF276
 2967 0f25 11       		.byte	0x11
 2968 0f26 0D       		.uleb128 0xd
 2969 0f27 94090000 		.4byte	.LASF277
 2970 0f2b 12       		.byte	0x12
 2971 0f2c 0D       		.uleb128 0xd
 2972 0f2d E2060000 		.4byte	.LASF278
 2973 0f31 13       		.byte	0x13
 2974 0f32 00       		.byte	0
 2975 0f33 02       		.uleb128 0x2
 2976 0f34 CC0A0000 		.4byte	.LASF279
 2977 0f38 11       		.byte	0x11
 2978 0f39 61       		.byte	0x61
 2979 0f3a CF000000 		.4byte	0xcf
 2980 0f3e 02       		.uleb128 0x2
 2981 0f3f 32150000 		.4byte	.LASF280
 2982 0f43 11       		.byte	0x11
 2983 0f44 68       		.byte	0x68
 2984 0f45 490F0000 		.4byte	0xf49
 2985 0f49 0E       		.uleb128 0xe
 2986 0f4a 04       		.byte	0x4
 2987 0f4b 4F0F0000 		.4byte	0xf4f
 2988 0f4f 0F       		.uleb128 0xf
 2989 0f50 5F0F0000 		.4byte	0xf5f
 2990 0f54 10       		.uleb128 0x10
 2991 0f55 EF0A0000 		.4byte	0xaef
 2992 0f59 10       		.uleb128 0x10
 2993 0f5a 330F0000 		.4byte	0xf33
 2994 0f5e 00       		.byte	0
 2995 0f5f 02       		.uleb128 0x2
 2996 0f60 CC100000 		.4byte	.LASF281
 2997 0f64 11       		.byte	0x11
 2998 0f65 88       		.byte	0x88
ARM GAS  C:\Users\tmj32\AppData\Local\Temp\cco3Klhe.s 			page 74


 2999 0f66 CF000000 		.4byte	0xcf
 3000 0f6a 02       		.uleb128 0x2
 3001 0f6b 6D050000 		.4byte	.LASF282
 3002 0f6f 11       		.byte	0x11
 3003 0f70 8A       		.byte	0x8a
 3004 0f71 750F0000 		.4byte	0xf75
 3005 0f75 0E       		.uleb128 0xe
 3006 0f76 04       		.byte	0x4
 3007 0f77 7B0F0000 		.4byte	0xf7b
 3008 0f7b 11       		.uleb128 0x11
 3009 0f7c 94080000 		.4byte	0x894
 3010 0f80 940F0000 		.4byte	0xf94
 3011 0f84 10       		.uleb128 0x10
 3012 0f85 EF0A0000 		.4byte	0xaef
 3013 0f89 10       		.uleb128 0x10
 3014 0f8a 5F0F0000 		.4byte	0xf5f
 3015 0f8e 10       		.uleb128 0x10
 3016 0f8f B4000000 		.4byte	0xb4
 3017 0f93 00       		.byte	0
 3018 0f94 1C       		.uleb128 0x1c
 3019 0f95 01       		.byte	0x1
 3020 0f96 42000000 		.4byte	0x42
 3021 0f9a 11       		.byte	0x11
 3022 0f9b 8D       		.byte	0x8d
 3023 0f9c 1F100000 		.4byte	0x101f
 3024 0fa0 0D       		.uleb128 0xd
 3025 0fa1 4D150000 		.4byte	.LASF283
 3026 0fa5 00       		.byte	0
 3027 0fa6 0D       		.uleb128 0xd
 3028 0fa7 07150000 		.4byte	.LASF284
 3029 0fab 01       		.byte	0x1
 3030 0fac 0D       		.uleb128 0xd
 3031 0fad 2A0E0000 		.4byte	.LASF285
 3032 0fb1 02       		.byte	0x2
 3033 0fb2 0D       		.uleb128 0xd
 3034 0fb3 8A100000 		.4byte	.LASF286
 3035 0fb7 03       		.byte	0x3
 3036 0fb8 0D       		.uleb128 0xd
 3037 0fb9 72100000 		.4byte	.LASF287
 3038 0fbd 04       		.byte	0x4
 3039 0fbe 0D       		.uleb128 0xd
 3040 0fbf 470B0000 		.4byte	.LASF288
 3041 0fc3 05       		.byte	0x5
 3042 0fc4 0D       		.uleb128 0xd
 3043 0fc5 30090000 		.4byte	.LASF289
 3044 0fc9 06       		.byte	0x6
 3045 0fca 0D       		.uleb128 0xd
 3046 0fcb 9A010000 		.4byte	.LASF290
 3047 0fcf 07       		.byte	0x7
 3048 0fd0 0D       		.uleb128 0xd
 3049 0fd1 2D0C0000 		.4byte	.LASF291
 3050 0fd5 08       		.byte	0x8
 3051 0fd6 0D       		.uleb128 0xd
 3052 0fd7 240D0000 		.4byte	.LASF292
 3053 0fdb 09       		.byte	0x9
 3054 0fdc 0D       		.uleb128 0xd
 3055 0fdd 600E0000 		.4byte	.LASF293
ARM GAS  C:\Users\tmj32\AppData\Local\Temp\cco3Klhe.s 			page 75


 3056 0fe1 0A       		.byte	0xa
 3057 0fe2 0D       		.uleb128 0xd
 3058 0fe3 5A110000 		.4byte	.LASF294
 3059 0fe7 0B       		.byte	0xb
 3060 0fe8 0D       		.uleb128 0xd
 3061 0fe9 DB010000 		.4byte	.LASF295
 3062 0fed 0C       		.byte	0xc
 3063 0fee 0D       		.uleb128 0xd
 3064 0fef 20060000 		.4byte	.LASF296
 3065 0ff3 0D       		.byte	0xd
 3066 0ff4 0D       		.uleb128 0xd
 3067 0ff5 D6040000 		.4byte	.LASF297
 3068 0ff9 0E       		.byte	0xe
 3069 0ffa 0D       		.uleb128 0xd
 3070 0ffb 050A0000 		.4byte	.LASF298
 3071 0fff 0F       		.byte	0xf
 3072 1000 0D       		.uleb128 0xd
 3073 1001 80060000 		.4byte	.LASF299
 3074 1005 10       		.byte	0x10
 3075 1006 0D       		.uleb128 0xd
 3076 1007 F9120000 		.4byte	.LASF300
 3077 100b 11       		.byte	0x11
 3078 100c 0D       		.uleb128 0xd
 3079 100d 7E040000 		.4byte	.LASF301
 3080 1011 12       		.byte	0x12
 3081 1012 0D       		.uleb128 0xd
 3082 1013 00100000 		.4byte	.LASF302
 3083 1017 13       		.byte	0x13
 3084 1018 0D       		.uleb128 0xd
 3085 1019 95050000 		.4byte	.LASF303
 3086 101d 14       		.byte	0x14
 3087 101e 00       		.byte	0
 3088 101f 02       		.uleb128 0x2
 3089 1020 550A0000 		.4byte	.LASF304
 3090 1024 11       		.byte	0x11
 3091 1025 A4       		.byte	0xa4
 3092 1026 CF000000 		.4byte	0xcf
 3093 102a 09       		.uleb128 0x9
 3094 102b 0C       		.byte	0xc
 3095 102c 11       		.byte	0x11
 3096 102d A7       		.byte	0xa7
 3097 102e 81100000 		.4byte	0x1081
 3098 1032 0A       		.uleb128 0xa
 3099 1033 12050000 		.4byte	.LASF305
 3100 1037 11       		.byte	0x11
 3101 1038 A9       		.byte	0xa9
 3102 1039 81100000 		.4byte	0x1081
 3103 103d 00       		.byte	0
 3104 103e 0A       		.uleb128 0xa
 3105 103f 7A0A0000 		.4byte	.LASF306
 3106 1043 11       		.byte	0x11
 3107 1044 AA       		.byte	0xaa
 3108 1045 89080000 		.4byte	0x889
 3109 1049 04       		.byte	0x4
 3110 104a 0A       		.uleb128 0xa
 3111 104b AF010000 		.4byte	.LASF307
 3112 104f 11       		.byte	0x11
ARM GAS  C:\Users\tmj32\AppData\Local\Temp\cco3Klhe.s 			page 76


 3113 1050 AB       		.byte	0xab
 3114 1051 89080000 		.4byte	0x889
 3115 1055 06       		.byte	0x6
 3116 1056 0A       		.uleb128 0xa
 3117 1057 E5140000 		.4byte	.LASF308
 3118 105b 11       		.byte	0x11
 3119 105c AC       		.byte	0xac
 3120 105d 1F100000 		.4byte	0x101f
 3121 1061 08       		.byte	0x8
 3122 1062 1A       		.uleb128 0x1a
 3123 1063 2B0A0000 		.4byte	.LASF309
 3124 1067 11       		.byte	0x11
 3125 1068 AD       		.byte	0xad
 3126 1069 CF000000 		.4byte	0xcf
 3127 106d 01       		.byte	0x1
 3128 106e 01       		.byte	0x1
 3129 106f 07       		.byte	0x7
 3130 1070 09       		.byte	0x9
 3131 1071 1A       		.uleb128 0x1a
 3132 1072 FB0A0000 		.4byte	.LASF310
 3133 1076 11       		.byte	0x11
 3134 1077 AE       		.byte	0xae
 3135 1078 CF000000 		.4byte	0xcf
 3136 107c 01       		.byte	0x1
 3137 107d 01       		.byte	0x1
 3138 107e 06       		.byte	0x6
 3139 107f 09       		.byte	0x9
 3140 1080 00       		.byte	0
 3141 1081 0E       		.uleb128 0xe
 3142 1082 04       		.byte	0x4
 3143 1083 87100000 		.4byte	0x1087
 3144 1087 19       		.uleb128 0x19
 3145 1088 AD090000 		.4byte	0x9ad
 3146 108c 02       		.uleb128 0x2
 3147 108d DA120000 		.4byte	.LASF311
 3148 1091 11       		.byte	0x11
 3149 1092 B0       		.byte	0xb0
 3150 1093 2A100000 		.4byte	0x102a
 3151 1097 02       		.uleb128 0x2
 3152 1098 390B0000 		.4byte	.LASF312
 3153 109c 11       		.byte	0x11
 3154 109d B9       		.byte	0xb9
 3155 109e CF000000 		.4byte	0xcf
 3156 10a2 0E       		.uleb128 0xe
 3157 10a3 04       		.byte	0x4
 3158 10a4 A8100000 		.4byte	0x10a8
 3159 10a8 19       		.uleb128 0x19
 3160 10a9 5D0E0000 		.4byte	0xe5d
 3161 10ad 02       		.uleb128 0x2
 3162 10ae 83030000 		.4byte	.LASF313
 3163 10b2 11       		.byte	0x11
 3164 10b3 F0       		.byte	0xf0
 3165 10b4 AD090000 		.4byte	0x9ad
 3166 10b8 1C       		.uleb128 0x1c
 3167 10b9 01       		.byte	0x1
 3168 10ba 42000000 		.4byte	0x42
 3169 10be 16       		.byte	0x16
ARM GAS  C:\Users\tmj32\AppData\Local\Temp\cco3Klhe.s 			page 77


 3170 10bf 2A       		.byte	0x2a
 3171 10c0 E9100000 		.4byte	0x10e9
 3172 10c4 0D       		.uleb128 0xd
 3173 10c5 9B0F0000 		.4byte	.LASF314
 3174 10c9 00       		.byte	0
 3175 10ca 0D       		.uleb128 0xd
 3176 10cb 33030000 		.4byte	.LASF315
 3177 10cf 01       		.byte	0x1
 3178 10d0 0D       		.uleb128 0xd
 3179 10d1 F3130000 		.4byte	.LASF316
 3180 10d5 02       		.byte	0x2
 3181 10d6 0D       		.uleb128 0xd
 3182 10d7 8A070000 		.4byte	.LASF317
 3183 10db 03       		.byte	0x3
 3184 10dc 0D       		.uleb128 0xd
 3185 10dd C10F0000 		.4byte	.LASF318
 3186 10e1 04       		.byte	0x4
 3187 10e2 0D       		.uleb128 0xd
 3188 10e3 950E0000 		.4byte	.LASF319
 3189 10e7 05       		.byte	0x5
 3190 10e8 00       		.byte	0
 3191 10e9 07       		.uleb128 0x7
 3192 10ea BD000000 		.4byte	0xbd
 3193 10ee F9100000 		.4byte	0x10f9
 3194 10f2 08       		.uleb128 0x8
 3195 10f3 B6000000 		.4byte	0xb6
 3196 10f7 03       		.byte	0x3
 3197 10f8 00       		.byte	0
 3198 10f9 0E       		.uleb128 0xe
 3199 10fa 04       		.byte	0x4
 3200 10fb AD100000 		.4byte	0x10ad
 3201 10ff 1C       		.uleb128 0x1c
 3202 1100 01       		.byte	0x1
 3203 1101 42000000 		.4byte	0x42
 3204 1105 17       		.byte	0x17
 3205 1106 2D       		.byte	0x2d
 3206 1107 30110000 		.4byte	0x1130
 3207 110b 0D       		.uleb128 0xd
 3208 110c B5110000 		.4byte	.LASF320
 3209 1110 00       		.byte	0
 3210 1111 0D       		.uleb128 0xd
 3211 1112 FF060000 		.4byte	.LASF321
 3212 1116 01       		.byte	0x1
 3213 1117 0D       		.uleb128 0xd
 3214 1118 630D0000 		.4byte	.LASF322
 3215 111c 02       		.byte	0x2
 3216 111d 0D       		.uleb128 0xd
 3217 111e 3A100000 		.4byte	.LASF323
 3218 1122 04       		.byte	0x4
 3219 1123 0D       		.uleb128 0xd
 3220 1124 48130000 		.4byte	.LASF324
 3221 1128 08       		.byte	0x8
 3222 1129 0D       		.uleb128 0xd
 3223 112a 1F140000 		.4byte	.LASF325
 3224 112e 10       		.byte	0x10
 3225 112f 00       		.byte	0
 3226 1130 09       		.uleb128 0x9
ARM GAS  C:\Users\tmj32\AppData\Local\Temp\cco3Klhe.s 			page 78


 3227 1131 0C       		.byte	0xc
 3228 1132 17       		.byte	0x17
 3229 1133 3E       		.byte	0x3e
 3230 1134 5D110000 		.4byte	0x115d
 3231 1138 0A       		.uleb128 0xa
 3232 1139 00150000 		.4byte	.LASF326
 3233 113d 17       		.byte	0x17
 3234 113e 40       		.byte	0x40
 3235 113f 5D110000 		.4byte	0x115d
 3236 1143 00       		.byte	0
 3237 1144 0A       		.uleb128 0xa
 3238 1145 53060000 		.4byte	.LASF230
 3239 1149 17       		.byte	0x17
 3240 114a 41       		.byte	0x41
 3241 114b 4A090000 		.4byte	0x94a
 3242 114f 04       		.byte	0x4
 3243 1150 0A       		.uleb128 0xa
 3244 1151 520F0000 		.4byte	.LASF327
 3245 1155 17       		.byte	0x17
 3246 1156 42       		.byte	0x42
 3247 1157 E5000000 		.4byte	0xe5
 3248 115b 08       		.byte	0x8
 3249 115c 00       		.byte	0
 3250 115d 0E       		.uleb128 0xe
 3251 115e 04       		.byte	0x4
 3252 115f 89080000 		.4byte	0x889
 3253 1163 02       		.uleb128 0x2
 3254 1164 EF0E0000 		.4byte	.LASF328
 3255 1168 17       		.byte	0x17
 3256 1169 43       		.byte	0x43
 3257 116a 30110000 		.4byte	0x1130
 3258 116e 1D       		.uleb128 0x1d
 3259 116f B5090000 		.4byte	.LASF329
 3260 1173 01       		.byte	0x1
 3261 1174 DD01     		.2byte	0x1dd
 3262 1176 4A090000 		.4byte	0x94a
 3263 117a 00000000 		.4byte	.LFB588
 3264 117e 38000000 		.4byte	.LFE588-.LFB588
 3265 1182 01       		.uleb128 0x1
 3266 1183 9C       		.byte	0x9c
 3267 1184 B0110000 		.4byte	0x11b0
 3268 1188 1E       		.uleb128 0x1e
 3269 1189 7200     		.ascii	"r\000"
 3270 118b 01       		.byte	0x1
 3271 118c DD01     		.2byte	0x1dd
 3272 118e CF000000 		.4byte	0xcf
 3273 1192 02       		.uleb128 0x2
 3274 1193 91       		.byte	0x91
 3275 1194 77       		.sleb128 -9
 3276 1195 1E       		.uleb128 0x1e
 3277 1196 6700     		.ascii	"g\000"
 3278 1198 01       		.byte	0x1
 3279 1199 DD01     		.2byte	0x1dd
 3280 119b CF000000 		.4byte	0xcf
 3281 119f 02       		.uleb128 0x2
 3282 11a0 91       		.byte	0x91
 3283 11a1 76       		.sleb128 -10
ARM GAS  C:\Users\tmj32\AppData\Local\Temp\cco3Klhe.s 			page 79


 3284 11a2 1E       		.uleb128 0x1e
 3285 11a3 6200     		.ascii	"b\000"
 3286 11a5 01       		.byte	0x1
 3287 11a6 DD01     		.2byte	0x1dd
 3288 11a8 CF000000 		.4byte	0xcf
 3289 11ac 02       		.uleb128 0x2
 3290 11ad 91       		.byte	0x91
 3291 11ae 75       		.sleb128 -11
 3292 11af 00       		.byte	0
 3293 11b0 1F       		.uleb128 0x1f
 3294 11b1 15080000 		.4byte	.LASF330
 3295 11b5 01       		.byte	0x1
 3296 11b6 E201     		.2byte	0x1e2
 3297 11b8 4A090000 		.4byte	0x94a
 3298 11bc 00000000 		.4byte	.LFB589
 3299 11c0 28000000 		.4byte	.LFE589-.LFB589
 3300 11c4 01       		.uleb128 0x1
 3301 11c5 9C       		.byte	0x9c
 3302 11c6 D8110000 		.4byte	0x11d8
 3303 11ca 1E       		.uleb128 0x1e
 3304 11cb 6300     		.ascii	"c\000"
 3305 11cd 01       		.byte	0x1
 3306 11ce E201     		.2byte	0x1e2
 3307 11d0 FB000000 		.4byte	0xfb
 3308 11d4 02       		.uleb128 0x2
 3309 11d5 91       		.byte	0x91
 3310 11d6 74       		.sleb128 -12
 3311 11d7 00       		.byte	0
 3312 11d8 20       		.uleb128 0x20
 3313 11d9 C3090000 		.4byte	.LASF376
 3314 11dd 02       		.byte	0x2
 3315 11de 61       		.byte	0x61
 3316 11df F9100000 		.4byte	0x10f9
 3317 11e3 00000000 		.4byte	.LFB613
 3318 11e7 16000000 		.4byte	.LFE613-.LFB613
 3319 11eb 01       		.uleb128 0x1
 3320 11ec 9C       		.byte	0x9c
 3321 11ed 21       		.uleb128 0x21
 3322 11ee E5070000 		.4byte	.LASF334
 3323 11f2 03       		.byte	0x3
 3324 11f3 4F       		.byte	0x4f
 3325 11f4 00000000 		.4byte	.LFB668
 3326 11f8 26000000 		.4byte	.LFE668-.LFB668
 3327 11fc 01       		.uleb128 0x1
 3328 11fd 9C       		.byte	0x9c
 3329 11fe 2D120000 		.4byte	0x122d
 3330 1202 22       		.uleb128 0x22
 3331 1203 3E060000 		.4byte	.LASF331
 3332 1207 03       		.byte	0x3
 3333 1208 4F       		.byte	0x4f
 3334 1209 F9100000 		.4byte	0x10f9
 3335 120d 02       		.uleb128 0x2
 3336 120e 91       		.byte	0x91
 3337 120f 74       		.sleb128 -12
 3338 1210 22       		.uleb128 0x22
 3339 1211 38060000 		.4byte	.LASF332
 3340 1215 03       		.byte	0x3
ARM GAS  C:\Users\tmj32\AppData\Local\Temp\cco3Klhe.s 			page 80


 3341 1216 4F       		.byte	0x4f
 3342 1217 DA000000 		.4byte	0xda
 3343 121b 02       		.uleb128 0x2
 3344 121c 91       		.byte	0x91
 3345 121d 72       		.sleb128 -14
 3346 121e 22       		.uleb128 0x22
 3347 121f 0D030000 		.4byte	.LASF333
 3348 1223 03       		.byte	0x3
 3349 1224 4F       		.byte	0x4f
 3350 1225 270C0000 		.4byte	0xc27
 3351 1229 02       		.uleb128 0x2
 3352 122a 91       		.byte	0x91
 3353 122b 71       		.sleb128 -15
 3354 122c 00       		.byte	0
 3355 122d 21       		.uleb128 0x21
 3356 122e 9C0D0000 		.4byte	.LASF335
 3357 1232 03       		.byte	0x3
 3358 1233 5A       		.byte	0x5a
 3359 1234 00000000 		.4byte	.LFB669
 3360 1238 28000000 		.4byte	.LFE669-.LFB669
 3361 123c 01       		.uleb128 0x1
 3362 123d 9C       		.byte	0x9c
 3363 123e 6D120000 		.4byte	0x126d
 3364 1242 22       		.uleb128 0x22
 3365 1243 3E060000 		.4byte	.LASF331
 3366 1247 03       		.byte	0x3
 3367 1248 5A       		.byte	0x5a
 3368 1249 F9100000 		.4byte	0x10f9
 3369 124d 02       		.uleb128 0x2
 3370 124e 91       		.byte	0x91
 3371 124f 74       		.sleb128 -12
 3372 1250 23       		.uleb128 0x23
 3373 1251 6D696E00 		.ascii	"min\000"
 3374 1255 03       		.byte	0x3
 3375 1256 5A       		.byte	0x5a
 3376 1257 DA000000 		.4byte	0xda
 3377 125b 02       		.uleb128 0x2
 3378 125c 91       		.byte	0x91
 3379 125d 72       		.sleb128 -14
 3380 125e 23       		.uleb128 0x23
 3381 125f 6D617800 		.ascii	"max\000"
 3382 1263 03       		.byte	0x3
 3383 1264 5A       		.byte	0x5a
 3384 1265 DA000000 		.4byte	0xda
 3385 1269 02       		.uleb128 0x2
 3386 126a 91       		.byte	0x91
 3387 126b 70       		.sleb128 -16
 3388 126c 00       		.byte	0
 3389 126d 24       		.uleb128 0x24
 3390 126e 3E050000 		.4byte	.LASF336
 3391 1272 04       		.byte	0x4
 3392 1273 81       		.byte	0x81
 3393 1274 51050000 		.4byte	0x551
 3394 1278 00000000 		.4byte	.LFB714
 3395 127c 22000000 		.4byte	.LFE714-.LFB714
 3396 1280 01       		.uleb128 0x1
 3397 1281 9C       		.byte	0x9c
ARM GAS  C:\Users\tmj32\AppData\Local\Temp\cco3Klhe.s 			page 81


 3398 1282 94120000 		.4byte	0x1294
 3399 1286 23       		.uleb128 0x23
 3400 1287 737700   		.ascii	"sw\000"
 3401 128a 04       		.byte	0x4
 3402 128b 81       		.byte	0x81
 3403 128c 94120000 		.4byte	0x1294
 3404 1290 02       		.uleb128 0x2
 3405 1291 91       		.byte	0x91
 3406 1292 74       		.sleb128 -12
 3407 1293 00       		.byte	0
 3408 1294 0E       		.uleb128 0xe
 3409 1295 04       		.byte	0x4
 3410 1296 9A120000 		.4byte	0x129a
 3411 129a 19       		.uleb128 0x19
 3412 129b AD100000 		.4byte	0x10ad
 3413 129f 21       		.uleb128 0x21
 3414 12a0 0C020000 		.4byte	.LASF337
 3415 12a4 05       		.byte	0x5
 3416 12a5 11       		.byte	0x11
 3417 12a6 00000000 		.4byte	.LFB717
 3418 12aa 58000000 		.4byte	.LFE717-.LFB717
 3419 12ae 01       		.uleb128 0x1
 3420 12af 9C       		.byte	0x9c
 3421 12b0 D1120000 		.4byte	0x12d1
 3422 12b4 23       		.uleb128 0x23
 3423 12b5 6F626A00 		.ascii	"obj\000"
 3424 12b9 05       		.byte	0x5
 3425 12ba 11       		.byte	0x11
 3426 12bb F9100000 		.4byte	0x10f9
 3427 12bf 02       		.uleb128 0x2
 3428 12c0 91       		.byte	0x91
 3429 12c1 74       		.sleb128 -12
 3430 12c2 22       		.uleb128 0x22
 3431 12c3 00050000 		.4byte	.LASF338
 3432 12c7 05       		.byte	0x5
 3433 12c8 11       		.byte	0x11
 3434 12c9 330F0000 		.4byte	0xf33
 3435 12cd 02       		.uleb128 0x2
 3436 12ce 91       		.byte	0x91
 3437 12cf 73       		.sleb128 -13
 3438 12d0 00       		.byte	0
 3439 12d1 21       		.uleb128 0x21
 3440 12d2 5A0C0000 		.4byte	.LASF339
 3441 12d6 05       		.byte	0x5
 3442 12d7 1A       		.byte	0x1a
 3443 12d8 00000000 		.4byte	.LFB718
 3444 12dc 34000000 		.4byte	.LFE718-.LFB718
 3445 12e0 01       		.uleb128 0x1
 3446 12e1 9C       		.byte	0x9c
 3447 12e2 1E130000 		.4byte	0x131e
 3448 12e6 22       		.uleb128 0x22
 3449 12e7 3E060000 		.4byte	.LASF331
 3450 12eb 05       		.byte	0x5
 3451 12ec 1A       		.byte	0x1a
 3452 12ed F9100000 		.4byte	0x10f9
 3453 12f1 02       		.uleb128 0x2
 3454 12f2 91       		.byte	0x91
ARM GAS  C:\Users\tmj32\AppData\Local\Temp\cco3Klhe.s 			page 82


 3455 12f3 74       		.sleb128 -12
 3456 12f4 22       		.uleb128 0x22
 3457 12f5 00050000 		.4byte	.LASF338
 3458 12f9 05       		.byte	0x5
 3459 12fa 1A       		.byte	0x1a
 3460 12fb 330F0000 		.4byte	0xf33
 3461 12ff 02       		.uleb128 0x2
 3462 1300 91       		.byte	0x91
 3463 1301 73       		.sleb128 -13
 3464 1302 25       		.uleb128 0x25
 3465 1303 12000000 		.4byte	.LBB2
 3466 1307 12000000 		.4byte	.LBE2-.LBB2
 3467 130b 26       		.uleb128 0x26
 3468 130c 62756600 		.ascii	"buf\000"
 3469 1310 05       		.byte	0x5
 3470 1311 1D       		.byte	0x1d
 3471 1312 E9100000 		.4byte	0x10e9
 3472 1316 05       		.uleb128 0x5
 3473 1317 03       		.byte	0x3
 3474 1318 04000000 		.4byte	buf.20322
 3475 131c 00       		.byte	0
 3476 131d 00       		.byte	0
 3477 131e 27       		.uleb128 0x27
 3478 131f 2E0F0000 		.4byte	.LASF377
 3479 1323 05       		.byte	0x5
 3480 1324 24       		.byte	0x24
 3481 1325 00000000 		.4byte	.LFB719
 3482 1329 40040000 		.4byte	.LFE719-.LFB719
 3483 132d 01       		.uleb128 0x1
 3484 132e 9C       		.byte	0x9c
 3485 132f E8140000 		.4byte	0x14e8
 3486 1333 28       		.uleb128 0x28
 3487 1334 5B040000 		.4byte	.LASF340
 3488 1338 05       		.byte	0x5
 3489 1339 26       		.byte	0x26
 3490 133a E8140000 		.4byte	0x14e8
 3491 133e 02       		.uleb128 0x2
 3492 133f 91       		.byte	0x91
 3493 1340 68       		.sleb128 -24
 3494 1341 28       		.uleb128 0x28
 3495 1342 170D0000 		.4byte	.LASF341
 3496 1346 05       		.byte	0x5
 3497 1347 27       		.byte	0x27
 3498 1348 E8140000 		.4byte	0x14e8
 3499 134c 02       		.uleb128 0x2
 3500 134d 91       		.byte	0x91
 3501 134e 64       		.sleb128 -28
 3502 134f 28       		.uleb128 0x28
 3503 1350 AA070000 		.4byte	.LASF342
 3504 1354 05       		.byte	0x5
 3505 1355 28       		.byte	0x28
 3506 1356 E8140000 		.4byte	0x14e8
 3507 135a 02       		.uleb128 0x2
 3508 135b 91       		.byte	0x91
 3509 135c 60       		.sleb128 -32
 3510 135d 28       		.uleb128 0x28
 3511 135e 8D130000 		.4byte	.LASF343
ARM GAS  C:\Users\tmj32\AppData\Local\Temp\cco3Klhe.s 			page 83


 3512 1362 05       		.byte	0x5
 3513 1363 29       		.byte	0x29
 3514 1364 E8140000 		.4byte	0x14e8
 3515 1368 02       		.uleb128 0x2
 3516 1369 91       		.byte	0x91
 3517 136a 5C       		.sleb128 -36
 3518 136b 28       		.uleb128 0x28
 3519 136c CB0B0000 		.4byte	.LASF344
 3520 1370 05       		.byte	0x5
 3521 1371 2B       		.byte	0x2b
 3522 1372 ED140000 		.4byte	0x14ed
 3523 1376 03       		.uleb128 0x3
 3524 1377 91       		.byte	0x91
 3525 1378 847F     		.sleb128 -124
 3526 137a 28       		.uleb128 0x28
 3527 137b E7120000 		.4byte	.LASF345
 3528 137f 05       		.byte	0x5
 3529 1380 2D       		.byte	0x2d
 3530 1381 F9100000 		.4byte	0x10f9
 3531 1385 05       		.uleb128 0x5
 3532 1386 03       		.byte	0x3
 3533 1387 10000000 		.4byte	my_label.20330
 3534 138b 28       		.uleb128 0x28
 3535 138c 12070000 		.4byte	.LASF346
 3536 1390 05       		.byte	0x5
 3537 1391 2E       		.byte	0x2e
 3538 1392 680E0000 		.4byte	0xe68
 3539 1396 05       		.uleb128 0x5
 3540 1397 03       		.byte	0x3
 3541 1398 0C000000 		.4byte	lbl_style.20331
 3542 139c 28       		.uleb128 0x28
 3543 139d 75000000 		.4byte	.LASF347
 3544 13a1 05       		.byte	0x5
 3545 13a2 30       		.byte	0x30
 3546 13a3 F9100000 		.4byte	0x10f9
 3547 13a7 05       		.uleb128 0x5
 3548 13a8 03       		.byte	0x3
 3549 13a9 08000000 		.4byte	chart1.20332
 3550 13ad 28       		.uleb128 0x28
 3551 13ae 1F120000 		.4byte	.LASF348
 3552 13b2 05       		.byte	0x5
 3553 13b3 39       		.byte	0x39
 3554 13b4 FD140000 		.4byte	0x14fd
 3555 13b8 03       		.uleb128 0x3
 3556 13b9 91       		.byte	0x91
 3557 13ba FC7E     		.sleb128 -132
 3558 13bc 28       		.uleb128 0x28
 3559 13bd 82080000 		.4byte	.LASF349
 3560 13c1 05       		.byte	0x5
 3561 13c2 3A       		.byte	0x3a
 3562 13c3 0B010000 		.4byte	0x10b
 3563 13c7 03       		.uleb128 0x3
 3564 13c8 91       		.byte	0x91
 3565 13c9 F87E     		.sleb128 -136
 3566 13cb 28       		.uleb128 0x28
 3567 13cc 5E0B0000 		.4byte	.LASF350
 3568 13d0 05       		.byte	0x5
ARM GAS  C:\Users\tmj32\AppData\Local\Temp\cco3Klhe.s 			page 84


 3569 13d1 3C       		.byte	0x3c
 3570 13d2 9F000000 		.4byte	0x9f
 3571 13d6 02       		.uleb128 0x2
 3572 13d7 91       		.byte	0x91
 3573 13d8 58       		.sleb128 -40
 3574 13d9 28       		.uleb128 0x28
 3575 13da 36020000 		.4byte	.LASF351
 3576 13de 05       		.byte	0x5
 3577 13df 5A       		.byte	0x5a
 3578 13e0 F9100000 		.4byte	0x10f9
 3579 13e4 02       		.uleb128 0x2
 3580 13e5 91       		.byte	0x91
 3581 13e6 54       		.sleb128 -44
 3582 13e7 28       		.uleb128 0x28
 3583 13e8 6D0B0000 		.4byte	.LASF352
 3584 13ec 05       		.byte	0x5
 3585 13ed 87       		.byte	0x87
 3586 13ee F9100000 		.4byte	0x10f9
 3587 13f2 02       		.uleb128 0x2
 3588 13f3 91       		.byte	0x91
 3589 13f4 50       		.sleb128 -48
 3590 13f5 28       		.uleb128 0x28
 3591 13f6 13090000 		.4byte	.LASF353
 3592 13fa 05       		.byte	0x5
 3593 13fb 8F       		.byte	0x8f
 3594 13fc F9100000 		.4byte	0x10f9
 3595 1400 02       		.uleb128 0x2
 3596 1401 91       		.byte	0x91
 3597 1402 4C       		.sleb128 -52
 3598 1403 28       		.uleb128 0x28
 3599 1404 79150000 		.4byte	.LASF354
 3600 1408 05       		.byte	0x5
 3601 1409 95       		.byte	0x95
 3602 140a F9100000 		.4byte	0x10f9
 3603 140e 02       		.uleb128 0x2
 3604 140f 91       		.byte	0x91
 3605 1410 48       		.sleb128 -56
 3606 1411 28       		.uleb128 0x28
 3607 1412 9D0A0000 		.4byte	.LASF355
 3608 1416 05       		.byte	0x5
 3609 1417 9C       		.byte	0x9c
 3610 1418 F9100000 		.4byte	0x10f9
 3611 141c 02       		.uleb128 0x2
 3612 141d 91       		.byte	0x91
 3613 141e 44       		.sleb128 -60
 3614 141f 28       		.uleb128 0x28
 3615 1420 CC000000 		.4byte	.LASF356
 3616 1424 05       		.byte	0x5
 3617 1425 A4       		.byte	0xa4
 3618 1426 F9100000 		.4byte	0x10f9
 3619 142a 02       		.uleb128 0x2
 3620 142b 91       		.byte	0x91
 3621 142c 40       		.sleb128 -64
 3622 142d 28       		.uleb128 0x28
 3623 142e 97110000 		.4byte	.LASF357
 3624 1432 05       		.byte	0x5
 3625 1433 A9       		.byte	0xa9
ARM GAS  C:\Users\tmj32\AppData\Local\Temp\cco3Klhe.s 			page 85


 3626 1434 F9100000 		.4byte	0x10f9
 3627 1438 03       		.uleb128 0x3
 3628 1439 91       		.byte	0x91
 3629 143a BC7F     		.sleb128 -68
 3630 143c 28       		.uleb128 0x28
 3631 143d CE060000 		.4byte	.LASF358
 3632 1441 05       		.byte	0x5
 3633 1442 B0       		.byte	0xb0
 3634 1443 F9100000 		.4byte	0x10f9
 3635 1447 03       		.uleb128 0x3
 3636 1448 91       		.byte	0x91
 3637 1449 B87F     		.sleb128 -72
 3638 144b 28       		.uleb128 0x28
 3639 144c B00D0000 		.4byte	.LASF359
 3640 1450 05       		.byte	0x5
 3641 1451 B8       		.byte	0xb8
 3642 1452 F9100000 		.4byte	0x10f9
 3643 1456 03       		.uleb128 0x3
 3644 1457 91       		.byte	0x91
 3645 1458 B47F     		.sleb128 -76
 3646 145a 28       		.uleb128 0x28
 3647 145b BB0D0000 		.4byte	.LASF360
 3648 145f 05       		.byte	0x5
 3649 1460 BD       		.byte	0xbd
 3650 1461 F9100000 		.4byte	0x10f9
 3651 1465 03       		.uleb128 0x3
 3652 1466 91       		.byte	0x91
 3653 1467 B07F     		.sleb128 -80
 3654 1469 28       		.uleb128 0x28
 3655 146a 4F110000 		.4byte	.LASF361
 3656 146e 05       		.byte	0x5
 3657 146f C4       		.byte	0xc4
 3658 1470 F9100000 		.4byte	0x10f9
 3659 1474 03       		.uleb128 0x3
 3660 1475 91       		.byte	0x91
 3661 1476 AC7F     		.sleb128 -84
 3662 1478 28       		.uleb128 0x28
 3663 1479 8C030000 		.4byte	.LASF362
 3664 147d 05       		.byte	0x5
 3665 147e CC       		.byte	0xcc
 3666 147f F9100000 		.4byte	0x10f9
 3667 1483 03       		.uleb128 0x3
 3668 1484 91       		.byte	0x91
 3669 1485 A87F     		.sleb128 -88
 3670 1487 28       		.uleb128 0x28
 3671 1488 97030000 		.4byte	.LASF363
 3672 148c 05       		.byte	0x5
 3673 148d D1       		.byte	0xd1
 3674 148e F9100000 		.4byte	0x10f9
 3675 1492 03       		.uleb128 0x3
 3676 1493 91       		.byte	0x91
 3677 1494 A47F     		.sleb128 -92
 3678 1496 26       		.uleb128 0x26
 3679 1497 733100   		.ascii	"s1\000"
 3680 149a 05       		.byte	0x5
 3681 149b E1       		.byte	0xe1
 3682 149c 0D150000 		.4byte	0x150d
ARM GAS  C:\Users\tmj32\AppData\Local\Temp\cco3Klhe.s 			page 86


 3683 14a0 03       		.uleb128 0x3
 3684 14a1 91       		.byte	0x91
 3685 14a2 A07F     		.sleb128 -96
 3686 14a4 28       		.uleb128 0x28
 3687 14a5 74010000 		.4byte	.LASF364
 3688 14a9 05       		.byte	0x5
 3689 14aa E7       		.byte	0xe7
 3690 14ab 45050000 		.4byte	0x545
 3691 14af 03       		.uleb128 0x3
 3692 14b0 91       		.byte	0x91
 3693 14b1 9F7F     		.sleb128 -97
 3694 14b3 28       		.uleb128 0x28
 3695 14b4 00150000 		.4byte	.LASF326
 3696 14b8 05       		.byte	0x5
 3697 14b9 E9       		.byte	0xe9
 3698 14ba 13150000 		.4byte	0x1513
 3699 14be 03       		.uleb128 0x3
 3700 14bf 91       		.byte	0x91
 3701 14c0 D87E     		.sleb128 -168
 3702 14c2 26       		.uleb128 0x26
 3703 14c3 73773100 		.ascii	"sw1\000"
 3704 14c7 05       		.byte	0x5
 3705 14c8 F0       		.byte	0xf0
 3706 14c9 F9100000 		.4byte	0x10f9
 3707 14cd 03       		.uleb128 0x3
 3708 14ce 91       		.byte	0x91
 3709 14cf 987F     		.sleb128 -104
 3710 14d1 25       		.uleb128 0x25
 3711 14d2 AA030000 		.4byte	.LBB3
 3712 14d6 3C000000 		.4byte	.LBE3-.LBB3
 3713 14da 26       		.uleb128 0x26
 3714 14db 6900     		.ascii	"i\000"
 3715 14dd 05       		.byte	0x5
 3716 14de EA       		.byte	0xea
 3717 14df 9F000000 		.4byte	0x9f
 3718 14e3 02       		.uleb128 0x2
 3719 14e4 91       		.byte	0x91
 3720 14e5 6C       		.sleb128 -20
 3721 14e6 00       		.byte	0
 3722 14e7 00       		.byte	0
 3723 14e8 19       		.uleb128 0x19
 3724 14e9 9F000000 		.4byte	0x9f
 3725 14ed 07       		.uleb128 0x7
 3726 14ee BD000000 		.4byte	0xbd
 3727 14f2 FD140000 		.4byte	0x14fd
 3728 14f6 08       		.uleb128 0x8
 3729 14f7 B6000000 		.4byte	0xb6
 3730 14fb 10       		.byte	0x10
 3731 14fc 00       		.byte	0
 3732 14fd 07       		.uleb128 0x7
 3733 14fe E5000000 		.4byte	0xe5
 3734 1502 0D150000 		.4byte	0x150d
 3735 1506 08       		.uleb128 0x8
 3736 1507 B6000000 		.4byte	0xb6
 3737 150b 02       		.byte	0x2
 3738 150c 00       		.byte	0
 3739 150d 0E       		.uleb128 0xe
ARM GAS  C:\Users\tmj32\AppData\Local\Temp\cco3Klhe.s 			page 87


 3740 150e 04       		.byte	0x4
 3741 150f 63110000 		.4byte	0x1163
 3742 1513 07       		.uleb128 0x7
 3743 1514 9F000000 		.4byte	0x9f
 3744 1518 23150000 		.4byte	0x1523
 3745 151c 08       		.uleb128 0x8
 3746 151d B6000000 		.4byte	0xb6
 3747 1521 07       		.byte	0x7
 3748 1522 00       		.byte	0
 3749 1523 29       		.uleb128 0x29
 3750 1524 A70E0000 		.4byte	.LASF365
 3751 1528 18       		.byte	0x18
 3752 1529 F907     		.2byte	0x7f9
 3753 152b 2F150000 		.4byte	0x152f
 3754 152f 06       		.uleb128 0x6
 3755 1530 F0000000 		.4byte	0xf0
 3756 1534 2A       		.uleb128 0x2a
 3757 1535 58000000 		.4byte	.LASF366
 3758 1539 08       		.byte	0x8
 3759 153a A7       		.byte	0xa7
 3760 153b 3F150000 		.4byte	0x153f
 3761 153f 0E       		.uleb128 0xe
 3762 1540 04       		.byte	0x4
 3763 1541 45150000 		.4byte	0x1545
 3764 1545 19       		.uleb128 0x19
 3765 1546 2C050000 		.4byte	0x52c
 3766 154a 2A       		.uleb128 0x2a
 3767 154b 2E000000 		.4byte	.LASF367
 3768 154f 19       		.byte	0x19
 3769 1550 1F       		.byte	0x1f
 3770 1551 55150000 		.4byte	0x1555
 3771 1555 19       		.uleb128 0x19
 3772 1556 7E080000 		.4byte	0x87e
 3773 155a 2A       		.uleb128 0x2a
 3774 155b 62000000 		.4byte	.LASF368
 3775 155f 1A       		.byte	0x1a
 3776 1560 7F       		.byte	0x7f
 3777 1561 E6060000 		.4byte	0x6e6
 3778 1565 2A       		.uleb128 0x2a
 3779 1566 E1080000 		.4byte	.LASF369
 3780 156a 1B       		.byte	0x1b
 3781 156b 5E       		.byte	0x5e
 3782 156c 81070000 		.4byte	0x781
 3783 1570 07       		.uleb128 0x7
 3784 1571 F80B0000 		.4byte	0xbf8
 3785 1575 80150000 		.4byte	0x1580
 3786 1579 08       		.uleb128 0x8
 3787 157a B6000000 		.4byte	0xb6
 3788 157e 02       		.byte	0x2
 3789 157f 00       		.byte	0
 3790 1580 2B       		.uleb128 0x2b
 3791 1581 AB110000 		.4byte	.LASF370
 3792 1585 05       		.byte	0x5
 3793 1586 0C       		.byte	0xc
 3794 1587 91150000 		.4byte	0x1591
 3795 158b 05       		.uleb128 0x5
 3796 158c 03       		.byte	0x3
ARM GAS  C:\Users\tmj32\AppData\Local\Temp\cco3Klhe.s 			page 88


 3797 158d 00000000 		.4byte	tcnj_blue
 3798 1591 19       		.uleb128 0x19
 3799 1592 70150000 		.4byte	0x1570
 3800 1596 2B       		.uleb128 0x2b
 3801 1597 36070000 		.4byte	.LASF371
 3802 159b 05       		.byte	0x5
 3803 159c 0D       		.byte	0xd
 3804 159d A7150000 		.4byte	0x15a7
 3805 15a1 05       		.uleb128 0x5
 3806 15a2 03       		.byte	0x3
 3807 15a3 00000000 		.4byte	tcnj_gold
 3808 15a7 19       		.uleb128 0x19
 3809 15a8 70150000 		.4byte	0x1570
 3810 15ac 2B       		.uleb128 0x2b
 3811 15ad 92120000 		.4byte	.LASF372
 3812 15b1 05       		.byte	0x5
 3813 15b2 0F       		.byte	0xf
 3814 15b3 9F000000 		.4byte	0x9f
 3815 15b7 05       		.uleb128 0x5
 3816 15b8 03       		.byte	0x3
 3817 15b9 00000000 		.4byte	SPIflag
 3818 15bd 00       		.byte	0
 3819              		.section	.debug_abbrev,"",%progbits
 3820              	.Ldebug_abbrev0:
 3821 0000 01       		.uleb128 0x1
 3822 0001 11       		.uleb128 0x11
 3823 0002 01       		.byte	0x1
 3824 0003 25       		.uleb128 0x25
 3825 0004 0E       		.uleb128 0xe
 3826 0005 13       		.uleb128 0x13
 3827 0006 0B       		.uleb128 0xb
 3828 0007 03       		.uleb128 0x3
 3829 0008 0E       		.uleb128 0xe
 3830 0009 1B       		.uleb128 0x1b
 3831 000a 0E       		.uleb128 0xe
 3832 000b 55       		.uleb128 0x55
 3833 000c 17       		.uleb128 0x17
 3834 000d 11       		.uleb128 0x11
 3835 000e 01       		.uleb128 0x1
 3836 000f 10       		.uleb128 0x10
 3837 0010 17       		.uleb128 0x17
 3838 0011 00       		.byte	0
 3839 0012 00       		.byte	0
 3840 0013 02       		.uleb128 0x2
 3841 0014 16       		.uleb128 0x16
 3842 0015 00       		.byte	0
 3843 0016 03       		.uleb128 0x3
 3844 0017 0E       		.uleb128 0xe
 3845 0018 3A       		.uleb128 0x3a
 3846 0019 0B       		.uleb128 0xb
 3847 001a 3B       		.uleb128 0x3b
 3848 001b 0B       		.uleb128 0xb
 3849 001c 49       		.uleb128 0x49
 3850 001d 13       		.uleb128 0x13
 3851 001e 00       		.byte	0
 3852 001f 00       		.byte	0
 3853 0020 03       		.uleb128 0x3
ARM GAS  C:\Users\tmj32\AppData\Local\Temp\cco3Klhe.s 			page 89


 3854 0021 24       		.uleb128 0x24
 3855 0022 00       		.byte	0
 3856 0023 0B       		.uleb128 0xb
 3857 0024 0B       		.uleb128 0xb
 3858 0025 3E       		.uleb128 0x3e
 3859 0026 0B       		.uleb128 0xb
 3860 0027 03       		.uleb128 0x3
 3861 0028 0E       		.uleb128 0xe
 3862 0029 00       		.byte	0
 3863 002a 00       		.byte	0
 3864 002b 04       		.uleb128 0x4
 3865 002c 24       		.uleb128 0x24
 3866 002d 00       		.byte	0
 3867 002e 0B       		.uleb128 0xb
 3868 002f 0B       		.uleb128 0xb
 3869 0030 3E       		.uleb128 0x3e
 3870 0031 0B       		.uleb128 0xb
 3871 0032 03       		.uleb128 0x3
 3872 0033 08       		.uleb128 0x8
 3873 0034 00       		.byte	0
 3874 0035 00       		.byte	0
 3875 0036 05       		.uleb128 0x5
 3876 0037 0F       		.uleb128 0xf
 3877 0038 00       		.byte	0
 3878 0039 0B       		.uleb128 0xb
 3879 003a 0B       		.uleb128 0xb
 3880 003b 00       		.byte	0
 3881 003c 00       		.byte	0
 3882 003d 06       		.uleb128 0x6
 3883 003e 35       		.uleb128 0x35
 3884 003f 00       		.byte	0
 3885 0040 49       		.uleb128 0x49
 3886 0041 13       		.uleb128 0x13
 3887 0042 00       		.byte	0
 3888 0043 00       		.byte	0
 3889 0044 07       		.uleb128 0x7
 3890 0045 01       		.uleb128 0x1
 3891 0046 01       		.byte	0x1
 3892 0047 49       		.uleb128 0x49
 3893 0048 13       		.uleb128 0x13
 3894 0049 01       		.uleb128 0x1
 3895 004a 13       		.uleb128 0x13
 3896 004b 00       		.byte	0
 3897 004c 00       		.byte	0
 3898 004d 08       		.uleb128 0x8
 3899 004e 21       		.uleb128 0x21
 3900 004f 00       		.byte	0
 3901 0050 49       		.uleb128 0x49
 3902 0051 13       		.uleb128 0x13
 3903 0052 2F       		.uleb128 0x2f
 3904 0053 0B       		.uleb128 0xb
 3905 0054 00       		.byte	0
 3906 0055 00       		.byte	0
 3907 0056 09       		.uleb128 0x9
 3908 0057 13       		.uleb128 0x13
 3909 0058 01       		.byte	0x1
 3910 0059 0B       		.uleb128 0xb
ARM GAS  C:\Users\tmj32\AppData\Local\Temp\cco3Klhe.s 			page 90


 3911 005a 0B       		.uleb128 0xb
 3912 005b 3A       		.uleb128 0x3a
 3913 005c 0B       		.uleb128 0xb
 3914 005d 3B       		.uleb128 0x3b
 3915 005e 0B       		.uleb128 0xb
 3916 005f 01       		.uleb128 0x1
 3917 0060 13       		.uleb128 0x13
 3918 0061 00       		.byte	0
 3919 0062 00       		.byte	0
 3920 0063 0A       		.uleb128 0xa
 3921 0064 0D       		.uleb128 0xd
 3922 0065 00       		.byte	0
 3923 0066 03       		.uleb128 0x3
 3924 0067 0E       		.uleb128 0xe
 3925 0068 3A       		.uleb128 0x3a
 3926 0069 0B       		.uleb128 0xb
 3927 006a 3B       		.uleb128 0x3b
 3928 006b 0B       		.uleb128 0xb
 3929 006c 49       		.uleb128 0x49
 3930 006d 13       		.uleb128 0x13
 3931 006e 38       		.uleb128 0x38
 3932 006f 0B       		.uleb128 0xb
 3933 0070 00       		.byte	0
 3934 0071 00       		.byte	0
 3935 0072 0B       		.uleb128 0xb
 3936 0073 16       		.uleb128 0x16
 3937 0074 00       		.byte	0
 3938 0075 03       		.uleb128 0x3
 3939 0076 0E       		.uleb128 0xe
 3940 0077 3A       		.uleb128 0x3a
 3941 0078 0B       		.uleb128 0xb
 3942 0079 3B       		.uleb128 0x3b
 3943 007a 05       		.uleb128 0x5
 3944 007b 49       		.uleb128 0x49
 3945 007c 13       		.uleb128 0x13
 3946 007d 00       		.byte	0
 3947 007e 00       		.byte	0
 3948 007f 0C       		.uleb128 0xc
 3949 0080 04       		.uleb128 0x4
 3950 0081 01       		.byte	0x1
 3951 0082 0B       		.uleb128 0xb
 3952 0083 0B       		.uleb128 0xb
 3953 0084 49       		.uleb128 0x49
 3954 0085 13       		.uleb128 0x13
 3955 0086 3A       		.uleb128 0x3a
 3956 0087 0B       		.uleb128 0xb
 3957 0088 3B       		.uleb128 0x3b
 3958 0089 05       		.uleb128 0x5
 3959 008a 01       		.uleb128 0x1
 3960 008b 13       		.uleb128 0x13
 3961 008c 00       		.byte	0
 3962 008d 00       		.byte	0
 3963 008e 0D       		.uleb128 0xd
 3964 008f 28       		.uleb128 0x28
 3965 0090 00       		.byte	0
 3966 0091 03       		.uleb128 0x3
 3967 0092 0E       		.uleb128 0xe
ARM GAS  C:\Users\tmj32\AppData\Local\Temp\cco3Klhe.s 			page 91


 3968 0093 1C       		.uleb128 0x1c
 3969 0094 0B       		.uleb128 0xb
 3970 0095 00       		.byte	0
 3971 0096 00       		.byte	0
 3972 0097 0E       		.uleb128 0xe
 3973 0098 0F       		.uleb128 0xf
 3974 0099 00       		.byte	0
 3975 009a 0B       		.uleb128 0xb
 3976 009b 0B       		.uleb128 0xb
 3977 009c 49       		.uleb128 0x49
 3978 009d 13       		.uleb128 0x13
 3979 009e 00       		.byte	0
 3980 009f 00       		.byte	0
 3981 00a0 0F       		.uleb128 0xf
 3982 00a1 15       		.uleb128 0x15
 3983 00a2 01       		.byte	0x1
 3984 00a3 27       		.uleb128 0x27
 3985 00a4 19       		.uleb128 0x19
 3986 00a5 01       		.uleb128 0x1
 3987 00a6 13       		.uleb128 0x13
 3988 00a7 00       		.byte	0
 3989 00a8 00       		.byte	0
 3990 00a9 10       		.uleb128 0x10
 3991 00aa 05       		.uleb128 0x5
 3992 00ab 00       		.byte	0
 3993 00ac 49       		.uleb128 0x49
 3994 00ad 13       		.uleb128 0x13
 3995 00ae 00       		.byte	0
 3996 00af 00       		.byte	0
 3997 00b0 11       		.uleb128 0x11
 3998 00b1 15       		.uleb128 0x15
 3999 00b2 01       		.byte	0x1
 4000 00b3 27       		.uleb128 0x27
 4001 00b4 19       		.uleb128 0x19
 4002 00b5 49       		.uleb128 0x49
 4003 00b6 13       		.uleb128 0x13
 4004 00b7 01       		.uleb128 0x1
 4005 00b8 13       		.uleb128 0x13
 4006 00b9 00       		.byte	0
 4007 00ba 00       		.byte	0
 4008 00bb 12       		.uleb128 0x12
 4009 00bc 13       		.uleb128 0x13
 4010 00bd 01       		.byte	0x1
 4011 00be 03       		.uleb128 0x3
 4012 00bf 0E       		.uleb128 0xe
 4013 00c0 0B       		.uleb128 0xb
 4014 00c1 0B       		.uleb128 0xb
 4015 00c2 3A       		.uleb128 0x3a
 4016 00c3 0B       		.uleb128 0xb
 4017 00c4 3B       		.uleb128 0x3b
 4018 00c5 05       		.uleb128 0x5
 4019 00c6 01       		.uleb128 0x1
 4020 00c7 13       		.uleb128 0x13
 4021 00c8 00       		.byte	0
 4022 00c9 00       		.byte	0
 4023 00ca 13       		.uleb128 0x13
 4024 00cb 0D       		.uleb128 0xd
ARM GAS  C:\Users\tmj32\AppData\Local\Temp\cco3Klhe.s 			page 92


 4025 00cc 00       		.byte	0
 4026 00cd 03       		.uleb128 0x3
 4027 00ce 0E       		.uleb128 0xe
 4028 00cf 3A       		.uleb128 0x3a
 4029 00d0 0B       		.uleb128 0xb
 4030 00d1 3B       		.uleb128 0x3b
 4031 00d2 05       		.uleb128 0x5
 4032 00d3 49       		.uleb128 0x49
 4033 00d4 13       		.uleb128 0x13
 4034 00d5 38       		.uleb128 0x38
 4035 00d6 0B       		.uleb128 0xb
 4036 00d7 00       		.byte	0
 4037 00d8 00       		.byte	0
 4038 00d9 14       		.uleb128 0x14
 4039 00da 13       		.uleb128 0x13
 4040 00db 01       		.byte	0x1
 4041 00dc 03       		.uleb128 0x3
 4042 00dd 0E       		.uleb128 0xe
 4043 00de 0B       		.uleb128 0xb
 4044 00df 0B       		.uleb128 0xb
 4045 00e0 3A       		.uleb128 0x3a
 4046 00e1 0B       		.uleb128 0xb
 4047 00e2 3B       		.uleb128 0x3b
 4048 00e3 0B       		.uleb128 0xb
 4049 00e4 01       		.uleb128 0x1
 4050 00e5 13       		.uleb128 0x13
 4051 00e6 00       		.byte	0
 4052 00e7 00       		.byte	0
 4053 00e8 15       		.uleb128 0x15
 4054 00e9 0D       		.uleb128 0xd
 4055 00ea 00       		.byte	0
 4056 00eb 03       		.uleb128 0x3
 4057 00ec 08       		.uleb128 0x8
 4058 00ed 3A       		.uleb128 0x3a
 4059 00ee 0B       		.uleb128 0xb
 4060 00ef 3B       		.uleb128 0x3b
 4061 00f0 0B       		.uleb128 0xb
 4062 00f1 49       		.uleb128 0x49
 4063 00f2 13       		.uleb128 0x13
 4064 00f3 38       		.uleb128 0x38
 4065 00f4 0B       		.uleb128 0xb
 4066 00f5 00       		.byte	0
 4067 00f6 00       		.byte	0
 4068 00f7 16       		.uleb128 0x16
 4069 00f8 17       		.uleb128 0x17
 4070 00f9 01       		.byte	0x1
 4071 00fa 0B       		.uleb128 0xb
 4072 00fb 0B       		.uleb128 0xb
 4073 00fc 3A       		.uleb128 0x3a
 4074 00fd 0B       		.uleb128 0xb
 4075 00fe 3B       		.uleb128 0x3b
 4076 00ff 0B       		.uleb128 0xb
 4077 0100 01       		.uleb128 0x1
 4078 0101 13       		.uleb128 0x13
 4079 0102 00       		.byte	0
 4080 0103 00       		.byte	0
 4081 0104 17       		.uleb128 0x17
ARM GAS  C:\Users\tmj32\AppData\Local\Temp\cco3Klhe.s 			page 93


 4082 0105 0D       		.uleb128 0xd
 4083 0106 00       		.byte	0
 4084 0107 03       		.uleb128 0x3
 4085 0108 08       		.uleb128 0x8
 4086 0109 3A       		.uleb128 0x3a
 4087 010a 0B       		.uleb128 0xb
 4088 010b 3B       		.uleb128 0x3b
 4089 010c 0B       		.uleb128 0xb
 4090 010d 49       		.uleb128 0x49
 4091 010e 13       		.uleb128 0x13
 4092 010f 00       		.byte	0
 4093 0110 00       		.byte	0
 4094 0111 18       		.uleb128 0x18
 4095 0112 0D       		.uleb128 0xd
 4096 0113 00       		.byte	0
 4097 0114 03       		.uleb128 0x3
 4098 0115 0E       		.uleb128 0xe
 4099 0116 3A       		.uleb128 0x3a
 4100 0117 0B       		.uleb128 0xb
 4101 0118 3B       		.uleb128 0x3b
 4102 0119 0B       		.uleb128 0xb
 4103 011a 49       		.uleb128 0x49
 4104 011b 13       		.uleb128 0x13
 4105 011c 00       		.byte	0
 4106 011d 00       		.byte	0
 4107 011e 19       		.uleb128 0x19
 4108 011f 26       		.uleb128 0x26
 4109 0120 00       		.byte	0
 4110 0121 49       		.uleb128 0x49
 4111 0122 13       		.uleb128 0x13
 4112 0123 00       		.byte	0
 4113 0124 00       		.byte	0
 4114 0125 1A       		.uleb128 0x1a
 4115 0126 0D       		.uleb128 0xd
 4116 0127 00       		.byte	0
 4117 0128 03       		.uleb128 0x3
 4118 0129 0E       		.uleb128 0xe
 4119 012a 3A       		.uleb128 0x3a
 4120 012b 0B       		.uleb128 0xb
 4121 012c 3B       		.uleb128 0x3b
 4122 012d 0B       		.uleb128 0xb
 4123 012e 49       		.uleb128 0x49
 4124 012f 13       		.uleb128 0x13
 4125 0130 0B       		.uleb128 0xb
 4126 0131 0B       		.uleb128 0xb
 4127 0132 0D       		.uleb128 0xd
 4128 0133 0B       		.uleb128 0xb
 4129 0134 0C       		.uleb128 0xc
 4130 0135 0B       		.uleb128 0xb
 4131 0136 38       		.uleb128 0x38
 4132 0137 0B       		.uleb128 0xb
 4133 0138 00       		.byte	0
 4134 0139 00       		.byte	0
 4135 013a 1B       		.uleb128 0x1b
 4136 013b 0D       		.uleb128 0xd
 4137 013c 00       		.byte	0
 4138 013d 03       		.uleb128 0x3
ARM GAS  C:\Users\tmj32\AppData\Local\Temp\cco3Klhe.s 			page 94


 4139 013e 08       		.uleb128 0x8
 4140 013f 3A       		.uleb128 0x3a
 4141 0140 0B       		.uleb128 0xb
 4142 0141 3B       		.uleb128 0x3b
 4143 0142 0B       		.uleb128 0xb
 4144 0143 49       		.uleb128 0x49
 4145 0144 13       		.uleb128 0x13
 4146 0145 0B       		.uleb128 0xb
 4147 0146 0B       		.uleb128 0xb
 4148 0147 0D       		.uleb128 0xd
 4149 0148 0B       		.uleb128 0xb
 4150 0149 0C       		.uleb128 0xc
 4151 014a 0B       		.uleb128 0xb
 4152 014b 38       		.uleb128 0x38
 4153 014c 0B       		.uleb128 0xb
 4154 014d 00       		.byte	0
 4155 014e 00       		.byte	0
 4156 014f 1C       		.uleb128 0x1c
 4157 0150 04       		.uleb128 0x4
 4158 0151 01       		.byte	0x1
 4159 0152 0B       		.uleb128 0xb
 4160 0153 0B       		.uleb128 0xb
 4161 0154 49       		.uleb128 0x49
 4162 0155 13       		.uleb128 0x13
 4163 0156 3A       		.uleb128 0x3a
 4164 0157 0B       		.uleb128 0xb
 4165 0158 3B       		.uleb128 0x3b
 4166 0159 0B       		.uleb128 0xb
 4167 015a 01       		.uleb128 0x1
 4168 015b 13       		.uleb128 0x13
 4169 015c 00       		.byte	0
 4170 015d 00       		.byte	0
 4171 015e 1D       		.uleb128 0x1d
 4172 015f 2E       		.uleb128 0x2e
 4173 0160 01       		.byte	0x1
 4174 0161 03       		.uleb128 0x3
 4175 0162 0E       		.uleb128 0xe
 4176 0163 3A       		.uleb128 0x3a
 4177 0164 0B       		.uleb128 0xb
 4178 0165 3B       		.uleb128 0x3b
 4179 0166 05       		.uleb128 0x5
 4180 0167 27       		.uleb128 0x27
 4181 0168 19       		.uleb128 0x19
 4182 0169 49       		.uleb128 0x49
 4183 016a 13       		.uleb128 0x13
 4184 016b 11       		.uleb128 0x11
 4185 016c 01       		.uleb128 0x1
 4186 016d 12       		.uleb128 0x12
 4187 016e 06       		.uleb128 0x6
 4188 016f 40       		.uleb128 0x40
 4189 0170 18       		.uleb128 0x18
 4190 0171 9742     		.uleb128 0x2117
 4191 0173 19       		.uleb128 0x19
 4192 0174 01       		.uleb128 0x1
 4193 0175 13       		.uleb128 0x13
 4194 0176 00       		.byte	0
 4195 0177 00       		.byte	0
ARM GAS  C:\Users\tmj32\AppData\Local\Temp\cco3Klhe.s 			page 95


 4196 0178 1E       		.uleb128 0x1e
 4197 0179 05       		.uleb128 0x5
 4198 017a 00       		.byte	0
 4199 017b 03       		.uleb128 0x3
 4200 017c 08       		.uleb128 0x8
 4201 017d 3A       		.uleb128 0x3a
 4202 017e 0B       		.uleb128 0xb
 4203 017f 3B       		.uleb128 0x3b
 4204 0180 05       		.uleb128 0x5
 4205 0181 49       		.uleb128 0x49
 4206 0182 13       		.uleb128 0x13
 4207 0183 02       		.uleb128 0x2
 4208 0184 18       		.uleb128 0x18
 4209 0185 00       		.byte	0
 4210 0186 00       		.byte	0
 4211 0187 1F       		.uleb128 0x1f
 4212 0188 2E       		.uleb128 0x2e
 4213 0189 01       		.byte	0x1
 4214 018a 03       		.uleb128 0x3
 4215 018b 0E       		.uleb128 0xe
 4216 018c 3A       		.uleb128 0x3a
 4217 018d 0B       		.uleb128 0xb
 4218 018e 3B       		.uleb128 0x3b
 4219 018f 05       		.uleb128 0x5
 4220 0190 27       		.uleb128 0x27
 4221 0191 19       		.uleb128 0x19
 4222 0192 49       		.uleb128 0x49
 4223 0193 13       		.uleb128 0x13
 4224 0194 11       		.uleb128 0x11
 4225 0195 01       		.uleb128 0x1
 4226 0196 12       		.uleb128 0x12
 4227 0197 06       		.uleb128 0x6
 4228 0198 40       		.uleb128 0x40
 4229 0199 18       		.uleb128 0x18
 4230 019a 9642     		.uleb128 0x2116
 4231 019c 19       		.uleb128 0x19
 4232 019d 01       		.uleb128 0x1
 4233 019e 13       		.uleb128 0x13
 4234 019f 00       		.byte	0
 4235 01a0 00       		.byte	0
 4236 01a1 20       		.uleb128 0x20
 4237 01a2 2E       		.uleb128 0x2e
 4238 01a3 00       		.byte	0
 4239 01a4 03       		.uleb128 0x3
 4240 01a5 0E       		.uleb128 0xe
 4241 01a6 3A       		.uleb128 0x3a
 4242 01a7 0B       		.uleb128 0xb
 4243 01a8 3B       		.uleb128 0x3b
 4244 01a9 0B       		.uleb128 0xb
 4245 01aa 27       		.uleb128 0x27
 4246 01ab 19       		.uleb128 0x19
 4247 01ac 49       		.uleb128 0x49
 4248 01ad 13       		.uleb128 0x13
 4249 01ae 11       		.uleb128 0x11
 4250 01af 01       		.uleb128 0x1
 4251 01b0 12       		.uleb128 0x12
 4252 01b1 06       		.uleb128 0x6
ARM GAS  C:\Users\tmj32\AppData\Local\Temp\cco3Klhe.s 			page 96


 4253 01b2 40       		.uleb128 0x40
 4254 01b3 18       		.uleb128 0x18
 4255 01b4 9642     		.uleb128 0x2116
 4256 01b6 19       		.uleb128 0x19
 4257 01b7 00       		.byte	0
 4258 01b8 00       		.byte	0
 4259 01b9 21       		.uleb128 0x21
 4260 01ba 2E       		.uleb128 0x2e
 4261 01bb 01       		.byte	0x1
 4262 01bc 03       		.uleb128 0x3
 4263 01bd 0E       		.uleb128 0xe
 4264 01be 3A       		.uleb128 0x3a
 4265 01bf 0B       		.uleb128 0xb
 4266 01c0 3B       		.uleb128 0x3b
 4267 01c1 0B       		.uleb128 0xb
 4268 01c2 27       		.uleb128 0x27
 4269 01c3 19       		.uleb128 0x19
 4270 01c4 11       		.uleb128 0x11
 4271 01c5 01       		.uleb128 0x1
 4272 01c6 12       		.uleb128 0x12
 4273 01c7 06       		.uleb128 0x6
 4274 01c8 40       		.uleb128 0x40
 4275 01c9 18       		.uleb128 0x18
 4276 01ca 9642     		.uleb128 0x2116
 4277 01cc 19       		.uleb128 0x19
 4278 01cd 01       		.uleb128 0x1
 4279 01ce 13       		.uleb128 0x13
 4280 01cf 00       		.byte	0
 4281 01d0 00       		.byte	0
 4282 01d1 22       		.uleb128 0x22
 4283 01d2 05       		.uleb128 0x5
 4284 01d3 00       		.byte	0
 4285 01d4 03       		.uleb128 0x3
 4286 01d5 0E       		.uleb128 0xe
 4287 01d6 3A       		.uleb128 0x3a
 4288 01d7 0B       		.uleb128 0xb
 4289 01d8 3B       		.uleb128 0x3b
 4290 01d9 0B       		.uleb128 0xb
 4291 01da 49       		.uleb128 0x49
 4292 01db 13       		.uleb128 0x13
 4293 01dc 02       		.uleb128 0x2
 4294 01dd 18       		.uleb128 0x18
 4295 01de 00       		.byte	0
 4296 01df 00       		.byte	0
 4297 01e0 23       		.uleb128 0x23
 4298 01e1 05       		.uleb128 0x5
 4299 01e2 00       		.byte	0
 4300 01e3 03       		.uleb128 0x3
 4301 01e4 08       		.uleb128 0x8
 4302 01e5 3A       		.uleb128 0x3a
 4303 01e6 0B       		.uleb128 0xb
 4304 01e7 3B       		.uleb128 0x3b
 4305 01e8 0B       		.uleb128 0xb
 4306 01e9 49       		.uleb128 0x49
 4307 01ea 13       		.uleb128 0x13
 4308 01eb 02       		.uleb128 0x2
 4309 01ec 18       		.uleb128 0x18
ARM GAS  C:\Users\tmj32\AppData\Local\Temp\cco3Klhe.s 			page 97


 4310 01ed 00       		.byte	0
 4311 01ee 00       		.byte	0
 4312 01ef 24       		.uleb128 0x24
 4313 01f0 2E       		.uleb128 0x2e
 4314 01f1 01       		.byte	0x1
 4315 01f2 03       		.uleb128 0x3
 4316 01f3 0E       		.uleb128 0xe
 4317 01f4 3A       		.uleb128 0x3a
 4318 01f5 0B       		.uleb128 0xb
 4319 01f6 3B       		.uleb128 0x3b
 4320 01f7 0B       		.uleb128 0xb
 4321 01f8 27       		.uleb128 0x27
 4322 01f9 19       		.uleb128 0x19
 4323 01fa 49       		.uleb128 0x49
 4324 01fb 13       		.uleb128 0x13
 4325 01fc 11       		.uleb128 0x11
 4326 01fd 01       		.uleb128 0x1
 4327 01fe 12       		.uleb128 0x12
 4328 01ff 06       		.uleb128 0x6
 4329 0200 40       		.uleb128 0x40
 4330 0201 18       		.uleb128 0x18
 4331 0202 9642     		.uleb128 0x2116
 4332 0204 19       		.uleb128 0x19
 4333 0205 01       		.uleb128 0x1
 4334 0206 13       		.uleb128 0x13
 4335 0207 00       		.byte	0
 4336 0208 00       		.byte	0
 4337 0209 25       		.uleb128 0x25
 4338 020a 0B       		.uleb128 0xb
 4339 020b 01       		.byte	0x1
 4340 020c 11       		.uleb128 0x11
 4341 020d 01       		.uleb128 0x1
 4342 020e 12       		.uleb128 0x12
 4343 020f 06       		.uleb128 0x6
 4344 0210 00       		.byte	0
 4345 0211 00       		.byte	0
 4346 0212 26       		.uleb128 0x26
 4347 0213 34       		.uleb128 0x34
 4348 0214 00       		.byte	0
 4349 0215 03       		.uleb128 0x3
 4350 0216 08       		.uleb128 0x8
 4351 0217 3A       		.uleb128 0x3a
 4352 0218 0B       		.uleb128 0xb
 4353 0219 3B       		.uleb128 0x3b
 4354 021a 0B       		.uleb128 0xb
 4355 021b 49       		.uleb128 0x49
 4356 021c 13       		.uleb128 0x13
 4357 021d 02       		.uleb128 0x2
 4358 021e 18       		.uleb128 0x18
 4359 021f 00       		.byte	0
 4360 0220 00       		.byte	0
 4361 0221 27       		.uleb128 0x27
 4362 0222 2E       		.uleb128 0x2e
 4363 0223 01       		.byte	0x1
 4364 0224 3F       		.uleb128 0x3f
 4365 0225 19       		.uleb128 0x19
 4366 0226 03       		.uleb128 0x3
ARM GAS  C:\Users\tmj32\AppData\Local\Temp\cco3Klhe.s 			page 98


 4367 0227 0E       		.uleb128 0xe
 4368 0228 3A       		.uleb128 0x3a
 4369 0229 0B       		.uleb128 0xb
 4370 022a 3B       		.uleb128 0x3b
 4371 022b 0B       		.uleb128 0xb
 4372 022c 11       		.uleb128 0x11
 4373 022d 01       		.uleb128 0x1
 4374 022e 12       		.uleb128 0x12
 4375 022f 06       		.uleb128 0x6
 4376 0230 40       		.uleb128 0x40
 4377 0231 18       		.uleb128 0x18
 4378 0232 9642     		.uleb128 0x2116
 4379 0234 19       		.uleb128 0x19
 4380 0235 01       		.uleb128 0x1
 4381 0236 13       		.uleb128 0x13
 4382 0237 00       		.byte	0
 4383 0238 00       		.byte	0
 4384 0239 28       		.uleb128 0x28
 4385 023a 34       		.uleb128 0x34
 4386 023b 00       		.byte	0
 4387 023c 03       		.uleb128 0x3
 4388 023d 0E       		.uleb128 0xe
 4389 023e 3A       		.uleb128 0x3a
 4390 023f 0B       		.uleb128 0xb
 4391 0240 3B       		.uleb128 0x3b
 4392 0241 0B       		.uleb128 0xb
 4393 0242 49       		.uleb128 0x49
 4394 0243 13       		.uleb128 0x13
 4395 0244 02       		.uleb128 0x2
 4396 0245 18       		.uleb128 0x18
 4397 0246 00       		.byte	0
 4398 0247 00       		.byte	0
 4399 0248 29       		.uleb128 0x29
 4400 0249 34       		.uleb128 0x34
 4401 024a 00       		.byte	0
 4402 024b 03       		.uleb128 0x3
 4403 024c 0E       		.uleb128 0xe
 4404 024d 3A       		.uleb128 0x3a
 4405 024e 0B       		.uleb128 0xb
 4406 024f 3B       		.uleb128 0x3b
 4407 0250 05       		.uleb128 0x5
 4408 0251 49       		.uleb128 0x49
 4409 0252 13       		.uleb128 0x13
 4410 0253 3F       		.uleb128 0x3f
 4411 0254 19       		.uleb128 0x19
 4412 0255 3C       		.uleb128 0x3c
 4413 0256 19       		.uleb128 0x19
 4414 0257 00       		.byte	0
 4415 0258 00       		.byte	0
 4416 0259 2A       		.uleb128 0x2a
 4417 025a 34       		.uleb128 0x34
 4418 025b 00       		.byte	0
 4419 025c 03       		.uleb128 0x3
 4420 025d 0E       		.uleb128 0xe
 4421 025e 3A       		.uleb128 0x3a
 4422 025f 0B       		.uleb128 0xb
 4423 0260 3B       		.uleb128 0x3b
ARM GAS  C:\Users\tmj32\AppData\Local\Temp\cco3Klhe.s 			page 99


 4424 0261 0B       		.uleb128 0xb
 4425 0262 49       		.uleb128 0x49
 4426 0263 13       		.uleb128 0x13
 4427 0264 3F       		.uleb128 0x3f
 4428 0265 19       		.uleb128 0x19
 4429 0266 3C       		.uleb128 0x3c
 4430 0267 19       		.uleb128 0x19
 4431 0268 00       		.byte	0
 4432 0269 00       		.byte	0
 4433 026a 2B       		.uleb128 0x2b
 4434 026b 34       		.uleb128 0x34
 4435 026c 00       		.byte	0
 4436 026d 03       		.uleb128 0x3
 4437 026e 0E       		.uleb128 0xe
 4438 026f 3A       		.uleb128 0x3a
 4439 0270 0B       		.uleb128 0xb
 4440 0271 3B       		.uleb128 0x3b
 4441 0272 0B       		.uleb128 0xb
 4442 0273 49       		.uleb128 0x49
 4443 0274 13       		.uleb128 0x13
 4444 0275 3F       		.uleb128 0x3f
 4445 0276 19       		.uleb128 0x19
 4446 0277 02       		.uleb128 0x2
 4447 0278 18       		.uleb128 0x18
 4448 0279 00       		.byte	0
 4449 027a 00       		.byte	0
 4450 027b 00       		.byte	0
 4451              		.section	.debug_aranges,"",%progbits
 4452 0000 5C000000 		.4byte	0x5c
 4453 0004 0200     		.2byte	0x2
 4454 0006 00000000 		.4byte	.Ldebug_info0
 4455 000a 04       		.byte	0x4
 4456 000b 00       		.byte	0
 4457 000c 0000     		.2byte	0
 4458 000e 0000     		.2byte	0
 4459 0010 00000000 		.4byte	.LFB588
 4460 0014 38000000 		.4byte	.LFE588-.LFB588
 4461 0018 00000000 		.4byte	.LFB589
 4462 001c 28000000 		.4byte	.LFE589-.LFB589
 4463 0020 00000000 		.4byte	.LFB613
 4464 0024 16000000 		.4byte	.LFE613-.LFB613
 4465 0028 00000000 		.4byte	.LFB668
 4466 002c 26000000 		.4byte	.LFE668-.LFB668
 4467 0030 00000000 		.4byte	.LFB669
 4468 0034 28000000 		.4byte	.LFE669-.LFB669
 4469 0038 00000000 		.4byte	.LFB714
 4470 003c 22000000 		.4byte	.LFE714-.LFB714
 4471 0040 00000000 		.4byte	.LFB717
 4472 0044 58000000 		.4byte	.LFE717-.LFB717
 4473 0048 00000000 		.4byte	.LFB718
 4474 004c 34000000 		.4byte	.LFE718-.LFB718
 4475 0050 00000000 		.4byte	.LFB719
 4476 0054 40040000 		.4byte	.LFE719-.LFB719
 4477 0058 00000000 		.4byte	0
 4478 005c 00000000 		.4byte	0
 4479              		.section	.debug_ranges,"",%progbits
 4480              	.Ldebug_ranges0:
ARM GAS  C:\Users\tmj32\AppData\Local\Temp\cco3Klhe.s 			page 100


 4481 0000 00000000 		.4byte	.LFB588
 4482 0004 38000000 		.4byte	.LFE588
 4483 0008 00000000 		.4byte	.LFB589
 4484 000c 28000000 		.4byte	.LFE589
 4485 0010 00000000 		.4byte	.LFB613
 4486 0014 16000000 		.4byte	.LFE613
 4487 0018 00000000 		.4byte	.LFB668
 4488 001c 26000000 		.4byte	.LFE668
 4489 0020 00000000 		.4byte	.LFB669
 4490 0024 28000000 		.4byte	.LFE669
 4491 0028 00000000 		.4byte	.LFB714
 4492 002c 22000000 		.4byte	.LFE714
 4493 0030 00000000 		.4byte	.LFB717
 4494 0034 58000000 		.4byte	.LFE717
 4495 0038 00000000 		.4byte	.LFB718
 4496 003c 34000000 		.4byte	.LFE718
 4497 0040 00000000 		.4byte	.LFB719
 4498 0044 40040000 		.4byte	.LFE719
 4499 0048 00000000 		.4byte	0
 4500 004c 00000000 		.4byte	0
 4501              		.section	.debug_line,"",%progbits
 4502              	.Ldebug_line0:
 4503 0000 23060000 		.section	.debug_str,"MS",%progbits,1
 4503      0200E904 
 4503      00000201 
 4503      FB0E0D00 
 4503      01010101 
 4504              	.LASF198:
 4505 0000 636C6963 		.ascii	"click\000"
 4505      6B00
 4506              	.LASF190:
 4507 0006 5F6C765F 		.ascii	"_lv_obj_t\000"
 4507      6F626A5F 
 4507      7400
 4508              	.LASF142:
 4509 0010 63795F63 		.ascii	"cy_cb_scb_spi_handle_events_t\000"
 4509      625F7363 
 4509      625F7370 
 4509      695F6861 
 4509      6E646C65 
 4510              	.LASF367:
 4511 002e 44495350 		.ascii	"DISP_TICK_TIMER_config\000"
 4511      5F544943 
 4511      4B5F5449 
 4511      4D45525F 
 4511      636F6E66 
 4512              	.LASF185:
 4513 0045 66756C6C 		.ascii	"full\000"
 4513      00
 4514              	.LASF170:
 4515 004a 73746F70 		.ascii	"stopInputMode\000"
 4515      496E7075 
 4515      744D6F64 
 4515      6500
 4516              	.LASF366:
 4517 0058 63795F64 		.ascii	"cy_device\000"
 4517      65766963 
ARM GAS  C:\Users\tmj32\AppData\Local\Temp\cco3Klhe.s 			page 101


 4517      6500
 4518              	.LASF368:
 4519 0062 4932435F 		.ascii	"I2C_MASTER_context\000"
 4519      4D415354 
 4519      45525F63 
 4519      6F6E7465 
 4519      787400
 4520              	.LASF347:
 4521 0075 63686172 		.ascii	"chart1\000"
 4521      743100
 4522              	.LASF94:
 4523 007c 63707573 		.ascii	"cpussCm0ClockCtlOffset\000"
 4523      73436D30 
 4523      436C6F63 
 4523      6B43746C 
 4523      4F666673 
 4524              	.LASF53:
 4525 0093 70657269 		.ascii	"periClockNr\000"
 4525      436C6F63 
 4525      6B4E7200 
 4526              	.LASF123:
 4527 009f 6D617374 		.ascii	"masterStatus\000"
 4527      65725374 
 4527      61747573 
 4527      00
 4528              	.LASF273:
 4529 00ac 4C565F45 		.ascii	"LV_EVENT_VALUE_CHANGED\000"
 4529      56454E54 
 4529      5F56414C 
 4529      55455F43 
 4529      48414E47 
 4530              	.LASF26:
 4531 00c3 70657269 		.ascii	"periBase\000"
 4531      42617365 
 4531      00
 4532              	.LASF356:
 4533 00cc 6761696E 		.ascii	"gainLabel\000"
 4533      4C616265 
 4533      6C00
 4534              	.LASF275:
 4535 00d6 4C565F45 		.ascii	"LV_EVENT_REFRESH\000"
 4535      56454E54 
 4535      5F524546 
 4535      52455348 
 4535      00
 4536              	.LASF206:
 4537 00e7 62617365 		.ascii	"base_dir\000"
 4537      5F646972 
 4537      00
 4538              	.LASF204:
 4539 00f0 70617265 		.ascii	"parent_event\000"
 4539      6E745F65 
 4539      76656E74 
 4539      00
 4540              	.LASF72:
 4541 00fd 64774368 		.ascii	"dwChSize\000"
 4541      53697A65 
ARM GAS  C:\Users\tmj32\AppData\Local\Temp\cco3Klhe.s 			page 102


 4541      00
 4542              	.LASF200:
 4543 0106 64726167 		.ascii	"drag_throw\000"
 4543      5F746872 
 4543      6F7700
 4544              	.LASF14:
 4545 0111 756E7369 		.ascii	"unsigned int\000"
 4545      676E6564 
 4545      20696E74 
 4545      00
 4546              	.LASF215:
 4547 011e 6F66735F 		.ascii	"ofs_x\000"
 4547      7800
 4548              	.LASF216:
 4549 0124 6F66735F 		.ascii	"ofs_y\000"
 4549      7900
 4550              	.LASF128:
 4551 012a 6D617374 		.ascii	"masterBufferIdx\000"
 4551      65724275 
 4551      66666572 
 4551      49647800 
 4552              	.LASF54:
 4553 013a 736D6966 		.ascii	"smifDeviceNr\000"
 4553      44657669 
 4553      63654E72 
 4553      00
 4554              	.LASF219:
 4555 0147 6765745F 		.ascii	"get_glyph_dsc\000"
 4555      676C7970 
 4555      685F6473 
 4555      6300
 4556              	.LASF255:
 4557 0155 6C765F73 		.ascii	"lv_style_t\000"
 4557      74796C65 
 4557      5F7400
 4558              	.LASF151:
 4559 0160 74784275 		.ascii	"txBufIdx\000"
 4559      66496478 
 4559      00
 4560              	.LASF169:
 4561 0169 73746172 		.ascii	"startInput\000"
 4561      74496E70 
 4561      757400
 4562              	.LASF364:
 4563 0174 656C656D 		.ascii	"elementsRead\000"
 4563      656E7473 
 4563      52656164 
 4563      00
 4564              	.LASF8:
 4565 0181 5F5F696E 		.ascii	"__int32_t\000"
 4565      7433325F 
 4565      7400
 4566              	.LASF50:
 4567 018b 73727373 		.ascii	"srssNumClkpath\000"
 4567      4E756D43 
 4567      6C6B7061 
 4567      746800
ARM GAS  C:\Users\tmj32\AppData\Local\Temp\cco3Klhe.s 			page 103


 4568              	.LASF290:
 4569 019a 4C565F41 		.ascii	"LV_ALIGN_IN_LEFT_MID\000"
 4569      4C49474E 
 4569      5F494E5F 
 4569      4C454654 
 4569      5F4D4944 
 4570              	.LASF307:
 4571 01af 796F6673 		.ascii	"yofs\000"
 4571      00
 4572              	.LASF24:
 4573 01b4 63707573 		.ascii	"cpussBase\000"
 4573      73426173 
 4573      6500
 4574              	.LASF258:
 4575 01be 6C765F64 		.ascii	"lv_design_cb_t\000"
 4575      65736967 
 4575      6E5F6362 
 4575      5F7400
 4576              	.LASF136:
 4577 01cd 736C6176 		.ascii	"slaveRxBuffer\000"
 4577      65527842 
 4577      75666665 
 4577      7200
 4578              	.LASF295:
 4579 01db 4C565F41 		.ascii	"LV_ALIGN_OUT_BOTTOM_LEFT\000"
 4579      4C49474E 
 4579      5F4F5554 
 4579      5F424F54 
 4579      544F4D5F 
 4580              	.LASF41:
 4581 01f4 70657269 		.ascii	"periVersion\000"
 4581      56657273 
 4581      696F6E00 
 4582              	.LASF245:
 4583 0200 666F6E74 		.ascii	"font\000"
 4583      00
 4584              	.LASF140:
 4585 0205 63624164 		.ascii	"cbAddr\000"
 4585      647200
 4586              	.LASF337:
 4587 020c 73775F65 		.ascii	"sw_event_handler\000"
 4587      76656E74 
 4587      5F68616E 
 4587      646C6572 
 4587      00
 4588              	.LASF276:
 4589 021d 4C565F45 		.ascii	"LV_EVENT_APPLY\000"
 4589      56454E54 
 4589      5F415050 
 4589      4C5900
 4590              	.LASF171:
 4591 022c 73746F70 		.ascii	"stopInput\000"
 4591      496E7075 
 4591      7400
 4592              	.LASF351:
 4593 0236 72656164 		.ascii	"readLabel\000"
 4593      4C616265 
ARM GAS  C:\Users\tmj32\AppData\Local\Temp\cco3Klhe.s 			page 104


 4593      6C00
 4594              	.LASF268:
 4595 0240 4C565F45 		.ascii	"LV_EVENT_DRAG_END\000"
 4595      56454E54 
 4595      5F445241 
 4595      475F454E 
 4595      4400
 4596              	.LASF117:
 4597 0252 63795F65 		.ascii	"cy_en_scb_i2c_command_t\000"
 4597      6E5F7363 
 4597      625F6932 
 4597      635F636F 
 4597      6D6D616E 
 4598              	.LASF178:
 4599 026a 6E5F7369 		.ascii	"n_size\000"
 4599      7A6500
 4600              	.LASF131:
 4601 0271 736C6176 		.ascii	"slaveRdBufEmpty\000"
 4601      65526442 
 4601      7566456D 
 4601      70747900 
 4602              	.LASF80:
 4603 0281 70657269 		.ascii	"periTrGrSize\000"
 4603      54724772 
 4603      53697A65 
 4603      00
 4604              	.LASF60:
 4605 028e 63727970 		.ascii	"cryptoMemSize\000"
 4605      746F4D65 
 4605      6D53697A 
 4605      6500
 4606              	.LASF106:
 4607 029c 63707573 		.ascii	"cpussRam1Ctl0\000"
 4607      7352616D 
 4607      3143746C 
 4607      3000
 4608              	.LASF108:
 4609 02aa 69706353 		.ascii	"ipcStructSize\000"
 4609      74727563 
 4609      7453697A 
 4609      6500
 4610              	.LASF116:
 4611 02b8 43595F53 		.ascii	"CY_SCB_I2C_NAK\000"
 4611      43425F49 
 4611      32435F4E 
 4611      414B00
 4612              	.LASF48:
 4613 02c7 63707573 		.ascii	"cpussFmIrq\000"
 4613      73466D49 
 4613      727100
 4614              	.LASF119:
 4615 02d2 63795F63 		.ascii	"cy_cb_scb_i2c_handle_addr_t\000"
 4615      625F7363 
 4615      625F6932 
 4615      635F6861 
 4615      6E646C65 
 4616              	.LASF160:
ARM GAS  C:\Users\tmj32\AppData\Local\Temp\cco3Klhe.s 			page 105


 4617 02ee 636F6D70 		.ascii	"compare0\000"
 4617      61726530 
 4617      00
 4618              	.LASF161:
 4619 02f7 636F6D70 		.ascii	"compare1\000"
 4619      61726531 
 4619      00
 4620              	.LASF270:
 4621 0300 4C565F45 		.ascii	"LV_EVENT_KEY\000"
 4621      56454E54 
 4621      5F4B4559 
 4621      00
 4622              	.LASF333:
 4623 030d 616E696D 		.ascii	"anim\000"
 4623      00
 4624              	.LASF143:
 4625 0312 63795F73 		.ascii	"cy_stc_scb_i2c_context\000"
 4625      74635F73 
 4625      63625F69 
 4625      32635F63 
 4625      6F6E7465 
 4626              	.LASF4:
 4627 0329 5F5F696E 		.ascii	"__int16_t\000"
 4627      7431365F 
 4627      7400
 4628              	.LASF315:
 4629 0333 4C565F42 		.ascii	"LV_BTN_STATE_PR\000"
 4629      544E5F53 
 4629      54415445 
 4629      5F505200 
 4630              	.LASF82:
 4631 0343 70657269 		.ascii	"periDivCmdTypeSelPos\000"
 4631      44697643 
 4631      6D645479 
 4631      70655365 
 4631      6C506F73 
 4632              	.LASF99:
 4633 0358 63707573 		.ascii	"cpussTrimRamCtlOffset\000"
 4633      73547269 
 4633      6D52616D 
 4633      43746C4F 
 4633      66667365 
 4634              	.LASF102:
 4635 036e 63707573 		.ascii	"cpussCm0NmiCtlOffset\000"
 4635      73436D30 
 4635      4E6D6943 
 4635      746C4F66 
 4635      66736574 
 4636              	.LASF313:
 4637 0383 6C765F6F 		.ascii	"lv_obj_t\000"
 4637      626A5F74 
 4637      00
 4638              	.LASF362:
 4639 038c 76657274 		.ascii	"vertLabel1\000"
 4639      4C616265 
 4639      6C3100
 4640              	.LASF363:
ARM GAS  C:\Users\tmj32\AppData\Local\Temp\cco3Klhe.s 			page 106


 4641 0397 76657274 		.ascii	"vertLabel2\000"
 4641      4C616265 
 4641      6C3200
 4642              	.LASF253:
 4643 03a2 696D6167 		.ascii	"image\000"
 4643      6500
 4644              	.LASF132:
 4645 03a8 736C6176 		.ascii	"slaveTxBuffer\000"
 4645      65547842 
 4645      75666665 
 4645      7200
 4646              	.LASF375:
 4647 03b6 433A5C55 		.ascii	"C:\\Users\\tmj32\\Documents\\TCNJ\\Senior_Project\\"
 4647      73657273 
 4647      5C746D6A 
 4647      33325C44 
 4647      6F63756D 
 4648 03e3 4F736369 		.ascii	"Oscilloscope_Senior_Project\\tcom_engineering\\embe"
 4648      6C6C6F73 
 4648      636F7065 
 4648      5F53656E 
 4648      696F725F 
 4649 0414 645F7377 		.ascii	"d_sw\\tcom_app\\tcom_app_psoc6_lvgl6\\tcom_displ_te"
 4649      5C74636F 
 4649      6D5F6170 
 4649      705C7463 
 4649      6F6D5F61 
 4650 0444 73745F70 		.ascii	"st_psoc6.cydsn\000"
 4650      736F6336 
 4650      2E637964 
 4650      736E00
 4651              	.LASF211:
 4652 0453 7265616C 		.ascii	"realign\000"
 4652      69676E00 
 4653              	.LASF340:
 4654 045b 63686172 		.ascii	"chart_width\000"
 4654      745F7769 
 4654      64746800 
 4655              	.LASF237:
 4656 0467 696E6E65 		.ascii	"inner\000"
 4656      7200
 4657              	.LASF134:
 4658 046d 736C6176 		.ascii	"slaveTxBufferIdx\000"
 4658      65547842 
 4658      75666665 
 4658      72496478 
 4658      00
 4659              	.LASF301:
 4660 047e 4C565F41 		.ascii	"LV_ALIGN_OUT_RIGHT_TOP\000"
 4660      4C49474E 
 4660      5F4F5554 
 4660      5F524947 
 4660      48545F54 
 4661              	.LASF23:
 4662 0495 75696E74 		.ascii	"uint32_t\000"
 4662      33325F74 
 4662      00
ARM GAS  C:\Users\tmj32\AppData\Local\Temp\cco3Klhe.s 			page 107


 4663              	.LASF18:
 4664 049e 696E7438 		.ascii	"int8_t\000"
 4664      5F7400
 4665              	.LASF186:
 4666 04a5 6C765F63 		.ascii	"lv_color32_t\000"
 4666      6F6C6F72 
 4666      33325F74 
 4666      00
 4667              	.LASF274:
 4668 04b2 4C565F45 		.ascii	"LV_EVENT_INSERT\000"
 4668      56454E54 
 4668      5F494E53 
 4668      45525400 
 4669              	.LASF92:
 4670 04c2 6770696F 		.ascii	"gpioPrtCfgOutOffset\000"
 4670      50727443 
 4670      66674F75 
 4670      744F6666 
 4670      73657400 
 4671              	.LASF297:
 4672 04d6 4C565F41 		.ascii	"LV_ALIGN_OUT_BOTTOM_RIGHT\000"
 4672      4C49474E 
 4672      5F4F5554 
 4672      5F424F54 
 4672      544F4D5F 
 4673              	.LASF111:
 4674 04f0 666C6F61 		.ascii	"float\000"
 4674      7400
 4675              	.LASF244:
 4676 04f6 73656C5F 		.ascii	"sel_color\000"
 4676      636F6C6F 
 4676      7200
 4677              	.LASF338:
 4678 0500 6576656E 		.ascii	"event\000"
 4678      7400
 4679              	.LASF56:
 4680 0506 65704D6F 		.ascii	"epMonitorNr\000"
 4680      6E69746F 
 4680      724E7200 
 4681              	.LASF305:
 4682 0512 62617365 		.ascii	"base\000"
 4682      00
 4683              	.LASF167:
 4684 0517 72656C6F 		.ascii	"reloadInput\000"
 4684      6164496E 
 4684      70757400 
 4685              	.LASF20:
 4686 0523 696E7431 		.ascii	"int16_t\000"
 4686      365F7400 
 4687              	.LASF91:
 4688 052b 6770696F 		.ascii	"gpioPrtCfgInOffset\000"
 4688      50727443 
 4688      6667496E 
 4688      4F666673 
 4688      657400
 4689              	.LASF336:
 4690 053e 6C765F73 		.ascii	"lv_sw_get_state\000"
ARM GAS  C:\Users\tmj32\AppData\Local\Temp\cco3Klhe.s 			page 108


 4690      775F6765 
 4690      745F7374 
 4690      61746500 
 4691              	.LASF181:
 4692 054e 6C765F6C 		.ascii	"lv_ll_t\000"
 4692      6C5F7400 
 4693              	.LASF13:
 4694 0556 6C6F6E67 		.ascii	"long long unsigned int\000"
 4694      206C6F6E 
 4694      6720756E 
 4694      7369676E 
 4694      65642069 
 4695              	.LASF282:
 4696 056d 6C765F73 		.ascii	"lv_signal_cb_t\000"
 4696      69676E61 
 4696      6C5F6362 
 4696      5F7400
 4697              	.LASF93:
 4698 057c 6770696F 		.ascii	"gpioPrtCfgSioOffset\000"
 4698      50727443 
 4698      66675369 
 4698      6F4F6666 
 4698      73657400 
 4699              	.LASF232:
 4700 0590 70617274 		.ascii	"part\000"
 4700      00
 4701              	.LASF303:
 4702 0595 4C565F41 		.ascii	"LV_ALIGN_OUT_RIGHT_BOTTOM\000"
 4702      4C49474E 
 4702      5F4F5554 
 4702      5F524947 
 4702      48545F42 
 4703              	.LASF52:
 4704 05af 73727373 		.ascii	"srssNumHfroot\000"
 4704      4E756D48 
 4704      66726F6F 
 4704      7400
 4705              	.LASF179:
 4706 05bd 68656164 		.ascii	"head\000"
 4706      00
 4707              	.LASF22:
 4708 05c2 696E7433 		.ascii	"int32_t\000"
 4708      325F7400 
 4709              	.LASF27:
 4710 05ca 75646242 		.ascii	"udbBase\000"
 4710      61736500 
 4711              	.LASF133:
 4712 05d2 736C6176 		.ascii	"slaveTxBufferSize\000"
 4712      65547842 
 4712      75666665 
 4712      7253697A 
 4712      6500
 4713              	.LASF83:
 4714 05e4 70657269 		.ascii	"periDivCmdPaDivSelPos\000"
 4714      44697643 
 4714      6D645061 
 4714      44697653 
ARM GAS  C:\Users\tmj32\AppData\Local\Temp\cco3Klhe.s 			page 109


 4714      656C506F 
 4715              	.LASF168:
 4716 05fa 73746172 		.ascii	"startInputMode\000"
 4716      74496E70 
 4716      75744D6F 
 4716      646500
 4717              	.LASF184:
 4718 0609 616C7068 		.ascii	"alpha\000"
 4718      6100
 4719              	.LASF164:
 4720 060f 63617074 		.ascii	"captureInputMode\000"
 4720      75726549 
 4720      6E707574 
 4720      4D6F6465 
 4720      00
 4721              	.LASF296:
 4722 0620 4C565F41 		.ascii	"LV_ALIGN_OUT_BOTTOM_MID\000"
 4722      4C49474E 
 4722      5F4F5554 
 4722      5F424F54 
 4722      544F4D5F 
 4723              	.LASF332:
 4724 0638 76616C75 		.ascii	"value\000"
 4724      6500
 4725              	.LASF331:
 4726 063e 736C6964 		.ascii	"slider\000"
 4726      657200
 4727              	.LASF146:
 4728 0645 72784275 		.ascii	"rxBuf\000"
 4728      6600
 4729              	.LASF32:
 4730 064b 69706342 		.ascii	"ipcBase\000"
 4730      61736500 
 4731              	.LASF230:
 4732 0653 636F6C6F 		.ascii	"color\000"
 4732      7200
 4733              	.LASF69:
 4734 0659 666C6173 		.ascii	"flashCtlMainWs3Freq\000"
 4734      6843746C 
 4734      4D61696E 
 4734      57733346 
 4734      72657100 
 4735              	.LASF51:
 4736 066d 73727373 		.ascii	"srssNumPll\000"
 4736      4E756D50 
 4736      6C6C00
 4737              	.LASF249:
 4738 0678 726F756E 		.ascii	"rounded\000"
 4738      64656400 
 4739              	.LASF299:
 4740 0680 4C565F41 		.ascii	"LV_ALIGN_OUT_LEFT_MID\000"
 4740      4C49474E 
 4740      5F4F5554 
 4740      5F4C4546 
 4740      545F4D49 
 4741              	.LASF30:
 4742 0696 6770696F 		.ascii	"gpioBase\000"
ARM GAS  C:\Users\tmj32\AppData\Local\Temp\cco3Klhe.s 			page 110


 4742      42617365 
 4742      00
 4743              	.LASF197:
 4744 069f 7374796C 		.ascii	"style_p\000"
 4744      655F7000 
 4745              	.LASF231:
 4746 06a7 77696474 		.ascii	"width\000"
 4746      6800
 4747              	.LASF62:
 4748 06ad 666C6173 		.ascii	"flashPipeRequired\000"
 4748      68506970 
 4748      65526571 
 4748      75697265 
 4748      6400
 4749              	.LASF129:
 4750 06bf 6D617374 		.ascii	"masterNumBytes\000"
 4750      65724E75 
 4750      6D427974 
 4750      657300
 4751              	.LASF358:
 4752 06ce 686F7269 		.ascii	"horiSlider\000"
 4752      536C6964 
 4752      657200
 4753              	.LASF139:
 4754 06d9 63624576 		.ascii	"cbEvents\000"
 4754      656E7473 
 4754      00
 4755              	.LASF278:
 4756 06e2 4C565F45 		.ascii	"LV_EVENT_DELETE\000"
 4756      56454E54 
 4756      5F44454C 
 4756      45544500 
 4757              	.LASF177:
 4758 06f2 6C765F6C 		.ascii	"lv_ll_node_t\000"
 4758      6C5F6E6F 
 4758      64655F74 
 4758      00
 4759              	.LASF321:
 4760 06ff 4C565F43 		.ascii	"LV_CHART_TYPE_LINE\000"
 4760      48415254 
 4760      5F545950 
 4760      455F4C49 
 4760      4E4500
 4761              	.LASF346:
 4762 0712 6C626C5F 		.ascii	"lbl_style\000"
 4762      7374796C 
 4762      6500
 4763              	.LASF261:
 4764 071c 4C565F45 		.ascii	"LV_EVENT_PRESS_LOST\000"
 4764      56454E54 
 4764      5F505245 
 4764      53535F4C 
 4764      4F535400 
 4765              	.LASF114:
 4766 0730 5F426F6F 		.ascii	"_Bool\000"
 4766      6C00
 4767              	.LASF371:
ARM GAS  C:\Users\tmj32\AppData\Local\Temp\cco3Klhe.s 			page 111


 4768 0736 74636E6A 		.ascii	"tcnj_gold\000"
 4768      5F676F6C 
 4768      6400
 4769              	.LASF66:
 4770 0740 666C6173 		.ascii	"flashCtlMainWs0Freq\000"
 4770      6843746C 
 4770      4D61696E 
 4770      57733046 
 4770      72657100 
 4771              	.LASF120:
 4772 0754 75736552 		.ascii	"useRxFifo\000"
 4772      78466966 
 4772      6F00
 4773              	.LASF218:
 4774 075e 5F6C765F 		.ascii	"_lv_font_struct\000"
 4774      666F6E74 
 4774      5F737472 
 4774      75637400 
 4775              	.LASF259:
 4776 076e 4C565F45 		.ascii	"LV_EVENT_PRESSED\000"
 4776      56454E54 
 4776      5F505245 
 4776      53534544 
 4776      00
 4777              	.LASF247:
 4778 077f 6C696E65 		.ascii	"line_space\000"
 4778      5F737061 
 4778      636500
 4779              	.LASF317:
 4780 078a 4C565F42 		.ascii	"LV_BTN_STATE_TGL_PR\000"
 4780      544E5F53 
 4780      54415445 
 4780      5F54474C 
 4780      5F505200 
 4781              	.LASF42:
 4782 079e 70726F74 		.ascii	"protVersion\000"
 4782      56657273 
 4782      696F6E00 
 4783              	.LASF342:
 4784 07aa 63686172 		.ascii	"chart_vertPos\000"
 4784      745F7665 
 4784      7274506F 
 4784      7300
 4785              	.LASF221:
 4786 07b8 6C696E65 		.ascii	"line_height\000"
 4786      5F686569 
 4786      67687400 
 4787              	.LASF101:
 4788 07c4 63707573 		.ascii	"cpussSysTickCtlOffset\000"
 4788      73537973 
 4788      5469636B 
 4788      43746C4F 
 4788      66667365 
 4789              	.LASF57:
 4790 07da 75646250 		.ascii	"udbPresent\000"
 4790      72657365 
 4790      6E7400
ARM GAS  C:\Users\tmj32\AppData\Local\Temp\cco3Klhe.s 			page 112


 4791              	.LASF334:
 4792 07e5 6C765F73 		.ascii	"lv_slider_set_value\000"
 4792      6C696465 
 4792      725F7365 
 4792      745F7661 
 4792      6C756500 
 4793              	.LASF75:
 4794 07f9 64775374 		.ascii	"dwStatusChIdxPos\000"
 4794      61747573 
 4794      43684964 
 4794      78506F73 
 4794      00
 4795              	.LASF6:
 4796 080a 5F5F7569 		.ascii	"__uint16_t\000"
 4796      6E743136 
 4796      5F7400
 4797              	.LASF330:
 4798 0815 6C765F63 		.ascii	"lv_color_hex\000"
 4798      6F6C6F72 
 4798      5F686578 
 4798      00
 4799              	.LASF239:
 4800 0822 67726164 		.ascii	"grad_color\000"
 4800      5F636F6C 
 4800      6F7200
 4801              	.LASF46:
 4802 082d 63707573 		.ascii	"cpussFlashPaSize\000"
 4802      73466C61 
 4802      73685061 
 4802      53697A65 
 4802      00
 4803              	.LASF165:
 4804 083e 63617074 		.ascii	"captureInput\000"
 4804      75726549 
 4804      6E707574 
 4804      00
 4805              	.LASF115:
 4806 084b 43595F53 		.ascii	"CY_SCB_I2C_ACK\000"
 4806      43425F49 
 4806      32435F41 
 4806      434B00
 4807              	.LASF17:
 4808 085a 63686172 		.ascii	"char\000"
 4808      00
 4809              	.LASF84:
 4810 085f 70657269 		.ascii	"periDivCmdPaTypeSelPos\000"
 4810      44697643 
 4810      6D645061 
 4810      54797065 
 4810      53656C50 
 4811              	.LASF201:
 4812 0876 64726167 		.ascii	"drag_parent\000"
 4812      5F706172 
 4812      656E7400 
 4813              	.LASF349:
 4814 0882 52784275 		.ascii	"RxBuffer\000"
 4814      66666572 
ARM GAS  C:\Users\tmj32\AppData\Local\Temp\cco3Klhe.s 			page 113


 4814      00
 4815              	.LASF58:
 4816 088b 73797350 		.ascii	"sysPmSimoPresent\000"
 4816      6D53696D 
 4816      6F507265 
 4816      73656E74 
 4816      00
 4817              	.LASF127:
 4818 089c 6D617374 		.ascii	"masterBufferSize\000"
 4818      65724275 
 4818      66666572 
 4818      53697A65 
 4818      00
 4819              	.LASF210:
 4820 08ad 6578745F 		.ascii	"ext_draw_pad\000"
 4820      64726177 
 4820      5F706164 
 4820      00
 4821              	.LASF234:
 4822 08ba 626F7474 		.ascii	"bottom\000"
 4822      6F6D00
 4823              	.LASF159:
 4824 08c1 636F6D70 		.ascii	"compareOrCapture\000"
 4824      6172654F 
 4824      72436170 
 4824      74757265 
 4824      00
 4825              	.LASF156:
 4826 08d2 636C6F63 		.ascii	"clockPrescaler\000"
 4826      6B507265 
 4826      7363616C 
 4826      657200
 4827              	.LASF369:
 4828 08e1 5350494D 		.ascii	"SPIM_context\000"
 4828      5F636F6E 
 4828      74657874 
 4828      00
 4829              	.LASF148:
 4830 08ee 72784275 		.ascii	"rxBufIdx\000"
 4830      66496478 
 4830      00
 4831              	.LASF217:
 4832 08f7 6C765F66 		.ascii	"lv_font_glyph_dsc_t\000"
 4832      6F6E745F 
 4832      676C7970 
 4832      685F6473 
 4832      635F7400 
 4833              	.LASF152:
 4834 090b 696E6974 		.ascii	"initKey\000"
 4834      4B657900 
 4835              	.LASF353:
 4836 0913 6F666673 		.ascii	"offsetLabel\000"
 4836      65744C61 
 4836      62656C00 
 4837              	.LASF76:
 4838 091f 64775374 		.ascii	"dwStatusChIdxMsk\000"
 4838      61747573 
ARM GAS  C:\Users\tmj32\AppData\Local\Temp\cco3Klhe.s 			page 114


 4838      43684964 
 4838      784D736B 
 4838      00
 4839              	.LASF289:
 4840 0930 4C565F41 		.ascii	"LV_ALIGN_IN_BOTTOM_RIGHT\000"
 4840      4C49474E 
 4840      5F494E5F 
 4840      424F5454 
 4840      4F4D5F52 
 4841              	.LASF19:
 4842 0949 75696E74 		.ascii	"uint8_t\000"
 4842      385F7400 
 4843              	.LASF145:
 4844 0951 73746174 		.ascii	"status\000"
 4844      757300
 4845              	.LASF233:
 4846 0958 74797065 		.ascii	"type\000"
 4846      00
 4847              	.LASF135:
 4848 095d 736C6176 		.ascii	"slaveTxBufferCnt\000"
 4848      65547842 
 4848      75666665 
 4848      72436E74 
 4848      00
 4849              	.LASF205:
 4850 096e 64726167 		.ascii	"drag_dir\000"
 4850      5F646972 
 4850      00
 4851              	.LASF31:
 4852 0977 70617373 		.ascii	"passBase\000"
 4852      42617365 
 4852      00
 4853              	.LASF81:
 4854 0980 70657269 		.ascii	"periDivCmdDivSelMsk\000"
 4854      44697643 
 4854      6D644469 
 4854      7653656C 
 4854      4D736B00 
 4855              	.LASF277:
 4856 0994 4C565F45 		.ascii	"LV_EVENT_CANCEL\000"
 4856      56454E54 
 4856      5F43414E 
 4856      43454C00 
 4857              	.LASF229:
 4858 09a4 6C765F73 		.ascii	"lv_shadow_type_t\000"
 4858      6861646F 
 4858      775F7479 
 4858      70655F74 
 4858      00
 4859              	.LASF329:
 4860 09b5 6C765F63 		.ascii	"lv_color_make\000"
 4860      6F6C6F72 
 4860      5F6D616B 
 4860      6500
 4861              	.LASF376:
 4862 09c3 6C765F73 		.ascii	"lv_scr_act\000"
 4862      63725F61 
ARM GAS  C:\Users\tmj32\AppData\Local\Temp\cco3Klhe.s 			page 115


 4862      637400
 4863              	.LASF236:
 4864 09ce 72696768 		.ascii	"right\000"
 4864      7400
 4865              	.LASF105:
 4866 09d4 63707573 		.ascii	"cpussRam0Ctl0\000"
 4866      7352616D 
 4866      3043746C 
 4866      3000
 4867              	.LASF12:
 4868 09e2 6C6F6E67 		.ascii	"long long int\000"
 4868      206C6F6E 
 4868      6720696E 
 4868      7400
 4869              	.LASF250:
 4870 09f0 676C6173 		.ascii	"glass\000"
 4870      7300
 4871              	.LASF73:
 4872 09f6 64774368 		.ascii	"dwChCtlPrioPos\000"
 4872      43746C50 
 4872      72696F50 
 4872      6F7300
 4873              	.LASF298:
 4874 0a05 4C565F41 		.ascii	"LV_ALIGN_OUT_LEFT_TOP\000"
 4874      4C49474E 
 4874      5F4F5554 
 4874      5F4C4546 
 4874      545F544F 
 4875              	.LASF33:
 4876 0a1b 63727970 		.ascii	"cryptoBase\000"
 4876      746F4261 
 4876      736500
 4877              	.LASF252:
 4878 0a26 74657874 		.ascii	"text\000"
 4878      00
 4879              	.LASF309:
 4880 0a2b 6175746F 		.ascii	"auto_realign\000"
 4880      5F726561 
 4880      6C69676E 
 4880      00
 4881              	.LASF88:
 4882 0a38 70657269 		.ascii	"periDiv24_5CtlOffset\000"
 4882      44697632 
 4882      345F3543 
 4882      746C4F66 
 4882      66736574 
 4883              	.LASF243:
 4884 0a4d 70616464 		.ascii	"padding\000"
 4884      696E6700 
 4885              	.LASF304:
 4886 0a55 6C765F61 		.ascii	"lv_align_t\000"
 4886      6C69676E 
 4886      5F7400
 4887              	.LASF63:
 4888 0a60 666C6173 		.ascii	"flashWriteDelay\000"
 4888      68577269 
 4888      74654465 
ARM GAS  C:\Users\tmj32\AppData\Local\Temp\cco3Klhe.s 			page 116


 4888      6C617900 
 4889              	.LASF121:
 4890 0a70 75736554 		.ascii	"useTxFifo\000"
 4890      78466966 
 4890      6F00
 4891              	.LASF306:
 4892 0a7a 786F6673 		.ascii	"xofs\000"
 4892      00
 4893              	.LASF118:
 4894 0a7f 63795F63 		.ascii	"cy_cb_scb_i2c_handle_events_t\000"
 4894      625F7363 
 4894      625F6932 
 4894      635F6861 
 4894      6E646C65 
 4895              	.LASF355:
 4896 0a9d 6761696E 		.ascii	"gainSlider\000"
 4896      536C6964 
 4896      657200
 4897              	.LASF29:
 4898 0aa8 6873696F 		.ascii	"hsiomBase\000"
 4898      6D426173 
 4898      6500
 4899              	.LASF125:
 4900 0ab2 6D617374 		.ascii	"masterRdDir\000"
 4900      65725264 
 4900      44697200 
 4901              	.LASF256:
 4902 0abe 6C765F62 		.ascii	"lv_bidi_dir_t\000"
 4902      6964695F 
 4902      6469725F 
 4902      7400
 4903              	.LASF279:
 4904 0acc 6C765F65 		.ascii	"lv_event_t\000"
 4904      76656E74 
 4904      5F7400
 4905              	.LASF79:
 4906 0ad7 70657269 		.ascii	"periTrGrOffset\000"
 4906      54724772 
 4906      4F666673 
 4906      657400
 4907              	.LASF49:
 4908 0ae6 63707573 		.ascii	"cpussNotConnectedIrq\000"
 4908      734E6F74 
 4908      436F6E6E 
 4908      65637465 
 4908      64497271 
 4909              	.LASF310:
 4910 0afb 6F726967 		.ascii	"origo_align\000"
 4910      6F5F616C 
 4910      69676E00 
 4911              	.LASF153:
 4912 0b07 63795F73 		.ascii	"cy_stc_scb_spi_context_t\000"
 4912      74635F73 
 4912      63625F73 
 4912      70695F63 
 4912      6F6E7465 
 4913              	.LASF176:
ARM GAS  C:\Users\tmj32\AppData\Local\Temp\cco3Klhe.s 			page 117


 4914 0b20 6C765F72 		.ascii	"lv_res_t\000"
 4914      65735F74 
 4914      00
 4915              	.LASF166:
 4916 0b29 72656C6F 		.ascii	"reloadInputMode\000"
 4916      6164496E 
 4916      7075744D 
 4916      6F646500 
 4917              	.LASF312:
 4918 0b39 6C765F64 		.ascii	"lv_drag_dir_t\000"
 4918      7261675F 
 4918      6469725F 
 4918      7400
 4919              	.LASF288:
 4920 0b47 4C565F41 		.ascii	"LV_ALIGN_IN_BOTTOM_MID\000"
 4920      4C49474E 
 4920      5F494E5F 
 4920      424F5454 
 4920      4F4D5F4D 
 4921              	.LASF350:
 4922 0b5e 72656164 		.ascii	"readArray_SIZE\000"
 4922      41727261 
 4922      795F5349 
 4922      5A4500
 4923              	.LASF352:
 4924 0b6d 6F666673 		.ascii	"offsetSlider\000"
 4924      6574536C 
 4924      69646572 
 4924      00
 4925              	.LASF150:
 4926 0b7a 74784275 		.ascii	"txBufSize\000"
 4926      6653697A 
 4926      6500
 4927              	.LASF43:
 4928 0b84 63707573 		.ascii	"cpussIpcNr\000"
 4928      73497063 
 4928      4E7200
 4929              	.LASF272:
 4930 0b8f 4C565F45 		.ascii	"LV_EVENT_DEFOCUSED\000"
 4930      56454E54 
 4930      5F444546 
 4930      4F435553 
 4930      454400
 4931              	.LASF267:
 4932 0ba2 4C565F45 		.ascii	"LV_EVENT_DRAG_BEGIN\000"
 4932      56454E54 
 4932      5F445241 
 4932      475F4245 
 4932      47494E00 
 4933              	.LASF96:
 4934 0bb6 63707573 		.ascii	"cpussCm4StatusOffset\000"
 4934      73436D34 
 4934      53746174 
 4934      75734F66 
 4934      66736574 
 4935              	.LASF344:
 4936 0bcb 72656164 		.ascii	"read_test\000"
ARM GAS  C:\Users\tmj32\AppData\Local\Temp\cco3Klhe.s 			page 118


 4936      5F746573 
 4936      7400
 4937              	.LASF55:
 4938 0bd5 70617373 		.ascii	"passSarChannels\000"
 4938      53617243 
 4938      68616E6E 
 4938      656C7300 
 4939              	.LASF138:
 4940 0be5 736C6176 		.ascii	"slaveRxBufferIdx\000"
 4940      65527842 
 4940      75666665 
 4940      72496478 
 4940      00
 4941              	.LASF107:
 4942 0bf6 63707573 		.ascii	"cpussRam2Ctl0\000"
 4942      7352616D 
 4942      3243746C 
 4942      3000
 4943              	.LASF226:
 4944 0c04 4C565F41 		.ascii	"LV_ANIM_ON\000"
 4944      4E494D5F 
 4944      4F4E00
 4945              	.LASF124:
 4946 0c0f 6D617374 		.ascii	"masterPause\000"
 4946      65725061 
 4946      75736500 
 4947              	.LASF162:
 4948 0c1b 656E6162 		.ascii	"enableCompareSwap\000"
 4948      6C65436F 
 4948      6D706172 
 4948      65537761 
 4948      7000
 4949              	.LASF291:
 4950 0c2d 4C565F41 		.ascii	"LV_ALIGN_IN_RIGHT_MID\000"
 4950      4C49474E 
 4950      5F494E5F 
 4950      52494748 
 4950      545F4D49 
 4951              	.LASF149:
 4952 0c43 74784275 		.ascii	"txBuf\000"
 4952      6600
 4953              	.LASF223:
 4954 0c49 73756270 		.ascii	"subpx\000"
 4954      7800
 4955              	.LASF187:
 4956 0c4f 6C765F63 		.ascii	"lv_color_t\000"
 4956      6F6C6F72 
 4956      5F7400
 4957              	.LASF339:
 4958 0c5a 736C6964 		.ascii	"slider_event_cb\000"
 4958      65725F65 
 4958      76656E74 
 4958      5F636200 
 4959              	.LASF242:
 4960 0c6a 73686164 		.ascii	"shadow\000"
 4960      6F7700
 4961              	.LASF64:
ARM GAS  C:\Users\tmj32\AppData\Local\Temp\cco3Klhe.s 			page 119


 4962 0c71 666C6173 		.ascii	"flashProgramDelay\000"
 4962      6850726F 
 4962      6772616D 
 4962      44656C61 
 4962      7900
 4963              	.LASF86:
 4964 0c83 70657269 		.ascii	"periDiv16CtlOffset\000"
 4964      44697631 
 4964      3643746C 
 4964      4F666673 
 4964      657400
 4965              	.LASF137:
 4966 0c96 736C6176 		.ascii	"slaveRxBufferSize\000"
 4966      65527842 
 4966      75666665 
 4966      7253697A 
 4966      6500
 4967              	.LASF265:
 4968 0ca8 4C565F45 		.ascii	"LV_EVENT_CLICKED\000"
 4968      56454E54 
 4968      5F434C49 
 4968      434B4544 
 4968      00
 4969              	.LASF183:
 4970 0cb9 67726565 		.ascii	"green\000"
 4970      6E00
 4971              	.LASF7:
 4972 0cbf 73686F72 		.ascii	"short unsigned int\000"
 4972      7420756E 
 4972      7369676E 
 4972      65642069 
 4972      6E7400
 4973              	.LASF15:
 4974 0cd2 6C6F6E67 		.ascii	"long double\000"
 4974      20646F75 
 4974      626C6500 
 4975              	.LASF21:
 4976 0cde 75696E74 		.ascii	"uint16_t\000"
 4976      31365F74 
 4976      00
 4977              	.LASF28:
 4978 0ce7 70726F74 		.ascii	"protBase\000"
 4978      42617365 
 4978      00
 4979              	.LASF157:
 4980 0cf0 72756E4D 		.ascii	"runMode\000"
 4980      6F646500 
 4981              	.LASF78:
 4982 0cf8 70657269 		.ascii	"periTrCmdGrSelMsk\000"
 4982      5472436D 
 4982      64477253 
 4982      656C4D73 
 4982      6B00
 4983              	.LASF126:
 4984 0d0a 6D617374 		.ascii	"masterBuffer\000"
 4984      65724275 
 4984      66666572 
ARM GAS  C:\Users\tmj32\AppData\Local\Temp\cco3Klhe.s 			page 120


 4984      00
 4985              	.LASF341:
 4986 0d17 63686172 		.ascii	"chart_heigth\000"
 4986      745F6865 
 4986      69677468 
 4986      00
 4987              	.LASF292:
 4988 0d24 4C565F41 		.ascii	"LV_ALIGN_OUT_TOP_LEFT\000"
 4988      4C49474E 
 4988      5F4F5554 
 4988      5F544F50 
 4988      5F4C4546 
 4989              	.LASF174:
 4990 0d3a 63795F73 		.ascii	"cy_stc_tcpwm_counter_config_t\000"
 4990      74635F74 
 4990      6370776D 
 4990      5F636F75 
 4990      6E746572 
 4991              	.LASF40:
 4992 0d58 69706356 		.ascii	"ipcVersion\000"
 4992      65727369 
 4992      6F6E00
 4993              	.LASF322:
 4994 0d63 4C565F43 		.ascii	"LV_CHART_TYPE_COLUMN\000"
 4994      48415254 
 4994      5F545950 
 4994      455F434F 
 4994      4C554D4E 
 4995              	.LASF68:
 4996 0d78 666C6173 		.ascii	"flashCtlMainWs2Freq\000"
 4996      6843746C 
 4996      4D61696E 
 4996      57733246 
 4996      72657100 
 4997              	.LASF77:
 4998 0d8c 70657269 		.ascii	"periTrCmdOffset\000"
 4998      5472436D 
 4998      644F6666 
 4998      73657400 
 4999              	.LASF335:
 5000 0d9c 6C765F73 		.ascii	"lv_slider_set_range\000"
 5000      6C696465 
 5000      725F7365 
 5000      745F7261 
 5000      6E676500 
 5001              	.LASF359:
 5002 0db0 686F7269 		.ascii	"horiLabel1\000"
 5002      4C616265 
 5002      6C3100
 5003              	.LASF360:
 5004 0dbb 686F7269 		.ascii	"horiLabel2\000"
 5004      4C616265 
 5004      6C3200
 5005              	.LASF16:
 5006 0dc6 73697A65 		.ascii	"sizetype\000"
 5006      74797065 
 5006      00
ARM GAS  C:\Users\tmj32\AppData\Local\Temp\cco3Klhe.s 			page 121


 5007              	.LASF224:
 5008 0dcf 6C765F66 		.ascii	"lv_font_t\000"
 5008      6F6E745F 
 5008      7400
 5009              	.LASF246:
 5010 0dd9 6C657474 		.ascii	"letter_space\000"
 5010      65725F73 
 5010      70616365 
 5010      00
 5011              	.LASF103:
 5012 0de6 63707573 		.ascii	"cpussCm4NmiCtlOffset\000"
 5012      73436D34 
 5012      4E6D6943 
 5012      746C4F66 
 5012      66736574 
 5013              	.LASF238:
 5014 0dfb 6D61696E 		.ascii	"main_color\000"
 5014      5F636F6C 
 5014      6F7200
 5015              	.LASF85:
 5016 0e06 70657269 		.ascii	"periDiv8CtlOffset\000"
 5016      44697638 
 5016      43746C4F 
 5016      66667365 
 5016      7400
 5017              	.LASF266:
 5018 0e18 4C565F45 		.ascii	"LV_EVENT_RELEASED\000"
 5018      56454E54 
 5018      5F52454C 
 5018      45415345 
 5018      4400
 5019              	.LASF285:
 5020 0e2a 4C565F41 		.ascii	"LV_ALIGN_IN_TOP_MID\000"
 5020      4C49474E 
 5020      5F494E5F 
 5020      544F505F 
 5020      4D494400 
 5021              	.LASF5:
 5022 0e3e 73686F72 		.ascii	"short int\000"
 5022      7420696E 
 5022      7400
 5023              	.LASF192:
 5024 0e48 636F6F72 		.ascii	"coords\000"
 5024      647300
 5025              	.LASF163:
 5026 0e4f 696E7465 		.ascii	"interruptSources\000"
 5026      72727570 
 5026      74536F75 
 5026      72636573 
 5026      00
 5027              	.LASF293:
 5028 0e60 4C565F41 		.ascii	"LV_ALIGN_OUT_TOP_MID\000"
 5028      4C49474E 
 5028      5F4F5554 
 5028      5F544F50 
 5028      5F4D4944 
 5029              	.LASF188:
ARM GAS  C:\Users\tmj32\AppData\Local\Temp\cco3Klhe.s 			page 122


 5030 0e75 6C765F6F 		.ascii	"lv_opa_t\000"
 5030      70615F74 
 5030      00
 5031              	.LASF35:
 5032 0e7e 63727970 		.ascii	"cryptoVersion\000"
 5032      746F5665 
 5032      7273696F 
 5032      6E00
 5033              	.LASF9:
 5034 0e8c 6C6F6E67 		.ascii	"long int\000"
 5034      20696E74 
 5034      00
 5035              	.LASF319:
 5036 0e95 5F4C565F 		.ascii	"_LV_BTN_STATE_NUM\000"
 5036      42544E5F 
 5036      53544154 
 5036      455F4E55 
 5036      4D00
 5037              	.LASF365:
 5038 0ea7 49544D5F 		.ascii	"ITM_RxBuffer\000"
 5038      52784275 
 5038      66666572 
 5038      00
 5039              	.LASF172:
 5040 0eb4 636F756E 		.ascii	"countInputMode\000"
 5040      74496E70 
 5040      75744D6F 
 5040      646500
 5041              	.LASF38:
 5042 0ec3 6770696F 		.ascii	"gpioVersion\000"
 5042      56657273 
 5042      696F6E00 
 5043              	.LASF37:
 5044 0ecf 666C6173 		.ascii	"flashcVersion\000"
 5044      68635665 
 5044      7273696F 
 5044      6E00
 5045              	.LASF59:
 5046 0edd 70726F74 		.ascii	"protBusMasterMask\000"
 5046      4275734D 
 5046      61737465 
 5046      724D6173 
 5046      6B00
 5047              	.LASF328:
 5048 0eef 6C765F63 		.ascii	"lv_chart_series_t\000"
 5048      68617274 
 5048      5F736572 
 5048      6965735F 
 5048      7400
 5049              	.LASF158:
 5050 0f01 636F756E 		.ascii	"countDirection\000"
 5050      74446972 
 5050      65637469 
 5050      6F6E00
 5051              	.LASF241:
 5052 0f10 626F7264 		.ascii	"border\000"
 5052      657200
ARM GAS  C:\Users\tmj32\AppData\Local\Temp\cco3Klhe.s 			page 123


 5053              	.LASF260:
 5054 0f17 4C565F45 		.ascii	"LV_EVENT_PRESSING\000"
 5054      56454E54 
 5054      5F505245 
 5054      5353494E 
 5054      4700
 5055              	.LASF182:
 5056 0f29 626C7565 		.ascii	"blue\000"
 5056      00
 5057              	.LASF377:
 5058 0f2e 686F6D65 		.ascii	"home_screen\000"
 5058      5F736372 
 5058      65656E00 
 5059              	.LASF175:
 5060 0f3a 6C765F63 		.ascii	"lv_coord_t\000"
 5060      6F6F7264 
 5060      5F7400
 5061              	.LASF203:
 5062 0f45 6F70615F 		.ascii	"opa_scale_en\000"
 5062      7363616C 
 5062      655F656E 
 5062      00
 5063              	.LASF327:
 5064 0f52 73746172 		.ascii	"start_point\000"
 5064      745F706F 
 5064      696E7400 
 5065              	.LASF228:
 5066 0f5e 6C765F62 		.ascii	"lv_border_part_t\000"
 5066      6F726465 
 5066      725F7061 
 5066      72745F74 
 5066      00
 5067              	.LASF235:
 5068 0f6f 6C656674 		.ascii	"left\000"
 5068      00
 5069              	.LASF248:
 5070 0f74 696E7465 		.ascii	"intense\000"
 5070      6E736500 
 5071              	.LASF98:
 5072 0f7c 63707573 		.ascii	"cpussCm4PwrCtlOffset\000"
 5072      73436D34 
 5072      50777243 
 5072      746C4F66 
 5072      66736574 
 5073              	.LASF1:
 5074 0f91 5F5F7569 		.ascii	"__uint8_t\000"
 5074      6E74385F 
 5074      7400
 5075              	.LASF314:
 5076 0f9b 4C565F42 		.ascii	"LV_BTN_STATE_REL\000"
 5076      544E5F53 
 5076      54415445 
 5076      5F52454C 
 5076      00
 5077              	.LASF89:
 5078 0fac 6770696F 		.ascii	"gpioPrtIntrCfgOffset\000"
 5078      50727449 
ARM GAS  C:\Users\tmj32\AppData\Local\Temp\cco3Klhe.s 			page 124


 5078      6E747243 
 5078      66674F66 
 5078      66736574 
 5079              	.LASF318:
 5080 0fc1 4C565F42 		.ascii	"LV_BTN_STATE_INA\000"
 5080      544E5F53 
 5080      54415445 
 5080      5F494E41 
 5080      00
 5081              	.LASF214:
 5082 0fd2 626F785F 		.ascii	"box_h\000"
 5082      6800
 5083              	.LASF271:
 5084 0fd8 4C565F45 		.ascii	"LV_EVENT_FOCUSED\000"
 5084      56454E54 
 5084      5F464F43 
 5084      55534544 
 5084      00
 5085              	.LASF95:
 5086 0fe9 63707573 		.ascii	"cpussCm4ClockCtlOffset\000"
 5086      73436D34 
 5086      436C6F63 
 5086      6B43746C 
 5086      4F666673 
 5087              	.LASF302:
 5088 1000 4C565F41 		.ascii	"LV_ALIGN_OUT_RIGHT_MID\000"
 5088      4C49474E 
 5088      5F4F5554 
 5088      5F524947 
 5088      48545F4D 
 5089              	.LASF100:
 5090 1017 63707573 		.ascii	"cpussTrimRomCtlOffset\000"
 5090      73547269 
 5090      6D526F6D 
 5090      43746C4F 
 5090      66667365 
 5091              	.LASF39:
 5092 102d 6873696F 		.ascii	"hsiomVersion\000"
 5092      6D566572 
 5092      73696F6E 
 5092      00
 5093              	.LASF323:
 5094 103a 4C565F43 		.ascii	"LV_CHART_TYPE_POINT\000"
 5094      48415254 
 5094      5F545950 
 5094      455F504F 
 5094      494E5400 
 5095              	.LASF11:
 5096 104e 6C6F6E67 		.ascii	"long unsigned int\000"
 5096      20756E73 
 5096      69676E65 
 5096      6420696E 
 5096      7400
 5097              	.LASF104:
 5098 1060 63707573 		.ascii	"cpussRomCtl\000"
 5098      73526F6D 
 5098      43746C00 
ARM GAS  C:\Users\tmj32\AppData\Local\Temp\cco3Klhe.s 			page 125


 5099              	.LASF213:
 5100 106c 626F785F 		.ascii	"box_w\000"
 5100      7700
 5101              	.LASF287:
 5102 1072 4C565F41 		.ascii	"LV_ALIGN_IN_BOTTOM_LEFT\000"
 5102      4C49474E 
 5102      5F494E5F 
 5102      424F5454 
 5102      4F4D5F4C 
 5103              	.LASF286:
 5104 108a 4C565F41 		.ascii	"LV_ALIGN_IN_TOP_RIGHT\000"
 5104      4C49474E 
 5104      5F494E5F 
 5104      544F505F 
 5104      52494748 
 5105              	.LASF222:
 5106 10a0 62617365 		.ascii	"base_line\000"
 5106      5F6C696E 
 5106      6500
 5107              	.LASF225:
 5108 10aa 4C565F41 		.ascii	"LV_ANIM_OFF\000"
 5108      4E494D5F 
 5108      4F464600 
 5109              	.LASF240:
 5110 10b6 72616469 		.ascii	"radius\000"
 5110      757300
 5111              	.LASF209:
 5112 10bd 6F70615F 		.ascii	"opa_scale\000"
 5112      7363616C 
 5112      6500
 5113              	.LASF251:
 5114 10c7 626F6479 		.ascii	"body\000"
 5114      00
 5115              	.LASF281:
 5116 10cc 6C765F73 		.ascii	"lv_signal_t\000"
 5116      69676E61 
 5116      6C5F7400 
 5117              	.LASF374:
 5118 10d8 686F6D65 		.ascii	"home_screen.c\000"
 5118      5F736372 
 5118      65656E2E 
 5118      6300
 5119              	.LASF208:
 5120 10e6 70726F74 		.ascii	"protect\000"
 5120      65637400 
 5121              	.LASF36:
 5122 10ee 64775665 		.ascii	"dwVersion\000"
 5122      7273696F 
 5122      6E00
 5123              	.LASF3:
 5124 10f8 756E7369 		.ascii	"unsigned char\000"
 5124      676E6564 
 5124      20636861 
 5124      7200
 5125              	.LASF10:
 5126 1106 5F5F7569 		.ascii	"__uint32_t\000"
 5126      6E743332 
ARM GAS  C:\Users\tmj32\AppData\Local\Temp\cco3Klhe.s 			page 126


 5126      5F7400
 5127              	.LASF269:
 5128 1111 4C565F45 		.ascii	"LV_EVENT_DRAG_THROW_BEGIN\000"
 5128      56454E54 
 5128      5F445241 
 5128      475F5448 
 5128      524F575F 
 5129              	.LASF109:
 5130 112b 6970634C 		.ascii	"ipcLockStatusOffset\000"
 5130      6F636B53 
 5130      74617475 
 5130      734F6666 
 5130      73657400 
 5131              	.LASF254:
 5132 113f 6C696E65 		.ascii	"line\000"
 5132      00
 5133              	.LASF173:
 5134 1144 636F756E 		.ascii	"countInput\000"
 5134      74496E70 
 5134      757400
 5135              	.LASF361:
 5136 114f 76657274 		.ascii	"vertSlider\000"
 5136      536C6964 
 5136      657200
 5137              	.LASF294:
 5138 115a 4C565F41 		.ascii	"LV_ALIGN_OUT_TOP_RIGHT\000"
 5138      4C49474E 
 5138      5F4F5554 
 5138      5F544F50 
 5138      5F524947 
 5139              	.LASF220:
 5140 1171 6765745F 		.ascii	"get_glyph_bitmap\000"
 5140      676C7970 
 5140      685F6269 
 5140      746D6170 
 5140      00
 5141              	.LASF180:
 5142 1182 7461696C 		.ascii	"tail\000"
 5142      00
 5143              	.LASF65:
 5144 1187 666C6173 		.ascii	"flashEraseDelay\000"
 5144      68457261 
 5144      73654465 
 5144      6C617900 
 5145              	.LASF357:
 5146 1197 6761696E 		.ascii	"gainLabel2\000"
 5146      4C616265 
 5146      6C3200
 5147              	.LASF191:
 5148 11a2 6368696C 		.ascii	"child_ll\000"
 5148      645F6C6C 
 5148      00
 5149              	.LASF370:
 5150 11ab 74636E6A 		.ascii	"tcnj_blue\000"
 5150      5F626C75 
 5150      6500
 5151              	.LASF320:
ARM GAS  C:\Users\tmj32\AppData\Local\Temp\cco3Klhe.s 			page 127


 5152 11b5 4C565F43 		.ascii	"LV_CHART_TYPE_NONE\000"
 5152      48415254 
 5152      5F545950 
 5152      455F4E4F 
 5152      4E4500
 5153              	.LASF122:
 5154 11c8 73746174 		.ascii	"state\000"
 5154      6500
 5155              	.LASF257:
 5156 11ce 6C765F64 		.ascii	"lv_design_mode_t\000"
 5156      65736967 
 5156      6E5F6D6F 
 5156      64655F74 
 5156      00
 5157              	.LASF25:
 5158 11df 666C6173 		.ascii	"flashcBase\000"
 5158      68634261 
 5158      736500
 5159              	.LASF193:
 5160 11ea 6576656E 		.ascii	"event_cb\000"
 5160      745F6362 
 5160      00
 5161              	.LASF195:
 5162 11f3 64657369 		.ascii	"design_cb\000"
 5162      676E5F63 
 5162      6200
 5163              	.LASF61:
 5164 11fd 666C6173 		.ascii	"flashRwwRequired\000"
 5164      68527777 
 5164      52657175 
 5164      69726564 
 5164      00
 5165              	.LASF90:
 5166 120e 6770696F 		.ascii	"gpioPrtCfgOffset\000"
 5166      50727443 
 5166      66674F66 
 5166      66736574 
 5166      00
 5167              	.LASF348:
 5168 121f 74784275 		.ascii	"txBuffer\000"
 5168      66666572 
 5168      00
 5169              	.LASF227:
 5170 1228 6C765F61 		.ascii	"lv_anim_enable_t\000"
 5170      6E696D5F 
 5170      656E6162 
 5170      6C655F74 
 5170      00
 5171              	.LASF196:
 5172 1239 6578745F 		.ascii	"ext_attr\000"
 5172      61747472 
 5172      00
 5173              	.LASF67:
 5174 1242 666C6173 		.ascii	"flashCtlMainWs1Freq\000"
 5174      6843746C 
 5174      4D61696E 
 5174      57733146 
ARM GAS  C:\Users\tmj32\AppData\Local\Temp\cco3Klhe.s 			page 128


 5174      72657100 
 5175              	.LASF189:
 5176 1256 6C765F61 		.ascii	"lv_area_t\000"
 5176      7265615F 
 5176      7400
 5177              	.LASF47:
 5178 1260 63707573 		.ascii	"cpussIpc0Irq\000"
 5178      73497063 
 5178      30497271 
 5178      00
 5179              	.LASF2:
 5180 126d 7369676E 		.ascii	"signed char\000"
 5180      65642063 
 5180      68617200 
 5181              	.LASF155:
 5182 1279 70657269 		.ascii	"period\000"
 5182      6F6400
 5183              	.LASF202:
 5184 1280 68696464 		.ascii	"hidden\000"
 5184      656E00
 5185              	.LASF71:
 5186 1287 64774368 		.ascii	"dwChOffset\000"
 5186      4F666673 
 5186      657400
 5187              	.LASF372:
 5188 1292 53504966 		.ascii	"SPIflag\000"
 5188      6C616700 
 5189              	.LASF44:
 5190 129a 63707573 		.ascii	"cpussIpcIrqNr\000"
 5190      73497063 
 5190      4972714E 
 5190      7200
 5191              	.LASF154:
 5192 12a8 63795F73 		.ascii	"cy_stc_tcpwm_counter_config\000"
 5192      74635F74 
 5192      6370776D 
 5192      5F636F75 
 5192      6E746572 
 5193              	.LASF74:
 5194 12c4 64774368 		.ascii	"dwChCtlPreemptablePos\000"
 5194      43746C50 
 5194      7265656D 
 5194      70746162 
 5194      6C65506F 
 5195              	.LASF311:
 5196 12da 6C765F72 		.ascii	"lv_reailgn_t\000"
 5196      6561696C 
 5196      676E5F74 
 5196      00
 5197              	.LASF345:
 5198 12e7 6D795F6C 		.ascii	"my_label\000"
 5198      6162656C 
 5198      00
 5199              	.LASF0:
 5200 12f0 5F5F696E 		.ascii	"__int8_t\000"
 5200      74385F74 
 5200      00
ARM GAS  C:\Users\tmj32\AppData\Local\Temp\cco3Klhe.s 			page 129


 5201              	.LASF300:
 5202 12f9 4C565F41 		.ascii	"LV_ALIGN_OUT_LEFT_BOTTOM\000"
 5202      4C49474E 
 5202      5F4F5554 
 5202      5F4C4546 
 5202      545F424F 
 5203              	.LASF110:
 5204 1312 63795F73 		.ascii	"cy_stc_device_t\000"
 5204      74635F64 
 5204      65766963 
 5204      655F7400 
 5205              	.LASF207:
 5206 1322 72657365 		.ascii	"reserved\000"
 5206      72766564 
 5206      00
 5207              	.LASF264:
 5208 132b 4C565F45 		.ascii	"LV_EVENT_LONG_PRESSED_REPEAT\000"
 5208      56454E54 
 5208      5F4C4F4E 
 5208      475F5052 
 5208      45535345 
 5209              	.LASF324:
 5210 1348 4C565F43 		.ascii	"LV_CHART_TYPE_VERTICAL_LINE\000"
 5210      48415254 
 5210      5F545950 
 5210      455F5645 
 5210      52544943 
 5211              	.LASF144:
 5212 1364 63795F73 		.ascii	"cy_stc_scb_spi_context\000"
 5212      74635F73 
 5212      63625F73 
 5212      70695F63 
 5212      6F6E7465 
 5213              	.LASF113:
 5214 137b 75696E74 		.ascii	"uint8\000"
 5214      3800
 5215              	.LASF112:
 5216 1381 646F7562 		.ascii	"double\000"
 5216      6C6500
 5217              	.LASF199:
 5218 1388 64726167 		.ascii	"drag\000"
 5218      00
 5219              	.LASF343:
 5220 138d 63686172 		.ascii	"chart_horiPos\000"
 5220      745F686F 
 5220      7269506F 
 5220      7300
 5221              	.LASF87:
 5222 139b 70657269 		.ascii	"periDiv16_5CtlOffset\000"
 5222      44697631 
 5222      365F3543 
 5222      746C4F66 
 5222      66736574 
 5223              	.LASF45:
 5224 13b0 63707573 		.ascii	"cpussDwChNr\000"
 5224      73447743 
 5224      684E7200 
ARM GAS  C:\Users\tmj32\AppData\Local\Temp\cco3Klhe.s 			page 130


 5225              	.LASF141:
 5226 13bc 63795F73 		.ascii	"cy_stc_scb_i2c_context_t\000"
 5226      74635F73 
 5226      63625F69 
 5226      32635F63 
 5226      6F6E7465 
 5227              	.LASF194:
 5228 13d5 7369676E 		.ascii	"signal_cb\000"
 5228      616C5F63 
 5228      6200
 5229              	.LASF70:
 5230 13df 666C6173 		.ascii	"flashCtlMainWs4Freq\000"
 5230      6843746C 
 5230      4D61696E 
 5230      57733446 
 5230      72657100 
 5231              	.LASF316:
 5232 13f3 4C565F42 		.ascii	"LV_BTN_STATE_TGL_REL\000"
 5232      544E5F53 
 5232      54415445 
 5232      5F54474C 
 5232      5F52454C 
 5233              	.LASF262:
 5234 1408 4C565F45 		.ascii	"LV_EVENT_SHORT_CLICKED\000"
 5234      56454E54 
 5234      5F53484F 
 5234      52545F43 
 5234      4C49434B 
 5235              	.LASF325:
 5236 141f 4C565F43 		.ascii	"LV_CHART_TYPE_AREA\000"
 5236      48415254 
 5236      5F545950 
 5236      455F4152 
 5236      454100
 5237              	.LASF373:
 5238 1432 474E5520 		.ascii	"GNU C11 5.4.1 20160609 (release) [ARM/embedded-5-br"
 5238      43313120 
 5238      352E342E 
 5238      31203230 
 5238      31363036 
 5239 1465 616E6368 		.ascii	"anch revision 237715] -mcpu=cortex-m4 -mfloat-abi=s"
 5239      20726576 
 5239      6973696F 
 5239      6E203233 
 5239      37373135 
 5240 1498 6F667466 		.ascii	"oftfp -mfpu=fpv4-sp-d16 -mthumb -g -O0 -ffunction-s"
 5240      70202D6D 
 5240      6670753D 
 5240      66707634 
 5240      2D73702D 
 5241 14cb 65637469 		.ascii	"ections -ffat-lto-objects\000"
 5241      6F6E7320 
 5241      2D666661 
 5241      742D6C74 
 5241      6F2D6F62 
 5242              	.LASF308:
 5243 14e5 616C6967 		.ascii	"align\000"
ARM GAS  C:\Users\tmj32\AppData\Local\Temp\cco3Klhe.s 			page 131


 5243      6E00
 5244              	.LASF97:
 5245 14eb 63707573 		.ascii	"cpussCm0StatusOffset\000"
 5245      73436D30 
 5245      53746174 
 5245      75734F66 
 5245      66736574 
 5246              	.LASF326:
 5247 1500 706F696E 		.ascii	"points\000"
 5247      747300
 5248              	.LASF284:
 5249 1507 4C565F41 		.ascii	"LV_ALIGN_IN_TOP_LEFT\000"
 5249      4C49474E 
 5249      5F494E5F 
 5249      544F505F 
 5249      4C454654 
 5250              	.LASF263:
 5251 151c 4C565F45 		.ascii	"LV_EVENT_LONG_PRESSED\000"
 5251      56454E54 
 5251      5F4C4F4E 
 5251      475F5052 
 5251      45535345 
 5252              	.LASF280:
 5253 1532 6C765F65 		.ascii	"lv_event_cb_t\000"
 5253      76656E74 
 5253      5F63625F 
 5253      7400
 5254              	.LASF34:
 5255 1540 63707573 		.ascii	"cpussVersion\000"
 5255      73566572 
 5255      73696F6E 
 5255      00
 5256              	.LASF283:
 5257 154d 4C565F41 		.ascii	"LV_ALIGN_CENTER\000"
 5257      4C49474E 
 5257      5F43454E 
 5257      54455200 
 5258              	.LASF147:
 5259 155d 72784275 		.ascii	"rxBufSize\000"
 5259      6653697A 
 5259      6500
 5260              	.LASF212:
 5261 1567 6164765F 		.ascii	"adv_w\000"
 5261      7700
 5262              	.LASF130:
 5263 156d 736C6176 		.ascii	"slaveStatus\000"
 5263      65537461 
 5263      74757300 
 5264              	.LASF354:
 5265 1579 6F666673 		.ascii	"offsetLabel2\000"
 5265      65744C61 
 5265      62656C32 
 5265      00
 5266              		.ident	"GCC: (GNU Tools for ARM Embedded Processors) 5.4.1 20160609 (release) [ARM/embedded-5-bran
