ARM GAS  C:\Users\tmj32\AppData\Local\Temp\ccWKiy37.s 			page 1


   1              		.syntax unified
   2              		.cpu cortex-m4
   3              		.eabi_attribute 27, 1
   4              		.fpu fpv4-sp-d16
   5              		.eabi_attribute 20, 1
   6              		.eabi_attribute 21, 1
   7              		.eabi_attribute 23, 3
   8              		.eabi_attribute 24, 1
   9              		.eabi_attribute 25, 1
  10              		.eabi_attribute 26, 1
  11              		.eabi_attribute 30, 6
  12              		.eabi_attribute 34, 1
  13              		.eabi_attribute 18, 4
  14              		.thumb
  15              		.syntax unified
  16              		.file	"LCD_INTERFACE_PM.c"
  17              		.text
  18              	.Ltext0:
  19              		.cfi_sections	.debug_frame
  20              		.section	.text.LCD_INTERFACE_SaveConfig,"ax",%progbits
  21              		.align	2
  22              		.global	LCD_INTERFACE_SaveConfig
  23              		.thumb
  24              		.thumb_func
  25              		.type	LCD_INTERFACE_SaveConfig, %function
  26              	LCD_INTERFACE_SaveConfig:
  27              	.LFB132:
  28              		.file 1 "Generated_Source\\PSoC6\\LCD_INTERFACE_PM.c"
   1:Generated_Source\PSoC6/LCD_INTERFACE_PM.c **** /*******************************************************************************
   2:Generated_Source\PSoC6/LCD_INTERFACE_PM.c **** * File Name: LCD_INTERFACE_PM.c
   3:Generated_Source\PSoC6/LCD_INTERFACE_PM.c **** * Version 1.80
   4:Generated_Source\PSoC6/LCD_INTERFACE_PM.c **** *
   5:Generated_Source\PSoC6/LCD_INTERFACE_PM.c **** * Description:
   6:Generated_Source\PSoC6/LCD_INTERFACE_PM.c **** *  This file contains the setup, control and status commands to support 
   7:Generated_Source\PSoC6/LCD_INTERFACE_PM.c **** *  the component operations in Low-power mode.  
   8:Generated_Source\PSoC6/LCD_INTERFACE_PM.c **** *
   9:Generated_Source\PSoC6/LCD_INTERFACE_PM.c **** ********************************************************************************
  10:Generated_Source\PSoC6/LCD_INTERFACE_PM.c **** * Copyright 2008-2018, Cypress Semiconductor Corporation.  All rights reserved.
  11:Generated_Source\PSoC6/LCD_INTERFACE_PM.c **** * You may use this file only in accordance with the license, terms, conditions,
  12:Generated_Source\PSoC6/LCD_INTERFACE_PM.c **** * disclaimers, and limitations in the end user license agreement accompanying
  13:Generated_Source\PSoC6/LCD_INTERFACE_PM.c **** * the software package with which this file was provided.
  14:Generated_Source\PSoC6/LCD_INTERFACE_PM.c **** *******************************************************************************/
  15:Generated_Source\PSoC6/LCD_INTERFACE_PM.c **** 
  16:Generated_Source\PSoC6/LCD_INTERFACE_PM.c **** #include "LCD_INTERFACE.h" 
  17:Generated_Source\PSoC6/LCD_INTERFACE_PM.c **** 
  18:Generated_Source\PSoC6/LCD_INTERFACE_PM.c **** 
  19:Generated_Source\PSoC6/LCD_INTERFACE_PM.c **** /*******************************************************************************
  20:Generated_Source\PSoC6/LCD_INTERFACE_PM.c **** * Function Name: LCD_INTERFACE_SaveConfig
  21:Generated_Source\PSoC6/LCD_INTERFACE_PM.c **** ********************************************************************************
  22:Generated_Source\PSoC6/LCD_INTERFACE_PM.c **** *
  23:Generated_Source\PSoC6/LCD_INTERFACE_PM.c **** * Summary:
  24:Generated_Source\PSoC6/LCD_INTERFACE_PM.c **** *  All configuration registers are retention. Nothing to save here.
  25:Generated_Source\PSoC6/LCD_INTERFACE_PM.c **** *
  26:Generated_Source\PSoC6/LCD_INTERFACE_PM.c **** *******************************************************************************/
  27:Generated_Source\PSoC6/LCD_INTERFACE_PM.c **** void LCD_INTERFACE_SaveConfig(void) 
  28:Generated_Source\PSoC6/LCD_INTERFACE_PM.c **** {   
  29              		.loc 1 28 0
ARM GAS  C:\Users\tmj32\AppData\Local\Temp\ccWKiy37.s 			page 2


  30              		.cfi_startproc
  31              		@ args = 0, pretend = 0, frame = 0
  32              		@ frame_needed = 1, uses_anonymous_args = 0
  33              		@ link register save eliminated.
  34 0000 80B4     		push	{r7}
  35              		.cfi_def_cfa_offset 4
  36              		.cfi_offset 7, -4
  37 0002 00AF     		add	r7, sp, #0
  38              		.cfi_def_cfa_register 7
  29:Generated_Source\PSoC6/LCD_INTERFACE_PM.c ****     
  30:Generated_Source\PSoC6/LCD_INTERFACE_PM.c **** }
  39              		.loc 1 30 0
  40 0004 00BF     		nop
  41 0006 BD46     		mov	sp, r7
  42              		.cfi_def_cfa_register 13
  43              		@ sp needed
  44 0008 5DF8047B 		ldr	r7, [sp], #4
  45              		.cfi_restore 7
  46              		.cfi_def_cfa_offset 0
  47 000c 7047     		bx	lr
  48              		.cfi_endproc
  49              	.LFE132:
  50              		.size	LCD_INTERFACE_SaveConfig, .-LCD_INTERFACE_SaveConfig
  51 000e 00BF     		.section	.text.LCD_INTERFACE_RestoreConfig,"ax",%progbits
  52              		.align	2
  53              		.global	LCD_INTERFACE_RestoreConfig
  54              		.thumb
  55              		.thumb_func
  56              		.type	LCD_INTERFACE_RestoreConfig, %function
  57              	LCD_INTERFACE_RestoreConfig:
  58              	.LFB133:
  31:Generated_Source\PSoC6/LCD_INTERFACE_PM.c **** 
  32:Generated_Source\PSoC6/LCD_INTERFACE_PM.c **** 
  33:Generated_Source\PSoC6/LCD_INTERFACE_PM.c **** /*******************************************************************************
  34:Generated_Source\PSoC6/LCD_INTERFACE_PM.c **** * Function Name: LCD_INTERFACE_RestoreConfig
  35:Generated_Source\PSoC6/LCD_INTERFACE_PM.c **** ********************************************************************************
  36:Generated_Source\PSoC6/LCD_INTERFACE_PM.c **** *
  37:Generated_Source\PSoC6/LCD_INTERFACE_PM.c **** * Summary:
  38:Generated_Source\PSoC6/LCD_INTERFACE_PM.c **** *  All configuration registers are retention. Nothing to restore here.
  39:Generated_Source\PSoC6/LCD_INTERFACE_PM.c **** *
  40:Generated_Source\PSoC6/LCD_INTERFACE_PM.c **** *******************************************************************************/
  41:Generated_Source\PSoC6/LCD_INTERFACE_PM.c **** void LCD_INTERFACE_RestoreConfig(void) 
  42:Generated_Source\PSoC6/LCD_INTERFACE_PM.c **** {    
  59              		.loc 1 42 0
  60              		.cfi_startproc
  61              		@ args = 0, pretend = 0, frame = 0
  62              		@ frame_needed = 1, uses_anonymous_args = 0
  63              		@ link register save eliminated.
  64 0000 80B4     		push	{r7}
  65              		.cfi_def_cfa_offset 4
  66              		.cfi_offset 7, -4
  67 0002 00AF     		add	r7, sp, #0
  68              		.cfi_def_cfa_register 7
  43:Generated_Source\PSoC6/LCD_INTERFACE_PM.c ****     
  44:Generated_Source\PSoC6/LCD_INTERFACE_PM.c **** }
  69              		.loc 1 44 0
  70 0004 00BF     		nop
ARM GAS  C:\Users\tmj32\AppData\Local\Temp\ccWKiy37.s 			page 3


  71 0006 BD46     		mov	sp, r7
  72              		.cfi_def_cfa_register 13
  73              		@ sp needed
  74 0008 5DF8047B 		ldr	r7, [sp], #4
  75              		.cfi_restore 7
  76              		.cfi_def_cfa_offset 0
  77 000c 7047     		bx	lr
  78              		.cfi_endproc
  79              	.LFE133:
  80              		.size	LCD_INTERFACE_RestoreConfig, .-LCD_INTERFACE_RestoreConfig
  81 000e 00BF     		.section	.text.LCD_INTERFACE_Sleep,"ax",%progbits
  82              		.align	2
  83              		.global	LCD_INTERFACE_Sleep
  84              		.thumb
  85              		.thumb_func
  86              		.type	LCD_INTERFACE_Sleep, %function
  87              	LCD_INTERFACE_Sleep:
  88              	.LFB134:
  45:Generated_Source\PSoC6/LCD_INTERFACE_PM.c **** 
  46:Generated_Source\PSoC6/LCD_INTERFACE_PM.c **** 
  47:Generated_Source\PSoC6/LCD_INTERFACE_PM.c **** /*******************************************************************************
  48:Generated_Source\PSoC6/LCD_INTERFACE_PM.c **** * Function Name: LCD_INTERFACE_Sleep
  49:Generated_Source\PSoC6/LCD_INTERFACE_PM.c **** ********************************************************************************
  50:Generated_Source\PSoC6/LCD_INTERFACE_PM.c **** *
  51:Generated_Source\PSoC6/LCD_INTERFACE_PM.c **** * Summary:
  52:Generated_Source\PSoC6/LCD_INTERFACE_PM.c **** *  Disables block's operation and saves its configuration. Should be called 
  53:Generated_Source\PSoC6/LCD_INTERFACE_PM.c **** *  prior to entering Sleep.
  54:Generated_Source\PSoC6/LCD_INTERFACE_PM.c **** *
  55:Generated_Source\PSoC6/LCD_INTERFACE_PM.c **** *******************************************************************************/
  56:Generated_Source\PSoC6/LCD_INTERFACE_PM.c **** void LCD_INTERFACE_Sleep(void) 
  57:Generated_Source\PSoC6/LCD_INTERFACE_PM.c **** {
  89              		.loc 1 57 0
  90              		.cfi_startproc
  91              		@ args = 0, pretend = 0, frame = 0
  92              		@ frame_needed = 1, uses_anonymous_args = 0
  93 0000 80B5     		push	{r7, lr}
  94              		.cfi_def_cfa_offset 8
  95              		.cfi_offset 7, -8
  96              		.cfi_offset 14, -4
  97 0002 00AF     		add	r7, sp, #0
  98              		.cfi_def_cfa_register 7
  58:Generated_Source\PSoC6/LCD_INTERFACE_PM.c ****     LCD_INTERFACE_Stop();
  99              		.loc 1 58 0
 100 0004 FFF7FEFF 		bl	LCD_INTERFACE_Stop
  59:Generated_Source\PSoC6/LCD_INTERFACE_PM.c **** }
 101              		.loc 1 59 0
 102 0008 00BF     		nop
 103 000a 80BD     		pop	{r7, pc}
 104              		.cfi_endproc
 105              	.LFE134:
 106              		.size	LCD_INTERFACE_Sleep, .-LCD_INTERFACE_Sleep
 107              		.section	.text.LCD_INTERFACE_Wakeup,"ax",%progbits
 108              		.align	2
 109              		.global	LCD_INTERFACE_Wakeup
 110              		.thumb
 111              		.thumb_func
 112              		.type	LCD_INTERFACE_Wakeup, %function
ARM GAS  C:\Users\tmj32\AppData\Local\Temp\ccWKiy37.s 			page 4


 113              	LCD_INTERFACE_Wakeup:
 114              	.LFB135:
  60:Generated_Source\PSoC6/LCD_INTERFACE_PM.c **** 
  61:Generated_Source\PSoC6/LCD_INTERFACE_PM.c **** 
  62:Generated_Source\PSoC6/LCD_INTERFACE_PM.c **** /*******************************************************************************
  63:Generated_Source\PSoC6/LCD_INTERFACE_PM.c **** * Function Name: LCD_INTERFACE_Wakeup
  64:Generated_Source\PSoC6/LCD_INTERFACE_PM.c **** ********************************************************************************
  65:Generated_Source\PSoC6/LCD_INTERFACE_PM.c **** *
  66:Generated_Source\PSoC6/LCD_INTERFACE_PM.c **** * Summary:
  67:Generated_Source\PSoC6/LCD_INTERFACE_PM.c **** *  Enables block's operation and restores its configuration. Should be called
  68:Generated_Source\PSoC6/LCD_INTERFACE_PM.c **** *  after awaking from Sleep.
  69:Generated_Source\PSoC6/LCD_INTERFACE_PM.c **** *
  70:Generated_Source\PSoC6/LCD_INTERFACE_PM.c **** *******************************************************************************/
  71:Generated_Source\PSoC6/LCD_INTERFACE_PM.c **** void LCD_INTERFACE_Wakeup(void) 
  72:Generated_Source\PSoC6/LCD_INTERFACE_PM.c **** {
 115              		.loc 1 72 0
 116              		.cfi_startproc
 117              		@ args = 0, pretend = 0, frame = 0
 118              		@ frame_needed = 1, uses_anonymous_args = 0
 119 0000 80B5     		push	{r7, lr}
 120              		.cfi_def_cfa_offset 8
 121              		.cfi_offset 7, -8
 122              		.cfi_offset 14, -4
 123 0002 00AF     		add	r7, sp, #0
 124              		.cfi_def_cfa_register 7
  73:Generated_Source\PSoC6/LCD_INTERFACE_PM.c ****     LCD_INTERFACE_Enable();
 125              		.loc 1 73 0
 126 0004 FFF7FEFF 		bl	LCD_INTERFACE_Enable
  74:Generated_Source\PSoC6/LCD_INTERFACE_PM.c **** }
 127              		.loc 1 74 0
 128 0008 00BF     		nop
 129 000a 80BD     		pop	{r7, pc}
 130              		.cfi_endproc
 131              	.LFE135:
 132              		.size	LCD_INTERFACE_Wakeup, .-LCD_INTERFACE_Wakeup
 133              		.text
 134              	.Letext0:
 135              		.file 2 "c:\\program files (x86)\\cypress\\psoc creator\\4.3\\psoc creator\\import\\gnu\\arm\\5.4.
 136              		.file 3 "c:\\program files (x86)\\cypress\\psoc creator\\4.3\\psoc creator\\import\\gnu\\arm\\5.4.
 137              		.file 4 "Generated_Source\\PSoC6\\pdl\\cmsis/include/core_cm4.h"