ARM GAS  C:\Users\tmj32\AppData\Local\Temp\cc4GEfLW.s 			page 1


   1              		.syntax unified
   2              		.cpu cortex-m4
   3              		.eabi_attribute 27, 1
   4              		.fpu fpv4-sp-d16
   5              		.eabi_attribute 20, 1
   6              		.eabi_attribute 21, 1
   7              		.eabi_attribute 23, 3
   8              		.eabi_attribute 24, 1
   9              		.eabi_attribute 25, 1
  10              		.eabi_attribute 26, 1
  11              		.eabi_attribute 30, 6
  12              		.eabi_attribute 34, 1
  13              		.eabi_attribute 18, 4
  14              		.thumb
  15              		.syntax unified
  16              		.file	"LCD_INTERFACE.c"
  17              		.text
  18              	.Ltext0:
  19              		.cfi_sections	.debug_frame
  20              		.global	LCD_INTERFACE_initVar
  21              		.bss
  22              		.type	LCD_INTERFACE_initVar, %object
  23              		.size	LCD_INTERFACE_initVar, 1
  24              	LCD_INTERFACE_initVar:
  25 0000 00       		.space	1
  26              		.section	.text.LCD_INTERFACE_Enable,"ax",%progbits
  27              		.align	2
  28              		.global	LCD_INTERFACE_Enable
  29              		.thumb
  30              		.thumb_func
  31              		.type	LCD_INTERFACE_Enable, %function
  32              	LCD_INTERFACE_Enable:
  33              	.LFB132:
  34              		.file 1 "Generated_Source\\PSoC6\\LCD_INTERFACE.c"
   1:Generated_Source\PSoC6/LCD_INTERFACE.c **** /*******************************************************************************
   2:Generated_Source\PSoC6/LCD_INTERFACE.c **** * File Name: LCD_INTERFACE.c  
   3:Generated_Source\PSoC6/LCD_INTERFACE.c **** * Version 1.80
   4:Generated_Source\PSoC6/LCD_INTERFACE.c **** *
   5:Generated_Source\PSoC6/LCD_INTERFACE.c **** * Description:
   6:Generated_Source\PSoC6/LCD_INTERFACE.c **** *  This file contains the setup, control and status commands for the 
   7:Generated_Source\PSoC6/LCD_INTERFACE.c **** *  GraphicLCDIntf component.   
   8:Generated_Source\PSoC6/LCD_INTERFACE.c **** *
   9:Generated_Source\PSoC6/LCD_INTERFACE.c **** *******************************************************************************
  10:Generated_Source\PSoC6/LCD_INTERFACE.c **** * Copyright 2008-2018, Cypress Semiconductor Corporation.  All rights reserved.
  11:Generated_Source\PSoC6/LCD_INTERFACE.c **** * You may use this file only in accordance with the license, terms, conditions, 
  12:Generated_Source\PSoC6/LCD_INTERFACE.c **** * disclaimers, and limitations in the end user license agreement accompanying 
  13:Generated_Source\PSoC6/LCD_INTERFACE.c **** * the software package with which this file was provided.
  14:Generated_Source\PSoC6/LCD_INTERFACE.c **** ********************************************************************************/
  15:Generated_Source\PSoC6/LCD_INTERFACE.c **** 
  16:Generated_Source\PSoC6/LCD_INTERFACE.c **** #include "LCD_INTERFACE.h"  
  17:Generated_Source\PSoC6/LCD_INTERFACE.c **** 
  18:Generated_Source\PSoC6/LCD_INTERFACE.c **** uint8 LCD_INTERFACE_initVar = 0u;
  19:Generated_Source\PSoC6/LCD_INTERFACE.c **** 
  20:Generated_Source\PSoC6/LCD_INTERFACE.c **** 
  21:Generated_Source\PSoC6/LCD_INTERFACE.c **** /*******************************************************************************
  22:Generated_Source\PSoC6/LCD_INTERFACE.c **** * Function Name: LCD_INTERFACE_Enable
  23:Generated_Source\PSoC6/LCD_INTERFACE.c **** ********************************************************************************
ARM GAS  C:\Users\tmj32\AppData\Local\Temp\cc4GEfLW.s 			page 2


  24:Generated_Source\PSoC6/LCD_INTERFACE.c **** *
  25:Generated_Source\PSoC6/LCD_INTERFACE.c **** * Summary:
  26:Generated_Source\PSoC6/LCD_INTERFACE.c **** *  There is no need to reset or enable this component.  This component is 
  27:Generated_Source\PSoC6/LCD_INTERFACE.c **** *  naturally a slave that waits for the API calls to perform any 
  28:Generated_Source\PSoC6/LCD_INTERFACE.c **** *  function and after a request is made that request will always complete in 
  29:Generated_Source\PSoC6/LCD_INTERFACE.c **** *  finite time as long as a clock is provided. The only thing provided
  30:Generated_Source\PSoC6/LCD_INTERFACE.c **** *  by this API is setting the Command FIFO to drive at least the half-empty status
  31:Generated_Source\PSoC6/LCD_INTERFACE.c **** *  from the FIFO.
  32:Generated_Source\PSoC6/LCD_INTERFACE.c **** *
  33:Generated_Source\PSoC6/LCD_INTERFACE.c **** *******************************************************************************/
  34:Generated_Source\PSoC6/LCD_INTERFACE.c **** void LCD_INTERFACE_Enable(void) 
  35:Generated_Source\PSoC6/LCD_INTERFACE.c **** {   
  35              		.loc 1 35 0
  36              		.cfi_startproc
  37              		@ args = 0, pretend = 0, frame = 0
  38              		@ frame_needed = 1, uses_anonymous_args = 0
  39              		@ link register save eliminated.
  40 0000 80B4     		push	{r7}
  41              		.cfi_def_cfa_offset 4
  42              		.cfi_offset 7, -4
  43 0002 00AF     		add	r7, sp, #0
  44              		.cfi_def_cfa_register 7
  36:Generated_Source\PSoC6/LCD_INTERFACE.c ****     /* Nothing to enable */
  37:Generated_Source\PSoC6/LCD_INTERFACE.c **** }
  45              		.loc 1 37 0
  46 0004 00BF     		nop
  47 0006 BD46     		mov	sp, r7
  48              		.cfi_def_cfa_register 13
  49              		@ sp needed
  50 0008 5DF8047B 		ldr	r7, [sp], #4
  51              		.cfi_restore 7
  52              		.cfi_def_cfa_offset 0
  53 000c 7047     		bx	lr
  54              		.cfi_endproc
  55              	.LFE132:
  56              		.size	LCD_INTERFACE_Enable, .-LCD_INTERFACE_Enable
  57 000e 00BF     		.section	.text.LCD_INTERFACE_Init,"ax",%progbits
  58              		.align	2
  59              		.global	LCD_INTERFACE_Init
  60              		.thumb
  61              		.thumb_func
  62              		.type	LCD_INTERFACE_Init, %function
  63              	LCD_INTERFACE_Init:
  64              	.LFB133:
  38:Generated_Source\PSoC6/LCD_INTERFACE.c **** 
  39:Generated_Source\PSoC6/LCD_INTERFACE.c **** 
  40:Generated_Source\PSoC6/LCD_INTERFACE.c **** /*******************************************************************************
  41:Generated_Source\PSoC6/LCD_INTERFACE.c **** * Function Name: LCD_INTERFACE_Init
  42:Generated_Source\PSoC6/LCD_INTERFACE.c **** ********************************************************************************
  43:Generated_Source\PSoC6/LCD_INTERFACE.c **** *
  44:Generated_Source\PSoC6/LCD_INTERFACE.c **** * Summary:
  45:Generated_Source\PSoC6/LCD_INTERFACE.c **** *  Inits/Restores default GraphicLCDIntf configuration provided with the customizer.
  46:Generated_Source\PSoC6/LCD_INTERFACE.c **** * 
  47:Generated_Source\PSoC6/LCD_INTERFACE.c **** *******************************************************************************/
  48:Generated_Source\PSoC6/LCD_INTERFACE.c **** void LCD_INTERFACE_Init(void) 
  49:Generated_Source\PSoC6/LCD_INTERFACE.c **** {
  65              		.loc 1 49 0
ARM GAS  C:\Users\tmj32\AppData\Local\Temp\cc4GEfLW.s 			page 3


  66              		.cfi_startproc
  67              		@ args = 0, pretend = 0, frame = 0
  68              		@ frame_needed = 1, uses_anonymous_args = 0
  69              		@ link register save eliminated.
  70 0000 80B4     		push	{r7}
  71              		.cfi_def_cfa_offset 4
  72              		.cfi_offset 7, -4
  73 0002 00AF     		add	r7, sp, #0
  74              		.cfi_def_cfa_register 7
  50:Generated_Source\PSoC6/LCD_INTERFACE.c ****     /* Set low and high pulse widths for a read transaction */
  51:Generated_Source\PSoC6/LCD_INTERFACE.c ****     LCD_INTERFACE_READ_LO_PULSE_REG = LCD_INTERFACE_READ_LOW_PULSE;
  75              		.loc 1 51 0
  76 0004 054B     		ldr	r3, .L3
  77 0006 1022     		movs	r2, #16
  78 0008 1A70     		strb	r2, [r3]
  52:Generated_Source\PSoC6/LCD_INTERFACE.c ****     LCD_INTERFACE_READ_HI_PULSE_REG = LCD_INTERFACE_READ_HIGH_PULSE;
  79              		.loc 1 52 0
  80 000a 054B     		ldr	r3, .L3+4
  81 000c 0422     		movs	r2, #4
  82 000e 1A70     		strb	r2, [r3]
  53:Generated_Source\PSoC6/LCD_INTERFACE.c **** }
  83              		.loc 1 53 0
  84 0010 00BF     		nop
  85 0012 BD46     		mov	sp, r7
  86              		.cfi_def_cfa_register 13
  87              		@ sp needed
  88 0014 5DF8047B 		ldr	r7, [sp], #4
  89              		.cfi_restore 7
  90              		.cfi_def_cfa_offset 0
  91 0018 7047     		bx	lr
  92              	.L4:
  93 001a 00BF     		.align	2
  94              	.L3:
  95 001c 20123440 		.word	1077154336
  96 0020 20133440 		.word	1077154592
  97              		.cfi_endproc
  98              	.LFE133:
  99              		.size	LCD_INTERFACE_Init, .-LCD_INTERFACE_Init
 100              		.section	.text.LCD_INTERFACE_Start,"ax",%progbits
 101              		.align	2
 102              		.global	LCD_INTERFACE_Start
 103              		.thumb
 104              		.thumb_func
 105              		.type	LCD_INTERFACE_Start, %function
 106              	LCD_INTERFACE_Start:
 107              	.LFB134:
  54:Generated_Source\PSoC6/LCD_INTERFACE.c **** 
  55:Generated_Source\PSoC6/LCD_INTERFACE.c **** 
  56:Generated_Source\PSoC6/LCD_INTERFACE.c **** /*******************************************************************************
  57:Generated_Source\PSoC6/LCD_INTERFACE.c **** * Function Name: LCD_INTERFACE_Start
  58:Generated_Source\PSoC6/LCD_INTERFACE.c **** ********************************************************************************
  59:Generated_Source\PSoC6/LCD_INTERFACE.c **** *
  60:Generated_Source\PSoC6/LCD_INTERFACE.c **** * Summary:
  61:Generated_Source\PSoC6/LCD_INTERFACE.c **** *  Starts the GraphicLCDIntf interface.
  62:Generated_Source\PSoC6/LCD_INTERFACE.c **** *
  63:Generated_Source\PSoC6/LCD_INTERFACE.c **** * Global Variables:
  64:Generated_Source\PSoC6/LCD_INTERFACE.c **** *  LCD_INTERFACE_initVar - Used to check the initial configuration, modified on 
ARM GAS  C:\Users\tmj32\AppData\Local\Temp\cc4GEfLW.s 			page 4


  65:Generated_Source\PSoC6/LCD_INTERFACE.c **** *  the first function call.
  66:Generated_Source\PSoC6/LCD_INTERFACE.c **** *
  67:Generated_Source\PSoC6/LCD_INTERFACE.c **** *******************************************************************************/
  68:Generated_Source\PSoC6/LCD_INTERFACE.c **** void LCD_INTERFACE_Start(void) 
  69:Generated_Source\PSoC6/LCD_INTERFACE.c **** {
 108              		.loc 1 69 0
 109              		.cfi_startproc
 110              		@ args = 0, pretend = 0, frame = 0
 111              		@ frame_needed = 1, uses_anonymous_args = 0
 112 0000 80B5     		push	{r7, lr}
 113              		.cfi_def_cfa_offset 8
 114              		.cfi_offset 7, -8
 115              		.cfi_offset 14, -4
 116 0002 00AF     		add	r7, sp, #0
 117              		.cfi_def_cfa_register 7
  70:Generated_Source\PSoC6/LCD_INTERFACE.c ****     if (LCD_INTERFACE_initVar == 0u)
 118              		.loc 1 70 0
 119 0004 064B     		ldr	r3, .L7
 120 0006 1B78     		ldrb	r3, [r3]	@ zero_extendqisi2
 121 0008 002B     		cmp	r3, #0
 122 000a 04D1     		bne	.L6
  71:Generated_Source\PSoC6/LCD_INTERFACE.c ****     {
  72:Generated_Source\PSoC6/LCD_INTERFACE.c ****         LCD_INTERFACE_Init();
 123              		.loc 1 72 0
 124 000c FFF7FEFF 		bl	LCD_INTERFACE_Init
  73:Generated_Source\PSoC6/LCD_INTERFACE.c ****         LCD_INTERFACE_initVar = 1u;
 125              		.loc 1 73 0
 126 0010 034B     		ldr	r3, .L7
 127 0012 0122     		movs	r2, #1
 128 0014 1A70     		strb	r2, [r3]
 129              	.L6:
  74:Generated_Source\PSoC6/LCD_INTERFACE.c ****     }
  75:Generated_Source\PSoC6/LCD_INTERFACE.c ****       
  76:Generated_Source\PSoC6/LCD_INTERFACE.c ****     LCD_INTERFACE_Enable();
 130              		.loc 1 76 0
 131 0016 FFF7FEFF 		bl	LCD_INTERFACE_Enable
  77:Generated_Source\PSoC6/LCD_INTERFACE.c **** }
 132              		.loc 1 77 0
 133 001a 00BF     		nop
 134 001c 80BD     		pop	{r7, pc}
 135              	.L8:
 136 001e 00BF     		.align	2
 137              	.L7:
 138 0020 00000000 		.word	LCD_INTERFACE_initVar
 139              		.cfi_endproc
 140              	.LFE134:
 141              		.size	LCD_INTERFACE_Start, .-LCD_INTERFACE_Start
 142              		.section	.text.LCD_INTERFACE_Stop,"ax",%progbits
 143              		.align	2
 144              		.global	LCD_INTERFACE_Stop
 145              		.thumb
 146              		.thumb_func
 147              		.type	LCD_INTERFACE_Stop, %function
 148              	LCD_INTERFACE_Stop:
 149              	.LFB135:
  78:Generated_Source\PSoC6/LCD_INTERFACE.c **** 
  79:Generated_Source\PSoC6/LCD_INTERFACE.c **** 
ARM GAS  C:\Users\tmj32\AppData\Local\Temp\cc4GEfLW.s 			page 5


  80:Generated_Source\PSoC6/LCD_INTERFACE.c **** /*******************************************************************************
  81:Generated_Source\PSoC6/LCD_INTERFACE.c **** * Function Name: LCD_INTERFACE_Stop
  82:Generated_Source\PSoC6/LCD_INTERFACE.c **** ********************************************************************************
  83:Generated_Source\PSoC6/LCD_INTERFACE.c **** *
  84:Generated_Source\PSoC6/LCD_INTERFACE.c **** * Summary:
  85:Generated_Source\PSoC6/LCD_INTERFACE.c **** *  Disables the GraphicLCDIntf interface.
  86:Generated_Source\PSoC6/LCD_INTERFACE.c **** *
  87:Generated_Source\PSoC6/LCD_INTERFACE.c **** *******************************************************************************/
  88:Generated_Source\PSoC6/LCD_INTERFACE.c **** void LCD_INTERFACE_Stop(void) 
  89:Generated_Source\PSoC6/LCD_INTERFACE.c **** {
 150              		.loc 1 89 0
 151              		.cfi_startproc
 152              		@ args = 0, pretend = 0, frame = 0
 153              		@ frame_needed = 1, uses_anonymous_args = 0
 154              		@ link register save eliminated.
 155 0000 80B4     		push	{r7}
 156              		.cfi_def_cfa_offset 4
 157              		.cfi_offset 7, -4
 158 0002 00AF     		add	r7, sp, #0
 159              		.cfi_def_cfa_register 7
  90:Generated_Source\PSoC6/LCD_INTERFACE.c ****     /* Nothing to stop */
  91:Generated_Source\PSoC6/LCD_INTERFACE.c **** }
 160              		.loc 1 91 0
 161 0004 00BF     		nop
 162 0006 BD46     		mov	sp, r7
 163              		.cfi_def_cfa_register 13
 164              		@ sp needed
 165 0008 5DF8047B 		ldr	r7, [sp], #4
 166              		.cfi_restore 7
 167              		.cfi_def_cfa_offset 0
 168 000c 7047     		bx	lr
 169              		.cfi_endproc
 170              	.LFE135:
 171              		.size	LCD_INTERFACE_Stop, .-LCD_INTERFACE_Stop
 172 000e 00BF     		.section	.text.LCD_INTERFACE_Write8,"ax",%progbits
 173              		.align	2
 174              		.global	LCD_INTERFACE_Write8
 175              		.thumb
 176              		.thumb_func
 177              		.type	LCD_INTERFACE_Write8, %function
 178              	LCD_INTERFACE_Write8:
 179              	.LFB136:
  92:Generated_Source\PSoC6/LCD_INTERFACE.c **** 
  93:Generated_Source\PSoC6/LCD_INTERFACE.c **** 
  94:Generated_Source\PSoC6/LCD_INTERFACE.c **** /*******************************************************************************
  95:Generated_Source\PSoC6/LCD_INTERFACE.c **** * Function Name: LCD_INTERFACE_Write8
  96:Generated_Source\PSoC6/LCD_INTERFACE.c **** ********************************************************************************
  97:Generated_Source\PSoC6/LCD_INTERFACE.c **** *
  98:Generated_Source\PSoC6/LCD_INTERFACE.c **** * Summary:
  99:Generated_Source\PSoC6/LCD_INTERFACE.c **** *  Initiates a write transaction on the 8-bit parallel
 100:Generated_Source\PSoC6/LCD_INTERFACE.c **** *  interface.
 101:Generated_Source\PSoC6/LCD_INTERFACE.c **** *  The write is a posted write, so this function will return before the write 
 102:Generated_Source\PSoC6/LCD_INTERFACE.c **** *  has actually completed on the interface. If the command queue is full, this 
 103:Generated_Source\PSoC6/LCD_INTERFACE.c **** *  function will not return until space is available to queue this write request.
 104:Generated_Source\PSoC6/LCD_INTERFACE.c **** *
 105:Generated_Source\PSoC6/LCD_INTERFACE.c **** * Parameters:
 106:Generated_Source\PSoC6/LCD_INTERFACE.c **** *  d_c:  Data(1) or Command(0) indication. Passed to the d_c pin.
ARM GAS  C:\Users\tmj32\AppData\Local\Temp\cc4GEfLW.s 			page 6


 107:Generated_Source\PSoC6/LCD_INTERFACE.c **** *
 108:Generated_Source\PSoC6/LCD_INTERFACE.c **** *  wrData: Data sent to the do_msb[7:0] (most significant byte) 
 109:Generated_Source\PSoC6/LCD_INTERFACE.c **** *          and do_lsb[7:0] (least significant byte) pins. do_msb[7:0]
 110:Generated_Source\PSoC6/LCD_INTERFACE.c **** *          presents only for the 16-bit interface.
 111:Generated_Source\PSoC6/LCD_INTERFACE.c **** *
 112:Generated_Source\PSoC6/LCD_INTERFACE.c **** *******************************************************************************/
 113:Generated_Source\PSoC6/LCD_INTERFACE.c **** void LCD_INTERFACE_Write8(uint8 d_c, uint8 wrData) 
 114:Generated_Source\PSoC6/LCD_INTERFACE.c **** {
 180              		.loc 1 114 0
 181              		.cfi_startproc
 182              		@ args = 0, pretend = 0, frame = 8
 183              		@ frame_needed = 1, uses_anonymous_args = 0
 184              		@ link register save eliminated.
 185 0000 80B4     		push	{r7}
 186              		.cfi_def_cfa_offset 4
 187              		.cfi_offset 7, -4
 188 0002 83B0     		sub	sp, sp, #12
 189              		.cfi_def_cfa_offset 16
 190 0004 00AF     		add	r7, sp, #0
 191              		.cfi_def_cfa_register 7
 192 0006 0346     		mov	r3, r0
 193 0008 0A46     		mov	r2, r1
 194 000a FB71     		strb	r3, [r7, #7]
 195 000c 1346     		mov	r3, r2
 196 000e BB71     		strb	r3, [r7, #6]
 115:Generated_Source\PSoC6/LCD_INTERFACE.c ****     while((LCD_INTERFACE_STATUS_REG & LCD_INTERFACE_CMD_QUEUE_FULL) != 0u)
 197              		.loc 1 115 0
 198 0010 00BF     		nop
 199              	.L11:
 200              		.loc 1 115 0 is_stmt 0 discriminator 1
 201 0012 094B     		ldr	r3, .L12
 202 0014 1B78     		ldrb	r3, [r3]
 203 0016 DBB2     		uxtb	r3, r3
 204 0018 03F00103 		and	r3, r3, #1
 205 001c 002B     		cmp	r3, #0
 206 001e F8D1     		bne	.L11
 116:Generated_Source\PSoC6/LCD_INTERFACE.c ****     {
 117:Generated_Source\PSoC6/LCD_INTERFACE.c ****         /* The command queue is full */
 118:Generated_Source\PSoC6/LCD_INTERFACE.c ****     }   
 119:Generated_Source\PSoC6/LCD_INTERFACE.c ****     LCD_INTERFACE_CMD_FIFO_REG = d_c;
 207              		.loc 1 119 0 is_stmt 1
 208 0020 064A     		ldr	r2, .L12+4
 209 0022 FB79     		ldrb	r3, [r7, #7]
 210 0024 1370     		strb	r3, [r2]
 120:Generated_Source\PSoC6/LCD_INTERFACE.c ****     #if (LCD_INTERFACE_BUS_WIDTH == 16u)
 121:Generated_Source\PSoC6/LCD_INTERFACE.c ****         CY_SET_REG16(LCD_INTERFACE_DATA_FIFO_PTR, wrData);
 122:Generated_Source\PSoC6/LCD_INTERFACE.c ****     #else /* 8-bit interface */
 123:Generated_Source\PSoC6/LCD_INTERFACE.c ****         LCD_INTERFACE_DATA_FIFO_REG = wrData;
 211              		.loc 1 123 0
 212 0026 064A     		ldr	r2, .L12+8
 213 0028 BB79     		ldrb	r3, [r7, #6]
 214 002a 1370     		strb	r3, [r2]
 124:Generated_Source\PSoC6/LCD_INTERFACE.c ****     #endif /* LCD_INTERFACE_BUS_WIDTH == 16u */
 125:Generated_Source\PSoC6/LCD_INTERFACE.c **** }
 215              		.loc 1 125 0
 216 002c 00BF     		nop
 217 002e 0C37     		adds	r7, r7, #12
ARM GAS  C:\Users\tmj32\AppData\Local\Temp\cc4GEfLW.s 			page 7


 218              		.cfi_def_cfa_offset 4
 219 0030 BD46     		mov	sp, r7
 220              		.cfi_def_cfa_register 13
 221              		@ sp needed
 222 0032 5DF8047B 		ldr	r7, [sp], #4
 223              		.cfi_restore 7
 224              		.cfi_def_cfa_offset 0
 225 0036 7047     		bx	lr
 226              	.L13:
 227              		.align	2
 228              	.L12:
 229 0038 24163440 		.word	1077155364
 230 003c 20143440 		.word	1077154848
 231 0040 20153440 		.word	1077155104
 232              		.cfi_endproc
 233              	.LFE136:
 234              		.size	LCD_INTERFACE_Write8, .-LCD_INTERFACE_Write8
 235              		.section	.text.LCD_INTERFACE_WriteM8,"ax",%progbits
 236              		.align	2
 237              		.global	LCD_INTERFACE_WriteM8
 238              		.thumb
 239              		.thumb_func
 240              		.type	LCD_INTERFACE_WriteM8, %function
 241              	LCD_INTERFACE_WriteM8:
 242              	.LFB137:
 126:Generated_Source\PSoC6/LCD_INTERFACE.c **** 	
 127:Generated_Source\PSoC6/LCD_INTERFACE.c **** 
 128:Generated_Source\PSoC6/LCD_INTERFACE.c **** /*******************************************************************************
 129:Generated_Source\PSoC6/LCD_INTERFACE.c **** * Function Name: LCD_INTERFACE_WriteM8
 130:Generated_Source\PSoC6/LCD_INTERFACE.c **** ********************************************************************************
 131:Generated_Source\PSoC6/LCD_INTERFACE.c **** *
 132:Generated_Source\PSoC6/LCD_INTERFACE.c **** * Summary:
 133:Generated_Source\PSoC6/LCD_INTERFACE.c **** *  Initiates multiple write transactions on the 8-bit 
 134:Generated_Source\PSoC6/LCD_INTERFACE.c **** *  parallel interface. The write is a posted write, so this function will return
 135:Generated_Source\PSoC6/LCD_INTERFACE.c **** *  before the write has actually completed on the interface. If the command 
 136:Generated_Source\PSoC6/LCD_INTERFACE.c **** *  queue is full, this function will not return until space is available to queue
 137:Generated_Source\PSoC6/LCD_INTERFACE.c **** *  this write request.
 138:Generated_Source\PSoC6/LCD_INTERFACE.c **** *
 139:Generated_Source\PSoC6/LCD_INTERFACE.c **** * Parameters:
 140:Generated_Source\PSoC6/LCD_INTERFACE.c **** *  d_c:    The Data(1) or Command(0) indication. Passed to the d_c pin.
 141:Generated_Source\PSoC6/LCD_INTERFACE.c **** *
 142:Generated_Source\PSoC6/LCD_INTERFACE.c **** *  wrData: The pointer to the the first element of a data buffer sent to the do_msb[7:0]
 143:Generated_Source\PSoC6/LCD_INTERFACE.c **** *          (most significant byte) and do_lsb[7:0] (least significant byte) pins. 
 144:Generated_Source\PSoC6/LCD_INTERFACE.c **** *          do_msb[7:0] presents only for the 16-bit interface.
 145:Generated_Source\PSoC6/LCD_INTERFACE.c **** *
 146:Generated_Source\PSoC6/LCD_INTERFACE.c **** *  num:    The number of words/bytes to write.
 147:Generated_Source\PSoC6/LCD_INTERFACE.c **** *
 148:Generated_Source\PSoC6/LCD_INTERFACE.c **** *******************************************************************************/
 149:Generated_Source\PSoC6/LCD_INTERFACE.c **** void LCD_INTERFACE_WriteM8(uint8 d_c, uint8 wrData[], uint16 num) 
 150:Generated_Source\PSoC6/LCD_INTERFACE.c **** {
 243              		.loc 1 150 0
 244              		.cfi_startproc
 245              		@ args = 0, pretend = 0, frame = 16
 246              		@ frame_needed = 1, uses_anonymous_args = 0
 247              		@ link register save eliminated.
 248 0000 80B4     		push	{r7}
 249              		.cfi_def_cfa_offset 4
ARM GAS  C:\Users\tmj32\AppData\Local\Temp\cc4GEfLW.s 			page 8


 250              		.cfi_offset 7, -4
 251 0002 85B0     		sub	sp, sp, #20
 252              		.cfi_def_cfa_offset 24
 253 0004 00AF     		add	r7, sp, #0
 254              		.cfi_def_cfa_register 7
 255 0006 0346     		mov	r3, r0
 256 0008 3960     		str	r1, [r7]
 257 000a FB71     		strb	r3, [r7, #7]
 258 000c 1346     		mov	r3, r2	@ movhi
 259 000e BB80     		strh	r3, [r7, #4]	@ movhi
 151:Generated_Source\PSoC6/LCD_INTERFACE.c ****     uint32 i;
 152:Generated_Source\PSoC6/LCD_INTERFACE.c ****     
 153:Generated_Source\PSoC6/LCD_INTERFACE.c ****     for(i = 0u; i < num; i++)
 260              		.loc 1 153 0
 261 0010 0023     		movs	r3, #0
 262 0012 FB60     		str	r3, [r7, #12]
 263 0014 13E0     		b	.L15
 264              	.L17:
 154:Generated_Source\PSoC6/LCD_INTERFACE.c ****     {
 155:Generated_Source\PSoC6/LCD_INTERFACE.c ****         while((LCD_INTERFACE_STATUS_REG & LCD_INTERFACE_CMD_QUEUE_FULL) != 0u)
 265              		.loc 1 155 0
 266 0016 00BF     		nop
 267              	.L16:
 268              		.loc 1 155 0 is_stmt 0 discriminator 1
 269 0018 0E4B     		ldr	r3, .L18
 270 001a 1B78     		ldrb	r3, [r3]
 271 001c DBB2     		uxtb	r3, r3
 272 001e 03F00103 		and	r3, r3, #1
 273 0022 002B     		cmp	r3, #0
 274 0024 F8D1     		bne	.L16
 156:Generated_Source\PSoC6/LCD_INTERFACE.c ****         {
 157:Generated_Source\PSoC6/LCD_INTERFACE.c ****             /* The command queue is full */
 158:Generated_Source\PSoC6/LCD_INTERFACE.c ****         }   
 159:Generated_Source\PSoC6/LCD_INTERFACE.c ****         LCD_INTERFACE_CMD_FIFO_REG = d_c;  
 275              		.loc 1 159 0 is_stmt 1 discriminator 2
 276 0026 0C4A     		ldr	r2, .L18+4
 277 0028 FB79     		ldrb	r3, [r7, #7]
 278 002a 1370     		strb	r3, [r2]
 160:Generated_Source\PSoC6/LCD_INTERFACE.c ****  
 161:Generated_Source\PSoC6/LCD_INTERFACE.c ****         #if (LCD_INTERFACE_BUS_WIDTH == 16u)
 162:Generated_Source\PSoC6/LCD_INTERFACE.c ****             CY_SET_REG16(LCD_INTERFACE_DATA_FIFO_PTR, wrData[i]);
 163:Generated_Source\PSoC6/LCD_INTERFACE.c ****         #else /* 8-bit interface */
 164:Generated_Source\PSoC6/LCD_INTERFACE.c ****             LCD_INTERFACE_DATA_FIFO_REG = wrData[i];
 279              		.loc 1 164 0 discriminator 2
 280 002c 0B49     		ldr	r1, .L18+8
 281 002e 3A68     		ldr	r2, [r7]
 282 0030 FB68     		ldr	r3, [r7, #12]
 283 0032 1344     		add	r3, r3, r2
 284 0034 1B78     		ldrb	r3, [r3]	@ zero_extendqisi2
 285 0036 0B70     		strb	r3, [r1]
 153:Generated_Source\PSoC6/LCD_INTERFACE.c ****     {
 286              		.loc 1 153 0 discriminator 2
 287 0038 FB68     		ldr	r3, [r7, #12]
 288 003a 0133     		adds	r3, r3, #1
 289 003c FB60     		str	r3, [r7, #12]
 290              	.L15:
 153:Generated_Source\PSoC6/LCD_INTERFACE.c ****     {
ARM GAS  C:\Users\tmj32\AppData\Local\Temp\cc4GEfLW.s 			page 9


 291              		.loc 1 153 0 is_stmt 0 discriminator 1
 292 003e BA88     		ldrh	r2, [r7, #4]
 293 0040 FB68     		ldr	r3, [r7, #12]
 294 0042 9A42     		cmp	r2, r3
 295 0044 E7D8     		bhi	.L17
 165:Generated_Source\PSoC6/LCD_INTERFACE.c ****         #endif /* LCD_INTERFACE_BUS_WIDTH == 16u */
 166:Generated_Source\PSoC6/LCD_INTERFACE.c ****     }
 167:Generated_Source\PSoC6/LCD_INTERFACE.c **** }
 296              		.loc 1 167 0 is_stmt 1
 297 0046 00BF     		nop
 298 0048 1437     		adds	r7, r7, #20
 299              		.cfi_def_cfa_offset 4
 300 004a BD46     		mov	sp, r7
 301              		.cfi_def_cfa_register 13
 302              		@ sp needed
 303 004c 5DF8047B 		ldr	r7, [sp], #4
 304              		.cfi_restore 7
 305              		.cfi_def_cfa_offset 0
 306 0050 7047     		bx	lr
 307              	.L19:
 308 0052 00BF     		.align	2
 309              	.L18:
 310 0054 24163440 		.word	1077155364
 311 0058 20143440 		.word	1077154848
 312 005c 20153440 		.word	1077155104
 313              		.cfi_endproc
 314              	.LFE137:
 315              		.size	LCD_INTERFACE_WriteM8, .-LCD_INTERFACE_WriteM8
 316              		.section	.text.LCD_INTERFACE_Read8,"ax",%progbits
 317              		.align	2
 318              		.global	LCD_INTERFACE_Read8
 319              		.thumb
 320              		.thumb_func
 321              		.type	LCD_INTERFACE_Read8, %function
 322              	LCD_INTERFACE_Read8:
 323              	.LFB138:
 168:Generated_Source\PSoC6/LCD_INTERFACE.c **** 
 169:Generated_Source\PSoC6/LCD_INTERFACE.c **** 
 170:Generated_Source\PSoC6/LCD_INTERFACE.c **** /*******************************************************************************
 171:Generated_Source\PSoC6/LCD_INTERFACE.c **** * Function Name: LCD_INTERFACE_Read8
 172:Generated_Source\PSoC6/LCD_INTERFACE.c **** ********************************************************************************
 173:Generated_Source\PSoC6/LCD_INTERFACE.c **** *
 174:Generated_Source\PSoC6/LCD_INTERFACE.c **** * Summary:
 175:Generated_Source\PSoC6/LCD_INTERFACE.c **** *  Initiates a read transaction on the 8-bit parallel interface.
 176:Generated_Source\PSoC6/LCD_INTERFACE.c **** *  The read will execute after all currently posted writes have completed. This 
 177:Generated_Source\PSoC6/LCD_INTERFACE.c **** *  function will wait until the read completes and then returns the read value.
 178:Generated_Source\PSoC6/LCD_INTERFACE.c **** *
 179:Generated_Source\PSoC6/LCD_INTERFACE.c **** * Parameters:
 180:Generated_Source\PSoC6/LCD_INTERFACE.c **** *  d_c: Data(1) or Command(0) indication. Passed to the d_c pin.
 181:Generated_Source\PSoC6/LCD_INTERFACE.c **** *
 182:Generated_Source\PSoC6/LCD_INTERFACE.c **** * Return:
 183:Generated_Source\PSoC6/LCD_INTERFACE.c **** *  The 16-bit read value from the di_msb[7:0] (most significant byte) and 
 184:Generated_Source\PSoC6/LCD_INTERFACE.c **** *  di_lsb[7:0] (least significant byte) pins for the 16-bit interface or the 
 185:Generated_Source\PSoC6/LCD_INTERFACE.c **** *  8-bit read value from the di_lsb[7:0] for 8-bit interface.
 186:Generated_Source\PSoC6/LCD_INTERFACE.c **** *
 187:Generated_Source\PSoC6/LCD_INTERFACE.c **** *******************************************************************************/
 188:Generated_Source\PSoC6/LCD_INTERFACE.c **** uint8 LCD_INTERFACE_Read8(uint8 d_c) 
ARM GAS  C:\Users\tmj32\AppData\Local\Temp\cc4GEfLW.s 			page 10


 189:Generated_Source\PSoC6/LCD_INTERFACE.c **** {
 324              		.loc 1 189 0
 325              		.cfi_startproc
 326              		@ args = 0, pretend = 0, frame = 8
 327              		@ frame_needed = 1, uses_anonymous_args = 0
 328              		@ link register save eliminated.
 329 0000 80B4     		push	{r7}
 330              		.cfi_def_cfa_offset 4
 331              		.cfi_offset 7, -4
 332 0002 83B0     		sub	sp, sp, #12
 333              		.cfi_def_cfa_offset 16
 334 0004 00AF     		add	r7, sp, #0
 335              		.cfi_def_cfa_register 7
 336 0006 0346     		mov	r3, r0
 337 0008 FB71     		strb	r3, [r7, #7]
 190:Generated_Source\PSoC6/LCD_INTERFACE.c ****     while((LCD_INTERFACE_STATUS_REG & LCD_INTERFACE_CMD_QUEUE_FULL) != 0u)
 338              		.loc 1 190 0
 339 000a 00BF     		nop
 340              	.L21:
 341              		.loc 1 190 0 is_stmt 0 discriminator 1
 342 000c 0E4B     		ldr	r3, .L24
 343 000e 1B78     		ldrb	r3, [r3]
 344 0010 DBB2     		uxtb	r3, r3
 345 0012 03F00103 		and	r3, r3, #1
 346 0016 002B     		cmp	r3, #0
 347 0018 F8D1     		bne	.L21
 191:Generated_Source\PSoC6/LCD_INTERFACE.c ****     {
 192:Generated_Source\PSoC6/LCD_INTERFACE.c ****         /* The command queue is full */
 193:Generated_Source\PSoC6/LCD_INTERFACE.c ****     }   
 194:Generated_Source\PSoC6/LCD_INTERFACE.c ****     LCD_INTERFACE_CMD_FIFO_REG = d_c | LCD_INTERFACE_READ_COMMAND;
 348              		.loc 1 194 0 is_stmt 1
 349 001a 0C4A     		ldr	r2, .L24+4
 350 001c FB79     		ldrb	r3, [r7, #7]
 351 001e 43F00203 		orr	r3, r3, #2
 352 0022 DBB2     		uxtb	r3, r3
 353 0024 1370     		strb	r3, [r2]
 195:Generated_Source\PSoC6/LCD_INTERFACE.c ****     
 196:Generated_Source\PSoC6/LCD_INTERFACE.c ****     while((LCD_INTERFACE_STATUS_REG & LCD_INTERFACE_DATA_VALID) != LCD_INTERFACE_DATA_VALID)
 354              		.loc 1 196 0
 355 0026 00BF     		nop
 356              	.L22:
 357              		.loc 1 196 0 is_stmt 0 discriminator 1
 358 0028 074B     		ldr	r3, .L24
 359 002a 1B78     		ldrb	r3, [r3]
 360 002c DBB2     		uxtb	r3, r3
 361 002e 03F00203 		and	r3, r3, #2
 362 0032 002B     		cmp	r3, #0
 363 0034 F8D0     		beq	.L22
 197:Generated_Source\PSoC6/LCD_INTERFACE.c ****     {
 198:Generated_Source\PSoC6/LCD_INTERFACE.c ****         /* Wait until input data is valid */
 199:Generated_Source\PSoC6/LCD_INTERFACE.c ****     }
 200:Generated_Source\PSoC6/LCD_INTERFACE.c ****     
 201:Generated_Source\PSoC6/LCD_INTERFACE.c ****     #if (LCD_INTERFACE_BUS_WIDTH == 8u)  /* 8-bit interface */
 202:Generated_Source\PSoC6/LCD_INTERFACE.c ****         return (LCD_INTERFACE_DIN_LSB_DATA_REG);
 364              		.loc 1 202 0 is_stmt 1
 365 0036 064B     		ldr	r3, .L24+8
 366 0038 1B78     		ldrb	r3, [r3]
ARM GAS  C:\Users\tmj32\AppData\Local\Temp\cc4GEfLW.s 			page 11


 367 003a DBB2     		uxtb	r3, r3
 203:Generated_Source\PSoC6/LCD_INTERFACE.c ****     #else   /* 16-bit interface */
 204:Generated_Source\PSoC6/LCD_INTERFACE.c ****         return (uint16)((uint16)LCD_INTERFACE_DIN_MSB_DATA_REG << 8u) | LCD_INTERFACE_DIN_LSB_DATA_
 205:Generated_Source\PSoC6/LCD_INTERFACE.c ****     #endif /* LCD_INTERFACE_BUS_WIDTH == 8u */
 206:Generated_Source\PSoC6/LCD_INTERFACE.c **** }
 368              		.loc 1 206 0
 369 003c 1846     		mov	r0, r3
 370 003e 0C37     		adds	r7, r7, #12
 371              		.cfi_def_cfa_offset 4
 372 0040 BD46     		mov	sp, r7
 373              		.cfi_def_cfa_register 13
 374              		@ sp needed
 375 0042 5DF8047B 		ldr	r7, [sp], #4
 376              		.cfi_restore 7
 377              		.cfi_def_cfa_offset 0
 378 0046 7047     		bx	lr
 379              	.L25:
 380              		.align	2
 381              	.L24:
 382 0048 24163440 		.word	1077155364
 383 004c 20143440 		.word	1077154848
 384 0050 20163440 		.word	1077155360
 385              		.cfi_endproc
 386              	.LFE138:
 387              		.size	LCD_INTERFACE_Read8, .-LCD_INTERFACE_Read8
 388              		.section	.text.LCD_INTERFACE_ReadM8,"ax",%progbits
 389              		.align	2
 390              		.global	LCD_INTERFACE_ReadM8
 391              		.thumb
 392              		.thumb_func
 393              		.type	LCD_INTERFACE_ReadM8, %function
 394              	LCD_INTERFACE_ReadM8:
 395              	.LFB139:
 207:Generated_Source\PSoC6/LCD_INTERFACE.c **** 
 208:Generated_Source\PSoC6/LCD_INTERFACE.c **** 
 209:Generated_Source\PSoC6/LCD_INTERFACE.c **** /*******************************************************************************
 210:Generated_Source\PSoC6/LCD_INTERFACE.c **** * Function Name: LCD_INTERFACE_ReadM8
 211:Generated_Source\PSoC6/LCD_INTERFACE.c **** ********************************************************************************
 212:Generated_Source\PSoC6/LCD_INTERFACE.c **** *
 213:Generated_Source\PSoC6/LCD_INTERFACE.c **** * Summary:
 214:Generated_Source\PSoC6/LCD_INTERFACE.c **** *  Initiates multiple read transactions on the 8-bit 
 215:Generated_Source\PSoC6/LCD_INTERFACE.c **** *  parallel interface. The read will execute after all currently posted writes 
 216:Generated_Source\PSoC6/LCD_INTERFACE.c **** *  have completed. This function will wait until the read completes and then 
 217:Generated_Source\PSoC6/LCD_INTERFACE.c **** *  returns the read value.
 218:Generated_Source\PSoC6/LCD_INTERFACE.c **** *
 219:Generated_Source\PSoC6/LCD_INTERFACE.c **** * Parameters:
 220:Generated_Source\PSoC6/LCD_INTERFACE.c **** *  d_c:    The Data(1) or Command(0) indication. Passed to the d_c pin.
 221:Generated_Source\PSoC6/LCD_INTERFACE.c **** *
 222:Generated_Source\PSoC6/LCD_INTERFACE.c **** *  rdData: The pointer to the the first element of a data buffer read from the do_msb[7:0]
 223:Generated_Source\PSoC6/LCD_INTERFACE.c **** *          (most significant byte) and do_lsb[7:0] (least significant byte) pins. 
 224:Generated_Source\PSoC6/LCD_INTERFACE.c **** *          do_msb[7:0] presents only for the 16-bit interface.
 225:Generated_Source\PSoC6/LCD_INTERFACE.c **** *
 226:Generated_Source\PSoC6/LCD_INTERFACE.c **** *  num:    The number of words/bytes to read.
 227:Generated_Source\PSoC6/LCD_INTERFACE.c **** *
 228:Generated_Source\PSoC6/LCD_INTERFACE.c **** *******************************************************************************/
 229:Generated_Source\PSoC6/LCD_INTERFACE.c **** void LCD_INTERFACE_ReadM8(uint8 d_c, uint8 rdData[], uint16 num) 
 230:Generated_Source\PSoC6/LCD_INTERFACE.c **** {
ARM GAS  C:\Users\tmj32\AppData\Local\Temp\cc4GEfLW.s 			page 12


 396              		.loc 1 230 0
 397              		.cfi_startproc
 398              		@ args = 0, pretend = 0, frame = 16
 399              		@ frame_needed = 1, uses_anonymous_args = 0
 400 0000 90B5     		push	{r4, r7, lr}
 401              		.cfi_def_cfa_offset 12
 402              		.cfi_offset 4, -12
 403              		.cfi_offset 7, -8
 404              		.cfi_offset 14, -4
 405 0002 85B0     		sub	sp, sp, #20
 406              		.cfi_def_cfa_offset 32
 407 0004 00AF     		add	r7, sp, #0
 408              		.cfi_def_cfa_register 7
 409 0006 0346     		mov	r3, r0
 410 0008 3960     		str	r1, [r7]
 411 000a FB71     		strb	r3, [r7, #7]
 412 000c 1346     		mov	r3, r2	@ movhi
 413 000e BB80     		strh	r3, [r7, #4]	@ movhi
 231:Generated_Source\PSoC6/LCD_INTERFACE.c ****     uint32 i;
 232:Generated_Source\PSoC6/LCD_INTERFACE.c ****     
 233:Generated_Source\PSoC6/LCD_INTERFACE.c ****     for(i = 0u; i < num; i++)
 414              		.loc 1 233 0
 415 0010 0023     		movs	r3, #0
 416 0012 FB60     		str	r3, [r7, #12]
 417 0014 0BE0     		b	.L27
 418              	.L28:
 234:Generated_Source\PSoC6/LCD_INTERFACE.c ****     {
 235:Generated_Source\PSoC6/LCD_INTERFACE.c ****         rdData[i] = LCD_INTERFACE_Read8(d_c);
 419              		.loc 1 235 0 discriminator 3
 420 0016 3A68     		ldr	r2, [r7]
 421 0018 FB68     		ldr	r3, [r7, #12]
 422 001a D418     		adds	r4, r2, r3
 423 001c FB79     		ldrb	r3, [r7, #7]	@ zero_extendqisi2
 424 001e 1846     		mov	r0, r3
 425 0020 FFF7FEFF 		bl	LCD_INTERFACE_Read8
 426 0024 0346     		mov	r3, r0
 427 0026 2370     		strb	r3, [r4]
 233:Generated_Source\PSoC6/LCD_INTERFACE.c ****     {
 428              		.loc 1 233 0 discriminator 3
 429 0028 FB68     		ldr	r3, [r7, #12]
 430 002a 0133     		adds	r3, r3, #1
 431 002c FB60     		str	r3, [r7, #12]
 432              	.L27:
 233:Generated_Source\PSoC6/LCD_INTERFACE.c ****     {
 433              		.loc 1 233 0 is_stmt 0 discriminator 1
 434 002e BA88     		ldrh	r2, [r7, #4]
 435 0030 FB68     		ldr	r3, [r7, #12]
 436 0032 9A42     		cmp	r2, r3
 437 0034 EFD8     		bhi	.L28
 236:Generated_Source\PSoC6/LCD_INTERFACE.c ****     }
 237:Generated_Source\PSoC6/LCD_INTERFACE.c **** }
 438              		.loc 1 237 0 is_stmt 1
 439 0036 00BF     		nop
 440 0038 1437     		adds	r7, r7, #20
 441              		.cfi_def_cfa_offset 12
 442 003a BD46     		mov	sp, r7
 443              		.cfi_def_cfa_register 13
ARM GAS  C:\Users\tmj32\AppData\Local\Temp\cc4GEfLW.s 			page 13


 444              		@ sp needed
 445 003c 90BD     		pop	{r4, r7, pc}
 446              		.cfi_endproc
 447              	.LFE139:
 448              		.size	LCD_INTERFACE_ReadM8, .-LCD_INTERFACE_ReadM8
 449 003e 00BF     		.section	.text.LCD_INTERFACE_Write8_A0,"ax",%progbits
 450              		.align	2
 451              		.global	LCD_INTERFACE_Write8_A0
 452              		.thumb
 453              		.thumb_func
 454              		.type	LCD_INTERFACE_Write8_A0, %function
 455              	LCD_INTERFACE_Write8_A0:
 456              	.LFB140:
 238:Generated_Source\PSoC6/LCD_INTERFACE.c **** 
 239:Generated_Source\PSoC6/LCD_INTERFACE.c **** 
 240:Generated_Source\PSoC6/LCD_INTERFACE.c **** /*******************************************************************************
 241:Generated_Source\PSoC6/LCD_INTERFACE.c **** * Function Name: LCD_INTERFACE_Write8_A0
 242:Generated_Source\PSoC6/LCD_INTERFACE.c **** ********************************************************************************
 243:Generated_Source\PSoC6/LCD_INTERFACE.c **** *
 244:Generated_Source\PSoC6/LCD_INTERFACE.c **** * Summary:
 245:Generated_Source\PSoC6/LCD_INTERFACE.c **** *  Initiates a write transaction on the 8-bit parallel
 246:Generated_Source\PSoC6/LCD_INTERFACE.c **** *  interface with the d_c pin set to 0.
 247:Generated_Source\PSoC6/LCD_INTERFACE.c **** *  The write is a posted write, so this function will return before the write 
 248:Generated_Source\PSoC6/LCD_INTERFACE.c **** *  has actually completed on the interface. If the command queue is full, this 
 249:Generated_Source\PSoC6/LCD_INTERFACE.c **** *  function will not return until space is availale to queue this write request.
 250:Generated_Source\PSoC6/LCD_INTERFACE.c **** *
 251:Generated_Source\PSoC6/LCD_INTERFACE.c **** * Parameters:
 252:Generated_Source\PSoC6/LCD_INTERFACE.c **** *  wrData: Data sent on the do_msb[7:0] (most significant byte) 
 253:Generated_Source\PSoC6/LCD_INTERFACE.c **** *         and do_lsb[7:0] (least significant byte) pins. do_msb[7:0]
 254:Generated_Source\PSoC6/LCD_INTERFACE.c **** *         presents only for 16-bit interface.
 255:Generated_Source\PSoC6/LCD_INTERFACE.c **** *
 256:Generated_Source\PSoC6/LCD_INTERFACE.c **** *******************************************************************************/
 257:Generated_Source\PSoC6/LCD_INTERFACE.c **** void LCD_INTERFACE_Write8_A0(uint8 wrData) 
 258:Generated_Source\PSoC6/LCD_INTERFACE.c **** {
 457              		.loc 1 258 0
 458              		.cfi_startproc
 459              		@ args = 0, pretend = 0, frame = 8
 460              		@ frame_needed = 1, uses_anonymous_args = 0
 461              		@ link register save eliminated.
 462 0000 80B4     		push	{r7}
 463              		.cfi_def_cfa_offset 4
 464              		.cfi_offset 7, -4
 465 0002 83B0     		sub	sp, sp, #12
 466              		.cfi_def_cfa_offset 16
 467 0004 00AF     		add	r7, sp, #0
 468              		.cfi_def_cfa_register 7
 469 0006 0346     		mov	r3, r0
 470 0008 FB71     		strb	r3, [r7, #7]
 259:Generated_Source\PSoC6/LCD_INTERFACE.c ****     while((LCD_INTERFACE_STATUS_REG & LCD_INTERFACE_CMD_QUEUE_FULL) != 0u)
 471              		.loc 1 259 0
 472 000a 00BF     		nop
 473              	.L30:
 474              		.loc 1 259 0 is_stmt 0 discriminator 1
 475 000c 094B     		ldr	r3, .L31
 476 000e 1B78     		ldrb	r3, [r3]
 477 0010 DBB2     		uxtb	r3, r3
 478 0012 03F00103 		and	r3, r3, #1
ARM GAS  C:\Users\tmj32\AppData\Local\Temp\cc4GEfLW.s 			page 14


 479 0016 002B     		cmp	r3, #0
 480 0018 F8D1     		bne	.L30
 260:Generated_Source\PSoC6/LCD_INTERFACE.c ****     {
 261:Generated_Source\PSoC6/LCD_INTERFACE.c ****         /* Command queue is full */
 262:Generated_Source\PSoC6/LCD_INTERFACE.c ****     }   
 263:Generated_Source\PSoC6/LCD_INTERFACE.c ****     LCD_INTERFACE_CMD_FIFO_REG = 0u;
 481              		.loc 1 263 0 is_stmt 1
 482 001a 074B     		ldr	r3, .L31+4
 483 001c 0022     		movs	r2, #0
 484 001e 1A70     		strb	r2, [r3]
 264:Generated_Source\PSoC6/LCD_INTERFACE.c ****     #if (LCD_INTERFACE_BUS_WIDTH == 16u)
 265:Generated_Source\PSoC6/LCD_INTERFACE.c ****         CY_SET_REG16(LCD_INTERFACE_DATA_FIFO_PTR, wrData);
 266:Generated_Source\PSoC6/LCD_INTERFACE.c ****     #else /* 8-bit interface */
 267:Generated_Source\PSoC6/LCD_INTERFACE.c ****         LCD_INTERFACE_DATA_FIFO_REG = wrData;
 485              		.loc 1 267 0
 486 0020 064A     		ldr	r2, .L31+8
 487 0022 FB79     		ldrb	r3, [r7, #7]
 488 0024 1370     		strb	r3, [r2]
 268:Generated_Source\PSoC6/LCD_INTERFACE.c ****     #endif /* LCD_INTERFACE_BUS_WIDTH == 16u */
 269:Generated_Source\PSoC6/LCD_INTERFACE.c **** }
 489              		.loc 1 269 0
 490 0026 00BF     		nop
 491 0028 0C37     		adds	r7, r7, #12
 492              		.cfi_def_cfa_offset 4
 493 002a BD46     		mov	sp, r7
 494              		.cfi_def_cfa_register 13
 495              		@ sp needed
 496 002c 5DF8047B 		ldr	r7, [sp], #4
 497              		.cfi_restore 7
 498              		.cfi_def_cfa_offset 0
 499 0030 7047     		bx	lr
 500              	.L32:
 501 0032 00BF     		.align	2
 502              	.L31:
 503 0034 24163440 		.word	1077155364
 504 0038 20143440 		.word	1077154848
 505 003c 20153440 		.word	1077155104
 506              		.cfi_endproc
 507              	.LFE140:
 508              		.size	LCD_INTERFACE_Write8_A0, .-LCD_INTERFACE_Write8_A0
 509              		.section	.text.LCD_INTERFACE_Write8_A1,"ax",%progbits
 510              		.align	2
 511              		.global	LCD_INTERFACE_Write8_A1
 512              		.thumb
 513              		.thumb_func
 514              		.type	LCD_INTERFACE_Write8_A1, %function
 515              	LCD_INTERFACE_Write8_A1:
 516              	.LFB141:
 270:Generated_Source\PSoC6/LCD_INTERFACE.c **** 
 271:Generated_Source\PSoC6/LCD_INTERFACE.c **** 
 272:Generated_Source\PSoC6/LCD_INTERFACE.c **** /*******************************************************************************
 273:Generated_Source\PSoC6/LCD_INTERFACE.c **** * Function Name: LCD_INTERFACE_Write8_A1
 274:Generated_Source\PSoC6/LCD_INTERFACE.c **** ********************************************************************************
 275:Generated_Source\PSoC6/LCD_INTERFACE.c **** *
 276:Generated_Source\PSoC6/LCD_INTERFACE.c **** * Summary:
 277:Generated_Source\PSoC6/LCD_INTERFACE.c **** *  Initiates a write transaction on the 8-bit 
 278:Generated_Source\PSoC6/LCD_INTERFACE.c **** *  parallel interface with the d_c pin set to 1. The write is a posted write, 
ARM GAS  C:\Users\tmj32\AppData\Local\Temp\cc4GEfLW.s 			page 15


 279:Generated_Source\PSoC6/LCD_INTERFACE.c **** *  so this function will return before the write has actually completed on the 
 280:Generated_Source\PSoC6/LCD_INTERFACE.c **** *  interface. If the command queue is full, this function will not return until
 281:Generated_Source\PSoC6/LCD_INTERFACE.c **** *  space is availale to queue this write request.
 282:Generated_Source\PSoC6/LCD_INTERFACE.c **** *
 283:Generated_Source\PSoC6/LCD_INTERFACE.c **** * Parameters:
 284:Generated_Source\PSoC6/LCD_INTERFACE.c **** *  wrData: Data sent on the do_msb[7:0] (most significant byte) 
 285:Generated_Source\PSoC6/LCD_INTERFACE.c **** *          and do_lsb[7:0] (least significant byte) pins. do_msb[7:0]
 286:Generated_Source\PSoC6/LCD_INTERFACE.c **** *          presents only for 16-bit interface.
 287:Generated_Source\PSoC6/LCD_INTERFACE.c **** *
 288:Generated_Source\PSoC6/LCD_INTERFACE.c **** *******************************************************************************/
 289:Generated_Source\PSoC6/LCD_INTERFACE.c **** void LCD_INTERFACE_Write8_A1(uint8 wrData) 
 290:Generated_Source\PSoC6/LCD_INTERFACE.c **** {
 517              		.loc 1 290 0
 518              		.cfi_startproc
 519              		@ args = 0, pretend = 0, frame = 8
 520              		@ frame_needed = 1, uses_anonymous_args = 0
 521              		@ link register save eliminated.
 522 0000 80B4     		push	{r7}
 523              		.cfi_def_cfa_offset 4
 524              		.cfi_offset 7, -4
 525 0002 83B0     		sub	sp, sp, #12
 526              		.cfi_def_cfa_offset 16
 527 0004 00AF     		add	r7, sp, #0
 528              		.cfi_def_cfa_register 7
 529 0006 0346     		mov	r3, r0
 530 0008 FB71     		strb	r3, [r7, #7]
 291:Generated_Source\PSoC6/LCD_INTERFACE.c ****     while((LCD_INTERFACE_STATUS_REG & LCD_INTERFACE_CMD_QUEUE_FULL) != 0u)
 531              		.loc 1 291 0
 532 000a 00BF     		nop
 533              	.L34:
 534              		.loc 1 291 0 is_stmt 0 discriminator 1
 535 000c 094B     		ldr	r3, .L35
 536 000e 1B78     		ldrb	r3, [r3]
 537 0010 DBB2     		uxtb	r3, r3
 538 0012 03F00103 		and	r3, r3, #1
 539 0016 002B     		cmp	r3, #0
 540 0018 F8D1     		bne	.L34
 292:Generated_Source\PSoC6/LCD_INTERFACE.c ****     {
 293:Generated_Source\PSoC6/LCD_INTERFACE.c ****         /* Command queue is full */
 294:Generated_Source\PSoC6/LCD_INTERFACE.c ****     }   
 295:Generated_Source\PSoC6/LCD_INTERFACE.c ****     LCD_INTERFACE_CMD_FIFO_REG = 1u;
 541              		.loc 1 295 0 is_stmt 1
 542 001a 074B     		ldr	r3, .L35+4
 543 001c 0122     		movs	r2, #1
 544 001e 1A70     		strb	r2, [r3]
 296:Generated_Source\PSoC6/LCD_INTERFACE.c ****     #if (LCD_INTERFACE_BUS_WIDTH == 16u)
 297:Generated_Source\PSoC6/LCD_INTERFACE.c ****         CY_SET_REG16(LCD_INTERFACE_DATA_FIFO_PTR, wrData);
 298:Generated_Source\PSoC6/LCD_INTERFACE.c ****     #else /* 8-bit interface */
 299:Generated_Source\PSoC6/LCD_INTERFACE.c ****         LCD_INTERFACE_DATA_FIFO_REG = wrData;
 545              		.loc 1 299 0
 546 0020 064A     		ldr	r2, .L35+8
 547 0022 FB79     		ldrb	r3, [r7, #7]
 548 0024 1370     		strb	r3, [r2]
 300:Generated_Source\PSoC6/LCD_INTERFACE.c ****     #endif /* LCD_INTERFACE_BUS_WIDTH == 16u */
 301:Generated_Source\PSoC6/LCD_INTERFACE.c **** }
 549              		.loc 1 301 0
 550 0026 00BF     		nop
ARM GAS  C:\Users\tmj32\AppData\Local\Temp\cc4GEfLW.s 			page 16


 551 0028 0C37     		adds	r7, r7, #12
 552              		.cfi_def_cfa_offset 4
 553 002a BD46     		mov	sp, r7
 554              		.cfi_def_cfa_register 13
 555              		@ sp needed
 556 002c 5DF8047B 		ldr	r7, [sp], #4
 557              		.cfi_restore 7
 558              		.cfi_def_cfa_offset 0
 559 0030 7047     		bx	lr
 560              	.L36:
 561 0032 00BF     		.align	2
 562              	.L35:
 563 0034 24163440 		.word	1077155364
 564 0038 20143440 		.word	1077154848
 565 003c 20153440 		.word	1077155104
 566              		.cfi_endproc
 567              	.LFE141:
 568              		.size	LCD_INTERFACE_Write8_A1, .-LCD_INTERFACE_Write8_A1
 569              		.section	.text.LCD_INTERFACE_WriteM8_A0,"ax",%progbits
 570              		.align	2
 571              		.global	LCD_INTERFACE_WriteM8_A0
 572              		.thumb
 573              		.thumb_func
 574              		.type	LCD_INTERFACE_WriteM8_A0, %function
 575              	LCD_INTERFACE_WriteM8_A0:
 576              	.LFB142:
 302:Generated_Source\PSoC6/LCD_INTERFACE.c **** 
 303:Generated_Source\PSoC6/LCD_INTERFACE.c **** 
 304:Generated_Source\PSoC6/LCD_INTERFACE.c **** /*******************************************************************************
 305:Generated_Source\PSoC6/LCD_INTERFACE.c **** * Function Name: LCD_INTERFACE_WriteM8_A0
 306:Generated_Source\PSoC6/LCD_INTERFACE.c **** ********************************************************************************
 307:Generated_Source\PSoC6/LCD_INTERFACE.c **** *
 308:Generated_Source\PSoC6/LCD_INTERFACE.c **** * Summary:
 309:Generated_Source\PSoC6/LCD_INTERFACE.c **** *  Initiates multiple write transactions on the 8-bit 
 310:Generated_Source\PSoC6/LCD_INTERFACE.c **** *  parallel interface with the d_c pin set to 0. The write is a posted write, 
 311:Generated_Source\PSoC6/LCD_INTERFACE.c **** *  so this function will return before the write has actually completed on the 
 312:Generated_Source\PSoC6/LCD_INTERFACE.c **** *  interface. If the command queue is full, this function will not return until
 313:Generated_Source\PSoC6/LCD_INTERFACE.c **** *  space is availale to queue this write request.
 314:Generated_Source\PSoC6/LCD_INTERFACE.c **** *
 315:Generated_Source\PSoC6/LCD_INTERFACE.c **** * Parameters:
 316:Generated_Source\PSoC6/LCD_INTERFACE.c **** *  wrData: Pointer to the the first element of a data buffer sent on the 
 317:Generated_Source\PSoC6/LCD_INTERFACE.c **** *          do_msb[7:0] (most significant byte) and do_lsb[7:0] (least significant
 318:Generated_Source\PSoC6/LCD_INTERFACE.c **** *          byte) pins. do_msb[7:0] presents only for 16-bit interface.
 319:Generated_Source\PSoC6/LCD_INTERFACE.c **** *
 320:Generated_Source\PSoC6/LCD_INTERFACE.c **** *  num:  Number of words/bytes to write.
 321:Generated_Source\PSoC6/LCD_INTERFACE.c **** *
 322:Generated_Source\PSoC6/LCD_INTERFACE.c **** *******************************************************************************/
 323:Generated_Source\PSoC6/LCD_INTERFACE.c **** void LCD_INTERFACE_WriteM8_A0(uint8 wrData[], int num) 
 324:Generated_Source\PSoC6/LCD_INTERFACE.c **** {
 577              		.loc 1 324 0
 578              		.cfi_startproc
 579              		@ args = 0, pretend = 0, frame = 8
 580              		@ frame_needed = 1, uses_anonymous_args = 0
 581 0000 80B5     		push	{r7, lr}
 582              		.cfi_def_cfa_offset 8
 583              		.cfi_offset 7, -8
 584              		.cfi_offset 14, -4
ARM GAS  C:\Users\tmj32\AppData\Local\Temp\cc4GEfLW.s 			page 17


 585 0002 82B0     		sub	sp, sp, #8
 586              		.cfi_def_cfa_offset 16
 587 0004 00AF     		add	r7, sp, #0
 588              		.cfi_def_cfa_register 7
 589 0006 7860     		str	r0, [r7, #4]
 590 0008 3960     		str	r1, [r7]
 325:Generated_Source\PSoC6/LCD_INTERFACE.c ****     LCD_INTERFACE_WriteM8(0u, wrData, (uint16)num);
 591              		.loc 1 325 0
 592 000a 3B68     		ldr	r3, [r7]
 593 000c 9BB2     		uxth	r3, r3
 594 000e 1A46     		mov	r2, r3
 595 0010 7968     		ldr	r1, [r7, #4]
 596 0012 0020     		movs	r0, #0
 597 0014 FFF7FEFF 		bl	LCD_INTERFACE_WriteM8
 326:Generated_Source\PSoC6/LCD_INTERFACE.c **** }
 598              		.loc 1 326 0
 599 0018 00BF     		nop
 600 001a 0837     		adds	r7, r7, #8
 601              		.cfi_def_cfa_offset 8
 602 001c BD46     		mov	sp, r7
 603              		.cfi_def_cfa_register 13
 604              		@ sp needed
 605 001e 80BD     		pop	{r7, pc}
 606              		.cfi_endproc
 607              	.LFE142:
 608              		.size	LCD_INTERFACE_WriteM8_A0, .-LCD_INTERFACE_WriteM8_A0
 609              		.section	.text.LCD_INTERFACE_WriteM8_A1,"ax",%progbits
 610              		.align	2
 611              		.global	LCD_INTERFACE_WriteM8_A1
 612              		.thumb
 613              		.thumb_func
 614              		.type	LCD_INTERFACE_WriteM8_A1, %function
 615              	LCD_INTERFACE_WriteM8_A1:
 616              	.LFB143:
 327:Generated_Source\PSoC6/LCD_INTERFACE.c **** 
 328:Generated_Source\PSoC6/LCD_INTERFACE.c **** 
 329:Generated_Source\PSoC6/LCD_INTERFACE.c **** /*******************************************************************************
 330:Generated_Source\PSoC6/LCD_INTERFACE.c **** * Function Name: LCD_INTERFACE_WriteM8_A1
 331:Generated_Source\PSoC6/LCD_INTERFACE.c **** ********************************************************************************
 332:Generated_Source\PSoC6/LCD_INTERFACE.c **** *
 333:Generated_Source\PSoC6/LCD_INTERFACE.c **** * Summary:
 334:Generated_Source\PSoC6/LCD_INTERFACE.c **** *  Initiates multiple data write transactions on the 8-bit 
 335:Generated_Source\PSoC6/LCD_INTERFACE.c **** *  parallel interface with the d_c pin set to 1. The write is a posted write, 
 336:Generated_Source\PSoC6/LCD_INTERFACE.c **** *  so this function will return before the write has actually completed on the 
 337:Generated_Source\PSoC6/LCD_INTERFACE.c **** *  interface. If the command queue is full, this function will not return until
 338:Generated_Source\PSoC6/LCD_INTERFACE.c **** *  space is availale to queue this write request.
 339:Generated_Source\PSoC6/LCD_INTERFACE.c **** *
 340:Generated_Source\PSoC6/LCD_INTERFACE.c **** * Parameters:
 341:Generated_Source\PSoC6/LCD_INTERFACE.c **** *  wrData: Pointer to the the first element of a data buffer sent on the 
 342:Generated_Source\PSoC6/LCD_INTERFACE.c **** *          do_msb[7:0] (most significant byte) and do_lsb[7:0] (least significant
 343:Generated_Source\PSoC6/LCD_INTERFACE.c **** *          byte) pins. do_msb[7:0] presents only for 16-bit interface.
 344:Generated_Source\PSoC6/LCD_INTERFACE.c **** *
 345:Generated_Source\PSoC6/LCD_INTERFACE.c **** *  num:  Number of words/bytes to write.
 346:Generated_Source\PSoC6/LCD_INTERFACE.c **** *
 347:Generated_Source\PSoC6/LCD_INTERFACE.c **** *******************************************************************************/
 348:Generated_Source\PSoC6/LCD_INTERFACE.c **** void LCD_INTERFACE_WriteM8_A1(uint8 wrData[], int num) 
 349:Generated_Source\PSoC6/LCD_INTERFACE.c **** {
ARM GAS  C:\Users\tmj32\AppData\Local\Temp\cc4GEfLW.s 			page 18


 617              		.loc 1 349 0
 618              		.cfi_startproc
 619              		@ args = 0, pretend = 0, frame = 8
 620              		@ frame_needed = 1, uses_anonymous_args = 0
 621 0000 80B5     		push	{r7, lr}
 622              		.cfi_def_cfa_offset 8
 623              		.cfi_offset 7, -8
 624              		.cfi_offset 14, -4
 625 0002 82B0     		sub	sp, sp, #8
 626              		.cfi_def_cfa_offset 16
 627 0004 00AF     		add	r7, sp, #0
 628              		.cfi_def_cfa_register 7
 629 0006 7860     		str	r0, [r7, #4]
 630 0008 3960     		str	r1, [r7]
 350:Generated_Source\PSoC6/LCD_INTERFACE.c ****     LCD_INTERFACE_WriteM8(1u, wrData, (uint16)num);
 631              		.loc 1 350 0
 632 000a 3B68     		ldr	r3, [r7]
 633 000c 9BB2     		uxth	r3, r3
 634 000e 1A46     		mov	r2, r3
 635 0010 7968     		ldr	r1, [r7, #4]
 636 0012 0120     		movs	r0, #1
 637 0014 FFF7FEFF 		bl	LCD_INTERFACE_WriteM8
 351:Generated_Source\PSoC6/LCD_INTERFACE.c **** }
 638              		.loc 1 351 0
 639 0018 00BF     		nop
 640 001a 0837     		adds	r7, r7, #8
 641              		.cfi_def_cfa_offset 8
 642 001c BD46     		mov	sp, r7
 643              		.cfi_def_cfa_register 13
 644              		@ sp needed
 645 001e 80BD     		pop	{r7, pc}
 646              		.cfi_endproc
 647              	.LFE143:
 648              		.size	LCD_INTERFACE_WriteM8_A1, .-LCD_INTERFACE_WriteM8_A1
 649              		.section	.text.LCD_INTERFACE_Read8_A1,"ax",%progbits
 650              		.align	2
 651              		.global	LCD_INTERFACE_Read8_A1
 652              		.thumb
 653              		.thumb_func
 654              		.type	LCD_INTERFACE_Read8_A1, %function
 655              	LCD_INTERFACE_Read8_A1:
 656              	.LFB144:
 352:Generated_Source\PSoC6/LCD_INTERFACE.c **** 
 353:Generated_Source\PSoC6/LCD_INTERFACE.c **** 
 354:Generated_Source\PSoC6/LCD_INTERFACE.c **** /*******************************************************************************
 355:Generated_Source\PSoC6/LCD_INTERFACE.c **** * Function Name: LCD_INTERFACE_Read8_A1
 356:Generated_Source\PSoC6/LCD_INTERFACE.c **** ********************************************************************************
 357:Generated_Source\PSoC6/LCD_INTERFACE.c **** *
 358:Generated_Source\PSoC6/LCD_INTERFACE.c **** * Summary:
 359:Generated_Source\PSoC6/LCD_INTERFACE.c **** *  Initiates data read transaction on the 8-bit 
 360:Generated_Source\PSoC6/LCD_INTERFACE.c **** *  parallel interface with the d_c pin set to 1. The read will execute after 
 361:Generated_Source\PSoC6/LCD_INTERFACE.c **** *  all currently posted writes have completed. This function will wait until 
 362:Generated_Source\PSoC6/LCD_INTERFACE.c **** *  the read completes and then returns the read value.
 363:Generated_Source\PSoC6/LCD_INTERFACE.c **** *
 364:Generated_Source\PSoC6/LCD_INTERFACE.c **** * Return:
 365:Generated_Source\PSoC6/LCD_INTERFACE.c **** *  The 16-bit read value from the di_msb[7:0] (most significant byte) and 
 366:Generated_Source\PSoC6/LCD_INTERFACE.c **** *  di_lsb[7:0] (least significant byte) pins for the 16-bit interface or the 
ARM GAS  C:\Users\tmj32\AppData\Local\Temp\cc4GEfLW.s 			page 19


 367:Generated_Source\PSoC6/LCD_INTERFACE.c **** *  8-bit read value from the di_lsb[7:0] for 8-bit interface.
 368:Generated_Source\PSoC6/LCD_INTERFACE.c **** *
 369:Generated_Source\PSoC6/LCD_INTERFACE.c **** *******************************************************************************/
 370:Generated_Source\PSoC6/LCD_INTERFACE.c **** uint8 LCD_INTERFACE_Read8_A1(void) 
 371:Generated_Source\PSoC6/LCD_INTERFACE.c **** {
 657              		.loc 1 371 0
 658              		.cfi_startproc
 659              		@ args = 0, pretend = 0, frame = 0
 660              		@ frame_needed = 1, uses_anonymous_args = 0
 661 0000 80B5     		push	{r7, lr}
 662              		.cfi_def_cfa_offset 8
 663              		.cfi_offset 7, -8
 664              		.cfi_offset 14, -4
 665 0002 00AF     		add	r7, sp, #0
 666              		.cfi_def_cfa_register 7
 372:Generated_Source\PSoC6/LCD_INTERFACE.c ****     return LCD_INTERFACE_Read8(1u);
 667              		.loc 1 372 0
 668 0004 0120     		movs	r0, #1
 669 0006 FFF7FEFF 		bl	LCD_INTERFACE_Read8
 670 000a 0346     		mov	r3, r0
 373:Generated_Source\PSoC6/LCD_INTERFACE.c **** }
 671              		.loc 1 373 0
 672 000c 1846     		mov	r0, r3
 673 000e 80BD     		pop	{r7, pc}
 674              		.cfi_endproc
 675              	.LFE144:
 676              		.size	LCD_INTERFACE_Read8_A1, .-LCD_INTERFACE_Read8_A1
 677              		.section	.text.LCD_INTERFACE_ReadM8_A1,"ax",%progbits
 678              		.align	2
 679              		.global	LCD_INTERFACE_ReadM8_A1
 680              		.thumb
 681              		.thumb_func
 682              		.type	LCD_INTERFACE_ReadM8_A1, %function
 683              	LCD_INTERFACE_ReadM8_A1:
 684              	.LFB145:
 374:Generated_Source\PSoC6/LCD_INTERFACE.c **** 
 375:Generated_Source\PSoC6/LCD_INTERFACE.c **** 
 376:Generated_Source\PSoC6/LCD_INTERFACE.c **** /*******************************************************************************
 377:Generated_Source\PSoC6/LCD_INTERFACE.c **** * Function Name: LCD_INTERFACE_ReadM8_A1
 378:Generated_Source\PSoC6/LCD_INTERFACE.c **** ********************************************************************************
 379:Generated_Source\PSoC6/LCD_INTERFACE.c **** *
 380:Generated_Source\PSoC6/LCD_INTERFACE.c **** * Summary:
 381:Generated_Source\PSoC6/LCD_INTERFACE.c **** *  Initiates multiple data read transactions on the 8-bit 
 382:Generated_Source\PSoC6/LCD_INTERFACE.c **** *  parallel interface with the d_c pin set to 1. The read will execute after all 
 383:Generated_Source\PSoC6/LCD_INTERFACE.c **** *  currently posted writes have completed. This function will wait until the 
 384:Generated_Source\PSoC6/LCD_INTERFACE.c **** *  read completes and then returns the read value.
 385:Generated_Source\PSoC6/LCD_INTERFACE.c **** *
 386:Generated_Source\PSoC6/LCD_INTERFACE.c **** * Parameters:
 387:Generated_Source\PSoC6/LCD_INTERFACE.c **** *  rdData: Pointer to the the first element of a data buffer read from the do_msb[7:0]
 388:Generated_Source\PSoC6/LCD_INTERFACE.c **** *        (most significant byte) and do_lsb[7:0] (least significant byte) pins. 
 389:Generated_Source\PSoC6/LCD_INTERFACE.c **** *        do_msb[7:0] presents only for 16-bit interface.
 390:Generated_Source\PSoC6/LCD_INTERFACE.c **** *
 391:Generated_Source\PSoC6/LCD_INTERFACE.c **** *  num:  Number of words/bytes to read.
 392:Generated_Source\PSoC6/LCD_INTERFACE.c **** *
 393:Generated_Source\PSoC6/LCD_INTERFACE.c **** *******************************************************************************/
 394:Generated_Source\PSoC6/LCD_INTERFACE.c **** void LCD_INTERFACE_ReadM8_A1(uint8 rdData[], int num) 
 395:Generated_Source\PSoC6/LCD_INTERFACE.c **** {
ARM GAS  C:\Users\tmj32\AppData\Local\Temp\cc4GEfLW.s 			page 20


 685              		.loc 1 395 0
 686              		.cfi_startproc
 687              		@ args = 0, pretend = 0, frame = 8
 688              		@ frame_needed = 1, uses_anonymous_args = 0
 689 0000 80B5     		push	{r7, lr}
 690              		.cfi_def_cfa_offset 8
 691              		.cfi_offset 7, -8
 692              		.cfi_offset 14, -4
 693 0002 82B0     		sub	sp, sp, #8
 694              		.cfi_def_cfa_offset 16
 695 0004 00AF     		add	r7, sp, #0
 696              		.cfi_def_cfa_register 7
 697 0006 7860     		str	r0, [r7, #4]
 698 0008 3960     		str	r1, [r7]
 396:Generated_Source\PSoC6/LCD_INTERFACE.c ****     LCD_INTERFACE_ReadM8(1u, rdData, (uint16)num);
 699              		.loc 1 396 0
 700 000a 3B68     		ldr	r3, [r7]
 701 000c 9BB2     		uxth	r3, r3
 702 000e 1A46     		mov	r2, r3
 703 0010 7968     		ldr	r1, [r7, #4]
 704 0012 0120     		movs	r0, #1
 705 0014 FFF7FEFF 		bl	LCD_INTERFACE_ReadM8
 397:Generated_Source\PSoC6/LCD_INTERFACE.c **** }
 706              		.loc 1 397 0
 707 0018 00BF     		nop
 708 001a 0837     		adds	r7, r7, #8
 709              		.cfi_def_cfa_offset 8
 710 001c BD46     		mov	sp, r7
 711              		.cfi_def_cfa_register 13
 712              		@ sp needed
 713 001e 80BD     		pop	{r7, pc}
 714              		.cfi_endproc
 715              	.LFE145:
 716              		.size	LCD_INTERFACE_ReadM8_A1, .-LCD_INTERFACE_ReadM8_A1
 717              		.text
 718              	.Letext0:
 719              		.file 2 "c:\\program files (x86)\\cypress\\psoc creator\\4.3\\psoc creator\\import\\gnu\\arm\\5.4.
 720              		.file 3 "c:\\program files (x86)\\cypress\\psoc creator\\4.3\\psoc creator\\import\\gnu\\arm\\5.4.
 721              		.file 4 "Generated_Source\\PSoC6\\pdl\\drivers/peripheral/syslib/cy_syslib.h"
 722              		.file 5 "Generated_Source\\PSoC6\\pdl\\cmsis/include/core_cm4.h"