ARM GAS  C:\Users\tmj32\AppData\Local\Temp\ccBjJIfd.s 			page 1


   1              		.syntax unified
   2              		.cpu cortex-m4
   3              		.eabi_attribute 27, 1
   4              		.fpu fpv4-sp-d16
   5              		.eabi_attribute 20, 1
   6              		.eabi_attribute 21, 1
   7              		.eabi_attribute 23, 3
   8              		.eabi_attribute 24, 1
   9              		.eabi_attribute 25, 1
  10              		.eabi_attribute 26, 1
  11              		.eabi_attribute 30, 6
  12              		.eabi_attribute 34, 1
  13              		.eabi_attribute 18, 4
  14              		.thumb
  15              		.syntax unified
  16              		.file	"lv_arc.c"
  17              		.text
  18              	.Ltext0:
  19              		.cfi_sections	.debug_frame
  20              		.bss
  21              		.align	2
  22              	ancestor_signal:
  23 0000 00000000 		.space	4
  24              		.align	2
  25              	ancestor_design:
  26 0004 00000000 		.space	4
  27              		.section	.text.lv_arc_create,"ax",%progbits
  28              		.align	2
  29              		.global	lv_arc_create
  30              		.thumb
  31              		.thumb_func
  32              		.type	lv_arc_create, %function
  33              	lv_arc_create:
  34              	.LFB31:
  35              		.file 1 "..\\..\\..\\lvgl\\version_6.1.2\\lvgl\\src\\lv_objx\\lv_arc.c"
   1:..\..\..\lvgl\version_6.1.2\lvgl\src\lv_objx/lv_arc.c **** /**
   2:..\..\..\lvgl\version_6.1.2\lvgl\src\lv_objx/lv_arc.c ****  * @file lv_arc.c
   3:..\..\..\lvgl\version_6.1.2\lvgl\src\lv_objx/lv_arc.c ****  *
   4:..\..\..\lvgl\version_6.1.2\lvgl\src\lv_objx/lv_arc.c ****  */
   5:..\..\..\lvgl\version_6.1.2\lvgl\src\lv_objx/lv_arc.c **** 
   6:..\..\..\lvgl\version_6.1.2\lvgl\src\lv_objx/lv_arc.c **** /*********************
   7:..\..\..\lvgl\version_6.1.2\lvgl\src\lv_objx/lv_arc.c ****  *      INCLUDES
   8:..\..\..\lvgl\version_6.1.2\lvgl\src\lv_objx/lv_arc.c ****  *********************/
   9:..\..\..\lvgl\version_6.1.2\lvgl\src\lv_objx/lv_arc.c **** #include "lv_arc.h"
  10:..\..\..\lvgl\version_6.1.2\lvgl\src\lv_objx/lv_arc.c **** #if LV_USE_ARC != 0
  11:..\..\..\lvgl\version_6.1.2\lvgl\src\lv_objx/lv_arc.c **** 
  12:..\..\..\lvgl\version_6.1.2\lvgl\src\lv_objx/lv_arc.c **** #include "../lv_core/lv_debug.h"
  13:..\..\..\lvgl\version_6.1.2\lvgl\src\lv_objx/lv_arc.c **** #include "../lv_misc/lv_math.h"
  14:..\..\..\lvgl\version_6.1.2\lvgl\src\lv_objx/lv_arc.c **** #include "../lv_draw/lv_draw_arc.h"
  15:..\..\..\lvgl\version_6.1.2\lvgl\src\lv_objx/lv_arc.c **** #include "../lv_themes/lv_theme.h"
  16:..\..\..\lvgl\version_6.1.2\lvgl\src\lv_objx/lv_arc.c **** 
  17:..\..\..\lvgl\version_6.1.2\lvgl\src\lv_objx/lv_arc.c **** /*********************
  18:..\..\..\lvgl\version_6.1.2\lvgl\src\lv_objx/lv_arc.c ****  *      DEFINES
  19:..\..\..\lvgl\version_6.1.2\lvgl\src\lv_objx/lv_arc.c ****  *********************/
  20:..\..\..\lvgl\version_6.1.2\lvgl\src\lv_objx/lv_arc.c **** #define LV_OBJX_NAME "lv_arc"
  21:..\..\..\lvgl\version_6.1.2\lvgl\src\lv_objx/lv_arc.c **** 
  22:..\..\..\lvgl\version_6.1.2\lvgl\src\lv_objx/lv_arc.c **** /**********************
ARM GAS  C:\Users\tmj32\AppData\Local\Temp\ccBjJIfd.s 			page 2


  23:..\..\..\lvgl\version_6.1.2\lvgl\src\lv_objx/lv_arc.c ****  *      TYPEDEFS
  24:..\..\..\lvgl\version_6.1.2\lvgl\src\lv_objx/lv_arc.c ****  **********************/
  25:..\..\..\lvgl\version_6.1.2\lvgl\src\lv_objx/lv_arc.c **** 
  26:..\..\..\lvgl\version_6.1.2\lvgl\src\lv_objx/lv_arc.c **** /**********************
  27:..\..\..\lvgl\version_6.1.2\lvgl\src\lv_objx/lv_arc.c ****  *  STATIC PROTOTYPES
  28:..\..\..\lvgl\version_6.1.2\lvgl\src\lv_objx/lv_arc.c ****  **********************/
  29:..\..\..\lvgl\version_6.1.2\lvgl\src\lv_objx/lv_arc.c **** static bool lv_arc_design(lv_obj_t * arc, const lv_area_t * mask, lv_design_mode_t mode);
  30:..\..\..\lvgl\version_6.1.2\lvgl\src\lv_objx/lv_arc.c **** static lv_res_t lv_arc_signal(lv_obj_t * arc, lv_signal_t sign, void * param);
  31:..\..\..\lvgl\version_6.1.2\lvgl\src\lv_objx/lv_arc.c **** 
  32:..\..\..\lvgl\version_6.1.2\lvgl\src\lv_objx/lv_arc.c **** /**********************
  33:..\..\..\lvgl\version_6.1.2\lvgl\src\lv_objx/lv_arc.c ****  *  STATIC VARIABLES
  34:..\..\..\lvgl\version_6.1.2\lvgl\src\lv_objx/lv_arc.c ****  **********************/
  35:..\..\..\lvgl\version_6.1.2\lvgl\src\lv_objx/lv_arc.c **** static lv_signal_cb_t ancestor_signal;
  36:..\..\..\lvgl\version_6.1.2\lvgl\src\lv_objx/lv_arc.c **** static lv_design_cb_t ancestor_design;
  37:..\..\..\lvgl\version_6.1.2\lvgl\src\lv_objx/lv_arc.c **** 
  38:..\..\..\lvgl\version_6.1.2\lvgl\src\lv_objx/lv_arc.c **** /**********************
  39:..\..\..\lvgl\version_6.1.2\lvgl\src\lv_objx/lv_arc.c ****  *      MACROS
  40:..\..\..\lvgl\version_6.1.2\lvgl\src\lv_objx/lv_arc.c ****  **********************/
  41:..\..\..\lvgl\version_6.1.2\lvgl\src\lv_objx/lv_arc.c **** 
  42:..\..\..\lvgl\version_6.1.2\lvgl\src\lv_objx/lv_arc.c **** /**********************
  43:..\..\..\lvgl\version_6.1.2\lvgl\src\lv_objx/lv_arc.c ****  *   GLOBAL FUNCTIONS
  44:..\..\..\lvgl\version_6.1.2\lvgl\src\lv_objx/lv_arc.c ****  **********************/
  45:..\..\..\lvgl\version_6.1.2\lvgl\src\lv_objx/lv_arc.c **** 
  46:..\..\..\lvgl\version_6.1.2\lvgl\src\lv_objx/lv_arc.c **** /**
  47:..\..\..\lvgl\version_6.1.2\lvgl\src\lv_objx/lv_arc.c ****  * Create a arc object
  48:..\..\..\lvgl\version_6.1.2\lvgl\src\lv_objx/lv_arc.c ****  * @param par pointer to an object, it will be the parent of the new arc
  49:..\..\..\lvgl\version_6.1.2\lvgl\src\lv_objx/lv_arc.c ****  * @param copy pointer to a arc object, if not NULL then the new object will be copied from it
  50:..\..\..\lvgl\version_6.1.2\lvgl\src\lv_objx/lv_arc.c ****  * @return pointer to the created arc
  51:..\..\..\lvgl\version_6.1.2\lvgl\src\lv_objx/lv_arc.c ****  */
  52:..\..\..\lvgl\version_6.1.2\lvgl\src\lv_objx/lv_arc.c **** lv_obj_t * lv_arc_create(lv_obj_t * par, const lv_obj_t * copy)
  53:..\..\..\lvgl\version_6.1.2\lvgl\src\lv_objx/lv_arc.c **** {
  36              		.loc 1 53 0
  37              		.cfi_startproc
  38              		@ args = 0, pretend = 0, frame = 24
  39              		@ frame_needed = 1, uses_anonymous_args = 0
  40 0000 80B5     		push	{r7, lr}
  41              		.cfi_def_cfa_offset 8
  42              		.cfi_offset 7, -8
  43              		.cfi_offset 14, -4
  44 0002 86B0     		sub	sp, sp, #24
  45              		.cfi_def_cfa_offset 32
  46 0004 00AF     		add	r7, sp, #0
  47              		.cfi_def_cfa_register 7
  48 0006 7860     		str	r0, [r7, #4]
  49 0008 3960     		str	r1, [r7]
  54:..\..\..\lvgl\version_6.1.2\lvgl\src\lv_objx/lv_arc.c **** 
  55:..\..\..\lvgl\version_6.1.2\lvgl\src\lv_objx/lv_arc.c ****     LV_LOG_TRACE("arc create started");
  56:..\..\..\lvgl\version_6.1.2\lvgl\src\lv_objx/lv_arc.c **** 
  57:..\..\..\lvgl\version_6.1.2\lvgl\src\lv_objx/lv_arc.c ****     /*Create the ancestor of arc*/
  58:..\..\..\lvgl\version_6.1.2\lvgl\src\lv_objx/lv_arc.c ****     lv_obj_t * new_arc = lv_obj_create(par, copy);
  50              		.loc 1 58 0
  51 000a 3968     		ldr	r1, [r7]
  52 000c 7868     		ldr	r0, [r7, #4]
  53 000e FFF7FEFF 		bl	lv_obj_create
  54 0012 7861     		str	r0, [r7, #20]
  59:..\..\..\lvgl\version_6.1.2\lvgl\src\lv_objx/lv_arc.c ****     LV_ASSERT_MEM(new_arc);
  60:..\..\..\lvgl\version_6.1.2\lvgl\src\lv_objx/lv_arc.c ****     if(new_arc == NULL) return NULL;
ARM GAS  C:\Users\tmj32\AppData\Local\Temp\ccBjJIfd.s 			page 3


  55              		.loc 1 60 0
  56 0014 7B69     		ldr	r3, [r7, #20]
  57 0016 002B     		cmp	r3, #0
  58 0018 01D1     		bne	.L2
  59              		.loc 1 60 0 is_stmt 0 discriminator 1
  60 001a 0023     		movs	r3, #0
  61 001c 55E0     		b	.L3
  62              	.L2:
  61:..\..\..\lvgl\version_6.1.2\lvgl\src\lv_objx/lv_arc.c **** 
  62:..\..\..\lvgl\version_6.1.2\lvgl\src\lv_objx/lv_arc.c ****     /*Allocate the arc type specific extended data*/
  63:..\..\..\lvgl\version_6.1.2\lvgl\src\lv_objx/lv_arc.c ****     lv_arc_ext_t * ext = lv_obj_allocate_ext_attr(new_arc, sizeof(lv_arc_ext_t));
  63              		.loc 1 63 0 is_stmt 1
  64 001e 0421     		movs	r1, #4
  65 0020 7869     		ldr	r0, [r7, #20]
  66 0022 FFF7FEFF 		bl	lv_obj_allocate_ext_attr
  67 0026 3861     		str	r0, [r7, #16]
  64:..\..\..\lvgl\version_6.1.2\lvgl\src\lv_objx/lv_arc.c ****     LV_ASSERT_MEM(ext);
  65:..\..\..\lvgl\version_6.1.2\lvgl\src\lv_objx/lv_arc.c ****     if(ext == NULL) return NULL;
  68              		.loc 1 65 0
  69 0028 3B69     		ldr	r3, [r7, #16]
  70 002a 002B     		cmp	r3, #0
  71 002c 01D1     		bne	.L4
  72              		.loc 1 65 0 is_stmt 0 discriminator 1
  73 002e 0023     		movs	r3, #0
  74 0030 4BE0     		b	.L3
  75              	.L4:
  66:..\..\..\lvgl\version_6.1.2\lvgl\src\lv_objx/lv_arc.c **** 
  67:..\..\..\lvgl\version_6.1.2\lvgl\src\lv_objx/lv_arc.c ****     if(ancestor_signal == NULL) ancestor_signal = lv_obj_get_signal_cb(new_arc);
  76              		.loc 1 67 0 is_stmt 1
  77 0032 284B     		ldr	r3, .L11
  78 0034 1B68     		ldr	r3, [r3]
  79 0036 002B     		cmp	r3, #0
  80 0038 05D1     		bne	.L5
  81              		.loc 1 67 0 is_stmt 0 discriminator 1
  82 003a 7869     		ldr	r0, [r7, #20]
  83 003c FFF7FEFF 		bl	lv_obj_get_signal_cb
  84 0040 0246     		mov	r2, r0
  85 0042 244B     		ldr	r3, .L11
  86 0044 1A60     		str	r2, [r3]
  87              	.L5:
  68:..\..\..\lvgl\version_6.1.2\lvgl\src\lv_objx/lv_arc.c ****     if(ancestor_design == NULL) ancestor_design = lv_obj_get_design_cb(new_arc);
  88              		.loc 1 68 0 is_stmt 1
  89 0046 244B     		ldr	r3, .L11+4
  90 0048 1B68     		ldr	r3, [r3]
  91 004a 002B     		cmp	r3, #0
  92 004c 05D1     		bne	.L6
  93              		.loc 1 68 0 is_stmt 0 discriminator 1
  94 004e 7869     		ldr	r0, [r7, #20]
  95 0050 FFF7FEFF 		bl	lv_obj_get_design_cb
  96 0054 0246     		mov	r2, r0
  97 0056 204B     		ldr	r3, .L11+4
  98 0058 1A60     		str	r2, [r3]
  99              	.L6:
  69:..\..\..\lvgl\version_6.1.2\lvgl\src\lv_objx/lv_arc.c **** 
  70:..\..\..\lvgl\version_6.1.2\lvgl\src\lv_objx/lv_arc.c ****     /*Initialize the allocated 'ext' */
  71:..\..\..\lvgl\version_6.1.2\lvgl\src\lv_objx/lv_arc.c ****     ext->angle_start = 45;
 100              		.loc 1 71 0 is_stmt 1
ARM GAS  C:\Users\tmj32\AppData\Local\Temp\ccBjJIfd.s 			page 4


 101 005a 3B69     		ldr	r3, [r7, #16]
 102 005c 2D22     		movs	r2, #45
 103 005e 1A80     		strh	r2, [r3]	@ movhi
  72:..\..\..\lvgl\version_6.1.2\lvgl\src\lv_objx/lv_arc.c ****     ext->angle_end   = 315;
 104              		.loc 1 72 0
 105 0060 3B69     		ldr	r3, [r7, #16]
 106 0062 40F23B12 		movw	r2, #315
 107 0066 5A80     		strh	r2, [r3, #2]	@ movhi
  73:..\..\..\lvgl\version_6.1.2\lvgl\src\lv_objx/lv_arc.c **** 
  74:..\..\..\lvgl\version_6.1.2\lvgl\src\lv_objx/lv_arc.c ****     /*The signal and design functions are not copied so set them here*/
  75:..\..\..\lvgl\version_6.1.2\lvgl\src\lv_objx/lv_arc.c ****     lv_obj_set_signal_cb(new_arc, lv_arc_signal);
 108              		.loc 1 75 0
 109 0068 1C49     		ldr	r1, .L11+8
 110 006a 7869     		ldr	r0, [r7, #20]
 111 006c FFF7FEFF 		bl	lv_obj_set_signal_cb
  76:..\..\..\lvgl\version_6.1.2\lvgl\src\lv_objx/lv_arc.c ****     lv_obj_set_design_cb(new_arc, lv_arc_design);
 112              		.loc 1 76 0
 113 0070 1B49     		ldr	r1, .L11+12
 114 0072 7869     		ldr	r0, [r7, #20]
 115 0074 FFF7FEFF 		bl	lv_obj_set_design_cb
  77:..\..\..\lvgl\version_6.1.2\lvgl\src\lv_objx/lv_arc.c **** 
  78:..\..\..\lvgl\version_6.1.2\lvgl\src\lv_objx/lv_arc.c ****     /*Init the new arc arc*/
  79:..\..\..\lvgl\version_6.1.2\lvgl\src\lv_objx/lv_arc.c ****     if(copy == NULL) {
 116              		.loc 1 79 0
 117 0078 3B68     		ldr	r3, [r7]
 118 007a 002B     		cmp	r3, #0
 119 007c 13D1     		bne	.L7
 120              	.LBB2:
  80:..\..\..\lvgl\version_6.1.2\lvgl\src\lv_objx/lv_arc.c ****         /*Set the default styles*/
  81:..\..\..\lvgl\version_6.1.2\lvgl\src\lv_objx/lv_arc.c ****         lv_theme_t * th = lv_theme_get_current();
 121              		.loc 1 81 0
 122 007e FFF7FEFF 		bl	lv_theme_get_current
 123 0082 F860     		str	r0, [r7, #12]
  82:..\..\..\lvgl\version_6.1.2\lvgl\src\lv_objx/lv_arc.c ****         if(th) {
 124              		.loc 1 82 0
 125 0084 FB68     		ldr	r3, [r7, #12]
 126 0086 002B     		cmp	r3, #0
 127 0088 07D0     		beq	.L8
  83:..\..\..\lvgl\version_6.1.2\lvgl\src\lv_objx/lv_arc.c ****             lv_arc_set_style(new_arc, LV_ARC_STYLE_MAIN, th->style.arc);
 128              		.loc 1 83 0
 129 008a FB68     		ldr	r3, [r7, #12]
 130 008c 1B6F     		ldr	r3, [r3, #112]
 131 008e 1A46     		mov	r2, r3
 132 0090 0021     		movs	r1, #0
 133 0092 7869     		ldr	r0, [r7, #20]
 134 0094 FFF7FEFF 		bl	lv_arc_set_style
 135 0098 16E0     		b	.L10
 136              	.L8:
  84:..\..\..\lvgl\version_6.1.2\lvgl\src\lv_objx/lv_arc.c ****         } else {
  85:..\..\..\lvgl\version_6.1.2\lvgl\src\lv_objx/lv_arc.c ****             lv_arc_set_style(new_arc, LV_ARC_STYLE_MAIN, &lv_style_plain_color);
 137              		.loc 1 85 0
 138 009a 124A     		ldr	r2, .L11+16
 139 009c 0021     		movs	r1, #0
 140 009e 7869     		ldr	r0, [r7, #20]
 141 00a0 FFF7FEFF 		bl	lv_arc_set_style
 142 00a4 10E0     		b	.L10
 143              	.L7:
ARM GAS  C:\Users\tmj32\AppData\Local\Temp\ccBjJIfd.s 			page 5


 144              	.LBE2:
 145              	.LBB3:
  86:..\..\..\lvgl\version_6.1.2\lvgl\src\lv_objx/lv_arc.c ****         }
  87:..\..\..\lvgl\version_6.1.2\lvgl\src\lv_objx/lv_arc.c **** 
  88:..\..\..\lvgl\version_6.1.2\lvgl\src\lv_objx/lv_arc.c ****     }
  89:..\..\..\lvgl\version_6.1.2\lvgl\src\lv_objx/lv_arc.c ****     /*Copy an existing arc*/
  90:..\..\..\lvgl\version_6.1.2\lvgl\src\lv_objx/lv_arc.c ****     else {
  91:..\..\..\lvgl\version_6.1.2\lvgl\src\lv_objx/lv_arc.c ****         lv_arc_ext_t * copy_ext = lv_obj_get_ext_attr(copy);
 146              		.loc 1 91 0
 147 00a6 3868     		ldr	r0, [r7]
 148 00a8 FFF7FEFF 		bl	lv_obj_get_ext_attr
 149 00ac B860     		str	r0, [r7, #8]
  92:..\..\..\lvgl\version_6.1.2\lvgl\src\lv_objx/lv_arc.c ****         ext->angle_start        = copy_ext->angle_start;
 150              		.loc 1 92 0
 151 00ae BB68     		ldr	r3, [r7, #8]
 152 00b0 B3F90020 		ldrsh	r2, [r3]
 153 00b4 3B69     		ldr	r3, [r7, #16]
 154 00b6 1A80     		strh	r2, [r3]	@ movhi
  93:..\..\..\lvgl\version_6.1.2\lvgl\src\lv_objx/lv_arc.c ****         ext->angle_end          = copy_ext->angle_end;
 155              		.loc 1 93 0
 156 00b8 BB68     		ldr	r3, [r7, #8]
 157 00ba B3F90220 		ldrsh	r2, [r3, #2]
 158 00be 3B69     		ldr	r3, [r7, #16]
 159 00c0 5A80     		strh	r2, [r3, #2]	@ movhi
  94:..\..\..\lvgl\version_6.1.2\lvgl\src\lv_objx/lv_arc.c **** 
  95:..\..\..\lvgl\version_6.1.2\lvgl\src\lv_objx/lv_arc.c ****         /*Refresh the style with new signal function*/
  96:..\..\..\lvgl\version_6.1.2\lvgl\src\lv_objx/lv_arc.c ****         lv_obj_refresh_style(new_arc);
 160              		.loc 1 96 0
 161 00c2 7869     		ldr	r0, [r7, #20]
 162 00c4 FFF7FEFF 		bl	lv_obj_refresh_style
 163              	.L10:
 164              	.LBE3:
  97:..\..\..\lvgl\version_6.1.2\lvgl\src\lv_objx/lv_arc.c ****     }
  98:..\..\..\lvgl\version_6.1.2\lvgl\src\lv_objx/lv_arc.c **** 
  99:..\..\..\lvgl\version_6.1.2\lvgl\src\lv_objx/lv_arc.c ****     LV_LOG_INFO("arc created");
 100:..\..\..\lvgl\version_6.1.2\lvgl\src\lv_objx/lv_arc.c **** 
 101:..\..\..\lvgl\version_6.1.2\lvgl\src\lv_objx/lv_arc.c ****     return new_arc;
 165              		.loc 1 101 0
 166 00c8 7B69     		ldr	r3, [r7, #20]
 167              	.L3:
 102:..\..\..\lvgl\version_6.1.2\lvgl\src\lv_objx/lv_arc.c **** }
 168              		.loc 1 102 0
 169 00ca 1846     		mov	r0, r3
 170 00cc 1837     		adds	r7, r7, #24
 171              		.cfi_def_cfa_offset 8
 172 00ce BD46     		mov	sp, r7
 173              		.cfi_def_cfa_register 13
 174              		@ sp needed
 175 00d0 80BD     		pop	{r7, pc}
 176              	.L12:
 177 00d2 00BF     		.align	2
 178              	.L11:
 179 00d4 00000000 		.word	ancestor_signal
 180 00d8 04000000 		.word	ancestor_design
 181 00dc 00000000 		.word	lv_arc_signal
 182 00e0 00000000 		.word	lv_arc_design
 183 00e4 00000000 		.word	lv_style_plain_color
ARM GAS  C:\Users\tmj32\AppData\Local\Temp\ccBjJIfd.s 			page 6


 184              		.cfi_endproc
 185              	.LFE31:
 186              		.size	lv_arc_create, .-lv_arc_create
 187              		.section	.text.lv_arc_set_angles,"ax",%progbits
 188              		.align	2
 189              		.global	lv_arc_set_angles
 190              		.thumb
 191              		.thumb_func
 192              		.type	lv_arc_set_angles, %function
 193              	lv_arc_set_angles:
 194              	.LFB32:
 103:..\..\..\lvgl\version_6.1.2\lvgl\src\lv_objx/lv_arc.c **** 
 104:..\..\..\lvgl\version_6.1.2\lvgl\src\lv_objx/lv_arc.c **** /*======================
 105:..\..\..\lvgl\version_6.1.2\lvgl\src\lv_objx/lv_arc.c ****  * Add/remove functions
 106:..\..\..\lvgl\version_6.1.2\lvgl\src\lv_objx/lv_arc.c ****  *=====================*/
 107:..\..\..\lvgl\version_6.1.2\lvgl\src\lv_objx/lv_arc.c **** 
 108:..\..\..\lvgl\version_6.1.2\lvgl\src\lv_objx/lv_arc.c **** /*
 109:..\..\..\lvgl\version_6.1.2\lvgl\src\lv_objx/lv_arc.c ****  * New object specific "add" or "remove" functions come here
 110:..\..\..\lvgl\version_6.1.2\lvgl\src\lv_objx/lv_arc.c ****  */
 111:..\..\..\lvgl\version_6.1.2\lvgl\src\lv_objx/lv_arc.c **** 
 112:..\..\..\lvgl\version_6.1.2\lvgl\src\lv_objx/lv_arc.c **** /*=====================
 113:..\..\..\lvgl\version_6.1.2\lvgl\src\lv_objx/lv_arc.c ****  * Setter functions
 114:..\..\..\lvgl\version_6.1.2\lvgl\src\lv_objx/lv_arc.c ****  *====================*/
 115:..\..\..\lvgl\version_6.1.2\lvgl\src\lv_objx/lv_arc.c **** 
 116:..\..\..\lvgl\version_6.1.2\lvgl\src\lv_objx/lv_arc.c **** /**
 117:..\..\..\lvgl\version_6.1.2\lvgl\src\lv_objx/lv_arc.c ****  * Set the start and end angles of an arc. 0 deg: bottom, 90 deg: right etc.
 118:..\..\..\lvgl\version_6.1.2\lvgl\src\lv_objx/lv_arc.c ****  * @param arc pointer to an arc object
 119:..\..\..\lvgl\version_6.1.2\lvgl\src\lv_objx/lv_arc.c ****  * @param start the start angle [0..360]
 120:..\..\..\lvgl\version_6.1.2\lvgl\src\lv_objx/lv_arc.c ****  * @param end the end angle [0..360]
 121:..\..\..\lvgl\version_6.1.2\lvgl\src\lv_objx/lv_arc.c ****  */
 122:..\..\..\lvgl\version_6.1.2\lvgl\src\lv_objx/lv_arc.c **** void lv_arc_set_angles(lv_obj_t * arc, uint16_t start, uint16_t end)
 123:..\..\..\lvgl\version_6.1.2\lvgl\src\lv_objx/lv_arc.c **** {
 195              		.loc 1 123 0
 196              		.cfi_startproc
 197              		@ args = 0, pretend = 0, frame = 16
 198              		@ frame_needed = 1, uses_anonymous_args = 0
 199 0000 80B5     		push	{r7, lr}
 200              		.cfi_def_cfa_offset 8
 201              		.cfi_offset 7, -8
 202              		.cfi_offset 14, -4
 203 0002 84B0     		sub	sp, sp, #16
 204              		.cfi_def_cfa_offset 24
 205 0004 00AF     		add	r7, sp, #0
 206              		.cfi_def_cfa_register 7
 207 0006 7860     		str	r0, [r7, #4]
 208 0008 0B46     		mov	r3, r1
 209 000a 7B80     		strh	r3, [r7, #2]	@ movhi
 210 000c 1346     		mov	r3, r2	@ movhi
 211 000e 3B80     		strh	r3, [r7]	@ movhi
 124:..\..\..\lvgl\version_6.1.2\lvgl\src\lv_objx/lv_arc.c ****     LV_ASSERT_OBJ(arc, LV_OBJX_NAME);
 125:..\..\..\lvgl\version_6.1.2\lvgl\src\lv_objx/lv_arc.c **** 
 126:..\..\..\lvgl\version_6.1.2\lvgl\src\lv_objx/lv_arc.c ****     lv_arc_ext_t * ext = lv_obj_get_ext_attr(arc);
 212              		.loc 1 126 0
 213 0010 7868     		ldr	r0, [r7, #4]
 214 0012 FFF7FEFF 		bl	lv_obj_get_ext_attr
 215 0016 F860     		str	r0, [r7, #12]
 127:..\..\..\lvgl\version_6.1.2\lvgl\src\lv_objx/lv_arc.c **** 
ARM GAS  C:\Users\tmj32\AppData\Local\Temp\ccBjJIfd.s 			page 7


 128:..\..\..\lvgl\version_6.1.2\lvgl\src\lv_objx/lv_arc.c ****     if(start > 360) start = 360;
 216              		.loc 1 128 0
 217 0018 7B88     		ldrh	r3, [r7, #2]
 218 001a B3F5B47F 		cmp	r3, #360
 219 001e 02D9     		bls	.L14
 220              		.loc 1 128 0 is_stmt 0 discriminator 1
 221 0020 4FF4B473 		mov	r3, #360
 222 0024 7B80     		strh	r3, [r7, #2]	@ movhi
 223              	.L14:
 129:..\..\..\lvgl\version_6.1.2\lvgl\src\lv_objx/lv_arc.c ****     if(end > 360) end = 360;
 224              		.loc 1 129 0 is_stmt 1
 225 0026 3B88     		ldrh	r3, [r7]
 226 0028 B3F5B47F 		cmp	r3, #360
 227 002c 02D9     		bls	.L15
 228              		.loc 1 129 0 is_stmt 0 discriminator 1
 229 002e 4FF4B473 		mov	r3, #360
 230 0032 3B80     		strh	r3, [r7]	@ movhi
 231              	.L15:
 130:..\..\..\lvgl\version_6.1.2\lvgl\src\lv_objx/lv_arc.c **** 
 131:..\..\..\lvgl\version_6.1.2\lvgl\src\lv_objx/lv_arc.c ****     ext->angle_start = start;
 232              		.loc 1 131 0 is_stmt 1
 233 0034 B7F90220 		ldrsh	r2, [r7, #2]
 234 0038 FB68     		ldr	r3, [r7, #12]
 235 003a 1A80     		strh	r2, [r3]	@ movhi
 132:..\..\..\lvgl\version_6.1.2\lvgl\src\lv_objx/lv_arc.c ****     ext->angle_end   = end;
 236              		.loc 1 132 0
 237 003c B7F90020 		ldrsh	r2, [r7]
 238 0040 FB68     		ldr	r3, [r7, #12]
 239 0042 5A80     		strh	r2, [r3, #2]	@ movhi
 133:..\..\..\lvgl\version_6.1.2\lvgl\src\lv_objx/lv_arc.c **** 
 134:..\..\..\lvgl\version_6.1.2\lvgl\src\lv_objx/lv_arc.c ****     lv_obj_invalidate(arc);
 240              		.loc 1 134 0
 241 0044 7868     		ldr	r0, [r7, #4]
 242 0046 FFF7FEFF 		bl	lv_obj_invalidate
 135:..\..\..\lvgl\version_6.1.2\lvgl\src\lv_objx/lv_arc.c **** }
 243              		.loc 1 135 0
 244 004a 00BF     		nop
 245 004c 1037     		adds	r7, r7, #16
 246              		.cfi_def_cfa_offset 8
 247 004e BD46     		mov	sp, r7
 248              		.cfi_def_cfa_register 13
 249              		@ sp needed
 250 0050 80BD     		pop	{r7, pc}
 251              		.cfi_endproc
 252              	.LFE32:
 253              		.size	lv_arc_set_angles, .-lv_arc_set_angles
 254 0052 00BF     		.section	.text.lv_arc_set_style,"ax",%progbits
 255              		.align	2
 256              		.global	lv_arc_set_style
 257              		.thumb
 258              		.thumb_func
 259              		.type	lv_arc_set_style, %function
 260              	lv_arc_set_style:
 261              	.LFB33:
 136:..\..\..\lvgl\version_6.1.2\lvgl\src\lv_objx/lv_arc.c **** 
 137:..\..\..\lvgl\version_6.1.2\lvgl\src\lv_objx/lv_arc.c **** /**
 138:..\..\..\lvgl\version_6.1.2\lvgl\src\lv_objx/lv_arc.c ****  * Set a style of a arc.
ARM GAS  C:\Users\tmj32\AppData\Local\Temp\ccBjJIfd.s 			page 8


 139:..\..\..\lvgl\version_6.1.2\lvgl\src\lv_objx/lv_arc.c ****  * @param arc pointer to arc object
 140:..\..\..\lvgl\version_6.1.2\lvgl\src\lv_objx/lv_arc.c ****  * @param type which style should be set
 141:..\..\..\lvgl\version_6.1.2\lvgl\src\lv_objx/lv_arc.c ****  * @param style pointer to a style
 142:..\..\..\lvgl\version_6.1.2\lvgl\src\lv_objx/lv_arc.c ****  *  */
 143:..\..\..\lvgl\version_6.1.2\lvgl\src\lv_objx/lv_arc.c **** void lv_arc_set_style(lv_obj_t * arc, lv_arc_style_t type, const lv_style_t * style)
 144:..\..\..\lvgl\version_6.1.2\lvgl\src\lv_objx/lv_arc.c **** {
 262              		.loc 1 144 0
 263              		.cfi_startproc
 264              		@ args = 0, pretend = 0, frame = 16
 265              		@ frame_needed = 1, uses_anonymous_args = 0
 266 0000 80B5     		push	{r7, lr}
 267              		.cfi_def_cfa_offset 8
 268              		.cfi_offset 7, -8
 269              		.cfi_offset 14, -4
 270 0002 84B0     		sub	sp, sp, #16
 271              		.cfi_def_cfa_offset 24
 272 0004 00AF     		add	r7, sp, #0
 273              		.cfi_def_cfa_register 7
 274 0006 F860     		str	r0, [r7, #12]
 275 0008 0B46     		mov	r3, r1
 276 000a 7A60     		str	r2, [r7, #4]
 277 000c FB72     		strb	r3, [r7, #11]
 145:..\..\..\lvgl\version_6.1.2\lvgl\src\lv_objx/lv_arc.c ****     LV_ASSERT_OBJ(arc, LV_OBJX_NAME);
 146:..\..\..\lvgl\version_6.1.2\lvgl\src\lv_objx/lv_arc.c **** 
 147:..\..\..\lvgl\version_6.1.2\lvgl\src\lv_objx/lv_arc.c ****     switch(type) {
 278              		.loc 1 147 0
 279 000e FB7A     		ldrb	r3, [r7, #11]	@ zero_extendqisi2
 280 0010 002B     		cmp	r3, #0
 281 0012 00D0     		beq	.L18
 148:..\..\..\lvgl\version_6.1.2\lvgl\src\lv_objx/lv_arc.c ****         case LV_ARC_STYLE_MAIN: lv_obj_set_style(arc, style); break;
 149:..\..\..\lvgl\version_6.1.2\lvgl\src\lv_objx/lv_arc.c ****     }
 150:..\..\..\lvgl\version_6.1.2\lvgl\src\lv_objx/lv_arc.c **** }
 282              		.loc 1 150 0
 283 0014 04E0     		b	.L19
 284              	.L18:
 148:..\..\..\lvgl\version_6.1.2\lvgl\src\lv_objx/lv_arc.c ****         case LV_ARC_STYLE_MAIN: lv_obj_set_style(arc, style); break;
 285              		.loc 1 148 0
 286 0016 7968     		ldr	r1, [r7, #4]
 287 0018 F868     		ldr	r0, [r7, #12]
 288 001a FFF7FEFF 		bl	lv_obj_set_style
 289 001e 00BF     		nop
 290              	.L19:
 291              		.loc 1 150 0
 292 0020 00BF     		nop
 293 0022 1037     		adds	r7, r7, #16
 294              		.cfi_def_cfa_offset 8
 295 0024 BD46     		mov	sp, r7
 296              		.cfi_def_cfa_register 13
 297              		@ sp needed
 298 0026 80BD     		pop	{r7, pc}
 299              		.cfi_endproc
 300              	.LFE33:
 301              		.size	lv_arc_set_style, .-lv_arc_set_style
 302              		.section	.text.lv_arc_get_angle_start,"ax",%progbits
 303              		.align	2
 304              		.global	lv_arc_get_angle_start
 305              		.thumb
ARM GAS  C:\Users\tmj32\AppData\Local\Temp\ccBjJIfd.s 			page 9


 306              		.thumb_func
 307              		.type	lv_arc_get_angle_start, %function
 308              	lv_arc_get_angle_start:
 309              	.LFB34:
 151:..\..\..\lvgl\version_6.1.2\lvgl\src\lv_objx/lv_arc.c **** 
 152:..\..\..\lvgl\version_6.1.2\lvgl\src\lv_objx/lv_arc.c **** /*=====================
 153:..\..\..\lvgl\version_6.1.2\lvgl\src\lv_objx/lv_arc.c ****  * Getter functions
 154:..\..\..\lvgl\version_6.1.2\lvgl\src\lv_objx/lv_arc.c ****  *====================*/
 155:..\..\..\lvgl\version_6.1.2\lvgl\src\lv_objx/lv_arc.c **** 
 156:..\..\..\lvgl\version_6.1.2\lvgl\src\lv_objx/lv_arc.c **** /**
 157:..\..\..\lvgl\version_6.1.2\lvgl\src\lv_objx/lv_arc.c ****  * Get the start angle of an arc.
 158:..\..\..\lvgl\version_6.1.2\lvgl\src\lv_objx/lv_arc.c ****  * @param arc pointer to an arc object
 159:..\..\..\lvgl\version_6.1.2\lvgl\src\lv_objx/lv_arc.c ****  * @return the start angle [0..360]
 160:..\..\..\lvgl\version_6.1.2\lvgl\src\lv_objx/lv_arc.c ****  */
 161:..\..\..\lvgl\version_6.1.2\lvgl\src\lv_objx/lv_arc.c **** uint16_t lv_arc_get_angle_start(lv_obj_t * arc)
 162:..\..\..\lvgl\version_6.1.2\lvgl\src\lv_objx/lv_arc.c **** {
 310              		.loc 1 162 0
 311              		.cfi_startproc
 312              		@ args = 0, pretend = 0, frame = 16
 313              		@ frame_needed = 1, uses_anonymous_args = 0
 314 0000 80B5     		push	{r7, lr}
 315              		.cfi_def_cfa_offset 8
 316              		.cfi_offset 7, -8
 317              		.cfi_offset 14, -4
 318 0002 84B0     		sub	sp, sp, #16
 319              		.cfi_def_cfa_offset 24
 320 0004 00AF     		add	r7, sp, #0
 321              		.cfi_def_cfa_register 7
 322 0006 7860     		str	r0, [r7, #4]
 163:..\..\..\lvgl\version_6.1.2\lvgl\src\lv_objx/lv_arc.c ****     LV_ASSERT_OBJ(arc, LV_OBJX_NAME);
 164:..\..\..\lvgl\version_6.1.2\lvgl\src\lv_objx/lv_arc.c **** 
 165:..\..\..\lvgl\version_6.1.2\lvgl\src\lv_objx/lv_arc.c ****     lv_arc_ext_t * ext = lv_obj_get_ext_attr(arc);
 323              		.loc 1 165 0
 324 0008 7868     		ldr	r0, [r7, #4]
 325 000a FFF7FEFF 		bl	lv_obj_get_ext_attr
 326 000e F860     		str	r0, [r7, #12]
 166:..\..\..\lvgl\version_6.1.2\lvgl\src\lv_objx/lv_arc.c **** 
 167:..\..\..\lvgl\version_6.1.2\lvgl\src\lv_objx/lv_arc.c ****     return ext->angle_start;
 327              		.loc 1 167 0
 328 0010 FB68     		ldr	r3, [r7, #12]
 329 0012 B3F90030 		ldrsh	r3, [r3]
 330 0016 9BB2     		uxth	r3, r3
 168:..\..\..\lvgl\version_6.1.2\lvgl\src\lv_objx/lv_arc.c **** }
 331              		.loc 1 168 0
 332 0018 1846     		mov	r0, r3
 333 001a 1037     		adds	r7, r7, #16
 334              		.cfi_def_cfa_offset 8
 335 001c BD46     		mov	sp, r7
 336              		.cfi_def_cfa_register 13
 337              		@ sp needed
 338 001e 80BD     		pop	{r7, pc}
 339              		.cfi_endproc
 340              	.LFE34:
 341              		.size	lv_arc_get_angle_start, .-lv_arc_get_angle_start
 342              		.section	.text.lv_arc_get_angle_end,"ax",%progbits
 343              		.align	2
 344              		.global	lv_arc_get_angle_end
ARM GAS  C:\Users\tmj32\AppData\Local\Temp\ccBjJIfd.s 			page 10


 345              		.thumb
 346              		.thumb_func
 347              		.type	lv_arc_get_angle_end, %function
 348              	lv_arc_get_angle_end:
 349              	.LFB35:
 169:..\..\..\lvgl\version_6.1.2\lvgl\src\lv_objx/lv_arc.c **** 
 170:..\..\..\lvgl\version_6.1.2\lvgl\src\lv_objx/lv_arc.c **** /**
 171:..\..\..\lvgl\version_6.1.2\lvgl\src\lv_objx/lv_arc.c ****  * Get the end angle of an arc.
 172:..\..\..\lvgl\version_6.1.2\lvgl\src\lv_objx/lv_arc.c ****  * @param arc pointer to an arc object
 173:..\..\..\lvgl\version_6.1.2\lvgl\src\lv_objx/lv_arc.c ****  * @return the end angle [0..360]
 174:..\..\..\lvgl\version_6.1.2\lvgl\src\lv_objx/lv_arc.c ****  */
 175:..\..\..\lvgl\version_6.1.2\lvgl\src\lv_objx/lv_arc.c **** uint16_t lv_arc_get_angle_end(lv_obj_t * arc)
 176:..\..\..\lvgl\version_6.1.2\lvgl\src\lv_objx/lv_arc.c **** {
 350              		.loc 1 176 0
 351              		.cfi_startproc
 352              		@ args = 0, pretend = 0, frame = 16
 353              		@ frame_needed = 1, uses_anonymous_args = 0
 354 0000 80B5     		push	{r7, lr}
 355              		.cfi_def_cfa_offset 8
 356              		.cfi_offset 7, -8
 357              		.cfi_offset 14, -4
 358 0002 84B0     		sub	sp, sp, #16
 359              		.cfi_def_cfa_offset 24
 360 0004 00AF     		add	r7, sp, #0
 361              		.cfi_def_cfa_register 7
 362 0006 7860     		str	r0, [r7, #4]
 177:..\..\..\lvgl\version_6.1.2\lvgl\src\lv_objx/lv_arc.c ****     LV_ASSERT_OBJ(arc, LV_OBJX_NAME);
 178:..\..\..\lvgl\version_6.1.2\lvgl\src\lv_objx/lv_arc.c **** 
 179:..\..\..\lvgl\version_6.1.2\lvgl\src\lv_objx/lv_arc.c ****     lv_arc_ext_t * ext = lv_obj_get_ext_attr(arc);
 363              		.loc 1 179 0
 364 0008 7868     		ldr	r0, [r7, #4]
 365 000a FFF7FEFF 		bl	lv_obj_get_ext_attr
 366 000e F860     		str	r0, [r7, #12]
 180:..\..\..\lvgl\version_6.1.2\lvgl\src\lv_objx/lv_arc.c **** 
 181:..\..\..\lvgl\version_6.1.2\lvgl\src\lv_objx/lv_arc.c ****     return ext->angle_end;
 367              		.loc 1 181 0
 368 0010 FB68     		ldr	r3, [r7, #12]
 369 0012 B3F90230 		ldrsh	r3, [r3, #2]
 370 0016 9BB2     		uxth	r3, r3
 182:..\..\..\lvgl\version_6.1.2\lvgl\src\lv_objx/lv_arc.c **** }
 371              		.loc 1 182 0
 372 0018 1846     		mov	r0, r3
 373 001a 1037     		adds	r7, r7, #16
 374              		.cfi_def_cfa_offset 8
 375 001c BD46     		mov	sp, r7
 376              		.cfi_def_cfa_register 13
 377              		@ sp needed
 378 001e 80BD     		pop	{r7, pc}
 379              		.cfi_endproc
 380              	.LFE35:
 381              		.size	lv_arc_get_angle_end, .-lv_arc_get_angle_end
 382              		.section	.text.lv_arc_get_style,"ax",%progbits
 383              		.align	2
 384              		.global	lv_arc_get_style
 385              		.thumb
 386              		.thumb_func
 387              		.type	lv_arc_get_style, %function
ARM GAS  C:\Users\tmj32\AppData\Local\Temp\ccBjJIfd.s 			page 11


 388              	lv_arc_get_style:
 389              	.LFB36:
 183:..\..\..\lvgl\version_6.1.2\lvgl\src\lv_objx/lv_arc.c **** 
 184:..\..\..\lvgl\version_6.1.2\lvgl\src\lv_objx/lv_arc.c **** /**
 185:..\..\..\lvgl\version_6.1.2\lvgl\src\lv_objx/lv_arc.c ****  * Get style of a arc.
 186:..\..\..\lvgl\version_6.1.2\lvgl\src\lv_objx/lv_arc.c ****  * @param arc pointer to arc object
 187:..\..\..\lvgl\version_6.1.2\lvgl\src\lv_objx/lv_arc.c ****  * @param type which style should be get
 188:..\..\..\lvgl\version_6.1.2\lvgl\src\lv_objx/lv_arc.c ****  * @return style pointer to the style
 189:..\..\..\lvgl\version_6.1.2\lvgl\src\lv_objx/lv_arc.c ****  *  */
 190:..\..\..\lvgl\version_6.1.2\lvgl\src\lv_objx/lv_arc.c **** const lv_style_t * lv_arc_get_style(const lv_obj_t * arc, lv_arc_style_t type)
 191:..\..\..\lvgl\version_6.1.2\lvgl\src\lv_objx/lv_arc.c **** {
 390              		.loc 1 191 0
 391              		.cfi_startproc
 392              		@ args = 0, pretend = 0, frame = 16
 393              		@ frame_needed = 1, uses_anonymous_args = 0
 394 0000 80B5     		push	{r7, lr}
 395              		.cfi_def_cfa_offset 8
 396              		.cfi_offset 7, -8
 397              		.cfi_offset 14, -4
 398 0002 84B0     		sub	sp, sp, #16
 399              		.cfi_def_cfa_offset 24
 400 0004 00AF     		add	r7, sp, #0
 401              		.cfi_def_cfa_register 7
 402 0006 7860     		str	r0, [r7, #4]
 403 0008 0B46     		mov	r3, r1
 404 000a FB70     		strb	r3, [r7, #3]
 192:..\..\..\lvgl\version_6.1.2\lvgl\src\lv_objx/lv_arc.c ****     LV_ASSERT_OBJ(arc, LV_OBJX_NAME);
 193:..\..\..\lvgl\version_6.1.2\lvgl\src\lv_objx/lv_arc.c **** 
 194:..\..\..\lvgl\version_6.1.2\lvgl\src\lv_objx/lv_arc.c ****     const lv_style_t * style = NULL;
 405              		.loc 1 194 0
 406 000c 0023     		movs	r3, #0
 407 000e FB60     		str	r3, [r7, #12]
 195:..\..\..\lvgl\version_6.1.2\lvgl\src\lv_objx/lv_arc.c **** 
 196:..\..\..\lvgl\version_6.1.2\lvgl\src\lv_objx/lv_arc.c ****     switch(type) {
 408              		.loc 1 196 0
 409 0010 FB78     		ldrb	r3, [r7, #3]	@ zero_extendqisi2
 410 0012 002B     		cmp	r3, #0
 411 0014 04D1     		bne	.L29
 197:..\..\..\lvgl\version_6.1.2\lvgl\src\lv_objx/lv_arc.c ****         case LV_ARC_STYLE_MAIN: style = lv_obj_get_style(arc); break;
 412              		.loc 1 197 0
 413 0016 7868     		ldr	r0, [r7, #4]
 414 0018 FFF7FEFF 		bl	lv_obj_get_style
 415 001c F860     		str	r0, [r7, #12]
 416 001e 02E0     		b	.L27
 417              	.L29:
 198:..\..\..\lvgl\version_6.1.2\lvgl\src\lv_objx/lv_arc.c ****         default: style = NULL; break;
 418              		.loc 1 198 0
 419 0020 0023     		movs	r3, #0
 420 0022 FB60     		str	r3, [r7, #12]
 421 0024 00BF     		nop
 422              	.L27:
 199:..\..\..\lvgl\version_6.1.2\lvgl\src\lv_objx/lv_arc.c ****     }
 200:..\..\..\lvgl\version_6.1.2\lvgl\src\lv_objx/lv_arc.c **** 
 201:..\..\..\lvgl\version_6.1.2\lvgl\src\lv_objx/lv_arc.c ****     return style;
 423              		.loc 1 201 0
 424 0026 FB68     		ldr	r3, [r7, #12]
 202:..\..\..\lvgl\version_6.1.2\lvgl\src\lv_objx/lv_arc.c **** }
ARM GAS  C:\Users\tmj32\AppData\Local\Temp\ccBjJIfd.s 			page 12


 425              		.loc 1 202 0
 426 0028 1846     		mov	r0, r3
 427 002a 1037     		adds	r7, r7, #16
 428              		.cfi_def_cfa_offset 8
 429 002c BD46     		mov	sp, r7
 430              		.cfi_def_cfa_register 13
 431              		@ sp needed
 432 002e 80BD     		pop	{r7, pc}
 433              		.cfi_endproc
 434              	.LFE36:
 435              		.size	lv_arc_get_style, .-lv_arc_get_style
 436              		.section	.text.lv_arc_design,"ax",%progbits
 437              		.align	2
 438              		.thumb
 439              		.thumb_func
 440              		.type	lv_arc_design, %function
 441              	lv_arc_design:
 442              	.LFB37:
 203:..\..\..\lvgl\version_6.1.2\lvgl\src\lv_objx/lv_arc.c **** 
 204:..\..\..\lvgl\version_6.1.2\lvgl\src\lv_objx/lv_arc.c **** /*=====================
 205:..\..\..\lvgl\version_6.1.2\lvgl\src\lv_objx/lv_arc.c ****  * Other functions
 206:..\..\..\lvgl\version_6.1.2\lvgl\src\lv_objx/lv_arc.c ****  *====================*/
 207:..\..\..\lvgl\version_6.1.2\lvgl\src\lv_objx/lv_arc.c **** 
 208:..\..\..\lvgl\version_6.1.2\lvgl\src\lv_objx/lv_arc.c **** /*
 209:..\..\..\lvgl\version_6.1.2\lvgl\src\lv_objx/lv_arc.c ****  * New object specific "other" functions come here
 210:..\..\..\lvgl\version_6.1.2\lvgl\src\lv_objx/lv_arc.c ****  */
 211:..\..\..\lvgl\version_6.1.2\lvgl\src\lv_objx/lv_arc.c **** 
 212:..\..\..\lvgl\version_6.1.2\lvgl\src\lv_objx/lv_arc.c **** /**********************
 213:..\..\..\lvgl\version_6.1.2\lvgl\src\lv_objx/lv_arc.c ****  *   STATIC FUNCTIONS
 214:..\..\..\lvgl\version_6.1.2\lvgl\src\lv_objx/lv_arc.c ****  **********************/
 215:..\..\..\lvgl\version_6.1.2\lvgl\src\lv_objx/lv_arc.c **** 
 216:..\..\..\lvgl\version_6.1.2\lvgl\src\lv_objx/lv_arc.c **** /**
 217:..\..\..\lvgl\version_6.1.2\lvgl\src\lv_objx/lv_arc.c ****  * Handle the drawing related tasks of the arcs
 218:..\..\..\lvgl\version_6.1.2\lvgl\src\lv_objx/lv_arc.c ****  * @param arc pointer to an object
 219:..\..\..\lvgl\version_6.1.2\lvgl\src\lv_objx/lv_arc.c ****  * @param mask the object will be drawn only in this area
 220:..\..\..\lvgl\version_6.1.2\lvgl\src\lv_objx/lv_arc.c ****  * @param mode LV_DESIGN_COVER_CHK: only check if the object fully covers the 'mask_p' area
 221:..\..\..\lvgl\version_6.1.2\lvgl\src\lv_objx/lv_arc.c ****  *                                  (return 'true' if yes)
 222:..\..\..\lvgl\version_6.1.2\lvgl\src\lv_objx/lv_arc.c ****  *             LV_DESIGN_DRAW: draw the object (always return 'true')
 223:..\..\..\lvgl\version_6.1.2\lvgl\src\lv_objx/lv_arc.c ****  *             LV_DESIGN_DRAW_POST: drawing after every children are drawn
 224:..\..\..\lvgl\version_6.1.2\lvgl\src\lv_objx/lv_arc.c ****  * @param return true/false, depends on 'mode'
 225:..\..\..\lvgl\version_6.1.2\lvgl\src\lv_objx/lv_arc.c ****  */
 226:..\..\..\lvgl\version_6.1.2\lvgl\src\lv_objx/lv_arc.c **** static bool lv_arc_design(lv_obj_t * arc, const lv_area_t * mask, lv_design_mode_t mode)
 227:..\..\..\lvgl\version_6.1.2\lvgl\src\lv_objx/lv_arc.c **** {
 443              		.loc 1 227 0
 444              		.cfi_startproc
 445              		@ args = 0, pretend = 0, frame = 128
 446              		@ frame_needed = 1, uses_anonymous_args = 0
 447 0000 B0B5     		push	{r4, r5, r7, lr}
 448              		.cfi_def_cfa_offset 16
 449              		.cfi_offset 4, -16
 450              		.cfi_offset 5, -12
 451              		.cfi_offset 7, -8
 452              		.cfi_offset 14, -4
 453 0002 A4B0     		sub	sp, sp, #144
 454              		.cfi_def_cfa_offset 160
 455 0004 04AF     		add	r7, sp, #16
 456              		.cfi_def_cfa 7, 144
ARM GAS  C:\Users\tmj32\AppData\Local\Temp\ccBjJIfd.s 			page 13


 457 0006 F860     		str	r0, [r7, #12]
 458 0008 B960     		str	r1, [r7, #8]
 459 000a 1346     		mov	r3, r2
 460 000c FB71     		strb	r3, [r7, #7]
 228:..\..\..\lvgl\version_6.1.2\lvgl\src\lv_objx/lv_arc.c ****     /*Return false if the object is not covers the mask_p area*/
 229:..\..\..\lvgl\version_6.1.2\lvgl\src\lv_objx/lv_arc.c ****     if(mode == LV_DESIGN_COVER_CHK) {
 461              		.loc 1 229 0
 462 000e FB79     		ldrb	r3, [r7, #7]	@ zero_extendqisi2
 463 0010 022B     		cmp	r3, #2
 464 0012 01D1     		bne	.L31
 230:..\..\..\lvgl\version_6.1.2\lvgl\src\lv_objx/lv_arc.c ****         return false;
 465              		.loc 1 230 0
 466 0014 0023     		movs	r3, #0
 467 0016 52E1     		b	.L32
 468              	.L31:
 231:..\..\..\lvgl\version_6.1.2\lvgl\src\lv_objx/lv_arc.c ****     }
 232:..\..\..\lvgl\version_6.1.2\lvgl\src\lv_objx/lv_arc.c ****     /*Draw the object*/
 233:..\..\..\lvgl\version_6.1.2\lvgl\src\lv_objx/lv_arc.c ****     else if(mode == LV_DESIGN_DRAW_MAIN) {
 469              		.loc 1 233 0
 470 0018 FB79     		ldrb	r3, [r7, #7]	@ zero_extendqisi2
 471 001a 002B     		cmp	r3, #0
 472 001c 40F04E81 		bne	.L33
 473              	.LBB4:
 234:..\..\..\lvgl\version_6.1.2\lvgl\src\lv_objx/lv_arc.c ****         lv_arc_ext_t * ext       = lv_obj_get_ext_attr(arc);
 474              		.loc 1 234 0
 475 0020 F868     		ldr	r0, [r7, #12]
 476 0022 FFF7FEFF 		bl	lv_obj_get_ext_attr
 477 0026 F867     		str	r0, [r7, #124]
 235:..\..\..\lvgl\version_6.1.2\lvgl\src\lv_objx/lv_arc.c ****         const lv_style_t * style = lv_arc_get_style(arc, LV_ARC_STYLE_MAIN);
 478              		.loc 1 235 0
 479 0028 0021     		movs	r1, #0
 480 002a F868     		ldr	r0, [r7, #12]
 481 002c FFF7FEFF 		bl	lv_arc_get_style
 482 0030 B867     		str	r0, [r7, #120]
 236:..\..\..\lvgl\version_6.1.2\lvgl\src\lv_objx/lv_arc.c **** 
 237:..\..\..\lvgl\version_6.1.2\lvgl\src\lv_objx/lv_arc.c ****         lv_coord_t r       = (LV_MATH_MIN(lv_obj_get_width(arc), lv_obj_get_height(arc))) / 2;
 483              		.loc 1 237 0
 484 0032 F868     		ldr	r0, [r7, #12]
 485 0034 FFF7FEFF 		bl	lv_obj_get_width
 486 0038 0346     		mov	r3, r0
 487 003a 1C46     		mov	r4, r3
 488 003c F868     		ldr	r0, [r7, #12]
 489 003e FFF7FEFF 		bl	lv_obj_get_height
 490 0042 0346     		mov	r3, r0
 491 0044 9C42     		cmp	r4, r3
 492 0046 08DA     		bge	.L34
 493              		.loc 1 237 0 is_stmt 0 discriminator 1
 494 0048 F868     		ldr	r0, [r7, #12]
 495 004a FFF7FEFF 		bl	lv_obj_get_width
 496 004e 0346     		mov	r3, r0
 497 0050 DA0F     		lsrs	r2, r3, #31
 498 0052 1344     		add	r3, r3, r2
 499 0054 5B10     		asrs	r3, r3, #1
 500 0056 1BB2     		sxth	r3, r3
 501 0058 07E0     		b	.L35
 502              	.L34:
 503              		.loc 1 237 0 discriminator 2
ARM GAS  C:\Users\tmj32\AppData\Local\Temp\ccBjJIfd.s 			page 14


 504 005a F868     		ldr	r0, [r7, #12]
 505 005c FFF7FEFF 		bl	lv_obj_get_height
 506 0060 0346     		mov	r3, r0
 507 0062 DA0F     		lsrs	r2, r3, #31
 508 0064 1344     		add	r3, r3, r2
 509 0066 5B10     		asrs	r3, r3, #1
 510 0068 1BB2     		sxth	r3, r3
 511              	.L35:
 512              		.loc 1 237 0 discriminator 4
 513 006a A7F87630 		strh	r3, [r7, #118]	@ movhi
 238:..\..\..\lvgl\version_6.1.2\lvgl\src\lv_objx/lv_arc.c ****         lv_coord_t x       = arc->coords.x1 + lv_obj_get_width(arc) / 2;
 514              		.loc 1 238 0 is_stmt 1 discriminator 4
 515 006e FB68     		ldr	r3, [r7, #12]
 516 0070 B3F91030 		ldrsh	r3, [r3, #16]
 517 0074 9CB2     		uxth	r4, r3
 518 0076 F868     		ldr	r0, [r7, #12]
 519 0078 FFF7FEFF 		bl	lv_obj_get_width
 520 007c 0346     		mov	r3, r0
 521 007e DA0F     		lsrs	r2, r3, #31
 522 0080 1344     		add	r3, r3, r2
 523 0082 5B10     		asrs	r3, r3, #1
 524 0084 1BB2     		sxth	r3, r3
 525 0086 9BB2     		uxth	r3, r3
 526 0088 2344     		add	r3, r3, r4
 527 008a 9BB2     		uxth	r3, r3
 528 008c A7F87430 		strh	r3, [r7, #116]	@ movhi
 239:..\..\..\lvgl\version_6.1.2\lvgl\src\lv_objx/lv_arc.c ****         lv_coord_t y       = arc->coords.y1 + lv_obj_get_height(arc) / 2;
 529              		.loc 1 239 0 discriminator 4
 530 0090 FB68     		ldr	r3, [r7, #12]
 531 0092 B3F91230 		ldrsh	r3, [r3, #18]
 532 0096 9CB2     		uxth	r4, r3
 533 0098 F868     		ldr	r0, [r7, #12]
 534 009a FFF7FEFF 		bl	lv_obj_get_height
 535 009e 0346     		mov	r3, r0
 536 00a0 DA0F     		lsrs	r2, r3, #31
 537 00a2 1344     		add	r3, r3, r2
 538 00a4 5B10     		asrs	r3, r3, #1
 539 00a6 1BB2     		sxth	r3, r3
 540 00a8 9BB2     		uxth	r3, r3
 541 00aa 2344     		add	r3, r3, r4
 542 00ac 9BB2     		uxth	r3, r3
 543 00ae A7F87230 		strh	r3, [r7, #114]	@ movhi
 240:..\..\..\lvgl\version_6.1.2\lvgl\src\lv_objx/lv_arc.c ****         lv_opa_t opa_scale = lv_obj_get_opa_scale(arc);
 544              		.loc 1 240 0 discriminator 4
 545 00b2 F868     		ldr	r0, [r7, #12]
 546 00b4 FFF7FEFF 		bl	lv_obj_get_opa_scale
 547 00b8 0346     		mov	r3, r0
 548 00ba 87F87130 		strb	r3, [r7, #113]
 241:..\..\..\lvgl\version_6.1.2\lvgl\src\lv_objx/lv_arc.c ****         lv_draw_arc(x, y, r, mask, ext->angle_start, ext->angle_end, style, opa_scale);
 549              		.loc 1 241 0 discriminator 4
 550 00be B7F87650 		ldrh	r5, [r7, #118]
 551 00c2 FB6F     		ldr	r3, [r7, #124]
 552 00c4 B3F90030 		ldrsh	r3, [r3]
 553 00c8 9BB2     		uxth	r3, r3
 554 00ca FA6F     		ldr	r2, [r7, #124]
 555 00cc B2F90220 		ldrsh	r2, [r2, #2]
 556 00d0 92B2     		uxth	r2, r2
ARM GAS  C:\Users\tmj32\AppData\Local\Temp\ccBjJIfd.s 			page 15


 557 00d2 B7F97240 		ldrsh	r4, [r7, #114]
 558 00d6 B7F97400 		ldrsh	r0, [r7, #116]
 559 00da 97F87110 		ldrb	r1, [r7, #113]	@ zero_extendqisi2
 560 00de 0391     		str	r1, [sp, #12]
 561 00e0 B96F     		ldr	r1, [r7, #120]
 562 00e2 0291     		str	r1, [sp, #8]
 563 00e4 0192     		str	r2, [sp, #4]
 564 00e6 0093     		str	r3, [sp]
 565 00e8 BB68     		ldr	r3, [r7, #8]
 566 00ea 2A46     		mov	r2, r5
 567 00ec 2146     		mov	r1, r4
 568 00ee FFF7FEFF 		bl	lv_draw_arc
 242:..\..\..\lvgl\version_6.1.2\lvgl\src\lv_objx/lv_arc.c **** 
 243:..\..\..\lvgl\version_6.1.2\lvgl\src\lv_objx/lv_arc.c ****         /*Draw circle on the ends if enabled */
 244:..\..\..\lvgl\version_6.1.2\lvgl\src\lv_objx/lv_arc.c ****         if(style->line.rounded) {
 569              		.loc 1 244 0 discriminator 4
 570 00f2 BB6F     		ldr	r3, [r7, #120]
 571 00f4 93F84F30 		ldrb	r3, [r3, #79]	@ zero_extendqisi2
 572 00f8 03F00103 		and	r3, r3, #1
 573 00fc DBB2     		uxtb	r3, r3
 574 00fe 002B     		cmp	r3, #0
 575 0100 00F0DC80 		beq	.L33
 576              	.LBB5:
 245:..\..\..\lvgl\version_6.1.2\lvgl\src\lv_objx/lv_arc.c ****             lv_coord_t thick_half = style->line.width / 2;
 577              		.loc 1 245 0
 578 0104 BB6F     		ldr	r3, [r7, #120]
 579 0106 B3F94C30 		ldrsh	r3, [r3, #76]
 580 010a DA0F     		lsrs	r2, r3, #31
 581 010c 1344     		add	r3, r3, r2
 582 010e 5B10     		asrs	r3, r3, #1
 583 0110 A7F86E30 		strh	r3, [r7, #110]	@ movhi
 246:..\..\..\lvgl\version_6.1.2\lvgl\src\lv_objx/lv_arc.c ****             lv_coord_t cir_x      = ((r - thick_half) * lv_trigo_sin(ext->angle_start) >> LV_TRIGO_
 584              		.loc 1 246 0
 585 0114 B7F97620 		ldrsh	r2, [r7, #118]
 586 0118 B7F96E30 		ldrsh	r3, [r7, #110]
 587 011c D41A     		subs	r4, r2, r3
 588 011e FB6F     		ldr	r3, [r7, #124]
 589 0120 B3F90030 		ldrsh	r3, [r3]
 590 0124 1846     		mov	r0, r3
 591 0126 FFF7FEFF 		bl	lv_trigo_sin
 592 012a 0346     		mov	r3, r0
 593 012c 03FB04F3 		mul	r3, r3, r4
 594 0130 DB13     		asrs	r3, r3, #15
 595 0132 A7F86C30 		strh	r3, [r7, #108]	@ movhi
 247:..\..\..\lvgl\version_6.1.2\lvgl\src\lv_objx/lv_arc.c ****             lv_coord_t cir_y      = ((r - thick_half) * lv_trigo_sin(ext->angle_start + 90) >> LV_T
 596              		.loc 1 247 0
 597 0136 B7F97620 		ldrsh	r2, [r7, #118]
 598 013a B7F96E30 		ldrsh	r3, [r7, #110]
 599 013e D41A     		subs	r4, r2, r3
 600 0140 FB6F     		ldr	r3, [r7, #124]
 601 0142 B3F90030 		ldrsh	r3, [r3]
 602 0146 9BB2     		uxth	r3, r3
 603 0148 5A33     		adds	r3, r3, #90
 604 014a 9BB2     		uxth	r3, r3
 605 014c 1BB2     		sxth	r3, r3
 606 014e 1846     		mov	r0, r3
 607 0150 FFF7FEFF 		bl	lv_trigo_sin
ARM GAS  C:\Users\tmj32\AppData\Local\Temp\ccBjJIfd.s 			page 16


 608 0154 0346     		mov	r3, r0
 609 0156 03FB04F3 		mul	r3, r3, r4
 610 015a DB13     		asrs	r3, r3, #15
 611 015c A7F86A30 		strh	r3, [r7, #106]	@ movhi
 248:..\..\..\lvgl\version_6.1.2\lvgl\src\lv_objx/lv_arc.c **** 
 249:..\..\..\lvgl\version_6.1.2\lvgl\src\lv_objx/lv_arc.c ****             lv_style_t cir_style;
 250:..\..\..\lvgl\version_6.1.2\lvgl\src\lv_objx/lv_arc.c ****             lv_style_copy(&cir_style, &lv_style_plain);
 612              		.loc 1 250 0
 613 0160 07F11003 		add	r3, r7, #16
 614 0164 5849     		ldr	r1, .L37
 615 0166 1846     		mov	r0, r3
 616 0168 FFF7FEFF 		bl	lv_style_copy
 251:..\..\..\lvgl\version_6.1.2\lvgl\src\lv_objx/lv_arc.c ****             cir_style.body.grad_color = style->line.color;
 617              		.loc 1 251 0
 618 016c BB6F     		ldr	r3, [r7, #120]
 619 016e 9B6C     		ldr	r3, [r3, #72]
 620 0170 BB61     		str	r3, [r7, #24]
 252:..\..\..\lvgl\version_6.1.2\lvgl\src\lv_objx/lv_arc.c ****             cir_style.body.main_color = cir_style.body.grad_color;
 621              		.loc 1 252 0
 622 0172 BB69     		ldr	r3, [r7, #24]
 623 0174 7B61     		str	r3, [r7, #20]
 253:..\..\..\lvgl\version_6.1.2\lvgl\src\lv_objx/lv_arc.c ****             cir_style.body.radius     = LV_RADIUS_CIRCLE;
 624              		.loc 1 253 0
 625 0176 47F61843 		movw	r3, #31768
 626 017a BB83     		strh	r3, [r7, #28]	@ movhi
 254:..\..\..\lvgl\version_6.1.2\lvgl\src\lv_objx/lv_arc.c ****             lv_area_t cir_area;
 255:..\..\..\lvgl\version_6.1.2\lvgl\src\lv_objx/lv_arc.c ****             cir_area.x1 = cir_x + x - thick_half;
 627              		.loc 1 255 0
 628 017c B7F86C20 		ldrh	r2, [r7, #108]
 629 0180 B7F87430 		ldrh	r3, [r7, #116]
 630 0184 1344     		add	r3, r3, r2
 631 0186 9AB2     		uxth	r2, r3
 632 0188 B7F86E30 		ldrh	r3, [r7, #110]
 633 018c D31A     		subs	r3, r2, r3
 634 018e 9BB2     		uxth	r3, r3
 635 0190 1BB2     		sxth	r3, r3
 636 0192 A7F86030 		strh	r3, [r7, #96]	@ movhi
 256:..\..\..\lvgl\version_6.1.2\lvgl\src\lv_objx/lv_arc.c ****             cir_area.y1 = cir_y + y - thick_half;
 637              		.loc 1 256 0
 638 0196 B7F86A20 		ldrh	r2, [r7, #106]
 639 019a B7F87230 		ldrh	r3, [r7, #114]
 640 019e 1344     		add	r3, r3, r2
 641 01a0 9AB2     		uxth	r2, r3
 642 01a2 B7F86E30 		ldrh	r3, [r7, #110]
 643 01a6 D31A     		subs	r3, r2, r3
 644 01a8 9BB2     		uxth	r3, r3
 645 01aa 1BB2     		sxth	r3, r3
 646 01ac A7F86230 		strh	r3, [r7, #98]	@ movhi
 257:..\..\..\lvgl\version_6.1.2\lvgl\src\lv_objx/lv_arc.c ****             cir_area.x2 = cir_x + x + thick_half;
 647              		.loc 1 257 0
 648 01b0 B7F86C20 		ldrh	r2, [r7, #108]
 649 01b4 B7F87430 		ldrh	r3, [r7, #116]
 650 01b8 1344     		add	r3, r3, r2
 651 01ba 9AB2     		uxth	r2, r3
 652 01bc B7F86E30 		ldrh	r3, [r7, #110]
 653 01c0 1344     		add	r3, r3, r2
 654 01c2 9BB2     		uxth	r3, r3
ARM GAS  C:\Users\tmj32\AppData\Local\Temp\ccBjJIfd.s 			page 17


 655 01c4 1BB2     		sxth	r3, r3
 656 01c6 A7F86430 		strh	r3, [r7, #100]	@ movhi
 258:..\..\..\lvgl\version_6.1.2\lvgl\src\lv_objx/lv_arc.c ****             cir_area.y2 = cir_y + y + thick_half;
 657              		.loc 1 258 0
 658 01ca B7F86A20 		ldrh	r2, [r7, #106]
 659 01ce B7F87230 		ldrh	r3, [r7, #114]
 660 01d2 1344     		add	r3, r3, r2
 661 01d4 9AB2     		uxth	r2, r3
 662 01d6 B7F86E30 		ldrh	r3, [r7, #110]
 663 01da 1344     		add	r3, r3, r2
 664 01dc 9BB2     		uxth	r3, r3
 665 01de 1BB2     		sxth	r3, r3
 666 01e0 A7F86630 		strh	r3, [r7, #102]	@ movhi
 259:..\..\..\lvgl\version_6.1.2\lvgl\src\lv_objx/lv_arc.c **** 
 260:..\..\..\lvgl\version_6.1.2\lvgl\src\lv_objx/lv_arc.c ****             lv_draw_rect(&cir_area, mask, &cir_style, opa_scale);
 667              		.loc 1 260 0
 668 01e4 97F87130 		ldrb	r3, [r7, #113]	@ zero_extendqisi2
 669 01e8 07F11002 		add	r2, r7, #16
 670 01ec 07F16000 		add	r0, r7, #96
 671 01f0 B968     		ldr	r1, [r7, #8]
 672 01f2 FFF7FEFF 		bl	lv_draw_rect
 261:..\..\..\lvgl\version_6.1.2\lvgl\src\lv_objx/lv_arc.c **** 
 262:..\..\..\lvgl\version_6.1.2\lvgl\src\lv_objx/lv_arc.c ****             cir_x = ((r - thick_half) * lv_trigo_sin(ext->angle_end) >> LV_TRIGO_SHIFT);
 673              		.loc 1 262 0
 674 01f6 B7F97620 		ldrsh	r2, [r7, #118]
 675 01fa B7F96E30 		ldrsh	r3, [r7, #110]
 676 01fe D41A     		subs	r4, r2, r3
 677 0200 FB6F     		ldr	r3, [r7, #124]
 678 0202 B3F90230 		ldrsh	r3, [r3, #2]
 679 0206 1846     		mov	r0, r3
 680 0208 FFF7FEFF 		bl	lv_trigo_sin
 681 020c 0346     		mov	r3, r0
 682 020e 03FB04F3 		mul	r3, r3, r4
 683 0212 DB13     		asrs	r3, r3, #15
 684 0214 A7F86C30 		strh	r3, [r7, #108]	@ movhi
 263:..\..\..\lvgl\version_6.1.2\lvgl\src\lv_objx/lv_arc.c ****             cir_y = ((r - thick_half) * lv_trigo_sin(ext->angle_end + 90) >> LV_TRIGO_SHIFT);
 685              		.loc 1 263 0
 686 0218 B7F97620 		ldrsh	r2, [r7, #118]
 687 021c B7F96E30 		ldrsh	r3, [r7, #110]
 688 0220 D41A     		subs	r4, r2, r3
 689 0222 FB6F     		ldr	r3, [r7, #124]
 690 0224 B3F90230 		ldrsh	r3, [r3, #2]
 691 0228 9BB2     		uxth	r3, r3
 692 022a 5A33     		adds	r3, r3, #90
 693 022c 9BB2     		uxth	r3, r3
 694 022e 1BB2     		sxth	r3, r3
 695 0230 1846     		mov	r0, r3
 696 0232 FFF7FEFF 		bl	lv_trigo_sin
 697 0236 0346     		mov	r3, r0
 698 0238 03FB04F3 		mul	r3, r3, r4
 699 023c DB13     		asrs	r3, r3, #15
 700 023e A7F86A30 		strh	r3, [r7, #106]	@ movhi
 264:..\..\..\lvgl\version_6.1.2\lvgl\src\lv_objx/lv_arc.c **** 
 265:..\..\..\lvgl\version_6.1.2\lvgl\src\lv_objx/lv_arc.c ****             cir_area.x1 = cir_x + x - thick_half;
 701              		.loc 1 265 0
 702 0242 B7F86C20 		ldrh	r2, [r7, #108]
 703 0246 B7F87430 		ldrh	r3, [r7, #116]
ARM GAS  C:\Users\tmj32\AppData\Local\Temp\ccBjJIfd.s 			page 18


 704 024a 1344     		add	r3, r3, r2
 705 024c 9AB2     		uxth	r2, r3
 706 024e B7F86E30 		ldrh	r3, [r7, #110]
 707 0252 D31A     		subs	r3, r2, r3
 708 0254 9BB2     		uxth	r3, r3
 709 0256 1BB2     		sxth	r3, r3
 710 0258 A7F86030 		strh	r3, [r7, #96]	@ movhi
 266:..\..\..\lvgl\version_6.1.2\lvgl\src\lv_objx/lv_arc.c ****             cir_area.y1 = cir_y + y - thick_half;
 711              		.loc 1 266 0
 712 025c B7F86A20 		ldrh	r2, [r7, #106]
 713 0260 B7F87230 		ldrh	r3, [r7, #114]
 714 0264 1344     		add	r3, r3, r2
 715 0266 9AB2     		uxth	r2, r3
 716 0268 B7F86E30 		ldrh	r3, [r7, #110]
 717 026c D31A     		subs	r3, r2, r3
 718 026e 9BB2     		uxth	r3, r3
 719 0270 1BB2     		sxth	r3, r3
 720 0272 A7F86230 		strh	r3, [r7, #98]	@ movhi
 267:..\..\..\lvgl\version_6.1.2\lvgl\src\lv_objx/lv_arc.c ****             cir_area.x2 = cir_x + x + thick_half;
 721              		.loc 1 267 0
 722 0276 B7F86C20 		ldrh	r2, [r7, #108]
 723 027a B7F87430 		ldrh	r3, [r7, #116]
 724 027e 1344     		add	r3, r3, r2
 725 0280 9AB2     		uxth	r2, r3
 726 0282 B7F86E30 		ldrh	r3, [r7, #110]
 727 0286 1344     		add	r3, r3, r2
 728 0288 9BB2     		uxth	r3, r3
 729 028a 1BB2     		sxth	r3, r3
 730 028c A7F86430 		strh	r3, [r7, #100]	@ movhi
 268:..\..\..\lvgl\version_6.1.2\lvgl\src\lv_objx/lv_arc.c ****             cir_area.y2 = cir_y + y + thick_half;
 731              		.loc 1 268 0
 732 0290 B7F86A20 		ldrh	r2, [r7, #106]
 733 0294 B7F87230 		ldrh	r3, [r7, #114]
 734 0298 1344     		add	r3, r3, r2
 735 029a 9AB2     		uxth	r2, r3
 736 029c B7F86E30 		ldrh	r3, [r7, #110]
 737 02a0 1344     		add	r3, r3, r2
 738 02a2 9BB2     		uxth	r3, r3
 739 02a4 1BB2     		sxth	r3, r3
 740 02a6 A7F86630 		strh	r3, [r7, #102]	@ movhi
 269:..\..\..\lvgl\version_6.1.2\lvgl\src\lv_objx/lv_arc.c **** 
 270:..\..\..\lvgl\version_6.1.2\lvgl\src\lv_objx/lv_arc.c ****             lv_draw_rect(&cir_area, mask, &cir_style, opa_scale);
 741              		.loc 1 270 0
 742 02aa 97F87130 		ldrb	r3, [r7, #113]	@ zero_extendqisi2
 743 02ae 07F11002 		add	r2, r7, #16
 744 02b2 07F16000 		add	r0, r7, #96
 745 02b6 B968     		ldr	r1, [r7, #8]
 746 02b8 FFF7FEFF 		bl	lv_draw_rect
 747              	.L33:
 748              	.LBE5:
 749              	.LBE4:
 271:..\..\..\lvgl\version_6.1.2\lvgl\src\lv_objx/lv_arc.c ****         }
 272:..\..\..\lvgl\version_6.1.2\lvgl\src\lv_objx/lv_arc.c **** 
 273:..\..\..\lvgl\version_6.1.2\lvgl\src\lv_objx/lv_arc.c ****     }
 274:..\..\..\lvgl\version_6.1.2\lvgl\src\lv_objx/lv_arc.c ****     /*Post draw when the children are drawn*/
 275:..\..\..\lvgl\version_6.1.2\lvgl\src\lv_objx/lv_arc.c ****     else if(mode == LV_DESIGN_DRAW_POST) {
 276:..\..\..\lvgl\version_6.1.2\lvgl\src\lv_objx/lv_arc.c ****     }
ARM GAS  C:\Users\tmj32\AppData\Local\Temp\ccBjJIfd.s 			page 19


 277:..\..\..\lvgl\version_6.1.2\lvgl\src\lv_objx/lv_arc.c **** 
 278:..\..\..\lvgl\version_6.1.2\lvgl\src\lv_objx/lv_arc.c ****     return true;
 750              		.loc 1 278 0
 751 02bc 0123     		movs	r3, #1
 752              	.L32:
 279:..\..\..\lvgl\version_6.1.2\lvgl\src\lv_objx/lv_arc.c **** }
 753              		.loc 1 279 0
 754 02be 1846     		mov	r0, r3
 755 02c0 8037     		adds	r7, r7, #128
 756              		.cfi_def_cfa_offset 16
 757 02c2 BD46     		mov	sp, r7
 758              		.cfi_def_cfa_register 13
 759              		@ sp needed
 760 02c4 B0BD     		pop	{r4, r5, r7, pc}
 761              	.L38:
 762 02c6 00BF     		.align	2
 763              	.L37:
 764 02c8 00000000 		.word	lv_style_plain
 765              		.cfi_endproc
 766              	.LFE37:
 767              		.size	lv_arc_design, .-lv_arc_design
 768              		.section	.rodata
 769              		.align	2
 770              	.LC0:
 771 0000 6C765F61 		.ascii	"lv_arc\000"
 771      726300
 772              		.section	.text.lv_arc_signal,"ax",%progbits
 773              		.align	2
 774              		.thumb
 775              		.thumb_func
 776              		.type	lv_arc_signal, %function
 777              	lv_arc_signal:
 778              	.LFB38:
 280:..\..\..\lvgl\version_6.1.2\lvgl\src\lv_objx/lv_arc.c **** 
 281:..\..\..\lvgl\version_6.1.2\lvgl\src\lv_objx/lv_arc.c **** /**
 282:..\..\..\lvgl\version_6.1.2\lvgl\src\lv_objx/lv_arc.c ****  * Signal function of the arc
 283:..\..\..\lvgl\version_6.1.2\lvgl\src\lv_objx/lv_arc.c ****  * @param arc pointer to a arc object
 284:..\..\..\lvgl\version_6.1.2\lvgl\src\lv_objx/lv_arc.c ****  * @param sign a signal type from lv_signal_t enum
 285:..\..\..\lvgl\version_6.1.2\lvgl\src\lv_objx/lv_arc.c ****  * @param param pointer to a signal specific variable
 286:..\..\..\lvgl\version_6.1.2\lvgl\src\lv_objx/lv_arc.c ****  * @return LV_RES_OK: the object is not deleted in the function; LV_RES_INV: the object is deleted
 287:..\..\..\lvgl\version_6.1.2\lvgl\src\lv_objx/lv_arc.c ****  */
 288:..\..\..\lvgl\version_6.1.2\lvgl\src\lv_objx/lv_arc.c **** static lv_res_t lv_arc_signal(lv_obj_t * arc, lv_signal_t sign, void * param)
 289:..\..\..\lvgl\version_6.1.2\lvgl\src\lv_objx/lv_arc.c **** {
 779              		.loc 1 289 0
 780              		.cfi_startproc
 781              		@ args = 0, pretend = 0, frame = 24
 782              		@ frame_needed = 1, uses_anonymous_args = 0
 783 0000 80B5     		push	{r7, lr}
 784              		.cfi_def_cfa_offset 8
 785              		.cfi_offset 7, -8
 786              		.cfi_offset 14, -4
 787 0002 86B0     		sub	sp, sp, #24
 788              		.cfi_def_cfa_offset 32
 789 0004 00AF     		add	r7, sp, #0
 790              		.cfi_def_cfa_register 7
 791 0006 F860     		str	r0, [r7, #12]
 792 0008 0B46     		mov	r3, r1
ARM GAS  C:\Users\tmj32\AppData\Local\Temp\ccBjJIfd.s 			page 20


 793 000a 7A60     		str	r2, [r7, #4]
 794 000c FB72     		strb	r3, [r7, #11]
 290:..\..\..\lvgl\version_6.1.2\lvgl\src\lv_objx/lv_arc.c ****     lv_res_t res;
 291:..\..\..\lvgl\version_6.1.2\lvgl\src\lv_objx/lv_arc.c **** 
 292:..\..\..\lvgl\version_6.1.2\lvgl\src\lv_objx/lv_arc.c ****     /* Include the ancient signal function */
 293:..\..\..\lvgl\version_6.1.2\lvgl\src\lv_objx/lv_arc.c ****     res = ancestor_signal(arc, sign, param);
 795              		.loc 1 293 0
 796 000e 0D4B     		ldr	r3, .L43
 797 0010 1B68     		ldr	r3, [r3]
 798 0012 F97A     		ldrb	r1, [r7, #11]	@ zero_extendqisi2
 799 0014 7A68     		ldr	r2, [r7, #4]
 800 0016 F868     		ldr	r0, [r7, #12]
 801 0018 9847     		blx	r3
 802 001a 0346     		mov	r3, r0
 803 001c FB75     		strb	r3, [r7, #23]
 294:..\..\..\lvgl\version_6.1.2\lvgl\src\lv_objx/lv_arc.c ****     if(res != LV_RES_OK) return res;
 804              		.loc 1 294 0
 805 001e FB7D     		ldrb	r3, [r7, #23]	@ zero_extendqisi2
 806 0020 012B     		cmp	r3, #1
 807 0022 01D0     		beq	.L40
 808              		.loc 1 294 0 is_stmt 0 discriminator 1
 809 0024 FB7D     		ldrb	r3, [r7, #23]	@ zero_extendqisi2
 810 0026 09E0     		b	.L41
 811              	.L40:
 295:..\..\..\lvgl\version_6.1.2\lvgl\src\lv_objx/lv_arc.c **** 
 296:..\..\..\lvgl\version_6.1.2\lvgl\src\lv_objx/lv_arc.c ****     if(sign == LV_SIGNAL_GET_TYPE) return lv_obj_handle_get_type_signal(param, LV_OBJX_NAME);
 812              		.loc 1 296 0 is_stmt 1
 813 0028 FB7A     		ldrb	r3, [r7, #11]	@ zero_extendqisi2
 814 002a 072B     		cmp	r3, #7
 815 002c 05D1     		bne	.L42
 816              		.loc 1 296 0 is_stmt 0 discriminator 1
 817 002e 0649     		ldr	r1, .L43+4
 818 0030 7868     		ldr	r0, [r7, #4]
 819 0032 FFF7FEFF 		bl	lv_obj_handle_get_type_signal
 820 0036 0346     		mov	r3, r0
 821 0038 00E0     		b	.L41
 822              	.L42:
 297:..\..\..\lvgl\version_6.1.2\lvgl\src\lv_objx/lv_arc.c **** 
 298:..\..\..\lvgl\version_6.1.2\lvgl\src\lv_objx/lv_arc.c ****     if(sign == LV_SIGNAL_CLEANUP) {
 299:..\..\..\lvgl\version_6.1.2\lvgl\src\lv_objx/lv_arc.c ****         /*Nothing to cleanup. (No dynamically allocated memory in 'ext')*/
 300:..\..\..\lvgl\version_6.1.2\lvgl\src\lv_objx/lv_arc.c ****     }
 301:..\..\..\lvgl\version_6.1.2\lvgl\src\lv_objx/lv_arc.c **** 
 302:..\..\..\lvgl\version_6.1.2\lvgl\src\lv_objx/lv_arc.c ****     return res;
 823              		.loc 1 302 0 is_stmt 1
 824 003a FB7D     		ldrb	r3, [r7, #23]	@ zero_extendqisi2
 825              	.L41:
 303:..\..\..\lvgl\version_6.1.2\lvgl\src\lv_objx/lv_arc.c **** }
 826              		.loc 1 303 0
 827 003c 1846     		mov	r0, r3
 828 003e 1837     		adds	r7, r7, #24
 829              		.cfi_def_cfa_offset 8
 830 0040 BD46     		mov	sp, r7
 831              		.cfi_def_cfa_register 13
 832              		@ sp needed
 833 0042 80BD     		pop	{r7, pc}
 834              	.L44:
 835              		.align	2
ARM GAS  C:\Users\tmj32\AppData\Local\Temp\ccBjJIfd.s 			page 21


 836              	.L43:
 837 0044 00000000 		.word	ancestor_signal
 838 0048 00000000 		.word	.LC0
 839              		.cfi_endproc
 840              	.LFE38:
 841              		.size	lv_arc_signal, .-lv_arc_signal
 842              		.text
 843              	.Letext0:
 844              		.file 2 "c:\\program files (x86)\\cypress\\psoc creator\\4.3\\psoc creator\\import\\gnu\\arm\\5.4.
 845              		.file 3 "c:\\program files (x86)\\cypress\\psoc creator\\4.3\\psoc creator\\import\\gnu\\arm\\5.4.
 846              		.file 4 "..\\..\\..\\lvgl\\version_6.1.2\\lvgl\\src\\lv_objx\\../../../lv_conf.h"
 847              		.file 5 "..\\..\\..\\lvgl\\version_6.1.2\\lvgl\\src\\lv_objx\\../lv_core/../lv_font/lv_font.h"
 848              		.file 6 "..\\..\\..\\lvgl\\version_6.1.2\\lvgl\\src\\lv_objx\\../lv_core/../lv_misc/lv_color.h"
 849              		.file 7 "..\\..\\..\\lvgl\\version_6.1.2\\lvgl\\src\\lv_objx\\../lv_core/../lv_misc/lv_area.h"
 850              		.file 8 "..\\..\\..\\lvgl\\version_6.1.2\\lvgl\\src\\lv_objx\\../lv_core/lv_style.h"
 851              		.file 9 "..\\..\\..\\lvgl\\version_6.1.2\\lvgl\\src\\lv_objx\\../lv_core/../lv_misc/lv_types.h"
 852              		.file 10 "..\\..\\..\\lvgl\\version_6.1.2\\lvgl\\src\\lv_objx\\../lv_core/../lv_misc/lv_ll.h"
 853              		.file 11 "..\\..\\..\\lvgl\\version_6.1.2\\lvgl\\src\\lv_objx\\../lv_core/../lv_misc/lv_bidi.h"
 854              		.file 12 "..\\..\\..\\lvgl\\version_6.1.2\\lvgl\\src\\lv_objx\\../lv_core/lv_obj.h"
 855              		.file 13 "..\\..\\..\\lvgl\\version_6.1.2\\lvgl\\src\\lv_objx\\lv_arc.h"
 856              		.file 14 "..\\..\\..\\lvgl\\version_6.1.2\\lvgl\\src\\lv_objx\\../lv_themes/lv_theme.h"