ARM GAS  C:\Users\tmj32\AppData\Local\Temp\ccS9z4Wj.s 			page 1


   1              		.syntax unified
   2              		.cpu cortex-m4
   3              		.eabi_attribute 27, 1
   4              		.fpu fpv4-sp-d16
   5              		.eabi_attribute 20, 1
   6              		.eabi_attribute 21, 1
   7              		.eabi_attribute 23, 3
   8              		.eabi_attribute 24, 1
   9              		.eabi_attribute 25, 1
  10              		.eabi_attribute 26, 1
  11              		.eabi_attribute 30, 6
  12              		.eabi_attribute 34, 1
  13              		.eabi_attribute 18, 4
  14              		.thumb
  15              		.syntax unified
  16              		.file	"lv_area.c"
  17              		.text
  18              	.Ltext0:
  19              		.cfi_sections	.debug_frame
  20              		.section	.text.lv_area_get_width,"ax",%progbits
  21              		.align	2
  22              		.thumb
  23              		.thumb_func
  24              		.type	lv_area_get_width, %function
  25              	lv_area_get_width:
  26              	.LFB1:
  27              		.file 1 "..\\..\\..\\lvgl\\version_6.1.2\\lvgl\\src\\lv_misc\\lv_area.h"
   1:..\..\..\lvgl\version_6.1.2\lvgl\src\lv_misc/lv_area.h **** /**
   2:..\..\..\lvgl\version_6.1.2\lvgl\src\lv_misc/lv_area.h ****  * @file lv_area.h
   3:..\..\..\lvgl\version_6.1.2\lvgl\src\lv_misc/lv_area.h ****  *
   4:..\..\..\lvgl\version_6.1.2\lvgl\src\lv_misc/lv_area.h ****  */
   5:..\..\..\lvgl\version_6.1.2\lvgl\src\lv_misc/lv_area.h **** 
   6:..\..\..\lvgl\version_6.1.2\lvgl\src\lv_misc/lv_area.h **** #ifndef LV_AREA_H
   7:..\..\..\lvgl\version_6.1.2\lvgl\src\lv_misc/lv_area.h **** #define LV_AREA_H
   8:..\..\..\lvgl\version_6.1.2\lvgl\src\lv_misc/lv_area.h **** 
   9:..\..\..\lvgl\version_6.1.2\lvgl\src\lv_misc/lv_area.h **** #ifdef __cplusplus
  10:..\..\..\lvgl\version_6.1.2\lvgl\src\lv_misc/lv_area.h **** extern "C" {
  11:..\..\..\lvgl\version_6.1.2\lvgl\src\lv_misc/lv_area.h **** #endif
  12:..\..\..\lvgl\version_6.1.2\lvgl\src\lv_misc/lv_area.h **** 
  13:..\..\..\lvgl\version_6.1.2\lvgl\src\lv_misc/lv_area.h **** /*********************
  14:..\..\..\lvgl\version_6.1.2\lvgl\src\lv_misc/lv_area.h ****  *      INCLUDES
  15:..\..\..\lvgl\version_6.1.2\lvgl\src\lv_misc/lv_area.h ****  *********************/
  16:..\..\..\lvgl\version_6.1.2\lvgl\src\lv_misc/lv_area.h **** #include <string.h>
  17:..\..\..\lvgl\version_6.1.2\lvgl\src\lv_misc/lv_area.h **** #include <stdbool.h>
  18:..\..\..\lvgl\version_6.1.2\lvgl\src\lv_misc/lv_area.h **** #include <stdint.h>
  19:..\..\..\lvgl\version_6.1.2\lvgl\src\lv_misc/lv_area.h **** #ifdef LV_CONF_INCLUDE_SIMPLE
  20:..\..\..\lvgl\version_6.1.2\lvgl\src\lv_misc/lv_area.h **** #include "lv_conf.h"
  21:..\..\..\lvgl\version_6.1.2\lvgl\src\lv_misc/lv_area.h **** #else
  22:..\..\..\lvgl\version_6.1.2\lvgl\src\lv_misc/lv_area.h **** #include "../../../lv_conf.h"
  23:..\..\..\lvgl\version_6.1.2\lvgl\src\lv_misc/lv_area.h **** #endif
  24:..\..\..\lvgl\version_6.1.2\lvgl\src\lv_misc/lv_area.h **** 
  25:..\..\..\lvgl\version_6.1.2\lvgl\src\lv_misc/lv_area.h **** /*********************
  26:..\..\..\lvgl\version_6.1.2\lvgl\src\lv_misc/lv_area.h ****  *      DEFINES
  27:..\..\..\lvgl\version_6.1.2\lvgl\src\lv_misc/lv_area.h ****  *********************/
  28:..\..\..\lvgl\version_6.1.2\lvgl\src\lv_misc/lv_area.h **** /*To avoid overflow don't let the max ranges (reduce with 1000) */
  29:..\..\..\lvgl\version_6.1.2\lvgl\src\lv_misc/lv_area.h **** #define LV_COORD_MAX ((lv_coord_t)((uint32_t)((uint32_t)1 << (8 * sizeof(lv_coord_t) - 1)) - 1000))
  30:..\..\..\lvgl\version_6.1.2\lvgl\src\lv_misc/lv_area.h **** #define LV_COORD_MIN (-LV_COORD_MAX)
ARM GAS  C:\Users\tmj32\AppData\Local\Temp\ccS9z4Wj.s 			page 2


  31:..\..\..\lvgl\version_6.1.2\lvgl\src\lv_misc/lv_area.h **** 
  32:..\..\..\lvgl\version_6.1.2\lvgl\src\lv_misc/lv_area.h **** LV_EXPORT_CONST_INT(LV_COORD_MAX);
  33:..\..\..\lvgl\version_6.1.2\lvgl\src\lv_misc/lv_area.h **** LV_EXPORT_CONST_INT(LV_COORD_MIN);
  34:..\..\..\lvgl\version_6.1.2\lvgl\src\lv_misc/lv_area.h **** 
  35:..\..\..\lvgl\version_6.1.2\lvgl\src\lv_misc/lv_area.h **** /**********************
  36:..\..\..\lvgl\version_6.1.2\lvgl\src\lv_misc/lv_area.h ****  *      TYPEDEFS
  37:..\..\..\lvgl\version_6.1.2\lvgl\src\lv_misc/lv_area.h ****  **********************/
  38:..\..\..\lvgl\version_6.1.2\lvgl\src\lv_misc/lv_area.h **** 
  39:..\..\..\lvgl\version_6.1.2\lvgl\src\lv_misc/lv_area.h **** /**
  40:..\..\..\lvgl\version_6.1.2\lvgl\src\lv_misc/lv_area.h ****  * Represents a point on the screen.
  41:..\..\..\lvgl\version_6.1.2\lvgl\src\lv_misc/lv_area.h ****  */
  42:..\..\..\lvgl\version_6.1.2\lvgl\src\lv_misc/lv_area.h **** typedef struct
  43:..\..\..\lvgl\version_6.1.2\lvgl\src\lv_misc/lv_area.h **** {
  44:..\..\..\lvgl\version_6.1.2\lvgl\src\lv_misc/lv_area.h ****     lv_coord_t x;
  45:..\..\..\lvgl\version_6.1.2\lvgl\src\lv_misc/lv_area.h ****     lv_coord_t y;
  46:..\..\..\lvgl\version_6.1.2\lvgl\src\lv_misc/lv_area.h **** } lv_point_t;
  47:..\..\..\lvgl\version_6.1.2\lvgl\src\lv_misc/lv_area.h **** 
  48:..\..\..\lvgl\version_6.1.2\lvgl\src\lv_misc/lv_area.h **** /** Represents an area of the screen. */
  49:..\..\..\lvgl\version_6.1.2\lvgl\src\lv_misc/lv_area.h **** typedef struct
  50:..\..\..\lvgl\version_6.1.2\lvgl\src\lv_misc/lv_area.h **** {
  51:..\..\..\lvgl\version_6.1.2\lvgl\src\lv_misc/lv_area.h ****     lv_coord_t x1;
  52:..\..\..\lvgl\version_6.1.2\lvgl\src\lv_misc/lv_area.h ****     lv_coord_t y1;
  53:..\..\..\lvgl\version_6.1.2\lvgl\src\lv_misc/lv_area.h ****     lv_coord_t x2;
  54:..\..\..\lvgl\version_6.1.2\lvgl\src\lv_misc/lv_area.h ****     lv_coord_t y2;
  55:..\..\..\lvgl\version_6.1.2\lvgl\src\lv_misc/lv_area.h **** } lv_area_t;
  56:..\..\..\lvgl\version_6.1.2\lvgl\src\lv_misc/lv_area.h **** 
  57:..\..\..\lvgl\version_6.1.2\lvgl\src\lv_misc/lv_area.h **** /**********************
  58:..\..\..\lvgl\version_6.1.2\lvgl\src\lv_misc/lv_area.h ****  * GLOBAL PROTOTYPES
  59:..\..\..\lvgl\version_6.1.2\lvgl\src\lv_misc/lv_area.h ****  **********************/
  60:..\..\..\lvgl\version_6.1.2\lvgl\src\lv_misc/lv_area.h **** 
  61:..\..\..\lvgl\version_6.1.2\lvgl\src\lv_misc/lv_area.h **** /**
  62:..\..\..\lvgl\version_6.1.2\lvgl\src\lv_misc/lv_area.h ****  * Initialize an area
  63:..\..\..\lvgl\version_6.1.2\lvgl\src\lv_misc/lv_area.h ****  * @param area_p pointer to an area
  64:..\..\..\lvgl\version_6.1.2\lvgl\src\lv_misc/lv_area.h ****  * @param x1 left coordinate of the area
  65:..\..\..\lvgl\version_6.1.2\lvgl\src\lv_misc/lv_area.h ****  * @param y1 top coordinate of the area
  66:..\..\..\lvgl\version_6.1.2\lvgl\src\lv_misc/lv_area.h ****  * @param x2 right coordinate of the area
  67:..\..\..\lvgl\version_6.1.2\lvgl\src\lv_misc/lv_area.h ****  * @param y2 bottom coordinate of the area
  68:..\..\..\lvgl\version_6.1.2\lvgl\src\lv_misc/lv_area.h ****  */
  69:..\..\..\lvgl\version_6.1.2\lvgl\src\lv_misc/lv_area.h **** void lv_area_set(lv_area_t * area_p, lv_coord_t x1, lv_coord_t y1, lv_coord_t x2, lv_coord_t y2);
  70:..\..\..\lvgl\version_6.1.2\lvgl\src\lv_misc/lv_area.h **** 
  71:..\..\..\lvgl\version_6.1.2\lvgl\src\lv_misc/lv_area.h **** /**
  72:..\..\..\lvgl\version_6.1.2\lvgl\src\lv_misc/lv_area.h ****  * Copy an area
  73:..\..\..\lvgl\version_6.1.2\lvgl\src\lv_misc/lv_area.h ****  * @param dest pointer to the destination area
  74:..\..\..\lvgl\version_6.1.2\lvgl\src\lv_misc/lv_area.h ****  * @param src pointer to the source area
  75:..\..\..\lvgl\version_6.1.2\lvgl\src\lv_misc/lv_area.h ****  */
  76:..\..\..\lvgl\version_6.1.2\lvgl\src\lv_misc/lv_area.h **** inline static void lv_area_copy(lv_area_t * dest, const lv_area_t * src)
  77:..\..\..\lvgl\version_6.1.2\lvgl\src\lv_misc/lv_area.h **** {
  78:..\..\..\lvgl\version_6.1.2\lvgl\src\lv_misc/lv_area.h ****     memcpy(dest, src, sizeof(lv_area_t));
  79:..\..\..\lvgl\version_6.1.2\lvgl\src\lv_misc/lv_area.h **** }
  80:..\..\..\lvgl\version_6.1.2\lvgl\src\lv_misc/lv_area.h **** 
  81:..\..\..\lvgl\version_6.1.2\lvgl\src\lv_misc/lv_area.h **** /**
  82:..\..\..\lvgl\version_6.1.2\lvgl\src\lv_misc/lv_area.h ****  * Get the width of an area
  83:..\..\..\lvgl\version_6.1.2\lvgl\src\lv_misc/lv_area.h ****  * @param area_p pointer to an area
  84:..\..\..\lvgl\version_6.1.2\lvgl\src\lv_misc/lv_area.h ****  * @return the width of the area (if x1 == x2 -> width = 1)
  85:..\..\..\lvgl\version_6.1.2\lvgl\src\lv_misc/lv_area.h ****  */
  86:..\..\..\lvgl\version_6.1.2\lvgl\src\lv_misc/lv_area.h **** static inline lv_coord_t lv_area_get_width(const lv_area_t * area_p)
  87:..\..\..\lvgl\version_6.1.2\lvgl\src\lv_misc/lv_area.h **** {
ARM GAS  C:\Users\tmj32\AppData\Local\Temp\ccS9z4Wj.s 			page 3


  28              		.loc 1 87 0
  29              		.cfi_startproc
  30              		@ args = 0, pretend = 0, frame = 8
  31              		@ frame_needed = 1, uses_anonymous_args = 0
  32              		@ link register save eliminated.
  33 0000 80B4     		push	{r7}
  34              		.cfi_def_cfa_offset 4
  35              		.cfi_offset 7, -4
  36 0002 83B0     		sub	sp, sp, #12
  37              		.cfi_def_cfa_offset 16
  38 0004 00AF     		add	r7, sp, #0
  39              		.cfi_def_cfa_register 7
  40 0006 7860     		str	r0, [r7, #4]
  88:..\..\..\lvgl\version_6.1.2\lvgl\src\lv_misc/lv_area.h ****     return (lv_coord_t)(area_p->x2 - area_p->x1 + 1);
  41              		.loc 1 88 0
  42 0008 7B68     		ldr	r3, [r7, #4]
  43 000a B3F90430 		ldrsh	r3, [r3, #4]
  44 000e 9AB2     		uxth	r2, r3
  45 0010 7B68     		ldr	r3, [r7, #4]
  46 0012 B3F90030 		ldrsh	r3, [r3]
  47 0016 9BB2     		uxth	r3, r3
  48 0018 D31A     		subs	r3, r2, r3
  49 001a 9BB2     		uxth	r3, r3
  50 001c 0133     		adds	r3, r3, #1
  51 001e 9BB2     		uxth	r3, r3
  52 0020 1BB2     		sxth	r3, r3
  89:..\..\..\lvgl\version_6.1.2\lvgl\src\lv_misc/lv_area.h **** }
  53              		.loc 1 89 0
  54 0022 1846     		mov	r0, r3
  55 0024 0C37     		adds	r7, r7, #12
  56              		.cfi_def_cfa_offset 4
  57 0026 BD46     		mov	sp, r7
  58              		.cfi_def_cfa_register 13
  59              		@ sp needed
  60 0028 5DF8047B 		ldr	r7, [sp], #4
  61              		.cfi_restore 7
  62              		.cfi_def_cfa_offset 0
  63 002c 7047     		bx	lr
  64              		.cfi_endproc
  65              	.LFE1:
  66              		.size	lv_area_get_width, .-lv_area_get_width
  67 002e 00BF     		.section	.text.lv_area_get_height,"ax",%progbits
  68              		.align	2
  69              		.thumb
  70              		.thumb_func
  71              		.type	lv_area_get_height, %function
  72              	lv_area_get_height:
  73              	.LFB2:
  90:..\..\..\lvgl\version_6.1.2\lvgl\src\lv_misc/lv_area.h **** 
  91:..\..\..\lvgl\version_6.1.2\lvgl\src\lv_misc/lv_area.h **** /**
  92:..\..\..\lvgl\version_6.1.2\lvgl\src\lv_misc/lv_area.h ****  * Get the height of an area
  93:..\..\..\lvgl\version_6.1.2\lvgl\src\lv_misc/lv_area.h ****  * @param area_p pointer to an area
  94:..\..\..\lvgl\version_6.1.2\lvgl\src\lv_misc/lv_area.h ****  * @return the height of the area (if y1 == y2 -> height = 1)
  95:..\..\..\lvgl\version_6.1.2\lvgl\src\lv_misc/lv_area.h ****  */
  96:..\..\..\lvgl\version_6.1.2\lvgl\src\lv_misc/lv_area.h **** static inline lv_coord_t lv_area_get_height(const lv_area_t * area_p)
  97:..\..\..\lvgl\version_6.1.2\lvgl\src\lv_misc/lv_area.h **** {
  74              		.loc 1 97 0
ARM GAS  C:\Users\tmj32\AppData\Local\Temp\ccS9z4Wj.s 			page 4


  75              		.cfi_startproc
  76              		@ args = 0, pretend = 0, frame = 8
  77              		@ frame_needed = 1, uses_anonymous_args = 0
  78              		@ link register save eliminated.
  79 0000 80B4     		push	{r7}
  80              		.cfi_def_cfa_offset 4
  81              		.cfi_offset 7, -4
  82 0002 83B0     		sub	sp, sp, #12
  83              		.cfi_def_cfa_offset 16
  84 0004 00AF     		add	r7, sp, #0
  85              		.cfi_def_cfa_register 7
  86 0006 7860     		str	r0, [r7, #4]
  98:..\..\..\lvgl\version_6.1.2\lvgl\src\lv_misc/lv_area.h ****     return (lv_coord_t)(area_p->y2 - area_p->y1 + 1);
  87              		.loc 1 98 0
  88 0008 7B68     		ldr	r3, [r7, #4]
  89 000a B3F90630 		ldrsh	r3, [r3, #6]
  90 000e 9AB2     		uxth	r2, r3
  91 0010 7B68     		ldr	r3, [r7, #4]
  92 0012 B3F90230 		ldrsh	r3, [r3, #2]
  93 0016 9BB2     		uxth	r3, r3
  94 0018 D31A     		subs	r3, r2, r3
  95 001a 9BB2     		uxth	r3, r3
  96 001c 0133     		adds	r3, r3, #1
  97 001e 9BB2     		uxth	r3, r3
  98 0020 1BB2     		sxth	r3, r3
  99:..\..\..\lvgl\version_6.1.2\lvgl\src\lv_misc/lv_area.h **** }
  99              		.loc 1 99 0
 100 0022 1846     		mov	r0, r3
 101 0024 0C37     		adds	r7, r7, #12
 102              		.cfi_def_cfa_offset 4
 103 0026 BD46     		mov	sp, r7
 104              		.cfi_def_cfa_register 13
 105              		@ sp needed
 106 0028 5DF8047B 		ldr	r7, [sp], #4
 107              		.cfi_restore 7
 108              		.cfi_def_cfa_offset 0
 109 002c 7047     		bx	lr
 110              		.cfi_endproc
 111              	.LFE2:
 112              		.size	lv_area_get_height, .-lv_area_get_height
 113 002e 00BF     		.section	.text.lv_area_set,"ax",%progbits
 114              		.align	2
 115              		.global	lv_area_set
 116              		.thumb
 117              		.thumb_func
 118              		.type	lv_area_set, %function
 119              	lv_area_set:
 120              	.LFB3:
 121              		.file 2 "..\\..\\..\\lvgl\\version_6.1.2\\lvgl\\src\\lv_misc\\lv_area.c"
   1:..\..\..\lvgl\version_6.1.2\lvgl\src\lv_misc/lv_area.c **** /**
   2:..\..\..\lvgl\version_6.1.2\lvgl\src\lv_misc/lv_area.c ****  * @file lv_area.c
   3:..\..\..\lvgl\version_6.1.2\lvgl\src\lv_misc/lv_area.c ****  *
   4:..\..\..\lvgl\version_6.1.2\lvgl\src\lv_misc/lv_area.c ****  */
   5:..\..\..\lvgl\version_6.1.2\lvgl\src\lv_misc/lv_area.c **** 
   6:..\..\..\lvgl\version_6.1.2\lvgl\src\lv_misc/lv_area.c **** /*********************
   7:..\..\..\lvgl\version_6.1.2\lvgl\src\lv_misc/lv_area.c ****  *      INCLUDES
   8:..\..\..\lvgl\version_6.1.2\lvgl\src\lv_misc/lv_area.c ****  *********************/
ARM GAS  C:\Users\tmj32\AppData\Local\Temp\ccS9z4Wj.s 			page 5


   9:..\..\..\lvgl\version_6.1.2\lvgl\src\lv_misc/lv_area.c **** #ifdef LV_CONF_INCLUDE_SIMPLE
  10:..\..\..\lvgl\version_6.1.2\lvgl\src\lv_misc/lv_area.c **** #include "lv_conf.h"
  11:..\..\..\lvgl\version_6.1.2\lvgl\src\lv_misc/lv_area.c **** #else
  12:..\..\..\lvgl\version_6.1.2\lvgl\src\lv_misc/lv_area.c **** #include "../../../lv_conf.h"
  13:..\..\..\lvgl\version_6.1.2\lvgl\src\lv_misc/lv_area.c **** #endif
  14:..\..\..\lvgl\version_6.1.2\lvgl\src\lv_misc/lv_area.c **** 
  15:..\..\..\lvgl\version_6.1.2\lvgl\src\lv_misc/lv_area.c **** #include "lv_area.h"
  16:..\..\..\lvgl\version_6.1.2\lvgl\src\lv_misc/lv_area.c **** #include "lv_math.h"
  17:..\..\..\lvgl\version_6.1.2\lvgl\src\lv_misc/lv_area.c **** 
  18:..\..\..\lvgl\version_6.1.2\lvgl\src\lv_misc/lv_area.c **** /*********************
  19:..\..\..\lvgl\version_6.1.2\lvgl\src\lv_misc/lv_area.c ****  *      DEFINES
  20:..\..\..\lvgl\version_6.1.2\lvgl\src\lv_misc/lv_area.c ****  *********************/
  21:..\..\..\lvgl\version_6.1.2\lvgl\src\lv_misc/lv_area.c **** 
  22:..\..\..\lvgl\version_6.1.2\lvgl\src\lv_misc/lv_area.c **** /**********************
  23:..\..\..\lvgl\version_6.1.2\lvgl\src\lv_misc/lv_area.c ****  *      TYPEDEFS
  24:..\..\..\lvgl\version_6.1.2\lvgl\src\lv_misc/lv_area.c ****  **********************/
  25:..\..\..\lvgl\version_6.1.2\lvgl\src\lv_misc/lv_area.c **** 
  26:..\..\..\lvgl\version_6.1.2\lvgl\src\lv_misc/lv_area.c **** /**********************
  27:..\..\..\lvgl\version_6.1.2\lvgl\src\lv_misc/lv_area.c ****  *  STATIC PROTOTYPES
  28:..\..\..\lvgl\version_6.1.2\lvgl\src\lv_misc/lv_area.c ****  **********************/
  29:..\..\..\lvgl\version_6.1.2\lvgl\src\lv_misc/lv_area.c **** 
  30:..\..\..\lvgl\version_6.1.2\lvgl\src\lv_misc/lv_area.c **** /**********************
  31:..\..\..\lvgl\version_6.1.2\lvgl\src\lv_misc/lv_area.c ****  *  STATIC VARIABLES
  32:..\..\..\lvgl\version_6.1.2\lvgl\src\lv_misc/lv_area.c ****  **********************/
  33:..\..\..\lvgl\version_6.1.2\lvgl\src\lv_misc/lv_area.c **** 
  34:..\..\..\lvgl\version_6.1.2\lvgl\src\lv_misc/lv_area.c **** /**********************
  35:..\..\..\lvgl\version_6.1.2\lvgl\src\lv_misc/lv_area.c ****  *      MACROS
  36:..\..\..\lvgl\version_6.1.2\lvgl\src\lv_misc/lv_area.c ****  **********************/
  37:..\..\..\lvgl\version_6.1.2\lvgl\src\lv_misc/lv_area.c **** 
  38:..\..\..\lvgl\version_6.1.2\lvgl\src\lv_misc/lv_area.c **** /**********************
  39:..\..\..\lvgl\version_6.1.2\lvgl\src\lv_misc/lv_area.c ****  *   GLOBAL FUNCTIONS
  40:..\..\..\lvgl\version_6.1.2\lvgl\src\lv_misc/lv_area.c ****  **********************/
  41:..\..\..\lvgl\version_6.1.2\lvgl\src\lv_misc/lv_area.c **** 
  42:..\..\..\lvgl\version_6.1.2\lvgl\src\lv_misc/lv_area.c **** /**
  43:..\..\..\lvgl\version_6.1.2\lvgl\src\lv_misc/lv_area.c ****  * Initialize an area
  44:..\..\..\lvgl\version_6.1.2\lvgl\src\lv_misc/lv_area.c ****  * @param area_p pointer to an area
  45:..\..\..\lvgl\version_6.1.2\lvgl\src\lv_misc/lv_area.c ****  * @param x1 left coordinate of the area
  46:..\..\..\lvgl\version_6.1.2\lvgl\src\lv_misc/lv_area.c ****  * @param y1 top coordinate of the area
  47:..\..\..\lvgl\version_6.1.2\lvgl\src\lv_misc/lv_area.c ****  * @param x2 right coordinate of the area
  48:..\..\..\lvgl\version_6.1.2\lvgl\src\lv_misc/lv_area.c ****  * @param y2 bottom coordinate of the area
  49:..\..\..\lvgl\version_6.1.2\lvgl\src\lv_misc/lv_area.c ****  */
  50:..\..\..\lvgl\version_6.1.2\lvgl\src\lv_misc/lv_area.c **** void lv_area_set(lv_area_t * area_p, lv_coord_t x1, lv_coord_t y1, lv_coord_t x2, lv_coord_t y2)
  51:..\..\..\lvgl\version_6.1.2\lvgl\src\lv_misc/lv_area.c **** {
 122              		.loc 2 51 0
 123              		.cfi_startproc
 124              		@ args = 4, pretend = 0, frame = 16
 125              		@ frame_needed = 1, uses_anonymous_args = 0
 126              		@ link register save eliminated.
 127 0000 80B4     		push	{r7}
 128              		.cfi_def_cfa_offset 4
 129              		.cfi_offset 7, -4
 130 0002 85B0     		sub	sp, sp, #20
 131              		.cfi_def_cfa_offset 24
 132 0004 00AF     		add	r7, sp, #0
 133              		.cfi_def_cfa_register 7
 134 0006 F860     		str	r0, [r7, #12]
 135 0008 0846     		mov	r0, r1
ARM GAS  C:\Users\tmj32\AppData\Local\Temp\ccS9z4Wj.s 			page 6


 136 000a 1146     		mov	r1, r2
 137 000c 1A46     		mov	r2, r3
 138 000e 0346     		mov	r3, r0	@ movhi
 139 0010 7B81     		strh	r3, [r7, #10]	@ movhi
 140 0012 0B46     		mov	r3, r1	@ movhi
 141 0014 3B81     		strh	r3, [r7, #8]	@ movhi
 142 0016 1346     		mov	r3, r2	@ movhi
 143 0018 FB80     		strh	r3, [r7, #6]	@ movhi
  52:..\..\..\lvgl\version_6.1.2\lvgl\src\lv_misc/lv_area.c ****     area_p->x1 = x1;
 144              		.loc 2 52 0
 145 001a FB68     		ldr	r3, [r7, #12]
 146 001c 7A89     		ldrh	r2, [r7, #10]	@ movhi
 147 001e 1A80     		strh	r2, [r3]	@ movhi
  53:..\..\..\lvgl\version_6.1.2\lvgl\src\lv_misc/lv_area.c ****     area_p->y1 = y1;
 148              		.loc 2 53 0
 149 0020 FB68     		ldr	r3, [r7, #12]
 150 0022 3A89     		ldrh	r2, [r7, #8]	@ movhi
 151 0024 5A80     		strh	r2, [r3, #2]	@ movhi
  54:..\..\..\lvgl\version_6.1.2\lvgl\src\lv_misc/lv_area.c ****     area_p->x2 = x2;
 152              		.loc 2 54 0
 153 0026 FB68     		ldr	r3, [r7, #12]
 154 0028 FA88     		ldrh	r2, [r7, #6]	@ movhi
 155 002a 9A80     		strh	r2, [r3, #4]	@ movhi
  55:..\..\..\lvgl\version_6.1.2\lvgl\src\lv_misc/lv_area.c ****     area_p->y2 = y2;
 156              		.loc 2 55 0
 157 002c FB68     		ldr	r3, [r7, #12]
 158 002e 3A8B     		ldrh	r2, [r7, #24]	@ movhi
 159 0030 DA80     		strh	r2, [r3, #6]	@ movhi
  56:..\..\..\lvgl\version_6.1.2\lvgl\src\lv_misc/lv_area.c **** }
 160              		.loc 2 56 0
 161 0032 00BF     		nop
 162 0034 1437     		adds	r7, r7, #20
 163              		.cfi_def_cfa_offset 4
 164 0036 BD46     		mov	sp, r7
 165              		.cfi_def_cfa_register 13
 166              		@ sp needed
 167 0038 5DF8047B 		ldr	r7, [sp], #4
 168              		.cfi_restore 7
 169              		.cfi_def_cfa_offset 0
 170 003c 7047     		bx	lr
 171              		.cfi_endproc
 172              	.LFE3:
 173              		.size	lv_area_set, .-lv_area_set
 174 003e 00BF     		.section	.text.lv_area_set_width,"ax",%progbits
 175              		.align	2
 176              		.global	lv_area_set_width
 177              		.thumb
 178              		.thumb_func
 179              		.type	lv_area_set_width, %function
 180              	lv_area_set_width:
 181              	.LFB4:
  57:..\..\..\lvgl\version_6.1.2\lvgl\src\lv_misc/lv_area.c **** 
  58:..\..\..\lvgl\version_6.1.2\lvgl\src\lv_misc/lv_area.c **** /**
  59:..\..\..\lvgl\version_6.1.2\lvgl\src\lv_misc/lv_area.c ****  * Set the width of an area
  60:..\..\..\lvgl\version_6.1.2\lvgl\src\lv_misc/lv_area.c ****  * @param area_p pointer to an area
  61:..\..\..\lvgl\version_6.1.2\lvgl\src\lv_misc/lv_area.c ****  * @param w the new width of the area (w == 1 makes x1 == x2)
  62:..\..\..\lvgl\version_6.1.2\lvgl\src\lv_misc/lv_area.c ****  */
ARM GAS  C:\Users\tmj32\AppData\Local\Temp\ccS9z4Wj.s 			page 7


  63:..\..\..\lvgl\version_6.1.2\lvgl\src\lv_misc/lv_area.c **** void lv_area_set_width(lv_area_t * area_p, lv_coord_t w)
  64:..\..\..\lvgl\version_6.1.2\lvgl\src\lv_misc/lv_area.c **** {
 182              		.loc 2 64 0
 183              		.cfi_startproc
 184              		@ args = 0, pretend = 0, frame = 8
 185              		@ frame_needed = 1, uses_anonymous_args = 0
 186              		@ link register save eliminated.
 187 0000 80B4     		push	{r7}
 188              		.cfi_def_cfa_offset 4
 189              		.cfi_offset 7, -4
 190 0002 83B0     		sub	sp, sp, #12
 191              		.cfi_def_cfa_offset 16
 192 0004 00AF     		add	r7, sp, #0
 193              		.cfi_def_cfa_register 7
 194 0006 7860     		str	r0, [r7, #4]
 195 0008 0B46     		mov	r3, r1
 196 000a 7B80     		strh	r3, [r7, #2]	@ movhi
  65:..\..\..\lvgl\version_6.1.2\lvgl\src\lv_misc/lv_area.c ****     area_p->x2 = area_p->x1 + w - 1;
 197              		.loc 2 65 0
 198 000c 7B68     		ldr	r3, [r7, #4]
 199 000e B3F90030 		ldrsh	r3, [r3]
 200 0012 9AB2     		uxth	r2, r3
 201 0014 7B88     		ldrh	r3, [r7, #2]
 202 0016 1344     		add	r3, r3, r2
 203 0018 9BB2     		uxth	r3, r3
 204 001a 013B     		subs	r3, r3, #1
 205 001c 9BB2     		uxth	r3, r3
 206 001e 1AB2     		sxth	r2, r3
 207 0020 7B68     		ldr	r3, [r7, #4]
 208 0022 9A80     		strh	r2, [r3, #4]	@ movhi
  66:..\..\..\lvgl\version_6.1.2\lvgl\src\lv_misc/lv_area.c **** }
 209              		.loc 2 66 0
 210 0024 00BF     		nop
 211 0026 0C37     		adds	r7, r7, #12
 212              		.cfi_def_cfa_offset 4
 213 0028 BD46     		mov	sp, r7
 214              		.cfi_def_cfa_register 13
 215              		@ sp needed
 216 002a 5DF8047B 		ldr	r7, [sp], #4
 217              		.cfi_restore 7
 218              		.cfi_def_cfa_offset 0
 219 002e 7047     		bx	lr
 220              		.cfi_endproc
 221              	.LFE4:
 222              		.size	lv_area_set_width, .-lv_area_set_width
 223              		.section	.text.lv_area_set_height,"ax",%progbits
 224              		.align	2
 225              		.global	lv_area_set_height
 226              		.thumb
 227              		.thumb_func
 228              		.type	lv_area_set_height, %function
 229              	lv_area_set_height:
 230              	.LFB5:
  67:..\..\..\lvgl\version_6.1.2\lvgl\src\lv_misc/lv_area.c **** 
  68:..\..\..\lvgl\version_6.1.2\lvgl\src\lv_misc/lv_area.c **** /**
  69:..\..\..\lvgl\version_6.1.2\lvgl\src\lv_misc/lv_area.c ****  * Set the height of an area
  70:..\..\..\lvgl\version_6.1.2\lvgl\src\lv_misc/lv_area.c ****  * @param area_p pointer to an area
ARM GAS  C:\Users\tmj32\AppData\Local\Temp\ccS9z4Wj.s 			page 8


  71:..\..\..\lvgl\version_6.1.2\lvgl\src\lv_misc/lv_area.c ****  * @param h the new height of the area (h == 1 makes y1 == y2)
  72:..\..\..\lvgl\version_6.1.2\lvgl\src\lv_misc/lv_area.c ****  */
  73:..\..\..\lvgl\version_6.1.2\lvgl\src\lv_misc/lv_area.c **** void lv_area_set_height(lv_area_t * area_p, lv_coord_t h)
  74:..\..\..\lvgl\version_6.1.2\lvgl\src\lv_misc/lv_area.c **** {
 231              		.loc 2 74 0
 232              		.cfi_startproc
 233              		@ args = 0, pretend = 0, frame = 8
 234              		@ frame_needed = 1, uses_anonymous_args = 0
 235              		@ link register save eliminated.
 236 0000 80B4     		push	{r7}
 237              		.cfi_def_cfa_offset 4
 238              		.cfi_offset 7, -4
 239 0002 83B0     		sub	sp, sp, #12
 240              		.cfi_def_cfa_offset 16
 241 0004 00AF     		add	r7, sp, #0
 242              		.cfi_def_cfa_register 7
 243 0006 7860     		str	r0, [r7, #4]
 244 0008 0B46     		mov	r3, r1
 245 000a 7B80     		strh	r3, [r7, #2]	@ movhi
  75:..\..\..\lvgl\version_6.1.2\lvgl\src\lv_misc/lv_area.c ****     area_p->y2 = area_p->y1 + h - 1;
 246              		.loc 2 75 0
 247 000c 7B68     		ldr	r3, [r7, #4]
 248 000e B3F90230 		ldrsh	r3, [r3, #2]
 249 0012 9AB2     		uxth	r2, r3
 250 0014 7B88     		ldrh	r3, [r7, #2]
 251 0016 1344     		add	r3, r3, r2
 252 0018 9BB2     		uxth	r3, r3
 253 001a 013B     		subs	r3, r3, #1
 254 001c 9BB2     		uxth	r3, r3
 255 001e 1AB2     		sxth	r2, r3
 256 0020 7B68     		ldr	r3, [r7, #4]
 257 0022 DA80     		strh	r2, [r3, #6]	@ movhi
  76:..\..\..\lvgl\version_6.1.2\lvgl\src\lv_misc/lv_area.c **** }
 258              		.loc 2 76 0
 259 0024 00BF     		nop
 260 0026 0C37     		adds	r7, r7, #12
 261              		.cfi_def_cfa_offset 4
 262 0028 BD46     		mov	sp, r7
 263              		.cfi_def_cfa_register 13
 264              		@ sp needed
 265 002a 5DF8047B 		ldr	r7, [sp], #4
 266              		.cfi_restore 7
 267              		.cfi_def_cfa_offset 0
 268 002e 7047     		bx	lr
 269              		.cfi_endproc
 270              	.LFE5:
 271              		.size	lv_area_set_height, .-lv_area_set_height
 272              		.section	.text.lv_area_set_pos,"ax",%progbits
 273              		.align	2
 274              		.global	lv_area_set_pos
 275              		.thumb
 276              		.thumb_func
 277              		.type	lv_area_set_pos, %function
 278              	lv_area_set_pos:
 279              	.LFB6:
  77:..\..\..\lvgl\version_6.1.2\lvgl\src\lv_misc/lv_area.c **** 
  78:..\..\..\lvgl\version_6.1.2\lvgl\src\lv_misc/lv_area.c **** /**
ARM GAS  C:\Users\tmj32\AppData\Local\Temp\ccS9z4Wj.s 			page 9


  79:..\..\..\lvgl\version_6.1.2\lvgl\src\lv_misc/lv_area.c ****  * Set the position of an area (width and height will be kept)
  80:..\..\..\lvgl\version_6.1.2\lvgl\src\lv_misc/lv_area.c ****  * @param area_p pointer to an area
  81:..\..\..\lvgl\version_6.1.2\lvgl\src\lv_misc/lv_area.c ****  * @param x the new x coordinate of the area
  82:..\..\..\lvgl\version_6.1.2\lvgl\src\lv_misc/lv_area.c ****  * @param y the new y coordinate of the area
  83:..\..\..\lvgl\version_6.1.2\lvgl\src\lv_misc/lv_area.c ****  */
  84:..\..\..\lvgl\version_6.1.2\lvgl\src\lv_misc/lv_area.c **** void lv_area_set_pos(lv_area_t * area_p, lv_coord_t x, lv_coord_t y)
  85:..\..\..\lvgl\version_6.1.2\lvgl\src\lv_misc/lv_area.c **** {
 280              		.loc 2 85 0
 281              		.cfi_startproc
 282              		@ args = 0, pretend = 0, frame = 16
 283              		@ frame_needed = 1, uses_anonymous_args = 0
 284 0000 80B5     		push	{r7, lr}
 285              		.cfi_def_cfa_offset 8
 286              		.cfi_offset 7, -8
 287              		.cfi_offset 14, -4
 288 0002 84B0     		sub	sp, sp, #16
 289              		.cfi_def_cfa_offset 24
 290 0004 00AF     		add	r7, sp, #0
 291              		.cfi_def_cfa_register 7
 292 0006 7860     		str	r0, [r7, #4]
 293 0008 0B46     		mov	r3, r1
 294 000a 7B80     		strh	r3, [r7, #2]	@ movhi
 295 000c 1346     		mov	r3, r2	@ movhi
 296 000e 3B80     		strh	r3, [r7]	@ movhi
  86:..\..\..\lvgl\version_6.1.2\lvgl\src\lv_misc/lv_area.c ****     lv_coord_t w = lv_area_get_width(area_p);
 297              		.loc 2 86 0
 298 0010 7868     		ldr	r0, [r7, #4]
 299 0012 FFF7FEFF 		bl	lv_area_get_width
 300 0016 0346     		mov	r3, r0
 301 0018 FB81     		strh	r3, [r7, #14]	@ movhi
  87:..\..\..\lvgl\version_6.1.2\lvgl\src\lv_misc/lv_area.c ****     lv_coord_t h = lv_area_get_height(area_p);
 302              		.loc 2 87 0
 303 001a 7868     		ldr	r0, [r7, #4]
 304 001c FFF7FEFF 		bl	lv_area_get_height
 305 0020 0346     		mov	r3, r0
 306 0022 BB81     		strh	r3, [r7, #12]	@ movhi
  88:..\..\..\lvgl\version_6.1.2\lvgl\src\lv_misc/lv_area.c ****     area_p->x1   = x;
 307              		.loc 2 88 0
 308 0024 7B68     		ldr	r3, [r7, #4]
 309 0026 7A88     		ldrh	r2, [r7, #2]	@ movhi
 310 0028 1A80     		strh	r2, [r3]	@ movhi
  89:..\..\..\lvgl\version_6.1.2\lvgl\src\lv_misc/lv_area.c ****     area_p->y1   = y;
 311              		.loc 2 89 0
 312 002a 7B68     		ldr	r3, [r7, #4]
 313 002c 3A88     		ldrh	r2, [r7]	@ movhi
 314 002e 5A80     		strh	r2, [r3, #2]	@ movhi
  90:..\..\..\lvgl\version_6.1.2\lvgl\src\lv_misc/lv_area.c ****     lv_area_set_width(area_p, w);
 315              		.loc 2 90 0
 316 0030 B7F90E30 		ldrsh	r3, [r7, #14]
 317 0034 1946     		mov	r1, r3
 318 0036 7868     		ldr	r0, [r7, #4]
 319 0038 FFF7FEFF 		bl	lv_area_set_width
  91:..\..\..\lvgl\version_6.1.2\lvgl\src\lv_misc/lv_area.c ****     lv_area_set_height(area_p, h);
 320              		.loc 2 91 0
 321 003c B7F90C30 		ldrsh	r3, [r7, #12]
 322 0040 1946     		mov	r1, r3
 323 0042 7868     		ldr	r0, [r7, #4]
ARM GAS  C:\Users\tmj32\AppData\Local\Temp\ccS9z4Wj.s 			page 10


 324 0044 FFF7FEFF 		bl	lv_area_set_height
  92:..\..\..\lvgl\version_6.1.2\lvgl\src\lv_misc/lv_area.c **** }
 325              		.loc 2 92 0
 326 0048 00BF     		nop
 327 004a 1037     		adds	r7, r7, #16
 328              		.cfi_def_cfa_offset 8
 329 004c BD46     		mov	sp, r7
 330              		.cfi_def_cfa_register 13
 331              		@ sp needed
 332 004e 80BD     		pop	{r7, pc}
 333              		.cfi_endproc
 334              	.LFE6:
 335              		.size	lv_area_set_pos, .-lv_area_set_pos
 336              		.section	.text.lv_area_get_size,"ax",%progbits
 337              		.align	2
 338              		.global	lv_area_get_size
 339              		.thumb
 340              		.thumb_func
 341              		.type	lv_area_get_size, %function
 342              	lv_area_get_size:
 343              	.LFB7:
  93:..\..\..\lvgl\version_6.1.2\lvgl\src\lv_misc/lv_area.c **** 
  94:..\..\..\lvgl\version_6.1.2\lvgl\src\lv_misc/lv_area.c **** /**
  95:..\..\..\lvgl\version_6.1.2\lvgl\src\lv_misc/lv_area.c ****  * Return with area of an area (x * y)
  96:..\..\..\lvgl\version_6.1.2\lvgl\src\lv_misc/lv_area.c ****  * @param area_p pointer to an area
  97:..\..\..\lvgl\version_6.1.2\lvgl\src\lv_misc/lv_area.c ****  * @return size of area
  98:..\..\..\lvgl\version_6.1.2\lvgl\src\lv_misc/lv_area.c ****  */
  99:..\..\..\lvgl\version_6.1.2\lvgl\src\lv_misc/lv_area.c **** uint32_t lv_area_get_size(const lv_area_t * area_p)
 100:..\..\..\lvgl\version_6.1.2\lvgl\src\lv_misc/lv_area.c **** {
 344              		.loc 2 100 0
 345              		.cfi_startproc
 346              		@ args = 0, pretend = 0, frame = 16
 347              		@ frame_needed = 1, uses_anonymous_args = 0
 348              		@ link register save eliminated.
 349 0000 80B4     		push	{r7}
 350              		.cfi_def_cfa_offset 4
 351              		.cfi_offset 7, -4
 352 0002 85B0     		sub	sp, sp, #20
 353              		.cfi_def_cfa_offset 24
 354 0004 00AF     		add	r7, sp, #0
 355              		.cfi_def_cfa_register 7
 356 0006 7860     		str	r0, [r7, #4]
 101:..\..\..\lvgl\version_6.1.2\lvgl\src\lv_misc/lv_area.c ****     uint32_t size;
 102:..\..\..\lvgl\version_6.1.2\lvgl\src\lv_misc/lv_area.c **** 
 103:..\..\..\lvgl\version_6.1.2\lvgl\src\lv_misc/lv_area.c ****     size = (uint32_t)(area_p->x2 - area_p->x1 + 1) * (area_p->y2 - area_p->y1 + 1);
 357              		.loc 2 103 0
 358 0008 7B68     		ldr	r3, [r7, #4]
 359 000a B3F90430 		ldrsh	r3, [r3, #4]
 360 000e 1A46     		mov	r2, r3
 361 0010 7B68     		ldr	r3, [r7, #4]
 362 0012 B3F90030 		ldrsh	r3, [r3]
 363 0016 D31A     		subs	r3, r2, r3
 364 0018 0133     		adds	r3, r3, #1
 365 001a 1A46     		mov	r2, r3
 366 001c 7B68     		ldr	r3, [r7, #4]
 367 001e B3F90630 		ldrsh	r3, [r3, #6]
 368 0022 1946     		mov	r1, r3
ARM GAS  C:\Users\tmj32\AppData\Local\Temp\ccS9z4Wj.s 			page 11


 369 0024 7B68     		ldr	r3, [r7, #4]
 370 0026 B3F90230 		ldrsh	r3, [r3, #2]
 371 002a CB1A     		subs	r3, r1, r3
 372 002c 0133     		adds	r3, r3, #1
 373 002e 03FB02F3 		mul	r3, r3, r2
 374 0032 FB60     		str	r3, [r7, #12]
 104:..\..\..\lvgl\version_6.1.2\lvgl\src\lv_misc/lv_area.c **** 
 105:..\..\..\lvgl\version_6.1.2\lvgl\src\lv_misc/lv_area.c ****     return size;
 375              		.loc 2 105 0
 376 0034 FB68     		ldr	r3, [r7, #12]
 106:..\..\..\lvgl\version_6.1.2\lvgl\src\lv_misc/lv_area.c **** }
 377              		.loc 2 106 0
 378 0036 1846     		mov	r0, r3
 379 0038 1437     		adds	r7, r7, #20
 380              		.cfi_def_cfa_offset 4
 381 003a BD46     		mov	sp, r7
 382              		.cfi_def_cfa_register 13
 383              		@ sp needed
 384 003c 5DF8047B 		ldr	r7, [sp], #4
 385              		.cfi_restore 7
 386              		.cfi_def_cfa_offset 0
 387 0040 7047     		bx	lr
 388              		.cfi_endproc
 389              	.LFE7:
 390              		.size	lv_area_get_size, .-lv_area_get_size
 391 0042 00BF     		.section	.text.lv_area_intersect,"ax",%progbits
 392              		.align	2
 393              		.global	lv_area_intersect
 394              		.thumb
 395              		.thumb_func
 396              		.type	lv_area_intersect, %function
 397              	lv_area_intersect:
 398              	.LFB8:
 107:..\..\..\lvgl\version_6.1.2\lvgl\src\lv_misc/lv_area.c **** 
 108:..\..\..\lvgl\version_6.1.2\lvgl\src\lv_misc/lv_area.c **** /**
 109:..\..\..\lvgl\version_6.1.2\lvgl\src\lv_misc/lv_area.c ****  * Get the common parts of two areas
 110:..\..\..\lvgl\version_6.1.2\lvgl\src\lv_misc/lv_area.c ****  * @param res_p pointer to an area, the result will be stored here
 111:..\..\..\lvgl\version_6.1.2\lvgl\src\lv_misc/lv_area.c ****  * @param a1_p pointer to the first area
 112:..\..\..\lvgl\version_6.1.2\lvgl\src\lv_misc/lv_area.c ****  * @param a2_p pointer to the second area
 113:..\..\..\lvgl\version_6.1.2\lvgl\src\lv_misc/lv_area.c ****  * @return false: the two area has NO common parts, res_p is invalid
 114:..\..\..\lvgl\version_6.1.2\lvgl\src\lv_misc/lv_area.c ****  */
 115:..\..\..\lvgl\version_6.1.2\lvgl\src\lv_misc/lv_area.c **** bool lv_area_intersect(lv_area_t * res_p, const lv_area_t * a1_p, const lv_area_t * a2_p)
 116:..\..\..\lvgl\version_6.1.2\lvgl\src\lv_misc/lv_area.c **** {
 399              		.loc 2 116 0
 400              		.cfi_startproc
 401              		@ args = 0, pretend = 0, frame = 24
 402              		@ frame_needed = 1, uses_anonymous_args = 0
 403              		@ link register save eliminated.
 404 0000 80B4     		push	{r7}
 405              		.cfi_def_cfa_offset 4
 406              		.cfi_offset 7, -4
 407 0002 87B0     		sub	sp, sp, #28
 408              		.cfi_def_cfa_offset 32
 409 0004 00AF     		add	r7, sp, #0
 410              		.cfi_def_cfa_register 7
 411 0006 F860     		str	r0, [r7, #12]
 412 0008 B960     		str	r1, [r7, #8]
ARM GAS  C:\Users\tmj32\AppData\Local\Temp\ccS9z4Wj.s 			page 12


 413 000a 7A60     		str	r2, [r7, #4]
 117:..\..\..\lvgl\version_6.1.2\lvgl\src\lv_misc/lv_area.c ****     /* Get the smaller area from 'a1_p' and 'a2_p' */
 118:..\..\..\lvgl\version_6.1.2\lvgl\src\lv_misc/lv_area.c ****     res_p->x1 = LV_MATH_MAX(a1_p->x1, a2_p->x1);
 414              		.loc 2 118 0
 415 000c 7B68     		ldr	r3, [r7, #4]
 416 000e B3F90020 		ldrsh	r2, [r3]
 417 0012 BB68     		ldr	r3, [r7, #8]
 418 0014 B3F90030 		ldrsh	r3, [r3]
 419 0018 9342     		cmp	r3, r2
 420 001a B8BF     		it	lt
 421 001c 1346     		movlt	r3, r2
 422 001e 1AB2     		sxth	r2, r3
 423 0020 FB68     		ldr	r3, [r7, #12]
 424 0022 1A80     		strh	r2, [r3]	@ movhi
 119:..\..\..\lvgl\version_6.1.2\lvgl\src\lv_misc/lv_area.c ****     res_p->y1 = LV_MATH_MAX(a1_p->y1, a2_p->y1);
 425              		.loc 2 119 0
 426 0024 7B68     		ldr	r3, [r7, #4]
 427 0026 B3F90220 		ldrsh	r2, [r3, #2]
 428 002a BB68     		ldr	r3, [r7, #8]
 429 002c B3F90230 		ldrsh	r3, [r3, #2]
 430 0030 9342     		cmp	r3, r2
 431 0032 B8BF     		it	lt
 432 0034 1346     		movlt	r3, r2
 433 0036 1AB2     		sxth	r2, r3
 434 0038 FB68     		ldr	r3, [r7, #12]
 435 003a 5A80     		strh	r2, [r3, #2]	@ movhi
 120:..\..\..\lvgl\version_6.1.2\lvgl\src\lv_misc/lv_area.c ****     res_p->x2 = LV_MATH_MIN(a1_p->x2, a2_p->x2);
 436              		.loc 2 120 0
 437 003c 7B68     		ldr	r3, [r7, #4]
 438 003e B3F90420 		ldrsh	r2, [r3, #4]
 439 0042 BB68     		ldr	r3, [r7, #8]
 440 0044 B3F90430 		ldrsh	r3, [r3, #4]
 441 0048 9342     		cmp	r3, r2
 442 004a A8BF     		it	ge
 443 004c 1346     		movge	r3, r2
 444 004e 1AB2     		sxth	r2, r3
 445 0050 FB68     		ldr	r3, [r7, #12]
 446 0052 9A80     		strh	r2, [r3, #4]	@ movhi
 121:..\..\..\lvgl\version_6.1.2\lvgl\src\lv_misc/lv_area.c ****     res_p->y2 = LV_MATH_MIN(a1_p->y2, a2_p->y2);
 447              		.loc 2 121 0
 448 0054 7B68     		ldr	r3, [r7, #4]
 449 0056 B3F90620 		ldrsh	r2, [r3, #6]
 450 005a BB68     		ldr	r3, [r7, #8]
 451 005c B3F90630 		ldrsh	r3, [r3, #6]
 452 0060 9342     		cmp	r3, r2
 453 0062 A8BF     		it	ge
 454 0064 1346     		movge	r3, r2
 455 0066 1AB2     		sxth	r2, r3
 456 0068 FB68     		ldr	r3, [r7, #12]
 457 006a DA80     		strh	r2, [r3, #6]	@ movhi
 122:..\..\..\lvgl\version_6.1.2\lvgl\src\lv_misc/lv_area.c **** 
 123:..\..\..\lvgl\version_6.1.2\lvgl\src\lv_misc/lv_area.c ****     /*If x1 or y1 greater then x2 or y2 then the areas union is empty*/
 124:..\..\..\lvgl\version_6.1.2\lvgl\src\lv_misc/lv_area.c ****     bool union_ok = true;
 458              		.loc 2 124 0
 459 006c 0123     		movs	r3, #1
 460 006e FB75     		strb	r3, [r7, #23]
 125:..\..\..\lvgl\version_6.1.2\lvgl\src\lv_misc/lv_area.c ****     if((res_p->x1 > res_p->x2) || (res_p->y1 > res_p->y2)) {
ARM GAS  C:\Users\tmj32\AppData\Local\Temp\ccS9z4Wj.s 			page 13


 461              		.loc 2 125 0
 462 0070 FB68     		ldr	r3, [r7, #12]
 463 0072 B3F90020 		ldrsh	r2, [r3]
 464 0076 FB68     		ldr	r3, [r7, #12]
 465 0078 B3F90430 		ldrsh	r3, [r3, #4]
 466 007c 9A42     		cmp	r2, r3
 467 007e 07DC     		bgt	.L12
 468              		.loc 2 125 0 is_stmt 0 discriminator 1
 469 0080 FB68     		ldr	r3, [r7, #12]
 470 0082 B3F90220 		ldrsh	r2, [r3, #2]
 471 0086 FB68     		ldr	r3, [r7, #12]
 472 0088 B3F90630 		ldrsh	r3, [r3, #6]
 473 008c 9A42     		cmp	r2, r3
 474 008e 01DD     		ble	.L13
 475              	.L12:
 126:..\..\..\lvgl\version_6.1.2\lvgl\src\lv_misc/lv_area.c ****         union_ok = false;
 476              		.loc 2 126 0 is_stmt 1
 477 0090 0023     		movs	r3, #0
 478 0092 FB75     		strb	r3, [r7, #23]
 479              	.L13:
 127:..\..\..\lvgl\version_6.1.2\lvgl\src\lv_misc/lv_area.c ****     }
 128:..\..\..\lvgl\version_6.1.2\lvgl\src\lv_misc/lv_area.c **** 
 129:..\..\..\lvgl\version_6.1.2\lvgl\src\lv_misc/lv_area.c ****     return union_ok;
 480              		.loc 2 129 0
 481 0094 FB7D     		ldrb	r3, [r7, #23]	@ zero_extendqisi2
 130:..\..\..\lvgl\version_6.1.2\lvgl\src\lv_misc/lv_area.c **** }
 482              		.loc 2 130 0
 483 0096 1846     		mov	r0, r3
 484 0098 1C37     		adds	r7, r7, #28
 485              		.cfi_def_cfa_offset 4
 486 009a BD46     		mov	sp, r7
 487              		.cfi_def_cfa_register 13
 488              		@ sp needed
 489 009c 5DF8047B 		ldr	r7, [sp], #4
 490              		.cfi_restore 7
 491              		.cfi_def_cfa_offset 0
 492 00a0 7047     		bx	lr
 493              		.cfi_endproc
 494              	.LFE8:
 495              		.size	lv_area_intersect, .-lv_area_intersect
 496 00a2 00BF     		.section	.text.lv_area_join,"ax",%progbits
 497              		.align	2
 498              		.global	lv_area_join
 499              		.thumb
 500              		.thumb_func
 501              		.type	lv_area_join, %function
 502              	lv_area_join:
 503              	.LFB9:
 131:..\..\..\lvgl\version_6.1.2\lvgl\src\lv_misc/lv_area.c **** /**
 132:..\..\..\lvgl\version_6.1.2\lvgl\src\lv_misc/lv_area.c ****  * Join two areas into a third which involves the other two
 133:..\..\..\lvgl\version_6.1.2\lvgl\src\lv_misc/lv_area.c ****  * @param res_p pointer to an area, the result will be stored here
 134:..\..\..\lvgl\version_6.1.2\lvgl\src\lv_misc/lv_area.c ****  * @param a1_p pointer to the first area
 135:..\..\..\lvgl\version_6.1.2\lvgl\src\lv_misc/lv_area.c ****  * @param a2_p pointer to the second area
 136:..\..\..\lvgl\version_6.1.2\lvgl\src\lv_misc/lv_area.c ****  */
 137:..\..\..\lvgl\version_6.1.2\lvgl\src\lv_misc/lv_area.c **** void lv_area_join(lv_area_t * a_res_p, const lv_area_t * a1_p, const lv_area_t * a2_p)
 138:..\..\..\lvgl\version_6.1.2\lvgl\src\lv_misc/lv_area.c **** {
 504              		.loc 2 138 0
ARM GAS  C:\Users\tmj32\AppData\Local\Temp\ccS9z4Wj.s 			page 14


 505              		.cfi_startproc
 506              		@ args = 0, pretend = 0, frame = 16
 507              		@ frame_needed = 1, uses_anonymous_args = 0
 508              		@ link register save eliminated.
 509 0000 80B4     		push	{r7}
 510              		.cfi_def_cfa_offset 4
 511              		.cfi_offset 7, -4
 512 0002 85B0     		sub	sp, sp, #20
 513              		.cfi_def_cfa_offset 24
 514 0004 00AF     		add	r7, sp, #0
 515              		.cfi_def_cfa_register 7
 516 0006 F860     		str	r0, [r7, #12]
 517 0008 B960     		str	r1, [r7, #8]
 518 000a 7A60     		str	r2, [r7, #4]
 139:..\..\..\lvgl\version_6.1.2\lvgl\src\lv_misc/lv_area.c ****     a_res_p->x1 = LV_MATH_MIN(a1_p->x1, a2_p->x1);
 519              		.loc 2 139 0
 520 000c 7B68     		ldr	r3, [r7, #4]
 521 000e B3F90020 		ldrsh	r2, [r3]
 522 0012 BB68     		ldr	r3, [r7, #8]
 523 0014 B3F90030 		ldrsh	r3, [r3]
 524 0018 9342     		cmp	r3, r2
 525 001a A8BF     		it	ge
 526 001c 1346     		movge	r3, r2
 527 001e 1AB2     		sxth	r2, r3
 528 0020 FB68     		ldr	r3, [r7, #12]
 529 0022 1A80     		strh	r2, [r3]	@ movhi
 140:..\..\..\lvgl\version_6.1.2\lvgl\src\lv_misc/lv_area.c ****     a_res_p->y1 = LV_MATH_MIN(a1_p->y1, a2_p->y1);
 530              		.loc 2 140 0
 531 0024 7B68     		ldr	r3, [r7, #4]
 532 0026 B3F90220 		ldrsh	r2, [r3, #2]
 533 002a BB68     		ldr	r3, [r7, #8]
 534 002c B3F90230 		ldrsh	r3, [r3, #2]
 535 0030 9342     		cmp	r3, r2
 536 0032 A8BF     		it	ge
 537 0034 1346     		movge	r3, r2
 538 0036 1AB2     		sxth	r2, r3
 539 0038 FB68     		ldr	r3, [r7, #12]
 540 003a 5A80     		strh	r2, [r3, #2]	@ movhi
 141:..\..\..\lvgl\version_6.1.2\lvgl\src\lv_misc/lv_area.c ****     a_res_p->x2 = LV_MATH_MAX(a1_p->x2, a2_p->x2);
 541              		.loc 2 141 0
 542 003c 7B68     		ldr	r3, [r7, #4]
 543 003e B3F90420 		ldrsh	r2, [r3, #4]
 544 0042 BB68     		ldr	r3, [r7, #8]
 545 0044 B3F90430 		ldrsh	r3, [r3, #4]
 546 0048 9342     		cmp	r3, r2
 547 004a B8BF     		it	lt
 548 004c 1346     		movlt	r3, r2
 549 004e 1AB2     		sxth	r2, r3
 550 0050 FB68     		ldr	r3, [r7, #12]
 551 0052 9A80     		strh	r2, [r3, #4]	@ movhi
 142:..\..\..\lvgl\version_6.1.2\lvgl\src\lv_misc/lv_area.c ****     a_res_p->y2 = LV_MATH_MAX(a1_p->y2, a2_p->y2);
 552              		.loc 2 142 0
 553 0054 7B68     		ldr	r3, [r7, #4]
 554 0056 B3F90620 		ldrsh	r2, [r3, #6]
 555 005a BB68     		ldr	r3, [r7, #8]
 556 005c B3F90630 		ldrsh	r3, [r3, #6]
 557 0060 9342     		cmp	r3, r2
ARM GAS  C:\Users\tmj32\AppData\Local\Temp\ccS9z4Wj.s 			page 15


 558 0062 B8BF     		it	lt
 559 0064 1346     		movlt	r3, r2
 560 0066 1AB2     		sxth	r2, r3
 561 0068 FB68     		ldr	r3, [r7, #12]
 562 006a DA80     		strh	r2, [r3, #6]	@ movhi
 143:..\..\..\lvgl\version_6.1.2\lvgl\src\lv_misc/lv_area.c **** }
 563              		.loc 2 143 0
 564 006c 00BF     		nop
 565 006e 1437     		adds	r7, r7, #20
 566              		.cfi_def_cfa_offset 4
 567 0070 BD46     		mov	sp, r7
 568              		.cfi_def_cfa_register 13
 569              		@ sp needed
 570 0072 5DF8047B 		ldr	r7, [sp], #4
 571              		.cfi_restore 7
 572              		.cfi_def_cfa_offset 0
 573 0076 7047     		bx	lr
 574              		.cfi_endproc
 575              	.LFE9:
 576              		.size	lv_area_join, .-lv_area_join
 577              		.section	.text.lv_area_is_point_on,"ax",%progbits
 578              		.align	2
 579              		.global	lv_area_is_point_on
 580              		.thumb
 581              		.thumb_func
 582              		.type	lv_area_is_point_on, %function
 583              	lv_area_is_point_on:
 584              	.LFB10:
 144:..\..\..\lvgl\version_6.1.2\lvgl\src\lv_misc/lv_area.c **** 
 145:..\..\..\lvgl\version_6.1.2\lvgl\src\lv_misc/lv_area.c **** /**
 146:..\..\..\lvgl\version_6.1.2\lvgl\src\lv_misc/lv_area.c ****  * Check if a point is on an area
 147:..\..\..\lvgl\version_6.1.2\lvgl\src\lv_misc/lv_area.c ****  * @param a_p pointer to an area
 148:..\..\..\lvgl\version_6.1.2\lvgl\src\lv_misc/lv_area.c ****  * @param p_p pointer to a point
 149:..\..\..\lvgl\version_6.1.2\lvgl\src\lv_misc/lv_area.c ****  * @return false:the point is out of the area
 150:..\..\..\lvgl\version_6.1.2\lvgl\src\lv_misc/lv_area.c ****  */
 151:..\..\..\lvgl\version_6.1.2\lvgl\src\lv_misc/lv_area.c **** bool lv_area_is_point_on(const lv_area_t * a_p, const lv_point_t * p_p)
 152:..\..\..\lvgl\version_6.1.2\lvgl\src\lv_misc/lv_area.c **** {
 585              		.loc 2 152 0
 586              		.cfi_startproc
 587              		@ args = 0, pretend = 0, frame = 16
 588              		@ frame_needed = 1, uses_anonymous_args = 0
 589              		@ link register save eliminated.
 590 0000 80B4     		push	{r7}
 591              		.cfi_def_cfa_offset 4
 592              		.cfi_offset 7, -4
 593 0002 85B0     		sub	sp, sp, #20
 594              		.cfi_def_cfa_offset 24
 595 0004 00AF     		add	r7, sp, #0
 596              		.cfi_def_cfa_register 7
 597 0006 7860     		str	r0, [r7, #4]
 598 0008 3960     		str	r1, [r7]
 153:..\..\..\lvgl\version_6.1.2\lvgl\src\lv_misc/lv_area.c ****     bool is_on = false;
 599              		.loc 2 153 0
 600 000a 0023     		movs	r3, #0
 601 000c FB73     		strb	r3, [r7, #15]
 154:..\..\..\lvgl\version_6.1.2\lvgl\src\lv_misc/lv_area.c **** 
 155:..\..\..\lvgl\version_6.1.2\lvgl\src\lv_misc/lv_area.c ****     if((p_p->x >= a_p->x1 && p_p->x <= a_p->x2) && ((p_p->y >= a_p->y1 && p_p->y <= a_p->y2))) {
ARM GAS  C:\Users\tmj32\AppData\Local\Temp\ccS9z4Wj.s 			page 16


 602              		.loc 2 155 0
 603 000e 3B68     		ldr	r3, [r7]
 604 0010 B3F90020 		ldrsh	r2, [r3]
 605 0014 7B68     		ldr	r3, [r7, #4]
 606 0016 B3F90030 		ldrsh	r3, [r3]
 607 001a 9A42     		cmp	r2, r3
 608 001c 19DB     		blt	.L17
 609              		.loc 2 155 0 is_stmt 0 discriminator 1
 610 001e 3B68     		ldr	r3, [r7]
 611 0020 B3F90020 		ldrsh	r2, [r3]
 612 0024 7B68     		ldr	r3, [r7, #4]
 613 0026 B3F90430 		ldrsh	r3, [r3, #4]
 614 002a 9A42     		cmp	r2, r3
 615 002c 11DC     		bgt	.L17
 616              		.loc 2 155 0 discriminator 2
 617 002e 3B68     		ldr	r3, [r7]
 618 0030 B3F90220 		ldrsh	r2, [r3, #2]
 619 0034 7B68     		ldr	r3, [r7, #4]
 620 0036 B3F90230 		ldrsh	r3, [r3, #2]
 621 003a 9A42     		cmp	r2, r3
 622 003c 09DB     		blt	.L17
 623              		.loc 2 155 0 discriminator 3
 624 003e 3B68     		ldr	r3, [r7]
 625 0040 B3F90220 		ldrsh	r2, [r3, #2]
 626 0044 7B68     		ldr	r3, [r7, #4]
 627 0046 B3F90630 		ldrsh	r3, [r3, #6]
 628 004a 9A42     		cmp	r2, r3
 629 004c 01DC     		bgt	.L17
 156:..\..\..\lvgl\version_6.1.2\lvgl\src\lv_misc/lv_area.c ****         is_on = true;
 630              		.loc 2 156 0 is_stmt 1
 631 004e 0123     		movs	r3, #1
 632 0050 FB73     		strb	r3, [r7, #15]
 633              	.L17:
 157:..\..\..\lvgl\version_6.1.2\lvgl\src\lv_misc/lv_area.c ****     }
 158:..\..\..\lvgl\version_6.1.2\lvgl\src\lv_misc/lv_area.c **** 
 159:..\..\..\lvgl\version_6.1.2\lvgl\src\lv_misc/lv_area.c ****     return is_on;
 634              		.loc 2 159 0
 635 0052 FB7B     		ldrb	r3, [r7, #15]	@ zero_extendqisi2
 160:..\..\..\lvgl\version_6.1.2\lvgl\src\lv_misc/lv_area.c **** }
 636              		.loc 2 160 0
 637 0054 1846     		mov	r0, r3
 638 0056 1437     		adds	r7, r7, #20
 639              		.cfi_def_cfa_offset 4
 640 0058 BD46     		mov	sp, r7
 641              		.cfi_def_cfa_register 13
 642              		@ sp needed
 643 005a 5DF8047B 		ldr	r7, [sp], #4
 644              		.cfi_restore 7
 645              		.cfi_def_cfa_offset 0
 646 005e 7047     		bx	lr
 647              		.cfi_endproc
 648              	.LFE10:
 649              		.size	lv_area_is_point_on, .-lv_area_is_point_on
 650              		.section	.text.lv_area_is_on,"ax",%progbits
 651              		.align	2
 652              		.global	lv_area_is_on
 653              		.thumb
ARM GAS  C:\Users\tmj32\AppData\Local\Temp\ccS9z4Wj.s 			page 17


 654              		.thumb_func
 655              		.type	lv_area_is_on, %function
 656              	lv_area_is_on:
 657              	.LFB11:
 161:..\..\..\lvgl\version_6.1.2\lvgl\src\lv_misc/lv_area.c **** 
 162:..\..\..\lvgl\version_6.1.2\lvgl\src\lv_misc/lv_area.c **** /**
 163:..\..\..\lvgl\version_6.1.2\lvgl\src\lv_misc/lv_area.c ****  * Check if two area has common parts
 164:..\..\..\lvgl\version_6.1.2\lvgl\src\lv_misc/lv_area.c ****  * @param a1_p pointer to an area.
 165:..\..\..\lvgl\version_6.1.2\lvgl\src\lv_misc/lv_area.c ****  * @param a2_p pointer to an other area
 166:..\..\..\lvgl\version_6.1.2\lvgl\src\lv_misc/lv_area.c ****  * @return false: a1_p and a2_p has no common parts
 167:..\..\..\lvgl\version_6.1.2\lvgl\src\lv_misc/lv_area.c ****  */
 168:..\..\..\lvgl\version_6.1.2\lvgl\src\lv_misc/lv_area.c **** bool lv_area_is_on(const lv_area_t * a1_p, const lv_area_t * a2_p)
 169:..\..\..\lvgl\version_6.1.2\lvgl\src\lv_misc/lv_area.c **** {
 658              		.loc 2 169 0
 659              		.cfi_startproc
 660              		@ args = 0, pretend = 0, frame = 8
 661              		@ frame_needed = 1, uses_anonymous_args = 0
 662              		@ link register save eliminated.
 663 0000 80B4     		push	{r7}
 664              		.cfi_def_cfa_offset 4
 665              		.cfi_offset 7, -4
 666 0002 83B0     		sub	sp, sp, #12
 667              		.cfi_def_cfa_offset 16
 668 0004 00AF     		add	r7, sp, #0
 669              		.cfi_def_cfa_register 7
 670 0006 7860     		str	r0, [r7, #4]
 671 0008 3960     		str	r1, [r7]
 170:..\..\..\lvgl\version_6.1.2\lvgl\src\lv_misc/lv_area.c ****     if((a1_p->x1 <= a2_p->x2) && (a1_p->x2 >= a2_p->x1) && (a1_p->y1 <= a2_p->y2) && (a1_p->y2 >= a
 672              		.loc 2 170 0
 673 000a 7B68     		ldr	r3, [r7, #4]
 674 000c B3F90020 		ldrsh	r2, [r3]
 675 0010 3B68     		ldr	r3, [r7]
 676 0012 B3F90430 		ldrsh	r3, [r3, #4]
 677 0016 9A42     		cmp	r2, r3
 678 0018 19DC     		bgt	.L20
 679              		.loc 2 170 0 is_stmt 0 discriminator 1
 680 001a 7B68     		ldr	r3, [r7, #4]
 681 001c B3F90420 		ldrsh	r2, [r3, #4]
 682 0020 3B68     		ldr	r3, [r7]
 683 0022 B3F90030 		ldrsh	r3, [r3]
 684 0026 9A42     		cmp	r2, r3
 685 0028 11DB     		blt	.L20
 686              		.loc 2 170 0 discriminator 2
 687 002a 7B68     		ldr	r3, [r7, #4]
 688 002c B3F90220 		ldrsh	r2, [r3, #2]
 689 0030 3B68     		ldr	r3, [r7]
 690 0032 B3F90630 		ldrsh	r3, [r3, #6]
 691 0036 9A42     		cmp	r2, r3
 692 0038 09DC     		bgt	.L20
 693              		.loc 2 170 0 discriminator 3
 694 003a 7B68     		ldr	r3, [r7, #4]
 695 003c B3F90620 		ldrsh	r2, [r3, #6]
 696 0040 3B68     		ldr	r3, [r7]
 697 0042 B3F90230 		ldrsh	r3, [r3, #2]
 698 0046 9A42     		cmp	r2, r3
 699 0048 01DB     		blt	.L20
 171:..\..\..\lvgl\version_6.1.2\lvgl\src\lv_misc/lv_area.c ****         return true;
ARM GAS  C:\Users\tmj32\AppData\Local\Temp\ccS9z4Wj.s 			page 18


 700              		.loc 2 171 0 is_stmt 1
 701 004a 0123     		movs	r3, #1
 702 004c 00E0     		b	.L21
 703              	.L20:
 172:..\..\..\lvgl\version_6.1.2\lvgl\src\lv_misc/lv_area.c ****     } else {
 173:..\..\..\lvgl\version_6.1.2\lvgl\src\lv_misc/lv_area.c ****         return false;
 704              		.loc 2 173 0
 705 004e 0023     		movs	r3, #0
 706              	.L21:
 174:..\..\..\lvgl\version_6.1.2\lvgl\src\lv_misc/lv_area.c ****     }
 175:..\..\..\lvgl\version_6.1.2\lvgl\src\lv_misc/lv_area.c **** }
 707              		.loc 2 175 0
 708 0050 1846     		mov	r0, r3
 709 0052 0C37     		adds	r7, r7, #12
 710              		.cfi_def_cfa_offset 4
 711 0054 BD46     		mov	sp, r7
 712              		.cfi_def_cfa_register 13
 713              		@ sp needed
 714 0056 5DF8047B 		ldr	r7, [sp], #4
 715              		.cfi_restore 7
 716              		.cfi_def_cfa_offset 0
 717 005a 7047     		bx	lr
 718              		.cfi_endproc
 719              	.LFE11:
 720              		.size	lv_area_is_on, .-lv_area_is_on
 721              		.section	.text.lv_area_is_in,"ax",%progbits
 722              		.align	2
 723              		.global	lv_area_is_in
 724              		.thumb
 725              		.thumb_func
 726              		.type	lv_area_is_in, %function
 727              	lv_area_is_in:
 728              	.LFB12:
 176:..\..\..\lvgl\version_6.1.2\lvgl\src\lv_misc/lv_area.c **** 
 177:..\..\..\lvgl\version_6.1.2\lvgl\src\lv_misc/lv_area.c **** /**
 178:..\..\..\lvgl\version_6.1.2\lvgl\src\lv_misc/lv_area.c ****  * Check if an area is fully on an other
 179:..\..\..\lvgl\version_6.1.2\lvgl\src\lv_misc/lv_area.c ****  * @param ain_p pointer to an area which could be in 'aholder_p'
 180:..\..\..\lvgl\version_6.1.2\lvgl\src\lv_misc/lv_area.c ****  * @param aholder pointer to an area which could involve 'ain_p'
 181:..\..\..\lvgl\version_6.1.2\lvgl\src\lv_misc/lv_area.c ****  * @return
 182:..\..\..\lvgl\version_6.1.2\lvgl\src\lv_misc/lv_area.c ****  */
 183:..\..\..\lvgl\version_6.1.2\lvgl\src\lv_misc/lv_area.c **** bool lv_area_is_in(const lv_area_t * ain_p, const lv_area_t * aholder_p)
 184:..\..\..\lvgl\version_6.1.2\lvgl\src\lv_misc/lv_area.c **** {
 729              		.loc 2 184 0
 730              		.cfi_startproc
 731              		@ args = 0, pretend = 0, frame = 16
 732              		@ frame_needed = 1, uses_anonymous_args = 0
 733              		@ link register save eliminated.
 734 0000 80B4     		push	{r7}
 735              		.cfi_def_cfa_offset 4
 736              		.cfi_offset 7, -4
 737 0002 85B0     		sub	sp, sp, #20
 738              		.cfi_def_cfa_offset 24
 739 0004 00AF     		add	r7, sp, #0
 740              		.cfi_def_cfa_register 7
 741 0006 7860     		str	r0, [r7, #4]
 742 0008 3960     		str	r1, [r7]
 185:..\..\..\lvgl\version_6.1.2\lvgl\src\lv_misc/lv_area.c ****     bool is_in = false;
ARM GAS  C:\Users\tmj32\AppData\Local\Temp\ccS9z4Wj.s 			page 19


 743              		.loc 2 185 0
 744 000a 0023     		movs	r3, #0
 745 000c FB73     		strb	r3, [r7, #15]
 186:..\..\..\lvgl\version_6.1.2\lvgl\src\lv_misc/lv_area.c **** 
 187:..\..\..\lvgl\version_6.1.2\lvgl\src\lv_misc/lv_area.c ****     if(ain_p->x1 >= aholder_p->x1 && ain_p->y1 >= aholder_p->y1 && ain_p->x2 <= aholder_p->x2 &&
 746              		.loc 2 187 0
 747 000e 7B68     		ldr	r3, [r7, #4]
 748 0010 B3F90020 		ldrsh	r2, [r3]
 749 0014 3B68     		ldr	r3, [r7]
 750 0016 B3F90030 		ldrsh	r3, [r3]
 751 001a 9A42     		cmp	r2, r3
 752 001c 19DB     		blt	.L23
 753              		.loc 2 187 0 is_stmt 0 discriminator 1
 754 001e 7B68     		ldr	r3, [r7, #4]
 755 0020 B3F90220 		ldrsh	r2, [r3, #2]
 756 0024 3B68     		ldr	r3, [r7]
 757 0026 B3F90230 		ldrsh	r3, [r3, #2]
 758 002a 9A42     		cmp	r2, r3
 759 002c 11DB     		blt	.L23
 760              		.loc 2 187 0 discriminator 2
 761 002e 7B68     		ldr	r3, [r7, #4]
 762 0030 B3F90420 		ldrsh	r2, [r3, #4]
 763 0034 3B68     		ldr	r3, [r7]
 764 0036 B3F90430 		ldrsh	r3, [r3, #4]
 765 003a 9A42     		cmp	r2, r3
 766 003c 09DC     		bgt	.L23
 188:..\..\..\lvgl\version_6.1.2\lvgl\src\lv_misc/lv_area.c ****        ain_p->y2 <= aholder_p->y2) {
 767              		.loc 2 188 0 is_stmt 1 discriminator 3
 768 003e 7B68     		ldr	r3, [r7, #4]
 769 0040 B3F90620 		ldrsh	r2, [r3, #6]
 770 0044 3B68     		ldr	r3, [r7]
 771 0046 B3F90630 		ldrsh	r3, [r3, #6]
 187:..\..\..\lvgl\version_6.1.2\lvgl\src\lv_misc/lv_area.c ****        ain_p->y2 <= aholder_p->y2) {
 772              		.loc 2 187 0 discriminator 3
 773 004a 9A42     		cmp	r2, r3
 774 004c 01DC     		bgt	.L23
 189:..\..\..\lvgl\version_6.1.2\lvgl\src\lv_misc/lv_area.c ****         is_in = true;
 775              		.loc 2 189 0
 776 004e 0123     		movs	r3, #1
 777 0050 FB73     		strb	r3, [r7, #15]
 778              	.L23:
 190:..\..\..\lvgl\version_6.1.2\lvgl\src\lv_misc/lv_area.c ****     }
 191:..\..\..\lvgl\version_6.1.2\lvgl\src\lv_misc/lv_area.c **** 
 192:..\..\..\lvgl\version_6.1.2\lvgl\src\lv_misc/lv_area.c ****     return is_in;
 779              		.loc 2 192 0
 780 0052 FB7B     		ldrb	r3, [r7, #15]	@ zero_extendqisi2
 193:..\..\..\lvgl\version_6.1.2\lvgl\src\lv_misc/lv_area.c **** }
 781              		.loc 2 193 0
 782 0054 1846     		mov	r0, r3
 783 0056 1437     		adds	r7, r7, #20
 784              		.cfi_def_cfa_offset 4
 785 0058 BD46     		mov	sp, r7
 786              		.cfi_def_cfa_register 13
 787              		@ sp needed
 788 005a 5DF8047B 		ldr	r7, [sp], #4
 789              		.cfi_restore 7
 790              		.cfi_def_cfa_offset 0
ARM GAS  C:\Users\tmj32\AppData\Local\Temp\ccS9z4Wj.s 			page 20


 791 005e 7047     		bx	lr
 792              		.cfi_endproc
 793              	.LFE12:
 794              		.size	lv_area_is_in, .-lv_area_is_in
 795              		.section	.text.lv_area_increment,"ax",%progbits
 796              		.align	2
 797              		.global	lv_area_increment
 798              		.thumb
 799              		.thumb_func
 800              		.type	lv_area_increment, %function
 801              	lv_area_increment:
 802              	.LFB13:
 194:..\..\..\lvgl\version_6.1.2\lvgl\src\lv_misc/lv_area.c **** 
 195:..\..\..\lvgl\version_6.1.2\lvgl\src\lv_misc/lv_area.c **** /**
 196:..\..\..\lvgl\version_6.1.2\lvgl\src\lv_misc/lv_area.c ****  * Increment or decrement an area's size by a single amount
 197:..\..\..\lvgl\version_6.1.2\lvgl\src\lv_misc/lv_area.c ****  * @param a_p pointer to an area to grow
 198:..\..\..\lvgl\version_6.1.2\lvgl\src\lv_misc/lv_area.c ****  * @param amount amount to increment the area, or negative to decrement
 199:..\..\..\lvgl\version_6.1.2\lvgl\src\lv_misc/lv_area.c ****  */
 200:..\..\..\lvgl\version_6.1.2\lvgl\src\lv_misc/lv_area.c **** void lv_area_increment(lv_area_t * a_p, const lv_coord_t amount)
 201:..\..\..\lvgl\version_6.1.2\lvgl\src\lv_misc/lv_area.c **** {
 803              		.loc 2 201 0
 804              		.cfi_startproc
 805              		@ args = 0, pretend = 0, frame = 8
 806              		@ frame_needed = 1, uses_anonymous_args = 0
 807              		@ link register save eliminated.
 808 0000 80B4     		push	{r7}
 809              		.cfi_def_cfa_offset 4
 810              		.cfi_offset 7, -4
 811 0002 83B0     		sub	sp, sp, #12
 812              		.cfi_def_cfa_offset 16
 813 0004 00AF     		add	r7, sp, #0
 814              		.cfi_def_cfa_register 7
 815 0006 7860     		str	r0, [r7, #4]
 816 0008 0B46     		mov	r3, r1
 817 000a 7B80     		strh	r3, [r7, #2]	@ movhi
 202:..\..\..\lvgl\version_6.1.2\lvgl\src\lv_misc/lv_area.c ****     a_p->x1 -= amount;
 818              		.loc 2 202 0
 819 000c 7B68     		ldr	r3, [r7, #4]
 820 000e B3F90030 		ldrsh	r3, [r3]
 821 0012 9AB2     		uxth	r2, r3
 822 0014 7B88     		ldrh	r3, [r7, #2]
 823 0016 D31A     		subs	r3, r2, r3
 824 0018 9BB2     		uxth	r3, r3
 825 001a 1AB2     		sxth	r2, r3
 826 001c 7B68     		ldr	r3, [r7, #4]
 827 001e 1A80     		strh	r2, [r3]	@ movhi
 203:..\..\..\lvgl\version_6.1.2\lvgl\src\lv_misc/lv_area.c ****     a_p->y1 -= amount;
 828              		.loc 2 203 0
 829 0020 7B68     		ldr	r3, [r7, #4]
 830 0022 B3F90230 		ldrsh	r3, [r3, #2]
 831 0026 9AB2     		uxth	r2, r3
 832 0028 7B88     		ldrh	r3, [r7, #2]
 833 002a D31A     		subs	r3, r2, r3
 834 002c 9BB2     		uxth	r3, r3
 835 002e 1AB2     		sxth	r2, r3
 836 0030 7B68     		ldr	r3, [r7, #4]
 837 0032 5A80     		strh	r2, [r3, #2]	@ movhi
ARM GAS  C:\Users\tmj32\AppData\Local\Temp\ccS9z4Wj.s 			page 21


 204:..\..\..\lvgl\version_6.1.2\lvgl\src\lv_misc/lv_area.c ****     a_p->x2 += amount;
 838              		.loc 2 204 0
 839 0034 7B68     		ldr	r3, [r7, #4]
 840 0036 B3F90430 		ldrsh	r3, [r3, #4]
 841 003a 9AB2     		uxth	r2, r3
 842 003c 7B88     		ldrh	r3, [r7, #2]
 843 003e 1344     		add	r3, r3, r2
 844 0040 9BB2     		uxth	r3, r3
 845 0042 1AB2     		sxth	r2, r3
 846 0044 7B68     		ldr	r3, [r7, #4]
 847 0046 9A80     		strh	r2, [r3, #4]	@ movhi
 205:..\..\..\lvgl\version_6.1.2\lvgl\src\lv_misc/lv_area.c ****     a_p->y2 += amount;
 848              		.loc 2 205 0
 849 0048 7B68     		ldr	r3, [r7, #4]
 850 004a B3F90630 		ldrsh	r3, [r3, #6]
 851 004e 9AB2     		uxth	r2, r3
 852 0050 7B88     		ldrh	r3, [r7, #2]
 853 0052 1344     		add	r3, r3, r2
 854 0054 9BB2     		uxth	r3, r3
 855 0056 1AB2     		sxth	r2, r3
 856 0058 7B68     		ldr	r3, [r7, #4]
 857 005a DA80     		strh	r2, [r3, #6]	@ movhi
 206:..\..\..\lvgl\version_6.1.2\lvgl\src\lv_misc/lv_area.c **** }
 858              		.loc 2 206 0
 859 005c 00BF     		nop
 860 005e 0C37     		adds	r7, r7, #12
 861              		.cfi_def_cfa_offset 4
 862 0060 BD46     		mov	sp, r7
 863              		.cfi_def_cfa_register 13
 864              		@ sp needed
 865 0062 5DF8047B 		ldr	r7, [sp], #4
 866              		.cfi_restore 7
 867              		.cfi_def_cfa_offset 0
 868 0066 7047     		bx	lr
 869              		.cfi_endproc
 870              	.LFE13:
 871              		.size	lv_area_increment, .-lv_area_increment
 872              		.text
 873              	.Letext0:
 874              		.file 3 "c:\\program files (x86)\\cypress\\psoc creator\\4.3\\psoc creator\\import\\gnu\\arm\\5.4.
 875              		.file 4 "c:\\program files (x86)\\cypress\\psoc creator\\4.3\\psoc creator\\import\\gnu\\arm\\5.4.
 876              		.file 5 "..\\..\\..\\lvgl\\version_6.1.2\\lvgl\\src\\lv_misc\\../../../lv_conf.h"