ARM GAS  C:\Users\tmj32\AppData\Local\Temp\ccIqOG38.s 			page 1


   1              		.syntax unified
   2              		.cpu cortex-m4
   3              		.eabi_attribute 27, 1
   4              		.fpu fpv4-sp-d16
   5              		.eabi_attribute 20, 1
   6              		.eabi_attribute 21, 1
   7              		.eabi_attribute 23, 3
   8              		.eabi_attribute 24, 1
   9              		.eabi_attribute 25, 1
  10              		.eabi_attribute 26, 1
  11              		.eabi_attribute 30, 6
  12              		.eabi_attribute 34, 1
  13              		.eabi_attribute 18, 4
  14              		.thumb
  15              		.syntax unified
  16              		.file	"lv_anim.c"
  17              		.text
  18              	.Ltext0:
  19              		.cfi_sections	.debug_frame
  20              		.bss
  21              		.align	2
  22              	last_task_run:
  23 0000 00000000 		.space	4
  24              	anim_list_changed:
  25 0004 00       		.space	1
  26              		.section	.text.lv_anim_core_init,"ax",%progbits
  27              		.align	2
  28              		.global	lv_anim_core_init
  29              		.thumb
  30              		.thumb_func
  31              		.type	lv_anim_core_init, %function
  32              	lv_anim_core_init:
  33              	.LFB31:
  34              		.file 1 "..\\..\\..\\lvgl\\version_6.1.2\\lvgl\\src\\lv_misc\\lv_anim.c"
   1:..\..\..\lvgl\version_6.1.2\lvgl\src\lv_misc/lv_anim.c **** /**
   2:..\..\..\lvgl\version_6.1.2\lvgl\src\lv_misc/lv_anim.c ****  * @file anim.c
   3:..\..\..\lvgl\version_6.1.2\lvgl\src\lv_misc/lv_anim.c ****  *
   4:..\..\..\lvgl\version_6.1.2\lvgl\src\lv_misc/lv_anim.c ****  */
   5:..\..\..\lvgl\version_6.1.2\lvgl\src\lv_misc/lv_anim.c **** 
   6:..\..\..\lvgl\version_6.1.2\lvgl\src\lv_misc/lv_anim.c **** /*********************
   7:..\..\..\lvgl\version_6.1.2\lvgl\src\lv_misc/lv_anim.c ****  *      INCLUDES
   8:..\..\..\lvgl\version_6.1.2\lvgl\src\lv_misc/lv_anim.c ****  *********************/
   9:..\..\..\lvgl\version_6.1.2\lvgl\src\lv_misc/lv_anim.c **** #include "lv_anim.h"
  10:..\..\..\lvgl\version_6.1.2\lvgl\src\lv_misc/lv_anim.c **** 
  11:..\..\..\lvgl\version_6.1.2\lvgl\src\lv_misc/lv_anim.c **** #if LV_USE_ANIMATION
  12:..\..\..\lvgl\version_6.1.2\lvgl\src\lv_misc/lv_anim.c **** #include <stddef.h>
  13:..\..\..\lvgl\version_6.1.2\lvgl\src\lv_misc/lv_anim.c **** #include <string.h>
  14:..\..\..\lvgl\version_6.1.2\lvgl\src\lv_misc/lv_anim.c **** #include "../lv_core/lv_debug.h"
  15:..\..\..\lvgl\version_6.1.2\lvgl\src\lv_misc/lv_anim.c **** #include "../lv_hal/lv_hal_tick.h"
  16:..\..\..\lvgl\version_6.1.2\lvgl\src\lv_misc/lv_anim.c **** #include "lv_task.h"
  17:..\..\..\lvgl\version_6.1.2\lvgl\src\lv_misc/lv_anim.c **** #include "lv_math.h"
  18:..\..\..\lvgl\version_6.1.2\lvgl\src\lv_misc/lv_anim.c **** #include "lv_gc.h"
  19:..\..\..\lvgl\version_6.1.2\lvgl\src\lv_misc/lv_anim.c **** 
  20:..\..\..\lvgl\version_6.1.2\lvgl\src\lv_misc/lv_anim.c **** #if defined(LV_GC_INCLUDE)
  21:..\..\..\lvgl\version_6.1.2\lvgl\src\lv_misc/lv_anim.c **** #include LV_GC_INCLUDE
  22:..\..\..\lvgl\version_6.1.2\lvgl\src\lv_misc/lv_anim.c **** #endif /* LV_ENABLE_GC */
  23:..\..\..\lvgl\version_6.1.2\lvgl\src\lv_misc/lv_anim.c **** 
ARM GAS  C:\Users\tmj32\AppData\Local\Temp\ccIqOG38.s 			page 2


  24:..\..\..\lvgl\version_6.1.2\lvgl\src\lv_misc/lv_anim.c **** /*********************
  25:..\..\..\lvgl\version_6.1.2\lvgl\src\lv_misc/lv_anim.c ****  *      DEFINES
  26:..\..\..\lvgl\version_6.1.2\lvgl\src\lv_misc/lv_anim.c ****  *********************/
  27:..\..\..\lvgl\version_6.1.2\lvgl\src\lv_misc/lv_anim.c **** #define LV_ANIM_RESOLUTION 1024
  28:..\..\..\lvgl\version_6.1.2\lvgl\src\lv_misc/lv_anim.c **** #define LV_ANIM_RES_SHIFT 10
  29:..\..\..\lvgl\version_6.1.2\lvgl\src\lv_misc/lv_anim.c **** 
  30:..\..\..\lvgl\version_6.1.2\lvgl\src\lv_misc/lv_anim.c **** /**********************
  31:..\..\..\lvgl\version_6.1.2\lvgl\src\lv_misc/lv_anim.c ****  *      TYPEDEFS
  32:..\..\..\lvgl\version_6.1.2\lvgl\src\lv_misc/lv_anim.c ****  **********************/
  33:..\..\..\lvgl\version_6.1.2\lvgl\src\lv_misc/lv_anim.c **** 
  34:..\..\..\lvgl\version_6.1.2\lvgl\src\lv_misc/lv_anim.c **** /**********************
  35:..\..\..\lvgl\version_6.1.2\lvgl\src\lv_misc/lv_anim.c ****  *  STATIC PROTOTYPES
  36:..\..\..\lvgl\version_6.1.2\lvgl\src\lv_misc/lv_anim.c ****  **********************/
  37:..\..\..\lvgl\version_6.1.2\lvgl\src\lv_misc/lv_anim.c **** static void anim_task(lv_task_t * param);
  38:..\..\..\lvgl\version_6.1.2\lvgl\src\lv_misc/lv_anim.c **** static bool anim_ready_handler(lv_anim_t * a);
  39:..\..\..\lvgl\version_6.1.2\lvgl\src\lv_misc/lv_anim.c **** 
  40:..\..\..\lvgl\version_6.1.2\lvgl\src\lv_misc/lv_anim.c **** /**********************
  41:..\..\..\lvgl\version_6.1.2\lvgl\src\lv_misc/lv_anim.c ****  *  STATIC VARIABLES
  42:..\..\..\lvgl\version_6.1.2\lvgl\src\lv_misc/lv_anim.c ****  **********************/
  43:..\..\..\lvgl\version_6.1.2\lvgl\src\lv_misc/lv_anim.c **** static uint32_t last_task_run;
  44:..\..\..\lvgl\version_6.1.2\lvgl\src\lv_misc/lv_anim.c **** static bool anim_list_changed;
  45:..\..\..\lvgl\version_6.1.2\lvgl\src\lv_misc/lv_anim.c **** 
  46:..\..\..\lvgl\version_6.1.2\lvgl\src\lv_misc/lv_anim.c **** /**********************
  47:..\..\..\lvgl\version_6.1.2\lvgl\src\lv_misc/lv_anim.c ****  *      MACROS
  48:..\..\..\lvgl\version_6.1.2\lvgl\src\lv_misc/lv_anim.c ****  **********************/
  49:..\..\..\lvgl\version_6.1.2\lvgl\src\lv_misc/lv_anim.c **** 
  50:..\..\..\lvgl\version_6.1.2\lvgl\src\lv_misc/lv_anim.c **** /**********************
  51:..\..\..\lvgl\version_6.1.2\lvgl\src\lv_misc/lv_anim.c ****  *   GLOBAL FUNCTIONS
  52:..\..\..\lvgl\version_6.1.2\lvgl\src\lv_misc/lv_anim.c ****  **********************/
  53:..\..\..\lvgl\version_6.1.2\lvgl\src\lv_misc/lv_anim.c **** 
  54:..\..\..\lvgl\version_6.1.2\lvgl\src\lv_misc/lv_anim.c **** /**
  55:..\..\..\lvgl\version_6.1.2\lvgl\src\lv_misc/lv_anim.c ****  * Init. the animation module
  56:..\..\..\lvgl\version_6.1.2\lvgl\src\lv_misc/lv_anim.c ****  */
  57:..\..\..\lvgl\version_6.1.2\lvgl\src\lv_misc/lv_anim.c **** void lv_anim_core_init(void)
  58:..\..\..\lvgl\version_6.1.2\lvgl\src\lv_misc/lv_anim.c **** {
  35              		.loc 1 58 0
  36              		.cfi_startproc
  37              		@ args = 0, pretend = 0, frame = 0
  38              		@ frame_needed = 1, uses_anonymous_args = 0
  39 0000 80B5     		push	{r7, lr}
  40              		.cfi_def_cfa_offset 8
  41              		.cfi_offset 7, -8
  42              		.cfi_offset 14, -4
  43 0002 00AF     		add	r7, sp, #0
  44              		.cfi_def_cfa_register 7
  59:..\..\..\lvgl\version_6.1.2\lvgl\src\lv_misc/lv_anim.c ****     lv_ll_init(&LV_GC_ROOT(_lv_anim_ll), sizeof(lv_anim_t));
  45              		.loc 1 59 0
  46 0004 2421     		movs	r1, #36
  47 0006 0848     		ldr	r0, .L2
  48 0008 FFF7FEFF 		bl	lv_ll_init
  60:..\..\..\lvgl\version_6.1.2\lvgl\src\lv_misc/lv_anim.c ****     last_task_run = lv_tick_get();
  49              		.loc 1 60 0
  50 000c FFF7FEFF 		bl	lv_tick_get
  51 0010 0246     		mov	r2, r0
  52 0012 064B     		ldr	r3, .L2+4
  53 0014 1A60     		str	r2, [r3]
  61:..\..\..\lvgl\version_6.1.2\lvgl\src\lv_misc/lv_anim.c ****     lv_task_create(anim_task, LV_DISP_DEF_REFR_PERIOD, LV_TASK_PRIO_MID, NULL);
ARM GAS  C:\Users\tmj32\AppData\Local\Temp\ccIqOG38.s 			page 3


  54              		.loc 1 61 0
  55 0016 0023     		movs	r3, #0
  56 0018 0322     		movs	r2, #3
  57 001a 1E21     		movs	r1, #30
  58 001c 0448     		ldr	r0, .L2+8
  59 001e FFF7FEFF 		bl	lv_task_create
  62:..\..\..\lvgl\version_6.1.2\lvgl\src\lv_misc/lv_anim.c **** }
  60              		.loc 1 62 0
  61 0022 00BF     		nop
  62 0024 80BD     		pop	{r7, pc}
  63              	.L3:
  64 0026 00BF     		.align	2
  65              	.L2:
  66 0028 00000000 		.word	_lv_anim_ll
  67 002c 00000000 		.word	last_task_run
  68 0030 00000000 		.word	anim_task
  69              		.cfi_endproc
  70              	.LFE31:
  71              		.size	lv_anim_core_init, .-lv_anim_core_init
  72              		.section	.text.lv_anim_init,"ax",%progbits
  73              		.align	2
  74              		.global	lv_anim_init
  75              		.thumb
  76              		.thumb_func
  77              		.type	lv_anim_init, %function
  78              	lv_anim_init:
  79              	.LFB32:
  63:..\..\..\lvgl\version_6.1.2\lvgl\src\lv_misc/lv_anim.c **** 
  64:..\..\..\lvgl\version_6.1.2\lvgl\src\lv_misc/lv_anim.c **** /**
  65:..\..\..\lvgl\version_6.1.2\lvgl\src\lv_misc/lv_anim.c ****  * Initialize an animation variable.
  66:..\..\..\lvgl\version_6.1.2\lvgl\src\lv_misc/lv_anim.c ****  * E.g.:
  67:..\..\..\lvgl\version_6.1.2\lvgl\src\lv_misc/lv_anim.c ****  * lv_anim_t a;
  68:..\..\..\lvgl\version_6.1.2\lvgl\src\lv_misc/lv_anim.c ****  * lv_anim_init(&a);
  69:..\..\..\lvgl\version_6.1.2\lvgl\src\lv_misc/lv_anim.c ****  * lv_anim_set_...(&a);
  70:..\..\..\lvgl\version_6.1.2\lvgl\src\lv_misc/lv_anim.c ****  * lv_anim_craete(&a);
  71:..\..\..\lvgl\version_6.1.2\lvgl\src\lv_misc/lv_anim.c ****  * @param a pointer to an `lv_anim_t` variable to initialize
  72:..\..\..\lvgl\version_6.1.2\lvgl\src\lv_misc/lv_anim.c ****  */
  73:..\..\..\lvgl\version_6.1.2\lvgl\src\lv_misc/lv_anim.c **** void lv_anim_init(lv_anim_t * a)
  74:..\..\..\lvgl\version_6.1.2\lvgl\src\lv_misc/lv_anim.c **** {
  80              		.loc 1 74 0
  81              		.cfi_startproc
  82              		@ args = 0, pretend = 0, frame = 8
  83              		@ frame_needed = 1, uses_anonymous_args = 0
  84 0000 80B5     		push	{r7, lr}
  85              		.cfi_def_cfa_offset 8
  86              		.cfi_offset 7, -8
  87              		.cfi_offset 14, -4
  88 0002 82B0     		sub	sp, sp, #8
  89              		.cfi_def_cfa_offset 16
  90 0004 00AF     		add	r7, sp, #0
  91              		.cfi_def_cfa_register 7
  92 0006 7860     		str	r0, [r7, #4]
  75:..\..\..\lvgl\version_6.1.2\lvgl\src\lv_misc/lv_anim.c ****     memset(a, 0, sizeof(lv_anim_t));
  93              		.loc 1 75 0
  94 0008 2422     		movs	r2, #36
  95 000a 0021     		movs	r1, #0
  96 000c 7868     		ldr	r0, [r7, #4]
ARM GAS  C:\Users\tmj32\AppData\Local\Temp\ccIqOG38.s 			page 4


  97 000e FFF7FEFF 		bl	memset
  76:..\..\..\lvgl\version_6.1.2\lvgl\src\lv_misc/lv_anim.c ****     a->time    = 500;
  98              		.loc 1 76 0
  99 0012 7B68     		ldr	r3, [r7, #4]
 100 0014 4FF4FA72 		mov	r2, #500
 101 0018 1A83     		strh	r2, [r3, #24]	@ movhi
  77:..\..\..\lvgl\version_6.1.2\lvgl\src\lv_misc/lv_anim.c ****     a->start   = 0;
 102              		.loc 1 77 0
 103 001a 7B68     		ldr	r3, [r7, #4]
 104 001c 0022     		movs	r2, #0
 105 001e 1A61     		str	r2, [r3, #16]
  78:..\..\..\lvgl\version_6.1.2\lvgl\src\lv_misc/lv_anim.c ****     a->end     = 100;
 106              		.loc 1 78 0
 107 0020 7B68     		ldr	r3, [r7, #4]
 108 0022 6422     		movs	r2, #100
 109 0024 5A61     		str	r2, [r3, #20]
  79:..\..\..\lvgl\version_6.1.2\lvgl\src\lv_misc/lv_anim.c ****     a->path_cb = lv_anim_path_linear;
 110              		.loc 1 79 0
 111 0026 7B68     		ldr	r3, [r7, #4]
 112 0028 024A     		ldr	r2, .L5
 113 002a 9A60     		str	r2, [r3, #8]
  80:..\..\..\lvgl\version_6.1.2\lvgl\src\lv_misc/lv_anim.c **** }
 114              		.loc 1 80 0
 115 002c 00BF     		nop
 116 002e 0837     		adds	r7, r7, #8
 117              		.cfi_def_cfa_offset 8
 118 0030 BD46     		mov	sp, r7
 119              		.cfi_def_cfa_register 13
 120              		@ sp needed
 121 0032 80BD     		pop	{r7, pc}
 122              	.L6:
 123              		.align	2
 124              	.L5:
 125 0034 00000000 		.word	lv_anim_path_linear
 126              		.cfi_endproc
 127              	.LFE32:
 128              		.size	lv_anim_init, .-lv_anim_init
 129              		.section	.text.lv_anim_create,"ax",%progbits
 130              		.align	2
 131              		.global	lv_anim_create
 132              		.thumb
 133              		.thumb_func
 134              		.type	lv_anim_create, %function
 135              	lv_anim_create:
 136              	.LFB33:
  81:..\..\..\lvgl\version_6.1.2\lvgl\src\lv_misc/lv_anim.c **** /**
  82:..\..\..\lvgl\version_6.1.2\lvgl\src\lv_misc/lv_anim.c ****  * Create an animation
  83:..\..\..\lvgl\version_6.1.2\lvgl\src\lv_misc/lv_anim.c ****  * @param a an initialized 'anim_t' variable. Not required after call.
  84:..\..\..\lvgl\version_6.1.2\lvgl\src\lv_misc/lv_anim.c ****  */
  85:..\..\..\lvgl\version_6.1.2\lvgl\src\lv_misc/lv_anim.c **** void lv_anim_create(lv_anim_t * a)
  86:..\..\..\lvgl\version_6.1.2\lvgl\src\lv_misc/lv_anim.c **** {
 137              		.loc 1 86 0
 138              		.cfi_startproc
 139              		@ args = 0, pretend = 0, frame = 16
 140              		@ frame_needed = 1, uses_anonymous_args = 0
 141 0000 80B5     		push	{r7, lr}
 142              		.cfi_def_cfa_offset 8
ARM GAS  C:\Users\tmj32\AppData\Local\Temp\ccIqOG38.s 			page 5


 143              		.cfi_offset 7, -8
 144              		.cfi_offset 14, -4
 145 0002 84B0     		sub	sp, sp, #16
 146              		.cfi_def_cfa_offset 24
 147 0004 00AF     		add	r7, sp, #0
 148              		.cfi_def_cfa_register 7
 149 0006 7860     		str	r0, [r7, #4]
  87:..\..\..\lvgl\version_6.1.2\lvgl\src\lv_misc/lv_anim.c ****     LV_LOG_TRACE("animation create started")
  88:..\..\..\lvgl\version_6.1.2\lvgl\src\lv_misc/lv_anim.c ****     /* Do not let two animations for the  same 'var' with the same 'fp'*/
  89:..\..\..\lvgl\version_6.1.2\lvgl\src\lv_misc/lv_anim.c ****     if(a->exec_cb != NULL) lv_anim_del(a->var, a->exec_cb); /*fp == NULL would delete all animation
 150              		.loc 1 89 0
 151 0008 7B68     		ldr	r3, [r7, #4]
 152 000a 5B68     		ldr	r3, [r3, #4]
 153 000c 002B     		cmp	r3, #0
 154 000e 07D0     		beq	.L8
 155              		.loc 1 89 0 is_stmt 0 discriminator 1
 156 0010 7B68     		ldr	r3, [r7, #4]
 157 0012 1A68     		ldr	r2, [r3]
 158 0014 7B68     		ldr	r3, [r7, #4]
 159 0016 5B68     		ldr	r3, [r3, #4]
 160 0018 1946     		mov	r1, r3
 161 001a 1046     		mov	r0, r2
 162 001c FFF7FEFF 		bl	lv_anim_del
 163              	.L8:
  90:..\..\..\lvgl\version_6.1.2\lvgl\src\lv_misc/lv_anim.c **** 
  91:..\..\..\lvgl\version_6.1.2\lvgl\src\lv_misc/lv_anim.c ****     /*Add the new animation to the animation linked list*/
  92:..\..\..\lvgl\version_6.1.2\lvgl\src\lv_misc/lv_anim.c ****     lv_anim_t * new_anim = lv_ll_ins_head(&LV_GC_ROOT(_lv_anim_ll));
 164              		.loc 1 92 0 is_stmt 1
 165 0020 1348     		ldr	r0, .L13
 166 0022 FFF7FEFF 		bl	lv_ll_ins_head
 167 0026 F860     		str	r0, [r7, #12]
  93:..\..\..\lvgl\version_6.1.2\lvgl\src\lv_misc/lv_anim.c ****     LV_ASSERT_MEM(new_anim);
  94:..\..\..\lvgl\version_6.1.2\lvgl\src\lv_misc/lv_anim.c ****     if(new_anim == NULL) return;
 168              		.loc 1 94 0
 169 0028 FB68     		ldr	r3, [r7, #12]
 170 002a 002B     		cmp	r3, #0
 171 002c 1CD0     		beq	.L12
  95:..\..\..\lvgl\version_6.1.2\lvgl\src\lv_misc/lv_anim.c **** 
  96:..\..\..\lvgl\version_6.1.2\lvgl\src\lv_misc/lv_anim.c ****     /*Initialize the animation descriptor*/
  97:..\..\..\lvgl\version_6.1.2\lvgl\src\lv_misc/lv_anim.c ****     a->playback_now = 0;
 172              		.loc 1 97 0
 173 002e 7A68     		ldr	r2, [r7, #4]
 174 0030 92F82030 		ldrb	r3, [r2, #32]
 175 0034 6FF38203 		bfc	r3, #2, #1
 176 0038 82F82030 		strb	r3, [r2, #32]
  98:..\..\..\lvgl\version_6.1.2\lvgl\src\lv_misc/lv_anim.c ****     memcpy(new_anim, a, sizeof(lv_anim_t));
 177              		.loc 1 98 0
 178 003c 2422     		movs	r2, #36
 179 003e 7968     		ldr	r1, [r7, #4]
 180 0040 F868     		ldr	r0, [r7, #12]
 181 0042 FFF7FEFF 		bl	memcpy
  99:..\..\..\lvgl\version_6.1.2\lvgl\src\lv_misc/lv_anim.c **** 
 100:..\..\..\lvgl\version_6.1.2\lvgl\src\lv_misc/lv_anim.c ****     /*Set the start value*/
 101:..\..\..\lvgl\version_6.1.2\lvgl\src\lv_misc/lv_anim.c ****     if(new_anim->exec_cb) new_anim->exec_cb(new_anim->var, new_anim->start);
 182              		.loc 1 101 0
 183 0046 FB68     		ldr	r3, [r7, #12]
 184 0048 5B68     		ldr	r3, [r3, #4]
ARM GAS  C:\Users\tmj32\AppData\Local\Temp\ccIqOG38.s 			page 6


 185 004a 002B     		cmp	r3, #0
 186 004c 08D0     		beq	.L11
 187              		.loc 1 101 0 is_stmt 0 discriminator 1
 188 004e FB68     		ldr	r3, [r7, #12]
 189 0050 5B68     		ldr	r3, [r3, #4]
 190 0052 FA68     		ldr	r2, [r7, #12]
 191 0054 1068     		ldr	r0, [r2]
 192 0056 FA68     		ldr	r2, [r7, #12]
 193 0058 1269     		ldr	r2, [r2, #16]
 194 005a 12B2     		sxth	r2, r2
 195 005c 1146     		mov	r1, r2
 196 005e 9847     		blx	r3
 197              	.L11:
 102:..\..\..\lvgl\version_6.1.2\lvgl\src\lv_misc/lv_anim.c **** 
 103:..\..\..\lvgl\version_6.1.2\lvgl\src\lv_misc/lv_anim.c ****     /* Creating an animation changed the linked list.
 104:..\..\..\lvgl\version_6.1.2\lvgl\src\lv_misc/lv_anim.c ****      * It's important if it happens in a ready callback. (see `anim_task`)*/
 105:..\..\..\lvgl\version_6.1.2\lvgl\src\lv_misc/lv_anim.c ****     anim_list_changed = true;
 198              		.loc 1 105 0 is_stmt 1
 199 0060 044B     		ldr	r3, .L13+4
 200 0062 0122     		movs	r2, #1
 201 0064 1A70     		strb	r2, [r3]
 202 0066 00E0     		b	.L7
 203              	.L12:
  94:..\..\..\lvgl\version_6.1.2\lvgl\src\lv_misc/lv_anim.c **** 
 204              		.loc 1 94 0
 205 0068 00BF     		nop
 206              	.L7:
 106:..\..\..\lvgl\version_6.1.2\lvgl\src\lv_misc/lv_anim.c **** 
 107:..\..\..\lvgl\version_6.1.2\lvgl\src\lv_misc/lv_anim.c ****     LV_LOG_TRACE("animation created")
 108:..\..\..\lvgl\version_6.1.2\lvgl\src\lv_misc/lv_anim.c **** }
 207              		.loc 1 108 0
 208 006a 1037     		adds	r7, r7, #16
 209              		.cfi_def_cfa_offset 8
 210 006c BD46     		mov	sp, r7
 211              		.cfi_def_cfa_register 13
 212              		@ sp needed
 213 006e 80BD     		pop	{r7, pc}
 214              	.L14:
 215              		.align	2
 216              	.L13:
 217 0070 00000000 		.word	_lv_anim_ll
 218 0074 04000000 		.word	anim_list_changed
 219              		.cfi_endproc
 220              	.LFE33:
 221              		.size	lv_anim_create, .-lv_anim_create
 222              		.section	.text.lv_anim_del,"ax",%progbits
 223              		.align	2
 224              		.global	lv_anim_del
 225              		.thumb
 226              		.thumb_func
 227              		.type	lv_anim_del, %function
 228              	lv_anim_del:
 229              	.LFB34:
 109:..\..\..\lvgl\version_6.1.2\lvgl\src\lv_misc/lv_anim.c **** 
 110:..\..\..\lvgl\version_6.1.2\lvgl\src\lv_misc/lv_anim.c **** /**
 111:..\..\..\lvgl\version_6.1.2\lvgl\src\lv_misc/lv_anim.c ****  * Delete an animation of a variable with a given animator function
 112:..\..\..\lvgl\version_6.1.2\lvgl\src\lv_misc/lv_anim.c ****  * @param var pointer to variable
ARM GAS  C:\Users\tmj32\AppData\Local\Temp\ccIqOG38.s 			page 7


 113:..\..\..\lvgl\version_6.1.2\lvgl\src\lv_misc/lv_anim.c ****  * @param exec_cb a function pointer which is animating 'var',
 114:..\..\..\lvgl\version_6.1.2\lvgl\src\lv_misc/lv_anim.c ****  *           or NULL to delete all the animations of 'var'
 115:..\..\..\lvgl\version_6.1.2\lvgl\src\lv_misc/lv_anim.c ****  * @return true: at least 1 animation is deleted, false: no animation is deleted
 116:..\..\..\lvgl\version_6.1.2\lvgl\src\lv_misc/lv_anim.c ****  */
 117:..\..\..\lvgl\version_6.1.2\lvgl\src\lv_misc/lv_anim.c **** bool lv_anim_del(void * var, lv_anim_exec_xcb_t exec_cb)
 118:..\..\..\lvgl\version_6.1.2\lvgl\src\lv_misc/lv_anim.c **** {
 230              		.loc 1 118 0
 231              		.cfi_startproc
 232              		@ args = 0, pretend = 0, frame = 24
 233              		@ frame_needed = 1, uses_anonymous_args = 0
 234 0000 80B5     		push	{r7, lr}
 235              		.cfi_def_cfa_offset 8
 236              		.cfi_offset 7, -8
 237              		.cfi_offset 14, -4
 238 0002 86B0     		sub	sp, sp, #24
 239              		.cfi_def_cfa_offset 32
 240 0004 00AF     		add	r7, sp, #0
 241              		.cfi_def_cfa_register 7
 242 0006 7860     		str	r0, [r7, #4]
 243 0008 3960     		str	r1, [r7]
 119:..\..\..\lvgl\version_6.1.2\lvgl\src\lv_misc/lv_anim.c ****     lv_anim_t * a;
 120:..\..\..\lvgl\version_6.1.2\lvgl\src\lv_misc/lv_anim.c ****     lv_anim_t * a_next;
 121:..\..\..\lvgl\version_6.1.2\lvgl\src\lv_misc/lv_anim.c ****     bool del = false;
 244              		.loc 1 121 0
 245 000a 0023     		movs	r3, #0
 246 000c FB74     		strb	r3, [r7, #19]
 122:..\..\..\lvgl\version_6.1.2\lvgl\src\lv_misc/lv_anim.c ****     a        = lv_ll_get_head(&LV_GC_ROOT(_lv_anim_ll));
 247              		.loc 1 122 0
 248 000e 1648     		ldr	r0, .L21
 249 0010 FFF7FEFF 		bl	lv_ll_get_head
 250 0014 7861     		str	r0, [r7, #20]
 123:..\..\..\lvgl\version_6.1.2\lvgl\src\lv_misc/lv_anim.c ****     while(a != NULL) {
 251              		.loc 1 123 0
 252 0016 1FE0     		b	.L16
 253              	.L19:
 124:..\..\..\lvgl\version_6.1.2\lvgl\src\lv_misc/lv_anim.c ****         /*'a' might be deleted, so get the next object while 'a' is valid*/
 125:..\..\..\lvgl\version_6.1.2\lvgl\src\lv_misc/lv_anim.c ****         a_next = lv_ll_get_next(&LV_GC_ROOT(_lv_anim_ll), a);
 254              		.loc 1 125 0
 255 0018 7969     		ldr	r1, [r7, #20]
 256 001a 1348     		ldr	r0, .L21
 257 001c FFF7FEFF 		bl	lv_ll_get_next
 258 0020 F860     		str	r0, [r7, #12]
 126:..\..\..\lvgl\version_6.1.2\lvgl\src\lv_misc/lv_anim.c **** 
 127:..\..\..\lvgl\version_6.1.2\lvgl\src\lv_misc/lv_anim.c ****         if(a->var == var && (a->exec_cb == exec_cb || exec_cb == NULL)) {
 259              		.loc 1 127 0
 260 0022 7B69     		ldr	r3, [r7, #20]
 261 0024 1A68     		ldr	r2, [r3]
 262 0026 7B68     		ldr	r3, [r7, #4]
 263 0028 9A42     		cmp	r2, r3
 264 002a 13D1     		bne	.L17
 265              		.loc 1 127 0 is_stmt 0 discriminator 1
 266 002c 7B69     		ldr	r3, [r7, #20]
 267 002e 5A68     		ldr	r2, [r3, #4]
 268 0030 3B68     		ldr	r3, [r7]
 269 0032 9A42     		cmp	r2, r3
 270 0034 02D0     		beq	.L18
 271              		.loc 1 127 0 discriminator 2
ARM GAS  C:\Users\tmj32\AppData\Local\Temp\ccIqOG38.s 			page 8


 272 0036 3B68     		ldr	r3, [r7]
 273 0038 002B     		cmp	r3, #0
 274 003a 0BD1     		bne	.L17
 275              	.L18:
 128:..\..\..\lvgl\version_6.1.2\lvgl\src\lv_misc/lv_anim.c ****             lv_ll_rem(&LV_GC_ROOT(_lv_anim_ll), a);
 276              		.loc 1 128 0 is_stmt 1
 277 003c 7969     		ldr	r1, [r7, #20]
 278 003e 0A48     		ldr	r0, .L21
 279 0040 FFF7FEFF 		bl	lv_ll_rem
 129:..\..\..\lvgl\version_6.1.2\lvgl\src\lv_misc/lv_anim.c ****             lv_mem_free(a);
 280              		.loc 1 129 0
 281 0044 7869     		ldr	r0, [r7, #20]
 282 0046 FFF7FEFF 		bl	lv_mem_free
 130:..\..\..\lvgl\version_6.1.2\lvgl\src\lv_misc/lv_anim.c ****             anim_list_changed = true; /*Read by `anim_task`. It need to know if a delete occurred i
 283              		.loc 1 130 0
 284 004a 084B     		ldr	r3, .L21+4
 285 004c 0122     		movs	r2, #1
 286 004e 1A70     		strb	r2, [r3]
 131:..\..\..\lvgl\version_6.1.2\lvgl\src\lv_misc/lv_anim.c ****                                          the linked list*/
 132:..\..\..\lvgl\version_6.1.2\lvgl\src\lv_misc/lv_anim.c ****             del = true;
 287              		.loc 1 132 0
 288 0050 0123     		movs	r3, #1
 289 0052 FB74     		strb	r3, [r7, #19]
 290              	.L17:
 133:..\..\..\lvgl\version_6.1.2\lvgl\src\lv_misc/lv_anim.c ****         }
 134:..\..\..\lvgl\version_6.1.2\lvgl\src\lv_misc/lv_anim.c **** 
 135:..\..\..\lvgl\version_6.1.2\lvgl\src\lv_misc/lv_anim.c ****         a = a_next;
 291              		.loc 1 135 0
 292 0054 FB68     		ldr	r3, [r7, #12]
 293 0056 7B61     		str	r3, [r7, #20]
 294              	.L16:
 123:..\..\..\lvgl\version_6.1.2\lvgl\src\lv_misc/lv_anim.c ****         /*'a' might be deleted, so get the next object while 'a' is valid*/
 295              		.loc 1 123 0
 296 0058 7B69     		ldr	r3, [r7, #20]
 297 005a 002B     		cmp	r3, #0
 298 005c DCD1     		bne	.L19
 136:..\..\..\lvgl\version_6.1.2\lvgl\src\lv_misc/lv_anim.c ****     }
 137:..\..\..\lvgl\version_6.1.2\lvgl\src\lv_misc/lv_anim.c **** 
 138:..\..\..\lvgl\version_6.1.2\lvgl\src\lv_misc/lv_anim.c ****     return del;
 299              		.loc 1 138 0
 300 005e FB7C     		ldrb	r3, [r7, #19]	@ zero_extendqisi2
 139:..\..\..\lvgl\version_6.1.2\lvgl\src\lv_misc/lv_anim.c **** }
 301              		.loc 1 139 0
 302 0060 1846     		mov	r0, r3
 303 0062 1837     		adds	r7, r7, #24
 304              		.cfi_def_cfa_offset 8
 305 0064 BD46     		mov	sp, r7
 306              		.cfi_def_cfa_register 13
 307              		@ sp needed
 308 0066 80BD     		pop	{r7, pc}
 309              	.L22:
 310              		.align	2
 311              	.L21:
 312 0068 00000000 		.word	_lv_anim_ll
 313 006c 04000000 		.word	anim_list_changed
 314              		.cfi_endproc
 315              	.LFE34:
ARM GAS  C:\Users\tmj32\AppData\Local\Temp\ccIqOG38.s 			page 9


 316              		.size	lv_anim_del, .-lv_anim_del
 317              		.section	.text.lv_anim_count_running,"ax",%progbits
 318              		.align	2
 319              		.global	lv_anim_count_running
 320              		.thumb
 321              		.thumb_func
 322              		.type	lv_anim_count_running, %function
 323              	lv_anim_count_running:
 324              	.LFB35:
 140:..\..\..\lvgl\version_6.1.2\lvgl\src\lv_misc/lv_anim.c **** 
 141:..\..\..\lvgl\version_6.1.2\lvgl\src\lv_misc/lv_anim.c **** /**
 142:..\..\..\lvgl\version_6.1.2\lvgl\src\lv_misc/lv_anim.c ****  * Get the number of currently running animations
 143:..\..\..\lvgl\version_6.1.2\lvgl\src\lv_misc/lv_anim.c ****  * @return the number of running animations
 144:..\..\..\lvgl\version_6.1.2\lvgl\src\lv_misc/lv_anim.c ****  */
 145:..\..\..\lvgl\version_6.1.2\lvgl\src\lv_misc/lv_anim.c **** uint16_t lv_anim_count_running(void)
 146:..\..\..\lvgl\version_6.1.2\lvgl\src\lv_misc/lv_anim.c **** {
 325              		.loc 1 146 0
 326              		.cfi_startproc
 327              		@ args = 0, pretend = 0, frame = 8
 328              		@ frame_needed = 1, uses_anonymous_args = 0
 329 0000 80B5     		push	{r7, lr}
 330              		.cfi_def_cfa_offset 8
 331              		.cfi_offset 7, -8
 332              		.cfi_offset 14, -4
 333 0002 82B0     		sub	sp, sp, #8
 334              		.cfi_def_cfa_offset 16
 335 0004 00AF     		add	r7, sp, #0
 336              		.cfi_def_cfa_register 7
 147:..\..\..\lvgl\version_6.1.2\lvgl\src\lv_misc/lv_anim.c ****     uint16_t cnt = 0;
 337              		.loc 1 147 0
 338 0006 0023     		movs	r3, #0
 339 0008 FB80     		strh	r3, [r7, #6]	@ movhi
 148:..\..\..\lvgl\version_6.1.2\lvgl\src\lv_misc/lv_anim.c ****     lv_anim_t * a;
 149:..\..\..\lvgl\version_6.1.2\lvgl\src\lv_misc/lv_anim.c ****     LV_LL_READ(LV_GC_ROOT(_lv_anim_ll), a) cnt++;
 340              		.loc 1 149 0
 341 000a 0B48     		ldr	r0, .L27
 342 000c FFF7FEFF 		bl	lv_ll_get_head
 343 0010 3860     		str	r0, [r7]
 344 0012 07E0     		b	.L24
 345              	.L25:
 346              		.loc 1 149 0 is_stmt 0 discriminator 3
 347 0014 FB88     		ldrh	r3, [r7, #6]
 348 0016 0133     		adds	r3, r3, #1
 349 0018 FB80     		strh	r3, [r7, #6]	@ movhi
 350 001a 3968     		ldr	r1, [r7]
 351 001c 0648     		ldr	r0, .L27
 352 001e FFF7FEFF 		bl	lv_ll_get_next
 353 0022 3860     		str	r0, [r7]
 354              	.L24:
 355              		.loc 1 149 0 discriminator 1
 356 0024 3B68     		ldr	r3, [r7]
 357 0026 002B     		cmp	r3, #0
 358 0028 F4D1     		bne	.L25
 150:..\..\..\lvgl\version_6.1.2\lvgl\src\lv_misc/lv_anim.c **** 
 151:..\..\..\lvgl\version_6.1.2\lvgl\src\lv_misc/lv_anim.c ****     return cnt++;
 359              		.loc 1 151 0 is_stmt 1
 360 002a FB88     		ldrh	r3, [r7, #6]
ARM GAS  C:\Users\tmj32\AppData\Local\Temp\ccIqOG38.s 			page 10


 361 002c 5A1C     		adds	r2, r3, #1
 362 002e FA80     		strh	r2, [r7, #6]	@ movhi
 152:..\..\..\lvgl\version_6.1.2\lvgl\src\lv_misc/lv_anim.c **** }
 363              		.loc 1 152 0
 364 0030 1846     		mov	r0, r3
 365 0032 0837     		adds	r7, r7, #8
 366              		.cfi_def_cfa_offset 8
 367 0034 BD46     		mov	sp, r7
 368              		.cfi_def_cfa_register 13
 369              		@ sp needed
 370 0036 80BD     		pop	{r7, pc}
 371              	.L28:
 372              		.align	2
 373              	.L27:
 374 0038 00000000 		.word	_lv_anim_ll
 375              		.cfi_endproc
 376              	.LFE35:
 377              		.size	lv_anim_count_running, .-lv_anim_count_running
 378              		.section	.text.lv_anim_speed_to_time,"ax",%progbits
 379              		.align	2
 380              		.global	lv_anim_speed_to_time
 381              		.thumb
 382              		.thumb_func
 383              		.type	lv_anim_speed_to_time, %function
 384              	lv_anim_speed_to_time:
 385              	.LFB36:
 153:..\..\..\lvgl\version_6.1.2\lvgl\src\lv_misc/lv_anim.c **** 
 154:..\..\..\lvgl\version_6.1.2\lvgl\src\lv_misc/lv_anim.c **** /**
 155:..\..\..\lvgl\version_6.1.2\lvgl\src\lv_misc/lv_anim.c ****  * Calculate the time of an animation with a given speed and the start and end values
 156:..\..\..\lvgl\version_6.1.2\lvgl\src\lv_misc/lv_anim.c ****  * @param speed speed of animation in unit/sec
 157:..\..\..\lvgl\version_6.1.2\lvgl\src\lv_misc/lv_anim.c ****  * @param start start value of the animation
 158:..\..\..\lvgl\version_6.1.2\lvgl\src\lv_misc/lv_anim.c ****  * @param end end value of the animation
 159:..\..\..\lvgl\version_6.1.2\lvgl\src\lv_misc/lv_anim.c ****  * @return the required time [ms] for the animation with the given parameters
 160:..\..\..\lvgl\version_6.1.2\lvgl\src\lv_misc/lv_anim.c ****  */
 161:..\..\..\lvgl\version_6.1.2\lvgl\src\lv_misc/lv_anim.c **** uint16_t lv_anim_speed_to_time(uint16_t speed, lv_anim_value_t start, lv_anim_value_t end)
 162:..\..\..\lvgl\version_6.1.2\lvgl\src\lv_misc/lv_anim.c **** {
 386              		.loc 1 162 0
 387              		.cfi_startproc
 388              		@ args = 0, pretend = 0, frame = 16
 389              		@ frame_needed = 1, uses_anonymous_args = 0
 390              		@ link register save eliminated.
 391 0000 80B4     		push	{r7}
 392              		.cfi_def_cfa_offset 4
 393              		.cfi_offset 7, -4
 394 0002 85B0     		sub	sp, sp, #20
 395              		.cfi_def_cfa_offset 24
 396 0004 00AF     		add	r7, sp, #0
 397              		.cfi_def_cfa_register 7
 398 0006 0346     		mov	r3, r0
 399 0008 FB80     		strh	r3, [r7, #6]	@ movhi
 400 000a 0B46     		mov	r3, r1	@ movhi
 401 000c BB80     		strh	r3, [r7, #4]	@ movhi
 402 000e 1346     		mov	r3, r2	@ movhi
 403 0010 7B80     		strh	r3, [r7, #2]	@ movhi
 163:..\..\..\lvgl\version_6.1.2\lvgl\src\lv_misc/lv_anim.c ****     int32_t d     = LV_MATH_ABS((int32_t)start - end);
 404              		.loc 1 163 0
 405 0012 B7F90420 		ldrsh	r2, [r7, #4]
ARM GAS  C:\Users\tmj32\AppData\Local\Temp\ccIqOG38.s 			page 11


 406 0016 B7F90230 		ldrsh	r3, [r7, #2]
 407 001a D31A     		subs	r3, r2, r3
 408 001c 002B     		cmp	r3, #0
 409 001e B8BF     		it	lt
 410 0020 5B42     		rsblt	r3, r3, #0
 411 0022 BB60     		str	r3, [r7, #8]
 164:..\..\..\lvgl\version_6.1.2\lvgl\src\lv_misc/lv_anim.c ****     uint32_t time = (int32_t)((int32_t)(d * 1000) / speed);
 412              		.loc 1 164 0
 413 0024 BB68     		ldr	r3, [r7, #8]
 414 0026 4FF47A72 		mov	r2, #1000
 415 002a 02FB03F2 		mul	r2, r2, r3
 416 002e FB88     		ldrh	r3, [r7, #6]
 417 0030 92FBF3F3 		sdiv	r3, r2, r3
 418 0034 FB60     		str	r3, [r7, #12]
 165:..\..\..\lvgl\version_6.1.2\lvgl\src\lv_misc/lv_anim.c **** 
 166:..\..\..\lvgl\version_6.1.2\lvgl\src\lv_misc/lv_anim.c ****     if(time > UINT16_MAX) time = UINT16_MAX;
 419              		.loc 1 166 0
 420 0036 FB68     		ldr	r3, [r7, #12]
 421 0038 B3F5803F 		cmp	r3, #65536
 422 003c 02D3     		bcc	.L30
 423              		.loc 1 166 0 is_stmt 0 discriminator 1
 424 003e 4FF6FF73 		movw	r3, #65535
 425 0042 FB60     		str	r3, [r7, #12]
 426              	.L30:
 167:..\..\..\lvgl\version_6.1.2\lvgl\src\lv_misc/lv_anim.c **** 
 168:..\..\..\lvgl\version_6.1.2\lvgl\src\lv_misc/lv_anim.c ****     if(time == 0) {
 427              		.loc 1 168 0 is_stmt 1
 428 0044 FB68     		ldr	r3, [r7, #12]
 429 0046 002B     		cmp	r3, #0
 430 0048 02D1     		bne	.L31
 169:..\..\..\lvgl\version_6.1.2\lvgl\src\lv_misc/lv_anim.c ****         time++;
 431              		.loc 1 169 0
 432 004a FB68     		ldr	r3, [r7, #12]
 433 004c 0133     		adds	r3, r3, #1
 434 004e FB60     		str	r3, [r7, #12]
 435              	.L31:
 170:..\..\..\lvgl\version_6.1.2\lvgl\src\lv_misc/lv_anim.c ****     }
 171:..\..\..\lvgl\version_6.1.2\lvgl\src\lv_misc/lv_anim.c **** 
 172:..\..\..\lvgl\version_6.1.2\lvgl\src\lv_misc/lv_anim.c ****     return time;
 436              		.loc 1 172 0
 437 0050 FB68     		ldr	r3, [r7, #12]
 438 0052 9BB2     		uxth	r3, r3
 173:..\..\..\lvgl\version_6.1.2\lvgl\src\lv_misc/lv_anim.c **** }
 439              		.loc 1 173 0
 440 0054 1846     		mov	r0, r3
 441 0056 1437     		adds	r7, r7, #20
 442              		.cfi_def_cfa_offset 4
 443 0058 BD46     		mov	sp, r7
 444              		.cfi_def_cfa_register 13
 445              		@ sp needed
 446 005a 5DF8047B 		ldr	r7, [sp], #4
 447              		.cfi_restore 7
 448              		.cfi_def_cfa_offset 0
 449 005e 7047     		bx	lr
 450              		.cfi_endproc
 451              	.LFE36:
 452              		.size	lv_anim_speed_to_time, .-lv_anim_speed_to_time
ARM GAS  C:\Users\tmj32\AppData\Local\Temp\ccIqOG38.s 			page 12


 453              		.section	.text.lv_anim_path_linear,"ax",%progbits
 454              		.align	2
 455              		.global	lv_anim_path_linear
 456              		.thumb
 457              		.thumb_func
 458              		.type	lv_anim_path_linear, %function
 459              	lv_anim_path_linear:
 460              	.LFB37:
 174:..\..\..\lvgl\version_6.1.2\lvgl\src\lv_misc/lv_anim.c **** 
 175:..\..\..\lvgl\version_6.1.2\lvgl\src\lv_misc/lv_anim.c **** /**
 176:..\..\..\lvgl\version_6.1.2\lvgl\src\lv_misc/lv_anim.c ****  * Calculate the current value of an animation applying linear characteristic
 177:..\..\..\lvgl\version_6.1.2\lvgl\src\lv_misc/lv_anim.c ****  * @param a pointer to an animation
 178:..\..\..\lvgl\version_6.1.2\lvgl\src\lv_misc/lv_anim.c ****  * @return the current value to set
 179:..\..\..\lvgl\version_6.1.2\lvgl\src\lv_misc/lv_anim.c ****  */
 180:..\..\..\lvgl\version_6.1.2\lvgl\src\lv_misc/lv_anim.c **** lv_anim_value_t lv_anim_path_linear(const lv_anim_t * a)
 181:..\..\..\lvgl\version_6.1.2\lvgl\src\lv_misc/lv_anim.c **** {
 461              		.loc 1 181 0
 462              		.cfi_startproc
 463              		@ args = 0, pretend = 0, frame = 16
 464              		@ frame_needed = 1, uses_anonymous_args = 0
 465              		@ link register save eliminated.
 466 0000 80B4     		push	{r7}
 467              		.cfi_def_cfa_offset 4
 468              		.cfi_offset 7, -4
 469 0002 85B0     		sub	sp, sp, #20
 470              		.cfi_def_cfa_offset 24
 471 0004 00AF     		add	r7, sp, #0
 472              		.cfi_def_cfa_register 7
 473 0006 7860     		str	r0, [r7, #4]
 182:..\..\..\lvgl\version_6.1.2\lvgl\src\lv_misc/lv_anim.c ****     /*Calculate the current step*/
 183:..\..\..\lvgl\version_6.1.2\lvgl\src\lv_misc/lv_anim.c ****     uint32_t step;
 184:..\..\..\lvgl\version_6.1.2\lvgl\src\lv_misc/lv_anim.c ****     if(a->time == a->act_time) {
 474              		.loc 1 184 0
 475 0008 7B68     		ldr	r3, [r7, #4]
 476 000a 1B8B     		ldrh	r3, [r3, #24]
 477 000c 1A46     		mov	r2, r3
 478 000e 7B68     		ldr	r3, [r7, #4]
 479 0010 B3F91A30 		ldrsh	r3, [r3, #26]
 480 0014 9A42     		cmp	r2, r3
 481 0016 03D1     		bne	.L34
 185:..\..\..\lvgl\version_6.1.2\lvgl\src\lv_misc/lv_anim.c ****         step = LV_ANIM_RESOLUTION; /*Use the last value if the time fully elapsed*/
 482              		.loc 1 185 0
 483 0018 4FF48063 		mov	r3, #1024
 484 001c FB60     		str	r3, [r7, #12]
 485 001e 08E0     		b	.L35
 486              	.L34:
 186:..\..\..\lvgl\version_6.1.2\lvgl\src\lv_misc/lv_anim.c ****     } else {
 187:..\..\..\lvgl\version_6.1.2\lvgl\src\lv_misc/lv_anim.c ****         step = ((int32_t)a->act_time * LV_ANIM_RESOLUTION) / a->time;
 487              		.loc 1 187 0
 488 0020 7B68     		ldr	r3, [r7, #4]
 489 0022 B3F91A30 		ldrsh	r3, [r3, #26]
 490 0026 9B02     		lsls	r3, r3, #10
 491 0028 7A68     		ldr	r2, [r7, #4]
 492 002a 128B     		ldrh	r2, [r2, #24]
 493 002c 93FBF2F3 		sdiv	r3, r3, r2
 494 0030 FB60     		str	r3, [r7, #12]
 495              	.L35:
ARM GAS  C:\Users\tmj32\AppData\Local\Temp\ccIqOG38.s 			page 13


 188:..\..\..\lvgl\version_6.1.2\lvgl\src\lv_misc/lv_anim.c ****     }
 189:..\..\..\lvgl\version_6.1.2\lvgl\src\lv_misc/lv_anim.c **** 
 190:..\..\..\lvgl\version_6.1.2\lvgl\src\lv_misc/lv_anim.c ****     /* Get the new value which will be proportional to `step`
 191:..\..\..\lvgl\version_6.1.2\lvgl\src\lv_misc/lv_anim.c ****      * and the `start` and `end` values*/
 192:..\..\..\lvgl\version_6.1.2\lvgl\src\lv_misc/lv_anim.c ****     int32_t new_value;
 193:..\..\..\lvgl\version_6.1.2\lvgl\src\lv_misc/lv_anim.c ****     new_value = (int32_t)step * (a->end - a->start);
 496              		.loc 1 193 0
 497 0032 7B68     		ldr	r3, [r7, #4]
 498 0034 5A69     		ldr	r2, [r3, #20]
 499 0036 7B68     		ldr	r3, [r7, #4]
 500 0038 1B69     		ldr	r3, [r3, #16]
 501 003a D31A     		subs	r3, r2, r3
 502 003c FA68     		ldr	r2, [r7, #12]
 503 003e 02FB03F3 		mul	r3, r2, r3
 504 0042 BB60     		str	r3, [r7, #8]
 194:..\..\..\lvgl\version_6.1.2\lvgl\src\lv_misc/lv_anim.c ****     new_value = new_value >> LV_ANIM_RES_SHIFT;
 505              		.loc 1 194 0
 506 0044 BB68     		ldr	r3, [r7, #8]
 507 0046 9B12     		asrs	r3, r3, #10
 508 0048 BB60     		str	r3, [r7, #8]
 195:..\..\..\lvgl\version_6.1.2\lvgl\src\lv_misc/lv_anim.c ****     new_value += a->start;
 509              		.loc 1 195 0
 510 004a 7B68     		ldr	r3, [r7, #4]
 511 004c 1B69     		ldr	r3, [r3, #16]
 512 004e BA68     		ldr	r2, [r7, #8]
 513 0050 1344     		add	r3, r3, r2
 514 0052 BB60     		str	r3, [r7, #8]
 196:..\..\..\lvgl\version_6.1.2\lvgl\src\lv_misc/lv_anim.c **** 
 197:..\..\..\lvgl\version_6.1.2\lvgl\src\lv_misc/lv_anim.c ****     return (lv_anim_value_t)new_value;
 515              		.loc 1 197 0
 516 0054 BB68     		ldr	r3, [r7, #8]
 517 0056 1BB2     		sxth	r3, r3
 198:..\..\..\lvgl\version_6.1.2\lvgl\src\lv_misc/lv_anim.c **** }
 518              		.loc 1 198 0
 519 0058 1846     		mov	r0, r3
 520 005a 1437     		adds	r7, r7, #20
 521              		.cfi_def_cfa_offset 4
 522 005c BD46     		mov	sp, r7
 523              		.cfi_def_cfa_register 13
 524              		@ sp needed
 525 005e 5DF8047B 		ldr	r7, [sp], #4
 526              		.cfi_restore 7
 527              		.cfi_def_cfa_offset 0
 528 0062 7047     		bx	lr
 529              		.cfi_endproc
 530              	.LFE37:
 531              		.size	lv_anim_path_linear, .-lv_anim_path_linear
 532              		.section	.text.lv_anim_path_ease_in,"ax",%progbits
 533              		.align	2
 534              		.global	lv_anim_path_ease_in
 535              		.thumb
 536              		.thumb_func
 537              		.type	lv_anim_path_ease_in, %function
 538              	lv_anim_path_ease_in:
 539              	.LFB38:
 199:..\..\..\lvgl\version_6.1.2\lvgl\src\lv_misc/lv_anim.c **** 
 200:..\..\..\lvgl\version_6.1.2\lvgl\src\lv_misc/lv_anim.c **** /**
ARM GAS  C:\Users\tmj32\AppData\Local\Temp\ccIqOG38.s 			page 14


 201:..\..\..\lvgl\version_6.1.2\lvgl\src\lv_misc/lv_anim.c ****  * Calculate the current value of an animation slowing down the start phase
 202:..\..\..\lvgl\version_6.1.2\lvgl\src\lv_misc/lv_anim.c ****  * @param a pointer to an animation
 203:..\..\..\lvgl\version_6.1.2\lvgl\src\lv_misc/lv_anim.c ****  * @return the current value to set
 204:..\..\..\lvgl\version_6.1.2\lvgl\src\lv_misc/lv_anim.c ****  */
 205:..\..\..\lvgl\version_6.1.2\lvgl\src\lv_misc/lv_anim.c **** lv_anim_value_t lv_anim_path_ease_in(const lv_anim_t * a)
 206:..\..\..\lvgl\version_6.1.2\lvgl\src\lv_misc/lv_anim.c **** {
 540              		.loc 1 206 0
 541              		.cfi_startproc
 542              		@ args = 0, pretend = 0, frame = 24
 543              		@ frame_needed = 1, uses_anonymous_args = 0
 544 0000 80B5     		push	{r7, lr}
 545              		.cfi_def_cfa_offset 8
 546              		.cfi_offset 7, -8
 547              		.cfi_offset 14, -4
 548 0002 88B0     		sub	sp, sp, #32
 549              		.cfi_def_cfa_offset 40
 550 0004 02AF     		add	r7, sp, #8
 551              		.cfi_def_cfa 7, 32
 552 0006 7860     		str	r0, [r7, #4]
 207:..\..\..\lvgl\version_6.1.2\lvgl\src\lv_misc/lv_anim.c ****     /*Calculate the current step*/
 208:..\..\..\lvgl\version_6.1.2\lvgl\src\lv_misc/lv_anim.c ****     uint32_t t;
 209:..\..\..\lvgl\version_6.1.2\lvgl\src\lv_misc/lv_anim.c ****     if(a->time == a->act_time)
 553              		.loc 1 209 0
 554 0008 7B68     		ldr	r3, [r7, #4]
 555 000a 1B8B     		ldrh	r3, [r3, #24]
 556 000c 1A46     		mov	r2, r3
 557 000e 7B68     		ldr	r3, [r7, #4]
 558 0010 B3F91A30 		ldrsh	r3, [r3, #26]
 559 0014 9A42     		cmp	r2, r3
 560 0016 03D1     		bne	.L38
 210:..\..\..\lvgl\version_6.1.2\lvgl\src\lv_misc/lv_anim.c ****         t = 1024;
 561              		.loc 1 210 0
 562 0018 4FF48063 		mov	r3, #1024
 563 001c 7B61     		str	r3, [r7, #20]
 564 001e 08E0     		b	.L39
 565              	.L38:
 211:..\..\..\lvgl\version_6.1.2\lvgl\src\lv_misc/lv_anim.c ****     else
 212:..\..\..\lvgl\version_6.1.2\lvgl\src\lv_misc/lv_anim.c ****         t = (uint32_t)((uint32_t)a->act_time * 1024) / a->time;
 566              		.loc 1 212 0
 567 0020 7B68     		ldr	r3, [r7, #4]
 568 0022 B3F91A30 		ldrsh	r3, [r3, #26]
 569 0026 9B02     		lsls	r3, r3, #10
 570 0028 7A68     		ldr	r2, [r7, #4]
 571 002a 128B     		ldrh	r2, [r2, #24]
 572 002c B3FBF2F3 		udiv	r3, r3, r2
 573 0030 7B61     		str	r3, [r7, #20]
 574              	.L39:
 213:..\..\..\lvgl\version_6.1.2\lvgl\src\lv_misc/lv_anim.c **** 
 214:..\..\..\lvgl\version_6.1.2\lvgl\src\lv_misc/lv_anim.c ****     int32_t step = lv_bezier3(t, 0, 1, 1, 1024);
 575              		.loc 1 214 0
 576 0032 4FF48063 		mov	r3, #1024
 577 0036 0093     		str	r3, [sp]
 578 0038 0123     		movs	r3, #1
 579 003a 0122     		movs	r2, #1
 580 003c 0021     		movs	r1, #0
 581 003e 7869     		ldr	r0, [r7, #20]
 582 0040 FFF7FEFF 		bl	lv_bezier3
ARM GAS  C:\Users\tmj32\AppData\Local\Temp\ccIqOG38.s 			page 15


 583 0044 3861     		str	r0, [r7, #16]
 215:..\..\..\lvgl\version_6.1.2\lvgl\src\lv_misc/lv_anim.c **** 
 216:..\..\..\lvgl\version_6.1.2\lvgl\src\lv_misc/lv_anim.c ****     int32_t new_value;
 217:..\..\..\lvgl\version_6.1.2\lvgl\src\lv_misc/lv_anim.c ****     new_value = (int32_t)step * (a->end - a->start);
 584              		.loc 1 217 0
 585 0046 7B68     		ldr	r3, [r7, #4]
 586 0048 5A69     		ldr	r2, [r3, #20]
 587 004a 7B68     		ldr	r3, [r7, #4]
 588 004c 1B69     		ldr	r3, [r3, #16]
 589 004e D31A     		subs	r3, r2, r3
 590 0050 3A69     		ldr	r2, [r7, #16]
 591 0052 02FB03F3 		mul	r3, r2, r3
 592 0056 FB60     		str	r3, [r7, #12]
 218:..\..\..\lvgl\version_6.1.2\lvgl\src\lv_misc/lv_anim.c ****     new_value = new_value >> 10;
 593              		.loc 1 218 0
 594 0058 FB68     		ldr	r3, [r7, #12]
 595 005a 9B12     		asrs	r3, r3, #10
 596 005c FB60     		str	r3, [r7, #12]
 219:..\..\..\lvgl\version_6.1.2\lvgl\src\lv_misc/lv_anim.c ****     new_value += a->start;
 597              		.loc 1 219 0
 598 005e 7B68     		ldr	r3, [r7, #4]
 599 0060 1B69     		ldr	r3, [r3, #16]
 600 0062 FA68     		ldr	r2, [r7, #12]
 601 0064 1344     		add	r3, r3, r2
 602 0066 FB60     		str	r3, [r7, #12]
 220:..\..\..\lvgl\version_6.1.2\lvgl\src\lv_misc/lv_anim.c **** 
 221:..\..\..\lvgl\version_6.1.2\lvgl\src\lv_misc/lv_anim.c ****     return (lv_anim_value_t)new_value;
 603              		.loc 1 221 0
 604 0068 FB68     		ldr	r3, [r7, #12]
 605 006a 1BB2     		sxth	r3, r3
 222:..\..\..\lvgl\version_6.1.2\lvgl\src\lv_misc/lv_anim.c **** }
 606              		.loc 1 222 0
 607 006c 1846     		mov	r0, r3
 608 006e 1837     		adds	r7, r7, #24
 609              		.cfi_def_cfa_offset 8
 610 0070 BD46     		mov	sp, r7
 611              		.cfi_def_cfa_register 13
 612              		@ sp needed
 613 0072 80BD     		pop	{r7, pc}
 614              		.cfi_endproc
 615              	.LFE38:
 616              		.size	lv_anim_path_ease_in, .-lv_anim_path_ease_in
 617              		.section	.text.lv_anim_path_ease_out,"ax",%progbits
 618              		.align	2
 619              		.global	lv_anim_path_ease_out
 620              		.thumb
 621              		.thumb_func
 622              		.type	lv_anim_path_ease_out, %function
 623              	lv_anim_path_ease_out:
 624              	.LFB39:
 223:..\..\..\lvgl\version_6.1.2\lvgl\src\lv_misc/lv_anim.c **** 
 224:..\..\..\lvgl\version_6.1.2\lvgl\src\lv_misc/lv_anim.c **** /**
 225:..\..\..\lvgl\version_6.1.2\lvgl\src\lv_misc/lv_anim.c ****  * Calculate the current value of an animation slowing down the end phase
 226:..\..\..\lvgl\version_6.1.2\lvgl\src\lv_misc/lv_anim.c ****  * @param a pointer to an animation
 227:..\..\..\lvgl\version_6.1.2\lvgl\src\lv_misc/lv_anim.c ****  * @return the current value to set
 228:..\..\..\lvgl\version_6.1.2\lvgl\src\lv_misc/lv_anim.c ****  */
 229:..\..\..\lvgl\version_6.1.2\lvgl\src\lv_misc/lv_anim.c **** lv_anim_value_t lv_anim_path_ease_out(const lv_anim_t * a)
ARM GAS  C:\Users\tmj32\AppData\Local\Temp\ccIqOG38.s 			page 16


 230:..\..\..\lvgl\version_6.1.2\lvgl\src\lv_misc/lv_anim.c **** {
 625              		.loc 1 230 0
 626              		.cfi_startproc
 627              		@ args = 0, pretend = 0, frame = 24
 628              		@ frame_needed = 1, uses_anonymous_args = 0
 629 0000 80B5     		push	{r7, lr}
 630              		.cfi_def_cfa_offset 8
 631              		.cfi_offset 7, -8
 632              		.cfi_offset 14, -4
 633 0002 88B0     		sub	sp, sp, #32
 634              		.cfi_def_cfa_offset 40
 635 0004 02AF     		add	r7, sp, #8
 636              		.cfi_def_cfa 7, 32
 637 0006 7860     		str	r0, [r7, #4]
 231:..\..\..\lvgl\version_6.1.2\lvgl\src\lv_misc/lv_anim.c ****     /*Calculate the current step*/
 232:..\..\..\lvgl\version_6.1.2\lvgl\src\lv_misc/lv_anim.c **** 
 233:..\..\..\lvgl\version_6.1.2\lvgl\src\lv_misc/lv_anim.c ****     uint32_t t;
 234:..\..\..\lvgl\version_6.1.2\lvgl\src\lv_misc/lv_anim.c ****     if(a->time == a->act_time)
 638              		.loc 1 234 0
 639 0008 7B68     		ldr	r3, [r7, #4]
 640 000a 1B8B     		ldrh	r3, [r3, #24]
 641 000c 1A46     		mov	r2, r3
 642 000e 7B68     		ldr	r3, [r7, #4]
 643 0010 B3F91A30 		ldrsh	r3, [r3, #26]
 644 0014 9A42     		cmp	r2, r3
 645 0016 03D1     		bne	.L42
 235:..\..\..\lvgl\version_6.1.2\lvgl\src\lv_misc/lv_anim.c ****         t = 1024;
 646              		.loc 1 235 0
 647 0018 4FF48063 		mov	r3, #1024
 648 001c 7B61     		str	r3, [r7, #20]
 649 001e 08E0     		b	.L43
 650              	.L42:
 236:..\..\..\lvgl\version_6.1.2\lvgl\src\lv_misc/lv_anim.c ****     else
 237:..\..\..\lvgl\version_6.1.2\lvgl\src\lv_misc/lv_anim.c ****         t = (uint32_t)((uint32_t)a->act_time * 1024) / a->time;
 651              		.loc 1 237 0
 652 0020 7B68     		ldr	r3, [r7, #4]
 653 0022 B3F91A30 		ldrsh	r3, [r3, #26]
 654 0026 9B02     		lsls	r3, r3, #10
 655 0028 7A68     		ldr	r2, [r7, #4]
 656 002a 128B     		ldrh	r2, [r2, #24]
 657 002c B3FBF2F3 		udiv	r3, r3, r2
 658 0030 7B61     		str	r3, [r7, #20]
 659              	.L43:
 238:..\..\..\lvgl\version_6.1.2\lvgl\src\lv_misc/lv_anim.c **** 
 239:..\..\..\lvgl\version_6.1.2\lvgl\src\lv_misc/lv_anim.c ****     int32_t step = lv_bezier3(t, 0, 1023, 1023, 1024);
 660              		.loc 1 239 0
 661 0032 4FF48063 		mov	r3, #1024
 662 0036 0093     		str	r3, [sp]
 663 0038 40F2FF33 		movw	r3, #1023
 664 003c 40F2FF32 		movw	r2, #1023
 665 0040 0021     		movs	r1, #0
 666 0042 7869     		ldr	r0, [r7, #20]
 667 0044 FFF7FEFF 		bl	lv_bezier3
 668 0048 3861     		str	r0, [r7, #16]
 240:..\..\..\lvgl\version_6.1.2\lvgl\src\lv_misc/lv_anim.c **** 
 241:..\..\..\lvgl\version_6.1.2\lvgl\src\lv_misc/lv_anim.c ****     int32_t new_value;
 242:..\..\..\lvgl\version_6.1.2\lvgl\src\lv_misc/lv_anim.c ****     new_value = (int32_t)step * (a->end - a->start);
ARM GAS  C:\Users\tmj32\AppData\Local\Temp\ccIqOG38.s 			page 17


 669              		.loc 1 242 0
 670 004a 7B68     		ldr	r3, [r7, #4]
 671 004c 5A69     		ldr	r2, [r3, #20]
 672 004e 7B68     		ldr	r3, [r7, #4]
 673 0050 1B69     		ldr	r3, [r3, #16]
 674 0052 D31A     		subs	r3, r2, r3
 675 0054 3A69     		ldr	r2, [r7, #16]
 676 0056 02FB03F3 		mul	r3, r2, r3
 677 005a FB60     		str	r3, [r7, #12]
 243:..\..\..\lvgl\version_6.1.2\lvgl\src\lv_misc/lv_anim.c ****     new_value = new_value >> 10;
 678              		.loc 1 243 0
 679 005c FB68     		ldr	r3, [r7, #12]
 680 005e 9B12     		asrs	r3, r3, #10
 681 0060 FB60     		str	r3, [r7, #12]
 244:..\..\..\lvgl\version_6.1.2\lvgl\src\lv_misc/lv_anim.c ****     new_value += a->start;
 682              		.loc 1 244 0
 683 0062 7B68     		ldr	r3, [r7, #4]
 684 0064 1B69     		ldr	r3, [r3, #16]
 685 0066 FA68     		ldr	r2, [r7, #12]
 686 0068 1344     		add	r3, r3, r2
 687 006a FB60     		str	r3, [r7, #12]
 245:..\..\..\lvgl\version_6.1.2\lvgl\src\lv_misc/lv_anim.c **** 
 246:..\..\..\lvgl\version_6.1.2\lvgl\src\lv_misc/lv_anim.c ****     return (lv_anim_value_t)new_value;
 688              		.loc 1 246 0
 689 006c FB68     		ldr	r3, [r7, #12]
 690 006e 1BB2     		sxth	r3, r3
 247:..\..\..\lvgl\version_6.1.2\lvgl\src\lv_misc/lv_anim.c **** }
 691              		.loc 1 247 0
 692 0070 1846     		mov	r0, r3
 693 0072 1837     		adds	r7, r7, #24
 694              		.cfi_def_cfa_offset 8
 695 0074 BD46     		mov	sp, r7
 696              		.cfi_def_cfa_register 13
 697              		@ sp needed
 698 0076 80BD     		pop	{r7, pc}
 699              		.cfi_endproc
 700              	.LFE39:
 701              		.size	lv_anim_path_ease_out, .-lv_anim_path_ease_out
 702              		.section	.text.lv_anim_path_ease_in_out,"ax",%progbits
 703              		.align	2
 704              		.global	lv_anim_path_ease_in_out
 705              		.thumb
 706              		.thumb_func
 707              		.type	lv_anim_path_ease_in_out, %function
 708              	lv_anim_path_ease_in_out:
 709              	.LFB40:
 248:..\..\..\lvgl\version_6.1.2\lvgl\src\lv_misc/lv_anim.c **** 
 249:..\..\..\lvgl\version_6.1.2\lvgl\src\lv_misc/lv_anim.c **** /**
 250:..\..\..\lvgl\version_6.1.2\lvgl\src\lv_misc/lv_anim.c ****  * Calculate the current value of an animation applying an "S" characteristic (cosine)
 251:..\..\..\lvgl\version_6.1.2\lvgl\src\lv_misc/lv_anim.c ****  * @param a pointer to an animation
 252:..\..\..\lvgl\version_6.1.2\lvgl\src\lv_misc/lv_anim.c ****  * @return the current value to set
 253:..\..\..\lvgl\version_6.1.2\lvgl\src\lv_misc/lv_anim.c ****  */
 254:..\..\..\lvgl\version_6.1.2\lvgl\src\lv_misc/lv_anim.c **** lv_anim_value_t lv_anim_path_ease_in_out(const lv_anim_t * a)
 255:..\..\..\lvgl\version_6.1.2\lvgl\src\lv_misc/lv_anim.c **** {
 710              		.loc 1 255 0
 711              		.cfi_startproc
 712              		@ args = 0, pretend = 0, frame = 24
ARM GAS  C:\Users\tmj32\AppData\Local\Temp\ccIqOG38.s 			page 18


 713              		@ frame_needed = 1, uses_anonymous_args = 0
 714 0000 80B5     		push	{r7, lr}
 715              		.cfi_def_cfa_offset 8
 716              		.cfi_offset 7, -8
 717              		.cfi_offset 14, -4
 718 0002 88B0     		sub	sp, sp, #32
 719              		.cfi_def_cfa_offset 40
 720 0004 02AF     		add	r7, sp, #8
 721              		.cfi_def_cfa 7, 32
 722 0006 7860     		str	r0, [r7, #4]
 256:..\..\..\lvgl\version_6.1.2\lvgl\src\lv_misc/lv_anim.c ****     /*Calculate the current step*/
 257:..\..\..\lvgl\version_6.1.2\lvgl\src\lv_misc/lv_anim.c **** 
 258:..\..\..\lvgl\version_6.1.2\lvgl\src\lv_misc/lv_anim.c ****     uint32_t t;
 259:..\..\..\lvgl\version_6.1.2\lvgl\src\lv_misc/lv_anim.c ****     if(a->time == a->act_time)
 723              		.loc 1 259 0
 724 0008 7B68     		ldr	r3, [r7, #4]
 725 000a 1B8B     		ldrh	r3, [r3, #24]
 726 000c 1A46     		mov	r2, r3
 727 000e 7B68     		ldr	r3, [r7, #4]
 728 0010 B3F91A30 		ldrsh	r3, [r3, #26]
 729 0014 9A42     		cmp	r2, r3
 730 0016 03D1     		bne	.L46
 260:..\..\..\lvgl\version_6.1.2\lvgl\src\lv_misc/lv_anim.c ****         t = 1024;
 731              		.loc 1 260 0
 732 0018 4FF48063 		mov	r3, #1024
 733 001c 7B61     		str	r3, [r7, #20]
 734 001e 08E0     		b	.L47
 735              	.L46:
 261:..\..\..\lvgl\version_6.1.2\lvgl\src\lv_misc/lv_anim.c ****     else
 262:..\..\..\lvgl\version_6.1.2\lvgl\src\lv_misc/lv_anim.c ****         t = (uint32_t)((uint32_t)a->act_time * 1024) / a->time;
 736              		.loc 1 262 0
 737 0020 7B68     		ldr	r3, [r7, #4]
 738 0022 B3F91A30 		ldrsh	r3, [r3, #26]
 739 0026 9B02     		lsls	r3, r3, #10
 740 0028 7A68     		ldr	r2, [r7, #4]
 741 002a 128B     		ldrh	r2, [r2, #24]
 742 002c B3FBF2F3 		udiv	r3, r3, r2
 743 0030 7B61     		str	r3, [r7, #20]
 744              	.L47:
 263:..\..\..\lvgl\version_6.1.2\lvgl\src\lv_misc/lv_anim.c **** 
 264:..\..\..\lvgl\version_6.1.2\lvgl\src\lv_misc/lv_anim.c ****     int32_t step = lv_bezier3(t, 0, 100, 924, 1024);
 745              		.loc 1 264 0
 746 0032 4FF48063 		mov	r3, #1024
 747 0036 0093     		str	r3, [sp]
 748 0038 4FF46773 		mov	r3, #924
 749 003c 6422     		movs	r2, #100
 750 003e 0021     		movs	r1, #0
 751 0040 7869     		ldr	r0, [r7, #20]
 752 0042 FFF7FEFF 		bl	lv_bezier3
 753 0046 3861     		str	r0, [r7, #16]
 265:..\..\..\lvgl\version_6.1.2\lvgl\src\lv_misc/lv_anim.c **** 
 266:..\..\..\lvgl\version_6.1.2\lvgl\src\lv_misc/lv_anim.c ****     int32_t new_value;
 267:..\..\..\lvgl\version_6.1.2\lvgl\src\lv_misc/lv_anim.c ****     new_value = (int32_t)step * (a->end - a->start);
 754              		.loc 1 267 0
 755 0048 7B68     		ldr	r3, [r7, #4]
 756 004a 5A69     		ldr	r2, [r3, #20]
 757 004c 7B68     		ldr	r3, [r7, #4]
ARM GAS  C:\Users\tmj32\AppData\Local\Temp\ccIqOG38.s 			page 19


 758 004e 1B69     		ldr	r3, [r3, #16]
 759 0050 D31A     		subs	r3, r2, r3
 760 0052 3A69     		ldr	r2, [r7, #16]
 761 0054 02FB03F3 		mul	r3, r2, r3
 762 0058 FB60     		str	r3, [r7, #12]
 268:..\..\..\lvgl\version_6.1.2\lvgl\src\lv_misc/lv_anim.c ****     new_value = new_value >> 10;
 763              		.loc 1 268 0
 764 005a FB68     		ldr	r3, [r7, #12]
 765 005c 9B12     		asrs	r3, r3, #10
 766 005e FB60     		str	r3, [r7, #12]
 269:..\..\..\lvgl\version_6.1.2\lvgl\src\lv_misc/lv_anim.c ****     new_value += a->start;
 767              		.loc 1 269 0
 768 0060 7B68     		ldr	r3, [r7, #4]
 769 0062 1B69     		ldr	r3, [r3, #16]
 770 0064 FA68     		ldr	r2, [r7, #12]
 771 0066 1344     		add	r3, r3, r2
 772 0068 FB60     		str	r3, [r7, #12]
 270:..\..\..\lvgl\version_6.1.2\lvgl\src\lv_misc/lv_anim.c **** 
 271:..\..\..\lvgl\version_6.1.2\lvgl\src\lv_misc/lv_anim.c ****     return (lv_anim_value_t)new_value;
 773              		.loc 1 271 0
 774 006a FB68     		ldr	r3, [r7, #12]
 775 006c 1BB2     		sxth	r3, r3
 272:..\..\..\lvgl\version_6.1.2\lvgl\src\lv_misc/lv_anim.c **** }
 776              		.loc 1 272 0
 777 006e 1846     		mov	r0, r3
 778 0070 1837     		adds	r7, r7, #24
 779              		.cfi_def_cfa_offset 8
 780 0072 BD46     		mov	sp, r7
 781              		.cfi_def_cfa_register 13
 782              		@ sp needed
 783 0074 80BD     		pop	{r7, pc}
 784              		.cfi_endproc
 785              	.LFE40:
 786              		.size	lv_anim_path_ease_in_out, .-lv_anim_path_ease_in_out
 787 0076 00BF     		.section	.text.lv_anim_path_overshoot,"ax",%progbits
 788              		.align	2
 789              		.global	lv_anim_path_overshoot
 790              		.thumb
 791              		.thumb_func
 792              		.type	lv_anim_path_overshoot, %function
 793              	lv_anim_path_overshoot:
 794              	.LFB41:
 273:..\..\..\lvgl\version_6.1.2\lvgl\src\lv_misc/lv_anim.c **** 
 274:..\..\..\lvgl\version_6.1.2\lvgl\src\lv_misc/lv_anim.c **** /**
 275:..\..\..\lvgl\version_6.1.2\lvgl\src\lv_misc/lv_anim.c ****  * Calculate the current value of an animation with overshoot at the end
 276:..\..\..\lvgl\version_6.1.2\lvgl\src\lv_misc/lv_anim.c ****  * @param a pointer to an animation
 277:..\..\..\lvgl\version_6.1.2\lvgl\src\lv_misc/lv_anim.c ****  * @return the current value to set
 278:..\..\..\lvgl\version_6.1.2\lvgl\src\lv_misc/lv_anim.c ****  */
 279:..\..\..\lvgl\version_6.1.2\lvgl\src\lv_misc/lv_anim.c **** lv_anim_value_t lv_anim_path_overshoot(const lv_anim_t * a)
 280:..\..\..\lvgl\version_6.1.2\lvgl\src\lv_misc/lv_anim.c **** {
 795              		.loc 1 280 0
 796              		.cfi_startproc
 797              		@ args = 0, pretend = 0, frame = 24
 798              		@ frame_needed = 1, uses_anonymous_args = 0
 799 0000 80B5     		push	{r7, lr}
 800              		.cfi_def_cfa_offset 8
 801              		.cfi_offset 7, -8
ARM GAS  C:\Users\tmj32\AppData\Local\Temp\ccIqOG38.s 			page 20


 802              		.cfi_offset 14, -4
 803 0002 88B0     		sub	sp, sp, #32
 804              		.cfi_def_cfa_offset 40
 805 0004 02AF     		add	r7, sp, #8
 806              		.cfi_def_cfa 7, 32
 807 0006 7860     		str	r0, [r7, #4]
 281:..\..\..\lvgl\version_6.1.2\lvgl\src\lv_misc/lv_anim.c ****     /*Calculate the current step*/
 282:..\..\..\lvgl\version_6.1.2\lvgl\src\lv_misc/lv_anim.c **** 
 283:..\..\..\lvgl\version_6.1.2\lvgl\src\lv_misc/lv_anim.c ****     uint32_t t;
 284:..\..\..\lvgl\version_6.1.2\lvgl\src\lv_misc/lv_anim.c ****     if(a->time == a->act_time)
 808              		.loc 1 284 0
 809 0008 7B68     		ldr	r3, [r7, #4]
 810 000a 1B8B     		ldrh	r3, [r3, #24]
 811 000c 1A46     		mov	r2, r3
 812 000e 7B68     		ldr	r3, [r7, #4]
 813 0010 B3F91A30 		ldrsh	r3, [r3, #26]
 814 0014 9A42     		cmp	r2, r3
 815 0016 03D1     		bne	.L50
 285:..\..\..\lvgl\version_6.1.2\lvgl\src\lv_misc/lv_anim.c ****         t = 1024;
 816              		.loc 1 285 0
 817 0018 4FF48063 		mov	r3, #1024
 818 001c 7B61     		str	r3, [r7, #20]
 819 001e 08E0     		b	.L51
 820              	.L50:
 286:..\..\..\lvgl\version_6.1.2\lvgl\src\lv_misc/lv_anim.c ****     else
 287:..\..\..\lvgl\version_6.1.2\lvgl\src\lv_misc/lv_anim.c ****         t = (uint32_t)((uint32_t)a->act_time * 1024) / a->time;
 821              		.loc 1 287 0
 822 0020 7B68     		ldr	r3, [r7, #4]
 823 0022 B3F91A30 		ldrsh	r3, [r3, #26]
 824 0026 9B02     		lsls	r3, r3, #10
 825 0028 7A68     		ldr	r2, [r7, #4]
 826 002a 128B     		ldrh	r2, [r2, #24]
 827 002c B3FBF2F3 		udiv	r3, r3, r2
 828 0030 7B61     		str	r3, [r7, #20]
 829              	.L51:
 288:..\..\..\lvgl\version_6.1.2\lvgl\src\lv_misc/lv_anim.c **** 
 289:..\..\..\lvgl\version_6.1.2\lvgl\src\lv_misc/lv_anim.c ****     int32_t step = lv_bezier3(t, 0, 600, 1300, 1024);
 830              		.loc 1 289 0
 831 0032 4FF48063 		mov	r3, #1024
 832 0036 0093     		str	r3, [sp]
 833 0038 40F21453 		movw	r3, #1300
 834 003c 4FF41672 		mov	r2, #600
 835 0040 0021     		movs	r1, #0
 836 0042 7869     		ldr	r0, [r7, #20]
 837 0044 FFF7FEFF 		bl	lv_bezier3
 838 0048 3861     		str	r0, [r7, #16]
 290:..\..\..\lvgl\version_6.1.2\lvgl\src\lv_misc/lv_anim.c **** 
 291:..\..\..\lvgl\version_6.1.2\lvgl\src\lv_misc/lv_anim.c ****     int32_t new_value;
 292:..\..\..\lvgl\version_6.1.2\lvgl\src\lv_misc/lv_anim.c ****     new_value = (int32_t)step * (a->end - a->start);
 839              		.loc 1 292 0
 840 004a 7B68     		ldr	r3, [r7, #4]
 841 004c 5A69     		ldr	r2, [r3, #20]
 842 004e 7B68     		ldr	r3, [r7, #4]
 843 0050 1B69     		ldr	r3, [r3, #16]
 844 0052 D31A     		subs	r3, r2, r3
 845 0054 3A69     		ldr	r2, [r7, #16]
 846 0056 02FB03F3 		mul	r3, r2, r3
ARM GAS  C:\Users\tmj32\AppData\Local\Temp\ccIqOG38.s 			page 21


 847 005a FB60     		str	r3, [r7, #12]
 293:..\..\..\lvgl\version_6.1.2\lvgl\src\lv_misc/lv_anim.c ****     new_value = new_value >> 10;
 848              		.loc 1 293 0
 849 005c FB68     		ldr	r3, [r7, #12]
 850 005e 9B12     		asrs	r3, r3, #10
 851 0060 FB60     		str	r3, [r7, #12]
 294:..\..\..\lvgl\version_6.1.2\lvgl\src\lv_misc/lv_anim.c ****     new_value += a->start;
 852              		.loc 1 294 0
 853 0062 7B68     		ldr	r3, [r7, #4]
 854 0064 1B69     		ldr	r3, [r3, #16]
 855 0066 FA68     		ldr	r2, [r7, #12]
 856 0068 1344     		add	r3, r3, r2
 857 006a FB60     		str	r3, [r7, #12]
 295:..\..\..\lvgl\version_6.1.2\lvgl\src\lv_misc/lv_anim.c **** 
 296:..\..\..\lvgl\version_6.1.2\lvgl\src\lv_misc/lv_anim.c ****     return (lv_anim_value_t)new_value;
 858              		.loc 1 296 0
 859 006c FB68     		ldr	r3, [r7, #12]
 860 006e 1BB2     		sxth	r3, r3
 297:..\..\..\lvgl\version_6.1.2\lvgl\src\lv_misc/lv_anim.c **** }
 861              		.loc 1 297 0
 862 0070 1846     		mov	r0, r3
 863 0072 1837     		adds	r7, r7, #24
 864              		.cfi_def_cfa_offset 8
 865 0074 BD46     		mov	sp, r7
 866              		.cfi_def_cfa_register 13
 867              		@ sp needed
 868 0076 80BD     		pop	{r7, pc}
 869              		.cfi_endproc
 870              	.LFE41:
 871              		.size	lv_anim_path_overshoot, .-lv_anim_path_overshoot
 872              		.section	.text.lv_anim_path_bounce,"ax",%progbits
 873              		.align	2
 874              		.global	lv_anim_path_bounce
 875              		.thumb
 876              		.thumb_func
 877              		.type	lv_anim_path_bounce, %function
 878              	lv_anim_path_bounce:
 879              	.LFB42:
 298:..\..\..\lvgl\version_6.1.2\lvgl\src\lv_misc/lv_anim.c **** 
 299:..\..\..\lvgl\version_6.1.2\lvgl\src\lv_misc/lv_anim.c **** /**
 300:..\..\..\lvgl\version_6.1.2\lvgl\src\lv_misc/lv_anim.c ****  * Calculate the current value of an animation with 3 bounces
 301:..\..\..\lvgl\version_6.1.2\lvgl\src\lv_misc/lv_anim.c ****  * @param a pointer to an animation
 302:..\..\..\lvgl\version_6.1.2\lvgl\src\lv_misc/lv_anim.c ****  * @return the current value to set
 303:..\..\..\lvgl\version_6.1.2\lvgl\src\lv_misc/lv_anim.c ****  */
 304:..\..\..\lvgl\version_6.1.2\lvgl\src\lv_misc/lv_anim.c **** lv_anim_value_t lv_anim_path_bounce(const lv_anim_t * a)
 305:..\..\..\lvgl\version_6.1.2\lvgl\src\lv_misc/lv_anim.c **** {
 880              		.loc 1 305 0
 881              		.cfi_startproc
 882              		@ args = 0, pretend = 0, frame = 24
 883              		@ frame_needed = 1, uses_anonymous_args = 0
 884 0000 80B5     		push	{r7, lr}
 885              		.cfi_def_cfa_offset 8
 886              		.cfi_offset 7, -8
 887              		.cfi_offset 14, -4
 888 0002 88B0     		sub	sp, sp, #32
 889              		.cfi_def_cfa_offset 40
 890 0004 02AF     		add	r7, sp, #8
ARM GAS  C:\Users\tmj32\AppData\Local\Temp\ccIqOG38.s 			page 22


 891              		.cfi_def_cfa 7, 32
 892 0006 7860     		str	r0, [r7, #4]
 306:..\..\..\lvgl\version_6.1.2\lvgl\src\lv_misc/lv_anim.c ****     /*Calculate the current step*/
 307:..\..\..\lvgl\version_6.1.2\lvgl\src\lv_misc/lv_anim.c ****     uint32_t t;
 308:..\..\..\lvgl\version_6.1.2\lvgl\src\lv_misc/lv_anim.c ****     if(a->time == a->act_time)
 893              		.loc 1 308 0
 894 0008 7B68     		ldr	r3, [r7, #4]
 895 000a 1B8B     		ldrh	r3, [r3, #24]
 896 000c 1A46     		mov	r2, r3
 897 000e 7B68     		ldr	r3, [r7, #4]
 898 0010 B3F91A30 		ldrsh	r3, [r3, #26]
 899 0014 9A42     		cmp	r2, r3
 900 0016 03D1     		bne	.L54
 309:..\..\..\lvgl\version_6.1.2\lvgl\src\lv_misc/lv_anim.c ****         t = 1024;
 901              		.loc 1 309 0
 902 0018 4FF48063 		mov	r3, #1024
 903 001c 7B61     		str	r3, [r7, #20]
 904 001e 08E0     		b	.L55
 905              	.L54:
 310:..\..\..\lvgl\version_6.1.2\lvgl\src\lv_misc/lv_anim.c ****     else
 311:..\..\..\lvgl\version_6.1.2\lvgl\src\lv_misc/lv_anim.c ****         t = (uint32_t)((uint32_t)a->act_time * 1024) / a->time;
 906              		.loc 1 311 0
 907 0020 7B68     		ldr	r3, [r7, #4]
 908 0022 B3F91A30 		ldrsh	r3, [r3, #26]
 909 0026 9B02     		lsls	r3, r3, #10
 910 0028 7A68     		ldr	r2, [r7, #4]
 911 002a 128B     		ldrh	r2, [r2, #24]
 912 002c B3FBF2F3 		udiv	r3, r3, r2
 913 0030 7B61     		str	r3, [r7, #20]
 914              	.L55:
 312:..\..\..\lvgl\version_6.1.2\lvgl\src\lv_misc/lv_anim.c **** 
 313:..\..\..\lvgl\version_6.1.2\lvgl\src\lv_misc/lv_anim.c ****     int32_t diff = (a->end - a->start);
 915              		.loc 1 313 0
 916 0032 7B68     		ldr	r3, [r7, #4]
 917 0034 5A69     		ldr	r2, [r3, #20]
 918 0036 7B68     		ldr	r3, [r7, #4]
 919 0038 1B69     		ldr	r3, [r3, #16]
 920 003a D31A     		subs	r3, r2, r3
 921 003c 3B61     		str	r3, [r7, #16]
 314:..\..\..\lvgl\version_6.1.2\lvgl\src\lv_misc/lv_anim.c **** 
 315:..\..\..\lvgl\version_6.1.2\lvgl\src\lv_misc/lv_anim.c ****     /*3 bounces has 5 parts: 3 down and 2 up. One part is t / 5 long*/
 316:..\..\..\lvgl\version_6.1.2\lvgl\src\lv_misc/lv_anim.c **** 
 317:..\..\..\lvgl\version_6.1.2\lvgl\src\lv_misc/lv_anim.c ****     if(t < 408) {
 922              		.loc 1 317 0
 923 003e 7B69     		ldr	r3, [r7, #20]
 924 0040 B3F5CC7F 		cmp	r3, #408
 925 0044 07D2     		bcs	.L56
 318:..\..\..\lvgl\version_6.1.2\lvgl\src\lv_misc/lv_anim.c ****         /*Go down*/
 319:..\..\..\lvgl\version_6.1.2\lvgl\src\lv_misc/lv_anim.c ****         t = (t * 2500) >> 10; /*[0..1024] range*/
 926              		.loc 1 319 0
 927 0046 7B69     		ldr	r3, [r7, #20]
 928 0048 40F6C412 		movw	r2, #2500
 929 004c 02FB03F3 		mul	r3, r2, r3
 930 0050 9B0A     		lsrs	r3, r3, #10
 931 0052 7B61     		str	r3, [r7, #20]
 932 0054 6EE0     		b	.L57
 933              	.L56:
ARM GAS  C:\Users\tmj32\AppData\Local\Temp\ccIqOG38.s 			page 23


 320:..\..\..\lvgl\version_6.1.2\lvgl\src\lv_misc/lv_anim.c ****     } else if(t >= 408 && t < 614) {
 934              		.loc 1 320 0
 935 0056 7B69     		ldr	r3, [r7, #20]
 936 0058 B3F5CC7F 		cmp	r3, #408
 937 005c 19D3     		bcc	.L58
 938              		.loc 1 320 0 is_stmt 0 discriminator 1
 939 005e 7B69     		ldr	r3, [r7, #20]
 940 0060 40F26522 		movw	r2, #613
 941 0064 9342     		cmp	r3, r2
 942 0066 14D8     		bhi	.L58
 321:..\..\..\lvgl\version_6.1.2\lvgl\src\lv_misc/lv_anim.c ****         /*First bounce back*/
 322:..\..\..\lvgl\version_6.1.2\lvgl\src\lv_misc/lv_anim.c ****         t -= 408;
 943              		.loc 1 322 0 is_stmt 1
 944 0068 7B69     		ldr	r3, [r7, #20]
 945 006a A3F5CC73 		sub	r3, r3, #408
 946 006e 7B61     		str	r3, [r7, #20]
 323:..\..\..\lvgl\version_6.1.2\lvgl\src\lv_misc/lv_anim.c ****         t    = t * 5; /*to [0..1024] range*/
 947              		.loc 1 323 0
 948 0070 7A69     		ldr	r2, [r7, #20]
 949 0072 1346     		mov	r3, r2
 950 0074 9B00     		lsls	r3, r3, #2
 951 0076 1344     		add	r3, r3, r2
 952 0078 7B61     		str	r3, [r7, #20]
 324:..\..\..\lvgl\version_6.1.2\lvgl\src\lv_misc/lv_anim.c ****         t    = 1024 - t;
 953              		.loc 1 324 0
 954 007a 7B69     		ldr	r3, [r7, #20]
 955 007c C3F58063 		rsb	r3, r3, #1024
 956 0080 7B61     		str	r3, [r7, #20]
 325:..\..\..\lvgl\version_6.1.2\lvgl\src\lv_misc/lv_anim.c ****         diff = diff / 6;
 957              		.loc 1 325 0
 958 0082 3B69     		ldr	r3, [r7, #16]
 959 0084 3E4A     		ldr	r2, .L65
 960 0086 82FB0312 		smull	r1, r2, r2, r3
 961 008a DB17     		asrs	r3, r3, #31
 962 008c D31A     		subs	r3, r2, r3
 963 008e 3B61     		str	r3, [r7, #16]
 964 0090 50E0     		b	.L57
 965              	.L58:
 326:..\..\..\lvgl\version_6.1.2\lvgl\src\lv_misc/lv_anim.c ****     } else if(t >= 614 && t < 819) {
 966              		.loc 1 326 0
 967 0092 7B69     		ldr	r3, [r7, #20]
 968 0094 40F26522 		movw	r2, #613
 969 0098 9342     		cmp	r3, r2
 970 009a 15D9     		bls	.L59
 971              		.loc 1 326 0 is_stmt 0 discriminator 1
 972 009c 7B69     		ldr	r3, [r7, #20]
 973 009e 40F23232 		movw	r2, #818
 974 00a2 9342     		cmp	r3, r2
 975 00a4 10D8     		bhi	.L59
 327:..\..\..\lvgl\version_6.1.2\lvgl\src\lv_misc/lv_anim.c ****         /*Fall back*/
 328:..\..\..\lvgl\version_6.1.2\lvgl\src\lv_misc/lv_anim.c ****         t -= 614;
 976              		.loc 1 328 0 is_stmt 1
 977 00a6 7B69     		ldr	r3, [r7, #20]
 978 00a8 A3F26623 		subw	r3, r3, #614
 979 00ac 7B61     		str	r3, [r7, #20]
 329:..\..\..\lvgl\version_6.1.2\lvgl\src\lv_misc/lv_anim.c ****         t    = t * 5; /*to [0..1024] range*/
 980              		.loc 1 329 0
ARM GAS  C:\Users\tmj32\AppData\Local\Temp\ccIqOG38.s 			page 24


 981 00ae 7A69     		ldr	r2, [r7, #20]
 982 00b0 1346     		mov	r3, r2
 983 00b2 9B00     		lsls	r3, r3, #2
 984 00b4 1344     		add	r3, r3, r2
 985 00b6 7B61     		str	r3, [r7, #20]
 330:..\..\..\lvgl\version_6.1.2\lvgl\src\lv_misc/lv_anim.c ****         diff = diff / 6;
 986              		.loc 1 330 0
 987 00b8 3B69     		ldr	r3, [r7, #16]
 988 00ba 314A     		ldr	r2, .L65
 989 00bc 82FB0312 		smull	r1, r2, r2, r3
 990 00c0 DB17     		asrs	r3, r3, #31
 991 00c2 D31A     		subs	r3, r2, r3
 992 00c4 3B61     		str	r3, [r7, #16]
 993 00c6 35E0     		b	.L57
 994              	.L59:
 331:..\..\..\lvgl\version_6.1.2\lvgl\src\lv_misc/lv_anim.c ****     } else if(t >= 819 && t < 921) {
 995              		.loc 1 331 0
 996 00c8 7B69     		ldr	r3, [r7, #20]
 997 00ca 40F23232 		movw	r2, #818
 998 00ce 9342     		cmp	r3, r2
 999 00d0 18D9     		bls	.L60
 1000              		.loc 1 331 0 is_stmt 0 discriminator 1
 1001 00d2 7B69     		ldr	r3, [r7, #20]
 1002 00d4 B3F5667F 		cmp	r3, #920
 1003 00d8 14D8     		bhi	.L60
 332:..\..\..\lvgl\version_6.1.2\lvgl\src\lv_misc/lv_anim.c ****         /*Second bounce back*/
 333:..\..\..\lvgl\version_6.1.2\lvgl\src\lv_misc/lv_anim.c ****         t -= 819;
 1004              		.loc 1 333 0 is_stmt 1
 1005 00da 7B69     		ldr	r3, [r7, #20]
 1006 00dc A3F23333 		subw	r3, r3, #819
 1007 00e0 7B61     		str	r3, [r7, #20]
 334:..\..\..\lvgl\version_6.1.2\lvgl\src\lv_misc/lv_anim.c ****         t    = t * 10; /*to [0..1024] range*/
 1008              		.loc 1 334 0
 1009 00e2 7A69     		ldr	r2, [r7, #20]
 1010 00e4 1346     		mov	r3, r2
 1011 00e6 9B00     		lsls	r3, r3, #2
 1012 00e8 1344     		add	r3, r3, r2
 1013 00ea 5B00     		lsls	r3, r3, #1
 1014 00ec 7B61     		str	r3, [r7, #20]
 335:..\..\..\lvgl\version_6.1.2\lvgl\src\lv_misc/lv_anim.c ****         t    = 1024 - t;
 1015              		.loc 1 335 0
 1016 00ee 7B69     		ldr	r3, [r7, #20]
 1017 00f0 C3F58063 		rsb	r3, r3, #1024
 1018 00f4 7B61     		str	r3, [r7, #20]
 336:..\..\..\lvgl\version_6.1.2\lvgl\src\lv_misc/lv_anim.c ****         diff = diff / 16;
 1019              		.loc 1 336 0
 1020 00f6 3B69     		ldr	r3, [r7, #16]
 1021 00f8 002B     		cmp	r3, #0
 1022 00fa 00DA     		bge	.L61
 1023 00fc 0F33     		adds	r3, r3, #15
 1024              	.L61:
 1025 00fe 1B11     		asrs	r3, r3, #4
 1026 0100 3B61     		str	r3, [r7, #16]
 1027 0102 17E0     		b	.L57
 1028              	.L60:
 337:..\..\..\lvgl\version_6.1.2\lvgl\src\lv_misc/lv_anim.c ****     } else if(t >= 921 && t <= 1024) {
 1029              		.loc 1 337 0
ARM GAS  C:\Users\tmj32\AppData\Local\Temp\ccIqOG38.s 			page 25


 1030 0104 7B69     		ldr	r3, [r7, #20]
 1031 0106 B3F5667F 		cmp	r3, #920
 1032 010a 13D9     		bls	.L57
 1033              		.loc 1 337 0 is_stmt 0 discriminator 1
 1034 010c 7B69     		ldr	r3, [r7, #20]
 1035 010e B3F5806F 		cmp	r3, #1024
 1036 0112 0FD8     		bhi	.L57
 338:..\..\..\lvgl\version_6.1.2\lvgl\src\lv_misc/lv_anim.c ****         /*Fall back*/
 339:..\..\..\lvgl\version_6.1.2\lvgl\src\lv_misc/lv_anim.c ****         t -= 921;
 1037              		.loc 1 339 0 is_stmt 1
 1038 0114 7B69     		ldr	r3, [r7, #20]
 1039 0116 A3F29933 		subw	r3, r3, #921
 1040 011a 7B61     		str	r3, [r7, #20]
 340:..\..\..\lvgl\version_6.1.2\lvgl\src\lv_misc/lv_anim.c ****         t    = t * 10; /*to [0..1024] range*/
 1041              		.loc 1 340 0
 1042 011c 7A69     		ldr	r2, [r7, #20]
 1043 011e 1346     		mov	r3, r2
 1044 0120 9B00     		lsls	r3, r3, #2
 1045 0122 1344     		add	r3, r3, r2
 1046 0124 5B00     		lsls	r3, r3, #1
 1047 0126 7B61     		str	r3, [r7, #20]
 341:..\..\..\lvgl\version_6.1.2\lvgl\src\lv_misc/lv_anim.c ****         diff = diff / 16;
 1048              		.loc 1 341 0
 1049 0128 3B69     		ldr	r3, [r7, #16]
 1050 012a 002B     		cmp	r3, #0
 1051 012c 00DA     		bge	.L62
 1052 012e 0F33     		adds	r3, r3, #15
 1053              	.L62:
 1054 0130 1B11     		asrs	r3, r3, #4
 1055 0132 3B61     		str	r3, [r7, #16]
 1056              	.L57:
 342:..\..\..\lvgl\version_6.1.2\lvgl\src\lv_misc/lv_anim.c ****     }
 343:..\..\..\lvgl\version_6.1.2\lvgl\src\lv_misc/lv_anim.c **** 
 344:..\..\..\lvgl\version_6.1.2\lvgl\src\lv_misc/lv_anim.c ****     if(t > 1024) t = 1024;
 1057              		.loc 1 344 0
 1058 0134 7B69     		ldr	r3, [r7, #20]
 1059 0136 B3F5806F 		cmp	r3, #1024
 1060 013a 02D9     		bls	.L63
 1061              		.loc 1 344 0 is_stmt 0 discriminator 1
 1062 013c 4FF48063 		mov	r3, #1024
 1063 0140 7B61     		str	r3, [r7, #20]
 1064              	.L63:
 345:..\..\..\lvgl\version_6.1.2\lvgl\src\lv_misc/lv_anim.c **** 
 346:..\..\..\lvgl\version_6.1.2\lvgl\src\lv_misc/lv_anim.c ****     int32_t step = lv_bezier3(t, 1024, 1024, 800, 0);
 1065              		.loc 1 346 0 is_stmt 1
 1066 0142 0023     		movs	r3, #0
 1067 0144 0093     		str	r3, [sp]
 1068 0146 4FF44873 		mov	r3, #800
 1069 014a 4FF48062 		mov	r2, #1024
 1070 014e 4FF48061 		mov	r1, #1024
 1071 0152 7869     		ldr	r0, [r7, #20]
 1072 0154 FFF7FEFF 		bl	lv_bezier3
 1073 0158 F860     		str	r0, [r7, #12]
 347:..\..\..\lvgl\version_6.1.2\lvgl\src\lv_misc/lv_anim.c **** 
 348:..\..\..\lvgl\version_6.1.2\lvgl\src\lv_misc/lv_anim.c ****     int32_t new_value;
 349:..\..\..\lvgl\version_6.1.2\lvgl\src\lv_misc/lv_anim.c ****     new_value = (int32_t)step * diff;
 1074              		.loc 1 349 0
ARM GAS  C:\Users\tmj32\AppData\Local\Temp\ccIqOG38.s 			page 26


 1075 015a FB68     		ldr	r3, [r7, #12]
 1076 015c 3A69     		ldr	r2, [r7, #16]
 1077 015e 02FB03F3 		mul	r3, r2, r3
 1078 0162 BB60     		str	r3, [r7, #8]
 350:..\..\..\lvgl\version_6.1.2\lvgl\src\lv_misc/lv_anim.c ****     new_value = new_value >> 10;
 1079              		.loc 1 350 0
 1080 0164 BB68     		ldr	r3, [r7, #8]
 1081 0166 9B12     		asrs	r3, r3, #10
 1082 0168 BB60     		str	r3, [r7, #8]
 351:..\..\..\lvgl\version_6.1.2\lvgl\src\lv_misc/lv_anim.c ****     new_value = a->end - new_value;
 1083              		.loc 1 351 0
 1084 016a 7B68     		ldr	r3, [r7, #4]
 1085 016c 5A69     		ldr	r2, [r3, #20]
 1086 016e BB68     		ldr	r3, [r7, #8]
 1087 0170 D31A     		subs	r3, r2, r3
 1088 0172 BB60     		str	r3, [r7, #8]
 352:..\..\..\lvgl\version_6.1.2\lvgl\src\lv_misc/lv_anim.c **** 
 353:..\..\..\lvgl\version_6.1.2\lvgl\src\lv_misc/lv_anim.c ****     return (lv_anim_value_t)new_value;
 1089              		.loc 1 353 0
 1090 0174 BB68     		ldr	r3, [r7, #8]
 1091 0176 1BB2     		sxth	r3, r3
 354:..\..\..\lvgl\version_6.1.2\lvgl\src\lv_misc/lv_anim.c **** }
 1092              		.loc 1 354 0
 1093 0178 1846     		mov	r0, r3
 1094 017a 1837     		adds	r7, r7, #24
 1095              		.cfi_def_cfa_offset 8
 1096 017c BD46     		mov	sp, r7
 1097              		.cfi_def_cfa_register 13
 1098              		@ sp needed
 1099 017e 80BD     		pop	{r7, pc}
 1100              	.L66:
 1101              		.align	2
 1102              	.L65:
 1103 0180 ABAAAA2A 		.word	715827883
 1104              		.cfi_endproc
 1105              	.LFE42:
 1106              		.size	lv_anim_path_bounce, .-lv_anim_path_bounce
 1107              		.section	.text.lv_anim_path_step,"ax",%progbits
 1108              		.align	2
 1109              		.global	lv_anim_path_step
 1110              		.thumb
 1111              		.thumb_func
 1112              		.type	lv_anim_path_step, %function
 1113              	lv_anim_path_step:
 1114              	.LFB43:
 355:..\..\..\lvgl\version_6.1.2\lvgl\src\lv_misc/lv_anim.c **** 
 356:..\..\..\lvgl\version_6.1.2\lvgl\src\lv_misc/lv_anim.c **** /**
 357:..\..\..\lvgl\version_6.1.2\lvgl\src\lv_misc/lv_anim.c ****  * Calculate the current value of an animation applying step characteristic.
 358:..\..\..\lvgl\version_6.1.2\lvgl\src\lv_misc/lv_anim.c ****  * (Set end value on the end of the animation)
 359:..\..\..\lvgl\version_6.1.2\lvgl\src\lv_misc/lv_anim.c ****  * @param a pointer to an animation
 360:..\..\..\lvgl\version_6.1.2\lvgl\src\lv_misc/lv_anim.c ****  * @return the current value to set
 361:..\..\..\lvgl\version_6.1.2\lvgl\src\lv_misc/lv_anim.c ****  */
 362:..\..\..\lvgl\version_6.1.2\lvgl\src\lv_misc/lv_anim.c **** lv_anim_value_t lv_anim_path_step(const lv_anim_t * a)
 363:..\..\..\lvgl\version_6.1.2\lvgl\src\lv_misc/lv_anim.c **** {
 1115              		.loc 1 363 0
 1116              		.cfi_startproc
 1117              		@ args = 0, pretend = 0, frame = 8
ARM GAS  C:\Users\tmj32\AppData\Local\Temp\ccIqOG38.s 			page 27


 1118              		@ frame_needed = 1, uses_anonymous_args = 0
 1119              		@ link register save eliminated.
 1120 0000 80B4     		push	{r7}
 1121              		.cfi_def_cfa_offset 4
 1122              		.cfi_offset 7, -4
 1123 0002 83B0     		sub	sp, sp, #12
 1124              		.cfi_def_cfa_offset 16
 1125 0004 00AF     		add	r7, sp, #0
 1126              		.cfi_def_cfa_register 7
 1127 0006 7860     		str	r0, [r7, #4]
 364:..\..\..\lvgl\version_6.1.2\lvgl\src\lv_misc/lv_anim.c ****     if(a->act_time >= a->time)
 1128              		.loc 1 364 0
 1129 0008 7B68     		ldr	r3, [r7, #4]
 1130 000a B3F91A30 		ldrsh	r3, [r3, #26]
 1131 000e 1A46     		mov	r2, r3
 1132 0010 7B68     		ldr	r3, [r7, #4]
 1133 0012 1B8B     		ldrh	r3, [r3, #24]
 1134 0014 9A42     		cmp	r2, r3
 1135 0016 03DB     		blt	.L68
 365:..\..\..\lvgl\version_6.1.2\lvgl\src\lv_misc/lv_anim.c ****         return a->end;
 1136              		.loc 1 365 0
 1137 0018 7B68     		ldr	r3, [r7, #4]
 1138 001a 5B69     		ldr	r3, [r3, #20]
 1139 001c 1BB2     		sxth	r3, r3
 1140 001e 02E0     		b	.L69
 1141              	.L68:
 366:..\..\..\lvgl\version_6.1.2\lvgl\src\lv_misc/lv_anim.c ****     else
 367:..\..\..\lvgl\version_6.1.2\lvgl\src\lv_misc/lv_anim.c ****         return a->start;
 1142              		.loc 1 367 0
 1143 0020 7B68     		ldr	r3, [r7, #4]
 1144 0022 1B69     		ldr	r3, [r3, #16]
 1145 0024 1BB2     		sxth	r3, r3
 1146              	.L69:
 368:..\..\..\lvgl\version_6.1.2\lvgl\src\lv_misc/lv_anim.c **** }
 1147              		.loc 1 368 0
 1148 0026 1846     		mov	r0, r3
 1149 0028 0C37     		adds	r7, r7, #12
 1150              		.cfi_def_cfa_offset 4
 1151 002a BD46     		mov	sp, r7
 1152              		.cfi_def_cfa_register 13
 1153              		@ sp needed
 1154 002c 5DF8047B 		ldr	r7, [sp], #4
 1155              		.cfi_restore 7
 1156              		.cfi_def_cfa_offset 0
 1157 0030 7047     		bx	lr
 1158              		.cfi_endproc
 1159              	.LFE43:
 1160              		.size	lv_anim_path_step, .-lv_anim_path_step
 1161 0032 00BF     		.section	.text.anim_task,"ax",%progbits
 1162              		.align	2
 1163              		.thumb
 1164              		.thumb_func
 1165              		.type	anim_task, %function
 1166              	anim_task:
 1167              	.LFB44:
 369:..\..\..\lvgl\version_6.1.2\lvgl\src\lv_misc/lv_anim.c **** 
 370:..\..\..\lvgl\version_6.1.2\lvgl\src\lv_misc/lv_anim.c **** /**********************
ARM GAS  C:\Users\tmj32\AppData\Local\Temp\ccIqOG38.s 			page 28


 371:..\..\..\lvgl\version_6.1.2\lvgl\src\lv_misc/lv_anim.c ****  *   STATIC FUNCTIONS
 372:..\..\..\lvgl\version_6.1.2\lvgl\src\lv_misc/lv_anim.c ****  **********************/
 373:..\..\..\lvgl\version_6.1.2\lvgl\src\lv_misc/lv_anim.c **** 
 374:..\..\..\lvgl\version_6.1.2\lvgl\src\lv_misc/lv_anim.c **** /**
 375:..\..\..\lvgl\version_6.1.2\lvgl\src\lv_misc/lv_anim.c ****  * Periodically handle the animations.
 376:..\..\..\lvgl\version_6.1.2\lvgl\src\lv_misc/lv_anim.c ****  * @param param unused
 377:..\..\..\lvgl\version_6.1.2\lvgl\src\lv_misc/lv_anim.c ****  */
 378:..\..\..\lvgl\version_6.1.2\lvgl\src\lv_misc/lv_anim.c **** static void anim_task(lv_task_t * param)
 379:..\..\..\lvgl\version_6.1.2\lvgl\src\lv_misc/lv_anim.c **** {
 1168              		.loc 1 379 0
 1169              		.cfi_startproc
 1170              		@ args = 0, pretend = 0, frame = 24
 1171              		@ frame_needed = 1, uses_anonymous_args = 0
 1172 0000 80B5     		push	{r7, lr}
 1173              		.cfi_def_cfa_offset 8
 1174              		.cfi_offset 7, -8
 1175              		.cfi_offset 14, -4
 1176 0002 86B0     		sub	sp, sp, #24
 1177              		.cfi_def_cfa_offset 32
 1178 0004 00AF     		add	r7, sp, #0
 1179              		.cfi_def_cfa_register 7
 1180 0006 7860     		str	r0, [r7, #4]
 380:..\..\..\lvgl\version_6.1.2\lvgl\src\lv_misc/lv_anim.c ****     (void)param;
 381:..\..\..\lvgl\version_6.1.2\lvgl\src\lv_misc/lv_anim.c **** 
 382:..\..\..\lvgl\version_6.1.2\lvgl\src\lv_misc/lv_anim.c ****     lv_anim_t * a;
 383:..\..\..\lvgl\version_6.1.2\lvgl\src\lv_misc/lv_anim.c ****     LV_LL_READ(LV_GC_ROOT(_lv_anim_ll), a)
 1181              		.loc 1 383 0
 1182 0008 4248     		ldr	r0, .L79
 1183 000a FFF7FEFF 		bl	lv_ll_get_head
 1184 000e 7861     		str	r0, [r7, #20]
 1185 0010 0BE0     		b	.L71
 1186              	.L72:
 384:..\..\..\lvgl\version_6.1.2\lvgl\src\lv_misc/lv_anim.c ****     {
 385:..\..\..\lvgl\version_6.1.2\lvgl\src\lv_misc/lv_anim.c ****         a->has_run = 0;
 1187              		.loc 1 385 0 discriminator 3
 1188 0012 7A69     		ldr	r2, [r7, #20]
 1189 0014 92F82030 		ldrb	r3, [r2, #32]
 1190 0018 6FF3C303 		bfc	r3, #3, #1
 1191 001c 82F82030 		strb	r3, [r2, #32]
 383:..\..\..\lvgl\version_6.1.2\lvgl\src\lv_misc/lv_anim.c ****     {
 1192              		.loc 1 383 0 discriminator 3
 1193 0020 7969     		ldr	r1, [r7, #20]
 1194 0022 3C48     		ldr	r0, .L79
 1195 0024 FFF7FEFF 		bl	lv_ll_get_next
 1196 0028 7861     		str	r0, [r7, #20]
 1197              	.L71:
 383:..\..\..\lvgl\version_6.1.2\lvgl\src\lv_misc/lv_anim.c ****     {
 1198              		.loc 1 383 0 is_stmt 0 discriminator 1
 1199 002a 7B69     		ldr	r3, [r7, #20]
 1200 002c 002B     		cmp	r3, #0
 1201 002e F0D1     		bne	.L72
 386:..\..\..\lvgl\version_6.1.2\lvgl\src\lv_misc/lv_anim.c ****     }
 387:..\..\..\lvgl\version_6.1.2\lvgl\src\lv_misc/lv_anim.c **** 
 388:..\..\..\lvgl\version_6.1.2\lvgl\src\lv_misc/lv_anim.c ****     uint32_t elaps = lv_tick_elaps(last_task_run);
 1202              		.loc 1 388 0 is_stmt 1
 1203 0030 394B     		ldr	r3, .L79+4
 1204 0032 1B68     		ldr	r3, [r3]
ARM GAS  C:\Users\tmj32\AppData\Local\Temp\ccIqOG38.s 			page 29


 1205 0034 1846     		mov	r0, r3
 1206 0036 FFF7FEFF 		bl	lv_tick_elaps
 1207 003a 3861     		str	r0, [r7, #16]
 389:..\..\..\lvgl\version_6.1.2\lvgl\src\lv_misc/lv_anim.c **** 
 390:..\..\..\lvgl\version_6.1.2\lvgl\src\lv_misc/lv_anim.c ****     a = lv_ll_get_head(&LV_GC_ROOT(_lv_anim_ll));
 1208              		.loc 1 390 0
 1209 003c 3548     		ldr	r0, .L79
 1210 003e FFF7FEFF 		bl	lv_ll_get_head
 1211 0042 7861     		str	r0, [r7, #20]
 391:..\..\..\lvgl\version_6.1.2\lvgl\src\lv_misc/lv_anim.c **** 
 392:..\..\..\lvgl\version_6.1.2\lvgl\src\lv_misc/lv_anim.c ****     while(a != NULL) {
 1212              		.loc 1 392 0
 1213 0044 59E0     		b	.L73
 1214              	.L78:
 393:..\..\..\lvgl\version_6.1.2\lvgl\src\lv_misc/lv_anim.c ****         /*It can be set by `lv_anim_del()` typically in `end_cb`. If set then an animation delete
 394:..\..\..\lvgl\version_6.1.2\lvgl\src\lv_misc/lv_anim.c ****          * happened in `anim_ready_handler` which could make this linked list reading corrupt
 395:..\..\..\lvgl\version_6.1.2\lvgl\src\lv_misc/lv_anim.c ****          * because the list is changed meanwhile
 396:..\..\..\lvgl\version_6.1.2\lvgl\src\lv_misc/lv_anim.c ****          */
 397:..\..\..\lvgl\version_6.1.2\lvgl\src\lv_misc/lv_anim.c ****         anim_list_changed = false;
 1215              		.loc 1 397 0
 1216 0046 354B     		ldr	r3, .L79+8
 1217 0048 0022     		movs	r2, #0
 1218 004a 1A70     		strb	r2, [r3]
 398:..\..\..\lvgl\version_6.1.2\lvgl\src\lv_misc/lv_anim.c **** 
 399:..\..\..\lvgl\version_6.1.2\lvgl\src\lv_misc/lv_anim.c ****         if(!a->has_run) {
 1219              		.loc 1 399 0
 1220 004c 7B69     		ldr	r3, [r7, #20]
 1221 004e 93F82030 		ldrb	r3, [r3, #32]	@ zero_extendqisi2
 1222 0052 03F00803 		and	r3, r3, #8
 1223 0056 DBB2     		uxtb	r3, r3
 1224 0058 002B     		cmp	r3, #0
 1225 005a 40D1     		bne	.L74
 400:..\..\..\lvgl\version_6.1.2\lvgl\src\lv_misc/lv_anim.c ****             a->has_run = 1; /*The list readying might be reseted so need to know which anim has run
 1226              		.loc 1 400 0
 1227 005c 7A69     		ldr	r2, [r7, #20]
 1228 005e 92F82030 		ldrb	r3, [r2, #32]
 1229 0062 43F00803 		orr	r3, r3, #8
 1230 0066 82F82030 		strb	r3, [r2, #32]
 401:..\..\..\lvgl\version_6.1.2\lvgl\src\lv_misc/lv_anim.c ****             a->act_time += elaps;
 1231              		.loc 1 401 0
 1232 006a 7B69     		ldr	r3, [r7, #20]
 1233 006c B3F91A30 		ldrsh	r3, [r3, #26]
 1234 0070 9AB2     		uxth	r2, r3
 1235 0072 3B69     		ldr	r3, [r7, #16]
 1236 0074 9BB2     		uxth	r3, r3
 1237 0076 1344     		add	r3, r3, r2
 1238 0078 9BB2     		uxth	r3, r3
 1239 007a 1AB2     		sxth	r2, r3
 1240 007c 7B69     		ldr	r3, [r7, #20]
 1241 007e 5A83     		strh	r2, [r3, #26]	@ movhi
 402:..\..\..\lvgl\version_6.1.2\lvgl\src\lv_misc/lv_anim.c ****             if(a->act_time >= 0) {
 1242              		.loc 1 402 0
 1243 0080 7B69     		ldr	r3, [r7, #20]
 1244 0082 B3F91A30 		ldrsh	r3, [r3, #26]
 1245 0086 002B     		cmp	r3, #0
 1246 0088 29DB     		blt	.L74
 1247              	.LBB2:
ARM GAS  C:\Users\tmj32\AppData\Local\Temp\ccIqOG38.s 			page 30


 403:..\..\..\lvgl\version_6.1.2\lvgl\src\lv_misc/lv_anim.c ****                 if(a->act_time > a->time) a->act_time = a->time;
 1248              		.loc 1 403 0
 1249 008a 7B69     		ldr	r3, [r7, #20]
 1250 008c B3F91A30 		ldrsh	r3, [r3, #26]
 1251 0090 1A46     		mov	r2, r3
 1252 0092 7B69     		ldr	r3, [r7, #20]
 1253 0094 1B8B     		ldrh	r3, [r3, #24]
 1254 0096 9A42     		cmp	r2, r3
 1255 0098 04DD     		ble	.L75
 1256              		.loc 1 403 0 is_stmt 0 discriminator 1
 1257 009a 7B69     		ldr	r3, [r7, #20]
 1258 009c 1B8B     		ldrh	r3, [r3, #24]
 1259 009e 1AB2     		sxth	r2, r3
 1260 00a0 7B69     		ldr	r3, [r7, #20]
 1261 00a2 5A83     		strh	r2, [r3, #26]	@ movhi
 1262              	.L75:
 404:..\..\..\lvgl\version_6.1.2\lvgl\src\lv_misc/lv_anim.c **** 
 405:..\..\..\lvgl\version_6.1.2\lvgl\src\lv_misc/lv_anim.c ****                 int32_t new_value;
 406:..\..\..\lvgl\version_6.1.2\lvgl\src\lv_misc/lv_anim.c ****                 new_value = a->path_cb(a);
 1263              		.loc 1 406 0 is_stmt 1
 1264 00a4 7B69     		ldr	r3, [r7, #20]
 1265 00a6 9B68     		ldr	r3, [r3, #8]
 1266 00a8 7869     		ldr	r0, [r7, #20]
 1267 00aa 9847     		blx	r3
 1268 00ac 0346     		mov	r3, r0
 1269 00ae FB60     		str	r3, [r7, #12]
 407:..\..\..\lvgl\version_6.1.2\lvgl\src\lv_misc/lv_anim.c **** 
 408:..\..\..\lvgl\version_6.1.2\lvgl\src\lv_misc/lv_anim.c ****                 /*Apply the calculated value*/
 409:..\..\..\lvgl\version_6.1.2\lvgl\src\lv_misc/lv_anim.c ****                 if(a->exec_cb) a->exec_cb(a->var, new_value);
 1270              		.loc 1 409 0
 1271 00b0 7B69     		ldr	r3, [r7, #20]
 1272 00b2 5B68     		ldr	r3, [r3, #4]
 1273 00b4 002B     		cmp	r3, #0
 1274 00b6 07D0     		beq	.L76
 1275              		.loc 1 409 0 is_stmt 0 discriminator 1
 1276 00b8 7B69     		ldr	r3, [r7, #20]
 1277 00ba 5B68     		ldr	r3, [r3, #4]
 1278 00bc 7A69     		ldr	r2, [r7, #20]
 1279 00be 1268     		ldr	r2, [r2]
 1280 00c0 F968     		ldr	r1, [r7, #12]
 1281 00c2 09B2     		sxth	r1, r1
 1282 00c4 1046     		mov	r0, r2
 1283 00c6 9847     		blx	r3
 1284              	.L76:
 410:..\..\..\lvgl\version_6.1.2\lvgl\src\lv_misc/lv_anim.c **** 
 411:..\..\..\lvgl\version_6.1.2\lvgl\src\lv_misc/lv_anim.c ****                 /*If the time is elapsed the animation is ready*/
 412:..\..\..\lvgl\version_6.1.2\lvgl\src\lv_misc/lv_anim.c ****                 if(a->act_time >= a->time) {
 1285              		.loc 1 412 0 is_stmt 1
 1286 00c8 7B69     		ldr	r3, [r7, #20]
 1287 00ca B3F91A30 		ldrsh	r3, [r3, #26]
 1288 00ce 1A46     		mov	r2, r3
 1289 00d0 7B69     		ldr	r3, [r7, #20]
 1290 00d2 1B8B     		ldrh	r3, [r3, #24]
 1291 00d4 9A42     		cmp	r2, r3
 1292 00d6 02DB     		blt	.L74
 413:..\..\..\lvgl\version_6.1.2\lvgl\src\lv_misc/lv_anim.c ****                     anim_ready_handler(a);
 1293              		.loc 1 413 0
ARM GAS  C:\Users\tmj32\AppData\Local\Temp\ccIqOG38.s 			page 31


 1294 00d8 7869     		ldr	r0, [r7, #20]
 1295 00da FFF7FEFF 		bl	anim_ready_handler
 1296              	.L74:
 1297              	.LBE2:
 414:..\..\..\lvgl\version_6.1.2\lvgl\src\lv_misc/lv_anim.c ****                 }
 415:..\..\..\lvgl\version_6.1.2\lvgl\src\lv_misc/lv_anim.c ****             }
 416:..\..\..\lvgl\version_6.1.2\lvgl\src\lv_misc/lv_anim.c ****         }
 417:..\..\..\lvgl\version_6.1.2\lvgl\src\lv_misc/lv_anim.c **** 
 418:..\..\..\lvgl\version_6.1.2\lvgl\src\lv_misc/lv_anim.c ****         /* If the linked list changed due to anim. delete then it's not safe to continue
 419:..\..\..\lvgl\version_6.1.2\lvgl\src\lv_misc/lv_anim.c ****          * the reading of the list from here -> start from the head*/
 420:..\..\..\lvgl\version_6.1.2\lvgl\src\lv_misc/lv_anim.c ****         if(anim_list_changed)
 1298              		.loc 1 420 0
 1299 00de 0F4B     		ldr	r3, .L79+8
 1300 00e0 1B78     		ldrb	r3, [r3]	@ zero_extendqisi2
 1301 00e2 002B     		cmp	r3, #0
 1302 00e4 04D0     		beq	.L77
 421:..\..\..\lvgl\version_6.1.2\lvgl\src\lv_misc/lv_anim.c ****             a = lv_ll_get_head(&LV_GC_ROOT(_lv_anim_ll));
 1303              		.loc 1 421 0
 1304 00e6 0B48     		ldr	r0, .L79
 1305 00e8 FFF7FEFF 		bl	lv_ll_get_head
 1306 00ec 7861     		str	r0, [r7, #20]
 1307 00ee 04E0     		b	.L73
 1308              	.L77:
 422:..\..\..\lvgl\version_6.1.2\lvgl\src\lv_misc/lv_anim.c ****         else
 423:..\..\..\lvgl\version_6.1.2\lvgl\src\lv_misc/lv_anim.c ****             a = lv_ll_get_next(&LV_GC_ROOT(_lv_anim_ll), a);
 1309              		.loc 1 423 0
 1310 00f0 7969     		ldr	r1, [r7, #20]
 1311 00f2 0848     		ldr	r0, .L79
 1312 00f4 FFF7FEFF 		bl	lv_ll_get_next
 1313 00f8 7861     		str	r0, [r7, #20]
 1314              	.L73:
 392:..\..\..\lvgl\version_6.1.2\lvgl\src\lv_misc/lv_anim.c ****         /*It can be set by `lv_anim_del()` typically in `end_cb`. If set then an animation delete
 1315              		.loc 1 392 0
 1316 00fa 7B69     		ldr	r3, [r7, #20]
 1317 00fc 002B     		cmp	r3, #0
 1318 00fe A2D1     		bne	.L78
 424:..\..\..\lvgl\version_6.1.2\lvgl\src\lv_misc/lv_anim.c ****     }
 425:..\..\..\lvgl\version_6.1.2\lvgl\src\lv_misc/lv_anim.c **** 
 426:..\..\..\lvgl\version_6.1.2\lvgl\src\lv_misc/lv_anim.c ****     last_task_run = lv_tick_get();
 1319              		.loc 1 426 0
 1320 0100 FFF7FEFF 		bl	lv_tick_get
 1321 0104 0246     		mov	r2, r0
 1322 0106 044B     		ldr	r3, .L79+4
 1323 0108 1A60     		str	r2, [r3]
 427:..\..\..\lvgl\version_6.1.2\lvgl\src\lv_misc/lv_anim.c **** }
 1324              		.loc 1 427 0
 1325 010a 00BF     		nop
 1326 010c 1837     		adds	r7, r7, #24
 1327              		.cfi_def_cfa_offset 8
 1328 010e BD46     		mov	sp, r7
 1329              		.cfi_def_cfa_register 13
 1330              		@ sp needed
 1331 0110 80BD     		pop	{r7, pc}
 1332              	.L80:
 1333 0112 00BF     		.align	2
 1334              	.L79:
 1335 0114 00000000 		.word	_lv_anim_ll
ARM GAS  C:\Users\tmj32\AppData\Local\Temp\ccIqOG38.s 			page 32


 1336 0118 00000000 		.word	last_task_run
 1337 011c 04000000 		.word	anim_list_changed
 1338              		.cfi_endproc
 1339              	.LFE44:
 1340              		.size	anim_task, .-anim_task
 1341              		.section	.text.anim_ready_handler,"ax",%progbits
 1342              		.align	2
 1343              		.thumb
 1344              		.thumb_func
 1345              		.type	anim_ready_handler, %function
 1346              	anim_ready_handler:
 1347              	.LFB45:
 428:..\..\..\lvgl\version_6.1.2\lvgl\src\lv_misc/lv_anim.c **** 
 429:..\..\..\lvgl\version_6.1.2\lvgl\src\lv_misc/lv_anim.c **** /**
 430:..\..\..\lvgl\version_6.1.2\lvgl\src\lv_misc/lv_anim.c ****  * Called when an animation is ready to do the necessary thinks
 431:..\..\..\lvgl\version_6.1.2\lvgl\src\lv_misc/lv_anim.c ****  * e.g. repeat, play back, delete etc.
 432:..\..\..\lvgl\version_6.1.2\lvgl\src\lv_misc/lv_anim.c ****  * @param a pointer to an animation descriptor
 433:..\..\..\lvgl\version_6.1.2\lvgl\src\lv_misc/lv_anim.c ****  * @return true: animation delete occurred nnd the `LV_GC_ROOT(_lv_anim_ll)` has changed
 434:..\..\..\lvgl\version_6.1.2\lvgl\src\lv_misc/lv_anim.c ****  * */
 435:..\..\..\lvgl\version_6.1.2\lvgl\src\lv_misc/lv_anim.c **** static bool anim_ready_handler(lv_anim_t * a)
 436:..\..\..\lvgl\version_6.1.2\lvgl\src\lv_misc/lv_anim.c **** {
 1348              		.loc 1 436 0
 1349              		.cfi_startproc
 1350              		@ args = 0, pretend = 0, frame = 48
 1351              		@ frame_needed = 1, uses_anonymous_args = 0
 1352 0000 80B5     		push	{r7, lr}
 1353              		.cfi_def_cfa_offset 8
 1354              		.cfi_offset 7, -8
 1355              		.cfi_offset 14, -4
 1356 0002 8CB0     		sub	sp, sp, #48
 1357              		.cfi_def_cfa_offset 56
 1358 0004 00AF     		add	r7, sp, #0
 1359              		.cfi_def_cfa_register 7
 1360 0006 7860     		str	r0, [r7, #4]
 437:..\..\..\lvgl\version_6.1.2\lvgl\src\lv_misc/lv_anim.c **** 
 438:..\..\..\lvgl\version_6.1.2\lvgl\src\lv_misc/lv_anim.c ****     /*Delete the animation if
 439:..\..\..\lvgl\version_6.1.2\lvgl\src\lv_misc/lv_anim.c ****      * - no repeat and no play back (simple one shot animation)
 440:..\..\..\lvgl\version_6.1.2\lvgl\src\lv_misc/lv_anim.c ****      * - no repeat, play back is enabled and play back is ready */
 441:..\..\..\lvgl\version_6.1.2\lvgl\src\lv_misc/lv_anim.c ****     if((a->repeat == 0 && a->playback == 0) || (a->repeat == 0 && a->playback == 1 && a->playback_n
 1361              		.loc 1 441 0
 1362 0008 7B68     		ldr	r3, [r7, #4]
 1363 000a 93F82030 		ldrb	r3, [r3, #32]	@ zero_extendqisi2
 1364 000e 03F00203 		and	r3, r3, #2
 1365 0012 DBB2     		uxtb	r3, r3
 1366 0014 002B     		cmp	r3, #0
 1367 0016 07D1     		bne	.L82
 1368              		.loc 1 441 0 is_stmt 0 discriminator 1
 1369 0018 7B68     		ldr	r3, [r7, #4]
 1370 001a 93F82030 		ldrb	r3, [r3, #32]	@ zero_extendqisi2
 1371 001e 03F00103 		and	r3, r3, #1
 1372 0022 DBB2     		uxtb	r3, r3
 1373 0024 002B     		cmp	r3, #0
 1374 0026 17D0     		beq	.L83
 1375              	.L82:
 1376              		.loc 1 441 0 discriminator 3
 1377 0028 7B68     		ldr	r3, [r7, #4]
 1378 002a 93F82030 		ldrb	r3, [r3, #32]	@ zero_extendqisi2
ARM GAS  C:\Users\tmj32\AppData\Local\Temp\ccIqOG38.s 			page 33


 1379 002e 03F00203 		and	r3, r3, #2
 1380 0032 DBB2     		uxtb	r3, r3
 1381 0034 002B     		cmp	r3, #0
 1382 0036 29D1     		bne	.L84
 1383              		.loc 1 441 0 discriminator 4
 1384 0038 7B68     		ldr	r3, [r7, #4]
 1385 003a 93F82030 		ldrb	r3, [r3, #32]	@ zero_extendqisi2
 1386 003e 03F00103 		and	r3, r3, #1
 1387 0042 DBB2     		uxtb	r3, r3
 1388 0044 002B     		cmp	r3, #0
 1389 0046 21D0     		beq	.L84
 1390              		.loc 1 441 0 discriminator 5
 1391 0048 7B68     		ldr	r3, [r7, #4]
 1392 004a 93F82030 		ldrb	r3, [r3, #32]	@ zero_extendqisi2
 1393 004e 03F00403 		and	r3, r3, #4
 1394 0052 DBB2     		uxtb	r3, r3
 1395 0054 002B     		cmp	r3, #0
 1396 0056 19D0     		beq	.L84
 1397              	.L83:
 1398              	.LBB3:
 442:..\..\..\lvgl\version_6.1.2\lvgl\src\lv_misc/lv_anim.c **** 
 443:..\..\..\lvgl\version_6.1.2\lvgl\src\lv_misc/lv_anim.c ****         /*Create copy from the animation and delete the animation from the list.
 444:..\..\..\lvgl\version_6.1.2\lvgl\src\lv_misc/lv_anim.c ****          * This way the `ready_cb` will see the animations like it's animation is ready deleted*/
 445:..\..\..\lvgl\version_6.1.2\lvgl\src\lv_misc/lv_anim.c ****         lv_anim_t a_tmp;
 446:..\..\..\lvgl\version_6.1.2\lvgl\src\lv_misc/lv_anim.c ****         memcpy(&a_tmp, a, sizeof(lv_anim_t));
 1399              		.loc 1 446 0 is_stmt 1
 1400 0058 07F10803 		add	r3, r7, #8
 1401 005c 2422     		movs	r2, #36
 1402 005e 7968     		ldr	r1, [r7, #4]
 1403 0060 1846     		mov	r0, r3
 1404 0062 FFF7FEFF 		bl	memcpy
 447:..\..\..\lvgl\version_6.1.2\lvgl\src\lv_misc/lv_anim.c ****         lv_ll_rem(&LV_GC_ROOT(_lv_anim_ll), a);
 1405              		.loc 1 447 0
 1406 0066 7968     		ldr	r1, [r7, #4]
 1407 0068 2948     		ldr	r0, .L90
 1408 006a FFF7FEFF 		bl	lv_ll_rem
 448:..\..\..\lvgl\version_6.1.2\lvgl\src\lv_misc/lv_anim.c ****         lv_mem_free(a);
 1409              		.loc 1 448 0
 1410 006e 7868     		ldr	r0, [r7, #4]
 1411 0070 FFF7FEFF 		bl	lv_mem_free
 449:..\..\..\lvgl\version_6.1.2\lvgl\src\lv_misc/lv_anim.c ****         anim_list_changed = true;
 1412              		.loc 1 449 0
 1413 0074 274B     		ldr	r3, .L90+4
 1414 0076 0122     		movs	r2, #1
 1415 0078 1A70     		strb	r2, [r3]
 450:..\..\..\lvgl\version_6.1.2\lvgl\src\lv_misc/lv_anim.c **** 
 451:..\..\..\lvgl\version_6.1.2\lvgl\src\lv_misc/lv_anim.c ****         /* Call the callback function at the end*/
 452:..\..\..\lvgl\version_6.1.2\lvgl\src\lv_misc/lv_anim.c ****         if(a_tmp.ready_cb != NULL) a_tmp.ready_cb(&a_tmp);
 1416              		.loc 1 452 0
 1417 007a 7B69     		ldr	r3, [r7, #20]
 1418 007c 002B     		cmp	r3, #0
 1419 007e 40D0     		beq	.L89
 1420              		.loc 1 452 0 is_stmt 0 discriminator 1
 1421 0080 7B69     		ldr	r3, [r7, #20]
 1422 0082 07F10802 		add	r2, r7, #8
 1423 0086 1046     		mov	r0, r2
 1424 0088 9847     		blx	r3
ARM GAS  C:\Users\tmj32\AppData\Local\Temp\ccIqOG38.s 			page 34


 1425              	.LBE3:
 441:..\..\..\lvgl\version_6.1.2\lvgl\src\lv_misc/lv_anim.c **** 
 1426              		.loc 1 441 0 is_stmt 1 discriminator 1
 1427 008a 3AE0     		b	.L89
 1428              	.L84:
 453:..\..\..\lvgl\version_6.1.2\lvgl\src\lv_misc/lv_anim.c ****     }
 454:..\..\..\lvgl\version_6.1.2\lvgl\src\lv_misc/lv_anim.c ****     /*If the animation is not deleted then restart it*/
 455:..\..\..\lvgl\version_6.1.2\lvgl\src\lv_misc/lv_anim.c ****     else {
 456:..\..\..\lvgl\version_6.1.2\lvgl\src\lv_misc/lv_anim.c ****         a->act_time = -a->repeat_pause; /*Restart the animation*/
 1429              		.loc 1 456 0
 1430 008c 7B68     		ldr	r3, [r7, #4]
 1431 008e DB8B     		ldrh	r3, [r3, #30]
 1432 0090 5B42     		negs	r3, r3
 1433 0092 9BB2     		uxth	r3, r3
 1434 0094 1AB2     		sxth	r2, r3
 1435 0096 7B68     		ldr	r3, [r7, #4]
 1436 0098 5A83     		strh	r2, [r3, #26]	@ movhi
 457:..\..\..\lvgl\version_6.1.2\lvgl\src\lv_misc/lv_anim.c ****         /*Swap the start and end values in play back mode*/
 458:..\..\..\lvgl\version_6.1.2\lvgl\src\lv_misc/lv_anim.c ****         if(a->playback != 0) {
 1437              		.loc 1 458 0
 1438 009a 7B68     		ldr	r3, [r7, #4]
 1439 009c 93F82030 		ldrb	r3, [r3, #32]	@ zero_extendqisi2
 1440 00a0 03F00103 		and	r3, r3, #1
 1441 00a4 DBB2     		uxtb	r3, r3
 1442 00a6 002B     		cmp	r3, #0
 1443 00a8 2CD0     		beq	.L86
 1444              	.LBB4:
 459:..\..\..\lvgl\version_6.1.2\lvgl\src\lv_misc/lv_anim.c ****             /*If now turning back use the 'playback_pause*/
 460:..\..\..\lvgl\version_6.1.2\lvgl\src\lv_misc/lv_anim.c ****             if(a->playback_now == 0) a->act_time = -a->playback_pause;
 1445              		.loc 1 460 0
 1446 00aa 7B68     		ldr	r3, [r7, #4]
 1447 00ac 93F82030 		ldrb	r3, [r3, #32]	@ zero_extendqisi2
 1448 00b0 03F00403 		and	r3, r3, #4
 1449 00b4 DBB2     		uxtb	r3, r3
 1450 00b6 002B     		cmp	r3, #0
 1451 00b8 06D1     		bne	.L87
 1452              		.loc 1 460 0 is_stmt 0 discriminator 1
 1453 00ba 7B68     		ldr	r3, [r7, #4]
 1454 00bc 9B8B     		ldrh	r3, [r3, #28]
 1455 00be 5B42     		negs	r3, r3
 1456 00c0 9BB2     		uxth	r3, r3
 1457 00c2 1AB2     		sxth	r2, r3
 1458 00c4 7B68     		ldr	r3, [r7, #4]
 1459 00c6 5A83     		strh	r2, [r3, #26]	@ movhi
 1460              	.L87:
 461:..\..\..\lvgl\version_6.1.2\lvgl\src\lv_misc/lv_anim.c **** 
 462:..\..\..\lvgl\version_6.1.2\lvgl\src\lv_misc/lv_anim.c ****             /*Toggle the play back state*/
 463:..\..\..\lvgl\version_6.1.2\lvgl\src\lv_misc/lv_anim.c ****             a->playback_now = a->playback_now == 0 ? 1 : 0;
 1461              		.loc 1 463 0 is_stmt 1
 1462 00c8 7B68     		ldr	r3, [r7, #4]
 1463 00ca 93F82030 		ldrb	r3, [r3, #32]	@ zero_extendqisi2
 1464 00ce 03F00403 		and	r3, r3, #4
 1465 00d2 DBB2     		uxtb	r3, r3
 1466 00d4 002B     		cmp	r3, #0
 1467 00d6 0CBF     		ite	eq
 1468 00d8 0123     		moveq	r3, #1
 1469 00da 0023     		movne	r3, #0
ARM GAS  C:\Users\tmj32\AppData\Local\Temp\ccIqOG38.s 			page 35


 1470 00dc D9B2     		uxtb	r1, r3
 1471 00de 7A68     		ldr	r2, [r7, #4]
 1472 00e0 92F82030 		ldrb	r3, [r2, #32]
 1473 00e4 61F38203 		bfi	r3, r1, #2, #1
 1474 00e8 82F82030 		strb	r3, [r2, #32]
 464:..\..\..\lvgl\version_6.1.2\lvgl\src\lv_misc/lv_anim.c ****             /*Swap the start and end values*/
 465:..\..\..\lvgl\version_6.1.2\lvgl\src\lv_misc/lv_anim.c ****             int32_t tmp;
 466:..\..\..\lvgl\version_6.1.2\lvgl\src\lv_misc/lv_anim.c ****             tmp      = a->start;
 1475              		.loc 1 466 0
 1476 00ec 7B68     		ldr	r3, [r7, #4]
 1477 00ee 1B69     		ldr	r3, [r3, #16]
 1478 00f0 FB62     		str	r3, [r7, #44]
 467:..\..\..\lvgl\version_6.1.2\lvgl\src\lv_misc/lv_anim.c ****             a->start = a->end;
 1479              		.loc 1 467 0
 1480 00f2 7B68     		ldr	r3, [r7, #4]
 1481 00f4 5A69     		ldr	r2, [r3, #20]
 1482 00f6 7B68     		ldr	r3, [r7, #4]
 1483 00f8 1A61     		str	r2, [r3, #16]
 468:..\..\..\lvgl\version_6.1.2\lvgl\src\lv_misc/lv_anim.c ****             a->end   = tmp;
 1484              		.loc 1 468 0
 1485 00fa 7B68     		ldr	r3, [r7, #4]
 1486 00fc FA6A     		ldr	r2, [r7, #44]
 1487 00fe 5A61     		str	r2, [r3, #20]
 1488 0100 00E0     		b	.L86
 1489              	.L89:
 1490              	.LBE4:
 441:..\..\..\lvgl\version_6.1.2\lvgl\src\lv_misc/lv_anim.c **** 
 1491              		.loc 1 441 0
 1492 0102 00BF     		nop
 1493              	.L86:
 469:..\..\..\lvgl\version_6.1.2\lvgl\src\lv_misc/lv_anim.c ****         }
 470:..\..\..\lvgl\version_6.1.2\lvgl\src\lv_misc/lv_anim.c ****     }
 471:..\..\..\lvgl\version_6.1.2\lvgl\src\lv_misc/lv_anim.c **** 
 472:..\..\..\lvgl\version_6.1.2\lvgl\src\lv_misc/lv_anim.c ****     return anim_list_changed;
 1494              		.loc 1 472 0
 1495 0104 034B     		ldr	r3, .L90+4
 1496 0106 1B78     		ldrb	r3, [r3]	@ zero_extendqisi2
 473:..\..\..\lvgl\version_6.1.2\lvgl\src\lv_misc/lv_anim.c **** }
 1497              		.loc 1 473 0
 1498 0108 1846     		mov	r0, r3
 1499 010a 3037     		adds	r7, r7, #48
 1500              		.cfi_def_cfa_offset 8
 1501 010c BD46     		mov	sp, r7
 1502              		.cfi_def_cfa_register 13
 1503              		@ sp needed
 1504 010e 80BD     		pop	{r7, pc}
 1505              	.L91:
 1506              		.align	2
 1507              	.L90:
 1508 0110 00000000 		.word	_lv_anim_ll
 1509 0114 04000000 		.word	anim_list_changed
 1510              		.cfi_endproc
 1511              	.LFE45:
 1512              		.size	anim_ready_handler, .-anim_ready_handler
 1513              		.text
 1514              	.Letext0:
 1515              		.file 2 "c:\\program files (x86)\\cypress\\psoc creator\\4.3\\psoc creator\\import\\gnu\\arm\\5.4.
ARM GAS  C:\Users\tmj32\AppData\Local\Temp\ccIqOG38.s 			page 36


 1516              		.file 3 "c:\\program files (x86)\\cypress\\psoc creator\\4.3\\psoc creator\\import\\gnu\\arm\\5.4.
 1517              		.file 4 "..\\..\\..\\lvgl\\version_6.1.2\\lvgl\\src\\lv_misc\\../../../lv_conf.h"
 1518              		.file 5 "..\\..\\..\\lvgl\\version_6.1.2\\lvgl\\src\\lv_misc\\lv_anim.h"
 1519              		.file 6 "..\\..\\..\\lvgl\\version_6.1.2\\lvgl\\src\\lv_misc\\../lv_core/../lv_misc/lv_ll.h"
 1520              		.file 7 "..\\..\\..\\lvgl\\version_6.1.2\\lvgl\\src\\lv_misc\\../lv_core/../lv_hal/../lv_misc/lv_t
 1521              		.file 8 "..\\..\\..\\lvgl\\version_6.1.2\\lvgl\\src\\lv_misc\\lv_gc.h"