ARM GAS  C:\Users\tmj32\AppData\Local\Temp\ccLXReEl.s 			page 1


   1              		.syntax unified
   2              		.cpu cortex-m4
   3              		.eabi_attribute 27, 1
   4              		.fpu fpv4-sp-d16
   5              		.eabi_attribute 20, 1
   6              		.eabi_attribute 21, 1
   7              		.eabi_attribute 23, 3
   8              		.eabi_attribute 24, 1
   9              		.eabi_attribute 25, 1
  10              		.eabi_attribute 26, 1
  11              		.eabi_attribute 30, 6
  12              		.eabi_attribute 34, 1
  13              		.eabi_attribute 18, 4
  14              		.thumb
  15              		.syntax unified
  16              		.file	"lv_async.c"
  17              		.text
  18              	.Ltext0:
  19              		.cfi_sections	.debug_frame
  20              		.section	.text.lv_async_call,"ax",%progbits
  21              		.align	2
  22              		.global	lv_async_call
  23              		.thumb
  24              		.thumb_func
  25              		.type	lv_async_call, %function
  26              	lv_async_call:
  27              	.LFB0:
  28              		.file 1 "..\\..\\..\\lvgl\\version_6.1.2\\lvgl\\src\\lv_misc\\lv_async.c"
   1:..\..\..\lvgl\version_6.1.2\lvgl\src\lv_misc/lv_async.c **** /**
   2:..\..\..\lvgl\version_6.1.2\lvgl\src\lv_misc/lv_async.c ****  * @file lv_async.c
   3:..\..\..\lvgl\version_6.1.2\lvgl\src\lv_misc/lv_async.c ****  *
   4:..\..\..\lvgl\version_6.1.2\lvgl\src\lv_misc/lv_async.c ****  */
   5:..\..\..\lvgl\version_6.1.2\lvgl\src\lv_misc/lv_async.c **** 
   6:..\..\..\lvgl\version_6.1.2\lvgl\src\lv_misc/lv_async.c **** /*********************
   7:..\..\..\lvgl\version_6.1.2\lvgl\src\lv_misc/lv_async.c ****  *      INCLUDES
   8:..\..\..\lvgl\version_6.1.2\lvgl\src\lv_misc/lv_async.c ****  *********************/
   9:..\..\..\lvgl\version_6.1.2\lvgl\src\lv_misc/lv_async.c **** 
  10:..\..\..\lvgl\version_6.1.2\lvgl\src\lv_misc/lv_async.c **** #include "lv_async.h"
  11:..\..\..\lvgl\version_6.1.2\lvgl\src\lv_misc/lv_async.c **** 
  12:..\..\..\lvgl\version_6.1.2\lvgl\src\lv_misc/lv_async.c **** /*********************
  13:..\..\..\lvgl\version_6.1.2\lvgl\src\lv_misc/lv_async.c ****  *      DEFINES
  14:..\..\..\lvgl\version_6.1.2\lvgl\src\lv_misc/lv_async.c ****  *********************/
  15:..\..\..\lvgl\version_6.1.2\lvgl\src\lv_misc/lv_async.c **** 
  16:..\..\..\lvgl\version_6.1.2\lvgl\src\lv_misc/lv_async.c **** /**********************
  17:..\..\..\lvgl\version_6.1.2\lvgl\src\lv_misc/lv_async.c ****  *      TYPEDEFS
  18:..\..\..\lvgl\version_6.1.2\lvgl\src\lv_misc/lv_async.c ****  **********************/
  19:..\..\..\lvgl\version_6.1.2\lvgl\src\lv_misc/lv_async.c **** 
  20:..\..\..\lvgl\version_6.1.2\lvgl\src\lv_misc/lv_async.c **** /**********************
  21:..\..\..\lvgl\version_6.1.2\lvgl\src\lv_misc/lv_async.c ****  *  STATIC PROTOTYPES
  22:..\..\..\lvgl\version_6.1.2\lvgl\src\lv_misc/lv_async.c ****  **********************/
  23:..\..\..\lvgl\version_6.1.2\lvgl\src\lv_misc/lv_async.c **** 
  24:..\..\..\lvgl\version_6.1.2\lvgl\src\lv_misc/lv_async.c **** static void lv_async_task_cb(lv_task_t *task);
  25:..\..\..\lvgl\version_6.1.2\lvgl\src\lv_misc/lv_async.c **** 
  26:..\..\..\lvgl\version_6.1.2\lvgl\src\lv_misc/lv_async.c **** /**********************
  27:..\..\..\lvgl\version_6.1.2\lvgl\src\lv_misc/lv_async.c ****  *  STATIC VARIABLES
  28:..\..\..\lvgl\version_6.1.2\lvgl\src\lv_misc/lv_async.c ****  **********************/
  29:..\..\..\lvgl\version_6.1.2\lvgl\src\lv_misc/lv_async.c **** 
ARM GAS  C:\Users\tmj32\AppData\Local\Temp\ccLXReEl.s 			page 2


  30:..\..\..\lvgl\version_6.1.2\lvgl\src\lv_misc/lv_async.c **** /**********************
  31:..\..\..\lvgl\version_6.1.2\lvgl\src\lv_misc/lv_async.c ****  *      MACROS
  32:..\..\..\lvgl\version_6.1.2\lvgl\src\lv_misc/lv_async.c ****  **********************/
  33:..\..\..\lvgl\version_6.1.2\lvgl\src\lv_misc/lv_async.c **** 
  34:..\..\..\lvgl\version_6.1.2\lvgl\src\lv_misc/lv_async.c **** /**********************
  35:..\..\..\lvgl\version_6.1.2\lvgl\src\lv_misc/lv_async.c ****  *   GLOBAL FUNCTIONS
  36:..\..\..\lvgl\version_6.1.2\lvgl\src\lv_misc/lv_async.c ****  **********************/
  37:..\..\..\lvgl\version_6.1.2\lvgl\src\lv_misc/lv_async.c **** 
  38:..\..\..\lvgl\version_6.1.2\lvgl\src\lv_misc/lv_async.c **** lv_res_t lv_async_call(lv_async_cb_t async_xcb, void * user_data)
  39:..\..\..\lvgl\version_6.1.2\lvgl\src\lv_misc/lv_async.c **** {
  29              		.loc 1 39 0
  30              		.cfi_startproc
  31              		@ args = 0, pretend = 0, frame = 16
  32              		@ frame_needed = 1, uses_anonymous_args = 0
  33 0000 80B5     		push	{r7, lr}
  34              		.cfi_def_cfa_offset 8
  35              		.cfi_offset 7, -8
  36              		.cfi_offset 14, -4
  37 0002 84B0     		sub	sp, sp, #16
  38              		.cfi_def_cfa_offset 24
  39 0004 00AF     		add	r7, sp, #0
  40              		.cfi_def_cfa_register 7
  41 0006 7860     		str	r0, [r7, #4]
  42 0008 3960     		str	r1, [r7]
  40:..\..\..\lvgl\version_6.1.2\lvgl\src\lv_misc/lv_async.c ****     /*Allocate an info structure */
  41:..\..\..\lvgl\version_6.1.2\lvgl\src\lv_misc/lv_async.c ****     lv_async_info_t *info = lv_mem_alloc(sizeof(lv_async_info_t));
  43              		.loc 1 41 0
  44 000a 0820     		movs	r0, #8
  45 000c FFF7FEFF 		bl	lv_mem_alloc
  46 0010 F860     		str	r0, [r7, #12]
  42:..\..\..\lvgl\version_6.1.2\lvgl\src\lv_misc/lv_async.c ****     
  43:..\..\..\lvgl\version_6.1.2\lvgl\src\lv_misc/lv_async.c ****     if(info == NULL)
  47              		.loc 1 43 0
  48 0012 FB68     		ldr	r3, [r7, #12]
  49 0014 002B     		cmp	r3, #0
  50 0016 01D1     		bne	.L2
  44:..\..\..\lvgl\version_6.1.2\lvgl\src\lv_misc/lv_async.c ****         return LV_RES_INV;
  51              		.loc 1 44 0
  52 0018 0023     		movs	r3, #0
  53 001a 1BE0     		b	.L3
  54              	.L2:
  45:..\..\..\lvgl\version_6.1.2\lvgl\src\lv_misc/lv_async.c ****     
  46:..\..\..\lvgl\version_6.1.2\lvgl\src\lv_misc/lv_async.c ****     /* Create a new task */
  47:..\..\..\lvgl\version_6.1.2\lvgl\src\lv_misc/lv_async.c ****     /* Use highest priority so that it will run before a refresh */
  48:..\..\..\lvgl\version_6.1.2\lvgl\src\lv_misc/lv_async.c ****     lv_task_t *task = lv_task_create(lv_async_task_cb, 0, LV_TASK_PRIO_HIGHEST, info);
  55              		.loc 1 48 0
  56 001c FB68     		ldr	r3, [r7, #12]
  57 001e 0522     		movs	r2, #5
  58 0020 0021     		movs	r1, #0
  59 0022 0E48     		ldr	r0, .L5
  60 0024 FFF7FEFF 		bl	lv_task_create
  61 0028 B860     		str	r0, [r7, #8]
  49:..\..\..\lvgl\version_6.1.2\lvgl\src\lv_misc/lv_async.c ****     
  50:..\..\..\lvgl\version_6.1.2\lvgl\src\lv_misc/lv_async.c ****     if(task == NULL) {
  62              		.loc 1 50 0
  63 002a BB68     		ldr	r3, [r7, #8]
  64 002c 002B     		cmp	r3, #0
ARM GAS  C:\Users\tmj32\AppData\Local\Temp\ccLXReEl.s 			page 3


  65 002e 04D1     		bne	.L4
  51:..\..\..\lvgl\version_6.1.2\lvgl\src\lv_misc/lv_async.c ****         lv_mem_free(info);
  66              		.loc 1 51 0
  67 0030 F868     		ldr	r0, [r7, #12]
  68 0032 FFF7FEFF 		bl	lv_mem_free
  52:..\..\..\lvgl\version_6.1.2\lvgl\src\lv_misc/lv_async.c ****         return LV_RES_INV;
  69              		.loc 1 52 0
  70 0036 0023     		movs	r3, #0
  71 0038 0CE0     		b	.L3
  72              	.L4:
  53:..\..\..\lvgl\version_6.1.2\lvgl\src\lv_misc/lv_async.c ****     }
  54:..\..\..\lvgl\version_6.1.2\lvgl\src\lv_misc/lv_async.c ****     
  55:..\..\..\lvgl\version_6.1.2\lvgl\src\lv_misc/lv_async.c ****     info->cb = async_xcb;
  73              		.loc 1 55 0
  74 003a FB68     		ldr	r3, [r7, #12]
  75 003c 7A68     		ldr	r2, [r7, #4]
  76 003e 1A60     		str	r2, [r3]
  56:..\..\..\lvgl\version_6.1.2\lvgl\src\lv_misc/lv_async.c ****     info->user_data = user_data;
  77              		.loc 1 56 0
  78 0040 FB68     		ldr	r3, [r7, #12]
  79 0042 3A68     		ldr	r2, [r7]
  80 0044 5A60     		str	r2, [r3, #4]
  57:..\..\..\lvgl\version_6.1.2\lvgl\src\lv_misc/lv_async.c **** 
  58:..\..\..\lvgl\version_6.1.2\lvgl\src\lv_misc/lv_async.c ****     /* Set the task's user data */
  59:..\..\..\lvgl\version_6.1.2\lvgl\src\lv_misc/lv_async.c ****     task->user_data = info;
  81              		.loc 1 59 0
  82 0046 BB68     		ldr	r3, [r7, #8]
  83 0048 FA68     		ldr	r2, [r7, #12]
  84 004a DA60     		str	r2, [r3, #12]
  60:..\..\..\lvgl\version_6.1.2\lvgl\src\lv_misc/lv_async.c ****     lv_task_once(task);
  85              		.loc 1 60 0
  86 004c B868     		ldr	r0, [r7, #8]
  87 004e FFF7FEFF 		bl	lv_task_once
  61:..\..\..\lvgl\version_6.1.2\lvgl\src\lv_misc/lv_async.c ****     return LV_RES_OK;
  88              		.loc 1 61 0
  89 0052 0123     		movs	r3, #1
  90              	.L3:
  62:..\..\..\lvgl\version_6.1.2\lvgl\src\lv_misc/lv_async.c **** }
  91              		.loc 1 62 0
  92 0054 1846     		mov	r0, r3
  93 0056 1037     		adds	r7, r7, #16
  94              		.cfi_def_cfa_offset 8
  95 0058 BD46     		mov	sp, r7
  96              		.cfi_def_cfa_register 13
  97              		@ sp needed
  98 005a 80BD     		pop	{r7, pc}
  99              	.L6:
 100              		.align	2
 101              	.L5:
 102 005c 00000000 		.word	lv_async_task_cb
 103              		.cfi_endproc
 104              	.LFE0:
 105              		.size	lv_async_call, .-lv_async_call
 106              		.section	.text.lv_async_task_cb,"ax",%progbits
 107              		.align	2
 108              		.thumb
 109              		.thumb_func
ARM GAS  C:\Users\tmj32\AppData\Local\Temp\ccLXReEl.s 			page 4


 110              		.type	lv_async_task_cb, %function
 111              	lv_async_task_cb:
 112              	.LFB1:
  63:..\..\..\lvgl\version_6.1.2\lvgl\src\lv_misc/lv_async.c **** 
  64:..\..\..\lvgl\version_6.1.2\lvgl\src\lv_misc/lv_async.c **** /**********************
  65:..\..\..\lvgl\version_6.1.2\lvgl\src\lv_misc/lv_async.c ****  *   STATIC FUNCTIONS
  66:..\..\..\lvgl\version_6.1.2\lvgl\src\lv_misc/lv_async.c ****  **********************/
  67:..\..\..\lvgl\version_6.1.2\lvgl\src\lv_misc/lv_async.c **** 
  68:..\..\..\lvgl\version_6.1.2\lvgl\src\lv_misc/lv_async.c **** static void lv_async_task_cb(lv_task_t *task)
  69:..\..\..\lvgl\version_6.1.2\lvgl\src\lv_misc/lv_async.c **** {
 113              		.loc 1 69 0
 114              		.cfi_startproc
 115              		@ args = 0, pretend = 0, frame = 16
 116              		@ frame_needed = 1, uses_anonymous_args = 0
 117 0000 80B5     		push	{r7, lr}
 118              		.cfi_def_cfa_offset 8
 119              		.cfi_offset 7, -8
 120              		.cfi_offset 14, -4
 121 0002 84B0     		sub	sp, sp, #16
 122              		.cfi_def_cfa_offset 24
 123 0004 00AF     		add	r7, sp, #0
 124              		.cfi_def_cfa_register 7
 125 0006 7860     		str	r0, [r7, #4]
  70:..\..\..\lvgl\version_6.1.2\lvgl\src\lv_misc/lv_async.c ****     lv_async_info_t *info = (lv_async_info_t *)task->user_data;
 126              		.loc 1 70 0
 127 0008 7B68     		ldr	r3, [r7, #4]
 128 000a DB68     		ldr	r3, [r3, #12]
 129 000c FB60     		str	r3, [r7, #12]
  71:..\..\..\lvgl\version_6.1.2\lvgl\src\lv_misc/lv_async.c ****     
  72:..\..\..\lvgl\version_6.1.2\lvgl\src\lv_misc/lv_async.c ****     info->cb(info->user_data);
 130              		.loc 1 72 0
 131 000e FB68     		ldr	r3, [r7, #12]
 132 0010 1B68     		ldr	r3, [r3]
 133 0012 FA68     		ldr	r2, [r7, #12]
 134 0014 5268     		ldr	r2, [r2, #4]
 135 0016 1046     		mov	r0, r2
 136 0018 9847     		blx	r3
  73:..\..\..\lvgl\version_6.1.2\lvgl\src\lv_misc/lv_async.c ****     
  74:..\..\..\lvgl\version_6.1.2\lvgl\src\lv_misc/lv_async.c ****     lv_mem_free(info);
 137              		.loc 1 74 0
 138 001a F868     		ldr	r0, [r7, #12]
 139 001c FFF7FEFF 		bl	lv_mem_free
  75:..\..\..\lvgl\version_6.1.2\lvgl\src\lv_misc/lv_async.c **** }
 140              		.loc 1 75 0
 141 0020 00BF     		nop
 142 0022 1037     		adds	r7, r7, #16
 143              		.cfi_def_cfa_offset 8
 144 0024 BD46     		mov	sp, r7
 145              		.cfi_def_cfa_register 13
 146              		@ sp needed
 147 0026 80BD     		pop	{r7, pc}
 148              		.cfi_endproc
 149              	.LFE1:
 150              		.size	lv_async_task_cb, .-lv_async_task_cb
 151              		.text
 152              	.Letext0:
 153              		.file 2 "c:\\program files (x86)\\cypress\\psoc creator\\4.3\\psoc creator\\import\\gnu\\arm\\5.4.
ARM GAS  C:\Users\tmj32\AppData\Local\Temp\ccLXReEl.s 			page 5


 154              		.file 3 "c:\\program files (x86)\\cypress\\psoc creator\\4.3\\psoc creator\\import\\gnu\\arm\\5.4.
 155              		.file 4 "..\\..\\..\\lvgl\\version_6.1.2\\lvgl\\src\\lv_misc\\lv_types.h"
 156              		.file 5 "..\\..\\..\\lvgl\\version_6.1.2\\lvgl\\src\\lv_misc\\lv_task.h"
 157              		.file 6 "..\\..\\..\\lvgl\\version_6.1.2\\lvgl\\src\\lv_misc\\lv_async.h"