ARM GAS  C:\Users\tmj32\AppData\Local\Temp\ccyJ4BPG.s 			page 1


   1              		.syntax unified
   2              		.cpu cortex-m4
   3              		.eabi_attribute 27, 1
   4              		.fpu fpv4-sp-d16
   5              		.eabi_attribute 20, 1
   6              		.eabi_attribute 21, 1
   7              		.eabi_attribute 23, 3
   8              		.eabi_attribute 24, 1
   9              		.eabi_attribute 25, 1
  10              		.eabi_attribute 26, 1
  11              		.eabi_attribute 30, 6
  12              		.eabi_attribute 34, 1
  13              		.eabi_attribute 18, 4
  14              		.thumb
  15              		.syntax unified
  16              		.file	"lv_btnm.c"
  17              		.text
  18              	.Ltext0:
  19              		.cfi_sections	.debug_frame
  20              		.section	.text.lv_area_copy,"ax",%progbits
  21              		.align	2
  22              		.thumb
  23              		.thumb_func
  24              		.type	lv_area_copy, %function
  25              	lv_area_copy:
  26              	.LFB10:
  27              		.file 1 "..\\..\\..\\lvgl\\version_6.1.2\\lvgl\\src\\lv_objx\\../lv_core/../lv_misc/lv_area.h"
   1:..\..\..\lvgl\version_6.1.2\lvgl\src\lv_objx\../lv_core/../lv_misc/lv_area.h **** /**
   2:..\..\..\lvgl\version_6.1.2\lvgl\src\lv_objx\../lv_core/../lv_misc/lv_area.h ****  * @file lv_area.h
   3:..\..\..\lvgl\version_6.1.2\lvgl\src\lv_objx\../lv_core/../lv_misc/lv_area.h ****  *
   4:..\..\..\lvgl\version_6.1.2\lvgl\src\lv_objx\../lv_core/../lv_misc/lv_area.h ****  */
   5:..\..\..\lvgl\version_6.1.2\lvgl\src\lv_objx\../lv_core/../lv_misc/lv_area.h **** 
   6:..\..\..\lvgl\version_6.1.2\lvgl\src\lv_objx\../lv_core/../lv_misc/lv_area.h **** #ifndef LV_AREA_H
   7:..\..\..\lvgl\version_6.1.2\lvgl\src\lv_objx\../lv_core/../lv_misc/lv_area.h **** #define LV_AREA_H
   8:..\..\..\lvgl\version_6.1.2\lvgl\src\lv_objx\../lv_core/../lv_misc/lv_area.h **** 
   9:..\..\..\lvgl\version_6.1.2\lvgl\src\lv_objx\../lv_core/../lv_misc/lv_area.h **** #ifdef __cplusplus
  10:..\..\..\lvgl\version_6.1.2\lvgl\src\lv_objx\../lv_core/../lv_misc/lv_area.h **** extern "C" {
  11:..\..\..\lvgl\version_6.1.2\lvgl\src\lv_objx\../lv_core/../lv_misc/lv_area.h **** #endif
  12:..\..\..\lvgl\version_6.1.2\lvgl\src\lv_objx\../lv_core/../lv_misc/lv_area.h **** 
  13:..\..\..\lvgl\version_6.1.2\lvgl\src\lv_objx\../lv_core/../lv_misc/lv_area.h **** /*********************
  14:..\..\..\lvgl\version_6.1.2\lvgl\src\lv_objx\../lv_core/../lv_misc/lv_area.h ****  *      INCLUDES
  15:..\..\..\lvgl\version_6.1.2\lvgl\src\lv_objx\../lv_core/../lv_misc/lv_area.h ****  *********************/
  16:..\..\..\lvgl\version_6.1.2\lvgl\src\lv_objx\../lv_core/../lv_misc/lv_area.h **** #include <string.h>
  17:..\..\..\lvgl\version_6.1.2\lvgl\src\lv_objx\../lv_core/../lv_misc/lv_area.h **** #include <stdbool.h>
  18:..\..\..\lvgl\version_6.1.2\lvgl\src\lv_objx\../lv_core/../lv_misc/lv_area.h **** #include <stdint.h>
  19:..\..\..\lvgl\version_6.1.2\lvgl\src\lv_objx\../lv_core/../lv_misc/lv_area.h **** #ifdef LV_CONF_INCLUDE_SIMPLE
  20:..\..\..\lvgl\version_6.1.2\lvgl\src\lv_objx\../lv_core/../lv_misc/lv_area.h **** #include "lv_conf.h"
  21:..\..\..\lvgl\version_6.1.2\lvgl\src\lv_objx\../lv_core/../lv_misc/lv_area.h **** #else
  22:..\..\..\lvgl\version_6.1.2\lvgl\src\lv_objx\../lv_core/../lv_misc/lv_area.h **** #include "../../../lv_conf.h"
  23:..\..\..\lvgl\version_6.1.2\lvgl\src\lv_objx\../lv_core/../lv_misc/lv_area.h **** #endif
  24:..\..\..\lvgl\version_6.1.2\lvgl\src\lv_objx\../lv_core/../lv_misc/lv_area.h **** 
  25:..\..\..\lvgl\version_6.1.2\lvgl\src\lv_objx\../lv_core/../lv_misc/lv_area.h **** /*********************
  26:..\..\..\lvgl\version_6.1.2\lvgl\src\lv_objx\../lv_core/../lv_misc/lv_area.h ****  *      DEFINES
  27:..\..\..\lvgl\version_6.1.2\lvgl\src\lv_objx\../lv_core/../lv_misc/lv_area.h ****  *********************/
  28:..\..\..\lvgl\version_6.1.2\lvgl\src\lv_objx\../lv_core/../lv_misc/lv_area.h **** /*To avoid overflow don't let the max ranges (reduce with 1000) */
  29:..\..\..\lvgl\version_6.1.2\lvgl\src\lv_objx\../lv_core/../lv_misc/lv_area.h **** #define LV_COORD_MAX ((lv_coord_t)((uint32_t)((uint32_t)1 << (8 * sizeof(lv_coord_t) - 1)) - 1000))
  30:..\..\..\lvgl\version_6.1.2\lvgl\src\lv_objx\../lv_core/../lv_misc/lv_area.h **** #define LV_COORD_MIN (-LV_COORD_MAX)
ARM GAS  C:\Users\tmj32\AppData\Local\Temp\ccyJ4BPG.s 			page 2


  31:..\..\..\lvgl\version_6.1.2\lvgl\src\lv_objx\../lv_core/../lv_misc/lv_area.h **** 
  32:..\..\..\lvgl\version_6.1.2\lvgl\src\lv_objx\../lv_core/../lv_misc/lv_area.h **** LV_EXPORT_CONST_INT(LV_COORD_MAX);
  33:..\..\..\lvgl\version_6.1.2\lvgl\src\lv_objx\../lv_core/../lv_misc/lv_area.h **** LV_EXPORT_CONST_INT(LV_COORD_MIN);
  34:..\..\..\lvgl\version_6.1.2\lvgl\src\lv_objx\../lv_core/../lv_misc/lv_area.h **** 
  35:..\..\..\lvgl\version_6.1.2\lvgl\src\lv_objx\../lv_core/../lv_misc/lv_area.h **** /**********************
  36:..\..\..\lvgl\version_6.1.2\lvgl\src\lv_objx\../lv_core/../lv_misc/lv_area.h ****  *      TYPEDEFS
  37:..\..\..\lvgl\version_6.1.2\lvgl\src\lv_objx\../lv_core/../lv_misc/lv_area.h ****  **********************/
  38:..\..\..\lvgl\version_6.1.2\lvgl\src\lv_objx\../lv_core/../lv_misc/lv_area.h **** 
  39:..\..\..\lvgl\version_6.1.2\lvgl\src\lv_objx\../lv_core/../lv_misc/lv_area.h **** /**
  40:..\..\..\lvgl\version_6.1.2\lvgl\src\lv_objx\../lv_core/../lv_misc/lv_area.h ****  * Represents a point on the screen.
  41:..\..\..\lvgl\version_6.1.2\lvgl\src\lv_objx\../lv_core/../lv_misc/lv_area.h ****  */
  42:..\..\..\lvgl\version_6.1.2\lvgl\src\lv_objx\../lv_core/../lv_misc/lv_area.h **** typedef struct
  43:..\..\..\lvgl\version_6.1.2\lvgl\src\lv_objx\../lv_core/../lv_misc/lv_area.h **** {
  44:..\..\..\lvgl\version_6.1.2\lvgl\src\lv_objx\../lv_core/../lv_misc/lv_area.h ****     lv_coord_t x;
  45:..\..\..\lvgl\version_6.1.2\lvgl\src\lv_objx\../lv_core/../lv_misc/lv_area.h ****     lv_coord_t y;
  46:..\..\..\lvgl\version_6.1.2\lvgl\src\lv_objx\../lv_core/../lv_misc/lv_area.h **** } lv_point_t;
  47:..\..\..\lvgl\version_6.1.2\lvgl\src\lv_objx\../lv_core/../lv_misc/lv_area.h **** 
  48:..\..\..\lvgl\version_6.1.2\lvgl\src\lv_objx\../lv_core/../lv_misc/lv_area.h **** /** Represents an area of the screen. */
  49:..\..\..\lvgl\version_6.1.2\lvgl\src\lv_objx\../lv_core/../lv_misc/lv_area.h **** typedef struct
  50:..\..\..\lvgl\version_6.1.2\lvgl\src\lv_objx\../lv_core/../lv_misc/lv_area.h **** {
  51:..\..\..\lvgl\version_6.1.2\lvgl\src\lv_objx\../lv_core/../lv_misc/lv_area.h ****     lv_coord_t x1;
  52:..\..\..\lvgl\version_6.1.2\lvgl\src\lv_objx\../lv_core/../lv_misc/lv_area.h ****     lv_coord_t y1;
  53:..\..\..\lvgl\version_6.1.2\lvgl\src\lv_objx\../lv_core/../lv_misc/lv_area.h ****     lv_coord_t x2;
  54:..\..\..\lvgl\version_6.1.2\lvgl\src\lv_objx\../lv_core/../lv_misc/lv_area.h ****     lv_coord_t y2;
  55:..\..\..\lvgl\version_6.1.2\lvgl\src\lv_objx\../lv_core/../lv_misc/lv_area.h **** } lv_area_t;
  56:..\..\..\lvgl\version_6.1.2\lvgl\src\lv_objx\../lv_core/../lv_misc/lv_area.h **** 
  57:..\..\..\lvgl\version_6.1.2\lvgl\src\lv_objx\../lv_core/../lv_misc/lv_area.h **** /**********************
  58:..\..\..\lvgl\version_6.1.2\lvgl\src\lv_objx\../lv_core/../lv_misc/lv_area.h ****  * GLOBAL PROTOTYPES
  59:..\..\..\lvgl\version_6.1.2\lvgl\src\lv_objx\../lv_core/../lv_misc/lv_area.h ****  **********************/
  60:..\..\..\lvgl\version_6.1.2\lvgl\src\lv_objx\../lv_core/../lv_misc/lv_area.h **** 
  61:..\..\..\lvgl\version_6.1.2\lvgl\src\lv_objx\../lv_core/../lv_misc/lv_area.h **** /**
  62:..\..\..\lvgl\version_6.1.2\lvgl\src\lv_objx\../lv_core/../lv_misc/lv_area.h ****  * Initialize an area
  63:..\..\..\lvgl\version_6.1.2\lvgl\src\lv_objx\../lv_core/../lv_misc/lv_area.h ****  * @param area_p pointer to an area
  64:..\..\..\lvgl\version_6.1.2\lvgl\src\lv_objx\../lv_core/../lv_misc/lv_area.h ****  * @param x1 left coordinate of the area
  65:..\..\..\lvgl\version_6.1.2\lvgl\src\lv_objx\../lv_core/../lv_misc/lv_area.h ****  * @param y1 top coordinate of the area
  66:..\..\..\lvgl\version_6.1.2\lvgl\src\lv_objx\../lv_core/../lv_misc/lv_area.h ****  * @param x2 right coordinate of the area
  67:..\..\..\lvgl\version_6.1.2\lvgl\src\lv_objx\../lv_core/../lv_misc/lv_area.h ****  * @param y2 bottom coordinate of the area
  68:..\..\..\lvgl\version_6.1.2\lvgl\src\lv_objx\../lv_core/../lv_misc/lv_area.h ****  */
  69:..\..\..\lvgl\version_6.1.2\lvgl\src\lv_objx\../lv_core/../lv_misc/lv_area.h **** void lv_area_set(lv_area_t * area_p, lv_coord_t x1, lv_coord_t y1, lv_coord_t x2, lv_coord_t y2);
  70:..\..\..\lvgl\version_6.1.2\lvgl\src\lv_objx\../lv_core/../lv_misc/lv_area.h **** 
  71:..\..\..\lvgl\version_6.1.2\lvgl\src\lv_objx\../lv_core/../lv_misc/lv_area.h **** /**
  72:..\..\..\lvgl\version_6.1.2\lvgl\src\lv_objx\../lv_core/../lv_misc/lv_area.h ****  * Copy an area
  73:..\..\..\lvgl\version_6.1.2\lvgl\src\lv_objx\../lv_core/../lv_misc/lv_area.h ****  * @param dest pointer to the destination area
  74:..\..\..\lvgl\version_6.1.2\lvgl\src\lv_objx\../lv_core/../lv_misc/lv_area.h ****  * @param src pointer to the source area
  75:..\..\..\lvgl\version_6.1.2\lvgl\src\lv_objx\../lv_core/../lv_misc/lv_area.h ****  */
  76:..\..\..\lvgl\version_6.1.2\lvgl\src\lv_objx\../lv_core/../lv_misc/lv_area.h **** inline static void lv_area_copy(lv_area_t * dest, const lv_area_t * src)
  77:..\..\..\lvgl\version_6.1.2\lvgl\src\lv_objx\../lv_core/../lv_misc/lv_area.h **** {
  28              		.loc 1 77 0
  29              		.cfi_startproc
  30              		@ args = 0, pretend = 0, frame = 8
  31              		@ frame_needed = 1, uses_anonymous_args = 0
  32 0000 80B5     		push	{r7, lr}
  33              		.cfi_def_cfa_offset 8
  34              		.cfi_offset 7, -8
  35              		.cfi_offset 14, -4
  36 0002 82B0     		sub	sp, sp, #8
  37              		.cfi_def_cfa_offset 16
ARM GAS  C:\Users\tmj32\AppData\Local\Temp\ccyJ4BPG.s 			page 3


  38 0004 00AF     		add	r7, sp, #0
  39              		.cfi_def_cfa_register 7
  40 0006 7860     		str	r0, [r7, #4]
  41 0008 3960     		str	r1, [r7]
  78:..\..\..\lvgl\version_6.1.2\lvgl\src\lv_objx\../lv_core/../lv_misc/lv_area.h ****     memcpy(dest, src, sizeof(lv_area_t));
  42              		.loc 1 78 0
  43 000a 0822     		movs	r2, #8
  44 000c 3968     		ldr	r1, [r7]
  45 000e 7868     		ldr	r0, [r7, #4]
  46 0010 FFF7FEFF 		bl	memcpy
  79:..\..\..\lvgl\version_6.1.2\lvgl\src\lv_objx\../lv_core/../lv_misc/lv_area.h **** }
  47              		.loc 1 79 0
  48 0014 00BF     		nop
  49 0016 0837     		adds	r7, r7, #8
  50              		.cfi_def_cfa_offset 8
  51 0018 BD46     		mov	sp, r7
  52              		.cfi_def_cfa_register 13
  53              		@ sp needed
  54 001a 80BD     		pop	{r7, pc}
  55              		.cfi_endproc
  56              	.LFE10:
  57              		.size	lv_area_copy, .-lv_area_copy
  58              		.section	.text.lv_area_get_width,"ax",%progbits
  59              		.align	2
  60              		.thumb
  61              		.thumb_func
  62              		.type	lv_area_get_width, %function
  63              	lv_area_get_width:
  64              	.LFB11:
  80:..\..\..\lvgl\version_6.1.2\lvgl\src\lv_objx\../lv_core/../lv_misc/lv_area.h **** 
  81:..\..\..\lvgl\version_6.1.2\lvgl\src\lv_objx\../lv_core/../lv_misc/lv_area.h **** /**
  82:..\..\..\lvgl\version_6.1.2\lvgl\src\lv_objx\../lv_core/../lv_misc/lv_area.h ****  * Get the width of an area
  83:..\..\..\lvgl\version_6.1.2\lvgl\src\lv_objx\../lv_core/../lv_misc/lv_area.h ****  * @param area_p pointer to an area
  84:..\..\..\lvgl\version_6.1.2\lvgl\src\lv_objx\../lv_core/../lv_misc/lv_area.h ****  * @return the width of the area (if x1 == x2 -> width = 1)
  85:..\..\..\lvgl\version_6.1.2\lvgl\src\lv_objx\../lv_core/../lv_misc/lv_area.h ****  */
  86:..\..\..\lvgl\version_6.1.2\lvgl\src\lv_objx\../lv_core/../lv_misc/lv_area.h **** static inline lv_coord_t lv_area_get_width(const lv_area_t * area_p)
  87:..\..\..\lvgl\version_6.1.2\lvgl\src\lv_objx\../lv_core/../lv_misc/lv_area.h **** {
  65              		.loc 1 87 0
  66              		.cfi_startproc
  67              		@ args = 0, pretend = 0, frame = 8
  68              		@ frame_needed = 1, uses_anonymous_args = 0
  69              		@ link register save eliminated.
  70 0000 80B4     		push	{r7}
  71              		.cfi_def_cfa_offset 4
  72              		.cfi_offset 7, -4
  73 0002 83B0     		sub	sp, sp, #12
  74              		.cfi_def_cfa_offset 16
  75 0004 00AF     		add	r7, sp, #0
  76              		.cfi_def_cfa_register 7
  77 0006 7860     		str	r0, [r7, #4]
  88:..\..\..\lvgl\version_6.1.2\lvgl\src\lv_objx\../lv_core/../lv_misc/lv_area.h ****     return (lv_coord_t)(area_p->x2 - area_p->x1 + 1);
  78              		.loc 1 88 0
  79 0008 7B68     		ldr	r3, [r7, #4]
  80 000a B3F90430 		ldrsh	r3, [r3, #4]
  81 000e 9AB2     		uxth	r2, r3
  82 0010 7B68     		ldr	r3, [r7, #4]
  83 0012 B3F90030 		ldrsh	r3, [r3]
ARM GAS  C:\Users\tmj32\AppData\Local\Temp\ccyJ4BPG.s 			page 4


  84 0016 9BB2     		uxth	r3, r3
  85 0018 D31A     		subs	r3, r2, r3
  86 001a 9BB2     		uxth	r3, r3
  87 001c 0133     		adds	r3, r3, #1
  88 001e 9BB2     		uxth	r3, r3
  89 0020 1BB2     		sxth	r3, r3
  89:..\..\..\lvgl\version_6.1.2\lvgl\src\lv_objx\../lv_core/../lv_misc/lv_area.h **** }
  90              		.loc 1 89 0
  91 0022 1846     		mov	r0, r3
  92 0024 0C37     		adds	r7, r7, #12
  93              		.cfi_def_cfa_offset 4
  94 0026 BD46     		mov	sp, r7
  95              		.cfi_def_cfa_register 13
  96              		@ sp needed
  97 0028 5DF8047B 		ldr	r7, [sp], #4
  98              		.cfi_restore 7
  99              		.cfi_def_cfa_offset 0
 100 002c 7047     		bx	lr
 101              		.cfi_endproc
 102              	.LFE11:
 103              		.size	lv_area_get_width, .-lv_area_get_width
 104 002e 00BF     		.section	.text.lv_area_get_height,"ax",%progbits
 105              		.align	2
 106              		.thumb
 107              		.thumb_func
 108              		.type	lv_area_get_height, %function
 109              	lv_area_get_height:
 110              	.LFB12:
  90:..\..\..\lvgl\version_6.1.2\lvgl\src\lv_objx\../lv_core/../lv_misc/lv_area.h **** 
  91:..\..\..\lvgl\version_6.1.2\lvgl\src\lv_objx\../lv_core/../lv_misc/lv_area.h **** /**
  92:..\..\..\lvgl\version_6.1.2\lvgl\src\lv_objx\../lv_core/../lv_misc/lv_area.h ****  * Get the height of an area
  93:..\..\..\lvgl\version_6.1.2\lvgl\src\lv_objx\../lv_core/../lv_misc/lv_area.h ****  * @param area_p pointer to an area
  94:..\..\..\lvgl\version_6.1.2\lvgl\src\lv_objx\../lv_core/../lv_misc/lv_area.h ****  * @return the height of the area (if y1 == y2 -> height = 1)
  95:..\..\..\lvgl\version_6.1.2\lvgl\src\lv_objx\../lv_core/../lv_misc/lv_area.h ****  */
  96:..\..\..\lvgl\version_6.1.2\lvgl\src\lv_objx\../lv_core/../lv_misc/lv_area.h **** static inline lv_coord_t lv_area_get_height(const lv_area_t * area_p)
  97:..\..\..\lvgl\version_6.1.2\lvgl\src\lv_objx\../lv_core/../lv_misc/lv_area.h **** {
 111              		.loc 1 97 0
 112              		.cfi_startproc
 113              		@ args = 0, pretend = 0, frame = 8
 114              		@ frame_needed = 1, uses_anonymous_args = 0
 115              		@ link register save eliminated.
 116 0000 80B4     		push	{r7}
 117              		.cfi_def_cfa_offset 4
 118              		.cfi_offset 7, -4
 119 0002 83B0     		sub	sp, sp, #12
 120              		.cfi_def_cfa_offset 16
 121 0004 00AF     		add	r7, sp, #0
 122              		.cfi_def_cfa_register 7
 123 0006 7860     		str	r0, [r7, #4]
  98:..\..\..\lvgl\version_6.1.2\lvgl\src\lv_objx\../lv_core/../lv_misc/lv_area.h ****     return (lv_coord_t)(area_p->y2 - area_p->y1 + 1);
 124              		.loc 1 98 0
 125 0008 7B68     		ldr	r3, [r7, #4]
 126 000a B3F90630 		ldrsh	r3, [r3, #6]
 127 000e 9AB2     		uxth	r2, r3
 128 0010 7B68     		ldr	r3, [r7, #4]
 129 0012 B3F90230 		ldrsh	r3, [r3, #2]
 130 0016 9BB2     		uxth	r3, r3
ARM GAS  C:\Users\tmj32\AppData\Local\Temp\ccyJ4BPG.s 			page 5


 131 0018 D31A     		subs	r3, r2, r3
 132 001a 9BB2     		uxth	r3, r3
 133 001c 0133     		adds	r3, r3, #1
 134 001e 9BB2     		uxth	r3, r3
 135 0020 1BB2     		sxth	r3, r3
  99:..\..\..\lvgl\version_6.1.2\lvgl\src\lv_objx\../lv_core/../lv_misc/lv_area.h **** }
 136              		.loc 1 99 0
 137 0022 1846     		mov	r0, r3
 138 0024 0C37     		adds	r7, r7, #12
 139              		.cfi_def_cfa_offset 4
 140 0026 BD46     		mov	sp, r7
 141              		.cfi_def_cfa_register 13
 142              		@ sp needed
 143 0028 5DF8047B 		ldr	r7, [sp], #4
 144              		.cfi_restore 7
 145              		.cfi_def_cfa_offset 0
 146 002c 7047     		bx	lr
 147              		.cfi_endproc
 148              	.LFE12:
 149              		.size	lv_area_get_height, .-lv_area_get_height
 150 002e 00BF     		.section	.rodata
 151              		.align	2
 152              	.LC0:
 153 0000 42746E31 		.ascii	"Btn1\000"
 153      00
 154 0005 000000   		.align	2
 155              	.LC1:
 156 0008 42746E32 		.ascii	"Btn2\000"
 156      00
 157 000d 000000   		.align	2
 158              	.LC2:
 159 0010 42746E33 		.ascii	"Btn3\000"
 159      00
 160 0015 000000   		.align	2
 161              	.LC3:
 162 0018 0A00     		.ascii	"\012\000"
 163 001a 0000     		.align	2
 164              	.LC4:
 165 001c 42746E34 		.ascii	"Btn4\000"
 165      00
 166 0021 000000   		.align	2
 167              	.LC5:
 168 0024 42746E35 		.ascii	"Btn5\000"
 168      00
 169 0029 000000   		.align	2
 170              	.LC6:
 171 002c 00       		.ascii	"\000"
 172              		.data
 173              		.align	2
 174              		.type	lv_btnm_def_map, %object
 175              		.size	lv_btnm_def_map, 28
 176              	lv_btnm_def_map:
 177 0000 00000000 		.word	.LC0
 178 0004 08000000 		.word	.LC1
 179 0008 10000000 		.word	.LC2
 180 000c 18000000 		.word	.LC3
 181 0010 1C000000 		.word	.LC4
ARM GAS  C:\Users\tmj32\AppData\Local\Temp\ccyJ4BPG.s 			page 6


 182 0014 24000000 		.word	.LC5
 183 0018 2C000000 		.word	.LC6
 184              		.bss
 185              		.align	2
 186              	ancestor_design_f:
 187 0000 00000000 		.space	4
 188              		.align	2
 189              	ancestor_signal:
 190 0004 00000000 		.space	4
 191              		.section	.text.lv_btnm_create,"ax",%progbits
 192              		.align	2
 193              		.global	lv_btnm_create
 194              		.thumb
 195              		.thumb_func
 196              		.type	lv_btnm_create, %function
 197              	lv_btnm_create:
 198              	.LFB46:
 199              		.file 2 "..\\..\\..\\lvgl\\version_6.1.2\\lvgl\\src\\lv_objx\\lv_btnm.c"
   1:..\..\..\lvgl\version_6.1.2\lvgl\src\lv_objx/lv_btnm.c **** /**
   2:..\..\..\lvgl\version_6.1.2\lvgl\src\lv_objx/lv_btnm.c ****  * @file lv_btnm.c
   3:..\..\..\lvgl\version_6.1.2\lvgl\src\lv_objx/lv_btnm.c ****  *
   4:..\..\..\lvgl\version_6.1.2\lvgl\src\lv_objx/lv_btnm.c ****  */
   5:..\..\..\lvgl\version_6.1.2\lvgl\src\lv_objx/lv_btnm.c **** 
   6:..\..\..\lvgl\version_6.1.2\lvgl\src\lv_objx/lv_btnm.c **** /*********************
   7:..\..\..\lvgl\version_6.1.2\lvgl\src\lv_objx/lv_btnm.c ****  *      INCLUDES
   8:..\..\..\lvgl\version_6.1.2\lvgl\src\lv_objx/lv_btnm.c ****  *********************/
   9:..\..\..\lvgl\version_6.1.2\lvgl\src\lv_objx/lv_btnm.c **** #include "lv_btnm.h"
  10:..\..\..\lvgl\version_6.1.2\lvgl\src\lv_objx/lv_btnm.c **** #if LV_USE_BTNM != 0
  11:..\..\..\lvgl\version_6.1.2\lvgl\src\lv_objx/lv_btnm.c **** 
  12:..\..\..\lvgl\version_6.1.2\lvgl\src\lv_objx/lv_btnm.c **** #include "../lv_core/lv_debug.h"
  13:..\..\..\lvgl\version_6.1.2\lvgl\src\lv_objx/lv_btnm.c **** #include "../lv_core/lv_group.h"
  14:..\..\..\lvgl\version_6.1.2\lvgl\src\lv_objx/lv_btnm.c **** #include "../lv_draw/lv_draw.h"
  15:..\..\..\lvgl\version_6.1.2\lvgl\src\lv_objx/lv_btnm.c **** #include "../lv_core/lv_refr.h"
  16:..\..\..\lvgl\version_6.1.2\lvgl\src\lv_objx/lv_btnm.c **** #include "../lv_themes/lv_theme.h"
  17:..\..\..\lvgl\version_6.1.2\lvgl\src\lv_objx/lv_btnm.c **** #include "../lv_misc/lv_txt.h"
  18:..\..\..\lvgl\version_6.1.2\lvgl\src\lv_objx/lv_btnm.c **** 
  19:..\..\..\lvgl\version_6.1.2\lvgl\src\lv_objx/lv_btnm.c **** /*********************
  20:..\..\..\lvgl\version_6.1.2\lvgl\src\lv_objx/lv_btnm.c ****  *      DEFINES
  21:..\..\..\lvgl\version_6.1.2\lvgl\src\lv_objx/lv_btnm.c ****  *********************/
  22:..\..\..\lvgl\version_6.1.2\lvgl\src\lv_objx/lv_btnm.c **** #define LV_OBJX_NAME "lv_btnm"
  23:..\..\..\lvgl\version_6.1.2\lvgl\src\lv_objx/lv_btnm.c **** 
  24:..\..\..\lvgl\version_6.1.2\lvgl\src\lv_objx/lv_btnm.c **** /**********************
  25:..\..\..\lvgl\version_6.1.2\lvgl\src\lv_objx/lv_btnm.c ****  *      TYPEDEFS
  26:..\..\..\lvgl\version_6.1.2\lvgl\src\lv_objx/lv_btnm.c ****  **********************/
  27:..\..\..\lvgl\version_6.1.2\lvgl\src\lv_objx/lv_btnm.c **** 
  28:..\..\..\lvgl\version_6.1.2\lvgl\src\lv_objx/lv_btnm.c **** /**********************
  29:..\..\..\lvgl\version_6.1.2\lvgl\src\lv_objx/lv_btnm.c ****  *  STATIC PROTOTYPES
  30:..\..\..\lvgl\version_6.1.2\lvgl\src\lv_objx/lv_btnm.c ****  **********************/
  31:..\..\..\lvgl\version_6.1.2\lvgl\src\lv_objx/lv_btnm.c **** static lv_res_t lv_btnm_signal(lv_obj_t * btnm, lv_signal_t sign, void * param);
  32:..\..\..\lvgl\version_6.1.2\lvgl\src\lv_objx/lv_btnm.c **** static bool lv_btnm_design(lv_obj_t * btnm, const lv_area_t * mask, lv_design_mode_t mode);
  33:..\..\..\lvgl\version_6.1.2\lvgl\src\lv_objx/lv_btnm.c **** static uint8_t get_button_width(lv_btnm_ctrl_t ctrl_bits);
  34:..\..\..\lvgl\version_6.1.2\lvgl\src\lv_objx/lv_btnm.c **** static bool button_is_hidden(lv_btnm_ctrl_t ctrl_bits);
  35:..\..\..\lvgl\version_6.1.2\lvgl\src\lv_objx/lv_btnm.c **** static bool button_is_repeat_disabled(lv_btnm_ctrl_t ctrl_bits);
  36:..\..\..\lvgl\version_6.1.2\lvgl\src\lv_objx/lv_btnm.c **** static bool button_is_inactive(lv_btnm_ctrl_t ctrl_bits);
  37:..\..\..\lvgl\version_6.1.2\lvgl\src\lv_objx/lv_btnm.c **** static bool button_is_click_trig(lv_btnm_ctrl_t ctrl_bits);
  38:..\..\..\lvgl\version_6.1.2\lvgl\src\lv_objx/lv_btnm.c **** static bool button_is_tgl_enabled(lv_btnm_ctrl_t ctrl_bits);
  39:..\..\..\lvgl\version_6.1.2\lvgl\src\lv_objx/lv_btnm.c **** static bool button_get_tgl_state(lv_btnm_ctrl_t ctrl_bits);
ARM GAS  C:\Users\tmj32\AppData\Local\Temp\ccyJ4BPG.s 			page 7


  40:..\..\..\lvgl\version_6.1.2\lvgl\src\lv_objx/lv_btnm.c **** static uint16_t get_button_from_point(lv_obj_t * btnm, lv_point_t * p);
  41:..\..\..\lvgl\version_6.1.2\lvgl\src\lv_objx/lv_btnm.c **** static void allocate_btn_areas_and_controls(const lv_obj_t * btnm, const char ** map);
  42:..\..\..\lvgl\version_6.1.2\lvgl\src\lv_objx/lv_btnm.c **** static void invalidate_button_area(const lv_obj_t * btnm, uint16_t btn_idx);
  43:..\..\..\lvgl\version_6.1.2\lvgl\src\lv_objx/lv_btnm.c **** static bool maps_are_identical(const char ** map1, const char ** map2);
  44:..\..\..\lvgl\version_6.1.2\lvgl\src\lv_objx/lv_btnm.c **** static void make_one_button_toggled(lv_obj_t * btnm, uint16_t btn_idx);
  45:..\..\..\lvgl\version_6.1.2\lvgl\src\lv_objx/lv_btnm.c **** 
  46:..\..\..\lvgl\version_6.1.2\lvgl\src\lv_objx/lv_btnm.c **** /**********************
  47:..\..\..\lvgl\version_6.1.2\lvgl\src\lv_objx/lv_btnm.c ****  *  STATIC VARIABLES
  48:..\..\..\lvgl\version_6.1.2\lvgl\src\lv_objx/lv_btnm.c ****  **********************/
  49:..\..\..\lvgl\version_6.1.2\lvgl\src\lv_objx/lv_btnm.c **** static const char * lv_btnm_def_map[] = {"Btn1", "Btn2", "Btn3", "\n", "Btn4", "Btn5", ""};
  50:..\..\..\lvgl\version_6.1.2\lvgl\src\lv_objx/lv_btnm.c **** 
  51:..\..\..\lvgl\version_6.1.2\lvgl\src\lv_objx/lv_btnm.c **** static lv_design_cb_t ancestor_design_f;
  52:..\..\..\lvgl\version_6.1.2\lvgl\src\lv_objx/lv_btnm.c **** static lv_signal_cb_t ancestor_signal;
  53:..\..\..\lvgl\version_6.1.2\lvgl\src\lv_objx/lv_btnm.c **** 
  54:..\..\..\lvgl\version_6.1.2\lvgl\src\lv_objx/lv_btnm.c **** /**********************
  55:..\..\..\lvgl\version_6.1.2\lvgl\src\lv_objx/lv_btnm.c ****  *      MACROS
  56:..\..\..\lvgl\version_6.1.2\lvgl\src\lv_objx/lv_btnm.c ****  **********************/
  57:..\..\..\lvgl\version_6.1.2\lvgl\src\lv_objx/lv_btnm.c **** 
  58:..\..\..\lvgl\version_6.1.2\lvgl\src\lv_objx/lv_btnm.c **** /**********************
  59:..\..\..\lvgl\version_6.1.2\lvgl\src\lv_objx/lv_btnm.c ****  *   GLOBAL FUNCTIONS
  60:..\..\..\lvgl\version_6.1.2\lvgl\src\lv_objx/lv_btnm.c ****  **********************/
  61:..\..\..\lvgl\version_6.1.2\lvgl\src\lv_objx/lv_btnm.c **** 
  62:..\..\..\lvgl\version_6.1.2\lvgl\src\lv_objx/lv_btnm.c **** /**
  63:..\..\..\lvgl\version_6.1.2\lvgl\src\lv_objx/lv_btnm.c ****  * Create a button matrix objects
  64:..\..\..\lvgl\version_6.1.2\lvgl\src\lv_objx/lv_btnm.c ****  * @param par pointer to an object, it will be the parent of the new button matrix
  65:..\..\..\lvgl\version_6.1.2\lvgl\src\lv_objx/lv_btnm.c ****  * @param copy pointer to a button matrix object, if not NULL then the new object will be copied
  66:..\..\..\lvgl\version_6.1.2\lvgl\src\lv_objx/lv_btnm.c ****  * from it
  67:..\..\..\lvgl\version_6.1.2\lvgl\src\lv_objx/lv_btnm.c ****  * @return pointer to the created button matrix
  68:..\..\..\lvgl\version_6.1.2\lvgl\src\lv_objx/lv_btnm.c ****  */
  69:..\..\..\lvgl\version_6.1.2\lvgl\src\lv_objx/lv_btnm.c **** lv_obj_t * lv_btnm_create(lv_obj_t * par, const lv_obj_t * copy)
  70:..\..\..\lvgl\version_6.1.2\lvgl\src\lv_objx/lv_btnm.c **** {
 200              		.loc 2 70 0
 201              		.cfi_startproc
 202              		@ args = 0, pretend = 0, frame = 24
 203              		@ frame_needed = 1, uses_anonymous_args = 0
 204 0000 80B5     		push	{r7, lr}
 205              		.cfi_def_cfa_offset 8
 206              		.cfi_offset 7, -8
 207              		.cfi_offset 14, -4
 208 0002 86B0     		sub	sp, sp, #24
 209              		.cfi_def_cfa_offset 32
 210 0004 00AF     		add	r7, sp, #0
 211              		.cfi_def_cfa_register 7
 212 0006 7860     		str	r0, [r7, #4]
 213 0008 3960     		str	r1, [r7]
  71:..\..\..\lvgl\version_6.1.2\lvgl\src\lv_objx/lv_btnm.c ****     LV_LOG_TRACE("button matrix create started");
  72:..\..\..\lvgl\version_6.1.2\lvgl\src\lv_objx/lv_btnm.c **** 
  73:..\..\..\lvgl\version_6.1.2\lvgl\src\lv_objx/lv_btnm.c ****     /*Create the ancestor object*/
  74:..\..\..\lvgl\version_6.1.2\lvgl\src\lv_objx/lv_btnm.c ****     lv_obj_t * new_btnm = lv_obj_create(par, copy);
 214              		.loc 2 74 0
 215 000a 3968     		ldr	r1, [r7]
 216 000c 7868     		ldr	r0, [r7, #4]
 217 000e FFF7FEFF 		bl	lv_obj_create
 218 0012 7861     		str	r0, [r7, #20]
  75:..\..\..\lvgl\version_6.1.2\lvgl\src\lv_objx/lv_btnm.c ****     LV_ASSERT_MEM(new_btnm);
  76:..\..\..\lvgl\version_6.1.2\lvgl\src\lv_objx/lv_btnm.c ****     if(new_btnm == NULL) return NULL;
 219              		.loc 2 76 0
ARM GAS  C:\Users\tmj32\AppData\Local\Temp\ccyJ4BPG.s 			page 8


 220 0014 7B69     		ldr	r3, [r7, #20]
 221 0016 002B     		cmp	r3, #0
 222 0018 01D1     		bne	.L7
 223              		.loc 2 76 0 is_stmt 0 discriminator 1
 224 001a 0023     		movs	r3, #0
 225 001c B6E0     		b	.L8
 226              	.L7:
  77:..\..\..\lvgl\version_6.1.2\lvgl\src\lv_objx/lv_btnm.c **** 
  78:..\..\..\lvgl\version_6.1.2\lvgl\src\lv_objx/lv_btnm.c ****     if(ancestor_signal == NULL) ancestor_signal = lv_obj_get_signal_cb(new_btnm);
 227              		.loc 2 78 0 is_stmt 1
 228 001e 5D4B     		ldr	r3, .L16
 229 0020 1B68     		ldr	r3, [r3]
 230 0022 002B     		cmp	r3, #0
 231 0024 05D1     		bne	.L9
 232              		.loc 2 78 0 is_stmt 0 discriminator 1
 233 0026 7869     		ldr	r0, [r7, #20]
 234 0028 FFF7FEFF 		bl	lv_obj_get_signal_cb
 235 002c 0246     		mov	r2, r0
 236 002e 594B     		ldr	r3, .L16
 237 0030 1A60     		str	r2, [r3]
 238              	.L9:
  79:..\..\..\lvgl\version_6.1.2\lvgl\src\lv_objx/lv_btnm.c **** 
  80:..\..\..\lvgl\version_6.1.2\lvgl\src\lv_objx/lv_btnm.c ****     /*Allocate the object type specific extended data*/
  81:..\..\..\lvgl\version_6.1.2\lvgl\src\lv_objx/lv_btnm.c ****     lv_btnm_ext_t * ext = lv_obj_allocate_ext_attr(new_btnm, sizeof(lv_btnm_ext_t));
 239              		.loc 2 81 0 is_stmt 1
 240 0032 2821     		movs	r1, #40
 241 0034 7869     		ldr	r0, [r7, #20]
 242 0036 FFF7FEFF 		bl	lv_obj_allocate_ext_attr
 243 003a 3861     		str	r0, [r7, #16]
  82:..\..\..\lvgl\version_6.1.2\lvgl\src\lv_objx/lv_btnm.c ****     LV_ASSERT_MEM(ext);
  83:..\..\..\lvgl\version_6.1.2\lvgl\src\lv_objx/lv_btnm.c ****     if(ext == NULL) return NULL;
 244              		.loc 2 83 0
 245 003c 3B69     		ldr	r3, [r7, #16]
 246 003e 002B     		cmp	r3, #0
 247 0040 01D1     		bne	.L10
 248              		.loc 2 83 0 is_stmt 0 discriminator 1
 249 0042 0023     		movs	r3, #0
 250 0044 A2E0     		b	.L8
 251              	.L10:
  84:..\..\..\lvgl\version_6.1.2\lvgl\src\lv_objx/lv_btnm.c **** 
  85:..\..\..\lvgl\version_6.1.2\lvgl\src\lv_objx/lv_btnm.c ****     ext->btn_cnt                          = 0;
 252              		.loc 2 85 0 is_stmt 1
 253 0046 3B69     		ldr	r3, [r7, #16]
 254 0048 0022     		movs	r2, #0
 255 004a 1A84     		strh	r2, [r3, #32]	@ movhi
  86:..\..\..\lvgl\version_6.1.2\lvgl\src\lv_objx/lv_btnm.c ****     ext->btn_id_pr                        = LV_BTNM_BTN_NONE;
 256              		.loc 2 86 0
 257 004c 3B69     		ldr	r3, [r7, #16]
 258 004e 4FF6FF72 		movw	r2, #65535
 259 0052 5A84     		strh	r2, [r3, #34]	@ movhi
  87:..\..\..\lvgl\version_6.1.2\lvgl\src\lv_objx/lv_btnm.c ****     ext->btn_id_act                       = LV_BTNM_BTN_NONE;
 260              		.loc 2 87 0
 261 0054 3B69     		ldr	r3, [r7, #16]
 262 0056 4FF6FF72 		movw	r2, #65535
 263 005a 9A84     		strh	r2, [r3, #36]	@ movhi
  88:..\..\..\lvgl\version_6.1.2\lvgl\src\lv_objx/lv_btnm.c ****     ext->button_areas                     = NULL;
 264              		.loc 2 88 0
ARM GAS  C:\Users\tmj32\AppData\Local\Temp\ccyJ4BPG.s 			page 9


 265 005c 3B69     		ldr	r3, [r7, #16]
 266 005e 0022     		movs	r2, #0
 267 0060 5A60     		str	r2, [r3, #4]
  89:..\..\..\lvgl\version_6.1.2\lvgl\src\lv_objx/lv_btnm.c ****     ext->ctrl_bits                        = NULL;
 268              		.loc 2 89 0
 269 0062 3B69     		ldr	r3, [r7, #16]
 270 0064 0022     		movs	r2, #0
 271 0066 9A60     		str	r2, [r3, #8]
  90:..\..\..\lvgl\version_6.1.2\lvgl\src\lv_objx/lv_btnm.c ****     ext->map_p                            = NULL;
 272              		.loc 2 90 0
 273 0068 3B69     		ldr	r3, [r7, #16]
 274 006a 0022     		movs	r2, #0
 275 006c 1A60     		str	r2, [r3]
  91:..\..\..\lvgl\version_6.1.2\lvgl\src\lv_objx/lv_btnm.c ****     ext->recolor                          = 0;
 276              		.loc 2 91 0
 277 006e 3A69     		ldr	r2, [r7, #16]
 278 0070 92F82630 		ldrb	r3, [r2, #38]
 279 0074 6FF30003 		bfc	r3, #0, #1
 280 0078 82F82630 		strb	r3, [r2, #38]
  92:..\..\..\lvgl\version_6.1.2\lvgl\src\lv_objx/lv_btnm.c ****     ext->one_toggle                       = 0;
 281              		.loc 2 92 0
 282 007c 3A69     		ldr	r2, [r7, #16]
 283 007e 92F82630 		ldrb	r3, [r2, #38]
 284 0082 6FF34103 		bfc	r3, #1, #1
 285 0086 82F82630 		strb	r3, [r2, #38]
  93:..\..\..\lvgl\version_6.1.2\lvgl\src\lv_objx/lv_btnm.c ****     ext->styles_btn[LV_BTN_STATE_REL]     = &lv_style_btn_rel;
 286              		.loc 2 93 0
 287 008a 3B69     		ldr	r3, [r7, #16]
 288 008c 424A     		ldr	r2, .L16+4
 289 008e DA60     		str	r2, [r3, #12]
  94:..\..\..\lvgl\version_6.1.2\lvgl\src\lv_objx/lv_btnm.c ****     ext->styles_btn[LV_BTN_STATE_PR]      = &lv_style_btn_pr;
 290              		.loc 2 94 0
 291 0090 3B69     		ldr	r3, [r7, #16]
 292 0092 424A     		ldr	r2, .L16+8
 293 0094 1A61     		str	r2, [r3, #16]
  95:..\..\..\lvgl\version_6.1.2\lvgl\src\lv_objx/lv_btnm.c ****     ext->styles_btn[LV_BTN_STATE_TGL_REL] = &lv_style_btn_tgl_rel;
 294              		.loc 2 95 0
 295 0096 3B69     		ldr	r3, [r7, #16]
 296 0098 414A     		ldr	r2, .L16+12
 297 009a 5A61     		str	r2, [r3, #20]
  96:..\..\..\lvgl\version_6.1.2\lvgl\src\lv_objx/lv_btnm.c ****     ext->styles_btn[LV_BTN_STATE_TGL_PR]  = &lv_style_btn_tgl_pr;
 298              		.loc 2 96 0
 299 009c 3B69     		ldr	r3, [r7, #16]
 300 009e 414A     		ldr	r2, .L16+16
 301 00a0 9A61     		str	r2, [r3, #24]
  97:..\..\..\lvgl\version_6.1.2\lvgl\src\lv_objx/lv_btnm.c ****     ext->styles_btn[LV_BTN_STATE_INA]     = &lv_style_btn_ina;
 302              		.loc 2 97 0
 303 00a2 3B69     		ldr	r3, [r7, #16]
 304 00a4 404A     		ldr	r2, .L16+20
 305 00a6 DA61     		str	r2, [r3, #28]
  98:..\..\..\lvgl\version_6.1.2\lvgl\src\lv_objx/lv_btnm.c **** 
  99:..\..\..\lvgl\version_6.1.2\lvgl\src\lv_objx/lv_btnm.c ****     if(ancestor_design_f == NULL) ancestor_design_f = lv_obj_get_design_cb(new_btnm);
 306              		.loc 2 99 0
 307 00a8 404B     		ldr	r3, .L16+24
 308 00aa 1B68     		ldr	r3, [r3]
 309 00ac 002B     		cmp	r3, #0
 310 00ae 05D1     		bne	.L11
ARM GAS  C:\Users\tmj32\AppData\Local\Temp\ccyJ4BPG.s 			page 10


 311              		.loc 2 99 0 is_stmt 0 discriminator 1
 312 00b0 7869     		ldr	r0, [r7, #20]
 313 00b2 FFF7FEFF 		bl	lv_obj_get_design_cb
 314 00b6 0246     		mov	r2, r0
 315 00b8 3C4B     		ldr	r3, .L16+24
 316 00ba 1A60     		str	r2, [r3]
 317              	.L11:
 100:..\..\..\lvgl\version_6.1.2\lvgl\src\lv_objx/lv_btnm.c **** 
 101:..\..\..\lvgl\version_6.1.2\lvgl\src\lv_objx/lv_btnm.c ****     lv_obj_set_signal_cb(new_btnm, lv_btnm_signal);
 318              		.loc 2 101 0 is_stmt 1
 319 00bc 3C49     		ldr	r1, .L16+28
 320 00be 7869     		ldr	r0, [r7, #20]
 321 00c0 FFF7FEFF 		bl	lv_obj_set_signal_cb
 102:..\..\..\lvgl\version_6.1.2\lvgl\src\lv_objx/lv_btnm.c ****     lv_obj_set_design_cb(new_btnm, lv_btnm_design);
 322              		.loc 2 102 0
 323 00c4 3B49     		ldr	r1, .L16+32
 324 00c6 7869     		ldr	r0, [r7, #20]
 325 00c8 FFF7FEFF 		bl	lv_obj_set_design_cb
 103:..\..\..\lvgl\version_6.1.2\lvgl\src\lv_objx/lv_btnm.c **** 
 104:..\..\..\lvgl\version_6.1.2\lvgl\src\lv_objx/lv_btnm.c ****     /*Init the new button matrix object*/
 105:..\..\..\lvgl\version_6.1.2\lvgl\src\lv_objx/lv_btnm.c ****     if(copy == NULL) {
 326              		.loc 2 105 0
 327 00cc 3B68     		ldr	r3, [r7]
 328 00ce 002B     		cmp	r3, #0
 329 00d0 46D1     		bne	.L12
 330              	.LBB2:
 106:..\..\..\lvgl\version_6.1.2\lvgl\src\lv_objx/lv_btnm.c ****         lv_btnm_set_map(new_btnm, lv_btnm_def_map);
 331              		.loc 2 106 0
 332 00d2 3949     		ldr	r1, .L16+36
 333 00d4 7869     		ldr	r0, [r7, #20]
 334 00d6 FFF7FEFF 		bl	lv_btnm_set_map
 107:..\..\..\lvgl\version_6.1.2\lvgl\src\lv_objx/lv_btnm.c ****         lv_obj_set_size(new_btnm, LV_DPI * 3, LV_DPI * 2);
 335              		.loc 2 107 0
 336 00da 4FF49672 		mov	r2, #300
 337 00de 4FF4E171 		mov	r1, #450
 338 00e2 7869     		ldr	r0, [r7, #20]
 339 00e4 FFF7FEFF 		bl	lv_obj_set_size
 108:..\..\..\lvgl\version_6.1.2\lvgl\src\lv_objx/lv_btnm.c **** 
 109:..\..\..\lvgl\version_6.1.2\lvgl\src\lv_objx/lv_btnm.c ****         /*Set the default styles*/
 110:..\..\..\lvgl\version_6.1.2\lvgl\src\lv_objx/lv_btnm.c ****         lv_theme_t * th = lv_theme_get_current();
 340              		.loc 2 110 0
 341 00e8 FFF7FEFF 		bl	lv_theme_get_current
 342 00ec F860     		str	r0, [r7, #12]
 111:..\..\..\lvgl\version_6.1.2\lvgl\src\lv_objx/lv_btnm.c ****         if(th) {
 343              		.loc 2 111 0
 344 00ee FB68     		ldr	r3, [r7, #12]
 345 00f0 002B     		cmp	r3, #0
 346 00f2 30D0     		beq	.L13
 112:..\..\..\lvgl\version_6.1.2\lvgl\src\lv_objx/lv_btnm.c ****             lv_btnm_set_style(new_btnm, LV_BTNM_STYLE_BG, th->style.btnm.bg);
 347              		.loc 2 112 0
 348 00f4 FB68     		ldr	r3, [r7, #12]
 349 00f6 D3F8C430 		ldr	r3, [r3, #196]
 350 00fa 1A46     		mov	r2, r3
 351 00fc 0021     		movs	r1, #0
 352 00fe 7869     		ldr	r0, [r7, #20]
 353 0100 FFF7FEFF 		bl	lv_btnm_set_style
 113:..\..\..\lvgl\version_6.1.2\lvgl\src\lv_objx/lv_btnm.c ****             lv_btnm_set_style(new_btnm, LV_BTNM_STYLE_BTN_REL, th->style.btnm.btn.rel);
ARM GAS  C:\Users\tmj32\AppData\Local\Temp\ccyJ4BPG.s 			page 11


 354              		.loc 2 113 0
 355 0104 FB68     		ldr	r3, [r7, #12]
 356 0106 D3F8C830 		ldr	r3, [r3, #200]
 357 010a 1A46     		mov	r2, r3
 358 010c 0121     		movs	r1, #1
 359 010e 7869     		ldr	r0, [r7, #20]
 360 0110 FFF7FEFF 		bl	lv_btnm_set_style
 114:..\..\..\lvgl\version_6.1.2\lvgl\src\lv_objx/lv_btnm.c ****             lv_btnm_set_style(new_btnm, LV_BTNM_STYLE_BTN_PR, th->style.btnm.btn.pr);
 361              		.loc 2 114 0
 362 0114 FB68     		ldr	r3, [r7, #12]
 363 0116 D3F8CC30 		ldr	r3, [r3, #204]
 364 011a 1A46     		mov	r2, r3
 365 011c 0221     		movs	r1, #2
 366 011e 7869     		ldr	r0, [r7, #20]
 367 0120 FFF7FEFF 		bl	lv_btnm_set_style
 115:..\..\..\lvgl\version_6.1.2\lvgl\src\lv_objx/lv_btnm.c ****             lv_btnm_set_style(new_btnm, LV_BTNM_STYLE_BTN_TGL_REL, th->style.btnm.btn.tgl_rel);
 368              		.loc 2 115 0
 369 0124 FB68     		ldr	r3, [r7, #12]
 370 0126 D3F8D030 		ldr	r3, [r3, #208]
 371 012a 1A46     		mov	r2, r3
 372 012c 0321     		movs	r1, #3
 373 012e 7869     		ldr	r0, [r7, #20]
 374 0130 FFF7FEFF 		bl	lv_btnm_set_style
 116:..\..\..\lvgl\version_6.1.2\lvgl\src\lv_objx/lv_btnm.c ****             lv_btnm_set_style(new_btnm, LV_BTNM_STYLE_BTN_TGL_PR, th->style.btnm.btn.tgl_pr);
 375              		.loc 2 116 0
 376 0134 FB68     		ldr	r3, [r7, #12]
 377 0136 D3F8D430 		ldr	r3, [r3, #212]
 378 013a 1A46     		mov	r2, r3
 379 013c 0421     		movs	r1, #4
 380 013e 7869     		ldr	r0, [r7, #20]
 381 0140 FFF7FEFF 		bl	lv_btnm_set_style
 117:..\..\..\lvgl\version_6.1.2\lvgl\src\lv_objx/lv_btnm.c ****             lv_btnm_set_style(new_btnm, LV_BTNM_STYLE_BTN_INA, th->style.btnm.btn.ina);
 382              		.loc 2 117 0
 383 0144 FB68     		ldr	r3, [r7, #12]
 384 0146 D3F8D830 		ldr	r3, [r3, #216]
 385 014a 1A46     		mov	r2, r3
 386 014c 0521     		movs	r1, #5
 387 014e 7869     		ldr	r0, [r7, #20]
 388 0150 FFF7FEFF 		bl	lv_btnm_set_style
 389 0154 19E0     		b	.L15
 390              	.L13:
 118:..\..\..\lvgl\version_6.1.2\lvgl\src\lv_objx/lv_btnm.c ****         } else {
 119:..\..\..\lvgl\version_6.1.2\lvgl\src\lv_objx/lv_btnm.c ****             lv_obj_set_style(new_btnm, &lv_style_pretty);
 391              		.loc 2 119 0
 392 0156 1949     		ldr	r1, .L16+40
 393 0158 7869     		ldr	r0, [r7, #20]
 394 015a FFF7FEFF 		bl	lv_obj_set_style
 395 015e 14E0     		b	.L15
 396              	.L12:
 397              	.LBE2:
 398              	.LBB3:
 120:..\..\..\lvgl\version_6.1.2\lvgl\src\lv_objx/lv_btnm.c ****         }
 121:..\..\..\lvgl\version_6.1.2\lvgl\src\lv_objx/lv_btnm.c ****     }
 122:..\..\..\lvgl\version_6.1.2\lvgl\src\lv_objx/lv_btnm.c ****     /*Copy an existing object*/
 123:..\..\..\lvgl\version_6.1.2\lvgl\src\lv_objx/lv_btnm.c ****     else {
 124:..\..\..\lvgl\version_6.1.2\lvgl\src\lv_objx/lv_btnm.c ****         lv_btnm_ext_t * copy_ext = lv_obj_get_ext_attr(copy);
 399              		.loc 2 124 0
ARM GAS  C:\Users\tmj32\AppData\Local\Temp\ccyJ4BPG.s 			page 12


 400 0160 3868     		ldr	r0, [r7]
 401 0162 FFF7FEFF 		bl	lv_obj_get_ext_attr
 402 0166 B860     		str	r0, [r7, #8]
 125:..\..\..\lvgl\version_6.1.2\lvgl\src\lv_objx/lv_btnm.c ****         memcpy((void*)ext->styles_btn, copy_ext->styles_btn, sizeof(ext->styles_btn));
 403              		.loc 2 125 0
 404 0168 3B69     		ldr	r3, [r7, #16]
 405 016a 03F10C00 		add	r0, r3, #12
 406 016e BB68     		ldr	r3, [r7, #8]
 407 0170 0C33     		adds	r3, r3, #12
 408 0172 1422     		movs	r2, #20
 409 0174 1946     		mov	r1, r3
 410 0176 FFF7FEFF 		bl	memcpy
 126:..\..\..\lvgl\version_6.1.2\lvgl\src\lv_objx/lv_btnm.c ****         lv_btnm_set_map(new_btnm, lv_btnm_get_map_array(copy));
 411              		.loc 2 126 0
 412 017a 3868     		ldr	r0, [r7]
 413 017c FFF7FEFF 		bl	lv_btnm_get_map_array
 414 0180 0346     		mov	r3, r0
 415 0182 1946     		mov	r1, r3
 416 0184 7869     		ldr	r0, [r7, #20]
 417 0186 FFF7FEFF 		bl	lv_btnm_set_map
 418              	.L15:
 419              	.LBE3:
 127:..\..\..\lvgl\version_6.1.2\lvgl\src\lv_objx/lv_btnm.c ****     }
 128:..\..\..\lvgl\version_6.1.2\lvgl\src\lv_objx/lv_btnm.c **** 
 129:..\..\..\lvgl\version_6.1.2\lvgl\src\lv_objx/lv_btnm.c ****     LV_LOG_INFO("button matrix created");
 130:..\..\..\lvgl\version_6.1.2\lvgl\src\lv_objx/lv_btnm.c **** 
 131:..\..\..\lvgl\version_6.1.2\lvgl\src\lv_objx/lv_btnm.c ****     return new_btnm;
 420              		.loc 2 131 0
 421 018a 7B69     		ldr	r3, [r7, #20]
 422              	.L8:
 132:..\..\..\lvgl\version_6.1.2\lvgl\src\lv_objx/lv_btnm.c **** }
 423              		.loc 2 132 0
 424 018c 1846     		mov	r0, r3
 425 018e 1837     		adds	r7, r7, #24
 426              		.cfi_def_cfa_offset 8
 427 0190 BD46     		mov	sp, r7
 428              		.cfi_def_cfa_register 13
 429              		@ sp needed
 430 0192 80BD     		pop	{r7, pc}
 431              	.L17:
 432              		.align	2
 433              	.L16:
 434 0194 04000000 		.word	ancestor_signal
 435 0198 00000000 		.word	lv_style_btn_rel
 436 019c 00000000 		.word	lv_style_btn_pr
 437 01a0 00000000 		.word	lv_style_btn_tgl_rel
 438 01a4 00000000 		.word	lv_style_btn_tgl_pr
 439 01a8 00000000 		.word	lv_style_btn_ina
 440 01ac 00000000 		.word	ancestor_design_f
 441 01b0 00000000 		.word	lv_btnm_signal
 442 01b4 00000000 		.word	lv_btnm_design
 443 01b8 00000000 		.word	lv_btnm_def_map
 444 01bc 00000000 		.word	lv_style_pretty
 445              		.cfi_endproc
 446              	.LFE46:
 447              		.size	lv_btnm_create, .-lv_btnm_create
 448              		.section	.text.lv_btnm_set_map,"ax",%progbits
ARM GAS  C:\Users\tmj32\AppData\Local\Temp\ccyJ4BPG.s 			page 13


 449              		.align	2
 450              		.global	lv_btnm_set_map
 451              		.thumb
 452              		.thumb_func
 453              		.type	lv_btnm_set_map, %function
 454              	lv_btnm_set_map:
 455              	.LFB47:
 133:..\..\..\lvgl\version_6.1.2\lvgl\src\lv_objx/lv_btnm.c **** 
 134:..\..\..\lvgl\version_6.1.2\lvgl\src\lv_objx/lv_btnm.c **** /*=====================
 135:..\..\..\lvgl\version_6.1.2\lvgl\src\lv_objx/lv_btnm.c ****  * Setter functions
 136:..\..\..\lvgl\version_6.1.2\lvgl\src\lv_objx/lv_btnm.c ****  *====================*/
 137:..\..\..\lvgl\version_6.1.2\lvgl\src\lv_objx/lv_btnm.c **** 
 138:..\..\..\lvgl\version_6.1.2\lvgl\src\lv_objx/lv_btnm.c **** /**
 139:..\..\..\lvgl\version_6.1.2\lvgl\src\lv_objx/lv_btnm.c ****  * Set a new map. Buttons will be created/deleted according to the map. The
 140:..\..\..\lvgl\version_6.1.2\lvgl\src\lv_objx/lv_btnm.c ****  * button matrix keeps a reference to the map and so the string array must not
 141:..\..\..\lvgl\version_6.1.2\lvgl\src\lv_objx/lv_btnm.c ****  * be deallocated during the life of the matrix.
 142:..\..\..\lvgl\version_6.1.2\lvgl\src\lv_objx/lv_btnm.c ****  * @param btnm pointer to a button matrix object
 143:..\..\..\lvgl\version_6.1.2\lvgl\src\lv_objx/lv_btnm.c ****  * @param map pointer a string array. The last string has to be: "". Use "\n" to make a line break.
 144:..\..\..\lvgl\version_6.1.2\lvgl\src\lv_objx/lv_btnm.c ****  */
 145:..\..\..\lvgl\version_6.1.2\lvgl\src\lv_objx/lv_btnm.c **** void lv_btnm_set_map(const lv_obj_t * btnm, const char * map[])
 146:..\..\..\lvgl\version_6.1.2\lvgl\src\lv_objx/lv_btnm.c **** {
 456              		.loc 2 146 0
 457              		.cfi_startproc
 458              		@ args = 0, pretend = 0, frame = 56
 459              		@ frame_needed = 1, uses_anonymous_args = 0
 460 0000 90B5     		push	{r4, r7, lr}
 461              		.cfi_def_cfa_offset 12
 462              		.cfi_offset 4, -12
 463              		.cfi_offset 7, -8
 464              		.cfi_offset 14, -4
 465 0002 91B0     		sub	sp, sp, #68
 466              		.cfi_def_cfa_offset 80
 467 0004 02AF     		add	r7, sp, #8
 468              		.cfi_def_cfa 7, 72
 469 0006 7860     		str	r0, [r7, #4]
 470 0008 3960     		str	r1, [r7]
 147:..\..\..\lvgl\version_6.1.2\lvgl\src\lv_objx/lv_btnm.c ****     LV_ASSERT_OBJ(btnm, LV_OBJX_NAME);
 148:..\..\..\lvgl\version_6.1.2\lvgl\src\lv_objx/lv_btnm.c ****     LV_ASSERT_NULL(map);
 149:..\..\..\lvgl\version_6.1.2\lvgl\src\lv_objx/lv_btnm.c **** 
 150:..\..\..\lvgl\version_6.1.2\lvgl\src\lv_objx/lv_btnm.c ****     /*
 151:..\..\..\lvgl\version_6.1.2\lvgl\src\lv_objx/lv_btnm.c ****      * lv_btnm_set_map is called on receipt of signals such as
 152:..\..\..\lvgl\version_6.1.2\lvgl\src\lv_objx/lv_btnm.c ****      * LV_SIGNAL_CORD_CHG regardless of whether the map has changed (e.g.
 153:..\..\..\lvgl\version_6.1.2\lvgl\src\lv_objx/lv_btnm.c ****      * calling lv_obj_align on the map will trigger this).
 154:..\..\..\lvgl\version_6.1.2\lvgl\src\lv_objx/lv_btnm.c ****      *
 155:..\..\..\lvgl\version_6.1.2\lvgl\src\lv_objx/lv_btnm.c ****      * We check if the map has changed here to avoid overwriting changes made
 156:..\..\..\lvgl\version_6.1.2\lvgl\src\lv_objx/lv_btnm.c ****      * to hidden/longpress/disabled states after the map was originally set.
 157:..\..\..\lvgl\version_6.1.2\lvgl\src\lv_objx/lv_btnm.c ****      *
 158:..\..\..\lvgl\version_6.1.2\lvgl\src\lv_objx/lv_btnm.c ****      * TODO: separate all map set/allocation from layout code below and skip
 159:..\..\..\lvgl\version_6.1.2\lvgl\src\lv_objx/lv_btnm.c ****      * set/allocation when map hasn't changed.
 160:..\..\..\lvgl\version_6.1.2\lvgl\src\lv_objx/lv_btnm.c ****      */
 161:..\..\..\lvgl\version_6.1.2\lvgl\src\lv_objx/lv_btnm.c ****     lv_btnm_ext_t * ext = lv_obj_get_ext_attr(btnm);
 471              		.loc 2 161 0
 472 000a 7868     		ldr	r0, [r7, #4]
 473 000c FFF7FEFF 		bl	lv_obj_get_ext_attr
 474 0010 F861     		str	r0, [r7, #28]
 162:..\..\..\lvgl\version_6.1.2\lvgl\src\lv_objx/lv_btnm.c ****     if(!maps_are_identical(ext->map_p, map)) {
 475              		.loc 2 162 0
ARM GAS  C:\Users\tmj32\AppData\Local\Temp\ccyJ4BPG.s 			page 14


 476 0012 FB69     		ldr	r3, [r7, #28]
 477 0014 1B68     		ldr	r3, [r3]
 478 0016 3968     		ldr	r1, [r7]
 479 0018 1846     		mov	r0, r3
 480 001a FFF7FEFF 		bl	maps_are_identical
 481 001e 0346     		mov	r3, r0
 482 0020 83F00103 		eor	r3, r3, #1
 483 0024 DBB2     		uxtb	r3, r3
 484 0026 002B     		cmp	r3, #0
 485 0028 03D0     		beq	.L19
 163:..\..\..\lvgl\version_6.1.2\lvgl\src\lv_objx/lv_btnm.c **** 
 164:..\..\..\lvgl\version_6.1.2\lvgl\src\lv_objx/lv_btnm.c ****         /*Analyze the map and create the required number of buttons*/
 165:..\..\..\lvgl\version_6.1.2\lvgl\src\lv_objx/lv_btnm.c ****         allocate_btn_areas_and_controls(btnm, map);
 486              		.loc 2 165 0
 487 002a 3968     		ldr	r1, [r7]
 488 002c 7868     		ldr	r0, [r7, #4]
 489 002e FFF7FEFF 		bl	allocate_btn_areas_and_controls
 490              	.L19:
 166:..\..\..\lvgl\version_6.1.2\lvgl\src\lv_objx/lv_btnm.c ****     }
 167:..\..\..\lvgl\version_6.1.2\lvgl\src\lv_objx/lv_btnm.c ****     ext->map_p = map;
 491              		.loc 2 167 0
 492 0032 FB69     		ldr	r3, [r7, #28]
 493 0034 3A68     		ldr	r2, [r7]
 494 0036 1A60     		str	r2, [r3]
 168:..\..\..\lvgl\version_6.1.2\lvgl\src\lv_objx/lv_btnm.c **** 
 169:..\..\..\lvgl\version_6.1.2\lvgl\src\lv_objx/lv_btnm.c ****     /*Set size and positions of the buttons*/
 170:..\..\..\lvgl\version_6.1.2\lvgl\src\lv_objx/lv_btnm.c ****     const lv_style_t * style_bg = lv_btnm_get_style(btnm, LV_BTNM_STYLE_BG);
 495              		.loc 2 170 0
 496 0038 0021     		movs	r1, #0
 497 003a 7868     		ldr	r0, [r7, #4]
 498 003c FFF7FEFF 		bl	lv_btnm_get_style
 499 0040 B861     		str	r0, [r7, #24]
 171:..\..\..\lvgl\version_6.1.2\lvgl\src\lv_objx/lv_btnm.c ****     lv_coord_t max_w            = lv_obj_get_width(btnm) - style_bg->body.padding.left - style_bg->
 500              		.loc 2 171 0
 501 0042 7868     		ldr	r0, [r7, #4]
 502 0044 FFF7FEFF 		bl	lv_obj_get_width
 503 0048 0346     		mov	r3, r0
 504 004a 9AB2     		uxth	r2, r3
 505 004c BB69     		ldr	r3, [r7, #24]
 506 004e B3F92430 		ldrsh	r3, [r3, #36]
 507 0052 9BB2     		uxth	r3, r3
 508 0054 D31A     		subs	r3, r2, r3
 509 0056 9AB2     		uxth	r2, r3
 510 0058 BB69     		ldr	r3, [r7, #24]
 511 005a B3F92630 		ldrsh	r3, [r3, #38]
 512 005e 9BB2     		uxth	r3, r3
 513 0060 D31A     		subs	r3, r2, r3
 514 0062 9BB2     		uxth	r3, r3
 515 0064 FB82     		strh	r3, [r7, #22]	@ movhi
 172:..\..\..\lvgl\version_6.1.2\lvgl\src\lv_objx/lv_btnm.c ****     lv_coord_t max_h            = lv_obj_get_height(btnm) - style_bg->body.padding.top - style_bg->
 516              		.loc 2 172 0
 517 0066 7868     		ldr	r0, [r7, #4]
 518 0068 FFF7FEFF 		bl	lv_obj_get_height
 519 006c 0346     		mov	r3, r0
 520 006e 9AB2     		uxth	r2, r3
 521 0070 BB69     		ldr	r3, [r7, #24]
 522 0072 B3F92030 		ldrsh	r3, [r3, #32]
ARM GAS  C:\Users\tmj32\AppData\Local\Temp\ccyJ4BPG.s 			page 15


 523 0076 9BB2     		uxth	r3, r3
 524 0078 D31A     		subs	r3, r2, r3
 525 007a 9AB2     		uxth	r2, r3
 526 007c BB69     		ldr	r3, [r7, #24]
 527 007e B3F92230 		ldrsh	r3, [r3, #34]
 528 0082 9BB2     		uxth	r3, r3
 529 0084 D31A     		subs	r3, r2, r3
 530 0086 9BB2     		uxth	r3, r3
 531 0088 BB82     		strh	r3, [r7, #20]	@ movhi
 173:..\..\..\lvgl\version_6.1.2\lvgl\src\lv_objx/lv_btnm.c ****     lv_coord_t act_y            = style_bg->body.padding.top;
 532              		.loc 2 173 0
 533 008a BB69     		ldr	r3, [r7, #24]
 534 008c 1B8C     		ldrh	r3, [r3, #32]	@ movhi
 535 008e FB86     		strh	r3, [r7, #54]	@ movhi
 174:..\..\..\lvgl\version_6.1.2\lvgl\src\lv_objx/lv_btnm.c **** 
 175:..\..\..\lvgl\version_6.1.2\lvgl\src\lv_objx/lv_btnm.c ****     /*Count the lines to calculate button height*/
 176:..\..\..\lvgl\version_6.1.2\lvgl\src\lv_objx/lv_btnm.c ****     uint8_t line_cnt = 1;
 536              		.loc 2 176 0
 537 0090 0123     		movs	r3, #1
 538 0092 87F83530 		strb	r3, [r7, #53]
 177:..\..\..\lvgl\version_6.1.2\lvgl\src\lv_objx/lv_btnm.c ****     uint8_t li;
 178:..\..\..\lvgl\version_6.1.2\lvgl\src\lv_objx/lv_btnm.c ****     for(li = 0; strlen(map[li]) != 0; li++) {
 539              		.loc 2 178 0
 540 0096 0023     		movs	r3, #0
 541 0098 87F83430 		strb	r3, [r7, #52]
 542 009c 16E0     		b	.L20
 543              	.L22:
 179:..\..\..\lvgl\version_6.1.2\lvgl\src\lv_objx/lv_btnm.c ****         if(strcmp(map[li], "\n") == 0) line_cnt++;
 544              		.loc 2 179 0
 545 009e 97F83430 		ldrb	r3, [r7, #52]	@ zero_extendqisi2
 546 00a2 9B00     		lsls	r3, r3, #2
 547 00a4 3A68     		ldr	r2, [r7]
 548 00a6 1344     		add	r3, r3, r2
 549 00a8 1B68     		ldr	r3, [r3]
 550 00aa 9349     		ldr	r1, .L39
 551 00ac 1846     		mov	r0, r3
 552 00ae FFF7FEFF 		bl	strcmp
 553 00b2 0346     		mov	r3, r0
 554 00b4 002B     		cmp	r3, #0
 555 00b6 04D1     		bne	.L21
 556              		.loc 2 179 0 is_stmt 0 discriminator 1
 557 00b8 97F83530 		ldrb	r3, [r7, #53]	@ zero_extendqisi2
 558 00bc 0133     		adds	r3, r3, #1
 559 00be 87F83530 		strb	r3, [r7, #53]
 560              	.L21:
 178:..\..\..\lvgl\version_6.1.2\lvgl\src\lv_objx/lv_btnm.c ****         if(strcmp(map[li], "\n") == 0) line_cnt++;
 561              		.loc 2 178 0 is_stmt 1 discriminator 2
 562 00c2 97F83430 		ldrb	r3, [r7, #52]	@ zero_extendqisi2
 563 00c6 0133     		adds	r3, r3, #1
 564 00c8 87F83430 		strb	r3, [r7, #52]
 565              	.L20:
 178:..\..\..\lvgl\version_6.1.2\lvgl\src\lv_objx/lv_btnm.c ****         if(strcmp(map[li], "\n") == 0) line_cnt++;
 566              		.loc 2 178 0 is_stmt 0 discriminator 1
 567 00cc 97F83430 		ldrb	r3, [r7, #52]	@ zero_extendqisi2
 568 00d0 9B00     		lsls	r3, r3, #2
 569 00d2 3A68     		ldr	r2, [r7]
 570 00d4 1344     		add	r3, r3, r2
ARM GAS  C:\Users\tmj32\AppData\Local\Temp\ccyJ4BPG.s 			page 16


 571 00d6 1B68     		ldr	r3, [r3]
 572 00d8 1B78     		ldrb	r3, [r3]	@ zero_extendqisi2
 573 00da 002B     		cmp	r3, #0
 574 00dc DFD1     		bne	.L22
 180:..\..\..\lvgl\version_6.1.2\lvgl\src\lv_objx/lv_btnm.c ****     }
 181:..\..\..\lvgl\version_6.1.2\lvgl\src\lv_objx/lv_btnm.c **** 
 182:..\..\..\lvgl\version_6.1.2\lvgl\src\lv_objx/lv_btnm.c ****     lv_coord_t btn_h = max_h - ((line_cnt - 1) * style_bg->body.padding.inner);
 575              		.loc 2 182 0 is_stmt 1
 576 00de BA8A     		ldrh	r2, [r7, #20]
 577 00e0 97F83530 		ldrb	r3, [r7, #53]	@ zero_extendqisi2
 578 00e4 013B     		subs	r3, r3, #1
 579 00e6 99B2     		uxth	r1, r3
 580 00e8 BB69     		ldr	r3, [r7, #24]
 581 00ea B3F92830 		ldrsh	r3, [r3, #40]
 582 00ee 9BB2     		uxth	r3, r3
 583 00f0 11FB03F3 		smulbb	r3, r1, r3
 584 00f4 9BB2     		uxth	r3, r3
 585 00f6 D31A     		subs	r3, r2, r3
 586 00f8 9BB2     		uxth	r3, r3
 587 00fa 7B86     		strh	r3, [r7, #50]	@ movhi
 183:..\..\..\lvgl\version_6.1.2\lvgl\src\lv_objx/lv_btnm.c ****     btn_h            = btn_h / line_cnt;
 588              		.loc 2 183 0
 589 00fc B7F93220 		ldrsh	r2, [r7, #50]
 590 0100 97F83530 		ldrb	r3, [r7, #53]	@ zero_extendqisi2
 591 0104 92FBF3F3 		sdiv	r3, r2, r3
 592 0108 7B86     		strh	r3, [r7, #50]	@ movhi
 184:..\..\..\lvgl\version_6.1.2\lvgl\src\lv_objx/lv_btnm.c ****     btn_h--; /*-1 because e.g. height = 100 means 101 pixels (0..100)*/
 593              		.loc 2 184 0
 594 010a B7F93230 		ldrsh	r3, [r7, #50]
 595 010e 9BB2     		uxth	r3, r3
 596 0110 013B     		subs	r3, r3, #1
 597 0112 9BB2     		uxth	r3, r3
 598 0114 7B86     		strh	r3, [r7, #50]	@ movhi
 185:..\..\..\lvgl\version_6.1.2\lvgl\src\lv_objx/lv_btnm.c **** 
 186:..\..\..\lvgl\version_6.1.2\lvgl\src\lv_objx/lv_btnm.c ****     /* Count the units and the buttons in a line
 187:..\..\..\lvgl\version_6.1.2\lvgl\src\lv_objx/lv_btnm.c ****      * (A button can be 1,2,3... unit wide)*/
 188:..\..\..\lvgl\version_6.1.2\lvgl\src\lv_objx/lv_btnm.c ****     uint16_t unit_cnt;           /*Number of units in a row*/
 189:..\..\..\lvgl\version_6.1.2\lvgl\src\lv_objx/lv_btnm.c ****     uint16_t unit_act_cnt;       /*Number of units currently put in a row*/
 190:..\..\..\lvgl\version_6.1.2\lvgl\src\lv_objx/lv_btnm.c ****     uint16_t btn_cnt;            /*Number of buttons in a row*/
 191:..\..\..\lvgl\version_6.1.2\lvgl\src\lv_objx/lv_btnm.c ****     uint16_t i_tot          = 0; /*Act. index in the str map*/
 599              		.loc 2 191 0
 600 0116 0023     		movs	r3, #0
 601 0118 7B85     		strh	r3, [r7, #42]	@ movhi
 192:..\..\..\lvgl\version_6.1.2\lvgl\src\lv_objx/lv_btnm.c ****     uint16_t btn_i          = 0; /*Act. index of button areas*/
 602              		.loc 2 192 0
 603 011a 0023     		movs	r3, #0
 604 011c 3B85     		strh	r3, [r7, #40]	@ movhi
 193:..\..\..\lvgl\version_6.1.2\lvgl\src\lv_objx/lv_btnm.c ****     const char ** map_p_tmp = map;
 605              		.loc 2 193 0
 606 011e 3B68     		ldr	r3, [r7]
 607 0120 7B62     		str	r3, [r7, #36]
 608              	.L36:
 609              	.LBB4:
 194:..\..\..\lvgl\version_6.1.2\lvgl\src\lv_objx/lv_btnm.c **** 
 195:..\..\..\lvgl\version_6.1.2\lvgl\src\lv_objx/lv_btnm.c ****     /*Count the units and the buttons in a line*/
 196:..\..\..\lvgl\version_6.1.2\lvgl\src\lv_objx/lv_btnm.c ****     while(1) {
 197:..\..\..\lvgl\version_6.1.2\lvgl\src\lv_objx/lv_btnm.c ****         unit_cnt = 0;
ARM GAS  C:\Users\tmj32\AppData\Local\Temp\ccyJ4BPG.s 			page 17


 610              		.loc 2 197 0
 611 0122 0023     		movs	r3, #0
 612 0124 3B86     		strh	r3, [r7, #48]	@ movhi
 198:..\..\..\lvgl\version_6.1.2\lvgl\src\lv_objx/lv_btnm.c ****         btn_cnt  = 0;
 613              		.loc 2 198 0
 614 0126 0023     		movs	r3, #0
 615 0128 BB85     		strh	r3, [r7, #44]	@ movhi
 199:..\..\..\lvgl\version_6.1.2\lvgl\src\lv_objx/lv_btnm.c ****         /*Count the buttons in a line*/
 200:..\..\..\lvgl\version_6.1.2\lvgl\src\lv_objx/lv_btnm.c ****         while(strcmp(map_p_tmp[btn_cnt], "\n") != 0 && strlen(map_p_tmp[btn_cnt]) != 0) { /*Check a
 616              		.loc 2 200 0
 617 012a 12E0     		b	.L23
 618              	.L25:
 201:..\..\..\lvgl\version_6.1.2\lvgl\src\lv_objx/lv_btnm.c ****             unit_cnt += get_button_width(ext->ctrl_bits[btn_i + btn_cnt]);
 619              		.loc 2 201 0
 620 012c FB69     		ldr	r3, [r7, #28]
 621 012e 9A68     		ldr	r2, [r3, #8]
 622 0130 398D     		ldrh	r1, [r7, #40]
 623 0132 BB8D     		ldrh	r3, [r7, #44]
 624 0134 0B44     		add	r3, r3, r1
 625 0136 5B00     		lsls	r3, r3, #1
 626 0138 1344     		add	r3, r3, r2
 627 013a 1B88     		ldrh	r3, [r3]
 628 013c 1846     		mov	r0, r3
 629 013e FFF7FEFF 		bl	get_button_width
 630 0142 0346     		mov	r3, r0
 631 0144 9AB2     		uxth	r2, r3
 632 0146 3B8E     		ldrh	r3, [r7, #48]	@ movhi
 633 0148 1344     		add	r3, r3, r2
 634 014a 3B86     		strh	r3, [r7, #48]	@ movhi
 202:..\..\..\lvgl\version_6.1.2\lvgl\src\lv_objx/lv_btnm.c ****             btn_cnt++;
 635              		.loc 2 202 0
 636 014c BB8D     		ldrh	r3, [r7, #44]
 637 014e 0133     		adds	r3, r3, #1
 638 0150 BB85     		strh	r3, [r7, #44]	@ movhi
 639              	.L23:
 200:..\..\..\lvgl\version_6.1.2\lvgl\src\lv_objx/lv_btnm.c ****             unit_cnt += get_button_width(ext->ctrl_bits[btn_i + btn_cnt]);
 640              		.loc 2 200 0
 641 0152 BB8D     		ldrh	r3, [r7, #44]
 642 0154 9B00     		lsls	r3, r3, #2
 643 0156 7A6A     		ldr	r2, [r7, #36]
 644 0158 1344     		add	r3, r3, r2
 645 015a 1B68     		ldr	r3, [r3]
 646 015c 6649     		ldr	r1, .L39
 647 015e 1846     		mov	r0, r3
 648 0160 FFF7FEFF 		bl	strcmp
 649 0164 0346     		mov	r3, r0
 650 0166 002B     		cmp	r3, #0
 651 0168 07D0     		beq	.L24
 200:..\..\..\lvgl\version_6.1.2\lvgl\src\lv_objx/lv_btnm.c ****             unit_cnt += get_button_width(ext->ctrl_bits[btn_i + btn_cnt]);
 652              		.loc 2 200 0 is_stmt 0 discriminator 1
 653 016a BB8D     		ldrh	r3, [r7, #44]
 654 016c 9B00     		lsls	r3, r3, #2
 655 016e 7A6A     		ldr	r2, [r7, #36]
 656 0170 1344     		add	r3, r3, r2
 657 0172 1B68     		ldr	r3, [r3]
 658 0174 1B78     		ldrb	r3, [r3]	@ zero_extendqisi2
 659 0176 002B     		cmp	r3, #0
ARM GAS  C:\Users\tmj32\AppData\Local\Temp\ccyJ4BPG.s 			page 18


 660 0178 D8D1     		bne	.L25
 661              	.L24:
 203:..\..\..\lvgl\version_6.1.2\lvgl\src\lv_objx/lv_btnm.c ****         }
 204:..\..\..\lvgl\version_6.1.2\lvgl\src\lv_objx/lv_btnm.c **** 
 205:..\..\..\lvgl\version_6.1.2\lvgl\src\lv_objx/lv_btnm.c ****         /*Make sure the last row is at the bottom of 'btnm'*/
 206:..\..\..\lvgl\version_6.1.2\lvgl\src\lv_objx/lv_btnm.c ****         if(map_p_tmp[btn_cnt][0] == '\0') { /*Last row?*/
 662              		.loc 2 206 0 is_stmt 1
 663 017a BB8D     		ldrh	r3, [r7, #44]
 664 017c 9B00     		lsls	r3, r3, #2
 665 017e 7A6A     		ldr	r2, [r7, #36]
 666 0180 1344     		add	r3, r3, r2
 667 0182 1B68     		ldr	r3, [r3]
 668 0184 1B78     		ldrb	r3, [r3]	@ zero_extendqisi2
 669 0186 002B     		cmp	r3, #0
 670 0188 10D1     		bne	.L26
 207:..\..\..\lvgl\version_6.1.2\lvgl\src\lv_objx/lv_btnm.c ****             btn_h = lv_obj_get_height(btnm)- act_y - style_bg->body.padding.bottom - 1;
 671              		.loc 2 207 0
 672 018a 7868     		ldr	r0, [r7, #4]
 673 018c FFF7FEFF 		bl	lv_obj_get_height
 674 0190 0346     		mov	r3, r0
 675 0192 9AB2     		uxth	r2, r3
 676 0194 FB8E     		ldrh	r3, [r7, #54]
 677 0196 D31A     		subs	r3, r2, r3
 678 0198 9AB2     		uxth	r2, r3
 679 019a BB69     		ldr	r3, [r7, #24]
 680 019c B3F92230 		ldrsh	r3, [r3, #34]
 681 01a0 9BB2     		uxth	r3, r3
 682 01a2 D31A     		subs	r3, r2, r3
 683 01a4 9BB2     		uxth	r3, r3
 684 01a6 013B     		subs	r3, r3, #1
 685 01a8 9BB2     		uxth	r3, r3
 686 01aa 7B86     		strh	r3, [r7, #50]	@ movhi
 687              	.L26:
 208:..\..\..\lvgl\version_6.1.2\lvgl\src\lv_objx/lv_btnm.c ****         }
 209:..\..\..\lvgl\version_6.1.2\lvgl\src\lv_objx/lv_btnm.c **** 
 210:..\..\..\lvgl\version_6.1.2\lvgl\src\lv_objx/lv_btnm.c ****         lv_bidi_dir_t base_dir = lv_obj_get_base_dir(btnm);
 688              		.loc 2 210 0
 689 01ac 7868     		ldr	r0, [r7, #4]
 690 01ae FFF7FEFF 		bl	lv_obj_get_base_dir
 691 01b2 0346     		mov	r3, r0
 692 01b4 FB74     		strb	r3, [r7, #19]
 211:..\..\..\lvgl\version_6.1.2\lvgl\src\lv_objx/lv_btnm.c **** 
 212:..\..\..\lvgl\version_6.1.2\lvgl\src\lv_objx/lv_btnm.c ****         /*Only deal with the non empty lines*/
 213:..\..\..\lvgl\version_6.1.2\lvgl\src\lv_objx/lv_btnm.c ****         if(btn_cnt != 0) {
 693              		.loc 2 213 0
 694 01b6 BB8D     		ldrh	r3, [r7, #44]
 695 01b8 002B     		cmp	r3, #0
 696 01ba 00F0D280 		beq	.L27
 697              	.LBB5:
 214:..\..\..\lvgl\version_6.1.2\lvgl\src\lv_objx/lv_btnm.c ****             /*Calculate the width of all units*/
 215:..\..\..\lvgl\version_6.1.2\lvgl\src\lv_objx/lv_btnm.c ****             lv_coord_t all_unit_w = max_w - ((btn_cnt - 1) * style_bg->body.padding.inner);
 698              		.loc 2 215 0
 699 01be FA8A     		ldrh	r2, [r7, #22]
 700 01c0 BB8D     		ldrh	r3, [r7, #44]
 701 01c2 013B     		subs	r3, r3, #1
 702 01c4 99B2     		uxth	r1, r3
 703 01c6 BB69     		ldr	r3, [r7, #24]
ARM GAS  C:\Users\tmj32\AppData\Local\Temp\ccyJ4BPG.s 			page 19


 704 01c8 B3F92830 		ldrsh	r3, [r3, #40]
 705 01cc 9BB2     		uxth	r3, r3
 706 01ce 11FB03F3 		smulbb	r3, r1, r3
 707 01d2 9BB2     		uxth	r3, r3
 708 01d4 D31A     		subs	r3, r2, r3
 709 01d6 9BB2     		uxth	r3, r3
 710 01d8 3B82     		strh	r3, [r7, #16]	@ movhi
 216:..\..\..\lvgl\version_6.1.2\lvgl\src\lv_objx/lv_btnm.c **** 
 217:..\..\..\lvgl\version_6.1.2\lvgl\src\lv_objx/lv_btnm.c ****             /*Set the button size and positions and set the texts*/
 218:..\..\..\lvgl\version_6.1.2\lvgl\src\lv_objx/lv_btnm.c ****             uint16_t i;
 219:..\..\..\lvgl\version_6.1.2\lvgl\src\lv_objx/lv_btnm.c ****             lv_coord_t act_x;
 220:..\..\..\lvgl\version_6.1.2\lvgl\src\lv_objx/lv_btnm.c **** 
 221:..\..\..\lvgl\version_6.1.2\lvgl\src\lv_objx/lv_btnm.c ****             lv_coord_t act_unit_w;
 222:..\..\..\lvgl\version_6.1.2\lvgl\src\lv_objx/lv_btnm.c ****             unit_act_cnt = 0;
 711              		.loc 2 222 0
 712 01da 0023     		movs	r3, #0
 713 01dc FB85     		strh	r3, [r7, #46]	@ movhi
 223:..\..\..\lvgl\version_6.1.2\lvgl\src\lv_objx/lv_btnm.c ****             for(i = 0; i < btn_cnt; i++) {
 714              		.loc 2 223 0
 715 01de 0023     		movs	r3, #0
 716 01e0 7B84     		strh	r3, [r7, #34]	@ movhi
 717 01e2 B9E0     		b	.L28
 718              	.L33:
 224:..\..\..\lvgl\version_6.1.2\lvgl\src\lv_objx/lv_btnm.c ****                 /* one_unit_w = all_unit_w / unit_cnt
 225:..\..\..\lvgl\version_6.1.2\lvgl\src\lv_objx/lv_btnm.c ****                  * act_unit_w = one_unit_w * button_width
 226:..\..\..\lvgl\version_6.1.2\lvgl\src\lv_objx/lv_btnm.c ****                  * do this two operations but the multiply first to divide a greater number */
 227:..\..\..\lvgl\version_6.1.2\lvgl\src\lv_objx/lv_btnm.c ****                 act_unit_w = (all_unit_w * get_button_width(ext->ctrl_bits[btn_i])) / unit_cnt;
 719              		.loc 2 227 0
 720 01e4 B7F91040 		ldrsh	r4, [r7, #16]
 721 01e8 FB69     		ldr	r3, [r7, #28]
 722 01ea 9A68     		ldr	r2, [r3, #8]
 723 01ec 3B8D     		ldrh	r3, [r7, #40]
 724 01ee 5B00     		lsls	r3, r3, #1
 725 01f0 1344     		add	r3, r3, r2
 726 01f2 1B88     		ldrh	r3, [r3]
 727 01f4 1846     		mov	r0, r3
 728 01f6 FFF7FEFF 		bl	get_button_width
 729 01fa 0346     		mov	r3, r0
 730 01fc 03FB04F2 		mul	r2, r3, r4
 731 0200 3B8E     		ldrh	r3, [r7, #48]
 732 0202 92FBF3F3 		sdiv	r3, r2, r3
 733 0206 FB81     		strh	r3, [r7, #14]	@ movhi
 228:..\..\..\lvgl\version_6.1.2\lvgl\src\lv_objx/lv_btnm.c ****                 act_unit_w--; /*-1 because e.g. width = 100 means 101 pixels (0..100)*/
 734              		.loc 2 228 0
 735 0208 B7F90E30 		ldrsh	r3, [r7, #14]
 736 020c 9BB2     		uxth	r3, r3
 737 020e 013B     		subs	r3, r3, #1
 738 0210 9BB2     		uxth	r3, r3
 739 0212 FB81     		strh	r3, [r7, #14]	@ movhi
 229:..\..\..\lvgl\version_6.1.2\lvgl\src\lv_objx/lv_btnm.c **** 
 230:..\..\..\lvgl\version_6.1.2\lvgl\src\lv_objx/lv_btnm.c ****                 /*Always recalculate act_x because of rounding errors */
 231:..\..\..\lvgl\version_6.1.2\lvgl\src\lv_objx/lv_btnm.c ****                 if(base_dir == LV_BIDI_DIR_RTL)  {
 740              		.loc 2 231 0
 741 0214 FB7C     		ldrb	r3, [r7, #19]	@ zero_extendqisi2
 742 0216 012B     		cmp	r3, #1
 743 0218 28D1     		bne	.L29
 232:..\..\..\lvgl\version_6.1.2\lvgl\src\lv_objx/lv_btnm.c ****                     act_x = (unit_act_cnt * all_unit_w) / unit_cnt + i * style_bg->body.padding.inn
ARM GAS  C:\Users\tmj32\AppData\Local\Temp\ccyJ4BPG.s 			page 20


 744              		.loc 2 232 0
 745 021a FB8D     		ldrh	r3, [r7, #46]
 746 021c B7F91020 		ldrsh	r2, [r7, #16]
 747 0220 02FB03F2 		mul	r2, r2, r3
 748 0224 3B8E     		ldrh	r3, [r7, #48]
 749 0226 92FBF3F3 		sdiv	r3, r2, r3
 750 022a 9AB2     		uxth	r2, r3
 751 022c BB69     		ldr	r3, [r7, #24]
 752 022e B3F92830 		ldrsh	r3, [r3, #40]
 753 0232 9BB2     		uxth	r3, r3
 754 0234 798C     		ldrh	r1, [r7, #34]	@ movhi
 755 0236 11FB03F3 		smulbb	r3, r1, r3
 756 023a 9BB2     		uxth	r3, r3
 757 023c 1344     		add	r3, r3, r2
 758 023e 9BB2     		uxth	r3, r3
 759 0240 3B84     		strh	r3, [r7, #32]	@ movhi
 233:..\..\..\lvgl\version_6.1.2\lvgl\src\lv_objx/lv_btnm.c ****                     act_x = lv_obj_get_width(btnm) - style_bg->body.padding.right - act_x - act_uni
 760              		.loc 2 233 0
 761 0242 7868     		ldr	r0, [r7, #4]
 762 0244 FFF7FEFF 		bl	lv_obj_get_width
 763 0248 0346     		mov	r3, r0
 764 024a 9AB2     		uxth	r2, r3
 765 024c BB69     		ldr	r3, [r7, #24]
 766 024e B3F92630 		ldrsh	r3, [r3, #38]
 767 0252 9BB2     		uxth	r3, r3
 768 0254 D31A     		subs	r3, r2, r3
 769 0256 9AB2     		uxth	r2, r3
 770 0258 3B8C     		ldrh	r3, [r7, #32]
 771 025a D31A     		subs	r3, r2, r3
 772 025c 9AB2     		uxth	r2, r3
 773 025e FB89     		ldrh	r3, [r7, #14]
 774 0260 D31A     		subs	r3, r2, r3
 775 0262 9BB2     		uxth	r3, r3
 776 0264 013B     		subs	r3, r3, #1
 777 0266 9BB2     		uxth	r3, r3
 778 0268 3B84     		strh	r3, [r7, #32]	@ movhi
 779 026a 19E0     		b	.L30
 780              	.L29:
 234:..\..\..\lvgl\version_6.1.2\lvgl\src\lv_objx/lv_btnm.c ****                 } else {
 235:..\..\..\lvgl\version_6.1.2\lvgl\src\lv_objx/lv_btnm.c ****                     act_x = (unit_act_cnt * all_unit_w) / unit_cnt + i * style_bg->body.padding.inn
 781              		.loc 2 235 0
 782 026c FB8D     		ldrh	r3, [r7, #46]
 783 026e B7F91020 		ldrsh	r2, [r7, #16]
 784 0272 02FB03F2 		mul	r2, r2, r3
 785 0276 3B8E     		ldrh	r3, [r7, #48]
 786 0278 92FBF3F3 		sdiv	r3, r2, r3
 787 027c 9AB2     		uxth	r2, r3
 788 027e BB69     		ldr	r3, [r7, #24]
 789 0280 B3F92830 		ldrsh	r3, [r3, #40]
 790 0284 9BB2     		uxth	r3, r3
 791 0286 798C     		ldrh	r1, [r7, #34]	@ movhi
 792 0288 11FB03F3 		smulbb	r3, r1, r3
 793 028c 9BB2     		uxth	r3, r3
 794 028e 1344     		add	r3, r3, r2
 795 0290 9AB2     		uxth	r2, r3
 236:..\..\..\lvgl\version_6.1.2\lvgl\src\lv_objx/lv_btnm.c ****                             style_bg->body.padding.left;
 796              		.loc 2 236 0
ARM GAS  C:\Users\tmj32\AppData\Local\Temp\ccyJ4BPG.s 			page 21


 797 0292 BB69     		ldr	r3, [r7, #24]
 798 0294 B3F92430 		ldrsh	r3, [r3, #36]
 235:..\..\..\lvgl\version_6.1.2\lvgl\src\lv_objx/lv_btnm.c ****                             style_bg->body.padding.left;
 799              		.loc 2 235 0
 800 0298 9BB2     		uxth	r3, r3
 801 029a 1344     		add	r3, r3, r2
 802 029c 9BB2     		uxth	r3, r3
 803 029e 3B84     		strh	r3, [r7, #32]	@ movhi
 804              	.L30:
 237:..\..\..\lvgl\version_6.1.2\lvgl\src\lv_objx/lv_btnm.c ****                 }
 238:..\..\..\lvgl\version_6.1.2\lvgl\src\lv_objx/lv_btnm.c ****                 /* Set the button's area.
 239:..\..\..\lvgl\version_6.1.2\lvgl\src\lv_objx/lv_btnm.c ****                  * If inner padding is zero then use the prev. button x2 as x1 to avoid rounding
 240:..\..\..\lvgl\version_6.1.2\lvgl\src\lv_objx/lv_btnm.c ****                  * errors*/
 241:..\..\..\lvgl\version_6.1.2\lvgl\src\lv_objx/lv_btnm.c ****                 if(style_bg->body.padding.inner == 0 && act_x != style_bg->body.padding.left) {
 805              		.loc 2 241 0
 806 02a0 BB69     		ldr	r3, [r7, #24]
 807 02a2 B3F92830 		ldrsh	r3, [r3, #40]
 808 02a6 002B     		cmp	r3, #0
 809 02a8 28D1     		bne	.L31
 810              		.loc 2 241 0 is_stmt 0 discriminator 1
 811 02aa BB69     		ldr	r3, [r7, #24]
 812 02ac B3F92430 		ldrsh	r3, [r3, #36]
 813 02b0 B7F92020 		ldrsh	r2, [r7, #32]
 814 02b4 9A42     		cmp	r2, r3
 815 02b6 21D0     		beq	.L31
 242:..\..\..\lvgl\version_6.1.2\lvgl\src\lv_objx/lv_btnm.c ****                     lv_area_set(&ext->button_areas[btn_i], ext->button_areas[btn_i - 1].x2, act_y, 
 816              		.loc 2 242 0 is_stmt 1
 817 02b8 FB69     		ldr	r3, [r7, #28]
 818 02ba 5A68     		ldr	r2, [r3, #4]
 819 02bc 3B8D     		ldrh	r3, [r7, #40]
 820 02be DB00     		lsls	r3, r3, #3
 821 02c0 D018     		adds	r0, r2, r3
 822 02c2 FB69     		ldr	r3, [r7, #28]
 823 02c4 5A68     		ldr	r2, [r3, #4]
 824 02c6 3B8D     		ldrh	r3, [r7, #40]
 825 02c8 03F10053 		add	r3, r3, #536870912
 826 02cc 013B     		subs	r3, r3, #1
 827 02ce DB00     		lsls	r3, r3, #3
 828 02d0 1344     		add	r3, r3, r2
 829 02d2 B3F90410 		ldrsh	r1, [r3, #4]
 830 02d6 3A8C     		ldrh	r2, [r7, #32]
 831 02d8 FB89     		ldrh	r3, [r7, #14]
 832 02da 1344     		add	r3, r3, r2
 833 02dc 9BB2     		uxth	r3, r3
 834 02de 1CB2     		sxth	r4, r3
 835 02e0 FA8E     		ldrh	r2, [r7, #54]
 836 02e2 7B8E     		ldrh	r3, [r7, #50]
 837 02e4 1344     		add	r3, r3, r2
 838 02e6 9BB2     		uxth	r3, r3
 839 02e8 1BB2     		sxth	r3, r3
 840 02ea B7F93620 		ldrsh	r2, [r7, #54]
 841 02ee 0093     		str	r3, [sp]
 842 02f0 2346     		mov	r3, r4
 843 02f2 FFF7FEFF 		bl	lv_area_set
 844 02f6 18E0     		b	.L32
 845              	.L40:
 846              		.align	2
ARM GAS  C:\Users\tmj32\AppData\Local\Temp\ccyJ4BPG.s 			page 22


 847              	.L39:
 848 02f8 18000000 		.word	.LC3
 849              	.L31:
 243:..\..\..\lvgl\version_6.1.2\lvgl\src\lv_objx/lv_btnm.c ****                                 act_y + btn_h);
 244:..\..\..\lvgl\version_6.1.2\lvgl\src\lv_objx/lv_btnm.c ****                 } else {
 245:..\..\..\lvgl\version_6.1.2\lvgl\src\lv_objx/lv_btnm.c ****                     lv_area_set(&ext->button_areas[btn_i], act_x, act_y, act_x + act_unit_w, act_y 
 850              		.loc 2 245 0
 851 02fc FB69     		ldr	r3, [r7, #28]
 852 02fe 5A68     		ldr	r2, [r3, #4]
 853 0300 3B8D     		ldrh	r3, [r7, #40]
 854 0302 DB00     		lsls	r3, r3, #3
 855 0304 D018     		adds	r0, r2, r3
 856 0306 3A8C     		ldrh	r2, [r7, #32]
 857 0308 FB89     		ldrh	r3, [r7, #14]
 858 030a 1344     		add	r3, r3, r2
 859 030c 9BB2     		uxth	r3, r3
 860 030e 1CB2     		sxth	r4, r3
 861 0310 FA8E     		ldrh	r2, [r7, #54]
 862 0312 7B8E     		ldrh	r3, [r7, #50]
 863 0314 1344     		add	r3, r3, r2
 864 0316 9BB2     		uxth	r3, r3
 865 0318 1BB2     		sxth	r3, r3
 866 031a B7F93620 		ldrsh	r2, [r7, #54]
 867 031e B7F92010 		ldrsh	r1, [r7, #32]
 868 0322 0093     		str	r3, [sp]
 869 0324 2346     		mov	r3, r4
 870 0326 FFF7FEFF 		bl	lv_area_set
 871              	.L32:
 246:..\..\..\lvgl\version_6.1.2\lvgl\src\lv_objx/lv_btnm.c ****                 }
 247:..\..\..\lvgl\version_6.1.2\lvgl\src\lv_objx/lv_btnm.c **** 
 248:..\..\..\lvgl\version_6.1.2\lvgl\src\lv_objx/lv_btnm.c ****                 unit_act_cnt += get_button_width(ext->ctrl_bits[btn_i]);
 872              		.loc 2 248 0 discriminator 2
 873 032a FB69     		ldr	r3, [r7, #28]
 874 032c 9A68     		ldr	r2, [r3, #8]
 875 032e 3B8D     		ldrh	r3, [r7, #40]
 876 0330 5B00     		lsls	r3, r3, #1
 877 0332 1344     		add	r3, r3, r2
 878 0334 1B88     		ldrh	r3, [r3]
 879 0336 1846     		mov	r0, r3
 880 0338 FFF7FEFF 		bl	get_button_width
 881 033c 0346     		mov	r3, r0
 882 033e 9AB2     		uxth	r2, r3
 883 0340 FB8D     		ldrh	r3, [r7, #46]	@ movhi
 884 0342 1344     		add	r3, r3, r2
 885 0344 FB85     		strh	r3, [r7, #46]	@ movhi
 249:..\..\..\lvgl\version_6.1.2\lvgl\src\lv_objx/lv_btnm.c **** 
 250:..\..\..\lvgl\version_6.1.2\lvgl\src\lv_objx/lv_btnm.c ****                 i_tot++;
 886              		.loc 2 250 0 discriminator 2
 887 0346 7B8D     		ldrh	r3, [r7, #42]
 888 0348 0133     		adds	r3, r3, #1
 889 034a 7B85     		strh	r3, [r7, #42]	@ movhi
 251:..\..\..\lvgl\version_6.1.2\lvgl\src\lv_objx/lv_btnm.c ****                 btn_i++;
 890              		.loc 2 251 0 discriminator 2
 891 034c 3B8D     		ldrh	r3, [r7, #40]
 892 034e 0133     		adds	r3, r3, #1
 893 0350 3B85     		strh	r3, [r7, #40]	@ movhi
 223:..\..\..\lvgl\version_6.1.2\lvgl\src\lv_objx/lv_btnm.c ****                 /* one_unit_w = all_unit_w / unit_cnt
ARM GAS  C:\Users\tmj32\AppData\Local\Temp\ccyJ4BPG.s 			page 23


 894              		.loc 2 223 0 discriminator 2
 895 0352 7B8C     		ldrh	r3, [r7, #34]
 896 0354 0133     		adds	r3, r3, #1
 897 0356 7B84     		strh	r3, [r7, #34]	@ movhi
 898              	.L28:
 223:..\..\..\lvgl\version_6.1.2\lvgl\src\lv_objx/lv_btnm.c ****                 /* one_unit_w = all_unit_w / unit_cnt
 899              		.loc 2 223 0 is_stmt 0 discriminator 1
 900 0358 7A8C     		ldrh	r2, [r7, #34]
 901 035a BB8D     		ldrh	r3, [r7, #44]
 902 035c 9A42     		cmp	r2, r3
 903 035e FFF441AF 		bcc	.L33
 904              	.L27:
 905              	.LBE5:
 252:..\..\..\lvgl\version_6.1.2\lvgl\src\lv_objx/lv_btnm.c ****             }
 253:..\..\..\lvgl\version_6.1.2\lvgl\src\lv_objx/lv_btnm.c ****         }
 254:..\..\..\lvgl\version_6.1.2\lvgl\src\lv_objx/lv_btnm.c ****         act_y += btn_h + style_bg->body.padding.inner + 1;
 906              		.loc 2 254 0 is_stmt 1
 907 0362 BB69     		ldr	r3, [r7, #24]
 908 0364 B3F92830 		ldrsh	r3, [r3, #40]
 909 0368 9AB2     		uxth	r2, r3
 910 036a 7B8E     		ldrh	r3, [r7, #50]
 911 036c 1344     		add	r3, r3, r2
 912 036e 9AB2     		uxth	r2, r3
 913 0370 FB8E     		ldrh	r3, [r7, #54]
 914 0372 1344     		add	r3, r3, r2
 915 0374 9BB2     		uxth	r3, r3
 916 0376 0133     		adds	r3, r3, #1
 917 0378 9BB2     		uxth	r3, r3
 918 037a FB86     		strh	r3, [r7, #54]	@ movhi
 255:..\..\..\lvgl\version_6.1.2\lvgl\src\lv_objx/lv_btnm.c **** 
 256:..\..\..\lvgl\version_6.1.2\lvgl\src\lv_objx/lv_btnm.c ****         if(strlen(map_p_tmp[btn_cnt]) == 0) break; /*Break on end of map*/
 919              		.loc 2 256 0
 920 037c BB8D     		ldrh	r3, [r7, #44]
 921 037e 9B00     		lsls	r3, r3, #2
 922 0380 7A6A     		ldr	r2, [r7, #36]
 923 0382 1344     		add	r3, r3, r2
 924 0384 1B68     		ldr	r3, [r3]
 925 0386 1B78     		ldrb	r3, [r3]	@ zero_extendqisi2
 926 0388 002B     		cmp	r3, #0
 927 038a 09D0     		beq	.L38
 257:..\..\..\lvgl\version_6.1.2\lvgl\src\lv_objx/lv_btnm.c ****         map_p_tmp = &map_p_tmp[btn_cnt + 1];       /*Set the map to the next line*/
 928              		.loc 2 257 0
 929 038c BB8D     		ldrh	r3, [r7, #44]
 930 038e 0133     		adds	r3, r3, #1
 931 0390 9B00     		lsls	r3, r3, #2
 932 0392 7A6A     		ldr	r2, [r7, #36]
 933 0394 1344     		add	r3, r3, r2
 934 0396 7B62     		str	r3, [r7, #36]
 258:..\..\..\lvgl\version_6.1.2\lvgl\src\lv_objx/lv_btnm.c ****         i_tot++;                                   /*Skip the '\n'*/
 935              		.loc 2 258 0
 936 0398 7B8D     		ldrh	r3, [r7, #42]
 937 039a 0133     		adds	r3, r3, #1
 938 039c 7B85     		strh	r3, [r7, #42]	@ movhi
 939              	.LBE4:
 259:..\..\..\lvgl\version_6.1.2\lvgl\src\lv_objx/lv_btnm.c ****     }
 940              		.loc 2 259 0
 941 039e C0E6     		b	.L36
ARM GAS  C:\Users\tmj32\AppData\Local\Temp\ccyJ4BPG.s 			page 24


 942              	.L38:
 943              	.LBB6:
 256:..\..\..\lvgl\version_6.1.2\lvgl\src\lv_objx/lv_btnm.c ****         map_p_tmp = &map_p_tmp[btn_cnt + 1];       /*Set the map to the next line*/
 944              		.loc 2 256 0
 945 03a0 00BF     		nop
 946              	.LBE6:
 260:..\..\..\lvgl\version_6.1.2\lvgl\src\lv_objx/lv_btnm.c **** 
 261:..\..\..\lvgl\version_6.1.2\lvgl\src\lv_objx/lv_btnm.c ****     lv_obj_invalidate(btnm);
 947              		.loc 2 261 0
 948 03a2 7868     		ldr	r0, [r7, #4]
 949 03a4 FFF7FEFF 		bl	lv_obj_invalidate
 262:..\..\..\lvgl\version_6.1.2\lvgl\src\lv_objx/lv_btnm.c **** }
 950              		.loc 2 262 0
 951 03a8 00BF     		nop
 952 03aa 3C37     		adds	r7, r7, #60
 953              		.cfi_def_cfa_offset 12
 954 03ac BD46     		mov	sp, r7
 955              		.cfi_def_cfa_register 13
 956              		@ sp needed
 957 03ae 90BD     		pop	{r4, r7, pc}
 958              		.cfi_endproc
 959              	.LFE47:
 960              		.size	lv_btnm_set_map, .-lv_btnm_set_map
 961              		.section	.text.lv_btnm_set_ctrl_map,"ax",%progbits
 962              		.align	2
 963              		.global	lv_btnm_set_ctrl_map
 964              		.thumb
 965              		.thumb_func
 966              		.type	lv_btnm_set_ctrl_map, %function
 967              	lv_btnm_set_ctrl_map:
 968              	.LFB48:
 263:..\..\..\lvgl\version_6.1.2\lvgl\src\lv_objx/lv_btnm.c **** 
 264:..\..\..\lvgl\version_6.1.2\lvgl\src\lv_objx/lv_btnm.c **** /**
 265:..\..\..\lvgl\version_6.1.2\lvgl\src\lv_objx/lv_btnm.c ****  * Set the button control map (hidden, disabled etc.) for a button matrix. The
 266:..\..\..\lvgl\version_6.1.2\lvgl\src\lv_objx/lv_btnm.c ****  * control map array will be copied and so may be deallocated after this
 267:..\..\..\lvgl\version_6.1.2\lvgl\src\lv_objx/lv_btnm.c ****  * function returns.
 268:..\..\..\lvgl\version_6.1.2\lvgl\src\lv_objx/lv_btnm.c ****  * @param btnm pointer to a button matrix object
 269:..\..\..\lvgl\version_6.1.2\lvgl\src\lv_objx/lv_btnm.c ****  * @param ctrl_map pointer to an array of `lv_btn_ctrl_t` control bytes. The
 270:..\..\..\lvgl\version_6.1.2\lvgl\src\lv_objx/lv_btnm.c ****  *                 length of the array and position of the elements must match
 271:..\..\..\lvgl\version_6.1.2\lvgl\src\lv_objx/lv_btnm.c ****  *                 the number and order of the individual buttons (i.e. excludes
 272:..\..\..\lvgl\version_6.1.2\lvgl\src\lv_objx/lv_btnm.c ****  *                 newline entries).
 273:..\..\..\lvgl\version_6.1.2\lvgl\src\lv_objx/lv_btnm.c ****  *                 An element of the map should look like e.g.:
 274:..\..\..\lvgl\version_6.1.2\lvgl\src\lv_objx/lv_btnm.c ****  *                 `ctrl_map[0] = width | LV_BTNM_CTRL_NO_REPEAT |  LV_BTNM_CTRL_TGL_ENABLE`
 275:..\..\..\lvgl\version_6.1.2\lvgl\src\lv_objx/lv_btnm.c ****  */
 276:..\..\..\lvgl\version_6.1.2\lvgl\src\lv_objx/lv_btnm.c **** void lv_btnm_set_ctrl_map(const lv_obj_t * btnm, const lv_btnm_ctrl_t ctrl_map[])
 277:..\..\..\lvgl\version_6.1.2\lvgl\src\lv_objx/lv_btnm.c **** {
 969              		.loc 2 277 0
 970              		.cfi_startproc
 971              		@ args = 0, pretend = 0, frame = 16
 972              		@ frame_needed = 1, uses_anonymous_args = 0
 973 0000 80B5     		push	{r7, lr}
 974              		.cfi_def_cfa_offset 8
 975              		.cfi_offset 7, -8
 976              		.cfi_offset 14, -4
 977 0002 84B0     		sub	sp, sp, #16
 978              		.cfi_def_cfa_offset 24
 979 0004 00AF     		add	r7, sp, #0
ARM GAS  C:\Users\tmj32\AppData\Local\Temp\ccyJ4BPG.s 			page 25


 980              		.cfi_def_cfa_register 7
 981 0006 7860     		str	r0, [r7, #4]
 982 0008 3960     		str	r1, [r7]
 278:..\..\..\lvgl\version_6.1.2\lvgl\src\lv_objx/lv_btnm.c ****     LV_ASSERT_OBJ(btnm, LV_OBJX_NAME);
 279:..\..\..\lvgl\version_6.1.2\lvgl\src\lv_objx/lv_btnm.c **** 
 280:..\..\..\lvgl\version_6.1.2\lvgl\src\lv_objx/lv_btnm.c ****     lv_btnm_ext_t * ext = lv_obj_get_ext_attr(btnm);
 983              		.loc 2 280 0
 984 000a 7868     		ldr	r0, [r7, #4]
 985 000c FFF7FEFF 		bl	lv_obj_get_ext_attr
 986 0010 F860     		str	r0, [r7, #12]
 281:..\..\..\lvgl\version_6.1.2\lvgl\src\lv_objx/lv_btnm.c ****     memcpy(ext->ctrl_bits, ctrl_map, sizeof(lv_btnm_ctrl_t) * ext->btn_cnt);
 987              		.loc 2 281 0
 988 0012 FB68     		ldr	r3, [r7, #12]
 989 0014 9868     		ldr	r0, [r3, #8]
 990 0016 FB68     		ldr	r3, [r7, #12]
 991 0018 1B8C     		ldrh	r3, [r3, #32]
 992 001a 5B00     		lsls	r3, r3, #1
 993 001c 1A46     		mov	r2, r3
 994 001e 3968     		ldr	r1, [r7]
 995 0020 FFF7FEFF 		bl	memcpy
 282:..\..\..\lvgl\version_6.1.2\lvgl\src\lv_objx/lv_btnm.c **** 
 283:..\..\..\lvgl\version_6.1.2\lvgl\src\lv_objx/lv_btnm.c ****     lv_btnm_set_map(btnm, ext->map_p);
 996              		.loc 2 283 0
 997 0024 FB68     		ldr	r3, [r7, #12]
 998 0026 1B68     		ldr	r3, [r3]
 999 0028 1946     		mov	r1, r3
 1000 002a 7868     		ldr	r0, [r7, #4]
 1001 002c FFF7FEFF 		bl	lv_btnm_set_map
 284:..\..\..\lvgl\version_6.1.2\lvgl\src\lv_objx/lv_btnm.c **** }
 1002              		.loc 2 284 0
 1003 0030 00BF     		nop
 1004 0032 1037     		adds	r7, r7, #16
 1005              		.cfi_def_cfa_offset 8
 1006 0034 BD46     		mov	sp, r7
 1007              		.cfi_def_cfa_register 13
 1008              		@ sp needed
 1009 0036 80BD     		pop	{r7, pc}
 1010              		.cfi_endproc
 1011              	.LFE48:
 1012              		.size	lv_btnm_set_ctrl_map, .-lv_btnm_set_ctrl_map
 1013              		.section	.text.lv_btnm_set_pressed,"ax",%progbits
 1014              		.align	2
 1015              		.global	lv_btnm_set_pressed
 1016              		.thumb
 1017              		.thumb_func
 1018              		.type	lv_btnm_set_pressed, %function
 1019              	lv_btnm_set_pressed:
 1020              	.LFB49:
 285:..\..\..\lvgl\version_6.1.2\lvgl\src\lv_objx/lv_btnm.c **** 
 286:..\..\..\lvgl\version_6.1.2\lvgl\src\lv_objx/lv_btnm.c **** /**
 287:..\..\..\lvgl\version_6.1.2\lvgl\src\lv_objx/lv_btnm.c ****  * Set the pressed button i.e. visually highlight it.
 288:..\..\..\lvgl\version_6.1.2\lvgl\src\lv_objx/lv_btnm.c ****  * Mainly used a when the btnm is in a group to show the selected button
 289:..\..\..\lvgl\version_6.1.2\lvgl\src\lv_objx/lv_btnm.c ****  * @param btnm pointer to button matrix object
 290:..\..\..\lvgl\version_6.1.2\lvgl\src\lv_objx/lv_btnm.c ****  * @param id index of the currently pressed button (`LV_BTNM_BTN_NONE` to unpress)
 291:..\..\..\lvgl\version_6.1.2\lvgl\src\lv_objx/lv_btnm.c ****  */
 292:..\..\..\lvgl\version_6.1.2\lvgl\src\lv_objx/lv_btnm.c **** void lv_btnm_set_pressed(const lv_obj_t * btnm, uint16_t id)
 293:..\..\..\lvgl\version_6.1.2\lvgl\src\lv_objx/lv_btnm.c **** {
ARM GAS  C:\Users\tmj32\AppData\Local\Temp\ccyJ4BPG.s 			page 26


 1021              		.loc 2 293 0
 1022              		.cfi_startproc
 1023              		@ args = 0, pretend = 0, frame = 16
 1024              		@ frame_needed = 1, uses_anonymous_args = 0
 1025 0000 80B5     		push	{r7, lr}
 1026              		.cfi_def_cfa_offset 8
 1027              		.cfi_offset 7, -8
 1028              		.cfi_offset 14, -4
 1029 0002 84B0     		sub	sp, sp, #16
 1030              		.cfi_def_cfa_offset 24
 1031 0004 00AF     		add	r7, sp, #0
 1032              		.cfi_def_cfa_register 7
 1033 0006 7860     		str	r0, [r7, #4]
 1034 0008 0B46     		mov	r3, r1
 1035 000a 7B80     		strh	r3, [r7, #2]	@ movhi
 294:..\..\..\lvgl\version_6.1.2\lvgl\src\lv_objx/lv_btnm.c ****     LV_ASSERT_OBJ(btnm, LV_OBJX_NAME);
 295:..\..\..\lvgl\version_6.1.2\lvgl\src\lv_objx/lv_btnm.c **** 
 296:..\..\..\lvgl\version_6.1.2\lvgl\src\lv_objx/lv_btnm.c ****     lv_btnm_ext_t * ext = lv_obj_get_ext_attr(btnm);
 1036              		.loc 2 296 0
 1037 000c 7868     		ldr	r0, [r7, #4]
 1038 000e FFF7FEFF 		bl	lv_obj_get_ext_attr
 1039 0012 F860     		str	r0, [r7, #12]
 297:..\..\..\lvgl\version_6.1.2\lvgl\src\lv_objx/lv_btnm.c **** 
 298:..\..\..\lvgl\version_6.1.2\lvgl\src\lv_objx/lv_btnm.c ****     if(id >= ext->btn_cnt && id != LV_BTNM_BTN_NONE) return;
 1040              		.loc 2 298 0
 1041 0014 FB68     		ldr	r3, [r7, #12]
 1042 0016 1B8C     		ldrh	r3, [r3, #32]
 1043 0018 7A88     		ldrh	r2, [r7, #2]
 1044 001a 9A42     		cmp	r2, r3
 1045 001c 04D3     		bcc	.L43
 1046              		.loc 2 298 0 is_stmt 0 discriminator 1
 1047 001e 7B88     		ldrh	r3, [r7, #2]
 1048 0020 4FF6FF72 		movw	r2, #65535
 1049 0024 9342     		cmp	r3, r2
 1050 0026 0BD1     		bne	.L46
 1051              	.L43:
 299:..\..\..\lvgl\version_6.1.2\lvgl\src\lv_objx/lv_btnm.c **** 
 300:..\..\..\lvgl\version_6.1.2\lvgl\src\lv_objx/lv_btnm.c ****     if(id == ext->btn_id_pr) return;
 1052              		.loc 2 300 0 is_stmt 1
 1053 0028 FB68     		ldr	r3, [r7, #12]
 1054 002a 5B8C     		ldrh	r3, [r3, #34]
 1055 002c 7A88     		ldrh	r2, [r7, #2]
 1056 002e 9A42     		cmp	r2, r3
 1057 0030 08D0     		beq	.L47
 301:..\..\..\lvgl\version_6.1.2\lvgl\src\lv_objx/lv_btnm.c **** 
 302:..\..\..\lvgl\version_6.1.2\lvgl\src\lv_objx/lv_btnm.c ****     ext->btn_id_pr = id;
 1058              		.loc 2 302 0
 1059 0032 FB68     		ldr	r3, [r7, #12]
 1060 0034 7A88     		ldrh	r2, [r7, #2]	@ movhi
 1061 0036 5A84     		strh	r2, [r3, #34]	@ movhi
 303:..\..\..\lvgl\version_6.1.2\lvgl\src\lv_objx/lv_btnm.c ****     lv_obj_invalidate(btnm);
 1062              		.loc 2 303 0
 1063 0038 7868     		ldr	r0, [r7, #4]
 1064 003a FFF7FEFF 		bl	lv_obj_invalidate
 1065 003e 02E0     		b	.L42
 1066              	.L46:
 298:..\..\..\lvgl\version_6.1.2\lvgl\src\lv_objx/lv_btnm.c **** 
ARM GAS  C:\Users\tmj32\AppData\Local\Temp\ccyJ4BPG.s 			page 27


 1067              		.loc 2 298 0
 1068 0040 00BF     		nop
 1069 0042 00E0     		b	.L42
 1070              	.L47:
 300:..\..\..\lvgl\version_6.1.2\lvgl\src\lv_objx/lv_btnm.c **** 
 1071              		.loc 2 300 0
 1072 0044 00BF     		nop
 1073              	.L42:
 304:..\..\..\lvgl\version_6.1.2\lvgl\src\lv_objx/lv_btnm.c **** }
 1074              		.loc 2 304 0
 1075 0046 1037     		adds	r7, r7, #16
 1076              		.cfi_def_cfa_offset 8
 1077 0048 BD46     		mov	sp, r7
 1078              		.cfi_def_cfa_register 13
 1079              		@ sp needed
 1080 004a 80BD     		pop	{r7, pc}
 1081              		.cfi_endproc
 1082              	.LFE49:
 1083              		.size	lv_btnm_set_pressed, .-lv_btnm_set_pressed
 1084              		.section	.text.lv_btnm_set_style,"ax",%progbits
 1085              		.align	2
 1086              		.global	lv_btnm_set_style
 1087              		.thumb
 1088              		.thumb_func
 1089              		.type	lv_btnm_set_style, %function
 1090              	lv_btnm_set_style:
 1091              	.LFB50:
 305:..\..\..\lvgl\version_6.1.2\lvgl\src\lv_objx/lv_btnm.c **** 
 306:..\..\..\lvgl\version_6.1.2\lvgl\src\lv_objx/lv_btnm.c **** /**
 307:..\..\..\lvgl\version_6.1.2\lvgl\src\lv_objx/lv_btnm.c ****  * Set a style of a button matrix
 308:..\..\..\lvgl\version_6.1.2\lvgl\src\lv_objx/lv_btnm.c ****  * @param btnm pointer to a button matrix object
 309:..\..\..\lvgl\version_6.1.2\lvgl\src\lv_objx/lv_btnm.c ****  * @param type which style should be set
 310:..\..\..\lvgl\version_6.1.2\lvgl\src\lv_objx/lv_btnm.c ****  * @param style pointer to a style
 311:..\..\..\lvgl\version_6.1.2\lvgl\src\lv_objx/lv_btnm.c ****  */
 312:..\..\..\lvgl\version_6.1.2\lvgl\src\lv_objx/lv_btnm.c **** void lv_btnm_set_style(lv_obj_t * btnm, lv_btnm_style_t type, const lv_style_t * style)
 313:..\..\..\lvgl\version_6.1.2\lvgl\src\lv_objx/lv_btnm.c **** {
 1092              		.loc 2 313 0
 1093              		.cfi_startproc
 1094              		@ args = 0, pretend = 0, frame = 24
 1095              		@ frame_needed = 1, uses_anonymous_args = 0
 1096 0000 80B5     		push	{r7, lr}
 1097              		.cfi_def_cfa_offset 8
 1098              		.cfi_offset 7, -8
 1099              		.cfi_offset 14, -4
 1100 0002 86B0     		sub	sp, sp, #24
 1101              		.cfi_def_cfa_offset 32
 1102 0004 00AF     		add	r7, sp, #0
 1103              		.cfi_def_cfa_register 7
 1104 0006 F860     		str	r0, [r7, #12]
 1105 0008 0B46     		mov	r3, r1
 1106 000a 7A60     		str	r2, [r7, #4]
 1107 000c FB72     		strb	r3, [r7, #11]
 314:..\..\..\lvgl\version_6.1.2\lvgl\src\lv_objx/lv_btnm.c ****     LV_ASSERT_OBJ(btnm, LV_OBJX_NAME);
 315:..\..\..\lvgl\version_6.1.2\lvgl\src\lv_objx/lv_btnm.c **** 
 316:..\..\..\lvgl\version_6.1.2\lvgl\src\lv_objx/lv_btnm.c ****     lv_btnm_ext_t * ext = lv_obj_get_ext_attr(btnm);
 1108              		.loc 2 316 0
 1109 000e F868     		ldr	r0, [r7, #12]
ARM GAS  C:\Users\tmj32\AppData\Local\Temp\ccyJ4BPG.s 			page 28


 1110 0010 FFF7FEFF 		bl	lv_obj_get_ext_attr
 1111 0014 7861     		str	r0, [r7, #20]
 317:..\..\..\lvgl\version_6.1.2\lvgl\src\lv_objx/lv_btnm.c **** 
 318:..\..\..\lvgl\version_6.1.2\lvgl\src\lv_objx/lv_btnm.c ****     switch(type) {
 1112              		.loc 2 318 0
 1113 0016 FB7A     		ldrb	r3, [r7, #11]	@ zero_extendqisi2
 1114 0018 052B     		cmp	r3, #5
 1115 001a 37D8     		bhi	.L57
 1116 001c 01A2     		adr	r2, .L51
 1117 001e 52F823F0 		ldr	pc, [r2, r3, lsl #2]
 1118 0022 00BF     		.p2align 2
 1119              	.L51:
 1120 0024 3D000000 		.word	.L50+1
 1121 0028 47000000 		.word	.L52+1
 1122 002c 55000000 		.word	.L53+1
 1123 0030 63000000 		.word	.L54+1
 1124 0034 71000000 		.word	.L55+1
 1125 0038 7F000000 		.word	.L56+1
 1126              		.p2align 1
 1127              	.L50:
 319:..\..\..\lvgl\version_6.1.2\lvgl\src\lv_objx/lv_btnm.c ****         case LV_BTNM_STYLE_BG: lv_obj_set_style(btnm, style); break;
 1128              		.loc 2 319 0
 1129 003c 7968     		ldr	r1, [r7, #4]
 1130 003e F868     		ldr	r0, [r7, #12]
 1131 0040 FFF7FEFF 		bl	lv_obj_set_style
 1132 0044 22E0     		b	.L49
 1133              	.L52:
 320:..\..\..\lvgl\version_6.1.2\lvgl\src\lv_objx/lv_btnm.c ****         case LV_BTNM_STYLE_BTN_REL:
 321:..\..\..\lvgl\version_6.1.2\lvgl\src\lv_objx/lv_btnm.c ****             ext->styles_btn[LV_BTN_STATE_REL] = style;
 1134              		.loc 2 321 0
 1135 0046 7B69     		ldr	r3, [r7, #20]
 1136 0048 7A68     		ldr	r2, [r7, #4]
 1137 004a DA60     		str	r2, [r3, #12]
 322:..\..\..\lvgl\version_6.1.2\lvgl\src\lv_objx/lv_btnm.c ****             lv_obj_invalidate(btnm);
 1138              		.loc 2 322 0
 1139 004c F868     		ldr	r0, [r7, #12]
 1140 004e FFF7FEFF 		bl	lv_obj_invalidate
 323:..\..\..\lvgl\version_6.1.2\lvgl\src\lv_objx/lv_btnm.c ****             break;
 1141              		.loc 2 323 0
 1142 0052 1BE0     		b	.L49
 1143              	.L53:
 324:..\..\..\lvgl\version_6.1.2\lvgl\src\lv_objx/lv_btnm.c ****         case LV_BTNM_STYLE_BTN_PR:
 325:..\..\..\lvgl\version_6.1.2\lvgl\src\lv_objx/lv_btnm.c ****             ext->styles_btn[LV_BTN_STATE_PR] = style;
 1144              		.loc 2 325 0
 1145 0054 7B69     		ldr	r3, [r7, #20]
 1146 0056 7A68     		ldr	r2, [r7, #4]
 1147 0058 1A61     		str	r2, [r3, #16]
 326:..\..\..\lvgl\version_6.1.2\lvgl\src\lv_objx/lv_btnm.c ****             lv_obj_invalidate(btnm);
 1148              		.loc 2 326 0
 1149 005a F868     		ldr	r0, [r7, #12]
 1150 005c FFF7FEFF 		bl	lv_obj_invalidate
 327:..\..\..\lvgl\version_6.1.2\lvgl\src\lv_objx/lv_btnm.c ****             break;
 1151              		.loc 2 327 0
 1152 0060 14E0     		b	.L49
 1153              	.L54:
 328:..\..\..\lvgl\version_6.1.2\lvgl\src\lv_objx/lv_btnm.c ****         case LV_BTNM_STYLE_BTN_TGL_REL:
 329:..\..\..\lvgl\version_6.1.2\lvgl\src\lv_objx/lv_btnm.c ****             ext->styles_btn[LV_BTN_STATE_TGL_REL] = style;
ARM GAS  C:\Users\tmj32\AppData\Local\Temp\ccyJ4BPG.s 			page 29


 1154              		.loc 2 329 0
 1155 0062 7B69     		ldr	r3, [r7, #20]
 1156 0064 7A68     		ldr	r2, [r7, #4]
 1157 0066 5A61     		str	r2, [r3, #20]
 330:..\..\..\lvgl\version_6.1.2\lvgl\src\lv_objx/lv_btnm.c ****             lv_obj_invalidate(btnm);
 1158              		.loc 2 330 0
 1159 0068 F868     		ldr	r0, [r7, #12]
 1160 006a FFF7FEFF 		bl	lv_obj_invalidate
 331:..\..\..\lvgl\version_6.1.2\lvgl\src\lv_objx/lv_btnm.c ****             break;
 1161              		.loc 2 331 0
 1162 006e 0DE0     		b	.L49
 1163              	.L55:
 332:..\..\..\lvgl\version_6.1.2\lvgl\src\lv_objx/lv_btnm.c ****         case LV_BTNM_STYLE_BTN_TGL_PR:
 333:..\..\..\lvgl\version_6.1.2\lvgl\src\lv_objx/lv_btnm.c ****             ext->styles_btn[LV_BTN_STATE_TGL_PR] = style;
 1164              		.loc 2 333 0
 1165 0070 7B69     		ldr	r3, [r7, #20]
 1166 0072 7A68     		ldr	r2, [r7, #4]
 1167 0074 9A61     		str	r2, [r3, #24]
 334:..\..\..\lvgl\version_6.1.2\lvgl\src\lv_objx/lv_btnm.c ****             lv_obj_invalidate(btnm);
 1168              		.loc 2 334 0
 1169 0076 F868     		ldr	r0, [r7, #12]
 1170 0078 FFF7FEFF 		bl	lv_obj_invalidate
 335:..\..\..\lvgl\version_6.1.2\lvgl\src\lv_objx/lv_btnm.c ****             break;
 1171              		.loc 2 335 0
 1172 007c 06E0     		b	.L49
 1173              	.L56:
 336:..\..\..\lvgl\version_6.1.2\lvgl\src\lv_objx/lv_btnm.c ****         case LV_BTNM_STYLE_BTN_INA:
 337:..\..\..\lvgl\version_6.1.2\lvgl\src\lv_objx/lv_btnm.c ****             ext->styles_btn[LV_BTN_STATE_INA] = style;
 1174              		.loc 2 337 0
 1175 007e 7B69     		ldr	r3, [r7, #20]
 1176 0080 7A68     		ldr	r2, [r7, #4]
 1177 0082 DA61     		str	r2, [r3, #28]
 338:..\..\..\lvgl\version_6.1.2\lvgl\src\lv_objx/lv_btnm.c ****             lv_obj_invalidate(btnm);
 1178              		.loc 2 338 0
 1179 0084 F868     		ldr	r0, [r7, #12]
 1180 0086 FFF7FEFF 		bl	lv_obj_invalidate
 339:..\..\..\lvgl\version_6.1.2\lvgl\src\lv_objx/lv_btnm.c ****             break;
 1181              		.loc 2 339 0
 1182 008a 00BF     		nop
 1183              	.L49:
 1184              	.L57:
 340:..\..\..\lvgl\version_6.1.2\lvgl\src\lv_objx/lv_btnm.c ****     }
 341:..\..\..\lvgl\version_6.1.2\lvgl\src\lv_objx/lv_btnm.c **** }
 1185              		.loc 2 341 0
 1186 008c 00BF     		nop
 1187 008e 1837     		adds	r7, r7, #24
 1188              		.cfi_def_cfa_offset 8
 1189 0090 BD46     		mov	sp, r7
 1190              		.cfi_def_cfa_register 13
 1191              		@ sp needed
 1192 0092 80BD     		pop	{r7, pc}
 1193              		.cfi_endproc
 1194              	.LFE50:
 1195              		.size	lv_btnm_set_style, .-lv_btnm_set_style
 1196              		.section	.text.lv_btnm_set_recolor,"ax",%progbits
 1197              		.align	2
 1198              		.global	lv_btnm_set_recolor
ARM GAS  C:\Users\tmj32\AppData\Local\Temp\ccyJ4BPG.s 			page 30


 1199              		.thumb
 1200              		.thumb_func
 1201              		.type	lv_btnm_set_recolor, %function
 1202              	lv_btnm_set_recolor:
 1203              	.LFB51:
 342:..\..\..\lvgl\version_6.1.2\lvgl\src\lv_objx/lv_btnm.c **** 
 343:..\..\..\lvgl\version_6.1.2\lvgl\src\lv_objx/lv_btnm.c **** /**
 344:..\..\..\lvgl\version_6.1.2\lvgl\src\lv_objx/lv_btnm.c ****  * Enable recoloring of button's texts
 345:..\..\..\lvgl\version_6.1.2\lvgl\src\lv_objx/lv_btnm.c ****  * @param btnm pointer to button matrix object
 346:..\..\..\lvgl\version_6.1.2\lvgl\src\lv_objx/lv_btnm.c ****  * @param en true: enable recoloring; false: disable
 347:..\..\..\lvgl\version_6.1.2\lvgl\src\lv_objx/lv_btnm.c ****  */
 348:..\..\..\lvgl\version_6.1.2\lvgl\src\lv_objx/lv_btnm.c **** void lv_btnm_set_recolor(const lv_obj_t * btnm, bool en)
 349:..\..\..\lvgl\version_6.1.2\lvgl\src\lv_objx/lv_btnm.c **** {
 1204              		.loc 2 349 0
 1205              		.cfi_startproc
 1206              		@ args = 0, pretend = 0, frame = 16
 1207              		@ frame_needed = 1, uses_anonymous_args = 0
 1208 0000 80B5     		push	{r7, lr}
 1209              		.cfi_def_cfa_offset 8
 1210              		.cfi_offset 7, -8
 1211              		.cfi_offset 14, -4
 1212 0002 84B0     		sub	sp, sp, #16
 1213              		.cfi_def_cfa_offset 24
 1214 0004 00AF     		add	r7, sp, #0
 1215              		.cfi_def_cfa_register 7
 1216 0006 7860     		str	r0, [r7, #4]
 1217 0008 0B46     		mov	r3, r1
 1218 000a FB70     		strb	r3, [r7, #3]
 350:..\..\..\lvgl\version_6.1.2\lvgl\src\lv_objx/lv_btnm.c ****     LV_ASSERT_OBJ(btnm, LV_OBJX_NAME);
 351:..\..\..\lvgl\version_6.1.2\lvgl\src\lv_objx/lv_btnm.c **** 
 352:..\..\..\lvgl\version_6.1.2\lvgl\src\lv_objx/lv_btnm.c ****     lv_btnm_ext_t * ext = lv_obj_get_ext_attr(btnm);
 1219              		.loc 2 352 0
 1220 000c 7868     		ldr	r0, [r7, #4]
 1221 000e FFF7FEFF 		bl	lv_obj_get_ext_attr
 1222 0012 F860     		str	r0, [r7, #12]
 353:..\..\..\lvgl\version_6.1.2\lvgl\src\lv_objx/lv_btnm.c **** 
 354:..\..\..\lvgl\version_6.1.2\lvgl\src\lv_objx/lv_btnm.c ****     ext->recolor = en;
 1223              		.loc 2 354 0
 1224 0014 FA68     		ldr	r2, [r7, #12]
 1225 0016 92F82630 		ldrb	r3, [r2, #38]
 1226 001a F978     		ldrb	r1, [r7, #3]
 1227 001c 61F30003 		bfi	r3, r1, #0, #1
 1228 0020 82F82630 		strb	r3, [r2, #38]
 355:..\..\..\lvgl\version_6.1.2\lvgl\src\lv_objx/lv_btnm.c ****     lv_obj_invalidate(btnm);
 1229              		.loc 2 355 0
 1230 0024 7868     		ldr	r0, [r7, #4]
 1231 0026 FFF7FEFF 		bl	lv_obj_invalidate
 356:..\..\..\lvgl\version_6.1.2\lvgl\src\lv_objx/lv_btnm.c **** }
 1232              		.loc 2 356 0
 1233 002a 00BF     		nop
 1234 002c 1037     		adds	r7, r7, #16
 1235              		.cfi_def_cfa_offset 8
 1236 002e BD46     		mov	sp, r7
 1237              		.cfi_def_cfa_register 13
 1238              		@ sp needed
 1239 0030 80BD     		pop	{r7, pc}
 1240              		.cfi_endproc
ARM GAS  C:\Users\tmj32\AppData\Local\Temp\ccyJ4BPG.s 			page 31


 1241              	.LFE51:
 1242              		.size	lv_btnm_set_recolor, .-lv_btnm_set_recolor
 1243 0032 00BF     		.section	.text.lv_btnm_set_btn_ctrl,"ax",%progbits
 1244              		.align	2
 1245              		.global	lv_btnm_set_btn_ctrl
 1246              		.thumb
 1247              		.thumb_func
 1248              		.type	lv_btnm_set_btn_ctrl, %function
 1249              	lv_btnm_set_btn_ctrl:
 1250              	.LFB52:
 357:..\..\..\lvgl\version_6.1.2\lvgl\src\lv_objx/lv_btnm.c **** 
 358:..\..\..\lvgl\version_6.1.2\lvgl\src\lv_objx/lv_btnm.c **** /**
 359:..\..\..\lvgl\version_6.1.2\lvgl\src\lv_objx/lv_btnm.c ****  * Set the attributes of a button of the button matrix
 360:..\..\..\lvgl\version_6.1.2\lvgl\src\lv_objx/lv_btnm.c ****  * @param btnm pointer to button matrix object
 361:..\..\..\lvgl\version_6.1.2\lvgl\src\lv_objx/lv_btnm.c ****  * @param btn_id 0 based index of the button to modify. (Not counting new lines)
 362:..\..\..\lvgl\version_6.1.2\lvgl\src\lv_objx/lv_btnm.c ****  */
 363:..\..\..\lvgl\version_6.1.2\lvgl\src\lv_objx/lv_btnm.c **** void lv_btnm_set_btn_ctrl(const lv_obj_t * btnm, uint16_t btn_id, lv_btnm_ctrl_t ctrl)
 364:..\..\..\lvgl\version_6.1.2\lvgl\src\lv_objx/lv_btnm.c **** {
 1251              		.loc 2 364 0
 1252              		.cfi_startproc
 1253              		@ args = 0, pretend = 0, frame = 16
 1254              		@ frame_needed = 1, uses_anonymous_args = 0
 1255 0000 80B5     		push	{r7, lr}
 1256              		.cfi_def_cfa_offset 8
 1257              		.cfi_offset 7, -8
 1258              		.cfi_offset 14, -4
 1259 0002 84B0     		sub	sp, sp, #16
 1260              		.cfi_def_cfa_offset 24
 1261 0004 00AF     		add	r7, sp, #0
 1262              		.cfi_def_cfa_register 7
 1263 0006 7860     		str	r0, [r7, #4]
 1264 0008 0B46     		mov	r3, r1
 1265 000a 7B80     		strh	r3, [r7, #2]	@ movhi
 1266 000c 1346     		mov	r3, r2	@ movhi
 1267 000e 3B80     		strh	r3, [r7]	@ movhi
 365:..\..\..\lvgl\version_6.1.2\lvgl\src\lv_objx/lv_btnm.c ****     LV_ASSERT_OBJ(btnm, LV_OBJX_NAME);
 366:..\..\..\lvgl\version_6.1.2\lvgl\src\lv_objx/lv_btnm.c **** 
 367:..\..\..\lvgl\version_6.1.2\lvgl\src\lv_objx/lv_btnm.c ****     lv_btnm_ext_t * ext = lv_obj_get_ext_attr(btnm);
 1268              		.loc 2 367 0
 1269 0010 7868     		ldr	r0, [r7, #4]
 1270 0012 FFF7FEFF 		bl	lv_obj_get_ext_attr
 1271 0016 F860     		str	r0, [r7, #12]
 368:..\..\..\lvgl\version_6.1.2\lvgl\src\lv_objx/lv_btnm.c **** 
 369:..\..\..\lvgl\version_6.1.2\lvgl\src\lv_objx/lv_btnm.c ****     if(btn_id >= ext->btn_cnt) return;
 1272              		.loc 2 369 0
 1273 0018 FB68     		ldr	r3, [r7, #12]
 1274 001a 1B8C     		ldrh	r3, [r3, #32]
 1275 001c 7A88     		ldrh	r2, [r7, #2]
 1276 001e 9A42     		cmp	r2, r3
 1277 0020 14D2     		bcs	.L62
 370:..\..\..\lvgl\version_6.1.2\lvgl\src\lv_objx/lv_btnm.c **** 
 371:..\..\..\lvgl\version_6.1.2\lvgl\src\lv_objx/lv_btnm.c ****     ext->ctrl_bits[btn_id] |= ctrl;
 1278              		.loc 2 371 0
 1279 0022 FB68     		ldr	r3, [r7, #12]
 1280 0024 9A68     		ldr	r2, [r3, #8]
 1281 0026 7B88     		ldrh	r3, [r7, #2]
 1282 0028 5B00     		lsls	r3, r3, #1
ARM GAS  C:\Users\tmj32\AppData\Local\Temp\ccyJ4BPG.s 			page 32


 1283 002a 1344     		add	r3, r3, r2
 1284 002c FA68     		ldr	r2, [r7, #12]
 1285 002e 9168     		ldr	r1, [r2, #8]
 1286 0030 7A88     		ldrh	r2, [r7, #2]
 1287 0032 5200     		lsls	r2, r2, #1
 1288 0034 0A44     		add	r2, r2, r1
 1289 0036 1188     		ldrh	r1, [r2]
 1290 0038 3A88     		ldrh	r2, [r7]	@ movhi
 1291 003a 0A43     		orrs	r2, r2, r1
 1292 003c 92B2     		uxth	r2, r2
 1293 003e 1A80     		strh	r2, [r3]	@ movhi
 372:..\..\..\lvgl\version_6.1.2\lvgl\src\lv_objx/lv_btnm.c ****     invalidate_button_area(btnm, btn_id);
 1294              		.loc 2 372 0
 1295 0040 7B88     		ldrh	r3, [r7, #2]
 1296 0042 1946     		mov	r1, r3
 1297 0044 7868     		ldr	r0, [r7, #4]
 1298 0046 FFF7FEFF 		bl	invalidate_button_area
 1299 004a 00E0     		b	.L59
 1300              	.L62:
 369:..\..\..\lvgl\version_6.1.2\lvgl\src\lv_objx/lv_btnm.c **** 
 1301              		.loc 2 369 0
 1302 004c 00BF     		nop
 1303              	.L59:
 373:..\..\..\lvgl\version_6.1.2\lvgl\src\lv_objx/lv_btnm.c **** }
 1304              		.loc 2 373 0
 1305 004e 1037     		adds	r7, r7, #16
 1306              		.cfi_def_cfa_offset 8
 1307 0050 BD46     		mov	sp, r7
 1308              		.cfi_def_cfa_register 13
 1309              		@ sp needed
 1310 0052 80BD     		pop	{r7, pc}
 1311              		.cfi_endproc
 1312              	.LFE52:
 1313              		.size	lv_btnm_set_btn_ctrl, .-lv_btnm_set_btn_ctrl
 1314              		.section	.text.lv_btnm_clear_btn_ctrl,"ax",%progbits
 1315              		.align	2
 1316              		.global	lv_btnm_clear_btn_ctrl
 1317              		.thumb
 1318              		.thumb_func
 1319              		.type	lv_btnm_clear_btn_ctrl, %function
 1320              	lv_btnm_clear_btn_ctrl:
 1321              	.LFB53:
 374:..\..\..\lvgl\version_6.1.2\lvgl\src\lv_objx/lv_btnm.c **** 
 375:..\..\..\lvgl\version_6.1.2\lvgl\src\lv_objx/lv_btnm.c **** /**
 376:..\..\..\lvgl\version_6.1.2\lvgl\src\lv_objx/lv_btnm.c ****  * Clear the attributes of a button of the button matrix
 377:..\..\..\lvgl\version_6.1.2\lvgl\src\lv_objx/lv_btnm.c ****  * @param btnm pointer to button matrix object
 378:..\..\..\lvgl\version_6.1.2\lvgl\src\lv_objx/lv_btnm.c ****  * @param btn_id 0 based index of the button to modify. (Not counting new lines)
 379:..\..\..\lvgl\version_6.1.2\lvgl\src\lv_objx/lv_btnm.c ****  */
 380:..\..\..\lvgl\version_6.1.2\lvgl\src\lv_objx/lv_btnm.c **** void lv_btnm_clear_btn_ctrl(const lv_obj_t * btnm, uint16_t btn_id, lv_btnm_ctrl_t ctrl)
 381:..\..\..\lvgl\version_6.1.2\lvgl\src\lv_objx/lv_btnm.c **** {
 1322              		.loc 2 381 0
 1323              		.cfi_startproc
 1324              		@ args = 0, pretend = 0, frame = 16
 1325              		@ frame_needed = 1, uses_anonymous_args = 0
 1326 0000 80B5     		push	{r7, lr}
 1327              		.cfi_def_cfa_offset 8
 1328              		.cfi_offset 7, -8
ARM GAS  C:\Users\tmj32\AppData\Local\Temp\ccyJ4BPG.s 			page 33


 1329              		.cfi_offset 14, -4
 1330 0002 84B0     		sub	sp, sp, #16
 1331              		.cfi_def_cfa_offset 24
 1332 0004 00AF     		add	r7, sp, #0
 1333              		.cfi_def_cfa_register 7
 1334 0006 7860     		str	r0, [r7, #4]
 1335 0008 0B46     		mov	r3, r1
 1336 000a 7B80     		strh	r3, [r7, #2]	@ movhi
 1337 000c 1346     		mov	r3, r2	@ movhi
 1338 000e 3B80     		strh	r3, [r7]	@ movhi
 382:..\..\..\lvgl\version_6.1.2\lvgl\src\lv_objx/lv_btnm.c ****     LV_ASSERT_OBJ(btnm, LV_OBJX_NAME);
 383:..\..\..\lvgl\version_6.1.2\lvgl\src\lv_objx/lv_btnm.c **** 
 384:..\..\..\lvgl\version_6.1.2\lvgl\src\lv_objx/lv_btnm.c ****     lv_btnm_ext_t * ext = lv_obj_get_ext_attr(btnm);
 1339              		.loc 2 384 0
 1340 0010 7868     		ldr	r0, [r7, #4]
 1341 0012 FFF7FEFF 		bl	lv_obj_get_ext_attr
 1342 0016 F860     		str	r0, [r7, #12]
 385:..\..\..\lvgl\version_6.1.2\lvgl\src\lv_objx/lv_btnm.c **** 
 386:..\..\..\lvgl\version_6.1.2\lvgl\src\lv_objx/lv_btnm.c ****     if(btn_id >= ext->btn_cnt) return;
 1343              		.loc 2 386 0
 1344 0018 FB68     		ldr	r3, [r7, #12]
 1345 001a 1B8C     		ldrh	r3, [r3, #32]
 1346 001c 7A88     		ldrh	r2, [r7, #2]
 1347 001e 9A42     		cmp	r2, r3
 1348 0020 19D2     		bcs	.L66
 387:..\..\..\lvgl\version_6.1.2\lvgl\src\lv_objx/lv_btnm.c **** 
 388:..\..\..\lvgl\version_6.1.2\lvgl\src\lv_objx/lv_btnm.c ****     ext->ctrl_bits[btn_id] &= (~ctrl);
 1349              		.loc 2 388 0
 1350 0022 FB68     		ldr	r3, [r7, #12]
 1351 0024 9A68     		ldr	r2, [r3, #8]
 1352 0026 7B88     		ldrh	r3, [r7, #2]
 1353 0028 5B00     		lsls	r3, r3, #1
 1354 002a 1344     		add	r3, r3, r2
 1355 002c FA68     		ldr	r2, [r7, #12]
 1356 002e 9168     		ldr	r1, [r2, #8]
 1357 0030 7A88     		ldrh	r2, [r7, #2]
 1358 0032 5200     		lsls	r2, r2, #1
 1359 0034 0A44     		add	r2, r2, r1
 1360 0036 1288     		ldrh	r2, [r2]
 1361 0038 11B2     		sxth	r1, r2
 1362 003a B7F90020 		ldrsh	r2, [r7]
 1363 003e D243     		mvns	r2, r2
 1364 0040 12B2     		sxth	r2, r2
 1365 0042 0A40     		ands	r2, r2, r1
 1366 0044 12B2     		sxth	r2, r2
 1367 0046 92B2     		uxth	r2, r2
 1368 0048 1A80     		strh	r2, [r3]	@ movhi
 389:..\..\..\lvgl\version_6.1.2\lvgl\src\lv_objx/lv_btnm.c ****     invalidate_button_area(btnm, btn_id);
 1369              		.loc 2 389 0
 1370 004a 7B88     		ldrh	r3, [r7, #2]
 1371 004c 1946     		mov	r1, r3
 1372 004e 7868     		ldr	r0, [r7, #4]
 1373 0050 FFF7FEFF 		bl	invalidate_button_area
 1374 0054 00E0     		b	.L63
 1375              	.L66:
 386:..\..\..\lvgl\version_6.1.2\lvgl\src\lv_objx/lv_btnm.c **** 
 1376              		.loc 2 386 0
ARM GAS  C:\Users\tmj32\AppData\Local\Temp\ccyJ4BPG.s 			page 34


 1377 0056 00BF     		nop
 1378              	.L63:
 390:..\..\..\lvgl\version_6.1.2\lvgl\src\lv_objx/lv_btnm.c **** }
 1379              		.loc 2 390 0
 1380 0058 1037     		adds	r7, r7, #16
 1381              		.cfi_def_cfa_offset 8
 1382 005a BD46     		mov	sp, r7
 1383              		.cfi_def_cfa_register 13
 1384              		@ sp needed
 1385 005c 80BD     		pop	{r7, pc}
 1386              		.cfi_endproc
 1387              	.LFE53:
 1388              		.size	lv_btnm_clear_btn_ctrl, .-lv_btnm_clear_btn_ctrl
 1389 005e 00BF     		.section	.text.lv_btnm_set_btn_ctrl_all,"ax",%progbits
 1390              		.align	2
 1391              		.global	lv_btnm_set_btn_ctrl_all
 1392              		.thumb
 1393              		.thumb_func
 1394              		.type	lv_btnm_set_btn_ctrl_all, %function
 1395              	lv_btnm_set_btn_ctrl_all:
 1396              	.LFB54:
 391:..\..\..\lvgl\version_6.1.2\lvgl\src\lv_objx/lv_btnm.c **** 
 392:..\..\..\lvgl\version_6.1.2\lvgl\src\lv_objx/lv_btnm.c **** /**
 393:..\..\..\lvgl\version_6.1.2\lvgl\src\lv_objx/lv_btnm.c ****  * Set the attributes of all buttons of a button matrix
 394:..\..\..\lvgl\version_6.1.2\lvgl\src\lv_objx/lv_btnm.c ****  * @param btnm pointer to a button matrix object
 395:..\..\..\lvgl\version_6.1.2\lvgl\src\lv_objx/lv_btnm.c ****  * @param ctrl attribute(s) to set from `lv_btnm_ctrl_t`. Values can be ORed.
 396:..\..\..\lvgl\version_6.1.2\lvgl\src\lv_objx/lv_btnm.c ****  */
 397:..\..\..\lvgl\version_6.1.2\lvgl\src\lv_objx/lv_btnm.c **** void lv_btnm_set_btn_ctrl_all(lv_obj_t * btnm, lv_btnm_ctrl_t ctrl)
 398:..\..\..\lvgl\version_6.1.2\lvgl\src\lv_objx/lv_btnm.c **** {
 1397              		.loc 2 398 0
 1398              		.cfi_startproc
 1399              		@ args = 0, pretend = 0, frame = 16
 1400              		@ frame_needed = 1, uses_anonymous_args = 0
 1401 0000 80B5     		push	{r7, lr}
 1402              		.cfi_def_cfa_offset 8
 1403              		.cfi_offset 7, -8
 1404              		.cfi_offset 14, -4
 1405 0002 84B0     		sub	sp, sp, #16
 1406              		.cfi_def_cfa_offset 24
 1407 0004 00AF     		add	r7, sp, #0
 1408              		.cfi_def_cfa_register 7
 1409 0006 7860     		str	r0, [r7, #4]
 1410 0008 0B46     		mov	r3, r1
 1411 000a 7B80     		strh	r3, [r7, #2]	@ movhi
 399:..\..\..\lvgl\version_6.1.2\lvgl\src\lv_objx/lv_btnm.c ****     LV_ASSERT_OBJ(btnm, LV_OBJX_NAME);
 400:..\..\..\lvgl\version_6.1.2\lvgl\src\lv_objx/lv_btnm.c **** 
 401:..\..\..\lvgl\version_6.1.2\lvgl\src\lv_objx/lv_btnm.c ****     lv_btnm_ext_t * ext = lv_obj_get_ext_attr(btnm);
 1412              		.loc 2 401 0
 1413 000c 7868     		ldr	r0, [r7, #4]
 1414 000e FFF7FEFF 		bl	lv_obj_get_ext_attr
 1415 0012 B860     		str	r0, [r7, #8]
 402:..\..\..\lvgl\version_6.1.2\lvgl\src\lv_objx/lv_btnm.c ****     uint16_t i;
 403:..\..\..\lvgl\version_6.1.2\lvgl\src\lv_objx/lv_btnm.c ****     for(i = 0; i < ext->btn_cnt; i++) {
 1416              		.loc 2 403 0
 1417 0014 0023     		movs	r3, #0
 1418 0016 FB81     		strh	r3, [r7, #14]	@ movhi
 1419 0018 08E0     		b	.L68
ARM GAS  C:\Users\tmj32\AppData\Local\Temp\ccyJ4BPG.s 			page 35


 1420              	.L69:
 404:..\..\..\lvgl\version_6.1.2\lvgl\src\lv_objx/lv_btnm.c ****         lv_btnm_set_btn_ctrl(btnm, i, ctrl);
 1421              		.loc 2 404 0 discriminator 3
 1422 001a 7A88     		ldrh	r2, [r7, #2]
 1423 001c FB89     		ldrh	r3, [r7, #14]
 1424 001e 1946     		mov	r1, r3
 1425 0020 7868     		ldr	r0, [r7, #4]
 1426 0022 FFF7FEFF 		bl	lv_btnm_set_btn_ctrl
 403:..\..\..\lvgl\version_6.1.2\lvgl\src\lv_objx/lv_btnm.c ****         lv_btnm_set_btn_ctrl(btnm, i, ctrl);
 1427              		.loc 2 403 0 discriminator 3
 1428 0026 FB89     		ldrh	r3, [r7, #14]
 1429 0028 0133     		adds	r3, r3, #1
 1430 002a FB81     		strh	r3, [r7, #14]	@ movhi
 1431              	.L68:
 403:..\..\..\lvgl\version_6.1.2\lvgl\src\lv_objx/lv_btnm.c ****         lv_btnm_set_btn_ctrl(btnm, i, ctrl);
 1432              		.loc 2 403 0 is_stmt 0 discriminator 1
 1433 002c BB68     		ldr	r3, [r7, #8]
 1434 002e 1B8C     		ldrh	r3, [r3, #32]
 1435 0030 FA89     		ldrh	r2, [r7, #14]
 1436 0032 9A42     		cmp	r2, r3
 1437 0034 F1D3     		bcc	.L69
 405:..\..\..\lvgl\version_6.1.2\lvgl\src\lv_objx/lv_btnm.c ****     }
 406:..\..\..\lvgl\version_6.1.2\lvgl\src\lv_objx/lv_btnm.c **** }
 1438              		.loc 2 406 0 is_stmt 1
 1439 0036 00BF     		nop
 1440 0038 1037     		adds	r7, r7, #16
 1441              		.cfi_def_cfa_offset 8
 1442 003a BD46     		mov	sp, r7
 1443              		.cfi_def_cfa_register 13
 1444              		@ sp needed
 1445 003c 80BD     		pop	{r7, pc}
 1446              		.cfi_endproc
 1447              	.LFE54:
 1448              		.size	lv_btnm_set_btn_ctrl_all, .-lv_btnm_set_btn_ctrl_all
 1449 003e 00BF     		.section	.text.lv_btnm_clear_btn_ctrl_all,"ax",%progbits
 1450              		.align	2
 1451              		.global	lv_btnm_clear_btn_ctrl_all
 1452              		.thumb
 1453              		.thumb_func
 1454              		.type	lv_btnm_clear_btn_ctrl_all, %function
 1455              	lv_btnm_clear_btn_ctrl_all:
 1456              	.LFB55:
 407:..\..\..\lvgl\version_6.1.2\lvgl\src\lv_objx/lv_btnm.c **** 
 408:..\..\..\lvgl\version_6.1.2\lvgl\src\lv_objx/lv_btnm.c **** /**
 409:..\..\..\lvgl\version_6.1.2\lvgl\src\lv_objx/lv_btnm.c ****  * Clear the attributes of all buttons of a button matrix
 410:..\..\..\lvgl\version_6.1.2\lvgl\src\lv_objx/lv_btnm.c ****  * @param btnm pointer to a button matrix object
 411:..\..\..\lvgl\version_6.1.2\lvgl\src\lv_objx/lv_btnm.c ****  * @param ctrl attribute(s) to set from `lv_btnm_ctrl_t`. Values can be ORed.
 412:..\..\..\lvgl\version_6.1.2\lvgl\src\lv_objx/lv_btnm.c ****  * @param en true: set the attributes; false: clear the attributes
 413:..\..\..\lvgl\version_6.1.2\lvgl\src\lv_objx/lv_btnm.c ****  */
 414:..\..\..\lvgl\version_6.1.2\lvgl\src\lv_objx/lv_btnm.c **** void lv_btnm_clear_btn_ctrl_all(lv_obj_t * btnm, lv_btnm_ctrl_t ctrl)
 415:..\..\..\lvgl\version_6.1.2\lvgl\src\lv_objx/lv_btnm.c **** {
 1457              		.loc 2 415 0
 1458              		.cfi_startproc
 1459              		@ args = 0, pretend = 0, frame = 16
 1460              		@ frame_needed = 1, uses_anonymous_args = 0
 1461 0000 80B5     		push	{r7, lr}
 1462              		.cfi_def_cfa_offset 8
ARM GAS  C:\Users\tmj32\AppData\Local\Temp\ccyJ4BPG.s 			page 36


 1463              		.cfi_offset 7, -8
 1464              		.cfi_offset 14, -4
 1465 0002 84B0     		sub	sp, sp, #16
 1466              		.cfi_def_cfa_offset 24
 1467 0004 00AF     		add	r7, sp, #0
 1468              		.cfi_def_cfa_register 7
 1469 0006 7860     		str	r0, [r7, #4]
 1470 0008 0B46     		mov	r3, r1
 1471 000a 7B80     		strh	r3, [r7, #2]	@ movhi
 416:..\..\..\lvgl\version_6.1.2\lvgl\src\lv_objx/lv_btnm.c ****     LV_ASSERT_OBJ(btnm, LV_OBJX_NAME);
 417:..\..\..\lvgl\version_6.1.2\lvgl\src\lv_objx/lv_btnm.c **** 
 418:..\..\..\lvgl\version_6.1.2\lvgl\src\lv_objx/lv_btnm.c ****     lv_btnm_ext_t * ext = lv_obj_get_ext_attr(btnm);
 1472              		.loc 2 418 0
 1473 000c 7868     		ldr	r0, [r7, #4]
 1474 000e FFF7FEFF 		bl	lv_obj_get_ext_attr
 1475 0012 B860     		str	r0, [r7, #8]
 419:..\..\..\lvgl\version_6.1.2\lvgl\src\lv_objx/lv_btnm.c ****     uint16_t i;
 420:..\..\..\lvgl\version_6.1.2\lvgl\src\lv_objx/lv_btnm.c ****     for(i = 0; i < ext->btn_cnt; i++) {
 1476              		.loc 2 420 0
 1477 0014 0023     		movs	r3, #0
 1478 0016 FB81     		strh	r3, [r7, #14]	@ movhi
 1479 0018 08E0     		b	.L71
 1480              	.L72:
 421:..\..\..\lvgl\version_6.1.2\lvgl\src\lv_objx/lv_btnm.c ****         lv_btnm_clear_btn_ctrl(btnm, i, ctrl);
 1481              		.loc 2 421 0 discriminator 3
 1482 001a 7A88     		ldrh	r2, [r7, #2]
 1483 001c FB89     		ldrh	r3, [r7, #14]
 1484 001e 1946     		mov	r1, r3
 1485 0020 7868     		ldr	r0, [r7, #4]
 1486 0022 FFF7FEFF 		bl	lv_btnm_clear_btn_ctrl
 420:..\..\..\lvgl\version_6.1.2\lvgl\src\lv_objx/lv_btnm.c ****         lv_btnm_clear_btn_ctrl(btnm, i, ctrl);
 1487              		.loc 2 420 0 discriminator 3
 1488 0026 FB89     		ldrh	r3, [r7, #14]
 1489 0028 0133     		adds	r3, r3, #1
 1490 002a FB81     		strh	r3, [r7, #14]	@ movhi
 1491              	.L71:
 420:..\..\..\lvgl\version_6.1.2\lvgl\src\lv_objx/lv_btnm.c ****         lv_btnm_clear_btn_ctrl(btnm, i, ctrl);
 1492              		.loc 2 420 0 is_stmt 0 discriminator 1
 1493 002c BB68     		ldr	r3, [r7, #8]
 1494 002e 1B8C     		ldrh	r3, [r3, #32]
 1495 0030 FA89     		ldrh	r2, [r7, #14]
 1496 0032 9A42     		cmp	r2, r3
 1497 0034 F1D3     		bcc	.L72
 422:..\..\..\lvgl\version_6.1.2\lvgl\src\lv_objx/lv_btnm.c ****     }
 423:..\..\..\lvgl\version_6.1.2\lvgl\src\lv_objx/lv_btnm.c **** }
 1498              		.loc 2 423 0 is_stmt 1
 1499 0036 00BF     		nop
 1500 0038 1037     		adds	r7, r7, #16
 1501              		.cfi_def_cfa_offset 8
 1502 003a BD46     		mov	sp, r7
 1503              		.cfi_def_cfa_register 13
 1504              		@ sp needed
 1505 003c 80BD     		pop	{r7, pc}
 1506              		.cfi_endproc
 1507              	.LFE55:
 1508              		.size	lv_btnm_clear_btn_ctrl_all, .-lv_btnm_clear_btn_ctrl_all
 1509 003e 00BF     		.section	.text.lv_btnm_set_btn_width,"ax",%progbits
ARM GAS  C:\Users\tmj32\AppData\Local\Temp\ccyJ4BPG.s 			page 37


 1510              		.align	2
 1511              		.global	lv_btnm_set_btn_width
 1512              		.thumb
 1513              		.thumb_func
 1514              		.type	lv_btnm_set_btn_width, %function
 1515              	lv_btnm_set_btn_width:
 1516              	.LFB56:
 424:..\..\..\lvgl\version_6.1.2\lvgl\src\lv_objx/lv_btnm.c **** 
 425:..\..\..\lvgl\version_6.1.2\lvgl\src\lv_objx/lv_btnm.c **** /**
 426:..\..\..\lvgl\version_6.1.2\lvgl\src\lv_objx/lv_btnm.c ****  * Set a single buttons relative width.
 427:..\..\..\lvgl\version_6.1.2\lvgl\src\lv_objx/lv_btnm.c ****  * This method will cause the matrix be regenerated and is a relatively
 428:..\..\..\lvgl\version_6.1.2\lvgl\src\lv_objx/lv_btnm.c ****  * expensive operation. It is recommended that initial width be specified using
 429:..\..\..\lvgl\version_6.1.2\lvgl\src\lv_objx/lv_btnm.c ****  * `lv_btnm_set_ctrl_map` and this method only be used for dynamic changes.
 430:..\..\..\lvgl\version_6.1.2\lvgl\src\lv_objx/lv_btnm.c ****  * @param btnm pointer to button matrix object
 431:..\..\..\lvgl\version_6.1.2\lvgl\src\lv_objx/lv_btnm.c ****  * @param btn_id 0 based index of the button to modify.
 432:..\..\..\lvgl\version_6.1.2\lvgl\src\lv_objx/lv_btnm.c ****  * @param width Relative width compared to the buttons in the same row. [1..7]
 433:..\..\..\lvgl\version_6.1.2\lvgl\src\lv_objx/lv_btnm.c ****  */
 434:..\..\..\lvgl\version_6.1.2\lvgl\src\lv_objx/lv_btnm.c **** void lv_btnm_set_btn_width(const lv_obj_t * btnm, uint16_t btn_id, uint8_t width)
 435:..\..\..\lvgl\version_6.1.2\lvgl\src\lv_objx/lv_btnm.c **** {
 1517              		.loc 2 435 0
 1518              		.cfi_startproc
 1519              		@ args = 0, pretend = 0, frame = 16
 1520              		@ frame_needed = 1, uses_anonymous_args = 0
 1521 0000 80B5     		push	{r7, lr}
 1522              		.cfi_def_cfa_offset 8
 1523              		.cfi_offset 7, -8
 1524              		.cfi_offset 14, -4
 1525 0002 84B0     		sub	sp, sp, #16
 1526              		.cfi_def_cfa_offset 24
 1527 0004 00AF     		add	r7, sp, #0
 1528              		.cfi_def_cfa_register 7
 1529 0006 7860     		str	r0, [r7, #4]
 1530 0008 0B46     		mov	r3, r1
 1531 000a 7B80     		strh	r3, [r7, #2]	@ movhi
 1532 000c 1346     		mov	r3, r2
 1533 000e 7B70     		strb	r3, [r7, #1]
 436:..\..\..\lvgl\version_6.1.2\lvgl\src\lv_objx/lv_btnm.c ****     LV_ASSERT_OBJ(btnm, LV_OBJX_NAME);
 437:..\..\..\lvgl\version_6.1.2\lvgl\src\lv_objx/lv_btnm.c **** 
 438:..\..\..\lvgl\version_6.1.2\lvgl\src\lv_objx/lv_btnm.c **** 
 439:..\..\..\lvgl\version_6.1.2\lvgl\src\lv_objx/lv_btnm.c ****     lv_btnm_ext_t * ext = lv_obj_get_ext_attr(btnm);
 1534              		.loc 2 439 0
 1535 0010 7868     		ldr	r0, [r7, #4]
 1536 0012 FFF7FEFF 		bl	lv_obj_get_ext_attr
 1537 0016 F860     		str	r0, [r7, #12]
 440:..\..\..\lvgl\version_6.1.2\lvgl\src\lv_objx/lv_btnm.c ****     if(btn_id >= ext->btn_cnt) return;
 1538              		.loc 2 440 0
 1539 0018 FB68     		ldr	r3, [r7, #12]
 1540 001a 1B8C     		ldrh	r3, [r3, #32]
 1541 001c 7A88     		ldrh	r2, [r7, #2]
 1542 001e 9A42     		cmp	r2, r3
 1543 0020 2AD2     		bcs	.L76
 441:..\..\..\lvgl\version_6.1.2\lvgl\src\lv_objx/lv_btnm.c ****     ext->ctrl_bits[btn_id] &= (~LV_BTNM_WIDTH_MASK);
 1544              		.loc 2 441 0
 1545 0022 FB68     		ldr	r3, [r7, #12]
 1546 0024 9A68     		ldr	r2, [r3, #8]
 1547 0026 7B88     		ldrh	r3, [r7, #2]
 1548 0028 5B00     		lsls	r3, r3, #1
ARM GAS  C:\Users\tmj32\AppData\Local\Temp\ccyJ4BPG.s 			page 38


 1549 002a 1344     		add	r3, r3, r2
 1550 002c FA68     		ldr	r2, [r7, #12]
 1551 002e 9168     		ldr	r1, [r2, #8]
 1552 0030 7A88     		ldrh	r2, [r7, #2]
 1553 0032 5200     		lsls	r2, r2, #1
 1554 0034 0A44     		add	r2, r2, r1
 1555 0036 1288     		ldrh	r2, [r2]
 1556 0038 22F00702 		bic	r2, r2, #7
 1557 003c 92B2     		uxth	r2, r2
 1558 003e 1A80     		strh	r2, [r3]	@ movhi
 442:..\..\..\lvgl\version_6.1.2\lvgl\src\lv_objx/lv_btnm.c ****     ext->ctrl_bits[btn_id] |= (LV_BTNM_WIDTH_MASK & width);
 1559              		.loc 2 442 0
 1560 0040 FB68     		ldr	r3, [r7, #12]
 1561 0042 9A68     		ldr	r2, [r3, #8]
 1562 0044 7B88     		ldrh	r3, [r7, #2]
 1563 0046 5B00     		lsls	r3, r3, #1
 1564 0048 1344     		add	r3, r3, r2
 1565 004a FA68     		ldr	r2, [r7, #12]
 1566 004c 9168     		ldr	r1, [r2, #8]
 1567 004e 7A88     		ldrh	r2, [r7, #2]
 1568 0050 5200     		lsls	r2, r2, #1
 1569 0052 0A44     		add	r2, r2, r1
 1570 0054 1288     		ldrh	r2, [r2]
 1571 0056 11B2     		sxth	r1, r2
 1572 0058 7A78     		ldrb	r2, [r7, #1]	@ zero_extendqisi2
 1573 005a 12B2     		sxth	r2, r2
 1574 005c 02F00702 		and	r2, r2, #7
 1575 0060 12B2     		sxth	r2, r2
 1576 0062 0A43     		orrs	r2, r2, r1
 1577 0064 12B2     		sxth	r2, r2
 1578 0066 92B2     		uxth	r2, r2
 1579 0068 1A80     		strh	r2, [r3]	@ movhi
 443:..\..\..\lvgl\version_6.1.2\lvgl\src\lv_objx/lv_btnm.c **** 
 444:..\..\..\lvgl\version_6.1.2\lvgl\src\lv_objx/lv_btnm.c ****     lv_btnm_set_map(btnm, ext->map_p);
 1580              		.loc 2 444 0
 1581 006a FB68     		ldr	r3, [r7, #12]
 1582 006c 1B68     		ldr	r3, [r3]
 1583 006e 1946     		mov	r1, r3
 1584 0070 7868     		ldr	r0, [r7, #4]
 1585 0072 FFF7FEFF 		bl	lv_btnm_set_map
 1586 0076 00E0     		b	.L73
 1587              	.L76:
 440:..\..\..\lvgl\version_6.1.2\lvgl\src\lv_objx/lv_btnm.c ****     ext->ctrl_bits[btn_id] &= (~LV_BTNM_WIDTH_MASK);
 1588              		.loc 2 440 0
 1589 0078 00BF     		nop
 1590              	.L73:
 445:..\..\..\lvgl\version_6.1.2\lvgl\src\lv_objx/lv_btnm.c **** }
 1591              		.loc 2 445 0
 1592 007a 1037     		adds	r7, r7, #16
 1593              		.cfi_def_cfa_offset 8
 1594 007c BD46     		mov	sp, r7
 1595              		.cfi_def_cfa_register 13
 1596              		@ sp needed
 1597 007e 80BD     		pop	{r7, pc}
 1598              		.cfi_endproc
 1599              	.LFE56:
 1600              		.size	lv_btnm_set_btn_width, .-lv_btnm_set_btn_width
ARM GAS  C:\Users\tmj32\AppData\Local\Temp\ccyJ4BPG.s 			page 39


 1601              		.section	.text.lv_btnm_set_one_toggle,"ax",%progbits
 1602              		.align	2
 1603              		.global	lv_btnm_set_one_toggle
 1604              		.thumb
 1605              		.thumb_func
 1606              		.type	lv_btnm_set_one_toggle, %function
 1607              	lv_btnm_set_one_toggle:
 1608              	.LFB57:
 446:..\..\..\lvgl\version_6.1.2\lvgl\src\lv_objx/lv_btnm.c **** 
 447:..\..\..\lvgl\version_6.1.2\lvgl\src\lv_objx/lv_btnm.c **** /**
 448:..\..\..\lvgl\version_6.1.2\lvgl\src\lv_objx/lv_btnm.c ****  * Make the button matrix like a selector widget (only one button may be toggled at a time).
 449:..\..\..\lvgl\version_6.1.2\lvgl\src\lv_objx/lv_btnm.c ****  *
 450:..\..\..\lvgl\version_6.1.2\lvgl\src\lv_objx/lv_btnm.c ****  * Toggling must be enabled on the buttons you want to be selected with `lv_btnm_set_ctrl` or
 451:..\..\..\lvgl\version_6.1.2\lvgl\src\lv_objx/lv_btnm.c ****  * `lv_btnm_set_btn_ctrl_all`.
 452:..\..\..\lvgl\version_6.1.2\lvgl\src\lv_objx/lv_btnm.c ****  *
 453:..\..\..\lvgl\version_6.1.2\lvgl\src\lv_objx/lv_btnm.c ****  * @param btnm Button matrix object
 454:..\..\..\lvgl\version_6.1.2\lvgl\src\lv_objx/lv_btnm.c ****  * @param one_toggle Whether "one toggle" mode is enabled
 455:..\..\..\lvgl\version_6.1.2\lvgl\src\lv_objx/lv_btnm.c ****  */
 456:..\..\..\lvgl\version_6.1.2\lvgl\src\lv_objx/lv_btnm.c **** void lv_btnm_set_one_toggle(lv_obj_t * btnm, bool one_toggle)
 457:..\..\..\lvgl\version_6.1.2\lvgl\src\lv_objx/lv_btnm.c **** {
 1609              		.loc 2 457 0
 1610              		.cfi_startproc
 1611              		@ args = 0, pretend = 0, frame = 16
 1612              		@ frame_needed = 1, uses_anonymous_args = 0
 1613 0000 80B5     		push	{r7, lr}
 1614              		.cfi_def_cfa_offset 8
 1615              		.cfi_offset 7, -8
 1616              		.cfi_offset 14, -4
 1617 0002 84B0     		sub	sp, sp, #16
 1618              		.cfi_def_cfa_offset 24
 1619 0004 00AF     		add	r7, sp, #0
 1620              		.cfi_def_cfa_register 7
 1621 0006 7860     		str	r0, [r7, #4]
 1622 0008 0B46     		mov	r3, r1
 1623 000a FB70     		strb	r3, [r7, #3]
 458:..\..\..\lvgl\version_6.1.2\lvgl\src\lv_objx/lv_btnm.c ****     LV_ASSERT_OBJ(btnm, LV_OBJX_NAME);
 459:..\..\..\lvgl\version_6.1.2\lvgl\src\lv_objx/lv_btnm.c **** 
 460:..\..\..\lvgl\version_6.1.2\lvgl\src\lv_objx/lv_btnm.c ****     lv_btnm_ext_t * ext = lv_obj_get_ext_attr(btnm);
 1624              		.loc 2 460 0
 1625 000c 7868     		ldr	r0, [r7, #4]
 1626 000e FFF7FEFF 		bl	lv_obj_get_ext_attr
 1627 0012 F860     		str	r0, [r7, #12]
 461:..\..\..\lvgl\version_6.1.2\lvgl\src\lv_objx/lv_btnm.c ****     ext->one_toggle     = one_toggle;
 1628              		.loc 2 461 0
 1629 0014 FA68     		ldr	r2, [r7, #12]
 1630 0016 92F82630 		ldrb	r3, [r2, #38]
 1631 001a F978     		ldrb	r1, [r7, #3]
 1632 001c 61F34103 		bfi	r3, r1, #1, #1
 1633 0020 82F82630 		strb	r3, [r2, #38]
 462:..\..\..\lvgl\version_6.1.2\lvgl\src\lv_objx/lv_btnm.c **** 
 463:..\..\..\lvgl\version_6.1.2\lvgl\src\lv_objx/lv_btnm.c ****     /*If more than one button is toggled only the first one should be*/
 464:..\..\..\lvgl\version_6.1.2\lvgl\src\lv_objx/lv_btnm.c ****     make_one_button_toggled(btnm, 0);
 1634              		.loc 2 464 0
 1635 0024 0021     		movs	r1, #0
 1636 0026 7868     		ldr	r0, [r7, #4]
 1637 0028 FFF7FEFF 		bl	make_one_button_toggled
 465:..\..\..\lvgl\version_6.1.2\lvgl\src\lv_objx/lv_btnm.c **** }
ARM GAS  C:\Users\tmj32\AppData\Local\Temp\ccyJ4BPG.s 			page 40


 1638              		.loc 2 465 0
 1639 002c 00BF     		nop
 1640 002e 1037     		adds	r7, r7, #16
 1641              		.cfi_def_cfa_offset 8
 1642 0030 BD46     		mov	sp, r7
 1643              		.cfi_def_cfa_register 13
 1644              		@ sp needed
 1645 0032 80BD     		pop	{r7, pc}
 1646              		.cfi_endproc
 1647              	.LFE57:
 1648              		.size	lv_btnm_set_one_toggle, .-lv_btnm_set_one_toggle
 1649              		.section	.text.lv_btnm_get_map_array,"ax",%progbits
 1650              		.align	2
 1651              		.global	lv_btnm_get_map_array
 1652              		.thumb
 1653              		.thumb_func
 1654              		.type	lv_btnm_get_map_array, %function
 1655              	lv_btnm_get_map_array:
 1656              	.LFB58:
 466:..\..\..\lvgl\version_6.1.2\lvgl\src\lv_objx/lv_btnm.c **** 
 467:..\..\..\lvgl\version_6.1.2\lvgl\src\lv_objx/lv_btnm.c **** /*=====================
 468:..\..\..\lvgl\version_6.1.2\lvgl\src\lv_objx/lv_btnm.c ****  * Getter functions
 469:..\..\..\lvgl\version_6.1.2\lvgl\src\lv_objx/lv_btnm.c ****  *====================*/
 470:..\..\..\lvgl\version_6.1.2\lvgl\src\lv_objx/lv_btnm.c **** 
 471:..\..\..\lvgl\version_6.1.2\lvgl\src\lv_objx/lv_btnm.c **** /**
 472:..\..\..\lvgl\version_6.1.2\lvgl\src\lv_objx/lv_btnm.c ****  * Get the current map of a button matrix
 473:..\..\..\lvgl\version_6.1.2\lvgl\src\lv_objx/lv_btnm.c ****  * @param btnm pointer to a button matrix object
 474:..\..\..\lvgl\version_6.1.2\lvgl\src\lv_objx/lv_btnm.c ****  * @return the current map
 475:..\..\..\lvgl\version_6.1.2\lvgl\src\lv_objx/lv_btnm.c ****  */
 476:..\..\..\lvgl\version_6.1.2\lvgl\src\lv_objx/lv_btnm.c **** const char ** lv_btnm_get_map_array(const lv_obj_t * btnm)
 477:..\..\..\lvgl\version_6.1.2\lvgl\src\lv_objx/lv_btnm.c **** {
 1657              		.loc 2 477 0
 1658              		.cfi_startproc
 1659              		@ args = 0, pretend = 0, frame = 16
 1660              		@ frame_needed = 1, uses_anonymous_args = 0
 1661 0000 80B5     		push	{r7, lr}
 1662              		.cfi_def_cfa_offset 8
 1663              		.cfi_offset 7, -8
 1664              		.cfi_offset 14, -4
 1665 0002 84B0     		sub	sp, sp, #16
 1666              		.cfi_def_cfa_offset 24
 1667 0004 00AF     		add	r7, sp, #0
 1668              		.cfi_def_cfa_register 7
 1669 0006 7860     		str	r0, [r7, #4]
 478:..\..\..\lvgl\version_6.1.2\lvgl\src\lv_objx/lv_btnm.c ****     LV_ASSERT_OBJ(btnm, LV_OBJX_NAME);
 479:..\..\..\lvgl\version_6.1.2\lvgl\src\lv_objx/lv_btnm.c **** 
 480:..\..\..\lvgl\version_6.1.2\lvgl\src\lv_objx/lv_btnm.c ****     lv_btnm_ext_t * ext = lv_obj_get_ext_attr(btnm);
 1670              		.loc 2 480 0
 1671 0008 7868     		ldr	r0, [r7, #4]
 1672 000a FFF7FEFF 		bl	lv_obj_get_ext_attr
 1673 000e F860     		str	r0, [r7, #12]
 481:..\..\..\lvgl\version_6.1.2\lvgl\src\lv_objx/lv_btnm.c ****     return ext->map_p;
 1674              		.loc 2 481 0
 1675 0010 FB68     		ldr	r3, [r7, #12]
 1676 0012 1B68     		ldr	r3, [r3]
 482:..\..\..\lvgl\version_6.1.2\lvgl\src\lv_objx/lv_btnm.c **** }
 1677              		.loc 2 482 0
ARM GAS  C:\Users\tmj32\AppData\Local\Temp\ccyJ4BPG.s 			page 41


 1678 0014 1846     		mov	r0, r3
 1679 0016 1037     		adds	r7, r7, #16
 1680              		.cfi_def_cfa_offset 8
 1681 0018 BD46     		mov	sp, r7
 1682              		.cfi_def_cfa_register 13
 1683              		@ sp needed
 1684 001a 80BD     		pop	{r7, pc}
 1685              		.cfi_endproc
 1686              	.LFE58:
 1687              		.size	lv_btnm_get_map_array, .-lv_btnm_get_map_array
 1688              		.section	.text.lv_btnm_get_recolor,"ax",%progbits
 1689              		.align	2
 1690              		.global	lv_btnm_get_recolor
 1691              		.thumb
 1692              		.thumb_func
 1693              		.type	lv_btnm_get_recolor, %function
 1694              	lv_btnm_get_recolor:
 1695              	.LFB59:
 483:..\..\..\lvgl\version_6.1.2\lvgl\src\lv_objx/lv_btnm.c **** 
 484:..\..\..\lvgl\version_6.1.2\lvgl\src\lv_objx/lv_btnm.c **** /**
 485:..\..\..\lvgl\version_6.1.2\lvgl\src\lv_objx/lv_btnm.c ****  * Check whether the button's text can use recolor or not
 486:..\..\..\lvgl\version_6.1.2\lvgl\src\lv_objx/lv_btnm.c ****  * @param btnm pointer to button matrix object
 487:..\..\..\lvgl\version_6.1.2\lvgl\src\lv_objx/lv_btnm.c ****  * @return true: text recolor enable; false: disabled
 488:..\..\..\lvgl\version_6.1.2\lvgl\src\lv_objx/lv_btnm.c ****  */
 489:..\..\..\lvgl\version_6.1.2\lvgl\src\lv_objx/lv_btnm.c **** bool lv_btnm_get_recolor(const lv_obj_t * btnm)
 490:..\..\..\lvgl\version_6.1.2\lvgl\src\lv_objx/lv_btnm.c **** {
 1696              		.loc 2 490 0
 1697              		.cfi_startproc
 1698              		@ args = 0, pretend = 0, frame = 16
 1699              		@ frame_needed = 1, uses_anonymous_args = 0
 1700 0000 80B5     		push	{r7, lr}
 1701              		.cfi_def_cfa_offset 8
 1702              		.cfi_offset 7, -8
 1703              		.cfi_offset 14, -4
 1704 0002 84B0     		sub	sp, sp, #16
 1705              		.cfi_def_cfa_offset 24
 1706 0004 00AF     		add	r7, sp, #0
 1707              		.cfi_def_cfa_register 7
 1708 0006 7860     		str	r0, [r7, #4]
 491:..\..\..\lvgl\version_6.1.2\lvgl\src\lv_objx/lv_btnm.c ****     LV_ASSERT_OBJ(btnm, LV_OBJX_NAME);
 492:..\..\..\lvgl\version_6.1.2\lvgl\src\lv_objx/lv_btnm.c **** 
 493:..\..\..\lvgl\version_6.1.2\lvgl\src\lv_objx/lv_btnm.c ****     lv_btnm_ext_t * ext = lv_obj_get_ext_attr(btnm);
 1709              		.loc 2 493 0
 1710 0008 7868     		ldr	r0, [r7, #4]
 1711 000a FFF7FEFF 		bl	lv_obj_get_ext_attr
 1712 000e F860     		str	r0, [r7, #12]
 494:..\..\..\lvgl\version_6.1.2\lvgl\src\lv_objx/lv_btnm.c **** 
 495:..\..\..\lvgl\version_6.1.2\lvgl\src\lv_objx/lv_btnm.c ****     return ext->recolor;
 1713              		.loc 2 495 0
 1714 0010 FB68     		ldr	r3, [r7, #12]
 1715 0012 93F82630 		ldrb	r3, [r3, #38]
 1716 0016 C3F30003 		ubfx	r3, r3, #0, #1
 1717 001a DBB2     		uxtb	r3, r3
 1718 001c 002B     		cmp	r3, #0
 1719 001e 14BF     		ite	ne
 1720 0020 0123     		movne	r3, #1
 1721 0022 0023     		moveq	r3, #0
ARM GAS  C:\Users\tmj32\AppData\Local\Temp\ccyJ4BPG.s 			page 42


 1722 0024 DBB2     		uxtb	r3, r3
 496:..\..\..\lvgl\version_6.1.2\lvgl\src\lv_objx/lv_btnm.c **** }
 1723              		.loc 2 496 0
 1724 0026 1846     		mov	r0, r3
 1725 0028 1037     		adds	r7, r7, #16
 1726              		.cfi_def_cfa_offset 8
 1727 002a BD46     		mov	sp, r7
 1728              		.cfi_def_cfa_register 13
 1729              		@ sp needed
 1730 002c 80BD     		pop	{r7, pc}
 1731              		.cfi_endproc
 1732              	.LFE59:
 1733              		.size	lv_btnm_get_recolor, .-lv_btnm_get_recolor
 1734 002e 00BF     		.section	.text.lv_btnm_get_active_btn,"ax",%progbits
 1735              		.align	2
 1736              		.global	lv_btnm_get_active_btn
 1737              		.thumb
 1738              		.thumb_func
 1739              		.type	lv_btnm_get_active_btn, %function
 1740              	lv_btnm_get_active_btn:
 1741              	.LFB60:
 497:..\..\..\lvgl\version_6.1.2\lvgl\src\lv_objx/lv_btnm.c **** 
 498:..\..\..\lvgl\version_6.1.2\lvgl\src\lv_objx/lv_btnm.c **** /**
 499:..\..\..\lvgl\version_6.1.2\lvgl\src\lv_objx/lv_btnm.c ****  * Get the index of the lastly "activated" button by the user (pressed, released etc)
 500:..\..\..\lvgl\version_6.1.2\lvgl\src\lv_objx/lv_btnm.c ****  * Useful in the the `event_cb` to get the text of the button, check if hidden etc.
 501:..\..\..\lvgl\version_6.1.2\lvgl\src\lv_objx/lv_btnm.c ****  * @param btnm pointer to button matrix object
 502:..\..\..\lvgl\version_6.1.2\lvgl\src\lv_objx/lv_btnm.c ****  * @return  index of the last released button (LV_BTNM_BTN_NONE: if unset)
 503:..\..\..\lvgl\version_6.1.2\lvgl\src\lv_objx/lv_btnm.c ****  */
 504:..\..\..\lvgl\version_6.1.2\lvgl\src\lv_objx/lv_btnm.c **** uint16_t lv_btnm_get_active_btn(const lv_obj_t * btnm)
 505:..\..\..\lvgl\version_6.1.2\lvgl\src\lv_objx/lv_btnm.c **** {
 1742              		.loc 2 505 0
 1743              		.cfi_startproc
 1744              		@ args = 0, pretend = 0, frame = 16
 1745              		@ frame_needed = 1, uses_anonymous_args = 0
 1746 0000 80B5     		push	{r7, lr}
 1747              		.cfi_def_cfa_offset 8
 1748              		.cfi_offset 7, -8
 1749              		.cfi_offset 14, -4
 1750 0002 84B0     		sub	sp, sp, #16
 1751              		.cfi_def_cfa_offset 24
 1752 0004 00AF     		add	r7, sp, #0
 1753              		.cfi_def_cfa_register 7
 1754 0006 7860     		str	r0, [r7, #4]
 506:..\..\..\lvgl\version_6.1.2\lvgl\src\lv_objx/lv_btnm.c ****     LV_ASSERT_OBJ(btnm, LV_OBJX_NAME);
 507:..\..\..\lvgl\version_6.1.2\lvgl\src\lv_objx/lv_btnm.c **** 
 508:..\..\..\lvgl\version_6.1.2\lvgl\src\lv_objx/lv_btnm.c ****     lv_btnm_ext_t * ext = lv_obj_get_ext_attr(btnm);
 1755              		.loc 2 508 0
 1756 0008 7868     		ldr	r0, [r7, #4]
 1757 000a FFF7FEFF 		bl	lv_obj_get_ext_attr
 1758 000e F860     		str	r0, [r7, #12]
 509:..\..\..\lvgl\version_6.1.2\lvgl\src\lv_objx/lv_btnm.c ****     return ext->btn_id_act;
 1759              		.loc 2 509 0
 1760 0010 FB68     		ldr	r3, [r7, #12]
 1761 0012 9B8C     		ldrh	r3, [r3, #36]
 510:..\..\..\lvgl\version_6.1.2\lvgl\src\lv_objx/lv_btnm.c **** }
 1762              		.loc 2 510 0
 1763 0014 1846     		mov	r0, r3
ARM GAS  C:\Users\tmj32\AppData\Local\Temp\ccyJ4BPG.s 			page 43


 1764 0016 1037     		adds	r7, r7, #16
 1765              		.cfi_def_cfa_offset 8
 1766 0018 BD46     		mov	sp, r7
 1767              		.cfi_def_cfa_register 13
 1768              		@ sp needed
 1769 001a 80BD     		pop	{r7, pc}
 1770              		.cfi_endproc
 1771              	.LFE60:
 1772              		.size	lv_btnm_get_active_btn, .-lv_btnm_get_active_btn
 1773              		.section	.text.lv_btnm_get_active_btn_text,"ax",%progbits
 1774              		.align	2
 1775              		.global	lv_btnm_get_active_btn_text
 1776              		.thumb
 1777              		.thumb_func
 1778              		.type	lv_btnm_get_active_btn_text, %function
 1779              	lv_btnm_get_active_btn_text:
 1780              	.LFB61:
 511:..\..\..\lvgl\version_6.1.2\lvgl\src\lv_objx/lv_btnm.c **** 
 512:..\..\..\lvgl\version_6.1.2\lvgl\src\lv_objx/lv_btnm.c **** /**
 513:..\..\..\lvgl\version_6.1.2\lvgl\src\lv_objx/lv_btnm.c ****  * Get the text of the lastly "activated" button by the user (pressed, released etc)
 514:..\..\..\lvgl\version_6.1.2\lvgl\src\lv_objx/lv_btnm.c ****  * Useful in the the `event_cb`
 515:..\..\..\lvgl\version_6.1.2\lvgl\src\lv_objx/lv_btnm.c ****  * @param btnm pointer to button matrix object
 516:..\..\..\lvgl\version_6.1.2\lvgl\src\lv_objx/lv_btnm.c ****  * @return text of the last released button (NULL: if unset)
 517:..\..\..\lvgl\version_6.1.2\lvgl\src\lv_objx/lv_btnm.c ****  */
 518:..\..\..\lvgl\version_6.1.2\lvgl\src\lv_objx/lv_btnm.c **** const char * lv_btnm_get_active_btn_text(const lv_obj_t * btnm)
 519:..\..\..\lvgl\version_6.1.2\lvgl\src\lv_objx/lv_btnm.c **** {
 1781              		.loc 2 519 0
 1782              		.cfi_startproc
 1783              		@ args = 0, pretend = 0, frame = 16
 1784              		@ frame_needed = 1, uses_anonymous_args = 0
 1785 0000 80B5     		push	{r7, lr}
 1786              		.cfi_def_cfa_offset 8
 1787              		.cfi_offset 7, -8
 1788              		.cfi_offset 14, -4
 1789 0002 84B0     		sub	sp, sp, #16
 1790              		.cfi_def_cfa_offset 24
 1791 0004 00AF     		add	r7, sp, #0
 1792              		.cfi_def_cfa_register 7
 1793 0006 7860     		str	r0, [r7, #4]
 520:..\..\..\lvgl\version_6.1.2\lvgl\src\lv_objx/lv_btnm.c ****     LV_ASSERT_OBJ(btnm, LV_OBJX_NAME);
 521:..\..\..\lvgl\version_6.1.2\lvgl\src\lv_objx/lv_btnm.c **** 
 522:..\..\..\lvgl\version_6.1.2\lvgl\src\lv_objx/lv_btnm.c ****     lv_btnm_ext_t * ext = lv_obj_get_ext_attr(btnm);
 1794              		.loc 2 522 0
 1795 0008 7868     		ldr	r0, [r7, #4]
 1796 000a FFF7FEFF 		bl	lv_obj_get_ext_attr
 1797 000e F860     		str	r0, [r7, #12]
 523:..\..\..\lvgl\version_6.1.2\lvgl\src\lv_objx/lv_btnm.c ****     if(ext->btn_id_act != LV_BTNM_BTN_NONE) {
 1798              		.loc 2 523 0
 1799 0010 FB68     		ldr	r3, [r7, #12]
 1800 0012 9B8C     		ldrh	r3, [r3, #36]
 1801 0014 4FF6FF72 		movw	r2, #65535
 1802 0018 9342     		cmp	r3, r2
 1803 001a 07D0     		beq	.L85
 524:..\..\..\lvgl\version_6.1.2\lvgl\src\lv_objx/lv_btnm.c ****         return lv_btnm_get_btn_text(btnm, ext->btn_id_act);
 1804              		.loc 2 524 0
 1805 001c FB68     		ldr	r3, [r7, #12]
 1806 001e 9B8C     		ldrh	r3, [r3, #36]
ARM GAS  C:\Users\tmj32\AppData\Local\Temp\ccyJ4BPG.s 			page 44


 1807 0020 1946     		mov	r1, r3
 1808 0022 7868     		ldr	r0, [r7, #4]
 1809 0024 FFF7FEFF 		bl	lv_btnm_get_btn_text
 1810 0028 0346     		mov	r3, r0
 1811 002a 00E0     		b	.L86
 1812              	.L85:
 525:..\..\..\lvgl\version_6.1.2\lvgl\src\lv_objx/lv_btnm.c ****     } else {
 526:..\..\..\lvgl\version_6.1.2\lvgl\src\lv_objx/lv_btnm.c ****         return NULL;
 1813              		.loc 2 526 0
 1814 002c 0023     		movs	r3, #0
 1815              	.L86:
 527:..\..\..\lvgl\version_6.1.2\lvgl\src\lv_objx/lv_btnm.c ****     }
 528:..\..\..\lvgl\version_6.1.2\lvgl\src\lv_objx/lv_btnm.c **** }
 1816              		.loc 2 528 0
 1817 002e 1846     		mov	r0, r3
 1818 0030 1037     		adds	r7, r7, #16
 1819              		.cfi_def_cfa_offset 8
 1820 0032 BD46     		mov	sp, r7
 1821              		.cfi_def_cfa_register 13
 1822              		@ sp needed
 1823 0034 80BD     		pop	{r7, pc}
 1824              		.cfi_endproc
 1825              	.LFE61:
 1826              		.size	lv_btnm_get_active_btn_text, .-lv_btnm_get_active_btn_text
 1827 0036 00BF     		.section	.text.lv_btnm_get_pressed_btn,"ax",%progbits
 1828              		.align	2
 1829              		.global	lv_btnm_get_pressed_btn
 1830              		.thumb
 1831              		.thumb_func
 1832              		.type	lv_btnm_get_pressed_btn, %function
 1833              	lv_btnm_get_pressed_btn:
 1834              	.LFB62:
 529:..\..\..\lvgl\version_6.1.2\lvgl\src\lv_objx/lv_btnm.c **** 
 530:..\..\..\lvgl\version_6.1.2\lvgl\src\lv_objx/lv_btnm.c **** /**
 531:..\..\..\lvgl\version_6.1.2\lvgl\src\lv_objx/lv_btnm.c ****  * Get the pressed button's index.
 532:..\..\..\lvgl\version_6.1.2\lvgl\src\lv_objx/lv_btnm.c ****  * The button be really pressed by the user or manually set to pressed with `lv_btnm_set_pressed`
 533:..\..\..\lvgl\version_6.1.2\lvgl\src\lv_objx/lv_btnm.c ****  * @param btnm pointer to button matrix object
 534:..\..\..\lvgl\version_6.1.2\lvgl\src\lv_objx/lv_btnm.c ****  * @return  index of the pressed button (LV_BTNM_BTN_NONE: if unset)
 535:..\..\..\lvgl\version_6.1.2\lvgl\src\lv_objx/lv_btnm.c ****  */
 536:..\..\..\lvgl\version_6.1.2\lvgl\src\lv_objx/lv_btnm.c **** uint16_t lv_btnm_get_pressed_btn(const lv_obj_t * btnm)
 537:..\..\..\lvgl\version_6.1.2\lvgl\src\lv_objx/lv_btnm.c **** {
 1835              		.loc 2 537 0
 1836              		.cfi_startproc
 1837              		@ args = 0, pretend = 0, frame = 16
 1838              		@ frame_needed = 1, uses_anonymous_args = 0
 1839 0000 80B5     		push	{r7, lr}
 1840              		.cfi_def_cfa_offset 8
 1841              		.cfi_offset 7, -8
 1842              		.cfi_offset 14, -4
 1843 0002 84B0     		sub	sp, sp, #16
 1844              		.cfi_def_cfa_offset 24
 1845 0004 00AF     		add	r7, sp, #0
 1846              		.cfi_def_cfa_register 7
 1847 0006 7860     		str	r0, [r7, #4]
 538:..\..\..\lvgl\version_6.1.2\lvgl\src\lv_objx/lv_btnm.c ****     LV_ASSERT_OBJ(btnm, LV_OBJX_NAME);
 539:..\..\..\lvgl\version_6.1.2\lvgl\src\lv_objx/lv_btnm.c **** 
 540:..\..\..\lvgl\version_6.1.2\lvgl\src\lv_objx/lv_btnm.c ****     lv_btnm_ext_t * ext = lv_obj_get_ext_attr(btnm);
ARM GAS  C:\Users\tmj32\AppData\Local\Temp\ccyJ4BPG.s 			page 45


 1848              		.loc 2 540 0
 1849 0008 7868     		ldr	r0, [r7, #4]
 1850 000a FFF7FEFF 		bl	lv_obj_get_ext_attr
 1851 000e F860     		str	r0, [r7, #12]
 541:..\..\..\lvgl\version_6.1.2\lvgl\src\lv_objx/lv_btnm.c ****     return ext->btn_id_pr;
 1852              		.loc 2 541 0
 1853 0010 FB68     		ldr	r3, [r7, #12]
 1854 0012 5B8C     		ldrh	r3, [r3, #34]
 542:..\..\..\lvgl\version_6.1.2\lvgl\src\lv_objx/lv_btnm.c **** }
 1855              		.loc 2 542 0
 1856 0014 1846     		mov	r0, r3
 1857 0016 1037     		adds	r7, r7, #16
 1858              		.cfi_def_cfa_offset 8
 1859 0018 BD46     		mov	sp, r7
 1860              		.cfi_def_cfa_register 13
 1861              		@ sp needed
 1862 001a 80BD     		pop	{r7, pc}
 1863              		.cfi_endproc
 1864              	.LFE62:
 1865              		.size	lv_btnm_get_pressed_btn, .-lv_btnm_get_pressed_btn
 1866              		.section	.text.lv_btnm_get_btn_text,"ax",%progbits
 1867              		.align	2
 1868              		.global	lv_btnm_get_btn_text
 1869              		.thumb
 1870              		.thumb_func
 1871              		.type	lv_btnm_get_btn_text, %function
 1872              	lv_btnm_get_btn_text:
 1873              	.LFB63:
 543:..\..\..\lvgl\version_6.1.2\lvgl\src\lv_objx/lv_btnm.c **** 
 544:..\..\..\lvgl\version_6.1.2\lvgl\src\lv_objx/lv_btnm.c **** /**
 545:..\..\..\lvgl\version_6.1.2\lvgl\src\lv_objx/lv_btnm.c ****  * Get the button's text
 546:..\..\..\lvgl\version_6.1.2\lvgl\src\lv_objx/lv_btnm.c ****  * @param btnm pointer to button matrix object
 547:..\..\..\lvgl\version_6.1.2\lvgl\src\lv_objx/lv_btnm.c ****  * @param btn_id the index a button not counting new line characters. (The return value of
 548:..\..\..\lvgl\version_6.1.2\lvgl\src\lv_objx/lv_btnm.c ****  * lv_btnm_get_pressed/released)
 549:..\..\..\lvgl\version_6.1.2\lvgl\src\lv_objx/lv_btnm.c ****  * @return  text of btn_index` button
 550:..\..\..\lvgl\version_6.1.2\lvgl\src\lv_objx/lv_btnm.c ****  */
 551:..\..\..\lvgl\version_6.1.2\lvgl\src\lv_objx/lv_btnm.c **** const char * lv_btnm_get_btn_text(const lv_obj_t * btnm, uint16_t btn_id)
 552:..\..\..\lvgl\version_6.1.2\lvgl\src\lv_objx/lv_btnm.c **** {
 1874              		.loc 2 552 0
 1875              		.cfi_startproc
 1876              		@ args = 0, pretend = 0, frame = 16
 1877              		@ frame_needed = 1, uses_anonymous_args = 0
 1878 0000 80B5     		push	{r7, lr}
 1879              		.cfi_def_cfa_offset 8
 1880              		.cfi_offset 7, -8
 1881              		.cfi_offset 14, -4
 1882 0002 84B0     		sub	sp, sp, #16
 1883              		.cfi_def_cfa_offset 24
 1884 0004 00AF     		add	r7, sp, #0
 1885              		.cfi_def_cfa_register 7
 1886 0006 7860     		str	r0, [r7, #4]
 1887 0008 0B46     		mov	r3, r1
 1888 000a 7B80     		strh	r3, [r7, #2]	@ movhi
 553:..\..\..\lvgl\version_6.1.2\lvgl\src\lv_objx/lv_btnm.c ****     LV_ASSERT_OBJ(btnm, LV_OBJX_NAME);
 554:..\..\..\lvgl\version_6.1.2\lvgl\src\lv_objx/lv_btnm.c **** 
 555:..\..\..\lvgl\version_6.1.2\lvgl\src\lv_objx/lv_btnm.c ****     lv_btnm_ext_t * ext = lv_obj_get_ext_attr(btnm);
 1889              		.loc 2 555 0
ARM GAS  C:\Users\tmj32\AppData\Local\Temp\ccyJ4BPG.s 			page 46


 1890 000c 7868     		ldr	r0, [r7, #4]
 1891 000e FFF7FEFF 		bl	lv_obj_get_ext_attr
 1892 0012 B860     		str	r0, [r7, #8]
 556:..\..\..\lvgl\version_6.1.2\lvgl\src\lv_objx/lv_btnm.c ****     if(btn_id > ext->btn_cnt) return NULL;
 1893              		.loc 2 556 0
 1894 0014 BB68     		ldr	r3, [r7, #8]
 1895 0016 1B8C     		ldrh	r3, [r3, #32]
 1896 0018 7A88     		ldrh	r2, [r7, #2]
 1897 001a 9A42     		cmp	r2, r3
 1898 001c 01D9     		bls	.L90
 1899              		.loc 2 556 0 is_stmt 0 discriminator 1
 1900 001e 0023     		movs	r3, #0
 1901 0020 2BE0     		b	.L91
 1902              	.L90:
 557:..\..\..\lvgl\version_6.1.2\lvgl\src\lv_objx/lv_btnm.c **** 
 558:..\..\..\lvgl\version_6.1.2\lvgl\src\lv_objx/lv_btnm.c ****     uint16_t txt_i = 0;
 1903              		.loc 2 558 0 is_stmt 1
 1904 0022 0023     		movs	r3, #0
 1905 0024 FB81     		strh	r3, [r7, #14]	@ movhi
 559:..\..\..\lvgl\version_6.1.2\lvgl\src\lv_objx/lv_btnm.c ****     uint16_t btn_i = 0;
 1906              		.loc 2 559 0
 1907 0026 0023     		movs	r3, #0
 1908 0028 BB81     		strh	r3, [r7, #12]	@ movhi
 560:..\..\..\lvgl\version_6.1.2\lvgl\src\lv_objx/lv_btnm.c **** 
 561:..\..\..\lvgl\version_6.1.2\lvgl\src\lv_objx/lv_btnm.c ****     /* Search the text of ext->btn_pr the buttons text in the map
 562:..\..\..\lvgl\version_6.1.2\lvgl\src\lv_objx/lv_btnm.c ****      * Skip "\n"-s*/
 563:..\..\..\lvgl\version_6.1.2\lvgl\src\lv_objx/lv_btnm.c ****     while(btn_i != btn_id) {
 1909              		.loc 2 563 0
 1910 002a 15E0     		b	.L92
 1911              	.L93:
 564:..\..\..\lvgl\version_6.1.2\lvgl\src\lv_objx/lv_btnm.c ****         btn_i++;
 1912              		.loc 2 564 0
 1913 002c BB89     		ldrh	r3, [r7, #12]
 1914 002e 0133     		adds	r3, r3, #1
 1915 0030 BB81     		strh	r3, [r7, #12]	@ movhi
 565:..\..\..\lvgl\version_6.1.2\lvgl\src\lv_objx/lv_btnm.c ****         txt_i++;
 1916              		.loc 2 565 0
 1917 0032 FB89     		ldrh	r3, [r7, #14]
 1918 0034 0133     		adds	r3, r3, #1
 1919 0036 FB81     		strh	r3, [r7, #14]	@ movhi
 566:..\..\..\lvgl\version_6.1.2\lvgl\src\lv_objx/lv_btnm.c ****         if(strcmp(ext->map_p[txt_i], "\n") == 0) txt_i++;
 1920              		.loc 2 566 0
 1921 0038 BB68     		ldr	r3, [r7, #8]
 1922 003a 1A68     		ldr	r2, [r3]
 1923 003c FB89     		ldrh	r3, [r7, #14]
 1924 003e 9B00     		lsls	r3, r3, #2
 1925 0040 1344     		add	r3, r3, r2
 1926 0042 1B68     		ldr	r3, [r3]
 1927 0044 0F49     		ldr	r1, .L95
 1928 0046 1846     		mov	r0, r3
 1929 0048 FFF7FEFF 		bl	strcmp
 1930 004c 0346     		mov	r3, r0
 1931 004e 002B     		cmp	r3, #0
 1932 0050 02D1     		bne	.L92
 1933              		.loc 2 566 0 is_stmt 0 discriminator 1
 1934 0052 FB89     		ldrh	r3, [r7, #14]
 1935 0054 0133     		adds	r3, r3, #1
ARM GAS  C:\Users\tmj32\AppData\Local\Temp\ccyJ4BPG.s 			page 47


 1936 0056 FB81     		strh	r3, [r7, #14]	@ movhi
 1937              	.L92:
 563:..\..\..\lvgl\version_6.1.2\lvgl\src\lv_objx/lv_btnm.c ****         btn_i++;
 1938              		.loc 2 563 0 is_stmt 1
 1939 0058 BA89     		ldrh	r2, [r7, #12]
 1940 005a 7B88     		ldrh	r3, [r7, #2]
 1941 005c 9A42     		cmp	r2, r3
 1942 005e E5D1     		bne	.L93
 567:..\..\..\lvgl\version_6.1.2\lvgl\src\lv_objx/lv_btnm.c ****     }
 568:..\..\..\lvgl\version_6.1.2\lvgl\src\lv_objx/lv_btnm.c **** 
 569:..\..\..\lvgl\version_6.1.2\lvgl\src\lv_objx/lv_btnm.c ****     if(btn_i == ext->btn_cnt) return NULL;
 1943              		.loc 2 569 0
 1944 0060 BB68     		ldr	r3, [r7, #8]
 1945 0062 1B8C     		ldrh	r3, [r3, #32]
 1946 0064 BA89     		ldrh	r2, [r7, #12]
 1947 0066 9A42     		cmp	r2, r3
 1948 0068 01D1     		bne	.L94
 1949              		.loc 2 569 0 is_stmt 0 discriminator 1
 1950 006a 0023     		movs	r3, #0
 1951 006c 05E0     		b	.L91
 1952              	.L94:
 570:..\..\..\lvgl\version_6.1.2\lvgl\src\lv_objx/lv_btnm.c **** 
 571:..\..\..\lvgl\version_6.1.2\lvgl\src\lv_objx/lv_btnm.c ****     return ext->map_p[txt_i];
 1953              		.loc 2 571 0 is_stmt 1
 1954 006e BB68     		ldr	r3, [r7, #8]
 1955 0070 1A68     		ldr	r2, [r3]
 1956 0072 FB89     		ldrh	r3, [r7, #14]
 1957 0074 9B00     		lsls	r3, r3, #2
 1958 0076 1344     		add	r3, r3, r2
 1959 0078 1B68     		ldr	r3, [r3]
 1960              	.L91:
 572:..\..\..\lvgl\version_6.1.2\lvgl\src\lv_objx/lv_btnm.c **** }
 1961              		.loc 2 572 0
 1962 007a 1846     		mov	r0, r3
 1963 007c 1037     		adds	r7, r7, #16
 1964              		.cfi_def_cfa_offset 8
 1965 007e BD46     		mov	sp, r7
 1966              		.cfi_def_cfa_register 13
 1967              		@ sp needed
 1968 0080 80BD     		pop	{r7, pc}
 1969              	.L96:
 1970 0082 00BF     		.align	2
 1971              	.L95:
 1972 0084 18000000 		.word	.LC3
 1973              		.cfi_endproc
 1974              	.LFE63:
 1975              		.size	lv_btnm_get_btn_text, .-lv_btnm_get_btn_text
 1976              		.section	.text.lv_btnm_get_btn_ctrl,"ax",%progbits
 1977              		.align	2
 1978              		.global	lv_btnm_get_btn_ctrl
 1979              		.thumb
 1980              		.thumb_func
 1981              		.type	lv_btnm_get_btn_ctrl, %function
 1982              	lv_btnm_get_btn_ctrl:
 1983              	.LFB64:
 573:..\..\..\lvgl\version_6.1.2\lvgl\src\lv_objx/lv_btnm.c **** 
 574:..\..\..\lvgl\version_6.1.2\lvgl\src\lv_objx/lv_btnm.c **** /**
ARM GAS  C:\Users\tmj32\AppData\Local\Temp\ccyJ4BPG.s 			page 48


 575:..\..\..\lvgl\version_6.1.2\lvgl\src\lv_objx/lv_btnm.c ****  * Get the whether a control value is enabled or disabled for button of a button matrix
 576:..\..\..\lvgl\version_6.1.2\lvgl\src\lv_objx/lv_btnm.c ****  * @param btnm pointer to a button matrix object
 577:..\..\..\lvgl\version_6.1.2\lvgl\src\lv_objx/lv_btnm.c ****  * @param btn_id the index a button not counting new line characters. (E.g. the return value of
 578:..\..\..\lvgl\version_6.1.2\lvgl\src\lv_objx/lv_btnm.c ****  * lv_btnm_get_pressed/released)
 579:..\..\..\lvgl\version_6.1.2\lvgl\src\lv_objx/lv_btnm.c ****  * @param ctrl control values to check (ORed value can be used)
 580:..\..\..\lvgl\version_6.1.2\lvgl\src\lv_objx/lv_btnm.c ****  * @return true: long press repeat is disabled; false: long press repeat enabled
 581:..\..\..\lvgl\version_6.1.2\lvgl\src\lv_objx/lv_btnm.c ****  */
 582:..\..\..\lvgl\version_6.1.2\lvgl\src\lv_objx/lv_btnm.c **** bool lv_btnm_get_btn_ctrl(lv_obj_t * btnm, uint16_t btn_id, lv_btnm_ctrl_t ctrl)
 583:..\..\..\lvgl\version_6.1.2\lvgl\src\lv_objx/lv_btnm.c **** {
 1984              		.loc 2 583 0
 1985              		.cfi_startproc
 1986              		@ args = 0, pretend = 0, frame = 16
 1987              		@ frame_needed = 1, uses_anonymous_args = 0
 1988 0000 80B5     		push	{r7, lr}
 1989              		.cfi_def_cfa_offset 8
 1990              		.cfi_offset 7, -8
 1991              		.cfi_offset 14, -4
 1992 0002 84B0     		sub	sp, sp, #16
 1993              		.cfi_def_cfa_offset 24
 1994 0004 00AF     		add	r7, sp, #0
 1995              		.cfi_def_cfa_register 7
 1996 0006 7860     		str	r0, [r7, #4]
 1997 0008 0B46     		mov	r3, r1
 1998 000a 7B80     		strh	r3, [r7, #2]	@ movhi
 1999 000c 1346     		mov	r3, r2	@ movhi
 2000 000e 3B80     		strh	r3, [r7]	@ movhi
 584:..\..\..\lvgl\version_6.1.2\lvgl\src\lv_objx/lv_btnm.c ****     LV_ASSERT_OBJ(btnm, LV_OBJX_NAME);
 585:..\..\..\lvgl\version_6.1.2\lvgl\src\lv_objx/lv_btnm.c **** 
 586:..\..\..\lvgl\version_6.1.2\lvgl\src\lv_objx/lv_btnm.c ****     lv_btnm_ext_t * ext = lv_obj_get_ext_attr(btnm);
 2001              		.loc 2 586 0
 2002 0010 7868     		ldr	r0, [r7, #4]
 2003 0012 FFF7FEFF 		bl	lv_obj_get_ext_attr
 2004 0016 F860     		str	r0, [r7, #12]
 587:..\..\..\lvgl\version_6.1.2\lvgl\src\lv_objx/lv_btnm.c ****     if(btn_id >= ext->btn_cnt) return false;
 2005              		.loc 2 587 0
 2006 0018 FB68     		ldr	r3, [r7, #12]
 2007 001a 1B8C     		ldrh	r3, [r3, #32]
 2008 001c 7A88     		ldrh	r2, [r7, #2]
 2009 001e 9A42     		cmp	r2, r3
 2010 0020 01D3     		bcc	.L98
 2011              		.loc 2 587 0 is_stmt 0 discriminator 1
 2012 0022 0023     		movs	r3, #0
 2013 0024 0DE0     		b	.L99
 2014              	.L98:
 588:..\..\..\lvgl\version_6.1.2\lvgl\src\lv_objx/lv_btnm.c **** 
 589:..\..\..\lvgl\version_6.1.2\lvgl\src\lv_objx/lv_btnm.c ****     return ext->ctrl_bits[btn_id] & ctrl ? true : false;
 2015              		.loc 2 589 0 is_stmt 1
 2016 0026 FB68     		ldr	r3, [r7, #12]
 2017 0028 9A68     		ldr	r2, [r3, #8]
 2018 002a 7B88     		ldrh	r3, [r7, #2]
 2019 002c 5B00     		lsls	r3, r3, #1
 2020 002e 1344     		add	r3, r3, r2
 2021 0030 1A88     		ldrh	r2, [r3]
 2022 0032 3B88     		ldrh	r3, [r7]	@ movhi
 2023 0034 1340     		ands	r3, r3, r2
 2024 0036 9BB2     		uxth	r3, r3
 2025 0038 002B     		cmp	r3, #0
ARM GAS  C:\Users\tmj32\AppData\Local\Temp\ccyJ4BPG.s 			page 49


 2026 003a 14BF     		ite	ne
 2027 003c 0123     		movne	r3, #1
 2028 003e 0023     		moveq	r3, #0
 2029 0040 DBB2     		uxtb	r3, r3
 2030              	.L99:
 590:..\..\..\lvgl\version_6.1.2\lvgl\src\lv_objx/lv_btnm.c **** }
 2031              		.loc 2 590 0
 2032 0042 1846     		mov	r0, r3
 2033 0044 1037     		adds	r7, r7, #16
 2034              		.cfi_def_cfa_offset 8
 2035 0046 BD46     		mov	sp, r7
 2036              		.cfi_def_cfa_register 13
 2037              		@ sp needed
 2038 0048 80BD     		pop	{r7, pc}
 2039              		.cfi_endproc
 2040              	.LFE64:
 2041              		.size	lv_btnm_get_btn_ctrl, .-lv_btnm_get_btn_ctrl
 2042 004a 00BF     		.section	.text.lv_btnm_get_style,"ax",%progbits
 2043              		.align	2
 2044              		.global	lv_btnm_get_style
 2045              		.thumb
 2046              		.thumb_func
 2047              		.type	lv_btnm_get_style, %function
 2048              	lv_btnm_get_style:
 2049              	.LFB65:
 591:..\..\..\lvgl\version_6.1.2\lvgl\src\lv_objx/lv_btnm.c **** 
 592:..\..\..\lvgl\version_6.1.2\lvgl\src\lv_objx/lv_btnm.c **** /**
 593:..\..\..\lvgl\version_6.1.2\lvgl\src\lv_objx/lv_btnm.c ****  * Get a style of a button matrix
 594:..\..\..\lvgl\version_6.1.2\lvgl\src\lv_objx/lv_btnm.c ****  * @param btnm pointer to a button matrix object
 595:..\..\..\lvgl\version_6.1.2\lvgl\src\lv_objx/lv_btnm.c ****  * @param type which style should be get
 596:..\..\..\lvgl\version_6.1.2\lvgl\src\lv_objx/lv_btnm.c ****  * @return style pointer to a style
 597:..\..\..\lvgl\version_6.1.2\lvgl\src\lv_objx/lv_btnm.c ****  */
 598:..\..\..\lvgl\version_6.1.2\lvgl\src\lv_objx/lv_btnm.c **** const lv_style_t * lv_btnm_get_style(const lv_obj_t * btnm, lv_btnm_style_t type)
 599:..\..\..\lvgl\version_6.1.2\lvgl\src\lv_objx/lv_btnm.c **** {
 2050              		.loc 2 599 0
 2051              		.cfi_startproc
 2052              		@ args = 0, pretend = 0, frame = 16
 2053              		@ frame_needed = 1, uses_anonymous_args = 0
 2054 0000 80B5     		push	{r7, lr}
 2055              		.cfi_def_cfa_offset 8
 2056              		.cfi_offset 7, -8
 2057              		.cfi_offset 14, -4
 2058 0002 84B0     		sub	sp, sp, #16
 2059              		.cfi_def_cfa_offset 24
 2060 0004 00AF     		add	r7, sp, #0
 2061              		.cfi_def_cfa_register 7
 2062 0006 7860     		str	r0, [r7, #4]
 2063 0008 0B46     		mov	r3, r1
 2064 000a FB70     		strb	r3, [r7, #3]
 600:..\..\..\lvgl\version_6.1.2\lvgl\src\lv_objx/lv_btnm.c ****     LV_ASSERT_OBJ(btnm, LV_OBJX_NAME);
 601:..\..\..\lvgl\version_6.1.2\lvgl\src\lv_objx/lv_btnm.c **** 
 602:..\..\..\lvgl\version_6.1.2\lvgl\src\lv_objx/lv_btnm.c ****     const lv_style_t * style = NULL;
 2065              		.loc 2 602 0
 2066 000c 0023     		movs	r3, #0
 2067 000e FB60     		str	r3, [r7, #12]
 603:..\..\..\lvgl\version_6.1.2\lvgl\src\lv_objx/lv_btnm.c ****     lv_btnm_ext_t * ext      = lv_obj_get_ext_attr(btnm);
 2068              		.loc 2 603 0
ARM GAS  C:\Users\tmj32\AppData\Local\Temp\ccyJ4BPG.s 			page 50


 2069 0010 7868     		ldr	r0, [r7, #4]
 2070 0012 FFF7FEFF 		bl	lv_obj_get_ext_attr
 2071 0016 B860     		str	r0, [r7, #8]
 604:..\..\..\lvgl\version_6.1.2\lvgl\src\lv_objx/lv_btnm.c **** 
 605:..\..\..\lvgl\version_6.1.2\lvgl\src\lv_objx/lv_btnm.c ****     switch(type) {
 2072              		.loc 2 605 0
 2073 0018 FB78     		ldrb	r3, [r7, #3]	@ zero_extendqisi2
 2074 001a 052B     		cmp	r3, #5
 2075 001c 27D8     		bhi	.L101
 2076 001e 01A2     		adr	r2, .L103
 2077 0020 52F823F0 		ldr	pc, [r2, r3, lsl #2]
 2078              		.p2align 2
 2079              	.L103:
 2080 0024 3D000000 		.word	.L102+1
 2081 0028 47000000 		.word	.L104+1
 2082 002c 4F000000 		.word	.L105+1
 2083 0030 57000000 		.word	.L106+1
 2084 0034 5F000000 		.word	.L107+1
 2085 0038 67000000 		.word	.L108+1
 2086              		.p2align 1
 2087              	.L102:
 606:..\..\..\lvgl\version_6.1.2\lvgl\src\lv_objx/lv_btnm.c ****         case LV_BTNM_STYLE_BG: style = lv_obj_get_style(btnm); break;
 2088              		.loc 2 606 0
 2089 003c 7868     		ldr	r0, [r7, #4]
 2090 003e FFF7FEFF 		bl	lv_obj_get_style
 2091 0042 F860     		str	r0, [r7, #12]
 2092 0044 16E0     		b	.L109
 2093              	.L104:
 607:..\..\..\lvgl\version_6.1.2\lvgl\src\lv_objx/lv_btnm.c ****         case LV_BTNM_STYLE_BTN_REL: style = ext->styles_btn[LV_BTN_STATE_REL]; break;
 2094              		.loc 2 607 0
 2095 0046 BB68     		ldr	r3, [r7, #8]
 2096 0048 DB68     		ldr	r3, [r3, #12]
 2097 004a FB60     		str	r3, [r7, #12]
 2098 004c 12E0     		b	.L109
 2099              	.L105:
 608:..\..\..\lvgl\version_6.1.2\lvgl\src\lv_objx/lv_btnm.c ****         case LV_BTNM_STYLE_BTN_PR: style = ext->styles_btn[LV_BTN_STATE_PR]; break;
 2100              		.loc 2 608 0
 2101 004e BB68     		ldr	r3, [r7, #8]
 2102 0050 1B69     		ldr	r3, [r3, #16]
 2103 0052 FB60     		str	r3, [r7, #12]
 2104 0054 0EE0     		b	.L109
 2105              	.L106:
 609:..\..\..\lvgl\version_6.1.2\lvgl\src\lv_objx/lv_btnm.c ****         case LV_BTNM_STYLE_BTN_TGL_REL: style = ext->styles_btn[LV_BTN_STATE_TGL_REL]; break;
 2106              		.loc 2 609 0
 2107 0056 BB68     		ldr	r3, [r7, #8]
 2108 0058 5B69     		ldr	r3, [r3, #20]
 2109 005a FB60     		str	r3, [r7, #12]
 2110 005c 0AE0     		b	.L109
 2111              	.L107:
 610:..\..\..\lvgl\version_6.1.2\lvgl\src\lv_objx/lv_btnm.c ****         case LV_BTNM_STYLE_BTN_TGL_PR: style = ext->styles_btn[LV_BTN_STATE_TGL_PR]; break;
 2112              		.loc 2 610 0
 2113 005e BB68     		ldr	r3, [r7, #8]
 2114 0060 9B69     		ldr	r3, [r3, #24]
 2115 0062 FB60     		str	r3, [r7, #12]
 2116 0064 06E0     		b	.L109
 2117              	.L108:
 611:..\..\..\lvgl\version_6.1.2\lvgl\src\lv_objx/lv_btnm.c ****         case LV_BTNM_STYLE_BTN_INA: style = ext->styles_btn[LV_BTN_STATE_INA]; break;
ARM GAS  C:\Users\tmj32\AppData\Local\Temp\ccyJ4BPG.s 			page 51


 2118              		.loc 2 611 0
 2119 0066 BB68     		ldr	r3, [r7, #8]
 2120 0068 DB69     		ldr	r3, [r3, #28]
 2121 006a FB60     		str	r3, [r7, #12]
 2122 006c 02E0     		b	.L109
 2123              	.L101:
 612:..\..\..\lvgl\version_6.1.2\lvgl\src\lv_objx/lv_btnm.c ****         default: style = NULL; break;
 2124              		.loc 2 612 0
 2125 006e 0023     		movs	r3, #0
 2126 0070 FB60     		str	r3, [r7, #12]
 2127 0072 00BF     		nop
 2128              	.L109:
 613:..\..\..\lvgl\version_6.1.2\lvgl\src\lv_objx/lv_btnm.c ****     }
 614:..\..\..\lvgl\version_6.1.2\lvgl\src\lv_objx/lv_btnm.c **** 
 615:..\..\..\lvgl\version_6.1.2\lvgl\src\lv_objx/lv_btnm.c ****     return style;
 2129              		.loc 2 615 0
 2130 0074 FB68     		ldr	r3, [r7, #12]
 616:..\..\..\lvgl\version_6.1.2\lvgl\src\lv_objx/lv_btnm.c **** }
 2131              		.loc 2 616 0
 2132 0076 1846     		mov	r0, r3
 2133 0078 1037     		adds	r7, r7, #16
 2134              		.cfi_def_cfa_offset 8
 2135 007a BD46     		mov	sp, r7
 2136              		.cfi_def_cfa_register 13
 2137              		@ sp needed
 2138 007c 80BD     		pop	{r7, pc}
 2139              		.cfi_endproc
 2140              	.LFE65:
 2141              		.size	lv_btnm_get_style, .-lv_btnm_get_style
 2142 007e 00BF     		.section	.text.lv_btnm_get_one_toggle,"ax",%progbits
 2143              		.align	2
 2144              		.global	lv_btnm_get_one_toggle
 2145              		.thumb
 2146              		.thumb_func
 2147              		.type	lv_btnm_get_one_toggle, %function
 2148              	lv_btnm_get_one_toggle:
 2149              	.LFB66:
 617:..\..\..\lvgl\version_6.1.2\lvgl\src\lv_objx/lv_btnm.c **** 
 618:..\..\..\lvgl\version_6.1.2\lvgl\src\lv_objx/lv_btnm.c **** /**
 619:..\..\..\lvgl\version_6.1.2\lvgl\src\lv_objx/lv_btnm.c ****  * Find whether "one toggle" mode is enabled.
 620:..\..\..\lvgl\version_6.1.2\lvgl\src\lv_objx/lv_btnm.c ****  * @param btnm Button matrix object
 621:..\..\..\lvgl\version_6.1.2\lvgl\src\lv_objx/lv_btnm.c ****  * @return whether "one toggle" mode is enabled
 622:..\..\..\lvgl\version_6.1.2\lvgl\src\lv_objx/lv_btnm.c ****  */
 623:..\..\..\lvgl\version_6.1.2\lvgl\src\lv_objx/lv_btnm.c **** bool lv_btnm_get_one_toggle(const lv_obj_t * btnm)
 624:..\..\..\lvgl\version_6.1.2\lvgl\src\lv_objx/lv_btnm.c **** {
 2150              		.loc 2 624 0
 2151              		.cfi_startproc
 2152              		@ args = 0, pretend = 0, frame = 16
 2153              		@ frame_needed = 1, uses_anonymous_args = 0
 2154 0000 80B5     		push	{r7, lr}
 2155              		.cfi_def_cfa_offset 8
 2156              		.cfi_offset 7, -8
 2157              		.cfi_offset 14, -4
 2158 0002 84B0     		sub	sp, sp, #16
 2159              		.cfi_def_cfa_offset 24
 2160 0004 00AF     		add	r7, sp, #0
 2161              		.cfi_def_cfa_register 7
ARM GAS  C:\Users\tmj32\AppData\Local\Temp\ccyJ4BPG.s 			page 52


 2162 0006 7860     		str	r0, [r7, #4]
 625:..\..\..\lvgl\version_6.1.2\lvgl\src\lv_objx/lv_btnm.c ****     LV_ASSERT_OBJ(btnm, LV_OBJX_NAME);
 626:..\..\..\lvgl\version_6.1.2\lvgl\src\lv_objx/lv_btnm.c **** 
 627:..\..\..\lvgl\version_6.1.2\lvgl\src\lv_objx/lv_btnm.c ****     lv_btnm_ext_t * ext = lv_obj_get_ext_attr(btnm);
 2163              		.loc 2 627 0
 2164 0008 7868     		ldr	r0, [r7, #4]
 2165 000a FFF7FEFF 		bl	lv_obj_get_ext_attr
 2166 000e F860     		str	r0, [r7, #12]
 628:..\..\..\lvgl\version_6.1.2\lvgl\src\lv_objx/lv_btnm.c **** 
 629:..\..\..\lvgl\version_6.1.2\lvgl\src\lv_objx/lv_btnm.c ****     return ext->one_toggle;
 2167              		.loc 2 629 0
 2168 0010 FB68     		ldr	r3, [r7, #12]
 2169 0012 93F82630 		ldrb	r3, [r3, #38]
 2170 0016 C3F34003 		ubfx	r3, r3, #1, #1
 2171 001a DBB2     		uxtb	r3, r3
 2172 001c 002B     		cmp	r3, #0
 2173 001e 14BF     		ite	ne
 2174 0020 0123     		movne	r3, #1
 2175 0022 0023     		moveq	r3, #0
 2176 0024 DBB2     		uxtb	r3, r3
 630:..\..\..\lvgl\version_6.1.2\lvgl\src\lv_objx/lv_btnm.c **** }
 2177              		.loc 2 630 0
 2178 0026 1846     		mov	r0, r3
 2179 0028 1037     		adds	r7, r7, #16
 2180              		.cfi_def_cfa_offset 8
 2181 002a BD46     		mov	sp, r7
 2182              		.cfi_def_cfa_register 13
 2183              		@ sp needed
 2184 002c 80BD     		pop	{r7, pc}
 2185              		.cfi_endproc
 2186              	.LFE66:
 2187              		.size	lv_btnm_get_one_toggle, .-lv_btnm_get_one_toggle
 2188 002e 00BF     		.section	.text.lv_btnm_design,"ax",%progbits
 2189              		.align	2
 2190              		.thumb
 2191              		.thumb_func
 2192              		.type	lv_btnm_design, %function
 2193              	lv_btnm_design:
 2194              	.LFB67:
 631:..\..\..\lvgl\version_6.1.2\lvgl\src\lv_objx/lv_btnm.c **** 
 632:..\..\..\lvgl\version_6.1.2\lvgl\src\lv_objx/lv_btnm.c **** /**********************
 633:..\..\..\lvgl\version_6.1.2\lvgl\src\lv_objx/lv_btnm.c ****  *   STATIC FUNCTIONS
 634:..\..\..\lvgl\version_6.1.2\lvgl\src\lv_objx/lv_btnm.c ****  **********************/
 635:..\..\..\lvgl\version_6.1.2\lvgl\src\lv_objx/lv_btnm.c **** 
 636:..\..\..\lvgl\version_6.1.2\lvgl\src\lv_objx/lv_btnm.c **** /**
 637:..\..\..\lvgl\version_6.1.2\lvgl\src\lv_objx/lv_btnm.c ****  * Handle the drawing related tasks of the button matrixs
 638:..\..\..\lvgl\version_6.1.2\lvgl\src\lv_objx/lv_btnm.c ****  * @param btnm pointer to a button matrix object
 639:..\..\..\lvgl\version_6.1.2\lvgl\src\lv_objx/lv_btnm.c ****  * @param mask the object will be drawn only in this area
 640:..\..\..\lvgl\version_6.1.2\lvgl\src\lv_objx/lv_btnm.c ****  * @param mode LV_DESIGN_COVER_CHK: only check if the object fully covers the 'mask_p' area
 641:..\..\..\lvgl\version_6.1.2\lvgl\src\lv_objx/lv_btnm.c ****  *                                  (return 'true' if yes)
 642:..\..\..\lvgl\version_6.1.2\lvgl\src\lv_objx/lv_btnm.c ****  *             LV_DESIGN_DRAW: draw the object (always return 'true')
 643:..\..\..\lvgl\version_6.1.2\lvgl\src\lv_objx/lv_btnm.c ****  *             LV_DESIGN_DRAW_POST: drawing after every children are drawn
 644:..\..\..\lvgl\version_6.1.2\lvgl\src\lv_objx/lv_btnm.c ****  * @param return true/false, depends on 'mode'
 645:..\..\..\lvgl\version_6.1.2\lvgl\src\lv_objx/lv_btnm.c ****  */
 646:..\..\..\lvgl\version_6.1.2\lvgl\src\lv_objx/lv_btnm.c **** static bool lv_btnm_design(lv_obj_t * btnm, const lv_area_t * mask, lv_design_mode_t mode)
 647:..\..\..\lvgl\version_6.1.2\lvgl\src\lv_objx/lv_btnm.c **** {
 2195              		.loc 2 647 0
ARM GAS  C:\Users\tmj32\AppData\Local\Temp\ccyJ4BPG.s 			page 53


 2196              		.cfi_startproc
 2197              		@ args = 0, pretend = 0, frame = 152
 2198              		@ frame_needed = 1, uses_anonymous_args = 0
 2199 0000 F0B5     		push	{r4, r5, r6, r7, lr}
 2200              		.cfi_def_cfa_offset 20
 2201              		.cfi_offset 4, -20
 2202              		.cfi_offset 5, -16
 2203              		.cfi_offset 6, -12
 2204              		.cfi_offset 7, -8
 2205              		.cfi_offset 14, -4
 2206 0002 ADB0     		sub	sp, sp, #180
 2207              		.cfi_def_cfa_offset 200
 2208 0004 06AF     		add	r7, sp, #24
 2209              		.cfi_def_cfa 7, 176
 2210 0006 F860     		str	r0, [r7, #12]
 2211 0008 B960     		str	r1, [r7, #8]
 2212 000a 1346     		mov	r3, r2
 2213 000c FB71     		strb	r3, [r7, #7]
 648:..\..\..\lvgl\version_6.1.2\lvgl\src\lv_objx/lv_btnm.c ****     if(mode == LV_DESIGN_COVER_CHK) {
 2214              		.loc 2 648 0
 2215 000e FB79     		ldrb	r3, [r7, #7]	@ zero_extendqisi2
 2216 0010 022B     		cmp	r3, #2
 2217 0012 07D1     		bne	.L114
 649:..\..\..\lvgl\version_6.1.2\lvgl\src\lv_objx/lv_btnm.c ****         return ancestor_design_f(btnm, mask, mode);
 2218              		.loc 2 649 0
 2219 0014 B34B     		ldr	r3, .L138
 2220 0016 1B68     		ldr	r3, [r3]
 2221 0018 FA79     		ldrb	r2, [r7, #7]	@ zero_extendqisi2
 2222 001a B968     		ldr	r1, [r7, #8]
 2223 001c F868     		ldr	r0, [r7, #12]
 2224 001e 9847     		blx	r3
 2225 0020 0346     		mov	r3, r0
 2226 0022 49E2     		b	.L115
 2227              	.L114:
 650:..\..\..\lvgl\version_6.1.2\lvgl\src\lv_objx/lv_btnm.c ****         /*Return false if the object is not covers the mask_p area*/
 651:..\..\..\lvgl\version_6.1.2\lvgl\src\lv_objx/lv_btnm.c ****     }
 652:..\..\..\lvgl\version_6.1.2\lvgl\src\lv_objx/lv_btnm.c ****     /*Draw the object*/
 653:..\..\..\lvgl\version_6.1.2\lvgl\src\lv_objx/lv_btnm.c ****     else if(mode == LV_DESIGN_DRAW_MAIN) {
 2228              		.loc 2 653 0
 2229 0024 FB79     		ldrb	r3, [r7, #7]	@ zero_extendqisi2
 2230 0026 002B     		cmp	r3, #0
 2231 0028 40F04582 		bne	.L116
 2232              	.LBB7:
 654:..\..\..\lvgl\version_6.1.2\lvgl\src\lv_objx/lv_btnm.c ****         ancestor_design_f(btnm, mask, mode);
 2233              		.loc 2 654 0
 2234 002c AD4B     		ldr	r3, .L138
 2235 002e 1B68     		ldr	r3, [r3]
 2236 0030 FA79     		ldrb	r2, [r7, #7]	@ zero_extendqisi2
 2237 0032 B968     		ldr	r1, [r7, #8]
 2238 0034 F868     		ldr	r0, [r7, #12]
 2239 0036 9847     		blx	r3
 655:..\..\..\lvgl\version_6.1.2\lvgl\src\lv_objx/lv_btnm.c **** 
 656:..\..\..\lvgl\version_6.1.2\lvgl\src\lv_objx/lv_btnm.c ****         lv_btnm_ext_t * ext         = lv_obj_get_ext_attr(btnm);
 2240              		.loc 2 656 0
 2241 0038 F868     		ldr	r0, [r7, #12]
 2242 003a FFF7FEFF 		bl	lv_obj_get_ext_attr
 2243 003e C7F88800 		str	r0, [r7, #136]
ARM GAS  C:\Users\tmj32\AppData\Local\Temp\ccyJ4BPG.s 			page 54


 657:..\..\..\lvgl\version_6.1.2\lvgl\src\lv_objx/lv_btnm.c ****         const lv_style_t * bg_style = lv_obj_get_style(btnm);
 2244              		.loc 2 657 0
 2245 0042 F868     		ldr	r0, [r7, #12]
 2246 0044 FFF7FEFF 		bl	lv_obj_get_style
 2247 0048 C7F88400 		str	r0, [r7, #132]
 658:..\..\..\lvgl\version_6.1.2\lvgl\src\lv_objx/lv_btnm.c ****         const lv_style_t * btn_style;
 659:..\..\..\lvgl\version_6.1.2\lvgl\src\lv_objx/lv_btnm.c ****         lv_opa_t opa_scale = lv_obj_get_opa_scale(btnm);
 2248              		.loc 2 659 0
 2249 004c F868     		ldr	r0, [r7, #12]
 2250 004e FFF7FEFF 		bl	lv_obj_get_opa_scale
 2251 0052 0346     		mov	r3, r0
 2252 0054 87F88330 		strb	r3, [r7, #131]
 660:..\..\..\lvgl\version_6.1.2\lvgl\src\lv_objx/lv_btnm.c **** 
 661:..\..\..\lvgl\version_6.1.2\lvgl\src\lv_objx/lv_btnm.c ****         lv_area_t area_btnm;
 662:..\..\..\lvgl\version_6.1.2\lvgl\src\lv_objx/lv_btnm.c ****         lv_obj_get_coords(btnm, &area_btnm);
 2253              		.loc 2 662 0
 2254 0058 07F17003 		add	r3, r7, #112
 2255 005c 1946     		mov	r1, r3
 2256 005e F868     		ldr	r0, [r7, #12]
 2257 0060 FFF7FEFF 		bl	lv_obj_get_coords
 663:..\..\..\lvgl\version_6.1.2\lvgl\src\lv_objx/lv_btnm.c **** 
 664:..\..\..\lvgl\version_6.1.2\lvgl\src\lv_objx/lv_btnm.c ****         lv_area_t area_tmp;
 665:..\..\..\lvgl\version_6.1.2\lvgl\src\lv_objx/lv_btnm.c ****         lv_coord_t btn_w;
 666:..\..\..\lvgl\version_6.1.2\lvgl\src\lv_objx/lv_btnm.c ****         lv_coord_t btn_h;
 667:..\..\..\lvgl\version_6.1.2\lvgl\src\lv_objx/lv_btnm.c **** 
 668:..\..\..\lvgl\version_6.1.2\lvgl\src\lv_objx/lv_btnm.c ****         uint16_t btn_i = 0;
 2258              		.loc 2 668 0
 2259 0064 0023     		movs	r3, #0
 2260 0066 A7F89230 		strh	r3, [r7, #146]	@ movhi
 669:..\..\..\lvgl\version_6.1.2\lvgl\src\lv_objx/lv_btnm.c ****         uint16_t txt_i = 0;
 2261              		.loc 2 669 0
 2262 006a 0023     		movs	r3, #0
 2263 006c A7F89030 		strh	r3, [r7, #144]	@ movhi
 670:..\..\..\lvgl\version_6.1.2\lvgl\src\lv_objx/lv_btnm.c ****         lv_style_t style_tmp;
 671:..\..\..\lvgl\version_6.1.2\lvgl\src\lv_objx/lv_btnm.c ****         lv_txt_flag_t txt_flag = LV_TXT_FLAG_NONE;
 2264              		.loc 2 671 0
 2265 0070 0023     		movs	r3, #0
 2266 0072 87F88F30 		strb	r3, [r7, #143]
 672:..\..\..\lvgl\version_6.1.2\lvgl\src\lv_objx/lv_btnm.c **** 
 673:..\..\..\lvgl\version_6.1.2\lvgl\src\lv_objx/lv_btnm.c ****         if(ext->recolor) txt_flag = LV_TXT_FLAG_RECOLOR;
 2267              		.loc 2 673 0
 2268 0076 D7F88830 		ldr	r3, [r7, #136]
 2269 007a 93F82630 		ldrb	r3, [r3, #38]	@ zero_extendqisi2
 2270 007e 03F00103 		and	r3, r3, #1
 2271 0082 DBB2     		uxtb	r3, r3
 2272 0084 002B     		cmp	r3, #0
 2273 0086 02D0     		beq	.L117
 2274              		.loc 2 673 0 is_stmt 0 discriminator 1
 2275 0088 0123     		movs	r3, #1
 2276 008a 87F88F30 		strb	r3, [r7, #143]
 2277              	.L117:
 674:..\..\..\lvgl\version_6.1.2\lvgl\src\lv_objx/lv_btnm.c ****         for(btn_i = 0; btn_i < ext->btn_cnt; btn_i++, txt_i++) {
 2278              		.loc 2 674 0 is_stmt 1
 2279 008e 0023     		movs	r3, #0
 2280 0090 A7F89230 		strh	r3, [r7, #146]	@ movhi
 2281 0094 07E2     		b	.L118
 2282              	.L120:
ARM GAS  C:\Users\tmj32\AppData\Local\Temp\ccyJ4BPG.s 			page 55


 2283              	.LBB8:
 675:..\..\..\lvgl\version_6.1.2\lvgl\src\lv_objx/lv_btnm.c ****             /*Search the next valid text in the map*/
 676:..\..\..\lvgl\version_6.1.2\lvgl\src\lv_objx/lv_btnm.c ****             while(strcmp(ext->map_p[txt_i], "\n") == 0) {
 677:..\..\..\lvgl\version_6.1.2\lvgl\src\lv_objx/lv_btnm.c ****                 txt_i++;
 2284              		.loc 2 677 0
 2285 0096 B7F89030 		ldrh	r3, [r7, #144]
 2286 009a 0133     		adds	r3, r3, #1
 2287 009c A7F89030 		strh	r3, [r7, #144]	@ movhi
 2288              	.L119:
 676:..\..\..\lvgl\version_6.1.2\lvgl\src\lv_objx/lv_btnm.c ****                 txt_i++;
 2289              		.loc 2 676 0
 2290 00a0 D7F88830 		ldr	r3, [r7, #136]
 2291 00a4 1A68     		ldr	r2, [r3]
 2292 00a6 B7F89030 		ldrh	r3, [r7, #144]
 2293 00aa 9B00     		lsls	r3, r3, #2
 2294 00ac 1344     		add	r3, r3, r2
 2295 00ae 1B68     		ldr	r3, [r3]
 2296 00b0 8D49     		ldr	r1, .L138+4
 2297 00b2 1846     		mov	r0, r3
 2298 00b4 FFF7FEFF 		bl	strcmp
 2299 00b8 0346     		mov	r3, r0
 2300 00ba 002B     		cmp	r3, #0
 2301 00bc EBD0     		beq	.L120
 678:..\..\..\lvgl\version_6.1.2\lvgl\src\lv_objx/lv_btnm.c ****             }
 679:..\..\..\lvgl\version_6.1.2\lvgl\src\lv_objx/lv_btnm.c **** 
 680:..\..\..\lvgl\version_6.1.2\lvgl\src\lv_objx/lv_btnm.c ****             /*Skip hidden buttons*/
 681:..\..\..\lvgl\version_6.1.2\lvgl\src\lv_objx/lv_btnm.c ****             if(button_is_hidden(ext->ctrl_bits[btn_i])) continue;
 2302              		.loc 2 681 0
 2303 00be D7F88830 		ldr	r3, [r7, #136]
 2304 00c2 9A68     		ldr	r2, [r3, #8]
 2305 00c4 B7F89230 		ldrh	r3, [r7, #146]
 2306 00c8 5B00     		lsls	r3, r3, #1
 2307 00ca 1344     		add	r3, r3, r2
 2308 00cc 1B88     		ldrh	r3, [r3]
 2309 00ce 1846     		mov	r0, r3
 2310 00d0 FFF7FEFF 		bl	button_is_hidden
 2311 00d4 0346     		mov	r3, r0
 2312 00d6 002B     		cmp	r3, #0
 2313 00d8 40F0DA81 		bne	.L137
 682:..\..\..\lvgl\version_6.1.2\lvgl\src\lv_objx/lv_btnm.c **** 
 683:..\..\..\lvgl\version_6.1.2\lvgl\src\lv_objx/lv_btnm.c ****             lv_area_copy(&area_tmp, &ext->button_areas[btn_i]);
 2314              		.loc 2 683 0
 2315 00dc D7F88830 		ldr	r3, [r7, #136]
 2316 00e0 5A68     		ldr	r2, [r3, #4]
 2317 00e2 B7F89230 		ldrh	r3, [r7, #146]
 2318 00e6 DB00     		lsls	r3, r3, #3
 2319 00e8 1A44     		add	r2, r2, r3
 2320 00ea 07F16803 		add	r3, r7, #104
 2321 00ee 1146     		mov	r1, r2
 2322 00f0 1846     		mov	r0, r3
 2323 00f2 FFF7FEFF 		bl	lv_area_copy
 684:..\..\..\lvgl\version_6.1.2\lvgl\src\lv_objx/lv_btnm.c ****             area_tmp.x1 += area_btnm.x1;
 2324              		.loc 2 684 0
 2325 00f6 B7F96830 		ldrsh	r3, [r7, #104]
 2326 00fa 9AB2     		uxth	r2, r3
 2327 00fc B7F97030 		ldrsh	r3, [r7, #112]
 2328 0100 9BB2     		uxth	r3, r3
ARM GAS  C:\Users\tmj32\AppData\Local\Temp\ccyJ4BPG.s 			page 56


 2329 0102 1344     		add	r3, r3, r2
 2330 0104 9BB2     		uxth	r3, r3
 2331 0106 1BB2     		sxth	r3, r3
 2332 0108 A7F86830 		strh	r3, [r7, #104]	@ movhi
 685:..\..\..\lvgl\version_6.1.2\lvgl\src\lv_objx/lv_btnm.c ****             area_tmp.y1 += area_btnm.y1;
 2333              		.loc 2 685 0
 2334 010c B7F96A30 		ldrsh	r3, [r7, #106]
 2335 0110 9AB2     		uxth	r2, r3
 2336 0112 B7F97230 		ldrsh	r3, [r7, #114]
 2337 0116 9BB2     		uxth	r3, r3
 2338 0118 1344     		add	r3, r3, r2
 2339 011a 9BB2     		uxth	r3, r3
 2340 011c 1BB2     		sxth	r3, r3
 2341 011e A7F86A30 		strh	r3, [r7, #106]	@ movhi
 686:..\..\..\lvgl\version_6.1.2\lvgl\src\lv_objx/lv_btnm.c ****             area_tmp.x2 += area_btnm.x1;
 2342              		.loc 2 686 0
 2343 0122 B7F96C30 		ldrsh	r3, [r7, #108]
 2344 0126 9AB2     		uxth	r2, r3
 2345 0128 B7F97030 		ldrsh	r3, [r7, #112]
 2346 012c 9BB2     		uxth	r3, r3
 2347 012e 1344     		add	r3, r3, r2
 2348 0130 9BB2     		uxth	r3, r3
 2349 0132 1BB2     		sxth	r3, r3
 2350 0134 A7F86C30 		strh	r3, [r7, #108]	@ movhi
 687:..\..\..\lvgl\version_6.1.2\lvgl\src\lv_objx/lv_btnm.c ****             area_tmp.y2 += area_btnm.y1;
 2351              		.loc 2 687 0
 2352 0138 B7F96E30 		ldrsh	r3, [r7, #110]
 2353 013c 9AB2     		uxth	r2, r3
 2354 013e B7F97230 		ldrsh	r3, [r7, #114]
 2355 0142 9BB2     		uxth	r3, r3
 2356 0144 1344     		add	r3, r3, r2
 2357 0146 9BB2     		uxth	r3, r3
 2358 0148 1BB2     		sxth	r3, r3
 2359 014a A7F86E30 		strh	r3, [r7, #110]	@ movhi
 688:..\..\..\lvgl\version_6.1.2\lvgl\src\lv_objx/lv_btnm.c **** 
 689:..\..\..\lvgl\version_6.1.2\lvgl\src\lv_objx/lv_btnm.c ****             btn_w = lv_area_get_width(&area_tmp);
 2360              		.loc 2 689 0
 2361 014e 07F16803 		add	r3, r7, #104
 2362 0152 1846     		mov	r0, r3
 2363 0154 FFF7FEFF 		bl	lv_area_get_width
 2364 0158 0346     		mov	r3, r0
 2365 015a A7F88030 		strh	r3, [r7, #128]	@ movhi
 690:..\..\..\lvgl\version_6.1.2\lvgl\src\lv_objx/lv_btnm.c ****             btn_h = lv_area_get_height(&area_tmp);
 2366              		.loc 2 690 0
 2367 015e 07F16803 		add	r3, r7, #104
 2368 0162 1846     		mov	r0, r3
 2369 0164 FFF7FEFF 		bl	lv_area_get_height
 2370 0168 0346     		mov	r3, r0
 2371 016a A7F87E30 		strh	r3, [r7, #126]	@ movhi
 691:..\..\..\lvgl\version_6.1.2\lvgl\src\lv_objx/lv_btnm.c **** 
 692:..\..\..\lvgl\version_6.1.2\lvgl\src\lv_objx/lv_btnm.c ****             /*Load the style*/
 693:..\..\..\lvgl\version_6.1.2\lvgl\src\lv_objx/lv_btnm.c ****             bool tgl_state = button_get_tgl_state(ext->ctrl_bits[btn_i]);
 2372              		.loc 2 693 0
 2373 016e D7F88830 		ldr	r3, [r7, #136]
 2374 0172 9A68     		ldr	r2, [r3, #8]
 2375 0174 B7F89230 		ldrh	r3, [r7, #146]
 2376 0178 5B00     		lsls	r3, r3, #1
ARM GAS  C:\Users\tmj32\AppData\Local\Temp\ccyJ4BPG.s 			page 57


 2377 017a 1344     		add	r3, r3, r2
 2378 017c 1B88     		ldrh	r3, [r3]
 2379 017e 1846     		mov	r0, r3
 2380 0180 FFF7FEFF 		bl	button_get_tgl_state
 2381 0184 0346     		mov	r3, r0
 2382 0186 87F87D30 		strb	r3, [r7, #125]
 694:..\..\..\lvgl\version_6.1.2\lvgl\src\lv_objx/lv_btnm.c ****             if(button_is_inactive(ext->ctrl_bits[btn_i]))
 2383              		.loc 2 694 0
 2384 018a D7F88830 		ldr	r3, [r7, #136]
 2385 018e 9A68     		ldr	r2, [r3, #8]
 2386 0190 B7F89230 		ldrh	r3, [r7, #146]
 2387 0194 5B00     		lsls	r3, r3, #1
 2388 0196 1344     		add	r3, r3, r2
 2389 0198 1B88     		ldrh	r3, [r3]
 2390 019a 1846     		mov	r0, r3
 2391 019c FFF7FEFF 		bl	button_is_inactive
 2392 01a0 0346     		mov	r3, r0
 2393 01a2 002B     		cmp	r3, #0
 2394 01a4 06D0     		beq	.L123
 695:..\..\..\lvgl\version_6.1.2\lvgl\src\lv_objx/lv_btnm.c ****                 btn_style = lv_btnm_get_style(btnm, LV_BTNM_STYLE_BTN_INA);
 2395              		.loc 2 695 0
 2396 01a6 0521     		movs	r1, #5
 2397 01a8 F868     		ldr	r0, [r7, #12]
 2398 01aa FFF7FEFF 		bl	lv_btnm_get_style
 2399 01ae C7F89400 		str	r0, [r7, #148]
 2400 01b2 53E0     		b	.L124
 2401              	.L123:
 696:..\..\..\lvgl\version_6.1.2\lvgl\src\lv_objx/lv_btnm.c ****             else if(btn_i != ext->btn_id_pr && tgl_state == false)
 2402              		.loc 2 696 0
 2403 01b4 D7F88830 		ldr	r3, [r7, #136]
 2404 01b8 5B8C     		ldrh	r3, [r3, #34]
 2405 01ba B7F89220 		ldrh	r2, [r7, #146]
 2406 01be 9A42     		cmp	r2, r3
 2407 01c0 0DD0     		beq	.L125
 2408              		.loc 2 696 0 is_stmt 0 discriminator 1
 2409 01c2 97F87D30 		ldrb	r3, [r7, #125]
 2410 01c6 83F00103 		eor	r3, r3, #1
 2411 01ca DBB2     		uxtb	r3, r3
 2412 01cc 002B     		cmp	r3, #0
 2413 01ce 06D0     		beq	.L125
 697:..\..\..\lvgl\version_6.1.2\lvgl\src\lv_objx/lv_btnm.c ****                 btn_style = lv_btnm_get_style(btnm, LV_BTNM_STYLE_BTN_REL);
 2414              		.loc 2 697 0 is_stmt 1
 2415 01d0 0121     		movs	r1, #1
 2416 01d2 F868     		ldr	r0, [r7, #12]
 2417 01d4 FFF7FEFF 		bl	lv_btnm_get_style
 2418 01d8 C7F89400 		str	r0, [r7, #148]
 2419 01dc 3EE0     		b	.L124
 2420              	.L125:
 698:..\..\..\lvgl\version_6.1.2\lvgl\src\lv_objx/lv_btnm.c ****             else if(btn_i == ext->btn_id_pr && tgl_state == false)
 2421              		.loc 2 698 0
 2422 01de D7F88830 		ldr	r3, [r7, #136]
 2423 01e2 5B8C     		ldrh	r3, [r3, #34]
 2424 01e4 B7F89220 		ldrh	r2, [r7, #146]
 2425 01e8 9A42     		cmp	r2, r3
 2426 01ea 0DD1     		bne	.L126
 2427              		.loc 2 698 0 is_stmt 0 discriminator 1
 2428 01ec 97F87D30 		ldrb	r3, [r7, #125]
ARM GAS  C:\Users\tmj32\AppData\Local\Temp\ccyJ4BPG.s 			page 58


 2429 01f0 83F00103 		eor	r3, r3, #1
 2430 01f4 DBB2     		uxtb	r3, r3
 2431 01f6 002B     		cmp	r3, #0
 2432 01f8 06D0     		beq	.L126
 699:..\..\..\lvgl\version_6.1.2\lvgl\src\lv_objx/lv_btnm.c ****                 btn_style = lv_btnm_get_style(btnm, LV_BTNM_STYLE_BTN_PR);
 2433              		.loc 2 699 0 is_stmt 1
 2434 01fa 0221     		movs	r1, #2
 2435 01fc F868     		ldr	r0, [r7, #12]
 2436 01fe FFF7FEFF 		bl	lv_btnm_get_style
 2437 0202 C7F89400 		str	r0, [r7, #148]
 2438 0206 29E0     		b	.L124
 2439              	.L126:
 700:..\..\..\lvgl\version_6.1.2\lvgl\src\lv_objx/lv_btnm.c ****             else if(btn_i != ext->btn_id_pr && tgl_state == true)
 2440              		.loc 2 700 0
 2441 0208 D7F88830 		ldr	r3, [r7, #136]
 2442 020c 5B8C     		ldrh	r3, [r3, #34]
 2443 020e B7F89220 		ldrh	r2, [r7, #146]
 2444 0212 9A42     		cmp	r2, r3
 2445 0214 0AD0     		beq	.L127
 2446              		.loc 2 700 0 is_stmt 0 discriminator 1
 2447 0216 97F87D30 		ldrb	r3, [r7, #125]	@ zero_extendqisi2
 2448 021a 002B     		cmp	r3, #0
 2449 021c 06D0     		beq	.L127
 701:..\..\..\lvgl\version_6.1.2\lvgl\src\lv_objx/lv_btnm.c ****                 btn_style = lv_btnm_get_style(btnm, LV_BTNM_STYLE_BTN_TGL_REL);
 2450              		.loc 2 701 0 is_stmt 1
 2451 021e 0321     		movs	r1, #3
 2452 0220 F868     		ldr	r0, [r7, #12]
 2453 0222 FFF7FEFF 		bl	lv_btnm_get_style
 2454 0226 C7F89400 		str	r0, [r7, #148]
 2455 022a 17E0     		b	.L124
 2456              	.L127:
 702:..\..\..\lvgl\version_6.1.2\lvgl\src\lv_objx/lv_btnm.c ****             else if(btn_i == ext->btn_id_pr && tgl_state == true)
 2457              		.loc 2 702 0
 2458 022c D7F88830 		ldr	r3, [r7, #136]
 2459 0230 5B8C     		ldrh	r3, [r3, #34]
 2460 0232 B7F89220 		ldrh	r2, [r7, #146]
 2461 0236 9A42     		cmp	r2, r3
 2462 0238 0AD1     		bne	.L128
 2463              		.loc 2 702 0 is_stmt 0 discriminator 1
 2464 023a 97F87D30 		ldrb	r3, [r7, #125]	@ zero_extendqisi2
 2465 023e 002B     		cmp	r3, #0
 2466 0240 06D0     		beq	.L128
 703:..\..\..\lvgl\version_6.1.2\lvgl\src\lv_objx/lv_btnm.c ****                 btn_style = lv_btnm_get_style(btnm, LV_BTNM_STYLE_BTN_TGL_PR);
 2467              		.loc 2 703 0 is_stmt 1
 2468 0242 0421     		movs	r1, #4
 2469 0244 F868     		ldr	r0, [r7, #12]
 2470 0246 FFF7FEFF 		bl	lv_btnm_get_style
 2471 024a C7F89400 		str	r0, [r7, #148]
 2472 024e 05E0     		b	.L124
 2473              	.L128:
 704:..\..\..\lvgl\version_6.1.2\lvgl\src\lv_objx/lv_btnm.c ****             else
 705:..\..\..\lvgl\version_6.1.2\lvgl\src\lv_objx/lv_btnm.c ****                 btn_style = lv_btnm_get_style(btnm, LV_BTNM_STYLE_BTN_REL); /*Not possible option, 
 2474              		.loc 2 705 0
 2475 0250 0121     		movs	r1, #1
 2476 0252 F868     		ldr	r0, [r7, #12]
 2477 0254 FFF7FEFF 		bl	lv_btnm_get_style
 2478 0258 C7F89400 		str	r0, [r7, #148]
ARM GAS  C:\Users\tmj32\AppData\Local\Temp\ccyJ4BPG.s 			page 59


 2479              	.L124:
 706:..\..\..\lvgl\version_6.1.2\lvgl\src\lv_objx/lv_btnm.c **** 
 707:..\..\..\lvgl\version_6.1.2\lvgl\src\lv_objx/lv_btnm.c ****             lv_style_copy(&style_tmp, btn_style);
 2480              		.loc 2 707 0
 2481 025c 07F11403 		add	r3, r7, #20
 2482 0260 D7F89410 		ldr	r1, [r7, #148]
 2483 0264 1846     		mov	r0, r3
 2484 0266 FFF7FEFF 		bl	lv_style_copy
 708:..\..\..\lvgl\version_6.1.2\lvgl\src\lv_objx/lv_btnm.c **** 
 709:..\..\..\lvgl\version_6.1.2\lvgl\src\lv_objx/lv_btnm.c ****             /*Remove borders on the edges if `LV_BORDER_INTERNAL`*/
 710:..\..\..\lvgl\version_6.1.2\lvgl\src\lv_objx/lv_btnm.c ****             if(style_tmp.body.border.part & LV_BORDER_INTERNAL) {
 2485              		.loc 2 710 0
 2486 026a 97F82A30 		ldrb	r3, [r7, #42]	@ zero_extendqisi2
 2487 026e 03F01003 		and	r3, r3, #16
 2488 0272 002B     		cmp	r3, #0
 2489 0274 76D0     		beq	.L129
 711:..\..\..\lvgl\version_6.1.2\lvgl\src\lv_objx/lv_btnm.c ****                 if(area_tmp.y1 == btnm->coords.y1 + bg_style->body.padding.top) {
 2490              		.loc 2 711 0
 2491 0276 B7F96A30 		ldrsh	r3, [r7, #106]
 2492 027a 1A46     		mov	r2, r3
 2493 027c FB68     		ldr	r3, [r7, #12]
 2494 027e B3F91230 		ldrsh	r3, [r3, #18]
 2495 0282 1946     		mov	r1, r3
 2496 0284 D7F88430 		ldr	r3, [r7, #132]
 2497 0288 B3F92030 		ldrsh	r3, [r3, #32]
 2498 028c 0B44     		add	r3, r3, r1
 2499 028e 9A42     		cmp	r2, r3
 2500 0290 06D1     		bne	.L130
 712:..\..\..\lvgl\version_6.1.2\lvgl\src\lv_objx/lv_btnm.c ****                     style_tmp.body.border.part &= ~LV_BORDER_TOP;
 2501              		.loc 2 712 0
 2502 0292 97F82A30 		ldrb	r3, [r7, #42]	@ zero_extendqisi2
 2503 0296 23F00203 		bic	r3, r3, #2
 2504 029a DBB2     		uxtb	r3, r3
 2505 029c 87F82A30 		strb	r3, [r7, #42]
 2506              	.L130:
 713:..\..\..\lvgl\version_6.1.2\lvgl\src\lv_objx/lv_btnm.c ****                 }
 714:..\..\..\lvgl\version_6.1.2\lvgl\src\lv_objx/lv_btnm.c ****                 if(area_tmp.y2 == btnm->coords.y2 - bg_style->body.padding.bottom) {
 2507              		.loc 2 714 0
 2508 02a0 B7F96E30 		ldrsh	r3, [r7, #110]
 2509 02a4 1A46     		mov	r2, r3
 2510 02a6 FB68     		ldr	r3, [r7, #12]
 2511 02a8 B3F91630 		ldrsh	r3, [r3, #22]
 2512 02ac 1946     		mov	r1, r3
 2513 02ae D7F88430 		ldr	r3, [r7, #132]
 2514 02b2 B3F92230 		ldrsh	r3, [r3, #34]
 2515 02b6 CB1A     		subs	r3, r1, r3
 2516 02b8 9A42     		cmp	r2, r3
 2517 02ba 06D1     		bne	.L131
 715:..\..\..\lvgl\version_6.1.2\lvgl\src\lv_objx/lv_btnm.c ****                     style_tmp.body.border.part &= ~LV_BORDER_BOTTOM;
 2518              		.loc 2 715 0
 2519 02bc 97F82A30 		ldrb	r3, [r7, #42]	@ zero_extendqisi2
 2520 02c0 23F00103 		bic	r3, r3, #1
 2521 02c4 DBB2     		uxtb	r3, r3
 2522 02c6 87F82A30 		strb	r3, [r7, #42]
 2523              	.L131:
 716:..\..\..\lvgl\version_6.1.2\lvgl\src\lv_objx/lv_btnm.c ****                 }
 717:..\..\..\lvgl\version_6.1.2\lvgl\src\lv_objx/lv_btnm.c **** 
ARM GAS  C:\Users\tmj32\AppData\Local\Temp\ccyJ4BPG.s 			page 60


 718:..\..\..\lvgl\version_6.1.2\lvgl\src\lv_objx/lv_btnm.c ****                 if(txt_i == 0) {
 2524              		.loc 2 718 0
 2525 02ca B7F89030 		ldrh	r3, [r7, #144]
 2526 02ce 002B     		cmp	r3, #0
 2527 02d0 0CD1     		bne	.L132
 719:..\..\..\lvgl\version_6.1.2\lvgl\src\lv_objx/lv_btnm.c ****                     style_tmp.body.border.part &= ~LV_BORDER_LEFT;
 2528              		.loc 2 719 0
 2529 02d2 97F82A30 		ldrb	r3, [r7, #42]	@ zero_extendqisi2
 2530 02d6 23F00403 		bic	r3, r3, #4
 2531 02da DBB2     		uxtb	r3, r3
 2532 02dc 87F82A30 		strb	r3, [r7, #42]
 2533 02e0 1DE0     		b	.L133
 2534              	.L139:
 2535 02e2 00BF     		.align	2
 2536              	.L138:
 2537 02e4 00000000 		.word	ancestor_design_f
 2538 02e8 18000000 		.word	.LC3
 2539              	.L132:
 720:..\..\..\lvgl\version_6.1.2\lvgl\src\lv_objx/lv_btnm.c ****                 } else if(strcmp(ext->map_p[txt_i - 1], "\n") == 0) {
 2540              		.loc 2 720 0
 2541 02ec D7F88830 		ldr	r3, [r7, #136]
 2542 02f0 1A68     		ldr	r2, [r3]
 2543 02f2 B7F89030 		ldrh	r3, [r7, #144]
 2544 02f6 03F18043 		add	r3, r3, #1073741824
 2545 02fa 013B     		subs	r3, r3, #1
 2546 02fc 9B00     		lsls	r3, r3, #2
 2547 02fe 1344     		add	r3, r3, r2
 2548 0300 1B68     		ldr	r3, [r3]
 2549 0302 6F49     		ldr	r1, .L140
 2550 0304 1846     		mov	r0, r3
 2551 0306 FFF7FEFF 		bl	strcmp
 2552 030a 0346     		mov	r3, r0
 2553 030c 002B     		cmp	r3, #0
 2554 030e 06D1     		bne	.L133
 721:..\..\..\lvgl\version_6.1.2\lvgl\src\lv_objx/lv_btnm.c ****                     style_tmp.body.border.part &= ~LV_BORDER_LEFT;
 2555              		.loc 2 721 0
 2556 0310 97F82A30 		ldrb	r3, [r7, #42]	@ zero_extendqisi2
 2557 0314 23F00403 		bic	r3, r3, #4
 2558 0318 DBB2     		uxtb	r3, r3
 2559 031a 87F82A30 		strb	r3, [r7, #42]
 2560              	.L133:
 722:..\..\..\lvgl\version_6.1.2\lvgl\src\lv_objx/lv_btnm.c ****                 }
 723:..\..\..\lvgl\version_6.1.2\lvgl\src\lv_objx/lv_btnm.c **** 
 724:..\..\..\lvgl\version_6.1.2\lvgl\src\lv_objx/lv_btnm.c ****                 if(ext->map_p[txt_i + 1][0] == '\0' || strcmp(ext->map_p[txt_i + 1], "\n") == 0) {
 2561              		.loc 2 724 0
 2562 031e D7F88830 		ldr	r3, [r7, #136]
 2563 0322 1A68     		ldr	r2, [r3]
 2564 0324 B7F89030 		ldrh	r3, [r7, #144]
 2565 0328 0133     		adds	r3, r3, #1
 2566 032a 9B00     		lsls	r3, r3, #2
 2567 032c 1344     		add	r3, r3, r2
 2568 032e 1B68     		ldr	r3, [r3]
 2569 0330 1B78     		ldrb	r3, [r3]	@ zero_extendqisi2
 2570 0332 002B     		cmp	r3, #0
 2571 0334 0FD0     		beq	.L134
 2572              		.loc 2 724 0 is_stmt 0 discriminator 1
 2573 0336 D7F88830 		ldr	r3, [r7, #136]
ARM GAS  C:\Users\tmj32\AppData\Local\Temp\ccyJ4BPG.s 			page 61


 2574 033a 1A68     		ldr	r2, [r3]
 2575 033c B7F89030 		ldrh	r3, [r7, #144]
 2576 0340 0133     		adds	r3, r3, #1
 2577 0342 9B00     		lsls	r3, r3, #2
 2578 0344 1344     		add	r3, r3, r2
 2579 0346 1B68     		ldr	r3, [r3]
 2580 0348 5D49     		ldr	r1, .L140
 2581 034a 1846     		mov	r0, r3
 2582 034c FFF7FEFF 		bl	strcmp
 2583 0350 0346     		mov	r3, r0
 2584 0352 002B     		cmp	r3, #0
 2585 0354 06D1     		bne	.L129
 2586              	.L134:
 725:..\..\..\lvgl\version_6.1.2\lvgl\src\lv_objx/lv_btnm.c ****                     style_tmp.body.border.part &= ~LV_BORDER_RIGHT;
 2587              		.loc 2 725 0 is_stmt 1
 2588 0356 97F82A30 		ldrb	r3, [r7, #42]	@ zero_extendqisi2
 2589 035a 23F00803 		bic	r3, r3, #8
 2590 035e DBB2     		uxtb	r3, r3
 2591 0360 87F82A30 		strb	r3, [r7, #42]
 2592              	.L129:
 726:..\..\..\lvgl\version_6.1.2\lvgl\src\lv_objx/lv_btnm.c ****                 }
 727:..\..\..\lvgl\version_6.1.2\lvgl\src\lv_objx/lv_btnm.c ****             }
 728:..\..\..\lvgl\version_6.1.2\lvgl\src\lv_objx/lv_btnm.c ****             lv_draw_rect(&area_tmp, mask, &style_tmp, opa_scale);
 2593              		.loc 2 728 0
 2594 0364 97F88330 		ldrb	r3, [r7, #131]	@ zero_extendqisi2
 2595 0368 07F11402 		add	r2, r7, #20
 2596 036c 07F16800 		add	r0, r7, #104
 2597 0370 B968     		ldr	r1, [r7, #8]
 2598 0372 FFF7FEFF 		bl	lv_draw_rect
 729:..\..\..\lvgl\version_6.1.2\lvgl\src\lv_objx/lv_btnm.c **** 
 730:..\..\..\lvgl\version_6.1.2\lvgl\src\lv_objx/lv_btnm.c ****             /*Calculate the size of the text*/
 731:..\..\..\lvgl\version_6.1.2\lvgl\src\lv_objx/lv_btnm.c ****             if(btn_style->glass) btn_style = bg_style;
 2599              		.loc 2 731 0
 2600 0376 D7F89430 		ldr	r3, [r7, #148]
 2601 037a 1B78     		ldrb	r3, [r3]	@ zero_extendqisi2
 2602 037c 03F00103 		and	r3, r3, #1
 2603 0380 DBB2     		uxtb	r3, r3
 2604 0382 002B     		cmp	r3, #0
 2605 0384 03D0     		beq	.L135
 2606              		.loc 2 731 0 is_stmt 0 discriminator 1
 2607 0386 D7F88430 		ldr	r3, [r7, #132]
 2608 038a C7F89430 		str	r3, [r7, #148]
 2609              	.L135:
 732:..\..\..\lvgl\version_6.1.2\lvgl\src\lv_objx/lv_btnm.c ****             const lv_font_t * font = btn_style->text.font;
 2610              		.loc 2 732 0 is_stmt 1
 2611 038e D7F89430 		ldr	r3, [r7, #148]
 2612 0392 5B6B     		ldr	r3, [r3, #52]
 2613 0394 BB67     		str	r3, [r7, #120]
 733:..\..\..\lvgl\version_6.1.2\lvgl\src\lv_objx/lv_btnm.c ****             lv_point_t txt_size;
 734:..\..\..\lvgl\version_6.1.2\lvgl\src\lv_objx/lv_btnm.c ****             lv_txt_get_size(&txt_size, ext->map_p[txt_i], font, btn_style->text.letter_space,
 2614              		.loc 2 734 0
 2615 0396 D7F88830 		ldr	r3, [r7, #136]
 2616 039a 1A68     		ldr	r2, [r3]
 2617 039c B7F89030 		ldrh	r3, [r7, #144]
 2618 03a0 9B00     		lsls	r3, r3, #2
 2619 03a2 1344     		add	r3, r3, r2
 2620 03a4 1D68     		ldr	r5, [r3]
ARM GAS  C:\Users\tmj32\AppData\Local\Temp\ccyJ4BPG.s 			page 62


 2621 03a6 D7F89430 		ldr	r3, [r7, #148]
 2622 03aa B3F93860 		ldrsh	r6, [r3, #56]
 2623 03ae D7F89430 		ldr	r3, [r7, #148]
 2624 03b2 B3F93A40 		ldrsh	r4, [r3, #58]
 2625 03b6 07F17003 		add	r3, r7, #112
 2626 03ba 1846     		mov	r0, r3
 2627 03bc FFF7FEFF 		bl	lv_area_get_width
 2628 03c0 0346     		mov	r3, r0
 2629 03c2 1A46     		mov	r2, r3
 2630 03c4 07F16400 		add	r0, r7, #100
 2631 03c8 97F88F30 		ldrb	r3, [r7, #143]	@ zero_extendqisi2
 2632 03cc 0293     		str	r3, [sp, #8]
 2633 03ce 0192     		str	r2, [sp, #4]
 2634 03d0 0094     		str	r4, [sp]
 2635 03d2 3346     		mov	r3, r6
 2636 03d4 BA6F     		ldr	r2, [r7, #120]
 2637 03d6 2946     		mov	r1, r5
 2638 03d8 FFF7FEFF 		bl	lv_txt_get_size
 735:..\..\..\lvgl\version_6.1.2\lvgl\src\lv_objx/lv_btnm.c ****                             btn_style->text.line_space, lv_area_get_width(&area_btnm), txt_flag);
 736:..\..\..\lvgl\version_6.1.2\lvgl\src\lv_objx/lv_btnm.c **** 
 737:..\..\..\lvgl\version_6.1.2\lvgl\src\lv_objx/lv_btnm.c ****             area_tmp.x1 += (btn_w - txt_size.x) / 2;
 2639              		.loc 2 737 0
 2640 03dc B7F96830 		ldrsh	r3, [r7, #104]
 2641 03e0 9AB2     		uxth	r2, r3
 2642 03e2 B7F98030 		ldrsh	r3, [r7, #128]
 2643 03e6 B7F96410 		ldrsh	r1, [r7, #100]
 2644 03ea 5B1A     		subs	r3, r3, r1
 2645 03ec D90F     		lsrs	r1, r3, #31
 2646 03ee 0B44     		add	r3, r3, r1
 2647 03f0 5B10     		asrs	r3, r3, #1
 2648 03f2 9BB2     		uxth	r3, r3
 2649 03f4 1344     		add	r3, r3, r2
 2650 03f6 9BB2     		uxth	r3, r3
 2651 03f8 1BB2     		sxth	r3, r3
 2652 03fa A7F86830 		strh	r3, [r7, #104]	@ movhi
 738:..\..\..\lvgl\version_6.1.2\lvgl\src\lv_objx/lv_btnm.c ****             area_tmp.y1 += (btn_h - txt_size.y) / 2;
 2653              		.loc 2 738 0
 2654 03fe B7F96A30 		ldrsh	r3, [r7, #106]
 2655 0402 9AB2     		uxth	r2, r3
 2656 0404 B7F97E30 		ldrsh	r3, [r7, #126]
 2657 0408 B7F96610 		ldrsh	r1, [r7, #102]
 2658 040c 5B1A     		subs	r3, r3, r1
 2659 040e D90F     		lsrs	r1, r3, #31
 2660 0410 0B44     		add	r3, r3, r1
 2661 0412 5B10     		asrs	r3, r3, #1
 2662 0414 9BB2     		uxth	r3, r3
 2663 0416 1344     		add	r3, r3, r2
 2664 0418 9BB2     		uxth	r3, r3
 2665 041a 1BB2     		sxth	r3, r3
 2666 041c A7F86A30 		strh	r3, [r7, #106]	@ movhi
 739:..\..\..\lvgl\version_6.1.2\lvgl\src\lv_objx/lv_btnm.c ****             area_tmp.x2 = area_tmp.x1 + txt_size.x;
 2667              		.loc 2 739 0
 2668 0420 B7F96830 		ldrsh	r3, [r7, #104]
 2669 0424 9AB2     		uxth	r2, r3
 2670 0426 B7F96430 		ldrsh	r3, [r7, #100]
 2671 042a 9BB2     		uxth	r3, r3
 2672 042c 1344     		add	r3, r3, r2
ARM GAS  C:\Users\tmj32\AppData\Local\Temp\ccyJ4BPG.s 			page 63


 2673 042e 9BB2     		uxth	r3, r3
 2674 0430 1BB2     		sxth	r3, r3
 2675 0432 A7F86C30 		strh	r3, [r7, #108]	@ movhi
 740:..\..\..\lvgl\version_6.1.2\lvgl\src\lv_objx/lv_btnm.c ****             area_tmp.y2 = area_tmp.y1 + txt_size.y;
 2676              		.loc 2 740 0
 2677 0436 B7F96A30 		ldrsh	r3, [r7, #106]
 2678 043a 9AB2     		uxth	r2, r3
 2679 043c B7F96630 		ldrsh	r3, [r7, #102]
 2680 0440 9BB2     		uxth	r3, r3
 2681 0442 1344     		add	r3, r3, r2
 2682 0444 9BB2     		uxth	r3, r3
 2683 0446 1BB2     		sxth	r3, r3
 2684 0448 A7F86E30 		strh	r3, [r7, #110]	@ movhi
 741:..\..\..\lvgl\version_6.1.2\lvgl\src\lv_objx/lv_btnm.c **** 
 742:..\..\..\lvgl\version_6.1.2\lvgl\src\lv_objx/lv_btnm.c ****             lv_draw_label(&area_tmp, mask, btn_style, opa_scale, ext->map_p[txt_i], txt_flag, NULL,
 2685              		.loc 2 742 0
 2686 044c D7F88830 		ldr	r3, [r7, #136]
 2687 0450 1A68     		ldr	r2, [r3]
 2688 0452 B7F89030 		ldrh	r3, [r7, #144]
 2689 0456 9B00     		lsls	r3, r3, #2
 2690 0458 1344     		add	r3, r3, r2
 2691 045a 1C68     		ldr	r4, [r3]
 2692 045c F868     		ldr	r0, [r7, #12]
 2693 045e FFF7FEFF 		bl	lv_obj_get_base_dir
 2694 0462 0346     		mov	r3, r0
 2695 0464 97F88320 		ldrb	r2, [r7, #131]	@ zero_extendqisi2
 2696 0468 07F16800 		add	r0, r7, #104
 2697 046c 0593     		str	r3, [sp, #20]
 2698 046e 0023     		movs	r3, #0
 2699 0470 0493     		str	r3, [sp, #16]
 2700 0472 0023     		movs	r3, #0
 2701 0474 0393     		str	r3, [sp, #12]
 2702 0476 0023     		movs	r3, #0
 2703 0478 0293     		str	r3, [sp, #8]
 2704 047a 97F88F30 		ldrb	r3, [r7, #143]	@ zero_extendqisi2
 2705 047e 0193     		str	r3, [sp, #4]
 2706 0480 0094     		str	r4, [sp]
 2707 0482 1346     		mov	r3, r2
 2708 0484 D7F89420 		ldr	r2, [r7, #148]
 2709 0488 B968     		ldr	r1, [r7, #8]
 2710 048a FFF7FEFF 		bl	lv_draw_label
 2711 048e 00E0     		b	.L122
 2712              	.L137:
 681:..\..\..\lvgl\version_6.1.2\lvgl\src\lv_objx/lv_btnm.c **** 
 2713              		.loc 2 681 0
 2714 0490 00BF     		nop
 2715              	.L122:
 2716              	.LBE8:
 674:..\..\..\lvgl\version_6.1.2\lvgl\src\lv_objx/lv_btnm.c ****             /*Search the next valid text in the map*/
 2717              		.loc 2 674 0 discriminator 2
 2718 0492 B7F89230 		ldrh	r3, [r7, #146]
 2719 0496 0133     		adds	r3, r3, #1
 2720 0498 A7F89230 		strh	r3, [r7, #146]	@ movhi
 2721 049c B7F89030 		ldrh	r3, [r7, #144]
 2722 04a0 0133     		adds	r3, r3, #1
 2723 04a2 A7F89030 		strh	r3, [r7, #144]	@ movhi
 2724              	.L118:
ARM GAS  C:\Users\tmj32\AppData\Local\Temp\ccyJ4BPG.s 			page 64


 674:..\..\..\lvgl\version_6.1.2\lvgl\src\lv_objx/lv_btnm.c ****             /*Search the next valid text in the map*/
 2725              		.loc 2 674 0 is_stmt 0 discriminator 1
 2726 04a6 D7F88830 		ldr	r3, [r7, #136]
 2727 04aa 1B8C     		ldrh	r3, [r3, #32]
 2728 04ac B7F89220 		ldrh	r2, [r7, #146]
 2729 04b0 9A42     		cmp	r2, r3
 2730 04b2 FFF4F5AD 		bcc	.L119
 2731              	.L116:
 2732              	.LBE7:
 743:..\..\..\lvgl\version_6.1.2\lvgl\src\lv_objx/lv_btnm.c ****         }
 744:..\..\..\lvgl\version_6.1.2\lvgl\src\lv_objx/lv_btnm.c ****     }
 745:..\..\..\lvgl\version_6.1.2\lvgl\src\lv_objx/lv_btnm.c **** 
 746:..\..\..\lvgl\version_6.1.2\lvgl\src\lv_objx/lv_btnm.c ****     return true;
 2733              		.loc 2 746 0 is_stmt 1
 2734 04b6 0123     		movs	r3, #1
 2735              	.L115:
 747:..\..\..\lvgl\version_6.1.2\lvgl\src\lv_objx/lv_btnm.c **** }
 2736              		.loc 2 747 0
 2737 04b8 1846     		mov	r0, r3
 2738 04ba 9C37     		adds	r7, r7, #156
 2739              		.cfi_def_cfa_offset 20
 2740 04bc BD46     		mov	sp, r7
 2741              		.cfi_def_cfa_register 13
 2742              		@ sp needed
 2743 04be F0BD     		pop	{r4, r5, r6, r7, pc}
 2744              	.L141:
 2745              		.align	2
 2746              	.L140:
 2747 04c0 18000000 		.word	.LC3
 2748              		.cfi_endproc
 2749              	.LFE67:
 2750              		.size	lv_btnm_design, .-lv_btnm_design
 2751              		.section	.rodata
 2752 002d 000000   		.align	2
 2753              	.LC7:
 2754 0030 6C765F62 		.ascii	"lv_btnm\000"
 2754      746E6D00 
 2755              		.section	.text.lv_btnm_signal,"ax",%progbits
 2756              		.align	2
 2757              		.thumb
 2758              		.thumb_func
 2759              		.type	lv_btnm_signal, %function
 2760              	lv_btnm_signal:
 2761              	.LFB68:
 748:..\..\..\lvgl\version_6.1.2\lvgl\src\lv_objx/lv_btnm.c **** 
 749:..\..\..\lvgl\version_6.1.2\lvgl\src\lv_objx/lv_btnm.c **** /**
 750:..\..\..\lvgl\version_6.1.2\lvgl\src\lv_objx/lv_btnm.c ****  * Signal function of the button matrix
 751:..\..\..\lvgl\version_6.1.2\lvgl\src\lv_objx/lv_btnm.c ****  * @param btnm pointer to a button matrix object
 752:..\..\..\lvgl\version_6.1.2\lvgl\src\lv_objx/lv_btnm.c ****  * @param sign a signal type from lv_signal_t enum
 753:..\..\..\lvgl\version_6.1.2\lvgl\src\lv_objx/lv_btnm.c ****  * @param param pointer to a signal specific variable
 754:..\..\..\lvgl\version_6.1.2\lvgl\src\lv_objx/lv_btnm.c ****  * @return LV_RES_OK: the object is not deleted in the function; LV_RES_INV: the object is deleted
 755:..\..\..\lvgl\version_6.1.2\lvgl\src\lv_objx/lv_btnm.c ****  */
 756:..\..\..\lvgl\version_6.1.2\lvgl\src\lv_objx/lv_btnm.c **** static lv_res_t lv_btnm_signal(lv_obj_t * btnm, lv_signal_t sign, void * param)
 757:..\..\..\lvgl\version_6.1.2\lvgl\src\lv_objx/lv_btnm.c **** {
 2762              		.loc 2 757 0
 2763              		.cfi_startproc
 2764              		@ args = 0, pretend = 0, frame = 80
ARM GAS  C:\Users\tmj32\AppData\Local\Temp\ccyJ4BPG.s 			page 65


 2765              		@ frame_needed = 1, uses_anonymous_args = 0
 2766 0000 90B5     		push	{r4, r7, lr}
 2767              		.cfi_def_cfa_offset 12
 2768              		.cfi_offset 4, -12
 2769              		.cfi_offset 7, -8
 2770              		.cfi_offset 14, -4
 2771 0002 95B0     		sub	sp, sp, #84
 2772              		.cfi_def_cfa_offset 96
 2773 0004 00AF     		add	r7, sp, #0
 2774              		.cfi_def_cfa_register 7
 2775 0006 F860     		str	r0, [r7, #12]
 2776 0008 0B46     		mov	r3, r1
 2777 000a 7A60     		str	r2, [r7, #4]
 2778 000c FB72     		strb	r3, [r7, #11]
 758:..\..\..\lvgl\version_6.1.2\lvgl\src\lv_objx/lv_btnm.c ****     lv_res_t res;
 759:..\..\..\lvgl\version_6.1.2\lvgl\src\lv_objx/lv_btnm.c **** 
 760:..\..\..\lvgl\version_6.1.2\lvgl\src\lv_objx/lv_btnm.c ****     /* Include the ancient signal function */
 761:..\..\..\lvgl\version_6.1.2\lvgl\src\lv_objx/lv_btnm.c ****     res = ancestor_signal(btnm, sign, param);
 2779              		.loc 2 761 0
 2780 000e A04B     		ldr	r3, .L193
 2781 0010 1B68     		ldr	r3, [r3]
 2782 0012 F97A     		ldrb	r1, [r7, #11]	@ zero_extendqisi2
 2783 0014 7A68     		ldr	r2, [r7, #4]
 2784 0016 F868     		ldr	r0, [r7, #12]
 2785 0018 9847     		blx	r3
 2786 001a 0346     		mov	r3, r0
 2787 001c 87F84F30 		strb	r3, [r7, #79]
 762:..\..\..\lvgl\version_6.1.2\lvgl\src\lv_objx/lv_btnm.c ****     if(res != LV_RES_OK) return res;
 2788              		.loc 2 762 0
 2789 0020 97F84F30 		ldrb	r3, [r7, #79]	@ zero_extendqisi2
 2790 0024 012B     		cmp	r3, #1
 2791 0026 02D0     		beq	.L143
 2792              		.loc 2 762 0 is_stmt 0 discriminator 1
 2793 0028 97F84F30 		ldrb	r3, [r7, #79]	@ zero_extendqisi2
 2794 002c 5EE3     		b	.L190
 2795              	.L143:
 763:..\..\..\lvgl\version_6.1.2\lvgl\src\lv_objx/lv_btnm.c ****     if(sign == LV_SIGNAL_GET_TYPE) return lv_obj_handle_get_type_signal(param, LV_OBJX_NAME);
 2796              		.loc 2 763 0 is_stmt 1
 2797 002e FB7A     		ldrb	r3, [r7, #11]	@ zero_extendqisi2
 2798 0030 072B     		cmp	r3, #7
 2799 0032 05D1     		bne	.L145
 2800              		.loc 2 763 0 is_stmt 0 discriminator 1
 2801 0034 9749     		ldr	r1, .L193+4
 2802 0036 7868     		ldr	r0, [r7, #4]
 2803 0038 FFF7FEFF 		bl	lv_obj_handle_get_type_signal
 2804 003c 0346     		mov	r3, r0
 2805 003e 55E3     		b	.L190
 2806              	.L145:
 764:..\..\..\lvgl\version_6.1.2\lvgl\src\lv_objx/lv_btnm.c **** 
 765:..\..\..\lvgl\version_6.1.2\lvgl\src\lv_objx/lv_btnm.c ****     lv_btnm_ext_t * ext = lv_obj_get_ext_attr(btnm);
 2807              		.loc 2 765 0 is_stmt 1
 2808 0040 F868     		ldr	r0, [r7, #12]
 2809 0042 FFF7FEFF 		bl	lv_obj_get_ext_attr
 2810 0046 7864     		str	r0, [r7, #68]
 766:..\..\..\lvgl\version_6.1.2\lvgl\src\lv_objx/lv_btnm.c ****     lv_point_t p;
 767:..\..\..\lvgl\version_6.1.2\lvgl\src\lv_objx/lv_btnm.c ****     if(sign == LV_SIGNAL_CLEANUP) {
 2811              		.loc 2 767 0
ARM GAS  C:\Users\tmj32\AppData\Local\Temp\ccyJ4BPG.s 			page 66


 2812 0048 FB7A     		ldrb	r3, [r7, #11]	@ zero_extendqisi2
 2813 004a 002B     		cmp	r3, #0
 2814 004c 0AD1     		bne	.L146
 768:..\..\..\lvgl\version_6.1.2\lvgl\src\lv_objx/lv_btnm.c ****         lv_mem_free(ext->button_areas);
 2815              		.loc 2 768 0
 2816 004e 7B6C     		ldr	r3, [r7, #68]
 2817 0050 5B68     		ldr	r3, [r3, #4]
 2818 0052 1846     		mov	r0, r3
 2819 0054 FFF7FEFF 		bl	lv_mem_free
 769:..\..\..\lvgl\version_6.1.2\lvgl\src\lv_objx/lv_btnm.c ****         lv_mem_free(ext->ctrl_bits);
 2820              		.loc 2 769 0
 2821 0058 7B6C     		ldr	r3, [r7, #68]
 2822 005a 9B68     		ldr	r3, [r3, #8]
 2823 005c 1846     		mov	r0, r3
 2824 005e FFF7FEFF 		bl	lv_mem_free
 2825 0062 41E3     		b	.L147
 2826              	.L146:
 770:..\..\..\lvgl\version_6.1.2\lvgl\src\lv_objx/lv_btnm.c ****     } else if(sign == LV_SIGNAL_STYLE_CHG || sign == LV_SIGNAL_CORD_CHG) {
 2827              		.loc 2 770 0
 2828 0064 FB7A     		ldrb	r3, [r7, #11]	@ zero_extendqisi2
 2829 0066 042B     		cmp	r3, #4
 2830 0068 02D0     		beq	.L148
 2831              		.loc 2 770 0 is_stmt 0 discriminator 1
 2832 006a FB7A     		ldrb	r3, [r7, #11]	@ zero_extendqisi2
 2833 006c 022B     		cmp	r3, #2
 2834 006e 06D1     		bne	.L149
 2835              	.L148:
 771:..\..\..\lvgl\version_6.1.2\lvgl\src\lv_objx/lv_btnm.c ****         lv_btnm_set_map(btnm, ext->map_p);
 2836              		.loc 2 771 0 is_stmt 1
 2837 0070 7B6C     		ldr	r3, [r7, #68]
 2838 0072 1B68     		ldr	r3, [r3]
 2839 0074 1946     		mov	r1, r3
 2840 0076 F868     		ldr	r0, [r7, #12]
 2841 0078 FFF7FEFF 		bl	lv_btnm_set_map
 2842 007c 34E3     		b	.L147
 2843              	.L149:
 772:..\..\..\lvgl\version_6.1.2\lvgl\src\lv_objx/lv_btnm.c ****     } else if(sign == LV_SIGNAL_PRESSED) {
 2844              		.loc 2 772 0
 2845 007e FB7A     		ldrb	r3, [r7, #11]	@ zero_extendqisi2
 2846 0080 082B     		cmp	r3, #8
 2847 0082 76D1     		bne	.L150
 2848              	.LBB9:
 773:..\..\..\lvgl\version_6.1.2\lvgl\src\lv_objx/lv_btnm.c ****         lv_indev_t * indev = lv_indev_get_act();
 2849              		.loc 2 773 0
 2850 0084 FFF7FEFF 		bl	lv_indev_get_act
 2851 0088 3864     		str	r0, [r7, #64]
 774:..\..\..\lvgl\version_6.1.2\lvgl\src\lv_objx/lv_btnm.c ****         if(lv_indev_get_type(indev) == LV_INDEV_TYPE_POINTER || lv_indev_get_type(indev) == LV_INDE
 2852              		.loc 2 774 0
 2853 008a 386C     		ldr	r0, [r7, #64]
 2854 008c FFF7FEFF 		bl	lv_indev_get_type
 2855 0090 0346     		mov	r3, r0
 2856 0092 012B     		cmp	r3, #1
 2857 0094 05D0     		beq	.L151
 2858              		.loc 2 774 0 is_stmt 0 discriminator 1
 2859 0096 386C     		ldr	r0, [r7, #64]
 2860 0098 FFF7FEFF 		bl	lv_indev_get_type
 2861 009c 0346     		mov	r3, r0
ARM GAS  C:\Users\tmj32\AppData\Local\Temp\ccyJ4BPG.s 			page 67


 2862 009e 032B     		cmp	r3, #3
 2863 00a0 1FD1     		bne	.L152
 2864              	.L151:
 2865              	.LBB10:
 775:..\..\..\lvgl\version_6.1.2\lvgl\src\lv_objx/lv_btnm.c ****             uint16_t btn_pr;
 776:..\..\..\lvgl\version_6.1.2\lvgl\src\lv_objx/lv_btnm.c ****             /*Search the pressed area*/
 777:..\..\..\lvgl\version_6.1.2\lvgl\src\lv_objx/lv_btnm.c ****             lv_indev_get_point(param, &p);
 2866              		.loc 2 777 0 is_stmt 1
 2867 00a2 07F12003 		add	r3, r7, #32
 2868 00a6 1946     		mov	r1, r3
 2869 00a8 7868     		ldr	r0, [r7, #4]
 2870 00aa FFF7FEFF 		bl	lv_indev_get_point
 778:..\..\..\lvgl\version_6.1.2\lvgl\src\lv_objx/lv_btnm.c ****             btn_pr = get_button_from_point(btnm, &p);
 2871              		.loc 2 778 0
 2872 00ae 07F12003 		add	r3, r7, #32
 2873 00b2 1946     		mov	r1, r3
 2874 00b4 F868     		ldr	r0, [r7, #12]
 2875 00b6 FFF7FEFF 		bl	get_button_from_point
 2876 00ba 0346     		mov	r3, r0
 2877 00bc FB87     		strh	r3, [r7, #62]	@ movhi
 779:..\..\..\lvgl\version_6.1.2\lvgl\src\lv_objx/lv_btnm.c **** 
 780:..\..\..\lvgl\version_6.1.2\lvgl\src\lv_objx/lv_btnm.c ****             invalidate_button_area(btnm, ext->btn_id_pr) /*Invalidate the old area*/;
 2878              		.loc 2 780 0
 2879 00be 7B6C     		ldr	r3, [r7, #68]
 2880 00c0 5B8C     		ldrh	r3, [r3, #34]
 2881 00c2 1946     		mov	r1, r3
 2882 00c4 F868     		ldr	r0, [r7, #12]
 2883 00c6 FFF7FEFF 		bl	invalidate_button_area
 781:..\..\..\lvgl\version_6.1.2\lvgl\src\lv_objx/lv_btnm.c ****             ext->btn_id_pr  = btn_pr;
 2884              		.loc 2 781 0
 2885 00ca 7B6C     		ldr	r3, [r7, #68]
 2886 00cc FA8F     		ldrh	r2, [r7, #62]	@ movhi
 2887 00ce 5A84     		strh	r2, [r3, #34]	@ movhi
 782:..\..\..\lvgl\version_6.1.2\lvgl\src\lv_objx/lv_btnm.c ****             ext->btn_id_act = btn_pr;
 2888              		.loc 2 782 0
 2889 00d0 7B6C     		ldr	r3, [r7, #68]
 2890 00d2 FA8F     		ldrh	r2, [r7, #62]	@ movhi
 2891 00d4 9A84     		strh	r2, [r3, #36]	@ movhi
 783:..\..\..\lvgl\version_6.1.2\lvgl\src\lv_objx/lv_btnm.c ****             invalidate_button_area(btnm, ext->btn_id_pr); /*Invalidate the new area*/
 2892              		.loc 2 783 0
 2893 00d6 7B6C     		ldr	r3, [r7, #68]
 2894 00d8 5B8C     		ldrh	r3, [r3, #34]
 2895 00da 1946     		mov	r1, r3
 2896 00dc F868     		ldr	r0, [r7, #12]
 2897 00de FFF7FEFF 		bl	invalidate_button_area
 2898              	.L152:
 2899              	.LBE10:
 784:..\..\..\lvgl\version_6.1.2\lvgl\src\lv_objx/lv_btnm.c ****         }
 785:..\..\..\lvgl\version_6.1.2\lvgl\src\lv_objx/lv_btnm.c ****         if(ext->btn_id_act != LV_BTNM_BTN_NONE) {
 2900              		.loc 2 785 0
 2901 00e2 7B6C     		ldr	r3, [r7, #68]
 2902 00e4 9B8C     		ldrh	r3, [r3, #36]
 2903 00e6 4FF6FF72 		movw	r2, #65535
 2904 00ea 9342     		cmp	r3, r2
 2905 00ec 00F0FC82 		beq	.L147
 786:..\..\..\lvgl\version_6.1.2\lvgl\src\lv_objx/lv_btnm.c ****             if(button_is_click_trig(ext->ctrl_bits[ext->btn_id_act]) == false &&
 2906              		.loc 2 786 0
ARM GAS  C:\Users\tmj32\AppData\Local\Temp\ccyJ4BPG.s 			page 68


 2907 00f0 7B6C     		ldr	r3, [r7, #68]
 2908 00f2 9A68     		ldr	r2, [r3, #8]
 2909 00f4 7B6C     		ldr	r3, [r7, #68]
 2910 00f6 9B8C     		ldrh	r3, [r3, #36]
 2911 00f8 5B00     		lsls	r3, r3, #1
 2912 00fa 1344     		add	r3, r3, r2
 2913 00fc 1B88     		ldrh	r3, [r3]
 2914 00fe 1846     		mov	r0, r3
 2915 0100 FFF7FEFF 		bl	button_is_click_trig
 2916 0104 0346     		mov	r3, r0
 2917 0106 83F00103 		eor	r3, r3, #1
 2918 010a DBB2     		uxtb	r3, r3
 2919 010c 002B     		cmp	r3, #0
 2920 010e 00F0EB82 		beq	.L147
 787:..\..\..\lvgl\version_6.1.2\lvgl\src\lv_objx/lv_btnm.c ****                button_is_inactive(ext->ctrl_bits[ext->btn_id_act]) == false &&
 2921              		.loc 2 787 0 discriminator 1
 2922 0112 7B6C     		ldr	r3, [r7, #68]
 2923 0114 9A68     		ldr	r2, [r3, #8]
 2924 0116 7B6C     		ldr	r3, [r7, #68]
 2925 0118 9B8C     		ldrh	r3, [r3, #36]
 2926 011a 5B00     		lsls	r3, r3, #1
 2927 011c 1344     		add	r3, r3, r2
 2928 011e 1B88     		ldrh	r3, [r3]
 2929 0120 1846     		mov	r0, r3
 2930 0122 FFF7FEFF 		bl	button_is_inactive
 2931 0126 0346     		mov	r3, r0
 2932 0128 83F00103 		eor	r3, r3, #1
 2933 012c DBB2     		uxtb	r3, r3
 786:..\..\..\lvgl\version_6.1.2\lvgl\src\lv_objx/lv_btnm.c ****             if(button_is_click_trig(ext->ctrl_bits[ext->btn_id_act]) == false &&
 2934              		.loc 2 786 0 discriminator 1
 2935 012e 002B     		cmp	r3, #0
 2936 0130 00F0DA82 		beq	.L147
 788:..\..\..\lvgl\version_6.1.2\lvgl\src\lv_objx/lv_btnm.c ****                button_is_hidden(ext->ctrl_bits[ext->btn_id_act]) == false) {
 2937              		.loc 2 788 0
 2938 0134 7B6C     		ldr	r3, [r7, #68]
 2939 0136 9A68     		ldr	r2, [r3, #8]
 2940 0138 7B6C     		ldr	r3, [r7, #68]
 2941 013a 9B8C     		ldrh	r3, [r3, #36]
 2942 013c 5B00     		lsls	r3, r3, #1
 2943 013e 1344     		add	r3, r3, r2
 2944 0140 1B88     		ldrh	r3, [r3]
 2945 0142 1846     		mov	r0, r3
 2946 0144 FFF7FEFF 		bl	button_is_hidden
 2947 0148 0346     		mov	r3, r0
 2948 014a 83F00103 		eor	r3, r3, #1
 2949 014e DBB2     		uxtb	r3, r3
 787:..\..\..\lvgl\version_6.1.2\lvgl\src\lv_objx/lv_btnm.c ****                button_is_inactive(ext->ctrl_bits[ext->btn_id_act]) == false &&
 2950              		.loc 2 787 0
 2951 0150 002B     		cmp	r3, #0
 2952 0152 00F0C982 		beq	.L147
 2953              	.LBB11:
 789:..\..\..\lvgl\version_6.1.2\lvgl\src\lv_objx/lv_btnm.c ****                 uint32_t b = ext->btn_id_act;
 2954              		.loc 2 789 0
 2955 0156 7B6C     		ldr	r3, [r7, #68]
 2956 0158 9B8C     		ldrh	r3, [r3, #36]
 2957 015a FB61     		str	r3, [r7, #28]
 790:..\..\..\lvgl\version_6.1.2\lvgl\src\lv_objx/lv_btnm.c ****                 res        = lv_event_send(btnm, LV_EVENT_VALUE_CHANGED, &b);
ARM GAS  C:\Users\tmj32\AppData\Local\Temp\ccyJ4BPG.s 			page 69


 2958              		.loc 2 790 0
 2959 015c 07F11C03 		add	r3, r7, #28
 2960 0160 1A46     		mov	r2, r3
 2961 0162 0E21     		movs	r1, #14
 2962 0164 F868     		ldr	r0, [r7, #12]
 2963 0166 FFF7FEFF 		bl	lv_event_send
 2964 016a 0346     		mov	r3, r0
 2965 016c 87F84F30 		strb	r3, [r7, #79]
 2966 0170 BAE2     		b	.L147
 2967              	.L150:
 2968              	.LBE11:
 2969              	.LBE9:
 791:..\..\..\lvgl\version_6.1.2\lvgl\src\lv_objx/lv_btnm.c ****             }
 792:..\..\..\lvgl\version_6.1.2\lvgl\src\lv_objx/lv_btnm.c ****         }
 793:..\..\..\lvgl\version_6.1.2\lvgl\src\lv_objx/lv_btnm.c ****     } else if(sign == LV_SIGNAL_PRESSING) {
 2970              		.loc 2 793 0
 2971 0172 FB7A     		ldrb	r3, [r7, #11]	@ zero_extendqisi2
 2972 0174 092B     		cmp	r3, #9
 2973 0176 43D1     		bne	.L154
 2974              	.LBB12:
 794:..\..\..\lvgl\version_6.1.2\lvgl\src\lv_objx/lv_btnm.c ****         uint16_t btn_pr;
 795:..\..\..\lvgl\version_6.1.2\lvgl\src\lv_objx/lv_btnm.c ****         /*Search the pressed area*/
 796:..\..\..\lvgl\version_6.1.2\lvgl\src\lv_objx/lv_btnm.c ****         lv_indev_get_point(param, &p);
 2975              		.loc 2 796 0
 2976 0178 07F12003 		add	r3, r7, #32
 2977 017c 1946     		mov	r1, r3
 2978 017e 7868     		ldr	r0, [r7, #4]
 2979 0180 FFF7FEFF 		bl	lv_indev_get_point
 797:..\..\..\lvgl\version_6.1.2\lvgl\src\lv_objx/lv_btnm.c ****         btn_pr = get_button_from_point(btnm, &p);
 2980              		.loc 2 797 0
 2981 0184 07F12003 		add	r3, r7, #32
 2982 0188 1946     		mov	r1, r3
 2983 018a F868     		ldr	r0, [r7, #12]
 2984 018c FFF7FEFF 		bl	get_button_from_point
 2985 0190 0346     		mov	r3, r0
 2986 0192 BB87     		strh	r3, [r7, #60]	@ movhi
 798:..\..\..\lvgl\version_6.1.2\lvgl\src\lv_objx/lv_btnm.c ****         /*Invalidate to old and the new areas*/;
 799:..\..\..\lvgl\version_6.1.2\lvgl\src\lv_objx/lv_btnm.c ****         if(btn_pr != ext->btn_id_pr) {
 2987              		.loc 2 799 0
 2988 0194 7B6C     		ldr	r3, [r7, #68]
 2989 0196 5B8C     		ldrh	r3, [r3, #34]
 2990 0198 BA8F     		ldrh	r2, [r7, #60]
 2991 019a 9A42     		cmp	r2, r3
 2992 019c 29D0     		beq	.L155
 800:..\..\..\lvgl\version_6.1.2\lvgl\src\lv_objx/lv_btnm.c ****             lv_indev_reset_long_press(param); /*Start the log press time again on the new button*/
 2993              		.loc 2 800 0
 2994 019e 7868     		ldr	r0, [r7, #4]
 2995 01a0 FFF7FEFF 		bl	lv_indev_reset_long_press
 801:..\..\..\lvgl\version_6.1.2\lvgl\src\lv_objx/lv_btnm.c ****             if(ext->btn_id_pr != LV_BTNM_BTN_NONE) {
 2996              		.loc 2 801 0
 2997 01a4 7B6C     		ldr	r3, [r7, #68]
 2998 01a6 5B8C     		ldrh	r3, [r3, #34]
 2999 01a8 4FF6FF72 		movw	r2, #65535
 3000 01ac 9342     		cmp	r3, r2
 3001 01ae 05D0     		beq	.L156
 802:..\..\..\lvgl\version_6.1.2\lvgl\src\lv_objx/lv_btnm.c ****                 invalidate_button_area(btnm, ext->btn_id_pr);
 3002              		.loc 2 802 0
ARM GAS  C:\Users\tmj32\AppData\Local\Temp\ccyJ4BPG.s 			page 70


 3003 01b0 7B6C     		ldr	r3, [r7, #68]
 3004 01b2 5B8C     		ldrh	r3, [r3, #34]
 3005 01b4 1946     		mov	r1, r3
 3006 01b6 F868     		ldr	r0, [r7, #12]
 3007 01b8 FFF7FEFF 		bl	invalidate_button_area
 3008              	.L156:
 803:..\..\..\lvgl\version_6.1.2\lvgl\src\lv_objx/lv_btnm.c ****             }
 804:..\..\..\lvgl\version_6.1.2\lvgl\src\lv_objx/lv_btnm.c ****             if(btn_pr != LV_BTNM_BTN_NONE) {
 3009              		.loc 2 804 0
 3010 01bc BB8F     		ldrh	r3, [r7, #60]
 3011 01be 4FF6FF72 		movw	r2, #65535
 3012 01c2 9342     		cmp	r3, r2
 3013 01c4 15D0     		beq	.L155
 3014              	.LBB13:
 805:..\..\..\lvgl\version_6.1.2\lvgl\src\lv_objx/lv_btnm.c ****                 uint32_t b = ext->btn_id_act;
 3015              		.loc 2 805 0
 3016 01c6 7B6C     		ldr	r3, [r7, #68]
 3017 01c8 9B8C     		ldrh	r3, [r3, #36]
 3018 01ca BB61     		str	r3, [r7, #24]
 806:..\..\..\lvgl\version_6.1.2\lvgl\src\lv_objx/lv_btnm.c ****                 res        = lv_event_send(btnm, LV_EVENT_VALUE_CHANGED, &b);
 3019              		.loc 2 806 0
 3020 01cc 07F11803 		add	r3, r7, #24
 3021 01d0 1A46     		mov	r2, r3
 3022 01d2 0E21     		movs	r1, #14
 3023 01d4 F868     		ldr	r0, [r7, #12]
 3024 01d6 FFF7FEFF 		bl	lv_event_send
 3025 01da 0346     		mov	r3, r0
 3026 01dc 87F84F30 		strb	r3, [r7, #79]
 807:..\..\..\lvgl\version_6.1.2\lvgl\src\lv_objx/lv_btnm.c ****                 if(res == LV_RES_OK) {
 3027              		.loc 2 807 0
 3028 01e0 97F84F30 		ldrb	r3, [r7, #79]	@ zero_extendqisi2
 3029 01e4 012B     		cmp	r3, #1
 3030 01e6 04D1     		bne	.L155
 808:..\..\..\lvgl\version_6.1.2\lvgl\src\lv_objx/lv_btnm.c ****                     invalidate_button_area(btnm, btn_pr);
 3031              		.loc 2 808 0
 3032 01e8 BB8F     		ldrh	r3, [r7, #60]
 3033 01ea 1946     		mov	r1, r3
 3034 01ec F868     		ldr	r0, [r7, #12]
 3035 01ee FFF7FEFF 		bl	invalidate_button_area
 3036              	.L155:
 3037              	.LBE13:
 809:..\..\..\lvgl\version_6.1.2\lvgl\src\lv_objx/lv_btnm.c ****                 }
 810:..\..\..\lvgl\version_6.1.2\lvgl\src\lv_objx/lv_btnm.c ****             }
 811:..\..\..\lvgl\version_6.1.2\lvgl\src\lv_objx/lv_btnm.c ****         }
 812:..\..\..\lvgl\version_6.1.2\lvgl\src\lv_objx/lv_btnm.c **** 
 813:..\..\..\lvgl\version_6.1.2\lvgl\src\lv_objx/lv_btnm.c ****         ext->btn_id_pr  = btn_pr;
 3038              		.loc 2 813 0
 3039 01f2 7B6C     		ldr	r3, [r7, #68]
 3040 01f4 BA8F     		ldrh	r2, [r7, #60]	@ movhi
 3041 01f6 5A84     		strh	r2, [r3, #34]	@ movhi
 814:..\..\..\lvgl\version_6.1.2\lvgl\src\lv_objx/lv_btnm.c ****         ext->btn_id_act = btn_pr;
 3042              		.loc 2 814 0
 3043 01f8 7B6C     		ldr	r3, [r7, #68]
 3044 01fa BA8F     		ldrh	r2, [r7, #60]	@ movhi
 3045 01fc 9A84     		strh	r2, [r3, #36]	@ movhi
 3046              	.LBE12:
 3047 01fe 73E2     		b	.L147
ARM GAS  C:\Users\tmj32\AppData\Local\Temp\ccyJ4BPG.s 			page 71


 3048              	.L154:
 815:..\..\..\lvgl\version_6.1.2\lvgl\src\lv_objx/lv_btnm.c ****     } else if(sign == LV_SIGNAL_RELEASED) {
 3049              		.loc 2 815 0
 3050 0200 FB7A     		ldrb	r3, [r7, #11]	@ zero_extendqisi2
 3051 0202 0B2B     		cmp	r3, #11
 3052 0204 40F0AF80 		bne	.L158
 816:..\..\..\lvgl\version_6.1.2\lvgl\src\lv_objx/lv_btnm.c ****         if(ext->btn_id_pr != LV_BTNM_BTN_NONE) {
 3053              		.loc 2 816 0
 3054 0208 7B6C     		ldr	r3, [r7, #68]
 3055 020a 5B8C     		ldrh	r3, [r3, #34]
 3056 020c 4FF6FF72 		movw	r2, #65535
 3057 0210 9342     		cmp	r3, r2
 3058 0212 00F06982 		beq	.L147
 817:..\..\..\lvgl\version_6.1.2\lvgl\src\lv_objx/lv_btnm.c ****             /*Toggle the button if enabled*/
 818:..\..\..\lvgl\version_6.1.2\lvgl\src\lv_objx/lv_btnm.c ****             if(button_is_tgl_enabled(ext->ctrl_bits[ext->btn_id_pr]) &&
 3059              		.loc 2 818 0
 3060 0216 7B6C     		ldr	r3, [r7, #68]
 3061 0218 9A68     		ldr	r2, [r3, #8]
 3062 021a 7B6C     		ldr	r3, [r7, #68]
 3063 021c 5B8C     		ldrh	r3, [r3, #34]
 3064 021e 5B00     		lsls	r3, r3, #1
 3065 0220 1344     		add	r3, r3, r2
 3066 0222 1B88     		ldrh	r3, [r3]
 3067 0224 1846     		mov	r0, r3
 3068 0226 FFF7FEFF 		bl	button_is_tgl_enabled
 3069 022a 0346     		mov	r3, r0
 3070 022c 002B     		cmp	r3, #0
 3071 022e 52D0     		beq	.L160
 819:..\..\..\lvgl\version_6.1.2\lvgl\src\lv_objx/lv_btnm.c ****                !button_is_inactive(ext->ctrl_bits[ext->btn_id_pr])) {
 3072              		.loc 2 819 0 discriminator 1
 3073 0230 7B6C     		ldr	r3, [r7, #68]
 3074 0232 9A68     		ldr	r2, [r3, #8]
 3075 0234 7B6C     		ldr	r3, [r7, #68]
 3076 0236 5B8C     		ldrh	r3, [r3, #34]
 3077 0238 5B00     		lsls	r3, r3, #1
 3078 023a 1344     		add	r3, r3, r2
 3079 023c 1B88     		ldrh	r3, [r3]
 3080 023e 1846     		mov	r0, r3
 3081 0240 FFF7FEFF 		bl	button_is_inactive
 3082 0244 0346     		mov	r3, r0
 3083 0246 83F00103 		eor	r3, r3, #1
 3084 024a DBB2     		uxtb	r3, r3
 818:..\..\..\lvgl\version_6.1.2\lvgl\src\lv_objx/lv_btnm.c ****                !button_is_inactive(ext->ctrl_bits[ext->btn_id_pr])) {
 3085              		.loc 2 818 0 discriminator 1
 3086 024c 002B     		cmp	r3, #0
 3087 024e 42D0     		beq	.L160
 820:..\..\..\lvgl\version_6.1.2\lvgl\src\lv_objx/lv_btnm.c ****                 if(button_get_tgl_state(ext->ctrl_bits[ext->btn_id_pr])) {
 3088              		.loc 2 820 0
 3089 0250 7B6C     		ldr	r3, [r7, #68]
 3090 0252 9A68     		ldr	r2, [r3, #8]
 3091 0254 7B6C     		ldr	r3, [r7, #68]
 3092 0256 5B8C     		ldrh	r3, [r3, #34]
 3093 0258 5B00     		lsls	r3, r3, #1
 3094 025a 1344     		add	r3, r3, r2
 3095 025c 1B88     		ldrh	r3, [r3]
 3096 025e 1846     		mov	r0, r3
 3097 0260 FFF7FEFF 		bl	button_get_tgl_state
ARM GAS  C:\Users\tmj32\AppData\Local\Temp\ccyJ4BPG.s 			page 72


 3098 0264 0346     		mov	r3, r0
 3099 0266 002B     		cmp	r3, #0
 3100 0268 16D0     		beq	.L161
 821:..\..\..\lvgl\version_6.1.2\lvgl\src\lv_objx/lv_btnm.c ****                     ext->ctrl_bits[ext->btn_id_pr] &= (~LV_BTNM_CTRL_TGL_STATE);
 3101              		.loc 2 821 0
 3102 026a 7B6C     		ldr	r3, [r7, #68]
 3103 026c 9A68     		ldr	r2, [r3, #8]
 3104 026e 7B6C     		ldr	r3, [r7, #68]
 3105 0270 5B8C     		ldrh	r3, [r3, #34]
 3106 0272 5B00     		lsls	r3, r3, #1
 3107 0274 1344     		add	r3, r3, r2
 3108 0276 7A6C     		ldr	r2, [r7, #68]
 3109 0278 9168     		ldr	r1, [r2, #8]
 3110 027a 7A6C     		ldr	r2, [r7, #68]
 3111 027c 528C     		ldrh	r2, [r2, #34]
 3112 027e 5200     		lsls	r2, r2, #1
 3113 0280 0A44     		add	r2, r2, r1
 3114 0282 1288     		ldrh	r2, [r2]
 3115 0284 22F08002 		bic	r2, r2, #128
 3116 0288 92B2     		uxth	r2, r2
 3117 028a 1A80     		strh	r2, [r3]	@ movhi
 3118 028c 15E0     		b	.L162
 3119              	.L194:
 3120 028e 00BF     		.align	2
 3121              	.L193:
 3122 0290 04000000 		.word	ancestor_signal
 3123 0294 30000000 		.word	.LC7
 3124              	.L161:
 822:..\..\..\lvgl\version_6.1.2\lvgl\src\lv_objx/lv_btnm.c ****                 } else {
 823:..\..\..\lvgl\version_6.1.2\lvgl\src\lv_objx/lv_btnm.c ****                     ext->ctrl_bits[ext->btn_id_pr] |= LV_BTNM_CTRL_TGL_STATE;
 3125              		.loc 2 823 0
 3126 0298 7B6C     		ldr	r3, [r7, #68]
 3127 029a 9A68     		ldr	r2, [r3, #8]
 3128 029c 7B6C     		ldr	r3, [r7, #68]
 3129 029e 5B8C     		ldrh	r3, [r3, #34]
 3130 02a0 5B00     		lsls	r3, r3, #1
 3131 02a2 1344     		add	r3, r3, r2
 3132 02a4 7A6C     		ldr	r2, [r7, #68]
 3133 02a6 9168     		ldr	r1, [r2, #8]
 3134 02a8 7A6C     		ldr	r2, [r7, #68]
 3135 02aa 528C     		ldrh	r2, [r2, #34]
 3136 02ac 5200     		lsls	r2, r2, #1
 3137 02ae 0A44     		add	r2, r2, r1
 3138 02b0 1288     		ldrh	r2, [r2]
 3139 02b2 42F08002 		orr	r2, r2, #128
 3140 02b6 92B2     		uxth	r2, r2
 3141 02b8 1A80     		strh	r2, [r3]	@ movhi
 3142              	.L162:
 824:..\..\..\lvgl\version_6.1.2\lvgl\src\lv_objx/lv_btnm.c ****                 }
 825:..\..\..\lvgl\version_6.1.2\lvgl\src\lv_objx/lv_btnm.c ****                 if(ext->one_toggle) make_one_button_toggled(btnm, ext->btn_id_pr);
 3143              		.loc 2 825 0
 3144 02ba 7B6C     		ldr	r3, [r7, #68]
 3145 02bc 93F82630 		ldrb	r3, [r3, #38]	@ zero_extendqisi2
 3146 02c0 03F00203 		and	r3, r3, #2
 3147 02c4 DBB2     		uxtb	r3, r3
 3148 02c6 002B     		cmp	r3, #0
 3149 02c8 05D0     		beq	.L160
ARM GAS  C:\Users\tmj32\AppData\Local\Temp\ccyJ4BPG.s 			page 73


 3150              		.loc 2 825 0 is_stmt 0 discriminator 1
 3151 02ca 7B6C     		ldr	r3, [r7, #68]
 3152 02cc 5B8C     		ldrh	r3, [r3, #34]
 3153 02ce 1946     		mov	r1, r3
 3154 02d0 F868     		ldr	r0, [r7, #12]
 3155 02d2 FFF7FEFF 		bl	make_one_button_toggled
 3156              	.L160:
 826:..\..\..\lvgl\version_6.1.2\lvgl\src\lv_objx/lv_btnm.c ****             }
 827:..\..\..\lvgl\version_6.1.2\lvgl\src\lv_objx/lv_btnm.c **** 
 828:..\..\..\lvgl\version_6.1.2\lvgl\src\lv_objx/lv_btnm.c ****             /*Invalidate to old pressed area*/;
 829:..\..\..\lvgl\version_6.1.2\lvgl\src\lv_objx/lv_btnm.c ****             invalidate_button_area(btnm, ext->btn_id_pr);
 3157              		.loc 2 829 0 is_stmt 1
 3158 02d6 7B6C     		ldr	r3, [r7, #68]
 3159 02d8 5B8C     		ldrh	r3, [r3, #34]
 3160 02da 1946     		mov	r1, r3
 3161 02dc F868     		ldr	r0, [r7, #12]
 3162 02de FFF7FEFF 		bl	invalidate_button_area
 830:..\..\..\lvgl\version_6.1.2\lvgl\src\lv_objx/lv_btnm.c **** 
 831:..\..\..\lvgl\version_6.1.2\lvgl\src\lv_objx/lv_btnm.c **** #if LV_USE_GROUP
 832:..\..\..\lvgl\version_6.1.2\lvgl\src\lv_objx/lv_btnm.c ****             /*Leave the clicked button when releases if this not the focused object in a group*/
 833:..\..\..\lvgl\version_6.1.2\lvgl\src\lv_objx/lv_btnm.c ****             lv_group_t * g = lv_obj_get_group(btnm);
 834:..\..\..\lvgl\version_6.1.2\lvgl\src\lv_objx/lv_btnm.c ****             if(lv_group_get_focused(g) != btnm) {
 835:..\..\..\lvgl\version_6.1.2\lvgl\src\lv_objx/lv_btnm.c ****                 ext->btn_id_pr = LV_BTNM_BTN_NONE;
 836:..\..\..\lvgl\version_6.1.2\lvgl\src\lv_objx/lv_btnm.c ****             }
 837:..\..\..\lvgl\version_6.1.2\lvgl\src\lv_objx/lv_btnm.c **** #else
 838:..\..\..\lvgl\version_6.1.2\lvgl\src\lv_objx/lv_btnm.c ****             ext->btn_id_pr = LV_BTNM_BTN_NONE;
 3163              		.loc 2 838 0
 3164 02e2 7B6C     		ldr	r3, [r7, #68]
 3165 02e4 4FF6FF72 		movw	r2, #65535
 3166 02e8 5A84     		strh	r2, [r3, #34]	@ movhi
 839:..\..\..\lvgl\version_6.1.2\lvgl\src\lv_objx/lv_btnm.c **** #endif
 840:..\..\..\lvgl\version_6.1.2\lvgl\src\lv_objx/lv_btnm.c **** 
 841:..\..\..\lvgl\version_6.1.2\lvgl\src\lv_objx/lv_btnm.c ****             if(button_is_click_trig(ext->ctrl_bits[ext->btn_id_act]) == true &&
 3167              		.loc 2 841 0
 3168 02ea 7B6C     		ldr	r3, [r7, #68]
 3169 02ec 9A68     		ldr	r2, [r3, #8]
 3170 02ee 7B6C     		ldr	r3, [r7, #68]
 3171 02f0 9B8C     		ldrh	r3, [r3, #36]
 3172 02f2 5B00     		lsls	r3, r3, #1
 3173 02f4 1344     		add	r3, r3, r2
 3174 02f6 1B88     		ldrh	r3, [r3]
 3175 02f8 1846     		mov	r0, r3
 3176 02fa FFF7FEFF 		bl	button_is_click_trig
 3177 02fe 0346     		mov	r3, r0
 3178 0300 002B     		cmp	r3, #0
 3179 0302 00F0F181 		beq	.L147
 842:..\..\..\lvgl\version_6.1.2\lvgl\src\lv_objx/lv_btnm.c ****                button_is_inactive(ext->ctrl_bits[ext->btn_id_act]) == false &&
 3180              		.loc 2 842 0 discriminator 1
 3181 0306 7B6C     		ldr	r3, [r7, #68]
 3182 0308 9A68     		ldr	r2, [r3, #8]
 3183 030a 7B6C     		ldr	r3, [r7, #68]
 3184 030c 9B8C     		ldrh	r3, [r3, #36]
 3185 030e 5B00     		lsls	r3, r3, #1
 3186 0310 1344     		add	r3, r3, r2
 3187 0312 1B88     		ldrh	r3, [r3]
 3188 0314 1846     		mov	r0, r3
 3189 0316 FFF7FEFF 		bl	button_is_inactive
ARM GAS  C:\Users\tmj32\AppData\Local\Temp\ccyJ4BPG.s 			page 74


 3190 031a 0346     		mov	r3, r0
 3191 031c 83F00103 		eor	r3, r3, #1
 3192 0320 DBB2     		uxtb	r3, r3
 841:..\..\..\lvgl\version_6.1.2\lvgl\src\lv_objx/lv_btnm.c ****                button_is_inactive(ext->ctrl_bits[ext->btn_id_act]) == false &&
 3193              		.loc 2 841 0 discriminator 1
 3194 0322 002B     		cmp	r3, #0
 3195 0324 00F0E081 		beq	.L147
 843:..\..\..\lvgl\version_6.1.2\lvgl\src\lv_objx/lv_btnm.c ****                button_is_hidden(ext->ctrl_bits[ext->btn_id_act]) == false) {
 3196              		.loc 2 843 0
 3197 0328 7B6C     		ldr	r3, [r7, #68]
 3198 032a 9A68     		ldr	r2, [r3, #8]
 3199 032c 7B6C     		ldr	r3, [r7, #68]
 3200 032e 9B8C     		ldrh	r3, [r3, #36]
 3201 0330 5B00     		lsls	r3, r3, #1
 3202 0332 1344     		add	r3, r3, r2
 3203 0334 1B88     		ldrh	r3, [r3]
 3204 0336 1846     		mov	r0, r3
 3205 0338 FFF7FEFF 		bl	button_is_hidden
 3206 033c 0346     		mov	r3, r0
 3207 033e 83F00103 		eor	r3, r3, #1
 3208 0342 DBB2     		uxtb	r3, r3
 842:..\..\..\lvgl\version_6.1.2\lvgl\src\lv_objx/lv_btnm.c ****                button_is_inactive(ext->ctrl_bits[ext->btn_id_act]) == false &&
 3209              		.loc 2 842 0
 3210 0344 002B     		cmp	r3, #0
 3211 0346 00F0CF81 		beq	.L147
 3212              	.LBB14:
 844:..\..\..\lvgl\version_6.1.2\lvgl\src\lv_objx/lv_btnm.c ****                 uint32_t b = ext->btn_id_act;
 3213              		.loc 2 844 0
 3214 034a 7B6C     		ldr	r3, [r7, #68]
 3215 034c 9B8C     		ldrh	r3, [r3, #36]
 3216 034e 7B61     		str	r3, [r7, #20]
 845:..\..\..\lvgl\version_6.1.2\lvgl\src\lv_objx/lv_btnm.c ****                 res        = lv_event_send(btnm, LV_EVENT_VALUE_CHANGED, &b);
 3217              		.loc 2 845 0
 3218 0350 07F11403 		add	r3, r7, #20
 3219 0354 1A46     		mov	r2, r3
 3220 0356 0E21     		movs	r1, #14
 3221 0358 F868     		ldr	r0, [r7, #12]
 3222 035a FFF7FEFF 		bl	lv_event_send
 3223 035e 0346     		mov	r3, r0
 3224 0360 87F84F30 		strb	r3, [r7, #79]
 3225 0364 C0E1     		b	.L147
 3226              	.L158:
 3227              	.LBE14:
 846:..\..\..\lvgl\version_6.1.2\lvgl\src\lv_objx/lv_btnm.c ****             }
 847:..\..\..\lvgl\version_6.1.2\lvgl\src\lv_objx/lv_btnm.c ****         }
 848:..\..\..\lvgl\version_6.1.2\lvgl\src\lv_objx/lv_btnm.c ****     } else if(sign == LV_SIGNAL_LONG_PRESS_REP) {
 3228              		.loc 2 848 0
 3229 0366 FB7A     		ldrb	r3, [r7, #11]	@ zero_extendqisi2
 3230 0368 0D2B     		cmp	r3, #13
 3231 036a 47D1     		bne	.L163
 849:..\..\..\lvgl\version_6.1.2\lvgl\src\lv_objx/lv_btnm.c ****         if(ext->btn_id_act != LV_BTNM_BTN_NONE) {
 3232              		.loc 2 849 0
 3233 036c 7B6C     		ldr	r3, [r7, #68]
 3234 036e 9B8C     		ldrh	r3, [r3, #36]
 3235 0370 4FF6FF72 		movw	r2, #65535
 3236 0374 9342     		cmp	r3, r2
 3237 0376 00F0B781 		beq	.L147
ARM GAS  C:\Users\tmj32\AppData\Local\Temp\ccyJ4BPG.s 			page 75


 850:..\..\..\lvgl\version_6.1.2\lvgl\src\lv_objx/lv_btnm.c ****             if(button_is_repeat_disabled(ext->ctrl_bits[ext->btn_id_act]) == false &&
 3238              		.loc 2 850 0
 3239 037a 7B6C     		ldr	r3, [r7, #68]
 3240 037c 9A68     		ldr	r2, [r3, #8]
 3241 037e 7B6C     		ldr	r3, [r7, #68]
 3242 0380 9B8C     		ldrh	r3, [r3, #36]
 3243 0382 5B00     		lsls	r3, r3, #1
 3244 0384 1344     		add	r3, r3, r2
 3245 0386 1B88     		ldrh	r3, [r3]
 3246 0388 1846     		mov	r0, r3
 3247 038a FFF7FEFF 		bl	button_is_repeat_disabled
 3248 038e 0346     		mov	r3, r0
 3249 0390 83F00103 		eor	r3, r3, #1
 3250 0394 DBB2     		uxtb	r3, r3
 3251 0396 002B     		cmp	r3, #0
 3252 0398 00F0A681 		beq	.L147
 851:..\..\..\lvgl\version_6.1.2\lvgl\src\lv_objx/lv_btnm.c ****                button_is_inactive(ext->ctrl_bits[ext->btn_id_act]) == false &&
 3253              		.loc 2 851 0 discriminator 1
 3254 039c 7B6C     		ldr	r3, [r7, #68]
 3255 039e 9A68     		ldr	r2, [r3, #8]
 3256 03a0 7B6C     		ldr	r3, [r7, #68]
 3257 03a2 9B8C     		ldrh	r3, [r3, #36]
 3258 03a4 5B00     		lsls	r3, r3, #1
 3259 03a6 1344     		add	r3, r3, r2
 3260 03a8 1B88     		ldrh	r3, [r3]
 3261 03aa 1846     		mov	r0, r3
 3262 03ac FFF7FEFF 		bl	button_is_inactive
 3263 03b0 0346     		mov	r3, r0
 3264 03b2 83F00103 		eor	r3, r3, #1
 3265 03b6 DBB2     		uxtb	r3, r3
 850:..\..\..\lvgl\version_6.1.2\lvgl\src\lv_objx/lv_btnm.c ****             if(button_is_repeat_disabled(ext->ctrl_bits[ext->btn_id_act]) == false &&
 3266              		.loc 2 850 0 discriminator 1
 3267 03b8 002B     		cmp	r3, #0
 3268 03ba 00F09581 		beq	.L147
 852:..\..\..\lvgl\version_6.1.2\lvgl\src\lv_objx/lv_btnm.c ****                button_is_hidden(ext->ctrl_bits[ext->btn_id_act]) == false) {
 3269              		.loc 2 852 0
 3270 03be 7B6C     		ldr	r3, [r7, #68]
 3271 03c0 9A68     		ldr	r2, [r3, #8]
 3272 03c2 7B6C     		ldr	r3, [r7, #68]
 3273 03c4 9B8C     		ldrh	r3, [r3, #36]
 3274 03c6 5B00     		lsls	r3, r3, #1
 3275 03c8 1344     		add	r3, r3, r2
 3276 03ca 1B88     		ldrh	r3, [r3]
 3277 03cc 1846     		mov	r0, r3
 3278 03ce FFF7FEFF 		bl	button_is_hidden
 3279 03d2 0346     		mov	r3, r0
 3280 03d4 83F00103 		eor	r3, r3, #1
 3281 03d8 DBB2     		uxtb	r3, r3
 851:..\..\..\lvgl\version_6.1.2\lvgl\src\lv_objx/lv_btnm.c ****                button_is_inactive(ext->ctrl_bits[ext->btn_id_act]) == false &&
 3282              		.loc 2 851 0
 3283 03da 002B     		cmp	r3, #0
 3284 03dc 00F08481 		beq	.L147
 3285              	.LBB15:
 853:..\..\..\lvgl\version_6.1.2\lvgl\src\lv_objx/lv_btnm.c ****                 uint32_t b = ext->btn_id_act;
 3286              		.loc 2 853 0
 3287 03e0 7B6C     		ldr	r3, [r7, #68]
 3288 03e2 9B8C     		ldrh	r3, [r3, #36]
ARM GAS  C:\Users\tmj32\AppData\Local\Temp\ccyJ4BPG.s 			page 76


 3289 03e4 3B61     		str	r3, [r7, #16]
 854:..\..\..\lvgl\version_6.1.2\lvgl\src\lv_objx/lv_btnm.c ****                 res        = lv_event_send(btnm, LV_EVENT_VALUE_CHANGED, &b);
 3290              		.loc 2 854 0
 3291 03e6 07F11003 		add	r3, r7, #16
 3292 03ea 1A46     		mov	r2, r3
 3293 03ec 0E21     		movs	r1, #14
 3294 03ee F868     		ldr	r0, [r7, #12]
 3295 03f0 FFF7FEFF 		bl	lv_event_send
 3296 03f4 0346     		mov	r3, r0
 3297 03f6 87F84F30 		strb	r3, [r7, #79]
 3298 03fa 75E1     		b	.L147
 3299              	.L163:
 3300              	.LBE15:
 855:..\..\..\lvgl\version_6.1.2\lvgl\src\lv_objx/lv_btnm.c ****             }
 856:..\..\..\lvgl\version_6.1.2\lvgl\src\lv_objx/lv_btnm.c ****         }
 857:..\..\..\lvgl\version_6.1.2\lvgl\src\lv_objx/lv_btnm.c ****     } else if(sign == LV_SIGNAL_PRESS_LOST || sign == LV_SIGNAL_DEFOCUS) {
 3301              		.loc 2 857 0
 3302 03fc FB7A     		ldrb	r3, [r7, #11]	@ zero_extendqisi2
 3303 03fe 0A2B     		cmp	r3, #10
 3304 0400 02D0     		beq	.L165
 3305              		.loc 2 857 0 is_stmt 0 discriminator 1
 3306 0402 FB7A     		ldrb	r3, [r7, #11]	@ zero_extendqisi2
 3307 0404 112B     		cmp	r3, #17
 3308 0406 0BD1     		bne	.L166
 3309              	.L165:
 858:..\..\..\lvgl\version_6.1.2\lvgl\src\lv_objx/lv_btnm.c ****         ext->btn_id_pr  = LV_BTNM_BTN_NONE;
 3310              		.loc 2 858 0 is_stmt 1
 3311 0408 7B6C     		ldr	r3, [r7, #68]
 3312 040a 4FF6FF72 		movw	r2, #65535
 3313 040e 5A84     		strh	r2, [r3, #34]	@ movhi
 859:..\..\..\lvgl\version_6.1.2\lvgl\src\lv_objx/lv_btnm.c ****         ext->btn_id_act = LV_BTNM_BTN_NONE;
 3314              		.loc 2 859 0
 3315 0410 7B6C     		ldr	r3, [r7, #68]
 3316 0412 4FF6FF72 		movw	r2, #65535
 3317 0416 9A84     		strh	r2, [r3, #36]	@ movhi
 860:..\..\..\lvgl\version_6.1.2\lvgl\src\lv_objx/lv_btnm.c ****         lv_obj_invalidate(btnm);
 3318              		.loc 2 860 0
 3319 0418 F868     		ldr	r0, [r7, #12]
 3320 041a FFF7FEFF 		bl	lv_obj_invalidate
 3321 041e 63E1     		b	.L147
 3322              	.L166:
 861:..\..\..\lvgl\version_6.1.2\lvgl\src\lv_objx/lv_btnm.c ****     } else if(sign == LV_SIGNAL_FOCUS) {
 3323              		.loc 2 861 0
 3324 0420 FB7A     		ldrb	r3, [r7, #11]	@ zero_extendqisi2
 3325 0422 102B     		cmp	r3, #16
 3326 0424 0AD1     		bne	.L167
 862:..\..\..\lvgl\version_6.1.2\lvgl\src\lv_objx/lv_btnm.c **** #if LV_USE_GROUP
 863:..\..\..\lvgl\version_6.1.2\lvgl\src\lv_objx/lv_btnm.c ****         lv_indev_t * indev         = lv_indev_get_act();
 864:..\..\..\lvgl\version_6.1.2\lvgl\src\lv_objx/lv_btnm.c ****         lv_indev_type_t indev_type = lv_indev_get_type(indev);
 865:..\..\..\lvgl\version_6.1.2\lvgl\src\lv_objx/lv_btnm.c **** 
 866:..\..\..\lvgl\version_6.1.2\lvgl\src\lv_objx/lv_btnm.c ****         /*If not focused by an input device assume the last input device*/
 867:..\..\..\lvgl\version_6.1.2\lvgl\src\lv_objx/lv_btnm.c ****         if(indev == NULL) {
 868:..\..\..\lvgl\version_6.1.2\lvgl\src\lv_objx/lv_btnm.c ****             indev = lv_indev_get_next(NULL);
 869:..\..\..\lvgl\version_6.1.2\lvgl\src\lv_objx/lv_btnm.c ****             indev_type = lv_indev_get_type(indev);
 870:..\..\..\lvgl\version_6.1.2\lvgl\src\lv_objx/lv_btnm.c ****         }
 871:..\..\..\lvgl\version_6.1.2\lvgl\src\lv_objx/lv_btnm.c **** 
 872:..\..\..\lvgl\version_6.1.2\lvgl\src\lv_objx/lv_btnm.c ****         if(indev_type == LV_INDEV_TYPE_POINTER) {
ARM GAS  C:\Users\tmj32\AppData\Local\Temp\ccyJ4BPG.s 			page 77


 873:..\..\..\lvgl\version_6.1.2\lvgl\src\lv_objx/lv_btnm.c ****             /*Select the clicked button*/
 874:..\..\..\lvgl\version_6.1.2\lvgl\src\lv_objx/lv_btnm.c ****             lv_point_t p1;
 875:..\..\..\lvgl\version_6.1.2\lvgl\src\lv_objx/lv_btnm.c ****             lv_indev_get_point(indev, &p1);
 876:..\..\..\lvgl\version_6.1.2\lvgl\src\lv_objx/lv_btnm.c ****             uint16_t btn_i = get_button_from_point(btnm, &p1);
 877:..\..\..\lvgl\version_6.1.2\lvgl\src\lv_objx/lv_btnm.c ****             ext->btn_id_pr = btn_i;
 878:..\..\..\lvgl\version_6.1.2\lvgl\src\lv_objx/lv_btnm.c **** 
 879:..\..\..\lvgl\version_6.1.2\lvgl\src\lv_objx/lv_btnm.c ****         } else if(indev_type == LV_INDEV_TYPE_ENCODER) {
 880:..\..\..\lvgl\version_6.1.2\lvgl\src\lv_objx/lv_btnm.c ****             /*In navigation mode don't select any button but in edit mode select the fist*/
 881:..\..\..\lvgl\version_6.1.2\lvgl\src\lv_objx/lv_btnm.c ****             if(lv_group_get_editing(lv_obj_get_group(btnm)))
 882:..\..\..\lvgl\version_6.1.2\lvgl\src\lv_objx/lv_btnm.c ****                 ext->btn_id_pr = 0;
 883:..\..\..\lvgl\version_6.1.2\lvgl\src\lv_objx/lv_btnm.c ****             else
 884:..\..\..\lvgl\version_6.1.2\lvgl\src\lv_objx/lv_btnm.c ****                 ext->btn_id_pr = LV_BTNM_BTN_NONE;
 885:..\..\..\lvgl\version_6.1.2\lvgl\src\lv_objx/lv_btnm.c ****         } else {
 886:..\..\..\lvgl\version_6.1.2\lvgl\src\lv_objx/lv_btnm.c ****             ext->btn_id_pr = 0;
 887:..\..\..\lvgl\version_6.1.2\lvgl\src\lv_objx/lv_btnm.c ****         }
 888:..\..\..\lvgl\version_6.1.2\lvgl\src\lv_objx/lv_btnm.c **** #else
 889:..\..\..\lvgl\version_6.1.2\lvgl\src\lv_objx/lv_btnm.c ****         ext->btn_id_pr = 0;
 3327              		.loc 2 889 0
 3328 0426 7B6C     		ldr	r3, [r7, #68]
 3329 0428 0022     		movs	r2, #0
 3330 042a 5A84     		strh	r2, [r3, #34]	@ movhi
 890:..\..\..\lvgl\version_6.1.2\lvgl\src\lv_objx/lv_btnm.c **** #endif
 891:..\..\..\lvgl\version_6.1.2\lvgl\src\lv_objx/lv_btnm.c **** 
 892:..\..\..\lvgl\version_6.1.2\lvgl\src\lv_objx/lv_btnm.c ****         ext->btn_id_act = ext->btn_id_pr;
 3331              		.loc 2 892 0
 3332 042c 7B6C     		ldr	r3, [r7, #68]
 3333 042e 5A8C     		ldrh	r2, [r3, #34]
 3334 0430 7B6C     		ldr	r3, [r7, #68]
 3335 0432 9A84     		strh	r2, [r3, #36]	@ movhi
 893:..\..\..\lvgl\version_6.1.2\lvgl\src\lv_objx/lv_btnm.c ****         lv_obj_invalidate(btnm);
 3336              		.loc 2 893 0
 3337 0434 F868     		ldr	r0, [r7, #12]
 3338 0436 FFF7FEFF 		bl	lv_obj_invalidate
 3339 043a 55E1     		b	.L147
 3340              	.L167:
 894:..\..\..\lvgl\version_6.1.2\lvgl\src\lv_objx/lv_btnm.c ****     } else if(sign == LV_SIGNAL_CONTROL) {
 3341              		.loc 2 894 0
 3342 043c FB7A     		ldrb	r3, [r7, #11]	@ zero_extendqisi2
 3343 043e 122B     		cmp	r3, #18
 3344 0440 40F04A81 		bne	.L168
 3345              	.LBB16:
 895:..\..\..\lvgl\version_6.1.2\lvgl\src\lv_objx/lv_btnm.c ****         char c = *((char *)param);
 3346              		.loc 2 895 0
 3347 0444 7B68     		ldr	r3, [r7, #4]
 3348 0446 1B78     		ldrb	r3, [r3]
 3349 0448 87F83B30 		strb	r3, [r7, #59]
 896:..\..\..\lvgl\version_6.1.2\lvgl\src\lv_objx/lv_btnm.c ****         if(c == LV_KEY_RIGHT) {
 3350              		.loc 2 896 0
 3351 044c 97F83B30 		ldrb	r3, [r7, #59]	@ zero_extendqisi2
 3352 0450 132B     		cmp	r3, #19
 3353 0452 25D1     		bne	.L169
 897:..\..\..\lvgl\version_6.1.2\lvgl\src\lv_objx/lv_btnm.c ****             if(ext->btn_id_pr == LV_BTNM_BTN_NONE)
 3354              		.loc 2 897 0
 3355 0454 7B6C     		ldr	r3, [r7, #68]
 3356 0456 5B8C     		ldrh	r3, [r3, #34]
 3357 0458 4FF6FF72 		movw	r2, #65535
 3358 045c 9342     		cmp	r3, r2
ARM GAS  C:\Users\tmj32\AppData\Local\Temp\ccyJ4BPG.s 			page 78


 3359 045e 03D1     		bne	.L170
 898:..\..\..\lvgl\version_6.1.2\lvgl\src\lv_objx/lv_btnm.c ****                 ext->btn_id_pr = 0;
 3360              		.loc 2 898 0
 3361 0460 7B6C     		ldr	r3, [r7, #68]
 3362 0462 0022     		movs	r2, #0
 3363 0464 5A84     		strh	r2, [r3, #34]	@ movhi
 3364 0466 05E0     		b	.L171
 3365              	.L170:
 899:..\..\..\lvgl\version_6.1.2\lvgl\src\lv_objx/lv_btnm.c ****             else
 900:..\..\..\lvgl\version_6.1.2\lvgl\src\lv_objx/lv_btnm.c ****                 ext->btn_id_pr++;
 3366              		.loc 2 900 0
 3367 0468 7B6C     		ldr	r3, [r7, #68]
 3368 046a 5B8C     		ldrh	r3, [r3, #34]
 3369 046c 0133     		adds	r3, r3, #1
 3370 046e 9AB2     		uxth	r2, r3
 3371 0470 7B6C     		ldr	r3, [r7, #68]
 3372 0472 5A84     		strh	r2, [r3, #34]	@ movhi
 3373              	.L171:
 901:..\..\..\lvgl\version_6.1.2\lvgl\src\lv_objx/lv_btnm.c ****             if(ext->btn_id_pr >= ext->btn_cnt - 1) ext->btn_id_pr = ext->btn_cnt - 1;
 3374              		.loc 2 901 0
 3375 0474 7B6C     		ldr	r3, [r7, #68]
 3376 0476 5B8C     		ldrh	r3, [r3, #34]
 3377 0478 1A46     		mov	r2, r3
 3378 047a 7B6C     		ldr	r3, [r7, #68]
 3379 047c 1B8C     		ldrh	r3, [r3, #32]
 3380 047e 013B     		subs	r3, r3, #1
 3381 0480 9A42     		cmp	r2, r3
 3382 0482 05DB     		blt	.L172
 3383              		.loc 2 901 0 is_stmt 0 discriminator 1
 3384 0484 7B6C     		ldr	r3, [r7, #68]
 3385 0486 1B8C     		ldrh	r3, [r3, #32]
 3386 0488 013B     		subs	r3, r3, #1
 3387 048a 9AB2     		uxth	r2, r3
 3388 048c 7B6C     		ldr	r3, [r7, #68]
 3389 048e 5A84     		strh	r2, [r3, #34]	@ movhi
 3390              	.L172:
 902:..\..\..\lvgl\version_6.1.2\lvgl\src\lv_objx/lv_btnm.c ****             ext->btn_id_act = ext->btn_id_pr;
 3391              		.loc 2 902 0 is_stmt 1
 3392 0490 7B6C     		ldr	r3, [r7, #68]
 3393 0492 5A8C     		ldrh	r2, [r3, #34]
 3394 0494 7B6C     		ldr	r3, [r7, #68]
 3395 0496 9A84     		strh	r2, [r3, #36]	@ movhi
 903:..\..\..\lvgl\version_6.1.2\lvgl\src\lv_objx/lv_btnm.c ****             lv_obj_invalidate(btnm);
 3396              		.loc 2 903 0
 3397 0498 F868     		ldr	r0, [r7, #12]
 3398 049a FFF7FEFF 		bl	lv_obj_invalidate
 3399 049e 23E1     		b	.L147
 3400              	.L169:
 904:..\..\..\lvgl\version_6.1.2\lvgl\src\lv_objx/lv_btnm.c ****         } else if(c == LV_KEY_LEFT) {
 3401              		.loc 2 904 0
 3402 04a0 97F83B30 		ldrb	r3, [r7, #59]	@ zero_extendqisi2
 3403 04a4 142B     		cmp	r3, #20
 3404 04a6 1AD1     		bne	.L174
 905:..\..\..\lvgl\version_6.1.2\lvgl\src\lv_objx/lv_btnm.c ****             if(ext->btn_id_pr == LV_BTNM_BTN_NONE) ext->btn_id_pr = 0;
 3405              		.loc 2 905 0
 3406 04a8 7B6C     		ldr	r3, [r7, #68]
 3407 04aa 5B8C     		ldrh	r3, [r3, #34]
ARM GAS  C:\Users\tmj32\AppData\Local\Temp\ccyJ4BPG.s 			page 79


 3408 04ac 4FF6FF72 		movw	r2, #65535
 3409 04b0 9342     		cmp	r3, r2
 3410 04b2 02D1     		bne	.L175
 3411              		.loc 2 905 0 is_stmt 0 discriminator 1
 3412 04b4 7B6C     		ldr	r3, [r7, #68]
 3413 04b6 0022     		movs	r2, #0
 3414 04b8 5A84     		strh	r2, [r3, #34]	@ movhi
 3415              	.L175:
 906:..\..\..\lvgl\version_6.1.2\lvgl\src\lv_objx/lv_btnm.c ****             if(ext->btn_id_pr > 0) ext->btn_id_pr--;
 3416              		.loc 2 906 0 is_stmt 1
 3417 04ba 7B6C     		ldr	r3, [r7, #68]
 3418 04bc 5B8C     		ldrh	r3, [r3, #34]
 3419 04be 002B     		cmp	r3, #0
 3420 04c0 05D0     		beq	.L176
 3421              		.loc 2 906 0 is_stmt 0 discriminator 1
 3422 04c2 7B6C     		ldr	r3, [r7, #68]
 3423 04c4 5B8C     		ldrh	r3, [r3, #34]
 3424 04c6 013B     		subs	r3, r3, #1
 3425 04c8 9AB2     		uxth	r2, r3
 3426 04ca 7B6C     		ldr	r3, [r7, #68]
 3427 04cc 5A84     		strh	r2, [r3, #34]	@ movhi
 3428              	.L176:
 907:..\..\..\lvgl\version_6.1.2\lvgl\src\lv_objx/lv_btnm.c ****             ext->btn_id_act = ext->btn_id_pr;
 3429              		.loc 2 907 0 is_stmt 1
 3430 04ce 7B6C     		ldr	r3, [r7, #68]
 3431 04d0 5A8C     		ldrh	r2, [r3, #34]
 3432 04d2 7B6C     		ldr	r3, [r7, #68]
 3433 04d4 9A84     		strh	r2, [r3, #36]	@ movhi
 908:..\..\..\lvgl\version_6.1.2\lvgl\src\lv_objx/lv_btnm.c ****             lv_obj_invalidate(btnm);
 3434              		.loc 2 908 0
 3435 04d6 F868     		ldr	r0, [r7, #12]
 3436 04d8 FFF7FEFF 		bl	lv_obj_invalidate
 3437 04dc 04E1     		b	.L147
 3438              	.L174:
 909:..\..\..\lvgl\version_6.1.2\lvgl\src\lv_objx/lv_btnm.c ****         } else if(c == LV_KEY_DOWN) {
 3439              		.loc 2 909 0
 3440 04de 97F83B30 		ldrb	r3, [r7, #59]	@ zero_extendqisi2
 3441 04e2 122B     		cmp	r3, #18
 3442 04e4 7AD1     		bne	.L177
 3443              	.LBB17:
 910:..\..\..\lvgl\version_6.1.2\lvgl\src\lv_objx/lv_btnm.c ****             const lv_style_t * style = lv_btnm_get_style(btnm, LV_BTNM_STYLE_BG);
 3444              		.loc 2 910 0
 3445 04e6 0021     		movs	r1, #0
 3446 04e8 F868     		ldr	r0, [r7, #12]
 3447 04ea FFF7FEFF 		bl	lv_btnm_get_style
 3448 04ee 7863     		str	r0, [r7, #52]
 911:..\..\..\lvgl\version_6.1.2\lvgl\src\lv_objx/lv_btnm.c ****             /*Find the area below the the current*/
 912:..\..\..\lvgl\version_6.1.2\lvgl\src\lv_objx/lv_btnm.c ****             if(ext->btn_id_pr == LV_BTNM_BTN_NONE) {
 3449              		.loc 2 912 0
 3450 04f0 7B6C     		ldr	r3, [r7, #68]
 3451 04f2 5B8C     		ldrh	r3, [r3, #34]
 3452 04f4 4FF6FF72 		movw	r2, #65535
 3453 04f8 9342     		cmp	r3, r2
 3454 04fa 03D1     		bne	.L178
 913:..\..\..\lvgl\version_6.1.2\lvgl\src\lv_objx/lv_btnm.c ****                 ext->btn_id_pr = 0;
 3455              		.loc 2 913 0
 3456 04fc 7B6C     		ldr	r3, [r7, #68]
ARM GAS  C:\Users\tmj32\AppData\Local\Temp\ccyJ4BPG.s 			page 80


 3457 04fe 0022     		movs	r2, #0
 3458 0500 5A84     		strh	r2, [r3, #34]	@ movhi
 3459 0502 63E0     		b	.L179
 3460              	.L178:
 3461              	.LBB18:
 914:..\..\..\lvgl\version_6.1.2\lvgl\src\lv_objx/lv_btnm.c ****             } else {
 915:..\..\..\lvgl\version_6.1.2\lvgl\src\lv_objx/lv_btnm.c ****                 uint16_t area_below;
 916:..\..\..\lvgl\version_6.1.2\lvgl\src\lv_objx/lv_btnm.c ****                 lv_coord_t pr_center =
 917:..\..\..\lvgl\version_6.1.2\lvgl\src\lv_objx/lv_btnm.c ****                     ext->button_areas[ext->btn_id_pr].x1 + (lv_area_get_width(&ext->button_areas[ex
 3462              		.loc 2 917 0
 3463 0504 7B6C     		ldr	r3, [r7, #68]
 3464 0506 5A68     		ldr	r2, [r3, #4]
 3465 0508 7B6C     		ldr	r3, [r7, #68]
 3466 050a 5B8C     		ldrh	r3, [r3, #34]
 3467 050c DB00     		lsls	r3, r3, #3
 3468 050e 1344     		add	r3, r3, r2
 3469 0510 B3F90030 		ldrsh	r3, [r3]
 916:..\..\..\lvgl\version_6.1.2\lvgl\src\lv_objx/lv_btnm.c ****                     ext->button_areas[ext->btn_id_pr].x1 + (lv_area_get_width(&ext->button_areas[ex
 3470              		.loc 2 916 0
 3471 0514 9CB2     		uxth	r4, r3
 3472              		.loc 2 917 0
 3473 0516 7B6C     		ldr	r3, [r7, #68]
 3474 0518 5A68     		ldr	r2, [r3, #4]
 3475 051a 7B6C     		ldr	r3, [r7, #68]
 3476 051c 5B8C     		ldrh	r3, [r3, #34]
 3477 051e DB00     		lsls	r3, r3, #3
 3478 0520 1344     		add	r3, r3, r2
 3479 0522 1846     		mov	r0, r3
 3480 0524 FFF7FEFF 		bl	lv_area_get_width
 3481 0528 0346     		mov	r3, r0
 916:..\..\..\lvgl\version_6.1.2\lvgl\src\lv_objx/lv_btnm.c ****                     ext->button_areas[ext->btn_id_pr].x1 + (lv_area_get_width(&ext->button_areas[ex
 3482              		.loc 2 916 0
 3483 052a 5B10     		asrs	r3, r3, #1
 3484 052c 1BB2     		sxth	r3, r3
 3485 052e 9BB2     		uxth	r3, r3
 3486 0530 2344     		add	r3, r3, r4
 3487 0532 9BB2     		uxth	r3, r3
 3488 0534 7B86     		strh	r3, [r7, #50]	@ movhi
 918:..\..\..\lvgl\version_6.1.2\lvgl\src\lv_objx/lv_btnm.c **** 
 919:..\..\..\lvgl\version_6.1.2\lvgl\src\lv_objx/lv_btnm.c ****                 for(area_below = ext->btn_id_pr; area_below < ext->btn_cnt; area_below++) {
 3489              		.loc 2 919 0
 3490 0536 7B6C     		ldr	r3, [r7, #68]
 3491 0538 5B8C     		ldrh	r3, [r3, #34]	@ movhi
 3492 053a A7F84C30 		strh	r3, [r7, #76]	@ movhi
 3493 053e 33E0     		b	.L180
 3494              	.L183:
 920:..\..\..\lvgl\version_6.1.2\lvgl\src\lv_objx/lv_btnm.c ****                     if(ext->button_areas[area_below].y1 > ext->button_areas[ext->btn_id_pr].y1 &&
 3495              		.loc 2 920 0
 3496 0540 7B6C     		ldr	r3, [r7, #68]
 3497 0542 5A68     		ldr	r2, [r3, #4]
 3498 0544 B7F84C30 		ldrh	r3, [r7, #76]
 3499 0548 DB00     		lsls	r3, r3, #3
 3500 054a 1344     		add	r3, r3, r2
 3501 054c B3F90220 		ldrsh	r2, [r3, #2]
 3502 0550 7B6C     		ldr	r3, [r7, #68]
 3503 0552 5968     		ldr	r1, [r3, #4]
 3504 0554 7B6C     		ldr	r3, [r7, #68]
ARM GAS  C:\Users\tmj32\AppData\Local\Temp\ccyJ4BPG.s 			page 81


 3505 0556 5B8C     		ldrh	r3, [r3, #34]
 3506 0558 DB00     		lsls	r3, r3, #3
 3507 055a 0B44     		add	r3, r3, r1
 3508 055c B3F90230 		ldrsh	r3, [r3, #2]
 3509 0560 9A42     		cmp	r2, r3
 3510 0562 1CDD     		ble	.L181
 921:..\..\..\lvgl\version_6.1.2\lvgl\src\lv_objx/lv_btnm.c ****                        pr_center >= ext->button_areas[area_below].x1 &&
 3511              		.loc 2 921 0 discriminator 1
 3512 0564 7B6C     		ldr	r3, [r7, #68]
 3513 0566 5A68     		ldr	r2, [r3, #4]
 3514 0568 B7F84C30 		ldrh	r3, [r7, #76]
 3515 056c DB00     		lsls	r3, r3, #3
 3516 056e 1344     		add	r3, r3, r2
 3517 0570 B3F90030 		ldrsh	r3, [r3]
 920:..\..\..\lvgl\version_6.1.2\lvgl\src\lv_objx/lv_btnm.c ****                     if(ext->button_areas[area_below].y1 > ext->button_areas[ext->btn_id_pr].y1 &&
 3518              		.loc 2 920 0 discriminator 1
 3519 0574 B7F93220 		ldrsh	r2, [r7, #50]
 3520 0578 9A42     		cmp	r2, r3
 3521 057a 10DB     		blt	.L181
 922:..\..\..\lvgl\version_6.1.2\lvgl\src\lv_objx/lv_btnm.c ****                        pr_center <= ext->button_areas[area_below].x2 + style->body.padding.inner) {
 3522              		.loc 2 922 0
 3523 057c B7F93220 		ldrsh	r2, [r7, #50]
 3524 0580 7B6C     		ldr	r3, [r7, #68]
 3525 0582 5968     		ldr	r1, [r3, #4]
 3526 0584 B7F84C30 		ldrh	r3, [r7, #76]
 3527 0588 DB00     		lsls	r3, r3, #3
 3528 058a 0B44     		add	r3, r3, r1
 3529 058c B3F90430 		ldrsh	r3, [r3, #4]
 3530 0590 1946     		mov	r1, r3
 3531 0592 7B6B     		ldr	r3, [r7, #52]
 3532 0594 B3F92830 		ldrsh	r3, [r3, #40]
 3533 0598 0B44     		add	r3, r3, r1
 921:..\..\..\lvgl\version_6.1.2\lvgl\src\lv_objx/lv_btnm.c ****                        pr_center >= ext->button_areas[area_below].x1 &&
 3534              		.loc 2 921 0
 3535 059a 9A42     		cmp	r2, r3
 3536 059c 0BDD     		ble	.L191
 3537              	.L181:
 919:..\..\..\lvgl\version_6.1.2\lvgl\src\lv_objx/lv_btnm.c ****                     if(ext->button_areas[area_below].y1 > ext->button_areas[ext->btn_id_pr].y1 &&
 3538              		.loc 2 919 0 discriminator 2
 3539 059e B7F84C30 		ldrh	r3, [r7, #76]
 3540 05a2 0133     		adds	r3, r3, #1
 3541 05a4 A7F84C30 		strh	r3, [r7, #76]	@ movhi
 3542              	.L180:
 919:..\..\..\lvgl\version_6.1.2\lvgl\src\lv_objx/lv_btnm.c ****                     if(ext->button_areas[area_below].y1 > ext->button_areas[ext->btn_id_pr].y1 &&
 3543              		.loc 2 919 0 is_stmt 0 discriminator 1
 3544 05a8 7B6C     		ldr	r3, [r7, #68]
 3545 05aa 1B8C     		ldrh	r3, [r3, #32]
 3546 05ac B7F84C20 		ldrh	r2, [r7, #76]
 3547 05b0 9A42     		cmp	r2, r3
 3548 05b2 C5D3     		bcc	.L183
 3549 05b4 00E0     		b	.L182
 3550              	.L191:
 923:..\..\..\lvgl\version_6.1.2\lvgl\src\lv_objx/lv_btnm.c ****                         break;
 3551              		.loc 2 923 0 is_stmt 1
 3552 05b6 00BF     		nop
 3553              	.L182:
 924:..\..\..\lvgl\version_6.1.2\lvgl\src\lv_objx/lv_btnm.c ****                     }
ARM GAS  C:\Users\tmj32\AppData\Local\Temp\ccyJ4BPG.s 			page 82


 925:..\..\..\lvgl\version_6.1.2\lvgl\src\lv_objx/lv_btnm.c ****                 }
 926:..\..\..\lvgl\version_6.1.2\lvgl\src\lv_objx/lv_btnm.c **** 
 927:..\..\..\lvgl\version_6.1.2\lvgl\src\lv_objx/lv_btnm.c ****                 if(area_below < ext->btn_cnt) ext->btn_id_pr = area_below;
 3554              		.loc 2 927 0
 3555 05b8 7B6C     		ldr	r3, [r7, #68]
 3556 05ba 1B8C     		ldrh	r3, [r3, #32]
 3557 05bc B7F84C20 		ldrh	r2, [r7, #76]
 3558 05c0 9A42     		cmp	r2, r3
 3559 05c2 03D2     		bcs	.L179
 3560              		.loc 2 927 0 is_stmt 0 discriminator 1
 3561 05c4 7B6C     		ldr	r3, [r7, #68]
 3562 05c6 B7F84C20 		ldrh	r2, [r7, #76]	@ movhi
 3563 05ca 5A84     		strh	r2, [r3, #34]	@ movhi
 3564              	.L179:
 3565              	.LBE18:
 928:..\..\..\lvgl\version_6.1.2\lvgl\src\lv_objx/lv_btnm.c ****             }
 929:..\..\..\lvgl\version_6.1.2\lvgl\src\lv_objx/lv_btnm.c ****             ext->btn_id_act = ext->btn_id_pr;
 3566              		.loc 2 929 0 is_stmt 1
 3567 05cc 7B6C     		ldr	r3, [r7, #68]
 3568 05ce 5A8C     		ldrh	r2, [r3, #34]
 3569 05d0 7B6C     		ldr	r3, [r7, #68]
 3570 05d2 9A84     		strh	r2, [r3, #36]	@ movhi
 930:..\..\..\lvgl\version_6.1.2\lvgl\src\lv_objx/lv_btnm.c ****             lv_obj_invalidate(btnm);
 3571              		.loc 2 930 0
 3572 05d4 F868     		ldr	r0, [r7, #12]
 3573 05d6 FFF7FEFF 		bl	lv_obj_invalidate
 3574              	.LBE17:
 3575 05da 85E0     		b	.L147
 3576              	.L177:
 931:..\..\..\lvgl\version_6.1.2\lvgl\src\lv_objx/lv_btnm.c ****         } else if(c == LV_KEY_UP) {
 3577              		.loc 2 931 0
 3578 05dc 97F83B30 		ldrb	r3, [r7, #59]	@ zero_extendqisi2
 3579 05e0 112B     		cmp	r3, #17
 3580 05e2 40F08180 		bne	.L147
 3581              	.LBB19:
 932:..\..\..\lvgl\version_6.1.2\lvgl\src\lv_objx/lv_btnm.c ****             const lv_style_t * style = lv_btnm_get_style(btnm, LV_BTNM_STYLE_BG);
 3582              		.loc 2 932 0
 3583 05e6 0021     		movs	r1, #0
 3584 05e8 F868     		ldr	r0, [r7, #12]
 3585 05ea FFF7FEFF 		bl	lv_btnm_get_style
 3586 05ee F862     		str	r0, [r7, #44]
 933:..\..\..\lvgl\version_6.1.2\lvgl\src\lv_objx/lv_btnm.c ****             /*Find the area below the the current*/
 934:..\..\..\lvgl\version_6.1.2\lvgl\src\lv_objx/lv_btnm.c ****             if(ext->btn_id_pr == LV_BTNM_BTN_NONE) {
 3587              		.loc 2 934 0
 3588 05f0 7B6C     		ldr	r3, [r7, #68]
 3589 05f2 5B8C     		ldrh	r3, [r3, #34]
 3590 05f4 4FF6FF72 		movw	r2, #65535
 3591 05f8 9342     		cmp	r3, r2
 3592 05fa 03D1     		bne	.L184
 935:..\..\..\lvgl\version_6.1.2\lvgl\src\lv_objx/lv_btnm.c ****                 ext->btn_id_pr = 0;
 3593              		.loc 2 935 0
 3594 05fc 7B6C     		ldr	r3, [r7, #68]
 3595 05fe 0022     		movs	r2, #0
 3596 0600 5A84     		strh	r2, [r3, #34]	@ movhi
 3597 0602 61E0     		b	.L185
 3598              	.L184:
 3599              	.LBB20:
ARM GAS  C:\Users\tmj32\AppData\Local\Temp\ccyJ4BPG.s 			page 83


 936:..\..\..\lvgl\version_6.1.2\lvgl\src\lv_objx/lv_btnm.c ****             } else {
 937:..\..\..\lvgl\version_6.1.2\lvgl\src\lv_objx/lv_btnm.c ****                 int16_t area_above;
 938:..\..\..\lvgl\version_6.1.2\lvgl\src\lv_objx/lv_btnm.c ****                 lv_coord_t pr_center =
 939:..\..\..\lvgl\version_6.1.2\lvgl\src\lv_objx/lv_btnm.c ****                     ext->button_areas[ext->btn_id_pr].x1 + (lv_area_get_width(&ext->button_areas[ex
 3600              		.loc 2 939 0
 3601 0604 7B6C     		ldr	r3, [r7, #68]
 3602 0606 5A68     		ldr	r2, [r3, #4]
 3603 0608 7B6C     		ldr	r3, [r7, #68]
 3604 060a 5B8C     		ldrh	r3, [r3, #34]
 3605 060c DB00     		lsls	r3, r3, #3
 3606 060e 1344     		add	r3, r3, r2
 3607 0610 B3F90030 		ldrsh	r3, [r3]
 938:..\..\..\lvgl\version_6.1.2\lvgl\src\lv_objx/lv_btnm.c ****                     ext->button_areas[ext->btn_id_pr].x1 + (lv_area_get_width(&ext->button_areas[ex
 3608              		.loc 2 938 0
 3609 0614 9CB2     		uxth	r4, r3
 3610              		.loc 2 939 0
 3611 0616 7B6C     		ldr	r3, [r7, #68]
 3612 0618 5A68     		ldr	r2, [r3, #4]
 3613 061a 7B6C     		ldr	r3, [r7, #68]
 3614 061c 5B8C     		ldrh	r3, [r3, #34]
 3615 061e DB00     		lsls	r3, r3, #3
 3616 0620 1344     		add	r3, r3, r2
 3617 0622 1846     		mov	r0, r3
 3618 0624 FFF7FEFF 		bl	lv_area_get_width
 3619 0628 0346     		mov	r3, r0
 938:..\..\..\lvgl\version_6.1.2\lvgl\src\lv_objx/lv_btnm.c ****                     ext->button_areas[ext->btn_id_pr].x1 + (lv_area_get_width(&ext->button_areas[ex
 3620              		.loc 2 938 0
 3621 062a 5B10     		asrs	r3, r3, #1
 3622 062c 1BB2     		sxth	r3, r3
 3623 062e 9BB2     		uxth	r3, r3
 3624 0630 2344     		add	r3, r3, r4
 3625 0632 9BB2     		uxth	r3, r3
 3626 0634 7B85     		strh	r3, [r7, #42]	@ movhi
 940:..\..\..\lvgl\version_6.1.2\lvgl\src\lv_objx/lv_btnm.c **** 
 941:..\..\..\lvgl\version_6.1.2\lvgl\src\lv_objx/lv_btnm.c ****                 for(area_above = ext->btn_id_pr; area_above >= 0; area_above--) {
 3627              		.loc 2 941 0
 3628 0636 7B6C     		ldr	r3, [r7, #68]
 3629 0638 5B8C     		ldrh	r3, [r3, #34]
 3630 063a A7F84A30 		strh	r3, [r7, #74]	@ movhi
 3631 063e 35E0     		b	.L186
 3632              	.L189:
 942:..\..\..\lvgl\version_6.1.2\lvgl\src\lv_objx/lv_btnm.c ****                     if(ext->button_areas[area_above].y1 < ext->button_areas[ext->btn_id_pr].y1 &&
 3633              		.loc 2 942 0
 3634 0640 7B6C     		ldr	r3, [r7, #68]
 3635 0642 5A68     		ldr	r2, [r3, #4]
 3636 0644 B7F94A30 		ldrsh	r3, [r7, #74]
 3637 0648 DB00     		lsls	r3, r3, #3
 3638 064a 1344     		add	r3, r3, r2
 3639 064c B3F90220 		ldrsh	r2, [r3, #2]
 3640 0650 7B6C     		ldr	r3, [r7, #68]
 3641 0652 5968     		ldr	r1, [r3, #4]
 3642 0654 7B6C     		ldr	r3, [r7, #68]
 3643 0656 5B8C     		ldrh	r3, [r3, #34]
 3644 0658 DB00     		lsls	r3, r3, #3
 3645 065a 0B44     		add	r3, r3, r1
 3646 065c B3F90230 		ldrsh	r3, [r3, #2]
 3647 0660 9A42     		cmp	r2, r3
ARM GAS  C:\Users\tmj32\AppData\Local\Temp\ccyJ4BPG.s 			page 84


 3648 0662 1CDA     		bge	.L187
 943:..\..\..\lvgl\version_6.1.2\lvgl\src\lv_objx/lv_btnm.c ****                        pr_center >= ext->button_areas[area_above].x1 - style->body.padding.inner &&
 3649              		.loc 2 943 0 discriminator 1
 3650 0664 B7F92A20 		ldrsh	r2, [r7, #42]
 3651 0668 7B6C     		ldr	r3, [r7, #68]
 3652 066a 5968     		ldr	r1, [r3, #4]
 3653 066c B7F94A30 		ldrsh	r3, [r7, #74]
 3654 0670 DB00     		lsls	r3, r3, #3
 3655 0672 0B44     		add	r3, r3, r1
 3656 0674 B3F90030 		ldrsh	r3, [r3]
 3657 0678 1946     		mov	r1, r3
 3658 067a FB6A     		ldr	r3, [r7, #44]
 3659 067c B3F92830 		ldrsh	r3, [r3, #40]
 3660 0680 CB1A     		subs	r3, r1, r3
 942:..\..\..\lvgl\version_6.1.2\lvgl\src\lv_objx/lv_btnm.c ****                     if(ext->button_areas[area_above].y1 < ext->button_areas[ext->btn_id_pr].y1 &&
 3661              		.loc 2 942 0 discriminator 1
 3662 0682 9A42     		cmp	r2, r3
 3663 0684 0BDB     		blt	.L187
 944:..\..\..\lvgl\version_6.1.2\lvgl\src\lv_objx/lv_btnm.c ****                        pr_center <= ext->button_areas[area_above].x2) {
 3664              		.loc 2 944 0
 3665 0686 7B6C     		ldr	r3, [r7, #68]
 3666 0688 5A68     		ldr	r2, [r3, #4]
 3667 068a B7F94A30 		ldrsh	r3, [r7, #74]
 3668 068e DB00     		lsls	r3, r3, #3
 3669 0690 1344     		add	r3, r3, r2
 3670 0692 B3F90430 		ldrsh	r3, [r3, #4]
 943:..\..\..\lvgl\version_6.1.2\lvgl\src\lv_objx/lv_btnm.c ****                        pr_center >= ext->button_areas[area_above].x1 - style->body.padding.inner &&
 3671              		.loc 2 943 0
 3672 0696 B7F92A20 		ldrsh	r2, [r7, #42]
 3673 069a 9A42     		cmp	r2, r3
 3674 069c 0BDD     		ble	.L192
 3675              	.L187:
 941:..\..\..\lvgl\version_6.1.2\lvgl\src\lv_objx/lv_btnm.c ****                     if(ext->button_areas[area_above].y1 < ext->button_areas[ext->btn_id_pr].y1 &&
 3676              		.loc 2 941 0 discriminator 2
 3677 069e B7F94A30 		ldrsh	r3, [r7, #74]
 3678 06a2 9BB2     		uxth	r3, r3
 3679 06a4 013B     		subs	r3, r3, #1
 3680 06a6 9BB2     		uxth	r3, r3
 3681 06a8 A7F84A30 		strh	r3, [r7, #74]	@ movhi
 3682              	.L186:
 941:..\..\..\lvgl\version_6.1.2\lvgl\src\lv_objx/lv_btnm.c ****                     if(ext->button_areas[area_above].y1 < ext->button_areas[ext->btn_id_pr].y1 &&
 3683              		.loc 2 941 0 is_stmt 0 discriminator 1
 3684 06ac B7F94A30 		ldrsh	r3, [r7, #74]
 3685 06b0 002B     		cmp	r3, #0
 3686 06b2 C5DA     		bge	.L189
 3687 06b4 00E0     		b	.L188
 3688              	.L192:
 945:..\..\..\lvgl\version_6.1.2\lvgl\src\lv_objx/lv_btnm.c ****                         break;
 3689              		.loc 2 945 0 is_stmt 1
 3690 06b6 00BF     		nop
 3691              	.L188:
 946:..\..\..\lvgl\version_6.1.2\lvgl\src\lv_objx/lv_btnm.c ****                     }
 947:..\..\..\lvgl\version_6.1.2\lvgl\src\lv_objx/lv_btnm.c ****                 }
 948:..\..\..\lvgl\version_6.1.2\lvgl\src\lv_objx/lv_btnm.c ****                 if(area_above >= 0) ext->btn_id_pr = area_above;
 3692              		.loc 2 948 0
 3693 06b8 B7F94A30 		ldrsh	r3, [r7, #74]
 3694 06bc 002B     		cmp	r3, #0
ARM GAS  C:\Users\tmj32\AppData\Local\Temp\ccyJ4BPG.s 			page 85


 3695 06be 03DB     		blt	.L185
 3696              		.loc 2 948 0 is_stmt 0 discriminator 1
 3697 06c0 B7F84A20 		ldrh	r2, [r7, #74]
 3698 06c4 7B6C     		ldr	r3, [r7, #68]
 3699 06c6 5A84     		strh	r2, [r3, #34]	@ movhi
 3700              	.L185:
 3701              	.LBE20:
 949:..\..\..\lvgl\version_6.1.2\lvgl\src\lv_objx/lv_btnm.c ****             }
 950:..\..\..\lvgl\version_6.1.2\lvgl\src\lv_objx/lv_btnm.c ****             ext->btn_id_act = ext->btn_id_pr;
 3702              		.loc 2 950 0 is_stmt 1
 3703 06c8 7B6C     		ldr	r3, [r7, #68]
 3704 06ca 5A8C     		ldrh	r2, [r3, #34]
 3705 06cc 7B6C     		ldr	r3, [r7, #68]
 3706 06ce 9A84     		strh	r2, [r3, #36]	@ movhi
 951:..\..\..\lvgl\version_6.1.2\lvgl\src\lv_objx/lv_btnm.c ****             lv_obj_invalidate(btnm);
 3707              		.loc 2 951 0
 3708 06d0 F868     		ldr	r0, [r7, #12]
 3709 06d2 FFF7FEFF 		bl	lv_obj_invalidate
 3710 06d6 07E0     		b	.L147
 3711              	.L168:
 3712              	.LBE19:
 3713              	.LBE16:
 952:..\..\..\lvgl\version_6.1.2\lvgl\src\lv_objx/lv_btnm.c ****         }
 953:..\..\..\lvgl\version_6.1.2\lvgl\src\lv_objx/lv_btnm.c ****     } else if(sign == LV_SIGNAL_GET_EDITABLE) {
 3714              		.loc 2 953 0
 3715 06d8 FB7A     		ldrb	r3, [r7, #11]	@ zero_extendqisi2
 3716 06da 132B     		cmp	r3, #19
 3717 06dc 04D1     		bne	.L147
 3718              	.LBB21:
 954:..\..\..\lvgl\version_6.1.2\lvgl\src\lv_objx/lv_btnm.c ****         bool * editable = (bool *)param;
 3719              		.loc 2 954 0
 3720 06de 7B68     		ldr	r3, [r7, #4]
 3721 06e0 7B62     		str	r3, [r7, #36]
 955:..\..\..\lvgl\version_6.1.2\lvgl\src\lv_objx/lv_btnm.c ****         *editable       = true;
 3722              		.loc 2 955 0
 3723 06e2 7B6A     		ldr	r3, [r7, #36]
 3724 06e4 0122     		movs	r2, #1
 3725 06e6 1A70     		strb	r2, [r3]
 3726              	.L147:
 3727              	.LBE21:
 956:..\..\..\lvgl\version_6.1.2\lvgl\src\lv_objx/lv_btnm.c ****     }
 957:..\..\..\lvgl\version_6.1.2\lvgl\src\lv_objx/lv_btnm.c ****     return res;
 3728              		.loc 2 957 0
 3729 06e8 97F84F30 		ldrb	r3, [r7, #79]	@ zero_extendqisi2
 3730              	.L190:
 958:..\..\..\lvgl\version_6.1.2\lvgl\src\lv_objx/lv_btnm.c **** }
 3731              		.loc 2 958 0 discriminator 4
 3732 06ec 1846     		mov	r0, r3
 3733 06ee 5437     		adds	r7, r7, #84
 3734              		.cfi_def_cfa_offset 12
 3735 06f0 BD46     		mov	sp, r7
 3736              		.cfi_def_cfa_register 13
 3737              		@ sp needed
 3738 06f2 90BD     		pop	{r4, r7, pc}
 3739              		.cfi_endproc
 3740              	.LFE68:
 3741              		.size	lv_btnm_signal, .-lv_btnm_signal
ARM GAS  C:\Users\tmj32\AppData\Local\Temp\ccyJ4BPG.s 			page 86


 3742              		.section	.text.allocate_btn_areas_and_controls,"ax",%progbits
 3743              		.align	2
 3744              		.thumb
 3745              		.thumb_func
 3746              		.type	allocate_btn_areas_and_controls, %function
 3747              	allocate_btn_areas_and_controls:
 3748              	.LFB69:
 959:..\..\..\lvgl\version_6.1.2\lvgl\src\lv_objx/lv_btnm.c **** 
 960:..\..\..\lvgl\version_6.1.2\lvgl\src\lv_objx/lv_btnm.c **** /**
 961:..\..\..\lvgl\version_6.1.2\lvgl\src\lv_objx/lv_btnm.c ****  * Create the required number of buttons and control bytes according to a map
 962:..\..\..\lvgl\version_6.1.2\lvgl\src\lv_objx/lv_btnm.c ****  * @param btnm pointer to button matrix object
 963:..\..\..\lvgl\version_6.1.2\lvgl\src\lv_objx/lv_btnm.c ****  * @param map_p pointer to a string array
 964:..\..\..\lvgl\version_6.1.2\lvgl\src\lv_objx/lv_btnm.c ****  */
 965:..\..\..\lvgl\version_6.1.2\lvgl\src\lv_objx/lv_btnm.c **** static void allocate_btn_areas_and_controls(const lv_obj_t * btnm, const char ** map)
 966:..\..\..\lvgl\version_6.1.2\lvgl\src\lv_objx/lv_btnm.c **** {
 3749              		.loc 2 966 0
 3750              		.cfi_startproc
 3751              		@ args = 0, pretend = 0, frame = 16
 3752              		@ frame_needed = 1, uses_anonymous_args = 0
 3753 0000 80B5     		push	{r7, lr}
 3754              		.cfi_def_cfa_offset 8
 3755              		.cfi_offset 7, -8
 3756              		.cfi_offset 14, -4
 3757 0002 84B0     		sub	sp, sp, #16
 3758              		.cfi_def_cfa_offset 24
 3759 0004 00AF     		add	r7, sp, #0
 3760              		.cfi_def_cfa_register 7
 3761 0006 7860     		str	r0, [r7, #4]
 3762 0008 3960     		str	r1, [r7]
 967:..\..\..\lvgl\version_6.1.2\lvgl\src\lv_objx/lv_btnm.c ****     /*Count the buttons in the map*/
 968:..\..\..\lvgl\version_6.1.2\lvgl\src\lv_objx/lv_btnm.c ****     uint16_t btn_cnt = 0;
 3763              		.loc 2 968 0
 3764 000a 0023     		movs	r3, #0
 3765 000c FB81     		strh	r3, [r7, #14]	@ movhi
 969:..\..\..\lvgl\version_6.1.2\lvgl\src\lv_objx/lv_btnm.c ****     uint16_t i       = 0;
 3766              		.loc 2 969 0
 3767 000e 0023     		movs	r3, #0
 3768 0010 BB81     		strh	r3, [r7, #12]	@ movhi
 970:..\..\..\lvgl\version_6.1.2\lvgl\src\lv_objx/lv_btnm.c ****     while(strlen(map[i]) != 0) {
 3769              		.loc 2 970 0
 3770 0012 11E0     		b	.L196
 3771              	.L198:
 971:..\..\..\lvgl\version_6.1.2\lvgl\src\lv_objx/lv_btnm.c ****         if(strcmp(map[i], "\n") != 0) { /*Do not count line breaks*/
 3772              		.loc 2 971 0
 3773 0014 BB89     		ldrh	r3, [r7, #12]
 3774 0016 9B00     		lsls	r3, r3, #2
 3775 0018 3A68     		ldr	r2, [r7]
 3776 001a 1344     		add	r3, r3, r2
 3777 001c 1B68     		ldr	r3, [r3]
 3778 001e 2D49     		ldr	r1, .L203
 3779 0020 1846     		mov	r0, r3
 3780 0022 FFF7FEFF 		bl	strcmp
 3781 0026 0346     		mov	r3, r0
 3782 0028 002B     		cmp	r3, #0
 3783 002a 02D0     		beq	.L197
 972:..\..\..\lvgl\version_6.1.2\lvgl\src\lv_objx/lv_btnm.c ****             btn_cnt++;
 3784              		.loc 2 972 0
ARM GAS  C:\Users\tmj32\AppData\Local\Temp\ccyJ4BPG.s 			page 87


 3785 002c FB89     		ldrh	r3, [r7, #14]
 3786 002e 0133     		adds	r3, r3, #1
 3787 0030 FB81     		strh	r3, [r7, #14]	@ movhi
 3788              	.L197:
 973:..\..\..\lvgl\version_6.1.2\lvgl\src\lv_objx/lv_btnm.c ****         }
 974:..\..\..\lvgl\version_6.1.2\lvgl\src\lv_objx/lv_btnm.c ****         i++;
 3789              		.loc 2 974 0
 3790 0032 BB89     		ldrh	r3, [r7, #12]
 3791 0034 0133     		adds	r3, r3, #1
 3792 0036 BB81     		strh	r3, [r7, #12]	@ movhi
 3793              	.L196:
 970:..\..\..\lvgl\version_6.1.2\lvgl\src\lv_objx/lv_btnm.c ****         if(strcmp(map[i], "\n") != 0) { /*Do not count line breaks*/
 3794              		.loc 2 970 0
 3795 0038 BB89     		ldrh	r3, [r7, #12]
 3796 003a 9B00     		lsls	r3, r3, #2
 3797 003c 3A68     		ldr	r2, [r7]
 3798 003e 1344     		add	r3, r3, r2
 3799 0040 1B68     		ldr	r3, [r3]
 3800 0042 1B78     		ldrb	r3, [r3]	@ zero_extendqisi2
 3801 0044 002B     		cmp	r3, #0
 3802 0046 E5D1     		bne	.L198
 975:..\..\..\lvgl\version_6.1.2\lvgl\src\lv_objx/lv_btnm.c ****     }
 976:..\..\..\lvgl\version_6.1.2\lvgl\src\lv_objx/lv_btnm.c **** 
 977:..\..\..\lvgl\version_6.1.2\lvgl\src\lv_objx/lv_btnm.c ****     lv_btnm_ext_t * ext = lv_obj_get_ext_attr(btnm);
 3803              		.loc 2 977 0
 3804 0048 7868     		ldr	r0, [r7, #4]
 3805 004a FFF7FEFF 		bl	lv_obj_get_ext_attr
 3806 004e B860     		str	r0, [r7, #8]
 978:..\..\..\lvgl\version_6.1.2\lvgl\src\lv_objx/lv_btnm.c **** 
 979:..\..\..\lvgl\version_6.1.2\lvgl\src\lv_objx/lv_btnm.c ****     if(ext->button_areas != NULL) {
 3807              		.loc 2 979 0
 3808 0050 BB68     		ldr	r3, [r7, #8]
 3809 0052 5B68     		ldr	r3, [r3, #4]
 3810 0054 002B     		cmp	r3, #0
 3811 0056 07D0     		beq	.L199
 980:..\..\..\lvgl\version_6.1.2\lvgl\src\lv_objx/lv_btnm.c ****         lv_mem_free(ext->button_areas);
 3812              		.loc 2 980 0
 3813 0058 BB68     		ldr	r3, [r7, #8]
 3814 005a 5B68     		ldr	r3, [r3, #4]
 3815 005c 1846     		mov	r0, r3
 3816 005e FFF7FEFF 		bl	lv_mem_free
 981:..\..\..\lvgl\version_6.1.2\lvgl\src\lv_objx/lv_btnm.c ****         ext->button_areas = NULL;
 3817              		.loc 2 981 0
 3818 0062 BB68     		ldr	r3, [r7, #8]
 3819 0064 0022     		movs	r2, #0
 3820 0066 5A60     		str	r2, [r3, #4]
 3821              	.L199:
 982:..\..\..\lvgl\version_6.1.2\lvgl\src\lv_objx/lv_btnm.c ****     }
 983:..\..\..\lvgl\version_6.1.2\lvgl\src\lv_objx/lv_btnm.c ****     if(ext->ctrl_bits != NULL) {
 3822              		.loc 2 983 0
 3823 0068 BB68     		ldr	r3, [r7, #8]
 3824 006a 9B68     		ldr	r3, [r3, #8]
 3825 006c 002B     		cmp	r3, #0
 3826 006e 07D0     		beq	.L200
 984:..\..\..\lvgl\version_6.1.2\lvgl\src\lv_objx/lv_btnm.c ****         lv_mem_free(ext->ctrl_bits);
 3827              		.loc 2 984 0
 3828 0070 BB68     		ldr	r3, [r7, #8]
ARM GAS  C:\Users\tmj32\AppData\Local\Temp\ccyJ4BPG.s 			page 88


 3829 0072 9B68     		ldr	r3, [r3, #8]
 3830 0074 1846     		mov	r0, r3
 3831 0076 FFF7FEFF 		bl	lv_mem_free
 985:..\..\..\lvgl\version_6.1.2\lvgl\src\lv_objx/lv_btnm.c ****         ext->ctrl_bits = NULL;
 3832              		.loc 2 985 0
 3833 007a BB68     		ldr	r3, [r7, #8]
 3834 007c 0022     		movs	r2, #0
 3835 007e 9A60     		str	r2, [r3, #8]
 3836              	.L200:
 986:..\..\..\lvgl\version_6.1.2\lvgl\src\lv_objx/lv_btnm.c ****     }
 987:..\..\..\lvgl\version_6.1.2\lvgl\src\lv_objx/lv_btnm.c **** 
 988:..\..\..\lvgl\version_6.1.2\lvgl\src\lv_objx/lv_btnm.c ****     ext->button_areas = lv_mem_alloc(sizeof(lv_area_t) * btn_cnt);
 3837              		.loc 2 988 0
 3838 0080 FB89     		ldrh	r3, [r7, #14]
 3839 0082 DB00     		lsls	r3, r3, #3
 3840 0084 1846     		mov	r0, r3
 3841 0086 FFF7FEFF 		bl	lv_mem_alloc
 3842 008a 0246     		mov	r2, r0
 3843 008c BB68     		ldr	r3, [r7, #8]
 3844 008e 5A60     		str	r2, [r3, #4]
 989:..\..\..\lvgl\version_6.1.2\lvgl\src\lv_objx/lv_btnm.c ****     LV_ASSERT_MEM(ext->button_areas);
 990:..\..\..\lvgl\version_6.1.2\lvgl\src\lv_objx/lv_btnm.c ****     ext->ctrl_bits = lv_mem_alloc(sizeof(lv_btnm_ctrl_t) * btn_cnt);
 3845              		.loc 2 990 0
 3846 0090 FB89     		ldrh	r3, [r7, #14]
 3847 0092 5B00     		lsls	r3, r3, #1
 3848 0094 1846     		mov	r0, r3
 3849 0096 FFF7FEFF 		bl	lv_mem_alloc
 3850 009a 0246     		mov	r2, r0
 3851 009c BB68     		ldr	r3, [r7, #8]
 3852 009e 9A60     		str	r2, [r3, #8]
 991:..\..\..\lvgl\version_6.1.2\lvgl\src\lv_objx/lv_btnm.c ****     LV_ASSERT_MEM(ext->ctrl_bits);
 992:..\..\..\lvgl\version_6.1.2\lvgl\src\lv_objx/lv_btnm.c ****     if(ext->button_areas == NULL || ext->ctrl_bits == NULL) btn_cnt = 0;
 3853              		.loc 2 992 0
 3854 00a0 BB68     		ldr	r3, [r7, #8]
 3855 00a2 5B68     		ldr	r3, [r3, #4]
 3856 00a4 002B     		cmp	r3, #0
 3857 00a6 03D0     		beq	.L201
 3858              		.loc 2 992 0 is_stmt 0 discriminator 2
 3859 00a8 BB68     		ldr	r3, [r7, #8]
 3860 00aa 9B68     		ldr	r3, [r3, #8]
 3861 00ac 002B     		cmp	r3, #0
 3862 00ae 01D1     		bne	.L202
 3863              	.L201:
 3864              		.loc 2 992 0 discriminator 3
 3865 00b0 0023     		movs	r3, #0
 3866 00b2 FB81     		strh	r3, [r7, #14]	@ movhi
 3867              	.L202:
 993:..\..\..\lvgl\version_6.1.2\lvgl\src\lv_objx/lv_btnm.c **** 
 994:..\..\..\lvgl\version_6.1.2\lvgl\src\lv_objx/lv_btnm.c ****     memset(ext->ctrl_bits, 0, sizeof(lv_btnm_ctrl_t) * btn_cnt);
 3868              		.loc 2 994 0 is_stmt 1
 3869 00b4 BB68     		ldr	r3, [r7, #8]
 3870 00b6 9868     		ldr	r0, [r3, #8]
 3871 00b8 FB89     		ldrh	r3, [r7, #14]
 3872 00ba 5B00     		lsls	r3, r3, #1
 3873 00bc 1A46     		mov	r2, r3
 3874 00be 0021     		movs	r1, #0
 3875 00c0 FFF7FEFF 		bl	memset
ARM GAS  C:\Users\tmj32\AppData\Local\Temp\ccyJ4BPG.s 			page 89


 995:..\..\..\lvgl\version_6.1.2\lvgl\src\lv_objx/lv_btnm.c **** 
 996:..\..\..\lvgl\version_6.1.2\lvgl\src\lv_objx/lv_btnm.c ****     ext->btn_cnt = btn_cnt;
 3876              		.loc 2 996 0
 3877 00c4 BB68     		ldr	r3, [r7, #8]
 3878 00c6 FA89     		ldrh	r2, [r7, #14]	@ movhi
 3879 00c8 1A84     		strh	r2, [r3, #32]	@ movhi
 997:..\..\..\lvgl\version_6.1.2\lvgl\src\lv_objx/lv_btnm.c **** }
 3880              		.loc 2 997 0
 3881 00ca 00BF     		nop
 3882 00cc 1037     		adds	r7, r7, #16
 3883              		.cfi_def_cfa_offset 8
 3884 00ce BD46     		mov	sp, r7
 3885              		.cfi_def_cfa_register 13
 3886              		@ sp needed
 3887 00d0 80BD     		pop	{r7, pc}
 3888              	.L204:
 3889 00d2 00BF     		.align	2
 3890              	.L203:
 3891 00d4 18000000 		.word	.LC3
 3892              		.cfi_endproc
 3893              	.LFE69:
 3894              		.size	allocate_btn_areas_and_controls, .-allocate_btn_areas_and_controls
 3895              		.section	.text.get_button_width,"ax",%progbits
 3896              		.align	2
 3897              		.thumb
 3898              		.thumb_func
 3899              		.type	get_button_width, %function
 3900              	get_button_width:
 3901              	.LFB70:
 998:..\..\..\lvgl\version_6.1.2\lvgl\src\lv_objx/lv_btnm.c **** 
 999:..\..\..\lvgl\version_6.1.2\lvgl\src\lv_objx/lv_btnm.c **** /**
1000:..\..\..\lvgl\version_6.1.2\lvgl\src\lv_objx/lv_btnm.c ****  * Get the width of a button in units (default is 1).
1001:..\..\..\lvgl\version_6.1.2\lvgl\src\lv_objx/lv_btnm.c ****  * @param ctrl_bits least significant 3 bits used (1..7 valid values)
1002:..\..\..\lvgl\version_6.1.2\lvgl\src\lv_objx/lv_btnm.c ****  * @return the width of the button in units
1003:..\..\..\lvgl\version_6.1.2\lvgl\src\lv_objx/lv_btnm.c ****  */
1004:..\..\..\lvgl\version_6.1.2\lvgl\src\lv_objx/lv_btnm.c **** static uint8_t get_button_width(lv_btnm_ctrl_t ctrl_bits)
1005:..\..\..\lvgl\version_6.1.2\lvgl\src\lv_objx/lv_btnm.c **** {
 3902              		.loc 2 1005 0
 3903              		.cfi_startproc
 3904              		@ args = 0, pretend = 0, frame = 16
 3905              		@ frame_needed = 1, uses_anonymous_args = 0
 3906              		@ link register save eliminated.
 3907 0000 80B4     		push	{r7}
 3908              		.cfi_def_cfa_offset 4
 3909              		.cfi_offset 7, -4
 3910 0002 85B0     		sub	sp, sp, #20
 3911              		.cfi_def_cfa_offset 24
 3912 0004 00AF     		add	r7, sp, #0
 3913              		.cfi_def_cfa_register 7
 3914 0006 0346     		mov	r3, r0
 3915 0008 FB80     		strh	r3, [r7, #6]	@ movhi
1006:..\..\..\lvgl\version_6.1.2\lvgl\src\lv_objx/lv_btnm.c ****     uint8_t w = ctrl_bits & LV_BTNM_WIDTH_MASK;
 3916              		.loc 2 1006 0
 3917 000a FB88     		ldrh	r3, [r7, #6]	@ movhi
 3918 000c DBB2     		uxtb	r3, r3
 3919 000e 03F00703 		and	r3, r3, #7
 3920 0012 FB73     		strb	r3, [r7, #15]
ARM GAS  C:\Users\tmj32\AppData\Local\Temp\ccyJ4BPG.s 			page 90


1007:..\..\..\lvgl\version_6.1.2\lvgl\src\lv_objx/lv_btnm.c ****     return w != 0 ? w : 1;
 3921              		.loc 2 1007 0
 3922 0014 FB7B     		ldrb	r3, [r7, #15]	@ zero_extendqisi2
 3923 0016 002B     		cmp	r3, #0
 3924 0018 01D0     		beq	.L206
 3925              		.loc 2 1007 0 is_stmt 0 discriminator 1
 3926 001a FB7B     		ldrb	r3, [r7, #15]	@ zero_extendqisi2
 3927 001c 00E0     		b	.L207
 3928              	.L206:
 3929              		.loc 2 1007 0 discriminator 2
 3930 001e 0123     		movs	r3, #1
 3931              	.L207:
1008:..\..\..\lvgl\version_6.1.2\lvgl\src\lv_objx/lv_btnm.c **** }
 3932              		.loc 2 1008 0 is_stmt 1 discriminator 4
 3933 0020 1846     		mov	r0, r3
 3934 0022 1437     		adds	r7, r7, #20
 3935              		.cfi_def_cfa_offset 4
 3936 0024 BD46     		mov	sp, r7
 3937              		.cfi_def_cfa_register 13
 3938              		@ sp needed
 3939 0026 5DF8047B 		ldr	r7, [sp], #4
 3940              		.cfi_restore 7
 3941              		.cfi_def_cfa_offset 0
 3942 002a 7047     		bx	lr
 3943              		.cfi_endproc
 3944              	.LFE70:
 3945              		.size	get_button_width, .-get_button_width
 3946              		.section	.text.button_is_hidden,"ax",%progbits
 3947              		.align	2
 3948              		.thumb
 3949              		.thumb_func
 3950              		.type	button_is_hidden, %function
 3951              	button_is_hidden:
 3952              	.LFB71:
1009:..\..\..\lvgl\version_6.1.2\lvgl\src\lv_objx/lv_btnm.c **** 
1010:..\..\..\lvgl\version_6.1.2\lvgl\src\lv_objx/lv_btnm.c **** static bool button_is_hidden(lv_btnm_ctrl_t ctrl_bits)
1011:..\..\..\lvgl\version_6.1.2\lvgl\src\lv_objx/lv_btnm.c **** {
 3953              		.loc 2 1011 0
 3954              		.cfi_startproc
 3955              		@ args = 0, pretend = 0, frame = 8
 3956              		@ frame_needed = 1, uses_anonymous_args = 0
 3957              		@ link register save eliminated.
 3958 0000 80B4     		push	{r7}
 3959              		.cfi_def_cfa_offset 4
 3960              		.cfi_offset 7, -4
 3961 0002 83B0     		sub	sp, sp, #12
 3962              		.cfi_def_cfa_offset 16
 3963 0004 00AF     		add	r7, sp, #0
 3964              		.cfi_def_cfa_register 7
 3965 0006 0346     		mov	r3, r0
 3966 0008 FB80     		strh	r3, [r7, #6]	@ movhi
1012:..\..\..\lvgl\version_6.1.2\lvgl\src\lv_objx/lv_btnm.c ****     return ctrl_bits & LV_BTNM_CTRL_HIDDEN ? true : false;
 3967              		.loc 2 1012 0
 3968 000a FB88     		ldrh	r3, [r7, #6]
 3969 000c 03F00803 		and	r3, r3, #8
 3970 0010 002B     		cmp	r3, #0
 3971 0012 14BF     		ite	ne
ARM GAS  C:\Users\tmj32\AppData\Local\Temp\ccyJ4BPG.s 			page 91


 3972 0014 0123     		movne	r3, #1
 3973 0016 0023     		moveq	r3, #0
 3974 0018 DBB2     		uxtb	r3, r3
1013:..\..\..\lvgl\version_6.1.2\lvgl\src\lv_objx/lv_btnm.c **** }
 3975              		.loc 2 1013 0
 3976 001a 1846     		mov	r0, r3
 3977 001c 0C37     		adds	r7, r7, #12
 3978              		.cfi_def_cfa_offset 4
 3979 001e BD46     		mov	sp, r7
 3980              		.cfi_def_cfa_register 13
 3981              		@ sp needed
 3982 0020 5DF8047B 		ldr	r7, [sp], #4
 3983              		.cfi_restore 7
 3984              		.cfi_def_cfa_offset 0
 3985 0024 7047     		bx	lr
 3986              		.cfi_endproc
 3987              	.LFE71:
 3988              		.size	button_is_hidden, .-button_is_hidden
 3989 0026 00BF     		.section	.text.button_is_repeat_disabled,"ax",%progbits
 3990              		.align	2
 3991              		.thumb
 3992              		.thumb_func
 3993              		.type	button_is_repeat_disabled, %function
 3994              	button_is_repeat_disabled:
 3995              	.LFB72:
1014:..\..\..\lvgl\version_6.1.2\lvgl\src\lv_objx/lv_btnm.c **** 
1015:..\..\..\lvgl\version_6.1.2\lvgl\src\lv_objx/lv_btnm.c **** static bool button_is_repeat_disabled(lv_btnm_ctrl_t ctrl_bits)
1016:..\..\..\lvgl\version_6.1.2\lvgl\src\lv_objx/lv_btnm.c **** {
 3996              		.loc 2 1016 0
 3997              		.cfi_startproc
 3998              		@ args = 0, pretend = 0, frame = 8
 3999              		@ frame_needed = 1, uses_anonymous_args = 0
 4000              		@ link register save eliminated.
 4001 0000 80B4     		push	{r7}
 4002              		.cfi_def_cfa_offset 4
 4003              		.cfi_offset 7, -4
 4004 0002 83B0     		sub	sp, sp, #12
 4005              		.cfi_def_cfa_offset 16
 4006 0004 00AF     		add	r7, sp, #0
 4007              		.cfi_def_cfa_register 7
 4008 0006 0346     		mov	r3, r0
 4009 0008 FB80     		strh	r3, [r7, #6]	@ movhi
1017:..\..\..\lvgl\version_6.1.2\lvgl\src\lv_objx/lv_btnm.c ****     return ctrl_bits & LV_BTNM_CTRL_NO_REPEAT ? true : false;
 4010              		.loc 2 1017 0
 4011 000a FB88     		ldrh	r3, [r7, #6]
 4012 000c 03F01003 		and	r3, r3, #16
 4013 0010 002B     		cmp	r3, #0
 4014 0012 14BF     		ite	ne
 4015 0014 0123     		movne	r3, #1
 4016 0016 0023     		moveq	r3, #0
 4017 0018 DBB2     		uxtb	r3, r3
1018:..\..\..\lvgl\version_6.1.2\lvgl\src\lv_objx/lv_btnm.c **** }
 4018              		.loc 2 1018 0
 4019 001a 1846     		mov	r0, r3
 4020 001c 0C37     		adds	r7, r7, #12
 4021              		.cfi_def_cfa_offset 4
 4022 001e BD46     		mov	sp, r7
ARM GAS  C:\Users\tmj32\AppData\Local\Temp\ccyJ4BPG.s 			page 92


 4023              		.cfi_def_cfa_register 13
 4024              		@ sp needed
 4025 0020 5DF8047B 		ldr	r7, [sp], #4
 4026              		.cfi_restore 7
 4027              		.cfi_def_cfa_offset 0
 4028 0024 7047     		bx	lr
 4029              		.cfi_endproc
 4030              	.LFE72:
 4031              		.size	button_is_repeat_disabled, .-button_is_repeat_disabled
 4032 0026 00BF     		.section	.text.button_is_inactive,"ax",%progbits
 4033              		.align	2
 4034              		.thumb
 4035              		.thumb_func
 4036              		.type	button_is_inactive, %function
 4037              	button_is_inactive:
 4038              	.LFB73:
1019:..\..\..\lvgl\version_6.1.2\lvgl\src\lv_objx/lv_btnm.c **** 
1020:..\..\..\lvgl\version_6.1.2\lvgl\src\lv_objx/lv_btnm.c **** static bool button_is_inactive(lv_btnm_ctrl_t ctrl_bits)
1021:..\..\..\lvgl\version_6.1.2\lvgl\src\lv_objx/lv_btnm.c **** {
 4039              		.loc 2 1021 0
 4040              		.cfi_startproc
 4041              		@ args = 0, pretend = 0, frame = 8
 4042              		@ frame_needed = 1, uses_anonymous_args = 0
 4043              		@ link register save eliminated.
 4044 0000 80B4     		push	{r7}
 4045              		.cfi_def_cfa_offset 4
 4046              		.cfi_offset 7, -4
 4047 0002 83B0     		sub	sp, sp, #12
 4048              		.cfi_def_cfa_offset 16
 4049 0004 00AF     		add	r7, sp, #0
 4050              		.cfi_def_cfa_register 7
 4051 0006 0346     		mov	r3, r0
 4052 0008 FB80     		strh	r3, [r7, #6]	@ movhi
1022:..\..\..\lvgl\version_6.1.2\lvgl\src\lv_objx/lv_btnm.c ****     return ctrl_bits & LV_BTNM_CTRL_INACTIVE ? true : false;
 4053              		.loc 2 1022 0
 4054 000a FB88     		ldrh	r3, [r7, #6]
 4055 000c 03F02003 		and	r3, r3, #32
 4056 0010 002B     		cmp	r3, #0
 4057 0012 14BF     		ite	ne
 4058 0014 0123     		movne	r3, #1
 4059 0016 0023     		moveq	r3, #0
 4060 0018 DBB2     		uxtb	r3, r3
1023:..\..\..\lvgl\version_6.1.2\lvgl\src\lv_objx/lv_btnm.c **** }
 4061              		.loc 2 1023 0
 4062 001a 1846     		mov	r0, r3
 4063 001c 0C37     		adds	r7, r7, #12
 4064              		.cfi_def_cfa_offset 4
 4065 001e BD46     		mov	sp, r7
 4066              		.cfi_def_cfa_register 13
 4067              		@ sp needed
 4068 0020 5DF8047B 		ldr	r7, [sp], #4
 4069              		.cfi_restore 7
 4070              		.cfi_def_cfa_offset 0
 4071 0024 7047     		bx	lr
 4072              		.cfi_endproc
 4073              	.LFE73:
 4074              		.size	button_is_inactive, .-button_is_inactive
ARM GAS  C:\Users\tmj32\AppData\Local\Temp\ccyJ4BPG.s 			page 93


 4075 0026 00BF     		.section	.text.button_is_click_trig,"ax",%progbits
 4076              		.align	2
 4077              		.thumb
 4078              		.thumb_func
 4079              		.type	button_is_click_trig, %function
 4080              	button_is_click_trig:
 4081              	.LFB74:
1024:..\..\..\lvgl\version_6.1.2\lvgl\src\lv_objx/lv_btnm.c **** 
1025:..\..\..\lvgl\version_6.1.2\lvgl\src\lv_objx/lv_btnm.c **** static bool button_is_click_trig(lv_btnm_ctrl_t ctrl_bits)
1026:..\..\..\lvgl\version_6.1.2\lvgl\src\lv_objx/lv_btnm.c **** {
 4082              		.loc 2 1026 0
 4083              		.cfi_startproc
 4084              		@ args = 0, pretend = 0, frame = 8
 4085              		@ frame_needed = 1, uses_anonymous_args = 0
 4086              		@ link register save eliminated.
 4087 0000 80B4     		push	{r7}
 4088              		.cfi_def_cfa_offset 4
 4089              		.cfi_offset 7, -4
 4090 0002 83B0     		sub	sp, sp, #12
 4091              		.cfi_def_cfa_offset 16
 4092 0004 00AF     		add	r7, sp, #0
 4093              		.cfi_def_cfa_register 7
 4094 0006 0346     		mov	r3, r0
 4095 0008 FB80     		strh	r3, [r7, #6]	@ movhi
1027:..\..\..\lvgl\version_6.1.2\lvgl\src\lv_objx/lv_btnm.c ****     return ctrl_bits & LV_BTNM_CTRL_CLICK_TRIG ? true : false;
 4096              		.loc 2 1027 0
 4097 000a FB88     		ldrh	r3, [r7, #6]
 4098 000c 03F48073 		and	r3, r3, #256
 4099 0010 002B     		cmp	r3, #0
 4100 0012 14BF     		ite	ne
 4101 0014 0123     		movne	r3, #1
 4102 0016 0023     		moveq	r3, #0
 4103 0018 DBB2     		uxtb	r3, r3
1028:..\..\..\lvgl\version_6.1.2\lvgl\src\lv_objx/lv_btnm.c **** }
 4104              		.loc 2 1028 0
 4105 001a 1846     		mov	r0, r3
 4106 001c 0C37     		adds	r7, r7, #12
 4107              		.cfi_def_cfa_offset 4
 4108 001e BD46     		mov	sp, r7
 4109              		.cfi_def_cfa_register 13
 4110              		@ sp needed
 4111 0020 5DF8047B 		ldr	r7, [sp], #4
 4112              		.cfi_restore 7
 4113              		.cfi_def_cfa_offset 0
 4114 0024 7047     		bx	lr
 4115              		.cfi_endproc
 4116              	.LFE74:
 4117              		.size	button_is_click_trig, .-button_is_click_trig
 4118 0026 00BF     		.section	.text.button_is_tgl_enabled,"ax",%progbits
 4119              		.align	2
 4120              		.thumb
 4121              		.thumb_func
 4122              		.type	button_is_tgl_enabled, %function
 4123              	button_is_tgl_enabled:
 4124              	.LFB75:
1029:..\..\..\lvgl\version_6.1.2\lvgl\src\lv_objx/lv_btnm.c **** 
1030:..\..\..\lvgl\version_6.1.2\lvgl\src\lv_objx/lv_btnm.c **** static bool button_is_tgl_enabled(lv_btnm_ctrl_t ctrl_bits)
ARM GAS  C:\Users\tmj32\AppData\Local\Temp\ccyJ4BPG.s 			page 94


1031:..\..\..\lvgl\version_6.1.2\lvgl\src\lv_objx/lv_btnm.c **** {
 4125              		.loc 2 1031 0
 4126              		.cfi_startproc
 4127              		@ args = 0, pretend = 0, frame = 8
 4128              		@ frame_needed = 1, uses_anonymous_args = 0
 4129              		@ link register save eliminated.
 4130 0000 80B4     		push	{r7}
 4131              		.cfi_def_cfa_offset 4
 4132              		.cfi_offset 7, -4
 4133 0002 83B0     		sub	sp, sp, #12
 4134              		.cfi_def_cfa_offset 16
 4135 0004 00AF     		add	r7, sp, #0
 4136              		.cfi_def_cfa_register 7
 4137 0006 0346     		mov	r3, r0
 4138 0008 FB80     		strh	r3, [r7, #6]	@ movhi
1032:..\..\..\lvgl\version_6.1.2\lvgl\src\lv_objx/lv_btnm.c ****     return ctrl_bits & LV_BTNM_CTRL_TGL_ENABLE ? true : false;
 4139              		.loc 2 1032 0
 4140 000a FB88     		ldrh	r3, [r7, #6]
 4141 000c 03F04003 		and	r3, r3, #64
 4142 0010 002B     		cmp	r3, #0
 4143 0012 14BF     		ite	ne
 4144 0014 0123     		movne	r3, #1
 4145 0016 0023     		moveq	r3, #0
 4146 0018 DBB2     		uxtb	r3, r3
1033:..\..\..\lvgl\version_6.1.2\lvgl\src\lv_objx/lv_btnm.c **** }
 4147              		.loc 2 1033 0
 4148 001a 1846     		mov	r0, r3
 4149 001c 0C37     		adds	r7, r7, #12
 4150              		.cfi_def_cfa_offset 4
 4151 001e BD46     		mov	sp, r7
 4152              		.cfi_def_cfa_register 13
 4153              		@ sp needed
 4154 0020 5DF8047B 		ldr	r7, [sp], #4
 4155              		.cfi_restore 7
 4156              		.cfi_def_cfa_offset 0
 4157 0024 7047     		bx	lr
 4158              		.cfi_endproc
 4159              	.LFE75:
 4160              		.size	button_is_tgl_enabled, .-button_is_tgl_enabled
 4161 0026 00BF     		.section	.text.button_get_tgl_state,"ax",%progbits
 4162              		.align	2
 4163              		.thumb
 4164              		.thumb_func
 4165              		.type	button_get_tgl_state, %function
 4166              	button_get_tgl_state:
 4167              	.LFB76:
1034:..\..\..\lvgl\version_6.1.2\lvgl\src\lv_objx/lv_btnm.c **** 
1035:..\..\..\lvgl\version_6.1.2\lvgl\src\lv_objx/lv_btnm.c **** static bool button_get_tgl_state(lv_btnm_ctrl_t ctrl_bits)
1036:..\..\..\lvgl\version_6.1.2\lvgl\src\lv_objx/lv_btnm.c **** {
 4168              		.loc 2 1036 0
 4169              		.cfi_startproc
 4170              		@ args = 0, pretend = 0, frame = 8
 4171              		@ frame_needed = 1, uses_anonymous_args = 0
 4172              		@ link register save eliminated.
 4173 0000 80B4     		push	{r7}
 4174              		.cfi_def_cfa_offset 4
 4175              		.cfi_offset 7, -4
ARM GAS  C:\Users\tmj32\AppData\Local\Temp\ccyJ4BPG.s 			page 95


 4176 0002 83B0     		sub	sp, sp, #12
 4177              		.cfi_def_cfa_offset 16
 4178 0004 00AF     		add	r7, sp, #0
 4179              		.cfi_def_cfa_register 7
 4180 0006 0346     		mov	r3, r0
 4181 0008 FB80     		strh	r3, [r7, #6]	@ movhi
1037:..\..\..\lvgl\version_6.1.2\lvgl\src\lv_objx/lv_btnm.c ****     return ctrl_bits & LV_BTNM_CTRL_TGL_STATE ? true : false;
 4182              		.loc 2 1037 0
 4183 000a FB88     		ldrh	r3, [r7, #6]
 4184 000c 03F08003 		and	r3, r3, #128
 4185 0010 002B     		cmp	r3, #0
 4186 0012 14BF     		ite	ne
 4187 0014 0123     		movne	r3, #1
 4188 0016 0023     		moveq	r3, #0
 4189 0018 DBB2     		uxtb	r3, r3
1038:..\..\..\lvgl\version_6.1.2\lvgl\src\lv_objx/lv_btnm.c **** }
 4190              		.loc 2 1038 0
 4191 001a 1846     		mov	r0, r3
 4192 001c 0C37     		adds	r7, r7, #12
 4193              		.cfi_def_cfa_offset 4
 4194 001e BD46     		mov	sp, r7
 4195              		.cfi_def_cfa_register 13
 4196              		@ sp needed
 4197 0020 5DF8047B 		ldr	r7, [sp], #4
 4198              		.cfi_restore 7
 4199              		.cfi_def_cfa_offset 0
 4200 0024 7047     		bx	lr
 4201              		.cfi_endproc
 4202              	.LFE76:
 4203              		.size	button_get_tgl_state, .-button_get_tgl_state
 4204 0026 00BF     		.section	.text.get_button_from_point,"ax",%progbits
 4205              		.align	2
 4206              		.thumb
 4207              		.thumb_func
 4208              		.type	get_button_from_point, %function
 4209              	get_button_from_point:
 4210              	.LFB77:
1039:..\..\..\lvgl\version_6.1.2\lvgl\src\lv_objx/lv_btnm.c **** 
1040:..\..\..\lvgl\version_6.1.2\lvgl\src\lv_objx/lv_btnm.c **** /**
1041:..\..\..\lvgl\version_6.1.2\lvgl\src\lv_objx/lv_btnm.c ****  * Gives the button id of a button under a given point
1042:..\..\..\lvgl\version_6.1.2\lvgl\src\lv_objx/lv_btnm.c ****  * @param btnm pointer to a button matrix object
1043:..\..\..\lvgl\version_6.1.2\lvgl\src\lv_objx/lv_btnm.c ****  * @param p a point with absolute coordinates
1044:..\..\..\lvgl\version_6.1.2\lvgl\src\lv_objx/lv_btnm.c ****  * @return the id of the button or LV_BTNM_BTN_NONE.
1045:..\..\..\lvgl\version_6.1.2\lvgl\src\lv_objx/lv_btnm.c ****  */
1046:..\..\..\lvgl\version_6.1.2\lvgl\src\lv_objx/lv_btnm.c **** static uint16_t get_button_from_point(lv_obj_t * btnm, lv_point_t * p)
1047:..\..\..\lvgl\version_6.1.2\lvgl\src\lv_objx/lv_btnm.c **** {
 4211              		.loc 2 1047 0
 4212              		.cfi_startproc
 4213              		@ args = 0, pretend = 0, frame = 32
 4214              		@ frame_needed = 1, uses_anonymous_args = 0
 4215 0000 80B5     		push	{r7, lr}
 4216              		.cfi_def_cfa_offset 8
 4217              		.cfi_offset 7, -8
 4218              		.cfi_offset 14, -4
 4219 0002 88B0     		sub	sp, sp, #32
 4220              		.cfi_def_cfa_offset 40
 4221 0004 00AF     		add	r7, sp, #0
ARM GAS  C:\Users\tmj32\AppData\Local\Temp\ccyJ4BPG.s 			page 96


 4222              		.cfi_def_cfa_register 7
 4223 0006 7860     		str	r0, [r7, #4]
 4224 0008 3960     		str	r1, [r7]
1048:..\..\..\lvgl\version_6.1.2\lvgl\src\lv_objx/lv_btnm.c ****     lv_area_t btnm_cords;
1049:..\..\..\lvgl\version_6.1.2\lvgl\src\lv_objx/lv_btnm.c ****     lv_area_t btn_area;
1050:..\..\..\lvgl\version_6.1.2\lvgl\src\lv_objx/lv_btnm.c ****     lv_btnm_ext_t * ext = lv_obj_get_ext_attr(btnm);
 4225              		.loc 2 1050 0
 4226 000a 7868     		ldr	r0, [r7, #4]
 4227 000c FFF7FEFF 		bl	lv_obj_get_ext_attr
 4228 0010 B861     		str	r0, [r7, #24]
1051:..\..\..\lvgl\version_6.1.2\lvgl\src\lv_objx/lv_btnm.c ****     uint16_t i;
1052:..\..\..\lvgl\version_6.1.2\lvgl\src\lv_objx/lv_btnm.c ****     lv_obj_get_coords(btnm, &btnm_cords);
 4229              		.loc 2 1052 0
 4230 0012 07F11003 		add	r3, r7, #16
 4231 0016 1946     		mov	r1, r3
 4232 0018 7868     		ldr	r0, [r7, #4]
 4233 001a FFF7FEFF 		bl	lv_obj_get_coords
1053:..\..\..\lvgl\version_6.1.2\lvgl\src\lv_objx/lv_btnm.c **** 
1054:..\..\..\lvgl\version_6.1.2\lvgl\src\lv_objx/lv_btnm.c ****     for(i = 0; i < ext->btn_cnt; i++) {
 4234              		.loc 2 1054 0
 4235 001e 0023     		movs	r3, #0
 4236 0020 FB83     		strh	r3, [r7, #30]	@ movhi
 4237 0022 3EE0     		b	.L222
 4238              	.L225:
1055:..\..\..\lvgl\version_6.1.2\lvgl\src\lv_objx/lv_btnm.c ****         lv_area_copy(&btn_area, &ext->button_areas[i]);
 4239              		.loc 2 1055 0
 4240 0024 BB69     		ldr	r3, [r7, #24]
 4241 0026 5A68     		ldr	r2, [r3, #4]
 4242 0028 FB8B     		ldrh	r3, [r7, #30]
 4243 002a DB00     		lsls	r3, r3, #3
 4244 002c 1A44     		add	r2, r2, r3
 4245 002e 07F10803 		add	r3, r7, #8
 4246 0032 1146     		mov	r1, r2
 4247 0034 1846     		mov	r0, r3
 4248 0036 FFF7FEFF 		bl	lv_area_copy
1056:..\..\..\lvgl\version_6.1.2\lvgl\src\lv_objx/lv_btnm.c ****         btn_area.x1 += btnm_cords.x1;
 4249              		.loc 2 1056 0
 4250 003a B7F90830 		ldrsh	r3, [r7, #8]
 4251 003e 9AB2     		uxth	r2, r3
 4252 0040 B7F91030 		ldrsh	r3, [r7, #16]
 4253 0044 9BB2     		uxth	r3, r3
 4254 0046 1344     		add	r3, r3, r2
 4255 0048 9BB2     		uxth	r3, r3
 4256 004a 1BB2     		sxth	r3, r3
 4257 004c 3B81     		strh	r3, [r7, #8]	@ movhi
1057:..\..\..\lvgl\version_6.1.2\lvgl\src\lv_objx/lv_btnm.c ****         btn_area.y1 += btnm_cords.y1;
 4258              		.loc 2 1057 0
 4259 004e B7F90A30 		ldrsh	r3, [r7, #10]
 4260 0052 9AB2     		uxth	r2, r3
 4261 0054 B7F91230 		ldrsh	r3, [r7, #18]
 4262 0058 9BB2     		uxth	r3, r3
 4263 005a 1344     		add	r3, r3, r2
 4264 005c 9BB2     		uxth	r3, r3
 4265 005e 1BB2     		sxth	r3, r3
 4266 0060 7B81     		strh	r3, [r7, #10]	@ movhi
1058:..\..\..\lvgl\version_6.1.2\lvgl\src\lv_objx/lv_btnm.c ****         btn_area.x2 += btnm_cords.x1;
 4267              		.loc 2 1058 0
ARM GAS  C:\Users\tmj32\AppData\Local\Temp\ccyJ4BPG.s 			page 97


 4268 0062 B7F90C30 		ldrsh	r3, [r7, #12]
 4269 0066 9AB2     		uxth	r2, r3
 4270 0068 B7F91030 		ldrsh	r3, [r7, #16]
 4271 006c 9BB2     		uxth	r3, r3
 4272 006e 1344     		add	r3, r3, r2
 4273 0070 9BB2     		uxth	r3, r3
 4274 0072 1BB2     		sxth	r3, r3
 4275 0074 BB81     		strh	r3, [r7, #12]	@ movhi
1059:..\..\..\lvgl\version_6.1.2\lvgl\src\lv_objx/lv_btnm.c ****         btn_area.y2 += btnm_cords.y1;
 4276              		.loc 2 1059 0
 4277 0076 B7F90E30 		ldrsh	r3, [r7, #14]
 4278 007a 9AB2     		uxth	r2, r3
 4279 007c B7F91230 		ldrsh	r3, [r7, #18]
 4280 0080 9BB2     		uxth	r3, r3
 4281 0082 1344     		add	r3, r3, r2
 4282 0084 9BB2     		uxth	r3, r3
 4283 0086 1BB2     		sxth	r3, r3
 4284 0088 FB81     		strh	r3, [r7, #14]	@ movhi
1060:..\..\..\lvgl\version_6.1.2\lvgl\src\lv_objx/lv_btnm.c ****         if(lv_area_is_point_on(&btn_area, p) != false) {
 4285              		.loc 2 1060 0
 4286 008a 07F10803 		add	r3, r7, #8
 4287 008e 3968     		ldr	r1, [r7]
 4288 0090 1846     		mov	r0, r3
 4289 0092 FFF7FEFF 		bl	lv_area_is_point_on
 4290 0096 0346     		mov	r3, r0
 4291 0098 002B     		cmp	r3, #0
 4292 009a 08D1     		bne	.L228
1054:..\..\..\lvgl\version_6.1.2\lvgl\src\lv_objx/lv_btnm.c ****         lv_area_copy(&btn_area, &ext->button_areas[i]);
 4293              		.loc 2 1054 0 discriminator 2
 4294 009c FB8B     		ldrh	r3, [r7, #30]
 4295 009e 0133     		adds	r3, r3, #1
 4296 00a0 FB83     		strh	r3, [r7, #30]	@ movhi
 4297              	.L222:
1054:..\..\..\lvgl\version_6.1.2\lvgl\src\lv_objx/lv_btnm.c ****         lv_area_copy(&btn_area, &ext->button_areas[i]);
 4298              		.loc 2 1054 0 is_stmt 0 discriminator 1
 4299 00a2 BB69     		ldr	r3, [r7, #24]
 4300 00a4 1B8C     		ldrh	r3, [r3, #32]
 4301 00a6 FA8B     		ldrh	r2, [r7, #30]
 4302 00a8 9A42     		cmp	r2, r3
 4303 00aa BBD3     		bcc	.L225
 4304 00ac 00E0     		b	.L224
 4305              	.L228:
1061:..\..\..\lvgl\version_6.1.2\lvgl\src\lv_objx/lv_btnm.c ****             break;
 4306              		.loc 2 1061 0 is_stmt 1
 4307 00ae 00BF     		nop
 4308              	.L224:
1062:..\..\..\lvgl\version_6.1.2\lvgl\src\lv_objx/lv_btnm.c ****         }
1063:..\..\..\lvgl\version_6.1.2\lvgl\src\lv_objx/lv_btnm.c ****     }
1064:..\..\..\lvgl\version_6.1.2\lvgl\src\lv_objx/lv_btnm.c **** 
1065:..\..\..\lvgl\version_6.1.2\lvgl\src\lv_objx/lv_btnm.c ****     if(i == ext->btn_cnt) i = LV_BTNM_BTN_NONE;
 4309              		.loc 2 1065 0
 4310 00b0 BB69     		ldr	r3, [r7, #24]
 4311 00b2 1B8C     		ldrh	r3, [r3, #32]
 4312 00b4 FA8B     		ldrh	r2, [r7, #30]
 4313 00b6 9A42     		cmp	r2, r3
 4314 00b8 02D1     		bne	.L226
 4315              		.loc 2 1065 0 is_stmt 0 discriminator 1
ARM GAS  C:\Users\tmj32\AppData\Local\Temp\ccyJ4BPG.s 			page 98


 4316 00ba 4FF6FF73 		movw	r3, #65535
 4317 00be FB83     		strh	r3, [r7, #30]	@ movhi
 4318              	.L226:
1066:..\..\..\lvgl\version_6.1.2\lvgl\src\lv_objx/lv_btnm.c **** 
1067:..\..\..\lvgl\version_6.1.2\lvgl\src\lv_objx/lv_btnm.c ****     return i;
 4319              		.loc 2 1067 0 is_stmt 1
 4320 00c0 FB8B     		ldrh	r3, [r7, #30]
1068:..\..\..\lvgl\version_6.1.2\lvgl\src\lv_objx/lv_btnm.c **** }
 4321              		.loc 2 1068 0
 4322 00c2 1846     		mov	r0, r3
 4323 00c4 2037     		adds	r7, r7, #32
 4324              		.cfi_def_cfa_offset 8
 4325 00c6 BD46     		mov	sp, r7
 4326              		.cfi_def_cfa_register 13
 4327              		@ sp needed
 4328 00c8 80BD     		pop	{r7, pc}
 4329              		.cfi_endproc
 4330              	.LFE77:
 4331              		.size	get_button_from_point, .-get_button_from_point
 4332 00ca 00BF     		.section	.text.invalidate_button_area,"ax",%progbits
 4333              		.align	2
 4334              		.thumb
 4335              		.thumb_func
 4336              		.type	invalidate_button_area, %function
 4337              	invalidate_button_area:
 4338              	.LFB78:
1069:..\..\..\lvgl\version_6.1.2\lvgl\src\lv_objx/lv_btnm.c **** 
1070:..\..\..\lvgl\version_6.1.2\lvgl\src\lv_objx/lv_btnm.c **** static void invalidate_button_area(const lv_obj_t * btnm, uint16_t btn_idx)
1071:..\..\..\lvgl\version_6.1.2\lvgl\src\lv_objx/lv_btnm.c **** {
 4339              		.loc 2 1071 0
 4340              		.cfi_startproc
 4341              		@ args = 0, pretend = 0, frame = 32
 4342              		@ frame_needed = 1, uses_anonymous_args = 0
 4343 0000 80B5     		push	{r7, lr}
 4344              		.cfi_def_cfa_offset 8
 4345              		.cfi_offset 7, -8
 4346              		.cfi_offset 14, -4
 4347 0002 88B0     		sub	sp, sp, #32
 4348              		.cfi_def_cfa_offset 40
 4349 0004 00AF     		add	r7, sp, #0
 4350              		.cfi_def_cfa_register 7
 4351 0006 7860     		str	r0, [r7, #4]
 4352 0008 0B46     		mov	r3, r1
 4353 000a 7B80     		strh	r3, [r7, #2]	@ movhi
1072:..\..\..\lvgl\version_6.1.2\lvgl\src\lv_objx/lv_btnm.c ****     if(btn_idx == LV_BTNM_BTN_NONE) return;
 4354              		.loc 2 1072 0
 4355 000c 7B88     		ldrh	r3, [r7, #2]
 4356 000e 4FF6FF72 		movw	r2, #65535
 4357 0012 9342     		cmp	r3, r2
 4358 0014 43D0     		beq	.L232
1073:..\..\..\lvgl\version_6.1.2\lvgl\src\lv_objx/lv_btnm.c **** 
1074:..\..\..\lvgl\version_6.1.2\lvgl\src\lv_objx/lv_btnm.c ****     lv_area_t btn_area;
1075:..\..\..\lvgl\version_6.1.2\lvgl\src\lv_objx/lv_btnm.c ****     lv_area_t btnm_area;
1076:..\..\..\lvgl\version_6.1.2\lvgl\src\lv_objx/lv_btnm.c **** 
1077:..\..\..\lvgl\version_6.1.2\lvgl\src\lv_objx/lv_btnm.c ****     lv_btnm_ext_t * ext = lv_obj_get_ext_attr(btnm);
 4359              		.loc 2 1077 0
 4360 0016 7868     		ldr	r0, [r7, #4]
ARM GAS  C:\Users\tmj32\AppData\Local\Temp\ccyJ4BPG.s 			page 99


 4361 0018 FFF7FEFF 		bl	lv_obj_get_ext_attr
 4362 001c F861     		str	r0, [r7, #28]
1078:..\..\..\lvgl\version_6.1.2\lvgl\src\lv_objx/lv_btnm.c ****     lv_area_copy(&btn_area, &ext->button_areas[btn_idx]);
 4363              		.loc 2 1078 0
 4364 001e FB69     		ldr	r3, [r7, #28]
 4365 0020 5A68     		ldr	r2, [r3, #4]
 4366 0022 7B88     		ldrh	r3, [r7, #2]
 4367 0024 DB00     		lsls	r3, r3, #3
 4368 0026 1A44     		add	r2, r2, r3
 4369 0028 07F11403 		add	r3, r7, #20
 4370 002c 1146     		mov	r1, r2
 4371 002e 1846     		mov	r0, r3
 4372 0030 FFF7FEFF 		bl	lv_area_copy
1079:..\..\..\lvgl\version_6.1.2\lvgl\src\lv_objx/lv_btnm.c ****     lv_obj_get_coords(btnm, &btnm_area);
 4373              		.loc 2 1079 0
 4374 0034 07F10C03 		add	r3, r7, #12
 4375 0038 1946     		mov	r1, r3
 4376 003a 7868     		ldr	r0, [r7, #4]
 4377 003c FFF7FEFF 		bl	lv_obj_get_coords
1080:..\..\..\lvgl\version_6.1.2\lvgl\src\lv_objx/lv_btnm.c **** 
1081:..\..\..\lvgl\version_6.1.2\lvgl\src\lv_objx/lv_btnm.c ****     /* Convert relative coordinates to absolute */
1082:..\..\..\lvgl\version_6.1.2\lvgl\src\lv_objx/lv_btnm.c ****     btn_area.x1 += btnm_area.x1;
 4378              		.loc 2 1082 0
 4379 0040 B7F91430 		ldrsh	r3, [r7, #20]
 4380 0044 9AB2     		uxth	r2, r3
 4381 0046 B7F90C30 		ldrsh	r3, [r7, #12]
 4382 004a 9BB2     		uxth	r3, r3
 4383 004c 1344     		add	r3, r3, r2
 4384 004e 9BB2     		uxth	r3, r3
 4385 0050 1BB2     		sxth	r3, r3
 4386 0052 BB82     		strh	r3, [r7, #20]	@ movhi
1083:..\..\..\lvgl\version_6.1.2\lvgl\src\lv_objx/lv_btnm.c ****     btn_area.y1 += btnm_area.y1;
 4387              		.loc 2 1083 0
 4388 0054 B7F91630 		ldrsh	r3, [r7, #22]
 4389 0058 9AB2     		uxth	r2, r3
 4390 005a B7F90E30 		ldrsh	r3, [r7, #14]
 4391 005e 9BB2     		uxth	r3, r3
 4392 0060 1344     		add	r3, r3, r2
 4393 0062 9BB2     		uxth	r3, r3
 4394 0064 1BB2     		sxth	r3, r3
 4395 0066 FB82     		strh	r3, [r7, #22]	@ movhi
1084:..\..\..\lvgl\version_6.1.2\lvgl\src\lv_objx/lv_btnm.c ****     btn_area.x2 += btnm_area.x1;
 4396              		.loc 2 1084 0
 4397 0068 B7F91830 		ldrsh	r3, [r7, #24]
 4398 006c 9AB2     		uxth	r2, r3
 4399 006e B7F90C30 		ldrsh	r3, [r7, #12]
 4400 0072 9BB2     		uxth	r3, r3
 4401 0074 1344     		add	r3, r3, r2
 4402 0076 9BB2     		uxth	r3, r3
 4403 0078 1BB2     		sxth	r3, r3
 4404 007a 3B83     		strh	r3, [r7, #24]	@ movhi
1085:..\..\..\lvgl\version_6.1.2\lvgl\src\lv_objx/lv_btnm.c ****     btn_area.y2 += btnm_area.y1;
 4405              		.loc 2 1085 0
 4406 007c B7F91A30 		ldrsh	r3, [r7, #26]
 4407 0080 9AB2     		uxth	r2, r3
 4408 0082 B7F90E30 		ldrsh	r3, [r7, #14]
 4409 0086 9BB2     		uxth	r3, r3
ARM GAS  C:\Users\tmj32\AppData\Local\Temp\ccyJ4BPG.s 			page 100


 4410 0088 1344     		add	r3, r3, r2
 4411 008a 9BB2     		uxth	r3, r3
 4412 008c 1BB2     		sxth	r3, r3
 4413 008e 7B83     		strh	r3, [r7, #26]	@ movhi
1086:..\..\..\lvgl\version_6.1.2\lvgl\src\lv_objx/lv_btnm.c **** 
1087:..\..\..\lvgl\version_6.1.2\lvgl\src\lv_objx/lv_btnm.c ****     lv_obj_invalidate_area(btnm, &btn_area);
 4414              		.loc 2 1087 0
 4415 0090 07F11403 		add	r3, r7, #20
 4416 0094 1946     		mov	r1, r3
 4417 0096 7868     		ldr	r0, [r7, #4]
 4418 0098 FFF7FEFF 		bl	lv_obj_invalidate_area
 4419 009c 00E0     		b	.L229
 4420              	.L232:
1072:..\..\..\lvgl\version_6.1.2\lvgl\src\lv_objx/lv_btnm.c **** 
 4421              		.loc 2 1072 0
 4422 009e 00BF     		nop
 4423              	.L229:
1088:..\..\..\lvgl\version_6.1.2\lvgl\src\lv_objx/lv_btnm.c **** }
 4424              		.loc 2 1088 0
 4425 00a0 2037     		adds	r7, r7, #32
 4426              		.cfi_def_cfa_offset 8
 4427 00a2 BD46     		mov	sp, r7
 4428              		.cfi_def_cfa_register 13
 4429              		@ sp needed
 4430 00a4 80BD     		pop	{r7, pc}
 4431              		.cfi_endproc
 4432              	.LFE78:
 4433              		.size	invalidate_button_area, .-invalidate_button_area
 4434 00a6 00BF     		.section	.text.maps_are_identical,"ax",%progbits
 4435              		.align	2
 4436              		.thumb
 4437              		.thumb_func
 4438              		.type	maps_are_identical, %function
 4439              	maps_are_identical:
 4440              	.LFB79:
1089:..\..\..\lvgl\version_6.1.2\lvgl\src\lv_objx/lv_btnm.c **** 
1090:..\..\..\lvgl\version_6.1.2\lvgl\src\lv_objx/lv_btnm.c **** /**
1091:..\..\..\lvgl\version_6.1.2\lvgl\src\lv_objx/lv_btnm.c ****  * Compares two button matrix maps for equality
1092:..\..\..\lvgl\version_6.1.2\lvgl\src\lv_objx/lv_btnm.c ****  * @param map1 map to compare
1093:..\..\..\lvgl\version_6.1.2\lvgl\src\lv_objx/lv_btnm.c ****  * @param map2 map to compare
1094:..\..\..\lvgl\version_6.1.2\lvgl\src\lv_objx/lv_btnm.c ****  * @return true if maps are identical in length and content
1095:..\..\..\lvgl\version_6.1.2\lvgl\src\lv_objx/lv_btnm.c ****  */
1096:..\..\..\lvgl\version_6.1.2\lvgl\src\lv_objx/lv_btnm.c **** static bool maps_are_identical(const char ** map1, const char ** map2)
1097:..\..\..\lvgl\version_6.1.2\lvgl\src\lv_objx/lv_btnm.c **** {
 4441              		.loc 2 1097 0
 4442              		.cfi_startproc
 4443              		@ args = 0, pretend = 0, frame = 16
 4444              		@ frame_needed = 1, uses_anonymous_args = 0
 4445 0000 80B5     		push	{r7, lr}
 4446              		.cfi_def_cfa_offset 8
 4447              		.cfi_offset 7, -8
 4448              		.cfi_offset 14, -4
 4449 0002 84B0     		sub	sp, sp, #16
 4450              		.cfi_def_cfa_offset 24
 4451 0004 00AF     		add	r7, sp, #0
 4452              		.cfi_def_cfa_register 7
 4453 0006 7860     		str	r0, [r7, #4]
ARM GAS  C:\Users\tmj32\AppData\Local\Temp\ccyJ4BPG.s 			page 101


 4454 0008 3960     		str	r1, [r7]
1098:..\..\..\lvgl\version_6.1.2\lvgl\src\lv_objx/lv_btnm.c ****     if(map1 == map2) return true;
 4455              		.loc 2 1098 0
 4456 000a 7A68     		ldr	r2, [r7, #4]
 4457 000c 3B68     		ldr	r3, [r7]
 4458 000e 9A42     		cmp	r2, r3
 4459 0010 01D1     		bne	.L234
 4460              		.loc 2 1098 0 is_stmt 0 discriminator 1
 4461 0012 0123     		movs	r3, #1
 4462 0014 4BE0     		b	.L235
 4463              	.L234:
1099:..\..\..\lvgl\version_6.1.2\lvgl\src\lv_objx/lv_btnm.c ****     if(map1 == NULL || map2 == NULL) return map1 == map2;
 4464              		.loc 2 1099 0 is_stmt 1
 4465 0016 7B68     		ldr	r3, [r7, #4]
 4466 0018 002B     		cmp	r3, #0
 4467 001a 02D0     		beq	.L236
 4468              		.loc 2 1099 0 is_stmt 0 discriminator 2
 4469 001c 3B68     		ldr	r3, [r7]
 4470 001e 002B     		cmp	r3, #0
 4471 0020 07D1     		bne	.L237
 4472              	.L236:
 4473              		.loc 2 1099 0 discriminator 3
 4474 0022 7A68     		ldr	r2, [r7, #4]
 4475 0024 3B68     		ldr	r3, [r7]
 4476 0026 9A42     		cmp	r2, r3
 4477 0028 0CBF     		ite	eq
 4478 002a 0123     		moveq	r3, #1
 4479 002c 0023     		movne	r3, #0
 4480 002e DBB2     		uxtb	r3, r3
 4481 0030 3DE0     		b	.L235
 4482              	.L237:
1100:..\..\..\lvgl\version_6.1.2\lvgl\src\lv_objx/lv_btnm.c **** 
1101:..\..\..\lvgl\version_6.1.2\lvgl\src\lv_objx/lv_btnm.c ****     uint16_t i = 0;
 4483              		.loc 2 1101 0 is_stmt 1
 4484 0032 0023     		movs	r3, #0
 4485 0034 FB81     		strh	r3, [r7, #14]	@ movhi
1102:..\..\..\lvgl\version_6.1.2\lvgl\src\lv_objx/lv_btnm.c ****     while(map1[i][0] != '\0' && map2[i][0] != '\0') {
 4486              		.loc 2 1102 0
 4487 0036 14E0     		b	.L238
 4488              	.L241:
1103:..\..\..\lvgl\version_6.1.2\lvgl\src\lv_objx/lv_btnm.c ****         if(strcmp(map1[i], map2[i]) != 0) return false;
 4489              		.loc 2 1103 0
 4490 0038 FB89     		ldrh	r3, [r7, #14]
 4491 003a 9B00     		lsls	r3, r3, #2
 4492 003c 7A68     		ldr	r2, [r7, #4]
 4493 003e 1344     		add	r3, r3, r2
 4494 0040 1868     		ldr	r0, [r3]
 4495 0042 FB89     		ldrh	r3, [r7, #14]
 4496 0044 9B00     		lsls	r3, r3, #2
 4497 0046 3A68     		ldr	r2, [r7]
 4498 0048 1344     		add	r3, r3, r2
 4499 004a 1B68     		ldr	r3, [r3]
 4500 004c 1946     		mov	r1, r3
 4501 004e FFF7FEFF 		bl	strcmp
 4502 0052 0346     		mov	r3, r0
 4503 0054 002B     		cmp	r3, #0
 4504 0056 01D0     		beq	.L239
ARM GAS  C:\Users\tmj32\AppData\Local\Temp\ccyJ4BPG.s 			page 102


 4505              		.loc 2 1103 0 is_stmt 0 discriminator 1
 4506 0058 0023     		movs	r3, #0
 4507 005a 28E0     		b	.L235
 4508              	.L239:
1104:..\..\..\lvgl\version_6.1.2\lvgl\src\lv_objx/lv_btnm.c ****         i++;
 4509              		.loc 2 1104 0 is_stmt 1
 4510 005c FB89     		ldrh	r3, [r7, #14]
 4511 005e 0133     		adds	r3, r3, #1
 4512 0060 FB81     		strh	r3, [r7, #14]	@ movhi
 4513              	.L238:
1102:..\..\..\lvgl\version_6.1.2\lvgl\src\lv_objx/lv_btnm.c ****     while(map1[i][0] != '\0' && map2[i][0] != '\0') {
 4514              		.loc 2 1102 0
 4515 0062 FB89     		ldrh	r3, [r7, #14]
 4516 0064 9B00     		lsls	r3, r3, #2
 4517 0066 7A68     		ldr	r2, [r7, #4]
 4518 0068 1344     		add	r3, r3, r2
 4519 006a 1B68     		ldr	r3, [r3]
 4520 006c 1B78     		ldrb	r3, [r3]	@ zero_extendqisi2
 4521 006e 002B     		cmp	r3, #0
 4522 0070 07D0     		beq	.L240
1102:..\..\..\lvgl\version_6.1.2\lvgl\src\lv_objx/lv_btnm.c ****     while(map1[i][0] != '\0' && map2[i][0] != '\0') {
 4523              		.loc 2 1102 0 is_stmt 0 discriminator 1
 4524 0072 FB89     		ldrh	r3, [r7, #14]
 4525 0074 9B00     		lsls	r3, r3, #2
 4526 0076 3A68     		ldr	r2, [r7]
 4527 0078 1344     		add	r3, r3, r2
 4528 007a 1B68     		ldr	r3, [r3]
 4529 007c 1B78     		ldrb	r3, [r3]	@ zero_extendqisi2
 4530 007e 002B     		cmp	r3, #0
 4531 0080 DAD1     		bne	.L241
 4532              	.L240:
1105:..\..\..\lvgl\version_6.1.2\lvgl\src\lv_objx/lv_btnm.c ****     }
1106:..\..\..\lvgl\version_6.1.2\lvgl\src\lv_objx/lv_btnm.c ****     return map1[i][0] == '\0' && map2[i][0] == '\0';
 4533              		.loc 2 1106 0 is_stmt 1
 4534 0082 FB89     		ldrh	r3, [r7, #14]
 4535 0084 9B00     		lsls	r3, r3, #2
 4536 0086 7A68     		ldr	r2, [r7, #4]
 4537 0088 1344     		add	r3, r3, r2
 4538 008a 1B68     		ldr	r3, [r3]
 4539 008c 1B78     		ldrb	r3, [r3]	@ zero_extendqisi2
 4540 008e 002B     		cmp	r3, #0
 4541 0090 09D1     		bne	.L242
 4542              		.loc 2 1106 0 is_stmt 0 discriminator 1
 4543 0092 FB89     		ldrh	r3, [r7, #14]
 4544 0094 9B00     		lsls	r3, r3, #2
 4545 0096 3A68     		ldr	r2, [r7]
 4546 0098 1344     		add	r3, r3, r2
 4547 009a 1B68     		ldr	r3, [r3]
 4548 009c 1B78     		ldrb	r3, [r3]	@ zero_extendqisi2
 4549 009e 002B     		cmp	r3, #0
 4550 00a0 01D1     		bne	.L242
 4551              		.loc 2 1106 0 discriminator 3
 4552 00a2 0123     		movs	r3, #1
 4553 00a4 00E0     		b	.L243
 4554              	.L242:
 4555              		.loc 2 1106 0 discriminator 4
 4556 00a6 0023     		movs	r3, #0
ARM GAS  C:\Users\tmj32\AppData\Local\Temp\ccyJ4BPG.s 			page 103


 4557              	.L243:
 4558              		.loc 2 1106 0 discriminator 6
 4559 00a8 03F00103 		and	r3, r3, #1
 4560 00ac DBB2     		uxtb	r3, r3
 4561              	.L235:
1107:..\..\..\lvgl\version_6.1.2\lvgl\src\lv_objx/lv_btnm.c **** }
 4562              		.loc 2 1107 0 is_stmt 1
 4563 00ae 1846     		mov	r0, r3
 4564 00b0 1037     		adds	r7, r7, #16
 4565              		.cfi_def_cfa_offset 8
 4566 00b2 BD46     		mov	sp, r7
 4567              		.cfi_def_cfa_register 13
 4568              		@ sp needed
 4569 00b4 80BD     		pop	{r7, pc}
 4570              		.cfi_endproc
 4571              	.LFE79:
 4572              		.size	maps_are_identical, .-maps_are_identical
 4573 00b6 00BF     		.section	.text.make_one_button_toggled,"ax",%progbits
 4574              		.align	2
 4575              		.thumb
 4576              		.thumb_func
 4577              		.type	make_one_button_toggled, %function
 4578              	make_one_button_toggled:
 4579              	.LFB80:
1108:..\..\..\lvgl\version_6.1.2\lvgl\src\lv_objx/lv_btnm.c **** 
1109:..\..\..\lvgl\version_6.1.2\lvgl\src\lv_objx/lv_btnm.c **** /**
1110:..\..\..\lvgl\version_6.1.2\lvgl\src\lv_objx/lv_btnm.c ****  * Enforces a single button being toggled on the button matrix.
1111:..\..\..\lvgl\version_6.1.2\lvgl\src\lv_objx/lv_btnm.c ****  * It simply clears the toggle flag on other buttons.
1112:..\..\..\lvgl\version_6.1.2\lvgl\src\lv_objx/lv_btnm.c ****  * @param btnm Button matrix object
1113:..\..\..\lvgl\version_6.1.2\lvgl\src\lv_objx/lv_btnm.c ****  * @param btn_idx Button that should remain toggled
1114:..\..\..\lvgl\version_6.1.2\lvgl\src\lv_objx/lv_btnm.c ****  */
1115:..\..\..\lvgl\version_6.1.2\lvgl\src\lv_objx/lv_btnm.c **** static void make_one_button_toggled(lv_obj_t * btnm, uint16_t btn_idx)
1116:..\..\..\lvgl\version_6.1.2\lvgl\src\lv_objx/lv_btnm.c **** {
 4580              		.loc 2 1116 0
 4581              		.cfi_startproc
 4582              		@ args = 0, pretend = 0, frame = 16
 4583              		@ frame_needed = 1, uses_anonymous_args = 0
 4584 0000 80B5     		push	{r7, lr}
 4585              		.cfi_def_cfa_offset 8
 4586              		.cfi_offset 7, -8
 4587              		.cfi_offset 14, -4
 4588 0002 84B0     		sub	sp, sp, #16
 4589              		.cfi_def_cfa_offset 24
 4590 0004 00AF     		add	r7, sp, #0
 4591              		.cfi_def_cfa_register 7
 4592 0006 7860     		str	r0, [r7, #4]
 4593 0008 0B46     		mov	r3, r1
 4594 000a 7B80     		strh	r3, [r7, #2]	@ movhi
1117:..\..\..\lvgl\version_6.1.2\lvgl\src\lv_objx/lv_btnm.c ****     /*Save whether the button was toggled*/
1118:..\..\..\lvgl\version_6.1.2\lvgl\src\lv_objx/lv_btnm.c ****     bool was_toggled = lv_btnm_get_btn_ctrl(btnm, btn_idx, LV_BTNM_CTRL_TGL_STATE);
 4595              		.loc 2 1118 0
 4596 000c 7B88     		ldrh	r3, [r7, #2]
 4597 000e 8022     		movs	r2, #128
 4598 0010 1946     		mov	r1, r3
 4599 0012 7868     		ldr	r0, [r7, #4]
 4600 0014 FFF7FEFF 		bl	lv_btnm_get_btn_ctrl
 4601 0018 0346     		mov	r3, r0
ARM GAS  C:\Users\tmj32\AppData\Local\Temp\ccyJ4BPG.s 			page 104


 4602 001a FB73     		strb	r3, [r7, #15]
1119:..\..\..\lvgl\version_6.1.2\lvgl\src\lv_objx/lv_btnm.c **** 
1120:..\..\..\lvgl\version_6.1.2\lvgl\src\lv_objx/lv_btnm.c ****     lv_btnm_clear_btn_ctrl_all(btnm, LV_BTNM_CTRL_TGL_STATE);
 4603              		.loc 2 1120 0
 4604 001c 8021     		movs	r1, #128
 4605 001e 7868     		ldr	r0, [r7, #4]
 4606 0020 FFF7FEFF 		bl	lv_btnm_clear_btn_ctrl_all
1121:..\..\..\lvgl\version_6.1.2\lvgl\src\lv_objx/lv_btnm.c **** 
1122:..\..\..\lvgl\version_6.1.2\lvgl\src\lv_objx/lv_btnm.c ****     if(was_toggled) lv_btnm_set_btn_ctrl(btnm, btn_idx, LV_BTNM_CTRL_TGL_STATE);
 4607              		.loc 2 1122 0
 4608 0024 FB7B     		ldrb	r3, [r7, #15]	@ zero_extendqisi2
 4609 0026 002B     		cmp	r3, #0
 4610 0028 05D0     		beq	.L246
 4611              		.loc 2 1122 0 is_stmt 0 discriminator 1
 4612 002a 7B88     		ldrh	r3, [r7, #2]
 4613 002c 8022     		movs	r2, #128
 4614 002e 1946     		mov	r1, r3
 4615 0030 7868     		ldr	r0, [r7, #4]
 4616 0032 FFF7FEFF 		bl	lv_btnm_set_btn_ctrl
 4617              	.L246:
1123:..\..\..\lvgl\version_6.1.2\lvgl\src\lv_objx/lv_btnm.c **** }
 4618              		.loc 2 1123 0 is_stmt 1
 4619 0036 00BF     		nop
 4620 0038 1037     		adds	r7, r7, #16
 4621              		.cfi_def_cfa_offset 8
 4622 003a BD46     		mov	sp, r7
 4623              		.cfi_def_cfa_register 13
 4624              		@ sp needed
 4625 003c 80BD     		pop	{r7, pc}
 4626              		.cfi_endproc
 4627              	.LFE80:
 4628              		.size	make_one_button_toggled, .-make_one_button_toggled
 4629 003e 00BF     		.text
 4630              	.Letext0:
 4631              		.file 3 "c:\\program files (x86)\\cypress\\psoc creator\\4.3\\psoc creator\\import\\gnu\\arm\\5.4.
 4632              		.file 4 "c:\\program files (x86)\\cypress\\psoc creator\\4.3\\psoc creator\\import\\gnu\\arm\\5.4.
 4633              		.file 5 "..\\..\\..\\lvgl\\version_6.1.2\\lvgl\\src\\lv_objx\\../../../lv_conf.h"
 4634              		.file 6 "..\\..\\..\\lvgl\\version_6.1.2\\lvgl\\src\\lv_objx\\../lv_core/../lv_font/lv_font.h"
 4635              		.file 7 "..\\..\\..\\lvgl\\version_6.1.2\\lvgl\\src\\lv_objx\\../lv_core/../lv_misc/lv_color.h"
 4636              		.file 8 "..\\..\\..\\lvgl\\version_6.1.2\\lvgl\\src\\lv_objx\\../lv_core/lv_style.h"
 4637              		.file 9 "..\\..\\..\\lvgl\\version_6.1.2\\lvgl\\src\\lv_objx\\../lv_core/../lv_misc/lv_types.h"
 4638              		.file 10 "..\\..\\..\\lvgl\\version_6.1.2\\lvgl\\src\\lv_objx\\../lv_core/../lv_misc/lv_ll.h"
 4639              		.file 11 "..\\..\\..\\lvgl\\version_6.1.2\\lvgl\\src\\lv_objx\\../lv_core/../lv_misc/lv_bidi.h"
 4640              		.file 12 "..\\..\\..\\lvgl\\version_6.1.2\\lvgl\\src\\lv_objx\\../lv_core/../lv_hal/../lv_misc/lv_
 4641              		.file 13 "..\\..\\..\\lvgl\\version_6.1.2\\lvgl\\src\\lv_objx\\../lv_core/../lv_hal/lv_hal_disp.h"
 4642              		.file 14 "..\\..\\..\\lvgl\\version_6.1.2\\lvgl\\src\\lv_objx\\../lv_core/lv_obj.h"
 4643              		.file 15 "..\\..\\..\\lvgl\\version_6.1.2\\lvgl\\src\\lv_objx\\../lv_core/../lv_hal/lv_hal_indev.h
 4644              		.file 16 "..\\..\\..\\lvgl\\version_6.1.2\\lvgl\\src\\lv_objx\\../lv_misc/lv_txt.h"
 4645              		.file 17 "..\\..\\..\\lvgl\\version_6.1.2\\lvgl\\src\\lv_objx\\../lv_core/../lv_core/lv_group.h"
 4646              		.file 18 "..\\..\\..\\lvgl\\version_6.1.2\\lvgl\\src\\lv_objx\\lv_btn.h"
 4647              		.file 19 "..\\..\\..\\lvgl\\version_6.1.2\\lvgl\\src\\lv_objx\\lv_btnm.h"
 4648              		.file 20 "..\\..\\..\\lvgl\\version_6.1.2\\lvgl\\src\\lv_objx\\../lv_themes/lv_theme.h"
 4649              		.section	.debug_info,"",%progbits
 4650              	.Ldebug_info0:
 4651 0000 B7270000 		.4byte	0x27b7
 4652 0004 0400     		.2byte	0x4
 4653 0006 00000000 		.4byte	.Ldebug_abbrev0
ARM GAS  C:\Users\tmj32\AppData\Local\Temp\ccyJ4BPG.s 			page 105


 4654 000a 04       		.byte	0x4
 4655 000b 01       		.uleb128 0x1
 4656 000c 64110000 		.4byte	.LASF452
 4657 0010 0C       		.byte	0xc
 4658 0011 9B090000 		.4byte	.LASF453
 4659 0015 6B0A0000 		.4byte	.LASF454
 4660 0019 18000000 		.4byte	.Ldebug_ranges0+0x18
 4661 001d 00000000 		.4byte	0
 4662 0021 00000000 		.4byte	.Ldebug_line0
 4663 0025 02       		.uleb128 0x2
 4664 0026 B70F0000 		.4byte	.LASF0
 4665 002a 03       		.byte	0x3
 4666 002b 1B       		.byte	0x1b
 4667 002c 30000000 		.4byte	0x30
 4668 0030 03       		.uleb128 0x3
 4669 0031 01       		.byte	0x1
 4670 0032 06       		.byte	0x6
 4671 0033 EE030000 		.4byte	.LASF2
 4672 0037 02       		.uleb128 0x2
 4673 0038 5D020000 		.4byte	.LASF1
 4674 003c 03       		.byte	0x3
 4675 003d 1D       		.byte	0x1d
 4676 003e 42000000 		.4byte	0x42
 4677 0042 03       		.uleb128 0x3
 4678 0043 01       		.byte	0x1
 4679 0044 08       		.byte	0x8
 4680 0045 9B040000 		.4byte	.LASF3
 4681 0049 02       		.uleb128 0x2
 4682 004a 41120000 		.4byte	.LASF4
 4683 004e 03       		.byte	0x3
 4684 004f 29       		.byte	0x29
 4685 0050 54000000 		.4byte	0x54
 4686 0054 03       		.uleb128 0x3
 4687 0055 02       		.byte	0x2
 4688 0056 05       		.byte	0x5
 4689 0057 5E130000 		.4byte	.LASF5
 4690 005b 02       		.uleb128 0x2
 4691 005c A4050000 		.4byte	.LASF6
 4692 0060 03       		.byte	0x3
 4693 0061 2B       		.byte	0x2b
 4694 0062 66000000 		.4byte	0x66
 4695 0066 03       		.uleb128 0x3
 4696 0067 02       		.byte	0x2
 4697 0068 07       		.byte	0x7
 4698 0069 AB150000 		.4byte	.LASF7
 4699 006d 03       		.uleb128 0x3
 4700 006e 04       		.byte	0x4
 4701 006f 05       		.byte	0x5
 4702 0070 EF020000 		.4byte	.LASF8
 4703 0074 02       		.uleb128 0x2
 4704 0075 3B0A0000 		.4byte	.LASF9
 4705 0079 03       		.byte	0x3
 4706 007a 41       		.byte	0x41
 4707 007b 7F000000 		.4byte	0x7f
 4708 007f 03       		.uleb128 0x3
 4709 0080 04       		.byte	0x4
 4710 0081 07       		.byte	0x7
ARM GAS  C:\Users\tmj32\AppData\Local\Temp\ccyJ4BPG.s 			page 106


 4711 0082 8B080000 		.4byte	.LASF10
 4712 0086 03       		.uleb128 0x3
 4713 0087 08       		.byte	0x8
 4714 0088 05       		.byte	0x5
 4715 0089 5D0A0000 		.4byte	.LASF11
 4716 008d 03       		.uleb128 0x3
 4717 008e 08       		.byte	0x8
 4718 008f 07       		.byte	0x7
 4719 0090 02100000 		.4byte	.LASF12
 4720 0094 04       		.uleb128 0x4
 4721 0095 04       		.byte	0x4
 4722 0096 05       		.byte	0x5
 4723 0097 696E7400 		.ascii	"int\000"
 4724 009b 03       		.uleb128 0x3
 4725 009c 04       		.byte	0x4
 4726 009d 07       		.byte	0x7
 4727 009e 460C0000 		.4byte	.LASF13
 4728 00a2 02       		.uleb128 0x2
 4729 00a3 00000000 		.4byte	.LASF14
 4730 00a7 04       		.byte	0x4
 4731 00a8 14       		.byte	0x14
 4732 00a9 25000000 		.4byte	0x25
 4733 00ad 02       		.uleb128 0x2
 4734 00ae 14040000 		.4byte	.LASF15
 4735 00b2 04       		.byte	0x4
 4736 00b3 18       		.byte	0x18
 4737 00b4 37000000 		.4byte	0x37
 4738 00b8 02       		.uleb128 0x2
 4739 00b9 9B130000 		.4byte	.LASF16
 4740 00bd 04       		.byte	0x4
 4741 00be 20       		.byte	0x20
 4742 00bf 49000000 		.4byte	0x49
 4743 00c3 02       		.uleb128 0x2
 4744 00c4 41100000 		.4byte	.LASF17
 4745 00c8 04       		.byte	0x4
 4746 00c9 24       		.byte	0x24
 4747 00ca 5B000000 		.4byte	0x5b
 4748 00ce 02       		.uleb128 0x2
 4749 00cf 3F150000 		.4byte	.LASF18
 4750 00d3 04       		.byte	0x4
 4751 00d4 30       		.byte	0x30
 4752 00d5 74000000 		.4byte	0x74
 4753 00d9 02       		.uleb128 0x2
 4754 00da EE150000 		.4byte	.LASF19
 4755 00de 05       		.byte	0x5
 4756 00df 3C       		.byte	0x3c
 4757 00e0 B8000000 		.4byte	0xb8
 4758 00e4 05       		.uleb128 0x5
 4759 00e5 04       		.byte	0x4
 4760 00e6 03       		.uleb128 0x3
 4761 00e7 08       		.byte	0x8
 4762 00e8 04       		.byte	0x4
 4763 00e9 840E0000 		.4byte	.LASF20
 4764 00ed 06       		.uleb128 0x6
 4765 00ee 08       		.byte	0x8
 4766 00ef 06       		.byte	0x6
 4767 00f0 2E       		.byte	0x2e
ARM GAS  C:\Users\tmj32\AppData\Local\Temp\ccyJ4BPG.s 			page 107


 4768 00f1 3E010000 		.4byte	0x13e
 4769 00f5 07       		.uleb128 0x7
 4770 00f6 39000000 		.4byte	.LASF21
 4771 00fa 06       		.byte	0x6
 4772 00fb 30       		.byte	0x30
 4773 00fc C3000000 		.4byte	0xc3
 4774 0100 00       		.byte	0
 4775 0101 07       		.uleb128 0x7
 4776 0102 58130000 		.4byte	.LASF22
 4777 0106 06       		.byte	0x6
 4778 0107 31       		.byte	0x31
 4779 0108 AD000000 		.4byte	0xad
 4780 010c 02       		.byte	0x2
 4781 010d 07       		.uleb128 0x7
 4782 010e 41130000 		.4byte	.LASF23
 4783 0112 06       		.byte	0x6
 4784 0113 32       		.byte	0x32
 4785 0114 AD000000 		.4byte	0xad
 4786 0118 03       		.byte	0x3
 4787 0119 07       		.uleb128 0x7
 4788 011a ED040000 		.4byte	.LASF24
 4789 011e 06       		.byte	0x6
 4790 011f 33       		.byte	0x33
 4791 0120 A2000000 		.4byte	0xa2
 4792 0124 04       		.byte	0x4
 4793 0125 07       		.uleb128 0x7
 4794 0126 F3040000 		.4byte	.LASF25
 4795 012a 06       		.byte	0x6
 4796 012b 34       		.byte	0x34
 4797 012c A2000000 		.4byte	0xa2
 4798 0130 05       		.byte	0x5
 4799 0131 08       		.uleb128 0x8
 4800 0132 62707000 		.ascii	"bpp\000"
 4801 0136 06       		.byte	0x6
 4802 0137 35       		.byte	0x35
 4803 0138 AD000000 		.4byte	0xad
 4804 013c 06       		.byte	0x6
 4805 013d 00       		.byte	0
 4806 013e 02       		.uleb128 0x2
 4807 013f 6C0D0000 		.4byte	.LASF26
 4808 0143 06       		.byte	0x6
 4809 0144 36       		.byte	0x36
 4810 0145 ED000000 		.4byte	0xed
 4811 0149 09       		.uleb128 0x9
 4812 014a CB160000 		.4byte	.LASF96
 4813 014e 10       		.byte	0x10
 4814 014f 06       		.byte	0x6
 4815 0150 44       		.byte	0x44
 4816 0151 A1010000 		.4byte	0x1a1
 4817 0155 07       		.uleb128 0x7
 4818 0156 40160000 		.4byte	.LASF27
 4819 015a 06       		.byte	0x6
 4820 015b 47       		.byte	0x47
 4821 015c D7010000 		.4byte	0x1d7
 4822 0160 00       		.byte	0
 4823 0161 07       		.uleb128 0x7
 4824 0162 4F040000 		.4byte	.LASF28
ARM GAS  C:\Users\tmj32\AppData\Local\Temp\ccyJ4BPG.s 			page 108


 4825 0166 06       		.byte	0x6
 4826 0167 4A       		.byte	0x4a
 4827 0168 FC010000 		.4byte	0x1fc
 4828 016c 04       		.byte	0x4
 4829 016d 07       		.uleb128 0x7
 4830 016e 2B010000 		.4byte	.LASF29
 4831 0172 06       		.byte	0x6
 4832 0173 4D       		.byte	0x4d
 4833 0174 AD000000 		.4byte	0xad
 4834 0178 08       		.byte	0x8
 4835 0179 07       		.uleb128 0x7
 4836 017a 77130000 		.4byte	.LASF30
 4837 017e 06       		.byte	0x6
 4838 017f 4E       		.byte	0x4e
 4839 0180 A2000000 		.4byte	0xa2
 4840 0184 09       		.byte	0x9
 4841 0185 0A       		.uleb128 0xa
 4842 0186 F80E0000 		.4byte	.LASF72
 4843 018a 06       		.byte	0x6
 4844 018b 4F       		.byte	0x4f
 4845 018c AD000000 		.4byte	0xad
 4846 0190 01       		.byte	0x1
 4847 0191 02       		.byte	0x2
 4848 0192 06       		.byte	0x6
 4849 0193 0A       		.byte	0xa
 4850 0194 08       		.uleb128 0x8
 4851 0195 64736300 		.ascii	"dsc\000"
 4852 0199 06       		.byte	0x6
 4853 019a 50       		.byte	0x50
 4854 019b E4000000 		.4byte	0xe4
 4855 019f 0C       		.byte	0xc
 4856 01a0 00       		.byte	0
 4857 01a1 0B       		.uleb128 0xb
 4858 01a2 BF010000 		.4byte	0x1bf
 4859 01a6 BF010000 		.4byte	0x1bf
 4860 01aa 0C       		.uleb128 0xc
 4861 01ab C6010000 		.4byte	0x1c6
 4862 01af 0C       		.uleb128 0xc
 4863 01b0 D1010000 		.4byte	0x1d1
 4864 01b4 0C       		.uleb128 0xc
 4865 01b5 CE000000 		.4byte	0xce
 4866 01b9 0C       		.uleb128 0xc
 4867 01ba CE000000 		.4byte	0xce
 4868 01be 00       		.byte	0
 4869 01bf 03       		.uleb128 0x3
 4870 01c0 01       		.byte	0x1
 4871 01c1 02       		.byte	0x2
 4872 01c2 2C050000 		.4byte	.LASF31
 4873 01c6 0D       		.uleb128 0xd
 4874 01c7 04       		.byte	0x4
 4875 01c8 CC010000 		.4byte	0x1cc
 4876 01cc 0E       		.uleb128 0xe
 4877 01cd 49010000 		.4byte	0x149
 4878 01d1 0D       		.uleb128 0xd
 4879 01d2 04       		.byte	0x4
 4880 01d3 3E010000 		.4byte	0x13e
 4881 01d7 0D       		.uleb128 0xd
ARM GAS  C:\Users\tmj32\AppData\Local\Temp\ccyJ4BPG.s 			page 109


 4882 01d8 04       		.byte	0x4
 4883 01d9 A1010000 		.4byte	0x1a1
 4884 01dd 0B       		.uleb128 0xb
 4885 01de F1010000 		.4byte	0x1f1
 4886 01e2 F1010000 		.4byte	0x1f1
 4887 01e6 0C       		.uleb128 0xc
 4888 01e7 C6010000 		.4byte	0x1c6
 4889 01eb 0C       		.uleb128 0xc
 4890 01ec CE000000 		.4byte	0xce
 4891 01f0 00       		.byte	0
 4892 01f1 0D       		.uleb128 0xd
 4893 01f2 04       		.byte	0x4
 4894 01f3 F7010000 		.4byte	0x1f7
 4895 01f7 0E       		.uleb128 0xe
 4896 01f8 AD000000 		.4byte	0xad
 4897 01fc 0D       		.uleb128 0xd
 4898 01fd 04       		.byte	0x4
 4899 01fe DD010000 		.4byte	0x1dd
 4900 0202 02       		.uleb128 0x2
 4901 0203 82150000 		.4byte	.LASF32
 4902 0207 06       		.byte	0x6
 4903 0208 56       		.byte	0x56
 4904 0209 49010000 		.4byte	0x149
 4905 020d 06       		.uleb128 0x6
 4906 020e 04       		.byte	0x4
 4907 020f 07       		.byte	0x7
 4908 0210 F3       		.byte	0xf3
 4909 0211 46020000 		.4byte	0x246
 4910 0215 07       		.uleb128 0x7
 4911 0216 65040000 		.4byte	.LASF33
 4912 021a 07       		.byte	0x7
 4913 021b F5       		.byte	0xf5
 4914 021c AD000000 		.4byte	0xad
 4915 0220 00       		.byte	0
 4916 0221 07       		.uleb128 0x7
 4917 0222 7C150000 		.4byte	.LASF34
 4918 0226 07       		.byte	0x7
 4919 0227 F6       		.byte	0xf6
 4920 0228 AD000000 		.4byte	0xad
 4921 022c 01       		.byte	0x1
 4922 022d 08       		.uleb128 0x8
 4923 022e 72656400 		.ascii	"red\000"
 4924 0232 07       		.byte	0x7
 4925 0233 F7       		.byte	0xf7
 4926 0234 AD000000 		.4byte	0xad
 4927 0238 02       		.byte	0x2
 4928 0239 07       		.uleb128 0x7
 4929 023a 85020000 		.4byte	.LASF35
 4930 023e 07       		.byte	0x7
 4931 023f F8       		.byte	0xf8
 4932 0240 AD000000 		.4byte	0xad
 4933 0244 03       		.byte	0x3
 4934 0245 00       		.byte	0
 4935 0246 0F       		.uleb128 0xf
 4936 0247 04       		.byte	0x4
 4937 0248 07       		.byte	0x7
 4938 0249 F1       		.byte	0xf1
ARM GAS  C:\Users\tmj32\AppData\Local\Temp\ccyJ4BPG.s 			page 110


 4939 024a 64020000 		.4byte	0x264
 4940 024e 10       		.uleb128 0x10
 4941 024f 636800   		.ascii	"ch\000"
 4942 0252 07       		.byte	0x7
 4943 0253 F9       		.byte	0xf9
 4944 0254 0D020000 		.4byte	0x20d
 4945 0258 11       		.uleb128 0x11
 4946 0259 A6120000 		.4byte	.LASF36
 4947 025d 07       		.byte	0x7
 4948 025e FA       		.byte	0xfa
 4949 025f CE000000 		.4byte	0xce
 4950 0263 00       		.byte	0
 4951 0264 02       		.uleb128 0x2
 4952 0265 6C000000 		.4byte	.LASF37
 4953 0269 07       		.byte	0x7
 4954 026a FB       		.byte	0xfb
 4955 026b 46020000 		.4byte	0x246
 4956 026f 12       		.uleb128 0x12
 4957 0270 9A100000 		.4byte	.LASF38
 4958 0274 07       		.byte	0x7
 4959 0275 0801     		.2byte	0x108
 4960 0277 64020000 		.4byte	0x264
 4961 027b 12       		.uleb128 0x12
 4962 027c C9000000 		.4byte	.LASF39
 4963 0280 07       		.byte	0x7
 4964 0281 0D01     		.2byte	0x10d
 4965 0283 AD000000 		.4byte	0xad
 4966 0287 03       		.uleb128 0x3
 4967 0288 04       		.byte	0x4
 4968 0289 07       		.byte	0x7
 4969 028a 56000000 		.4byte	.LASF40
 4970 028e 03       		.uleb128 0x3
 4971 028f 01       		.byte	0x1
 4972 0290 08       		.byte	0x8
 4973 0291 57050000 		.4byte	.LASF41
 4974 0295 0D       		.uleb128 0xd
 4975 0296 04       		.byte	0x4
 4976 0297 9B020000 		.4byte	0x29b
 4977 029b 0E       		.uleb128 0xe
 4978 029c 8E020000 		.4byte	0x28e
 4979 02a0 06       		.uleb128 0x6
 4980 02a1 04       		.byte	0x4
 4981 02a2 01       		.byte	0x1
 4982 02a3 2A       		.byte	0x2a
 4983 02a4 BD020000 		.4byte	0x2bd
 4984 02a8 08       		.uleb128 0x8
 4985 02a9 7800     		.ascii	"x\000"
 4986 02ab 01       		.byte	0x1
 4987 02ac 2C       		.byte	0x2c
 4988 02ad D9000000 		.4byte	0xd9
 4989 02b1 00       		.byte	0
 4990 02b2 08       		.uleb128 0x8
 4991 02b3 7900     		.ascii	"y\000"
 4992 02b5 01       		.byte	0x1
 4993 02b6 2D       		.byte	0x2d
 4994 02b7 D9000000 		.4byte	0xd9
 4995 02bb 02       		.byte	0x2
ARM GAS  C:\Users\tmj32\AppData\Local\Temp\ccyJ4BPG.s 			page 111


 4996 02bc 00       		.byte	0
 4997 02bd 02       		.uleb128 0x2
 4998 02be F0000000 		.4byte	.LASF42
 4999 02c2 01       		.byte	0x1
 5000 02c3 2E       		.byte	0x2e
 5001 02c4 A0020000 		.4byte	0x2a0
 5002 02c8 06       		.uleb128 0x6
 5003 02c9 08       		.byte	0x8
 5004 02ca 01       		.byte	0x1
 5005 02cb 31       		.byte	0x31
 5006 02cc FD020000 		.4byte	0x2fd
 5007 02d0 08       		.uleb128 0x8
 5008 02d1 783100   		.ascii	"x1\000"
 5009 02d4 01       		.byte	0x1
 5010 02d5 33       		.byte	0x33
 5011 02d6 D9000000 		.4byte	0xd9
 5012 02da 00       		.byte	0
 5013 02db 08       		.uleb128 0x8
 5014 02dc 793100   		.ascii	"y1\000"
 5015 02df 01       		.byte	0x1
 5016 02e0 34       		.byte	0x34
 5017 02e1 D9000000 		.4byte	0xd9
 5018 02e5 02       		.byte	0x2
 5019 02e6 08       		.uleb128 0x8
 5020 02e7 783200   		.ascii	"x2\000"
 5021 02ea 01       		.byte	0x1
 5022 02eb 35       		.byte	0x35
 5023 02ec D9000000 		.4byte	0xd9
 5024 02f0 04       		.byte	0x4
 5025 02f1 08       		.uleb128 0x8
 5026 02f2 793200   		.ascii	"y2\000"
 5027 02f5 01       		.byte	0x1
 5028 02f6 36       		.byte	0x36
 5029 02f7 D9000000 		.4byte	0xd9
 5030 02fb 06       		.byte	0x6
 5031 02fc 00       		.byte	0
 5032 02fd 02       		.uleb128 0x2
 5033 02fe 53070000 		.4byte	.LASF43
 5034 0302 01       		.byte	0x1
 5035 0303 37       		.byte	0x37
 5036 0304 C8020000 		.4byte	0x2c8
 5037 0308 13       		.uleb128 0x13
 5038 0309 01       		.byte	0x1
 5039 030a 42000000 		.4byte	0x42
 5040 030e 08       		.byte	0x8
 5041 030f 23       		.byte	0x23
 5042 0310 3F030000 		.4byte	0x33f
 5043 0314 14       		.uleb128 0x14
 5044 0315 BA100000 		.4byte	.LASF44
 5045 0319 00       		.byte	0
 5046 031a 14       		.uleb128 0x14
 5047 031b 17110000 		.4byte	.LASF45
 5048 031f 01       		.byte	0x1
 5049 0320 14       		.uleb128 0x14
 5050 0321 02030000 		.4byte	.LASF46
 5051 0325 02       		.byte	0x2
 5052 0326 14       		.uleb128 0x14
ARM GAS  C:\Users\tmj32\AppData\Local\Temp\ccyJ4BPG.s 			page 112


 5053 0327 FC080000 		.4byte	.LASF47
 5054 032b 04       		.byte	0x4
 5055 032c 14       		.uleb128 0x14
 5056 032d 49110000 		.4byte	.LASF48
 5057 0331 08       		.byte	0x8
 5058 0332 14       		.uleb128 0x14
 5059 0333 68130000 		.4byte	.LASF49
 5060 0337 0F       		.byte	0xf
 5061 0338 14       		.uleb128 0x14
 5062 0339 360E0000 		.4byte	.LASF50
 5063 033d 10       		.byte	0x10
 5064 033e 00       		.byte	0
 5065 033f 02       		.uleb128 0x2
 5066 0340 55160000 		.4byte	.LASF51
 5067 0344 08       		.byte	0x8
 5068 0345 2C       		.byte	0x2c
 5069 0346 AD000000 		.4byte	0xad
 5070 034a 02       		.uleb128 0x2
 5071 034b D9120000 		.4byte	.LASF52
 5072 034f 08       		.byte	0x8
 5073 0350 33       		.byte	0x33
 5074 0351 AD000000 		.4byte	0xad
 5075 0355 06       		.uleb128 0x6
 5076 0356 08       		.byte	0x8
 5077 0357 08       		.byte	0x8
 5078 0358 48       		.byte	0x48
 5079 0359 8E030000 		.4byte	0x38e
 5080 035d 07       		.uleb128 0x7
 5081 035e AB120000 		.4byte	.LASF53
 5082 0362 08       		.byte	0x8
 5083 0363 4A       		.byte	0x4a
 5084 0364 6F020000 		.4byte	0x26f
 5085 0368 00       		.byte	0
 5086 0369 07       		.uleb128 0x7
 5087 036a 080B0000 		.4byte	.LASF54
 5088 036e 08       		.byte	0x8
 5089 036f 4B       		.byte	0x4b
 5090 0370 D9000000 		.4byte	0xd9
 5091 0374 04       		.byte	0x4
 5092 0375 07       		.uleb128 0x7
 5093 0376 EC160000 		.4byte	.LASF55
 5094 037a 08       		.byte	0x8
 5095 037b 4C       		.byte	0x4c
 5096 037c 3F030000 		.4byte	0x33f
 5097 0380 06       		.byte	0x6
 5098 0381 08       		.uleb128 0x8
 5099 0382 6F706100 		.ascii	"opa\000"
 5100 0386 08       		.byte	0x8
 5101 0387 4D       		.byte	0x4d
 5102 0388 7B020000 		.4byte	0x27b
 5103 038c 07       		.byte	0x7
 5104 038d 00       		.byte	0
 5105 038e 06       		.uleb128 0x6
 5106 038f 08       		.byte	0x8
 5107 0390 08       		.byte	0x8
 5108 0391 51       		.byte	0x51
 5109 0392 BB030000 		.4byte	0x3bb
ARM GAS  C:\Users\tmj32\AppData\Local\Temp\ccyJ4BPG.s 			page 113


 5110 0396 07       		.uleb128 0x7
 5111 0397 AB120000 		.4byte	.LASF53
 5112 039b 08       		.byte	0x8
 5113 039c 53       		.byte	0x53
 5114 039d 6F020000 		.4byte	0x26f
 5115 03a1 00       		.byte	0
 5116 03a2 07       		.uleb128 0x7
 5117 03a3 080B0000 		.4byte	.LASF54
 5118 03a7 08       		.byte	0x8
 5119 03a8 54       		.byte	0x54
 5120 03a9 D9000000 		.4byte	0xd9
 5121 03ad 04       		.byte	0x4
 5122 03ae 07       		.uleb128 0x7
 5123 03af EA010000 		.4byte	.LASF56
 5124 03b3 08       		.byte	0x8
 5125 03b4 55       		.byte	0x55
 5126 03b5 4A030000 		.4byte	0x34a
 5127 03b9 06       		.byte	0x6
 5128 03ba 00       		.byte	0
 5129 03bb 06       		.uleb128 0x6
 5130 03bc 0A       		.byte	0xa
 5131 03bd 08       		.byte	0x8
 5132 03be 58       		.byte	0x58
 5133 03bf 00040000 		.4byte	0x400
 5134 03c3 08       		.uleb128 0x8
 5135 03c4 746F7000 		.ascii	"top\000"
 5136 03c8 08       		.byte	0x8
 5137 03c9 5A       		.byte	0x5a
 5138 03ca D9000000 		.4byte	0xd9
 5139 03ce 00       		.byte	0
 5140 03cf 07       		.uleb128 0x7
 5141 03d0 270B0000 		.4byte	.LASF57
 5142 03d4 08       		.byte	0x8
 5143 03d5 5B       		.byte	0x5b
 5144 03d6 D9000000 		.4byte	0xd9
 5145 03da 02       		.byte	0x2
 5146 03db 07       		.uleb128 0x7
 5147 03dc AC070000 		.4byte	.LASF58
 5148 03e0 08       		.byte	0x8
 5149 03e1 5C       		.byte	0x5c
 5150 03e2 D9000000 		.4byte	0xd9
 5151 03e6 04       		.byte	0x4
 5152 03e7 07       		.uleb128 0x7
 5153 03e8 4F0A0000 		.4byte	.LASF59
 5154 03ec 08       		.byte	0x8
 5155 03ed 5D       		.byte	0x5d
 5156 03ee D9000000 		.4byte	0xd9
 5157 03f2 06       		.byte	0x6
 5158 03f3 07       		.uleb128 0x7
 5159 03f4 6C080000 		.4byte	.LASF60
 5160 03f8 08       		.byte	0x8
 5161 03f9 5E       		.byte	0x5e
 5162 03fa D9000000 		.4byte	0xd9
 5163 03fe 08       		.byte	0x8
 5164 03ff 00       		.byte	0
 5165 0400 06       		.uleb128 0x6
 5166 0401 28       		.byte	0x28
ARM GAS  C:\Users\tmj32\AppData\Local\Temp\ccyJ4BPG.s 			page 114


 5167 0402 08       		.byte	0x8
 5168 0403 41       		.byte	0x41
 5169 0404 5D040000 		.4byte	0x45d
 5170 0408 07       		.uleb128 0x7
 5171 0409 AC0F0000 		.4byte	.LASF61
 5172 040d 08       		.byte	0x8
 5173 040e 43       		.byte	0x43
 5174 040f 6F020000 		.4byte	0x26f
 5175 0413 00       		.byte	0
 5176 0414 07       		.uleb128 0x7
 5177 0415 850D0000 		.4byte	.LASF62
 5178 0419 08       		.byte	0x8
 5179 041a 44       		.byte	0x44
 5180 041b 6F020000 		.4byte	0x26f
 5181 041f 04       		.byte	0x4
 5182 0420 07       		.uleb128 0x7
 5183 0421 17010000 		.4byte	.LASF63
 5184 0425 08       		.byte	0x8
 5185 0426 45       		.byte	0x45
 5186 0427 D9000000 		.4byte	0xd9
 5187 042b 08       		.byte	0x8
 5188 042c 08       		.uleb128 0x8
 5189 042d 6F706100 		.ascii	"opa\000"
 5190 0431 08       		.byte	0x8
 5191 0432 46       		.byte	0x46
 5192 0433 7B020000 		.4byte	0x27b
 5193 0437 0A       		.byte	0xa
 5194 0438 07       		.uleb128 0x7
 5195 0439 33160000 		.4byte	.LASF64
 5196 043d 08       		.byte	0x8
 5197 043e 4E       		.byte	0x4e
 5198 043f 55030000 		.4byte	0x355
 5199 0443 0C       		.byte	0xc
 5200 0444 07       		.uleb128 0x7
 5201 0445 22140000 		.4byte	.LASF65
 5202 0449 08       		.byte	0x8
 5203 044a 56       		.byte	0x56
 5204 044b 8E030000 		.4byte	0x38e
 5205 044f 14       		.byte	0x14
 5206 0450 07       		.uleb128 0x7
 5207 0451 0B150000 		.4byte	.LASF66
 5208 0455 08       		.byte	0x8
 5209 0456 5F       		.byte	0x5f
 5210 0457 BB030000 		.4byte	0x3bb
 5211 045b 1C       		.byte	0x1c
 5212 045c 00       		.byte	0
 5213 045d 06       		.uleb128 0x6
 5214 045e 14       		.byte	0x14
 5215 045f 08       		.byte	0x8
 5216 0460 63       		.byte	0x63
 5217 0461 AE040000 		.4byte	0x4ae
 5218 0465 07       		.uleb128 0x7
 5219 0466 AB120000 		.4byte	.LASF53
 5220 046a 08       		.byte	0x8
 5221 046b 65       		.byte	0x65
 5222 046c 6F020000 		.4byte	0x26f
 5223 0470 00       		.byte	0
ARM GAS  C:\Users\tmj32\AppData\Local\Temp\ccyJ4BPG.s 			page 115


 5224 0471 07       		.uleb128 0x7
 5225 0472 B4160000 		.4byte	.LASF67
 5226 0476 08       		.byte	0x8
 5227 0477 66       		.byte	0x66
 5228 0478 6F020000 		.4byte	0x26f
 5229 047c 04       		.byte	0x4
 5230 047d 07       		.uleb128 0x7
 5231 047e 1F130000 		.4byte	.LASF68
 5232 0482 08       		.byte	0x8
 5233 0483 67       		.byte	0x67
 5234 0484 AE040000 		.4byte	0x4ae
 5235 0488 08       		.byte	0x8
 5236 0489 07       		.uleb128 0x7
 5237 048a 24130000 		.4byte	.LASF69
 5238 048e 08       		.byte	0x8
 5239 048f 68       		.byte	0x68
 5240 0490 D9000000 		.4byte	0xd9
 5241 0494 0C       		.byte	0xc
 5242 0495 07       		.uleb128 0x7
 5243 0496 C0120000 		.4byte	.LASF70
 5244 049a 08       		.byte	0x8
 5245 049b 69       		.byte	0x69
 5246 049c D9000000 		.4byte	0xd9
 5247 04a0 0E       		.byte	0xe
 5248 04a1 08       		.uleb128 0x8
 5249 04a2 6F706100 		.ascii	"opa\000"
 5250 04a6 08       		.byte	0x8
 5251 04a7 6A       		.byte	0x6a
 5252 04a8 7B020000 		.4byte	0x27b
 5253 04ac 10       		.byte	0x10
 5254 04ad 00       		.byte	0
 5255 04ae 0D       		.uleb128 0xd
 5256 04af 04       		.byte	0x4
 5257 04b0 B4040000 		.4byte	0x4b4
 5258 04b4 0E       		.uleb128 0xe
 5259 04b5 02020000 		.4byte	0x202
 5260 04b9 06       		.uleb128 0x6
 5261 04ba 08       		.byte	0x8
 5262 04bb 08       		.byte	0x8
 5263 04bc 6E       		.byte	0x6e
 5264 04bd E6040000 		.4byte	0x4e6
 5265 04c1 07       		.uleb128 0x7
 5266 04c2 AB120000 		.4byte	.LASF53
 5267 04c6 08       		.byte	0x8
 5268 04c7 70       		.byte	0x70
 5269 04c8 6F020000 		.4byte	0x26f
 5270 04cc 00       		.byte	0
 5271 04cd 07       		.uleb128 0x7
 5272 04ce D2000000 		.4byte	.LASF71
 5273 04d2 08       		.byte	0x8
 5274 04d3 71       		.byte	0x71
 5275 04d4 7B020000 		.4byte	0x27b
 5276 04d8 04       		.byte	0x4
 5277 04d9 08       		.uleb128 0x8
 5278 04da 6F706100 		.ascii	"opa\000"
 5279 04de 08       		.byte	0x8
 5280 04df 72       		.byte	0x72
ARM GAS  C:\Users\tmj32\AppData\Local\Temp\ccyJ4BPG.s 			page 116


 5281 04e0 7B020000 		.4byte	0x27b
 5282 04e4 05       		.byte	0x5
 5283 04e5 00       		.byte	0
 5284 04e6 06       		.uleb128 0x6
 5285 04e7 08       		.byte	0x8
 5286 04e8 08       		.byte	0x8
 5287 04e9 76       		.byte	0x76
 5288 04ea 22050000 		.4byte	0x522
 5289 04ee 07       		.uleb128 0x7
 5290 04ef AB120000 		.4byte	.LASF53
 5291 04f3 08       		.byte	0x8
 5292 04f4 78       		.byte	0x78
 5293 04f5 6F020000 		.4byte	0x26f
 5294 04f9 00       		.byte	0
 5295 04fa 07       		.uleb128 0x7
 5296 04fb 080B0000 		.4byte	.LASF54
 5297 04ff 08       		.byte	0x8
 5298 0500 79       		.byte	0x79
 5299 0501 D9000000 		.4byte	0xd9
 5300 0505 04       		.byte	0x4
 5301 0506 08       		.uleb128 0x8
 5302 0507 6F706100 		.ascii	"opa\000"
 5303 050b 08       		.byte	0x8
 5304 050c 7A       		.byte	0x7a
 5305 050d 7B020000 		.4byte	0x27b
 5306 0511 06       		.byte	0x6
 5307 0512 0A       		.uleb128 0xa
 5308 0513 EC060000 		.4byte	.LASF73
 5309 0517 08       		.byte	0x8
 5310 0518 7B       		.byte	0x7b
 5311 0519 AD000000 		.4byte	0xad
 5312 051d 01       		.byte	0x1
 5313 051e 01       		.byte	0x1
 5314 051f 07       		.byte	0x7
 5315 0520 07       		.byte	0x7
 5316 0521 00       		.byte	0
 5317 0522 06       		.uleb128 0x6
 5318 0523 50       		.byte	0x50
 5319 0524 08       		.byte	0x8
 5320 0525 3C       		.byte	0x3c
 5321 0526 6A050000 		.4byte	0x56a
 5322 052a 0A       		.uleb128 0xa
 5323 052b 170C0000 		.4byte	.LASF74
 5324 052f 08       		.byte	0x8
 5325 0530 3E       		.byte	0x3e
 5326 0531 AD000000 		.4byte	0xad
 5327 0535 01       		.byte	0x1
 5328 0536 01       		.byte	0x1
 5329 0537 07       		.byte	0x7
 5330 0538 00       		.byte	0
 5331 0539 07       		.uleb128 0x7
 5332 053a 84050000 		.4byte	.LASF75
 5333 053e 08       		.byte	0x8
 5334 053f 60       		.byte	0x60
 5335 0540 00040000 		.4byte	0x400
 5336 0544 04       		.byte	0x4
 5337 0545 07       		.uleb128 0x7
ARM GAS  C:\Users\tmj32\AppData\Local\Temp\ccyJ4BPG.s 			page 117


 5338 0546 B1060000 		.4byte	.LASF76
 5339 054a 08       		.byte	0x8
 5340 054b 6B       		.byte	0x6b
 5341 054c 5D040000 		.4byte	0x45d
 5342 0550 2C       		.byte	0x2c
 5343 0551 07       		.uleb128 0x7
 5344 0552 E6060000 		.4byte	.LASF77
 5345 0556 08       		.byte	0x8
 5346 0557 73       		.byte	0x73
 5347 0558 B9040000 		.4byte	0x4b9
 5348 055c 40       		.byte	0x40
 5349 055d 07       		.uleb128 0x7
 5350 055e 1C090000 		.4byte	.LASF78
 5351 0562 08       		.byte	0x8
 5352 0563 7C       		.byte	0x7c
 5353 0564 E6040000 		.4byte	0x4e6
 5354 0568 48       		.byte	0x48
 5355 0569 00       		.byte	0
 5356 056a 02       		.uleb128 0x2
 5357 056b 61080000 		.4byte	.LASF79
 5358 056f 08       		.byte	0x8
 5359 0570 84       		.byte	0x84
 5360 0571 22050000 		.4byte	0x522
 5361 0575 0D       		.uleb128 0xd
 5362 0576 04       		.byte	0x4
 5363 0577 6A050000 		.4byte	0x56a
 5364 057b 13       		.uleb128 0x13
 5365 057c 01       		.byte	0x1
 5366 057d 42000000 		.4byte	0x42
 5367 0581 09       		.byte	0x9
 5368 0582 27       		.byte	0x27
 5369 0583 94050000 		.4byte	0x594
 5370 0587 14       		.uleb128 0x14
 5371 0588 CD010000 		.4byte	.LASF80
 5372 058c 00       		.byte	0
 5373 058d 14       		.uleb128 0x14
 5374 058e 4A100000 		.4byte	.LASF81
 5375 0592 01       		.byte	0x1
 5376 0593 00       		.byte	0
 5377 0594 02       		.uleb128 0x2
 5378 0595 730E0000 		.4byte	.LASF82
 5379 0599 09       		.byte	0x9
 5380 059a 2C       		.byte	0x2c
 5381 059b AD000000 		.4byte	0xad
 5382 059f 02       		.uleb128 0x2
 5383 05a0 18000000 		.4byte	.LASF83
 5384 05a4 0A       		.byte	0xa
 5385 05a5 1E       		.byte	0x1e
 5386 05a6 AD000000 		.4byte	0xad
 5387 05aa 06       		.uleb128 0x6
 5388 05ab 0C       		.byte	0xc
 5389 05ac 0A       		.byte	0xa
 5390 05ad 21       		.byte	0x21
 5391 05ae D7050000 		.4byte	0x5d7
 5392 05b2 07       		.uleb128 0x7
 5393 05b3 08170000 		.4byte	.LASF84
 5394 05b7 0A       		.byte	0xa
ARM GAS  C:\Users\tmj32\AppData\Local\Temp\ccyJ4BPG.s 			page 118


 5395 05b8 23       		.byte	0x23
 5396 05b9 CE000000 		.4byte	0xce
 5397 05bd 00       		.byte	0
 5398 05be 07       		.uleb128 0x7
 5399 05bf 88030000 		.4byte	.LASF85
 5400 05c3 0A       		.byte	0xa
 5401 05c4 24       		.byte	0x24
 5402 05c5 D7050000 		.4byte	0x5d7
 5403 05c9 04       		.byte	0x4
 5404 05ca 07       		.uleb128 0x7
 5405 05cb A2000000 		.4byte	.LASF86
 5406 05cf 0A       		.byte	0xa
 5407 05d0 25       		.byte	0x25
 5408 05d1 D7050000 		.4byte	0x5d7
 5409 05d5 08       		.byte	0x8
 5410 05d6 00       		.byte	0
 5411 05d7 0D       		.uleb128 0xd
 5412 05d8 04       		.byte	0x4
 5413 05d9 9F050000 		.4byte	0x59f
 5414 05dd 02       		.uleb128 0x2
 5415 05de 87130000 		.4byte	.LASF87
 5416 05e2 0A       		.byte	0xa
 5417 05e3 26       		.byte	0x26
 5418 05e4 AA050000 		.4byte	0x5aa
 5419 05e8 13       		.uleb128 0x13
 5420 05e9 01       		.byte	0x1
 5421 05ea 42000000 		.4byte	0x42
 5422 05ee 0B       		.byte	0xb
 5423 05ef 25       		.byte	0x25
 5424 05f0 19060000 		.4byte	0x619
 5425 05f4 14       		.uleb128 0x14
 5426 05f5 50010000 		.4byte	.LASF88
 5427 05f9 00       		.byte	0
 5428 05fa 14       		.uleb128 0x14
 5429 05fb F3140000 		.4byte	.LASF89
 5430 05ff 01       		.byte	0x1
 5431 0600 14       		.uleb128 0x14
 5432 0601 89120000 		.4byte	.LASF90
 5433 0605 02       		.byte	0x2
 5434 0606 14       		.uleb128 0x14
 5435 0607 64070000 		.4byte	.LASF91
 5436 060b 03       		.byte	0x3
 5437 060c 14       		.uleb128 0x14
 5438 060d 03110000 		.4byte	.LASF92
 5439 0611 20       		.byte	0x20
 5440 0612 14       		.uleb128 0x14
 5441 0613 7E000000 		.4byte	.LASF93
 5442 0617 21       		.byte	0x21
 5443 0618 00       		.byte	0
 5444 0619 02       		.uleb128 0x2
 5445 061a 10070000 		.4byte	.LASF94
 5446 061e 0B       		.byte	0xb
 5447 061f 30       		.byte	0x30
 5448 0620 AD000000 		.4byte	0xad
 5449 0624 02       		.uleb128 0x2
 5450 0625 BE160000 		.4byte	.LASF95
 5451 0629 0C       		.byte	0xc
ARM GAS  C:\Users\tmj32\AppData\Local\Temp\ccyJ4BPG.s 			page 119


 5452 062a 2B       		.byte	0x2b
 5453 062b 2F060000 		.4byte	0x62f
 5454 062f 0D       		.uleb128 0xd
 5455 0630 04       		.byte	0x4
 5456 0631 35060000 		.4byte	0x635
 5457 0635 15       		.uleb128 0x15
 5458 0636 40060000 		.4byte	0x640
 5459 063a 0C       		.uleb128 0xc
 5460 063b 40060000 		.4byte	0x640
 5461 063f 00       		.byte	0
 5462 0640 0D       		.uleb128 0xd
 5463 0641 04       		.byte	0x4
 5464 0642 46060000 		.4byte	0x646
 5465 0646 09       		.uleb128 0x9
 5466 0647 99050000 		.4byte	.LASF97
 5467 064b 14       		.byte	0x14
 5468 064c 0C       		.byte	0xc
 5469 064d 3E       		.byte	0x3e
 5470 064e A1060000 		.4byte	0x6a1
 5471 0652 07       		.uleb128 0x7
 5472 0653 17120000 		.4byte	.LASF98
 5473 0657 0C       		.byte	0xc
 5474 0658 40       		.byte	0x40
 5475 0659 CE000000 		.4byte	0xce
 5476 065d 00       		.byte	0
 5477 065e 07       		.uleb128 0x7
 5478 065f 54100000 		.4byte	.LASF99
 5479 0663 0C       		.byte	0xc
 5480 0664 41       		.byte	0x41
 5481 0665 CE000000 		.4byte	0xce
 5482 0669 04       		.byte	0x4
 5483 066a 07       		.uleb128 0x7
 5484 066b DD040000 		.4byte	.LASF100
 5485 066f 0C       		.byte	0xc
 5486 0670 42       		.byte	0x42
 5487 0671 24060000 		.4byte	0x624
 5488 0675 08       		.byte	0x8
 5489 0676 07       		.uleb128 0x7
 5490 0677 15160000 		.4byte	.LASF101
 5491 067b 0C       		.byte	0xc
 5492 067c 44       		.byte	0x44
 5493 067d E4000000 		.4byte	0xe4
 5494 0681 0C       		.byte	0xc
 5495 0682 0A       		.uleb128 0xa
 5496 0683 42020000 		.4byte	.LASF102
 5497 0687 0C       		.byte	0xc
 5498 0688 46       		.byte	0x46
 5499 0689 AD000000 		.4byte	0xad
 5500 068d 01       		.byte	0x1
 5501 068e 03       		.byte	0x3
 5502 068f 05       		.byte	0x5
 5503 0690 10       		.byte	0x10
 5504 0691 0A       		.uleb128 0xa
 5505 0692 480D0000 		.4byte	.LASF103
 5506 0696 0C       		.byte	0xc
 5507 0697 47       		.byte	0x47
 5508 0698 AD000000 		.4byte	0xad
ARM GAS  C:\Users\tmj32\AppData\Local\Temp\ccyJ4BPG.s 			page 120


 5509 069c 01       		.byte	0x1
 5510 069d 01       		.byte	0x1
 5511 069e 04       		.byte	0x4
 5512 069f 10       		.byte	0x10
 5513 06a0 00       		.byte	0
 5514 06a1 02       		.uleb128 0x2
 5515 06a2 E6100000 		.4byte	.LASF104
 5516 06a6 0C       		.byte	0xc
 5517 06a7 48       		.byte	0x48
 5518 06a8 46060000 		.4byte	0x646
 5519 06ac 06       		.uleb128 0x6
 5520 06ad 1C       		.byte	0x1c
 5521 06ae 0D       		.byte	0xd
 5522 06af 2F       		.byte	0x2f
 5523 06b0 00070000 		.4byte	0x700
 5524 06b4 07       		.uleb128 0x7
 5525 06b5 4F0B0000 		.4byte	.LASF105
 5526 06b9 0D       		.byte	0xd
 5527 06ba 31       		.byte	0x31
 5528 06bb E4000000 		.4byte	0xe4
 5529 06bf 00       		.byte	0
 5530 06c0 07       		.uleb128 0x7
 5531 06c1 540B0000 		.4byte	.LASF106
 5532 06c5 0D       		.byte	0xd
 5533 06c6 32       		.byte	0x32
 5534 06c7 E4000000 		.4byte	0xe4
 5535 06cb 04       		.byte	0x4
 5536 06cc 07       		.uleb128 0x7
 5537 06cd 7C0E0000 		.4byte	.LASF107
 5538 06d1 0D       		.byte	0xd
 5539 06d2 35       		.byte	0x35
 5540 06d3 E4000000 		.4byte	0xe4
 5541 06d7 08       		.byte	0x8
 5542 06d8 07       		.uleb128 0x7
 5543 06d9 DD0F0000 		.4byte	.LASF108
 5544 06dd 0D       		.byte	0xd
 5545 06de 36       		.byte	0x36
 5546 06df CE000000 		.4byte	0xce
 5547 06e3 0C       		.byte	0xc
 5548 06e4 07       		.uleb128 0x7
 5549 06e5 4A080000 		.4byte	.LASF109
 5550 06e9 0D       		.byte	0xd
 5551 06ea 37       		.byte	0x37
 5552 06eb FD020000 		.4byte	0x2fd
 5553 06ef 10       		.byte	0x10
 5554 06f0 0A       		.uleb128 0xa
 5555 06f1 63060000 		.4byte	.LASF110
 5556 06f5 0D       		.byte	0xd
 5557 06f6 38       		.byte	0x38
 5558 06f7 00070000 		.4byte	0x700
 5559 06fb 04       		.byte	0x4
 5560 06fc 01       		.byte	0x1
 5561 06fd 1F       		.byte	0x1f
 5562 06fe 18       		.byte	0x18
 5563 06ff 00       		.byte	0
 5564 0700 16       		.uleb128 0x16
 5565 0701 CE000000 		.4byte	0xce
ARM GAS  C:\Users\tmj32\AppData\Local\Temp\ccyJ4BPG.s 			page 121


 5566 0705 02       		.uleb128 0x2
 5567 0706 180A0000 		.4byte	.LASF111
 5568 070a 0D       		.byte	0xd
 5569 070b 39       		.byte	0x39
 5570 070c AC060000 		.4byte	0x6ac
 5571 0710 09       		.uleb128 0x9
 5572 0711 71090000 		.4byte	.LASF112
 5573 0715 20       		.byte	0x20
 5574 0716 0D       		.byte	0xd
 5575 0717 3E       		.byte	0x3e
 5576 0718 8C070000 		.4byte	0x78c
 5577 071c 07       		.uleb128 0x7
 5578 071d 1C040000 		.4byte	.LASF113
 5579 0721 0D       		.byte	0xd
 5580 0722 41       		.byte	0x41
 5581 0723 D9000000 		.4byte	0xd9
 5582 0727 00       		.byte	0
 5583 0728 07       		.uleb128 0x7
 5584 0729 8B020000 		.4byte	.LASF114
 5585 072d 0D       		.byte	0xd
 5586 072e 42       		.byte	0x42
 5587 072f D9000000 		.4byte	0xd9
 5588 0733 02       		.byte	0x2
 5589 0734 07       		.uleb128 0x7
 5590 0735 5D070000 		.4byte	.LASF115
 5591 0739 0D       		.byte	0xd
 5592 073a 46       		.byte	0x46
 5593 073b 8C070000 		.4byte	0x78c
 5594 073f 04       		.byte	0x4
 5595 0740 0A       		.uleb128 0xa
 5596 0741 10030000 		.4byte	.LASF116
 5597 0745 0D       		.byte	0xd
 5598 0746 4B       		.byte	0x4b
 5599 0747 CE000000 		.4byte	0xce
 5600 074b 04       		.byte	0x4
 5601 074c 01       		.byte	0x1
 5602 074d 1F       		.byte	0x1f
 5603 074e 08       		.byte	0x8
 5604 074f 07       		.uleb128 0x7
 5605 0750 0C160000 		.4byte	.LASF117
 5606 0754 0D       		.byte	0xd
 5607 0755 55       		.byte	0x55
 5608 0756 BE070000 		.4byte	0x7be
 5609 075a 0C       		.byte	0xc
 5610 075b 07       		.uleb128 0x7
 5611 075c 1E120000 		.4byte	.LASF118
 5612 0760 0D       		.byte	0xd
 5613 0761 59       		.byte	0x59
 5614 0762 DA070000 		.4byte	0x7da
 5615 0766 10       		.byte	0x10
 5616 0767 07       		.uleb128 0x7
 5617 0768 E4030000 		.4byte	.LASF119
 5618 076c 0D       		.byte	0xd
 5619 076d 5E       		.byte	0x5e
 5620 076e 0F080000 		.4byte	0x80f
 5621 0772 14       		.byte	0x14
 5622 0773 07       		.uleb128 0x7
ARM GAS  C:\Users\tmj32\AppData\Local\Temp\ccyJ4BPG.s 			page 122


 5623 0774 A0150000 		.4byte	.LASF120
 5624 0778 0D       		.byte	0xd
 5625 0779 63       		.byte	0x63
 5626 077a 2A080000 		.4byte	0x82a
 5627 077e 18       		.byte	0x18
 5628 077f 07       		.uleb128 0x7
 5629 0780 07000000 		.4byte	.LASF121
 5630 0784 0D       		.byte	0xd
 5631 0785 71       		.byte	0x71
 5632 0786 6F020000 		.4byte	0x26f
 5633 078a 1C       		.byte	0x1c
 5634 078b 00       		.byte	0
 5635 078c 0D       		.uleb128 0xd
 5636 078d 04       		.byte	0x4
 5637 078e 05070000 		.4byte	0x705
 5638 0792 15       		.uleb128 0x15
 5639 0793 A7070000 		.4byte	0x7a7
 5640 0797 0C       		.uleb128 0xc
 5641 0798 A7070000 		.4byte	0x7a7
 5642 079c 0C       		.uleb128 0xc
 5643 079d AD070000 		.4byte	0x7ad
 5644 07a1 0C       		.uleb128 0xc
 5645 07a2 B8070000 		.4byte	0x7b8
 5646 07a6 00       		.byte	0
 5647 07a7 0D       		.uleb128 0xd
 5648 07a8 04       		.byte	0x4
 5649 07a9 10070000 		.4byte	0x710
 5650 07ad 0D       		.uleb128 0xd
 5651 07ae 04       		.byte	0x4
 5652 07af B3070000 		.4byte	0x7b3
 5653 07b3 0E       		.uleb128 0xe
 5654 07b4 FD020000 		.4byte	0x2fd
 5655 07b8 0D       		.uleb128 0xd
 5656 07b9 04       		.byte	0x4
 5657 07ba 6F020000 		.4byte	0x26f
 5658 07be 0D       		.uleb128 0xd
 5659 07bf 04       		.byte	0x4
 5660 07c0 92070000 		.4byte	0x792
 5661 07c4 15       		.uleb128 0x15
 5662 07c5 D4070000 		.4byte	0x7d4
 5663 07c9 0C       		.uleb128 0xc
 5664 07ca A7070000 		.4byte	0x7a7
 5665 07ce 0C       		.uleb128 0xc
 5666 07cf D4070000 		.4byte	0x7d4
 5667 07d3 00       		.byte	0
 5668 07d4 0D       		.uleb128 0xd
 5669 07d5 04       		.byte	0x4
 5670 07d6 FD020000 		.4byte	0x2fd
 5671 07da 0D       		.uleb128 0xd
 5672 07db 04       		.byte	0x4
 5673 07dc C4070000 		.4byte	0x7c4
 5674 07e0 15       		.uleb128 0x15
 5675 07e1 09080000 		.4byte	0x809
 5676 07e5 0C       		.uleb128 0xc
 5677 07e6 A7070000 		.4byte	0x7a7
 5678 07ea 0C       		.uleb128 0xc
 5679 07eb 09080000 		.4byte	0x809
ARM GAS  C:\Users\tmj32\AppData\Local\Temp\ccyJ4BPG.s 			page 123


 5680 07ef 0C       		.uleb128 0xc
 5681 07f0 D9000000 		.4byte	0xd9
 5682 07f4 0C       		.uleb128 0xc
 5683 07f5 D9000000 		.4byte	0xd9
 5684 07f9 0C       		.uleb128 0xc
 5685 07fa D9000000 		.4byte	0xd9
 5686 07fe 0C       		.uleb128 0xc
 5687 07ff 6F020000 		.4byte	0x26f
 5688 0803 0C       		.uleb128 0xc
 5689 0804 7B020000 		.4byte	0x27b
 5690 0808 00       		.byte	0
 5691 0809 0D       		.uleb128 0xd
 5692 080a 04       		.byte	0x4
 5693 080b AD000000 		.4byte	0xad
 5694 080f 0D       		.uleb128 0xd
 5695 0810 04       		.byte	0x4
 5696 0811 E0070000 		.4byte	0x7e0
 5697 0815 15       		.uleb128 0x15
 5698 0816 2A080000 		.4byte	0x82a
 5699 081a 0C       		.uleb128 0xc
 5700 081b A7070000 		.4byte	0x7a7
 5701 081f 0C       		.uleb128 0xc
 5702 0820 CE000000 		.4byte	0xce
 5703 0824 0C       		.uleb128 0xc
 5704 0825 CE000000 		.4byte	0xce
 5705 0829 00       		.byte	0
 5706 082a 0D       		.uleb128 0xd
 5707 082b 04       		.byte	0x4
 5708 082c 15080000 		.4byte	0x815
 5709 0830 02       		.uleb128 0x2
 5710 0831 C0140000 		.4byte	.LASF122
 5711 0835 0D       		.byte	0xd
 5712 0836 77       		.byte	0x77
 5713 0837 10070000 		.4byte	0x710
 5714 083b 17       		.uleb128 0x17
 5715 083c D50D0000 		.4byte	.LASF123
 5716 0840 6401     		.2byte	0x164
 5717 0842 0D       		.byte	0xd
 5718 0843 7F       		.byte	0x7f
 5719 0844 C7080000 		.4byte	0x8c7
 5720 0848 07       		.uleb128 0x7
 5721 0849 31130000 		.4byte	.LASF124
 5722 084d 0D       		.byte	0xd
 5723 084e 82       		.byte	0x82
 5724 084f 30080000 		.4byte	0x830
 5725 0853 00       		.byte	0
 5726 0854 07       		.uleb128 0x7
 5727 0855 F8020000 		.4byte	.LASF125
 5728 0859 0D       		.byte	0xd
 5729 085a 85       		.byte	0x85
 5730 085b C7080000 		.4byte	0x8c7
 5731 085f 20       		.byte	0x20
 5732 0860 07       		.uleb128 0x7
 5733 0861 47020000 		.4byte	.LASF126
 5734 0865 0D       		.byte	0xd
 5735 0866 88       		.byte	0x88
 5736 0867 DD050000 		.4byte	0x5dd
ARM GAS  C:\Users\tmj32\AppData\Local\Temp\ccyJ4BPG.s 			page 124


 5737 086b 24       		.byte	0x24
 5738 086c 07       		.uleb128 0x7
 5739 086d BB000000 		.4byte	.LASF127
 5740 0871 0D       		.byte	0xd
 5741 0872 89       		.byte	0x89
 5742 0873 0F0A0000 		.4byte	0xa0f
 5743 0877 30       		.byte	0x30
 5744 0878 07       		.uleb128 0x7
 5745 0879 A9040000 		.4byte	.LASF128
 5746 087d 0D       		.byte	0xd
 5747 087e 8A       		.byte	0x8a
 5748 087f 0F0A0000 		.4byte	0xa0f
 5749 0883 34       		.byte	0x34
 5750 0884 07       		.uleb128 0x7
 5751 0885 CD130000 		.4byte	.LASF129
 5752 0889 0D       		.byte	0xd
 5753 088a 8B       		.byte	0x8b
 5754 088b 0F0A0000 		.4byte	0xa0f
 5755 088f 38       		.byte	0x38
 5756 0890 07       		.uleb128 0x7
 5757 0891 100D0000 		.4byte	.LASF130
 5758 0895 0D       		.byte	0xd
 5759 0896 8E       		.byte	0x8e
 5760 0897 150A0000 		.4byte	0xa15
 5761 089b 3C       		.byte	0x3c
 5762 089c 18       		.uleb128 0x18
 5763 089d 47050000 		.4byte	.LASF131
 5764 08a1 0D       		.byte	0xd
 5765 08a2 8F       		.byte	0x8f
 5766 08a3 250A0000 		.4byte	0xa25
 5767 08a7 3C01     		.2byte	0x13c
 5768 08a9 19       		.uleb128 0x19
 5769 08aa 81130000 		.4byte	.LASF132
 5770 08ae 0D       		.byte	0xd
 5771 08af 90       		.byte	0x90
 5772 08b0 CE000000 		.4byte	0xce
 5773 08b4 04       		.byte	0x4
 5774 08b5 0A       		.byte	0xa
 5775 08b6 16       		.byte	0x16
 5776 08b7 5C01     		.2byte	0x15c
 5777 08b9 18       		.uleb128 0x18
 5778 08ba DC020000 		.4byte	.LASF133
 5779 08be 0D       		.byte	0xd
 5780 08bf 93       		.byte	0x93
 5781 08c0 CE000000 		.4byte	0xce
 5782 08c4 6001     		.2byte	0x160
 5783 08c6 00       		.byte	0
 5784 08c7 0D       		.uleb128 0xd
 5785 08c8 04       		.byte	0x4
 5786 08c9 A1060000 		.4byte	0x6a1
 5787 08cd 09       		.uleb128 0x9
 5788 08ce 15130000 		.4byte	.LASF134
 5789 08d2 40       		.byte	0x40
 5790 08d3 0E       		.byte	0xe
 5791 08d4 BB       		.byte	0xbb
 5792 08d5 0F0A0000 		.4byte	0xa0f
 5793 08d9 08       		.uleb128 0x8
ARM GAS  C:\Users\tmj32\AppData\Local\Temp\ccyJ4BPG.s 			page 125


 5794 08da 70617200 		.ascii	"par\000"
 5795 08de 0E       		.byte	0xe
 5796 08df BD       		.byte	0xbd
 5797 08e0 0F0A0000 		.4byte	0xa0f
 5798 08e4 00       		.byte	0
 5799 08e5 07       		.uleb128 0x7
 5800 08e6 380B0000 		.4byte	.LASF135
 5801 08ea 0E       		.byte	0xe
 5802 08eb BE       		.byte	0xbe
 5803 08ec DD050000 		.4byte	0x5dd
 5804 08f0 04       		.byte	0x4
 5805 08f1 07       		.uleb128 0x7
 5806 08f2 C0130000 		.4byte	.LASF136
 5807 08f6 0E       		.byte	0xe
 5808 08f7 C0       		.byte	0xc0
 5809 08f8 FD020000 		.4byte	0x2fd
 5810 08fc 10       		.byte	0x10
 5811 08fd 07       		.uleb128 0x7
 5812 08fe 460A0000 		.4byte	.LASF137
 5813 0902 0E       		.byte	0xe
 5814 0903 C2       		.byte	0xc2
 5815 0904 250E0000 		.4byte	0xe25
 5816 0908 18       		.byte	0x18
 5817 0909 07       		.uleb128 0x7
 5818 090a 13150000 		.4byte	.LASF138
 5819 090e 0E       		.byte	0xe
 5820 090f C3       		.byte	0xc3
 5821 0910 D60E0000 		.4byte	0xed6
 5822 0914 1C       		.byte	0x1c
 5823 0915 07       		.uleb128 0x7
 5824 0916 E4050000 		.4byte	.LASF139
 5825 091a 0E       		.byte	0xe
 5826 091b C4       		.byte	0xc4
 5827 091c 6B0D0000 		.4byte	0xd6b
 5828 0920 20       		.byte	0x20
 5829 0921 07       		.uleb128 0x7
 5830 0922 A90E0000 		.4byte	.LASF140
 5831 0926 0E       		.byte	0xe
 5832 0927 C6       		.byte	0xc6
 5833 0928 E4000000 		.4byte	0xe4
 5834 092c 24       		.byte	0x24
 5835 092d 07       		.uleb128 0x7
 5836 092e 550A0000 		.4byte	.LASF141
 5837 0932 0E       		.byte	0xe
 5838 0933 C7       		.byte	0xc7
 5839 0934 830F0000 		.4byte	0xf83
 5840 0938 28       		.byte	0x28
 5841 0939 0A       		.uleb128 0xa
 5842 093a 4A010000 		.4byte	.LASF142
 5843 093e 0E       		.byte	0xe
 5844 093f D7       		.byte	0xd7
 5845 0940 AD000000 		.4byte	0xad
 5846 0944 01       		.byte	0x1
 5847 0945 01       		.byte	0x1
 5848 0946 07       		.byte	0x7
 5849 0947 2C       		.byte	0x2c
 5850 0948 0A       		.uleb128 0xa
ARM GAS  C:\Users\tmj32\AppData\Local\Temp\ccyJ4BPG.s 			page 126


 5851 0949 EA120000 		.4byte	.LASF143
 5852 094d 0E       		.byte	0xe
 5853 094e D8       		.byte	0xd8
 5854 094f AD000000 		.4byte	0xad
 5855 0953 01       		.byte	0x1
 5856 0954 01       		.byte	0x1
 5857 0955 06       		.byte	0x6
 5858 0956 2C       		.byte	0x2c
 5859 0957 0A       		.uleb128 0xa
 5860 0958 F4060000 		.4byte	.LASF144
 5861 095c 0E       		.byte	0xe
 5862 095d D9       		.byte	0xd9
 5863 095e AD000000 		.4byte	0xad
 5864 0962 01       		.byte	0x1
 5865 0963 01       		.byte	0x1
 5866 0964 05       		.byte	0x5
 5867 0965 2C       		.byte	0x2c
 5868 0966 0A       		.uleb128 0xa
 5869 0967 76140000 		.4byte	.LASF145
 5870 096b 0E       		.byte	0xe
 5871 096c DA       		.byte	0xda
 5872 096d AD000000 		.4byte	0xad
 5873 0971 01       		.byte	0x1
 5874 0972 01       		.byte	0x1
 5875 0973 04       		.byte	0x4
 5876 0974 2C       		.byte	0x2c
 5877 0975 0A       		.uleb128 0xa
 5878 0976 C0020000 		.4byte	.LASF146
 5879 097a 0E       		.byte	0xe
 5880 097b DB       		.byte	0xdb
 5881 097c AD000000 		.4byte	0xad
 5882 0980 01       		.byte	0x1
 5883 0981 01       		.byte	0x1
 5884 0982 03       		.byte	0x3
 5885 0983 2C       		.byte	0x2c
 5886 0984 1A       		.uleb128 0x1a
 5887 0985 746F7000 		.ascii	"top\000"
 5888 0989 0E       		.byte	0xe
 5889 098a DC       		.byte	0xdc
 5890 098b AD000000 		.4byte	0xad
 5891 098f 01       		.byte	0x1
 5892 0990 01       		.byte	0x1
 5893 0991 02       		.byte	0x2
 5894 0992 2C       		.byte	0x2c
 5895 0993 0A       		.uleb128 0xa
 5896 0994 0B140000 		.4byte	.LASF147
 5897 0998 0E       		.byte	0xe
 5898 0999 DD       		.byte	0xdd
 5899 099a AD000000 		.4byte	0xad
 5900 099e 01       		.byte	0x1
 5901 099f 01       		.byte	0x1
 5902 09a0 01       		.byte	0x1
 5903 09a1 2C       		.byte	0x2c
 5904 09a2 0A       		.uleb128 0xa
 5905 09a3 DE0B0000 		.4byte	.LASF148
 5906 09a7 0E       		.byte	0xe
 5907 09a8 DE       		.byte	0xde
ARM GAS  C:\Users\tmj32\AppData\Local\Temp\ccyJ4BPG.s 			page 127


 5908 09a9 AD000000 		.4byte	0xad
 5909 09ad 01       		.byte	0x1
 5910 09ae 01       		.byte	0x1
 5911 09af 00       		.byte	0
 5912 09b0 2C       		.byte	0x2c
 5913 09b1 0A       		.uleb128 0xa
 5914 09b2 CF040000 		.4byte	.LASF149
 5915 09b6 0E       		.byte	0xe
 5916 09b7 DF       		.byte	0xdf
 5917 09b8 780F0000 		.4byte	0xf78
 5918 09bc 01       		.byte	0x1
 5919 09bd 02       		.byte	0x2
 5920 09be 06       		.byte	0x6
 5921 09bf 2D       		.byte	0x2d
 5922 09c0 0A       		.uleb128 0xa
 5923 09c1 38130000 		.4byte	.LASF150
 5924 09c5 0E       		.byte	0xe
 5925 09c6 E0       		.byte	0xe0
 5926 09c7 19060000 		.4byte	0x619
 5927 09cb 01       		.byte	0x1
 5928 09cc 02       		.byte	0x2
 5929 09cd 04       		.byte	0x4
 5930 09ce 2D       		.byte	0x2d
 5931 09cf 0A       		.uleb128 0xa
 5932 09d0 8C150000 		.4byte	.LASF151
 5933 09d4 0E       		.byte	0xe
 5934 09d5 E1       		.byte	0xe1
 5935 09d6 AD000000 		.4byte	0xad
 5936 09da 01       		.byte	0x1
 5937 09db 03       		.byte	0x3
 5938 09dc 01       		.byte	0x1
 5939 09dd 2D       		.byte	0x2d
 5940 09de 07       		.uleb128 0x7
 5941 09df 470B0000 		.4byte	.LASF152
 5942 09e3 0E       		.byte	0xe
 5943 09e4 E2       		.byte	0xe2
 5944 09e5 AD000000 		.4byte	0xad
 5945 09e9 2E       		.byte	0x2e
 5946 09ea 07       		.uleb128 0x7
 5947 09eb 7F170000 		.4byte	.LASF153
 5948 09ef 0E       		.byte	0xe
 5949 09f0 E4       		.byte	0xe4
 5950 09f1 7B020000 		.4byte	0x27b
 5951 09f5 2F       		.byte	0x2f
 5952 09f6 07       		.uleb128 0x7
 5953 09f7 32070000 		.4byte	.LASF154
 5954 09fb 0E       		.byte	0xe
 5955 09fc E6       		.byte	0xe6
 5956 09fd D9000000 		.4byte	0xd9
 5957 0a01 30       		.byte	0x30
 5958 0a02 07       		.uleb128 0x7
 5959 0a03 EC070000 		.4byte	.LASF155
 5960 0a07 0E       		.byte	0xe
 5961 0a08 E9       		.byte	0xe9
 5962 0a09 6D0F0000 		.4byte	0xf6d
 5963 0a0d 34       		.byte	0x34
 5964 0a0e 00       		.byte	0
ARM GAS  C:\Users\tmj32\AppData\Local\Temp\ccyJ4BPG.s 			page 128


 5965 0a0f 0D       		.uleb128 0xd
 5966 0a10 04       		.byte	0x4
 5967 0a11 CD080000 		.4byte	0x8cd
 5968 0a15 1B       		.uleb128 0x1b
 5969 0a16 FD020000 		.4byte	0x2fd
 5970 0a1a 250A0000 		.4byte	0xa25
 5971 0a1e 1C       		.uleb128 0x1c
 5972 0a1f 87020000 		.4byte	0x287
 5973 0a23 1F       		.byte	0x1f
 5974 0a24 00       		.byte	0
 5975 0a25 1B       		.uleb128 0x1b
 5976 0a26 AD000000 		.4byte	0xad
 5977 0a2a 350A0000 		.4byte	0xa35
 5978 0a2e 1C       		.uleb128 0x1c
 5979 0a2f 87020000 		.4byte	0x287
 5980 0a33 1F       		.byte	0x1f
 5981 0a34 00       		.byte	0
 5982 0a35 13       		.uleb128 0x13
 5983 0a36 01       		.byte	0x1
 5984 0a37 42000000 		.4byte	0x42
 5985 0a3b 0F       		.byte	0xf
 5986 0a3c 2B       		.byte	0x2b
 5987 0a3d 600A0000 		.4byte	0xa60
 5988 0a41 14       		.uleb128 0x14
 5989 0a42 F9150000 		.4byte	.LASF156
 5990 0a46 00       		.byte	0
 5991 0a47 14       		.uleb128 0x14
 5992 0a48 C40E0000 		.4byte	.LASF157
 5993 0a4c 01       		.byte	0x1
 5994 0a4d 14       		.uleb128 0x14
 5995 0a4e 28110000 		.4byte	.LASF158
 5996 0a52 02       		.byte	0x2
 5997 0a53 14       		.uleb128 0x14
 5998 0a54 260A0000 		.4byte	.LASF159
 5999 0a58 03       		.byte	0x3
 6000 0a59 14       		.uleb128 0x14
 6001 0a5a B1070000 		.4byte	.LASF160
 6002 0a5e 04       		.byte	0x4
 6003 0a5f 00       		.byte	0
 6004 0a60 02       		.uleb128 0x2
 6005 0a61 D2090000 		.4byte	.LASF161
 6006 0a65 0F       		.byte	0xf
 6007 0a66 33       		.byte	0x33
 6008 0a67 AD000000 		.4byte	0xad
 6009 0a6b 02       		.uleb128 0x2
 6010 0a6c FF060000 		.4byte	.LASF162
 6011 0a70 0F       		.byte	0xf
 6012 0a71 37       		.byte	0x37
 6013 0a72 AD000000 		.4byte	0xad
 6014 0a76 06       		.uleb128 0x6
 6015 0a77 10       		.byte	0x10
 6016 0a78 0F       		.byte	0xf
 6017 0a79 3A       		.byte	0x3a
 6018 0a7a BB0A0000 		.4byte	0xabb
 6019 0a7e 07       		.uleb128 0x7
 6020 0a7f 4E020000 		.4byte	.LASF163
 6021 0a83 0F       		.byte	0xf
ARM GAS  C:\Users\tmj32\AppData\Local\Temp\ccyJ4BPG.s 			page 129


 6022 0a84 3C       		.byte	0x3c
 6023 0a85 BD020000 		.4byte	0x2bd
 6024 0a89 00       		.byte	0
 6025 0a8a 08       		.uleb128 0x8
 6026 0a8b 6B657900 		.ascii	"key\000"
 6027 0a8f 0F       		.byte	0xf
 6028 0a90 3D       		.byte	0x3d
 6029 0a91 CE000000 		.4byte	0xce
 6030 0a95 04       		.byte	0x4
 6031 0a96 07       		.uleb128 0x7
 6032 0a97 5C050000 		.4byte	.LASF164
 6033 0a9b 0F       		.byte	0xf
 6034 0a9c 3E       		.byte	0x3e
 6035 0a9d CE000000 		.4byte	0xce
 6036 0aa1 08       		.byte	0x8
 6037 0aa2 07       		.uleb128 0x7
 6038 0aa3 AE0C0000 		.4byte	.LASF165
 6039 0aa7 0F       		.byte	0xf
 6040 0aa8 3F       		.byte	0x3f
 6041 0aa9 B8000000 		.4byte	0xb8
 6042 0aad 0C       		.byte	0xc
 6043 0aae 07       		.uleb128 0x7
 6044 0aaf B4010000 		.4byte	.LASF166
 6045 0ab3 0F       		.byte	0xf
 6046 0ab4 41       		.byte	0x41
 6047 0ab5 6B0A0000 		.4byte	0xa6b
 6048 0ab9 0E       		.byte	0xe
 6049 0aba 00       		.byte	0
 6050 0abb 02       		.uleb128 0x2
 6051 0abc E3140000 		.4byte	.LASF167
 6052 0ac0 0F       		.byte	0xf
 6053 0ac1 42       		.byte	0x42
 6054 0ac2 760A0000 		.4byte	0xa76
 6055 0ac6 09       		.uleb128 0x9
 6056 0ac7 17020000 		.4byte	.LASF168
 6057 0acb 1C       		.byte	0x1c
 6058 0acc 0F       		.byte	0xf
 6059 0acd 45       		.byte	0x45
 6060 0ace 3F0B0000 		.4byte	0xb3f
 6061 0ad2 07       		.uleb128 0x7
 6062 0ad3 EA010000 		.4byte	.LASF56
 6063 0ad7 0F       		.byte	0xf
 6064 0ad8 49       		.byte	0x49
 6065 0ad9 600A0000 		.4byte	0xa60
 6066 0add 00       		.byte	0
 6067 0ade 07       		.uleb128 0x7
 6068 0adf A4030000 		.4byte	.LASF169
 6069 0ae3 0F       		.byte	0xf
 6070 0ae4 4E       		.byte	0x4e
 6071 0ae5 5F0B0000 		.4byte	0xb5f
 6072 0ae9 04       		.byte	0x4
 6073 0aea 07       		.uleb128 0x7
 6074 0aeb 3A0F0000 		.4byte	.LASF170
 6075 0aef 0F       		.byte	0xf
 6076 0af0 52       		.byte	0x52
 6077 0af1 750B0000 		.4byte	0xb75
 6078 0af5 08       		.byte	0x8
ARM GAS  C:\Users\tmj32\AppData\Local\Temp\ccyJ4BPG.s 			page 130


 6079 0af6 07       		.uleb128 0x7
 6080 0af7 7E0C0000 		.4byte	.LASF171
 6081 0afb 0F       		.byte	0xf
 6082 0afc 59       		.byte	0x59
 6083 0afd 7B0B0000 		.4byte	0xb7b
 6084 0b01 0C       		.byte	0xc
 6085 0b02 07       		.uleb128 0x7
 6086 0b03 100F0000 		.4byte	.LASF172
 6087 0b07 0F       		.byte	0xf
 6088 0b08 5C       		.byte	0x5c
 6089 0b09 C7080000 		.4byte	0x8c7
 6090 0b0d 10       		.byte	0x10
 6091 0b0e 07       		.uleb128 0x7
 6092 0b0f B5140000 		.4byte	.LASF173
 6093 0b13 0F       		.byte	0xf
 6094 0b14 5F       		.byte	0x5f
 6095 0b15 AD000000 		.4byte	0xad
 6096 0b19 14       		.byte	0x14
 6097 0b1a 07       		.uleb128 0x7
 6098 0b1b F4060000 		.4byte	.LASF144
 6099 0b1f 0F       		.byte	0xf
 6100 0b20 62       		.byte	0x62
 6101 0b21 AD000000 		.4byte	0xad
 6102 0b25 15       		.byte	0x15
 6103 0b26 07       		.uleb128 0x7
 6104 0b27 E20F0000 		.4byte	.LASF174
 6105 0b2b 0F       		.byte	0xf
 6106 0b2c 65       		.byte	0x65
 6107 0b2d C3000000 		.4byte	0xc3
 6108 0b31 16       		.byte	0x16
 6109 0b32 07       		.uleb128 0x7
 6110 0b33 3F070000 		.4byte	.LASF175
 6111 0b37 0F       		.byte	0xf
 6112 0b38 68       		.byte	0x68
 6113 0b39 C3000000 		.4byte	0xc3
 6114 0b3d 18       		.byte	0x18
 6115 0b3e 00       		.byte	0
 6116 0b3f 0B       		.uleb128 0xb
 6117 0b40 BF010000 		.4byte	0x1bf
 6118 0b44 530B0000 		.4byte	0xb53
 6119 0b48 0C       		.uleb128 0xc
 6120 0b49 530B0000 		.4byte	0xb53
 6121 0b4d 0C       		.uleb128 0xc
 6122 0b4e 590B0000 		.4byte	0xb59
 6123 0b52 00       		.byte	0
 6124 0b53 0D       		.uleb128 0xd
 6125 0b54 04       		.byte	0x4
 6126 0b55 C60A0000 		.4byte	0xac6
 6127 0b59 0D       		.uleb128 0xd
 6128 0b5a 04       		.byte	0x4
 6129 0b5b BB0A0000 		.4byte	0xabb
 6130 0b5f 0D       		.uleb128 0xd
 6131 0b60 04       		.byte	0x4
 6132 0b61 3F0B0000 		.4byte	0xb3f
 6133 0b65 15       		.uleb128 0x15
 6134 0b66 750B0000 		.4byte	0xb75
 6135 0b6a 0C       		.uleb128 0xc
ARM GAS  C:\Users\tmj32\AppData\Local\Temp\ccyJ4BPG.s 			page 131


 6136 0b6b 530B0000 		.4byte	0xb53
 6137 0b6f 0C       		.uleb128 0xc
 6138 0b70 AD000000 		.4byte	0xad
 6139 0b74 00       		.byte	0
 6140 0b75 0D       		.uleb128 0xd
 6141 0b76 04       		.byte	0x4
 6142 0b77 650B0000 		.4byte	0xb65
 6143 0b7b 0D       		.uleb128 0xd
 6144 0b7c 04       		.byte	0x4
 6145 0b7d 3B080000 		.4byte	0x83b
 6146 0b81 02       		.uleb128 0x2
 6147 0b82 82140000 		.4byte	.LASF176
 6148 0b86 0F       		.byte	0xf
 6149 0b87 69       		.byte	0x69
 6150 0b88 C60A0000 		.4byte	0xac6
 6151 0b8c 06       		.uleb128 0x6
 6152 0b8d 24       		.byte	0x24
 6153 0b8e 0F       		.byte	0xf
 6154 0b8f 73       		.byte	0x73
 6155 0b90 130C0000 		.4byte	0xc13
 6156 0b94 07       		.uleb128 0x7
 6157 0b95 88090000 		.4byte	.LASF177
 6158 0b99 0F       		.byte	0xf
 6159 0b9a 75       		.byte	0x75
 6160 0b9b BD020000 		.4byte	0x2bd
 6161 0b9f 00       		.byte	0
 6162 0ba0 07       		.uleb128 0x7
 6163 0ba1 640B0000 		.4byte	.LASF178
 6164 0ba5 0F       		.byte	0xf
 6165 0ba6 76       		.byte	0x76
 6166 0ba7 BD020000 		.4byte	0x2bd
 6167 0bab 04       		.byte	0x4
 6168 0bac 07       		.uleb128 0x7
 6169 0bad A40E0000 		.4byte	.LASF179
 6170 0bb1 0F       		.byte	0xf
 6171 0bb2 77       		.byte	0x77
 6172 0bb3 BD020000 		.4byte	0x2bd
 6173 0bb7 08       		.byte	0x8
 6174 0bb8 07       		.uleb128 0x7
 6175 0bb9 B20E0000 		.4byte	.LASF180
 6176 0bbd 0F       		.byte	0xf
 6177 0bbe 78       		.byte	0x78
 6178 0bbf BD020000 		.4byte	0x2bd
 6179 0bc3 0C       		.byte	0xc
 6180 0bc4 07       		.uleb128 0x7
 6181 0bc5 89050000 		.4byte	.LASF181
 6182 0bc9 0F       		.byte	0xf
 6183 0bca 79       		.byte	0x79
 6184 0bcb BD020000 		.4byte	0x2bd
 6185 0bcf 10       		.byte	0x10
 6186 0bd0 07       		.uleb128 0x7
 6187 0bd1 A40B0000 		.4byte	.LASF182
 6188 0bd5 0F       		.byte	0xf
 6189 0bd6 7A       		.byte	0x7a
 6190 0bd7 0F0A0000 		.4byte	0xa0f
 6191 0bdb 14       		.byte	0x14
 6192 0bdc 07       		.uleb128 0x7
ARM GAS  C:\Users\tmj32\AppData\Local\Temp\ccyJ4BPG.s 			page 132


 6193 0bdd 92090000 		.4byte	.LASF183
 6194 0be1 0F       		.byte	0xf
 6195 0be2 7B       		.byte	0x7b
 6196 0be3 0F0A0000 		.4byte	0xa0f
 6197 0be7 18       		.byte	0x18
 6198 0be8 07       		.uleb128 0x7
 6199 0be9 B2030000 		.4byte	.LASF184
 6200 0bed 0F       		.byte	0xf
 6201 0bee 7D       		.byte	0x7d
 6202 0bef 0F0A0000 		.4byte	0xa0f
 6203 0bf3 1C       		.byte	0x1c
 6204 0bf4 0A       		.uleb128 0xa
 6205 0bf5 B1120000 		.4byte	.LASF185
 6206 0bf9 0F       		.byte	0xf
 6207 0bfa 80       		.byte	0x80
 6208 0bfb AD000000 		.4byte	0xad
 6209 0bff 01       		.byte	0x1
 6210 0c00 01       		.byte	0x1
 6211 0c01 07       		.byte	0x7
 6212 0c02 20       		.byte	0x20
 6213 0c03 0A       		.uleb128 0xa
 6214 0c04 66120000 		.4byte	.LASF186
 6215 0c08 0F       		.byte	0xf
 6216 0c09 81       		.byte	0x81
 6217 0c0a AD000000 		.4byte	0xad
 6218 0c0e 01       		.byte	0x1
 6219 0c0f 01       		.byte	0x1
 6220 0c10 06       		.byte	0x6
 6221 0c11 20       		.byte	0x20
 6222 0c12 00       		.byte	0
 6223 0c13 06       		.uleb128 0x6
 6224 0c14 08       		.byte	0x8
 6225 0c15 0F       		.byte	0xf
 6226 0c16 83       		.byte	0x83
 6227 0c17 340C0000 		.4byte	0xc34
 6228 0c1b 07       		.uleb128 0x7
 6229 0c1c 18030000 		.4byte	.LASF187
 6230 0c20 0F       		.byte	0xf
 6231 0c21 85       		.byte	0x85
 6232 0c22 6B0A0000 		.4byte	0xa6b
 6233 0c26 00       		.byte	0
 6234 0c27 07       		.uleb128 0x7
 6235 0c28 58080000 		.4byte	.LASF188
 6236 0c2c 0F       		.byte	0xf
 6237 0c2d 86       		.byte	0x86
 6238 0c2e CE000000 		.4byte	0xce
 6239 0c32 04       		.byte	0x4
 6240 0c33 00       		.byte	0
 6241 0c34 0F       		.uleb128 0xf
 6242 0c35 24       		.byte	0x24
 6243 0c36 0F       		.byte	0xf
 6244 0c37 71       		.byte	0x71
 6245 0c38 530C0000 		.4byte	0xc53
 6246 0c3c 11       		.uleb128 0x11
 6247 0c3d B6060000 		.4byte	.LASF189
 6248 0c41 0F       		.byte	0xf
 6249 0c42 82       		.byte	0x82
ARM GAS  C:\Users\tmj32\AppData\Local\Temp\ccyJ4BPG.s 			page 133


 6250 0c43 8C0B0000 		.4byte	0xb8c
 6251 0c47 11       		.uleb128 0x11
 6252 0c48 94130000 		.4byte	.LASF190
 6253 0c4c 0F       		.byte	0xf
 6254 0c4d 87       		.byte	0x87
 6255 0c4e 130C0000 		.4byte	0xc13
 6256 0c52 00       		.byte	0
 6257 0c53 09       		.uleb128 0x9
 6258 0c54 C00F0000 		.4byte	.LASF191
 6259 0c58 34       		.byte	0x34
 6260 0c59 0F       		.byte	0xf
 6261 0c5a 6E       		.byte	0x6e
 6262 0c5b CC0C0000 		.4byte	0xccc
 6263 0c5f 07       		.uleb128 0x7
 6264 0c60 B4010000 		.4byte	.LASF166
 6265 0c64 0F       		.byte	0xf
 6266 0c65 70       		.byte	0x70
 6267 0c66 6B0A0000 		.4byte	0xa6b
 6268 0c6a 00       		.byte	0
 6269 0c6b 07       		.uleb128 0x7
 6270 0c6c DB160000 		.4byte	.LASF192
 6271 0c70 0F       		.byte	0xf
 6272 0c71 88       		.byte	0x88
 6273 0c72 340C0000 		.4byte	0xc34
 6274 0c76 04       		.byte	0x4
 6275 0c77 07       		.uleb128 0x7
 6276 0c78 DA0E0000 		.4byte	.LASF193
 6277 0c7c 0F       		.byte	0xf
 6278 0c7d 8A       		.byte	0x8a
 6279 0c7e CE000000 		.4byte	0xce
 6280 0c82 28       		.byte	0x28
 6281 0c83 07       		.uleb128 0x7
 6282 0c84 4B120000 		.4byte	.LASF194
 6283 0c88 0F       		.byte	0xf
 6284 0c89 8B       		.byte	0x8b
 6285 0c8a CE000000 		.4byte	0xce
 6286 0c8e 2C       		.byte	0x2c
 6287 0c8f 0A       		.uleb128 0xa
 6288 0c90 76160000 		.4byte	.LASF195
 6289 0c94 0F       		.byte	0xf
 6290 0c95 8E       		.byte	0x8e
 6291 0c96 AD000000 		.4byte	0xad
 6292 0c9a 01       		.byte	0x1
 6293 0c9b 01       		.byte	0x1
 6294 0c9c 07       		.byte	0x7
 6295 0c9d 30       		.byte	0x30
 6296 0c9e 0A       		.uleb128 0xa
 6297 0c9f DA100000 		.4byte	.LASF196
 6298 0ca3 0F       		.byte	0xf
 6299 0ca4 8F       		.byte	0x8f
 6300 0ca5 AD000000 		.4byte	0xad
 6301 0ca9 01       		.byte	0x1
 6302 0caa 01       		.byte	0x1
 6303 0cab 06       		.byte	0x6
 6304 0cac 30       		.byte	0x30
 6305 0cad 0A       		.uleb128 0xa
 6306 0cae 72080000 		.4byte	.LASF197
ARM GAS  C:\Users\tmj32\AppData\Local\Temp\ccyJ4BPG.s 			page 134


 6307 0cb2 0F       		.byte	0xf
 6308 0cb3 90       		.byte	0x90
 6309 0cb4 AD000000 		.4byte	0xad
 6310 0cb8 01       		.byte	0x1
 6311 0cb9 01       		.byte	0x1
 6312 0cba 05       		.byte	0x5
 6313 0cbb 30       		.byte	0x30
 6314 0cbc 0A       		.uleb128 0xa
 6315 0cbd 37080000 		.4byte	.LASF198
 6316 0cc1 0F       		.byte	0xf
 6317 0cc2 91       		.byte	0x91
 6318 0cc3 AD000000 		.4byte	0xad
 6319 0cc7 01       		.byte	0x1
 6320 0cc8 01       		.byte	0x1
 6321 0cc9 04       		.byte	0x4
 6322 0cca 30       		.byte	0x30
 6323 0ccb 00       		.byte	0
 6324 0ccc 02       		.uleb128 0x2
 6325 0ccd 29140000 		.4byte	.LASF199
 6326 0cd1 0F       		.byte	0xf
 6327 0cd2 92       		.byte	0x92
 6328 0cd3 530C0000 		.4byte	0xc53
 6329 0cd7 09       		.uleb128 0x9
 6330 0cd8 A9020000 		.4byte	.LASF200
 6331 0cdc 5C       		.byte	0x5c
 6332 0cdd 0F       		.byte	0xf
 6333 0cde 99       		.byte	0x99
 6334 0cdf 200D0000 		.4byte	0xd20
 6335 0ce3 07       		.uleb128 0x7
 6336 0ce4 31130000 		.4byte	.LASF124
 6337 0ce8 0F       		.byte	0xf
 6338 0ce9 9B       		.byte	0x9b
 6339 0cea 810B0000 		.4byte	0xb81
 6340 0cee 00       		.byte	0
 6341 0cef 07       		.uleb128 0x7
 6342 0cf0 DF050000 		.4byte	.LASF201
 6343 0cf4 0F       		.byte	0xf
 6344 0cf5 9C       		.byte	0x9c
 6345 0cf6 CC0C0000 		.4byte	0xccc
 6346 0cfa 1C       		.byte	0x1c
 6347 0cfb 07       		.uleb128 0x7
 6348 0cfc 21170000 		.4byte	.LASF202
 6349 0d00 0F       		.byte	0xf
 6350 0d01 9D       		.byte	0x9d
 6351 0d02 0F0A0000 		.4byte	0xa0f
 6352 0d06 50       		.byte	0x50
 6353 0d07 07       		.uleb128 0x7
 6354 0d08 7D090000 		.4byte	.LASF203
 6355 0d0c 0F       		.byte	0xf
 6356 0d0d 9E       		.byte	0x9e
 6357 0d0e 250D0000 		.4byte	0xd25
 6358 0d12 54       		.byte	0x54
 6359 0d13 07       		.uleb128 0x7
 6360 0d14 19080000 		.4byte	.LASF204
 6361 0d18 0F       		.byte	0xf
 6362 0d19 9F       		.byte	0x9f
 6363 0d1a 2B0D0000 		.4byte	0xd2b
ARM GAS  C:\Users\tmj32\AppData\Local\Temp\ccyJ4BPG.s 			page 135


 6364 0d1e 58       		.byte	0x58
 6365 0d1f 00       		.byte	0
 6366 0d20 1D       		.uleb128 0x1d
 6367 0d21 28170000 		.4byte	.LASF455
 6368 0d25 0D       		.uleb128 0xd
 6369 0d26 04       		.byte	0x4
 6370 0d27 200D0000 		.4byte	0xd20
 6371 0d2b 0D       		.uleb128 0xd
 6372 0d2c 04       		.byte	0x4
 6373 0d2d 310D0000 		.4byte	0xd31
 6374 0d31 0E       		.uleb128 0xe
 6375 0d32 BD020000 		.4byte	0x2bd
 6376 0d36 02       		.uleb128 0x2
 6377 0d37 0E080000 		.4byte	.LASF205
 6378 0d3b 0F       		.byte	0xf
 6379 0d3c A1       		.byte	0xa1
 6380 0d3d D70C0000 		.4byte	0xcd7
 6381 0d41 13       		.uleb128 0x13
 6382 0d42 01       		.byte	0x1
 6383 0d43 42000000 		.4byte	0x42
 6384 0d47 0E       		.byte	0xe
 6385 0d48 3D       		.byte	0x3d
 6386 0d49 600D0000 		.4byte	0xd60
 6387 0d4d 14       		.uleb128 0x14
 6388 0d4e 580D0000 		.4byte	.LASF206
 6389 0d52 00       		.byte	0
 6390 0d53 14       		.uleb128 0x14
 6391 0d54 70050000 		.4byte	.LASF207
 6392 0d58 01       		.byte	0x1
 6393 0d59 14       		.uleb128 0x14
 6394 0d5a CB050000 		.4byte	.LASF208
 6395 0d5e 02       		.byte	0x2
 6396 0d5f 00       		.byte	0
 6397 0d60 02       		.uleb128 0x2
 6398 0d61 E70E0000 		.4byte	.LASF209
 6399 0d65 0E       		.byte	0xe
 6400 0d66 42       		.byte	0x42
 6401 0d67 AD000000 		.4byte	0xad
 6402 0d6b 02       		.uleb128 0x2
 6403 0d6c 70170000 		.4byte	.LASF210
 6404 0d70 0E       		.byte	0xe
 6405 0d71 48       		.byte	0x48
 6406 0d72 760D0000 		.4byte	0xd76
 6407 0d76 0D       		.uleb128 0xd
 6408 0d77 04       		.byte	0x4
 6409 0d78 7C0D0000 		.4byte	0xd7c
 6410 0d7c 0B       		.uleb128 0xb
 6411 0d7d BF010000 		.4byte	0x1bf
 6412 0d81 950D0000 		.4byte	0xd95
 6413 0d85 0C       		.uleb128 0xc
 6414 0d86 0F0A0000 		.4byte	0xa0f
 6415 0d8a 0C       		.uleb128 0xc
 6416 0d8b AD070000 		.4byte	0x7ad
 6417 0d8f 0C       		.uleb128 0xc
 6418 0d90 600D0000 		.4byte	0xd60
 6419 0d94 00       		.byte	0
 6420 0d95 13       		.uleb128 0x13
ARM GAS  C:\Users\tmj32\AppData\Local\Temp\ccyJ4BPG.s 			page 136


 6421 0d96 01       		.byte	0x1
 6422 0d97 42000000 		.4byte	0x42
 6423 0d9b 0E       		.byte	0xe
 6424 0d9c 4A       		.byte	0x4a
 6425 0d9d 1A0E0000 		.4byte	0xe1a
 6426 0da1 14       		.uleb128 0x14
 6427 0da2 5E0F0000 		.4byte	.LASF211
 6428 0da6 00       		.byte	0
 6429 0da7 14       		.uleb128 0x14
 6430 0da8 A70D0000 		.4byte	.LASF212
 6431 0dac 01       		.byte	0x1
 6432 0dad 14       		.uleb128 0x14
 6433 0dae 1F160000 		.4byte	.LASF213
 6434 0db2 02       		.byte	0x2
 6435 0db3 14       		.uleb128 0x14
 6436 0db4 1F0E0000 		.4byte	.LASF214
 6437 0db8 03       		.byte	0x3
 6438 0db9 14       		.uleb128 0x14
 6439 0dba EF010000 		.4byte	.LASF215
 6440 0dbe 04       		.byte	0x4
 6441 0dbf 14       		.uleb128 0x14
 6442 0dc0 490E0000 		.4byte	.LASF216
 6443 0dc4 05       		.byte	0x5
 6444 0dc5 14       		.uleb128 0x14
 6445 0dc6 7E070000 		.4byte	.LASF217
 6446 0dca 06       		.byte	0x6
 6447 0dcb 14       		.uleb128 0x14
 6448 0dcc 34170000 		.4byte	.LASF218
 6449 0dd0 07       		.byte	0x7
 6450 0dd1 14       		.uleb128 0x14
 6451 0dd2 D2060000 		.4byte	.LASF219
 6452 0dd6 08       		.byte	0x8
 6453 0dd7 14       		.uleb128 0x14
 6454 0dd8 FE0E0000 		.4byte	.LASF220
 6455 0ddc 09       		.byte	0x9
 6456 0ddd 14       		.uleb128 0x14
 6457 0dde F4070000 		.4byte	.LASF221
 6458 0de2 0A       		.byte	0xa
 6459 0de3 14       		.uleb128 0x14
 6460 0de4 E1150000 		.4byte	.LASF222
 6461 0de8 0B       		.byte	0xb
 6462 0de9 14       		.uleb128 0x14
 6463 0dea 7E060000 		.4byte	.LASF223
 6464 0dee 0C       		.byte	0xc
 6465 0def 14       		.uleb128 0x14
 6466 0df0 39140000 		.4byte	.LASF224
 6467 0df4 0D       		.byte	0xd
 6468 0df5 14       		.uleb128 0x14
 6469 0df6 E80C0000 		.4byte	.LASF225
 6470 0dfa 0E       		.byte	0xe
 6471 0dfb 14       		.uleb128 0x14
 6472 0dfc E0000000 		.4byte	.LASF226
 6473 0e00 0F       		.byte	0xf
 6474 0e01 14       		.uleb128 0x14
 6475 0e02 60090000 		.4byte	.LASF227
 6476 0e06 10       		.byte	0x10
 6477 0e07 14       		.uleb128 0x14
ARM GAS  C:\Users\tmj32\AppData\Local\Temp\ccyJ4BPG.s 			page 137


 6478 0e08 DD070000 		.4byte	.LASF228
 6479 0e0c 11       		.byte	0x11
 6480 0e0d 14       		.uleb128 0x14
 6481 0e0e 890F0000 		.4byte	.LASF229
 6482 0e12 12       		.byte	0x12
 6483 0e13 14       		.uleb128 0x14
 6484 0e14 360C0000 		.4byte	.LASF230
 6485 0e18 13       		.byte	0x13
 6486 0e19 00       		.byte	0
 6487 0e1a 02       		.uleb128 0x2
 6488 0e1b A9010000 		.4byte	.LASF231
 6489 0e1f 0E       		.byte	0xe
 6490 0e20 61       		.byte	0x61
 6491 0e21 AD000000 		.4byte	0xad
 6492 0e25 02       		.uleb128 0x2
 6493 0e26 83160000 		.4byte	.LASF232
 6494 0e2a 0E       		.byte	0xe
 6495 0e2b 68       		.byte	0x68
 6496 0e2c 300E0000 		.4byte	0xe30
 6497 0e30 0D       		.uleb128 0xd
 6498 0e31 04       		.byte	0x4
 6499 0e32 360E0000 		.4byte	0xe36
 6500 0e36 15       		.uleb128 0x15
 6501 0e37 460E0000 		.4byte	0xe46
 6502 0e3b 0C       		.uleb128 0xc
 6503 0e3c 0F0A0000 		.4byte	0xa0f
 6504 0e40 0C       		.uleb128 0xc
 6505 0e41 1A0E0000 		.4byte	0xe1a
 6506 0e45 00       		.byte	0
 6507 0e46 13       		.uleb128 0x13
 6508 0e47 01       		.byte	0x1
 6509 0e48 42000000 		.4byte	0x42
 6510 0e4c 0E       		.byte	0xe
 6511 0e4d 6D       		.byte	0x6d
 6512 0e4e CB0E0000 		.4byte	0xecb
 6513 0e52 14       		.uleb128 0x14
 6514 0e53 EB0B0000 		.4byte	.LASF233
 6515 0e57 00       		.byte	0
 6516 0e58 14       		.uleb128 0x14
 6517 0e59 530C0000 		.4byte	.LASF234
 6518 0e5d 01       		.byte	0x1
 6519 0e5e 14       		.uleb128 0x14
 6520 0e5f A3130000 		.4byte	.LASF235
 6521 0e63 02       		.byte	0x2
 6522 0e64 14       		.uleb128 0x14
 6523 0e65 6F0F0000 		.4byte	.LASF236
 6524 0e69 03       		.byte	0x3
 6525 0e6a 14       		.uleb128 0x14
 6526 0e6b A7000000 		.4byte	.LASF237
 6527 0e6f 04       		.byte	0x4
 6528 0e70 14       		.uleb128 0x14
 6529 0e71 91140000 		.4byte	.LASF238
 6530 0e75 05       		.byte	0x5
 6531 0e76 14       		.uleb128 0x14
 6532 0e77 B3040000 		.4byte	.LASF239
 6533 0e7b 06       		.byte	0x6
 6534 0e7c 14       		.uleb128 0x14
ARM GAS  C:\Users\tmj32\AppData\Local\Temp\ccyJ4BPG.s 			page 138


 6535 0e7d 24080000 		.4byte	.LASF240
 6536 0e81 07       		.byte	0x7
 6537 0e82 14       		.uleb128 0x14
 6538 0e83 D8010000 		.4byte	.LASF241
 6539 0e87 08       		.byte	0x8
 6540 0e88 14       		.uleb128 0x14
 6541 0e89 0C0E0000 		.4byte	.LASF242
 6542 0e8d 09       		.byte	0x9
 6543 0e8e 14       		.uleb128 0x14
 6544 0e8f 1A0F0000 		.4byte	.LASF243
 6545 0e93 0A       		.byte	0xa
 6546 0e94 14       		.uleb128 0x14
 6547 0e95 990F0000 		.4byte	.LASF244
 6548 0e99 0B       		.byte	0xb
 6549 0e9a 14       		.uleb128 0x14
 6550 0e9b 02010000 		.4byte	.LASF245
 6551 0e9f 0C       		.byte	0xc
 6552 0ea0 14       		.uleb128 0x14
 6553 0ea1 82040000 		.4byte	.LASF246
 6554 0ea5 0D       		.byte	0xd
 6555 0ea6 14       		.uleb128 0x14
 6556 0ea7 6B010000 		.4byte	.LASF247
 6557 0eab 0E       		.byte	0xe
 6558 0eac 14       		.uleb128 0x14
 6559 0ead 460F0000 		.4byte	.LASF248
 6560 0eb1 0F       		.byte	0xf
 6561 0eb2 14       		.uleb128 0x14
 6562 0eb3 2C090000 		.4byte	.LASF249
 6563 0eb7 10       		.byte	0x10
 6564 0eb8 14       		.uleb128 0x14
 6565 0eb9 6C060000 		.4byte	.LASF250
 6566 0ebd 11       		.byte	0x11
 6567 0ebe 14       		.uleb128 0x14
 6568 0ebf 150B0000 		.4byte	.LASF251
 6569 0ec3 12       		.byte	0x12
 6570 0ec4 14       		.uleb128 0x14
 6571 0ec5 E2090000 		.4byte	.LASF252
 6572 0ec9 13       		.byte	0x13
 6573 0eca 00       		.byte	0
 6574 0ecb 02       		.uleb128 0x2
 6575 0ecc D10F0000 		.4byte	.LASF253
 6576 0ed0 0E       		.byte	0xe
 6577 0ed1 88       		.byte	0x88
 6578 0ed2 AD000000 		.4byte	0xad
 6579 0ed6 02       		.uleb128 0x2
 6580 0ed7 32050000 		.4byte	.LASF254
 6581 0edb 0E       		.byte	0xe
 6582 0edc 8A       		.byte	0x8a
 6583 0edd E10E0000 		.4byte	0xee1
 6584 0ee1 0D       		.uleb128 0xd
 6585 0ee2 04       		.byte	0x4
 6586 0ee3 E70E0000 		.4byte	0xee7
 6587 0ee7 0B       		.uleb128 0xb
 6588 0ee8 94050000 		.4byte	0x594
 6589 0eec 000F0000 		.4byte	0xf00
 6590 0ef0 0C       		.uleb128 0xc
 6591 0ef1 0F0A0000 		.4byte	0xa0f
ARM GAS  C:\Users\tmj32\AppData\Local\Temp\ccyJ4BPG.s 			page 139


 6592 0ef5 0C       		.uleb128 0xc
 6593 0ef6 CB0E0000 		.4byte	0xecb
 6594 0efa 0C       		.uleb128 0xc
 6595 0efb E4000000 		.4byte	0xe4
 6596 0eff 00       		.byte	0
 6597 0f00 02       		.uleb128 0x2
 6598 0f01 60010000 		.4byte	.LASF255
 6599 0f05 0E       		.byte	0xe
 6600 0f06 A4       		.byte	0xa4
 6601 0f07 AD000000 		.4byte	0xad
 6602 0f0b 06       		.uleb128 0x6
 6603 0f0c 0C       		.byte	0xc
 6604 0f0d 0E       		.byte	0xe
 6605 0f0e A7       		.byte	0xa7
 6606 0f0f 620F0000 		.4byte	0xf62
 6607 0f13 07       		.uleb128 0x7
 6608 0f14 53130000 		.4byte	.LASF256
 6609 0f18 0E       		.byte	0xe
 6610 0f19 A9       		.byte	0xa9
 6611 0f1a 620F0000 		.4byte	0xf62
 6612 0f1e 00       		.byte	0
 6613 0f1f 07       		.uleb128 0x7
 6614 0f20 CB120000 		.4byte	.LASF257
 6615 0f24 0E       		.byte	0xe
 6616 0f25 AA       		.byte	0xaa
 6617 0f26 D9000000 		.4byte	0xd9
 6618 0f2a 04       		.byte	0x4
 6619 0f2b 07       		.uleb128 0x7
 6620 0f2c B5100000 		.4byte	.LASF258
 6621 0f30 0E       		.byte	0xe
 6622 0f31 AB       		.byte	0xab
 6623 0f32 D9000000 		.4byte	0xd9
 6624 0f36 06       		.byte	0x6
 6625 0f37 07       		.uleb128 0x7
 6626 0f38 FD0B0000 		.4byte	.LASF259
 6627 0f3c 0E       		.byte	0xe
 6628 0f3d AC       		.byte	0xac
 6629 0f3e 000F0000 		.4byte	0xf00
 6630 0f42 08       		.byte	0x8
 6631 0f43 0A       		.uleb128 0xa
 6632 0f44 3B0D0000 		.4byte	.LASF260
 6633 0f48 0E       		.byte	0xe
 6634 0f49 AD       		.byte	0xad
 6635 0f4a AD000000 		.4byte	0xad
 6636 0f4e 01       		.byte	0x1
 6637 0f4f 01       		.byte	0x1
 6638 0f50 07       		.byte	0x7
 6639 0f51 09       		.byte	0x9
 6640 0f52 0A       		.uleb128 0xa
 6641 0f53 99160000 		.4byte	.LASF261
 6642 0f57 0E       		.byte	0xe
 6643 0f58 AE       		.byte	0xae
 6644 0f59 AD000000 		.4byte	0xad
 6645 0f5d 01       		.byte	0x1
 6646 0f5e 01       		.byte	0x1
 6647 0f5f 06       		.byte	0x6
 6648 0f60 09       		.byte	0x9
ARM GAS  C:\Users\tmj32\AppData\Local\Temp\ccyJ4BPG.s 			page 140


 6649 0f61 00       		.byte	0
 6650 0f62 0D       		.uleb128 0xd
 6651 0f63 04       		.byte	0x4
 6652 0f64 680F0000 		.4byte	0xf68
 6653 0f68 0E       		.uleb128 0xe
 6654 0f69 CD080000 		.4byte	0x8cd
 6655 0f6d 02       		.uleb128 0x2
 6656 0f6e 1E010000 		.4byte	.LASF262
 6657 0f72 0E       		.byte	0xe
 6658 0f73 B0       		.byte	0xb0
 6659 0f74 0B0F0000 		.4byte	0xf0b
 6660 0f78 02       		.uleb128 0x2
 6661 0f79 900E0000 		.4byte	.LASF263
 6662 0f7d 0E       		.byte	0xe
 6663 0f7e B9       		.byte	0xb9
 6664 0f7f AD000000 		.4byte	0xad
 6665 0f83 0D       		.uleb128 0xd
 6666 0f84 04       		.byte	0x4
 6667 0f85 890F0000 		.4byte	0xf89
 6668 0f89 0E       		.uleb128 0xe
 6669 0f8a 6A050000 		.4byte	0x56a
 6670 0f8e 02       		.uleb128 0x2
 6671 0f8f D0120000 		.4byte	.LASF264
 6672 0f93 0E       		.byte	0xe
 6673 0f94 F0       		.byte	0xf0
 6674 0f95 CD080000 		.4byte	0x8cd
 6675 0f99 13       		.uleb128 0x13
 6676 0f9a 01       		.byte	0x1
 6677 0f9b 42000000 		.4byte	0x42
 6678 0f9f 10       		.byte	0x10
 6679 0fa0 2B       		.byte	0x2b
 6680 0fa1 C40F0000 		.4byte	0xfc4
 6681 0fa5 14       		.uleb128 0x14
 6682 0fa6 EE050000 		.4byte	.LASF265
 6683 0faa 00       		.byte	0
 6684 0fab 14       		.uleb128 0x14
 6685 0fac C4030000 		.4byte	.LASF266
 6686 0fb0 01       		.byte	0x1
 6687 0fb1 14       		.uleb128 0x14
 6688 0fb2 3C090000 		.4byte	.LASF267
 6689 0fb6 02       		.byte	0x2
 6690 0fb7 14       		.uleb128 0x14
 6691 0fb8 99070000 		.4byte	.LASF268
 6692 0fbc 04       		.byte	0x4
 6693 0fbd 14       		.uleb128 0x14
 6694 0fbe 6F030000 		.4byte	.LASF269
 6695 0fc2 08       		.byte	0x8
 6696 0fc3 00       		.byte	0
 6697 0fc4 02       		.uleb128 0x2
 6698 0fc5 700C0000 		.4byte	.LASF270
 6699 0fc9 10       		.byte	0x10
 6700 0fca 32       		.byte	0x32
 6701 0fcb AD000000 		.4byte	0xad
 6702 0fcf 13       		.uleb128 0x13
 6703 0fd0 01       		.byte	0x1
 6704 0fd1 42000000 		.4byte	0x42
 6705 0fd5 11       		.byte	0x11
ARM GAS  C:\Users\tmj32\AppData\Local\Temp\ccyJ4BPG.s 			page 141


 6706 0fd6 1E       		.byte	0x1e
 6707 0fd7 24100000 		.4byte	0x1024
 6708 0fdb 14       		.uleb128 0x14
 6709 0fdc AA160000 		.4byte	.LASF271
 6710 0fe0 11       		.byte	0x11
 6711 0fe1 14       		.uleb128 0x14
 6712 0fe2 3D110000 		.4byte	.LASF272
 6713 0fe6 12       		.byte	0x12
 6714 0fe7 14       		.uleb128 0x14
 6715 0fe8 5F000000 		.4byte	.LASF273
 6716 0fec 13       		.byte	0x13
 6717 0fed 14       		.uleb128 0x14
 6718 0fee D8030000 		.4byte	.LASF274
 6719 0ff2 14       		.byte	0x14
 6720 0ff3 14       		.uleb128 0x14
 6721 0ff4 59110000 		.4byte	.LASF275
 6722 0ff8 1B       		.byte	0x1b
 6723 0ff9 14       		.uleb128 0x14
 6724 0ffa 64030000 		.4byte	.LASF276
 6725 0ffe 7F       		.byte	0x7f
 6726 0fff 14       		.uleb128 0x14
 6727 1000 14050000 		.4byte	.LASF277
 6728 1004 08       		.byte	0x8
 6729 1005 14       		.uleb128 0x14
 6730 1006 BA010000 		.4byte	.LASF278
 6731 100a 0A       		.byte	0xa
 6732 100b 14       		.uleb128 0x14
 6733 100c 000E0000 		.4byte	.LASF279
 6734 1010 09       		.byte	0x9
 6735 1011 14       		.uleb128 0x14
 6736 1012 47130000 		.4byte	.LASF280
 6737 1016 0B       		.byte	0xb
 6738 1017 14       		.uleb128 0x14
 6739 1018 AC080000 		.4byte	.LASF281
 6740 101c 02       		.byte	0x2
 6741 101d 14       		.uleb128 0x14
 6742 101e 2F0F0000 		.4byte	.LASF282
 6743 1022 03       		.byte	0x3
 6744 1023 00       		.byte	0
 6745 1024 13       		.uleb128 0x13
 6746 1025 01       		.byte	0x1
 6747 1026 42000000 		.4byte	0x42
 6748 102a 12       		.byte	0x12
 6749 102b 2A       		.byte	0x2a
 6750 102c 55100000 		.4byte	0x1055
 6751 1030 14       		.uleb128 0x14
 6752 1031 31020000 		.4byte	.LASF283
 6753 1035 00       		.byte	0
 6754 1036 14       		.uleb128 0x14
 6755 1037 F20F0000 		.4byte	.LASF284
 6756 103b 01       		.byte	0x1
 6757 103c 14       		.uleb128 0x14
 6758 103d C4080000 		.4byte	.LASF285
 6759 1041 02       		.byte	0x2
 6760 1042 14       		.uleb128 0x14
 6761 1043 25000000 		.4byte	.LASF286
 6762 1047 03       		.byte	0x3
ARM GAS  C:\Users\tmj32\AppData\Local\Temp\ccyJ4BPG.s 			page 142


 6763 1048 14       		.uleb128 0x14
 6764 1049 FF0C0000 		.4byte	.LASF287
 6765 104d 04       		.byte	0x4
 6766 104e 14       		.uleb128 0x14
 6767 104f 0F170000 		.4byte	.LASF288
 6768 1053 05       		.byte	0x5
 6769 1054 00       		.byte	0
 6770 1055 1B       		.uleb128 0x1b
 6771 1056 830F0000 		.4byte	0xf83
 6772 105a 65100000 		.4byte	0x1065
 6773 105e 1C       		.uleb128 0x1c
 6774 105f 87020000 		.4byte	0x287
 6775 1063 04       		.byte	0x4
 6776 1064 00       		.byte	0
 6777 1065 13       		.uleb128 0x13
 6778 1066 02       		.byte	0x2
 6779 1067 66000000 		.4byte	0x66
 6780 106b 13       		.byte	0x13
 6781 106c 29       		.byte	0x29
 6782 106d 97100000 		.4byte	0x1097
 6783 1071 14       		.uleb128 0x14
 6784 1072 9A0C0000 		.4byte	.LASF289
 6785 1076 08       		.byte	0x8
 6786 1077 14       		.uleb128 0x14
 6787 1078 3F000000 		.4byte	.LASF290
 6788 107c 10       		.byte	0x10
 6789 107d 14       		.uleb128 0x14
 6790 107e 93020000 		.4byte	.LASF291
 6791 1082 20       		.byte	0x20
 6792 1083 14       		.uleb128 0x14
 6793 1084 5E140000 		.4byte	.LASF292
 6794 1088 40       		.byte	0x40
 6795 1089 14       		.uleb128 0x14
 6796 108a B90D0000 		.4byte	.LASF293
 6797 108e 80       		.byte	0x80
 6798 108f 1E       		.uleb128 0x1e
 6799 1090 2C030000 		.4byte	.LASF294
 6800 1094 0001     		.2byte	0x100
 6801 1096 00       		.byte	0
 6802 1097 02       		.uleb128 0x2
 6803 1098 37060000 		.4byte	.LASF295
 6804 109c 13       		.byte	0x13
 6805 109d 31       		.byte	0x31
 6806 109e C3000000 		.4byte	0xc3
 6807 10a2 06       		.uleb128 0x6
 6808 10a3 28       		.byte	0x28
 6809 10a4 13       		.byte	0x13
 6810 10a5 34       		.byte	0x34
 6811 10a6 1D110000 		.4byte	0x111d
 6812 10aa 07       		.uleb128 0x7
 6813 10ab B8080000 		.4byte	.LASF296
 6814 10af 13       		.byte	0x13
 6815 10b0 38       		.byte	0x38
 6816 10b1 1D110000 		.4byte	0x111d
 6817 10b5 00       		.byte	0
 6818 10b6 07       		.uleb128 0x7
 6819 10b7 A8140000 		.4byte	.LASF297
ARM GAS  C:\Users\tmj32\AppData\Local\Temp\ccyJ4BPG.s 			page 143


 6820 10bb 13       		.byte	0x13
 6821 10bc 39       		.byte	0x39
 6822 10bd D4070000 		.4byte	0x7d4
 6823 10c1 04       		.byte	0x4
 6824 10c2 07       		.uleb128 0x7
 6825 10c3 B6130000 		.4byte	.LASF298
 6826 10c7 13       		.byte	0x13
 6827 10c8 3A       		.byte	0x3a
 6828 10c9 23110000 		.4byte	0x1123
 6829 10cd 08       		.byte	0x8
 6830 10ce 07       		.uleb128 0x7
 6831 10cf B5020000 		.4byte	.LASF299
 6832 10d3 13       		.byte	0x13
 6833 10d4 3B       		.byte	0x3b
 6834 10d5 55100000 		.4byte	0x1055
 6835 10d9 0C       		.byte	0xc
 6836 10da 07       		.uleb128 0x7
 6837 10db 2E0C0000 		.4byte	.LASF300
 6838 10df 13       		.byte	0x13
 6839 10e0 3C       		.byte	0x3c
 6840 10e1 C3000000 		.4byte	0xc3
 6841 10e5 20       		.byte	0x20
 6842 10e6 07       		.uleb128 0x7
 6843 10e7 F2080000 		.4byte	.LASF301
 6844 10eb 13       		.byte	0x13
 6845 10ec 3D       		.byte	0x3d
 6846 10ed C3000000 		.4byte	0xc3
 6847 10f1 22       		.byte	0x22
 6848 10f2 07       		.uleb128 0x7
 6849 10f3 48150000 		.4byte	.LASF302
 6850 10f7 13       		.byte	0x13
 6851 10f8 3E       		.byte	0x3e
 6852 10f9 C3000000 		.4byte	0xc3
 6853 10fd 24       		.byte	0x24
 6854 10fe 0A       		.uleb128 0xa
 6855 10ff 58090000 		.4byte	.LASF303
 6856 1103 13       		.byte	0x13
 6857 1104 3F       		.byte	0x3f
 6858 1105 AD000000 		.4byte	0xad
 6859 1109 01       		.byte	0x1
 6860 110a 01       		.byte	0x1
 6861 110b 07       		.byte	0x7
 6862 110c 26       		.byte	0x26
 6863 110d 0A       		.uleb128 0xa
 6864 110e 21090000 		.4byte	.LASF304
 6865 1112 13       		.byte	0x13
 6866 1113 40       		.byte	0x40
 6867 1114 AD000000 		.4byte	0xad
 6868 1118 01       		.byte	0x1
 6869 1119 01       		.byte	0x1
 6870 111a 06       		.byte	0x6
 6871 111b 26       		.byte	0x26
 6872 111c 00       		.byte	0
 6873 111d 0D       		.uleb128 0xd
 6874 111e 04       		.byte	0x4
 6875 111f 95020000 		.4byte	0x295
 6876 1123 0D       		.uleb128 0xd
ARM GAS  C:\Users\tmj32\AppData\Local\Temp\ccyJ4BPG.s 			page 144


 6877 1124 04       		.byte	0x4
 6878 1125 97100000 		.4byte	0x1097
 6879 1129 02       		.uleb128 0x2
 6880 112a BE150000 		.4byte	.LASF305
 6881 112e 13       		.byte	0x13
 6882 112f 41       		.byte	0x41
 6883 1130 A2100000 		.4byte	0x10a2
 6884 1134 13       		.uleb128 0x13
 6885 1135 01       		.byte	0x1
 6886 1136 42000000 		.4byte	0x42
 6887 113a 13       		.byte	0x13
 6888 113b 43       		.byte	0x43
 6889 113c 65110000 		.4byte	0x1165
 6890 1140 14       		.uleb128 0x14
 6891 1141 46060000 		.4byte	.LASF306
 6892 1145 00       		.byte	0
 6893 1146 14       		.uleb128 0x14
 6894 1147 0F060000 		.4byte	.LASF307
 6895 114b 01       		.byte	0x1
 6896 114c 14       		.uleb128 0x14
 6897 114d 2C100000 		.4byte	.LASF308
 6898 1151 02       		.byte	0x2
 6899 1152 14       		.uleb128 0x14
 6900 1153 2E040000 		.4byte	.LASF309
 6901 1157 03       		.byte	0x3
 6902 1158 14       		.uleb128 0x14
 6903 1159 D9080000 		.4byte	.LASF310
 6904 115d 04       		.byte	0x4
 6905 115e 14       		.uleb128 0x14
 6906 115f FF120000 		.4byte	.LASF311
 6907 1163 05       		.byte	0x5
 6908 1164 00       		.byte	0
 6909 1165 02       		.uleb128 0x2
 6910 1166 66160000 		.4byte	.LASF312
 6911 116a 13       		.byte	0x13
 6912 116b 4B       		.byte	0x4b
 6913 116c AD000000 		.4byte	0xad
 6914 1170 06       		.uleb128 0x6
 6915 1171 14       		.byte	0x14
 6916 1172 14       		.byte	0x14
 6917 1173 34       		.byte	0x34
 6918 1174 B4110000 		.4byte	0x11b4
 6919 1178 08       		.uleb128 0x8
 6920 1179 72656C00 		.ascii	"rel\000"
 6921 117d 14       		.byte	0x14
 6922 117e 36       		.byte	0x36
 6923 117f 75050000 		.4byte	0x575
 6924 1183 00       		.byte	0
 6925 1184 08       		.uleb128 0x8
 6926 1185 707200   		.ascii	"pr\000"
 6927 1188 14       		.byte	0x14
 6928 1189 37       		.byte	0x37
 6929 118a 75050000 		.4byte	0x575
 6930 118e 04       		.byte	0x4
 6931 118f 07       		.uleb128 0x7
 6932 1190 B70C0000 		.4byte	.LASF313
 6933 1194 14       		.byte	0x14
ARM GAS  C:\Users\tmj32\AppData\Local\Temp\ccyJ4BPG.s 			page 145


 6934 1195 38       		.byte	0x38
 6935 1196 75050000 		.4byte	0x575
 6936 119a 08       		.byte	0x8
 6937 119b 07       		.uleb128 0x7
 6938 119c 48040000 		.4byte	.LASF314
 6939 11a0 14       		.byte	0x14
 6940 11a1 39       		.byte	0x39
 6941 11a2 75050000 		.4byte	0x575
 6942 11a6 0C       		.byte	0xc
 6943 11a7 08       		.uleb128 0x8
 6944 11a8 696E6100 		.ascii	"ina\000"
 6945 11ac 14       		.byte	0x14
 6946 11ad 3A       		.byte	0x3a
 6947 11ae 75050000 		.4byte	0x575
 6948 11b2 10       		.byte	0x10
 6949 11b3 00       		.byte	0
 6950 11b4 06       		.uleb128 0x6
 6951 11b5 14       		.byte	0x14
 6952 11b6 14       		.byte	0x14
 6953 11b7 3F       		.byte	0x3f
 6954 11b8 F8110000 		.4byte	0x11f8
 6955 11bc 08       		.uleb128 0x8
 6956 11bd 72656C00 		.ascii	"rel\000"
 6957 11c1 14       		.byte	0x14
 6958 11c2 41       		.byte	0x41
 6959 11c3 75050000 		.4byte	0x575
 6960 11c7 00       		.byte	0
 6961 11c8 08       		.uleb128 0x8
 6962 11c9 707200   		.ascii	"pr\000"
 6963 11cc 14       		.byte	0x14
 6964 11cd 42       		.byte	0x42
 6965 11ce 75050000 		.4byte	0x575
 6966 11d2 04       		.byte	0x4
 6967 11d3 07       		.uleb128 0x7
 6968 11d4 B70C0000 		.4byte	.LASF313
 6969 11d8 14       		.byte	0x14
 6970 11d9 43       		.byte	0x43
 6971 11da 75050000 		.4byte	0x575
 6972 11de 08       		.byte	0x8
 6973 11df 07       		.uleb128 0x7
 6974 11e0 48040000 		.4byte	.LASF314
 6975 11e4 14       		.byte	0x14
 6976 11e5 44       		.byte	0x44
 6977 11e6 75050000 		.4byte	0x575
 6978 11ea 0C       		.byte	0xc
 6979 11eb 08       		.uleb128 0x8
 6980 11ec 696E6100 		.ascii	"ina\000"
 6981 11f0 14       		.byte	0x14
 6982 11f1 45       		.byte	0x45
 6983 11f2 75050000 		.4byte	0x575
 6984 11f6 10       		.byte	0x10
 6985 11f7 00       		.byte	0
 6986 11f8 06       		.uleb128 0x6
 6987 11f9 0C       		.byte	0xc
 6988 11fa 14       		.byte	0x14
 6989 11fb 4A       		.byte	0x4a
 6990 11fc 25120000 		.4byte	0x1225
ARM GAS  C:\Users\tmj32\AppData\Local\Temp\ccyJ4BPG.s 			page 146


 6991 1200 07       		.uleb128 0x7
 6992 1201 2C020000 		.4byte	.LASF315
 6993 1205 14       		.byte	0x14
 6994 1206 4C       		.byte	0x4c
 6995 1207 75050000 		.4byte	0x575
 6996 120b 00       		.byte	0
 6997 120c 08       		.uleb128 0x8
 6998 120d 73656300 		.ascii	"sec\000"
 6999 1211 14       		.byte	0x14
 7000 1212 4D       		.byte	0x4d
 7001 1213 75050000 		.4byte	0x575
 7002 1217 04       		.byte	0x4
 7003 1218 07       		.uleb128 0x7
 7004 1219 590F0000 		.4byte	.LASF316
 7005 121d 14       		.byte	0x14
 7006 121e 4E       		.byte	0x4e
 7007 121f 75050000 		.4byte	0x575
 7008 1223 08       		.byte	0x8
 7009 1224 00       		.byte	0
 7010 1225 06       		.uleb128 0x6
 7011 1226 08       		.byte	0x8
 7012 1227 14       		.byte	0x14
 7013 1228 53       		.byte	0x53
 7014 1229 46120000 		.4byte	0x1246
 7015 122d 07       		.uleb128 0x7
 7016 122e 05020000 		.4byte	.LASF317
 7017 1232 14       		.byte	0x14
 7018 1233 55       		.byte	0x55
 7019 1234 75050000 		.4byte	0x575
 7020 1238 00       		.byte	0
 7021 1239 07       		.uleb128 0x7
 7022 123a 77150000 		.4byte	.LASF318
 7023 123e 14       		.byte	0x14
 7024 123f 56       		.byte	0x56
 7025 1240 75050000 		.4byte	0x575
 7026 1244 04       		.byte	0x4
 7027 1245 00       		.byte	0
 7028 1246 06       		.uleb128 0x6
 7029 1247 04       		.byte	0x4
 7030 1248 14       		.byte	0x14
 7031 1249 5B       		.byte	0x5b
 7032 124a 5B120000 		.4byte	0x125b
 7033 124e 07       		.uleb128 0x7
 7034 124f 29120000 		.4byte	.LASF319
 7035 1253 14       		.byte	0x14
 7036 1254 5D       		.byte	0x5d
 7037 1255 75050000 		.4byte	0x575
 7038 1259 00       		.byte	0
 7039 125a 00       		.byte	0
 7040 125b 06       		.uleb128 0x6
 7041 125c 08       		.byte	0x8
 7042 125d 14       		.byte	0x14
 7043 125e 66       		.byte	0x66
 7044 125f 7B120000 		.4byte	0x127b
 7045 1263 08       		.uleb128 0x8
 7046 1264 626700   		.ascii	"bg\000"
 7047 1267 14       		.byte	0x14
ARM GAS  C:\Users\tmj32\AppData\Local\Temp\ccyJ4BPG.s 			page 147


 7048 1268 68       		.byte	0x68
 7049 1269 75050000 		.4byte	0x575
 7050 126d 00       		.byte	0
 7051 126e 07       		.uleb128 0x7
 7052 126f 410B0000 		.4byte	.LASF320
 7053 1273 14       		.byte	0x14
 7054 1274 69       		.byte	0x69
 7055 1275 75050000 		.4byte	0x575
 7056 1279 04       		.byte	0x4
 7057 127a 00       		.byte	0
 7058 127b 06       		.uleb128 0x6
 7059 127c 0C       		.byte	0xc
 7060 127d 14       		.byte	0x14
 7061 127e 6E       		.byte	0x6e
 7062 127f A7120000 		.4byte	0x12a7
 7063 1283 08       		.uleb128 0x8
 7064 1284 626700   		.ascii	"bg\000"
 7065 1287 14       		.byte	0x14
 7066 1288 70       		.byte	0x70
 7067 1289 75050000 		.4byte	0x575
 7068 128d 00       		.byte	0
 7069 128e 07       		.uleb128 0x7
 7070 128f 410B0000 		.4byte	.LASF320
 7071 1293 14       		.byte	0x14
 7072 1294 71       		.byte	0x71
 7073 1295 75050000 		.4byte	0x575
 7074 1299 04       		.byte	0x4
 7075 129a 07       		.uleb128 0x7
 7076 129b A5160000 		.4byte	.LASF321
 7077 129f 14       		.byte	0x14
 7078 12a0 72       		.byte	0x72
 7079 12a1 75050000 		.4byte	0x575
 7080 12a5 08       		.byte	0x8
 7081 12a6 00       		.byte	0
 7082 12a7 06       		.uleb128 0x6
 7083 12a8 10       		.byte	0x10
 7084 12a9 14       		.byte	0x14
 7085 12aa 87       		.byte	0x87
 7086 12ab DF120000 		.4byte	0x12df
 7087 12af 08       		.uleb128 0x8
 7088 12b0 626700   		.ascii	"bg\000"
 7089 12b3 14       		.byte	0x14
 7090 12b4 89       		.byte	0x89
 7091 12b5 75050000 		.4byte	0x575
 7092 12b9 00       		.byte	0
 7093 12ba 07       		.uleb128 0x7
 7094 12bb 410B0000 		.4byte	.LASF320
 7095 12bf 14       		.byte	0x14
 7096 12c0 8A       		.byte	0x8a
 7097 12c1 75050000 		.4byte	0x575
 7098 12c5 04       		.byte	0x4
 7099 12c6 07       		.uleb128 0x7
 7100 12c7 DD0D0000 		.4byte	.LASF322
 7101 12cb 14       		.byte	0x14
 7102 12cc 8B       		.byte	0x8b
 7103 12cd 75050000 		.4byte	0x575
 7104 12d1 08       		.byte	0x8
ARM GAS  C:\Users\tmj32\AppData\Local\Temp\ccyJ4BPG.s 			page 148


 7105 12d2 07       		.uleb128 0x7
 7106 12d3 E5040000 		.4byte	.LASF323
 7107 12d7 14       		.byte	0x14
 7108 12d8 8C       		.byte	0x8c
 7109 12d9 75050000 		.4byte	0x575
 7110 12dd 0C       		.byte	0xc
 7111 12de 00       		.byte	0
 7112 12df 06       		.uleb128 0x6
 7113 12e0 20       		.byte	0x20
 7114 12e1 14       		.byte	0x14
 7115 12e2 95       		.byte	0x95
 7116 12e3 47130000 		.4byte	0x1347
 7117 12e7 08       		.uleb128 0x8
 7118 12e8 626700   		.ascii	"bg\000"
 7119 12eb 14       		.byte	0x14
 7120 12ec 97       		.byte	0x97
 7121 12ed 75050000 		.4byte	0x575
 7122 12f1 00       		.byte	0
 7123 12f2 07       		.uleb128 0x7
 7124 12f3 25050000 		.4byte	.LASF324
 7125 12f7 14       		.byte	0x14
 7126 12f8 98       		.byte	0x98
 7127 12f9 75050000 		.4byte	0x575
 7128 12fd 04       		.byte	0x4
 7129 12fe 07       		.uleb128 0x7
 7130 12ff 82100000 		.4byte	.LASF325
 7131 1303 14       		.byte	0x14
 7132 1304 99       		.byte	0x99
 7133 1305 75050000 		.4byte	0x575
 7134 1309 08       		.byte	0x8
 7135 130a 07       		.uleb128 0x7
 7136 130b 18140000 		.4byte	.LASF326
 7137 130f 14       		.byte	0x14
 7138 1310 9A       		.byte	0x9a
 7139 1311 75050000 		.4byte	0x575
 7140 1315 0C       		.byte	0xc
 7141 1316 07       		.uleb128 0x7
 7142 1317 80010000 		.4byte	.LASF327
 7143 131b 14       		.byte	0x14
 7144 131c 9B       		.byte	0x9b
 7145 131d 75050000 		.4byte	0x575
 7146 1321 10       		.byte	0x10
 7147 1322 07       		.uleb128 0x7
 7148 1323 8C100000 		.4byte	.LASF328
 7149 1327 14       		.byte	0x14
 7150 1328 9C       		.byte	0x9c
 7151 1329 75050000 		.4byte	0x575
 7152 132d 14       		.byte	0x14
 7153 132e 07       		.uleb128 0x7
 7154 132f AF050000 		.4byte	.LASF329
 7155 1333 14       		.byte	0x14
 7156 1334 9D       		.byte	0x9d
 7157 1335 75050000 		.4byte	0x575
 7158 1339 18       		.byte	0x18
 7159 133a 07       		.uleb128 0x7
 7160 133b 24040000 		.4byte	.LASF330
 7161 133f 14       		.byte	0x14
ARM GAS  C:\Users\tmj32\AppData\Local\Temp\ccyJ4BPG.s 			page 149


 7162 1340 9E       		.byte	0x9e
 7163 1341 75050000 		.4byte	0x575
 7164 1345 1C       		.byte	0x1c
 7165 1346 00       		.byte	0
 7166 1347 06       		.uleb128 0x6
 7167 1348 14       		.byte	0x14
 7168 1349 14       		.byte	0x14
 7169 134a A6       		.byte	0xa6
 7170 134b 8B130000 		.4byte	0x138b
 7171 134f 08       		.uleb128 0x8
 7172 1350 72656C00 		.ascii	"rel\000"
 7173 1354 14       		.byte	0x14
 7174 1355 A8       		.byte	0xa8
 7175 1356 75050000 		.4byte	0x575
 7176 135a 00       		.byte	0
 7177 135b 08       		.uleb128 0x8
 7178 135c 707200   		.ascii	"pr\000"
 7179 135f 14       		.byte	0x14
 7180 1360 A9       		.byte	0xa9
 7181 1361 75050000 		.4byte	0x575
 7182 1365 04       		.byte	0x4
 7183 1366 07       		.uleb128 0x7
 7184 1367 B70C0000 		.4byte	.LASF313
 7185 136b 14       		.byte	0x14
 7186 136c AA       		.byte	0xaa
 7187 136d 75050000 		.4byte	0x575
 7188 1371 08       		.byte	0x8
 7189 1372 07       		.uleb128 0x7
 7190 1373 48040000 		.4byte	.LASF314
 7191 1377 14       		.byte	0x14
 7192 1378 AB       		.byte	0xab
 7193 1379 75050000 		.4byte	0x575
 7194 137d 0C       		.byte	0xc
 7195 137e 08       		.uleb128 0x8
 7196 137f 696E6100 		.ascii	"ina\000"
 7197 1383 14       		.byte	0x14
 7198 1384 AC       		.byte	0xac
 7199 1385 75050000 		.4byte	0x575
 7200 1389 10       		.byte	0x10
 7201 138a 00       		.byte	0
 7202 138b 06       		.uleb128 0x6
 7203 138c 18       		.byte	0x18
 7204 138d 14       		.byte	0x14
 7205 138e A3       		.byte	0xa3
 7206 138f AB130000 		.4byte	0x13ab
 7207 1393 08       		.uleb128 0x8
 7208 1394 626700   		.ascii	"bg\000"
 7209 1397 14       		.byte	0x14
 7210 1398 A5       		.byte	0xa5
 7211 1399 75050000 		.4byte	0x575
 7212 139d 00       		.byte	0
 7213 139e 08       		.uleb128 0x8
 7214 139f 626F7800 		.ascii	"box\000"
 7215 13a3 14       		.byte	0x14
 7216 13a4 AD       		.byte	0xad
 7217 13a5 47130000 		.4byte	0x1347
 7218 13a9 04       		.byte	0x4
ARM GAS  C:\Users\tmj32\AppData\Local\Temp\ccyJ4BPG.s 			page 150


 7219 13aa 00       		.byte	0
 7220 13ab 06       		.uleb128 0x6
 7221 13ac 14       		.byte	0x14
 7222 13ad 14       		.byte	0x14
 7223 13ae B5       		.byte	0xb5
 7224 13af EF130000 		.4byte	0x13ef
 7225 13b3 08       		.uleb128 0x8
 7226 13b4 72656C00 		.ascii	"rel\000"
 7227 13b8 14       		.byte	0x14
 7228 13b9 B7       		.byte	0xb7
 7229 13ba 75050000 		.4byte	0x575
 7230 13be 00       		.byte	0
 7231 13bf 08       		.uleb128 0x8
 7232 13c0 707200   		.ascii	"pr\000"
 7233 13c3 14       		.byte	0x14
 7234 13c4 B8       		.byte	0xb8
 7235 13c5 75050000 		.4byte	0x575
 7236 13c9 04       		.byte	0x4
 7237 13ca 07       		.uleb128 0x7
 7238 13cb B70C0000 		.4byte	.LASF313
 7239 13cf 14       		.byte	0x14
 7240 13d0 B9       		.byte	0xb9
 7241 13d1 75050000 		.4byte	0x575
 7242 13d5 08       		.byte	0x8
 7243 13d6 07       		.uleb128 0x7
 7244 13d7 48040000 		.4byte	.LASF314
 7245 13db 14       		.byte	0x14
 7246 13dc BA       		.byte	0xba
 7247 13dd 75050000 		.4byte	0x575
 7248 13e1 0C       		.byte	0xc
 7249 13e2 08       		.uleb128 0x8
 7250 13e3 696E6100 		.ascii	"ina\000"
 7251 13e7 14       		.byte	0x14
 7252 13e8 BB       		.byte	0xbb
 7253 13e9 75050000 		.4byte	0x575
 7254 13ed 10       		.byte	0x10
 7255 13ee 00       		.byte	0
 7256 13ef 06       		.uleb128 0x6
 7257 13f0 18       		.byte	0x18
 7258 13f1 14       		.byte	0x14
 7259 13f2 B2       		.byte	0xb2
 7260 13f3 0F140000 		.4byte	0x140f
 7261 13f7 08       		.uleb128 0x8
 7262 13f8 626700   		.ascii	"bg\000"
 7263 13fb 14       		.byte	0x14
 7264 13fc B4       		.byte	0xb4
 7265 13fd 75050000 		.4byte	0x575
 7266 1401 00       		.byte	0
 7267 1402 08       		.uleb128 0x8
 7268 1403 62746E00 		.ascii	"btn\000"
 7269 1407 14       		.byte	0x14
 7270 1408 BC       		.byte	0xbc
 7271 1409 AB130000 		.4byte	0x13ab
 7272 140d 04       		.byte	0x4
 7273 140e 00       		.byte	0
 7274 140f 06       		.uleb128 0x6
 7275 1410 14       		.byte	0x14
ARM GAS  C:\Users\tmj32\AppData\Local\Temp\ccyJ4BPG.s 			page 151


 7276 1411 14       		.byte	0x14
 7277 1412 C4       		.byte	0xc4
 7278 1413 53140000 		.4byte	0x1453
 7279 1417 08       		.uleb128 0x8
 7280 1418 72656C00 		.ascii	"rel\000"
 7281 141c 14       		.byte	0x14
 7282 141d C6       		.byte	0xc6
 7283 141e 75050000 		.4byte	0x575
 7284 1422 00       		.byte	0
 7285 1423 08       		.uleb128 0x8
 7286 1424 707200   		.ascii	"pr\000"
 7287 1427 14       		.byte	0x14
 7288 1428 C7       		.byte	0xc7
 7289 1429 75050000 		.4byte	0x575
 7290 142d 04       		.byte	0x4
 7291 142e 07       		.uleb128 0x7
 7292 142f B70C0000 		.4byte	.LASF313
 7293 1433 14       		.byte	0x14
 7294 1434 C8       		.byte	0xc8
 7295 1435 75050000 		.4byte	0x575
 7296 1439 08       		.byte	0x8
 7297 143a 07       		.uleb128 0x7
 7298 143b 48040000 		.4byte	.LASF314
 7299 143f 14       		.byte	0x14
 7300 1440 C9       		.byte	0xc9
 7301 1441 75050000 		.4byte	0x575
 7302 1445 0C       		.byte	0xc
 7303 1446 08       		.uleb128 0x8
 7304 1447 696E6100 		.ascii	"ina\000"
 7305 144b 14       		.byte	0x14
 7306 144c CA       		.byte	0xca
 7307 144d 75050000 		.4byte	0x575
 7308 1451 10       		.byte	0x10
 7309 1452 00       		.byte	0
 7310 1453 06       		.uleb128 0x6
 7311 1454 18       		.byte	0x18
 7312 1455 14       		.byte	0x14
 7313 1456 C1       		.byte	0xc1
 7314 1457 73140000 		.4byte	0x1473
 7315 145b 08       		.uleb128 0x8
 7316 145c 626700   		.ascii	"bg\000"
 7317 145f 14       		.byte	0x14
 7318 1460 C3       		.byte	0xc3
 7319 1461 75050000 		.4byte	0x575
 7320 1465 00       		.byte	0
 7321 1466 08       		.uleb128 0x8
 7322 1467 62746E00 		.ascii	"btn\000"
 7323 146b 14       		.byte	0x14
 7324 146c CB       		.byte	0xcb
 7325 146d 0F140000 		.4byte	0x140f
 7326 1471 04       		.byte	0x4
 7327 1472 00       		.byte	0
 7328 1473 06       		.uleb128 0x6
 7329 1474 0C       		.byte	0xc
 7330 1475 14       		.byte	0x14
 7331 1476 D3       		.byte	0xd3
 7332 1477 9E140000 		.4byte	0x149e
ARM GAS  C:\Users\tmj32\AppData\Local\Temp\ccyJ4BPG.s 			page 152


 7333 147b 08       		.uleb128 0x8
 7334 147c 626700   		.ascii	"bg\000"
 7335 147f 14       		.byte	0x14
 7336 1480 D5       		.byte	0xd5
 7337 1481 75050000 		.4byte	0x575
 7338 1485 00       		.byte	0
 7339 1486 08       		.uleb128 0x8
 7340 1487 72656C00 		.ascii	"rel\000"
 7341 148b 14       		.byte	0x14
 7342 148c D6       		.byte	0xd6
 7343 148d 75050000 		.4byte	0x575
 7344 1491 04       		.byte	0x4
 7345 1492 08       		.uleb128 0x8
 7346 1493 707200   		.ascii	"pr\000"
 7347 1496 14       		.byte	0x14
 7348 1497 D7       		.byte	0xd7
 7349 1498 75050000 		.4byte	0x575
 7350 149c 08       		.byte	0x8
 7351 149d 00       		.byte	0
 7352 149e 06       		.uleb128 0x6
 7353 149f 10       		.byte	0x10
 7354 14a0 14       		.byte	0x14
 7355 14a1 D0       		.byte	0xd0
 7356 14a2 BE140000 		.4byte	0x14be
 7357 14a6 08       		.uleb128 0x8
 7358 14a7 626700   		.ascii	"bg\000"
 7359 14aa 14       		.byte	0x14
 7360 14ab D2       		.byte	0xd2
 7361 14ac 75050000 		.4byte	0x575
 7362 14b0 00       		.byte	0
 7363 14b1 08       		.uleb128 0x8
 7364 14b2 62746E00 		.ascii	"btn\000"
 7365 14b6 14       		.byte	0x14
 7366 14b7 D8       		.byte	0xd8
 7367 14b8 73140000 		.4byte	0x1473
 7368 14bc 04       		.byte	0x4
 7369 14bd 00       		.byte	0
 7370 14be 06       		.uleb128 0x6
 7371 14bf 0C       		.byte	0xc
 7372 14c0 14       		.byte	0x14
 7373 14c1 DD       		.byte	0xdd
 7374 14c2 E9140000 		.4byte	0x14e9
 7375 14c6 08       		.uleb128 0x8
 7376 14c7 626700   		.ascii	"bg\000"
 7377 14ca 14       		.byte	0x14
 7378 14cb DF       		.byte	0xdf
 7379 14cc 75050000 		.4byte	0x575
 7380 14d0 00       		.byte	0
 7381 14d1 07       		.uleb128 0x7
 7382 14d2 60040000 		.4byte	.LASF331
 7383 14d6 14       		.byte	0x14
 7384 14d7 E0       		.byte	0xe0
 7385 14d8 75050000 		.4byte	0x575
 7386 14dc 04       		.byte	0x4
 7387 14dd 08       		.uleb128 0x8
 7388 14de 736200   		.ascii	"sb\000"
 7389 14e1 14       		.byte	0x14
ARM GAS  C:\Users\tmj32\AppData\Local\Temp\ccyJ4BPG.s 			page 153


 7390 14e2 E1       		.byte	0xe1
 7391 14e3 75050000 		.4byte	0x575
 7392 14e7 08       		.byte	0x8
 7393 14e8 00       		.byte	0
 7394 14e9 06       		.uleb128 0x6
 7395 14ea 10       		.byte	0x10
 7396 14eb 14       		.byte	0x14
 7397 14ec E6       		.byte	0xe6
 7398 14ed 21150000 		.4byte	0x1521
 7399 14f1 07       		.uleb128 0x7
 7400 14f2 4A080000 		.4byte	.LASF109
 7401 14f6 14       		.byte	0x14
 7402 14f7 E8       		.byte	0xe8
 7403 14f8 75050000 		.4byte	0x575
 7404 14fc 00       		.byte	0
 7405 14fd 07       		.uleb128 0x7
 7406 14fe 100A0000 		.4byte	.LASF332
 7407 1502 14       		.byte	0x14
 7408 1503 E9       		.byte	0xe9
 7409 1504 75050000 		.4byte	0x575
 7410 1508 04       		.byte	0x4
 7411 1509 07       		.uleb128 0x7
 7412 150a 21170000 		.4byte	.LASF202
 7413 150e 14       		.byte	0x14
 7414 150f EA       		.byte	0xea
 7415 1510 75050000 		.4byte	0x575
 7416 1514 08       		.byte	0x8
 7417 1515 08       		.uleb128 0x8
 7418 1516 736200   		.ascii	"sb\000"
 7419 1519 14       		.byte	0x14
 7420 151a EB       		.byte	0xeb
 7421 151b 75050000 		.4byte	0x575
 7422 151f 0C       		.byte	0xc
 7423 1520 00       		.byte	0
 7424 1521 06       		.uleb128 0x6
 7425 1522 0C       		.byte	0xc
 7426 1523 14       		.byte	0x14
 7427 1524 F0       		.byte	0xf0
 7428 1525 4C150000 		.4byte	0x154c
 7429 1529 08       		.uleb128 0x8
 7430 152a 626700   		.ascii	"bg\000"
 7431 152d 14       		.byte	0x14
 7432 152e F2       		.byte	0xf2
 7433 152f 75050000 		.4byte	0x575
 7434 1533 00       		.byte	0
 7435 1534 07       		.uleb128 0x7
 7436 1535 21170000 		.4byte	.LASF202
 7437 1539 14       		.byte	0x14
 7438 153a F3       		.byte	0xf3
 7439 153b 75050000 		.4byte	0x575
 7440 153f 04       		.byte	0x4
 7441 1540 08       		.uleb128 0x8
 7442 1541 736200   		.ascii	"sb\000"
 7443 1544 14       		.byte	0x14
 7444 1545 F4       		.byte	0xf4
 7445 1546 75050000 		.4byte	0x575
 7446 154a 08       		.byte	0x8
ARM GAS  C:\Users\tmj32\AppData\Local\Temp\ccyJ4BPG.s 			page 154


 7447 154b 00       		.byte	0
 7448 154c 06       		.uleb128 0x6
 7449 154d 14       		.byte	0x14
 7450 154e 14       		.byte	0x14
 7451 154f FE       		.byte	0xfe
 7452 1550 95150000 		.4byte	0x1595
 7453 1554 1F       		.uleb128 0x1f
 7454 1555 72656C00 		.ascii	"rel\000"
 7455 1559 14       		.byte	0x14
 7456 155a 0001     		.2byte	0x100
 7457 155c 75050000 		.4byte	0x575
 7458 1560 00       		.byte	0
 7459 1561 1F       		.uleb128 0x1f
 7460 1562 707200   		.ascii	"pr\000"
 7461 1565 14       		.byte	0x14
 7462 1566 0101     		.2byte	0x101
 7463 1568 75050000 		.4byte	0x575
 7464 156c 04       		.byte	0x4
 7465 156d 20       		.uleb128 0x20
 7466 156e B70C0000 		.4byte	.LASF313
 7467 1572 14       		.byte	0x14
 7468 1573 0201     		.2byte	0x102
 7469 1575 75050000 		.4byte	0x575
 7470 1579 08       		.byte	0x8
 7471 157a 20       		.uleb128 0x20
 7472 157b 48040000 		.4byte	.LASF314
 7473 157f 14       		.byte	0x14
 7474 1580 0301     		.2byte	0x103
 7475 1582 75050000 		.4byte	0x575
 7476 1586 0C       		.byte	0xc
 7477 1587 1F       		.uleb128 0x1f
 7478 1588 696E6100 		.ascii	"ina\000"
 7479 158c 14       		.byte	0x14
 7480 158d 0401     		.2byte	0x104
 7481 158f 75050000 		.4byte	0x575
 7482 1593 10       		.byte	0x10
 7483 1594 00       		.byte	0
 7484 1595 06       		.uleb128 0x6
 7485 1596 20       		.byte	0x20
 7486 1597 14       		.byte	0x14
 7487 1598 F9       		.byte	0xf9
 7488 1599 CD150000 		.4byte	0x15cd
 7489 159d 08       		.uleb128 0x8
 7490 159e 626700   		.ascii	"bg\000"
 7491 15a1 14       		.byte	0x14
 7492 15a2 FB       		.byte	0xfb
 7493 15a3 75050000 		.4byte	0x575
 7494 15a7 00       		.byte	0
 7495 15a8 07       		.uleb128 0x7
 7496 15a9 60040000 		.4byte	.LASF331
 7497 15ad 14       		.byte	0x14
 7498 15ae FC       		.byte	0xfc
 7499 15af 75050000 		.4byte	0x575
 7500 15b3 04       		.byte	0x4
 7501 15b4 08       		.uleb128 0x8
 7502 15b5 736200   		.ascii	"sb\000"
 7503 15b8 14       		.byte	0x14
ARM GAS  C:\Users\tmj32\AppData\Local\Temp\ccyJ4BPG.s 			page 155


 7504 15b9 FD       		.byte	0xfd
 7505 15ba 75050000 		.4byte	0x575
 7506 15be 08       		.byte	0x8
 7507 15bf 1F       		.uleb128 0x1f
 7508 15c0 62746E00 		.ascii	"btn\000"
 7509 15c4 14       		.byte	0x14
 7510 15c5 0501     		.2byte	0x105
 7511 15c7 4C150000 		.4byte	0x154c
 7512 15cb 0C       		.byte	0xc
 7513 15cc 00       		.byte	0
 7514 15cd 21       		.uleb128 0x21
 7515 15ce 0C       		.byte	0xc
 7516 15cf 14       		.byte	0x14
 7517 15d0 0A01     		.2byte	0x10a
 7518 15d2 FC150000 		.4byte	0x15fc
 7519 15d6 1F       		.uleb128 0x1f
 7520 15d7 626700   		.ascii	"bg\000"
 7521 15da 14       		.byte	0x14
 7522 15db 0C01     		.2byte	0x10c
 7523 15dd 75050000 		.4byte	0x575
 7524 15e1 00       		.byte	0
 7525 15e2 1F       		.uleb128 0x1f
 7526 15e3 73656C00 		.ascii	"sel\000"
 7527 15e7 14       		.byte	0x14
 7528 15e8 0D01     		.2byte	0x10d
 7529 15ea 75050000 		.4byte	0x575
 7530 15ee 04       		.byte	0x4
 7531 15ef 1F       		.uleb128 0x1f
 7532 15f0 736200   		.ascii	"sb\000"
 7533 15f3 14       		.byte	0x14
 7534 15f4 0E01     		.2byte	0x10e
 7535 15f6 75050000 		.4byte	0x575
 7536 15fa 08       		.byte	0x8
 7537 15fb 00       		.byte	0
 7538 15fc 21       		.uleb128 0x21
 7539 15fd 08       		.byte	0x8
 7540 15fe 14       		.byte	0x14
 7541 15ff 1301     		.2byte	0x113
 7542 1601 1F160000 		.4byte	0x161f
 7543 1605 1F       		.uleb128 0x1f
 7544 1606 626700   		.ascii	"bg\000"
 7545 1609 14       		.byte	0x14
 7546 160a 1501     		.2byte	0x115
 7547 160c 75050000 		.4byte	0x575
 7548 1610 00       		.byte	0
 7549 1611 1F       		.uleb128 0x1f
 7550 1612 73656C00 		.ascii	"sel\000"
 7551 1616 14       		.byte	0x14
 7552 1617 1601     		.2byte	0x116
 7553 1619 75050000 		.4byte	0x575
 7554 161d 04       		.byte	0x4
 7555 161e 00       		.byte	0
 7556 161f 21       		.uleb128 0x21
 7557 1620 14       		.byte	0x14
 7558 1621 14       		.byte	0x14
 7559 1622 1F01     		.2byte	0x11f
 7560 1624 68160000 		.4byte	0x1668
ARM GAS  C:\Users\tmj32\AppData\Local\Temp\ccyJ4BPG.s 			page 156


 7561 1628 1F       		.uleb128 0x1f
 7562 1629 626700   		.ascii	"bg\000"
 7563 162c 14       		.byte	0x14
 7564 162d 2101     		.2byte	0x121
 7565 162f 75050000 		.4byte	0x575
 7566 1633 00       		.byte	0
 7567 1634 1F       		.uleb128 0x1f
 7568 1635 72656C00 		.ascii	"rel\000"
 7569 1639 14       		.byte	0x14
 7570 163a 2201     		.2byte	0x122
 7571 163c 75050000 		.4byte	0x575
 7572 1640 04       		.byte	0x4
 7573 1641 1F       		.uleb128 0x1f
 7574 1642 707200   		.ascii	"pr\000"
 7575 1645 14       		.byte	0x14
 7576 1646 2301     		.2byte	0x123
 7577 1648 75050000 		.4byte	0x575
 7578 164c 08       		.byte	0x8
 7579 164d 20       		.uleb128 0x20
 7580 164e B70C0000 		.4byte	.LASF313
 7581 1652 14       		.byte	0x14
 7582 1653 2401     		.2byte	0x124
 7583 1655 75050000 		.4byte	0x575
 7584 1659 0C       		.byte	0xc
 7585 165a 20       		.uleb128 0x20
 7586 165b 48040000 		.4byte	.LASF314
 7587 165f 14       		.byte	0x14
 7588 1660 2501     		.2byte	0x125
 7589 1662 75050000 		.4byte	0x575
 7590 1666 10       		.byte	0x10
 7591 1667 00       		.byte	0
 7592 1668 21       		.uleb128 0x21
 7593 1669 1C       		.byte	0x1c
 7594 166a 14       		.byte	0x14
 7595 166b 1B01     		.2byte	0x11b
 7596 166d 98160000 		.4byte	0x1698
 7597 1671 1F       		.uleb128 0x1f
 7598 1672 626700   		.ascii	"bg\000"
 7599 1675 14       		.byte	0x14
 7600 1676 1D01     		.2byte	0x11d
 7601 1678 75050000 		.4byte	0x575
 7602 167c 00       		.byte	0
 7603 167d 20       		.uleb128 0x20
 7604 167e 410B0000 		.4byte	.LASF320
 7605 1682 14       		.byte	0x14
 7606 1683 1E01     		.2byte	0x11e
 7607 1685 75050000 		.4byte	0x575
 7608 1689 04       		.byte	0x4
 7609 168a 1F       		.uleb128 0x1f
 7610 168b 62746E00 		.ascii	"btn\000"
 7611 168f 14       		.byte	0x14
 7612 1690 2601     		.2byte	0x126
 7613 1692 1F160000 		.4byte	0x161f
 7614 1696 08       		.byte	0x8
 7615 1697 00       		.byte	0
 7616 1698 21       		.uleb128 0x21
 7617 1699 0C       		.byte	0xc
ARM GAS  C:\Users\tmj32\AppData\Local\Temp\ccyJ4BPG.s 			page 157


 7618 169a 14       		.byte	0x14
 7619 169b 2B01     		.2byte	0x12b
 7620 169d C7160000 		.4byte	0x16c7
 7621 16a1 1F       		.uleb128 0x1f
 7622 16a2 626700   		.ascii	"bg\000"
 7623 16a5 14       		.byte	0x14
 7624 16a6 2D01     		.2byte	0x12d
 7625 16a8 75050000 		.4byte	0x575
 7626 16ac 00       		.byte	0
 7627 16ad 20       		.uleb128 0x20
 7628 16ae 60040000 		.4byte	.LASF331
 7629 16b2 14       		.byte	0x14
 7630 16b3 2E01     		.2byte	0x12e
 7631 16b5 75050000 		.4byte	0x575
 7632 16b9 04       		.byte	0x4
 7633 16ba 1F       		.uleb128 0x1f
 7634 16bb 736200   		.ascii	"sb\000"
 7635 16be 14       		.byte	0x14
 7636 16bf 2F01     		.2byte	0x12f
 7637 16c1 75050000 		.4byte	0x575
 7638 16c5 08       		.byte	0x8
 7639 16c6 00       		.byte	0
 7640 16c7 21       		.uleb128 0x21
 7641 16c8 08       		.byte	0x8
 7642 16c9 14       		.byte	0x14
 7643 16ca 3401     		.2byte	0x134
 7644 16cc EA160000 		.4byte	0x16ea
 7645 16d0 1F       		.uleb128 0x1f
 7646 16d1 626700   		.ascii	"bg\000"
 7647 16d4 14       		.byte	0x14
 7648 16d5 3601     		.2byte	0x136
 7649 16d7 75050000 		.4byte	0x575
 7650 16db 00       		.byte	0
 7651 16dc 20       		.uleb128 0x20
 7652 16dd 79000000 		.4byte	.LASF333
 7653 16e1 14       		.byte	0x14
 7654 16e2 3701     		.2byte	0x137
 7655 16e4 75050000 		.4byte	0x575
 7656 16e8 04       		.byte	0x4
 7657 16e9 00       		.byte	0
 7658 16ea 21       		.uleb128 0x21
 7659 16eb 08       		.byte	0x8
 7660 16ec 14       		.byte	0x14
 7661 16ed 4201     		.2byte	0x142
 7662 16ef 0D170000 		.4byte	0x170d
 7663 16f3 1F       		.uleb128 0x1f
 7664 16f4 72656C00 		.ascii	"rel\000"
 7665 16f8 14       		.byte	0x14
 7666 16f9 4401     		.2byte	0x144
 7667 16fb 75050000 		.4byte	0x575
 7668 16ff 00       		.byte	0
 7669 1700 1F       		.uleb128 0x1f
 7670 1701 707200   		.ascii	"pr\000"
 7671 1704 14       		.byte	0x14
 7672 1705 4501     		.2byte	0x145
 7673 1707 75050000 		.4byte	0x575
 7674 170b 04       		.byte	0x4
ARM GAS  C:\Users\tmj32\AppData\Local\Temp\ccyJ4BPG.s 			page 158


 7675 170c 00       		.byte	0
 7676 170d 21       		.uleb128 0x21
 7677 170e 18       		.byte	0x18
 7678 170f 14       		.byte	0x14
 7679 1710 3C01     		.2byte	0x13c
 7680 1712 56170000 		.4byte	0x1756
 7681 1716 1F       		.uleb128 0x1f
 7682 1717 626700   		.ascii	"bg\000"
 7683 171a 14       		.byte	0x14
 7684 171b 3E01     		.2byte	0x13e
 7685 171d 75050000 		.4byte	0x575
 7686 1721 00       		.byte	0
 7687 1722 1F       		.uleb128 0x1f
 7688 1723 736200   		.ascii	"sb\000"
 7689 1726 14       		.byte	0x14
 7690 1727 3F01     		.2byte	0x13f
 7691 1729 75050000 		.4byte	0x575
 7692 172d 04       		.byte	0x4
 7693 172e 20       		.uleb128 0x20
 7694 172f 25050000 		.4byte	.LASF324
 7695 1733 14       		.byte	0x14
 7696 1734 4001     		.2byte	0x140
 7697 1736 75050000 		.4byte	0x575
 7698 173a 08       		.byte	0x8
 7699 173b 20       		.uleb128 0x20
 7700 173c 03150000 		.4byte	.LASF334
 7701 1740 14       		.byte	0x14
 7702 1741 4101     		.2byte	0x141
 7703 1743 75050000 		.4byte	0x575
 7704 1747 0C       		.byte	0xc
 7705 1748 1F       		.uleb128 0x1f
 7706 1749 62746E00 		.ascii	"btn\000"
 7707 174d 14       		.byte	0x14
 7708 174e 4601     		.2byte	0x146
 7709 1750 EA160000 		.4byte	0x16ea
 7710 1754 10       		.byte	0x10
 7711 1755 00       		.byte	0
 7712 1756 22       		.uleb128 0x22
 7713 1757 A801     		.2byte	0x1a8
 7714 1759 14       		.byte	0x14
 7715 175a 29       		.byte	0x29
 7716 175b F8180000 		.4byte	0x18f8
 7717 175f 08       		.uleb128 0x8
 7718 1760 73637200 		.ascii	"scr\000"
 7719 1764 14       		.byte	0x14
 7720 1765 2B       		.byte	0x2b
 7721 1766 75050000 		.4byte	0x575
 7722 176a 00       		.byte	0
 7723 176b 08       		.uleb128 0x8
 7724 176c 626700   		.ascii	"bg\000"
 7725 176f 14       		.byte	0x14
 7726 1770 2C       		.byte	0x2c
 7727 1771 75050000 		.4byte	0x575
 7728 1775 04       		.byte	0x4
 7729 1776 07       		.uleb128 0x7
 7730 1777 60120000 		.4byte	.LASF335
 7731 177b 14       		.byte	0x14
ARM GAS  C:\Users\tmj32\AppData\Local\Temp\ccyJ4BPG.s 			page 159


 7732 177c 2D       		.byte	0x2d
 7733 177d 75050000 		.4byte	0x575
 7734 1781 08       		.byte	0x8
 7735 1782 07       		.uleb128 0x7
 7736 1783 27020000 		.4byte	.LASF336
 7737 1787 14       		.byte	0x14
 7738 1788 30       		.byte	0x30
 7739 1789 75050000 		.4byte	0x575
 7740 178d 0C       		.byte	0xc
 7741 178e 08       		.uleb128 0x8
 7742 178f 62746E00 		.ascii	"btn\000"
 7743 1793 14       		.byte	0x14
 7744 1794 3B       		.byte	0x3b
 7745 1795 70110000 		.4byte	0x1170
 7746 1799 10       		.byte	0x10
 7747 179a 07       		.uleb128 0x7
 7748 179b 3A120000 		.4byte	.LASF337
 7749 179f 14       		.byte	0x14
 7750 17a0 46       		.byte	0x46
 7751 17a1 B4110000 		.4byte	0x11b4
 7752 17a5 24       		.byte	0x24
 7753 17a6 07       		.uleb128 0x7
 7754 17a7 3A160000 		.4byte	.LASF338
 7755 17ab 14       		.byte	0x14
 7756 17ac 4F       		.byte	0x4f
 7757 17ad F8110000 		.4byte	0x11f8
 7758 17b1 38       		.byte	0x38
 7759 17b2 08       		.uleb128 0x8
 7760 17b3 696D6700 		.ascii	"img\000"
 7761 17b7 14       		.byte	0x14
 7762 17b8 57       		.byte	0x57
 7763 17b9 25120000 		.4byte	0x1225
 7764 17bd 44       		.byte	0x44
 7765 17be 07       		.uleb128 0x7
 7766 17bf 1C090000 		.4byte	.LASF78
 7767 17c3 14       		.byte	0x14
 7768 17c4 5E       		.byte	0x5e
 7769 17c5 46120000 		.4byte	0x1246
 7770 17c9 4C       		.byte	0x4c
 7771 17ca 08       		.uleb128 0x8
 7772 17cb 6C656400 		.ascii	"led\000"
 7773 17cf 14       		.byte	0x14
 7774 17d0 62       		.byte	0x62
 7775 17d1 75050000 		.4byte	0x575
 7776 17d5 50       		.byte	0x50
 7777 17d6 08       		.uleb128 0x8
 7778 17d7 62617200 		.ascii	"bar\000"
 7779 17db 14       		.byte	0x14
 7780 17dc 6A       		.byte	0x6a
 7781 17dd 5B120000 		.4byte	0x125b
 7782 17e1 54       		.byte	0x54
 7783 17e2 07       		.uleb128 0x7
 7784 17e3 4E160000 		.4byte	.LASF339
 7785 17e7 14       		.byte	0x14
 7786 17e8 73       		.byte	0x73
 7787 17e9 7B120000 		.4byte	0x127b
 7788 17ed 5C       		.byte	0x5c
ARM GAS  C:\Users\tmj32\AppData\Local\Temp\ccyJ4BPG.s 			page 160


 7789 17ee 07       		.uleb128 0x7
 7790 17ef FB000000 		.4byte	.LASF340
 7791 17f3 14       		.byte	0x14
 7792 17f4 77       		.byte	0x77
 7793 17f5 75050000 		.4byte	0x575
 7794 17f9 68       		.byte	0x68
 7795 17fa 07       		.uleb128 0x7
 7796 17fb E60D0000 		.4byte	.LASF341
 7797 17ff 14       		.byte	0x14
 7798 1800 7B       		.byte	0x7b
 7799 1801 75050000 		.4byte	0x575
 7800 1805 6C       		.byte	0x6c
 7801 1806 08       		.uleb128 0x8
 7802 1807 61726300 		.ascii	"arc\000"
 7803 180b 14       		.byte	0x14
 7804 180c 7F       		.byte	0x7f
 7805 180d 75050000 		.4byte	0x575
 7806 1811 70       		.byte	0x70
 7807 1812 07       		.uleb128 0x7
 7808 1813 91160000 		.4byte	.LASF342
 7809 1817 14       		.byte	0x14
 7810 1818 83       		.byte	0x83
 7811 1819 75050000 		.4byte	0x575
 7812 181d 74       		.byte	0x74
 7813 181e 08       		.uleb128 0x8
 7814 181f 737700   		.ascii	"sw\000"
 7815 1822 14       		.byte	0x14
 7816 1823 8D       		.byte	0x8d
 7817 1824 A7120000 		.4byte	0x12a7
 7818 1828 78       		.byte	0x78
 7819 1829 07       		.uleb128 0x7
 7820 182a AC030000 		.4byte	.LASF343
 7821 182e 14       		.byte	0x14
 7822 182f 91       		.byte	0x91
 7823 1830 75050000 		.4byte	0x575
 7824 1834 88       		.byte	0x88
 7825 1835 07       		.uleb128 0x7
 7826 1836 BB0E0000 		.4byte	.LASF344
 7827 183a 14       		.byte	0x14
 7828 183b 9F       		.byte	0x9f
 7829 183c DF120000 		.4byte	0x12df
 7830 1840 8C       		.byte	0x8c
 7831 1841 08       		.uleb128 0x8
 7832 1842 636200   		.ascii	"cb\000"
 7833 1845 14       		.byte	0x14
 7834 1846 AE       		.byte	0xae
 7835 1847 8B130000 		.4byte	0x138b
 7836 184b AC       		.byte	0xac
 7837 184c 07       		.uleb128 0x7
 7838 184d BF030000 		.4byte	.LASF345
 7839 1851 14       		.byte	0x14
 7840 1852 BD       		.byte	0xbd
 7841 1853 EF130000 		.4byte	0x13ef
 7842 1857 C4       		.byte	0xc4
 7843 1858 08       		.uleb128 0x8
 7844 1859 6B6200   		.ascii	"kb\000"
 7845 185c 14       		.byte	0x14
ARM GAS  C:\Users\tmj32\AppData\Local\Temp\ccyJ4BPG.s 			page 161


 7846 185d CC       		.byte	0xcc
 7847 185e 53140000 		.4byte	0x1453
 7848 1862 DC       		.byte	0xdc
 7849 1863 07       		.uleb128 0x7
 7850 1864 950C0000 		.4byte	.LASF346
 7851 1868 14       		.byte	0x14
 7852 1869 D9       		.byte	0xd9
 7853 186a 9E140000 		.4byte	0x149e
 7854 186e F4       		.byte	0xf4
 7855 186f 18       		.uleb128 0x18
 7856 1870 D00D0000 		.4byte	.LASF347
 7857 1874 14       		.byte	0x14
 7858 1875 E2       		.byte	0xe2
 7859 1876 BE140000 		.4byte	0x14be
 7860 187a 0401     		.2byte	0x104
 7861 187c 23       		.uleb128 0x23
 7862 187d 746100   		.ascii	"ta\000"
 7863 1880 14       		.byte	0x14
 7864 1881 EC       		.byte	0xec
 7865 1882 E9140000 		.4byte	0x14e9
 7866 1886 1001     		.2byte	0x110
 7867 1888 18       		.uleb128 0x18
 7868 1889 D7130000 		.4byte	.LASF348
 7869 188d 14       		.byte	0x14
 7870 188e F5       		.byte	0xf5
 7871 188f 21150000 		.4byte	0x1521
 7872 1893 2001     		.2byte	0x120
 7873 1895 24       		.uleb128 0x24
 7874 1896 800D0000 		.4byte	.LASF349
 7875 189a 14       		.byte	0x14
 7876 189b 0601     		.2byte	0x106
 7877 189d 95150000 		.4byte	0x1595
 7878 18a1 2C01     		.2byte	0x12c
 7879 18a3 24       		.uleb128 0x24
 7880 18a4 8F060000 		.4byte	.LASF350
 7881 18a8 14       		.byte	0x14
 7882 18a9 0F01     		.2byte	0x10f
 7883 18ab CD150000 		.4byte	0x15cd
 7884 18af 4C01     		.2byte	0x14c
 7885 18b1 24       		.uleb128 0x24
 7886 18b2 89170000 		.4byte	.LASF351
 7887 18b6 14       		.byte	0x14
 7888 18b7 1701     		.2byte	0x117
 7889 18b9 FC150000 		.4byte	0x15fc
 7890 18bd 5801     		.2byte	0x158
 7891 18bf 24       		.uleb128 0x24
 7892 18c0 D60B0000 		.4byte	.LASF352
 7893 18c4 14       		.byte	0x14
 7894 18c5 2701     		.2byte	0x127
 7895 18c7 68160000 		.4byte	0x1668
 7896 18cb 6001     		.2byte	0x160
 7897 18cd 24       		.uleb128 0x24
 7898 18ce 23030000 		.4byte	.LASF353
 7899 18d2 14       		.byte	0x14
 7900 18d3 3001     		.2byte	0x130
 7901 18d5 98160000 		.4byte	0x1698
 7902 18d9 7C01     		.2byte	0x17c
ARM GAS  C:\Users\tmj32\AppData\Local\Temp\ccyJ4BPG.s 			page 162


 7903 18db 24       		.uleb128 0x24
 7904 18dc 41050000 		.4byte	.LASF354
 7905 18e0 14       		.byte	0x14
 7906 18e1 3801     		.2byte	0x138
 7907 18e3 C7160000 		.4byte	0x16c7
 7908 18e7 8801     		.2byte	0x188
 7909 18e9 25       		.uleb128 0x25
 7910 18ea 77696E00 		.ascii	"win\000"
 7911 18ee 14       		.byte	0x14
 7912 18ef 4701     		.2byte	0x147
 7913 18f1 0D170000 		.4byte	0x170d
 7914 18f5 9001     		.2byte	0x190
 7915 18f7 00       		.byte	0
 7916 18f8 22       		.uleb128 0x22
 7917 18f9 A801     		.2byte	0x1a8
 7918 18fb 14       		.byte	0x14
 7919 18fc 27       		.byte	0x27
 7920 18fd 0F190000 		.4byte	0x190f
 7921 1901 20       		.uleb128 0x20
 7922 1902 9E0E0000 		.4byte	.LASF355
 7923 1906 14       		.byte	0x14
 7924 1907 4901     		.2byte	0x149
 7925 1909 56170000 		.4byte	0x1756
 7926 190d 00       		.byte	0
 7927 190e 00       		.byte	0
 7928 190f 12       		.uleb128 0x12
 7929 1910 95150000 		.4byte	.LASF356
 7930 1914 14       		.byte	0x14
 7931 1915 5401     		.2byte	0x154
 7932 1917 F8180000 		.4byte	0x18f8
 7933 191b 26       		.uleb128 0x26
 7934 191c 63050000 		.4byte	.LASF423
 7935 1920 01       		.byte	0x1
 7936 1921 4C       		.byte	0x4c
 7937 1922 00000000 		.4byte	.LFB10
 7938 1926 1C000000 		.4byte	.LFE10-.LFB10
 7939 192a 01       		.uleb128 0x1
 7940 192b 9C       		.byte	0x9c
 7941 192c 4D190000 		.4byte	0x194d
 7942 1930 27       		.uleb128 0x27
 7943 1931 84120000 		.4byte	.LASF357
 7944 1935 01       		.byte	0x1
 7945 1936 4C       		.byte	0x4c
 7946 1937 D4070000 		.4byte	0x7d4
 7947 193b 02       		.uleb128 0x2
 7948 193c 91       		.byte	0x91
 7949 193d 74       		.sleb128 -12
 7950 193e 28       		.uleb128 0x28
 7951 193f 73726300 		.ascii	"src\000"
 7952 1943 01       		.byte	0x1
 7953 1944 4C       		.byte	0x4c
 7954 1945 AD070000 		.4byte	0x7ad
 7955 1949 02       		.uleb128 0x2
 7956 194a 91       		.byte	0x91
 7957 194b 70       		.sleb128 -16
 7958 194c 00       		.byte	0
 7959 194d 29       		.uleb128 0x29
ARM GAS  C:\Users\tmj32\AppData\Local\Temp\ccyJ4BPG.s 			page 163


 7960 194e 4C140000 		.4byte	.LASF359
 7961 1952 01       		.byte	0x1
 7962 1953 56       		.byte	0x56
 7963 1954 D9000000 		.4byte	0xd9
 7964 1958 00000000 		.4byte	.LFB11
 7965 195c 2E000000 		.4byte	.LFE11-.LFB11
 7966 1960 01       		.uleb128 0x1
 7967 1961 9C       		.byte	0x9c
 7968 1962 75190000 		.4byte	0x1975
 7969 1966 27       		.uleb128 0x27
 7970 1967 81030000 		.4byte	.LASF358
 7971 196b 01       		.byte	0x1
 7972 196c 56       		.byte	0x56
 7973 196d AD070000 		.4byte	0x7ad
 7974 1971 02       		.uleb128 0x2
 7975 1972 91       		.byte	0x91
 7976 1973 74       		.sleb128 -12
 7977 1974 00       		.byte	0
 7978 1975 29       		.uleb128 0x29
 7979 1976 F0100000 		.4byte	.LASF360
 7980 197a 01       		.byte	0x1
 7981 197b 60       		.byte	0x60
 7982 197c D9000000 		.4byte	0xd9
 7983 1980 00000000 		.4byte	.LFB12
 7984 1984 2E000000 		.4byte	.LFE12-.LFB12
 7985 1988 01       		.uleb128 0x1
 7986 1989 9C       		.byte	0x9c
 7987 198a 9D190000 		.4byte	0x199d
 7988 198e 27       		.uleb128 0x27
 7989 198f 81030000 		.4byte	.LASF358
 7990 1993 01       		.byte	0x1
 7991 1994 60       		.byte	0x60
 7992 1995 AD070000 		.4byte	0x7ad
 7993 1999 02       		.uleb128 0x2
 7994 199a 91       		.byte	0x91
 7995 199b 74       		.sleb128 -12
 7996 199c 00       		.byte	0
 7997 199d 2A       		.uleb128 0x2a
 7998 199e C20B0000 		.4byte	.LASF391
 7999 19a2 02       		.byte	0x2
 8000 19a3 45       		.byte	0x45
 8001 19a4 221A0000 		.4byte	0x1a22
 8002 19a8 00000000 		.4byte	.LFB46
 8003 19ac C0010000 		.4byte	.LFE46-.LFB46
 8004 19b0 01       		.uleb128 0x1
 8005 19b1 9C       		.byte	0x9c
 8006 19b2 221A0000 		.4byte	0x1a22
 8007 19b6 28       		.uleb128 0x28
 8008 19b7 70617200 		.ascii	"par\000"
 8009 19bb 02       		.byte	0x2
 8010 19bc 45       		.byte	0x45
 8011 19bd 221A0000 		.4byte	0x1a22
 8012 19c1 02       		.uleb128 0x2
 8013 19c2 91       		.byte	0x91
 8014 19c3 64       		.sleb128 -28
 8015 19c4 27       		.uleb128 0x27
 8016 19c5 83090000 		.4byte	.LASF361
ARM GAS  C:\Users\tmj32\AppData\Local\Temp\ccyJ4BPG.s 			page 164


 8017 19c9 02       		.byte	0x2
 8018 19ca 45       		.byte	0x45
 8019 19cb 281A0000 		.4byte	0x1a28
 8020 19cf 02       		.uleb128 0x2
 8021 19d0 91       		.byte	0x91
 8022 19d1 60       		.sleb128 -32
 8023 19d2 2B       		.uleb128 0x2b
 8024 19d3 53150000 		.4byte	.LASF362
 8025 19d7 02       		.byte	0x2
 8026 19d8 4A       		.byte	0x4a
 8027 19d9 221A0000 		.4byte	0x1a22
 8028 19dd 02       		.uleb128 0x2
 8029 19de 91       		.byte	0x91
 8030 19df 74       		.sleb128 -12
 8031 19e0 2C       		.uleb128 0x2c
 8032 19e1 65787400 		.ascii	"ext\000"
 8033 19e5 02       		.byte	0x2
 8034 19e6 51       		.byte	0x51
 8035 19e7 331A0000 		.4byte	0x1a33
 8036 19eb 02       		.uleb128 0x2
 8037 19ec 91       		.byte	0x91
 8038 19ed 70       		.sleb128 -16
 8039 19ee 2D       		.uleb128 0x2d
 8040 19ef D2000000 		.4byte	.LBB2
 8041 19f3 8E000000 		.4byte	.LBE2-.LBB2
 8042 19f7 091A0000 		.4byte	0x1a09
 8043 19fb 2C       		.uleb128 0x2c
 8044 19fc 746800   		.ascii	"th\000"
 8045 19ff 02       		.byte	0x2
 8046 1a00 6E       		.byte	0x6e
 8047 1a01 391A0000 		.4byte	0x1a39
 8048 1a05 02       		.uleb128 0x2
 8049 1a06 91       		.byte	0x91
 8050 1a07 6C       		.sleb128 -20
 8051 1a08 00       		.byte	0
 8052 1a09 2E       		.uleb128 0x2e
 8053 1a0a 60010000 		.4byte	.LBB3
 8054 1a0e 2A000000 		.4byte	.LBE3-.LBB3
 8055 1a12 2B       		.uleb128 0x2b
 8056 1a13 54020000 		.4byte	.LASF363
 8057 1a17 02       		.byte	0x2
 8058 1a18 7C       		.byte	0x7c
 8059 1a19 331A0000 		.4byte	0x1a33
 8060 1a1d 02       		.uleb128 0x2
 8061 1a1e 91       		.byte	0x91
 8062 1a1f 68       		.sleb128 -24
 8063 1a20 00       		.byte	0
 8064 1a21 00       		.byte	0
 8065 1a22 0D       		.uleb128 0xd
 8066 1a23 04       		.byte	0x4
 8067 1a24 8E0F0000 		.4byte	0xf8e
 8068 1a28 0D       		.uleb128 0xd
 8069 1a29 04       		.byte	0x4
 8070 1a2a 2E1A0000 		.4byte	0x1a2e
 8071 1a2e 0E       		.uleb128 0xe
 8072 1a2f 8E0F0000 		.4byte	0xf8e
 8073 1a33 0D       		.uleb128 0xd
ARM GAS  C:\Users\tmj32\AppData\Local\Temp\ccyJ4BPG.s 			page 165


 8074 1a34 04       		.byte	0x4
 8075 1a35 29110000 		.4byte	0x1129
 8076 1a39 0D       		.uleb128 0xd
 8077 1a3a 04       		.byte	0x4
 8078 1a3b 0F190000 		.4byte	0x190f
 8079 1a3f 2F       		.uleb128 0x2f
 8080 1a40 FF050000 		.4byte	.LASF378
 8081 1a44 02       		.byte	0x2
 8082 1a45 91       		.byte	0x91
 8083 1a46 00000000 		.4byte	.LFB47
 8084 1a4a B0030000 		.4byte	.LFE47-.LFB47
 8085 1a4e 01       		.uleb128 0x1
 8086 1a4f 9C       		.byte	0x9c
 8087 1a50 8A1B0000 		.4byte	0x1b8a
 8088 1a54 27       		.uleb128 0x27
 8089 1a55 BF030000 		.4byte	.LASF345
 8090 1a59 02       		.byte	0x2
 8091 1a5a 91       		.byte	0x91
 8092 1a5b 281A0000 		.4byte	0x1a28
 8093 1a5f 03       		.uleb128 0x3
 8094 1a60 91       		.byte	0x91
 8095 1a61 BC7F     		.sleb128 -68
 8096 1a63 28       		.uleb128 0x28
 8097 1a64 6D617000 		.ascii	"map\000"
 8098 1a68 02       		.byte	0x2
 8099 1a69 91       		.byte	0x91
 8100 1a6a 1D110000 		.4byte	0x111d
 8101 1a6e 03       		.uleb128 0x3
 8102 1a6f 91       		.byte	0x91
 8103 1a70 B87F     		.sleb128 -72
 8104 1a72 2C       		.uleb128 0x2c
 8105 1a73 65787400 		.ascii	"ext\000"
 8106 1a77 02       		.byte	0x2
 8107 1a78 A1       		.byte	0xa1
 8108 1a79 331A0000 		.4byte	0x1a33
 8109 1a7d 02       		.uleb128 0x2
 8110 1a7e 91       		.byte	0x91
 8111 1a7f 54       		.sleb128 -44
 8112 1a80 2B       		.uleb128 0x2b
 8113 1a81 DF0C0000 		.4byte	.LASF364
 8114 1a85 02       		.byte	0x2
 8115 1a86 AA       		.byte	0xaa
 8116 1a87 830F0000 		.4byte	0xf83
 8117 1a8b 02       		.uleb128 0x2
 8118 1a8c 91       		.byte	0x91
 8119 1a8d 50       		.sleb128 -48
 8120 1a8e 2B       		.uleb128 0x2b
 8121 1a8f DA000000 		.4byte	.LASF365
 8122 1a93 02       		.byte	0x2
 8123 1a94 AB       		.byte	0xab
 8124 1a95 D9000000 		.4byte	0xd9
 8125 1a99 02       		.uleb128 0x2
 8126 1a9a 91       		.byte	0x91
 8127 1a9b 4E       		.sleb128 -50
 8128 1a9c 2B       		.uleb128 0x2b
 8129 1a9d C3000000 		.4byte	.LASF366
 8130 1aa1 02       		.byte	0x2
ARM GAS  C:\Users\tmj32\AppData\Local\Temp\ccyJ4BPG.s 			page 166


 8131 1aa2 AC       		.byte	0xac
 8132 1aa3 D9000000 		.4byte	0xd9
 8133 1aa7 02       		.uleb128 0x2
 8134 1aa8 91       		.byte	0x91
 8135 1aa9 4C       		.sleb128 -52
 8136 1aaa 2B       		.uleb128 0x2b
 8137 1aab 11020000 		.4byte	.LASF367
 8138 1aaf 02       		.byte	0x2
 8139 1ab0 AD       		.byte	0xad
 8140 1ab1 D9000000 		.4byte	0xd9
 8141 1ab5 02       		.uleb128 0x2
 8142 1ab6 91       		.byte	0x91
 8143 1ab7 6E       		.sleb128 -18
 8144 1ab8 2B       		.uleb128 0x2b
 8145 1ab9 4F090000 		.4byte	.LASF368
 8146 1abd 02       		.byte	0x2
 8147 1abe B0       		.byte	0xb0
 8148 1abf AD000000 		.4byte	0xad
 8149 1ac3 02       		.uleb128 0x2
 8150 1ac4 91       		.byte	0x91
 8151 1ac5 6D       		.sleb128 -19
 8152 1ac6 2C       		.uleb128 0x2c
 8153 1ac7 6C6900   		.ascii	"li\000"
 8154 1aca 02       		.byte	0x2
 8155 1acb B1       		.byte	0xb1
 8156 1acc AD000000 		.4byte	0xad
 8157 1ad0 02       		.uleb128 0x2
 8158 1ad1 91       		.byte	0x91
 8159 1ad2 6C       		.sleb128 -20
 8160 1ad3 2B       		.uleb128 0x2b
 8161 1ad4 57060000 		.4byte	.LASF369
 8162 1ad8 02       		.byte	0x2
 8163 1ad9 B6       		.byte	0xb6
 8164 1ada D9000000 		.4byte	0xd9
 8165 1ade 02       		.uleb128 0x2
 8166 1adf 91       		.byte	0x91
 8167 1ae0 6A       		.sleb128 -22
 8168 1ae1 2B       		.uleb128 0x2b
 8169 1ae2 99000000 		.4byte	.LASF370
 8170 1ae6 02       		.byte	0x2
 8171 1ae7 BC       		.byte	0xbc
 8172 1ae8 C3000000 		.4byte	0xc3
 8173 1aec 02       		.uleb128 0x2
 8174 1aed 91       		.byte	0x91
 8175 1aee 68       		.sleb128 -24
 8176 1aef 2B       		.uleb128 0x2b
 8177 1af0 660E0000 		.4byte	.LASF371
 8178 1af4 02       		.byte	0x2
 8179 1af5 BD       		.byte	0xbd
 8180 1af6 C3000000 		.4byte	0xc3
 8181 1afa 02       		.uleb128 0x2
 8182 1afb 91       		.byte	0x91
 8183 1afc 66       		.sleb128 -26
 8184 1afd 2B       		.uleb128 0x2b
 8185 1afe 2E0C0000 		.4byte	.LASF300
 8186 1b02 02       		.byte	0x2
 8187 1b03 BE       		.byte	0xbe
ARM GAS  C:\Users\tmj32\AppData\Local\Temp\ccyJ4BPG.s 			page 167


 8188 1b04 C3000000 		.4byte	0xc3
 8189 1b08 02       		.uleb128 0x2
 8190 1b09 91       		.byte	0x91
 8191 1b0a 64       		.sleb128 -28
 8192 1b0b 2B       		.uleb128 0x2b
 8193 1b0c 78070000 		.4byte	.LASF372
 8194 1b10 02       		.byte	0x2
 8195 1b11 BF       		.byte	0xbf
 8196 1b12 C3000000 		.4byte	0xc3
 8197 1b16 02       		.uleb128 0x2
 8198 1b17 91       		.byte	0x91
 8199 1b18 62       		.sleb128 -30
 8200 1b19 2B       		.uleb128 0x2b
 8201 1b1a 5D060000 		.4byte	.LASF373
 8202 1b1e 02       		.byte	0x2
 8203 1b1f C0       		.byte	0xc0
 8204 1b20 C3000000 		.4byte	0xc3
 8205 1b24 02       		.uleb128 0x2
 8206 1b25 91       		.byte	0x91
 8207 1b26 60       		.sleb128 -32
 8208 1b27 2B       		.uleb128 0x2b
 8209 1b28 8F000000 		.4byte	.LASF374
 8210 1b2c 02       		.byte	0x2
 8211 1b2d C1       		.byte	0xc1
 8212 1b2e 1D110000 		.4byte	0x111d
 8213 1b32 02       		.uleb128 0x2
 8214 1b33 91       		.byte	0x91
 8215 1b34 5C       		.sleb128 -36
 8216 1b35 30       		.uleb128 0x30
 8217 1b36 00000000 		.4byte	.Ldebug_ranges0+0
 8218 1b3a 2B       		.uleb128 0x2b
 8219 1b3b 38130000 		.4byte	.LASF150
 8220 1b3f 02       		.byte	0x2
 8221 1b40 D2       		.byte	0xd2
 8222 1b41 19060000 		.4byte	0x619
 8223 1b45 02       		.uleb128 0x2
 8224 1b46 91       		.byte	0x91
 8225 1b47 4B       		.sleb128 -53
 8226 1b48 2E       		.uleb128 0x2e
 8227 1b49 BE010000 		.4byte	.LBB5
 8228 1b4d A4010000 		.4byte	.LBE5-.LBB5
 8229 1b51 2B       		.uleb128 0x2b
 8230 1b52 4D0D0000 		.4byte	.LASF375
 8231 1b56 02       		.byte	0x2
 8232 1b57 D7       		.byte	0xd7
 8233 1b58 D9000000 		.4byte	0xd9
 8234 1b5c 02       		.uleb128 0x2
 8235 1b5d 91       		.byte	0x91
 8236 1b5e 48       		.sleb128 -56
 8237 1b5f 2C       		.uleb128 0x2c
 8238 1b60 6900     		.ascii	"i\000"
 8239 1b62 02       		.byte	0x2
 8240 1b63 DA       		.byte	0xda
 8241 1b64 C3000000 		.4byte	0xc3
 8242 1b68 02       		.uleb128 0x2
 8243 1b69 91       		.byte	0x91
 8244 1b6a 5A       		.sleb128 -38
ARM GAS  C:\Users\tmj32\AppData\Local\Temp\ccyJ4BPG.s 			page 168


 8245 1b6b 2B       		.uleb128 0x2b
 8246 1b6c 0B020000 		.4byte	.LASF376
 8247 1b70 02       		.byte	0x2
 8248 1b71 DB       		.byte	0xdb
 8249 1b72 D9000000 		.4byte	0xd9
 8250 1b76 02       		.uleb128 0x2
 8251 1b77 91       		.byte	0x91
 8252 1b78 58       		.sleb128 -40
 8253 1b79 2B       		.uleb128 0x2b
 8254 1b7a 2F120000 		.4byte	.LASF377
 8255 1b7e 02       		.byte	0x2
 8256 1b7f DD       		.byte	0xdd
 8257 1b80 D9000000 		.4byte	0xd9
 8258 1b84 02       		.uleb128 0x2
 8259 1b85 91       		.byte	0x91
 8260 1b86 46       		.sleb128 -58
 8261 1b87 00       		.byte	0
 8262 1b88 00       		.byte	0
 8263 1b89 00       		.byte	0
 8264 1b8a 31       		.uleb128 0x31
 8265 1b8b 70020000 		.4byte	.LASF379
 8266 1b8f 02       		.byte	0x2
 8267 1b90 1401     		.2byte	0x114
 8268 1b92 00000000 		.4byte	.LFB48
 8269 1b96 38000000 		.4byte	.LFE48-.LFB48
 8270 1b9a 01       		.uleb128 0x1
 8271 1b9b 9C       		.byte	0x9c
 8272 1b9c CE1B0000 		.4byte	0x1bce
 8273 1ba0 32       		.uleb128 0x32
 8274 1ba1 BF030000 		.4byte	.LASF345
 8275 1ba5 02       		.byte	0x2
 8276 1ba6 1401     		.2byte	0x114
 8277 1ba8 281A0000 		.4byte	0x1a28
 8278 1bac 02       		.uleb128 0x2
 8279 1bad 91       		.byte	0x91
 8280 1bae 6C       		.sleb128 -20
 8281 1baf 32       		.uleb128 0x32
 8282 1bb0 670C0000 		.4byte	.LASF380
 8283 1bb4 02       		.byte	0x2
 8284 1bb5 1401     		.2byte	0x114
 8285 1bb7 CE1B0000 		.4byte	0x1bce
 8286 1bbb 02       		.uleb128 0x2
 8287 1bbc 91       		.byte	0x91
 8288 1bbd 68       		.sleb128 -24
 8289 1bbe 33       		.uleb128 0x33
 8290 1bbf 65787400 		.ascii	"ext\000"
 8291 1bc3 02       		.byte	0x2
 8292 1bc4 1801     		.2byte	0x118
 8293 1bc6 331A0000 		.4byte	0x1a33
 8294 1bca 02       		.uleb128 0x2
 8295 1bcb 91       		.byte	0x91
 8296 1bcc 74       		.sleb128 -12
 8297 1bcd 00       		.byte	0
 8298 1bce 0D       		.uleb128 0xd
 8299 1bcf 04       		.byte	0x4
 8300 1bd0 D41B0000 		.4byte	0x1bd4
 8301 1bd4 0E       		.uleb128 0xe
ARM GAS  C:\Users\tmj32\AppData\Local\Temp\ccyJ4BPG.s 			page 169


 8302 1bd5 97100000 		.4byte	0x1097
 8303 1bd9 31       		.uleb128 0x31
 8304 1bda BE060000 		.4byte	.LASF381
 8305 1bde 02       		.byte	0x2
 8306 1bdf 2401     		.2byte	0x124
 8307 1be1 00000000 		.4byte	.LFB49
 8308 1be5 4C000000 		.4byte	.LFE49-.LFB49
 8309 1be9 01       		.uleb128 0x1
 8310 1bea 9C       		.byte	0x9c
 8311 1beb 1C1C0000 		.4byte	0x1c1c
 8312 1bef 32       		.uleb128 0x32
 8313 1bf0 BF030000 		.4byte	.LASF345
 8314 1bf4 02       		.byte	0x2
 8315 1bf5 2401     		.2byte	0x124
 8316 1bf7 281A0000 		.4byte	0x1a28
 8317 1bfb 02       		.uleb128 0x2
 8318 1bfc 91       		.byte	0x91
 8319 1bfd 6C       		.sleb128 -20
 8320 1bfe 34       		.uleb128 0x34
 8321 1bff 696400   		.ascii	"id\000"
 8322 1c02 02       		.byte	0x2
 8323 1c03 2401     		.2byte	0x124
 8324 1c05 C3000000 		.4byte	0xc3
 8325 1c09 02       		.uleb128 0x2
 8326 1c0a 91       		.byte	0x91
 8327 1c0b 6A       		.sleb128 -22
 8328 1c0c 33       		.uleb128 0x33
 8329 1c0d 65787400 		.ascii	"ext\000"
 8330 1c11 02       		.byte	0x2
 8331 1c12 2801     		.2byte	0x128
 8332 1c14 331A0000 		.4byte	0x1a33
 8333 1c18 02       		.uleb128 0x2
 8334 1c19 91       		.byte	0x91
 8335 1c1a 74       		.sleb128 -12
 8336 1c1b 00       		.byte	0
 8337 1c1c 31       		.uleb128 0x31
 8338 1c1d 830C0000 		.4byte	.LASF382
 8339 1c21 02       		.byte	0x2
 8340 1c22 3801     		.2byte	0x138
 8341 1c24 00000000 		.4byte	.LFB50
 8342 1c28 94000000 		.4byte	.LFE50-.LFB50
 8343 1c2c 01       		.uleb128 0x1
 8344 1c2d 9C       		.byte	0x9c
 8345 1c2e 6F1C0000 		.4byte	0x1c6f
 8346 1c32 32       		.uleb128 0x32
 8347 1c33 BF030000 		.4byte	.LASF345
 8348 1c37 02       		.byte	0x2
 8349 1c38 3801     		.2byte	0x138
 8350 1c3a 221A0000 		.4byte	0x1a22
 8351 1c3e 02       		.uleb128 0x2
 8352 1c3f 91       		.byte	0x91
 8353 1c40 6C       		.sleb128 -20
 8354 1c41 32       		.uleb128 0x32
 8355 1c42 EA010000 		.4byte	.LASF56
 8356 1c46 02       		.byte	0x2
 8357 1c47 3801     		.2byte	0x138
 8358 1c49 65110000 		.4byte	0x1165
ARM GAS  C:\Users\tmj32\AppData\Local\Temp\ccyJ4BPG.s 			page 170


 8359 1c4d 02       		.uleb128 0x2
 8360 1c4e 91       		.byte	0x91
 8361 1c4f 6B       		.sleb128 -21
 8362 1c50 32       		.uleb128 0x32
 8363 1c51 9E0E0000 		.4byte	.LASF355
 8364 1c55 02       		.byte	0x2
 8365 1c56 3801     		.2byte	0x138
 8366 1c58 830F0000 		.4byte	0xf83
 8367 1c5c 02       		.uleb128 0x2
 8368 1c5d 91       		.byte	0x91
 8369 1c5e 64       		.sleb128 -28
 8370 1c5f 33       		.uleb128 0x33
 8371 1c60 65787400 		.ascii	"ext\000"
 8372 1c64 02       		.byte	0x2
 8373 1c65 3C01     		.2byte	0x13c
 8374 1c67 331A0000 		.4byte	0x1a33
 8375 1c6b 02       		.uleb128 0x2
 8376 1c6c 91       		.byte	0x91
 8377 1c6d 74       		.sleb128 -12
 8378 1c6e 00       		.byte	0
 8379 1c6f 31       		.uleb128 0x31
 8380 1c70 1E070000 		.4byte	.LASF383
 8381 1c74 02       		.byte	0x2
 8382 1c75 5C01     		.2byte	0x15c
 8383 1c77 00000000 		.4byte	.LFB51
 8384 1c7b 32000000 		.4byte	.LFE51-.LFB51
 8385 1c7f 01       		.uleb128 0x1
 8386 1c80 9C       		.byte	0x9c
 8387 1c81 B21C0000 		.4byte	0x1cb2
 8388 1c85 32       		.uleb128 0x32
 8389 1c86 BF030000 		.4byte	.LASF345
 8390 1c8a 02       		.byte	0x2
 8391 1c8b 5C01     		.2byte	0x15c
 8392 1c8d 281A0000 		.4byte	0x1a28
 8393 1c91 02       		.uleb128 0x2
 8394 1c92 91       		.byte	0x91
 8395 1c93 6C       		.sleb128 -20
 8396 1c94 34       		.uleb128 0x34
 8397 1c95 656E00   		.ascii	"en\000"
 8398 1c98 02       		.byte	0x2
 8399 1c99 5C01     		.2byte	0x15c
 8400 1c9b BF010000 		.4byte	0x1bf
 8401 1c9f 02       		.uleb128 0x2
 8402 1ca0 91       		.byte	0x91
 8403 1ca1 6B       		.sleb128 -21
 8404 1ca2 33       		.uleb128 0x33
 8405 1ca3 65787400 		.ascii	"ext\000"
 8406 1ca7 02       		.byte	0x2
 8407 1ca8 6001     		.2byte	0x160
 8408 1caa 331A0000 		.4byte	0x1a33
 8409 1cae 02       		.uleb128 0x2
 8410 1caf 91       		.byte	0x91
 8411 1cb0 74       		.sleb128 -12
 8412 1cb1 00       		.byte	0
 8413 1cb2 31       		.uleb128 0x31
 8414 1cb3 6D100000 		.4byte	.LASF384
 8415 1cb7 02       		.byte	0x2
ARM GAS  C:\Users\tmj32\AppData\Local\Temp\ccyJ4BPG.s 			page 171


 8416 1cb8 6B01     		.2byte	0x16b
 8417 1cba 00000000 		.4byte	.LFB52
 8418 1cbe 54000000 		.4byte	.LFE52-.LFB52
 8419 1cc2 01       		.uleb128 0x1
 8420 1cc3 9C       		.byte	0x9c
 8421 1cc4 051D0000 		.4byte	0x1d05
 8422 1cc8 32       		.uleb128 0x32
 8423 1cc9 BF030000 		.4byte	.LASF345
 8424 1ccd 02       		.byte	0x2
 8425 1cce 6B01     		.2byte	0x16b
 8426 1cd0 281A0000 		.4byte	0x1a28
 8427 1cd4 02       		.uleb128 0x2
 8428 1cd5 91       		.byte	0x91
 8429 1cd6 6C       		.sleb128 -20
 8430 1cd7 32       		.uleb128 0x32
 8431 1cd8 5C050000 		.4byte	.LASF164
 8432 1cdc 02       		.byte	0x2
 8433 1cdd 6B01     		.2byte	0x16b
 8434 1cdf C3000000 		.4byte	0xc3
 8435 1ce3 02       		.uleb128 0x2
 8436 1ce4 91       		.byte	0x91
 8437 1ce5 6A       		.sleb128 -22
 8438 1ce6 32       		.uleb128 0x32
 8439 1ce7 D8040000 		.4byte	.LASF385
 8440 1ceb 02       		.byte	0x2
 8441 1cec 6B01     		.2byte	0x16b
 8442 1cee 97100000 		.4byte	0x1097
 8443 1cf2 02       		.uleb128 0x2
 8444 1cf3 91       		.byte	0x91
 8445 1cf4 68       		.sleb128 -24
 8446 1cf5 33       		.uleb128 0x33
 8447 1cf6 65787400 		.ascii	"ext\000"
 8448 1cfa 02       		.byte	0x2
 8449 1cfb 6F01     		.2byte	0x16f
 8450 1cfd 331A0000 		.4byte	0x1a33
 8451 1d01 02       		.uleb128 0x2
 8452 1d02 91       		.byte	0x91
 8453 1d03 74       		.sleb128 -12
 8454 1d04 00       		.byte	0
 8455 1d05 31       		.uleb128 0x31
 8456 1d06 F1160000 		.4byte	.LASF386
 8457 1d0a 02       		.byte	0x2
 8458 1d0b 7C01     		.2byte	0x17c
 8459 1d0d 00000000 		.4byte	.LFB53
 8460 1d11 5E000000 		.4byte	.LFE53-.LFB53
 8461 1d15 01       		.uleb128 0x1
 8462 1d16 9C       		.byte	0x9c
 8463 1d17 581D0000 		.4byte	0x1d58
 8464 1d1b 32       		.uleb128 0x32
 8465 1d1c BF030000 		.4byte	.LASF345
 8466 1d20 02       		.byte	0x2
 8467 1d21 7C01     		.2byte	0x17c
 8468 1d23 281A0000 		.4byte	0x1a28
 8469 1d27 02       		.uleb128 0x2
 8470 1d28 91       		.byte	0x91
 8471 1d29 6C       		.sleb128 -20
 8472 1d2a 32       		.uleb128 0x32
ARM GAS  C:\Users\tmj32\AppData\Local\Temp\ccyJ4BPG.s 			page 172


 8473 1d2b 5C050000 		.4byte	.LASF164
 8474 1d2f 02       		.byte	0x2
 8475 1d30 7C01     		.2byte	0x17c
 8476 1d32 C3000000 		.4byte	0xc3
 8477 1d36 02       		.uleb128 0x2
 8478 1d37 91       		.byte	0x91
 8479 1d38 6A       		.sleb128 -22
 8480 1d39 32       		.uleb128 0x32
 8481 1d3a D8040000 		.4byte	.LASF385
 8482 1d3e 02       		.byte	0x2
 8483 1d3f 7C01     		.2byte	0x17c
 8484 1d41 97100000 		.4byte	0x1097
 8485 1d45 02       		.uleb128 0x2
 8486 1d46 91       		.byte	0x91
 8487 1d47 68       		.sleb128 -24
 8488 1d48 33       		.uleb128 0x33
 8489 1d49 65787400 		.ascii	"ext\000"
 8490 1d4d 02       		.byte	0x2
 8491 1d4e 8001     		.2byte	0x180
 8492 1d50 331A0000 		.4byte	0x1a33
 8493 1d54 02       		.uleb128 0x2
 8494 1d55 91       		.byte	0x91
 8495 1d56 74       		.sleb128 -12
 8496 1d57 00       		.byte	0
 8497 1d58 31       		.uleb128 0x31
 8498 1d59 8B0B0000 		.4byte	.LASF387
 8499 1d5d 02       		.byte	0x2
 8500 1d5e 8D01     		.2byte	0x18d
 8501 1d60 00000000 		.4byte	.LFB54
 8502 1d64 3E000000 		.4byte	.LFE54-.LFB54
 8503 1d68 01       		.uleb128 0x1
 8504 1d69 9C       		.byte	0x9c
 8505 1d6a A91D0000 		.4byte	0x1da9
 8506 1d6e 32       		.uleb128 0x32
 8507 1d6f BF030000 		.4byte	.LASF345
 8508 1d73 02       		.byte	0x2
 8509 1d74 8D01     		.2byte	0x18d
 8510 1d76 221A0000 		.4byte	0x1a22
 8511 1d7a 02       		.uleb128 0x2
 8512 1d7b 91       		.byte	0x91
 8513 1d7c 6C       		.sleb128 -20
 8514 1d7d 32       		.uleb128 0x32
 8515 1d7e D8040000 		.4byte	.LASF385
 8516 1d82 02       		.byte	0x2
 8517 1d83 8D01     		.2byte	0x18d
 8518 1d85 97100000 		.4byte	0x1097
 8519 1d89 02       		.uleb128 0x2
 8520 1d8a 91       		.byte	0x91
 8521 1d8b 6A       		.sleb128 -22
 8522 1d8c 33       		.uleb128 0x33
 8523 1d8d 65787400 		.ascii	"ext\000"
 8524 1d91 02       		.byte	0x2
 8525 1d92 9101     		.2byte	0x191
 8526 1d94 331A0000 		.4byte	0x1a33
 8527 1d98 02       		.uleb128 0x2
 8528 1d99 91       		.byte	0x91
 8529 1d9a 70       		.sleb128 -16
ARM GAS  C:\Users\tmj32\AppData\Local\Temp\ccyJ4BPG.s 			page 173


 8530 1d9b 33       		.uleb128 0x33
 8531 1d9c 6900     		.ascii	"i\000"
 8532 1d9e 02       		.byte	0x2
 8533 1d9f 9201     		.2byte	0x192
 8534 1da1 C3000000 		.4byte	0xc3
 8535 1da5 02       		.uleb128 0x2
 8536 1da6 91       		.byte	0x91
 8537 1da7 76       		.sleb128 -10
 8538 1da8 00       		.byte	0
 8539 1da9 31       		.uleb128 0x31
 8540 1daa F9040000 		.4byte	.LASF388
 8541 1dae 02       		.byte	0x2
 8542 1daf 9E01     		.2byte	0x19e
 8543 1db1 00000000 		.4byte	.LFB55
 8544 1db5 3E000000 		.4byte	.LFE55-.LFB55
 8545 1db9 01       		.uleb128 0x1
 8546 1dba 9C       		.byte	0x9c
 8547 1dbb FA1D0000 		.4byte	0x1dfa
 8548 1dbf 32       		.uleb128 0x32
 8549 1dc0 BF030000 		.4byte	.LASF345
 8550 1dc4 02       		.byte	0x2
 8551 1dc5 9E01     		.2byte	0x19e
 8552 1dc7 221A0000 		.4byte	0x1a22
 8553 1dcb 02       		.uleb128 0x2
 8554 1dcc 91       		.byte	0x91
 8555 1dcd 6C       		.sleb128 -20
 8556 1dce 32       		.uleb128 0x32
 8557 1dcf D8040000 		.4byte	.LASF385
 8558 1dd3 02       		.byte	0x2
 8559 1dd4 9E01     		.2byte	0x19e
 8560 1dd6 97100000 		.4byte	0x1097
 8561 1dda 02       		.uleb128 0x2
 8562 1ddb 91       		.byte	0x91
 8563 1ddc 6A       		.sleb128 -22
 8564 1ddd 33       		.uleb128 0x33
 8565 1dde 65787400 		.ascii	"ext\000"
 8566 1de2 02       		.byte	0x2
 8567 1de3 A201     		.2byte	0x1a2
 8568 1de5 331A0000 		.4byte	0x1a33
 8569 1de9 02       		.uleb128 0x2
 8570 1dea 91       		.byte	0x91
 8571 1deb 70       		.sleb128 -16
 8572 1dec 33       		.uleb128 0x33
 8573 1ded 6900     		.ascii	"i\000"
 8574 1def 02       		.byte	0x2
 8575 1df0 A301     		.2byte	0x1a3
 8576 1df2 C3000000 		.4byte	0xc3
 8577 1df6 02       		.uleb128 0x2
 8578 1df7 91       		.byte	0x91
 8579 1df8 76       		.sleb128 -10
 8580 1df9 00       		.byte	0
 8581 1dfa 31       		.uleb128 0x31
 8582 1dfb AC0B0000 		.4byte	.LASF389
 8583 1dff 02       		.byte	0x2
 8584 1e00 B201     		.2byte	0x1b2
 8585 1e02 00000000 		.4byte	.LFB56
 8586 1e06 80000000 		.4byte	.LFE56-.LFB56
ARM GAS  C:\Users\tmj32\AppData\Local\Temp\ccyJ4BPG.s 			page 174


 8587 1e0a 01       		.uleb128 0x1
 8588 1e0b 9C       		.byte	0x9c
 8589 1e0c 4D1E0000 		.4byte	0x1e4d
 8590 1e10 32       		.uleb128 0x32
 8591 1e11 BF030000 		.4byte	.LASF345
 8592 1e15 02       		.byte	0x2
 8593 1e16 B201     		.2byte	0x1b2
 8594 1e18 281A0000 		.4byte	0x1a28
 8595 1e1c 02       		.uleb128 0x2
 8596 1e1d 91       		.byte	0x91
 8597 1e1e 6C       		.sleb128 -20
 8598 1e1f 32       		.uleb128 0x32
 8599 1e20 5C050000 		.4byte	.LASF164
 8600 1e24 02       		.byte	0x2
 8601 1e25 B201     		.2byte	0x1b2
 8602 1e27 C3000000 		.4byte	0xc3
 8603 1e2b 02       		.uleb128 0x2
 8604 1e2c 91       		.byte	0x91
 8605 1e2d 6A       		.sleb128 -22
 8606 1e2e 32       		.uleb128 0x32
 8607 1e2f 080B0000 		.4byte	.LASF54
 8608 1e33 02       		.byte	0x2
 8609 1e34 B201     		.2byte	0x1b2
 8610 1e36 AD000000 		.4byte	0xad
 8611 1e3a 02       		.uleb128 0x2
 8612 1e3b 91       		.byte	0x91
 8613 1e3c 69       		.sleb128 -23
 8614 1e3d 33       		.uleb128 0x33
 8615 1e3e 65787400 		.ascii	"ext\000"
 8616 1e42 02       		.byte	0x2
 8617 1e43 B701     		.2byte	0x1b7
 8618 1e45 331A0000 		.4byte	0x1a33
 8619 1e49 02       		.uleb128 0x2
 8620 1e4a 91       		.byte	0x91
 8621 1e4b 74       		.sleb128 -12
 8622 1e4c 00       		.byte	0
 8623 1e4d 31       		.uleb128 0x31
 8624 1e4e F9090000 		.4byte	.LASF390
 8625 1e52 02       		.byte	0x2
 8626 1e53 C801     		.2byte	0x1c8
 8627 1e55 00000000 		.4byte	.LFB57
 8628 1e59 34000000 		.4byte	.LFE57-.LFB57
 8629 1e5d 01       		.uleb128 0x1
 8630 1e5e 9C       		.byte	0x9c
 8631 1e5f 911E0000 		.4byte	0x1e91
 8632 1e63 32       		.uleb128 0x32
 8633 1e64 BF030000 		.4byte	.LASF345
 8634 1e68 02       		.byte	0x2
 8635 1e69 C801     		.2byte	0x1c8
 8636 1e6b 221A0000 		.4byte	0x1a22
 8637 1e6f 02       		.uleb128 0x2
 8638 1e70 91       		.byte	0x91
 8639 1e71 6C       		.sleb128 -20
 8640 1e72 32       		.uleb128 0x32
 8641 1e73 21090000 		.4byte	.LASF304
 8642 1e77 02       		.byte	0x2
 8643 1e78 C801     		.2byte	0x1c8
ARM GAS  C:\Users\tmj32\AppData\Local\Temp\ccyJ4BPG.s 			page 175


 8644 1e7a BF010000 		.4byte	0x1bf
 8645 1e7e 02       		.uleb128 0x2
 8646 1e7f 91       		.byte	0x91
 8647 1e80 6B       		.sleb128 -21
 8648 1e81 33       		.uleb128 0x33
 8649 1e82 65787400 		.ascii	"ext\000"
 8650 1e86 02       		.byte	0x2
 8651 1e87 CC01     		.2byte	0x1cc
 8652 1e89 331A0000 		.4byte	0x1a33
 8653 1e8d 02       		.uleb128 0x2
 8654 1e8e 91       		.byte	0x91
 8655 1e8f 74       		.sleb128 -12
 8656 1e90 00       		.byte	0
 8657 1e91 35       		.uleb128 0x35
 8658 1e92 DF130000 		.4byte	.LASF392
 8659 1e96 02       		.byte	0x2
 8660 1e97 DC01     		.2byte	0x1dc
 8661 1e99 1D110000 		.4byte	0x111d
 8662 1e9d 00000000 		.4byte	.LFB58
 8663 1ea1 1C000000 		.4byte	.LFE58-.LFB58
 8664 1ea5 01       		.uleb128 0x1
 8665 1ea6 9C       		.byte	0x9c
 8666 1ea7 CA1E0000 		.4byte	0x1eca
 8667 1eab 32       		.uleb128 0x32
 8668 1eac BF030000 		.4byte	.LASF345
 8669 1eb0 02       		.byte	0x2
 8670 1eb1 DC01     		.2byte	0x1dc
 8671 1eb3 281A0000 		.4byte	0x1a28
 8672 1eb7 02       		.uleb128 0x2
 8673 1eb8 91       		.byte	0x91
 8674 1eb9 6C       		.sleb128 -20
 8675 1eba 33       		.uleb128 0x33
 8676 1ebb 65787400 		.ascii	"ext\000"
 8677 1ebf 02       		.byte	0x2
 8678 1ec0 E001     		.2byte	0x1e0
 8679 1ec2 331A0000 		.4byte	0x1a33
 8680 1ec6 02       		.uleb128 0x2
 8681 1ec7 91       		.byte	0x91
 8682 1ec8 74       		.sleb128 -12
 8683 1ec9 00       		.byte	0
 8684 1eca 35       		.uleb128 0x35
 8685 1ecb EC0D0000 		.4byte	.LASF393
 8686 1ecf 02       		.byte	0x2
 8687 1ed0 E901     		.2byte	0x1e9
 8688 1ed2 BF010000 		.4byte	0x1bf
 8689 1ed6 00000000 		.4byte	.LFB59
 8690 1eda 2E000000 		.4byte	.LFE59-.LFB59
 8691 1ede 01       		.uleb128 0x1
 8692 1edf 9C       		.byte	0x9c
 8693 1ee0 031F0000 		.4byte	0x1f03
 8694 1ee4 32       		.uleb128 0x32
 8695 1ee5 BF030000 		.4byte	.LASF345
 8696 1ee9 02       		.byte	0x2
 8697 1eea E901     		.2byte	0x1e9
 8698 1eec 281A0000 		.4byte	0x1a28
 8699 1ef0 02       		.uleb128 0x2
 8700 1ef1 91       		.byte	0x91
ARM GAS  C:\Users\tmj32\AppData\Local\Temp\ccyJ4BPG.s 			page 176


 8701 1ef2 6C       		.sleb128 -20
 8702 1ef3 33       		.uleb128 0x33
 8703 1ef4 65787400 		.ascii	"ext\000"
 8704 1ef8 02       		.byte	0x2
 8705 1ef9 ED01     		.2byte	0x1ed
 8706 1efb 331A0000 		.4byte	0x1a33
 8707 1eff 02       		.uleb128 0x2
 8708 1f00 91       		.byte	0x91
 8709 1f01 74       		.sleb128 -12
 8710 1f02 00       		.byte	0
 8711 1f03 35       		.uleb128 0x35
 8712 1f04 900D0000 		.4byte	.LASF394
 8713 1f08 02       		.byte	0x2
 8714 1f09 F801     		.2byte	0x1f8
 8715 1f0b C3000000 		.4byte	0xc3
 8716 1f0f 00000000 		.4byte	.LFB60
 8717 1f13 1C000000 		.4byte	.LFE60-.LFB60
 8718 1f17 01       		.uleb128 0x1
 8719 1f18 9C       		.byte	0x9c
 8720 1f19 3C1F0000 		.4byte	0x1f3c
 8721 1f1d 32       		.uleb128 0x32
 8722 1f1e BF030000 		.4byte	.LASF345
 8723 1f22 02       		.byte	0x2
 8724 1f23 F801     		.2byte	0x1f8
 8725 1f25 281A0000 		.4byte	0x1a28
 8726 1f29 02       		.uleb128 0x2
 8727 1f2a 91       		.byte	0x91
 8728 1f2b 6C       		.sleb128 -20
 8729 1f2c 33       		.uleb128 0x33
 8730 1f2d 65787400 		.ascii	"ext\000"
 8731 1f31 02       		.byte	0x2
 8732 1f32 FC01     		.2byte	0x1fc
 8733 1f34 331A0000 		.4byte	0x1a33
 8734 1f38 02       		.uleb128 0x2
 8735 1f39 91       		.byte	0x91
 8736 1f3a 74       		.sleb128 -12
 8737 1f3b 00       		.byte	0
 8738 1f3c 35       		.uleb128 0x35
 8739 1f3d 6F0B0000 		.4byte	.LASF395
 8740 1f41 02       		.byte	0x2
 8741 1f42 0602     		.2byte	0x206
 8742 1f44 95020000 		.4byte	0x295
 8743 1f48 00000000 		.4byte	.LFB61
 8744 1f4c 36000000 		.4byte	.LFE61-.LFB61
 8745 1f50 01       		.uleb128 0x1
 8746 1f51 9C       		.byte	0x9c
 8747 1f52 751F0000 		.4byte	0x1f75
 8748 1f56 32       		.uleb128 0x32
 8749 1f57 BF030000 		.4byte	.LASF345
 8750 1f5b 02       		.byte	0x2
 8751 1f5c 0602     		.2byte	0x206
 8752 1f5e 281A0000 		.4byte	0x1a28
 8753 1f62 02       		.uleb128 0x2
 8754 1f63 91       		.byte	0x91
 8755 1f64 6C       		.sleb128 -20
 8756 1f65 33       		.uleb128 0x33
 8757 1f66 65787400 		.ascii	"ext\000"
ARM GAS  C:\Users\tmj32\AppData\Local\Temp\ccyJ4BPG.s 			page 177


 8758 1f6a 02       		.byte	0x2
 8759 1f6b 0A02     		.2byte	0x20a
 8760 1f6d 331A0000 		.4byte	0x1a33
 8761 1f71 02       		.uleb128 0x2
 8762 1f72 91       		.byte	0x91
 8763 1f73 74       		.sleb128 -12
 8764 1f74 00       		.byte	0
 8765 1f75 35       		.uleb128 0x35
 8766 1f76 6A040000 		.4byte	.LASF396
 8767 1f7a 02       		.byte	0x2
 8768 1f7b 1802     		.2byte	0x218
 8769 1f7d C3000000 		.4byte	0xc3
 8770 1f81 00000000 		.4byte	.LFB62
 8771 1f85 1C000000 		.4byte	.LFE62-.LFB62
 8772 1f89 01       		.uleb128 0x1
 8773 1f8a 9C       		.byte	0x9c
 8774 1f8b AE1F0000 		.4byte	0x1fae
 8775 1f8f 32       		.uleb128 0x32
 8776 1f90 BF030000 		.4byte	.LASF345
 8777 1f94 02       		.byte	0x2
 8778 1f95 1802     		.2byte	0x218
 8779 1f97 281A0000 		.4byte	0x1a28
 8780 1f9b 02       		.uleb128 0x2
 8781 1f9c 91       		.byte	0x91
 8782 1f9d 6C       		.sleb128 -20
 8783 1f9e 33       		.uleb128 0x33
 8784 1f9f 65787400 		.ascii	"ext\000"
 8785 1fa3 02       		.byte	0x2
 8786 1fa4 1C02     		.2byte	0x21c
 8787 1fa6 331A0000 		.4byte	0x1a33
 8788 1faa 02       		.uleb128 0x2
 8789 1fab 91       		.byte	0x91
 8790 1fac 74       		.sleb128 -12
 8791 1fad 00       		.byte	0
 8792 1fae 35       		.uleb128 0x35
 8793 1faf CC150000 		.4byte	.LASF397
 8794 1fb3 02       		.byte	0x2
 8795 1fb4 2702     		.2byte	0x227
 8796 1fb6 95020000 		.4byte	0x295
 8797 1fba 00000000 		.4byte	.LFB63
 8798 1fbe 88000000 		.4byte	.LFE63-.LFB63
 8799 1fc2 01       		.uleb128 0x1
 8800 1fc3 9C       		.byte	0x9c
 8801 1fc4 14200000 		.4byte	0x2014
 8802 1fc8 32       		.uleb128 0x32
 8803 1fc9 BF030000 		.4byte	.LASF345
 8804 1fcd 02       		.byte	0x2
 8805 1fce 2702     		.2byte	0x227
 8806 1fd0 281A0000 		.4byte	0x1a28
 8807 1fd4 02       		.uleb128 0x2
 8808 1fd5 91       		.byte	0x91
 8809 1fd6 6C       		.sleb128 -20
 8810 1fd7 32       		.uleb128 0x32
 8811 1fd8 5C050000 		.4byte	.LASF164
 8812 1fdc 02       		.byte	0x2
 8813 1fdd 2702     		.2byte	0x227
 8814 1fdf C3000000 		.4byte	0xc3
ARM GAS  C:\Users\tmj32\AppData\Local\Temp\ccyJ4BPG.s 			page 178


 8815 1fe3 02       		.uleb128 0x2
 8816 1fe4 91       		.byte	0x91
 8817 1fe5 6A       		.sleb128 -22
 8818 1fe6 33       		.uleb128 0x33
 8819 1fe7 65787400 		.ascii	"ext\000"
 8820 1feb 02       		.byte	0x2
 8821 1fec 2B02     		.2byte	0x22b
 8822 1fee 331A0000 		.4byte	0x1a33
 8823 1ff2 02       		.uleb128 0x2
 8824 1ff3 91       		.byte	0x91
 8825 1ff4 70       		.sleb128 -16
 8826 1ff5 36       		.uleb128 0x36
 8827 1ff6 C7010000 		.4byte	.LASF398
 8828 1ffa 02       		.byte	0x2
 8829 1ffb 2E02     		.2byte	0x22e
 8830 1ffd C3000000 		.4byte	0xc3
 8831 2001 02       		.uleb128 0x2
 8832 2002 91       		.byte	0x91
 8833 2003 76       		.sleb128 -10
 8834 2004 36       		.uleb128 0x36
 8835 2005 5D060000 		.4byte	.LASF373
 8836 2009 02       		.byte	0x2
 8837 200a 2F02     		.2byte	0x22f
 8838 200c C3000000 		.4byte	0xc3
 8839 2010 02       		.uleb128 0x2
 8840 2011 91       		.byte	0x91
 8841 2012 74       		.sleb128 -12
 8842 2013 00       		.byte	0
 8843 2014 35       		.uleb128 0x35
 8844 2015 44030000 		.4byte	.LASF399
 8845 2019 02       		.byte	0x2
 8846 201a 4602     		.2byte	0x246
 8847 201c BF010000 		.4byte	0x1bf
 8848 2020 00000000 		.4byte	.LFB64
 8849 2024 4A000000 		.4byte	.LFE64-.LFB64
 8850 2028 01       		.uleb128 0x1
 8851 2029 9C       		.byte	0x9c
 8852 202a 6B200000 		.4byte	0x206b
 8853 202e 32       		.uleb128 0x32
 8854 202f BF030000 		.4byte	.LASF345
 8855 2033 02       		.byte	0x2
 8856 2034 4602     		.2byte	0x246
 8857 2036 221A0000 		.4byte	0x1a22
 8858 203a 02       		.uleb128 0x2
 8859 203b 91       		.byte	0x91
 8860 203c 6C       		.sleb128 -20
 8861 203d 32       		.uleb128 0x32
 8862 203e 5C050000 		.4byte	.LASF164
 8863 2042 02       		.byte	0x2
 8864 2043 4602     		.2byte	0x246
 8865 2045 C3000000 		.4byte	0xc3
 8866 2049 02       		.uleb128 0x2
 8867 204a 91       		.byte	0x91
 8868 204b 6A       		.sleb128 -22
 8869 204c 32       		.uleb128 0x32
 8870 204d D8040000 		.4byte	.LASF385
 8871 2051 02       		.byte	0x2
ARM GAS  C:\Users\tmj32\AppData\Local\Temp\ccyJ4BPG.s 			page 179


 8872 2052 4602     		.2byte	0x246
 8873 2054 97100000 		.4byte	0x1097
 8874 2058 02       		.uleb128 0x2
 8875 2059 91       		.byte	0x91
 8876 205a 68       		.sleb128 -24
 8877 205b 33       		.uleb128 0x33
 8878 205c 65787400 		.ascii	"ext\000"
 8879 2060 02       		.byte	0x2
 8880 2061 4A02     		.2byte	0x24a
 8881 2063 331A0000 		.4byte	0x1a33
 8882 2067 02       		.uleb128 0x2
 8883 2068 91       		.byte	0x91
 8884 2069 74       		.sleb128 -12
 8885 206a 00       		.byte	0
 8886 206b 35       		.uleb128 0x35
 8887 206c 65150000 		.4byte	.LASF400
 8888 2070 02       		.byte	0x2
 8889 2071 5602     		.2byte	0x256
 8890 2073 830F0000 		.4byte	0xf83
 8891 2077 00000000 		.4byte	.LFB65
 8892 207b 7E000000 		.4byte	.LFE65-.LFB65
 8893 207f 01       		.uleb128 0x1
 8894 2080 9C       		.byte	0x9c
 8895 2081 C2200000 		.4byte	0x20c2
 8896 2085 32       		.uleb128 0x32
 8897 2086 BF030000 		.4byte	.LASF345
 8898 208a 02       		.byte	0x2
 8899 208b 5602     		.2byte	0x256
 8900 208d 281A0000 		.4byte	0x1a28
 8901 2091 02       		.uleb128 0x2
 8902 2092 91       		.byte	0x91
 8903 2093 6C       		.sleb128 -20
 8904 2094 32       		.uleb128 0x32
 8905 2095 EA010000 		.4byte	.LASF56
 8906 2099 02       		.byte	0x2
 8907 209a 5602     		.2byte	0x256
 8908 209c 65110000 		.4byte	0x1165
 8909 20a0 02       		.uleb128 0x2
 8910 20a1 91       		.byte	0x91
 8911 20a2 6B       		.sleb128 -21
 8912 20a3 36       		.uleb128 0x36
 8913 20a4 9E0E0000 		.4byte	.LASF355
 8914 20a8 02       		.byte	0x2
 8915 20a9 5A02     		.2byte	0x25a
 8916 20ab 830F0000 		.4byte	0xf83
 8917 20af 02       		.uleb128 0x2
 8918 20b0 91       		.byte	0x91
 8919 20b1 74       		.sleb128 -12
 8920 20b2 33       		.uleb128 0x33
 8921 20b3 65787400 		.ascii	"ext\000"
 8922 20b7 02       		.byte	0x2
 8923 20b8 5B02     		.2byte	0x25b
 8924 20ba 331A0000 		.4byte	0x1a33
 8925 20be 02       		.uleb128 0x2
 8926 20bf 91       		.byte	0x91
 8927 20c0 70       		.sleb128 -16
 8928 20c1 00       		.byte	0
ARM GAS  C:\Users\tmj32\AppData\Local\Temp\ccyJ4BPG.s 			page 180


 8929 20c2 35       		.uleb128 0x35
 8930 20c3 8D030000 		.4byte	.LASF401
 8931 20c7 02       		.byte	0x2
 8932 20c8 6F02     		.2byte	0x26f
 8933 20ca BF010000 		.4byte	0x1bf
 8934 20ce 00000000 		.4byte	.LFB66
 8935 20d2 2E000000 		.4byte	.LFE66-.LFB66
 8936 20d6 01       		.uleb128 0x1
 8937 20d7 9C       		.byte	0x9c
 8938 20d8 FB200000 		.4byte	0x20fb
 8939 20dc 32       		.uleb128 0x32
 8940 20dd BF030000 		.4byte	.LASF345
 8941 20e1 02       		.byte	0x2
 8942 20e2 6F02     		.2byte	0x26f
 8943 20e4 281A0000 		.4byte	0x1a28
 8944 20e8 02       		.uleb128 0x2
 8945 20e9 91       		.byte	0x91
 8946 20ea 6C       		.sleb128 -20
 8947 20eb 33       		.uleb128 0x33
 8948 20ec 65787400 		.ascii	"ext\000"
 8949 20f0 02       		.byte	0x2
 8950 20f1 7302     		.2byte	0x273
 8951 20f3 331A0000 		.4byte	0x1a33
 8952 20f7 02       		.uleb128 0x2
 8953 20f8 91       		.byte	0x91
 8954 20f9 74       		.sleb128 -12
 8955 20fa 00       		.byte	0
 8956 20fb 37       		.uleb128 0x37
 8957 20fc 9D080000 		.4byte	.LASF402
 8958 2100 02       		.byte	0x2
 8959 2101 8602     		.2byte	0x286
 8960 2103 BF010000 		.4byte	0x1bf
 8961 2107 00000000 		.4byte	.LFB67
 8962 210b C4040000 		.4byte	.LFE67-.LFB67
 8963 210f 01       		.uleb128 0x1
 8964 2110 9C       		.byte	0x9c
 8965 2111 3E220000 		.4byte	0x223e
 8966 2115 32       		.uleb128 0x32
 8967 2116 BF030000 		.4byte	.LASF345
 8968 211a 02       		.byte	0x2
 8969 211b 8602     		.2byte	0x286
 8970 211d 221A0000 		.4byte	0x1a22
 8971 2121 03       		.uleb128 0x3
 8972 2122 91       		.byte	0x91
 8973 2123 DC7E     		.sleb128 -164
 8974 2125 32       		.uleb128 0x32
 8975 2126 D10B0000 		.4byte	.LASF403
 8976 212a 02       		.byte	0x2
 8977 212b 8602     		.2byte	0x286
 8978 212d AD070000 		.4byte	0x7ad
 8979 2131 03       		.uleb128 0x3
 8980 2132 91       		.byte	0x91
 8981 2133 D87E     		.sleb128 -168
 8982 2135 32       		.uleb128 0x32
 8983 2136 8F130000 		.4byte	.LASF404
 8984 213a 02       		.byte	0x2
 8985 213b 8602     		.2byte	0x286
ARM GAS  C:\Users\tmj32\AppData\Local\Temp\ccyJ4BPG.s 			page 181


 8986 213d 600D0000 		.4byte	0xd60
 8987 2141 03       		.uleb128 0x3
 8988 2142 91       		.byte	0x91
 8989 2143 D77E     		.sleb128 -169
 8990 2145 2E       		.uleb128 0x2e
 8991 2146 2C000000 		.4byte	.LBB7
 8992 214a 8A040000 		.4byte	.LBE7-.LBB7
 8993 214e 33       		.uleb128 0x33
 8994 214f 65787400 		.ascii	"ext\000"
 8995 2153 02       		.byte	0x2
 8996 2154 9002     		.2byte	0x290
 8997 2156 331A0000 		.4byte	0x1a33
 8998 215a 02       		.uleb128 0x2
 8999 215b 91       		.byte	0x91
 9000 215c 58       		.sleb128 -40
 9001 215d 36       		.uleb128 0x36
 9002 215e 9B010000 		.4byte	.LASF405
 9003 2162 02       		.byte	0x2
 9004 2163 9102     		.2byte	0x291
 9005 2165 830F0000 		.4byte	0xf83
 9006 2169 02       		.uleb128 0x2
 9007 216a 91       		.byte	0x91
 9008 216b 54       		.sleb128 -44
 9009 216c 36       		.uleb128 0x36
 9010 216d 91010000 		.4byte	.LASF406
 9011 2171 02       		.byte	0x2
 9012 2172 9202     		.2byte	0x292
 9013 2174 830F0000 		.4byte	0xf83
 9014 2178 02       		.uleb128 0x2
 9015 2179 91       		.byte	0x91
 9016 217a 64       		.sleb128 -28
 9017 217b 36       		.uleb128 0x36
 9018 217c 7F170000 		.4byte	.LASF153
 9019 2180 02       		.byte	0x2
 9020 2181 9302     		.2byte	0x293
 9021 2183 7B020000 		.4byte	0x27b
 9022 2187 02       		.uleb128 0x2
 9023 2188 91       		.byte	0x91
 9024 2189 53       		.sleb128 -45
 9025 218a 36       		.uleb128 0x36
 9026 218b 35150000 		.4byte	.LASF407
 9027 218f 02       		.byte	0x2
 9028 2190 9502     		.2byte	0x295
 9029 2192 FD020000 		.4byte	0x2fd
 9030 2196 02       		.uleb128 0x2
 9031 2197 91       		.byte	0x91
 9032 2198 40       		.sleb128 -64
 9033 2199 36       		.uleb128 0x36
 9034 219a 4F080000 		.4byte	.LASF408
 9035 219e 02       		.byte	0x2
 9036 219f 9802     		.2byte	0x298
 9037 21a1 FD020000 		.4byte	0x2fd
 9038 21a5 03       		.uleb128 0x3
 9039 21a6 91       		.byte	0x91
 9040 21a7 B87F     		.sleb128 -72
 9041 21a9 36       		.uleb128 0x36
 9042 21aa 96060000 		.4byte	.LASF409
ARM GAS  C:\Users\tmj32\AppData\Local\Temp\ccyJ4BPG.s 			page 182


 9043 21ae 02       		.byte	0x2
 9044 21af 9902     		.2byte	0x299
 9045 21b1 D9000000 		.4byte	0xd9
 9046 21b5 02       		.uleb128 0x2
 9047 21b6 91       		.byte	0x91
 9048 21b7 50       		.sleb128 -48
 9049 21b8 36       		.uleb128 0x36
 9050 21b9 57060000 		.4byte	.LASF369
 9051 21bd 02       		.byte	0x2
 9052 21be 9A02     		.2byte	0x29a
 9053 21c0 D9000000 		.4byte	0xd9
 9054 21c4 02       		.uleb128 0x2
 9055 21c5 91       		.byte	0x91
 9056 21c6 4E       		.sleb128 -50
 9057 21c7 36       		.uleb128 0x36
 9058 21c8 5D060000 		.4byte	.LASF373
 9059 21cc 02       		.byte	0x2
 9060 21cd 9C02     		.2byte	0x29c
 9061 21cf C3000000 		.4byte	0xc3
 9062 21d3 02       		.uleb128 0x2
 9063 21d4 91       		.byte	0x91
 9064 21d5 62       		.sleb128 -30
 9065 21d6 36       		.uleb128 0x36
 9066 21d7 C7010000 		.4byte	.LASF398
 9067 21db 02       		.byte	0x2
 9068 21dc 9D02     		.2byte	0x29d
 9069 21de C3000000 		.4byte	0xc3
 9070 21e2 02       		.uleb128 0x2
 9071 21e3 91       		.byte	0x91
 9072 21e4 60       		.sleb128 -32
 9073 21e5 36       		.uleb128 0x36
 9074 21e6 1A0D0000 		.4byte	.LASF410
 9075 21ea 02       		.byte	0x2
 9076 21eb 9E02     		.2byte	0x29e
 9077 21ed 6A050000 		.4byte	0x56a
 9078 21f1 03       		.uleb128 0x3
 9079 21f2 91       		.byte	0x91
 9080 21f3 E47E     		.sleb128 -156
 9081 21f5 36       		.uleb128 0x36
 9082 21f6 67020000 		.4byte	.LASF411
 9083 21fa 02       		.byte	0x2
 9084 21fb 9F02     		.2byte	0x29f
 9085 21fd C40F0000 		.4byte	0xfc4
 9086 2201 02       		.uleb128 0x2
 9087 2202 91       		.byte	0x91
 9088 2203 5F       		.sleb128 -33
 9089 2204 2E       		.uleb128 0x2e
 9090 2205 96000000 		.4byte	.LBB8
 9091 2209 FC030000 		.4byte	.LBE8-.LBB8
 9092 220d 36       		.uleb128 0x36
 9093 220e 66170000 		.4byte	.LASF412
 9094 2212 02       		.byte	0x2
 9095 2213 B502     		.2byte	0x2b5
 9096 2215 BF010000 		.4byte	0x1bf
 9097 2219 02       		.uleb128 0x2
 9098 221a 91       		.byte	0x91
 9099 221b 4D       		.sleb128 -51
ARM GAS  C:\Users\tmj32\AppData\Local\Temp\ccyJ4BPG.s 			page 183


 9100 221c 36       		.uleb128 0x36
 9101 221d 1F130000 		.4byte	.LASF68
 9102 2221 02       		.byte	0x2
 9103 2222 DC02     		.2byte	0x2dc
 9104 2224 AE040000 		.4byte	0x4ae
 9105 2228 02       		.uleb128 0x2
 9106 2229 91       		.byte	0x91
 9107 222a 48       		.sleb128 -56
 9108 222b 36       		.uleb128 0x36
 9109 222c 5C150000 		.4byte	.LASF413
 9110 2230 02       		.byte	0x2
 9111 2231 DD02     		.2byte	0x2dd
 9112 2233 BD020000 		.4byte	0x2bd
 9113 2237 03       		.uleb128 0x3
 9114 2238 91       		.byte	0x91
 9115 2239 B47F     		.sleb128 -76
 9116 223b 00       		.byte	0
 9117 223c 00       		.byte	0
 9118 223d 00       		.byte	0
 9119 223e 37       		.uleb128 0x37
 9120 223f D00C0000 		.4byte	.LASF414
 9121 2243 02       		.byte	0x2
 9122 2244 F402     		.2byte	0x2f4
 9123 2246 94050000 		.4byte	0x594
 9124 224a 00000000 		.4byte	.LFB68
 9125 224e F4060000 		.4byte	.LFE68-.LFB68
 9126 2252 01       		.uleb128 0x1
 9127 2253 9C       		.byte	0x9c
 9128 2254 2D240000 		.4byte	0x242d
 9129 2258 32       		.uleb128 0x32
 9130 2259 BF030000 		.4byte	.LASF345
 9131 225d 02       		.byte	0x2
 9132 225e F402     		.2byte	0x2f4
 9133 2260 221A0000 		.4byte	0x1a22
 9134 2264 03       		.uleb128 0x3
 9135 2265 91       		.byte	0x91
 9136 2266 AC7F     		.sleb128 -84
 9137 2268 32       		.uleb128 0x32
 9138 2269 A4010000 		.4byte	.LASF415
 9139 226d 02       		.byte	0x2
 9140 226e F402     		.2byte	0x2f4
 9141 2270 CB0E0000 		.4byte	0xecb
 9142 2274 03       		.uleb128 0x3
 9143 2275 91       		.byte	0x91
 9144 2276 AB7F     		.sleb128 -85
 9145 2278 32       		.uleb128 0x32
 9146 2279 BE080000 		.4byte	.LASF416
 9147 227d 02       		.byte	0x2
 9148 227e F402     		.2byte	0x2f4
 9149 2280 E4000000 		.4byte	0xe4
 9150 2284 03       		.uleb128 0x3
 9151 2285 91       		.byte	0x91
 9152 2286 A47F     		.sleb128 -92
 9153 2288 33       		.uleb128 0x33
 9154 2289 72657300 		.ascii	"res\000"
 9155 228d 02       		.byte	0x2
 9156 228e F602     		.2byte	0x2f6
ARM GAS  C:\Users\tmj32\AppData\Local\Temp\ccyJ4BPG.s 			page 184


 9157 2290 94050000 		.4byte	0x594
 9158 2294 02       		.uleb128 0x2
 9159 2295 91       		.byte	0x91
 9160 2296 6F       		.sleb128 -17
 9161 2297 33       		.uleb128 0x33
 9162 2298 65787400 		.ascii	"ext\000"
 9163 229c 02       		.byte	0x2
 9164 229d FD02     		.2byte	0x2fd
 9165 229f 331A0000 		.4byte	0x1a33
 9166 22a3 02       		.uleb128 0x2
 9167 22a4 91       		.byte	0x91
 9168 22a5 64       		.sleb128 -28
 9169 22a6 33       		.uleb128 0x33
 9170 22a7 7000     		.ascii	"p\000"
 9171 22a9 02       		.byte	0x2
 9172 22aa FE02     		.2byte	0x2fe
 9173 22ac BD020000 		.4byte	0x2bd
 9174 22b0 02       		.uleb128 0x2
 9175 22b1 91       		.byte	0x91
 9176 22b2 40       		.sleb128 -64
 9177 22b3 2D       		.uleb128 0x2d
 9178 22b4 84000000 		.4byte	.LBB9
 9179 22b8 EE000000 		.4byte	.LBE9-.LBB9
 9180 22bc 05230000 		.4byte	0x2305
 9181 22c0 36       		.uleb128 0x36
 9182 22c1 C7130000 		.4byte	.LASF417
 9183 22c5 02       		.byte	0x2
 9184 22c6 0503     		.2byte	0x305
 9185 22c8 2D240000 		.4byte	0x242d
 9186 22cc 02       		.uleb128 0x2
 9187 22cd 91       		.byte	0x91
 9188 22ce 60       		.sleb128 -32
 9189 22cf 2D       		.uleb128 0x2d
 9190 22d0 A2000000 		.4byte	.LBB10
 9191 22d4 40000000 		.4byte	.LBE10-.LBB10
 9192 22d8 EC220000 		.4byte	0x22ec
 9193 22dc 36       		.uleb128 0x36
 9194 22dd 0E0B0000 		.4byte	.LASF418
 9195 22e1 02       		.byte	0x2
 9196 22e2 0703     		.2byte	0x307
 9197 22e4 C3000000 		.4byte	0xc3
 9198 22e8 02       		.uleb128 0x2
 9199 22e9 91       		.byte	0x91
 9200 22ea 5E       		.sleb128 -34
 9201 22eb 00       		.byte	0
 9202 22ec 2E       		.uleb128 0x2e
 9203 22ed 56010000 		.4byte	.LBB11
 9204 22f1 1C000000 		.4byte	.LBE11-.LBB11
 9205 22f5 33       		.uleb128 0x33
 9206 22f6 6200     		.ascii	"b\000"
 9207 22f8 02       		.byte	0x2
 9208 22f9 1503     		.2byte	0x315
 9209 22fb CE000000 		.4byte	0xce
 9210 22ff 03       		.uleb128 0x3
 9211 2300 91       		.byte	0x91
 9212 2301 BC7F     		.sleb128 -68
 9213 2303 00       		.byte	0
ARM GAS  C:\Users\tmj32\AppData\Local\Temp\ccyJ4BPG.s 			page 185


 9214 2304 00       		.byte	0
 9215 2305 2D       		.uleb128 0x2d
 9216 2306 78010000 		.4byte	.LBB12
 9217 230a 86000000 		.4byte	.LBE12-.LBB12
 9218 230e 3A230000 		.4byte	0x233a
 9219 2312 36       		.uleb128 0x36
 9220 2313 0E0B0000 		.4byte	.LASF418
 9221 2317 02       		.byte	0x2
 9222 2318 1A03     		.2byte	0x31a
 9223 231a C3000000 		.4byte	0xc3
 9224 231e 02       		.uleb128 0x2
 9225 231f 91       		.byte	0x91
 9226 2320 5C       		.sleb128 -36
 9227 2321 2E       		.uleb128 0x2e
 9228 2322 C6010000 		.4byte	.LBB13
 9229 2326 2C000000 		.4byte	.LBE13-.LBB13
 9230 232a 33       		.uleb128 0x33
 9231 232b 6200     		.ascii	"b\000"
 9232 232d 02       		.byte	0x2
 9233 232e 2503     		.2byte	0x325
 9234 2330 CE000000 		.4byte	0xce
 9235 2334 03       		.uleb128 0x3
 9236 2335 91       		.byte	0x91
 9237 2336 B87F     		.sleb128 -72
 9238 2338 00       		.byte	0
 9239 2339 00       		.byte	0
 9240 233a 2D       		.uleb128 0x2d
 9241 233b 4A030000 		.4byte	.LBB14
 9242 233f 1C000000 		.4byte	.LBE14-.LBB14
 9243 2343 56230000 		.4byte	0x2356
 9244 2347 33       		.uleb128 0x33
 9245 2348 6200     		.ascii	"b\000"
 9246 234a 02       		.byte	0x2
 9247 234b 4C03     		.2byte	0x34c
 9248 234d CE000000 		.4byte	0xce
 9249 2351 03       		.uleb128 0x3
 9250 2352 91       		.byte	0x91
 9251 2353 B47F     		.sleb128 -76
 9252 2355 00       		.byte	0
 9253 2356 2D       		.uleb128 0x2d
 9254 2357 E0030000 		.4byte	.LBB15
 9255 235b 1C000000 		.4byte	.LBE15-.LBB15
 9256 235f 72230000 		.4byte	0x2372
 9257 2363 33       		.uleb128 0x33
 9258 2364 6200     		.ascii	"b\000"
 9259 2366 02       		.byte	0x2
 9260 2367 5503     		.2byte	0x355
 9261 2369 CE000000 		.4byte	0xce
 9262 236d 03       		.uleb128 0x3
 9263 236e 91       		.byte	0x91
 9264 236f B07F     		.sleb128 -80
 9265 2371 00       		.byte	0
 9266 2372 2D       		.uleb128 0x2d
 9267 2373 44040000 		.4byte	.LBB16
 9268 2377 94020000 		.4byte	.LBE16-.LBB16
 9269 237b 13240000 		.4byte	0x2413
 9270 237f 33       		.uleb128 0x33
ARM GAS  C:\Users\tmj32\AppData\Local\Temp\ccyJ4BPG.s 			page 186


 9271 2380 6300     		.ascii	"c\000"
 9272 2382 02       		.byte	0x2
 9273 2383 7F03     		.2byte	0x37f
 9274 2385 8E020000 		.4byte	0x28e
 9275 2389 02       		.uleb128 0x2
 9276 238a 91       		.byte	0x91
 9277 238b 5B       		.sleb128 -37
 9278 238c 2D       		.uleb128 0x2d
 9279 238d E6040000 		.4byte	.LBB17
 9280 2391 F4000000 		.4byte	.LBE17-.LBB17
 9281 2395 D1230000 		.4byte	0x23d1
 9282 2399 36       		.uleb128 0x36
 9283 239a 9E0E0000 		.4byte	.LASF355
 9284 239e 02       		.byte	0x2
 9285 239f 8E03     		.2byte	0x38e
 9286 23a1 830F0000 		.4byte	0xf83
 9287 23a5 02       		.uleb128 0x2
 9288 23a6 91       		.byte	0x91
 9289 23a7 54       		.sleb128 -44
 9290 23a8 2E       		.uleb128 0x2e
 9291 23a9 04050000 		.4byte	.LBB18
 9292 23ad C8000000 		.4byte	.LBE18-.LBB18
 9293 23b1 36       		.uleb128 0x36
 9294 23b2 590B0000 		.4byte	.LASF419
 9295 23b6 02       		.byte	0x2
 9296 23b7 9303     		.2byte	0x393
 9297 23b9 C3000000 		.4byte	0xc3
 9298 23bd 02       		.uleb128 0x2
 9299 23be 91       		.byte	0x91
 9300 23bf 6C       		.sleb128 -20
 9301 23c0 36       		.uleb128 0x36
 9302 23c1 2E0B0000 		.4byte	.LASF420
 9303 23c5 02       		.byte	0x2
 9304 23c6 9403     		.2byte	0x394
 9305 23c8 D9000000 		.4byte	0xd9
 9306 23cc 02       		.uleb128 0x2
 9307 23cd 91       		.byte	0x91
 9308 23ce 52       		.sleb128 -46
 9309 23cf 00       		.byte	0
 9310 23d0 00       		.byte	0
 9311 23d1 2E       		.uleb128 0x2e
 9312 23d2 E6050000 		.4byte	.LBB19
 9313 23d6 F2000000 		.4byte	.LBE19-.LBB19
 9314 23da 36       		.uleb128 0x36
 9315 23db 9E0E0000 		.4byte	.LASF355
 9316 23df 02       		.byte	0x2
 9317 23e0 A403     		.2byte	0x3a4
 9318 23e2 830F0000 		.4byte	0xf83
 9319 23e6 02       		.uleb128 0x2
 9320 23e7 91       		.byte	0x91
 9321 23e8 4C       		.sleb128 -52
 9322 23e9 2E       		.uleb128 0x2e
 9323 23ea 04060000 		.4byte	.LBB20
 9324 23ee C4000000 		.4byte	.LBE20-.LBB20
 9325 23f2 36       		.uleb128 0x36
 9326 23f3 E1160000 		.4byte	.LASF421
 9327 23f7 02       		.byte	0x2
ARM GAS  C:\Users\tmj32\AppData\Local\Temp\ccyJ4BPG.s 			page 187


 9328 23f8 A903     		.2byte	0x3a9
 9329 23fa B8000000 		.4byte	0xb8
 9330 23fe 02       		.uleb128 0x2
 9331 23ff 91       		.byte	0x91
 9332 2400 6A       		.sleb128 -22
 9333 2401 36       		.uleb128 0x36
 9334 2402 2E0B0000 		.4byte	.LASF420
 9335 2406 02       		.byte	0x2
 9336 2407 AA03     		.2byte	0x3aa
 9337 2409 D9000000 		.4byte	0xd9
 9338 240d 02       		.uleb128 0x2
 9339 240e 91       		.byte	0x91
 9340 240f 4A       		.sleb128 -54
 9341 2410 00       		.byte	0
 9342 2411 00       		.byte	0
 9343 2412 00       		.byte	0
 9344 2413 2E       		.uleb128 0x2e
 9345 2414 DE060000 		.4byte	.LBB21
 9346 2418 0A000000 		.4byte	.LBE21-.LBB21
 9347 241c 36       		.uleb128 0x36
 9348 241d 0B090000 		.4byte	.LASF422
 9349 2421 02       		.byte	0x2
 9350 2422 BA03     		.2byte	0x3ba
 9351 2424 33240000 		.4byte	0x2433
 9352 2428 02       		.uleb128 0x2
 9353 2429 91       		.byte	0x91
 9354 242a 44       		.sleb128 -60
 9355 242b 00       		.byte	0
 9356 242c 00       		.byte	0
 9357 242d 0D       		.uleb128 0xd
 9358 242e 04       		.byte	0x4
 9359 242f 360D0000 		.4byte	0xd36
 9360 2433 0D       		.uleb128 0xd
 9361 2434 04       		.byte	0x4
 9362 2435 BF010000 		.4byte	0x1bf
 9363 2439 38       		.uleb128 0x38
 9364 243a 46170000 		.4byte	.LASF424
 9365 243e 02       		.byte	0x2
 9366 243f C503     		.2byte	0x3c5
 9367 2441 00000000 		.4byte	.LFB69
 9368 2445 D8000000 		.4byte	.LFE69-.LFB69
 9369 2449 01       		.uleb128 0x1
 9370 244a 9C       		.byte	0x9c
 9371 244b 99240000 		.4byte	0x2499
 9372 244f 32       		.uleb128 0x32
 9373 2450 BF030000 		.4byte	.LASF345
 9374 2454 02       		.byte	0x2
 9375 2455 C503     		.2byte	0x3c5
 9376 2457 281A0000 		.4byte	0x1a28
 9377 245b 02       		.uleb128 0x2
 9378 245c 91       		.byte	0x91
 9379 245d 6C       		.sleb128 -20
 9380 245e 34       		.uleb128 0x34
 9381 245f 6D617000 		.ascii	"map\000"
 9382 2463 02       		.byte	0x2
 9383 2464 C503     		.2byte	0x3c5
 9384 2466 1D110000 		.4byte	0x111d
ARM GAS  C:\Users\tmj32\AppData\Local\Temp\ccyJ4BPG.s 			page 188


 9385 246a 02       		.uleb128 0x2
 9386 246b 91       		.byte	0x91
 9387 246c 68       		.sleb128 -24
 9388 246d 36       		.uleb128 0x36
 9389 246e 2E0C0000 		.4byte	.LASF300
 9390 2472 02       		.byte	0x2
 9391 2473 C803     		.2byte	0x3c8
 9392 2475 C3000000 		.4byte	0xc3
 9393 2479 02       		.uleb128 0x2
 9394 247a 91       		.byte	0x91
 9395 247b 76       		.sleb128 -10
 9396 247c 33       		.uleb128 0x33
 9397 247d 6900     		.ascii	"i\000"
 9398 247f 02       		.byte	0x2
 9399 2480 C903     		.2byte	0x3c9
 9400 2482 C3000000 		.4byte	0xc3
 9401 2486 02       		.uleb128 0x2
 9402 2487 91       		.byte	0x91
 9403 2488 74       		.sleb128 -12
 9404 2489 33       		.uleb128 0x33
 9405 248a 65787400 		.ascii	"ext\000"
 9406 248e 02       		.byte	0x2
 9407 248f D103     		.2byte	0x3d1
 9408 2491 331A0000 		.4byte	0x1a33
 9409 2495 02       		.uleb128 0x2
 9410 2496 91       		.byte	0x91
 9411 2497 70       		.sleb128 -16
 9412 2498 00       		.byte	0
 9413 2499 39       		.uleb128 0x39
 9414 249a C9100000 		.4byte	.LASF425
 9415 249e 02       		.byte	0x2
 9416 249f EC03     		.2byte	0x3ec
 9417 24a1 AD000000 		.4byte	0xad
 9418 24a5 00000000 		.4byte	.LFB70
 9419 24a9 2C000000 		.4byte	.LFE70-.LFB70
 9420 24ad 01       		.uleb128 0x1
 9421 24ae 9C       		.byte	0x9c
 9422 24af D0240000 		.4byte	0x24d0
 9423 24b3 32       		.uleb128 0x32
 9424 24b4 B6130000 		.4byte	.LASF298
 9425 24b8 02       		.byte	0x2
 9426 24b9 EC03     		.2byte	0x3ec
 9427 24bb 97100000 		.4byte	0x1097
 9428 24bf 02       		.uleb128 0x2
 9429 24c0 91       		.byte	0x91
 9430 24c1 6E       		.sleb128 -18
 9431 24c2 33       		.uleb128 0x33
 9432 24c3 7700     		.ascii	"w\000"
 9433 24c5 02       		.byte	0x2
 9434 24c6 EE03     		.2byte	0x3ee
 9435 24c8 AD000000 		.4byte	0xad
 9436 24cc 02       		.uleb128 0x2
 9437 24cd 91       		.byte	0x91
 9438 24ce 77       		.sleb128 -9
 9439 24cf 00       		.byte	0
 9440 24d0 39       		.uleb128 0x39
 9441 24d1 BF0C0000 		.4byte	.LASF426
ARM GAS  C:\Users\tmj32\AppData\Local\Temp\ccyJ4BPG.s 			page 189


 9442 24d5 02       		.byte	0x2
 9443 24d6 F203     		.2byte	0x3f2
 9444 24d8 BF010000 		.4byte	0x1bf
 9445 24dc 00000000 		.4byte	.LFB71
 9446 24e0 26000000 		.4byte	.LFE71-.LFB71
 9447 24e4 01       		.uleb128 0x1
 9448 24e5 9C       		.byte	0x9c
 9449 24e6 FA240000 		.4byte	0x24fa
 9450 24ea 32       		.uleb128 0x32
 9451 24eb B6130000 		.4byte	.LASF298
 9452 24ef 02       		.byte	0x2
 9453 24f0 F203     		.2byte	0x3f2
 9454 24f2 97100000 		.4byte	0x1097
 9455 24f6 02       		.uleb128 0x2
 9456 24f7 91       		.byte	0x91
 9457 24f8 76       		.sleb128 -10
 9458 24f9 00       		.byte	0
 9459 24fa 39       		.uleb128 0x39
 9460 24fb FA030000 		.4byte	.LASF427
 9461 24ff 02       		.byte	0x2
 9462 2500 F703     		.2byte	0x3f7
 9463 2502 BF010000 		.4byte	0x1bf
 9464 2506 00000000 		.4byte	.LFB72
 9465 250a 26000000 		.4byte	.LFE72-.LFB72
 9466 250e 01       		.uleb128 0x1
 9467 250f 9C       		.byte	0x9c
 9468 2510 24250000 		.4byte	0x2524
 9469 2514 32       		.uleb128 0x32
 9470 2515 B6130000 		.4byte	.LASF298
 9471 2519 02       		.byte	0x2
 9472 251a F703     		.2byte	0x3f7
 9473 251c 97100000 		.4byte	0x1097
 9474 2520 02       		.uleb128 0x2
 9475 2521 91       		.byte	0x91
 9476 2522 76       		.sleb128 -10
 9477 2523 00       		.byte	0
 9478 2524 39       		.uleb128 0x39
 9479 2525 37010000 		.4byte	.LASF428
 9480 2529 02       		.byte	0x2
 9481 252a FC03     		.2byte	0x3fc
 9482 252c BF010000 		.4byte	0x1bf
 9483 2530 00000000 		.4byte	.LFB73
 9484 2534 26000000 		.4byte	.LFE73-.LFB73
 9485 2538 01       		.uleb128 0x1
 9486 2539 9C       		.byte	0x9c
 9487 253a 4E250000 		.4byte	0x254e
 9488 253e 32       		.uleb128 0x32
 9489 253f B6130000 		.4byte	.LASF298
 9490 2543 02       		.byte	0x2
 9491 2544 FC03     		.2byte	0x3fc
 9492 2546 97100000 		.4byte	0x1097
 9493 254a 02       		.uleb128 0x2
 9494 254b 91       		.byte	0x91
 9495 254c 76       		.sleb128 -10
 9496 254d 00       		.byte	0
 9497 254e 39       		.uleb128 0x39
 9498 254f C7020000 		.4byte	.LASF429
ARM GAS  C:\Users\tmj32\AppData\Local\Temp\ccyJ4BPG.s 			page 190


 9499 2553 02       		.byte	0x2
 9500 2554 0104     		.2byte	0x401
 9501 2556 BF010000 		.4byte	0x1bf
 9502 255a 00000000 		.4byte	.LFB74
 9503 255e 26000000 		.4byte	.LFE74-.LFB74
 9504 2562 01       		.uleb128 0x1
 9505 2563 9C       		.byte	0x9c
 9506 2564 78250000 		.4byte	0x2578
 9507 2568 32       		.uleb128 0x32
 9508 2569 B6130000 		.4byte	.LASF298
 9509 256d 02       		.byte	0x2
 9510 256e 0104     		.2byte	0x401
 9511 2570 97100000 		.4byte	0x1097
 9512 2574 02       		.uleb128 0x2
 9513 2575 91       		.byte	0x91
 9514 2576 76       		.sleb128 -10
 9515 2577 00       		.byte	0
 9516 2578 39       		.uleb128 0x39
 9517 2579 F5130000 		.4byte	.LASF430
 9518 257d 02       		.byte	0x2
 9519 257e 0604     		.2byte	0x406
 9520 2580 BF010000 		.4byte	0x1bf
 9521 2584 00000000 		.4byte	.LFB75
 9522 2588 26000000 		.4byte	.LFE75-.LFB75
 9523 258c 01       		.uleb128 0x1
 9524 258d 9C       		.byte	0x9c
 9525 258e A2250000 		.4byte	0x25a2
 9526 2592 32       		.uleb128 0x32
 9527 2593 B6130000 		.4byte	.LASF298
 9528 2597 02       		.byte	0x2
 9529 2598 0604     		.2byte	0x406
 9530 259a 97100000 		.4byte	0x1097
 9531 259e 02       		.uleb128 0x2
 9532 259f 91       		.byte	0x91
 9533 25a0 76       		.sleb128 -10
 9534 25a1 00       		.byte	0
 9535 25a2 39       		.uleb128 0x39
 9536 25a3 CE140000 		.4byte	.LASF431
 9537 25a7 02       		.byte	0x2
 9538 25a8 0B04     		.2byte	0x40b
 9539 25aa BF010000 		.4byte	0x1bf
 9540 25ae 00000000 		.4byte	.LFB76
 9541 25b2 26000000 		.4byte	.LFE76-.LFB76
 9542 25b6 01       		.uleb128 0x1
 9543 25b7 9C       		.byte	0x9c
 9544 25b8 CC250000 		.4byte	0x25cc
 9545 25bc 32       		.uleb128 0x32
 9546 25bd B6130000 		.4byte	.LASF298
 9547 25c1 02       		.byte	0x2
 9548 25c2 0B04     		.2byte	0x40b
 9549 25c4 97100000 		.4byte	0x1097
 9550 25c8 02       		.uleb128 0x2
 9551 25c9 91       		.byte	0x91
 9552 25ca 76       		.sleb128 -10
 9553 25cb 00       		.byte	0
 9554 25cc 37       		.uleb128 0x37
 9555 25cd C7070000 		.4byte	.LASF432
ARM GAS  C:\Users\tmj32\AppData\Local\Temp\ccyJ4BPG.s 			page 191


 9556 25d1 02       		.byte	0x2
 9557 25d2 1604     		.2byte	0x416
 9558 25d4 C3000000 		.4byte	0xc3
 9559 25d8 00000000 		.4byte	.LFB77
 9560 25dc CA000000 		.4byte	.LFE77-.LFB77
 9561 25e0 01       		.uleb128 0x1
 9562 25e1 9C       		.byte	0x9c
 9563 25e2 3D260000 		.4byte	0x263d
 9564 25e6 32       		.uleb128 0x32
 9565 25e7 BF030000 		.4byte	.LASF345
 9566 25eb 02       		.byte	0x2
 9567 25ec 1604     		.2byte	0x416
 9568 25ee 221A0000 		.4byte	0x1a22
 9569 25f2 02       		.uleb128 0x2
 9570 25f3 91       		.byte	0x91
 9571 25f4 5C       		.sleb128 -36
 9572 25f5 34       		.uleb128 0x34
 9573 25f6 7000     		.ascii	"p\000"
 9574 25f8 02       		.byte	0x2
 9575 25f9 1604     		.2byte	0x416
 9576 25fb 3D260000 		.4byte	0x263d
 9577 25ff 02       		.uleb128 0x2
 9578 2600 91       		.byte	0x91
 9579 2601 58       		.sleb128 -40
 9580 2602 36       		.uleb128 0x36
 9581 2603 59030000 		.4byte	.LASF433
 9582 2607 02       		.byte	0x2
 9583 2608 1804     		.2byte	0x418
 9584 260a FD020000 		.4byte	0x2fd
 9585 260e 02       		.uleb128 0x2
 9586 260f 91       		.byte	0x91
 9587 2610 68       		.sleb128 -24
 9588 2611 36       		.uleb128 0x36
 9589 2612 B8050000 		.4byte	.LASF434
 9590 2616 02       		.byte	0x2
 9591 2617 1904     		.2byte	0x419
 9592 2619 FD020000 		.4byte	0x2fd
 9593 261d 02       		.uleb128 0x2
 9594 261e 91       		.byte	0x91
 9595 261f 60       		.sleb128 -32
 9596 2620 33       		.uleb128 0x33
 9597 2621 65787400 		.ascii	"ext\000"
 9598 2625 02       		.byte	0x2
 9599 2626 1A04     		.2byte	0x41a
 9600 2628 331A0000 		.4byte	0x1a33
 9601 262c 02       		.uleb128 0x2
 9602 262d 91       		.byte	0x91
 9603 262e 70       		.sleb128 -16
 9604 262f 33       		.uleb128 0x33
 9605 2630 6900     		.ascii	"i\000"
 9606 2632 02       		.byte	0x2
 9607 2633 1B04     		.2byte	0x41b
 9608 2635 C3000000 		.4byte	0xc3
 9609 2639 02       		.uleb128 0x2
 9610 263a 91       		.byte	0x91
 9611 263b 76       		.sleb128 -10
 9612 263c 00       		.byte	0
ARM GAS  C:\Users\tmj32\AppData\Local\Temp\ccyJ4BPG.s 			page 192


 9613 263d 0D       		.uleb128 0xd
 9614 263e 04       		.byte	0x4
 9615 263f BD020000 		.4byte	0x2bd
 9616 2643 38       		.uleb128 0x38
 9617 2644 240D0000 		.4byte	.LASF435
 9618 2648 02       		.byte	0x2
 9619 2649 2E04     		.2byte	0x42e
 9620 264b 00000000 		.4byte	.LFB78
 9621 264f A6000000 		.4byte	.LFE78-.LFB78
 9622 2653 01       		.uleb128 0x1
 9623 2654 9C       		.byte	0x9c
 9624 2655 A5260000 		.4byte	0x26a5
 9625 2659 32       		.uleb128 0x32
 9626 265a BF030000 		.4byte	.LASF345
 9627 265e 02       		.byte	0x2
 9628 265f 2E04     		.2byte	0x42e
 9629 2661 281A0000 		.4byte	0x1a28
 9630 2665 02       		.uleb128 0x2
 9631 2666 91       		.byte	0x91
 9632 2667 5C       		.sleb128 -36
 9633 2668 32       		.uleb128 0x32
 9634 2669 14090000 		.4byte	.LASF436
 9635 266d 02       		.byte	0x2
 9636 266e 2E04     		.2byte	0x42e
 9637 2670 C3000000 		.4byte	0xc3
 9638 2674 02       		.uleb128 0x2
 9639 2675 91       		.byte	0x91
 9640 2676 5A       		.sleb128 -38
 9641 2677 36       		.uleb128 0x36
 9642 2678 B8050000 		.4byte	.LASF434
 9643 267c 02       		.byte	0x2
 9644 267d 3204     		.2byte	0x432
 9645 267f FD020000 		.4byte	0x2fd
 9646 2683 02       		.uleb128 0x2
 9647 2684 91       		.byte	0x91
 9648 2685 6C       		.sleb128 -20
 9649 2686 36       		.uleb128 0x36
 9650 2687 C1050000 		.4byte	.LASF437
 9651 268b 02       		.byte	0x2
 9652 268c 3304     		.2byte	0x433
 9653 268e FD020000 		.4byte	0x2fd
 9654 2692 02       		.uleb128 0x2
 9655 2693 91       		.byte	0x91
 9656 2694 64       		.sleb128 -28
 9657 2695 33       		.uleb128 0x33
 9658 2696 65787400 		.ascii	"ext\000"
 9659 269a 02       		.byte	0x2
 9660 269b 3504     		.2byte	0x435
 9661 269d 331A0000 		.4byte	0x1a33
 9662 26a1 02       		.uleb128 0x2
 9663 26a2 91       		.byte	0x91
 9664 26a3 74       		.sleb128 -12
 9665 26a4 00       		.byte	0
 9666 26a5 37       		.uleb128 0x37
 9667 26a6 19100000 		.4byte	.LASF438
 9668 26aa 02       		.byte	0x2
 9669 26ab 4804     		.2byte	0x448
ARM GAS  C:\Users\tmj32\AppData\Local\Temp\ccyJ4BPG.s 			page 193


 9670 26ad BF010000 		.4byte	0x1bf
 9671 26b1 00000000 		.4byte	.LFB79
 9672 26b5 B6000000 		.4byte	.LFE79-.LFB79
 9673 26b9 01       		.uleb128 0x1
 9674 26ba 9C       		.byte	0x9c
 9675 26bb EB260000 		.4byte	0x26eb
 9676 26bf 32       		.uleb128 0x32
 9677 26c0 8F070000 		.4byte	.LASF439
 9678 26c4 02       		.byte	0x2
 9679 26c5 4804     		.2byte	0x448
 9680 26c7 1D110000 		.4byte	0x111d
 9681 26cb 02       		.uleb128 0x2
 9682 26cc 91       		.byte	0x91
 9683 26cd 6C       		.sleb128 -20
 9684 26ce 32       		.uleb128 0x32
 9685 26cf 94070000 		.4byte	.LASF440
 9686 26d3 02       		.byte	0x2
 9687 26d4 4804     		.2byte	0x448
 9688 26d6 1D110000 		.4byte	0x111d
 9689 26da 02       		.uleb128 0x2
 9690 26db 91       		.byte	0x91
 9691 26dc 68       		.sleb128 -24
 9692 26dd 33       		.uleb128 0x33
 9693 26de 6900     		.ascii	"i\000"
 9694 26e0 02       		.byte	0x2
 9695 26e1 4D04     		.2byte	0x44d
 9696 26e3 C3000000 		.4byte	0xc3
 9697 26e7 02       		.uleb128 0x2
 9698 26e8 91       		.byte	0x91
 9699 26e9 76       		.sleb128 -10
 9700 26ea 00       		.byte	0
 9701 26eb 38       		.uleb128 0x38
 9702 26ec 1D150000 		.4byte	.LASF441
 9703 26f0 02       		.byte	0x2
 9704 26f1 5B04     		.2byte	0x45b
 9705 26f3 00000000 		.4byte	.LFB80
 9706 26f7 3E000000 		.4byte	.LFE80-.LFB80
 9707 26fb 01       		.uleb128 0x1
 9708 26fc 9C       		.byte	0x9c
 9709 26fd 2F270000 		.4byte	0x272f
 9710 2701 32       		.uleb128 0x32
 9711 2702 BF030000 		.4byte	.LASF345
 9712 2706 02       		.byte	0x2
 9713 2707 5B04     		.2byte	0x45b
 9714 2709 221A0000 		.4byte	0x1a22
 9715 270d 02       		.uleb128 0x2
 9716 270e 91       		.byte	0x91
 9717 270f 6C       		.sleb128 -20
 9718 2710 32       		.uleb128 0x32
 9719 2711 14090000 		.4byte	.LASF436
 9720 2715 02       		.byte	0x2
 9721 2716 5B04     		.2byte	0x45b
 9722 2718 C3000000 		.4byte	0xc3
 9723 271c 02       		.uleb128 0x2
 9724 271d 91       		.byte	0x91
 9725 271e 6A       		.sleb128 -22
 9726 271f 36       		.uleb128 0x36
ARM GAS  C:\Users\tmj32\AppData\Local\Temp\ccyJ4BPG.s 			page 194


 9727 2720 9A120000 		.4byte	.LASF442
 9728 2724 02       		.byte	0x2
 9729 2725 5E04     		.2byte	0x45e
 9730 2727 BF010000 		.4byte	0x1bf
 9731 272b 02       		.uleb128 0x2
 9732 272c 91       		.byte	0x91
 9733 272d 77       		.sleb128 -9
 9734 272e 00       		.byte	0
 9735 272f 1B       		.uleb128 0x1b
 9736 2730 95020000 		.4byte	0x295
 9737 2734 3F270000 		.4byte	0x273f
 9738 2738 1C       		.uleb128 0x1c
 9739 2739 87020000 		.4byte	0x287
 9740 273d 06       		.byte	0x6
 9741 273e 00       		.byte	0
 9742 273f 2B       		.uleb128 0x2b
 9743 2740 7B080000 		.4byte	.LASF443
 9744 2744 02       		.byte	0x2
 9745 2745 31       		.byte	0x31
 9746 2746 2F270000 		.4byte	0x272f
 9747 274a 05       		.uleb128 0x5
 9748 274b 03       		.byte	0x3
 9749 274c 00000000 		.4byte	lv_btnm_def_map
 9750 2750 2B       		.uleb128 0x2b
 9751 2751 25060000 		.4byte	.LASF444
 9752 2755 02       		.byte	0x2
 9753 2756 33       		.byte	0x33
 9754 2757 6B0D0000 		.4byte	0xd6b
 9755 275b 05       		.uleb128 0x5
 9756 275c 03       		.byte	0x3
 9757 275d 00000000 		.4byte	ancestor_design_f
 9758 2761 2B       		.uleb128 0x2b
 9759 2762 A5100000 		.4byte	.LASF445
 9760 2766 02       		.byte	0x2
 9761 2767 34       		.byte	0x34
 9762 2768 D60E0000 		.4byte	0xed6
 9763 276c 05       		.uleb128 0x5
 9764 276d 03       		.byte	0x3
 9765 276e 04000000 		.4byte	ancestor_signal
 9766 2772 3A       		.uleb128 0x3a
 9767 2773 EF120000 		.4byte	.LASF446
 9768 2777 08       		.byte	0x8
 9769 2778 1101     		.2byte	0x111
 9770 277a 6A050000 		.4byte	0x56a
 9771 277e 3A       		.uleb128 0x3a
 9772 277f 1D0C0000 		.4byte	.LASF447
 9773 2783 08       		.byte	0x8
 9774 2784 1301     		.2byte	0x113
 9775 2786 6A050000 		.4byte	0x56a
 9776 278a 3A       		.uleb128 0x3a
 9777 278b 5D100000 		.4byte	.LASF448
 9778 278f 08       		.byte	0x8
 9779 2790 1401     		.2byte	0x114
 9780 2792 6A050000 		.4byte	0x56a
 9781 2796 3A       		.uleb128 0x3a
 9782 2797 9C060000 		.4byte	.LASF449
 9783 279b 08       		.byte	0x8
ARM GAS  C:\Users\tmj32\AppData\Local\Temp\ccyJ4BPG.s 			page 195


 9784 279c 1501     		.2byte	0x115
 9785 279e 6A050000 		.4byte	0x56a
 9786 27a2 3A       		.uleb128 0x3a
 9787 27a3 030C0000 		.4byte	.LASF450
 9788 27a7 08       		.byte	0x8
 9789 27a8 1601     		.2byte	0x116
 9790 27aa 6A050000 		.4byte	0x56a
 9791 27ae 3A       		.uleb128 0x3a
 9792 27af 73120000 		.4byte	.LASF451
 9793 27b3 08       		.byte	0x8
 9794 27b4 1701     		.2byte	0x117
 9795 27b6 6A050000 		.4byte	0x56a
 9796 27ba 00       		.byte	0
 9797              		.section	.debug_abbrev,"",%progbits
 9798              	.Ldebug_abbrev0:
 9799 0000 01       		.uleb128 0x1
 9800 0001 11       		.uleb128 0x11
 9801 0002 01       		.byte	0x1
 9802 0003 25       		.uleb128 0x25
 9803 0004 0E       		.uleb128 0xe
 9804 0005 13       		.uleb128 0x13
 9805 0006 0B       		.uleb128 0xb
 9806 0007 03       		.uleb128 0x3
 9807 0008 0E       		.uleb128 0xe
 9808 0009 1B       		.uleb128 0x1b
 9809 000a 0E       		.uleb128 0xe
 9810 000b 55       		.uleb128 0x55
 9811 000c 17       		.uleb128 0x17
 9812 000d 11       		.uleb128 0x11
 9813 000e 01       		.uleb128 0x1
 9814 000f 10       		.uleb128 0x10
 9815 0010 17       		.uleb128 0x17
 9816 0011 00       		.byte	0
 9817 0012 00       		.byte	0
 9818 0013 02       		.uleb128 0x2
 9819 0014 16       		.uleb128 0x16
 9820 0015 00       		.byte	0
 9821 0016 03       		.uleb128 0x3
 9822 0017 0E       		.uleb128 0xe
 9823 0018 3A       		.uleb128 0x3a
 9824 0019 0B       		.uleb128 0xb
 9825 001a 3B       		.uleb128 0x3b
 9826 001b 0B       		.uleb128 0xb
 9827 001c 49       		.uleb128 0x49
 9828 001d 13       		.uleb128 0x13
 9829 001e 00       		.byte	0
 9830 001f 00       		.byte	0
 9831 0020 03       		.uleb128 0x3
 9832 0021 24       		.uleb128 0x24
 9833 0022 00       		.byte	0
 9834 0023 0B       		.uleb128 0xb
 9835 0024 0B       		.uleb128 0xb
 9836 0025 3E       		.uleb128 0x3e
 9837 0026 0B       		.uleb128 0xb
 9838 0027 03       		.uleb128 0x3
 9839 0028 0E       		.uleb128 0xe
 9840 0029 00       		.byte	0
ARM GAS  C:\Users\tmj32\AppData\Local\Temp\ccyJ4BPG.s 			page 196


 9841 002a 00       		.byte	0
 9842 002b 04       		.uleb128 0x4
 9843 002c 24       		.uleb128 0x24
 9844 002d 00       		.byte	0
 9845 002e 0B       		.uleb128 0xb
 9846 002f 0B       		.uleb128 0xb
 9847 0030 3E       		.uleb128 0x3e
 9848 0031 0B       		.uleb128 0xb
 9849 0032 03       		.uleb128 0x3
 9850 0033 08       		.uleb128 0x8
 9851 0034 00       		.byte	0
 9852 0035 00       		.byte	0
 9853 0036 05       		.uleb128 0x5
 9854 0037 0F       		.uleb128 0xf
 9855 0038 00       		.byte	0
 9856 0039 0B       		.uleb128 0xb
 9857 003a 0B       		.uleb128 0xb
 9858 003b 00       		.byte	0
 9859 003c 00       		.byte	0
 9860 003d 06       		.uleb128 0x6
 9861 003e 13       		.uleb128 0x13
 9862 003f 01       		.byte	0x1
 9863 0040 0B       		.uleb128 0xb
 9864 0041 0B       		.uleb128 0xb
 9865 0042 3A       		.uleb128 0x3a
 9866 0043 0B       		.uleb128 0xb
 9867 0044 3B       		.uleb128 0x3b
 9868 0045 0B       		.uleb128 0xb
 9869 0046 01       		.uleb128 0x1
 9870 0047 13       		.uleb128 0x13
 9871 0048 00       		.byte	0
 9872 0049 00       		.byte	0
 9873 004a 07       		.uleb128 0x7
 9874 004b 0D       		.uleb128 0xd
 9875 004c 00       		.byte	0
 9876 004d 03       		.uleb128 0x3
 9877 004e 0E       		.uleb128 0xe
 9878 004f 3A       		.uleb128 0x3a
 9879 0050 0B       		.uleb128 0xb
 9880 0051 3B       		.uleb128 0x3b
 9881 0052 0B       		.uleb128 0xb
 9882 0053 49       		.uleb128 0x49
 9883 0054 13       		.uleb128 0x13
 9884 0055 38       		.uleb128 0x38
 9885 0056 0B       		.uleb128 0xb
 9886 0057 00       		.byte	0
 9887 0058 00       		.byte	0
 9888 0059 08       		.uleb128 0x8
 9889 005a 0D       		.uleb128 0xd
 9890 005b 00       		.byte	0
 9891 005c 03       		.uleb128 0x3
 9892 005d 08       		.uleb128 0x8
 9893 005e 3A       		.uleb128 0x3a
 9894 005f 0B       		.uleb128 0xb
 9895 0060 3B       		.uleb128 0x3b
 9896 0061 0B       		.uleb128 0xb
 9897 0062 49       		.uleb128 0x49
ARM GAS  C:\Users\tmj32\AppData\Local\Temp\ccyJ4BPG.s 			page 197


 9898 0063 13       		.uleb128 0x13
 9899 0064 38       		.uleb128 0x38
 9900 0065 0B       		.uleb128 0xb
 9901 0066 00       		.byte	0
 9902 0067 00       		.byte	0
 9903 0068 09       		.uleb128 0x9
 9904 0069 13       		.uleb128 0x13
 9905 006a 01       		.byte	0x1
 9906 006b 03       		.uleb128 0x3
 9907 006c 0E       		.uleb128 0xe
 9908 006d 0B       		.uleb128 0xb
 9909 006e 0B       		.uleb128 0xb
 9910 006f 3A       		.uleb128 0x3a
 9911 0070 0B       		.uleb128 0xb
 9912 0071 3B       		.uleb128 0x3b
 9913 0072 0B       		.uleb128 0xb
 9914 0073 01       		.uleb128 0x1
 9915 0074 13       		.uleb128 0x13
 9916 0075 00       		.byte	0
 9917 0076 00       		.byte	0
 9918 0077 0A       		.uleb128 0xa
 9919 0078 0D       		.uleb128 0xd
 9920 0079 00       		.byte	0
 9921 007a 03       		.uleb128 0x3
 9922 007b 0E       		.uleb128 0xe
 9923 007c 3A       		.uleb128 0x3a
 9924 007d 0B       		.uleb128 0xb
 9925 007e 3B       		.uleb128 0x3b
 9926 007f 0B       		.uleb128 0xb
 9927 0080 49       		.uleb128 0x49
 9928 0081 13       		.uleb128 0x13
 9929 0082 0B       		.uleb128 0xb
 9930 0083 0B       		.uleb128 0xb
 9931 0084 0D       		.uleb128 0xd
 9932 0085 0B       		.uleb128 0xb
 9933 0086 0C       		.uleb128 0xc
 9934 0087 0B       		.uleb128 0xb
 9935 0088 38       		.uleb128 0x38
 9936 0089 0B       		.uleb128 0xb
 9937 008a 00       		.byte	0
 9938 008b 00       		.byte	0
 9939 008c 0B       		.uleb128 0xb
 9940 008d 15       		.uleb128 0x15
 9941 008e 01       		.byte	0x1
 9942 008f 27       		.uleb128 0x27
 9943 0090 19       		.uleb128 0x19
 9944 0091 49       		.uleb128 0x49
 9945 0092 13       		.uleb128 0x13
 9946 0093 01       		.uleb128 0x1
 9947 0094 13       		.uleb128 0x13
 9948 0095 00       		.byte	0
 9949 0096 00       		.byte	0
 9950 0097 0C       		.uleb128 0xc
 9951 0098 05       		.uleb128 0x5
 9952 0099 00       		.byte	0
 9953 009a 49       		.uleb128 0x49
 9954 009b 13       		.uleb128 0x13
ARM GAS  C:\Users\tmj32\AppData\Local\Temp\ccyJ4BPG.s 			page 198


 9955 009c 00       		.byte	0
 9956 009d 00       		.byte	0
 9957 009e 0D       		.uleb128 0xd
 9958 009f 0F       		.uleb128 0xf
 9959 00a0 00       		.byte	0
 9960 00a1 0B       		.uleb128 0xb
 9961 00a2 0B       		.uleb128 0xb
 9962 00a3 49       		.uleb128 0x49
 9963 00a4 13       		.uleb128 0x13
 9964 00a5 00       		.byte	0
 9965 00a6 00       		.byte	0
 9966 00a7 0E       		.uleb128 0xe
 9967 00a8 26       		.uleb128 0x26
 9968 00a9 00       		.byte	0
 9969 00aa 49       		.uleb128 0x49
 9970 00ab 13       		.uleb128 0x13
 9971 00ac 00       		.byte	0
 9972 00ad 00       		.byte	0
 9973 00ae 0F       		.uleb128 0xf
 9974 00af 17       		.uleb128 0x17
 9975 00b0 01       		.byte	0x1
 9976 00b1 0B       		.uleb128 0xb
 9977 00b2 0B       		.uleb128 0xb
 9978 00b3 3A       		.uleb128 0x3a
 9979 00b4 0B       		.uleb128 0xb
 9980 00b5 3B       		.uleb128 0x3b
 9981 00b6 0B       		.uleb128 0xb
 9982 00b7 01       		.uleb128 0x1
 9983 00b8 13       		.uleb128 0x13
 9984 00b9 00       		.byte	0
 9985 00ba 00       		.byte	0
 9986 00bb 10       		.uleb128 0x10
 9987 00bc 0D       		.uleb128 0xd
 9988 00bd 00       		.byte	0
 9989 00be 03       		.uleb128 0x3
 9990 00bf 08       		.uleb128 0x8
 9991 00c0 3A       		.uleb128 0x3a
 9992 00c1 0B       		.uleb128 0xb
 9993 00c2 3B       		.uleb128 0x3b
 9994 00c3 0B       		.uleb128 0xb
 9995 00c4 49       		.uleb128 0x49
 9996 00c5 13       		.uleb128 0x13
 9997 00c6 00       		.byte	0
 9998 00c7 00       		.byte	0
 9999 00c8 11       		.uleb128 0x11
 10000 00c9 0D       		.uleb128 0xd
 10001 00ca 00       		.byte	0
 10002 00cb 03       		.uleb128 0x3
 10003 00cc 0E       		.uleb128 0xe
 10004 00cd 3A       		.uleb128 0x3a
 10005 00ce 0B       		.uleb128 0xb
 10006 00cf 3B       		.uleb128 0x3b
 10007 00d0 0B       		.uleb128 0xb
 10008 00d1 49       		.uleb128 0x49
 10009 00d2 13       		.uleb128 0x13
 10010 00d3 00       		.byte	0
 10011 00d4 00       		.byte	0
ARM GAS  C:\Users\tmj32\AppData\Local\Temp\ccyJ4BPG.s 			page 199


 10012 00d5 12       		.uleb128 0x12
 10013 00d6 16       		.uleb128 0x16
 10014 00d7 00       		.byte	0
 10015 00d8 03       		.uleb128 0x3
 10016 00d9 0E       		.uleb128 0xe
 10017 00da 3A       		.uleb128 0x3a
 10018 00db 0B       		.uleb128 0xb
 10019 00dc 3B       		.uleb128 0x3b
 10020 00dd 05       		.uleb128 0x5
 10021 00de 49       		.uleb128 0x49
 10022 00df 13       		.uleb128 0x13
 10023 00e0 00       		.byte	0
 10024 00e1 00       		.byte	0
 10025 00e2 13       		.uleb128 0x13
 10026 00e3 04       		.uleb128 0x4
 10027 00e4 01       		.byte	0x1
 10028 00e5 0B       		.uleb128 0xb
 10029 00e6 0B       		.uleb128 0xb
 10030 00e7 49       		.uleb128 0x49
 10031 00e8 13       		.uleb128 0x13
 10032 00e9 3A       		.uleb128 0x3a
 10033 00ea 0B       		.uleb128 0xb
 10034 00eb 3B       		.uleb128 0x3b
 10035 00ec 0B       		.uleb128 0xb
 10036 00ed 01       		.uleb128 0x1
 10037 00ee 13       		.uleb128 0x13
 10038 00ef 00       		.byte	0
 10039 00f0 00       		.byte	0
 10040 00f1 14       		.uleb128 0x14
 10041 00f2 28       		.uleb128 0x28
 10042 00f3 00       		.byte	0
 10043 00f4 03       		.uleb128 0x3
 10044 00f5 0E       		.uleb128 0xe
 10045 00f6 1C       		.uleb128 0x1c
 10046 00f7 0B       		.uleb128 0xb
 10047 00f8 00       		.byte	0
 10048 00f9 00       		.byte	0
 10049 00fa 15       		.uleb128 0x15
 10050 00fb 15       		.uleb128 0x15
 10051 00fc 01       		.byte	0x1
 10052 00fd 27       		.uleb128 0x27
 10053 00fe 19       		.uleb128 0x19
 10054 00ff 01       		.uleb128 0x1
 10055 0100 13       		.uleb128 0x13
 10056 0101 00       		.byte	0
 10057 0102 00       		.byte	0
 10058 0103 16       		.uleb128 0x16
 10059 0104 35       		.uleb128 0x35
 10060 0105 00       		.byte	0
 10061 0106 49       		.uleb128 0x49
 10062 0107 13       		.uleb128 0x13
 10063 0108 00       		.byte	0
 10064 0109 00       		.byte	0
 10065 010a 17       		.uleb128 0x17
 10066 010b 13       		.uleb128 0x13
 10067 010c 01       		.byte	0x1
 10068 010d 03       		.uleb128 0x3
ARM GAS  C:\Users\tmj32\AppData\Local\Temp\ccyJ4BPG.s 			page 200


 10069 010e 0E       		.uleb128 0xe
 10070 010f 0B       		.uleb128 0xb
 10071 0110 05       		.uleb128 0x5
 10072 0111 3A       		.uleb128 0x3a
 10073 0112 0B       		.uleb128 0xb
 10074 0113 3B       		.uleb128 0x3b
 10075 0114 0B       		.uleb128 0xb
 10076 0115 01       		.uleb128 0x1
 10077 0116 13       		.uleb128 0x13
 10078 0117 00       		.byte	0
 10079 0118 00       		.byte	0
 10080 0119 18       		.uleb128 0x18
 10081 011a 0D       		.uleb128 0xd
 10082 011b 00       		.byte	0
 10083 011c 03       		.uleb128 0x3
 10084 011d 0E       		.uleb128 0xe
 10085 011e 3A       		.uleb128 0x3a
 10086 011f 0B       		.uleb128 0xb
 10087 0120 3B       		.uleb128 0x3b
 10088 0121 0B       		.uleb128 0xb
 10089 0122 49       		.uleb128 0x49
 10090 0123 13       		.uleb128 0x13
 10091 0124 38       		.uleb128 0x38
 10092 0125 05       		.uleb128 0x5
 10093 0126 00       		.byte	0
 10094 0127 00       		.byte	0
 10095 0128 19       		.uleb128 0x19
 10096 0129 0D       		.uleb128 0xd
 10097 012a 00       		.byte	0
 10098 012b 03       		.uleb128 0x3
 10099 012c 0E       		.uleb128 0xe
 10100 012d 3A       		.uleb128 0x3a
 10101 012e 0B       		.uleb128 0xb
 10102 012f 3B       		.uleb128 0x3b
 10103 0130 0B       		.uleb128 0xb
 10104 0131 49       		.uleb128 0x49
 10105 0132 13       		.uleb128 0x13
 10106 0133 0B       		.uleb128 0xb
 10107 0134 0B       		.uleb128 0xb
 10108 0135 0D       		.uleb128 0xd
 10109 0136 0B       		.uleb128 0xb
 10110 0137 0C       		.uleb128 0xc
 10111 0138 0B       		.uleb128 0xb
 10112 0139 38       		.uleb128 0x38
 10113 013a 05       		.uleb128 0x5
 10114 013b 00       		.byte	0
 10115 013c 00       		.byte	0
 10116 013d 1A       		.uleb128 0x1a
 10117 013e 0D       		.uleb128 0xd
 10118 013f 00       		.byte	0
 10119 0140 03       		.uleb128 0x3
 10120 0141 08       		.uleb128 0x8
 10121 0142 3A       		.uleb128 0x3a
 10122 0143 0B       		.uleb128 0xb
 10123 0144 3B       		.uleb128 0x3b
 10124 0145 0B       		.uleb128 0xb
 10125 0146 49       		.uleb128 0x49
ARM GAS  C:\Users\tmj32\AppData\Local\Temp\ccyJ4BPG.s 			page 201


 10126 0147 13       		.uleb128 0x13
 10127 0148 0B       		.uleb128 0xb
 10128 0149 0B       		.uleb128 0xb
 10129 014a 0D       		.uleb128 0xd
 10130 014b 0B       		.uleb128 0xb
 10131 014c 0C       		.uleb128 0xc
 10132 014d 0B       		.uleb128 0xb
 10133 014e 38       		.uleb128 0x38
 10134 014f 0B       		.uleb128 0xb
 10135 0150 00       		.byte	0
 10136 0151 00       		.byte	0
 10137 0152 1B       		.uleb128 0x1b
 10138 0153 01       		.uleb128 0x1
 10139 0154 01       		.byte	0x1
 10140 0155 49       		.uleb128 0x49
 10141 0156 13       		.uleb128 0x13
 10142 0157 01       		.uleb128 0x1
 10143 0158 13       		.uleb128 0x13
 10144 0159 00       		.byte	0
 10145 015a 00       		.byte	0
 10146 015b 1C       		.uleb128 0x1c
 10147 015c 21       		.uleb128 0x21
 10148 015d 00       		.byte	0
 10149 015e 49       		.uleb128 0x49
 10150 015f 13       		.uleb128 0x13
 10151 0160 2F       		.uleb128 0x2f
 10152 0161 0B       		.uleb128 0xb
 10153 0162 00       		.byte	0
 10154 0163 00       		.byte	0
 10155 0164 1D       		.uleb128 0x1d
 10156 0165 13       		.uleb128 0x13
 10157 0166 00       		.byte	0
 10158 0167 03       		.uleb128 0x3
 10159 0168 0E       		.uleb128 0xe
 10160 0169 3C       		.uleb128 0x3c
 10161 016a 19       		.uleb128 0x19
 10162 016b 00       		.byte	0
 10163 016c 00       		.byte	0
 10164 016d 1E       		.uleb128 0x1e
 10165 016e 28       		.uleb128 0x28
 10166 016f 00       		.byte	0
 10167 0170 03       		.uleb128 0x3
 10168 0171 0E       		.uleb128 0xe
 10169 0172 1C       		.uleb128 0x1c
 10170 0173 05       		.uleb128 0x5
 10171 0174 00       		.byte	0
 10172 0175 00       		.byte	0
 10173 0176 1F       		.uleb128 0x1f
 10174 0177 0D       		.uleb128 0xd
 10175 0178 00       		.byte	0
 10176 0179 03       		.uleb128 0x3
 10177 017a 08       		.uleb128 0x8
 10178 017b 3A       		.uleb128 0x3a
 10179 017c 0B       		.uleb128 0xb
 10180 017d 3B       		.uleb128 0x3b
 10181 017e 05       		.uleb128 0x5
 10182 017f 49       		.uleb128 0x49
ARM GAS  C:\Users\tmj32\AppData\Local\Temp\ccyJ4BPG.s 			page 202


 10183 0180 13       		.uleb128 0x13
 10184 0181 38       		.uleb128 0x38
 10185 0182 0B       		.uleb128 0xb
 10186 0183 00       		.byte	0
 10187 0184 00       		.byte	0
 10188 0185 20       		.uleb128 0x20
 10189 0186 0D       		.uleb128 0xd
 10190 0187 00       		.byte	0
 10191 0188 03       		.uleb128 0x3
 10192 0189 0E       		.uleb128 0xe
 10193 018a 3A       		.uleb128 0x3a
 10194 018b 0B       		.uleb128 0xb
 10195 018c 3B       		.uleb128 0x3b
 10196 018d 05       		.uleb128 0x5
 10197 018e 49       		.uleb128 0x49
 10198 018f 13       		.uleb128 0x13
 10199 0190 38       		.uleb128 0x38
 10200 0191 0B       		.uleb128 0xb
 10201 0192 00       		.byte	0
 10202 0193 00       		.byte	0
 10203 0194 21       		.uleb128 0x21
 10204 0195 13       		.uleb128 0x13
 10205 0196 01       		.byte	0x1
 10206 0197 0B       		.uleb128 0xb
 10207 0198 0B       		.uleb128 0xb
 10208 0199 3A       		.uleb128 0x3a
 10209 019a 0B       		.uleb128 0xb
 10210 019b 3B       		.uleb128 0x3b
 10211 019c 05       		.uleb128 0x5
 10212 019d 01       		.uleb128 0x1
 10213 019e 13       		.uleb128 0x13
 10214 019f 00       		.byte	0
 10215 01a0 00       		.byte	0
 10216 01a1 22       		.uleb128 0x22
 10217 01a2 13       		.uleb128 0x13
 10218 01a3 01       		.byte	0x1
 10219 01a4 0B       		.uleb128 0xb
 10220 01a5 05       		.uleb128 0x5
 10221 01a6 3A       		.uleb128 0x3a
 10222 01a7 0B       		.uleb128 0xb
 10223 01a8 3B       		.uleb128 0x3b
 10224 01a9 0B       		.uleb128 0xb
 10225 01aa 01       		.uleb128 0x1
 10226 01ab 13       		.uleb128 0x13
 10227 01ac 00       		.byte	0
 10228 01ad 00       		.byte	0
 10229 01ae 23       		.uleb128 0x23
 10230 01af 0D       		.uleb128 0xd
 10231 01b0 00       		.byte	0
 10232 01b1 03       		.uleb128 0x3
 10233 01b2 08       		.uleb128 0x8
 10234 01b3 3A       		.uleb128 0x3a
 10235 01b4 0B       		.uleb128 0xb
 10236 01b5 3B       		.uleb128 0x3b
 10237 01b6 0B       		.uleb128 0xb
 10238 01b7 49       		.uleb128 0x49
 10239 01b8 13       		.uleb128 0x13
ARM GAS  C:\Users\tmj32\AppData\Local\Temp\ccyJ4BPG.s 			page 203


 10240 01b9 38       		.uleb128 0x38
 10241 01ba 05       		.uleb128 0x5
 10242 01bb 00       		.byte	0
 10243 01bc 00       		.byte	0
 10244 01bd 24       		.uleb128 0x24
 10245 01be 0D       		.uleb128 0xd
 10246 01bf 00       		.byte	0
 10247 01c0 03       		.uleb128 0x3
 10248 01c1 0E       		.uleb128 0xe
 10249 01c2 3A       		.uleb128 0x3a
 10250 01c3 0B       		.uleb128 0xb
 10251 01c4 3B       		.uleb128 0x3b
 10252 01c5 05       		.uleb128 0x5
 10253 01c6 49       		.uleb128 0x49
 10254 01c7 13       		.uleb128 0x13
 10255 01c8 38       		.uleb128 0x38
 10256 01c9 05       		.uleb128 0x5
 10257 01ca 00       		.byte	0
 10258 01cb 00       		.byte	0
 10259 01cc 25       		.uleb128 0x25
 10260 01cd 0D       		.uleb128 0xd
 10261 01ce 00       		.byte	0
 10262 01cf 03       		.uleb128 0x3
 10263 01d0 08       		.uleb128 0x8
 10264 01d1 3A       		.uleb128 0x3a
 10265 01d2 0B       		.uleb128 0xb
 10266 01d3 3B       		.uleb128 0x3b
 10267 01d4 05       		.uleb128 0x5
 10268 01d5 49       		.uleb128 0x49
 10269 01d6 13       		.uleb128 0x13
 10270 01d7 38       		.uleb128 0x38
 10271 01d8 05       		.uleb128 0x5
 10272 01d9 00       		.byte	0
 10273 01da 00       		.byte	0
 10274 01db 26       		.uleb128 0x26
 10275 01dc 2E       		.uleb128 0x2e
 10276 01dd 01       		.byte	0x1
 10277 01de 03       		.uleb128 0x3
 10278 01df 0E       		.uleb128 0xe
 10279 01e0 3A       		.uleb128 0x3a
 10280 01e1 0B       		.uleb128 0xb
 10281 01e2 3B       		.uleb128 0x3b
 10282 01e3 0B       		.uleb128 0xb
 10283 01e4 27       		.uleb128 0x27
 10284 01e5 19       		.uleb128 0x19
 10285 01e6 11       		.uleb128 0x11
 10286 01e7 01       		.uleb128 0x1
 10287 01e8 12       		.uleb128 0x12
 10288 01e9 06       		.uleb128 0x6
 10289 01ea 40       		.uleb128 0x40
 10290 01eb 18       		.uleb128 0x18
 10291 01ec 9642     		.uleb128 0x2116
 10292 01ee 19       		.uleb128 0x19
 10293 01ef 01       		.uleb128 0x1
 10294 01f0 13       		.uleb128 0x13
 10295 01f1 00       		.byte	0
 10296 01f2 00       		.byte	0
ARM GAS  C:\Users\tmj32\AppData\Local\Temp\ccyJ4BPG.s 			page 204


 10297 01f3 27       		.uleb128 0x27
 10298 01f4 05       		.uleb128 0x5
 10299 01f5 00       		.byte	0
 10300 01f6 03       		.uleb128 0x3
 10301 01f7 0E       		.uleb128 0xe
 10302 01f8 3A       		.uleb128 0x3a
 10303 01f9 0B       		.uleb128 0xb
 10304 01fa 3B       		.uleb128 0x3b
 10305 01fb 0B       		.uleb128 0xb
 10306 01fc 49       		.uleb128 0x49
 10307 01fd 13       		.uleb128 0x13
 10308 01fe 02       		.uleb128 0x2
 10309 01ff 18       		.uleb128 0x18
 10310 0200 00       		.byte	0
 10311 0201 00       		.byte	0
 10312 0202 28       		.uleb128 0x28
 10313 0203 05       		.uleb128 0x5
 10314 0204 00       		.byte	0
 10315 0205 03       		.uleb128 0x3
 10316 0206 08       		.uleb128 0x8
 10317 0207 3A       		.uleb128 0x3a
 10318 0208 0B       		.uleb128 0xb
 10319 0209 3B       		.uleb128 0x3b
 10320 020a 0B       		.uleb128 0xb
 10321 020b 49       		.uleb128 0x49
 10322 020c 13       		.uleb128 0x13
 10323 020d 02       		.uleb128 0x2
 10324 020e 18       		.uleb128 0x18
 10325 020f 00       		.byte	0
 10326 0210 00       		.byte	0
 10327 0211 29       		.uleb128 0x29
 10328 0212 2E       		.uleb128 0x2e
 10329 0213 01       		.byte	0x1
 10330 0214 03       		.uleb128 0x3
 10331 0215 0E       		.uleb128 0xe
 10332 0216 3A       		.uleb128 0x3a
 10333 0217 0B       		.uleb128 0xb
 10334 0218 3B       		.uleb128 0x3b
 10335 0219 0B       		.uleb128 0xb
 10336 021a 27       		.uleb128 0x27
 10337 021b 19       		.uleb128 0x19
 10338 021c 49       		.uleb128 0x49
 10339 021d 13       		.uleb128 0x13
 10340 021e 11       		.uleb128 0x11
 10341 021f 01       		.uleb128 0x1
 10342 0220 12       		.uleb128 0x12
 10343 0221 06       		.uleb128 0x6
 10344 0222 40       		.uleb128 0x40
 10345 0223 18       		.uleb128 0x18
 10346 0224 9742     		.uleb128 0x2117
 10347 0226 19       		.uleb128 0x19
 10348 0227 01       		.uleb128 0x1
 10349 0228 13       		.uleb128 0x13
 10350 0229 00       		.byte	0
 10351 022a 00       		.byte	0
 10352 022b 2A       		.uleb128 0x2a
 10353 022c 2E       		.uleb128 0x2e
ARM GAS  C:\Users\tmj32\AppData\Local\Temp\ccyJ4BPG.s 			page 205


 10354 022d 01       		.byte	0x1
 10355 022e 3F       		.uleb128 0x3f
 10356 022f 19       		.uleb128 0x19
 10357 0230 03       		.uleb128 0x3
 10358 0231 0E       		.uleb128 0xe
 10359 0232 3A       		.uleb128 0x3a
 10360 0233 0B       		.uleb128 0xb
 10361 0234 3B       		.uleb128 0x3b
 10362 0235 0B       		.uleb128 0xb
 10363 0236 27       		.uleb128 0x27
 10364 0237 19       		.uleb128 0x19
 10365 0238 49       		.uleb128 0x49
 10366 0239 13       		.uleb128 0x13
 10367 023a 11       		.uleb128 0x11
 10368 023b 01       		.uleb128 0x1
 10369 023c 12       		.uleb128 0x12
 10370 023d 06       		.uleb128 0x6
 10371 023e 40       		.uleb128 0x40
 10372 023f 18       		.uleb128 0x18
 10373 0240 9642     		.uleb128 0x2116
 10374 0242 19       		.uleb128 0x19
 10375 0243 01       		.uleb128 0x1
 10376 0244 13       		.uleb128 0x13
 10377 0245 00       		.byte	0
 10378 0246 00       		.byte	0
 10379 0247 2B       		.uleb128 0x2b
 10380 0248 34       		.uleb128 0x34
 10381 0249 00       		.byte	0
 10382 024a 03       		.uleb128 0x3
 10383 024b 0E       		.uleb128 0xe
 10384 024c 3A       		.uleb128 0x3a
 10385 024d 0B       		.uleb128 0xb
 10386 024e 3B       		.uleb128 0x3b
 10387 024f 0B       		.uleb128 0xb
 10388 0250 49       		.uleb128 0x49
 10389 0251 13       		.uleb128 0x13
 10390 0252 02       		.uleb128 0x2
 10391 0253 18       		.uleb128 0x18
 10392 0254 00       		.byte	0
 10393 0255 00       		.byte	0
 10394 0256 2C       		.uleb128 0x2c
 10395 0257 34       		.uleb128 0x34
 10396 0258 00       		.byte	0
 10397 0259 03       		.uleb128 0x3
 10398 025a 08       		.uleb128 0x8
 10399 025b 3A       		.uleb128 0x3a
 10400 025c 0B       		.uleb128 0xb
 10401 025d 3B       		.uleb128 0x3b
 10402 025e 0B       		.uleb128 0xb
 10403 025f 49       		.uleb128 0x49
 10404 0260 13       		.uleb128 0x13
 10405 0261 02       		.uleb128 0x2
 10406 0262 18       		.uleb128 0x18
 10407 0263 00       		.byte	0
 10408 0264 00       		.byte	0
 10409 0265 2D       		.uleb128 0x2d
 10410 0266 0B       		.uleb128 0xb
ARM GAS  C:\Users\tmj32\AppData\Local\Temp\ccyJ4BPG.s 			page 206


 10411 0267 01       		.byte	0x1
 10412 0268 11       		.uleb128 0x11
 10413 0269 01       		.uleb128 0x1
 10414 026a 12       		.uleb128 0x12
 10415 026b 06       		.uleb128 0x6
 10416 026c 01       		.uleb128 0x1
 10417 026d 13       		.uleb128 0x13
 10418 026e 00       		.byte	0
 10419 026f 00       		.byte	0
 10420 0270 2E       		.uleb128 0x2e
 10421 0271 0B       		.uleb128 0xb
 10422 0272 01       		.byte	0x1
 10423 0273 11       		.uleb128 0x11
 10424 0274 01       		.uleb128 0x1
 10425 0275 12       		.uleb128 0x12
 10426 0276 06       		.uleb128 0x6
 10427 0277 00       		.byte	0
 10428 0278 00       		.byte	0
 10429 0279 2F       		.uleb128 0x2f
 10430 027a 2E       		.uleb128 0x2e
 10431 027b 01       		.byte	0x1
 10432 027c 3F       		.uleb128 0x3f
 10433 027d 19       		.uleb128 0x19
 10434 027e 03       		.uleb128 0x3
 10435 027f 0E       		.uleb128 0xe
 10436 0280 3A       		.uleb128 0x3a
 10437 0281 0B       		.uleb128 0xb
 10438 0282 3B       		.uleb128 0x3b
 10439 0283 0B       		.uleb128 0xb
 10440 0284 27       		.uleb128 0x27
 10441 0285 19       		.uleb128 0x19
 10442 0286 11       		.uleb128 0x11
 10443 0287 01       		.uleb128 0x1
 10444 0288 12       		.uleb128 0x12
 10445 0289 06       		.uleb128 0x6
 10446 028a 40       		.uleb128 0x40
 10447 028b 18       		.uleb128 0x18
 10448 028c 9642     		.uleb128 0x2116
 10449 028e 19       		.uleb128 0x19
 10450 028f 01       		.uleb128 0x1
 10451 0290 13       		.uleb128 0x13
 10452 0291 00       		.byte	0
 10453 0292 00       		.byte	0
 10454 0293 30       		.uleb128 0x30
 10455 0294 0B       		.uleb128 0xb
 10456 0295 01       		.byte	0x1
 10457 0296 55       		.uleb128 0x55
 10458 0297 17       		.uleb128 0x17
 10459 0298 00       		.byte	0
 10460 0299 00       		.byte	0
 10461 029a 31       		.uleb128 0x31
 10462 029b 2E       		.uleb128 0x2e
 10463 029c 01       		.byte	0x1
 10464 029d 3F       		.uleb128 0x3f
 10465 029e 19       		.uleb128 0x19
 10466 029f 03       		.uleb128 0x3
 10467 02a0 0E       		.uleb128 0xe
ARM GAS  C:\Users\tmj32\AppData\Local\Temp\ccyJ4BPG.s 			page 207


 10468 02a1 3A       		.uleb128 0x3a
 10469 02a2 0B       		.uleb128 0xb
 10470 02a3 3B       		.uleb128 0x3b
 10471 02a4 05       		.uleb128 0x5
 10472 02a5 27       		.uleb128 0x27
 10473 02a6 19       		.uleb128 0x19
 10474 02a7 11       		.uleb128 0x11
 10475 02a8 01       		.uleb128 0x1
 10476 02a9 12       		.uleb128 0x12
 10477 02aa 06       		.uleb128 0x6
 10478 02ab 40       		.uleb128 0x40
 10479 02ac 18       		.uleb128 0x18
 10480 02ad 9642     		.uleb128 0x2116
 10481 02af 19       		.uleb128 0x19
 10482 02b0 01       		.uleb128 0x1
 10483 02b1 13       		.uleb128 0x13
 10484 02b2 00       		.byte	0
 10485 02b3 00       		.byte	0
 10486 02b4 32       		.uleb128 0x32
 10487 02b5 05       		.uleb128 0x5
 10488 02b6 00       		.byte	0
 10489 02b7 03       		.uleb128 0x3
 10490 02b8 0E       		.uleb128 0xe
 10491 02b9 3A       		.uleb128 0x3a
 10492 02ba 0B       		.uleb128 0xb
 10493 02bb 3B       		.uleb128 0x3b
 10494 02bc 05       		.uleb128 0x5
 10495 02bd 49       		.uleb128 0x49
 10496 02be 13       		.uleb128 0x13
 10497 02bf 02       		.uleb128 0x2
 10498 02c0 18       		.uleb128 0x18
 10499 02c1 00       		.byte	0
 10500 02c2 00       		.byte	0
 10501 02c3 33       		.uleb128 0x33
 10502 02c4 34       		.uleb128 0x34
 10503 02c5 00       		.byte	0
 10504 02c6 03       		.uleb128 0x3
 10505 02c7 08       		.uleb128 0x8
 10506 02c8 3A       		.uleb128 0x3a
 10507 02c9 0B       		.uleb128 0xb
 10508 02ca 3B       		.uleb128 0x3b
 10509 02cb 05       		.uleb128 0x5
 10510 02cc 49       		.uleb128 0x49
 10511 02cd 13       		.uleb128 0x13
 10512 02ce 02       		.uleb128 0x2
 10513 02cf 18       		.uleb128 0x18
 10514 02d0 00       		.byte	0
 10515 02d1 00       		.byte	0
 10516 02d2 34       		.uleb128 0x34
 10517 02d3 05       		.uleb128 0x5
 10518 02d4 00       		.byte	0
 10519 02d5 03       		.uleb128 0x3
 10520 02d6 08       		.uleb128 0x8
 10521 02d7 3A       		.uleb128 0x3a
 10522 02d8 0B       		.uleb128 0xb
 10523 02d9 3B       		.uleb128 0x3b
 10524 02da 05       		.uleb128 0x5
ARM GAS  C:\Users\tmj32\AppData\Local\Temp\ccyJ4BPG.s 			page 208


 10525 02db 49       		.uleb128 0x49
 10526 02dc 13       		.uleb128 0x13
 10527 02dd 02       		.uleb128 0x2
 10528 02de 18       		.uleb128 0x18
 10529 02df 00       		.byte	0
 10530 02e0 00       		.byte	0
 10531 02e1 35       		.uleb128 0x35
 10532 02e2 2E       		.uleb128 0x2e
 10533 02e3 01       		.byte	0x1
 10534 02e4 3F       		.uleb128 0x3f
 10535 02e5 19       		.uleb128 0x19
 10536 02e6 03       		.uleb128 0x3
 10537 02e7 0E       		.uleb128 0xe
 10538 02e8 3A       		.uleb128 0x3a
 10539 02e9 0B       		.uleb128 0xb
 10540 02ea 3B       		.uleb128 0x3b
 10541 02eb 05       		.uleb128 0x5
 10542 02ec 27       		.uleb128 0x27
 10543 02ed 19       		.uleb128 0x19
 10544 02ee 49       		.uleb128 0x49
 10545 02ef 13       		.uleb128 0x13
 10546 02f0 11       		.uleb128 0x11
 10547 02f1 01       		.uleb128 0x1
 10548 02f2 12       		.uleb128 0x12
 10549 02f3 06       		.uleb128 0x6
 10550 02f4 40       		.uleb128 0x40
 10551 02f5 18       		.uleb128 0x18
 10552 02f6 9642     		.uleb128 0x2116
 10553 02f8 19       		.uleb128 0x19
 10554 02f9 01       		.uleb128 0x1
 10555 02fa 13       		.uleb128 0x13
 10556 02fb 00       		.byte	0
 10557 02fc 00       		.byte	0
 10558 02fd 36       		.uleb128 0x36
 10559 02fe 34       		.uleb128 0x34
 10560 02ff 00       		.byte	0
 10561 0300 03       		.uleb128 0x3
 10562 0301 0E       		.uleb128 0xe
 10563 0302 3A       		.uleb128 0x3a
 10564 0303 0B       		.uleb128 0xb
 10565 0304 3B       		.uleb128 0x3b
 10566 0305 05       		.uleb128 0x5
 10567 0306 49       		.uleb128 0x49
 10568 0307 13       		.uleb128 0x13
 10569 0308 02       		.uleb128 0x2
 10570 0309 18       		.uleb128 0x18
 10571 030a 00       		.byte	0
 10572 030b 00       		.byte	0
 10573 030c 37       		.uleb128 0x37
 10574 030d 2E       		.uleb128 0x2e
 10575 030e 01       		.byte	0x1
 10576 030f 03       		.uleb128 0x3
 10577 0310 0E       		.uleb128 0xe
 10578 0311 3A       		.uleb128 0x3a
 10579 0312 0B       		.uleb128 0xb
 10580 0313 3B       		.uleb128 0x3b
 10581 0314 05       		.uleb128 0x5
ARM GAS  C:\Users\tmj32\AppData\Local\Temp\ccyJ4BPG.s 			page 209


 10582 0315 27       		.uleb128 0x27
 10583 0316 19       		.uleb128 0x19
 10584 0317 49       		.uleb128 0x49
 10585 0318 13       		.uleb128 0x13
 10586 0319 11       		.uleb128 0x11
 10587 031a 01       		.uleb128 0x1
 10588 031b 12       		.uleb128 0x12
 10589 031c 06       		.uleb128 0x6
 10590 031d 40       		.uleb128 0x40
 10591 031e 18       		.uleb128 0x18
 10592 031f 9642     		.uleb128 0x2116
 10593 0321 19       		.uleb128 0x19
 10594 0322 01       		.uleb128 0x1
 10595 0323 13       		.uleb128 0x13
 10596 0324 00       		.byte	0
 10597 0325 00       		.byte	0
 10598 0326 38       		.uleb128 0x38
 10599 0327 2E       		.uleb128 0x2e
 10600 0328 01       		.byte	0x1
 10601 0329 03       		.uleb128 0x3
 10602 032a 0E       		.uleb128 0xe
 10603 032b 3A       		.uleb128 0x3a
 10604 032c 0B       		.uleb128 0xb
 10605 032d 3B       		.uleb128 0x3b
 10606 032e 05       		.uleb128 0x5
 10607 032f 27       		.uleb128 0x27
 10608 0330 19       		.uleb128 0x19
 10609 0331 11       		.uleb128 0x11
 10610 0332 01       		.uleb128 0x1
 10611 0333 12       		.uleb128 0x12
 10612 0334 06       		.uleb128 0x6
 10613 0335 40       		.uleb128 0x40
 10614 0336 18       		.uleb128 0x18
 10615 0337 9642     		.uleb128 0x2116
 10616 0339 19       		.uleb128 0x19
 10617 033a 01       		.uleb128 0x1
 10618 033b 13       		.uleb128 0x13
 10619 033c 00       		.byte	0
 10620 033d 00       		.byte	0
 10621 033e 39       		.uleb128 0x39
 10622 033f 2E       		.uleb128 0x2e
 10623 0340 01       		.byte	0x1
 10624 0341 03       		.uleb128 0x3
 10625 0342 0E       		.uleb128 0xe
 10626 0343 3A       		.uleb128 0x3a
 10627 0344 0B       		.uleb128 0xb
 10628 0345 3B       		.uleb128 0x3b
 10629 0346 05       		.uleb128 0x5
 10630 0347 27       		.uleb128 0x27
 10631 0348 19       		.uleb128 0x19
 10632 0349 49       		.uleb128 0x49
 10633 034a 13       		.uleb128 0x13
 10634 034b 11       		.uleb128 0x11
 10635 034c 01       		.uleb128 0x1
 10636 034d 12       		.uleb128 0x12
 10637 034e 06       		.uleb128 0x6
 10638 034f 40       		.uleb128 0x40
ARM GAS  C:\Users\tmj32\AppData\Local\Temp\ccyJ4BPG.s 			page 210


 10639 0350 18       		.uleb128 0x18
 10640 0351 9742     		.uleb128 0x2117
 10641 0353 19       		.uleb128 0x19
 10642 0354 01       		.uleb128 0x1
 10643 0355 13       		.uleb128 0x13
 10644 0356 00       		.byte	0
 10645 0357 00       		.byte	0
 10646 0358 3A       		.uleb128 0x3a
 10647 0359 34       		.uleb128 0x34
 10648 035a 00       		.byte	0
 10649 035b 03       		.uleb128 0x3
 10650 035c 0E       		.uleb128 0xe
 10651 035d 3A       		.uleb128 0x3a
 10652 035e 0B       		.uleb128 0xb
 10653 035f 3B       		.uleb128 0x3b
 10654 0360 05       		.uleb128 0x5
 10655 0361 49       		.uleb128 0x49
 10656 0362 13       		.uleb128 0x13
 10657 0363 3F       		.uleb128 0x3f
 10658 0364 19       		.uleb128 0x19
 10659 0365 3C       		.uleb128 0x3c
 10660 0366 19       		.uleb128 0x19
 10661 0367 00       		.byte	0
 10662 0368 00       		.byte	0
 10663 0369 00       		.byte	0
 10664              		.section	.debug_aranges,"",%progbits
 10665 0000 44010000 		.4byte	0x144
 10666 0004 0200     		.2byte	0x2
 10667 0006 00000000 		.4byte	.Ldebug_info0
 10668 000a 04       		.byte	0x4
 10669 000b 00       		.byte	0
 10670 000c 0000     		.2byte	0
 10671 000e 0000     		.2byte	0
 10672 0010 00000000 		.4byte	.LFB10
 10673 0014 1C000000 		.4byte	.LFE10-.LFB10
 10674 0018 00000000 		.4byte	.LFB11
 10675 001c 2E000000 		.4byte	.LFE11-.LFB11
 10676 0020 00000000 		.4byte	.LFB12
 10677 0024 2E000000 		.4byte	.LFE12-.LFB12
 10678 0028 00000000 		.4byte	.LFB46
 10679 002c C0010000 		.4byte	.LFE46-.LFB46
 10680 0030 00000000 		.4byte	.LFB47
 10681 0034 B0030000 		.4byte	.LFE47-.LFB47
 10682 0038 00000000 		.4byte	.LFB48
 10683 003c 38000000 		.4byte	.LFE48-.LFB48
 10684 0040 00000000 		.4byte	.LFB49
 10685 0044 4C000000 		.4byte	.LFE49-.LFB49
 10686 0048 00000000 		.4byte	.LFB50
 10687 004c 94000000 		.4byte	.LFE50-.LFB50
 10688 0050 00000000 		.4byte	.LFB51
 10689 0054 32000000 		.4byte	.LFE51-.LFB51
 10690 0058 00000000 		.4byte	.LFB52
 10691 005c 54000000 		.4byte	.LFE52-.LFB52
 10692 0060 00000000 		.4byte	.LFB53
 10693 0064 5E000000 		.4byte	.LFE53-.LFB53
 10694 0068 00000000 		.4byte	.LFB54
 10695 006c 3E000000 		.4byte	.LFE54-.LFB54
ARM GAS  C:\Users\tmj32\AppData\Local\Temp\ccyJ4BPG.s 			page 211


 10696 0070 00000000 		.4byte	.LFB55
 10697 0074 3E000000 		.4byte	.LFE55-.LFB55
 10698 0078 00000000 		.4byte	.LFB56
 10699 007c 80000000 		.4byte	.LFE56-.LFB56
 10700 0080 00000000 		.4byte	.LFB57
 10701 0084 34000000 		.4byte	.LFE57-.LFB57
 10702 0088 00000000 		.4byte	.LFB58
 10703 008c 1C000000 		.4byte	.LFE58-.LFB58
 10704 0090 00000000 		.4byte	.LFB59
 10705 0094 2E000000 		.4byte	.LFE59-.LFB59
 10706 0098 00000000 		.4byte	.LFB60
 10707 009c 1C000000 		.4byte	.LFE60-.LFB60
 10708 00a0 00000000 		.4byte	.LFB61
 10709 00a4 36000000 		.4byte	.LFE61-.LFB61
 10710 00a8 00000000 		.4byte	.LFB62
 10711 00ac 1C000000 		.4byte	.LFE62-.LFB62
 10712 00b0 00000000 		.4byte	.LFB63
 10713 00b4 88000000 		.4byte	.LFE63-.LFB63
 10714 00b8 00000000 		.4byte	.LFB64
 10715 00bc 4A000000 		.4byte	.LFE64-.LFB64
 10716 00c0 00000000 		.4byte	.LFB65
 10717 00c4 7E000000 		.4byte	.LFE65-.LFB65
 10718 00c8 00000000 		.4byte	.LFB66
 10719 00cc 2E000000 		.4byte	.LFE66-.LFB66
 10720 00d0 00000000 		.4byte	.LFB67
 10721 00d4 C4040000 		.4byte	.LFE67-.LFB67
 10722 00d8 00000000 		.4byte	.LFB68
 10723 00dc F4060000 		.4byte	.LFE68-.LFB68
 10724 00e0 00000000 		.4byte	.LFB69
 10725 00e4 D8000000 		.4byte	.LFE69-.LFB69
 10726 00e8 00000000 		.4byte	.LFB70
 10727 00ec 2C000000 		.4byte	.LFE70-.LFB70
 10728 00f0 00000000 		.4byte	.LFB71
 10729 00f4 26000000 		.4byte	.LFE71-.LFB71
 10730 00f8 00000000 		.4byte	.LFB72
 10731 00fc 26000000 		.4byte	.LFE72-.LFB72
 10732 0100 00000000 		.4byte	.LFB73
 10733 0104 26000000 		.4byte	.LFE73-.LFB73
 10734 0108 00000000 		.4byte	.LFB74
 10735 010c 26000000 		.4byte	.LFE74-.LFB74
 10736 0110 00000000 		.4byte	.LFB75
 10737 0114 26000000 		.4byte	.LFE75-.LFB75
 10738 0118 00000000 		.4byte	.LFB76
 10739 011c 26000000 		.4byte	.LFE76-.LFB76
 10740 0120 00000000 		.4byte	.LFB77
 10741 0124 CA000000 		.4byte	.LFE77-.LFB77
 10742 0128 00000000 		.4byte	.LFB78
 10743 012c A6000000 		.4byte	.LFE78-.LFB78
 10744 0130 00000000 		.4byte	.LFB79
 10745 0134 B6000000 		.4byte	.LFE79-.LFB79
 10746 0138 00000000 		.4byte	.LFB80
 10747 013c 3E000000 		.4byte	.LFE80-.LFB80
 10748 0140 00000000 		.4byte	0
 10749 0144 00000000 		.4byte	0
 10750              		.section	.debug_ranges,"",%progbits
 10751              	.Ldebug_ranges0:
 10752 0000 22010000 		.4byte	.LBB4
ARM GAS  C:\Users\tmj32\AppData\Local\Temp\ccyJ4BPG.s 			page 212


 10753 0004 9E030000 		.4byte	.LBE4
 10754 0008 A0030000 		.4byte	.LBB6
 10755 000c A2030000 		.4byte	.LBE6
 10756 0010 00000000 		.4byte	0
 10757 0014 00000000 		.4byte	0
 10758 0018 00000000 		.4byte	.LFB10
 10759 001c 1C000000 		.4byte	.LFE10
 10760 0020 00000000 		.4byte	.LFB11
 10761 0024 2E000000 		.4byte	.LFE11
 10762 0028 00000000 		.4byte	.LFB12
 10763 002c 2E000000 		.4byte	.LFE12
 10764 0030 00000000 		.4byte	.LFB46
 10765 0034 C0010000 		.4byte	.LFE46
 10766 0038 00000000 		.4byte	.LFB47
 10767 003c B0030000 		.4byte	.LFE47
 10768 0040 00000000 		.4byte	.LFB48
 10769 0044 38000000 		.4byte	.LFE48
 10770 0048 00000000 		.4byte	.LFB49
 10771 004c 4C000000 		.4byte	.LFE49
 10772 0050 00000000 		.4byte	.LFB50
 10773 0054 94000000 		.4byte	.LFE50
 10774 0058 00000000 		.4byte	.LFB51
 10775 005c 32000000 		.4byte	.LFE51
 10776 0060 00000000 		.4byte	.LFB52
 10777 0064 54000000 		.4byte	.LFE52
 10778 0068 00000000 		.4byte	.LFB53
 10779 006c 5E000000 		.4byte	.LFE53
 10780 0070 00000000 		.4byte	.LFB54
 10781 0074 3E000000 		.4byte	.LFE54
 10782 0078 00000000 		.4byte	.LFB55
 10783 007c 3E000000 		.4byte	.LFE55
 10784 0080 00000000 		.4byte	.LFB56
 10785 0084 80000000 		.4byte	.LFE56
 10786 0088 00000000 		.4byte	.LFB57
 10787 008c 34000000 		.4byte	.LFE57
 10788 0090 00000000 		.4byte	.LFB58
 10789 0094 1C000000 		.4byte	.LFE58
 10790 0098 00000000 		.4byte	.LFB59
 10791 009c 2E000000 		.4byte	.LFE59
 10792 00a0 00000000 		.4byte	.LFB60
 10793 00a4 1C000000 		.4byte	.LFE60
 10794 00a8 00000000 		.4byte	.LFB61
 10795 00ac 36000000 		.4byte	.LFE61
 10796 00b0 00000000 		.4byte	.LFB62
 10797 00b4 1C000000 		.4byte	.LFE62
 10798 00b8 00000000 		.4byte	.LFB63
 10799 00bc 88000000 		.4byte	.LFE63
 10800 00c0 00000000 		.4byte	.LFB64
 10801 00c4 4A000000 		.4byte	.LFE64
 10802 00c8 00000000 		.4byte	.LFB65
 10803 00cc 7E000000 		.4byte	.LFE65
 10804 00d0 00000000 		.4byte	.LFB66
 10805 00d4 2E000000 		.4byte	.LFE66
 10806 00d8 00000000 		.4byte	.LFB67
 10807 00dc C4040000 		.4byte	.LFE67
 10808 00e0 00000000 		.4byte	.LFB68
 10809 00e4 F4060000 		.4byte	.LFE68
ARM GAS  C:\Users\tmj32\AppData\Local\Temp\ccyJ4BPG.s 			page 213


 10810 00e8 00000000 		.4byte	.LFB69
 10811 00ec D8000000 		.4byte	.LFE69
 10812 00f0 00000000 		.4byte	.LFB70
 10813 00f4 2C000000 		.4byte	.LFE70
 10814 00f8 00000000 		.4byte	.LFB71
 10815 00fc 26000000 		.4byte	.LFE71
 10816 0100 00000000 		.4byte	.LFB72
 10817 0104 26000000 		.4byte	.LFE72
 10818 0108 00000000 		.4byte	.LFB73
 10819 010c 26000000 		.4byte	.LFE73
 10820 0110 00000000 		.4byte	.LFB74
 10821 0114 26000000 		.4byte	.LFE74
 10822 0118 00000000 		.4byte	.LFB75
 10823 011c 26000000 		.4byte	.LFE75
 10824 0120 00000000 		.4byte	.LFB76
 10825 0124 26000000 		.4byte	.LFE76
 10826 0128 00000000 		.4byte	.LFB77
 10827 012c CA000000 		.4byte	.LFE77
 10828 0130 00000000 		.4byte	.LFB78
 10829 0134 A6000000 		.4byte	.LFE78
 10830 0138 00000000 		.4byte	.LFB79
 10831 013c B6000000 		.4byte	.LFE79
 10832 0140 00000000 		.4byte	.LFB80
 10833 0144 3E000000 		.4byte	.LFE80
 10834 0148 00000000 		.4byte	0
 10835 014c 00000000 		.4byte	0
 10836              		.section	.debug_line,"",%progbits
 10837              	.Ldebug_line0:
 10838 0000 F80A0000 		.section	.debug_str,"MS",%progbits,1
 10838      02006804 
 10838      00000201 
 10838      FB0E0D00 
 10838      01010101 
 10839              	.LASF14:
 10840 0000 696E7438 		.ascii	"int8_t\000"
 10840      5F7400
 10841              	.LASF121:
 10842 0007 636F6C6F 		.ascii	"color_chroma_key\000"
 10842      725F6368 
 10842      726F6D61 
 10842      5F6B6579 
 10842      00
 10843              	.LASF83:
 10844 0018 6C765F6C 		.ascii	"lv_ll_node_t\000"
 10844      6C5F6E6F 
 10844      64655F74 
 10844      00
 10845              	.LASF286:
 10846 0025 4C565F42 		.ascii	"LV_BTN_STATE_TGL_PR\000"
 10846      544E5F53 
 10846      54415445 
 10846      5F54474C 
 10846      5F505200 
 10847              	.LASF21:
 10848 0039 6164765F 		.ascii	"adv_w\000"
 10848      7700
 10849              	.LASF290:
ARM GAS  C:\Users\tmj32\AppData\Local\Temp\ccyJ4BPG.s 			page 214


 10850 003f 4C565F42 		.ascii	"LV_BTNM_CTRL_NO_REPEAT\000"
 10850      544E4D5F 
 10850      4354524C 
 10850      5F4E4F5F 
 10850      52455045 
 10851              	.LASF40:
 10852 0056 73697A65 		.ascii	"sizetype\000"
 10852      74797065 
 10852      00
 10853              	.LASF273:
 10854 005f 4C565F4B 		.ascii	"LV_KEY_RIGHT\000"
 10854      45595F52 
 10854      49474854 
 10854      00
 10855              	.LASF37:
 10856 006c 6C765F63 		.ascii	"lv_color32_t\000"
 10856      6F6C6F72 
 10856      33325F74 
 10856      00
 10857              	.LASF333:
 10858 0079 63656C6C 		.ascii	"cell\000"
 10858      00
 10859              	.LASF93:
 10860 007e 4C565F42 		.ascii	"LV_BIDI_DIR_WEAK\000"
 10860      4944495F 
 10860      4449525F 
 10860      5745414B 
 10860      00
 10861              	.LASF374:
 10862 008f 6D61705F 		.ascii	"map_p_tmp\000"
 10862      705F746D 
 10862      7000
 10863              	.LASF370:
 10864 0099 756E6974 		.ascii	"unit_cnt\000"
 10864      5F636E74 
 10864      00
 10865              	.LASF86:
 10866 00a2 7461696C 		.ascii	"tail\000"
 10866      00
 10867              	.LASF237:
 10868 00a7 4C565F53 		.ascii	"LV_SIGNAL_STYLE_CHG\000"
 10868      49474E41 
 10868      4C5F5354 
 10868      594C455F 
 10868      43484700 
 10869              	.LASF127:
 10870 00bb 6163745F 		.ascii	"act_scr\000"
 10870      73637200 
 10871              	.LASF366:
 10872 00c3 6D61785F 		.ascii	"max_h\000"
 10872      6800
 10873              	.LASF39:
 10874 00c9 6C765F6F 		.ascii	"lv_opa_t\000"
 10874      70615F74 
 10874      00
 10875              	.LASF71:
 10876 00d2 696E7465 		.ascii	"intense\000"
ARM GAS  C:\Users\tmj32\AppData\Local\Temp\ccyJ4BPG.s 			page 215


 10876      6E736500 
 10877              	.LASF365:
 10878 00da 6D61785F 		.ascii	"max_w\000"
 10878      7700
 10879              	.LASF226:
 10880 00e0 4C565F45 		.ascii	"LV_EVENT_INSERT\000"
 10880      56454E54 
 10880      5F494E53 
 10880      45525400 
 10881              	.LASF42:
 10882 00f0 6C765F70 		.ascii	"lv_point_t\000"
 10882      6F696E74 
 10882      5F7400
 10883              	.LASF340:
 10884 00fb 6C6D6574 		.ascii	"lmeter\000"
 10884      657200
 10885              	.LASF245:
 10886 0102 4C565F53 		.ascii	"LV_SIGNAL_LONG_PRESS\000"
 10886      49474E41 
 10886      4C5F4C4F 
 10886      4E475F50 
 10886      52455353 
 10887              	.LASF63:
 10888 0117 72616469 		.ascii	"radius\000"
 10888      757300
 10889              	.LASF262:
 10890 011e 6C765F72 		.ascii	"lv_reailgn_t\000"
 10890      6561696C 
 10890      676E5F74 
 10890      00
 10891              	.LASF29:
 10892 012b 6C696E65 		.ascii	"line_height\000"
 10892      5F686569 
 10892      67687400 
 10893              	.LASF428:
 10894 0137 62757474 		.ascii	"button_is_inactive\000"
 10894      6F6E5F69 
 10894      735F696E 
 10894      61637469 
 10894      766500
 10895              	.LASF142:
 10896 014a 636C6963 		.ascii	"click\000"
 10896      6B00
 10897              	.LASF88:
 10898 0150 4C565F42 		.ascii	"LV_BIDI_DIR_LTR\000"
 10898      4944495F 
 10898      4449525F 
 10898      4C545200 
 10899              	.LASF255:
 10900 0160 6C765F61 		.ascii	"lv_align_t\000"
 10900      6C69676E 
 10900      5F7400
 10901              	.LASF247:
 10902 016b 4C565F53 		.ascii	"LV_SIGNAL_DRAG_BEGIN\000"
 10902      49474E41 
 10902      4C5F4452 
 10902      41475F42 
ARM GAS  C:\Users\tmj32\AppData\Local\Temp\ccyJ4BPG.s 			page 216


 10902      4547494E 
 10903              	.LASF327:
 10904 0180 68696768 		.ascii	"highlighted_days\000"
 10904      6C696768 
 10904      7465645F 
 10904      64617973 
 10904      00
 10905              	.LASF406:
 10906 0191 62746E5F 		.ascii	"btn_style\000"
 10906      7374796C 
 10906      6500
 10907              	.LASF405:
 10908 019b 62675F73 		.ascii	"bg_style\000"
 10908      74796C65 
 10908      00
 10909              	.LASF415:
 10910 01a4 7369676E 		.ascii	"sign\000"
 10910      00
 10911              	.LASF231:
 10912 01a9 6C765F65 		.ascii	"lv_event_t\000"
 10912      76656E74 
 10912      5F7400
 10913              	.LASF166:
 10914 01b4 73746174 		.ascii	"state\000"
 10914      6500
 10915              	.LASF278:
 10916 01ba 4C565F4B 		.ascii	"LV_KEY_ENTER\000"
 10916      45595F45 
 10916      4E544552 
 10916      00
 10917              	.LASF398:
 10918 01c7 7478745F 		.ascii	"txt_i\000"
 10918      6900
 10919              	.LASF80:
 10920 01cd 4C565F52 		.ascii	"LV_RES_INV\000"
 10920      45535F49 
 10920      4E5600
 10921              	.LASF241:
 10922 01d8 4C565F53 		.ascii	"LV_SIGNAL_PRESSED\000"
 10922      49474E41 
 10922      4C5F5052 
 10922      45535345 
 10922      4400
 10923              	.LASF56:
 10924 01ea 74797065 		.ascii	"type\000"
 10924      00
 10925              	.LASF215:
 10926 01ef 4C565F45 		.ascii	"LV_EVENT_LONG_PRESSED\000"
 10926      56454E54 
 10926      5F4C4F4E 
 10926      475F5052 
 10926      45535345 
 10927              	.LASF317:
 10928 0205 6C696768 		.ascii	"light\000"
 10928      7400
 10929              	.LASF376:
 10930 020b 6163745F 		.ascii	"act_x\000"
ARM GAS  C:\Users\tmj32\AppData\Local\Temp\ccyJ4BPG.s 			page 217


 10930      7800
 10931              	.LASF367:
 10932 0211 6163745F 		.ascii	"act_y\000"
 10932      7900
 10933              	.LASF168:
 10934 0217 5F6C765F 		.ascii	"_lv_indev_drv_t\000"
 10934      696E6465 
 10934      765F6472 
 10934      765F7400 
 10935              	.LASF336:
 10936 0227 636F6E74 		.ascii	"cont\000"
 10936      00
 10937              	.LASF315:
 10938 022c 7072696D 		.ascii	"prim\000"
 10938      00
 10939              	.LASF283:
 10940 0231 4C565F42 		.ascii	"LV_BTN_STATE_REL\000"
 10940      544E5F53 
 10940      54415445 
 10940      5F52454C 
 10940      00
 10941              	.LASF102:
 10942 0242 7072696F 		.ascii	"prio\000"
 10942      00
 10943              	.LASF126:
 10944 0247 7363725F 		.ascii	"scr_ll\000"
 10944      6C6C00
 10945              	.LASF163:
 10946 024e 706F696E 		.ascii	"point\000"
 10946      7400
 10947              	.LASF363:
 10948 0254 636F7079 		.ascii	"copy_ext\000"
 10948      5F657874 
 10948      00
 10949              	.LASF1:
 10950 025d 5F5F7569 		.ascii	"__uint8_t\000"
 10950      6E74385F 
 10950      7400
 10951              	.LASF411:
 10952 0267 7478745F 		.ascii	"txt_flag\000"
 10952      666C6167 
 10952      00
 10953              	.LASF379:
 10954 0270 6C765F62 		.ascii	"lv_btnm_set_ctrl_map\000"
 10954      746E6D5F 
 10954      7365745F 
 10954      6374726C 
 10954      5F6D6170 
 10955              	.LASF35:
 10956 0285 616C7068 		.ascii	"alpha\000"
 10956      6100
 10957              	.LASF114:
 10958 028b 7665725F 		.ascii	"ver_res\000"
 10958      72657300 
 10959              	.LASF291:
 10960 0293 4C565F42 		.ascii	"LV_BTNM_CTRL_INACTIVE\000"
 10960      544E4D5F 
ARM GAS  C:\Users\tmj32\AppData\Local\Temp\ccyJ4BPG.s 			page 218


 10960      4354524C 
 10960      5F494E41 
 10960      43544956 
 10961              	.LASF200:
 10962 02a9 5F6C765F 		.ascii	"_lv_indev_t\000"
 10962      696E6465 
 10962      765F7400 
 10963              	.LASF299:
 10964 02b5 7374796C 		.ascii	"styles_btn\000"
 10964      65735F62 
 10964      746E00
 10965              	.LASF146:
 10966 02c0 68696464 		.ascii	"hidden\000"
 10966      656E00
 10967              	.LASF429:
 10968 02c7 62757474 		.ascii	"button_is_click_trig\000"
 10968      6F6E5F69 
 10968      735F636C 
 10968      69636B5F 
 10968      74726967 
 10969              	.LASF133:
 10970 02dc 6C617374 		.ascii	"last_activity_time\000"
 10970      5F616374 
 10970      69766974 
 10970      795F7469 
 10970      6D6500
 10971              	.LASF8:
 10972 02ef 6C6F6E67 		.ascii	"long int\000"
 10972      20696E74 
 10972      00
 10973              	.LASF125:
 10974 02f8 72656672 		.ascii	"refr_task\000"
 10974      5F746173 
 10974      6B00
 10975              	.LASF46:
 10976 0302 4C565F42 		.ascii	"LV_BORDER_TOP\000"
 10976      4F524445 
 10976      525F544F 
 10976      5000
 10977              	.LASF116:
 10978 0310 726F7461 		.ascii	"rotated\000"
 10978      74656400 
 10979              	.LASF187:
 10980 0318 6C617374 		.ascii	"last_state\000"
 10980      5F737461 
 10980      746500
 10981              	.LASF353:
 10982 0323 74696C65 		.ascii	"tileview\000"
 10982      76696577 
 10982      00
 10983              	.LASF294:
 10984 032c 4C565F42 		.ascii	"LV_BTNM_CTRL_CLICK_TRIG\000"
 10984      544E4D5F 
 10984      4354524C 
 10984      5F434C49 
 10984      434B5F54 
 10985              	.LASF399:
ARM GAS  C:\Users\tmj32\AppData\Local\Temp\ccyJ4BPG.s 			page 219


 10986 0344 6C765F62 		.ascii	"lv_btnm_get_btn_ctrl\000"
 10986      746E6D5F 
 10986      6765745F 
 10986      62746E5F 
 10986      6374726C 
 10987              	.LASF433:
 10988 0359 62746E6D 		.ascii	"btnm_cords\000"
 10988      5F636F72 
 10988      647300
 10989              	.LASF276:
 10990 0364 4C565F4B 		.ascii	"LV_KEY_DEL\000"
 10990      45595F44 
 10990      454C00
 10991              	.LASF269:
 10992 036f 4C565F54 		.ascii	"LV_TXT_FLAG_RIGHT\000"
 10992      58545F46 
 10992      4C41475F 
 10992      52494748 
 10992      5400
 10993              	.LASF358:
 10994 0381 61726561 		.ascii	"area_p\000"
 10994      5F7000
 10995              	.LASF85:
 10996 0388 68656164 		.ascii	"head\000"
 10996      00
 10997              	.LASF401:
 10998 038d 6C765F62 		.ascii	"lv_btnm_get_one_toggle\000"
 10998      746E6D5F 
 10998      6765745F 
 10998      6F6E655F 
 10998      746F6767 
 10999              	.LASF169:
 11000 03a4 72656164 		.ascii	"read_cb\000"
 11000      5F636200 
 11001              	.LASF343:
 11002 03ac 63686172 		.ascii	"chart\000"
 11002      7400
 11003              	.LASF184:
 11004 03b2 6C617374 		.ascii	"last_pressed\000"
 11004      5F707265 
 11004      73736564 
 11004      00
 11005              	.LASF345:
 11006 03bf 62746E6D 		.ascii	"btnm\000"
 11006      00
 11007              	.LASF266:
 11008 03c4 4C565F54 		.ascii	"LV_TXT_FLAG_RECOLOR\000"
 11008      58545F46 
 11008      4C41475F 
 11008      5245434F 
 11008      4C4F5200 
 11009              	.LASF274:
 11010 03d8 4C565F4B 		.ascii	"LV_KEY_LEFT\000"
 11010      45595F4C 
 11010      45465400 
 11011              	.LASF119:
 11012 03e4 7365745F 		.ascii	"set_px_cb\000"
ARM GAS  C:\Users\tmj32\AppData\Local\Temp\ccyJ4BPG.s 			page 220


 11012      70785F63 
 11012      6200
 11013              	.LASF2:
 11014 03ee 7369676E 		.ascii	"signed char\000"
 11014      65642063 
 11014      68617200 
 11015              	.LASF427:
 11016 03fa 62757474 		.ascii	"button_is_repeat_disabled\000"
 11016      6F6E5F69 
 11016      735F7265 
 11016      70656174 
 11016      5F646973 
 11017              	.LASF15:
 11018 0414 75696E74 		.ascii	"uint8_t\000"
 11018      385F7400 
 11019              	.LASF113:
 11020 041c 686F725F 		.ascii	"hor_res\000"
 11020      72657300 
 11021              	.LASF330:
 11022 0424 746F6461 		.ascii	"today_box\000"
 11022      795F626F 
 11022      7800
 11023              	.LASF309:
 11024 042e 4C565F42 		.ascii	"LV_BTNM_STYLE_BTN_TGL_REL\000"
 11024      544E4D5F 
 11024      5354594C 
 11024      455F4254 
 11024      4E5F5447 
 11025              	.LASF314:
 11026 0448 74676C5F 		.ascii	"tgl_pr\000"
 11026      707200
 11027              	.LASF28:
 11028 044f 6765745F 		.ascii	"get_glyph_bitmap\000"
 11028      676C7970 
 11028      685F6269 
 11028      746D6170 
 11028      00
 11029              	.LASF331:
 11030 0460 7363726C 		.ascii	"scrl\000"
 11030      00
 11031              	.LASF33:
 11032 0465 626C7565 		.ascii	"blue\000"
 11032      00
 11033              	.LASF396:
 11034 046a 6C765F62 		.ascii	"lv_btnm_get_pressed_btn\000"
 11034      746E6D5F 
 11034      6765745F 
 11034      70726573 
 11034      7365645F 
 11035              	.LASF246:
 11036 0482 4C565F53 		.ascii	"LV_SIGNAL_LONG_PRESS_REP\000"
 11036      49474E41 
 11036      4C5F4C4F 
 11036      4E475F50 
 11036      52455353 
 11037              	.LASF3:
 11038 049b 756E7369 		.ascii	"unsigned char\000"
ARM GAS  C:\Users\tmj32\AppData\Local\Temp\ccyJ4BPG.s 			page 221


 11038      676E6564 
 11038      20636861 
 11038      7200
 11039              	.LASF128:
 11040 04a9 746F705F 		.ascii	"top_layer\000"
 11040      6C617965 
 11040      7200
 11041              	.LASF239:
 11042 04b3 4C565F53 		.ascii	"LV_SIGNAL_REFR_EXT_DRAW_PAD\000"
 11042      49474E41 
 11042      4C5F5245 
 11042      46525F45 
 11042      58545F44 
 11043              	.LASF149:
 11044 04cf 64726167 		.ascii	"drag_dir\000"
 11044      5F646972 
 11044      00
 11045              	.LASF385:
 11046 04d8 6374726C 		.ascii	"ctrl\000"
 11046      00
 11047              	.LASF100:
 11048 04dd 7461736B 		.ascii	"task_cb\000"
 11048      5F636200 
 11049              	.LASF323:
 11050 04e5 6B6E6F62 		.ascii	"knob_on\000"
 11050      5F6F6E00 
 11051              	.LASF24:
 11052 04ed 6F66735F 		.ascii	"ofs_x\000"
 11052      7800
 11053              	.LASF25:
 11054 04f3 6F66735F 		.ascii	"ofs_y\000"
 11054      7900
 11055              	.LASF388:
 11056 04f9 6C765F62 		.ascii	"lv_btnm_clear_btn_ctrl_all\000"
 11056      746E6D5F 
 11056      636C6561 
 11056      725F6274 
 11056      6E5F6374 
 11057              	.LASF277:
 11058 0514 4C565F4B 		.ascii	"LV_KEY_BACKSPACE\000"
 11058      45595F42 
 11058      41434B53 
 11058      50414345 
 11058      00
 11059              	.LASF324:
 11060 0525 68656164 		.ascii	"header\000"
 11060      657200
 11061              	.LASF31:
 11062 052c 5F426F6F 		.ascii	"_Bool\000"
 11062      6C00
 11063              	.LASF254:
 11064 0532 6C765F73 		.ascii	"lv_signal_cb_t\000"
 11064      69676E61 
 11064      6C5F6362 
 11064      5F7400
 11065              	.LASF354:
 11066 0541 7461626C 		.ascii	"table\000"
ARM GAS  C:\Users\tmj32\AppData\Local\Temp\ccyJ4BPG.s 			page 222


 11066      6500
 11067              	.LASF131:
 11068 0547 696E765F 		.ascii	"inv_area_joined\000"
 11068      61726561 
 11068      5F6A6F69 
 11068      6E656400 
 11069              	.LASF41:
 11070 0557 63686172 		.ascii	"char\000"
 11070      00
 11071              	.LASF164:
 11072 055c 62746E5F 		.ascii	"btn_id\000"
 11072      696400
 11073              	.LASF423:
 11074 0563 6C765F61 		.ascii	"lv_area_copy\000"
 11074      7265615F 
 11074      636F7079 
 11074      00
 11075              	.LASF207:
 11076 0570 4C565F44 		.ascii	"LV_DESIGN_DRAW_POST\000"
 11076      45534947 
 11076      4E5F4452 
 11076      41575F50 
 11076      4F535400 
 11077              	.LASF75:
 11078 0584 626F6479 		.ascii	"body\000"
 11078      00
 11079              	.LASF181:
 11080 0589 64726167 		.ascii	"drag_throw_vect\000"
 11080      5F746872 
 11080      6F775F76 
 11080      65637400 
 11081              	.LASF97:
 11082 0599 5F6C765F 		.ascii	"_lv_task_t\000"
 11082      7461736B 
 11082      5F7400
 11083              	.LASF6:
 11084 05a4 5F5F7569 		.ascii	"__uint16_t\000"
 11084      6E743136 
 11084      5F7400
 11085              	.LASF329:
 11086 05af 7765656B 		.ascii	"week_box\000"
 11086      5F626F78 
 11086      00
 11087              	.LASF434:
 11088 05b8 62746E5F 		.ascii	"btn_area\000"
 11088      61726561 
 11088      00
 11089              	.LASF437:
 11090 05c1 62746E6D 		.ascii	"btnm_area\000"
 11090      5F617265 
 11090      6100
 11091              	.LASF208:
 11092 05cb 4C565F44 		.ascii	"LV_DESIGN_COVER_CHK\000"
 11092      45534947 
 11092      4E5F434F 
 11092      5645525F 
 11092      43484B00 
ARM GAS  C:\Users\tmj32\AppData\Local\Temp\ccyJ4BPG.s 			page 223


 11093              	.LASF201:
 11094 05df 70726F63 		.ascii	"proc\000"
 11094      00
 11095              	.LASF139:
 11096 05e4 64657369 		.ascii	"design_cb\000"
 11096      676E5F63 
 11096      6200
 11097              	.LASF265:
 11098 05ee 4C565F54 		.ascii	"LV_TXT_FLAG_NONE\000"
 11098      58545F46 
 11098      4C41475F 
 11098      4E4F4E45 
 11098      00
 11099              	.LASF378:
 11100 05ff 6C765F62 		.ascii	"lv_btnm_set_map\000"
 11100      746E6D5F 
 11100      7365745F 
 11100      6D617000 
 11101              	.LASF307:
 11102 060f 4C565F42 		.ascii	"LV_BTNM_STYLE_BTN_REL\000"
 11102      544E4D5F 
 11102      5354594C 
 11102      455F4254 
 11102      4E5F5245 
 11103              	.LASF444:
 11104 0625 616E6365 		.ascii	"ancestor_design_f\000"
 11104      73746F72 
 11104      5F646573 
 11104      69676E5F 
 11104      6600
 11105              	.LASF295:
 11106 0637 6C765F62 		.ascii	"lv_btnm_ctrl_t\000"
 11106      746E6D5F 
 11106      6374726C 
 11106      5F7400
 11107              	.LASF306:
 11108 0646 4C565F42 		.ascii	"LV_BTNM_STYLE_BG\000"
 11108      544E4D5F 
 11108      5354594C 
 11108      455F4247 
 11108      00
 11109              	.LASF369:
 11110 0657 62746E5F 		.ascii	"btn_h\000"
 11110      6800
 11111              	.LASF373:
 11112 065d 62746E5F 		.ascii	"btn_i\000"
 11112      6900
 11113              	.LASF110:
 11114 0663 666C7573 		.ascii	"flushing\000"
 11114      68696E67 
 11114      00
 11115              	.LASF250:
 11116 066c 4C565F53 		.ascii	"LV_SIGNAL_DEFOCUS\000"
 11116      49474E41 
 11116      4C5F4445 
 11116      464F4355 
 11116      5300
ARM GAS  C:\Users\tmj32\AppData\Local\Temp\ccyJ4BPG.s 			page 224


 11117              	.LASF223:
 11118 067e 4C565F45 		.ascii	"LV_EVENT_FOCUSED\000"
 11118      56454E54 
 11118      5F464F43 
 11118      55534544 
 11118      00
 11119              	.LASF350:
 11120 068f 64646C69 		.ascii	"ddlist\000"
 11120      737400
 11121              	.LASF409:
 11122 0696 62746E5F 		.ascii	"btn_w\000"
 11122      7700
 11123              	.LASF449:
 11124 069c 6C765F73 		.ascii	"lv_style_btn_tgl_rel\000"
 11124      74796C65 
 11124      5F62746E 
 11124      5F74676C 
 11124      5F72656C 
 11125              	.LASF76:
 11126 06b1 74657874 		.ascii	"text\000"
 11126      00
 11127              	.LASF189:
 11128 06b6 706F696E 		.ascii	"pointer\000"
 11128      74657200 
 11129              	.LASF381:
 11130 06be 6C765F62 		.ascii	"lv_btnm_set_pressed\000"
 11130      746E6D5F 
 11130      7365745F 
 11130      70726573 
 11130      73656400 
 11131              	.LASF219:
 11132 06d2 4C565F45 		.ascii	"LV_EVENT_DRAG_BEGIN\000"
 11132      56454E54 
 11132      5F445241 
 11132      475F4245 
 11132      47494E00 
 11133              	.LASF77:
 11134 06e6 696D6167 		.ascii	"image\000"
 11134      6500
 11135              	.LASF73:
 11136 06ec 726F756E 		.ascii	"rounded\000"
 11136      64656400 
 11137              	.LASF144:
 11138 06f4 64726167 		.ascii	"drag_throw\000"
 11138      5F746872 
 11138      6F7700
 11139              	.LASF162:
 11140 06ff 6C765F69 		.ascii	"lv_indev_state_t\000"
 11140      6E646576 
 11140      5F737461 
 11140      74655F74 
 11140      00
 11141              	.LASF94:
 11142 0710 6C765F62 		.ascii	"lv_bidi_dir_t\000"
 11142      6964695F 
 11142      6469725F 
 11142      7400
ARM GAS  C:\Users\tmj32\AppData\Local\Temp\ccyJ4BPG.s 			page 225


 11143              	.LASF383:
 11144 071e 6C765F62 		.ascii	"lv_btnm_set_recolor\000"
 11144      746E6D5F 
 11144      7365745F 
 11144      7265636F 
 11144      6C6F7200 
 11145              	.LASF154:
 11146 0732 6578745F 		.ascii	"ext_draw_pad\000"
 11146      64726177 
 11146      5F706164 
 11146      00
 11147              	.LASF175:
 11148 073f 6C6F6E67 		.ascii	"long_press_rep_time\000"
 11148      5F707265 
 11148      73735F72 
 11148      65705F74 
 11148      696D6500 
 11149              	.LASF43:
 11150 0753 6C765F61 		.ascii	"lv_area_t\000"
 11150      7265615F 
 11150      7400
 11151              	.LASF115:
 11152 075d 62756666 		.ascii	"buffer\000"
 11152      657200
 11153              	.LASF91:
 11154 0764 4C565F42 		.ascii	"LV_BIDI_DIR_INHERIT\000"
 11154      4944495F 
 11154      4449525F 
 11154      494E4845 
 11154      52495400 
 11155              	.LASF372:
 11156 0778 695F746F 		.ascii	"i_tot\000"
 11156      7400
 11157              	.LASF217:
 11158 077e 4C565F45 		.ascii	"LV_EVENT_CLICKED\000"
 11158      56454E54 
 11158      5F434C49 
 11158      434B4544 
 11158      00
 11159              	.LASF439:
 11160 078f 6D617031 		.ascii	"map1\000"
 11160      00
 11161              	.LASF440:
 11162 0794 6D617032 		.ascii	"map2\000"
 11162      00
 11163              	.LASF268:
 11164 0799 4C565F54 		.ascii	"LV_TXT_FLAG_CENTER\000"
 11164      58545F46 
 11164      4C41475F 
 11164      43454E54 
 11164      455200
 11165              	.LASF58:
 11166 07ac 6C656674 		.ascii	"left\000"
 11166      00
 11167              	.LASF160:
 11168 07b1 4C565F49 		.ascii	"LV_INDEV_TYPE_ENCODER\000"
 11168      4E444556 
ARM GAS  C:\Users\tmj32\AppData\Local\Temp\ccyJ4BPG.s 			page 226


 11168      5F545950 
 11168      455F454E 
 11168      434F4445 
 11169              	.LASF432:
 11170 07c7 6765745F 		.ascii	"get_button_from_point\000"
 11170      62757474 
 11170      6F6E5F66 
 11170      726F6D5F 
 11170      706F696E 
 11171              	.LASF228:
 11172 07dd 4C565F45 		.ascii	"LV_EVENT_APPLY\000"
 11172      56454E54 
 11172      5F415050 
 11172      4C5900
 11173              	.LASF155:
 11174 07ec 7265616C 		.ascii	"realign\000"
 11174      69676E00 
 11175              	.LASF221:
 11176 07f4 4C565F45 		.ascii	"LV_EVENT_DRAG_THROW_BEGIN\000"
 11176      56454E54 
 11176      5F445241 
 11176      475F5448 
 11176      524F575F 
 11177              	.LASF205:
 11178 080e 6C765F69 		.ascii	"lv_indev_t\000"
 11178      6E646576 
 11178      5F7400
 11179              	.LASF204:
 11180 0819 62746E5F 		.ascii	"btn_points\000"
 11180      706F696E 
 11180      747300
 11181              	.LASF240:
 11182 0824 4C565F53 		.ascii	"LV_SIGNAL_GET_TYPE\000"
 11182      49474E41 
 11182      4C5F4745 
 11182      545F5459 
 11182      504500
 11183              	.LASF198:
 11184 0837 77616974 		.ascii	"wait_until_release\000"
 11184      5F756E74 
 11184      696C5F72 
 11184      656C6561 
 11184      736500
 11185              	.LASF109:
 11186 084a 61726561 		.ascii	"area\000"
 11186      00
 11187              	.LASF408:
 11188 084f 61726561 		.ascii	"area_tmp\000"
 11188      5F746D70 
 11188      00
 11189              	.LASF188:
 11190 0858 6C617374 		.ascii	"last_key\000"
 11190      5F6B6579 
 11190      00
 11191              	.LASF79:
 11192 0861 6C765F73 		.ascii	"lv_style_t\000"
 11192      74796C65 
ARM GAS  C:\Users\tmj32\AppData\Local\Temp\ccyJ4BPG.s 			page 227


 11192      5F7400
 11193              	.LASF60:
 11194 086c 696E6E65 		.ascii	"inner\000"
 11194      7200
 11195              	.LASF197:
 11196 0872 64697361 		.ascii	"disabled\000"
 11196      626C6564 
 11196      00
 11197              	.LASF443:
 11198 087b 6C765F62 		.ascii	"lv_btnm_def_map\000"
 11198      746E6D5F 
 11198      6465665F 
 11198      6D617000 
 11199              	.LASF10:
 11200 088b 6C6F6E67 		.ascii	"long unsigned int\000"
 11200      20756E73 
 11200      69676E65 
 11200      6420696E 
 11200      7400
 11201              	.LASF402:
 11202 089d 6C765F62 		.ascii	"lv_btnm_design\000"
 11202      746E6D5F 
 11202      64657369 
 11202      676E00
 11203              	.LASF281:
 11204 08ac 4C565F4B 		.ascii	"LV_KEY_HOME\000"
 11204      45595F48 
 11204      4F4D4500 
 11205              	.LASF296:
 11206 08b8 6D61705F 		.ascii	"map_p\000"
 11206      7000
 11207              	.LASF416:
 11208 08be 70617261 		.ascii	"param\000"
 11208      6D00
 11209              	.LASF285:
 11210 08c4 4C565F42 		.ascii	"LV_BTN_STATE_TGL_REL\000"
 11210      544E5F53 
 11210      54415445 
 11210      5F54474C 
 11210      5F52454C 
 11211              	.LASF310:
 11212 08d9 4C565F42 		.ascii	"LV_BTNM_STYLE_BTN_TGL_PR\000"
 11212      544E4D5F 
 11212      5354594C 
 11212      455F4254 
 11212      4E5F5447 
 11213              	.LASF301:
 11214 08f2 62746E5F 		.ascii	"btn_id_pr\000"
 11214      69645F70 
 11214      7200
 11215              	.LASF47:
 11216 08fc 4C565F42 		.ascii	"LV_BORDER_LEFT\000"
 11216      4F524445 
 11216      525F4C45 
 11216      465400
 11217              	.LASF422:
 11218 090b 65646974 		.ascii	"editable\000"
ARM GAS  C:\Users\tmj32\AppData\Local\Temp\ccyJ4BPG.s 			page 228


 11218      61626C65 
 11218      00
 11219              	.LASF436:
 11220 0914 62746E5F 		.ascii	"btn_idx\000"
 11220      69647800 
 11221              	.LASF78:
 11222 091c 6C696E65 		.ascii	"line\000"
 11222      00
 11223              	.LASF304:
 11224 0921 6F6E655F 		.ascii	"one_toggle\000"
 11224      746F6767 
 11224      6C6500
 11225              	.LASF249:
 11226 092c 4C565F53 		.ascii	"LV_SIGNAL_FOCUS\000"
 11226      49474E41 
 11226      4C5F464F 
 11226      43555300 
 11227              	.LASF267:
 11228 093c 4C565F54 		.ascii	"LV_TXT_FLAG_EXPAND\000"
 11228      58545F46 
 11228      4C41475F 
 11228      45585041 
 11228      4E4400
 11229              	.LASF368:
 11230 094f 6C696E65 		.ascii	"line_cnt\000"
 11230      5F636E74 
 11230      00
 11231              	.LASF303:
 11232 0958 7265636F 		.ascii	"recolor\000"
 11232      6C6F7200 
 11233              	.LASF227:
 11234 0960 4C565F45 		.ascii	"LV_EVENT_REFRESH\000"
 11234      56454E54 
 11234      5F524546 
 11234      52455348 
 11234      00
 11235              	.LASF112:
 11236 0971 5F646973 		.ascii	"_disp_drv_t\000"
 11236      705F6472 
 11236      765F7400 
 11237              	.LASF203:
 11238 097d 67726F75 		.ascii	"group\000"
 11238      7000
 11239              	.LASF361:
 11240 0983 636F7079 		.ascii	"copy\000"
 11240      00
 11241              	.LASF177:
 11242 0988 6163745F 		.ascii	"act_point\000"
 11242      706F696E 
 11242      7400
 11243              	.LASF183:
 11244 0992 6C617374 		.ascii	"last_obj\000"
 11244      5F6F626A 
 11244      00
 11245              	.LASF453:
 11246 099b 2E2E5C2E 		.ascii	"..\\..\\..\\lvgl\\version_6.1.2\\lvgl\\src\\lv_objx"
 11246      2E5C2E2E 
ARM GAS  C:\Users\tmj32\AppData\Local\Temp\ccyJ4BPG.s 			page 229


 11246      5C6C7667 
 11246      6C5C7665 
 11246      7273696F 
 11247 09c7 5C6C765F 		.ascii	"\\lv_btnm.c\000"
 11247      62746E6D 
 11247      2E6300
 11248              	.LASF161:
 11249 09d2 6C765F69 		.ascii	"lv_indev_type_t\000"
 11249      6E646576 
 11249      5F747970 
 11249      655F7400 
 11250              	.LASF252:
 11251 09e2 4C565F53 		.ascii	"LV_SIGNAL_GET_EDITABLE\000"
 11251      49474E41 
 11251      4C5F4745 
 11251      545F4544 
 11251      49544142 
 11252              	.LASF390:
 11253 09f9 6C765F62 		.ascii	"lv_btnm_set_one_toggle\000"
 11253      746E6D5F 
 11253      7365745F 
 11253      6F6E655F 
 11253      746F6767 
 11254              	.LASF332:
 11255 0a10 6F6E656C 		.ascii	"oneline\000"
 11255      696E6500 
 11256              	.LASF111:
 11257 0a18 6C765F64 		.ascii	"lv_disp_buf_t\000"
 11257      6973705F 
 11257      6275665F 
 11257      7400
 11258              	.LASF159:
 11259 0a26 4C565F49 		.ascii	"LV_INDEV_TYPE_BUTTON\000"
 11259      4E444556 
 11259      5F545950 
 11259      455F4255 
 11259      54544F4E 
 11260              	.LASF9:
 11261 0a3b 5F5F7569 		.ascii	"__uint32_t\000"
 11261      6E743332 
 11261      5F7400
 11262              	.LASF137:
 11263 0a46 6576656E 		.ascii	"event_cb\000"
 11263      745F6362 
 11263      00
 11264              	.LASF59:
 11265 0a4f 72696768 		.ascii	"right\000"
 11265      7400
 11266              	.LASF141:
 11267 0a55 7374796C 		.ascii	"style_p\000"
 11267      655F7000 
 11268              	.LASF11:
 11269 0a5d 6C6F6E67 		.ascii	"long long int\000"
 11269      206C6F6E 
 11269      6720696E 
 11269      7400
 11270              	.LASF454:
ARM GAS  C:\Users\tmj32\AppData\Local\Temp\ccyJ4BPG.s 			page 230


 11271 0a6b 433A5C55 		.ascii	"C:\\Users\\tmj32\\Documents\\TCNJ\\Senior_Project\\"
 11271      73657273 
 11271      5C746D6A 
 11271      33325C44 
 11271      6F63756D 
 11272 0a98 4F736369 		.ascii	"Oscilloscope_Senior_Project\\tcom_engineering\\embe"
 11272      6C6C6F73 
 11272      636F7065 
 11272      5F53656E 
 11272      696F725F 
 11273 0ac9 645F7377 		.ascii	"d_sw\\tcom_app\\tcom_app_psoc6_lvgl6\\tcom_displ_te"
 11273      5C74636F 
 11273      6D5F6170 
 11273      705C7463 
 11273      6F6D5F61 
 11274 0af9 73745F70 		.ascii	"st_psoc6.cydsn\000"
 11274      736F6336 
 11274      2E637964 
 11274      736E00
 11275              	.LASF54:
 11276 0b08 77696474 		.ascii	"width\000"
 11276      6800
 11277              	.LASF418:
 11278 0b0e 62746E5F 		.ascii	"btn_pr\000"
 11278      707200
 11279              	.LASF251:
 11280 0b15 4C565F53 		.ascii	"LV_SIGNAL_CONTROL\000"
 11280      49474E41 
 11280      4C5F434F 
 11280      4E54524F 
 11280      4C00
 11281              	.LASF57:
 11282 0b27 626F7474 		.ascii	"bottom\000"
 11282      6F6D00
 11283              	.LASF420:
 11284 0b2e 70725F63 		.ascii	"pr_center\000"
 11284      656E7465 
 11284      7200
 11285              	.LASF135:
 11286 0b38 6368696C 		.ascii	"child_ll\000"
 11286      645F6C6C 
 11286      00
 11287              	.LASF320:
 11288 0b41 696E6469 		.ascii	"indic\000"
 11288      6300
 11289              	.LASF152:
 11290 0b47 70726F74 		.ascii	"protect\000"
 11290      65637400 
 11291              	.LASF105:
 11292 0b4f 62756631 		.ascii	"buf1\000"
 11292      00
 11293              	.LASF106:
 11294 0b54 62756632 		.ascii	"buf2\000"
 11294      00
 11295              	.LASF419:
 11296 0b59 61726561 		.ascii	"area_below\000"
 11296      5F62656C 
ARM GAS  C:\Users\tmj32\AppData\Local\Temp\ccyJ4BPG.s 			page 231


 11296      6F7700
 11297              	.LASF178:
 11298 0b64 6C617374 		.ascii	"last_point\000"
 11298      5F706F69 
 11298      6E7400
 11299              	.LASF395:
 11300 0b6f 6C765F62 		.ascii	"lv_btnm_get_active_btn_text\000"
 11300      746E6D5F 
 11300      6765745F 
 11300      61637469 
 11300      76655F62 
 11301              	.LASF387:
 11302 0b8b 6C765F62 		.ascii	"lv_btnm_set_btn_ctrl_all\000"
 11302      746E6D5F 
 11302      7365745F 
 11302      62746E5F 
 11302      6374726C 
 11303              	.LASF182:
 11304 0ba4 6163745F 		.ascii	"act_obj\000"
 11304      6F626A00 
 11305              	.LASF389:
 11306 0bac 6C765F62 		.ascii	"lv_btnm_set_btn_width\000"
 11306      746E6D5F 
 11306      7365745F 
 11306      62746E5F 
 11306      77696474 
 11307              	.LASF391:
 11308 0bc2 6C765F62 		.ascii	"lv_btnm_create\000"
 11308      746E6D5F 
 11308      63726561 
 11308      746500
 11309              	.LASF403:
 11310 0bd1 6D61736B 		.ascii	"mask\000"
 11310      00
 11311              	.LASF352:
 11312 0bd6 74616276 		.ascii	"tabview\000"
 11312      69657700 
 11313              	.LASF148:
 11314 0bde 70617265 		.ascii	"parent_event\000"
 11314      6E745F65 
 11314      76656E74 
 11314      00
 11315              	.LASF233:
 11316 0beb 4C565F53 		.ascii	"LV_SIGNAL_CLEANUP\000"
 11316      49474E41 
 11316      4C5F434C 
 11316      45414E55 
 11316      5000
 11317              	.LASF259:
 11318 0bfd 616C6967 		.ascii	"align\000"
 11318      6E00
 11319              	.LASF450:
 11320 0c03 6C765F73 		.ascii	"lv_style_btn_tgl_pr\000"
 11320      74796C65 
 11320      5F62746E 
 11320      5F74676C 
 11320      5F707200 
ARM GAS  C:\Users\tmj32\AppData\Local\Temp\ccyJ4BPG.s 			page 232


 11321              	.LASF74:
 11322 0c17 676C6173 		.ascii	"glass\000"
 11322      7300
 11323              	.LASF447:
 11324 0c1d 6C765F73 		.ascii	"lv_style_btn_rel\000"
 11324      74796C65 
 11324      5F62746E 
 11324      5F72656C 
 11324      00
 11325              	.LASF300:
 11326 0c2e 62746E5F 		.ascii	"btn_cnt\000"
 11326      636E7400 
 11327              	.LASF230:
 11328 0c36 4C565F45 		.ascii	"LV_EVENT_DELETE\000"
 11328      56454E54 
 11328      5F44454C 
 11328      45544500 
 11329              	.LASF13:
 11330 0c46 756E7369 		.ascii	"unsigned int\000"
 11330      676E6564 
 11330      20696E74 
 11330      00
 11331              	.LASF234:
 11332 0c53 4C565F53 		.ascii	"LV_SIGNAL_CHILD_CHG\000"
 11332      49474E41 
 11332      4C5F4348 
 11332      494C445F 
 11332      43484700 
 11333              	.LASF380:
 11334 0c67 6374726C 		.ascii	"ctrl_map\000"
 11334      5F6D6170 
 11334      00
 11335              	.LASF270:
 11336 0c70 6C765F74 		.ascii	"lv_txt_flag_t\000"
 11336      78745F66 
 11336      6C61675F 
 11336      7400
 11337              	.LASF171:
 11338 0c7e 64697370 		.ascii	"disp\000"
 11338      00
 11339              	.LASF382:
 11340 0c83 6C765F62 		.ascii	"lv_btnm_set_style\000"
 11340      746E6D5F 
 11340      7365745F 
 11340      7374796C 
 11340      6500
 11341              	.LASF346:
 11342 0c95 6D626F78 		.ascii	"mbox\000"
 11342      00
 11343              	.LASF289:
 11344 0c9a 4C565F42 		.ascii	"LV_BTNM_CTRL_HIDDEN\000"
 11344      544E4D5F 
 11344      4354524C 
 11344      5F484944 
 11344      44454E00 
 11345              	.LASF165:
 11346 0cae 656E635F 		.ascii	"enc_diff\000"
ARM GAS  C:\Users\tmj32\AppData\Local\Temp\ccyJ4BPG.s 			page 233


 11346      64696666 
 11346      00
 11347              	.LASF313:
 11348 0cb7 74676C5F 		.ascii	"tgl_rel\000"
 11348      72656C00 
 11349              	.LASF426:
 11350 0cbf 62757474 		.ascii	"button_is_hidden\000"
 11350      6F6E5F69 
 11350      735F6869 
 11350      6464656E 
 11350      00
 11351              	.LASF414:
 11352 0cd0 6C765F62 		.ascii	"lv_btnm_signal\000"
 11352      746E6D5F 
 11352      7369676E 
 11352      616C00
 11353              	.LASF364:
 11354 0cdf 7374796C 		.ascii	"style_bg\000"
 11354      655F6267 
 11354      00
 11355              	.LASF225:
 11356 0ce8 4C565F45 		.ascii	"LV_EVENT_VALUE_CHANGED\000"
 11356      56454E54 
 11356      5F56414C 
 11356      55455F43 
 11356      48414E47 
 11357              	.LASF287:
 11358 0cff 4C565F42 		.ascii	"LV_BTN_STATE_INA\000"
 11358      544E5F53 
 11358      54415445 
 11358      5F494E41 
 11358      00
 11359              	.LASF130:
 11360 0d10 696E765F 		.ascii	"inv_areas\000"
 11360      61726561 
 11360      7300
 11361              	.LASF410:
 11362 0d1a 7374796C 		.ascii	"style_tmp\000"
 11362      655F746D 
 11362      7000
 11363              	.LASF435:
 11364 0d24 696E7661 		.ascii	"invalidate_button_area\000"
 11364      6C696461 
 11364      74655F62 
 11364      7574746F 
 11364      6E5F6172 
 11365              	.LASF260:
 11366 0d3b 6175746F 		.ascii	"auto_realign\000"
 11366      5F726561 
 11366      6C69676E 
 11366      00
 11367              	.LASF103:
 11368 0d48 6F6E6365 		.ascii	"once\000"
 11368      00
 11369              	.LASF375:
 11370 0d4d 616C6C5F 		.ascii	"all_unit_w\000"
 11370      756E6974 
ARM GAS  C:\Users\tmj32\AppData\Local\Temp\ccyJ4BPG.s 			page 234


 11370      5F7700
 11371              	.LASF206:
 11372 0d58 4C565F44 		.ascii	"LV_DESIGN_DRAW_MAIN\000"
 11372      45534947 
 11372      4E5F4452 
 11372      41575F4D 
 11372      41494E00 
 11373              	.LASF26:
 11374 0d6c 6C765F66 		.ascii	"lv_font_glyph_dsc_t\000"
 11374      6F6E745F 
 11374      676C7970 
 11374      685F6473 
 11374      635F7400 
 11375              	.LASF349:
 11376 0d80 6C697374 		.ascii	"list\000"
 11376      00
 11377              	.LASF62:
 11378 0d85 67726164 		.ascii	"grad_color\000"
 11378      5F636F6C 
 11378      6F7200
 11379              	.LASF394:
 11380 0d90 6C765F62 		.ascii	"lv_btnm_get_active_btn\000"
 11380      746E6D5F 
 11380      6765745F 
 11380      61637469 
 11380      76655F62 
 11381              	.LASF212:
 11382 0da7 4C565F45 		.ascii	"LV_EVENT_PRESSING\000"
 11382      56454E54 
 11382      5F505245 
 11382      5353494E 
 11382      4700
 11383              	.LASF293:
 11384 0db9 4C565F42 		.ascii	"LV_BTNM_CTRL_TGL_STATE\000"
 11384      544E4D5F 
 11384      4354524C 
 11384      5F54474C 
 11384      5F535441 
 11385              	.LASF347:
 11386 0dd0 70616765 		.ascii	"page\000"
 11386      00
 11387              	.LASF123:
 11388 0dd5 5F646973 		.ascii	"_disp_t\000"
 11388      705F7400 
 11389              	.LASF322:
 11390 0ddd 6B6E6F62 		.ascii	"knob_off\000"
 11390      5F6F6666 
 11390      00
 11391              	.LASF341:
 11392 0de6 67617567 		.ascii	"gauge\000"
 11392      6500
 11393              	.LASF393:
 11394 0dec 6C765F62 		.ascii	"lv_btnm_get_recolor\000"
 11394      746E6D5F 
 11394      6765745F 
 11394      7265636F 
 11394      6C6F7200 
ARM GAS  C:\Users\tmj32\AppData\Local\Temp\ccyJ4BPG.s 			page 235


 11395              	.LASF279:
 11396 0e00 4C565F4B 		.ascii	"LV_KEY_NEXT\000"
 11396      45595F4E 
 11396      45585400 
 11397              	.LASF242:
 11398 0e0c 4C565F53 		.ascii	"LV_SIGNAL_PRESSING\000"
 11398      49474E41 
 11398      4C5F5052 
 11398      45535349 
 11398      4E4700
 11399              	.LASF214:
 11400 0e1f 4C565F45 		.ascii	"LV_EVENT_SHORT_CLICKED\000"
 11400      56454E54 
 11400      5F53484F 
 11400      52545F43 
 11400      4C49434B 
 11401              	.LASF50:
 11402 0e36 4C565F42 		.ascii	"LV_BORDER_INTERNAL\000"
 11402      4F524445 
 11402      525F494E 
 11402      5445524E 
 11402      414C00
 11403              	.LASF216:
 11404 0e49 4C565F45 		.ascii	"LV_EVENT_LONG_PRESSED_REPEAT\000"
 11404      56454E54 
 11404      5F4C4F4E 
 11404      475F5052 
 11404      45535345 
 11405              	.LASF371:
 11406 0e66 756E6974 		.ascii	"unit_act_cnt\000"
 11406      5F616374 
 11406      5F636E74 
 11406      00
 11407              	.LASF82:
 11408 0e73 6C765F72 		.ascii	"lv_res_t\000"
 11408      65735F74 
 11408      00
 11409              	.LASF107:
 11410 0e7c 6275665F 		.ascii	"buf_act\000"
 11410      61637400 
 11411              	.LASF20:
 11412 0e84 6C6F6E67 		.ascii	"long double\000"
 11412      20646F75 
 11412      626C6500 
 11413              	.LASF263:
 11414 0e90 6C765F64 		.ascii	"lv_drag_dir_t\000"
 11414      7261675F 
 11414      6469725F 
 11414      7400
 11415              	.LASF355:
 11416 0e9e 7374796C 		.ascii	"style\000"
 11416      6500
 11417              	.LASF179:
 11418 0ea4 76656374 		.ascii	"vect\000"
 11418      00
 11419              	.LASF140:
 11420 0ea9 6578745F 		.ascii	"ext_attr\000"
ARM GAS  C:\Users\tmj32\AppData\Local\Temp\ccyJ4BPG.s 			page 236


 11420      61747472 
 11420      00
 11421              	.LASF180:
 11422 0eb2 64726167 		.ascii	"drag_sum\000"
 11422      5F73756D 
 11422      00
 11423              	.LASF344:
 11424 0ebb 63616C65 		.ascii	"calendar\000"
 11424      6E646172 
 11424      00
 11425              	.LASF157:
 11426 0ec4 4C565F49 		.ascii	"LV_INDEV_TYPE_POINTER\000"
 11426      4E444556 
 11426      5F545950 
 11426      455F504F 
 11426      494E5445 
 11427              	.LASF193:
 11428 0eda 70725F74 		.ascii	"pr_timestamp\000"
 11428      696D6573 
 11428      74616D70 
 11428      00
 11429              	.LASF209:
 11430 0ee7 6C765F64 		.ascii	"lv_design_mode_t\000"
 11430      65736967 
 11430      6E5F6D6F 
 11430      64655F74 
 11430      00
 11431              	.LASF72:
 11432 0ef8 73756270 		.ascii	"subpx\000"
 11432      7800
 11433              	.LASF220:
 11434 0efe 4C565F45 		.ascii	"LV_EVENT_DRAG_END\000"
 11434      56454E54 
 11434      5F445241 
 11434      475F454E 
 11434      4400
 11435              	.LASF172:
 11436 0f10 72656164 		.ascii	"read_task\000"
 11436      5F746173 
 11436      6B00
 11437              	.LASF243:
 11438 0f1a 4C565F53 		.ascii	"LV_SIGNAL_PRESS_LOST\000"
 11438      49474E41 
 11438      4C5F5052 
 11438      4553535F 
 11438      4C4F5354 
 11439              	.LASF282:
 11440 0f2f 4C565F4B 		.ascii	"LV_KEY_END\000"
 11440      45595F45 
 11440      4E4400
 11441              	.LASF170:
 11442 0f3a 66656564 		.ascii	"feedback_cb\000"
 11442      6261636B 
 11442      5F636200 
 11443              	.LASF248:
 11444 0f46 4C565F53 		.ascii	"LV_SIGNAL_DRAG_END\000"
 11444      49474E41 
ARM GAS  C:\Users\tmj32\AppData\Local\Temp\ccyJ4BPG.s 			page 237


 11444      4C5F4452 
 11444      41475F45 
 11444      4E4400
 11445              	.LASF316:
 11446 0f59 68696E74 		.ascii	"hint\000"
 11446      00
 11447              	.LASF211:
 11448 0f5e 4C565F45 		.ascii	"LV_EVENT_PRESSED\000"
 11448      56454E54 
 11448      5F505245 
 11448      53534544 
 11448      00
 11449              	.LASF236:
 11450 0f6f 4C565F53 		.ascii	"LV_SIGNAL_PARENT_SIZE_CHG\000"
 11450      49474E41 
 11450      4C5F5041 
 11450      52454E54 
 11450      5F53495A 
 11451              	.LASF229:
 11452 0f89 4C565F45 		.ascii	"LV_EVENT_CANCEL\000"
 11452      56454E54 
 11452      5F43414E 
 11452      43454C00 
 11453              	.LASF244:
 11454 0f99 4C565F53 		.ascii	"LV_SIGNAL_RELEASED\000"
 11454      49474E41 
 11454      4C5F5245 
 11454      4C454153 
 11454      454400
 11455              	.LASF61:
 11456 0fac 6D61696E 		.ascii	"main_color\000"
 11456      5F636F6C 
 11456      6F7200
 11457              	.LASF0:
 11458 0fb7 5F5F696E 		.ascii	"__int8_t\000"
 11458      74385F74 
 11458      00
 11459              	.LASF191:
 11460 0fc0 5F6C765F 		.ascii	"_lv_indev_proc_t\000"
 11460      696E6465 
 11460      765F7072 
 11460      6F635F74 
 11460      00
 11461              	.LASF253:
 11462 0fd1 6C765F73 		.ascii	"lv_signal_t\000"
 11462      69676E61 
 11462      6C5F7400 
 11463              	.LASF108:
 11464 0fdd 73697A65 		.ascii	"size\000"
 11464      00
 11465              	.LASF174:
 11466 0fe2 6C6F6E67 		.ascii	"long_press_time\000"
 11466      5F707265 
 11466      73735F74 
 11466      696D6500 
 11467              	.LASF284:
 11468 0ff2 4C565F42 		.ascii	"LV_BTN_STATE_PR\000"
ARM GAS  C:\Users\tmj32\AppData\Local\Temp\ccyJ4BPG.s 			page 238


 11468      544E5F53 
 11468      54415445 
 11468      5F505200 
 11469              	.LASF12:
 11470 1002 6C6F6E67 		.ascii	"long long unsigned int\000"
 11470      206C6F6E 
 11470      6720756E 
 11470      7369676E 
 11470      65642069 
 11471              	.LASF438:
 11472 1019 6D617073 		.ascii	"maps_are_identical\000"
 11472      5F617265 
 11472      5F696465 
 11472      6E746963 
 11472      616C00
 11473              	.LASF308:
 11474 102c 4C565F42 		.ascii	"LV_BTNM_STYLE_BTN_PR\000"
 11474      544E4D5F 
 11474      5354594C 
 11474      455F4254 
 11474      4E5F5052 
 11475              	.LASF17:
 11476 1041 75696E74 		.ascii	"uint16_t\000"
 11476      31365F74 
 11476      00
 11477              	.LASF81:
 11478 104a 4C565F52 		.ascii	"LV_RES_OK\000"
 11478      45535F4F 
 11478      4B00
 11479              	.LASF99:
 11480 1054 6C617374 		.ascii	"last_run\000"
 11480      5F72756E 
 11480      00
 11481              	.LASF448:
 11482 105d 6C765F73 		.ascii	"lv_style_btn_pr\000"
 11482      74796C65 
 11482      5F62746E 
 11482      5F707200 
 11483              	.LASF384:
 11484 106d 6C765F62 		.ascii	"lv_btnm_set_btn_ctrl\000"
 11484      746E6D5F 
 11484      7365745F 
 11484      62746E5F 
 11484      6374726C 
 11485              	.LASF325:
 11486 1082 68656164 		.ascii	"header_pr\000"
 11486      65725F70 
 11486      7200
 11487              	.LASF328:
 11488 108c 696E6163 		.ascii	"inactive_days\000"
 11488      74697665 
 11488      5F646179 
 11488      7300
 11489              	.LASF38:
 11490 109a 6C765F63 		.ascii	"lv_color_t\000"
 11490      6F6C6F72 
 11490      5F7400
ARM GAS  C:\Users\tmj32\AppData\Local\Temp\ccyJ4BPG.s 			page 239


 11491              	.LASF445:
 11492 10a5 616E6365 		.ascii	"ancestor_signal\000"
 11492      73746F72 
 11492      5F736967 
 11492      6E616C00 
 11493              	.LASF258:
 11494 10b5 796F6673 		.ascii	"yofs\000"
 11494      00
 11495              	.LASF44:
 11496 10ba 4C565F42 		.ascii	"LV_BORDER_NONE\000"
 11496      4F524445 
 11496      525F4E4F 
 11496      4E4500
 11497              	.LASF425:
 11498 10c9 6765745F 		.ascii	"get_button_width\000"
 11498      62757474 
 11498      6F6E5F77 
 11498      69647468 
 11498      00
 11499              	.LASF196:
 11500 10da 72657365 		.ascii	"reset_query\000"
 11500      745F7175 
 11500      65727900 
 11501              	.LASF104:
 11502 10e6 6C765F74 		.ascii	"lv_task_t\000"
 11502      61736B5F 
 11502      7400
 11503              	.LASF360:
 11504 10f0 6C765F61 		.ascii	"lv_area_get_height\000"
 11504      7265615F 
 11504      6765745F 
 11504      68656967 
 11504      687400
 11505              	.LASF92:
 11506 1103 4C565F42 		.ascii	"LV_BIDI_DIR_NEUTRAL\000"
 11506      4944495F 
 11506      4449525F 
 11506      4E455554 
 11506      52414C00 
 11507              	.LASF45:
 11508 1117 4C565F42 		.ascii	"LV_BORDER_BOTTOM\000"
 11508      4F524445 
 11508      525F424F 
 11508      54544F4D 
 11508      00
 11509              	.LASF158:
 11510 1128 4C565F49 		.ascii	"LV_INDEV_TYPE_KEYPAD\000"
 11510      4E444556 
 11510      5F545950 
 11510      455F4B45 
 11510      59504144 
 11511              	.LASF272:
 11512 113d 4C565F4B 		.ascii	"LV_KEY_DOWN\000"
 11512      45595F44 
 11512      4F574E00 
 11513              	.LASF48:
 11514 1149 4C565F42 		.ascii	"LV_BORDER_RIGHT\000"
ARM GAS  C:\Users\tmj32\AppData\Local\Temp\ccyJ4BPG.s 			page 240


 11514      4F524445 
 11514      525F5249 
 11514      47485400 
 11515              	.LASF275:
 11516 1159 4C565F4B 		.ascii	"LV_KEY_ESC\000"
 11516      45595F45 
 11516      534300
 11517              	.LASF452:
 11518 1164 474E5520 		.ascii	"GNU C11 5.4.1 20160609 (release) [ARM/embedded-5-br"
 11518      43313120 
 11518      352E342E 
 11518      31203230 
 11518      31363036 
 11519 1197 616E6368 		.ascii	"anch revision 237715] -mcpu=cortex-m4 -mfloat-abi=s"
 11519      20726576 
 11519      6973696F 
 11519      6E203233 
 11519      37373135 
 11520 11ca 6F667466 		.ascii	"oftfp -mfpu=fpv4-sp-d16 -mthumb -g -O0 -ffunction-s"
 11520      70202D6D 
 11520      6670753D 
 11520      66707634 
 11520      2D73702D 
 11521 11fd 65637469 		.ascii	"ections -ffat-lto-objects\000"
 11521      6F6E7320 
 11521      2D666661 
 11521      742D6C74 
 11521      6F2D6F62 
 11522              	.LASF98:
 11523 1217 70657269 		.ascii	"period\000"
 11523      6F6400
 11524              	.LASF118:
 11525 121e 726F756E 		.ascii	"rounder_cb\000"
 11525      6465725F 
 11525      636200
 11526              	.LASF319:
 11527 1229 6465636F 		.ascii	"decor\000"
 11527      7200
 11528              	.LASF377:
 11529 122f 6163745F 		.ascii	"act_unit_w\000"
 11529      756E6974 
 11529      5F7700
 11530              	.LASF337:
 11531 123a 696D6762 		.ascii	"imgbtn\000"
 11531      746E00
 11532              	.LASF4:
 11533 1241 5F5F696E 		.ascii	"__int16_t\000"
 11533      7431365F 
 11533      7400
 11534              	.LASF194:
 11535 124b 6C6F6E67 		.ascii	"longpr_rep_timestamp\000"
 11535      70725F72 
 11535      65705F74 
 11535      696D6573 
 11535      74616D70 
 11536              	.LASF335:
 11537 1260 70616E65 		.ascii	"panel\000"
ARM GAS  C:\Users\tmj32\AppData\Local\Temp\ccyJ4BPG.s 			page 241


 11537      6C00
 11538              	.LASF186:
 11539 1266 64726167 		.ascii	"drag_in_prog\000"
 11539      5F696E5F 
 11539      70726F67 
 11539      00
 11540              	.LASF451:
 11541 1273 6C765F73 		.ascii	"lv_style_btn_ina\000"
 11541      74796C65 
 11541      5F62746E 
 11541      5F696E61 
 11541      00
 11542              	.LASF357:
 11543 1284 64657374 		.ascii	"dest\000"
 11543      00
 11544              	.LASF90:
 11545 1289 4C565F42 		.ascii	"LV_BIDI_DIR_AUTO\000"
 11545      4944495F 
 11545      4449525F 
 11545      4155544F 
 11545      00
 11546              	.LASF442:
 11547 129a 7761735F 		.ascii	"was_toggled\000"
 11547      746F6767 
 11547      6C656400 
 11548              	.LASF36:
 11549 12a6 66756C6C 		.ascii	"full\000"
 11549      00
 11550              	.LASF53:
 11551 12ab 636F6C6F 		.ascii	"color\000"
 11551      7200
 11552              	.LASF185:
 11553 12b1 64726167 		.ascii	"drag_limit_out\000"
 11553      5F6C696D 
 11553      69745F6F 
 11553      757400
 11554              	.LASF70:
 11555 12c0 6C696E65 		.ascii	"line_space\000"
 11555      5F737061 
 11555      636500
 11556              	.LASF257:
 11557 12cb 786F6673 		.ascii	"xofs\000"
 11557      00
 11558              	.LASF264:
 11559 12d0 6C765F6F 		.ascii	"lv_obj_t\000"
 11559      626A5F74 
 11559      00
 11560              	.LASF52:
 11561 12d9 6C765F73 		.ascii	"lv_shadow_type_t\000"
 11561      6861646F 
 11561      775F7479 
 11561      70655F74 
 11561      00
 11562              	.LASF143:
 11563 12ea 64726167 		.ascii	"drag\000"
 11563      00
 11564              	.LASF446:
ARM GAS  C:\Users\tmj32\AppData\Local\Temp\ccyJ4BPG.s 			page 242


 11565 12ef 6C765F73 		.ascii	"lv_style_pretty\000"
 11565      74796C65 
 11565      5F707265 
 11565      74747900 
 11566              	.LASF311:
 11567 12ff 4C565F42 		.ascii	"LV_BTNM_STYLE_BTN_INA\000"
 11567      544E4D5F 
 11567      5354594C 
 11567      455F4254 
 11567      4E5F494E 
 11568              	.LASF134:
 11569 1315 5F6C765F 		.ascii	"_lv_obj_t\000"
 11569      6F626A5F 
 11569      7400
 11570              	.LASF68:
 11571 131f 666F6E74 		.ascii	"font\000"
 11571      00
 11572              	.LASF69:
 11573 1324 6C657474 		.ascii	"letter_space\000"
 11573      65725F73 
 11573      70616365 
 11573      00
 11574              	.LASF124:
 11575 1331 64726976 		.ascii	"driver\000"
 11575      657200
 11576              	.LASF150:
 11577 1338 62617365 		.ascii	"base_dir\000"
 11577      5F646972 
 11577      00
 11578              	.LASF23:
 11579 1341 626F785F 		.ascii	"box_h\000"
 11579      6800
 11580              	.LASF280:
 11581 1347 4C565F4B 		.ascii	"LV_KEY_PREV\000"
 11581      45595F50 
 11581      52455600 
 11582              	.LASF256:
 11583 1353 62617365 		.ascii	"base\000"
 11583      00
 11584              	.LASF22:
 11585 1358 626F785F 		.ascii	"box_w\000"
 11585      7700
 11586              	.LASF5:
 11587 135e 73686F72 		.ascii	"short int\000"
 11587      7420696E 
 11587      7400
 11588              	.LASF49:
 11589 1368 4C565F42 		.ascii	"LV_BORDER_FULL\000"
 11589      4F524445 
 11589      525F4655 
 11589      4C4C00
 11590              	.LASF30:
 11591 1377 62617365 		.ascii	"base_line\000"
 11591      5F6C696E 
 11591      6500
 11592              	.LASF132:
 11593 1381 696E765F 		.ascii	"inv_p\000"
ARM GAS  C:\Users\tmj32\AppData\Local\Temp\ccyJ4BPG.s 			page 243


 11593      7000
 11594              	.LASF87:
 11595 1387 6C765F6C 		.ascii	"lv_ll_t\000"
 11595      6C5F7400 
 11596              	.LASF404:
 11597 138f 6D6F6465 		.ascii	"mode\000"
 11597      00
 11598              	.LASF190:
 11599 1394 6B657970 		.ascii	"keypad\000"
 11599      616400
 11600              	.LASF16:
 11601 139b 696E7431 		.ascii	"int16_t\000"
 11601      365F7400 
 11602              	.LASF235:
 11603 13a3 4C565F53 		.ascii	"LV_SIGNAL_CORD_CHG\000"
 11603      49474E41 
 11603      4C5F434F 
 11603      52445F43 
 11603      484700
 11604              	.LASF298:
 11605 13b6 6374726C 		.ascii	"ctrl_bits\000"
 11605      5F626974 
 11605      7300
 11606              	.LASF136:
 11607 13c0 636F6F72 		.ascii	"coords\000"
 11607      647300
 11608              	.LASF417:
 11609 13c7 696E6465 		.ascii	"indev\000"
 11609      7600
 11610              	.LASF129:
 11611 13cd 7379735F 		.ascii	"sys_layer\000"
 11611      6C617965 
 11611      7200
 11612              	.LASF348:
 11613 13d7 7370696E 		.ascii	"spinbox\000"
 11613      626F7800 
 11614              	.LASF392:
 11615 13df 6C765F62 		.ascii	"lv_btnm_get_map_array\000"
 11615      746E6D5F 
 11615      6765745F 
 11615      6D61705F 
 11615      61727261 
 11616              	.LASF430:
 11617 13f5 62757474 		.ascii	"button_is_tgl_enabled\000"
 11617      6F6E5F69 
 11617      735F7467 
 11617      6C5F656E 
 11617      61626C65 
 11618              	.LASF147:
 11619 140b 6F70615F 		.ascii	"opa_scale_en\000"
 11619      7363616C 
 11619      655F656E 
 11619      00
 11620              	.LASF326:
 11621 1418 6461795F 		.ascii	"day_names\000"
 11621      6E616D65 
 11621      7300
ARM GAS  C:\Users\tmj32\AppData\Local\Temp\ccyJ4BPG.s 			page 244


 11622              	.LASF65:
 11623 1422 73686164 		.ascii	"shadow\000"
 11623      6F7700
 11624              	.LASF199:
 11625 1429 6C765F69 		.ascii	"lv_indev_proc_t\000"
 11625      6E646576 
 11625      5F70726F 
 11625      635F7400 
 11626              	.LASF224:
 11627 1439 4C565F45 		.ascii	"LV_EVENT_DEFOCUSED\000"
 11627      56454E54 
 11627      5F444546 
 11627      4F435553 
 11627      454400
 11628              	.LASF359:
 11629 144c 6C765F61 		.ascii	"lv_area_get_width\000"
 11629      7265615F 
 11629      6765745F 
 11629      77696474 
 11629      6800
 11630              	.LASF292:
 11631 145e 4C565F42 		.ascii	"LV_BTNM_CTRL_TGL_ENABLE\000"
 11631      544E4D5F 
 11631      4354524C 
 11631      5F54474C 
 11631      5F454E41 
 11632              	.LASF145:
 11633 1476 64726167 		.ascii	"drag_parent\000"
 11633      5F706172 
 11633      656E7400 
 11634              	.LASF176:
 11635 1482 6C765F69 		.ascii	"lv_indev_drv_t\000"
 11635      6E646576 
 11635      5F647276 
 11635      5F7400
 11636              	.LASF238:
 11637 1491 4C565F53 		.ascii	"LV_SIGNAL_BASE_DIR_CHG\000"
 11637      49474E41 
 11637      4C5F4241 
 11637      53455F44 
 11637      49525F43 
 11638              	.LASF297:
 11639 14a8 62757474 		.ascii	"button_areas\000"
 11639      6F6E5F61 
 11639      72656173 
 11639      00
 11640              	.LASF173:
 11641 14b5 64726167 		.ascii	"drag_limit\000"
 11641      5F6C696D 
 11641      697400
 11642              	.LASF122:
 11643 14c0 6C765F64 		.ascii	"lv_disp_drv_t\000"
 11643      6973705F 
 11643      6472765F 
 11643      7400
 11644              	.LASF431:
 11645 14ce 62757474 		.ascii	"button_get_tgl_state\000"
ARM GAS  C:\Users\tmj32\AppData\Local\Temp\ccyJ4BPG.s 			page 245


 11645      6F6E5F67 
 11645      65745F74 
 11645      676C5F73 
 11645      74617465 
 11646              	.LASF167:
 11647 14e3 6C765F69 		.ascii	"lv_indev_data_t\000"
 11647      6E646576 
 11647      5F646174 
 11647      615F7400 
 11648              	.LASF89:
 11649 14f3 4C565F42 		.ascii	"LV_BIDI_DIR_RTL\000"
 11649      4944495F 
 11649      4449525F 
 11649      52544C00 
 11650              	.LASF334:
 11651 1503 636F6E74 		.ascii	"content\000"
 11651      656E7400 
 11652              	.LASF66:
 11653 150b 70616464 		.ascii	"padding\000"
 11653      696E6700 
 11654              	.LASF138:
 11655 1513 7369676E 		.ascii	"signal_cb\000"
 11655      616C5F63 
 11655      6200
 11656              	.LASF441:
 11657 151d 6D616B65 		.ascii	"make_one_button_toggled\000"
 11657      5F6F6E65 
 11657      5F627574 
 11657      746F6E5F 
 11657      746F6767 
 11658              	.LASF407:
 11659 1535 61726561 		.ascii	"area_btnm\000"
 11659      5F62746E 
 11659      6D00
 11660              	.LASF18:
 11661 153f 75696E74 		.ascii	"uint32_t\000"
 11661      33325F74 
 11661      00
 11662              	.LASF302:
 11663 1548 62746E5F 		.ascii	"btn_id_act\000"
 11663      69645F61 
 11663      637400
 11664              	.LASF362:
 11665 1553 6E65775F 		.ascii	"new_btnm\000"
 11665      62746E6D 
 11665      00
 11666              	.LASF413:
 11667 155c 7478745F 		.ascii	"txt_size\000"
 11667      73697A65 
 11667      00
 11668              	.LASF400:
 11669 1565 6C765F62 		.ascii	"lv_btnm_get_style\000"
 11669      746E6D5F 
 11669      6765745F 
 11669      7374796C 
 11669      6500
 11670              	.LASF318:
ARM GAS  C:\Users\tmj32\AppData\Local\Temp\ccyJ4BPG.s 			page 246


 11671 1577 6461726B 		.ascii	"dark\000"
 11671      00
 11672              	.LASF34:
 11673 157c 67726565 		.ascii	"green\000"
 11673      6E00
 11674              	.LASF32:
 11675 1582 6C765F66 		.ascii	"lv_font_t\000"
 11675      6F6E745F 
 11675      7400
 11676              	.LASF151:
 11677 158c 72657365 		.ascii	"reserved\000"
 11677      72766564 
 11677      00
 11678              	.LASF356:
 11679 1595 6C765F74 		.ascii	"lv_theme_t\000"
 11679      68656D65 
 11679      5F7400
 11680              	.LASF120:
 11681 15a0 6D6F6E69 		.ascii	"monitor_cb\000"
 11681      746F725F 
 11681      636200
 11682              	.LASF7:
 11683 15ab 73686F72 		.ascii	"short unsigned int\000"
 11683      7420756E 
 11683      7369676E 
 11683      65642069 
 11683      6E7400
 11684              	.LASF305:
 11685 15be 6C765F62 		.ascii	"lv_btnm_ext_t\000"
 11685      746E6D5F 
 11685      6578745F 
 11685      7400
 11686              	.LASF397:
 11687 15cc 6C765F62 		.ascii	"lv_btnm_get_btn_text\000"
 11687      746E6D5F 
 11687      6765745F 
 11687      62746E5F 
 11687      74657874 
 11688              	.LASF222:
 11689 15e1 4C565F45 		.ascii	"LV_EVENT_KEY\000"
 11689      56454E54 
 11689      5F4B4559 
 11689      00
 11690              	.LASF19:
 11691 15ee 6C765F63 		.ascii	"lv_coord_t\000"
 11691      6F6F7264 
 11691      5F7400
 11692              	.LASF156:
 11693 15f9 4C565F49 		.ascii	"LV_INDEV_TYPE_NONE\000"
 11693      4E444556 
 11693      5F545950 
 11693      455F4E4F 
 11693      4E4500
 11694              	.LASF117:
 11695 160c 666C7573 		.ascii	"flush_cb\000"
 11695      685F6362 
 11695      00
ARM GAS  C:\Users\tmj32\AppData\Local\Temp\ccyJ4BPG.s 			page 247


 11696              	.LASF101:
 11697 1615 75736572 		.ascii	"user_data\000"
 11697      5F646174 
 11697      6100
 11698              	.LASF213:
 11699 161f 4C565F45 		.ascii	"LV_EVENT_PRESS_LOST\000"
 11699      56454E54 
 11699      5F505245 
 11699      53535F4C 
 11699      4F535400 
 11700              	.LASF64:
 11701 1633 626F7264 		.ascii	"border\000"
 11701      657200
 11702              	.LASF338:
 11703 163a 6C616265 		.ascii	"label\000"
 11703      6C00
 11704              	.LASF27:
 11705 1640 6765745F 		.ascii	"get_glyph_dsc\000"
 11705      676C7970 
 11705      685F6473 
 11705      6300
 11706              	.LASF339:
 11707 164e 736C6964 		.ascii	"slider\000"
 11707      657200
 11708              	.LASF51:
 11709 1655 6C765F62 		.ascii	"lv_border_part_t\000"
 11709      6F726465 
 11709      725F7061 
 11709      72745F74 
 11709      00
 11710              	.LASF312:
 11711 1666 6C765F62 		.ascii	"lv_btnm_style_t\000"
 11711      746E6D5F 
 11711      7374796C 
 11711      655F7400 
 11712              	.LASF195:
 11713 1676 6C6F6E67 		.ascii	"long_pr_sent\000"
 11713      5F70725F 
 11713      73656E74 
 11713      00
 11714              	.LASF232:
 11715 1683 6C765F65 		.ascii	"lv_event_cb_t\000"
 11715      76656E74 
 11715      5F63625F 
 11715      7400
 11716              	.LASF342:
 11717 1691 7072656C 		.ascii	"preload\000"
 11717      6F616400 
 11718              	.LASF261:
 11719 1699 6F726967 		.ascii	"origo_align\000"
 11719      6F5F616C 
 11719      69676E00 
 11720              	.LASF321:
 11721 16a5 6B6E6F62 		.ascii	"knob\000"
 11721      00
 11722              	.LASF271:
 11723 16aa 4C565F4B 		.ascii	"LV_KEY_UP\000"
ARM GAS  C:\Users\tmj32\AppData\Local\Temp\ccyJ4BPG.s 			page 248


 11723      45595F55 
 11723      5000
 11724              	.LASF67:
 11725 16b4 73656C5F 		.ascii	"sel_color\000"
 11725      636F6C6F 
 11725      7200
 11726              	.LASF95:
 11727 16be 6C765F74 		.ascii	"lv_task_cb_t\000"
 11727      61736B5F 
 11727      63625F74 
 11727      00
 11728              	.LASF96:
 11729 16cb 5F6C765F 		.ascii	"_lv_font_struct\000"
 11729      666F6E74 
 11729      5F737472 
 11729      75637400 
 11730              	.LASF192:
 11731 16db 74797065 		.ascii	"types\000"
 11731      7300
 11732              	.LASF421:
 11733 16e1 61726561 		.ascii	"area_above\000"
 11733      5F61626F 
 11733      766500
 11734              	.LASF55:
 11735 16ec 70617274 		.ascii	"part\000"
 11735      00
 11736              	.LASF386:
 11737 16f1 6C765F62 		.ascii	"lv_btnm_clear_btn_ctrl\000"
 11737      746E6D5F 
 11737      636C6561 
 11737      725F6274 
 11737      6E5F6374 
 11738              	.LASF84:
 11739 1708 6E5F7369 		.ascii	"n_size\000"
 11739      7A6500
 11740              	.LASF288:
 11741 170f 5F4C565F 		.ascii	"_LV_BTN_STATE_NUM\000"
 11741      42544E5F 
 11741      53544154 
 11741      455F4E55 
 11741      4D00
 11742              	.LASF202:
 11743 1721 63757273 		.ascii	"cursor\000"
 11743      6F7200
 11744              	.LASF455:
 11745 1728 5F6C765F 		.ascii	"_lv_group_t\000"
 11745      67726F75 
 11745      705F7400 
 11746              	.LASF218:
 11747 1734 4C565F45 		.ascii	"LV_EVENT_RELEASED\000"
 11747      56454E54 
 11747      5F52454C 
 11747      45415345 
 11747      4400
 11748              	.LASF424:
 11749 1746 616C6C6F 		.ascii	"allocate_btn_areas_and_controls\000"
 11749      63617465 
ARM GAS  C:\Users\tmj32\AppData\Local\Temp\ccyJ4BPG.s 			page 249


 11749      5F62746E 
 11749      5F617265 
 11749      61735F61 
 11750              	.LASF412:
 11751 1766 74676C5F 		.ascii	"tgl_state\000"
 11751      73746174 
 11751      6500
 11752              	.LASF210:
 11753 1770 6C765F64 		.ascii	"lv_design_cb_t\000"
 11753      65736967 
 11753      6E5F6362 
 11753      5F7400
 11754              	.LASF153:
 11755 177f 6F70615F 		.ascii	"opa_scale\000"
 11755      7363616C 
 11755      6500
 11756              	.LASF351:
 11757 1789 726F6C6C 		.ascii	"roller\000"
 11757      657200
 11758              		.ident	"GCC: (GNU Tools for ARM Embedded Processors) 5.4.1 20160609 (release) [ARM/embedded-5-bran
