ARM GAS  C:\Users\tmj32\AppData\Local\Temp\ccyJ4BPG.s 			page 1


   1              		.syntax unified
   2              		.cpu cortex-m4
   3              		.eabi_attribute 27, 1
   4              		.fpu fpv4-sp-d16
   5              		.eabi_attribute 20, 1
   6              		.eabi_attribute 21, 1
   7              		.eabi_attribute 23, 3
   8              		.eabi_attribute 24, 1
   9              		.eabi_attribute 25, 1
  10              		.eabi_attribute 26, 1
  11              		.eabi_attribute 30, 6
  12              		.eabi_attribute 34, 1
  13              		.eabi_attribute 18, 4
  14              		.thumb
  15              		.syntax unified
  16              		.file	"lv_btnm.c"
  17              		.text
  18              	.Ltext0:
  19              		.cfi_sections	.debug_frame
  20              		.section	.text.lv_area_copy,"ax",%progbits
  21              		.align	2
  22              		.thumb
  23              		.thumb_func
  24              		.type	lv_area_copy, %function
  25              	lv_area_copy:
  26              	.LFB10:
  27              		.file 1 "..\\..\\..\\lvgl\\version_6.1.2\\lvgl\\src\\lv_objx\\../lv_core/../lv_misc/lv_area.h"
   1:..\..\..\lvgl\version_6.1.2\lvgl\src\lv_objx\../lv_core/../lv_misc/lv_area.h **** /**
   2:..\..\..\lvgl\version_6.1.2\lvgl\src\lv_objx\../lv_core/../lv_misc/lv_area.h ****  * @file lv_area.h
   3:..\..\..\lvgl\version_6.1.2\lvgl\src\lv_objx\../lv_core/../lv_misc/lv_area.h ****  *
   4:..\..\..\lvgl\version_6.1.2\lvgl\src\lv_objx\../lv_core/../lv_misc/lv_area.h ****  */
   5:..\..\..\lvgl\version_6.1.2\lvgl\src\lv_objx\../lv_core/../lv_misc/lv_area.h **** 
   6:..\..\..\lvgl\version_6.1.2\lvgl\src\lv_objx\../lv_core/../lv_misc/lv_area.h **** #ifndef LV_AREA_H
   7:..\..\..\lvgl\version_6.1.2\lvgl\src\lv_objx\../lv_core/../lv_misc/lv_area.h **** #define LV_AREA_H
   8:..\..\..\lvgl\version_6.1.2\lvgl\src\lv_objx\../lv_core/../lv_misc/lv_area.h **** 
   9:..\..\..\lvgl\version_6.1.2\lvgl\src\lv_objx\../lv_core/../lv_misc/lv_area.h **** #ifdef __cplusplus
  10:..\..\..\lvgl\version_6.1.2\lvgl\src\lv_objx\../lv_core/../lv_misc/lv_area.h **** extern "C" {
  11:..\..\..\lvgl\version_6.1.2\lvgl\src\lv_objx\../lv_core/../lv_misc/lv_area.h **** #endif
  12:..\..\..\lvgl\version_6.1.2\lvgl\src\lv_objx\../lv_core/../lv_misc/lv_area.h **** 
  13:..\..\..\lvgl\version_6.1.2\lvgl\src\lv_objx\../lv_core/../lv_misc/lv_area.h **** /*********************
  14:..\..\..\lvgl\version_6.1.2\lvgl\src\lv_objx\../lv_core/../lv_misc/lv_area.h ****  *      INCLUDES
  15:..\..\..\lvgl\version_6.1.2\lvgl\src\lv_objx\../lv_core/../lv_misc/lv_area.h ****  *********************/
  16:..\..\..\lvgl\version_6.1.2\lvgl\src\lv_objx\../lv_core/../lv_misc/lv_area.h **** #include <string.h>
  17:..\..\..\lvgl\version_6.1.2\lvgl\src\lv_objx\../lv_core/../lv_misc/lv_area.h **** #include <stdbool.h>
  18:..\..\..\lvgl\version_6.1.2\lvgl\src\lv_objx\../lv_core/../lv_misc/lv_area.h **** #include <stdint.h>
  19:..\..\..\lvgl\version_6.1.2\lvgl\src\lv_objx\../lv_core/../lv_misc/lv_area.h **** #ifdef LV_CONF_INCLUDE_SIMPLE
  20:..\..\..\lvgl\version_6.1.2\lvgl\src\lv_objx\../lv_core/../lv_misc/lv_area.h **** #include "lv_conf.h"
  21:..\..\..\lvgl\version_6.1.2\lvgl\src\lv_objx\../lv_core/../lv_misc/lv_area.h **** #else
  22:..\..\..\lvgl\version_6.1.2\lvgl\src\lv_objx\../lv_core/../lv_misc/lv_area.h **** #include "../../../lv_conf.h"
  23:..\..\..\lvgl\version_6.1.2\lvgl\src\lv_objx\../lv_core/../lv_misc/lv_area.h **** #endif
  24:..\..\..\lvgl\version_6.1.2\lvgl\src\lv_objx\../lv_core/../lv_misc/lv_area.h **** 
  25:..\..\..\lvgl\version_6.1.2\lvgl\src\lv_objx\../lv_core/../lv_misc/lv_area.h **** /*********************
  26:..\..\..\lvgl\version_6.1.2\lvgl\src\lv_objx\../lv_core/../lv_misc/lv_area.h ****  *      DEFINES
  27:..\..\..\lvgl\version_6.1.2\lvgl\src\lv_objx\../lv_core/../lv_misc/lv_area.h ****  *********************/
  28:..\..\..\lvgl\version_6.1.2\lvgl\src\lv_objx\../lv_core/../lv_misc/lv_area.h **** /*To avoid overflow don't let the max ranges (reduce with 1000) */
  29:..\..\..\lvgl\version_6.1.2\lvgl\src\lv_objx\../lv_core/../lv_misc/lv_area.h **** #define LV_COORD_MAX ((lv_coord_t)((uint32_t)((uint32_t)1 << (8 * sizeof(lv_coord_t) - 1)) - 1000))
  30:..\..\..\lvgl\version_6.1.2\lvgl\src\lv_objx\../lv_core/../lv_misc/lv_area.h **** #define LV_COORD_MIN (-LV_COORD_MAX)
ARM GAS  C:\Users\tmj32\AppData\Local\Temp\ccyJ4BPG.s 			page 2


  31:..\..\..\lvgl\version_6.1.2\lvgl\src\lv_objx\../lv_core/../lv_misc/lv_area.h **** 
  32:..\..\..\lvgl\version_6.1.2\lvgl\src\lv_objx\../lv_core/../lv_misc/lv_area.h **** LV_EXPORT_CONST_INT(LV_COORD_MAX);
  33:..\..\..\lvgl\version_6.1.2\lvgl\src\lv_objx\../lv_core/../lv_misc/lv_area.h **** LV_EXPORT_CONST_INT(LV_COORD_MIN);
  34:..\..\..\lvgl\version_6.1.2\lvgl\src\lv_objx\../lv_core/../lv_misc/lv_area.h **** 
  35:..\..\..\lvgl\version_6.1.2\lvgl\src\lv_objx\../lv_core/../lv_misc/lv_area.h **** /**********************
  36:..\..\..\lvgl\version_6.1.2\lvgl\src\lv_objx\../lv_core/../lv_misc/lv_area.h ****  *      TYPEDEFS
  37:..\..\..\lvgl\version_6.1.2\lvgl\src\lv_objx\../lv_core/../lv_misc/lv_area.h ****  **********************/
  38:..\..\..\lvgl\version_6.1.2\lvgl\src\lv_objx\../lv_core/../lv_misc/lv_area.h **** 
  39:..\..\..\lvgl\version_6.1.2\lvgl\src\lv_objx\../lv_core/../lv_misc/lv_area.h **** /**
  40:..\..\..\lvgl\version_6.1.2\lvgl\src\lv_objx\../lv_core/../lv_misc/lv_area.h ****  * Represents a point on the screen.
  41:..\..\..\lvgl\version_6.1.2\lvgl\src\lv_objx\../lv_core/../lv_misc/lv_area.h ****  */
  42:..\..\..\lvgl\version_6.1.2\lvgl\src\lv_objx\../lv_core/../lv_misc/lv_area.h **** typedef struct
  43:..\..\..\lvgl\version_6.1.2\lvgl\src\lv_objx\../lv_core/../lv_misc/lv_area.h **** {
  44:..\..\..\lvgl\version_6.1.2\lvgl\src\lv_objx\../lv_core/../lv_misc/lv_area.h ****     lv_coord_t x;
  45:..\..\..\lvgl\version_6.1.2\lvgl\src\lv_objx\../lv_core/../lv_misc/lv_area.h ****     lv_coord_t y;
  46:..\..\..\lvgl\version_6.1.2\lvgl\src\lv_objx\../lv_core/../lv_misc/lv_area.h **** } lv_point_t;
  47:..\..\..\lvgl\version_6.1.2\lvgl\src\lv_objx\../lv_core/../lv_misc/lv_area.h **** 
  48:..\..\..\lvgl\version_6.1.2\lvgl\src\lv_objx\../lv_core/../lv_misc/lv_area.h **** /** Represents an area of the screen. */
  49:..\..\..\lvgl\version_6.1.2\lvgl\src\lv_objx\../lv_core/../lv_misc/lv_area.h **** typedef struct
  50:..\..\..\lvgl\version_6.1.2\lvgl\src\lv_objx\../lv_core/../lv_misc/lv_area.h **** {
  51:..\..\..\lvgl\version_6.1.2\lvgl\src\lv_objx\../lv_core/../lv_misc/lv_area.h ****     lv_coord_t x1;
  52:..\..\..\lvgl\version_6.1.2\lvgl\src\lv_objx\../lv_core/../lv_misc/lv_area.h ****     lv_coord_t y1;
  53:..\..\..\lvgl\version_6.1.2\lvgl\src\lv_objx\../lv_core/../lv_misc/lv_area.h ****     lv_coord_t x2;
  54:..\..\..\lvgl\version_6.1.2\lvgl\src\lv_objx\../lv_core/../lv_misc/lv_area.h ****     lv_coord_t y2;
  55:..\..\..\lvgl\version_6.1.2\lvgl\src\lv_objx\../lv_core/../lv_misc/lv_area.h **** } lv_area_t;
  56:..\..\..\lvgl\version_6.1.2\lvgl\src\lv_objx\../lv_core/../lv_misc/lv_area.h **** 
  57:..\..\..\lvgl\version_6.1.2\lvgl\src\lv_objx\../lv_core/../lv_misc/lv_area.h **** /**********************
  58:..\..\..\lvgl\version_6.1.2\lvgl\src\lv_objx\../lv_core/../lv_misc/lv_area.h ****  * GLOBAL PROTOTYPES
  59:..\..\..\lvgl\version_6.1.2\lvgl\src\lv_objx\../lv_core/../lv_misc/lv_area.h ****  **********************/
  60:..\..\..\lvgl\version_6.1.2\lvgl\src\lv_objx\../lv_core/../lv_misc/lv_area.h **** 
  61:..\..\..\lvgl\version_6.1.2\lvgl\src\lv_objx\../lv_core/../lv_misc/lv_area.h **** /**
  62:..\..\..\lvgl\version_6.1.2\lvgl\src\lv_objx\../lv_core/../lv_misc/lv_area.h ****  * Initialize an area
  63:..\..\..\lvgl\version_6.1.2\lvgl\src\lv_objx\../lv_core/../lv_misc/lv_area.h ****  * @param area_p pointer to an area
  64:..\..\..\lvgl\version_6.1.2\lvgl\src\lv_objx\../lv_core/../lv_misc/lv_area.h ****  * @param x1 left coordinate of the area
  65:..\..\..\lvgl\version_6.1.2\lvgl\src\lv_objx\../lv_core/../lv_misc/lv_area.h ****  * @param y1 top coordinate of the area
  66:..\..\..\lvgl\version_6.1.2\lvgl\src\lv_objx\../lv_core/../lv_misc/lv_area.h ****  * @param x2 right coordinate of the area
  67:..\..\..\lvgl\version_6.1.2\lvgl\src\lv_objx\../lv_core/../lv_misc/lv_area.h ****  * @param y2 bottom coordinate of the area
  68:..\..\..\lvgl\version_6.1.2\lvgl\src\lv_objx\../lv_core/../lv_misc/lv_area.h ****  */
  69:..\..\..\lvgl\version_6.1.2\lvgl\src\lv_objx\../lv_core/../lv_misc/lv_area.h **** void lv_area_set(lv_area_t * area_p, lv_coord_t x1, lv_coord_t y1, lv_coord_t x2, lv_coord_t y2);
  70:..\..\..\lvgl\version_6.1.2\lvgl\src\lv_objx\../lv_core/../lv_misc/lv_area.h **** 
  71:..\..\..\lvgl\version_6.1.2\lvgl\src\lv_objx\../lv_core/../lv_misc/lv_area.h **** /**
  72:..\..\..\lvgl\version_6.1.2\lvgl\src\lv_objx\../lv_core/../lv_misc/lv_area.h ****  * Copy an area
  73:..\..\..\lvgl\version_6.1.2\lvgl\src\lv_objx\../lv_core/../lv_misc/lv_area.h ****  * @param dest pointer to the destination area
  74:..\..\..\lvgl\version_6.1.2\lvgl\src\lv_objx\../lv_core/../lv_misc/lv_area.h ****  * @param src pointer to the source area
  75:..\..\..\lvgl\version_6.1.2\lvgl\src\lv_objx\../lv_core/../lv_misc/lv_area.h ****  */
  76:..\..\..\lvgl\version_6.1.2\lvgl\src\lv_objx\../lv_core/../lv_misc/lv_area.h **** inline static void lv_area_copy(lv_area_t * dest, const lv_area_t * src)
  77:..\..\..\lvgl\version_6.1.2\lvgl\src\lv_objx\../lv_core/../lv_misc/lv_area.h **** {
  28              		.loc 1 77 0
  29              		.cfi_startproc
  30              		@ args = 0, pretend = 0, frame = 8
  31              		@ frame_needed = 1, uses_anonymous_args = 0
  32 0000 80B5     		push	{r7, lr}
  33              		.cfi_def_cfa_offset 8
  34              		.cfi_offset 7, -8
  35              		.cfi_offset 14, -4
  36 0002 82B0     		sub	sp, sp, #8
  37              		.cfi_def_cfa_offset 16
ARM GAS  C:\Users\tmj32\AppData\Local\Temp\ccyJ4BPG.s 			page 3


  38 0004 00AF     		add	r7, sp, #0
  39              		.cfi_def_cfa_register 7
  40 0006 7860     		str	r0, [r7, #4]
  41 0008 3960     		str	r1, [r7]
  78:..\..\..\lvgl\version_6.1.2\lvgl\src\lv_objx\../lv_core/../lv_misc/lv_area.h ****     memcpy(dest, src, sizeof(lv_area_t));
  42              		.loc 1 78 0
  43 000a 0822     		movs	r2, #8
  44 000c 3968     		ldr	r1, [r7]
  45 000e 7868     		ldr	r0, [r7, #4]
  46 0010 FFF7FEFF 		bl	memcpy
  79:..\..\..\lvgl\version_6.1.2\lvgl\src\lv_objx\../lv_core/../lv_misc/lv_area.h **** }
  47              		.loc 1 79 0
  48 0014 00BF     		nop
  49 0016 0837     		adds	r7, r7, #8
  50              		.cfi_def_cfa_offset 8
  51 0018 BD46     		mov	sp, r7
  52              		.cfi_def_cfa_register 13
  53              		@ sp needed
  54 001a 80BD     		pop	{r7, pc}
  55              		.cfi_endproc
  56              	.LFE10:
  57              		.size	lv_area_copy, .-lv_area_copy
  58              		.section	.text.lv_area_get_width,"ax",%progbits
  59              		.align	2
  60              		.thumb
  61              		.thumb_func
  62              		.type	lv_area_get_width, %function
  63              	lv_area_get_width:
  64              	.LFB11:
  80:..\..\..\lvgl\version_6.1.2\lvgl\src\lv_objx\../lv_core/../lv_misc/lv_area.h **** 
  81:..\..\..\lvgl\version_6.1.2\lvgl\src\lv_objx\../lv_core/../lv_misc/lv_area.h **** /**
  82:..\..\..\lvgl\version_6.1.2\lvgl\src\lv_objx\../lv_core/../lv_misc/lv_area.h ****  * Get the width of an area
  83:..\..\..\lvgl\version_6.1.2\lvgl\src\lv_objx\../lv_core/../lv_misc/lv_area.h ****  * @param area_p pointer to an area
  84:..\..\..\lvgl\version_6.1.2\lvgl\src\lv_objx\../lv_core/../lv_misc/lv_area.h ****  * @return the width of the area (if x1 == x2 -> width = 1)
  85:..\..\..\lvgl\version_6.1.2\lvgl\src\lv_objx\../lv_core/../lv_misc/lv_area.h ****  */
  86:..\..\..\lvgl\version_6.1.2\lvgl\src\lv_objx\../lv_core/../lv_misc/lv_area.h **** static inline lv_coord_t lv_area_get_width(const lv_area_t * area_p)
  87:..\..\..\lvgl\version_6.1.2\lvgl\src\lv_objx\../lv_core/../lv_misc/lv_area.h **** {
  65              		.loc 1 87 0
  66              		.cfi_startproc
  67              		@ args = 0, pretend = 0, frame = 8
  68              		@ frame_needed = 1, uses_anonymous_args = 0
  69              		@ link register save eliminated.
  70 0000 80B4     		push	{r7}
  71              		.cfi_def_cfa_offset 4
  72              		.cfi_offset 7, -4
  73 0002 83B0     		sub	sp, sp, #12
  74              		.cfi_def_cfa_offset 16
  75 0004 00AF     		add	r7, sp, #0
  76              		.cfi_def_cfa_register 7
  77 0006 7860     		str	r0, [r7, #4]
  88:..\..\..\lvgl\version_6.1.2\lvgl\src\lv_objx\../lv_core/../lv_misc/lv_area.h ****     return (lv_coord_t)(area_p->x2 - area_p->x1 + 1);
  78              		.loc 1 88 0
  79 0008 7B68     		ldr	r3, [r7, #4]
  80 000a B3F90430 		ldrsh	r3, [r3, #4]
  81 000e 9AB2     		uxth	r2, r3
  82 0010 7B68     		ldr	r3, [r7, #4]
  83 0012 B3F90030 		ldrsh	r3, [r3]
ARM GAS  C:\Users\tmj32\AppData\Local\Temp\ccyJ4BPG.s 			page 4


  84 0016 9BB2     		uxth	r3, r3
  85 0018 D31A     		subs	r3, r2, r3
  86 001a 9BB2     		uxth	r3, r3
  87 001c 0133     		adds	r3, r3, #1
  88 001e 9BB2     		uxth	r3, r3
  89 0020 1BB2     		sxth	r3, r3
  89:..\..\..\lvgl\version_6.1.2\lvgl\src\lv_objx\../lv_core/../lv_misc/lv_area.h **** }
  90              		.loc 1 89 0
  91 0022 1846     		mov	r0, r3
  92 0024 0C37     		adds	r7, r7, #12
  93              		.cfi_def_cfa_offset 4
  94 0026 BD46     		mov	sp, r7
  95              		.cfi_def_cfa_register 13
  96              		@ sp needed
  97 0028 5DF8047B 		ldr	r7, [sp], #4
  98              		.cfi_restore 7
  99              		.cfi_def_cfa_offset 0
 100 002c 7047     		bx	lr
 101              		.cfi_endproc
 102              	.LFE11:
 103              		.size	lv_area_get_width, .-lv_area_get_width
 104 002e 00BF     		.section	.text.lv_area_get_height,"ax",%progbits
 105              		.align	2
 106              		.thumb
 107              		.thumb_func
 108              		.type	lv_area_get_height, %function
 109              	lv_area_get_height:
 110              	.LFB12:
  90:..\..\..\lvgl\version_6.1.2\lvgl\src\lv_objx\../lv_core/../lv_misc/lv_area.h **** 
  91:..\..\..\lvgl\version_6.1.2\lvgl\src\lv_objx\../lv_core/../lv_misc/lv_area.h **** /**
  92:..\..\..\lvgl\version_6.1.2\lvgl\src\lv_objx\../lv_core/../lv_misc/lv_area.h ****  * Get the height of an area
  93:..\..\..\lvgl\version_6.1.2\lvgl\src\lv_objx\../lv_core/../lv_misc/lv_area.h ****  * @param area_p pointer to an area
  94:..\..\..\lvgl\version_6.1.2\lvgl\src\lv_objx\../lv_core/../lv_misc/lv_area.h ****  * @return the height of the area (if y1 == y2 -> height = 1)
  95:..\..\..\lvgl\version_6.1.2\lvgl\src\lv_objx\../lv_core/../lv_misc/lv_area.h ****  */
  96:..\..\..\lvgl\version_6.1.2\lvgl\src\lv_objx\../lv_core/../lv_misc/lv_area.h **** static inline lv_coord_t lv_area_get_height(const lv_area_t * area_p)
  97:..\..\..\lvgl\version_6.1.2\lvgl\src\lv_objx\../lv_core/../lv_misc/lv_area.h **** {
 111              		.loc 1 97 0
 112              		.cfi_startproc
 113              		@ args = 0, pretend = 0, frame = 8
 114              		@ frame_needed = 1, uses_anonymous_args = 0
 115              		@ link register save eliminated.
 116 0000 80B4     		push	{r7}
 117              		.cfi_def_cfa_offset 4
 118              		.cfi_offset 7, -4
 119 0002 83B0     		sub	sp, sp, #12
 120              		.cfi_def_cfa_offset 16
 121 0004 00AF     		add	r7, sp, #0
 122              		.cfi_def_cfa_register 7
 123 0006 7860     		str	r0, [r7, #4]
  98:..\..\..\lvgl\version_6.1.2\lvgl\src\lv_objx\../lv_core/../lv_misc/lv_area.h ****     return (lv_coord_t)(area_p->y2 - area_p->y1 + 1);
 124              		.loc 1 98 0
 125 0008 7B68     		ldr	r3, [r7, #4]
 126 000a B3F90630 		ldrsh	r3, [r3, #6]
 127 000e 9AB2     		uxth	r2, r3
 128 0010 7B68     		ldr	r3, [r7, #4]
 129 0012 B3F90230 		ldrsh	r3, [r3, #2]
 130 0016 9BB2     		uxth	r3, r3
ARM GAS  C:\Users\tmj32\AppData\Local\Temp\ccyJ4BPG.s 			page 5


 131 0018 D31A     		subs	r3, r2, r3
 132 001a 9BB2     		uxth	r3, r3
 133 001c 0133     		adds	r3, r3, #1
 134 001e 9BB2     		uxth	r3, r3
 135 0020 1BB2     		sxth	r3, r3
  99:..\..\..\lvgl\version_6.1.2\lvgl\src\lv_objx\../lv_core/../lv_misc/lv_area.h **** }
 136              		.loc 1 99 0
 137 0022 1846     		mov	r0, r3
 138 0024 0C37     		adds	r7, r7, #12
 139              		.cfi_def_cfa_offset 4
 140 0026 BD46     		mov	sp, r7
 141              		.cfi_def_cfa_register 13
 142              		@ sp needed
 143 0028 5DF8047B 		ldr	r7, [sp], #4
 144              		.cfi_restore 7
 145              		.cfi_def_cfa_offset 0
 146 002c 7047     		bx	lr
 147              		.cfi_endproc
 148              	.LFE12:
 149              		.size	lv_area_get_height, .-lv_area_get_height
 150 002e 00BF     		.section	.rodata
 151              		.align	2
 152              	.LC0:
 153 0000 42746E31 		.ascii	"Btn1\000"
 153      00
 154 0005 000000   		.align	2
 155              	.LC1:
 156 0008 42746E32 		.ascii	"Btn2\000"
 156      00
 157 000d 000000   		.align	2
 158              	.LC2:
 159 0010 42746E33 		.ascii	"Btn3\000"
 159      00
 160 0015 000000   		.align	2
 161              	.LC3:
 162 0018 0A00     		.ascii	"\012\000"
 163 001a 0000     		.align	2
 164              	.LC4:
 165 001c 42746E34 		.ascii	"Btn4\000"
 165      00
 166 0021 000000   		.align	2
 167              	.LC5:
 168 0024 42746E35 		.ascii	"Btn5\000"
 168      00
 169 0029 000000   		.align	2
 170              	.LC6:
 171 002c 00       		.ascii	"\000"
 172              		.data
 173              		.align	2
 174              		.type	lv_btnm_def_map, %object
 175              		.size	lv_btnm_def_map, 28
 176              	lv_btnm_def_map:
 177 0000 00000000 		.word	.LC0
 178 0004 08000000 		.word	.LC1
 179 0008 10000000 		.word	.LC2
 180 000c 18000000 		.word	.LC3
 181 0010 1C000000 		.word	.LC4
ARM GAS  C:\Users\tmj32\AppData\Local\Temp\ccyJ4BPG.s 			page 6


 182 0014 24000000 		.word	.LC5
 183 0018 2C000000 		.word	.LC6
 184              		.bss
 185              		.align	2
 186              	ancestor_design_f:
 187 0000 00000000 		.space	4
 188              		.align	2
 189              	ancestor_signal:
 190 0004 00000000 		.space	4
 191              		.section	.text.lv_btnm_create,"ax",%progbits
 192              		.align	2
 193              		.global	lv_btnm_create
 194              		.thumb
 195              		.thumb_func
 196              		.type	lv_btnm_create, %function
 197              	lv_btnm_create:
 198              	.LFB46:
 199              		.file 2 "..\\..\\..\\lvgl\\version_6.1.2\\lvgl\\src\\lv_objx\\lv_btnm.c"
   1:..\..\..\lvgl\version_6.1.2\lvgl\src\lv_objx/lv_btnm.c **** /**
   2:..\..\..\lvgl\version_6.1.2\lvgl\src\lv_objx/lv_btnm.c ****  * @file lv_btnm.c
   3:..\..\..\lvgl\version_6.1.2\lvgl\src\lv_objx/lv_btnm.c ****  *
   4:..\..\..\lvgl\version_6.1.2\lvgl\src\lv_objx/lv_btnm.c ****  */
   5:..\..\..\lvgl\version_6.1.2\lvgl\src\lv_objx/lv_btnm.c **** 
   6:..\..\..\lvgl\version_6.1.2\lvgl\src\lv_objx/lv_btnm.c **** /*********************
   7:..\..\..\lvgl\version_6.1.2\lvgl\src\lv_objx/lv_btnm.c ****  *      INCLUDES
   8:..\..\..\lvgl\version_6.1.2\lvgl\src\lv_objx/lv_btnm.c ****  *********************/
   9:..\..\..\lvgl\version_6.1.2\lvgl\src\lv_objx/lv_btnm.c **** #include "lv_btnm.h"
  10:..\..\..\lvgl\version_6.1.2\lvgl\src\lv_objx/lv_btnm.c **** #if LV_USE_BTNM != 0
  11:..\..\..\lvgl\version_6.1.2\lvgl\src\lv_objx/lv_btnm.c **** 
  12:..\..\..\lvgl\version_6.1.2\lvgl\src\lv_objx/lv_btnm.c **** #include "../lv_core/lv_debug.h"
  13:..\..\..\lvgl\version_6.1.2\lvgl\src\lv_objx/lv_btnm.c **** #include "../lv_core/lv_group.h"
  14:..\..\..\lvgl\version_6.1.2\lvgl\src\lv_objx/lv_btnm.c **** #include "../lv_draw/lv_draw.h"
  15:..\..\..\lvgl\version_6.1.2\lvgl\src\lv_objx/lv_btnm.c **** #include "../lv_core/lv_refr.h"
  16:..\..\..\lvgl\version_6.1.2\lvgl\src\lv_objx/lv_btnm.c **** #include "../lv_themes/lv_theme.h"
  17:..\..\..\lvgl\version_6.1.2\lvgl\src\lv_objx/lv_btnm.c **** #include "../lv_misc/lv_txt.h"
  18:..\..\..\lvgl\version_6.1.2\lvgl\src\lv_objx/lv_btnm.c **** 
  19:..\..\..\lvgl\version_6.1.2\lvgl\src\lv_objx/lv_btnm.c **** /*********************
  20:..\..\..\lvgl\version_6.1.2\lvgl\src\lv_objx/lv_btnm.c ****  *      DEFINES
  21:..\..\..\lvgl\version_6.1.2\lvgl\src\lv_objx/lv_btnm.c ****  *********************/
  22:..\..\..\lvgl\version_6.1.2\lvgl\src\lv_objx/lv_btnm.c **** #define LV_OBJX_NAME "lv_btnm"
  23:..\..\..\lvgl\version_6.1.2\lvgl\src\lv_objx/lv_btnm.c **** 
  24:..\..\..\lvgl\version_6.1.2\lvgl\src\lv_objx/lv_btnm.c **** /**********************
  25:..\..\..\lvgl\version_6.1.2\lvgl\src\lv_objx/lv_btnm.c ****  *      TYPEDEFS
  26:..\..\..\lvgl\version_6.1.2\lvgl\src\lv_objx/lv_btnm.c ****  **********************/
  27:..\..\..\lvgl\version_6.1.2\lvgl\src\lv_objx/lv_btnm.c **** 
  28:..\..\..\lvgl\version_6.1.2\lvgl\src\lv_objx/lv_btnm.c **** /**********************
  29:..\..\..\lvgl\version_6.1.2\lvgl\src\lv_objx/lv_btnm.c ****  *  STATIC PROTOTYPES
  30:..\..\..\lvgl\version_6.1.2\lvgl\src\lv_objx/lv_btnm.c ****  **********************/
  31:..\..\..\lvgl\version_6.1.2\lvgl\src\lv_objx/lv_btnm.c **** static lv_res_t lv_btnm_signal(lv_obj_t * btnm, lv_signal_t sign, void * param);
  32:..\..\..\lvgl\version_6.1.2\lvgl\src\lv_objx/lv_btnm.c **** static bool lv_btnm_design(lv_obj_t * btnm, const lv_area_t * mask, lv_design_mode_t mode);
  33:..\..\..\lvgl\version_6.1.2\lvgl\src\lv_objx/lv_btnm.c **** static uint8_t get_button_width(lv_btnm_ctrl_t ctrl_bits);
  34:..\..\..\lvgl\version_6.1.2\lvgl\src\lv_objx/lv_btnm.c **** static bool button_is_hidden(lv_btnm_ctrl_t ctrl_bits);
  35:..\..\..\lvgl\version_6.1.2\lvgl\src\lv_objx/lv_btnm.c **** static bool button_is_repeat_disabled(lv_btnm_ctrl_t ctrl_bits);
  36:..\..\..\lvgl\version_6.1.2\lvgl\src\lv_objx/lv_btnm.c **** static bool button_is_inactive(lv_btnm_ctrl_t ctrl_bits);
  37:..\..\..\lvgl\version_6.1.2\lvgl\src\lv_objx/lv_btnm.c **** static bool button_is_click_trig(lv_btnm_ctrl_t ctrl_bits);
  38:..\..\..\lvgl\version_6.1.2\lvgl\src\lv_objx/lv_btnm.c **** static bool button_is_tgl_enabled(lv_btnm_ctrl_t ctrl_bits);
  39:..\..\..\lvgl\version_6.1.2\lvgl\src\lv_objx/lv_btnm.c **** static bool button_get_tgl_state(lv_btnm_ctrl_t ctrl_bits);
ARM GAS  C:\Users\tmj32\AppData\Local\Temp\ccyJ4BPG.s 			page 7


  40:..\..\..\lvgl\version_6.1.2\lvgl\src\lv_objx/lv_btnm.c **** static uint16_t get_button_from_point(lv_obj_t * btnm, lv_point_t * p);
  41:..\..\..\lvgl\version_6.1.2\lvgl\src\lv_objx/lv_btnm.c **** static void allocate_btn_areas_and_controls(const lv_obj_t * btnm, const char ** map);
  42:..\..\..\lvgl\version_6.1.2\lvgl\src\lv_objx/lv_btnm.c **** static void invalidate_button_area(const lv_obj_t * btnm, uint16_t btn_idx);
  43:..\..\..\lvgl\version_6.1.2\lvgl\src\lv_objx/lv_btnm.c **** static bool maps_are_identical(const char ** map1, const char ** map2);
  44:..\..\..\lvgl\version_6.1.2\lvgl\src\lv_objx/lv_btnm.c **** static void make_one_button_toggled(lv_obj_t * btnm, uint16_t btn_idx);
  45:..\..\..\lvgl\version_6.1.2\lvgl\src\lv_objx/lv_btnm.c **** 
  46:..\..\..\lvgl\version_6.1.2\lvgl\src\lv_objx/lv_btnm.c **** /**********************
  47:..\..\..\lvgl\version_6.1.2\lvgl\src\lv_objx/lv_btnm.c ****  *  STATIC VARIABLES
  48:..\..\..\lvgl\version_6.1.2\lvgl\src\lv_objx/lv_btnm.c ****  **********************/
  49:..\..\..\lvgl\version_6.1.2\lvgl\src\lv_objx/lv_btnm.c **** static const char * lv_btnm_def_map[] = {"Btn1", "Btn2", "Btn3", "\n", "Btn4", "Btn5", ""};
  50:..\..\..\lvgl\version_6.1.2\lvgl\src\lv_objx/lv_btnm.c **** 
  51:..\..\..\lvgl\version_6.1.2\lvgl\src\lv_objx/lv_btnm.c **** static lv_design_cb_t ancestor_design_f;
  52:..\..\..\lvgl\version_6.1.2\lvgl\src\lv_objx/lv_btnm.c **** static lv_signal_cb_t ancestor_signal;
  53:..\..\..\lvgl\version_6.1.2\lvgl\src\lv_objx/lv_btnm.c **** 
  54:..\..\..\lvgl\version_6.1.2\lvgl\src\lv_objx/lv_btnm.c **** /**********************
  55:..\..\..\lvgl\version_6.1.2\lvgl\src\lv_objx/lv_btnm.c ****  *      MACROS
  56:..\..\..\lvgl\version_6.1.2\lvgl\src\lv_objx/lv_btnm.c ****  **********************/
  57:..\..\..\lvgl\version_6.1.2\lvgl\src\lv_objx/lv_btnm.c **** 
  58:..\..\..\lvgl\version_6.1.2\lvgl\src\lv_objx/lv_btnm.c **** /**********************
  59:..\..\..\lvgl\version_6.1.2\lvgl\src\lv_objx/lv_btnm.c ****  *   GLOBAL FUNCTIONS
  60:..\..\..\lvgl\version_6.1.2\lvgl\src\lv_objx/lv_btnm.c ****  **********************/
  61:..\..\..\lvgl\version_6.1.2\lvgl\src\lv_objx/lv_btnm.c **** 
  62:..\..\..\lvgl\version_6.1.2\lvgl\src\lv_objx/lv_btnm.c **** /**
  63:..\..\..\lvgl\version_6.1.2\lvgl\src\lv_objx/lv_btnm.c ****  * Create a button matrix objects
  64:..\..\..\lvgl\version_6.1.2\lvgl\src\lv_objx/lv_btnm.c ****  * @param par pointer to an object, it will be the parent of the new button matrix
  65:..\..\..\lvgl\version_6.1.2\lvgl\src\lv_objx/lv_btnm.c ****  * @param copy pointer to a button matrix object, if not NULL then the new object will be copied
  66:..\..\..\lvgl\version_6.1.2\lvgl\src\lv_objx/lv_btnm.c ****  * from it
  67:..\..\..\lvgl\version_6.1.2\lvgl\src\lv_objx/lv_btnm.c ****  * @return pointer to the created button matrix
  68:..\..\..\lvgl\version_6.1.2\lvgl\src\lv_objx/lv_btnm.c ****  */
  69:..\..\..\lvgl\version_6.1.2\lvgl\src\lv_objx/lv_btnm.c **** lv_obj_t * lv_btnm_create(lv_obj_t * par, const lv_obj_t * copy)
  70:..\..\..\lvgl\version_6.1.2\lvgl\src\lv_objx/lv_btnm.c **** {
 200              		.loc 2 70 0
 201              		.cfi_startproc
 202              		@ args = 0, pretend = 0, frame = 24
 203              		@ frame_needed = 1, uses_anonymous_args = 0
 204 0000 80B5     		push	{r7, lr}
 205              		.cfi_def_cfa_offset 8
 206              		.cfi_offset 7, -8
 207              		.cfi_offset 14, -4
 208 0002 86B0     		sub	sp, sp, #24
 209              		.cfi_def_cfa_offset 32
 210 0004 00AF     		add	r7, sp, #0
 211              		.cfi_def_cfa_register 7
 212 0006 7860     		str	r0, [r7, #4]
 213 0008 3960     		str	r1, [r7]
  71:..\..\..\lvgl\version_6.1.2\lvgl\src\lv_objx/lv_btnm.c ****     LV_LOG_TRACE("button matrix create started");
  72:..\..\..\lvgl\version_6.1.2\lvgl\src\lv_objx/lv_btnm.c **** 
  73:..\..\..\lvgl\version_6.1.2\lvgl\src\lv_objx/lv_btnm.c ****     /*Create the ancestor object*/
  74:..\..\..\lvgl\version_6.1.2\lvgl\src\lv_objx/lv_btnm.c ****     lv_obj_t * new_btnm = lv_obj_create(par, copy);
 214              		.loc 2 74 0
 215 000a 3968     		ldr	r1, [r7]
 216 000c 7868     		ldr	r0, [r7, #4]
 217 000e FFF7FEFF 		bl	lv_obj_create
 218 0012 7861     		str	r0, [r7, #20]
  75:..\..\..\lvgl\version_6.1.2\lvgl\src\lv_objx/lv_btnm.c ****     LV_ASSERT_MEM(new_btnm);
  76:..\..\..\lvgl\version_6.1.2\lvgl\src\lv_objx/lv_btnm.c ****     if(new_btnm == NULL) return NULL;
 219              		.loc 2 76 0
ARM GAS  C:\Users\tmj32\AppData\Local\Temp\ccyJ4BPG.s 			page 8


 220 0014 7B69     		ldr	r3, [r7, #20]
 221 0016 002B     		cmp	r3, #0
 222 0018 01D1     		bne	.L7
 223              		.loc 2 76 0 is_stmt 0 discriminator 1
 224 001a 0023     		movs	r3, #0
 225 001c B6E0     		b	.L8
 226              	.L7:
  77:..\..\..\lvgl\version_6.1.2\lvgl\src\lv_objx/lv_btnm.c **** 
  78:..\..\..\lvgl\version_6.1.2\lvgl\src\lv_objx/lv_btnm.c ****     if(ancestor_signal == NULL) ancestor_signal = lv_obj_get_signal_cb(new_btnm);
 227              		.loc 2 78 0 is_stmt 1
 228 001e 5D4B     		ldr	r3, .L16
 229 0020 1B68     		ldr	r3, [r3]
 230 0022 002B     		cmp	r3, #0
 231 0024 05D1     		bne	.L9
 232              		.loc 2 78 0 is_stmt 0 discriminator 1
 233 0026 7869     		ldr	r0, [r7, #20]
 234 0028 FFF7FEFF 		bl	lv_obj_get_signal_cb
 235 002c 0246     		mov	r2, r0
 236 002e 594B     		ldr	r3, .L16
 237 0030 1A60     		str	r2, [r3]
 238              	.L9:
  79:..\..\..\lvgl\version_6.1.2\lvgl\src\lv_objx/lv_btnm.c **** 
  80:..\..\..\lvgl\version_6.1.2\lvgl\src\lv_objx/lv_btnm.c ****     /*Allocate the object type specific extended data*/
  81:..\..\..\lvgl\version_6.1.2\lvgl\src\lv_objx/lv_btnm.c ****     lv_btnm_ext_t * ext = lv_obj_allocate_ext_attr(new_btnm, sizeof(lv_btnm_ext_t));
 239              		.loc 2 81 0 is_stmt 1
 240 0032 2821     		movs	r1, #40
 241 0034 7869     		ldr	r0, [r7, #20]
 242 0036 FFF7FEFF 		bl	lv_obj_allocate_ext_attr
 243 003a 3861     		str	r0, [r7, #16]
  82:..\..\..\lvgl\version_6.1.2\lvgl\src\lv_objx/lv_btnm.c ****     LV_ASSERT_MEM(ext);
  83:..\..\..\lvgl\version_6.1.2\lvgl\src\lv_objx/lv_btnm.c ****     if(ext == NULL) return NULL;
 244              		.loc 2 83 0
 245 003c 3B69     		ldr	r3, [r7, #16]
 246 003e 002B     		cmp	r3, #0
 247 0040 01D1     		bne	.L10
 248              		.loc 2 83 0 is_stmt 0 discriminator 1
 249 0042 0023     		movs	r3, #0
 250 0044 A2E0     		b	.L8
 251              	.L10:
  84:..\..\..\lvgl\version_6.1.2\lvgl\src\lv_objx/lv_btnm.c **** 
  85:..\..\..\lvgl\version_6.1.2\lvgl\src\lv_objx/lv_btnm.c ****     ext->btn_cnt                          = 0;
 252              		.loc 2 85 0 is_stmt 1
 253 0046 3B69     		ldr	r3, [r7, #16]
 254 0048 0022     		movs	r2, #0
 255 004a 1A84     		strh	r2, [r3, #32]	@ movhi
  86:..\..\..\lvgl\version_6.1.2\lvgl\src\lv_objx/lv_btnm.c ****     ext->btn_id_pr                        = LV_BTNM_BTN_NONE;
 256              		.loc 2 86 0
 257 004c 3B69     		ldr	r3, [r7, #16]
 258 004e 4FF6FF72 		movw	r2, #65535
 259 0052 5A84     		strh	r2, [r3, #34]	@ movhi
  87:..\..\..\lvgl\version_6.1.2\lvgl\src\lv_objx/lv_btnm.c ****     ext->btn_id_act                       = LV_BTNM_BTN_NONE;
 260              		.loc 2 87 0
 261 0054 3B69     		ldr	r3, [r7, #16]
 262 0056 4FF6FF72 		movw	r2, #65535
 263 005a 9A84     		strh	r2, [r3, #36]	@ movhi
  88:..\..\..\lvgl\version_6.1.2\lvgl\src\lv_objx/lv_btnm.c ****     ext->button_areas                     = NULL;
 264              		.loc 2 88 0
ARM GAS  C:\Users\tmj32\AppData\Local\Temp\ccyJ4BPG.s 			page 9


 265 005c 3B69     		ldr	r3, [r7, #16]
 266 005e 0022     		movs	r2, #0
 267 0060 5A60     		str	r2, [r3, #4]
  89:..\..\..\lvgl\version_6.1.2\lvgl\src\lv_objx/lv_btnm.c ****     ext->ctrl_bits                        = NULL;
 268              		.loc 2 89 0
 269 0062 3B69     		ldr	r3, [r7, #16]
 270 0064 0022     		movs	r2, #0
 271 0066 9A60     		str	r2, [r3, #8]
  90:..\..\..\lvgl\version_6.1.2\lvgl\src\lv_objx/lv_btnm.c ****     ext->map_p                            = NULL;
 272              		.loc 2 90 0
 273 0068 3B69     		ldr	r3, [r7, #16]
 274 006a 0022     		movs	r2, #0
 275 006c 1A60     		str	r2, [r3]
  91:..\..\..\lvgl\version_6.1.2\lvgl\src\lv_objx/lv_btnm.c ****     ext->recolor                          = 0;
 276              		.loc 2 91 0
 277 006e 3A69     		ldr	r2, [r7, #16]
 278 0070 92F82630 		ldrb	r3, [r2, #38]
 279 0074 6FF30003 		bfc	r3, #0, #1
 280 0078 82F82630 		strb	r3, [r2, #38]
  92:..\..\..\lvgl\version_6.1.2\lvgl\src\lv_objx/lv_btnm.c ****     ext->one_toggle                       = 0;
 281              		.loc 2 92 0
 282 007c 3A69     		ldr	r2, [r7, #16]
 283 007e 92F82630 		ldrb	r3, [r2, #38]
 284 0082 6FF34103 		bfc	r3, #1, #1
 285 0086 82F82630 		strb	r3, [r2, #38]
  93:..\..\..\lvgl\version_6.1.2\lvgl\src\lv_objx/lv_btnm.c ****     ext->styles_btn[LV_BTN_STATE_REL]     = &lv_style_btn_rel;
 286              		.loc 2 93 0
 287 008a 3B69     		ldr	r3, [r7, #16]
 288 008c 424A     		ldr	r2, .L16+4
 289 008e DA60     		str	r2, [r3, #12]
  94:..\..\..\lvgl\version_6.1.2\lvgl\src\lv_objx/lv_btnm.c ****     ext->styles_btn[LV_BTN_STATE_PR]      = &lv_style_btn_pr;
 290              		.loc 2 94 0
 291 0090 3B69     		ldr	r3, [r7, #16]
 292 0092 424A     		ldr	r2, .L16+8
 293 0094 1A61     		str	r2, [r3, #16]
  95:..\..\..\lvgl\version_6.1.2\lvgl\src\lv_objx/lv_btnm.c ****     ext->styles_btn[LV_BTN_STATE_TGL_REL] = &lv_style_btn_tgl_rel;
 294              		.loc 2 95 0
 295 0096 3B69     		ldr	r3, [r7, #16]
 296 0098 414A     		ldr	r2, .L16+12
 297 009a 5A61     		str	r2, [r3, #20]
  96:..\..\..\lvgl\version_6.1.2\lvgl\src\lv_objx/lv_btnm.c ****     ext->styles_btn[LV_BTN_STATE_TGL_PR]  = &lv_style_btn_tgl_pr;
 298              		.loc 2 96 0
 299 009c 3B69     		ldr	r3, [r7, #16]
 300 009e 414A     		ldr	r2, .L16+16
 301 00a0 9A61     		str	r2, [r3, #24]
  97:..\..\..\lvgl\version_6.1.2\lvgl\src\lv_objx/lv_btnm.c ****     ext->styles_btn[LV_BTN_STATE_INA]     = &lv_style_btn_ina;
 302              		.loc 2 97 0
 303 00a2 3B69     		ldr	r3, [r7, #16]
 304 00a4 404A     		ldr	r2, .L16+20
 305 00a6 DA61     		str	r2, [r3, #28]
  98:..\..\..\lvgl\version_6.1.2\lvgl\src\lv_objx/lv_btnm.c **** 
  99:..\..\..\lvgl\version_6.1.2\lvgl\src\lv_objx/lv_btnm.c ****     if(ancestor_design_f == NULL) ancestor_design_f = lv_obj_get_design_cb(new_btnm);
 306              		.loc 2 99 0
 307 00a8 404B     		ldr	r3, .L16+24
 308 00aa 1B68     		ldr	r3, [r3]
 309 00ac 002B     		cmp	r3, #0
 310 00ae 05D1     		bne	.L11
ARM GAS  C:\Users\tmj32\AppData\Local\Temp\ccyJ4BPG.s 			page 10


 311              		.loc 2 99 0 is_stmt 0 discriminator 1
 312 00b0 7869     		ldr	r0, [r7, #20]
 313 00b2 FFF7FEFF 		bl	lv_obj_get_design_cb
 314 00b6 0246     		mov	r2, r0
 315 00b8 3C4B     		ldr	r3, .L16+24
 316 00ba 1A60     		str	r2, [r3]
 317              	.L11:
 100:..\..\..\lvgl\version_6.1.2\lvgl\src\lv_objx/lv_btnm.c **** 
 101:..\..\..\lvgl\version_6.1.2\lvgl\src\lv_objx/lv_btnm.c ****     lv_obj_set_signal_cb(new_btnm, lv_btnm_signal);
 318              		.loc 2 101 0 is_stmt 1
 319 00bc 3C49     		ldr	r1, .L16+28
 320 00be 7869     		ldr	r0, [r7, #20]
 321 00c0 FFF7FEFF 		bl	lv_obj_set_signal_cb
 102:..\..\..\lvgl\version_6.1.2\lvgl\src\lv_objx/lv_btnm.c ****     lv_obj_set_design_cb(new_btnm, lv_btnm_design);
 322              		.loc 2 102 0
 323 00c4 3B49     		ldr	r1, .L16+32
 324 00c6 7869     		ldr	r0, [r7, #20]
 325 00c8 FFF7FEFF 		bl	lv_obj_set_design_cb
 103:..\..\..\lvgl\version_6.1.2\lvgl\src\lv_objx/lv_btnm.c **** 
 104:..\..\..\lvgl\version_6.1.2\lvgl\src\lv_objx/lv_btnm.c ****     /*Init the new button matrix object*/
 105:..\..\..\lvgl\version_6.1.2\lvgl\src\lv_objx/lv_btnm.c ****     if(copy == NULL) {
 326              		.loc 2 105 0
 327 00cc 3B68     		ldr	r3, [r7]
 328 00ce 002B     		cmp	r3, #0
 329 00d0 46D1     		bne	.L12
 330              	.LBB2:
 106:..\..\..\lvgl\version_6.1.2\lvgl\src\lv_objx/lv_btnm.c ****         lv_btnm_set_map(new_btnm, lv_btnm_def_map);
 331              		.loc 2 106 0
 332 00d2 3949     		ldr	r1, .L16+36
 333 00d4 7869     		ldr	r0, [r7, #20]
 334 00d6 FFF7FEFF 		bl	lv_btnm_set_map
 107:..\..\..\lvgl\version_6.1.2\lvgl\src\lv_objx/lv_btnm.c ****         lv_obj_set_size(new_btnm, LV_DPI * 3, LV_DPI * 2);
 335              		.loc 2 107 0
 336 00da 4FF49672 		mov	r2, #300
 337 00de 4FF4E171 		mov	r1, #450
 338 00e2 7869     		ldr	r0, [r7, #20]
 339 00e4 FFF7FEFF 		bl	lv_obj_set_size
 108:..\..\..\lvgl\version_6.1.2\lvgl\src\lv_objx/lv_btnm.c **** 
 109:..\..\..\lvgl\version_6.1.2\lvgl\src\lv_objx/lv_btnm.c ****         /*Set the default styles*/
 110:..\..\..\lvgl\version_6.1.2\lvgl\src\lv_objx/lv_btnm.c ****         lv_theme_t * th = lv_theme_get_current();
 340              		.loc 2 110 0
 341 00e8 FFF7FEFF 		bl	lv_theme_get_current
 342 00ec F860     		str	r0, [r7, #12]
 111:..\..\..\lvgl\version_6.1.2\lvgl\src\lv_objx/lv_btnm.c ****         if(th) {
 343              		.loc 2 111 0
 344 00ee FB68     		ldr	r3, [r7, #12]
 345 00f0 002B     		cmp	r3, #0
 346 00f2 30D0     		beq	.L13
 112:..\..\..\lvgl\version_6.1.2\lvgl\src\lv_objx/lv_btnm.c ****             lv_btnm_set_style(new_btnm, LV_BTNM_STYLE_BG, th->style.btnm.bg);
 347              		.loc 2 112 0
 348 00f4 FB68     		ldr	r3, [r7, #12]
 349 00f6 D3F8C430 		ldr	r3, [r3, #196]
 350 00fa 1A46     		mov	r2, r3
 351 00fc 0021     		movs	r1, #0
 352 00fe 7869     		ldr	r0, [r7, #20]
 353 0100 FFF7FEFF 		bl	lv_btnm_set_style
 113:..\..\..\lvgl\version_6.1.2\lvgl\src\lv_objx/lv_btnm.c ****             lv_btnm_set_style(new_btnm, LV_BTNM_STYLE_BTN_REL, th->style.btnm.btn.rel);
ARM GAS  C:\Users\tmj32\AppData\Local\Temp\ccyJ4BPG.s 			page 11


 354              		.loc 2 113 0
 355 0104 FB68     		ldr	r3, [r7, #12]
 356 0106 D3F8C830 		ldr	r3, [r3, #200]
 357 010a 1A46     		mov	r2, r3
 358 010c 0121     		movs	r1, #1
 359 010e 7869     		ldr	r0, [r7, #20]
 360 0110 FFF7FEFF 		bl	lv_btnm_set_style
 114:..\..\..\lvgl\version_6.1.2\lvgl\src\lv_objx/lv_btnm.c ****             lv_btnm_set_style(new_btnm, LV_BTNM_STYLE_BTN_PR, th->style.btnm.btn.pr);
 361              		.loc 2 114 0
 362 0114 FB68     		ldr	r3, [r7, #12]
 363 0116 D3F8CC30 		ldr	r3, [r3, #204]
 364 011a 1A46     		mov	r2, r3
 365 011c 0221     		movs	r1, #2
 366 011e 7869     		ldr	r0, [r7, #20]
 367 0120 FFF7FEFF 		bl	lv_btnm_set_style
 115:..\..\..\lvgl\version_6.1.2\lvgl\src\lv_objx/lv_btnm.c ****             lv_btnm_set_style(new_btnm, LV_BTNM_STYLE_BTN_TGL_REL, th->style.btnm.btn.tgl_rel);
 368              		.loc 2 115 0
 369 0124 FB68     		ldr	r3, [r7, #12]
 370 0126 D3F8D030 		ldr	r3, [r3, #208]
 371 012a 1A46     		mov	r2, r3
 372 012c 0321     		movs	r1, #3
 373 012e 7869     		ldr	r0, [r7, #20]
 374 0130 FFF7FEFF 		bl	lv_btnm_set_style
 116:..\..\..\lvgl\version_6.1.2\lvgl\src\lv_objx/lv_btnm.c ****             lv_btnm_set_style(new_btnm, LV_BTNM_STYLE_BTN_TGL_PR, th->style.btnm.btn.tgl_pr);
 375              		.loc 2 116 0
 376 0134 FB68     		ldr	r3, [r7, #12]
 377 0136 D3F8D430 		ldr	r3, [r3, #212]
 378 013a 1A46     		mov	r2, r3
 379 013c 0421     		movs	r1, #4
 380 013e 7869     		ldr	r0, [r7, #20]
 381 0140 FFF7FEFF 		bl	lv_btnm_set_style
 117:..\..\..\lvgl\version_6.1.2\lvgl\src\lv_objx/lv_btnm.c ****             lv_btnm_set_style(new_btnm, LV_BTNM_STYLE_BTN_INA, th->style.btnm.btn.ina);
 382              		.loc 2 117 0
 383 0144 FB68     		ldr	r3, [r7, #12]
 384 0146 D3F8D830 		ldr	r3, [r3, #216]
 385 014a 1A46     		mov	r2, r3
 386 014c 0521     		movs	r1, #5
 387 014e 7869     		ldr	r0, [r7, #20]
 388 0150 FFF7FEFF 		bl	lv_btnm_set_style
 389 0154 19E0     		b	.L15
 390              	.L13:
 118:..\..\..\lvgl\version_6.1.2\lvgl\src\lv_objx/lv_btnm.c ****         } else {
 119:..\..\..\lvgl\version_6.1.2\lvgl\src\lv_objx/lv_btnm.c ****             lv_obj_set_style(new_btnm, &lv_style_pretty);
 391              		.loc 2 119 0
 392 0156 1949     		ldr	r1, .L16+40
 393 0158 7869     		ldr	r0, [r7, #20]
 394 015a FFF7FEFF 		bl	lv_obj_set_style
 395 015e 14E0     		b	.L15
 396              	.L12:
 397              	.LBE2:
 398              	.LBB3:
 120:..\..\..\lvgl\version_6.1.2\lvgl\src\lv_objx/lv_btnm.c ****         }
 121:..\..\..\lvgl\version_6.1.2\lvgl\src\lv_objx/lv_btnm.c ****     }
 122:..\..\..\lvgl\version_6.1.2\lvgl\src\lv_objx/lv_btnm.c ****     /*Copy an existing object*/
 123:..\..\..\lvgl\version_6.1.2\lvgl\src\lv_objx/lv_btnm.c ****     else {
 124:..\..\..\lvgl\version_6.1.2\lvgl\src\lv_objx/lv_btnm.c ****         lv_btnm_ext_t * copy_ext = lv_obj_get_ext_attr(copy);
 399              		.loc 2 124 0
ARM GAS  C:\Users\tmj32\AppData\Local\Temp\ccyJ4BPG.s 			page 12


 400 0160 3868     		ldr	r0, [r7]
 401 0162 FFF7FEFF 		bl	lv_obj_get_ext_attr
 402 0166 B860     		str	r0, [r7, #8]
 125:..\..\..\lvgl\version_6.1.2\lvgl\src\lv_objx/lv_btnm.c ****         memcpy((void*)ext->styles_btn, copy_ext->styles_btn, sizeof(ext->styles_btn));
 403              		.loc 2 125 0
 404 0168 3B69     		ldr	r3, [r7, #16]
 405 016a 03F10C00 		add	r0, r3, #12
 406 016e BB68     		ldr	r3, [r7, #8]
 407 0170 0C33     		adds	r3, r3, #12
 408 0172 1422     		movs	r2, #20
 409 0174 1946     		mov	r1, r3
 410 0176 FFF7FEFF 		bl	memcpy
 126:..\..\..\lvgl\version_6.1.2\lvgl\src\lv_objx/lv_btnm.c ****         lv_btnm_set_map(new_btnm, lv_btnm_get_map_array(copy));
 411              		.loc 2 126 0
 412 017a 3868     		ldr	r0, [r7]
 413 017c FFF7FEFF 		bl	lv_btnm_get_map_array
 414 0180 0346     		mov	r3, r0
 415 0182 1946     		mov	r1, r3
 416 0184 7869     		ldr	r0, [r7, #20]
 417 0186 FFF7FEFF 		bl	lv_btnm_set_map
 418              	.L15:
 419              	.LBE3:
 127:..\..\..\lvgl\version_6.1.2\lvgl\src\lv_objx/lv_btnm.c ****     }
 128:..\..\..\lvgl\version_6.1.2\lvgl\src\lv_objx/lv_btnm.c **** 
 129:..\..\..\lvgl\version_6.1.2\lvgl\src\lv_objx/lv_btnm.c ****     LV_LOG_INFO("button matrix created");
 130:..\..\..\lvgl\version_6.1.2\lvgl\src\lv_objx/lv_btnm.c **** 
 131:..\..\..\lvgl\version_6.1.2\lvgl\src\lv_objx/lv_btnm.c ****     return new_btnm;
 420              		.loc 2 131 0
 421 018a 7B69     		ldr	r3, [r7, #20]
 422              	.L8:
 132:..\..\..\lvgl\version_6.1.2\lvgl\src\lv_objx/lv_btnm.c **** }
 423              		.loc 2 132 0
 424 018c 1846     		mov	r0, r3
 425 018e 1837     		adds	r7, r7, #24
 426              		.cfi_def_cfa_offset 8
 427 0190 BD46     		mov	sp, r7
 428              		.cfi_def_cfa_register 13
 429              		@ sp needed
 430 0192 80BD     		pop	{r7, pc}
 431              	.L17:
 432              		.align	2
 433              	.L16:
 434 0194 04000000 		.word	ancestor_signal
 435 0198 00000000 		.word	lv_style_btn_rel
 436 019c 00000000 		.word	lv_style_btn_pr
 437 01a0 00000000 		.word	lv_style_btn_tgl_rel
 438 01a4 00000000 		.word	lv_style_btn_tgl_pr
 439 01a8 00000000 		.word	lv_style_btn_ina
 440 01ac 00000000 		.word	ancestor_design_f
 441 01b0 00000000 		.word	lv_btnm_signal
 442 01b4 00000000 		.word	lv_btnm_design
 443 01b8 00000000 		.word	lv_btnm_def_map
 444 01bc 00000000 		.word	lv_style_pretty
 445              		.cfi_endproc
 446              	.LFE46:
 447              		.size	lv_btnm_create, .-lv_btnm_create
 448              		.section	.text.lv_btnm_set_map,"ax",%progbits
ARM GAS  C:\Users\tmj32\AppData\Local\Temp\ccyJ4BPG.s 			page 13


 449              		.align	2
 450              		.global	lv_btnm_set_map
 451              		.thumb
 452              		.thumb_func
 453              		.type	lv_btnm_set_map, %function
 454              	lv_btnm_set_map:
 455              	.LFB47:
 133:..\..\..\lvgl\version_6.1.2\lvgl\src\lv_objx/lv_btnm.c **** 
 134:..\..\..\lvgl\version_6.1.2\lvgl\src\lv_objx/lv_btnm.c **** /*=====================
 135:..\..\..\lvgl\version_6.1.2\lvgl\src\lv_objx/lv_btnm.c ****  * Setter functions
 136:..\..\..\lvgl\version_6.1.2\lvgl\src\lv_objx/lv_btnm.c ****  *====================*/
 137:..\..\..\lvgl\version_6.1.2\lvgl\src\lv_objx/lv_btnm.c **** 
 138:..\..\..\lvgl\version_6.1.2\lvgl\src\lv_objx/lv_btnm.c **** /**
 139:..\..\..\lvgl\version_6.1.2\lvgl\src\lv_objx/lv_btnm.c ****  * Set a new map. Buttons will be created/deleted according to the map. The
 140:..\..\..\lvgl\version_6.1.2\lvgl\src\lv_objx/lv_btnm.c ****  * button matrix keeps a reference to the map and so the string array must not
 141:..\..\..\lvgl\version_6.1.2\lvgl\src\lv_objx/lv_btnm.c ****  * be deallocated during the life of the matrix.
 142:..\..\..\lvgl\version_6.1.2\lvgl\src\lv_objx/lv_btnm.c ****  * @param btnm pointer to a button matrix object
 143:..\..\..\lvgl\version_6.1.2\lvgl\src\lv_objx/lv_btnm.c ****  * @param map pointer a string array. The last string has to be: "". Use "\n" to make a line break.
 144:..\..\..\lvgl\version_6.1.2\lvgl\src\lv_objx/lv_btnm.c ****  */
 145:..\..\..\lvgl\version_6.1.2\lvgl\src\lv_objx/lv_btnm.c **** void lv_btnm_set_map(const lv_obj_t * btnm, const char * map[])
 146:..\..\..\lvgl\version_6.1.2\lvgl\src\lv_objx/lv_btnm.c **** {
 456              		.loc 2 146 0
 457              		.cfi_startproc
 458              		@ args = 0, pretend = 0, frame = 56
 459              		@ frame_needed = 1, uses_anonymous_args = 0
 460 0000 90B5     		push	{r4, r7, lr}
 461              		.cfi_def_cfa_offset 12
 462              		.cfi_offset 4, -12
 463              		.cfi_offset 7, -8
 464              		.cfi_offset 14, -4
 465 0002 91B0     		sub	sp, sp, #68
 466              		.cfi_def_cfa_offset 80
 467 0004 02AF     		add	r7, sp, #8
 468              		.cfi_def_cfa 7, 72
 469 0006 7860     		str	r0, [r7, #4]
 470 0008 3960     		str	r1, [r7]
 147:..\..\..\lvgl\version_6.1.2\lvgl\src\lv_objx/lv_btnm.c ****     LV_ASSERT_OBJ(btnm, LV_OBJX_NAME);
 148:..\..\..\lvgl\version_6.1.2\lvgl\src\lv_objx/lv_btnm.c ****     LV_ASSERT_NULL(map);
 149:..\..\..\lvgl\version_6.1.2\lvgl\src\lv_objx/lv_btnm.c **** 
 150:..\..\..\lvgl\version_6.1.2\lvgl\src\lv_objx/lv_btnm.c ****     /*
 151:..\..\..\lvgl\version_6.1.2\lvgl\src\lv_objx/lv_btnm.c ****      * lv_btnm_set_map is called on receipt of signals such as
 152:..\..\..\lvgl\version_6.1.2\lvgl\src\lv_objx/lv_btnm.c ****      * LV_SIGNAL_CORD_CHG regardless of whether the map has changed (e.g.
 153:..\..\..\lvgl\version_6.1.2\lvgl\src\lv_objx/lv_btnm.c ****      * calling lv_obj_align on the map will trigger this).
 154:..\..\..\lvgl\version_6.1.2\lvgl\src\lv_objx/lv_btnm.c ****      *
 155:..\..\..\lvgl\version_6.1.2\lvgl\src\lv_objx/lv_btnm.c ****      * We check if the map has changed here to avoid overwriting changes made
 156:..\..\..\lvgl\version_6.1.2\lvgl\src\lv_objx/lv_btnm.c ****      * to hidden/longpress/disabled states after the map was originally set.
 157:..\..\..\lvgl\version_6.1.2\lvgl\src\lv_objx/lv_btnm.c ****      *
 158:..\..\..\lvgl\version_6.1.2\lvgl\src\lv_objx/lv_btnm.c ****      * TODO: separate all map set/allocation from layout code below and skip
 159:..\..\..\lvgl\version_6.1.2\lvgl\src\lv_objx/lv_btnm.c ****      * set/allocation when map hasn't changed.
 160:..\..\..\lvgl\version_6.1.2\lvgl\src\lv_objx/lv_btnm.c ****      */
 161:..\..\..\lvgl\version_6.1.2\lvgl\src\lv_objx/lv_btnm.c ****     lv_btnm_ext_t * ext = lv_obj_get_ext_attr(btnm);
 471              		.loc 2 161 0
 472 000a 7868     		ldr	r0, [r7, #4]
 473 000c FFF7FEFF 		bl	lv_obj_get_ext_attr
 474 0010 F861     		str	r0, [r7, #28]
 162:..\..\..\lvgl\version_6.1.2\lvgl\src\lv_objx/lv_btnm.c ****     if(!maps_are_identical(ext->map_p, map)) {
 475              		.loc 2 162 0
ARM GAS  C:\Users\tmj32\AppData\Local\Temp\ccyJ4BPG.s 			page 14


 476 0012 FB69     		ldr	r3, [r7, #28]
 477 0014 1B68     		ldr	r3, [r3]
 478 0016 3968     		ldr	r1, [r7]
 479 0018 1846     		mov	r0, r3
 480 001a FFF7FEFF 		bl	maps_are_identical
 481 001e 0346     		mov	r3, r0
 482 0020 83F00103 		eor	r3, r3, #1
 483 0024 DBB2     		uxtb	r3, r3
 484 0026 002B     		cmp	r3, #0
 485 0028 03D0     		beq	.L19
 163:..\..\..\lvgl\version_6.1.2\lvgl\src\lv_objx/lv_btnm.c **** 
 164:..\..\..\lvgl\version_6.1.2\lvgl\src\lv_objx/lv_btnm.c ****         /*Analyze the map and create the required number of buttons*/
 165:..\..\..\lvgl\version_6.1.2\lvgl\src\lv_objx/lv_btnm.c ****         allocate_btn_areas_and_controls(btnm, map);
 486              		.loc 2 165 0
 487 002a 3968     		ldr	r1, [r7]
 488 002c 7868     		ldr	r0, [r7, #4]
 489 002e FFF7FEFF 		bl	allocate_btn_areas_and_controls
 490              	.L19:
 166:..\..\..\lvgl\version_6.1.2\lvgl\src\lv_objx/lv_btnm.c ****     }
 167:..\..\..\lvgl\version_6.1.2\lvgl\src\lv_objx/lv_btnm.c ****     ext->map_p = map;
 491              		.loc 2 167 0
 492 0032 FB69     		ldr	r3, [r7, #28]
 493 0034 3A68     		ldr	r2, [r7]
 494 0036 1A60     		str	r2, [r3]
 168:..\..\..\lvgl\version_6.1.2\lvgl\src\lv_objx/lv_btnm.c **** 
 169:..\..\..\lvgl\version_6.1.2\lvgl\src\lv_objx/lv_btnm.c ****     /*Set size and positions of the buttons*/
 170:..\..\..\lvgl\version_6.1.2\lvgl\src\lv_objx/lv_btnm.c ****     const lv_style_t * style_bg = lv_btnm_get_style(btnm, LV_BTNM_STYLE_BG);
 495              		.loc 2 170 0
 496 0038 0021     		movs	r1, #0
 497 003a 7868     		ldr	r0, [r7, #4]
 498 003c FFF7FEFF 		bl	lv_btnm_get_style
 499 0040 B861     		str	r0, [r7, #24]
 171:..\..\..\lvgl\version_6.1.2\lvgl\src\lv_objx/lv_btnm.c ****     lv_coord_t max_w            = lv_obj_get_width(btnm) - style_bg->body.padding.left - style_bg->
 500              		.loc 2 171 0
 501 0042 7868     		ldr	r0, [r7, #4]
 502 0044 FFF7FEFF 		bl	lv_obj_get_width
 503 0048 0346     		mov	r3, r0
 504 004a 9AB2     		uxth	r2, r3
 505 004c BB69     		ldr	r3, [r7, #24]
 506 004e B3F92430 		ldrsh	r3, [r3, #36]
 507 0052 9BB2     		uxth	r3, r3
 508 0054 D31A     		subs	r3, r2, r3
 509 0056 9AB2     		uxth	r2, r3
 510 0058 BB69     		ldr	r3, [r7, #24]
 511 005a B3F92630 		ldrsh	r3, [r3, #38]
 512 005e 9BB2     		uxth	r3, r3
 513 0060 D31A     		subs	r3, r2, r3
 514 0062 9BB2     		uxth	r3, r3
 515 0064 FB82     		strh	r3, [r7, #22]	@ movhi
 172:..\..\..\lvgl\version_6.1.2\lvgl\src\lv_objx/lv_btnm.c ****     lv_coord_t max_h            = lv_obj_get_height(btnm) - style_bg->body.padding.top - style_bg->
 516              		.loc 2 172 0
 517 0066 7868     		ldr	r0, [r7, #4]
 518 0068 FFF7FEFF 		bl	lv_obj_get_height
 519 006c 0346     		mov	r3, r0
 520 006e 9AB2     		uxth	r2, r3
 521 0070 BB69     		ldr	r3, [r7, #24]
 522 0072 B3F92030 		ldrsh	r3, [r3, #32]
ARM GAS  C:\Users\tmj32\AppData\Local\Temp\ccyJ4BPG.s 			page 15


 523 0076 9BB2     		uxth	r3, r3
 524 0078 D31A     		subs	r3, r2, r3
 525 007a 9AB2     		uxth	r2, r3
 526 007c BB69     		ldr	r3, [r7, #24]
 527 007e B3F92230 		ldrsh	r3, [r3, #34]
 528 0082 9BB2     		uxth	r3, r3
 529 0084 D31A     		subs	r3, r2, r3
 530 0086 9BB2     		uxth	r3, r3
 531 0088 BB82     		strh	r3, [r7, #20]	@ movhi
 173:..\..\..\lvgl\version_6.1.2\lvgl\src\lv_objx/lv_btnm.c ****     lv_coord_t act_y            = style_bg->body.padding.top;
 532              		.loc 2 173 0
 533 008a BB69     		ldr	r3, [r7, #24]
 534 008c 1B8C     		ldrh	r3, [r3, #32]	@ movhi
 535 008e FB86     		strh	r3, [r7, #54]	@ movhi
 174:..\..\..\lvgl\version_6.1.2\lvgl\src\lv_objx/lv_btnm.c **** 
 175:..\..\..\lvgl\version_6.1.2\lvgl\src\lv_objx/lv_btnm.c ****     /*Count the lines to calculate button height*/
 176:..\..\..\lvgl\version_6.1.2\lvgl\src\lv_objx/lv_btnm.c ****     uint8_t line_cnt = 1;
 536              		.loc 2 176 0
 537 0090 0123     		movs	r3, #1
 538 0092 87F83530 		strb	r3, [r7, #53]
 177:..\..\..\lvgl\version_6.1.2\lvgl\src\lv_objx/lv_btnm.c ****     uint8_t li;
 178:..\..\..\lvgl\version_6.1.2\lvgl\src\lv_objx/lv_btnm.c ****     for(li = 0; strlen(map[li]) != 0; li++) {
 539              		.loc 2 178 0
 540 0096 0023     		movs	r3, #0
 541 0098 87F83430 		strb	r3, [r7, #52]
 542 009c 16E0     		b	.L20
 543              	.L22:
 179:..\..\..\lvgl\version_6.1.2\lvgl\src\lv_objx/lv_btnm.c ****         if(strcmp(map[li], "\n") == 0) line_cnt++;
 544              		.loc 2 179 0
 545 009e 97F83430 		ldrb	r3, [r7, #52]	@ zero_extendqisi2
 546 00a2 9B00     		lsls	r3, r3, #2
 547 00a4 3A68     		ldr	r2, [r7]
 548 00a6 1344     		add	r3, r3, r2
 549 00a8 1B68     		ldr	r3, [r3]
 550 00aa 9349     		ldr	r1, .L39
 551 00ac 1846     		mov	r0, r3
 552 00ae FFF7FEFF 		bl	strcmp
 553 00b2 0346     		mov	r3, r0
 554 00b4 002B     		cmp	r3, #0
 555 00b6 04D1     		bne	.L21
 556              		.loc 2 179 0 is_stmt 0 discriminator 1
 557 00b8 97F83530 		ldrb	r3, [r7, #53]	@ zero_extendqisi2
 558 00bc 0133     		adds	r3, r3, #1
 559 00be 87F83530 		strb	r3, [r7, #53]
 560              	.L21:
 178:..\..\..\lvgl\version_6.1.2\lvgl\src\lv_objx/lv_btnm.c ****         if(strcmp(map[li], "\n") == 0) line_cnt++;
 561              		.loc 2 178 0 is_stmt 1 discriminator 2
 562 00c2 97F83430 		ldrb	r3, [r7, #52]	@ zero_extendqisi2
 563 00c6 0133     		adds	r3, r3, #1
 564 00c8 87F83430 		strb	r3, [r7, #52]
 565              	.L20:
 178:..\..\..\lvgl\version_6.1.2\lvgl\src\lv_objx/lv_btnm.c ****         if(strcmp(map[li], "\n") == 0) line_cnt++;
 566              		.loc 2 178 0 is_stmt 0 discriminator 1
 567 00cc 97F83430 		ldrb	r3, [r7, #52]	@ zero_extendqisi2
 568 00d0 9B00     		lsls	r3, r3, #2
 569 00d2 3A68     		ldr	r2, [r7]
 570 00d4 1344     		add	r3, r3, r2
ARM GAS  C:\Users\tmj32\AppData\Local\Temp\ccyJ4BPG.s 			page 16


 571 00d6 1B68     		ldr	r3, [r3]
 572 00d8 1B78     		ldrb	r3, [r3]	@ zero_extendqisi2
 573 00da 002B     		cmp	r3, #0
 574 00dc DFD1     		bne	.L22
 180:..\..\..\lvgl\version_6.1.2\lvgl\src\lv_objx/lv_btnm.c ****     }
 181:..\..\..\lvgl\version_6.1.2\lvgl\src\lv_objx/lv_btnm.c **** 
 182:..\..\..\lvgl\version_6.1.2\lvgl\src\lv_objx/lv_btnm.c ****     lv_coord_t btn_h = max_h - ((line_cnt - 1) * style_bg->body.padding.inner);
 575              		.loc 2 182 0 is_stmt 1
 576 00de BA8A     		ldrh	r2, [r7, #20]
 577 00e0 97F83530 		ldrb	r3, [r7, #53]	@ zero_extendqisi2
 578 00e4 013B     		subs	r3, r3, #1
 579 00e6 99B2     		uxth	r1, r3
 580 00e8 BB69     		ldr	r3, [r7, #24]
 581 00ea B3F92830 		ldrsh	r3, [r3, #40]
 582 00ee 9BB2     		uxth	r3, r3
 583 00f0 11FB03F3 		smulbb	r3, r1, r3
 584 00f4 9BB2     		uxth	r3, r3
 585 00f6 D31A     		subs	r3, r2, r3
 586 00f8 9BB2     		uxth	r3, r3
 587 00fa 7B86     		strh	r3, [r7, #50]	@ movhi
 183:..\..\..\lvgl\version_6.1.2\lvgl\src\lv_objx/lv_btnm.c ****     btn_h            = btn_h / line_cnt;
 588              		.loc 2 183 0
 589 00fc B7F93220 		ldrsh	r2, [r7, #50]
 590 0100 97F83530 		ldrb	r3, [r7, #53]	@ zero_extendqisi2
 591 0104 92FBF3F3 		sdiv	r3, r2, r3
 592 0108 7B86     		strh	r3, [r7, #50]	@ movhi
 184:..\..\..\lvgl\version_6.1.2\lvgl\src\lv_objx/lv_btnm.c ****     btn_h--; /*-1 because e.g. height = 100 means 101 pixels (0..100)*/
 593              		.loc 2 184 0
 594 010a B7F93230 		ldrsh	r3, [r7, #50]
 595 010e 9BB2     		uxth	r3, r3
 596 0110 013B     		subs	r3, r3, #1
 597 0112 9BB2     		uxth	r3, r3
 598 0114 7B86     		strh	r3, [r7, #50]	@ movhi
 185:..\..\..\lvgl\version_6.1.2\lvgl\src\lv_objx/lv_btnm.c **** 
 186:..\..\..\lvgl\version_6.1.2\lvgl\src\lv_objx/lv_btnm.c ****     /* Count the units and the buttons in a line
 187:..\..\..\lvgl\version_6.1.2\lvgl\src\lv_objx/lv_btnm.c ****      * (A button can be 1,2,3... unit wide)*/
 188:..\..\..\lvgl\version_6.1.2\lvgl\src\lv_objx/lv_btnm.c ****     uint16_t unit_cnt;           /*Number of units in a row*/
 189:..\..\..\lvgl\version_6.1.2\lvgl\src\lv_objx/lv_btnm.c ****     uint16_t unit_act_cnt;       /*Number of units currently put in a row*/
 190:..\..\..\lvgl\version_6.1.2\lvgl\src\lv_objx/lv_btnm.c ****     uint16_t btn_cnt;            /*Number of buttons in a row*/
 191:..\..\..\lvgl\version_6.1.2\lvgl\src\lv_objx/lv_btnm.c ****     uint16_t i_tot          = 0; /*Act. index in the str map*/
 599              		.loc 2 191 0
 600 0116 0023     		movs	r3, #0
 601 0118 7B85     		strh	r3, [r7, #42]	@ movhi
 192:..\..\..\lvgl\version_6.1.2\lvgl\src\lv_objx/lv_btnm.c ****     uint16_t btn_i          = 0; /*Act. index of button areas*/
 602              		.loc 2 192 0
 603 011a 0023     		movs	r3, #0
 604 011c 3B85     		strh	r3, [r7, #40]	@ movhi
 193:..\..\..\lvgl\version_6.1.2\lvgl\src\lv_objx/lv_btnm.c ****     const char ** map_p_tmp = map;
 605              		.loc 2 193 0
 606 011e 3B68     		ldr	r3, [r7]
 607 0120 7B62     		str	r3, [r7, #36]
 608              	.L36:
 609              	.LBB4:
 194:..\..\..\lvgl\version_6.1.2\lvgl\src\lv_objx/lv_btnm.c **** 
 195:..\..\..\lvgl\version_6.1.2\lvgl\src\lv_objx/lv_btnm.c ****     /*Count the units and the buttons in a line*/
 196:..\..\..\lvgl\version_6.1.2\lvgl\src\lv_objx/lv_btnm.c ****     while(1) {
 197:..\..\..\lvgl\version_6.1.2\lvgl\src\lv_objx/lv_btnm.c ****         unit_cnt = 0;
ARM GAS  C:\Users\tmj32\AppData\Local\Temp\ccyJ4BPG.s 			page 17


 610              		.loc 2 197 0
 611 0122 0023     		movs	r3, #0
 612 0124 3B86     		strh	r3, [r7, #48]	@ movhi
 198:..\..\..\lvgl\version_6.1.2\lvgl\src\lv_objx/lv_btnm.c ****         btn_cnt  = 0;
 613              		.loc 2 198 0
 614 0126 0023     		movs	r3, #0
 615 0128 BB85     		strh	r3, [r7, #44]	@ movhi
 199:..\..\..\lvgl\version_6.1.2\lvgl\src\lv_objx/lv_btnm.c ****         /*Count the buttons in a line*/
 200:..\..\..\lvgl\version_6.1.2\lvgl\src\lv_objx/lv_btnm.c ****         while(strcmp(map_p_tmp[btn_cnt], "\n") != 0 && strlen(map_p_tmp[btn_cnt]) != 0) { /*Check a
 616              		.loc 2 200 0
 617 012a 12E0     		b	.L23
 618              	.L25:
 201:..\..\..\lvgl\version_6.1.2\lvgl\src\lv_objx/lv_btnm.c ****             unit_cnt += get_button_width(ext->ctrl_bits[btn_i + btn_cnt]);
 619              		.loc 2 201 0
 620 012c FB69     		ldr	r3, [r7, #28]
 621 012e 9A68     		ldr	r2, [r3, #8]
 622 0130 398D     		ldrh	r1, [r7, #40]
 623 0132 BB8D     		ldrh	r3, [r7, #44]
 624 0134 0B44     		add	r3, r3, r1
 625 0136 5B00     		lsls	r3, r3, #1
 626 0138 1344     		add	r3, r3, r2
 627 013a 1B88     		ldrh	r3, [r3]
 628 013c 1846     		mov	r0, r3
 629 013e FFF7FEFF 		bl	get_button_width
 630 0142 0346     		mov	r3, r0
 631 0144 9AB2     		uxth	r2, r3
 632 0146 3B8E     		ldrh	r3, [r7, #48]	@ movhi
 633 0148 1344     		add	r3, r3, r2
 634 014a 3B86     		strh	r3, [r7, #48]	@ movhi
 202:..\..\..\lvgl\version_6.1.2\lvgl\src\lv_objx/lv_btnm.c ****             btn_cnt++;
 635              		.loc 2 202 0
 636 014c BB8D     		ldrh	r3, [r7, #44]
 637 014e 0133     		adds	r3, r3, #1
 638 0150 BB85     		strh	r3, [r7, #44]	@ movhi
 639              	.L23:
 200:..\..\..\lvgl\version_6.1.2\lvgl\src\lv_objx/lv_btnm.c ****             unit_cnt += get_button_width(ext->ctrl_bits[btn_i + btn_cnt]);
 640              		.loc 2 200 0
 641 0152 BB8D     		ldrh	r3, [r7, #44]
 642 0154 9B00     		lsls	r3, r3, #2
 643 0156 7A6A     		ldr	r2, [r7, #36]
 644 0158 1344     		add	r3, r3, r2
 645 015a 1B68     		ldr	r3, [r3]
 646 015c 6649     		ldr	r1, .L39
 647 015e 1846     		mov	r0, r3
 648 0160 FFF7FEFF 		bl	strcmp
 649 0164 0346     		mov	r3, r0
 650 0166 002B     		cmp	r3, #0
 651 0168 07D0     		beq	.L24
 200:..\..\..\lvgl\version_6.1.2\lvgl\src\lv_objx/lv_btnm.c ****             unit_cnt += get_button_width(ext->ctrl_bits[btn_i + btn_cnt]);
 652              		.loc 2 200 0 is_stmt 0 discriminator 1
 653 016a BB8D     		ldrh	r3, [r7, #44]
 654 016c 9B00     		lsls	r3, r3, #2
 655 016e 7A6A     		ldr	r2, [r7, #36]
 656 0170 1344     		add	r3, r3, r2
 657 0172 1B68     		ldr	r3, [r3]
 658 0174 1B78     		ldrb	r3, [r3]	@ zero_extendqisi2
 659 0176 002B     		cmp	r3, #0
ARM GAS  C:\Users\tmj32\AppData\Local\Temp\ccyJ4BPG.s 			page 18


 660 0178 D8D1     		bne	.L25
 661              	.L24:
 203:..\..\..\lvgl\version_6.1.2\lvgl\src\lv_objx/lv_btnm.c ****         }
 204:..\..\..\lvgl\version_6.1.2\lvgl\src\lv_objx/lv_btnm.c **** 
 205:..\..\..\lvgl\version_6.1.2\lvgl\src\lv_objx/lv_btnm.c ****         /*Make sure the last row is at the bottom of 'btnm'*/
 206:..\..\..\lvgl\version_6.1.2\lvgl\src\lv_objx/lv_btnm.c ****         if(map_p_tmp[btn_cnt][0] == '\0') { /*Last row?*/
 662              		.loc 2 206 0 is_stmt 1
 663 017a BB8D     		ldrh	r3, [r7, #44]
 664 017c 9B00     		lsls	r3, r3, #2
 665 017e 7A6A     		ldr	r2, [r7, #36]
 666 0180 1344     		add	r3, r3, r2
 667 0182 1B68     		ldr	r3, [r3]
 668 0184 1B78     		ldrb	r3, [r3]	@ zero_extendqisi2
 669 0186 002B     		cmp	r3, #0
 670 0188 10D1     		bne	.L26
 207:..\..\..\lvgl\version_6.1.2\lvgl\src\lv_objx/lv_btnm.c ****             btn_h = lv_obj_get_height(btnm)- act_y - style_bg->body.padding.bottom - 1;
 671              		.loc 2 207 0
 672 018a 7868     		ldr	r0, [r7, #4]
 673 018c FFF7FEFF 		bl	lv_obj_get_height
 674 0190 0346     		mov	r3, r0
 675 0192 9AB2     		uxth	r2, r3
 676 0194 FB8E     		ldrh	r3, [r7, #54]
 677 0196 D31A     		subs	r3, r2, r3
 678 0198 9AB2     		uxth	r2, r3
 679 019a BB69     		ldr	r3, [r7, #24]
 680 019c B3F92230 		ldrsh	r3, [r3, #34]
 681 01a0 9BB2     		uxth	r3, r3
 682 01a2 D31A     		subs	r3, r2, r3
 683 01a4 9BB2     		uxth	r3, r3
 684 01a6 013B     		subs	r3, r3, #1
 685 01a8 9BB2     		uxth	r3, r3
 686 01aa 7B86     		strh	r3, [r7, #50]	@ movhi
 687              	.L26:
 208:..\..\..\lvgl\version_6.1.2\lvgl\src\lv_objx/lv_btnm.c ****         }
 209:..\..\..\lvgl\version_6.1.2\lvgl\src\lv_objx/lv_btnm.c **** 
 210:..\..\..\lvgl\version_6.1.2\lvgl\src\lv_objx/lv_btnm.c ****         lv_bidi_dir_t base_dir = lv_obj_get_base_dir(btnm);
 688              		.loc 2 210 0
 689 01ac 7868     		ldr	r0, [r7, #4]
 690 01ae FFF7FEFF 		bl	lv_obj_get_base_dir
 691 01b2 0346     		mov	r3, r0
 692 01b4 FB74     		strb	r3, [r7, #19]
 211:..\..\..\lvgl\version_6.1.2\lvgl\src\lv_objx/lv_btnm.c **** 
 212:..\..\..\lvgl\version_6.1.2\lvgl\src\lv_objx/lv_btnm.c ****         /*Only deal with the non empty lines*/
 213:..\..\..\lvgl\version_6.1.2\lvgl\src\lv_objx/lv_btnm.c ****         if(btn_cnt != 0) {
 693              		.loc 2 213 0
 694 01b6 BB8D     		ldrh	r3, [r7, #44]
 695 01b8 002B     		cmp	r3, #0
 696 01ba 00F0D280 		beq	.L27
 697              	.LBB5:
 214:..\..\..\lvgl\version_6.1.2\lvgl\src\lv_objx/lv_btnm.c ****             /*Calculate the width of all units*/
 215:..\..\..\lvgl\version_6.1.2\lvgl\src\lv_objx/lv_btnm.c ****             lv_coord_t all_unit_w = max_w - ((btn_cnt - 1) * style_bg->body.padding.inner);
 698              		.loc 2 215 0
 699 01be FA8A     		ldrh	r2, [r7, #22]
 700 01c0 BB8D     		ldrh	r3, [r7, #44]
 701 01c2 013B     		subs	r3, r3, #1
 702 01c4 99B2     		uxth	r1, r3
 703 01c6 BB69     		ldr	r3, [r7, #24]
ARM GAS  C:\Users\tmj32\AppData\Local\Temp\ccyJ4BPG.s 			page 19


 704 01c8 B3F92830 		ldrsh	r3, [r3, #40]
 705 01cc 9BB2     		uxth	r3, r3
 706 01ce 11FB03F3 		smulbb	r3, r1, r3
 707 01d2 9BB2     		uxth	r3, r3
 708 01d4 D31A     		subs	r3, r2, r3
 709 01d6 9BB2     		uxth	r3, r3
 710 01d8 3B82     		strh	r3, [r7, #16]	@ movhi
 216:..\..\..\lvgl\version_6.1.2\lvgl\src\lv_objx/lv_btnm.c **** 
 217:..\..\..\lvgl\version_6.1.2\lvgl\src\lv_objx/lv_btnm.c ****             /*Set the button size and positions and set the texts*/
 218:..\..\..\lvgl\version_6.1.2\lvgl\src\lv_objx/lv_btnm.c ****             uint16_t i;
 219:..\..\..\lvgl\version_6.1.2\lvgl\src\lv_objx/lv_btnm.c ****             lv_coord_t act_x;
 220:..\..\..\lvgl\version_6.1.2\lvgl\src\lv_objx/lv_btnm.c **** 
 221:..\..\..\lvgl\version_6.1.2\lvgl\src\lv_objx/lv_btnm.c ****             lv_coord_t act_unit_w;
 222:..\..\..\lvgl\version_6.1.2\lvgl\src\lv_objx/lv_btnm.c ****             unit_act_cnt = 0;
 711              		.loc 2 222 0
 712 01da 0023     		movs	r3, #0
 713 01dc FB85     		strh	r3, [r7, #46]	@ movhi
 223:..\..\..\lvgl\version_6.1.2\lvgl\src\lv_objx/lv_btnm.c ****             for(i = 0; i < btn_cnt; i++) {
 714              		.loc 2 223 0
 715 01de 0023     		movs	r3, #0
 716 01e0 7B84     		strh	r3, [r7, #34]	@ movhi
 717 01e2 B9E0     		b	.L28
 718              	.L33:
 224:..\..\..\lvgl\version_6.1.2\lvgl\src\lv_objx/lv_btnm.c ****                 /* one_unit_w = all_unit_w / unit_cnt
 225:..\..\..\lvgl\version_6.1.2\lvgl\src\lv_objx/lv_btnm.c ****                  * act_unit_w = one_unit_w * button_width
 226:..\..\..\lvgl\version_6.1.2\lvgl\src\lv_objx/lv_btnm.c ****                  * do this two operations but the multiply first to divide a greater number */
 227:..\..\..\lvgl\version_6.1.2\lvgl\src\lv_objx/lv_btnm.c ****                 act_unit_w = (all_unit_w * get_button_width(ext->ctrl_bits[btn_i])) / unit_cnt;
 719              		.loc 2 227 0
 720 01e4 B7F91040 		ldrsh	r4, [r7, #16]
 721 01e8 FB69     		ldr	r3, [r7, #28]
 722 01ea 9A68     		ldr	r2, [r3, #8]
 723 01ec 3B8D     		ldrh	r3, [r7, #40]
 724 01ee 5B00     		lsls	r3, r3, #1
 725 01f0 1344     		add	r3, r3, r2
 726 01f2 1B88     		ldrh	r3, [r3]
 727 01f4 1846     		mov	r0, r3
 728 01f6 FFF7FEFF 		bl	get_button_width
 729 01fa 0346     		mov	r3, r0
 730 01fc 03FB04F2 		mul	r2, r3, r4
 731 0200 3B8E     		ldrh	r3, [r7, #48]
 732 0202 92FBF3F3 		sdiv	r3, r2, r3
 733 0206 FB81     		strh	r3, [r7, #14]	@ movhi
 228:..\..\..\lvgl\version_6.1.2\lvgl\src\lv_objx/lv_btnm.c ****                 act_unit_w--; /*-1 because e.g. width = 100 means 101 pixels (0..100)*/
 734              		.loc 2 228 0
 735 0208 B7F90E30 		ldrsh	r3, [r7, #14]
 736 020c 9BB2     		uxth	r3, r3
 737 020e 013B     		subs	r3, r3, #1
 738 0210 9BB2     		uxth	r3, r3
 739 0212 FB81     		strh	r3, [r7, #14]	@ movhi
 229:..\..\..\lvgl\version_6.1.2\lvgl\src\lv_objx/lv_btnm.c **** 
 230:..\..\..\lvgl\version_6.1.2\lvgl\src\lv_objx/lv_btnm.c ****                 /*Always recalculate act_x because of rounding errors */
 231:..\..\..\lvgl\version_6.1.2\lvgl\src\lv_objx/lv_btnm.c ****                 if(base_dir == LV_BIDI_DIR_RTL)  {
 740              		.loc 2 231 0
 741 0214 FB7C     		ldrb	r3, [r7, #19]	@ zero_extendqisi2
 742 0216 012B     		cmp	r3, #1
 743 0218 28D1     		bne	.L29
 232:..\..\..\lvgl\version_6.1.2\lvgl\src\lv_objx/lv_btnm.c ****                     act_x = (unit_act_cnt * all_unit_w) / unit_cnt + i * style_bg->body.padding.inn
ARM GAS  C:\Users\tmj32\AppData\Local\Temp\ccyJ4BPG.s 			page 20


 744              		.loc 2 232 0
 745 021a FB8D     		ldrh	r3, [r7, #46]
 746 021c B7F91020 		ldrsh	r2, [r7, #16]
 747 0220 02FB03F2 		mul	r2, r2, r3
 748 0224 3B8E     		ldrh	r3, [r7, #48]
 749 0226 92FBF3F3 		sdiv	r3, r2, r3
 750 022a 9AB2     		uxth	r2, r3
 751 022c BB69     		ldr	r3, [r7, #24]
 752 022e B3F92830 		ldrsh	r3, [r3, #40]
 753 0232 9BB2     		uxth	r3, r3
 754 0234 798C     		ldrh	r1, [r7, #34]	@ movhi
 755 0236 11FB03F3 		smulbb	r3, r1, r3
 756 023a 9BB2     		uxth	r3, r3
 757 023c 1344     		add	r3, r3, r2
 758 023e 9BB2     		uxth	r3, r3
 759 0240 3B84     		strh	r3, [r7, #32]	@ movhi
 233:..\..\..\lvgl\version_6.1.2\lvgl\src\lv_objx/lv_btnm.c ****                     act_x = lv_obj_get_width(btnm) - style_bg->body.padding.right - act_x - act_uni
 760              		.loc 2 233 0
 761 0242 7868     		ldr	r0, [r7, #4]
 762 0244 FFF7FEFF 		bl	lv_obj_get_width
 763 0248 0346     		mov	r3, r0
 764 024a 9AB2     		uxth	r2, r3
 765 024c BB69     		ldr	r3, [r7, #24]
 766 024e B3F92630 		ldrsh	r3, [r3, #38]
 767 0252 9BB2     		uxth	r3, r3
 768 0254 D31A     		subs	r3, r2, r3
 769 0256 9AB2     		uxth	r2, r3
 770 0258 3B8C     		ldrh	r3, [r7, #32]
 771 025a D31A     		subs	r3, r2, r3
 772 025c 9AB2     		uxth	r2, r3
 773 025e FB89     		ldrh	r3, [r7, #14]
 774 0260 D31A     		subs	r3, r2, r3
 775 0262 9BB2     		uxth	r3, r3
 776 0264 013B     		subs	r3, r3, #1
 777 0266 9BB2     		uxth	r3, r3
 778 0268 3B84     		strh	r3, [r7, #32]	@ movhi
 779 026a 19E0     		b	.L30
 780              	.L29:
 234:..\..\..\lvgl\version_6.1.2\lvgl\src\lv_objx/lv_btnm.c ****                 } else {
 235:..\..\..\lvgl\version_6.1.2\lvgl\src\lv_objx/lv_btnm.c ****                     act_x = (unit_act_cnt * all_unit_w) / unit_cnt + i * style_bg->body.padding.inn
 781              		.loc 2 235 0
 782 026c FB8D     		ldrh	r3, [r7, #46]
 783 026e B7F91020 		ldrsh	r2, [r7, #16]
 784 0272 02FB03F2 		mul	r2, r2, r3
 785 0276 3B8E     		ldrh	r3, [r7, #48]
 786 0278 92FBF3F3 		sdiv	r3, r2, r3
 787 027c 9AB2     		uxth	r2, r3
 788 027e BB69     		ldr	r3, [r7, #24]
 789 0280 B3F92830 		ldrsh	r3, [r3, #40]
 790 0284 9BB2     		uxth	r3, r3
 791 0286 798C     		ldrh	r1, [r7, #34]	@ movhi
 792 0288 11FB03F3 		smulbb	r3, r1, r3
 793 028c 9BB2     		uxth	r3, r3
 794 028e 1344     		add	r3, r3, r2
 795 0290 9AB2     		uxth	r2, r3
 236:..\..\..\lvgl\version_6.1.2\lvgl\src\lv_objx/lv_btnm.c ****                             style_bg->body.padding.left;
 796              		.loc 2 236 0
ARM GAS  C:\Users\tmj32\AppData\Local\Temp\ccyJ4BPG.s 			page 21


 797 0292 BB69     		ldr	r3, [r7, #24]
 798 0294 B3F92430 		ldrsh	r3, [r3, #36]
 235:..\..\..\lvgl\version_6.1.2\lvgl\src\lv_objx/lv_btnm.c ****                             style_bg->body.padding.left;
 799              		.loc 2 235 0
 800 0298 9BB2     		uxth	r3, r3
 801 029a 1344     		add	r3, r3, r2
 802 029c 9BB2     		uxth	r3, r3
 803 029e 3B84     		strh	r3, [r7, #32]	@ movhi
 804              	.L30:
 237:..\..\..\lvgl\version_6.1.2\lvgl\src\lv_objx/lv_btnm.c ****                 }
 238:..\..\..\lvgl\version_6.1.2\lvgl\src\lv_objx/lv_btnm.c ****                 /* Set the button's area.
 239:..\..\..\lvgl\version_6.1.2\lvgl\src\lv_objx/lv_btnm.c ****                  * If inner padding is zero then use the prev. button x2 as x1 to avoid rounding
 240:..\..\..\lvgl\version_6.1.2\lvgl\src\lv_objx/lv_btnm.c ****                  * errors*/
 241:..\..\..\lvgl\version_6.1.2\lvgl\src\lv_objx/lv_btnm.c ****                 if(style_bg->body.padding.inner == 0 && act_x != style_bg->body.padding.left) {
 805              		.loc 2 241 0
 806 02a0 BB69     		ldr	r3, [r7, #24]
 807 02a2 B3F92830 		ldrsh	r3, [r3, #40]
 808 02a6 002B     		cmp	r3, #0
 809 02a8 28D1     		bne	.L31
 810              		.loc 2 241 0 is_stmt 0 discriminator 1
 811 02aa BB69     		ldr	r3, [r7, #24]
 812 02ac B3F92430 		ldrsh	r3, [r3, #36]
 813 02b0 B7F92020 		ldrsh	r2, [r7, #32]
 814 02b4 9A42     		cmp	r2, r3
 815 02b6 21D0     		beq	.L31
 242:..\..\..\lvgl\version_6.1.2\lvgl\src\lv_objx/lv_btnm.c ****                     lv_area_set(&ext->button_areas[btn_i], ext->button_areas[btn_i - 1].x2, act_y, 
 816              		.loc 2 242 0 is_stmt 1
 817 02b8 FB69     		ldr	r3, [r7, #28]
 818 02ba 5A68     		ldr	r2, [r3, #4]
 819 02bc 3B8D     		ldrh	r3, [r7, #40]
 820 02be DB00     		lsls	r3, r3, #3
 821 02c0 D018     		adds	r0, r2, r3
 822 02c2 FB69     		ldr	r3, [r7, #28]
 823 02c4 5A68     		ldr	r2, [r3, #4]
 824 02c6 3B8D     		ldrh	r3, [r7, #40]
 825 02c8 03F10053 		add	r3, r3, #536870912
 826 02cc 013B     		subs	r3, r3, #1
 827 02ce DB00     		lsls	r3, r3, #3
 828 02d0 1344     		add	r3, r3, r2
 829 02d2 B3F90410 		ldrsh	r1, [r3, #4]
 830 02d6 3A8C     		ldrh	r2, [r7, #32]
 831 02d8 FB89     		ldrh	r3, [r7, #14]
 832 02da 1344     		add	r3, r3, r2
 833 02dc 9BB2     		uxth	r3, r3
 834 02de 1CB2     		sxth	r4, r3
 835 02e0 FA8E     		ldrh	r2, [r7, #54]
 836 02e2 7B8E     		ldrh	r3, [r7, #50]
 837 02e4 1344     		add	r3, r3, r2
 838 02e6 9BB2     		uxth	r3, r3
 839 02e8 1BB2     		sxth	r3, r3
 840 02ea B7F93620 		ldrsh	r2, [r7, #54]
 841 02ee 0093     		str	r3, [sp]
 842 02f0 2346     		mov	r3, r4
 843 02f2 FFF7FEFF 		bl	lv_area_set
 844 02f6 18E0     		b	.L32
 845              	.L40:
 846              		.align	2
ARM GAS  C:\Users\tmj32\AppData\Local\Temp\ccyJ4BPG.s 			page 22


 847              	.L39:
 848 02f8 18000000 		.word	.LC3
 849              	.L31:
 243:..\..\..\lvgl\version_6.1.2\lvgl\src\lv_objx/lv_btnm.c ****                                 act_y + btn_h);
 244:..\..\..\lvgl\version_6.1.2\lvgl\src\lv_objx/lv_btnm.c ****                 } else {
 245:..\..\..\lvgl\version_6.1.2\lvgl\src\lv_objx/lv_btnm.c ****                     lv_area_set(&ext->button_areas[btn_i], act_x, act_y, act_x + act_unit_w, act_y 
 850              		.loc 2 245 0
 851 02fc FB69     		ldr	r3, [r7, #28]
 852 02fe 5A68     		ldr	r2, [r3, #4]
 853 0300 3B8D     		ldrh	r3, [r7, #40]
 854 0302 DB00     		lsls	r3, r3, #3
 855 0304 D018     		adds	r0, r2, r3
 856 0306 3A8C     		ldrh	r2, [r7, #32]
 857 0308 FB89     		ldrh	r3, [r7, #14]
 858 030a 1344     		add	r3, r3, r2
 859 030c 9BB2     		uxth	r3, r3
 860 030e 1CB2     		sxth	r4, r3
 861 0310 FA8E     		ldrh	r2, [r7, #54]
 862 0312 7B8E     		ldrh	r3, [r7, #50]
 863 0314 1344     		add	r3, r3, r2
 864 0316 9BB2     		uxth	r3, r3
 865 0318 1BB2     		sxth	r3, r3
 866 031a B7F93620 		ldrsh	r2, [r7, #54]
 867 031e B7F92010 		ldrsh	r1, [r7, #32]
 868 0322 0093     		str	r3, [sp]
 869 0324 2346     		mov	r3, r4
 870 0326 FFF7FEFF 		bl	lv_area_set
 871              	.L32:
 246:..\..\..\lvgl\version_6.1.2\lvgl\src\lv_objx/lv_btnm.c ****                 }
 247:..\..\..\lvgl\version_6.1.2\lvgl\src\lv_objx/lv_btnm.c **** 
 248:..\..\..\lvgl\version_6.1.2\lvgl\src\lv_objx/lv_btnm.c ****                 unit_act_cnt += get_button_width(ext->ctrl_bits[btn_i]);
 872              		.loc 2 248 0 discriminator 2
 873 032a FB69     		ldr	r3, [r7, #28]
 874 032c 9A68     		ldr	r2, [r3, #8]
 875 032e 3B8D     		ldrh	r3, [r7, #40]
 876 0330 5B00     		lsls	r3, r3, #1
 877 0332 1344     		add	r3, r3, r2
 878 0334 1B88     		ldrh	r3, [r3]
 879 0336 1846     		mov	r0, r3
 880 0338 FFF7FEFF 		bl	get_button_width
 881 033c 0346     		mov	r3, r0
 882 033e 9AB2     		uxth	r2, r3
 883 0340 FB8D     		ldrh	r3, [r7, #46]	@ movhi
 884 0342 1344     		add	r3, r3, r2
 885 0344 FB85     		strh	r3, [r7, #46]	@ movhi
 249:..\..\..\lvgl\version_6.1.2\lvgl\src\lv_objx/lv_btnm.c **** 
 250:..\..\..\lvgl\version_6.1.2\lvgl\src\lv_objx/lv_btnm.c ****                 i_tot++;
 886              		.loc 2 250 0 discriminator 2
 887 0346 7B8D     		ldrh	r3, [r7, #42]
 888 0348 0133     		adds	r3, r3, #1
 889 034a 7B85     		strh	r3, [r7, #42]	@ movhi
 251:..\..\..\lvgl\version_6.1.2\lvgl\src\lv_objx/lv_btnm.c ****                 btn_i++;
 890              		.loc 2 251 0 discriminator 2
 891 034c 3B8D     		ldrh	r3, [r7, #40]
 892 034e 0133     		adds	r3, r3, #1
 893 0350 3B85     		strh	r3, [r7, #40]	@ movhi
 223:..\..\..\lvgl\version_6.1.2\lvgl\src\lv_objx/lv_btnm.c ****                 /* one_unit_w = all_unit_w / unit_cnt
ARM GAS  C:\Users\tmj32\AppData\Local\Temp\ccyJ4BPG.s 			page 23


 894              		.loc 2 223 0 discriminator 2
 895 0352 7B8C     		ldrh	r3, [r7, #34]
 896 0354 0133     		adds	r3, r3, #1
 897 0356 7B84     		strh	r3, [r7, #34]	@ movhi
 898              	.L28:
 223:..\..\..\lvgl\version_6.1.2\lvgl\src\lv_objx/lv_btnm.c ****                 /* one_unit_w = all_unit_w / unit_cnt
 899              		.loc 2 223 0 is_stmt 0 discriminator 1
 900 0358 7A8C     		ldrh	r2, [r7, #34]
 901 035a BB8D     		ldrh	r3, [r7, #44]
 902 035c 9A42     		cmp	r2, r3
 903 035e FFF441AF 		bcc	.L33
 904              	.L27:
 905              	.LBE5:
 252:..\..\..\lvgl\version_6.1.2\lvgl\src\lv_objx/lv_btnm.c ****             }
 253:..\..\..\lvgl\version_6.1.2\lvgl\src\lv_objx/lv_btnm.c ****         }
 254:..\..\..\lvgl\version_6.1.2\lvgl\src\lv_objx/lv_btnm.c ****         act_y += btn_h + style_bg->body.padding.inner + 1;
 906              		.loc 2 254 0 is_stmt 1
 907 0362 BB69     		ldr	r3, [r7, #24]
 908 0364 B3F92830 		ldrsh	r3, [r3, #40]
 909 0368 9AB2     		uxth	r2, r3
 910 036a 7B8E     		ldrh	r3, [r7, #50]
 911 036c 1344     		add	r3, r3, r2
 912 036e 9AB2     		uxth	r2, r3
 913 0370 FB8E     		ldrh	r3, [r7, #54]
 914 0372 1344     		add	r3, r3, r2
 915 0374 9BB2     		uxth	r3, r3
 916 0376 0133     		adds	r3, r3, #1
 917 0378 9BB2     		uxth	r3, r3
 918 037a FB86     		strh	r3, [r7, #54]	@ movhi
 255:..\..\..\lvgl\version_6.1.2\lvgl\src\lv_objx/lv_btnm.c **** 
 256:..\..\..\lvgl\version_6.1.2\lvgl\src\lv_objx/lv_btnm.c ****         if(strlen(map_p_tmp[btn_cnt]) == 0) break; /*Break on end of map*/
 919              		.loc 2 256 0
 920 037c BB8D     		ldrh	r3, [r7, #44]
 921 037e 9B00     		lsls	r3, r3, #2
 922 0380 7A6A     		ldr	r2, [r7, #36]
 923 0382 1344     		add	r3, r3, r2
 924 0384 1B68     		ldr	r3, [r3]
 925 0386 1B78     		ldrb	r3, [r3]	@ zero_extendqisi2
 926 0388 002B     		cmp	r3, #0
 927 038a 09D0     		beq	.L38
 257:..\..\..\lvgl\version_6.1.2\lvgl\src\lv_objx/lv_btnm.c ****         map_p_tmp = &map_p_tmp[btn_cnt + 1];       /*Set the map to the next line*/
 928              		.loc 2 257 0
 929 038c BB8D     		ldrh	r3, [r7, #44]
 930 038e 0133     		adds	r3, r3, #1
 931 0390 9B00     		lsls	r3, r3, #2
 932 0392 7A6A     		ldr	r2, [r7, #36]
 933 0394 1344     		add	r3, r3, r2
 934 0396 7B62     		str	r3, [r7, #36]
 258:..\..\..\lvgl\version_6.1.2\lvgl\src\lv_objx/lv_btnm.c ****         i_tot++;                                   /*Skip the '\n'*/
 935              		.loc 2 258 0
 936 0398 7B8D     		ldrh	r3, [r7, #42]
 937 039a 0133     		adds	r3, r3, #1
 938 039c 7B85     		strh	r3, [r7, #42]	@ movhi
 939              	.LBE4:
 259:..\..\..\lvgl\version_6.1.2\lvgl\src\lv_objx/lv_btnm.c ****     }
 940              		.loc 2 259 0
 941 039e C0E6     		b	.L36
ARM GAS  C:\Users\tmj32\AppData\Local\Temp\ccyJ4BPG.s 			page 24


 942              	.L38:
 943              	.LBB6:
 256:..\..\..\lvgl\version_6.1.2\lvgl\src\lv_objx/lv_btnm.c ****         map_p_tmp = &map_p_tmp[btn_cnt + 1];       /*Set the map to the next line*/
 944              		.loc 2 256 0
 945 03a0 00BF     		nop
 946              	.LBE6:
 260:..\..\..\lvgl\version_6.1.2\lvgl\src\lv_objx/lv_btnm.c **** 
 261:..\..\..\lvgl\version_6.1.2\lvgl\src\lv_objx/lv_btnm.c ****     lv_obj_invalidate(btnm);
 947              		.loc 2 261 0
 948 03a2 7868     		ldr	r0, [r7, #4]
 949 03a4 FFF7FEFF 		bl	lv_obj_invalidate
 262:..\..\..\lvgl\version_6.1.2\lvgl\src\lv_objx/lv_btnm.c **** }
 950              		.loc 2 262 0
 951 03a8 00BF     		nop
 952 03aa 3C37     		adds	r7, r7, #60
 953              		.cfi_def_cfa_offset 12
 954 03ac BD46     		mov	sp, r7
 955              		.cfi_def_cfa_register 13
 956              		@ sp needed
 957 03ae 90BD     		pop	{r4, r7, pc}
 958              		.cfi_endproc
 959              	.LFE47:
 960              		.size	lv_btnm_set_map, .-lv_btnm_set_map
 961              		.section	.text.lv_btnm_set_ctrl_map,"ax",%progbits
 962              		.align	2
 963              		.global	lv_btnm_set_ctrl_map
 964              		.thumb
 965              		.thumb_func
 966              		.type	lv_btnm_set_ctrl_map, %function
 967              	lv_btnm_set_ctrl_map:
 968              	.LFB48:
 263:..\..\..\lvgl\version_6.1.2\lvgl\src\lv_objx/lv_btnm.c **** 
 264:..\..\..\lvgl\version_6.1.2\lvgl\src\lv_objx/lv_btnm.c **** /**
 265:..\..\..\lvgl\version_6.1.2\lvgl\src\lv_objx/lv_btnm.c ****  * Set the button control map (hidden, disabled etc.) for a button matrix. The
 266:..\..\..\lvgl\version_6.1.2\lvgl\src\lv_objx/lv_btnm.c ****  * control map array will be copied and so may be deallocated after this
 267:..\..\..\lvgl\version_6.1.2\lvgl\src\lv_objx/lv_btnm.c ****  * function returns.
 268:..\..\..\lvgl\version_6.1.2\lvgl\src\lv_objx/lv_btnm.c ****  * @param btnm pointer to a button matrix object
 269:..\..\..\lvgl\version_6.1.2\lvgl\src\lv_objx/lv_btnm.c ****  * @param ctrl_map pointer to an array of `lv_btn_ctrl_t` control bytes. The
 270:..\..\..\lvgl\version_6.1.2\lvgl\src\lv_objx/lv_btnm.c ****  *                 length of the array and position of the elements must match
 271:..\..\..\lvgl\version_6.1.2\lvgl\src\lv_objx/lv_btnm.c ****  *                 the number and order of the individual buttons (i.e. excludes
 272:..\..\..\lvgl\version_6.1.2\lvgl\src\lv_objx/lv_btnm.c ****  *                 newline entries).
 273:..\..\..\lvgl\version_6.1.2\lvgl\src\lv_objx/lv_btnm.c ****  *                 An element of the map should look like e.g.:
 274:..\..\..\lvgl\version_6.1.2\lvgl\src\lv_objx/lv_btnm.c ****  *                 `ctrl_map[0] = width | LV_BTNM_CTRL_NO_REPEAT |  LV_BTNM_CTRL_TGL_ENABLE`
 275:..\..\..\lvgl\version_6.1.2\lvgl\src\lv_objx/lv_btnm.c ****  */
 276:..\..\..\lvgl\version_6.1.2\lvgl\src\lv_objx/lv_btnm.c **** void lv_btnm_set_ctrl_map(const lv_obj_t * btnm, const lv_btnm_ctrl_t ctrl_map[])
 277:..\..\..\lvgl\version_6.1.2\lvgl\src\lv_objx/lv_btnm.c **** {
 969              		.loc 2 277 0
 970              		.cfi_startproc
 971              		@ args = 0, pretend = 0, frame = 16
 972              		@ frame_needed = 1, uses_anonymous_args = 0
 973 0000 80B5     		push	{r7, lr}
 974              		.cfi_def_cfa_offset 8
 975              		.cfi_offset 7, -8
 976              		.cfi_offset 14, -4
 977 0002 84B0     		sub	sp, sp, #16
 978              		.cfi_def_cfa_offset 24
 979 0004 00AF     		add	r7, sp, #0
ARM GAS  C:\Users\tmj32\AppData\Local\Temp\ccyJ4BPG.s 			page 25


 980              		.cfi_def_cfa_register 7
 981 0006 7860     		str	r0, [r7, #4]
 982 0008 3960     		str	r1, [r7]
 278:..\..\..\lvgl\version_6.1.2\lvgl\src\lv_objx/lv_btnm.c ****     LV_ASSERT_OBJ(btnm, LV_OBJX_NAME);
 279:..\..\..\lvgl\version_6.1.2\lvgl\src\lv_objx/lv_btnm.c **** 
 280:..\..\..\lvgl\version_6.1.2\lvgl\src\lv_objx/lv_btnm.c ****     lv_btnm_ext_t * ext = lv_obj_get_ext_attr(btnm);
 983              		.loc 2 280 0
 984 000a 7868     		ldr	r0, [r7, #4]
 985 000c FFF7FEFF 		bl	lv_obj_get_ext_attr
 986 0010 F860     		str	r0, [r7, #12]
 281:..\..\..\lvgl\version_6.1.2\lvgl\src\lv_objx/lv_btnm.c ****     memcpy(ext->ctrl_bits, ctrl_map, sizeof(lv_btnm_ctrl_t) * ext->btn_cnt);
 987              		.loc 2 281 0
 988 0012 FB68     		ldr	r3, [r7, #12]
 989 0014 9868     		ldr	r0, [r3, #8]
 990 0016 FB68     		ldr	r3, [r7, #12]
 991 0018 1B8C     		ldrh	r3, [r3, #32]
 992 001a 5B00     		lsls	r3, r3, #1
 993 001c 1A46     		mov	r2, r3
 994 001e 3968     		ldr	r1, [r7]
 995 0020 FFF7FEFF 		bl	memcpy
 282:..\..\..\lvgl\version_6.1.2\lvgl\src\lv_objx/lv_btnm.c **** 
 283:..\..\..\lvgl\version_6.1.2\lvgl\src\lv_objx/lv_btnm.c ****     lv_btnm_set_map(btnm, ext->map_p);
 996              		.loc 2 283 0
 997 0024 FB68     		ldr	r3, [r7, #12]
 998 0026 1B68     		ldr	r3, [r3]
 999 0028 1946     		mov	r1, r3
 1000 002a 7868     		ldr	r0, [r7, #4]
 1001 002c FFF7FEFF 		bl	lv_btnm_set_map
 284:..\..\..\lvgl\version_6.1.2\lvgl\src\lv_objx/lv_btnm.c **** }
 1002              		.loc 2 284 0
 1003 0030 00BF     		nop
 1004 0032 1037     		adds	r7, r7, #16
 1005              		.cfi_def_cfa_offset 8
 1006 0034 BD46     		mov	sp, r7
 1007              		.cfi_def_cfa_register 13
 1008              		@ sp needed
 1009 0036 80BD     		pop	{r7, pc}
 1010              		.cfi_endproc
 1011              	.LFE48:
 1012              		.size	lv_btnm_set_ctrl_map, .-lv_btnm_set_ctrl_map
 1013              		.section	.text.lv_btnm_set_pressed,"ax",%progbits
 1014              		.align	2
 1015              		.global	lv_btnm_set_pressed
 1016              		.thumb
 1017              		.thumb_func
 1018              		.type	lv_btnm_set_pressed, %function
 1019              	lv_btnm_set_pressed:
 1020              	.LFB49:
 285:..\..\..\lvgl\version_6.1.2\lvgl\src\lv_objx/lv_btnm.c **** 
 286:..\..\..\lvgl\version_6.1.2\lvgl\src\lv_objx/lv_btnm.c **** /**
 287:..\..\..\lvgl\version_6.1.2\lvgl\src\lv_objx/lv_btnm.c ****  * Set the pressed button i.e. visually highlight it.
 288:..\..\..\lvgl\version_6.1.2\lvgl\src\lv_objx/lv_btnm.c ****  * Mainly used a when the btnm is in a group to show the selected button
 289:..\..\..\lvgl\version_6.1.2\lvgl\src\lv_objx/lv_btnm.c ****  * @param btnm pointer to button matrix object
 290:..\..\..\lvgl\version_6.1.2\lvgl\src\lv_objx/lv_btnm.c ****  * @param id index of the currently pressed button (`LV_BTNM_BTN_NONE` to unpress)
 291:..\..\..\lvgl\version_6.1.2\lvgl\src\lv_objx/lv_btnm.c ****  */
 292:..\..\..\lvgl\version_6.1.2\lvgl\src\lv_objx/lv_btnm.c **** void lv_btnm_set_pressed(const lv_obj_t * btnm, uint16_t id)
 293:..\..\..\lvgl\version_6.1.2\lvgl\src\lv_objx/lv_btnm.c **** {
ARM GAS  C:\Users\tmj32\AppData\Local\Temp\ccyJ4BPG.s 			page 26


 1021              		.loc 2 293 0
 1022              		.cfi_startproc
 1023              		@ args = 0, pretend = 0, frame = 16
 1024              		@ frame_needed = 1, uses_anonymous_args = 0
 1025 0000 80B5     		push	{r7, lr}
 1026              		.cfi_def_cfa_offset 8
 1027              		.cfi_offset 7, -8
 1028              		.cfi_offset 14, -4
 1029 0002 84B0     		sub	sp, sp, #16
 1030              		.cfi_def_cfa_offset 24
 1031 0004 00AF     		add	r7, sp, #0
 1032              		.cfi_def_cfa_register 7
 1033 0006 7860     		str	r0, [r7, #4]
 1034 0008 0B46     		mov	r3, r1
 1035 000a 7B80     		strh	r3, [r7, #2]	@ movhi
 294:..\..\..\lvgl\version_6.1.2\lvgl\src\lv_objx/lv_btnm.c ****     LV_ASSERT_OBJ(btnm, LV_OBJX_NAME);
 295:..\..\..\lvgl\version_6.1.2\lvgl\src\lv_objx/lv_btnm.c **** 
 296:..\..\..\lvgl\version_6.1.2\lvgl\src\lv_objx/lv_btnm.c ****     lv_btnm_ext_t * ext = lv_obj_get_ext_attr(btnm);
 1036              		.loc 2 296 0
 1037 000c 7868     		ldr	r0, [r7, #4]
 1038 000e FFF7FEFF 		bl	lv_obj_get_ext_attr
 1039 0012 F860     		str	r0, [r7, #12]
 297:..\..\..\lvgl\version_6.1.2\lvgl\src\lv_objx/lv_btnm.c **** 
 298:..\..\..\lvgl\version_6.1.2\lvgl\src\lv_objx/lv_btnm.c ****     if(id >= ext->btn_cnt && id != LV_BTNM_BTN_NONE) return;
 1040              		.loc 2 298 0
 1041 0014 FB68     		ldr	r3, [r7, #12]
 1042 0016 1B8C     		ldrh	r3, [r3, #32]
 1043 0018 7A88     		ldrh	r2, [r7, #2]
 1044 001a 9A42     		cmp	r2, r3
 1045 001c 04D3     		bcc	.L43
 1046              		.loc 2 298 0 is_stmt 0 discriminator 1
 1047 001e 7B88     		ldrh	r3, [r7, #2]
 1048 0020 4FF6FF72 		movw	r2, #65535
 1049 0024 9342     		cmp	r3, r2
 1050 0026 0BD1     		bne	.L46
 1051              	.L43:
 299:..\..\..\lvgl\version_6.1.2\lvgl\src\lv_objx/lv_btnm.c **** 
 300:..\..\..\lvgl\version_6.1.2\lvgl\src\lv_objx/lv_btnm.c ****     if(id == ext->btn_id_pr) return;
 1052              		.loc 2 300 0 is_stmt 1
 1053 0028 FB68     		ldr	r3, [r7, #12]
 1054 002a 5B8C     		ldrh	r3, [r3, #34]
 1055 002c 7A88     		ldrh	r2, [r7, #2]
 1056 002e 9A42     		cmp	r2, r3
 1057 0030 08D0     		beq	.L47
 301:..\..\..\lvgl\version_6.1.2\lvgl\src\lv_objx/lv_btnm.c **** 
 302:..\..\..\lvgl\version_6.1.2\lvgl\src\lv_objx/lv_btnm.c ****     ext->btn_id_pr = id;
 1058              		.loc 2 302 0
 1059 0032 FB68     		ldr	r3, [r7, #12]
 1060 0034 7A88     		ldrh	r2, [r7, #2]	@ movhi
 1061 0036 5A84     		strh	r2, [r3, #34]	@ movhi
 303:..\..\..\lvgl\version_6.1.2\lvgl\src\lv_objx/lv_btnm.c ****     lv_obj_invalidate(btnm);
 1062              		.loc 2 303 0
 1063 0038 7868     		ldr	r0, [r7, #4]
 1064 003a FFF7FEFF 		bl	lv_obj_invalidate
 1065 003e 02E0     		b	.L42
 1066              	.L46:
 298:..\..\..\lvgl\version_6.1.2\lvgl\src\lv_objx/lv_btnm.c **** 
ARM GAS  C:\Users\tmj32\AppData\Local\Temp\ccyJ4BPG.s 			page 27


 1067              		.loc 2 298 0
 1068 0040 00BF     		nop
 1069 0042 00E0     		b	.L42
 1070              	.L47:
 300:..\..\..\lvgl\version_6.1.2\lvgl\src\lv_objx/lv_btnm.c **** 
 1071              		.loc 2 300 0
 1072 0044 00BF     		nop
 1073              	.L42:
 304:..\..\..\lvgl\version_6.1.2\lvgl\src\lv_objx/lv_btnm.c **** }
 1074              		.loc 2 304 0
 1075 0046 1037     		adds	r7, r7, #16
 1076              		.cfi_def_cfa_offset 8
 1077 0048 BD46     		mov	sp, r7
 1078              		.cfi_def_cfa_register 13
 1079              		@ sp needed
 1080 004a 80BD     		pop	{r7, pc}
 1081              		.cfi_endproc
 1082              	.LFE49:
 1083              		.size	lv_btnm_set_pressed, .-lv_btnm_set_pressed
 1084              		.section	.text.lv_btnm_set_style,"ax",%progbits
 1085              		.align	2
 1086              		.global	lv_btnm_set_style
 1087              		.thumb
 1088              		.thumb_func
 1089              		.type	lv_btnm_set_style, %function
 1090              	lv_btnm_set_style:
 1091              	.LFB50:
 305:..\..\..\lvgl\version_6.1.2\lvgl\src\lv_objx/lv_btnm.c **** 
 306:..\..\..\lvgl\version_6.1.2\lvgl\src\lv_objx/lv_btnm.c **** /**
 307:..\..\..\lvgl\version_6.1.2\lvgl\src\lv_objx/lv_btnm.c ****  * Set a style of a button matrix
 308:..\..\..\lvgl\version_6.1.2\lvgl\src\lv_objx/lv_btnm.c ****  * @param btnm pointer to a button matrix object
 309:..\..\..\lvgl\version_6.1.2\lvgl\src\lv_objx/lv_btnm.c ****  * @param type which style should be set
 310:..\..\..\lvgl\version_6.1.2\lvgl\src\lv_objx/lv_btnm.c ****  * @param style pointer to a style
 311:..\..\..\lvgl\version_6.1.2\lvgl\src\lv_objx/lv_btnm.c ****  */
 312:..\..\..\lvgl\version_6.1.2\lvgl\src\lv_objx/lv_btnm.c **** void lv_btnm_set_style(lv_obj_t * btnm, lv_btnm_style_t type, const lv_style_t * style)
 313:..\..\..\lvgl\version_6.1.2\lvgl\src\lv_objx/lv_btnm.c **** {
 1092              		.loc 2 313 0
 1093              		.cfi_startproc
 1094              		@ args = 0, pretend = 0, frame = 24
 1095              		@ frame_needed = 1, uses_anonymous_args = 0
 1096 0000 80B5     		push	{r7, lr}
 1097              		.cfi_def_cfa_offset 8
 1098              		.cfi_offset 7, -8
 1099              		.cfi_offset 14, -4
 1100 0002 86B0     		sub	sp, sp, #24
 1101              		.cfi_def_cfa_offset 32
 1102 0004 00AF     		add	r7, sp, #0
 1103              		.cfi_def_cfa_register 7
 1104 0006 F860     		str	r0, [r7, #12]
 1105 0008 0B46     		mov	r3, r1
 1106 000a 7A60     		str	r2, [r7, #4]
 1107 000c FB72     		strb	r3, [r7, #11]
 314:..\..\..\lvgl\version_6.1.2\lvgl\src\lv_objx/lv_btnm.c ****     LV_ASSERT_OBJ(btnm, LV_OBJX_NAME);
 315:..\..\..\lvgl\version_6.1.2\lvgl\src\lv_objx/lv_btnm.c **** 
 316:..\..\..\lvgl\version_6.1.2\lvgl\src\lv_objx/lv_btnm.c ****     lv_btnm_ext_t * ext = lv_obj_get_ext_attr(btnm);
 1108              		.loc 2 316 0
 1109 000e F868     		ldr	r0, [r7, #12]
ARM GAS  C:\Users\tmj32\AppData\Local\Temp\ccyJ4BPG.s 			page 28


 1110 0010 FFF7FEFF 		bl	lv_obj_get_ext_attr
 1111 0014 7861     		str	r0, [r7, #20]
 317:..\..\..\lvgl\version_6.1.2\lvgl\src\lv_objx/lv_btnm.c **** 
 318:..\..\..\lvgl\version_6.1.2\lvgl\src\lv_objx/lv_btnm.c ****     switch(type) {
 1112              		.loc 2 318 0
 1113 0016 FB7A     		ldrb	r3, [r7, #11]	@ zero_extendqisi2
 1114 0018 052B     		cmp	r3, #5
 1115 001a 37D8     		bhi	.L57
 1116 001c 01A2     		adr	r2, .L51
 1117 001e 52F823F0 		ldr	pc, [r2, r3, lsl #2]
 1118 0022 00BF     		.p2align 2
 1119              	.L51:
 1120 0024 3D000000 		.word	.L50+1
 1121 0028 47000000 		.word	.L52+1
 1122 002c 55000000 		.word	.L53+1
 1123 0030 63000000 		.word	.L54+1
 1124 0034 71000000 		.word	.L55+1
 1125 0038 7F000000 		.word	.L56+1
 1126              		.p2align 1
 1127              	.L50:
 319:..\..\..\lvgl\version_6.1.2\lvgl\src\lv_objx/lv_btnm.c ****         case LV_BTNM_STYLE_BG: lv_obj_set_style(btnm, style); break;
 1128              		.loc 2 319 0
 1129 003c 7968     		ldr	r1, [r7, #4]
 1130 003e F868     		ldr	r0, [r7, #12]
 1131 0040 FFF7FEFF 		bl	lv_obj_set_style
 1132 0044 22E0     		b	.L49
 1133              	.L52:
 320:..\..\..\lvgl\version_6.1.2\lvgl\src\lv_objx/lv_btnm.c ****         case LV_BTNM_STYLE_BTN_REL:
 321:..\..\..\lvgl\version_6.1.2\lvgl\src\lv_objx/lv_btnm.c ****             ext->styles_btn[LV_BTN_STATE_REL] = style;
 1134              		.loc 2 321 0
 1135 0046 7B69     		ldr	r3, [r7, #20]
 1136 0048 7A68     		ldr	r2, [r7, #4]
 1137 004a DA60     		str	r2, [r3, #12]
 322:..\..\..\lvgl\version_6.1.2\lvgl\src\lv_objx/lv_btnm.c ****             lv_obj_invalidate(btnm);
 1138              		.loc 2 322 0
 1139 004c F868     		ldr	r0, [r7, #12]
 1140 004e FFF7FEFF 		bl	lv_obj_invalidate
 323:..\..\..\lvgl\version_6.1.2\lvgl\src\lv_objx/lv_btnm.c ****             break;
 1141              		.loc 2 323 0
 1142 0052 1BE0     		b	.L49
 1143              	.L53:
 324:..\..\..\lvgl\version_6.1.2\lvgl\src\lv_objx/lv_btnm.c ****         case LV_BTNM_STYLE_BTN_PR:
 325:..\..\..\lvgl\version_6.1.2\lvgl\src\lv_objx/lv_btnm.c ****             ext->styles_btn[LV_BTN_STATE_PR] = style;
 1144              		.loc 2 325 0
 1145 0054 7B69     		ldr	r3, [r7, #20]
 1146 0056 7A68     		ldr	r2, [r7, #4]
 1147 0058 1A61     		str	r2, [r3, #16]
 326:..\..\..\lvgl\version_6.1.2\lvgl\src\lv_objx/lv_btnm.c ****             lv_obj_invalidate(btnm);
 1148              		.loc 2 326 0
 1149 005a F868     		ldr	r0, [r7, #12]
 1150 005c FFF7FEFF 		bl	lv_obj_invalidate
 327:..\..\..\lvgl\version_6.1.2\lvgl\src\lv_objx/lv_btnm.c ****             break;
 1151              		.loc 2 327 0
 1152 0060 14E0     		b	.L49
 1153              	.L54:
 328:..\..\..\lvgl\version_6.1.2\lvgl\src\lv_objx/lv_btnm.c ****         case LV_BTNM_STYLE_BTN_TGL_REL:
 329:..\..\..\lvgl\version_6.1.2\lvgl\src\lv_objx/lv_btnm.c ****             ext->styles_btn[LV_BTN_STATE_TGL_REL] = style;
ARM GAS  C:\Users\tmj32\AppData\Local\Temp\ccyJ4BPG.s 			page 29


 1154              		.loc 2 329 0
 1155 0062 7B69     		ldr	r3, [r7, #20]
 1156 0064 7A68     		ldr	r2, [r7, #4]
 1157 0066 5A61     		str	r2, [r3, #20]
 330:..\..\..\lvgl\version_6.1.2\lvgl\src\lv_objx/lv_btnm.c ****             lv_obj_invalidate(btnm);
 1158              		.loc 2 330 0
 1159 0068 F868     		ldr	r0, [r7, #12]
 1160 006a FFF7FEFF 		bl	lv_obj_invalidate
 331:..\..\..\lvgl\version_6.1.2\lvgl\src\lv_objx/lv_btnm.c ****             break;
 1161              		.loc 2 331 0
 1162 006e 0DE0     		b	.L49
 1163              	.L55:
 332:..\..\..\lvgl\version_6.1.2\lvgl\src\lv_objx/lv_btnm.c ****         case LV_BTNM_STYLE_BTN_TGL_PR:
 333:..\..\..\lvgl\version_6.1.2\lvgl\src\lv_objx/lv_btnm.c ****             ext->styles_btn[LV_BTN_STATE_TGL_PR] = style;
 1164              		.loc 2 333 0
 1165 0070 7B69     		ldr	r3, [r7, #20]
 1166 0072 7A68     		ldr	r2, [r7, #4]
 1167 0074 9A61     		str	r2, [r3, #24]
 334:..\..\..\lvgl\version_6.1.2\lvgl\src\lv_objx/lv_btnm.c ****             lv_obj_invalidate(btnm);
 1168              		.loc 2 334 0
 1169 0076 F868     		ldr	r0, [r7, #12]
 1170 0078 FFF7FEFF 		bl	lv_obj_invalidate
 335:..\..\..\lvgl\version_6.1.2\lvgl\src\lv_objx/lv_btnm.c ****             break;
 1171              		.loc 2 335 0
 1172 007c 06E0     		b	.L49
 1173              	.L56:
 336:..\..\..\lvgl\version_6.1.2\lvgl\src\lv_objx/lv_btnm.c ****         case LV_BTNM_STYLE_BTN_INA:
 337:..\..\..\lvgl\version_6.1.2\lvgl\src\lv_objx/lv_btnm.c ****             ext->styles_btn[LV_BTN_STATE_INA] = style;
 1174              		.loc 2 337 0
 1175 007e 7B69     		ldr	r3, [r7, #20]
 1176 0080 7A68     		ldr	r2, [r7, #4]
 1177 0082 DA61     		str	r2, [r3, #28]
 338:..\..\..\lvgl\version_6.1.2\lvgl\src\lv_objx/lv_btnm.c ****             lv_obj_invalidate(btnm);
 1178              		.loc 2 338 0
 1179 0084 F868     		ldr	r0, [r7, #12]
 1180 0086 FFF7FEFF 		bl	lv_obj_invalidate
 339:..\..\..\lvgl\version_6.1.2\lvgl\src\lv_objx/lv_btnm.c ****             break;
 1181              		.loc 2 339 0
 1182 008a 00BF     		nop
 1183              	.L49:
 1184              	.L57:
 340:..\..\..\lvgl\version_6.1.2\lvgl\src\lv_objx/lv_btnm.c ****     }
 341:..\..\..\lvgl\version_6.1.2\lvgl\src\lv_objx/lv_btnm.c **** }
 1185              		.loc 2 341 0
 1186 008c 00BF     		nop
 1187 008e 1837     		adds	r7, r7, #24
 1188              		.cfi_def_cfa_offset 8
 1189 0090 BD46     		mov	sp, r7
 1190              		.cfi_def_cfa_register 13
 1191              		@ sp needed
 1192 0092 80BD     		pop	{r7, pc}
 1193              		.cfi_endproc
 1194              	.LFE50:
 1195              		.size	lv_btnm_set_style, .-lv_btnm_set_style
 1196              		.section	.text.lv_btnm_set_recolor,"ax",%progbits
 1197              		.align	2
 1198              		.global	lv_btnm_set_recolor
ARM GAS  C:\Users\tmj32\AppData\Local\Temp\ccyJ4BPG.s 			page 30


 1199              		.thumb
 1200              		.thumb_func
 1201              		.type	lv_btnm_set_recolor, %function
 1202              	lv_btnm_set_recolor:
 1203              	.LFB51:
 342:..\..\..\lvgl\version_6.1.2\lvgl\src\lv_objx/lv_btnm.c **** 
 343:..\..\..\lvgl\version_6.1.2\lvgl\src\lv_objx/lv_btnm.c **** /**
 344:..\..\..\lvgl\version_6.1.2\lvgl\src\lv_objx/lv_btnm.c ****  * Enable recoloring of button's texts
 345:..\..\..\lvgl\version_6.1.2\lvgl\src\lv_objx/lv_btnm.c ****  * @param btnm pointer to button matrix object
 346:..\..\..\lvgl\version_6.1.2\lvgl\src\lv_objx/lv_btnm.c ****  * @param en true: enable recoloring; false: disable
 347:..\..\..\lvgl\version_6.1.2\lvgl\src\lv_objx/lv_btnm.c ****  */
 348:..\..\..\lvgl\version_6.1.2\lvgl\src\lv_objx/lv_btnm.c **** void lv_btnm_set_recolor(const lv_obj_t * btnm, bool en)
 349:..\..\..\lvgl\version_6.1.2\lvgl\src\lv_objx/lv_btnm.c **** {
 1204              		.loc 2 349 0
 1205              		.cfi_startproc
 1206              		@ args = 0, pretend = 0, frame = 16
 1207              		@ frame_needed = 1, uses_anonymous_args = 0
 1208 0000 80B5     		push	{r7, lr}
 1209              		.cfi_def_cfa_offset 8
 1210              		.cfi_offset 7, -8
 1211              		.cfi_offset 14, -4
 1212 0002 84B0     		sub	sp, sp, #16
 1213              		.cfi_def_cfa_offset 24
 1214 0004 00AF     		add	r7, sp, #0
 1215              		.cfi_def_cfa_register 7
 1216 0006 7860     		str	r0, [r7, #4]
 1217 0008 0B46     		mov	r3, r1
 1218 000a FB70     		strb	r3, [r7, #3]
 350:..\..\..\lvgl\version_6.1.2\lvgl\src\lv_objx/lv_btnm.c ****     LV_ASSERT_OBJ(btnm, LV_OBJX_NAME);
 351:..\..\..\lvgl\version_6.1.2\lvgl\src\lv_objx/lv_btnm.c **** 
 352:..\..\..\lvgl\version_6.1.2\lvgl\src\lv_objx/lv_btnm.c ****     lv_btnm_ext_t * ext = lv_obj_get_ext_attr(btnm);
 1219              		.loc 2 352 0
 1220 000c 7868     		ldr	r0, [r7, #4]
 1221 000e FFF7FEFF 		bl	lv_obj_get_ext_attr
 1222 0012 F860     		str	r0, [r7, #12]
 353:..\..\..\lvgl\version_6.1.2\lvgl\src\lv_objx/lv_btnm.c **** 
 354:..\..\..\lvgl\version_6.1.2\lvgl\src\lv_objx/lv_btnm.c ****     ext->recolor = en;
 1223              		.loc 2 354 0
 1224 0014 FA68     		ldr	r2, [r7, #12]
 1225 0016 92F82630 		ldrb	r3, [r2, #38]
 1226 001a F978     		ldrb	r1, [r7, #3]
 1227 001c 61F30003 		bfi	r3, r1, #0, #1
 1228 0020 82F82630 		strb	r3, [r2, #38]
 355:..\..\..\lvgl\version_6.1.2\lvgl\src\lv_objx/lv_btnm.c ****     lv_obj_invalidate(btnm);
 1229              		.loc 2 355 0
 1230 0024 7868     		ldr	r0, [r7, #4]
 1231 0026 FFF7FEFF 		bl	lv_obj_invalidate
 356:..\..\..\lvgl\version_6.1.2\lvgl\src\lv_objx/lv_btnm.c **** }
 1232              		.loc 2 356 0
 1233 002a 00BF     		nop
 1234 002c 1037     		adds	r7, r7, #16
 1235              		.cfi_def_cfa_offset 8
 1236 002e BD46     		mov	sp, r7
 1237              		.cfi_def_cfa_register 13
 1238              		@ sp needed
 1239 0030 80BD     		pop	{r7, pc}
 1240              		.cfi_endproc
ARM GAS  C:\Users\tmj32\AppData\Local\Temp\ccyJ4BPG.s 			page 31


 1241              	.LFE51:
 1242              		.size	lv_btnm_set_recolor, .-lv_btnm_set_recolor
 1243 0032 00BF     		.section	.text.lv_btnm_set_btn_ctrl,"ax",%progbits
 1244              		.align	2
 1245              		.global	lv_btnm_set_btn_ctrl
 1246              		.thumb
 1247              		.thumb_func
 1248              		.type	lv_btnm_set_btn_ctrl, %function
 1249              	lv_btnm_set_btn_ctrl:
 1250              	.LFB52:
 357:..\..\..\lvgl\version_6.1.2\lvgl\src\lv_objx/lv_btnm.c **** 
 358:..\..\..\lvgl\version_6.1.2\lvgl\src\lv_objx/lv_btnm.c **** /**
 359:..\..\..\lvgl\version_6.1.2\lvgl\src\lv_objx/lv_btnm.c ****  * Set the attributes of a button of the button matrix
 360:..\..\..\lvgl\version_6.1.2\lvgl\src\lv_objx/lv_btnm.c ****  * @param btnm pointer to button matrix object
 361:..\..\..\lvgl\version_6.1.2\lvgl\src\lv_objx/lv_btnm.c ****  * @param btn_id 0 based index of the button to modify. (Not counting new lines)
 362:..\..\..\lvgl\version_6.1.2\lvgl\src\lv_objx/lv_btnm.c ****  */
 363:..\..\..\lvgl\version_6.1.2\lvgl\src\lv_objx/lv_btnm.c **** void lv_btnm_set_btn_ctrl(const lv_obj_t * btnm, uint16_t btn_id, lv_btnm_ctrl_t ctrl)
 364:..\..\..\lvgl\version_6.1.2\lvgl\src\lv_objx/lv_btnm.c **** {
 1251              		.loc 2 364 0
 1252              		.cfi_startproc
 1253              		@ args = 0, pretend = 0, frame = 16
 1254              		@ frame_needed = 1, uses_anonymous_args = 0
 1255 0000 80B5     		push	{r7, lr}
 1256              		.cfi_def_cfa_offset 8
 1257              		.cfi_offset 7, -8
 1258              		.cfi_offset 14, -4
 1259 0002 84B0     		sub	sp, sp, #16
 1260              		.cfi_def_cfa_offset 24
 1261 0004 00AF     		add	r7, sp, #0
 1262              		.cfi_def_cfa_register 7
 1263 0006 7860     		str	r0, [r7, #4]
 1264 0008 0B46     		mov	r3, r1
 1265 000a 7B80     		strh	r3, [r7, #2]	@ movhi
 1266 000c 1346     		mov	r3, r2	@ movhi
 1267 000e 3B80     		strh	r3, [r7]	@ movhi
 365:..\..\..\lvgl\version_6.1.2\lvgl\src\lv_objx/lv_btnm.c ****     LV_ASSERT_OBJ(btnm, LV_OBJX_NAME);
 366:..\..\..\lvgl\version_6.1.2\lvgl\src\lv_objx/lv_btnm.c **** 
 367:..\..\..\lvgl\version_6.1.2\lvgl\src\lv_objx/lv_btnm.c ****     lv_btnm_ext_t * ext = lv_obj_get_ext_attr(btnm);
 1268              		.loc 2 367 0
 1269 0010 7868     		ldr	r0, [r7, #4]
 1270 0012 FFF7FEFF 		bl	lv_obj_get_ext_attr
 1271 0016 F860     		str	r0, [r7, #12]
 368:..\..\..\lvgl\version_6.1.2\lvgl\src\lv_objx/lv_btnm.c **** 
 369:..\..\..\lvgl\version_6.1.2\lvgl\src\lv_objx/lv_btnm.c ****     if(btn_id >= ext->btn_cnt) return;
 1272              		.loc 2 369 0
 1273 0018 FB68     		ldr	r3, [r7, #12]
 1274 001a 1B8C     		ldrh	r3, [r3, #32]
 1275 001c 7A88     		ldrh	r2, [r7, #2]
 1276 001e 9A42     		cmp	r2, r3
 1277 0020 14D2     		bcs	.L62
 370:..\..\..\lvgl\version_6.1.2\lvgl\src\lv_objx/lv_btnm.c **** 
 371:..\..\..\lvgl\version_6.1.2\lvgl\src\lv_objx/lv_btnm.c ****     ext->ctrl_bits[btn_id] |= ctrl;
 1278              		.loc 2 371 0
 1279 0022 FB68     		ldr	r3, [r7, #12]
 1280 0024 9A68     		ldr	r2, [r3, #8]
 1281 0026 7B88     		ldrh	r3, [r7, #2]
 1282 0028 5B00     		lsls	r3, r3, #1
ARM GAS  C:\Users\tmj32\AppData\Local\Temp\ccyJ4BPG.s 			page 32


 1283 002a 1344     		add	r3, r3, r2
 1284 002c FA68     		ldr	r2, [r7, #12]
 1285 002e 9168     		ldr	r1, [r2, #8]
 1286 0030 7A88     		ldrh	r2, [r7, #2]
 1287 0032 5200     		lsls	r2, r2, #1
 1288 0034 0A44     		add	r2, r2, r1
 1289 0036 1188     		ldrh	r1, [r2]
 1290 0038 3A88     		ldrh	r2, [r7]	@ movhi
 1291 003a 0A43     		orrs	r2, r2, r1
 1292 003c 92B2     		uxth	r2, r2
 1293 003e 1A80     		strh	r2, [r3]	@ movhi
 372:..\..\..\lvgl\version_6.1.2\lvgl\src\lv_objx/lv_btnm.c ****     invalidate_button_area(btnm, btn_id);
 1294              		.loc 2 372 0
 1295 0040 7B88     		ldrh	r3, [r7, #2]
 1296 0042 1946     		mov	r1, r3
 1297 0044 7868     		ldr	r0, [r7, #4]
 1298 0046 FFF7FEFF 		bl	invalidate_button_area
 1299 004a 00E0     		b	.L59
 1300              	.L62:
 369:..\..\..\lvgl\version_6.1.2\lvgl\src\lv_objx/lv_btnm.c **** 
 1301              		.loc 2 369 0
 1302 004c 00BF     		nop
 1303              	.L59:
 373:..\..\..\lvgl\version_6.1.2\lvgl\src\lv_objx/lv_btnm.c **** }
 1304              		.loc 2 373 0
 1305 004e 1037     		adds	r7, r7, #16
 1306              		.cfi_def_cfa_offset 8
 1307 0050 BD46     		mov	sp, r7
 1308              		.cfi_def_cfa_register 13
 1309              		@ sp needed
 1310 0052 80BD     		pop	{r7, pc}
 1311              		.cfi_endproc
 1312              	.LFE52:
 1313              		.size	lv_btnm_set_btn_ctrl, .-lv_btnm_set_btn_ctrl
 1314              		.section	.text.lv_btnm_clear_btn_ctrl,"ax",%progbits
 1315              		.align	2
 1316              		.global	lv_btnm_clear_btn_ctrl
 1317              		.thumb
 1318              		.thumb_func
 1319              		.type	lv_btnm_clear_btn_ctrl, %function
 1320              	lv_btnm_clear_btn_ctrl:
 1321              	.LFB53:
 374:..\..\..\lvgl\version_6.1.2\lvgl\src\lv_objx/lv_btnm.c **** 
 375:..\..\..\lvgl\version_6.1.2\lvgl\src\lv_objx/lv_btnm.c **** /**
 376:..\..\..\lvgl\version_6.1.2\lvgl\src\lv_objx/lv_btnm.c ****  * Clear the attributes of a button of the button matrix
 377:..\..\..\lvgl\version_6.1.2\lvgl\src\lv_objx/lv_btnm.c ****  * @param btnm pointer to button matrix object
 378:..\..\..\lvgl\version_6.1.2\lvgl\src\lv_objx/lv_btnm.c ****  * @param btn_id 0 based index of the button to modify. (Not counting new lines)
 379:..\..\..\lvgl\version_6.1.2\lvgl\src\lv_objx/lv_btnm.c ****  */
 380:..\..\..\lvgl\version_6.1.2\lvgl\src\lv_objx/lv_btnm.c **** void lv_btnm_clear_btn_ctrl(const lv_obj_t * btnm, uint16_t btn_id, lv_btnm_ctrl_t ctrl)
 381:..\..\..\lvgl\version_6.1.2\lvgl\src\lv_objx/lv_btnm.c **** {
 1322              		.loc 2 381 0
 1323              		.cfi_startproc
 1324              		@ args = 0, pretend = 0, frame = 16
 1325              		@ frame_needed = 1, uses_anonymous_args = 0
 1326 0000 80B5     		push	{r7, lr}
 1327              		.cfi_def_cfa_offset 8
 1328              		.cfi_offset 7, -8
ARM GAS  C:\Users\tmj32\AppData\Local\Temp\ccyJ4BPG.s 			page 33


 1329              		.cfi_offset 14, -4
 1330 0002 84B0     		sub	sp, sp, #16
 1331              		.cfi_def_cfa_offset 24
 1332 0004 00AF     		add	r7, sp, #0
 1333              		.cfi_def_cfa_register 7
 1334 0006 7860     		str	r0, [r7, #4]
 1335 0008 0B46     		mov	r3, r1
 1336 000a 7B80     		strh	r3, [r7, #2]	@ movhi
 1337 000c 1346     		mov	r3, r2	@ movhi
 1338 000e 3B80     		strh	r3, [r7]	@ movhi
 382:..\..\..\lvgl\version_6.1.2\lvgl\src\lv_objx/lv_btnm.c ****     LV_ASSERT_OBJ(btnm, LV_OBJX_NAME);
 383:..\..\..\lvgl\version_6.1.2\lvgl\src\lv_objx/lv_btnm.c **** 
 384:..\..\..\lvgl\version_6.1.2\lvgl\src\lv_objx/lv_btnm.c ****     lv_btnm_ext_t * ext = lv_obj_get_ext_attr(btnm);
 1339              		.loc 2 384 0
 1340 0010 7868     		ldr	r0, [r7, #4]
 1341 0012 FFF7FEFF 		bl	lv_obj_get_ext_attr
 1342 0016 F860     		str	r0, [r7, #12]
 385:..\..\..\lvgl\version_6.1.2\lvgl\src\lv_objx/lv_btnm.c **** 
 386:..\..\..\lvgl\version_6.1.2\lvgl\src\lv_objx/lv_btnm.c ****     if(btn_id >= ext->btn_cnt) return;
 1343              		.loc 2 386 0
 1344 0018 FB68     		ldr	r3, [r7, #12]
 1345 001a 1B8C     		ldrh	r3, [r3, #32]
 1346 001c 7A88     		ldrh	r2, [r7, #2]
 1347 001e 9A42     		cmp	r2, r3
 1348 0020 19D2     		bcs	.L66
 387:..\..\..\lvgl\version_6.1.2\lvgl\src\lv_objx/lv_btnm.c **** 
 388:..\..\..\lvgl\version_6.1.2\lvgl\src\lv_objx/lv_btnm.c ****     ext->ctrl_bits[btn_id] &= (~ctrl);
 1349              		.loc 2 388 0
 1350 0022 FB68     		ldr	r3, [r7, #12]
 1351 0024 9A68     		ldr	r2, [r3, #8]
 1352 0026 7B88     		ldrh	r3, [r7, #2]
 1353 0028 5B00     		lsls	r3, r3, #1
 1354 002a 1344     		add	r3, r3, r2
 1355 002c FA68     		ldr	r2, [r7, #12]
 1356 002e 9168     		ldr	r1, [r2, #8]
 1357 0030 7A88     		ldrh	r2, [r7, #2]
 1358 0032 5200     		lsls	r2, r2, #1
 1359 0034 0A44     		add	r2, r2, r1
 1360 0036 1288     		ldrh	r2, [r2]
 1361 0038 11B2     		sxth	r1, r2
 1362 003a B7F90020 		ldrsh	r2, [r7]
 1363 003e D243     		mvns	r2, r2
 1364 0040 12B2     		sxth	r2, r2
 1365 0042 0A40     		ands	r2, r2, r1
 1366 0044 12B2     		sxth	r2, r2
 1367 0046 92B2     		uxth	r2, r2
 1368 0048 1A80     		strh	r2, [r3]	@ movhi
 389:..\..\..\lvgl\version_6.1.2\lvgl\src\lv_objx/lv_btnm.c ****     invalidate_button_area(btnm, btn_id);
 1369              		.loc 2 389 0
 1370 004a 7B88     		ldrh	r3, [r7, #2]
 1371 004c 1946     		mov	r1, r3
 1372 004e 7868     		ldr	r0, [r7, #4]
 1373 0050 FFF7FEFF 		bl	invalidate_button_area
 1374 0054 00E0     		b	.L63
 1375              	.L66:
 386:..\..\..\lvgl\version_6.1.2\lvgl\src\lv_objx/lv_btnm.c **** 
 1376              		.loc 2 386 0
ARM GAS  C:\Users\tmj32\AppData\Local\Temp\ccyJ4BPG.s 			page 34


 1377 0056 00BF     		nop
 1378              	.L63:
 390:..\..\..\lvgl\version_6.1.2\lvgl\src\lv_objx/lv_btnm.c **** }
 1379              		.loc 2 390 0
 1380 0058 1037     		adds	r7, r7, #16
 1381              		.cfi_def_cfa_offset 8
 1382 005a BD46     		mov	sp, r7
 1383              		.cfi_def_cfa_register 13
 1384              		@ sp needed
 1385 005c 80BD     		pop	{r7, pc}
 1386              		.cfi_endproc
 1387              	.LFE53:
 1388              		.size	lv_btnm_clear_btn_ctrl, .-lv_btnm_clear_btn_ctrl
 1389 005e 00BF     		.section	.text.lv_btnm_set_btn_ctrl_all,"ax",%progbits
 1390              		.align	2
 1391              		.global	lv_btnm_set_btn_ctrl_all
 1392              		.thumb
 1393              		.thumb_func
 1394              		.type	lv_btnm_set_btn_ctrl_all, %function
 1395              	lv_btnm_set_btn_ctrl_all:
 1396              	.LFB54:
 391:..\..\..\lvgl\version_6.1.2\lvgl\src\lv_objx/lv_btnm.c **** 
 392:..\..\..\lvgl\version_6.1.2\lvgl\src\lv_objx/lv_btnm.c **** /**
 393:..\..\..\lvgl\version_6.1.2\lvgl\src\lv_objx/lv_btnm.c ****  * Set the attributes of all buttons of a button matrix
 394:..\..\..\lvgl\version_6.1.2\lvgl\src\lv_objx/lv_btnm.c ****  * @param btnm pointer to a button matrix object
 395:..\..\..\lvgl\version_6.1.2\lvgl\src\lv_objx/lv_btnm.c ****  * @param ctrl attribute(s) to set from `lv_btnm_ctrl_t`. Values can be ORed.
 396:..\..\..\lvgl\version_6.1.2\lvgl\src\lv_objx/lv_btnm.c ****  */
 397:..\..\..\lvgl\version_6.1.2\lvgl\src\lv_objx/lv_btnm.c **** void lv_btnm_set_btn_ctrl_all(lv_obj_t * btnm, lv_btnm_ctrl_t ctrl)
 398:..\..\..\lvgl\version_6.1.2\lvgl\src\lv_objx/lv_btnm.c **** {
 1397              		.loc 2 398 0
 1398              		.cfi_startproc
 1399              		@ args = 0, pretend = 0, frame = 16
 1400              		@ frame_needed = 1, uses_anonymous_args = 0
 1401 0000 80B5     		push	{r7, lr}
 1402              		.cfi_def_cfa_offset 8
 1403              		.cfi_offset 7, -8
 1404              		.cfi_offset 14, -4
 1405 0002 84B0     		sub	sp, sp, #16
 1406              		.cfi_def_cfa_offset 24
 1407 0004 00AF     		add	r7, sp, #0
 1408              		.cfi_def_cfa_register 7
 1409 0006 7860     		str	r0, [r7, #4]
 1410 0008 0B46     		mov	r3, r1
 1411 000a 7B80     		strh	r3, [r7, #2]	@ movhi
 399:..\..\..\lvgl\version_6.1.2\lvgl\src\lv_objx/lv_btnm.c ****     LV_ASSERT_OBJ(btnm, LV_OBJX_NAME);
 400:..\..\..\lvgl\version_6.1.2\lvgl\src\lv_objx/lv_btnm.c **** 
 401:..\..\..\lvgl\version_6.1.2\lvgl\src\lv_objx/lv_btnm.c ****     lv_btnm_ext_t * ext = lv_obj_get_ext_attr(btnm);
 1412              		.loc 2 401 0
 1413 000c 7868     		ldr	r0, [r7, #4]
 1414 000e FFF7FEFF 		bl	lv_obj_get_ext_attr
 1415 0012 B860     		str	r0, [r7, #8]
 402:..\..\..\lvgl\version_6.1.2\lvgl\src\lv_objx/lv_btnm.c ****     uint16_t i;
 403:..\..\..\lvgl\version_6.1.2\lvgl\src\lv_objx/lv_btnm.c ****     for(i = 0; i < ext->btn_cnt; i++) {
 1416              		.loc 2 403 0
 1417 0014 0023     		movs	r3, #0
 1418 0016 FB81     		strh	r3, [r7, #14]	@ movhi
 1419 0018 08E0     		b	.L68
ARM GAS  C:\Users\tmj32\AppData\Local\Temp\ccyJ4BPG.s 			page 35


 1420              	.L69:
 404:..\..\..\lvgl\version_6.1.2\lvgl\src\lv_objx/lv_btnm.c ****         lv_btnm_set_btn_ctrl(btnm, i, ctrl);
 1421              		.loc 2 404 0 discriminator 3
 1422 001a 7A88     		ldrh	r2, [r7, #2]
 1423 001c FB89     		ldrh	r3, [r7, #14]
 1424 001e 1946     		mov	r1, r3
 1425 0020 7868     		ldr	r0, [r7, #4]
 1426 0022 FFF7FEFF 		bl	lv_btnm_set_btn_ctrl
 403:..\..\..\lvgl\version_6.1.2\lvgl\src\lv_objx/lv_btnm.c ****         lv_btnm_set_btn_ctrl(btnm, i, ctrl);
 1427              		.loc 2 403 0 discriminator 3
 1428 0026 FB89     		ldrh	r3, [r7, #14]
 1429 0028 0133     		adds	r3, r3, #1
 1430 002a FB81     		strh	r3, [r7, #14]	@ movhi
 1431              	.L68:
 403:..\..\..\lvgl\version_6.1.2\lvgl\src\lv_objx/lv_btnm.c ****         lv_btnm_set_btn_ctrl(btnm, i, ctrl);
 1432              		.loc 2 403 0 is_stmt 0 discriminator 1
 1433 002c BB68     		ldr	r3, [r7, #8]
 1434 002e 1B8C     		ldrh	r3, [r3, #32]
 1435 0030 FA89     		ldrh	r2, [r7, #14]
 1436 0032 9A42     		cmp	r2, r3
 1437 0034 F1D3     		bcc	.L69
 405:..\..\..\lvgl\version_6.1.2\lvgl\src\lv_objx/lv_btnm.c ****     }
 406:..\..\..\lvgl\version_6.1.2\lvgl\src\lv_objx/lv_btnm.c **** }
 1438              		.loc 2 406 0 is_stmt 1
 1439 0036 00BF     		nop
 1440 0038 1037     		adds	r7, r7, #16
 1441              		.cfi_def_cfa_offset 8
 1442 003a BD46     		mov	sp, r7
 1443              		.cfi_def_cfa_register 13
 1444              		@ sp needed
 1445 003c 80BD     		pop	{r7, pc}
 1446              		.cfi_endproc
 1447              	.LFE54:
 1448              		.size	lv_btnm_set_btn_ctrl_all, .-lv_btnm_set_btn_ctrl_all
 1449 003e 00BF     		.section	.text.lv_btnm_clear_btn_ctrl_all,"ax",%progbits
 1450              		.align	2
 1451              		.global	lv_btnm_clear_btn_ctrl_all
 1452              		.thumb
 1453              		.thumb_func
 1454              		.type	lv_btnm_clear_btn_ctrl_all, %function
 1455              	lv_btnm_clear_btn_ctrl_all:
 1456              	.LFB55:
 407:..\..\..\lvgl\version_6.1.2\lvgl\src\lv_objx/lv_btnm.c **** 
 408:..\..\..\lvgl\version_6.1.2\lvgl\src\lv_objx/lv_btnm.c **** /**
 409:..\..\..\lvgl\version_6.1.2\lvgl\src\lv_objx/lv_btnm.c ****  * Clear the attributes of all buttons of a button matrix
 410:..\..\..\lvgl\version_6.1.2\lvgl\src\lv_objx/lv_btnm.c ****  * @param btnm pointer to a button matrix object
 411:..\..\..\lvgl\version_6.1.2\lvgl\src\lv_objx/lv_btnm.c ****  * @param ctrl attribute(s) to set from `lv_btnm_ctrl_t`. Values can be ORed.
 412:..\..\..\lvgl\version_6.1.2\lvgl\src\lv_objx/lv_btnm.c ****  * @param en true: set the attributes; false: clear the attributes
 413:..\..\..\lvgl\version_6.1.2\lvgl\src\lv_objx/lv_btnm.c ****  */
 414:..\..\..\lvgl\version_6.1.2\lvgl\src\lv_objx/lv_btnm.c **** void lv_btnm_clear_btn_ctrl_all(lv_obj_t * btnm, lv_btnm_ctrl_t ctrl)
 415:..\..\..\lvgl\version_6.1.2\lvgl\src\lv_objx/lv_btnm.c **** {
 1457              		.loc 2 415 0
 1458              		.cfi_startproc
 1459              		@ args = 0, pretend = 0, frame = 16
 1460              		@ frame_needed = 1, uses_anonymous_args = 0
 1461 0000 80B5     		push	{r7, lr}
 1462              		.cfi_def_cfa_offset 8
ARM GAS  C:\Users\tmj32\AppData\Local\Temp\ccyJ4BPG.s 			page 36


 1463              		.cfi_offset 7, -8
 1464              		.cfi_offset 14, -4
 1465 0002 84B0     		sub	sp, sp, #16
 1466              		.cfi_def_cfa_offset 24
 1467 0004 00AF     		add	r7, sp, #0
 1468              		.cfi_def_cfa_register 7
 1469 0006 7860     		str	r0, [r7, #4]
 1470 0008 0B46     		mov	r3, r1
 1471 000a 7B80     		strh	r3, [r7, #2]	@ movhi
 416:..\..\..\lvgl\version_6.1.2\lvgl\src\lv_objx/lv_btnm.c ****     LV_ASSERT_OBJ(btnm, LV_OBJX_NAME);
 417:..\..\..\lvgl\version_6.1.2\lvgl\src\lv_objx/lv_btnm.c **** 
 418:..\..\..\lvgl\version_6.1.2\lvgl\src\lv_objx/lv_btnm.c ****     lv_btnm_ext_t * ext = lv_obj_get_ext_attr(btnm);
 1472              		.loc 2 418 0
 1473 000c 7868     		ldr	r0, [r7, #4]
 1474 000e FFF7FEFF 		bl	lv_obj_get_ext_attr
 1475 0012 B860     		str	r0, [r7, #8]
 419:..\..\..\lvgl\version_6.1.2\lvgl\src\lv_objx/lv_btnm.c ****     uint16_t i;
 420:..\..\..\lvgl\version_6.1.2\lvgl\src\lv_objx/lv_btnm.c ****     for(i = 0; i < ext->btn_cnt; i++) {
 1476              		.loc 2 420 0
 1477 0014 0023     		movs	r3, #0
 1478 0016 FB81     		strh	r3, [r7, #14]	@ movhi
 1479 0018 08E0     		b	.L71
 1480              	.L72:
 421:..\..\..\lvgl\version_6.1.2\lvgl\src\lv_objx/lv_btnm.c ****         lv_btnm_clear_btn_ctrl(btnm, i, ctrl);
 1481              		.loc 2 421 0 discriminator 3
 1482 001a 7A88     		ldrh	r2, [r7, #2]
 1483 001c FB89     		ldrh	r3, [r7, #14]
 1484 001e 1946     		mov	r1, r3
 1485 0020 7868     		ldr	r0, [r7, #4]
 1486 0022 FFF7FEFF 		bl	lv_btnm_clear_btn_ctrl
 420:..\..\..\lvgl\version_6.1.2\lvgl\src\lv_objx/lv_btnm.c ****         lv_btnm_clear_btn_ctrl(btnm, i, ctrl);
 1487              		.loc 2 420 0 discriminator 3
 1488 0026 FB89     		ldrh	r3, [r7, #14]
 1489 0028 0133     		adds	r3, r3, #1
 1490 002a FB81     		strh	r3, [r7, #14]	@ movhi
 1491              	.L71:
 420:..\..\..\lvgl\version_6.1.2\lvgl\src\lv_objx/lv_btnm.c ****         lv_btnm_clear_btn_ctrl(btnm, i, ctrl);
 1492              		.loc 2 420 0 is_stmt 0 discriminator 1
 1493 002c BB68     		ldr	r3, [r7, #8]
 1494 002e 1B8C     		ldrh	r3, [r3, #32]
 1495 0030 FA89     		ldrh	r2, [r7, #14]
 1496 0032 9A42     		cmp	r2, r3
 1497 0034 F1D3     		bcc	.L72
 422:..\..\..\lvgl\version_6.1.2\lvgl\src\lv_objx/lv_btnm.c ****     }
 423:..\..\..\lvgl\version_6.1.2\lvgl\src\lv_objx/lv_btnm.c **** }
 1498              		.loc 2 423 0 is_stmt 1
 1499 0036 00BF     		nop
 1500 0038 1037     		adds	r7, r7, #16
 1501              		.cfi_def_cfa_offset 8
 1502 003a BD46     		mov	sp, r7
 1503              		.cfi_def_cfa_register 13
 1504              		@ sp needed
 1505 003c 80BD     		pop	{r7, pc}
 1506              		.cfi_endproc
 1507              	.LFE55:
 1508              		.size	lv_btnm_clear_btn_ctrl_all, .-lv_btnm_clear_btn_ctrl_all
 1509 003e 00BF     		.section	.text.lv_btnm_set_btn_width,"ax",%progbits
ARM GAS  C:\Users\tmj32\AppData\Local\Temp\ccyJ4BPG.s 			page 37


 1510              		.align	2
 1511              		.global	lv_btnm_set_btn_width
 1512              		.thumb
 1513              		.thumb_func
 1514              		.type	lv_btnm_set_btn_width, %function
 1515              	lv_btnm_set_btn_width:
 1516              	.LFB56:
 424:..\..\..\lvgl\version_6.1.2\lvgl\src\lv_objx/lv_btnm.c **** 
 425:..\..\..\lvgl\version_6.1.2\lvgl\src\lv_objx/lv_btnm.c **** /**
 426:..\..\..\lvgl\version_6.1.2\lvgl\src\lv_objx/lv_btnm.c ****  * Set a single buttons relative width.
 427:..\..\..\lvgl\version_6.1.2\lvgl\src\lv_objx/lv_btnm.c ****  * This method will cause the matrix be regenerated and is a relatively
 428:..\..\..\lvgl\version_6.1.2\lvgl\src\lv_objx/lv_btnm.c ****  * expensive operation. It is recommended that initial width be specified using
 429:..\..\..\lvgl\version_6.1.2\lvgl\src\lv_objx/lv_btnm.c ****  * `lv_btnm_set_ctrl_map` and this method only be used for dynamic changes.
 430:..\..\..\lvgl\version_6.1.2\lvgl\src\lv_objx/lv_btnm.c ****  * @param btnm pointer to button matrix object
 431:..\..\..\lvgl\version_6.1.2\lvgl\src\lv_objx/lv_btnm.c ****  * @param btn_id 0 based index of the button to modify.
 432:..\..\..\lvgl\version_6.1.2\lvgl\src\lv_objx/lv_btnm.c ****  * @param width Relative width compared to the buttons in the same row. [1..7]
 433:..\..\..\lvgl\version_6.1.2\lvgl\src\lv_objx/lv_btnm.c ****  */
 434:..\..\..\lvgl\version_6.1.2\lvgl\src\lv_objx/lv_btnm.c **** void lv_btnm_set_btn_width(const lv_obj_t * btnm, uint16_t btn_id, uint8_t width)
 435:..\..\..\lvgl\version_6.1.2\lvgl\src\lv_objx/lv_btnm.c **** {
 1517              		.loc 2 435 0
 1518              		.cfi_startproc
 1519              		@ args = 0, pretend = 0, frame = 16
 1520              		@ frame_needed = 1, uses_anonymous_args = 0
 1521 0000 80B5     		push	{r7, lr}
 1522              		.cfi_def_cfa_offset 8
 1523              		.cfi_offset 7, -8
 1524              		.cfi_offset 14, -4
 1525 0002 84B0     		sub	sp, sp, #16
 1526              		.cfi_def_cfa_offset 24
 1527 0004 00AF     		add	r7, sp, #0
 1528              		.cfi_def_cfa_register 7
 1529 0006 7860     		str	r0, [r7, #4]
 1530 0008 0B46     		mov	r3, r1
 1531 000a 7B80     		strh	r3, [r7, #2]	@ movhi
 1532 000c 1346     		mov	r3, r2
 1533 000e 7B70     		strb	r3, [r7, #1]
 436:..\..\..\lvgl\version_6.1.2\lvgl\src\lv_objx/lv_btnm.c ****     LV_ASSERT_OBJ(btnm, LV_OBJX_NAME);
 437:..\..\..\lvgl\version_6.1.2\lvgl\src\lv_objx/lv_btnm.c **** 
 438:..\..\..\lvgl\version_6.1.2\lvgl\src\lv_objx/lv_btnm.c **** 
 439:..\..\..\lvgl\version_6.1.2\lvgl\src\lv_objx/lv_btnm.c ****     lv_btnm_ext_t * ext = lv_obj_get_ext_attr(btnm);
 1534              		.loc 2 439 0
 1535 0010 7868     		ldr	r0, [r7, #4]
 1536 0012 FFF7FEFF 		bl	lv_obj_get_ext_attr
 1537 0016 F860     		str	r0, [r7, #12]
 440:..\..\..\lvgl\version_6.1.2\lvgl\src\lv_objx/lv_btnm.c ****     if(btn_id >= ext->btn_cnt) return;
 1538              		.loc 2 440 0
 1539 0018 FB68     		ldr	r3, [r7, #12]
 1540 001a 1B8C     		ldrh	r3, [r3, #32]
 1541 001c 7A88     		ldrh	r2, [r7, #2]
 1542 001e 9A42     		cmp	r2, r3
 1543 0020 2AD2     		bcs	.L76
 441:..\..\..\lvgl\version_6.1.2\lvgl\src\lv_objx/lv_btnm.c ****     ext->ctrl_bits[btn_id] &= (~LV_BTNM_WIDTH_MASK);
 1544              		.loc 2 441 0
 1545 0022 FB68     		ldr	r3, [r7, #12]
 1546 0024 9A68     		ldr	r2, [r3, #8]
 1547 0026 7B88     		ldrh	r3, [r7, #2]
 1548 0028 5B00     		lsls	r3, r3, #1
ARM GAS  C:\Users\tmj32\AppData\Local\Temp\ccyJ4BPG.s 			page 38


 1549 002a 1344     		add	r3, r3, r2
 1550 002c FA68     		ldr	r2, [r7, #12]
 1551 002e 9168     		ldr	r1, [r2, #8]
 1552 0030 7A88     		ldrh	r2, [r7, #2]
 1553 0032 5200     		lsls	r2, r2, #1
 1554 0034 0A44     		add	r2, r2, r1
 1555 0036 1288     		ldrh	r2, [r2]
 1556 0038 22F00702 		bic	r2, r2, #7
 1557 003c 92B2     		uxth	r2, r2
 1558 003e 1A80     		strh	r2, [r3]	@ movhi
 442:..\..\..\lvgl\version_6.1.2\lvgl\src\lv_objx/lv_btnm.c ****     ext->ctrl_bits[btn_id] |= (LV_BTNM_WIDTH_MASK & width);
 1559              		.loc 2 442 0
 1560 0040 FB68     		ldr	r3, [r7, #12]
 1561 0042 9A68     		ldr	r2, [r3, #8]
 1562 0044 7B88     		ldrh	r3, [r7, #2]
 1563 0046 5B00     		lsls	r3, r3, #1
 1564 0048 1344     		add	r3, r3, r2
 1565 004a FA68     		ldr	r2, [r7, #12]
 1566 004c 9168     		ldr	r1, [r2, #8]
 1567 004e 7A88     		ldrh	r2, [r7, #2]
 1568 0050 5200     		lsls	r2, r2, #1
 1569 0052 0A44     		add	r2, r2, r1
 1570 0054 1288     		ldrh	r2, [r2]
 1571 0056 11B2     		sxth	r1, r2
 1572 0058 7A78     		ldrb	r2, [r7, #1]	@ zero_extendqisi2
 1573 005a 12B2     		sxth	r2, r2
 1574 005c 02F00702 		and	r2, r2, #7
 1575 0060 12B2     		sxth	r2, r2
 1576 0062 0A43     		orrs	r2, r2, r1
 1577 0064 12B2     		sxth	r2, r2
 1578 0066 92B2     		uxth	r2, r2
 1579 0068 1A80     		strh	r2, [r3]	@ movhi
 443:..\..\..\lvgl\version_6.1.2\lvgl\src\lv_objx/lv_btnm.c **** 
 444:..\..\..\lvgl\version_6.1.2\lvgl\src\lv_objx/lv_btnm.c ****     lv_btnm_set_map(btnm, ext->map_p);
 1580              		.loc 2 444 0
 1581 006a FB68     		ldr	r3, [r7, #12]
 1582 006c 1B68     		ldr	r3, [r3]
 1583 006e 1946     		mov	r1, r3
 1584 0070 7868     		ldr	r0, [r7, #4]
 1585 0072 FFF7FEFF 		bl	lv_btnm_set_map
 1586 0076 00E0     		b	.L73
 1587              	.L76:
 440:..\..\..\lvgl\version_6.1.2\lvgl\src\lv_objx/lv_btnm.c ****     ext->ctrl_bits[btn_id] &= (~LV_BTNM_WIDTH_MASK);
 1588              		.loc 2 440 0
 1589 0078 00BF     		nop
 1590              	.L73:
 445:..\..\..\lvgl\version_6.1.2\lvgl\src\lv_objx/lv_btnm.c **** }
 1591              		.loc 2 445 0
 1592 007a 1037     		adds	r7, r7, #16
 1593              		.cfi_def_cfa_offset 8
 1594 007c BD46     		mov	sp, r7
 1595              		.cfi_def_cfa_register 13
 1596              		@ sp needed
 1597 007e 80BD     		pop	{r7, pc}
 1598              		.cfi_endproc
 1599              	.LFE56:
 1600              		.size	lv_btnm_set_btn_width, .-lv_btnm_set_btn_width
ARM GAS  C:\Users\tmj32\AppData\Local\Temp\ccyJ4BPG.s 			page 39


 1601              		.section	.text.lv_btnm_set_one_toggle,"ax",%progbits
 1602              		.align	2
 1603              		.global	lv_btnm_set_one_toggle
 1604              		.thumb
 1605              		.thumb_func
 1606              		.type	lv_btnm_set_one_toggle, %function
 1607              	lv_btnm_set_one_toggle:
 1608              	.LFB57:
 446:..\..\..\lvgl\version_6.1.2\lvgl\src\lv_objx/lv_btnm.c **** 
 447:..\..\..\lvgl\version_6.1.2\lvgl\src\lv_objx/lv_btnm.c **** /**
 448:..\..\..\lvgl\version_6.1.2\lvgl\src\lv_objx/lv_btnm.c ****  * Make the button matrix like a selector widget (only one button may be toggled at a time).
 449:..\..\..\lvgl\version_6.1.2\lvgl\src\lv_objx/lv_btnm.c ****  *
 450:..\..\..\lvgl\version_6.1.2\lvgl\src\lv_objx/lv_btnm.c ****  * Toggling must be enabled on the buttons you want to be selected with `lv_btnm_set_ctrl` or
 451:..\..\..\lvgl\version_6.1.2\lvgl\src\lv_objx/lv_btnm.c ****  * `lv_btnm_set_btn_ctrl_all`.
 452:..\..\..\lvgl\version_6.1.2\lvgl\src\lv_objx/lv_btnm.c ****  *
 453:..\..\..\lvgl\version_6.1.2\lvgl\src\lv_objx/lv_btnm.c ****  * @param btnm Button matrix object
 454:..\..\..\lvgl\version_6.1.2\lvgl\src\lv_objx/lv_btnm.c ****  * @param one_toggle Whether "one toggle" mode is enabled
 455:..\..\..\lvgl\version_6.1.2\lvgl\src\lv_objx/lv_btnm.c ****  */
 456:..\..\..\lvgl\version_6.1.2\lvgl\src\lv_objx/lv_btnm.c **** void lv_btnm_set_one_toggle(lv_obj_t * btnm, bool one_toggle)
 457:..\..\..\lvgl\version_6.1.2\lvgl\src\lv_objx/lv_btnm.c **** {
 1609              		.loc 2 457 0
 1610              		.cfi_startproc
 1611              		@ args = 0, pretend = 0, frame = 16
 1612              		@ frame_needed = 1, uses_anonymous_args = 0
 1613 0000 80B5     		push	{r7, lr}
 1614              		.cfi_def_cfa_offset 8
 1615              		.cfi_offset 7, -8
 1616              		.cfi_offset 14, -4
 1617 0002 84B0     		sub	sp, sp, #16
 1618              		.cfi_def_cfa_offset 24
 1619 0004 00AF     		add	r7, sp, #0
 1620              		.cfi_def_cfa_register 7
 1621 0006 7860     		str	r0, [r7, #4]
 1622 0008 0B46     		mov	r3, r1
 1623 000a FB70     		strb	r3, [r7, #3]
 458:..\..\..\lvgl\version_6.1.2\lvgl\src\lv_objx/lv_btnm.c ****     LV_ASSERT_OBJ(btnm, LV_OBJX_NAME);
 459:..\..\..\lvgl\version_6.1.2\lvgl\src\lv_objx/lv_btnm.c **** 
 460:..\..\..\lvgl\version_6.1.2\lvgl\src\lv_objx/lv_btnm.c ****     lv_btnm_ext_t * ext = lv_obj_get_ext_attr(btnm);
 1624              		.loc 2 460 0
 1625 000c 7868     		ldr	r0, [r7, #4]
 1626 000e FFF7FEFF 		bl	lv_obj_get_ext_attr
 1627 0012 F860     		str	r0, [r7, #12]
 461:..\..\..\lvgl\version_6.1.2\lvgl\src\lv_objx/lv_btnm.c ****     ext->one_toggle     = one_toggle;
 1628              		.loc 2 461 0
 1629 0014 FA68     		ldr	r2, [r7, #12]
 1630 0016 92F82630 		ldrb	r3, [r2, #38]
 1631 001a F978     		ldrb	r1, [r7, #3]
 1632 001c 61F34103 		bfi	r3, r1, #1, #1
 1633 0020 82F82630 		strb	r3, [r2, #38]
 462:..\..\..\lvgl\version_6.1.2\lvgl\src\lv_objx/lv_btnm.c **** 
 463:..\..\..\lvgl\version_6.1.2\lvgl\src\lv_objx/lv_btnm.c ****     /*If more than one button is toggled only the first one should be*/
 464:..\..\..\lvgl\version_6.1.2\lvgl\src\lv_objx/lv_btnm.c ****     make_one_button_toggled(btnm, 0);
 1634              		.loc 2 464 0
 1635 0024 0021     		movs	r1, #0
 1636 0026 7868     		ldr	r0, [r7, #4]
 1637 0028 FFF7FEFF 		bl	make_one_button_toggled
 465:..\..\..\lvgl\version_6.1.2\lvgl\src\lv_objx/lv_btnm.c **** }
ARM GAS  C:\Users\tmj32\AppData\Local\Temp\ccyJ4BPG.s 			page 40


 1638              		.loc 2 465 0
 1639 002c 00BF     		nop
 1640 002e 1037     		adds	r7, r7, #16
 1641              		.cfi_def_cfa_offset 8
 1642 0030 BD46     		mov	sp, r7
 1643              		.cfi_def_cfa_register 13
 1644              		@ sp needed
 1645 0032 80BD     		pop	{r7, pc}
 1646              		.cfi_endproc
 1647              	.LFE57:
 1648              		.size	lv_btnm_set_one_toggle, .-lv_btnm_set_one_toggle
 1649              		.section	.text.lv_btnm_get_map_array,"ax",%progbits
 1650              		.align	2
 1651              		.global	lv_btnm_get_map_array
 1652              		.thumb
 1653              		.thumb_func
 1654              		.type	lv_btnm_get_map_array, %function
 1655              	lv_btnm_get_map_array:
 1656              	.LFB58:
 466:..\..\..\lvgl\version_6.1.2\lvgl\src\lv_objx/lv_btnm.c **** 
 467:..\..\..\lvgl\version_6.1.2\lvgl\src\lv_objx/lv_btnm.c **** /*=====================
 468:..\..\..\lvgl\version_6.1.2\lvgl\src\lv_objx/lv_btnm.c ****  * Getter functions
 469:..\..\..\lvgl\version_6.1.2\lvgl\src\lv_objx/lv_btnm.c ****  *====================*/
 470:..\..\..\lvgl\version_6.1.2\lvgl\src\lv_objx/lv_btnm.c **** 
 471:..\..\..\lvgl\version_6.1.2\lvgl\src\lv_objx/lv_btnm.c **** /**
 472:..\..\..\lvgl\version_6.1.2\lvgl\src\lv_objx/lv_btnm.c ****  * Get the current map of a button matrix
 473:..\..\..\lvgl\version_6.1.2\lvgl\src\lv_objx/lv_btnm.c ****  * @param btnm pointer to a button matrix object
 474:..\..\..\lvgl\version_6.1.2\lvgl\src\lv_objx/lv_btnm.c ****  * @return the current map
 475:..\..\..\lvgl\version_6.1.2\lvgl\src\lv_objx/lv_btnm.c ****  */
 476:..\..\..\lvgl\version_6.1.2\lvgl\src\lv_objx/lv_btnm.c **** const char ** lv_btnm_get_map_array(const lv_obj_t * btnm)
 477:..\..\..\lvgl\version_6.1.2\lvgl\src\lv_objx/lv_btnm.c **** {
 1657              		.loc 2 477 0
 1658              		.cfi_startproc
 1659              		@ args = 0, pretend = 0, frame = 16
 1660              		@ frame_needed = 1, uses_anonymous_args = 0
 1661 0000 80B5     		push	{r7, lr}
 1662              		.cfi_def_cfa_offset 8
 1663              		.cfi_offset 7, -8
 1664              		.cfi_offset 14, -4
 1665 0002 84B0     		sub	sp, sp, #16
 1666              		.cfi_def_cfa_offset 24
 1667 0004 00AF     		add	r7, sp, #0
 1668              		.cfi_def_cfa_register 7
 1669 0006 7860     		str	r0, [r7, #4]
 478:..\..\..\lvgl\version_6.1.2\lvgl\src\lv_objx/lv_btnm.c ****     LV_ASSERT_OBJ(btnm, LV_OBJX_NAME);
 479:..\..\..\lvgl\version_6.1.2\lvgl\src\lv_objx/lv_btnm.c **** 
 480:..\..\..\lvgl\version_6.1.2\lvgl\src\lv_objx/lv_btnm.c ****     lv_btnm_ext_t * ext = lv_obj_get_ext_attr(btnm);
 1670              		.loc 2 480 0
 1671 0008 7868     		ldr	r0, [r7, #4]
 1672 000a FFF7FEFF 		bl	lv_obj_get_ext_attr
 1673 000e F860     		str	r0, [r7, #12]
 481:..\..\..\lvgl\version_6.1.2\lvgl\src\lv_objx/lv_btnm.c ****     return ext->map_p;
 1674              		.loc 2 481 0
 1675 0010 FB68     		ldr	r3, [r7, #12]
 1676 0012 1B68     		ldr	r3, [r3]
 482:..\..\..\lvgl\version_6.1.2\lvgl\src\lv_objx/lv_btnm.c **** }
 1677              		.loc 2 482 0
ARM GAS  C:\Users\tmj32\AppData\Local\Temp\ccyJ4BPG.s 			page 41


 1678 0014 1846     		mov	r0, r3
 1679 0016 1037     		adds	r7, r7, #16
 1680              		.cfi_def_cfa_offset 8
 1681 0018 BD46     		mov	sp, r7
 1682              		.cfi_def_cfa_register 13
 1683              		@ sp needed
 1684 001a 80BD     		pop	{r7, pc}
 1685              		.cfi_endproc
 1686              	.LFE58:
 1687              		.size	lv_btnm_get_map_array, .-lv_btnm_get_map_array
 1688              		.section	.text.lv_btnm_get_recolor,"ax",%progbits
 1689              		.align	2
 1690              		.global	lv_btnm_get_recolor
 1691              		.thumb
 1692              		.thumb_func
 1693              		.type	lv_btnm_get_recolor, %function
 1694              	lv_btnm_get_recolor:
 1695              	.LFB59:
 483:..\..\..\lvgl\version_6.1.2\lvgl\src\lv_objx/lv_btnm.c **** 
 484:..\..\..\lvgl\version_6.1.2\lvgl\src\lv_objx/lv_btnm.c **** /**
 485:..\..\..\lvgl\version_6.1.2\lvgl\src\lv_objx/lv_btnm.c ****  * Check whether the button's text can use recolor or not
 486:..\..\..\lvgl\version_6.1.2\lvgl\src\lv_objx/lv_btnm.c ****  * @param btnm pointer to button matrix object
 487:..\..\..\lvgl\version_6.1.2\lvgl\src\lv_objx/lv_btnm.c ****  * @return true: text recolor enable; false: disabled
 488:..\..\..\lvgl\version_6.1.2\lvgl\src\lv_objx/lv_btnm.c ****  */
 489:..\..\..\lvgl\version_6.1.2\lvgl\src\lv_objx/lv_btnm.c **** bool lv_btnm_get_recolor(const lv_obj_t * btnm)
 490:..\..\..\lvgl\version_6.1.2\lvgl\src\lv_objx/lv_btnm.c **** {
 1696              		.loc 2 490 0
 1697              		.cfi_startproc
 1698              		@ args = 0, pretend = 0, frame = 16
 1699              		@ frame_needed = 1, uses_anonymous_args = 0
 1700 0000 80B5     		push	{r7, lr}
 1701              		.cfi_def_cfa_offset 8
 1702              		.cfi_offset 7, -8
 1703              		.cfi_offset 14, -4
 1704 0002 84B0     		sub	sp, sp, #16
 1705              		.cfi_def_cfa_offset 24
 1706 0004 00AF     		add	r7, sp, #0
 1707              		.cfi_def_cfa_register 7
 1708 0006 7860     		str	r0, [r7, #4]
 491:..\..\..\lvgl\version_6.1.2\lvgl\src\lv_objx/lv_btnm.c ****     LV_ASSERT_OBJ(btnm, LV_OBJX_NAME);
 492:..\..\..\lvgl\version_6.1.2\lvgl\src\lv_objx/lv_btnm.c **** 
 493:..\..\..\lvgl\version_6.1.2\lvgl\src\lv_objx/lv_btnm.c ****     lv_btnm_ext_t * ext = lv_obj_get_ext_attr(btnm);
 1709              		.loc 2 493 0
 1710 0008 7868     		ldr	r0, [r7, #4]
 1711 000a FFF7FEFF 		bl	lv_obj_get_ext_attr
 1712 000e F860     		str	r0, [r7, #12]
 494:..\..\..\lvgl\version_6.1.2\lvgl\src\lv_objx/lv_btnm.c **** 
 495:..\..\..\lvgl\version_6.1.2\lvgl\src\lv_objx/lv_btnm.c ****     return ext->recolor;
 1713              		.loc 2 495 0
 1714 0010 FB68     		ldr	r3, [r7, #12]
 1715 0012 93F82630 		ldrb	r3, [r3, #38]
 1716 0016 C3F30003 		ubfx	r3, r3, #0, #1
 1717 001a DBB2     		uxtb	r3, r3
 1718 001c 002B     		cmp	r3, #0
 1719 001e 14BF     		ite	ne
 1720 0020 0123     		movne	r3, #1
 1721 0022 0023     		moveq	r3, #0
ARM GAS  C:\Users\tmj32\AppData\Local\Temp\ccyJ4BPG.s 			page 42


 1722 0024 DBB2     		uxtb	r3, r3
 496:..\..\..\lvgl\version_6.1.2\lvgl\src\lv_objx/lv_btnm.c **** }
 1723              		.loc 2 496 0
 1724 0026 1846     		mov	r0, r3
 1725 0028 1037     		adds	r7, r7, #16
 1726              		.cfi_def_cfa_offset 8
 1727 002a BD46     		mov	sp, r7
 1728              		.cfi_def_cfa_register 13
 1729              		@ sp needed
 1730 002c 80BD     		pop	{r7, pc}
 1731              		.cfi_endproc
 1732              	.LFE59:
 1733              		.size	lv_btnm_get_recolor, .-lv_btnm_get_recolor
 1734 002e 00BF     		.section	.text.lv_btnm_get_active_btn,"ax",%progbits
 1735              		.align	2
 1736              		.global	lv_btnm_get_active_btn
 1737              		.thumb
 1738              		.thumb_func
 1739              		.type	lv_btnm_get_active_btn, %function
 1740              	lv_btnm_get_active_btn:
 1741              	.LFB60:
 497:..\..\..\lvgl\version_6.1.2\lvgl\src\lv_objx/lv_btnm.c **** 
 498:..\..\..\lvgl\version_6.1.2\lvgl\src\lv_objx/lv_btnm.c **** /**
 499:..\..\..\lvgl\version_6.1.2\lvgl\src\lv_objx/lv_btnm.c ****  * Get the index of the lastly "activated" button by the user (pressed, released etc)
 500:..\..\..\lvgl\version_6.1.2\lvgl\src\lv_objx/lv_btnm.c ****  * Useful in the the `event_cb` to get the text of the button, check if hidden etc.
 501:..\..\..\lvgl\version_6.1.2\lvgl\src\lv_objx/lv_btnm.c ****  * @param btnm pointer to button matrix object
 502:..\..\..\lvgl\version_6.1.2\lvgl\src\lv_objx/lv_btnm.c ****  * @return  index of the last released button (LV_BTNM_BTN_NONE: if unset)
 503:..\..\..\lvgl\version_6.1.2\lvgl\src\lv_objx/lv_btnm.c ****  */
 504:..\..\..\lvgl\version_6.1.2\lvgl\src\lv_objx/lv_btnm.c **** uint16_t lv_btnm_get_active_btn(const lv_obj_t * btnm)
 505:..\..\..\lvgl\version_6.1.2\lvgl\src\lv_objx/lv_btnm.c **** {
 1742              		.loc 2 505 0
 1743              		.cfi_startproc
 1744              		@ args = 0, pretend = 0, frame = 16
 1745              		@ frame_needed = 1, uses_anonymous_args = 0
 1746 0000 80B5     		push	{r7, lr}
 1747              		.cfi_def_cfa_offset 8
 1748              		.cfi_offset 7, -8
 1749              		.cfi_offset 14, -4
 1750 0002 84B0     		sub	sp, sp, #16
 1751              		.cfi_def_cfa_offset 24
 1752 0004 00AF     		add	r7, sp, #0
 1753              		.cfi_def_cfa_register 7
 1754 0006 7860     		str	r0, [r7, #4]
 506:..\..\..\lvgl\version_6.1.2\lvgl\src\lv_objx/lv_btnm.c ****     LV_ASSERT_OBJ(btnm, LV_OBJX_NAME);
 507:..\..\..\lvgl\version_6.1.2\lvgl\src\lv_objx/lv_btnm.c **** 
 508:..\..\..\lvgl\version_6.1.2\lvgl\src\lv_objx/lv_btnm.c ****     lv_btnm_ext_t * ext = lv_obj_get_ext_attr(btnm);
 1755              		.loc 2 508 0
 1756 0008 7868     		ldr	r0, [r7, #4]
 1757 000a FFF7FEFF 		bl	lv_obj_get_ext_attr
 1758 000e F860     		str	r0, [r7, #12]
 509:..\..\..\lvgl\version_6.1.2\lvgl\src\lv_objx/lv_btnm.c ****     return ext->btn_id_act;
 1759              		.loc 2 509 0
 1760 0010 FB68     		ldr	r3, [r7, #12]
 1761 0012 9B8C     		ldrh	r3, [r3, #36]
 510:..\..\..\lvgl\version_6.1.2\lvgl\src\lv_objx/lv_btnm.c **** }
 1762              		.loc 2 510 0
 1763 0014 1846     		mov	r0, r3
ARM GAS  C:\Users\tmj32\AppData\Local\Temp\ccyJ4BPG.s 			page 43


 1764 0016 1037     		adds	r7, r7, #16
 1765              		.cfi_def_cfa_offset 8
 1766 0018 BD46     		mov	sp, r7
 1767              		.cfi_def_cfa_register 13
 1768              		@ sp needed
 1769 001a 80BD     		pop	{r7, pc}
 1770              		.cfi_endproc
 1771              	.LFE60:
 1772              		.size	lv_btnm_get_active_btn, .-lv_btnm_get_active_btn
 1773              		.section	.text.lv_btnm_get_active_btn_text,"ax",%progbits
 1774              		.align	2
 1775              		.global	lv_btnm_get_active_btn_text
 1776              		.thumb
 1777              		.thumb_func
 1778              		.type	lv_btnm_get_active_btn_text, %function
 1779              	lv_btnm_get_active_btn_text:
 1780              	.LFB61:
 511:..\..\..\lvgl\version_6.1.2\lvgl\src\lv_objx/lv_btnm.c **** 
 512:..\..\..\lvgl\version_6.1.2\lvgl\src\lv_objx/lv_btnm.c **** /**
 513:..\..\..\lvgl\version_6.1.2\lvgl\src\lv_objx/lv_btnm.c ****  * Get the text of the lastly "activated" button by the user (pressed, released etc)
 514:..\..\..\lvgl\version_6.1.2\lvgl\src\lv_objx/lv_btnm.c ****  * Useful in the the `event_cb`
 515:..\..\..\lvgl\version_6.1.2\lvgl\src\lv_objx/lv_btnm.c ****  * @param btnm pointer to button matrix object
 516:..\..\..\lvgl\version_6.1.2\lvgl\src\lv_objx/lv_btnm.c ****  * @return text of the last released button (NULL: if unset)
 517:..\..\..\lvgl\version_6.1.2\lvgl\src\lv_objx/lv_btnm.c ****  */
 518:..\..\..\lvgl\version_6.1.2\lvgl\src\lv_objx/lv_btnm.c **** const char * lv_btnm_get_active_btn_text(const lv_obj_t * btnm)
 519:..\..\..\lvgl\version_6.1.2\lvgl\src\lv_objx/lv_btnm.c **** {
 1781              		.loc 2 519 0
 1782              		.cfi_startproc
 1783              		@ args = 0, pretend = 0, frame = 16
 1784              		@ frame_needed = 1, uses_anonymous_args = 0
 1785 0000 80B5     		push	{r7, lr}
 1786              		.cfi_def_cfa_offset 8
 1787              		.cfi_offset 7, -8
 1788              		.cfi_offset 14, -4
 1789 0002 84B0     		sub	sp, sp, #16
 1790              		.cfi_def_cfa_offset 24
 1791 0004 00AF     		add	r7, sp, #0
 1792              		.cfi_def_cfa_register 7
 1793 0006 7860     		str	r0, [r7, #4]
 520:..\..\..\lvgl\version_6.1.2\lvgl\src\lv_objx/lv_btnm.c ****     LV_ASSERT_OBJ(btnm, LV_OBJX_NAME);
 521:..\..\..\lvgl\version_6.1.2\lvgl\src\lv_objx/lv_btnm.c **** 
 522:..\..\..\lvgl\version_6.1.2\lvgl\src\lv_objx/lv_btnm.c ****     lv_btnm_ext_t * ext = lv_obj_get_ext_attr(btnm);
 1794              		.loc 2 522 0
 1795 0008 7868     		ldr	r0, [r7, #4]
 1796 000a FFF7FEFF 		bl	lv_obj_get_ext_attr
 1797 000e F860     		str	r0, [r7, #12]
 523:..\..\..\lvgl\version_6.1.2\lvgl\src\lv_objx/lv_btnm.c ****     if(ext->btn_id_act != LV_BTNM_BTN_NONE) {
 1798              		.loc 2 523 0
 1799 0010 FB68     		ldr	r3, [r7, #12]
 1800 0012 9B8C     		ldrh	r3, [r3, #36]
 1801 0014 4FF6FF72 		movw	r2, #65535
 1802 0018 9342     		cmp	r3, r2
 1803 001a 07D0     		beq	.L85
 524:..\..\..\lvgl\version_6.1.2\lvgl\src\lv_objx/lv_btnm.c ****         return lv_btnm_get_btn_text(btnm, ext->btn_id_act);
 1804              		.loc 2 524 0
 1805 001c FB68     		ldr	r3, [r7, #12]
 1806 001e 9B8C     		ldrh	r3, [r3, #36]
ARM GAS  C:\Users\tmj32\AppData\Local\Temp\ccyJ4BPG.s 			page 44


 1807 0020 1946     		mov	r1, r3
 1808 0022 7868     		ldr	r0, [r7, #4]
 1809 0024 FFF7FEFF 		bl	lv_btnm_get_btn_text
 1810 0028 0346     		mov	r3, r0
 1811 002a 00E0     		b	.L86
 1812              	.L85:
 525:..\..\..\lvgl\version_6.1.2\lvgl\src\lv_objx/lv_btnm.c ****     } else {
 526:..\..\..\lvgl\version_6.1.2\lvgl\src\lv_objx/lv_btnm.c ****         return NULL;
 1813              		.loc 2 526 0
 1814 002c 0023     		movs	r3, #0
 1815              	.L86:
 527:..\..\..\lvgl\version_6.1.2\lvgl\src\lv_objx/lv_btnm.c ****     }
 528:..\..\..\lvgl\version_6.1.2\lvgl\src\lv_objx/lv_btnm.c **** }
 1816              		.loc 2 528 0
 1817 002e 1846     		mov	r0, r3
 1818 0030 1037     		adds	r7, r7, #16
 1819              		.cfi_def_cfa_offset 8
 1820 0032 BD46     		mov	sp, r7
 1821              		.cfi_def_cfa_register 13
 1822              		@ sp needed
 1823 0034 80BD     		pop	{r7, pc}
 1824              		.cfi_endproc
 1825              	.LFE61:
 1826              		.size	lv_btnm_get_active_btn_text, .-lv_btnm_get_active_btn_text
 1827 0036 00BF     		.section	.text.lv_btnm_get_pressed_btn,"ax",%progbits
 1828              		.align	2
 1829              		.global	lv_btnm_get_pressed_btn
 1830              		.thumb
 1831              		.thumb_func
 1832              		.type	lv_btnm_get_pressed_btn, %function
 1833              	lv_btnm_get_pressed_btn:
 1834              	.LFB62:
 529:..\..\..\lvgl\version_6.1.2\lvgl\src\lv_objx/lv_btnm.c **** 
 530:..\..\..\lvgl\version_6.1.2\lvgl\src\lv_objx/lv_btnm.c **** /**
 531:..\..\..\lvgl\version_6.1.2\lvgl\src\lv_objx/lv_btnm.c ****  * Get the pressed button's index.
 532:..\..\..\lvgl\version_6.1.2\lvgl\src\lv_objx/lv_btnm.c ****  * The button be really pressed by the user or manually set to pressed with `lv_btnm_set_pressed`
 533:..\..\..\lvgl\version_6.1.2\lvgl\src\lv_objx/lv_btnm.c ****  * @param btnm pointer to button matrix object
 534:..\..\..\lvgl\version_6.1.2\lvgl\src\lv_objx/lv_btnm.c ****  * @return  index of the pressed button (LV_BTNM_BTN_NONE: if unset)
 535:..\..\..\lvgl\version_6.1.2\lvgl\src\lv_objx/lv_btnm.c ****  */
 536:..\..\..\lvgl\version_6.1.2\lvgl\src\lv_objx/lv_btnm.c **** uint16_t lv_btnm_get_pressed_btn(const lv_obj_t * btnm)
 537:..\..\..\lvgl\version_6.1.2\lvgl\src\lv_objx/lv_btnm.c **** {
 1835              		.loc 2 537 0
 1836              		.cfi_startproc
 1837              		@ args = 0, pretend = 0, frame = 16
 1838              		@ frame_needed = 1, uses_anonymous_args = 0
 1839 0000 80B5     		push	{r7, lr}
 1840              		.cfi_def_cfa_offset 8
 1841              		.cfi_offset 7, -8
 1842              		.cfi_offset 14, -4
 1843 0002 84B0     		sub	sp, sp, #16
 1844              		.cfi_def_cfa_offset 24
 1845 0004 00AF     		add	r7, sp, #0
 1846              		.cfi_def_cfa_register 7
 1847 0006 7860     		str	r0, [r7, #4]
 538:..\..\..\lvgl\version_6.1.2\lvgl\src\lv_objx/lv_btnm.c ****     LV_ASSERT_OBJ(btnm, LV_OBJX_NAME);
 539:..\..\..\lvgl\version_6.1.2\lvgl\src\lv_objx/lv_btnm.c **** 
 540:..\..\..\lvgl\version_6.1.2\lvgl\src\lv_objx/lv_btnm.c ****     lv_btnm_ext_t * ext = lv_obj_get_ext_attr(btnm);
ARM GAS  C:\Users\tmj32\AppData\Local\Temp\ccyJ4BPG.s 			page 45


 1848              		.loc 2 540 0
 1849 0008 7868     		ldr	r0, [r7, #4]
 1850 000a FFF7FEFF 		bl	lv_obj_get_ext_attr
 1851 000e F860     		str	r0, [r7, #12]
 541:..\..\..\lvgl\version_6.1.2\lvgl\src\lv_objx/lv_btnm.c ****     return ext->btn_id_pr;
 1852              		.loc 2 541 0
 1853 0010 FB68     		ldr	r3, [r7, #12]
 1854 0012 5B8C     		ldrh	r3, [r3, #34]
 542:..\..\..\lvgl\version_6.1.2\lvgl\src\lv_objx/lv_btnm.c **** }
 1855              		.loc 2 542 0
 1856 0014 1846     		mov	r0, r3
 1857 0016 1037     		adds	r7, r7, #16
 1858              		.cfi_def_cfa_offset 8
 1859 0018 BD46     		mov	sp, r7
 1860              		.cfi_def_cfa_register 13
 1861              		@ sp needed
 1862 001a 80BD     		pop	{r7, pc}
 1863              		.cfi_endproc
 1864              	.LFE62:
 1865              		.size	lv_btnm_get_pressed_btn, .-lv_btnm_get_pressed_btn
 1866              		.section	.text.lv_btnm_get_btn_text,"ax",%progbits
 1867              		.align	2
 1868              		.global	lv_btnm_get_btn_text
 1869              		.thumb
 1870              		.thumb_func
 1871              		.type	lv_btnm_get_btn_text, %function
 1872              	lv_btnm_get_btn_text:
 1873              	.LFB63:
 543:..\..\..\lvgl\version_6.1.2\lvgl\src\lv_objx/lv_btnm.c **** 
 544:..\..\..\lvgl\version_6.1.2\lvgl\src\lv_objx/lv_btnm.c **** /**
 545:..\..\..\lvgl\version_6.1.2\lvgl\src\lv_objx/lv_btnm.c ****  * Get the button's text
 546:..\..\..\lvgl\version_6.1.2\lvgl\src\lv_objx/lv_btnm.c ****  * @param btnm pointer to button matrix object
 547:..\..\..\lvgl\version_6.1.2\lvgl\src\lv_objx/lv_btnm.c ****  * @param btn_id the index a button not counting new line characters. (The return value of
 548:..\..\..\lvgl\version_6.1.2\lvgl\src\lv_objx/lv_btnm.c ****  * lv_btnm_get_pressed/released)
 549:..\..\..\lvgl\version_6.1.2\lvgl\src\lv_objx/lv_btnm.c ****  * @return  text of btn_index` button
 550:..\..\..\lvgl\version_6.1.2\lvgl\src\lv_objx/lv_btnm.c ****  */
 551:..\..\..\lvgl\version_6.1.2\lvgl\src\lv_objx/lv_btnm.c **** const char * lv_btnm_get_btn_text(const lv_obj_t * btnm, uint16_t btn_id)
 552:..\..\..\lvgl\version_6.1.2\lvgl\src\lv_objx/lv_btnm.c **** {
 1874              		.loc 2 552 0
 1875              		.cfi_startproc
 1876              		@ args = 0, pretend = 0, frame = 16
 1877              		@ frame_needed = 1, uses_anonymous_args = 0
 1878 0000 80B5     		push	{r7, lr}
 1879              		.cfi_def_cfa_offset 8
 1880              		.cfi_offset 7, -8
 1881              		.cfi_offset 14, -4
 1882 0002 84B0     		sub	sp, sp, #16
 1883              		.cfi_def_cfa_offset 24
 1884 0004 00AF     		add	r7, sp, #0
 1885              		.cfi_def_cfa_register 7
 1886 0006 7860     		str	r0, [r7, #4]
 1887 0008 0B46     		mov	r3, r1
 1888 000a 7B80     		strh	r3, [r7, #2]	@ movhi
 553:..\..\..\lvgl\version_6.1.2\lvgl\src\lv_objx/lv_btnm.c ****     LV_ASSERT_OBJ(btnm, LV_OBJX_NAME);
 554:..\..\..\lvgl\version_6.1.2\lvgl\src\lv_objx/lv_btnm.c **** 
 555:..\..\..\lvgl\version_6.1.2\lvgl\src\lv_objx/lv_btnm.c ****     lv_btnm_ext_t * ext = lv_obj_get_ext_attr(btnm);
 1889              		.loc 2 555 0
ARM GAS  C:\Users\tmj32\AppData\Local\Temp\ccyJ4BPG.s 			page 46


 1890 000c 7868     		ldr	r0, [r7, #4]
 1891 000e FFF7FEFF 		bl	lv_obj_get_ext_attr
 1892 0012 B860     		str	r0, [r7, #8]
 556:..\..\..\lvgl\version_6.1.2\lvgl\src\lv_objx/lv_btnm.c ****     if(btn_id > ext->btn_cnt) return NULL;
 1893              		.loc 2 556 0
 1894 0014 BB68     		ldr	r3, [r7, #8]
 1895 0016 1B8C     		ldrh	r3, [r3, #32]
 1896 0018 7A88     		ldrh	r2, [r7, #2]
 1897 001a 9A42     		cmp	r2, r3
 1898 001c 01D9     		bls	.L90
 1899              		.loc 2 556 0 is_stmt 0 discriminator 1
 1900 001e 0023     		movs	r3, #0
 1901 0020 2BE0     		b	.L91
 1902              	.L90:
 557:..\..\..\lvgl\version_6.1.2\lvgl\src\lv_objx/lv_btnm.c **** 
 558:..\..\..\lvgl\version_6.1.2\lvgl\src\lv_objx/lv_btnm.c ****     uint16_t txt_i = 0;
 1903              		.loc 2 558 0 is_stmt 1
 1904 0022 0023     		movs	r3, #0
 1905 0024 FB81     		strh	r3, [r7, #14]	@ movhi
 559:..\..\..\lvgl\version_6.1.2\lvgl\src\lv_objx/lv_btnm.c ****     uint16_t btn_i = 0;
 1906              		.loc 2 559 0
 1907 0026 0023     		movs	r3, #0
 1908 0028 BB81     		strh	r3, [r7, #12]	@ movhi
 560:..\..\..\lvgl\version_6.1.2\lvgl\src\lv_objx/lv_btnm.c **** 
 561:..\..\..\lvgl\version_6.1.2\lvgl\src\lv_objx/lv_btnm.c ****     /* Search the text of ext->btn_pr the buttons text in the map
 562:..\..\..\lvgl\version_6.1.2\lvgl\src\lv_objx/lv_btnm.c ****      * Skip "\n"-s*/
 563:..\..\..\lvgl\version_6.1.2\lvgl\src\lv_objx/lv_btnm.c ****     while(btn_i != btn_id) {
 1909              		.loc 2 563 0
 1910 002a 15E0     		b	.L92
 1911              	.L93:
 564:..\..\..\lvgl\version_6.1.2\lvgl\src\lv_objx/lv_btnm.c ****         btn_i++;
 1912              		.loc 2 564 0
 1913 002c BB89     		ldrh	r3, [r7, #12]
 1914 002e 0133     		adds	r3, r3, #1
 1915 0030 BB81     		strh	r3, [r7, #12]	@ movhi
 565:..\..\..\lvgl\version_6.1.2\lvgl\src\lv_objx/lv_btnm.c ****         txt_i++;
 1916              		.loc 2 565 0
 1917 0032 FB89     		ldrh	r3, [r7, #14]
 1918 0034 0133     		adds	r3, r3, #1
 1919 0036 FB81     		strh	r3, [r7, #14]	@ movhi
 566:..\..\..\lvgl\version_6.1.2\lvgl\src\lv_objx/lv_btnm.c ****         if(strcmp(ext->map_p[txt_i], "\n") == 0) txt_i++;
 1920              		.loc 2 566 0
 1921 0038 BB68     		ldr	r3, [r7, #8]
 1922 003a 1A68     		ldr	r2, [r3]
 1923 003c FB89     		ldrh	r3, [r7, #14]
 1924 003e 9B00     		lsls	r3, r3, #2
 1925 0040 1344     		add	r3, r3, r2
 1926 0042 1B68     		ldr	r3, [r3]
 1927 0044 0F49     		ldr	r1, .L95
 1928 0046 1846     		mov	r0, r3
 1929 0048 FFF7FEFF 		bl	strcmp
 1930 004c 0346     		mov	r3, r0
 1931 004e 002B     		cmp	r3, #0
 1932 0050 02D1     		bne	.L92
 1933              		.loc 2 566 0 is_stmt 0 discriminator 1
 1934 0052 FB89     		ldrh	r3, [r7, #14]
 1935 0054 0133     		adds	r3, r3, #1
ARM GAS  C:\Users\tmj32\AppData\Local\Temp\ccyJ4BPG.s 			page 47


 1936 0056 FB81     		strh	r3, [r7, #14]	@ movhi
 1937              	.L92:
 563:..\..\..\lvgl\version_6.1.2\lvgl\src\lv_objx/lv_btnm.c ****         btn_i++;
 1938              		.loc 2 563 0 is_stmt 1
 1939 0058 BA89     		ldrh	r2, [r7, #12]
 1940 005a 7B88     		ldrh	r3, [r7, #2]
 1941 005c 9A42     		cmp	r2, r3
 1942 005e E5D1     		bne	.L93
 567:..\..\..\lvgl\version_6.1.2\lvgl\src\lv_objx/lv_btnm.c ****     }
 568:..\..\..\lvgl\version_6.1.2\lvgl\src\lv_objx/lv_btnm.c **** 
 569:..\..\..\lvgl\version_6.1.2\lvgl\src\lv_objx/lv_btnm.c ****     if(btn_i == ext->btn_cnt) return NULL;
 1943              		.loc 2 569 0
 1944 0060 BB68     		ldr	r3, [r7, #8]
 1945 0062 1B8C     		ldrh	r3, [r3, #32]
 1946 0064 BA89     		ldrh	r2, [r7, #12]
 1947 0066 9A42     		cmp	r2, r3
 1948 0068 01D1     		bne	.L94
 1949              		.loc 2 569 0 is_stmt 0 discriminator 1
 1950 006a 0023     		movs	r3, #0
 1951 006c 05E0     		b	.L91
 1952              	.L94:
 570:..\..\..\lvgl\version_6.1.2\lvgl\src\lv_objx/lv_btnm.c **** 
 571:..\..\..\lvgl\version_6.1.2\lvgl\src\lv_objx/lv_btnm.c ****     return ext->map_p[txt_i];
 1953              		.loc 2 571 0 is_stmt 1
 1954 006e BB68     		ldr	r3, [r7, #8]
 1955 0070 1A68     		ldr	r2, [r3]
 1956 0072 FB89     		ldrh	r3, [r7, #14]
 1957 0074 9B00     		lsls	r3, r3, #2
 1958 0076 1344     		add	r3, r3, r2
 1959 0078 1B68     		ldr	r3, [r3]
 1960              	.L91:
 572:..\..\..\lvgl\version_6.1.2\lvgl\src\lv_objx/lv_btnm.c **** }
 1961              		.loc 2 572 0
 1962 007a 1846     		mov	r0, r3
 1963 007c 1037     		adds	r7, r7, #16
 1964              		.cfi_def_cfa_offset 8
 1965 007e BD46     		mov	sp, r7
 1966              		.cfi_def_cfa_register 13
 1967              		@ sp needed
 1968 0080 80BD     		pop	{r7, pc}
 1969              	.L96:
 1970 0082 00BF     		.align	2
 1971              	.L95:
 1972 0084 18000000 		.word	.LC3
 1973              		.cfi_endproc
 1974              	.LFE63:
 1975              		.size	lv_btnm_get_btn_text, .-lv_btnm_get_btn_text
 1976              		.section	.text.lv_btnm_get_btn_ctrl,"ax",%progbits
 1977              		.align	2
 1978              		.global	lv_btnm_get_btn_ctrl
 1979              		.thumb
 1980              		.thumb_func
 1981              		.type	lv_btnm_get_btn_ctrl, %function
 1982              	lv_btnm_get_btn_ctrl:
 1983              	.LFB64:
 573:..\..\..\lvgl\version_6.1.2\lvgl\src\lv_objx/lv_btnm.c **** 
 574:..\..\..\lvgl\version_6.1.2\lvgl\src\lv_objx/lv_btnm.c **** /**
ARM GAS  C:\Users\tmj32\AppData\Local\Temp\ccyJ4BPG.s 			page 48


 575:..\..\..\lvgl\version_6.1.2\lvgl\src\lv_objx/lv_btnm.c ****  * Get the whether a control value is enabled or disabled for button of a button matrix
 576:..\..\..\lvgl\version_6.1.2\lvgl\src\lv_objx/lv_btnm.c ****  * @param btnm pointer to a button matrix object
 577:..\..\..\lvgl\version_6.1.2\lvgl\src\lv_objx/lv_btnm.c ****  * @param btn_id the index a button not counting new line characters. (E.g. the return value of
 578:..\..\..\lvgl\version_6.1.2\lvgl\src\lv_objx/lv_btnm.c ****  * lv_btnm_get_pressed/released)
 579:..\..\..\lvgl\version_6.1.2\lvgl\src\lv_objx/lv_btnm.c ****  * @param ctrl control values to check (ORed value can be used)
 580:..\..\..\lvgl\version_6.1.2\lvgl\src\lv_objx/lv_btnm.c ****  * @return true: long press repeat is disabled; false: long press repeat enabled
 581:..\..\..\lvgl\version_6.1.2\lvgl\src\lv_objx/lv_btnm.c ****  */
 582:..\..\..\lvgl\version_6.1.2\lvgl\src\lv_objx/lv_btnm.c **** bool lv_btnm_get_btn_ctrl(lv_obj_t * btnm, uint16_t btn_id, lv_btnm_ctrl_t ctrl)
 583:..\..\..\lvgl\version_6.1.2\lvgl\src\lv_objx/lv_btnm.c **** {
 1984              		.loc 2 583 0
 1985              		.cfi_startproc
 1986              		@ args = 0, pretend = 0, frame = 16
 1987              		@ frame_needed = 1, uses_anonymous_args = 0
 1988 0000 80B5     		push	{r7, lr}
 1989              		.cfi_def_cfa_offset 8
 1990              		.cfi_offset 7, -8
 1991              		.cfi_offset 14, -4
 1992 0002 84B0     		sub	sp, sp, #16
 1993              		.cfi_def_cfa_offset 24
 1994 0004 00AF     		add	r7, sp, #0
 1995              		.cfi_def_cfa_register 7
 1996 0006 7860     		str	r0, [r7, #4]
 1997 0008 0B46     		mov	r3, r1
 1998 000a 7B80     		strh	r3, [r7, #2]	@ movhi
 1999 000c 1346     		mov	r3, r2	@ movhi
 2000 000e 3B80     		strh	r3, [r7]	@ movhi
 584:..\..\..\lvgl\version_6.1.2\lvgl\src\lv_objx/lv_btnm.c ****     LV_ASSERT_OBJ(btnm, LV_OBJX_NAME);
 585:..\..\..\lvgl\version_6.1.2\lvgl\src\lv_objx/lv_btnm.c **** 
 586:..\..\..\lvgl\version_6.1.2\lvgl\src\lv_objx/lv_btnm.c ****     lv_btnm_ext_t * ext = lv_obj_get_ext_attr(btnm);
 2001              		.loc 2 586 0
 2002 0010 7868     		ldr	r0, [r7, #4]
 2003 0012 FFF7FEFF 		bl	lv_obj_get_ext_attr
 2004 0016 F860     		str	r0, [r7, #12]
 587:..\..\..\lvgl\version_6.1.2\lvgl\src\lv_objx/lv_btnm.c ****     if(btn_id >= ext->btn_cnt) return false;
 2005              		.loc 2 587 0
 2006 0018 FB68     		ldr	r3, [r7, #12]
 2007 001a 1B8C     		ldrh	r3, [r3, #32]
 2008 001c 7A88     		ldrh	r2, [r7, #2]
 2009 001e 9A42     		cmp	r2, r3
 2010 0020 01D3     		bcc	.L98
 2011              		.loc 2 587 0 is_stmt 0 discriminator 1
 2012 0022 0023     		movs	r3, #0
 2013 0024 0DE0     		b	.L99
 2014              	.L98:
 588:..\..\..\lvgl\version_6.1.2\lvgl\src\lv_objx/lv_btnm.c **** 
 589:..\..\..\lvgl\version_6.1.2\lvgl\src\lv_objx/lv_btnm.c ****     return ext->ctrl_bits[btn_id] & ctrl ? true : false;
 2015              		.loc 2 589 0 is_stmt 1
 2016 0026 FB68     		ldr	r3, [r7, #12]
 2017 0028 9A68     		ldr	r2, [r3, #8]
 2018 002a 7B88     		ldrh	r3, [r7, #2]
 2019 002c 5B00     		lsls	r3, r3, #1
 2020 002e 1344     		add	r3, r3, r2
 2021 0030 1A88     		ldrh	r2, [r3]
 2022 0032 3B88     		ldrh	r3, [r7]	@ movhi
 2023 0034 1340     		ands	r3, r3, r2
 2024 0036 9BB2     		uxth	r3, r3
 2025 0038 002B     		cmp	r3, #0
ARM GAS  C:\Users\tmj32\AppData\Local\Temp\ccyJ4BPG.s 			page 49


 2026 003a 14BF     		ite	ne
 2027 003c 0123     		movne	r3, #1
 2028 003e 0023     		moveq	r3, #0
 2029 0040 DBB2     		uxtb	r3, r3
 2030              	.L99:
 590:..\..\..\lvgl\version_6.1.2\lvgl\src\lv_objx/lv_btnm.c **** }
 2031              		.loc 2 590 0
 2032 0042 1846     		mov	r0, r3
 2033 0044 1037     		adds	r7, r7, #16
 2034              		.cfi_def_cfa_offset 8
 2035 0046 BD46     		mov	sp, r7
 2036              		.cfi_def_cfa_register 13
 2037              		@ sp needed
 2038 0048 80BD     		pop	{r7, pc}
 2039              		.cfi_endproc
 2040              	.LFE64:
 2041              		.size	lv_btnm_get_btn_ctrl, .-lv_btnm_get_btn_ctrl
 2042 004a 00BF     		.section	.text.lv_btnm_get_style,"ax",%progbits
 2043              		.align	2
 2044              		.global	lv_btnm_get_style
 2045              		.thumb
 2046              		.thumb_func
 2047              		.type	lv_btnm_get_style, %function
 2048              	lv_btnm_get_style:
 2049              	.LFB65:
 591:..\..\..\lvgl\version_6.1.2\lvgl\src\lv_objx/lv_btnm.c **** 
 592:..\..\..\lvgl\version_6.1.2\lvgl\src\lv_objx/lv_btnm.c **** /**
 593:..\..\..\lvgl\version_6.1.2\lvgl\src\lv_objx/lv_btnm.c ****  * Get a style of a button matrix
 594:..\..\..\lvgl\version_6.1.2\lvgl\src\lv_objx/lv_btnm.c ****  * @param btnm pointer to a button matrix object
 595:..\..\..\lvgl\version_6.1.2\lvgl\src\lv_objx/lv_btnm.c ****  * @param type which style should be get
 596:..\..\..\lvgl\version_6.1.2\lvgl\src\lv_objx/lv_btnm.c ****  * @return style pointer to a style
 597:..\..\..\lvgl\version_6.1.2\lvgl\src\lv_objx/lv_btnm.c ****  */
 598:..\..\..\lvgl\version_6.1.2\lvgl\src\lv_objx/lv_btnm.c **** const lv_style_t * lv_btnm_get_style(const lv_obj_t * btnm, lv_btnm_style_t type)
 599:..\..\..\lvgl\version_6.1.2\lvgl\src\lv_objx/lv_btnm.c **** {
 2050              		.loc 2 599 0
 2051              		.cfi_startproc
 2052              		@ args = 0, pretend = 0, frame = 16
 2053              		@ frame_needed = 1, uses_anonymous_args = 0
 2054 0000 80B5     		push	{r7, lr}
 2055              		.cfi_def_cfa_offset 8
 2056              		.cfi_offset 7, -8
 2057              		.cfi_offset 14, -4
 2058 0002 84B0     		sub	sp, sp, #16
 2059              		.cfi_def_cfa_offset 24
 2060 0004 00AF     		add	r7, sp, #0
 2061              		.cfi_def_cfa_register 7
 2062 0006 7860     		str	r0, [r7, #4]
 2063 0008 0B46     		mov	r3, r1
 2064 000a FB70     		strb	r3, [r7, #3]
 600:..\..\..\lvgl\version_6.1.2\lvgl\src\lv_objx/lv_btnm.c ****     LV_ASSERT_OBJ(btnm, LV_OBJX_NAME);
 601:..\..\..\lvgl\version_6.1.2\lvgl\src\lv_objx/lv_btnm.c **** 
 602:..\..\..\lvgl\version_6.1.2\lvgl\src\lv_objx/lv_btnm.c ****     const lv_style_t * style = NULL;
 2065              		.loc 2 602 0
 2066 000c 0023     		movs	r3, #0
 2067 000e FB60     		str	r3, [r7, #12]
 603:..\..\..\lvgl\version_6.1.2\lvgl\src\lv_objx/lv_btnm.c ****     lv_btnm_ext_t * ext      = lv_obj_get_ext_attr(btnm);
 2068              		.loc 2 603 0
ARM GAS  C:\Users\tmj32\AppData\Local\Temp\ccyJ4BPG.s 			page 50


 2069 0010 7868     		ldr	r0, [r7, #4]
 2070 0012 FFF7FEFF 		bl	lv_obj_get_ext_attr
 2071 0016 B860     		str	r0, [r7, #8]
 604:..\..\..\lvgl\version_6.1.2\lvgl\src\lv_objx/lv_btnm.c **** 
 605:..\..\..\lvgl\version_6.1.2\lvgl\src\lv_objx/lv_btnm.c ****     switch(type) {
 2072              		.loc 2 605 0
 2073 0018 FB78     		ldrb	r3, [r7, #3]	@ zero_extendqisi2
 2074 001a 052B     		cmp	r3, #5
 2075 001c 27D8     		bhi	.L101
 2076 001e 01A2     		adr	r2, .L103
 2077 0020 52F823F0 		ldr	pc, [r2, r3, lsl #2]
 2078              		.p2align 2
 2079              	.L103:
 2080 0024 3D000000 		.word	.L102+1
 2081 0028 47000000 		.word	.L104+1
 2082 002c 4F000000 		.word	.L105+1
 2083 0030 57000000 		.word	.L106+1
 2084 0034 5F000000 		.word	.L107+1
 2085 0038 67000000 		.word	.L108+1
 2086              		.p2align 1
 2087              	.L102:
 606:..\..\..\lvgl\version_6.1.2\lvgl\src\lv_objx/lv_btnm.c ****         case LV_BTNM_STYLE_BG: style = lv_obj_get_style(btnm); break;
 2088              		.loc 2 606 0
 2089 003c 7868     		ldr	r0, [r7, #4]
 2090 003e FFF7FEFF 		bl	lv_obj_get_style
 2091 0042 F860     		str	r0, [r7, #12]
 2092 0044 16E0     		b	.L109
 2093              	.L104:
 607:..\..\..\lvgl\version_6.1.2\lvgl\src\lv_objx/lv_btnm.c ****         case LV_BTNM_STYLE_BTN_REL: style = ext->styles_btn[LV_BTN_STATE_REL]; break;
 2094              		.loc 2 607 0
 2095 0046 BB68     		ldr	r3, [r7, #8]
 2096 0048 DB68     		ldr	r3, [r3, #12]
 2097 004a FB60     		str	r3, [r7, #12]
 2098 004c 12E0     		b	.L109
 2099              	.L105:
 608:..\..\..\lvgl\version_6.1.2\lvgl\src\lv_objx/lv_btnm.c ****         case LV_BTNM_STYLE_BTN_PR: style = ext->styles_btn[LV_BTN_STATE_PR]; break;
 2100              		.loc 2 608 0
 2101 004e BB68     		ldr	r3, [r7, #8]
 2102 0050 1B69     		ldr	r3, [r3, #16]
 2103 0052 FB60     		str	r3, [r7, #12]
 2104 0054 0EE0     		b	.L109
 2105              	.L106:
 609:..\..\..\lvgl\version_6.1.2\lvgl\src\lv_objx/lv_btnm.c ****         case LV_BTNM_STYLE_BTN_TGL_REL: style = ext->styles_btn[LV_BTN_STATE_TGL_REL]; break;
 2106              		.loc 2 609 0
 2107 0056 BB68     		ldr	r3, [r7, #8]
 2108 0058 5B69     		ldr	r3, [r3, #20]
 2109 005a FB60     		str	r3, [r7, #12]
 2110 005c 0AE0     		b	.L109
 2111              	.L107:
 610:..\..\..\lvgl\version_6.1.2\lvgl\src\lv_objx/lv_btnm.c ****         case LV_BTNM_STYLE_BTN_TGL_PR: style = ext->styles_btn[LV_BTN_STATE_TGL_PR]; break;
 2112              		.loc 2 610 0
 2113 005e BB68     		ldr	r3, [r7, #8]
 2114 0060 9B69     		ldr	r3, [r3, #24]
 2115 0062 FB60     		str	r3, [r7, #12]
 2116 0064 06E0     		b	.L109
 2117              	.L108:
 611:..\..\..\lvgl\version_6.1.2\lvgl\src\lv_objx/lv_btnm.c ****         case LV_BTNM_STYLE_BTN_INA: style = ext->styles_btn[LV_BTN_STATE_INA]; break;
ARM GAS  C:\Users\tmj32\AppData\Local\Temp\ccyJ4BPG.s 			page 51


 2118              		.loc 2 611 0
 2119 0066 BB68     		ldr	r3, [r7, #8]
 2120 0068 DB69     		ldr	r3, [r3, #28]
 2121 006a FB60     		str	r3, [r7, #12]
 2122 006c 02E0     		b	.L109
 2123              	.L101:
 612:..\..\..\lvgl\version_6.1.2\lvgl\src\lv_objx/lv_btnm.c ****         default: style = NULL; break;
 2124              		.loc 2 612 0
 2125 006e 0023     		movs	r3, #0
 2126 0070 FB60     		str	r3, [r7, #12]
 2127 0072 00BF     		nop
 2128              	.L109:
 613:..\..\..\lvgl\version_6.1.2\lvgl\src\lv_objx/lv_btnm.c ****     }
 614:..\..\..\lvgl\version_6.1.2\lvgl\src\lv_objx/lv_btnm.c **** 
 615:..\..\..\lvgl\version_6.1.2\lvgl\src\lv_objx/lv_btnm.c ****     return style;
 2129              		.loc 2 615 0
 2130 0074 FB68     		ldr	r3, [r7, #12]
 616:..\..\..\lvgl\version_6.1.2\lvgl\src\lv_objx/lv_btnm.c **** }
 2131              		.loc 2 616 0
 2132 0076 1846     		mov	r0, r3
 2133 0078 1037     		adds	r7, r7, #16
 2134              		.cfi_def_cfa_offset 8
 2135 007a BD46     		mov	sp, r7
 2136              		.cfi_def_cfa_register 13
 2137              		@ sp needed
 2138 007c 80BD     		pop	{r7, pc}
 2139              		.cfi_endproc
 2140              	.LFE65:
 2141              		.size	lv_btnm_get_style, .-lv_btnm_get_style
 2142 007e 00BF     		.section	.text.lv_btnm_get_one_toggle,"ax",%progbits
 2143              		.align	2
 2144              		.global	lv_btnm_get_one_toggle
 2145              		.thumb
 2146              		.thumb_func
 2147              		.type	lv_btnm_get_one_toggle, %function
 2148              	lv_btnm_get_one_toggle:
 2149              	.LFB66:
 617:..\..\..\lvgl\version_6.1.2\lvgl\src\lv_objx/lv_btnm.c **** 
 618:..\..\..\lvgl\version_6.1.2\lvgl\src\lv_objx/lv_btnm.c **** /**
 619:..\..\..\lvgl\version_6.1.2\lvgl\src\lv_objx/lv_btnm.c ****  * Find whether "one toggle" mode is enabled.
 620:..\..\..\lvgl\version_6.1.2\lvgl\src\lv_objx/lv_btnm.c ****  * @param btnm Button matrix object
 621:..\..\..\lvgl\version_6.1.2\lvgl\src\lv_objx/lv_btnm.c ****  * @return whether "one toggle" mode is enabled
 622:..\..\..\lvgl\version_6.1.2\lvgl\src\lv_objx/lv_btnm.c ****  */
 623:..\..\..\lvgl\version_6.1.2\lvgl\src\lv_objx/lv_btnm.c **** bool lv_btnm_get_one_toggle(const lv_obj_t * btnm)
 624:..\..\..\lvgl\version_6.1.2\lvgl\src\lv_objx/lv_btnm.c **** {
 2150              		.loc 2 624 0
 2151              		.cfi_startproc
 2152              		@ args = 0, pretend = 0, frame = 16
 2153              		@ frame_needed = 1, uses_anonymous_args = 0
 2154 0000 80B5     		push	{r7, lr}
 2155              		.cfi_def_cfa_offset 8
 2156              		.cfi_offset 7, -8
 2157              		.cfi_offset 14, -4
 2158 0002 84B0     		sub	sp, sp, #16
 2159              		.cfi_def_cfa_offset 24
 2160 0004 00AF     		add	r7, sp, #0
 2161              		.cfi_def_cfa_register 7
ARM GAS  C:\Users\tmj32\AppData\Local\Temp\ccyJ4BPG.s 			page 52


 2162 0006 7860     		str	r0, [r7, #4]
 625:..\..\..\lvgl\version_6.1.2\lvgl\src\lv_objx/lv_btnm.c ****     LV_ASSERT_OBJ(btnm, LV_OBJX_NAME);
 626:..\..\..\lvgl\version_6.1.2\lvgl\src\lv_objx/lv_btnm.c **** 
 627:..\..\..\lvgl\version_6.1.2\lvgl\src\lv_objx/lv_btnm.c ****     lv_btnm_ext_t * ext = lv_obj_get_ext_attr(btnm);
 2163              		.loc 2 627 0
 2164 0008 7868     		ldr	r0, [r7, #4]
 2165 000a FFF7FEFF 		bl	lv_obj_get_ext_attr
 2166 000e F860     		str	r0, [r7, #12]
 628:..\..\..\lvgl\version_6.1.2\lvgl\src\lv_objx/lv_btnm.c **** 
 629:..\..\..\lvgl\version_6.1.2\lvgl\src\lv_objx/lv_btnm.c ****     return ext->one_toggle;
 2167              		.loc 2 629 0
 2168 0010 FB68     		ldr	r3, [r7, #12]
 2169 0012 93F82630 		ldrb	r3, [r3, #38]
 2170 0016 C3F34003 		ubfx	r3, r3, #1, #1
 2171 001a DBB2     		uxtb	r3, r3
 2172 001c 002B     		cmp	r3, #0
 2173 001e 14BF     		ite	ne
 2174 0020 0123     		movne	r3, #1
 2175 0022 0023     		moveq	r3, #0
 2176 0024 DBB2     		uxtb	r3, r3
 630:..\..\..\lvgl\version_6.1.2\lvgl\src\lv_objx/lv_btnm.c **** }
 2177              		.loc 2 630 0
 2178 0026 1846     		mov	r0, r3
 2179 0028 1037     		adds	r7, r7, #16
 2180              		.cfi_def_cfa_offset 8
 2181 002a BD46     		mov	sp, r7
 2182              		.cfi_def_cfa_register 13
 2183              		@ sp needed
 2184 002c 80BD     		pop	{r7, pc}
 2185              		.cfi_endproc
 2186              	.LFE66:
 2187              		.size	lv_btnm_get_one_toggle, .-lv_btnm_get_one_toggle
 2188 002e 00BF     		.section	.text.lv_btnm_design,"ax",%progbits
 2189              		.align	2
 2190              		.thumb
 2191              		.thumb_func
 2192              		.type	lv_btnm_design, %function
 2193              	lv_btnm_design:
 2194              	.LFB67:
 631:..\..\..\lvgl\version_6.1.2\lvgl\src\lv_objx/lv_btnm.c **** 
 632:..\..\..\lvgl\version_6.1.2\lvgl\src\lv_objx/lv_btnm.c **** /**********************
 633:..\..\..\lvgl\version_6.1.2\lvgl\src\lv_objx/lv_btnm.c ****  *   STATIC FUNCTIONS
 634:..\..\..\lvgl\version_6.1.2\lvgl\src\lv_objx/lv_btnm.c ****  **********************/
 635:..\..\..\lvgl\version_6.1.2\lvgl\src\lv_objx/lv_btnm.c **** 
 636:..\..\..\lvgl\version_6.1.2\lvgl\src\lv_objx/lv_btnm.c **** /**
 637:..\..\..\lvgl\version_6.1.2\lvgl\src\lv_objx/lv_btnm.c ****  * Handle the drawing related tasks of the button matrixs
 638:..\..\..\lvgl\version_6.1.2\lvgl\src\lv_objx/lv_btnm.c ****  * @param btnm pointer to a button matrix object
 639:..\..\..\lvgl\version_6.1.2\lvgl\src\lv_objx/lv_btnm.c ****  * @param mask the object will be drawn only in this area
 640:..\..\..\lvgl\version_6.1.2\lvgl\src\lv_objx/lv_btnm.c ****  * @param mode LV_DESIGN_COVER_CHK: only check if the object fully covers the 'mask_p' area
 641:..\..\..\lvgl\version_6.1.2\lvgl\src\lv_objx/lv_btnm.c ****  *                                  (return 'true' if yes)
 642:..\..\..\lvgl\version_6.1.2\lvgl\src\lv_objx/lv_btnm.c ****  *             LV_DESIGN_DRAW: draw the object (always return 'true')
 643:..\..\..\lvgl\version_6.1.2\lvgl\src\lv_objx/lv_btnm.c ****  *             LV_DESIGN_DRAW_POST: drawing after every children are drawn
 644:..\..\..\lvgl\version_6.1.2\lvgl\src\lv_objx/lv_btnm.c ****  * @param return true/false, depends on 'mode'
 645:..\..\..\lvgl\version_6.1.2\lvgl\src\lv_objx/lv_btnm.c ****  */
 646:..\..\..\lvgl\version_6.1.2\lvgl\src\lv_objx/lv_btnm.c **** static bool lv_btnm_design(lv_obj_t * btnm, const lv_area_t * mask, lv_design_mode_t mode)
 647:..\..\..\lvgl\version_6.1.2\lvgl\src\lv_objx/lv_btnm.c **** {
 2195              		.loc 2 647 0
ARM GAS  C:\Users\tmj32\AppData\Local\Temp\ccyJ4BPG.s 			page 53


 2196              		.cfi_startproc
 2197              		@ args = 0, pretend = 0, frame = 152
 2198              		@ frame_needed = 1, uses_anonymous_args = 0
 2199 0000 F0B5     		push	{r4, r5, r6, r7, lr}
 2200              		.cfi_def_cfa_offset 20
 2201              		.cfi_offset 4, -20
 2202              		.cfi_offset 5, -16
 2203              		.cfi_offset 6, -12
 2204              		.cfi_offset 7, -8
 2205              		.cfi_offset 14, -4
 2206 0002 ADB0     		sub	sp, sp, #180
 2207              		.cfi_def_cfa_offset 200
 2208 0004 06AF     		add	r7, sp, #24
 2209              		.cfi_def_cfa 7, 176
 2210 0006 F860     		str	r0, [r7, #12]
 2211 0008 B960     		str	r1, [r7, #8]
 2212 000a 1346     		mov	r3, r2
 2213 000c FB71     		strb	r3, [r7, #7]
 648:..\..\..\lvgl\version_6.1.2\lvgl\src\lv_objx/lv_btnm.c ****     if(mode == LV_DESIGN_COVER_CHK) {
 2214              		.loc 2 648 0
 2215 000e FB79     		ldrb	r3, [r7, #7]	@ zero_extendqisi2
 2216 0010 022B     		cmp	r3, #2
 2217 0012 07D1     		bne	.L114
 649:..\..\..\lvgl\version_6.1.2\lvgl\src\lv_objx/lv_btnm.c ****         return ancestor_design_f(btnm, mask, mode);
 2218              		.loc 2 649 0
 2219 0014 B34B     		ldr	r3, .L138
 2220 0016 1B68     		ldr	r3, [r3]
 2221 0018 FA79     		ldrb	r2, [r7, #7]	@ zero_extendqisi2
 2222 001a B968     		ldr	r1, [r7, #8]
 2223 001c F868     		ldr	r0, [r7, #12]
 2224 001e 9847     		blx	r3
 2225 0020 0346     		mov	r3, r0
 2226 0022 49E2     		b	.L115
 2227              	.L114:
 650:..\..\..\lvgl\version_6.1.2\lvgl\src\lv_objx/lv_btnm.c ****         /*Return false if the object is not covers the mask_p area*/
 651:..\..\..\lvgl\version_6.1.2\lvgl\src\lv_objx/lv_btnm.c ****     }
 652:..\..\..\lvgl\version_6.1.2\lvgl\src\lv_objx/lv_btnm.c ****     /*Draw the object*/
 653:..\..\..\lvgl\version_6.1.2\lvgl\src\lv_objx/lv_btnm.c ****     else if(mode == LV_DESIGN_DRAW_MAIN) {
 2228              		.loc 2 653 0
 2229 0024 FB79     		ldrb	r3, [r7, #7]	@ zero_extendqisi2
 2230 0026 002B     		cmp	r3, #0
 2231 0028 40F04582 		bne	.L116
 2232              	.LBB7:
 654:..\..\..\lvgl\version_6.1.2\lvgl\src\lv_objx/lv_btnm.c ****         ancestor_design_f(btnm, mask, mode);
 2233              		.loc 2 654 0
 2234 002c AD4B     		ldr	r3, .L138
 2235 002e 1B68     		ldr	r3, [r3]
 2236 0030 FA79     		ldrb	r2, [r7, #7]	@ zero_extendqisi2
 2237 0032 B968     		ldr	r1, [r7, #8]
 2238 0034 F868     		ldr	r0, [r7, #12]
 2239 0036 9847     		blx	r3
 655:..\..\..\lvgl\version_6.1.2\lvgl\src\lv_objx/lv_btnm.c **** 
 656:..\..\..\lvgl\version_6.1.2\lvgl\src\lv_objx/lv_btnm.c ****         lv_btnm_ext_t * ext         = lv_obj_get_ext_attr(btnm);
 2240              		.loc 2 656 0
 2241 0038 F868     		ldr	r0, [r7, #12]
 2242 003a FFF7FEFF 		bl	lv_obj_get_ext_attr
 2243 003e C7F88800 		str	r0, [r7, #136]
ARM GAS  C:\Users\tmj32\AppData\Local\Temp\ccyJ4BPG.s 			page 54


 657:..\..\..\lvgl\version_6.1.2\lvgl\src\lv_objx/lv_btnm.c ****         const lv_style_t * bg_style = lv_obj_get_style(btnm);
 2244              		.loc 2 657 0
 2245 0042 F868     		ldr	r0, [r7, #12]
 2246 0044 FFF7FEFF 		bl	lv_obj_get_style
 2247 0048 C7F88400 		str	r0, [r7, #132]
 658:..\..\..\lvgl\version_6.1.2\lvgl\src\lv_objx/lv_btnm.c ****         const lv_style_t * btn_style;
 659:..\..\..\lvgl\version_6.1.2\lvgl\src\lv_objx/lv_btnm.c ****         lv_opa_t opa_scale = lv_obj_get_opa_scale(btnm);
 2248              		.loc 2 659 0
 2249 004c F868     		ldr	r0, [r7, #12]
 2250 004e FFF7FEFF 		bl	lv_obj_get_opa_scale
 2251 0052 0346     		mov	r3, r0
 2252 0054 87F88330 		strb	r3, [r7, #131]
 660:..\..\..\lvgl\version_6.1.2\lvgl\src\lv_objx/lv_btnm.c **** 
 661:..\..\..\lvgl\version_6.1.2\lvgl\src\lv_objx/lv_btnm.c ****         lv_area_t area_btnm;
 662:..\..\..\lvgl\version_6.1.2\lvgl\src\lv_objx/lv_btnm.c ****         lv_obj_get_coords(btnm, &area_btnm);
 2253              		.loc 2 662 0
 2254 0058 07F17003 		add	r3, r7, #112
 2255 005c 1946     		mov	r1, r3
 2256 005e F868     		ldr	r0, [r7, #12]
 2257 0060 FFF7FEFF 		bl	lv_obj_get_coords
 663:..\..\..\lvgl\version_6.1.2\lvgl\src\lv_objx/lv_btnm.c **** 
 664:..\..\..\lvgl\version_6.1.2\lvgl\src\lv_objx/lv_btnm.c ****         lv_area_t area_tmp;
 665:..\..\..\lvgl\version_6.1.2\lvgl\src\lv_objx/lv_btnm.c ****         lv_coord_t btn_w;
 666:..\..\..\lvgl\version_6.1.2\lvgl\src\lv_objx/lv_btnm.c ****         lv_coord_t btn_h;
 667:..\..\..\lvgl\version_6.1.2\lvgl\src\lv_objx/lv_btnm.c **** 
 668:..\..\..\lvgl\version_6.1.2\lvgl\src\lv_objx/lv_btnm.c ****         uint16_t btn_i = 0;
 2258              		.loc 2 668 0
 2259 0064 0023     		movs	r3, #0
 2260 0066 A7F89230 		strh	r3, [r7, #146]	@ movhi
 669:..\..\..\lvgl\version_6.1.2\lvgl\src\lv_objx/lv_btnm.c ****         uint16_t txt_i = 0;
 2261              		.loc 2 669 0
 2262 006a 0023     		movs	r3, #0
 2263 006c A7F89030 		strh	r3, [r7, #144]	@ movhi
 670:..\..\..\lvgl\version_6.1.2\lvgl\src\lv_objx/lv_btnm.c ****         lv_style_t style_tmp;
 671:..\..\..\lvgl\version_6.1.2\lvgl\src\lv_objx/lv_btnm.c ****         lv_txt_flag_t txt_flag = LV_TXT_FLAG_NONE;
 2264              		.loc 2 671 0
 2265 0070 0023     		movs	r3, #0
 2266 0072 87F88F30 		strb	r3, [r7, #143]
 672:..\..\..\lvgl\version_6.1.2\lvgl\src\lv_objx/lv_btnm.c **** 
 673:..\..\..\lvgl\version_6.1.2\lvgl\src\lv_objx/lv_btnm.c ****         if(ext->recolor) txt_flag = LV_TXT_FLAG_RECOLOR;
 2267              		.loc 2 673 0
 2268 0076 D7F88830 		ldr	r3, [r7, #136]
 2269 007a 93F82630 		ldrb	r3, [r3, #38]	@ zero_extendqisi2
 2270 007e 03F00103 		and	r3, r3, #1
 2271 0082 DBB2     		uxtb	r3, r3
 2272 0084 002B     		cmp	r3, #0
 2273 0086 02D0     		beq	.L117
 2274              		.loc 2 673 0 is_stmt 0 discriminator 1
 2275 0088 0123     		movs	r3, #1
 2276 008a 87F88F30 		strb	r3, [r7, #143]
 2277              	.L117:
 674:..\..\..\lvgl\version_6.1.2\lvgl\src\lv_objx/lv_btnm.c ****         for(btn_i = 0; btn_i < ext->btn_cnt; btn_i++, txt_i++) {
 2278              		.loc 2 674 0 is_stmt 1
 2279 008e 0023     		movs	r3, #0
 2280 0090 A7F89230 		strh	r3, [r7, #146]	@ movhi
 2281 0094 07E2     		b	.L118
 2282              	.L120:
ARM GAS  C:\Users\tmj32\AppData\Local\Temp\ccyJ4BPG.s 			page 55


 2283              	.LBB8:
 675:..\..\..\lvgl\version_6.1.2\lvgl\src\lv_objx/lv_btnm.c ****             /*Search the next valid text in the map*/
 676:..\..\..\lvgl\version_6.1.2\lvgl\src\lv_objx/lv_btnm.c ****             while(strcmp(ext->map_p[txt_i], "\n") == 0) {
 677:..\..\..\lvgl\version_6.1.2\lvgl\src\lv_objx/lv_btnm.c ****                 txt_i++;
 2284              		.loc 2 677 0
 2285 0096 B7F89030 		ldrh	r3, [r7, #144]
 2286 009a 0133     		adds	r3, r3, #1
 2287 009c A7F89030 		strh	r3, [r7, #144]	@ movhi
 2288              	.L119:
 676:..\..\..\lvgl\version_6.1.2\lvgl\src\lv_objx/lv_btnm.c ****                 txt_i++;
 2289              		.loc 2 676 0
 2290 00a0 D7F88830 		ldr	r3, [r7, #136]
 2291 00a4 1A68     		ldr	r2, [r3]
 2292 00a6 B7F89030 		ldrh	r3, [r7, #144]
 2293 00aa 9B00     		lsls	r3, r3, #2
 2294 00ac 1344     		add	r3, r3, r2
 2295 00ae 1B68     		ldr	r3, [r3]
 2296 00b0 8D49     		ldr	r1, .L138+4
 2297 00b2 1846     		mov	r0, r3
 2298 00b4 FFF7FEFF 		bl	strcmp
 2299 00b8 0346     		mov	r3, r0
 2300 00ba 002B     		cmp	r3, #0
 2301 00bc EBD0     		beq	.L120
 678:..\..\..\lvgl\version_6.1.2\lvgl\src\lv_objx/lv_btnm.c ****             }
 679:..\..\..\lvgl\version_6.1.2\lvgl\src\lv_objx/lv_btnm.c **** 
 680:..\..\..\lvgl\version_6.1.2\lvgl\src\lv_objx/lv_btnm.c ****             /*Skip hidden buttons*/
 681:..\..\..\lvgl\version_6.1.2\lvgl\src\lv_objx/lv_btnm.c ****             if(button_is_hidden(ext->ctrl_bits[btn_i])) continue;
 2302              		.loc 2 681 0
 2303 00be D7F88830 		ldr	r3, [r7, #136]
 2304 00c2 9A68     		ldr	r2, [r3, #8]
 2305 00c4 B7F89230 		ldrh	r3, [r7, #146]
 2306 00c8 5B00     		lsls	r3, r3, #1
 2307 00ca 1344     		add	r3, r3, r2
 2308 00cc 1B88     		ldrh	r3, [r3]
 2309 00ce 1846     		mov	r0, r3
 2310 00d0 FFF7FEFF 		bl	button_is_hidden
 2311 00d4 0346     		mov	r3, r0
 2312 00d6 002B     		cmp	r3, #0
 2313 00d8 40F0DA81 		bne	.L137
 682:..\..\..\lvgl\version_6.1.2\lvgl\src\lv_objx/lv_btnm.c **** 
 683:..\..\..\lvgl\version_6.1.2\lvgl\src\lv_objx/lv_btnm.c ****             lv_area_copy(&area_tmp, &ext->button_areas[btn_i]);
 2314              		.loc 2 683 0
 2315 00dc D7F88830 		ldr	r3, [r7, #136]
 2316 00e0 5A68     		ldr	r2, [r3, #4]
 2317 00e2 B7F89230 		ldrh	r3, [r7, #146]
 2318 00e6 DB00     		lsls	r3, r3, #3
 2319 00e8 1A44     		add	r2, r2, r3
 2320 00ea 07F16803 		add	r3, r7, #104
 2321 00ee 1146     		mov	r1, r2
 2322 00f0 1846     		mov	r0, r3
 2323 00f2 FFF7FEFF 		bl	lv_area_copy
 684:..\..\..\lvgl\version_6.1.2\lvgl\src\lv_objx/lv_btnm.c ****             area_tmp.x1 += area_btnm.x1;
 2324              		.loc 2 684 0
 2325 00f6 B7F96830 		ldrsh	r3, [r7, #104]
 2326 00fa 9AB2     		uxth	r2, r3
 2327 00fc B7F97030 		ldrsh	r3, [r7, #112]
 2328 0100 9BB2     		uxth	r3, r3
ARM GAS  C:\Users\tmj32\AppData\Local\Temp\ccyJ4BPG.s 			page 56


 2329 0102 1344     		add	r3, r3, r2
 2330 0104 9BB2     		uxth	r3, r3
 2331 0106 1BB2     		sxth	r3, r3
 2332 0108 A7F86830 		strh	r3, [r7, #104]	@ movhi
 685:..\..\..\lvgl\version_6.1.2\lvgl\src\lv_objx/lv_btnm.c ****             area_tmp.y1 += area_btnm.y1;
 2333              		.loc 2 685 0
 2334 010c B7F96A30 		ldrsh	r3, [r7, #106]
 2335 0110 9AB2     		uxth	r2, r3
 2336 0112 B7F97230 		ldrsh	r3, [r7, #114]
 2337 0116 9BB2     		uxth	r3, r3
 2338 0118 1344     		add	r3, r3, r2
 2339 011a 9BB2     		uxth	r3, r3
 2340 011c 1BB2     		sxth	r3, r3
 2341 011e A7F86A30 		strh	r3, [r7, #106]	@ movhi
 686:..\..\..\lvgl\version_6.1.2\lvgl\src\lv_objx/lv_btnm.c ****             area_tmp.x2 += area_btnm.x1;
 2342              		.loc 2 686 0
 2343 0122 B7F96C30 		ldrsh	r3, [r7, #108]
 2344 0126 9AB2     		uxth	r2, r3
 2345 0128 B7F97030 		ldrsh	r3, [r7, #112]
 2346 012c 9BB2     		uxth	r3, r3
 2347 012e 1344     		add	r3, r3, r2
 2348 0130 9BB2     		uxth	r3, r3
 2349 0132 1BB2     		sxth	r3, r3
 2350 0134 A7F86C30 		strh	r3, [r7, #108]	@ movhi
 687:..\..\..\lvgl\version_6.1.2\lvgl\src\lv_objx/lv_btnm.c ****             area_tmp.y2 += area_btnm.y1;
 2351              		.loc 2 687 0
 2352 0138 B7F96E30 		ldrsh	r3, [r7, #110]
 2353 013c 9AB2     		uxth	r2, r3
 2354 013e B7F97230 		ldrsh	r3, [r7, #114]
 2355 0142 9BB2     		uxth	r3, r3
 2356 0144 1344     		add	r3, r3, r2
 2357 0146 9BB2     		uxth	r3, r3
 2358 0148 1BB2     		sxth	r3, r3
 2359 014a A7F86E30 		strh	r3, [r7, #110]	@ movhi
 688:..\..\..\lvgl\version_6.1.2\lvgl\src\lv_objx/lv_btnm.c **** 
 689:..\..\..\lvgl\version_6.1.2\lvgl\src\lv_objx/lv_btnm.c ****             btn_w = lv_area_get_width(&area_tmp);
 2360              		.loc 2 689 0
 2361 014e 07F16803 		add	r3, r7, #104
 2362 0152 1846     		mov	r0, r3
 2363 0154 FFF7FEFF 		bl	lv_area_get_width
 2364 0158 0346     		mov	r3, r0
 2365 015a A7F88030 		strh	r3, [r7, #128]	@ movhi
 690:..\..\..\lvgl\version_6.1.2\lvgl\src\lv_objx/lv_btnm.c ****             btn_h = lv_area_get_height(&area_tmp);
 2366              		.loc 2 690 0
 2367 015e 07F16803 		add	r3, r7, #104
 2368 0162 1846     		mov	r0, r3
 2369 0164 FFF7FEFF 		bl	lv_area_get_height
 2370 0168 0346     		mov	r3, r0
 2371 016a A7F87E30 		strh	r3, [r7, #126]	@ movhi
 691:..\..\..\lvgl\version_6.1.2\lvgl\src\lv_objx/lv_btnm.c **** 
 692:..\..\..\lvgl\version_6.1.2\lvgl\src\lv_objx/lv_btnm.c ****             /*Load the style*/
 693:..\..\..\lvgl\version_6.1.2\lvgl\src\lv_objx/lv_btnm.c ****             bool tgl_state = button_get_tgl_state(ext->ctrl_bits[btn_i]);
 2372              		.loc 2 693 0
 2373 016e D7F88830 		ldr	r3, [r7, #136]
 2374 0172 9A68     		ldr	r2, [r3, #8]
 2375 0174 B7F89230 		ldrh	r3, [r7, #146]
 2376 0178 5B00     		lsls	r3, r3, #1
ARM GAS  C:\Users\tmj32\AppData\Local\Temp\ccyJ4BPG.s 			page 57


 2377 017a 1344     		add	r3, r3, r2
 2378 017c 1B88     		ldrh	r3, [r3]
 2379 017e 1846     		mov	r0, r3
 2380 0180 FFF7FEFF 		bl	button_get_tgl_state
 2381 0184 0346     		mov	r3, r0
 2382 0186 87F87D30 		strb	r3, [r7, #125]
 694:..\..\..\lvgl\version_6.1.2\lvgl\src\lv_objx/lv_btnm.c ****             if(button_is_inactive(ext->ctrl_bits[btn_i]))
 2383              		.loc 2 694 0
 2384 018a D7F88830 		ldr	r3, [r7, #136]
 2385 018e 9A68     		ldr	r2, [r3, #8]
 2386 0190 B7F89230 		ldrh	r3, [r7, #146]
 2387 0194 5B00     		lsls	r3, r3, #1
 2388 0196 1344     		add	r3, r3, r2
 2389 0198 1B88     		ldrh	r3, [r3]
 2390 019a 1846     		mov	r0, r3
 2391 019c FFF7FEFF 		bl	button_is_inactive
 2392 01a0 0346     		mov	r3, r0
 2393 01a2 002B     		cmp	r3, #0
 2394 01a4 06D0     		beq	.L123
 695:..\..\..\lvgl\version_6.1.2\lvgl\src\lv_objx/lv_btnm.c ****                 btn_style = lv_btnm_get_style(btnm, LV_BTNM_STYLE_BTN_INA);
 2395              		.loc 2 695 0
 2396 01a6 0521     		movs	r1, #5
 2397 01a8 F868     		ldr	r0, [r7, #12]
 2398 01aa FFF7FEFF 		bl	lv_btnm_get_style
 2399 01ae C7F89400 		str	r0, [r7, #148]
 2400 01b2 53E0     		b	.L124
 2401              	.L123:
 696:..\..\..\lvgl\version_6.1.2\lvgl\src\lv_objx/lv_btnm.c ****             else if(btn_i != ext->btn_id_pr && tgl_state == false)
 2402              		.loc 2 696 0
 2403 01b4 D7F88830 		ldr	r3, [r7, #136]
 2404 01b8 5B8C     		ldrh	r3, [r3, #34]
 2405 01ba B7F89220 		ldrh	r2, [r7, #146]
 2406 01be 9A42     		cmp	r2, r3
 2407 01c0 0DD0     		beq	.L125
 2408              		.loc 2 696 0 is_stmt 0 discriminator 1
 2409 01c2 97F87D30 		ldrb	r3, [r7, #125]
 2410 01c6 83F00103 		eor	r3, r3, #1
 2411 01ca DBB2     		uxtb	r3, r3
 2412 01cc 002B     		cmp	r3, #0
 2413 01ce 06D0     		beq	.L125
 697:..\..\..\lvgl\version_6.1.2\lvgl\src\lv_objx/lv_btnm.c ****                 btn_style = lv_btnm_get_style(btnm, LV_BTNM_STYLE_BTN_REL);
 2414              		.loc 2 697 0 is_stmt 1
 2415 01d0 0121     		movs	r1, #1
 2416 01d2 F868     		ldr	r0, [r7, #12]
 2417 01d4 FFF7FEFF 		bl	lv_btnm_get_style
 2418 01d8 C7F89400 		str	r0, [r7, #148]
 2419 01dc 3EE0     		b	.L124
 2420              	.L125:
 698:..\..\..\lvgl\version_6.1.2\lvgl\src\lv_objx/lv_btnm.c ****             else if(btn_i == ext->btn_id_pr && tgl_state == false)
 2421              		.loc 2 698 0
 2422 01de D7F88830 		ldr	r3, [r7, #136]
 2423 01e2 5B8C     		ldrh	r3, [r3, #34]
 2424 01e4 B7F89220 		ldrh	r2, [r7, #146]
 2425 01e8 9A42     		cmp	r2, r3
 2426 01ea 0DD1     		bne	.L126
 2427              		.loc 2 698 0 is_stmt 0 discriminator 1
 2428 01ec 97F87D30 		ldrb	r3, [r7, #125]
ARM GAS  C:\Users\tmj32\AppData\Local\Temp\ccyJ4BPG.s 			page 58


 2429 01f0 83F00103 		eor	r3, r3, #1
 2430 01f4 DBB2     		uxtb	r3, r3
 2431 01f6 002B     		cmp	r3, #0
 2432 01f8 06D0     		beq	.L126
 699:..\..\..\lvgl\version_6.1.2\lvgl\src\lv_objx/lv_btnm.c ****                 btn_style = lv_btnm_get_style(btnm, LV_BTNM_STYLE_BTN_PR);
 2433              		.loc 2 699 0 is_stmt 1
 2434 01fa 0221     		movs	r1, #2
 2435 01fc F868     		ldr	r0, [r7, #12]
 2436 01fe FFF7FEFF 		bl	lv_btnm_get_style
 2437 0202 C7F89400 		str	r0, [r7, #148]
 2438 0206 29E0     		b	.L124
 2439              	.L126:
 700:..\..\..\lvgl\version_6.1.2\lvgl\src\lv_objx/lv_btnm.c ****             else if(btn_i != ext->btn_id_pr && tgl_state == true)
 2440              		.loc 2 700 0
 2441 0208 D7F88830 		ldr	r3, [r7, #136]
 2442 020c 5B8C     		ldrh	r3, [r3, #34]
 2443 020e B7F89220 		ldrh	r2, [r7, #146]
 2444 0212 9A42     		cmp	r2, r3
 2445 0214 0AD0     		beq	.L127
 2446              		.loc 2 700 0 is_stmt 0 discriminator 1
 2447 0216 97F87D30 		ldrb	r3, [r7, #125]	@ zero_extendqisi2
 2448 021a 002B     		cmp	r3, #0
 2449 021c 06D0     		beq	.L127
 701:..\..\..\lvgl\version_6.1.2\lvgl\src\lv_objx/lv_btnm.c ****                 btn_style = lv_btnm_get_style(btnm, LV_BTNM_STYLE_BTN_TGL_REL);
 2450              		.loc 2 701 0 is_stmt 1
 2451 021e 0321     		movs	r1, #3
 2452 0220 F868     		ldr	r0, [r7, #12]
 2453 0222 FFF7FEFF 		bl	lv_btnm_get_style
 2454 0226 C7F89400 		str	r0, [r7, #148]
 2455 022a 17E0     		b	.L124
 2456              	.L127:
 702:..\..\..\lvgl\version_6.1.2\lvgl\src\lv_objx/lv_btnm.c ****             else if(btn_i == ext->btn_id_pr && tgl_state == true)
 2457              		.loc 2 702 0
 2458 022c D7F88830 		ldr	r3, [r7, #136]
 2459 0230 5B8C     		ldrh	r3, [r3, #34]
 2460 0232 B7F89220 		ldrh	r2, [r7, #146]
 2461 0236 9A42     		cmp	r2, r3
 2462 0238 0AD1     		bne	.L128
 2463              		.loc 2 702 0 is_stmt 0 discriminator 1
 2464 023a 97F87D30 		ldrb	r3, [r7, #125]	@ zero_extendqisi2
 2465 023e 002B     		cmp	r3, #0
 2466 0240 06D0     		beq	.L128
 703:..\..\..\lvgl\version_6.1.2\lvgl\src\lv_objx/lv_btnm.c ****                 btn_style = lv_btnm_get_style(btnm, LV_BTNM_STYLE_BTN_TGL_PR);
 2467              		.loc 2 703 0 is_stmt 1
 2468 0242 0421     		movs	r1, #4
 2469 0244 F868     		ldr	r0, [r7, #12]
 2470 0246 FFF7FEFF 		bl	lv_btnm_get_style
 2471 024a C7F89400 		str	r0, [r7, #148]
 2472 024e 05E0     		b	.L124
 2473              	.L128:
 704:..\..\..\lvgl\version_6.1.2\lvgl\src\lv_objx/lv_btnm.c ****             else
 705:..\..\..\lvgl\version_6.1.2\lvgl\src\lv_objx/lv_btnm.c ****                 btn_style = lv_btnm_get_style(btnm, LV_BTNM_STYLE_BTN_REL); /*Not possible option, 
 2474              		.loc 2 705 0
 2475 0250 0121     		movs	r1, #1
 2476 0252 F868     		ldr	r0, [r7, #12]
 2477 0254 FFF7FEFF 		bl	lv_btnm_get_style
 2478 0258 C7F89400 		str	r0, [r7, #148]
ARM GAS  C:\Users\tmj32\AppData\Local\Temp\ccyJ4BPG.s 			page 59


 2479              	.L124:
 706:..\..\..\lvgl\version_6.1.2\lvgl\src\lv_objx/lv_btnm.c **** 
 707:..\..\..\lvgl\version_6.1.2\lvgl\src\lv_objx/lv_btnm.c ****             lv_style_copy(&style_tmp, btn_style);
 2480              		.loc 2 707 0
 2481 025c 07F11403 		add	r3, r7, #20
 2482 0260 D7F89410 		ldr	r1, [r7, #148]
 2483 0264 1846     		mov	r0, r3
 2484 0266 FFF7FEFF 		bl	lv_style_copy
 708:..\..\..\lvgl\version_6.1.2\lvgl\src\lv_objx/lv_btnm.c **** 
 709:..\..\..\lvgl\version_6.1.2\lvgl\src\lv_objx/lv_btnm.c ****             /*Remove borders on the edges if `LV_BORDER_INTERNAL`*/
 710:..\..\..\lvgl\version_6.1.2\lvgl\src\lv_objx/lv_btnm.c ****             if(style_tmp.body.border.part & LV_BORDER_INTERNAL) {
 2485              		.loc 2 710 0
 2486 026a 97F82A30 		ldrb	r3, [r7, #42]	@ zero_extendqisi2
 2487 026e 03F01003 		and	r3, r3, #16
 2488 0272 002B     		cmp	r3, #0
 2489 0274 76D0     		beq	.L129
 711:..\..\..\lvgl\version_6.1.2\lvgl\src\lv_objx/lv_btnm.c ****                 if(area_tmp.y1 == btnm->coords.y1 + bg_style->body.padding.top) {
 2490              		.loc 2 711 0
 2491 0276 B7F96A30 		ldrsh	r3, [r7, #106]
 2492 027a 1A46     		mov	r2, r3
 2493 027c FB68     		ldr	r3, [r7, #12]
 2494 027e B3F91230 		ldrsh	r3, [r3, #18]
 2495 0282 1946     		mov	r1, r3
 2496 0284 D7F88430 		ldr	r3, [r7, #132]
 2497 0288 B3F92030 		ldrsh	r3, [r3, #32]
 2498 028c 0B44     		add	r3, r3, r1
 2499 028e 9A42     		cmp	r2, r3
 2500 0290 06D1     		bne	.L130
 712:..\..\..\lvgl\version_6.1.2\lvgl\src\lv_objx/lv_btnm.c ****                     style_tmp.body.border.part &= ~LV_BORDER_TOP;
 2501              		.loc 2 712 0
 2502 0292 97F82A30 		ldrb	r3, [r7, #42]	@ zero_extendqisi2
 2503 0296 23F00203 		bic	r3, r3, #2
 2504 029a DBB2     		uxtb	r3, r3
 2505 029c 87F82A30 		strb	r3, [r7, #42]
 2506              	.L130:
 713:..\..\..\lvgl\version_6.1.2\lvgl\src\lv_objx/lv_btnm.c ****                 }
 714:..\..\..\lvgl\version_6.1.2\lvgl\src\lv_objx/lv_btnm.c ****                 if(area_tmp.y2 == btnm->coords.y2 - bg_style->body.padding.bottom) {
 2507              		.loc 2 714 0
 2508 02a0 B7F96E30 		ldrsh	r3, [r7, #110]
 2509 02a4 1A46     		mov	r2, r3
 2510 02a6 FB68     		ldr	r3, [r7, #12]
 2511 02a8 B3F91630 		ldrsh	r3, [r3, #22]
 2512 02ac 1946     		mov	r1, r3
 2513 02ae D7F88430 		ldr	r3, [r7, #132]
 2514 02b2 B3F92230 		ldrsh	r3, [r3, #34]
 2515 02b6 CB1A     		subs	r3, r1, r3
 2516 02b8 9A42     		cmp	r2, r3
 2517 02ba 06D1     		bne	.L131
 715:..\..\..\lvgl\version_6.1.2\lvgl\src\lv_objx/lv_btnm.c ****                     style_tmp.body.border.part &= ~LV_BORDER_BOTTOM;
 2518              		.loc 2 715 0
 2519 02bc 97F82A30 		ldrb	r3, [r7, #42]	@ zero_extendqisi2
 2520 02c0 23F00103 		bic	r3, r3, #1
 2521 02c4 DBB2     		uxtb	r3, r3
 2522 02c6 87F82A30 		strb	r3, [r7, #42]
 2523              	.L131:
 716:..\..\..\lvgl\version_6.1.2\lvgl\src\lv_objx/lv_btnm.c ****                 }
 717:..\..\..\lvgl\version_6.1.2\lvgl\src\lv_objx/lv_btnm.c **** 
ARM GAS  C:\Users\tmj32\AppData\Local\Temp\ccyJ4BPG.s 			page 60


 718:..\..\..\lvgl\version_6.1.2\lvgl\src\lv_objx/lv_btnm.c ****                 if(txt_i == 0) {
 2524              		.loc 2 718 0
 2525 02ca B7F89030 		ldrh	r3, [r7, #144]
 2526 02ce 002B     		cmp	r3, #0
 2527 02d0 0CD1     		bne	.L132
 719:..\..\..\lvgl\version_6.1.2\lvgl\src\lv_objx/lv_btnm.c ****                     style_tmp.body.border.part &= ~LV_BORDER_LEFT;
 2528              		.loc 2 719 0
 2529 02d2 97F82A30 		ldrb	r3, [r7, #42]	@ zero_extendqisi2
 2530 02d6 23F00403 		bic	r3, r3, #4
 2531 02da DBB2     		uxtb	r3, r3
 2532 02dc 87F82A30 		strb	r3, [r7, #42]
 2533 02e0 1DE0     		b	.L133
 2534              	.L139:
 2535 02e2 00BF     		.align	2
 2536              	.L138:
 2537 02e4 00000000 		.word	ancestor_design_f
 2538 02e8 18000000 		.word	.LC3
 2539              	.L132:
 720:..\..\..\lvgl\version_6.1.2\lvgl\src\lv_objx/lv_btnm.c ****                 } else if(strcmp(ext->map_p[txt_i - 1], "\n") == 0) {
 2540              		.loc 2 720 0
 2541 02ec D7F88830 		ldr	r3, [r7, #136]
 2542 02f0 1A68     		ldr	r2, [r3]
 2543 02f2 B7F89030 		ldrh	r3, [r7, #144]
 2544 02f6 03F18043 		add	r3, r3, #1073741824
 2545 02fa 013B     		subs	r3, r3, #1
 2546 02fc 9B00     		lsls	r3, r3, #2
 2547 02fe 1344     		add	r3, r3, r2
 2548 0300 1B68     		ldr	r3, [r3]
 2549 0302 6F49     		ldr	r1, .L140
 2550 0304 1846     		mov	r0, r3
 2551 0306 FFF7FEFF 		bl	strcmp
 2552 030a 0346     		mov	r3, r0
 2553 030c 002B     		cmp	r3, #0
 2554 030e 06D1     		bne	.L133
 721:..\..\..\lvgl\version_6.1.2\lvgl\src\lv_objx/lv_btnm.c ****                     style_tmp.body.border.part &= ~LV_BORDER_LEFT;
 2555              		.loc 2 721 0
 2556 0310 97F82A30 		ldrb	r3, [r7, #42]	@ zero_extendqisi2
 2557 0314 23F00403 		bic	r3, r3, #4
 2558 0318 DBB2     		uxtb	r3, r3
 2559 031a 87F82A30 		strb	r3, [r7, #42]
 2560              	.L133:
 722:..\..\..\lvgl\version_6.1.2\lvgl\src\lv_objx/lv_btnm.c ****                 }
 723:..\..\..\lvgl\version_6.1.2\lvgl\src\lv_objx/lv_btnm.c **** 
 724:..\..\..\lvgl\version_6.1.2\lvgl\src\lv_objx/lv_btnm.c ****                 if(ext->map_p[txt_i + 1][0] == '\0' || strcmp(ext->map_p[txt_i + 1], "\n") == 0) {
 2561              		.loc 2 724 0
 2562 031e D7F88830 		ldr	r3, [r7, #136]
 2563 0322 1A68     		ldr	r2, [r3]
 2564 0324 B7F89030 		ldrh	r3, [r7, #144]
 2565 0328 0133     		adds	r3, r3, #1
 2566 032a 9B00     		lsls	r3, r3, #2
 2567 032c 1344     		add	r3, r3, r2
 2568 032e 1B68     		ldr	r3, [r3]
 2569 0330 1B78     		ldrb	r3, [r3]	@ zero_extendqisi2
 2570 0332 002B     		cmp	r3, #0
 2571 0334 0FD0     		beq	.L134
 2572              		.loc 2 724 0 is_stmt 0 discriminator 1
 2573 0336 D7F88830 		ldr	r3, [r7, #136]
ARM GAS  C:\Users\tmj32\AppData\Local\Temp\ccyJ4BPG.s 			page 61


 2574 033a 1A68     		ldr	r2, [r3]
 2575 033c B7F89030 		ldrh	r3, [r7, #144]
 2576 0340 0133     		adds	r3, r3, #1
 2577 0342 9B00     		lsls	r3, r3, #2
 2578 0344 1344     		add	r3, r3, r2
 2579 0346 1B68     		ldr	r3, [r3]
 2580 0348 5D49     		ldr	r1, .L140
 2581 034a 1846     		mov	r0, r3
 2582 034c FFF7FEFF 		bl	strcmp
 2583 0350 0346     		mov	r3, r0
 2584 0352 002B     		cmp	r3, #0
 2585 0354 06D1     		bne	.L129
 2586              	.L134:
 725:..\..\..\lvgl\version_6.1.2\lvgl\src\lv_objx/lv_btnm.c ****                     style_tmp.body.border.part &= ~LV_BORDER_RIGHT;
 2587              		.loc 2 725 0 is_stmt 1
 2588 0356 97F82A30 		ldrb	r3, [r7, #42]	@ zero_extendqisi2
 2589 035a 23F00803 		bic	r3, r3, #8
 2590 035e DBB2     		uxtb	r3, r3
 2591 0360 87F82A30 		strb	r3, [r7, #42]
 2592              	.L129:
 726:..\..\..\lvgl\version_6.1.2\lvgl\src\lv_objx/lv_btnm.c ****                 }
 727:..\..\..\lvgl\version_6.1.2\lvgl\src\lv_objx/lv_btnm.c ****             }
 728:..\..\..\lvgl\version_6.1.2\lvgl\src\lv_objx/lv_btnm.c ****             lv_draw_rect(&area_tmp, mask, &style_tmp, opa_scale);
 2593              		.loc 2 728 0
 2594 0364 97F88330 		ldrb	r3, [r7, #131]	@ zero_extendqisi2
 2595 0368 07F11402 		add	r2, r7, #20
 2596 036c 07F16800 		add	r0, r7, #104
 2597 0370 B968     		ldr	r1, [r7, #8]
 2598 0372 FFF7FEFF 		bl	lv_draw_rect
 729:..\..\..\lvgl\version_6.1.2\lvgl\src\lv_objx/lv_btnm.c **** 
 730:..\..\..\lvgl\version_6.1.2\lvgl\src\lv_objx/lv_btnm.c ****             /*Calculate the size of the text*/
 731:..\..\..\lvgl\version_6.1.2\lvgl\src\lv_objx/lv_btnm.c ****             if(btn_style->glass) btn_style = bg_style;
 2599              		.loc 2 731 0
 2600 0376 D7F89430 		ldr	r3, [r7, #148]
 2601 037a 1B78     		ldrb	r3, [r3]	@ zero_extendqisi2
 2602 037c 03F00103 		and	r3, r3, #1
 2603 0380 DBB2     		uxtb	r3, r3
 2604 0382 002B     		cmp	r3, #0
 2605 0384 03D0     		beq	.L135
 2606              		.loc 2 731 0 is_stmt 0 discriminator 1
 2607 0386 D7F88430 		ldr	r3, [r7, #132]
 2608 038a C7F89430 		str	r3, [r7, #148]
 2609              	.L135:
 732:..\..\..\lvgl\version_6.1.2\lvgl\src\lv_objx/lv_btnm.c ****             const lv_font_t * font = btn_style->text.font;
 2610              		.loc 2 732 0 is_stmt 1
 2611 038e D7F89430 		ldr	r3, [r7, #148]
 2612 0392 5B6B     		ldr	r3, [r3, #52]
 2613 0394 BB67     		str	r3, [r7, #120]
 733:..\..\..\lvgl\version_6.1.2\lvgl\src\lv_objx/lv_btnm.c ****             lv_point_t txt_size;
 734:..\..\..\lvgl\version_6.1.2\lvgl\src\lv_objx/lv_btnm.c ****             lv_txt_get_size(&txt_size, ext->map_p[txt_i], font, btn_style->text.letter_space,
 2614              		.loc 2 734 0
 2615 0396 D7F88830 		ldr	r3, [r7, #136]
 2616 039a 1A68     		ldr	r2, [r3]
 2617 039c B7F89030 		ldrh	r3, [r7, #144]
 2618 03a0 9B00     		lsls	r3, r3, #2
 2619 03a2 1344     		add	r3, r3, r2
 2620 03a4 1D68     		ldr	r5, [r3]
ARM GAS  C:\Users\tmj32\AppData\Local\Temp\ccyJ4BPG.s 			page 62


 2621 03a6 D7F89430 		ldr	r3, [r7, #148]
 2622 03aa B3F93860 		ldrsh	r6, [r3, #56]
 2623 03ae D7F89430 		ldr	r3, [r7, #148]
 2624 03b2 B3F93A40 		ldrsh	r4, [r3, #58]
 2625 03b6 07F17003 		add	r3, r7, #112
 2626 03ba 1846     		mov	r0, r3
 2627 03bc FFF7FEFF 		bl	lv_area_get_width
 2628 03c0 0346     		mov	r3, r0
 2629 03c2 1A46     		mov	r2, r3
 2630 03c4 07F16400 		add	r0, r7, #100
 2631 03c8 97F88F30 		ldrb	r3, [r7, #143]	@ zero_extendqisi2
 2632 03cc 0293     		str	r3, [sp, #8]
 2633 03ce 0192     		str	r2, [sp, #4]
 2634 03d0 0094     		str	r4, [sp]
 2635 03d2 3346     		mov	r3, r6
 2636 03d4 BA6F     		ldr	r2, [r7, #120]
 2637 03d6 2946     		mov	r1, r5
 2638 03d8 FFF7FEFF 		bl	lv_txt_get_size
 735:..\..\..\lvgl\version_6.1.2\lvgl\src\lv_objx/lv_btnm.c ****                             btn_style->text.line_space, lv_area_get_width(&area_btnm), txt_flag);
 736:..\..\..\lvgl\version_6.1.2\lvgl\src\lv_objx/lv_btnm.c **** 
 737:..\..\..\lvgl\version_6.1.2\lvgl\src\lv_objx/lv_btnm.c ****             area_tmp.x1 += (btn_w - txt_size.x) / 2;
 2639              		.loc 2 737 0
 2640 03dc B7F96830 		ldrsh	r3, [r7, #104]
 2641 03e0 9AB2     		uxth	r2, r3
 2642 03e2 B7F98030 		ldrsh	r3, [r7, #128]
 2643 03e6 B7F96410 		ldrsh	r1, [r7, #100]
 2644 03ea 5B1A     		subs	r3, r3, r1
 2645 03ec D90F     		lsrs	r1, r3, #31
 2646 03ee 0B44     		add	r3, r3, r1
 2647 03f0 5B10     		asrs	r3, r3, #1
 2648 03f2 9BB2     		uxth	r3, r3
 2649 03f4 1344     		add	r3, r3, r2
 2650 03f6 9BB2     		uxth	r3, r3
 2651 03f8 1BB2     		sxth	r3, r3
 2652 03fa A7F86830 		strh	r3, [r7, #104]	@ movhi
 738:..\..\..\lvgl\version_6.1.2\lvgl\src\lv_objx/lv_btnm.c ****             area_tmp.y1 += (btn_h - txt_size.y) / 2;
 2653              		.loc 2 738 0
 2654 03fe B7F96A30 		ldrsh	r3, [r7, #106]
 2655 0402 9AB2     		uxth	r2, r3
 2656 0404 B7F97E30 		ldrsh	r3, [r7, #126]
 2657 0408 B7F96610 		ldrsh	r1, [r7, #102]
 2658 040c 5B1A     		subs	r3, r3, r1
 2659 040e D90F     		lsrs	r1, r3, #31
 2660 0410 0B44     		add	r3, r3, r1
 2661 0412 5B10     		asrs	r3, r3, #1
 2662 0414 9BB2     		uxth	r3, r3
 2663 0416 1344     		add	r3, r3, r2
 2664 0418 9BB2     		uxth	r3, r3
 2665 041a 1BB2     		sxth	r3, r3
 2666 041c A7F86A30 		strh	r3, [r7, #106]	@ movhi
 739:..\..\..\lvgl\version_6.1.2\lvgl\src\lv_objx/lv_btnm.c ****             area_tmp.x2 = area_tmp.x1 + txt_size.x;
 2667              		.loc 2 739 0
 2668 0420 B7F96830 		ldrsh	r3, [r7, #104]
 2669 0424 9AB2     		uxth	r2, r3
 2670 0426 B7F96430 		ldrsh	r3, [r7, #100]
 2671 042a 9BB2     		uxth	r3, r3
 2672 042c 1344     		add	r3, r3, r2
ARM GAS  C:\Users\tmj32\AppData\Local\Temp\ccyJ4BPG.s 			page 63


 2673 042e 9BB2     		uxth	r3, r3
 2674 0430 1BB2     		sxth	r3, r3
 2675 0432 A7F86C30 		strh	r3, [r7, #108]	@ movhi
 740:..\..\..\lvgl\version_6.1.2\lvgl\src\lv_objx/lv_btnm.c ****             area_tmp.y2 = area_tmp.y1 + txt_size.y;
 2676              		.loc 2 740 0
 2677 0436 B7F96A30 		ldrsh	r3, [r7, #106]
 2678 043a 9AB2     		uxth	r2, r3
 2679 043c B7F96630 		ldrsh	r3, [r7, #102]
 2680 0440 9BB2     		uxth	r3, r3
 2681 0442 1344     		add	r3, r3, r2
 2682 0444 9BB2     		uxth	r3, r3
 2683 0446 1BB2     		sxth	r3, r3
 2684 0448 A7F86E30 		strh	r3, [r7, #110]	@ movhi
 741:..\..\..\lvgl\version_6.1.2\lvgl\src\lv_objx/lv_btnm.c **** 
 742:..\..\..\lvgl\version_6.1.2\lvgl\src\lv_objx/lv_btnm.c ****             lv_draw_label(&area_tmp, mask, btn_style, opa_scale, ext->map_p[txt_i], txt_flag, NULL,
 2685              		.loc 2 742 0
 2686 044c D7F88830 		ldr	r3, [r7, #136]
 2687 0450 1A68     		ldr	r2, [r3]
 2688 0452 B7F89030 		ldrh	r3, [r7, #144]
 2689 0456 9B00     		lsls	r3, r3, #2
 2690 0458 1344     		add	r3, r3, r2
 2691 045a 1C68     		ldr	r4, [r3]
 2692 045c F868     		ldr	r0, [r7, #12]
 2693 045e FFF7FEFF 		bl	lv_obj_get_base_dir
 2694 0462 0346     		mov	r3, r0
 2695 0464 97F88320 		ldrb	r2, [r7, #131]	@ zero_extendqisi2
 2696 0468 07F16800 		add	r0, r7, #104
 2697 046c 0593     		str	r3, [sp, #20]
 2698 046e 0023     		movs	r3, #0
 2699 0470 0493     		str	r3, [sp, #16]
 2700 0472 0023     		movs	r3, #0
 2701 0474 0393     		str	r3, [sp, #12]
 2702 0476 0023     		movs	r3, #0
 2703 0478 0293     		str	r3, [sp, #8]
 2704 047a 97F88F30 		ldrb	r3, [r7, #143]	@ zero_extendqisi2
 2705 047e 0193     		str	r3, [sp, #4]
 2706 0480 0094     		str	r4, [sp]
 2707 0482 1346     		mov	r3, r2
 2708 0484 D7F89420 		ldr	r2, [r7, #148]
 2709 0488 B968     		ldr	r1, [r7, #8]
 2710 048a FFF7FEFF 		bl	lv_draw_label
 2711 048e 00E0     		b	.L122
 2712              	.L137:
 681:..\..\..\lvgl\version_6.1.2\lvgl\src\lv_objx/lv_btnm.c **** 
 2713              		.loc 2 681 0
 2714 0490 00BF     		nop
 2715              	.L122:
 2716              	.LBE8:
 674:..\..\..\lvgl\version_6.1.2\lvgl\src\lv_objx/lv_btnm.c ****             /*Search the next valid text in the map*/
 2717              		.loc 2 674 0 discriminator 2
 2718 0492 B7F89230 		ldrh	r3, [r7, #146]
 2719 0496 0133     		adds	r3, r3, #1
 2720 0498 A7F89230 		strh	r3, [r7, #146]	@ movhi
 2721 049c B7F89030 		ldrh	r3, [r7, #144]
 2722 04a0 0133     		adds	r3, r3, #1
 2723 04a2 A7F89030 		strh	r3, [r7, #144]	@ movhi
 2724              	.L118:
ARM GAS  C:\Users\tmj32\AppData\Local\Temp\ccyJ4BPG.s 			page 64


 674:..\..\..\lvgl\version_6.1.2\lvgl\src\lv_objx/lv_btnm.c ****             /*Search the next valid text in the map*/
 2725              		.loc 2 674 0 is_stmt 0 discriminator 1
 2726 04a6 D7F88830 		ldr	r3, [r7, #136]
 2727 04aa 1B8C     		ldrh	r3, [r3, #32]
 2728 04ac B7F89220 		ldrh	r2, [r7, #146]
 2729 04b0 9A42     		cmp	r2, r3
 2730 04b2 FFF4F5AD 		bcc	.L119
 2731              	.L116:
 2732              	.LBE7:
 743:..\..\..\lvgl\version_6.1.2\lvgl\src\lv_objx/lv_btnm.c ****         }
 744:..\..\..\lvgl\version_6.1.2\lvgl\src\lv_objx/lv_btnm.c ****     }
 745:..\..\..\lvgl\version_6.1.2\lvgl\src\lv_objx/lv_btnm.c **** 
 746:..\..\..\lvgl\version_6.1.2\lvgl\src\lv_objx/lv_btnm.c ****     return true;
 2733              		.loc 2 746 0 is_stmt 1
 2734 04b6 0123     		movs	r3, #1
 2735              	.L115:
 747:..\..\..\lvgl\version_6.1.2\lvgl\src\lv_objx/lv_btnm.c **** }
 2736              		.loc 2 747 0
 2737 04b8 1846     		mov	r0, r3
 2738 04ba 9C37     		adds	r7, r7, #156
 2739              		.cfi_def_cfa_offset 20
 2740 04bc BD46     		mov	sp, r7
 2741              		.cfi_def_cfa_register 13
 2742              		@ sp needed
 2743 04be F0BD     		pop	{r4, r5, r6, r7, pc}
 2744              	.L141:
 2745              		.align	2
 2746              	.L140:
 2747 04c0 18000000 		.word	.LC3
 2748              		.cfi_endproc
 2749              	.LFE67:
 2750              		.size	lv_btnm_design, .-lv_btnm_design
 2751              		.section	.rodata
 2752 002d 000000   		.align	2
 2753              	.LC7:
 2754 0030 6C765F62 		.ascii	"lv_btnm\000"
 2754      746E6D00 
 2755              		.section	.text.lv_btnm_signal,"ax",%progbits
 2756              		.align	2
 2757              		.thumb
 2758              		.thumb_func
 2759              		.type	lv_btnm_signal, %function
 2760              	lv_btnm_signal:
 2761              	.LFB68:
 748:..\..\..\lvgl\version_6.1.2\lvgl\src\lv_objx/lv_btnm.c **** 
 749:..\..\..\lvgl\version_6.1.2\lvgl\src\lv_objx/lv_btnm.c **** /**
 750:..\..\..\lvgl\version_6.1.2\lvgl\src\lv_objx/lv_btnm.c ****  * Signal function of the button matrix
 751:..\..\..\lvgl\version_6.1.2\lvgl\src\lv_objx/lv_btnm.c ****  * @param btnm pointer to a button matrix object
 752:..\..\..\lvgl\version_6.1.2\lvgl\src\lv_objx/lv_btnm.c ****  * @param sign a signal type from lv_signal_t enum
 753:..\..\..\lvgl\version_6.1.2\lvgl\src\lv_objx/lv_btnm.c ****  * @param param pointer to a signal specific variable
 754:..\..\..\lvgl\version_6.1.2\lvgl\src\lv_objx/lv_btnm.c ****  * @return LV_RES_OK: the object is not deleted in the function; LV_RES_INV: the object is deleted
 755:..\..\..\lvgl\version_6.1.2\lvgl\src\lv_objx/lv_btnm.c ****  */
 756:..\..\..\lvgl\version_6.1.2\lvgl\src\lv_objx/lv_btnm.c **** static lv_res_t lv_btnm_signal(lv_obj_t * btnm, lv_signal_t sign, void * param)
 757:..\..\..\lvgl\version_6.1.2\lvgl\src\lv_objx/lv_btnm.c **** {
 2762              		.loc 2 757 0
 2763              		.cfi_startproc
 2764              		@ args = 0, pretend = 0, frame = 80
ARM GAS  C:\Users\tmj32\AppData\Local\Temp\ccyJ4BPG.s 			page 65


 2765              		@ frame_needed = 1, uses_anonymous_args = 0
 2766 0000 90B5     		push	{r4, r7, lr}
 2767              		.cfi_def_cfa_offset 12
 2768              		.cfi_offset 4, -12
 2769              		.cfi_offset 7, -8
 2770              		.cfi_offset 14, -4
 2771 0002 95B0     		sub	sp, sp, #84
 2772              		.cfi_def_cfa_offset 96
 2773 0004 00AF     		add	r7, sp, #0
 2774              		.cfi_def_cfa_register 7
 2775 0006 F860     		str	r0, [r7, #12]
 2776 0008 0B46     		mov	r3, r1
 2777 000a 7A60     		str	r2, [r7, #4]
 2778 000c FB72     		strb	r3, [r7, #11]
 758:..\..\..\lvgl\version_6.1.2\lvgl\src\lv_objx/lv_btnm.c ****     lv_res_t res;
 759:..\..\..\lvgl\version_6.1.2\lvgl\src\lv_objx/lv_btnm.c **** 
 760:..\..\..\lvgl\version_6.1.2\lvgl\src\lv_objx/lv_btnm.c ****     /* Include the ancient signal function */
 761:..\..\..\lvgl\version_6.1.2\lvgl\src\lv_objx/lv_btnm.c ****     res = ancestor_signal(btnm, sign, param);
 2779              		.loc 2 761 0
 2780 000e A04B     		ldr	r3, .L193
 2781 0010 1B68     		ldr	r3, [r3]
 2782 0012 F97A     		ldrb	r1, [r7, #11]	@ zero_extendqisi2
 2783 0014 7A68     		ldr	r2, [r7, #4]
 2784 0016 F868     		ldr	r0, [r7, #12]
 2785 0018 9847     		blx	r3
 2786 001a 0346     		mov	r3, r0
 2787 001c 87F84F30 		strb	r3, [r7, #79]
 762:..\..\..\lvgl\version_6.1.2\lvgl\src\lv_objx/lv_btnm.c ****     if(res != LV_RES_OK) return res;
 2788              		.loc 2 762 0
 2789 0020 97F84F30 		ldrb	r3, [r7, #79]	@ zero_extendqisi2
 2790 0024 012B     		cmp	r3, #1
 2791 0026 02D0     		beq	.L143
 2792              		.loc 2 762 0 is_stmt 0 discriminator 1
 2793 0028 97F84F30 		ldrb	r3, [r7, #79]	@ zero_extendqisi2
 2794 002c 5EE3     		b	.L190
 2795              	.L143:
 763:..\..\..\lvgl\version_6.1.2\lvgl\src\lv_objx/lv_btnm.c ****     if(sign == LV_SIGNAL_GET_TYPE) return lv_obj_handle_get_type_signal(param, LV_OBJX_NAME);
 2796              		.loc 2 763 0 is_stmt 1
 2797 002e FB7A     		ldrb	r3, [r7, #11]	@ zero_extendqisi2
 2798 0030 072B     		cmp	r3, #7
 2799 0032 05D1     		bne	.L145
 2800              		.loc 2 763 0 is_stmt 0 discriminator 1
 2801 0034 9749     		ldr	r1, .L193+4
 2802 0036 7868     		ldr	r0, [r7, #4]
 2803 0038 FFF7FEFF 		bl	lv_obj_handle_get_type_signal
 2804 003c 0346     		mov	r3, r0
 2805 003e 55E3     		b	.L190
 2806              	.L145:
 764:..\..\..\lvgl\version_6.1.2\lvgl\src\lv_objx/lv_btnm.c **** 
 765:..\..\..\lvgl\version_6.1.2\lvgl\src\lv_objx/lv_btnm.c ****     lv_btnm_ext_t * ext = lv_obj_get_ext_attr(btnm);
 2807              		.loc 2 765 0 is_stmt 1
 2808 0040 F868     		ldr	r0, [r7, #12]
 2809 0042 FFF7FEFF 		bl	lv_obj_get_ext_attr
 2810 0046 7864     		str	r0, [r7, #68]
 766:..\..\..\lvgl\version_6.1.2\lvgl\src\lv_objx/lv_btnm.c ****     lv_point_t p;
 767:..\..\..\lvgl\version_6.1.2\lvgl\src\lv_objx/lv_btnm.c ****     if(sign == LV_SIGNAL_CLEANUP) {
 2811              		.loc 2 767 0
ARM GAS  C:\Users\tmj32\AppData\Local\Temp\ccyJ4BPG.s 			page 66


 2812 0048 FB7A     		ldrb	r3, [r7, #11]	@ zero_extendqisi2
 2813 004a 002B     		cmp	r3, #0
 2814 004c 0AD1     		bne	.L146
 768:..\..\..\lvgl\version_6.1.2\lvgl\src\lv_objx/lv_btnm.c ****         lv_mem_free(ext->button_areas);
 2815              		.loc 2 768 0
 2816 004e 7B6C     		ldr	r3, [r7, #68]
 2817 0050 5B68     		ldr	r3, [r3, #4]
 2818 0052 1846     		mov	r0, r3
 2819 0054 FFF7FEFF 		bl	lv_mem_free
 769:..\..\..\lvgl\version_6.1.2\lvgl\src\lv_objx/lv_btnm.c ****         lv_mem_free(ext->ctrl_bits);
 2820              		.loc 2 769 0
 2821 0058 7B6C     		ldr	r3, [r7, #68]
 2822 005a 9B68     		ldr	r3, [r3, #8]
 2823 005c 1846     		mov	r0, r3
 2824 005e FFF7FEFF 		bl	lv_mem_free
 2825 0062 41E3     		b	.L147
 2826              	.L146:
 770:..\..\..\lvgl\version_6.1.2\lvgl\src\lv_objx/lv_btnm.c ****     } else if(sign == LV_SIGNAL_STYLE_CHG || sign == LV_SIGNAL_CORD_CHG) {
 2827              		.loc 2 770 0
 2828 0064 FB7A     		ldrb	r3, [r7, #11]	@ zero_extendqisi2
 2829 0066 042B     		cmp	r3, #4
 2830 0068 02D0     		beq	.L148
 2831              		.loc 2 770 0 is_stmt 0 discriminator 1
 2832 006a FB7A     		ldrb	r3, [r7, #11]	@ zero_extendqisi2
 2833 006c 022B     		cmp	r3, #2
 2834 006e 06D1     		bne	.L149
 2835              	.L148:
 771:..\..\..\lvgl\version_6.1.2\lvgl\src\lv_objx/lv_btnm.c ****         lv_btnm_set_map(btnm, ext->map_p);
 2836              		.loc 2 771 0 is_stmt 1
 2837 0070 7B6C     		ldr	r3, [r7, #68]
 2838 0072 1B68     		ldr	r3, [r3]
 2839 0074 1946     		mov	r1, r3
 2840 0076 F868     		ldr	r0, [r7, #12]
 2841 0078 FFF7FEFF 		bl	lv_btnm_set_map
 2842 007c 34E3     		b	.L147
 2843              	.L149:
 772:..\..\..\lvgl\version_6.1.2\lvgl\src\lv_objx/lv_btnm.c ****     } else if(sign == LV_SIGNAL_PRESSED) {
 2844              		.loc 2 772 0
 2845 007e FB7A     		ldrb	r3, [r7, #11]	@ zero_extendqisi2
 2846 0080 082B     		cmp	r3, #8
 2847 0082 76D1     		bne	.L150
 2848              	.LBB9:
 773:..\..\..\lvgl\version_6.1.2\lvgl\src\lv_objx/lv_btnm.c ****         lv_indev_t * indev = lv_indev_get_act();
 2849              		.loc 2 773 0
 2850 0084 FFF7FEFF 		bl	lv_indev_get_act
 2851 0088 3864     		str	r0, [r7, #64]
 774:..\..\..\lvgl\version_6.1.2\lvgl\src\lv_objx/lv_btnm.c ****         if(lv_indev_get_type(indev) == LV_INDEV_TYPE_POINTER || lv_indev_get_type(indev) == LV_INDE
 2852              		.loc 2 774 0
 2853 008a 386C     		ldr	r0, [r7, #64]
 2854 008c FFF7FEFF 		bl	lv_indev_get_type
 2855 0090 0346     		mov	r3, r0
 2856 0092 012B     		cmp	r3, #1
 2857 0094 05D0     		beq	.L151
 2858              		.loc 2 774 0 is_stmt 0 discriminator 1
 2859 0096 386C     		ldr	r0, [r7, #64]
 2860 0098 FFF7FEFF 		bl	lv_indev_get_type
 2861 009c 0346     		mov	r3, r0
ARM GAS  C:\Users\tmj32\AppData\Local\Temp\ccyJ4BPG.s 			page 67


 2862 009e 032B     		cmp	r3, #3
 2863 00a0 1FD1     		bne	.L152
 2864              	.L151:
 2865              	.LBB10:
 775:..\..\..\lvgl\version_6.1.2\lvgl\src\lv_objx/lv_btnm.c ****             uint16_t btn_pr;
 776:..\..\..\lvgl\version_6.1.2\lvgl\src\lv_objx/lv_btnm.c ****             /*Search the pressed area*/
 777:..\..\..\lvgl\version_6.1.2\lvgl\src\lv_objx/lv_btnm.c ****             lv_indev_get_point(param, &p);
 2866              		.loc 2 777 0 is_stmt 1
 2867 00a2 07F12003 		add	r3, r7, #32
 2868 00a6 1946     		mov	r1, r3
 2869 00a8 7868     		ldr	r0, [r7, #4]
 2870 00aa FFF7FEFF 		bl	lv_indev_get_point
 778:..\..\..\lvgl\version_6.1.2\lvgl\src\lv_objx/lv_btnm.c ****             btn_pr = get_button_from_point(btnm, &p);
 2871              		.loc 2 778 0
 2872 00ae 07F12003 		add	r3, r7, #32
 2873 00b2 1946     		mov	r1, r3
 2874 00b4 F868     		ldr	r0, [r7, #12]
 2875 00b6 FFF7FEFF 		bl	get_button_from_point
 2876 00ba 0346     		mov	r3, r0
 2877 00bc FB87     		strh	r3, [r7, #62]	@ movhi
 779:..\..\..\lvgl\version_6.1.2\lvgl\src\lv_objx/lv_btnm.c **** 
 780:..\..\..\lvgl\version_6.1.2\lvgl\src\lv_objx/lv_btnm.c ****             invalidate_button_area(btnm, ext->btn_id_pr) /*Invalidate the old area*/;
 2878              		.loc 2 780 0
 2879 00be 7B6C     		ldr	r3, [r7, #68]
 2880 00c0 5B8C     		ldrh	r3, [r3, #34]
 2881 00c2 1946     		mov	r1, r3
 2882 00c4 F868     		ldr	r0, [r7, #12]
 2883 00c6 FFF7FEFF 		bl	invalidate_button_area
 781:..\..\..\lvgl\version_6.1.2\lvgl\src\lv_objx/lv_btnm.c ****             ext->btn_id_pr  = btn_pr;
 2884              		.loc 2 781 0
 2885 00ca 7B6C     		ldr	r3, [r7, #68]
 2886 00cc FA8F     		ldrh	r2, [r7, #62]	@ movhi
 2887 00ce 5A84     		strh	r2, [r3, #34]	@ movhi
 782:..\..\..\lvgl\version_6.1.2\lvgl\src\lv_objx/lv_btnm.c ****             ext->btn_id_act = btn_pr;
 2888              		.loc 2 782 0
 2889 00d0 7B6C     		ldr	r3, [r7, #68]
 2890 00d2 FA8F     		ldrh	r2, [r7, #62]	@ movhi
 2891 00d4 9A84     		strh	r2, [r3, #36]	@ movhi
 783:..\..\..\lvgl\version_6.1.2\lvgl\src\lv_objx/lv_btnm.c ****             invalidate_button_area(btnm, ext->btn_id_pr); /*Invalidate the new area*/
 2892              		.loc 2 783 0
 2893 00d6 7B6C     		ldr	r3, [r7, #68]
 2894 00d8 5B8C     		ldrh	r3, [r3, #34]
 2895 00da 1946     		mov	r1, r3
 2896 00dc F868     		ldr	r0, [r7, #12]
 2897 00de FFF7FEFF 		bl	invalidate_button_area
 2898              	.L152:
 2899              	.LBE10:
 784:..\..\..\lvgl\version_6.1.2\lvgl\src\lv_objx/lv_btnm.c ****         }
 785:..\..\..\lvgl\version_6.1.2\lvgl\src\lv_objx/lv_btnm.c ****         if(ext->btn_id_act != LV_BTNM_BTN_NONE) {
 2900              		.loc 2 785 0
 2901 00e2 7B6C     		ldr	r3, [r7, #68]
 2902 00e4 9B8C     		ldrh	r3, [r3, #36]
 2903 00e6 4FF6FF72 		movw	r2, #65535
 2904 00ea 9342     		cmp	r3, r2
 2905 00ec 00F0FC82 		beq	.L147
 786:..\..\..\lvgl\version_6.1.2\lvgl\src\lv_objx/lv_btnm.c ****             if(button_is_click_trig(ext->ctrl_bits[ext->btn_id_act]) == false &&
 2906              		.loc 2 786 0
ARM GAS  C:\Users\tmj32\AppData\Local\Temp\ccyJ4BPG.s 			page 68


 2907 00f0 7B6C     		ldr	r3, [r7, #68]
 2908 00f2 9A68     		ldr	r2, [r3, #8]
 2909 00f4 7B6C     		ldr	r3, [r7, #68]
 2910 00f6 9B8C     		ldrh	r3, [r3, #36]
 2911 00f8 5B00     		lsls	r3, r3, #1
 2912 00fa 1344     		add	r3, r3, r2
 2913 00fc 1B88     		ldrh	r3, [r3]
 2914 00fe 1846     		mov	r0, r3
 2915 0100 FFF7FEFF 		bl	button_is_click_trig
 2916 0104 0346     		mov	r3, r0
 2917 0106 83F00103 		eor	r3, r3, #1
 2918 010a DBB2     		uxtb	r3, r3
 2919 010c 002B     		cmp	r3, #0
 2920 010e 00F0EB82 		beq	.L147
 787:..\..\..\lvgl\version_6.1.2\lvgl\src\lv_objx/lv_btnm.c ****                button_is_inactive(ext->ctrl_bits[ext->btn_id_act]) == false &&
 2921              		.loc 2 787 0 discriminator 1
 2922 0112 7B6C     		ldr	r3, [r7, #68]
 2923 0114 9A68     		ldr	r2, [r3, #8]
 2924 0116 7B6C     		ldr	r3, [r7, #68]
 2925 0118 9B8C     		ldrh	r3, [r3, #36]
 2926 011a 5B00     		lsls	r3, r3, #1
 2927 011c 1344     		add	r3, r3, r2
 2928 011e 1B88     		ldrh	r3, [r3]
 2929 0120 1846     		mov	r0, r3
 2930 0122 FFF7FEFF 		bl	button_is_inactive
 2931 0126 0346     		mov	r3, r0
 2932 0128 83F00103 		eor	r3, r3, #1
 2933 012c DBB2     		uxtb	r3, r3
 786:..\..\..\lvgl\version_6.1.2\lvgl\src\lv_objx/lv_btnm.c ****             if(button_is_click_trig(ext->ctrl_bits[ext->btn_id_act]) == false &&
 2934              		.loc 2 786 0 discriminator 1
 2935 012e 002B     		cmp	r3, #0
 2936 0130 00F0DA82 		beq	.L147
 788:..\..\..\lvgl\version_6.1.2\lvgl\src\lv_objx/lv_btnm.c ****                button_is_hidden(ext->ctrl_bits[ext->btn_id_act]) == false) {
 2937              		.loc 2 788 0
 2938 0134 7B6C     		ldr	r3, [r7, #68]
 2939 0136 9A68     		ldr	r2, [r3, #8]
 2940 0138 7B6C     		ldr	r3, [r7, #68]
 2941 013a 9B8C     		ldrh	r3, [r3, #36]
 2942 013c 5B00     		lsls	r3, r3, #1
 2943 013e 1344     		add	r3, r3, r2
 2944 0140 1B88     		ldrh	r3, [r3]
 2945 0142 1846     		mov	r0, r3
 2946 0144 FFF7FEFF 		bl	button_is_hidden
 2947 0148 0346     		mov	r3, r0
 2948 014a 83F00103 		eor	r3, r3, #1
 2949 014e DBB2     		uxtb	r3, r3
 787:..\..\..\lvgl\version_6.1.2\lvgl\src\lv_objx/lv_btnm.c ****                button_is_inactive(ext->ctrl_bits[ext->btn_id_act]) == false &&
 2950              		.loc 2 787 0
 2951 0150 002B     		cmp	r3, #0
 2952 0152 00F0C982 		beq	.L147
 2953              	.LBB11:
 789:..\..\..\lvgl\version_6.1.2\lvgl\src\lv_objx/lv_btnm.c ****                 uint32_t b = ext->btn_id_act;
 2954              		.loc 2 789 0
 2955 0156 7B6C     		ldr	r3, [r7, #68]
 2956 0158 9B8C     		ldrh	r3, [r3, #36]
 2957 015a FB61     		str	r3, [r7, #28]
 790:..\..\..\lvgl\version_6.1.2\lvgl\src\lv_objx/lv_btnm.c ****                 res        = lv_event_send(btnm, LV_EVENT_VALUE_CHANGED, &b);
ARM GAS  C:\Users\tmj32\AppData\Local\Temp\ccyJ4BPG.s 			page 69


 2958              		.loc 2 790 0
 2959 015c 07F11C03 		add	r3, r7, #28
 2960 0160 1A46     		mov	r2, r3
 2961 0162 0E21     		movs	r1, #14
 2962 0164 F868     		ldr	r0, [r7, #12]
 2963 0166 FFF7FEFF 		bl	lv_event_send
 2964 016a 0346     		mov	r3, r0
 2965 016c 87F84F30 		strb	r3, [r7, #79]
 2966 0170 BAE2     		b	.L147
 2967              	.L150:
 2968              	.LBE11:
 2969              	.LBE9:
 791:..\..\..\lvgl\version_6.1.2\lvgl\src\lv_objx/lv_btnm.c ****             }
 792:..\..\..\lvgl\version_6.1.2\lvgl\src\lv_objx/lv_btnm.c ****         }
 793:..\..\..\lvgl\version_6.1.2\lvgl\src\lv_objx/lv_btnm.c ****     } else if(sign == LV_SIGNAL_PRESSING) {
 2970              		.loc 2 793 0
 2971 0172 FB7A     		ldrb	r3, [r7, #11]	@ zero_extendqisi2
 2972 0174 092B     		cmp	r3, #9
 2973 0176 43D1     		bne	.L154
 2974              	.LBB12:
 794:..\..\..\lvgl\version_6.1.2\lvgl\src\lv_objx/lv_btnm.c ****         uint16_t btn_pr;
 795:..\..\..\lvgl\version_6.1.2\lvgl\src\lv_objx/lv_btnm.c ****         /*Search the pressed area*/
 796:..\..\..\lvgl\version_6.1.2\lvgl\src\lv_objx/lv_btnm.c ****         lv_indev_get_point(param, &p);
 2975              		.loc 2 796 0
 2976 0178 07F12003 		add	r3, r7, #32
 2977 017c 1946     		mov	r1, r3
 2978 017e 7868     		ldr	r0, [r7, #4]
 2979 0180 FFF7FEFF 		bl	lv_indev_get_point
 797:..\..\..\lvgl\version_6.1.2\lvgl\src\lv_objx/lv_btnm.c ****         btn_pr = get_button_from_point(btnm, &p);
 2980              		.loc 2 797 0
 2981 0184 07F12003 		add	r3, r7, #32
 2982 0188 1946     		mov	r1, r3
 2983 018a F868     		ldr	r0, [r7, #12]
 2984 018c FFF7FEFF 		bl	get_button_from_point
 2985 0190 0346     		mov	r3, r0
 2986 0192 BB87     		strh	r3, [r7, #60]	@ movhi
 798:..\..\..\lvgl\version_6.1.2\lvgl\src\lv_objx/lv_btnm.c ****         /*Invalidate to old and the new areas*/;
 799:..\..\..\lvgl\version_6.1.2\lvgl\src\lv_objx/lv_btnm.c ****         if(btn_pr != ext->btn_id_pr) {
 2987              		.loc 2 799 0
 2988 0194 7B6C     		ldr	r3, [r7, #68]
 2989 0196 5B8C     		ldrh	r3, [r3, #34]
 2990 0198 BA8F     		ldrh	r2, [r7, #60]
 2991 019a 9A42     		cmp	r2, r3
 2992 019c 29D0     		beq	.L155
 800:..\..\..\lvgl\version_6.1.2\lvgl\src\lv_objx/lv_btnm.c ****             lv_indev_reset_long_press(param); /*Start the log press time again on the new button*/
 2993              		.loc 2 800 0
 2994 019e 7868     		ldr	r0, [r7, #4]
 2995 01a0 FFF7FEFF 		bl	lv_indev_reset_long_press
 801:..\..\..\lvgl\version_6.1.2\lvgl\src\lv_objx/lv_btnm.c ****             if(ext->btn_id_pr != LV_BTNM_BTN_NONE) {
 2996              		.loc 2 801 0
 2997 01a4 7B6C     		ldr	r3, [r7, #68]
 2998 01a6 5B8C     		ldrh	r3, [r3, #34]
 2999 01a8 4FF6FF72 		movw	r2, #65535
 3000 01ac 9342     		cmp	r3, r2
 3001 01ae 05D0     		beq	.L156
 802:..\..\..\lvgl\version_6.1.2\lvgl\src\lv_objx/lv_btnm.c ****                 invalidate_button_area(btnm, ext->btn_id_pr);
 3002              		.loc 2 802 0
ARM GAS  C:\Users\tmj32\AppData\Local\Temp\ccyJ4BPG.s 			page 70


 3003 01b0 7B6C     		ldr	r3, [r7, #68]
 3004 01b2 5B8C     		ldrh	r3, [r3, #34]
 3005 01b4 1946     		mov	r1, r3
 3006 01b6 F868     		ldr	r0, [r7, #12]
 3007 01b8 FFF7FEFF 		bl	invalidate_button_area
 3008              	.L156:
 803:..\..\..\lvgl\version_6.1.2\lvgl\src\lv_objx/lv_btnm.c ****             }
 804:..\..\..\lvgl\version_6.1.2\lvgl\src\lv_objx/lv_btnm.c ****             if(btn_pr != LV_BTNM_BTN_NONE) {
 3009              		.loc 2 804 0
 3010 01bc BB8F     		ldrh	r3, [r7, #60]
 3011 01be 4FF6FF72 		movw	r2, #65535
 3012 01c2 9342     		cmp	r3, r2
 3013 01c4 15D0     		beq	.L155
 3014              	.LBB13:
 805:..\..\..\lvgl\version_6.1.2\lvgl\src\lv_objx/lv_btnm.c ****                 uint32_t b = ext->btn_id_act;
 3015              		.loc 2 805 0
 3016 01c6 7B6C     		ldr	r3, [r7, #68]
 3017 01c8 9B8C     		ldrh	r3, [r3, #36]
 3018 01ca BB61     		str	r3, [r7, #24]
 806:..\..\..\lvgl\version_6.1.2\lvgl\src\lv_objx/lv_btnm.c ****                 res        = lv_event_send(btnm, LV_EVENT_VALUE_CHANGED, &b);
 3019              		.loc 2 806 0
 3020 01cc 07F11803 		add	r3, r7, #24
 3021 01d0 1A46     		mov	r2, r3
 3022 01d2 0E21     		movs	r1, #14
 3023 01d4 F868     		ldr	r0, [r7, #12]
 3024 01d6 FFF7FEFF 		bl	lv_event_send
 3025 01da 0346     		mov	r3, r0
 3026 01dc 87F84F30 		strb	r3, [r7, #79]
 807:..\..\..\lvgl\version_6.1.2\lvgl\src\lv_objx/lv_btnm.c ****                 if(res == LV_RES_OK) {
 3027              		.loc 2 807 0
 3028 01e0 97F84F30 		ldrb	r3, [r7, #79]	@ zero_extendqisi2
 3029 01e4 012B     		cmp	r3, #1
 3030 01e6 04D1     		bne	.L155
 808:..\..\..\lvgl\version_6.1.2\lvgl\src\lv_objx/lv_btnm.c ****                     invalidate_button_area(btnm, btn_pr);
 3031              		.loc 2 808 0
 3032 01e8 BB8F     		ldrh	r3, [r7, #60]
 3033 01ea 1946     		mov	r1, r3
 3034 01ec F868     		ldr	r0, [r7, #12]
 3035 01ee FFF7FEFF 		bl	invalidate_button_area
 3036              	.L155:
 3037              	.LBE13:
 809:..\..\..\lvgl\version_6.1.2\lvgl\src\lv_objx/lv_btnm.c ****                 }
 810:..\..\..\lvgl\version_6.1.2\lvgl\src\lv_objx/lv_btnm.c ****             }
 811:..\..\..\lvgl\version_6.1.2\lvgl\src\lv_objx/lv_btnm.c ****         }
 812:..\..\..\lvgl\version_6.1.2\lvgl\src\lv_objx/lv_btnm.c **** 
 813:..\..\..\lvgl\version_6.1.2\lvgl\src\lv_objx/lv_btnm.c ****         ext->btn_id_pr  = btn_pr;
 3038              		.loc 2 813 0
 3039 01f2 7B6C     		ldr	r3, [r7, #68]
 3040 01f4 BA8F     		ldrh	r2, [r7, #60]	@ movhi
 3041 01f6 5A84     		strh	r2, [r3, #34]	@ movhi
 814:..\..\..\lvgl\version_6.1.2\lvgl\src\lv_objx/lv_btnm.c ****         ext->btn_id_act = btn_pr;
 3042              		.loc 2 814 0
 3043 01f8 7B6C     		ldr	r3, [r7, #68]
 3044 01fa BA8F     		ldrh	r2, [r7, #60]	@ movhi
 3045 01fc 9A84     		strh	r2, [r3, #36]	@ movhi
 3046              	.LBE12:
 3047 01fe 73E2     		b	.L147
ARM GAS  C:\Users\tmj32\AppData\Local\Temp\ccyJ4BPG.s 			page 71


 3048              	.L154:
 815:..\..\..\lvgl\version_6.1.2\lvgl\src\lv_objx/lv_btnm.c ****     } else if(sign == LV_SIGNAL_RELEASED) {
 3049              		.loc 2 815 0
 3050 0200 FB7A     		ldrb	r3, [r7, #11]	@ zero_extendqisi2
 3051 0202 0B2B     		cmp	r3, #11
 3052 0204 40F0AF80 		bne	.L158
 816:..\..\..\lvgl\version_6.1.2\lvgl\src\lv_objx/lv_btnm.c ****         if(ext->btn_id_pr != LV_BTNM_BTN_NONE) {
 3053              		.loc 2 816 0
 3054 0208 7B6C     		ldr	r3, [r7, #68]
 3055 020a 5B8C     		ldrh	r3, [r3, #34]
 3056 020c 4FF6FF72 		movw	r2, #65535
 3057 0210 9342     		cmp	r3, r2
 3058 0212 00F06982 		beq	.L147
 817:..\..\..\lvgl\version_6.1.2\lvgl\src\lv_objx/lv_btnm.c ****             /*Toggle the button if enabled*/
 818:..\..\..\lvgl\version_6.1.2\lvgl\src\lv_objx/lv_btnm.c ****             if(button_is_tgl_enabled(ext->ctrl_bits[ext->btn_id_pr]) &&
 3059              		.loc 2 818 0
 3060 0216 7B6C     		ldr	r3, [r7, #68]
 3061 0218 9A68     		ldr	r2, [r3, #8]
 3062 021a 7B6C     		ldr	r3, [r7, #68]
 3063 021c 5B8C     		ldrh	r3, [r3, #34]
 3064 021e 5B00     		lsls	r3, r3, #1
 3065 0220 1344     		add	r3, r3, r2
 3066 0222 1B88     		ldrh	r3, [r3]
 3067 0224 1846     		mov	r0, r3
 3068 0226 FFF7FEFF 		bl	button_is_tgl_enabled
 3069 022a 0346     		mov	r3, r0
 3070 022c 002B     		cmp	r3, #0
 3071 022e 52D0     		beq	.L160
 819:..\..\..\lvgl\version_6.1.2\lvgl\src\lv_objx/lv_btnm.c ****                !button_is_inactive(ext->ctrl_bits[ext->btn_id_pr])) {
 3072              		.loc 2 819 0 discriminator 1
 3073 0230 7B6C     		ldr	r3, [r7, #68]
 3074 0232 9A68     		ldr	r2, [r3, #8]
 3075 0234 7B6C     		ldr	r3, [r7, #68]
 3076 0236 5B8C     		ldrh	r3, [r3, #34]
 3077 0238 5B00     		lsls	r3, r3, #1
 3078 023a 1344     		add	r3, r3, r2
 3079 023c 1B88     		ldrh	r3, [r3]
 3080 023e 1846     		mov	r0, r3
 3081 0240 FFF7FEFF 		bl	button_is_inactive
 3082 0244 0346     		mov	r3, r0
 3083 0246 83F00103 		eor	r3, r3, #1
 3084 024a DBB2     		uxtb	r3, r3
 818:..\..\..\lvgl\version_6.1.2\lvgl\src\lv_objx/lv_btnm.c ****                !button_is_inactive(ext->ctrl_bits[ext->btn_id_pr])) {
 3085              		.loc 2 818 0 discriminator 1
 3086 024c 002B     		cmp	r3, #0
 3087 024e 42D0     		beq	.L160
 820:..\..\..\lvgl\version_6.1.2\lvgl\src\lv_objx/lv_btnm.c ****                 if(button_get_tgl_state(ext->ctrl_bits[ext->btn_id_pr])) {
 3088              		.loc 2 820 0
 3089 0250 7B6C     		ldr	r3, [r7, #68]
 3090 0252 9A68     		ldr	r2, [r3, #8]
 3091 0254 7B6C     		ldr	r3, [r7, #68]
 3092 0256 5B8C     		ldrh	r3, [r3, #34]
 3093 0258 5B00     		lsls	r3, r3, #1
 3094 025a 1344     		add	r3, r3, r2
 3095 025c 1B88     		ldrh	r3, [r3]
 3096 025e 1846     		mov	r0, r3
 3097 0260 FFF7FEFF 		bl	button_get_tgl_state
ARM GAS  C:\Users\tmj32\AppData\Local\Temp\ccyJ4BPG.s 			page 72


 3098 0264 0346     		mov	r3, r0
 3099 0266 002B     		cmp	r3, #0
 3100 0268 16D0     		beq	.L161
 821:..\..\..\lvgl\version_6.1.2\lvgl\src\lv_objx/lv_btnm.c ****                     ext->ctrl_bits[ext->btn_id_pr] &= (~LV_BTNM_CTRL_TGL_STATE);
 3101              		.loc 2 821 0
 3102 026a 7B6C     		ldr	r3, [r7, #68]
 3103 026c 9A68     		ldr	r2, [r3, #8]
 3104 026e 7B6C     		ldr	r3, [r7, #68]
 3105 0270 5B8C     		ldrh	r3, [r3, #34]
 3106 0272 5B00     		lsls	r3, r3, #1
 3107 0274 1344     		add	r3, r3, r2
 3108 0276 7A6C     		ldr	r2, [r7, #68]
 3109 0278 9168     		ldr	r1, [r2, #8]
 3110 027a 7A6C     		ldr	r2, [r7, #68]
 3111 027c 528C     		ldrh	r2, [r2, #34]
 3112 027e 5200     		lsls	r2, r2, #1
 3113 0280 0A44     		add	r2, r2, r1
 3114 0282 1288     		ldrh	r2, [r2]
 3115 0284 22F08002 		bic	r2, r2, #128
 3116 0288 92B2     		uxth	r2, r2
 3117 028a 1A80     		strh	r2, [r3]	@ movhi
 3118 028c 15E0     		b	.L162
 3119              	.L194:
 3120 028e 00BF     		.align	2
 3121              	.L193:
 3122 0290 04000000 		.word	ancestor_signal
 3123 0294 30000000 		.word	.LC7
 3124              	.L161:
 822:..\..\..\lvgl\version_6.1.2\lvgl\src\lv_objx/lv_btnm.c ****                 } else {
 823:..\..\..\lvgl\version_6.1.2\lvgl\src\lv_objx/lv_btnm.c ****                     ext->ctrl_bits[ext->btn_id_pr] |= LV_BTNM_CTRL_TGL_STATE;
 3125              		.loc 2 823 0
 3126 0298 7B6C     		ldr	r3, [r7, #68]
 3127 029a 9A68     		ldr	r2, [r3, #8]
 3128 029c 7B6C     		ldr	r3, [r7, #68]
 3129 029e 5B8C     		ldrh	r3, [r3, #34]
 3130 02a0 5B00     		lsls	r3, r3, #1
 3131 02a2 1344     		add	r3, r3, r2
 3132 02a4 7A6C     		ldr	r2, [r7, #68]
 3133 02a6 9168     		ldr	r1, [r2, #8]
 3134 02a8 7A6C     		ldr	r2, [r7, #68]
 3135 02aa 528C     		ldrh	r2, [r2, #34]
 3136 02ac 5200     		lsls	r2, r2, #1
 3137 02ae 0A44     		add	r2, r2, r1
 3138 02b0 1288     		ldrh	r2, [r2]
 3139 02b2 42F08002 		orr	r2, r2, #128
 3140 02b6 92B2     		uxth	r2, r2
 3141 02b8 1A80     		strh	r2, [r3]	@ movhi
 3142              	.L162:
 824:..\..\..\lvgl\version_6.1.2\lvgl\src\lv_objx/lv_btnm.c ****                 }
 825:..\..\..\lvgl\version_6.1.2\lvgl\src\lv_objx/lv_btnm.c ****                 if(ext->one_toggle) make_one_button_toggled(btnm, ext->btn_id_pr);
 3143              		.loc 2 825 0
 3144 02ba 7B6C     		ldr	r3, [r7, #68]
 3145 02bc 93F82630 		ldrb	r3, [r3, #38]	@ zero_extendqisi2
 3146 02c0 03F00203 		and	r3, r3, #2
 3147 02c4 DBB2     		uxtb	r3, r3
 3148 02c6 002B     		cmp	r3, #0
 3149 02c8 05D0     		beq	.L160
ARM GAS  C:\Users\tmj32\AppData\Local\Temp\ccyJ4BPG.s 			page 73


 3150              		.loc 2 825 0 is_stmt 0 discriminator 1
 3151 02ca 7B6C     		ldr	r3, [r7, #68]
 3152 02cc 5B8C     		ldrh	r3, [r3, #34]
 3153 02ce 1946     		mov	r1, r3
 3154 02d0 F868     		ldr	r0, [r7, #12]
 3155 02d2 FFF7FEFF 		bl	make_one_button_toggled
 3156              	.L160:
 826:..\..\..\lvgl\version_6.1.2\lvgl\src\lv_objx/lv_btnm.c ****             }
 827:..\..\..\lvgl\version_6.1.2\lvgl\src\lv_objx/lv_btnm.c **** 
 828:..\..\..\lvgl\version_6.1.2\lvgl\src\lv_objx/lv_btnm.c ****             /*Invalidate to old pressed area*/;
 829:..\..\..\lvgl\version_6.1.2\lvgl\src\lv_objx/lv_btnm.c ****             invalidate_button_area(btnm, ext->btn_id_pr);
 3157              		.loc 2 829 0 is_stmt 1
 3158 02d6 7B6C     		ldr	r3, [r7, #68]
 3159 02d8 5B8C     		ldrh	r3, [r3, #34]
 3160 02da 1946     		mov	r1, r3
 3161 02dc F868     		ldr	r0, [r7, #12]
 3162 02de FFF7FEFF 		bl	invalidate_button_area
 830:..\..\..\lvgl\version_6.1.2\lvgl\src\lv_objx/lv_btnm.c **** 
 831:..\..\..\lvgl\version_6.1.2\lvgl\src\lv_objx/lv_btnm.c **** #if LV_USE_GROUP
 832:..\..\..\lvgl\version_6.1.2\lvgl\src\lv_objx/lv_btnm.c ****             /*Leave the clicked button when releases if this not the focused object in a group*/
 833:..\..\..\lvgl\version_6.1.2\lvgl\src\lv_objx/lv_btnm.c ****             lv_group_t * g = lv_obj_get_group(btnm);
 834:..\..\..\lvgl\version_6.1.2\lvgl\src\lv_objx/lv_btnm.c ****             if(lv_group_get_focused(g) != btnm) {
 835:..\..\..\lvgl\version_6.1.2\lvgl\src\lv_objx/lv_btnm.c ****                 ext->btn_id_pr = LV_BTNM_BTN_NONE;
 836:..\..\..\lvgl\version_6.1.2\lvgl\src\lv_objx/lv_btnm.c ****             }
 837:..\..\..\lvgl\version_6.1.2\lvgl\src\lv_objx/lv_btnm.c **** #else
 838:..\..\..\lvgl\version_6.1.2\lvgl\src\lv_objx/lv_btnm.c ****             ext->btn_id_pr = LV_BTNM_BTN_NONE;
 3163              		.loc 2 838 0
 3164 02e2 7B6C     		ldr	r3, [r7, #68]
 3165 02e4 4FF6FF72 		movw	r2, #65535
 3166 02e8 5A84     		strh	r2, [r3, #34]	@ movhi
 839:..\..\..\lvgl\version_6.1.2\lvgl\src\lv_objx/lv_btnm.c **** #endif
 840:..\..\..\lvgl\version_6.1.2\lvgl\src\lv_objx/lv_btnm.c **** 
 841:..\..\..\lvgl\version_6.1.2\lvgl\src\lv_objx/lv_btnm.c ****             if(button_is_click_trig(ext->ctrl_bits[ext->btn_id_act]) == true &&
 3167              		.loc 2 841 0
 3168 02ea 7B6C     		ldr	r3, [r7, #68]
 3169 02ec 9A68     		ldr	r2, [r3, #8]
 3170 02ee 7B6C     		ldr	r3, [r7, #68]
 3171 02f0 9B8C     		ldrh	r3, [r3, #36]
 3172 02f2 5B00     		lsls	r3, r3, #1
 3173 02f4 1344     		add	r3, r3, r2
 3174 02f6 1B88     		ldrh	r3, [r3]
 3175 02f8 1846     		mov	r0, r3
 3176 02fa FFF7FEFF 		bl	button_is_click_trig
 3177 02fe 0346     		mov	r3, r0
 3178 0300 002B     		cmp	r3, #0
 3179 0302 00F0F181 		beq	.L147
 842:..\..\..\lvgl\version_6.1.2\lvgl\src\lv_objx/lv_btnm.c ****                button_is_inactive(ext->ctrl_bits[ext->btn_id_act]) == false &&
 3180              		.loc 2 842 0 discriminator 1
 3181 0306 7B6C     		ldr	r3, [r7, #68]
 3182 0308 9A68     		ldr	r2, [r3, #8]
 3183 030a 7B6C     		ldr	r3, [r7, #68]
 3184 030c 9B8C     		ldrh	r3, [r3, #36]
 3185 030e 5B00     		lsls	r3, r3, #1
 3186 0310 1344     		add	r3, r3, r2
 3187 0312 1B88     		ldrh	r3, [r3]
 3188 0314 1846     		mov	r0, r3
 3189 0316 FFF7FEFF 		bl	button_is_inactive
ARM GAS  C:\Users\tmj32\AppData\Local\Temp\ccyJ4BPG.s 			page 74


 3190 031a 0346     		mov	r3, r0
 3191 031c 83F00103 		eor	r3, r3, #1
 3192 0320 DBB2     		uxtb	r3, r3
 841:..\..\..\lvgl\version_6.1.2\lvgl\src\lv_objx/lv_btnm.c ****                button_is_inactive(ext->ctrl_bits[ext->btn_id_act]) == false &&
 3193              		.loc 2 841 0 discriminator 1
 3194 0322 002B     		cmp	r3, #0
 3195 0324 00F0E081 		beq	.L147
 843:..\..\..\lvgl\version_6.1.2\lvgl\src\lv_objx/lv_btnm.c ****                button_is_hidden(ext->ctrl_bits[ext->btn_id_act]) == false) {
 3196              		.loc 2 843 0
 3197 0328 7B6C     		ldr	r3, [r7, #68]
 3198 032a 9A68     		ldr	r2, [r3, #8]
 3199 032c 7B6C     		ldr	r3, [r7, #68]
 3200 032e 9B8C     		ldrh	r3, [r3, #36]
 3201 0330 5B00     		lsls	r3, r3, #1
 3202 0332 1344     		add	r3, r3, r2
 3203 0334 1B88     		ldrh	r3, [r3]
 3204 0336 1846     		mov	r0, r3
 3205 0338 FFF7FEFF 		bl	button_is_hidden
 3206 033c 0346     		mov	r3, r0
 3207 033e 83F00103 		eor	r3, r3, #1
 3208 0342 DBB2     		uxtb	r3, r3
 842:..\..\..\lvgl\version_6.1.2\lvgl\src\lv_objx/lv_btnm.c ****                button_is_inactive(ext->ctrl_bits[ext->btn_id_act]) == false &&
 3209              		.loc 2 842 0
 3210 0344 002B     		cmp	r3, #0
 3211 0346 00F0CF81 		beq	.L147
 3212              	.LBB14:
 844:..\..\..\lvgl\version_6.1.2\lvgl\src\lv_objx/lv_btnm.c ****                 uint32_t b = ext->btn_id_act;
 3213              		.loc 2 844 0
 3214 034a 7B6C     		ldr	r3, [r7, #68]
 3215 034c 9B8C     		ldrh	r3, [r3, #36]
 3216 034e 7B61     		str	r3, [r7, #20]
 845:..\..\..\lvgl\version_6.1.2\lvgl\src\lv_objx/lv_btnm.c ****                 res        = lv_event_send(btnm, LV_EVENT_VALUE_CHANGED, &b);
 3217              		.loc 2 845 0
 3218 0350 07F11403 		add	r3, r7, #20
 3219 0354 1A46     		mov	r2, r3
 3220 0356 0E21     		movs	r1, #14
 3221 0358 F868     		ldr	r0, [r7, #12]
 3222 035a FFF7FEFF 		bl	lv_event_send
 3223 035e 0346     		mov	r3, r0
 3224 0360 87F84F30 		strb	r3, [r7, #79]
 3225 0364 C0E1     		b	.L147
 3226              	.L158:
 3227              	.LBE14:
 846:..\..\..\lvgl\version_6.1.2\lvgl\src\lv_objx/lv_btnm.c ****             }
 847:..\..\..\lvgl\version_6.1.2\lvgl\src\lv_objx/lv_btnm.c ****         }
 848:..\..\..\lvgl\version_6.1.2\lvgl\src\lv_objx/lv_btnm.c ****     } else if(sign == LV_SIGNAL_LONG_PRESS_REP) {
 3228              		.loc 2 848 0
 3229 0366 FB7A     		ldrb	r3, [r7, #11]	@ zero_extendqisi2
 3230 0368 0D2B     		cmp	r3, #13
 3231 036a 47D1     		bne	.L163
 849:..\..\..\lvgl\version_6.1.2\lvgl\src\lv_objx/lv_btnm.c ****         if(ext->btn_id_act != LV_BTNM_BTN_NONE) {
 3232              		.loc 2 849 0
 3233 036c 7B6C     		ldr	r3, [r7, #68]
 3234 036e 9B8C     		ldrh	r3, [r3, #36]
 3235 0370 4FF6FF72 		movw	r2, #65535
 3236 0374 9342     		cmp	r3, r2
 3237 0376 00F0B781 		beq	.L147
ARM GAS  C:\Users\tmj32\AppData\Local\Temp\ccyJ4BPG.s 			page 75


 850:..\..\..\lvgl\version_6.1.2\lvgl\src\lv_objx/lv_btnm.c ****             if(button_is_repeat_disabled(ext->ctrl_bits[ext->btn_id_act]) == false &&
 3238              		.loc 2 850 0
 3239 037a 7B6C     		ldr	r3, [r7, #68]
 3240 037c 9A68     		ldr	r2, [r3, #8]
 3241 037e 7B6C     		ldr	r3, [r7, #68]
 3242 0380 9B8C     		ldrh	r3, [r3, #36]
 3243 0382 5B00     		lsls	r3, r3, #1
 3244 0384 1344     		add	r3, r3, r2
 3245 0386 1B88     		ldrh	r3, [r3]
 3246 0388 1846     		mov	r0, r3
 3247 038a FFF7FEFF 		bl	button_is_repeat_disabled
 3248 038e 0346     		mov	r3, r0
 3249 0390 83F00103 		eor	r3, r3, #1
 3250 0394 DBB2     		uxtb	r3, r3
 3251 0396 002B     		cmp	r3, #0
 3252 0398 00F0A681 		beq	.L147
 851:..\..\..\lvgl\version_6.1.2\lvgl\src\lv_objx/lv_btnm.c ****                button_is_inactive(ext->ctrl_bits[ext->btn_id_act]) == false &&
 3253              		.loc 2 851 0 discriminator 1
 3254 039c 7B6C     		ldr	r3, [r7, #68]
 3255 039e 9A68     		ldr	r2, [r3, #8]
 3256 03a0 7B6C     		ldr	r3, [r7, #68]
 3257 03a2 9B8C     		ldrh	r3, [r3, #36]
 3258 03a4 5B00     		lsls	r3, r3, #1
 3259 03a6 1344     		add	r3, r3, r2
 3260 03a8 1B88     		ldrh	r3, [r3]
 3261 03aa 1846     		mov	r0, r3
 3262 03ac FFF7FEFF 		bl	button_is_inactive
 3263 03b0 0346     		mov	r3, r0
 3264 03b2 83F00103 		eor	r3, r3, #1
 3265 03b6 DBB2     		uxtb	r3, r3
 850:..\..\..\lvgl\version_6.1.2\lvgl\src\lv_objx/lv_btnm.c ****             if(button_is_repeat_disabled(ext->ctrl_bits[ext->btn_id_act]) == false &&
 3266              		.loc 2 850 0 discriminator 1
 3267 03b8 002B     		cmp	r3, #0
 3268 03ba 00F09581 		beq	.L147
 852:..\..\..\lvgl\version_6.1.2\lvgl\src\lv_objx/lv_btnm.c ****                button_is_hidden(ext->ctrl_bits[ext->btn_id_act]) == false) {
 3269              		.loc 2 852 0
 3270 03be 7B6C     		ldr	r3, [r7, #68]
 3271 03c0 9A68     		ldr	r2, [r3, #8]
 3272 03c2 7B6C     		ldr	r3, [r7, #68]
 3273 03c4 9B8C     		ldrh	r3, [r3, #36]
 3274 03c6 5B00     		lsls	r3, r3, #1
 3275 03c8 1344     		add	r3, r3, r2
 3276 03ca 1B88     		ldrh	r3, [r3]
 3277 03cc 1846     		mov	r0, r3
 3278 03ce FFF7FEFF 		bl	button_is_hidden
 3279 03d2 0346     		mov	r3, r0
 3280 03d4 83F00103 		eor	r3, r3, #1
 3281 03d8 DBB2     		uxtb	r3, r3
 851:..\..\..\lvgl\version_6.1.2\lvgl\src\lv_objx/lv_btnm.c ****                button_is_inactive(ext->ctrl_bits[ext->btn_id_act]) == false &&
 3282              		.loc 2 851 0
 3283 03da 002B     		cmp	r3, #0
 3284 03dc 00F08481 		beq	.L147
 3285              	.LBB15:
 853:..\..\..\lvgl\version_6.1.2\lvgl\src\lv_objx/lv_btnm.c ****                 uint32_t b = ext->btn_id_act;
 3286              		.loc 2 853 0
 3287 03e0 7B6C     		ldr	r3, [r7, #68]
 3288 03e2 9B8C     		ldrh	r3, [r3, #36]
ARM GAS  C:\Users\tmj32\AppData\Local\Temp\ccyJ4BPG.s 			page 76


 3289 03e4 3B61     		str	r3, [r7, #16]
 854:..\..\..\lvgl\version_6.1.2\lvgl\src\lv_objx/lv_btnm.c ****                 res        = lv_event_send(btnm, LV_EVENT_VALUE_CHANGED, &b);
 3290              		.loc 2 854 0
 3291 03e6 07F11003 		add	r3, r7, #16
 3292 03ea 1A46     		mov	r2, r3
 3293 03ec 0E21     		movs	r1, #14
 3294 03ee F868     		ldr	r0, [r7, #12]
 3295 03f0 FFF7FEFF 		bl	lv_event_send
 3296 03f4 0346     		mov	r3, r0
 3297 03f6 87F84F30 		strb	r3, [r7, #79]
 3298 03fa 75E1     		b	.L147
 3299              	.L163:
 3300              	.LBE15:
 855:..\..\..\lvgl\version_6.1.2\lvgl\src\lv_objx/lv_btnm.c ****             }
 856:..\..\..\lvgl\version_6.1.2\lvgl\src\lv_objx/lv_btnm.c ****         }
 857:..\..\..\lvgl\version_6.1.2\lvgl\src\lv_objx/lv_btnm.c ****     } else if(sign == LV_SIGNAL_PRESS_LOST || sign == LV_SIGNAL_DEFOCUS) {
 3301              		.loc 2 857 0
 3302 03fc FB7A     		ldrb	r3, [r7, #11]	@ zero_extendqisi2
 3303 03fe 0A2B     		cmp	r3, #10
 3304 0400 02D0     		beq	.L165
 3305              		.loc 2 857 0 is_stmt 0 discriminator 1
 3306 0402 FB7A     		ldrb	r3, [r7, #11]	@ zero_extendqisi2
 3307 0404 112B     		cmp	r3, #17
 3308 0406 0BD1     		bne	.L166
 3309              	.L165:
 858:..\..\..\lvgl\version_6.1.2\lvgl\src\lv_objx/lv_btnm.c ****         ext->btn_id_pr  = LV_BTNM_BTN_NONE;
 3310              		.loc 2 858 0 is_stmt 1
 3311 0408 7B6C     		ldr	r3, [r7, #68]
 3312 040a 4FF6FF72 		movw	r2, #65535
 3313 040e 5A84     		strh	r2, [r3, #34]	@ movhi
 859:..\..\..\lvgl\version_6.1.2\lvgl\src\lv_objx/lv_btnm.c ****         ext->btn_id_act = LV_BTNM_BTN_NONE;
 3314              		.loc 2 859 0
 3315 0410 7B6C     		ldr	r3, [r7, #68]
 3316 0412 4FF6FF72 		movw	r2, #65535
 3317 0416 9A84     		strh	r2, [r3, #36]	@ movhi
 860:..\..\..\lvgl\version_6.1.2\lvgl\src\lv_objx/lv_btnm.c ****         lv_obj_invalidate(btnm);
 3318              		.loc 2 860 0
 3319 0418 F868     		ldr	r0, [r7, #12]
 3320 041a FFF7FEFF 		bl	lv_obj_invalidate
 3321 041e 63E1     		b	.L147
 3322              	.L166:
 861:..\..\..\lvgl\version_6.1.2\lvgl\src\lv_objx/lv_btnm.c ****     } else if(sign == LV_SIGNAL_FOCUS) {
 3323              		.loc 2 861 0
 3324 0420 FB7A     		ldrb	r3, [r7, #11]	@ zero_extendqisi2
 3325 0422 102B     		cmp	r3, #16
 3326 0424 0AD1     		bne	.L167
 862:..\..\..\lvgl\version_6.1.2\lvgl\src\lv_objx/lv_btnm.c **** #if LV_USE_GROUP
 863:..\..\..\lvgl\version_6.1.2\lvgl\src\lv_objx/lv_btnm.c ****         lv_indev_t * indev         = lv_indev_get_act();
 864:..\..\..\lvgl\version_6.1.2\lvgl\src\lv_objx/lv_btnm.c ****         lv_indev_type_t indev_type = lv_indev_get_type(indev);
 865:..\..\..\lvgl\version_6.1.2\lvgl\src\lv_objx/lv_btnm.c **** 
 866:..\..\..\lvgl\version_6.1.2\lvgl\src\lv_objx/lv_btnm.c ****         /*If not focused by an input device assume the last input device*/
 867:..\..\..\lvgl\version_6.1.2\lvgl\src\lv_objx/lv_btnm.c ****         if(indev == NULL) {
 868:..\..\..\lvgl\version_6.1.2\lvgl\src\lv_objx/lv_btnm.c ****             indev = lv_indev_get_next(NULL);
 869:..\..\..\lvgl\version_6.1.2\lvgl\src\lv_objx/lv_btnm.c ****             indev_type = lv_indev_get_type(indev);
 870:..\..\..\lvgl\version_6.1.2\lvgl\src\lv_objx/lv_btnm.c ****         }
 871:..\..\..\lvgl\version_6.1.2\lvgl\src\lv_objx/lv_btnm.c **** 
 872:..\..\..\lvgl\version_6.1.2\lvgl\src\lv_objx/lv_btnm.c ****         if(indev_type == LV_INDEV_TYPE_POINTER) {
ARM GAS  C:\Users\tmj32\AppData\Local\Temp\ccyJ4BPG.s 			page 77


 873:..\..\..\lvgl\version_6.1.2\lvgl\src\lv_objx/lv_btnm.c ****             /*Select the clicked button*/
 874:..\..\..\lvgl\version_6.1.2\lvgl\src\lv_objx/lv_btnm.c ****             lv_point_t p1;
 875:..\..\..\lvgl\version_6.1.2\lvgl\src\lv_objx/lv_btnm.c ****             lv_indev_get_point(indev, &p1);
 876:..\..\..\lvgl\version_6.1.2\lvgl\src\lv_objx/lv_btnm.c ****             uint16_t btn_i = get_button_from_point(btnm, &p1);
 877:..\..\..\lvgl\version_6.1.2\lvgl\src\lv_objx/lv_btnm.c ****             ext->btn_id_pr = btn_i;
 878:..\..\..\lvgl\version_6.1.2\lvgl\src\lv_objx/lv_btnm.c **** 
 879:..\..\..\lvgl\version_6.1.2\lvgl\src\lv_objx/lv_btnm.c ****         } else if(indev_type == LV_INDEV_TYPE_ENCODER) {
 880:..\..\..\lvgl\version_6.1.2\lvgl\src\lv_objx/lv_btnm.c ****             /*In navigation mode don't select any button but in edit mode select the fist*/
 881:..\..\..\lvgl\version_6.1.2\lvgl\src\lv_objx/lv_btnm.c ****             if(lv_group_get_editing(lv_obj_get_group(btnm)))
 882:..\..\..\lvgl\version_6.1.2\lvgl\src\lv_objx/lv_btnm.c ****                 ext->btn_id_pr = 0;
 883:..\..\..\lvgl\version_6.1.2\lvgl\src\lv_objx/lv_btnm.c ****             else
 884:..\..\..\lvgl\version_6.1.2\lvgl\src\lv_objx/lv_btnm.c ****                 ext->btn_id_pr = LV_BTNM_BTN_NONE;
 885:..\..\..\lvgl\version_6.1.2\lvgl\src\lv_objx/lv_btnm.c ****         } else {
 886:..\..\..\lvgl\version_6.1.2\lvgl\src\lv_objx/lv_btnm.c ****             ext->btn_id_pr = 0;
 887:..\..\..\lvgl\version_6.1.2\lvgl\src\lv_objx/lv_btnm.c ****         }
 888:..\..\..\lvgl\version_6.1.2\lvgl\src\lv_objx/lv_btnm.c **** #else
 889:..\..\..\lvgl\version_6.1.2\lvgl\src\lv_objx/lv_btnm.c ****         ext->btn_id_pr = 0;
 3327              		.loc 2 889 0
 3328 0426 7B6C     		ldr	r3, [r7, #68]
 3329 0428 0022     		movs	r2, #0
 3330 042a 5A84     		strh	r2, [r3, #34]	@ movhi
 890:..\..\..\lvgl\version_6.1.2\lvgl\src\lv_objx/lv_btnm.c **** #endif
 891:..\..\..\lvgl\version_6.1.2\lvgl\src\lv_objx/lv_btnm.c **** 
 892:..\..\..\lvgl\version_6.1.2\lvgl\src\lv_objx/lv_btnm.c ****         ext->btn_id_act = ext->btn_id_pr;
 3331              		.loc 2 892 0
 3332 042c 7B6C     		ldr	r3, [r7, #68]
 3333 042e 5A8C     		ldrh	r2, [r3, #34]
 3334 0430 7B6C     		ldr	r3, [r7, #68]
 3335 0432 9A84     		strh	r2, [r3, #36]	@ movhi
 893:..\..\..\lvgl\version_6.1.2\lvgl\src\lv_objx/lv_btnm.c ****         lv_obj_invalidate(btnm);
 3336              		.loc 2 893 0
 3337 0434 F868     		ldr	r0, [r7, #12]
 3338 0436 FFF7FEFF 		bl	lv_obj_invalidate
 3339 043a 55E1     		b	.L147
 3340              	.L167:
 894:..\..\..\lvgl\version_6.1.2\lvgl\src\lv_objx/lv_btnm.c ****     } else if(sign == LV_SIGNAL_CONTROL) {
 3341              		.loc 2 894 0
 3342 043c FB7A     		ldrb	r3, [r7, #11]	@ zero_extendqisi2
 3343 043e 122B     		cmp	r3, #18
 3344 0440 40F04A81 		bne	.L168
 3345              	.LBB16:
 895:..\..\..\lvgl\version_6.1.2\lvgl\src\lv_objx/lv_btnm.c ****         char c = *((char *)param);
 3346              		.loc 2 895 0
 3347 0444 7B68     		ldr	r3, [r7, #4]
 3348 0446 1B78     		ldrb	r3, [r3]
 3349 0448 87F83B30 		strb	r3, [r7, #59]
 896:..\..\..\lvgl\version_6.1.2\lvgl\src\lv_objx/lv_btnm.c ****         if(c == LV_KEY_RIGHT) {
 3350              		.loc 2 896 0
 3351 044c 97F83B30 		ldrb	r3, [r7, #59]	@ zero_extendqisi2
 3352 0450 132B     		cmp	r3, #19
 3353 0452 25D1     		bne	.L169
 897:..\..\..\lvgl\version_6.1.2\lvgl\src\lv_objx/lv_btnm.c ****             if(ext->btn_id_pr == LV_BTNM_BTN_NONE)
 3354              		.loc 2 897 0
 3355 0454 7B6C     		ldr	r3, [r7, #68]
 3356 0456 5B8C     		ldrh	r3, [r3, #34]
 3357 0458 4FF6FF72 		movw	r2, #65535
 3358 045c 9342     		cmp	r3, r2
ARM GAS  C:\Users\tmj32\AppData\Local\Temp\ccyJ4BPG.s 			page 78


 3359 045e 03D1     		bne	.L170
 898:..\..\..\lvgl\version_6.1.2\lvgl\src\lv_objx/lv_btnm.c ****                 ext->btn_id_pr = 0;
 3360              		.loc 2 898 0
 3361 0460 7B6C     		ldr	r3, [r7, #68]
 3362 0462 0022     		movs	r2, #0
 3363 0464 5A84     		strh	r2, [r3, #34]	@ movhi
 3364 0466 05E0     		b	.L171
 3365              	.L170:
 899:..\..\..\lvgl\version_6.1.2\lvgl\src\lv_objx/lv_btnm.c ****             else
 900:..\..\..\lvgl\version_6.1.2\lvgl\src\lv_objx/lv_btnm.c ****                 ext->btn_id_pr++;
 3366              		.loc 2 900 0
 3367 0468 7B6C     		ldr	r3, [r7, #68]
 3368 046a 5B8C     		ldrh	r3, [r3, #34]
 3369 046c 0133     		adds	r3, r3, #1
 3370 046e 9AB2     		uxth	r2, r3
 3371 0470 7B6C     		ldr	r3, [r7, #68]
 3372 0472 5A84     		strh	r2, [r3, #34]	@ movhi
 3373              	.L171:
 901:..\..\..\lvgl\version_6.1.2\lvgl\src\lv_objx/lv_btnm.c ****             if(ext->btn_id_pr >= ext->btn_cnt - 1) ext->btn_id_pr = ext->btn_cnt - 1;
 3374              		.loc 2 901 0
 3375 0474 7B6C     		ldr	r3, [r7, #68]
 3376 0476 5B8C     		ldrh	r3, [r3, #34]
 3377 0478 1A46     		mov	r2, r3
 3378 047a 7B6C     		ldr	r3, [r7, #68]
 3379 047c 1B8C     		ldrh	r3, [r3, #32]
 3380 047e 013B     		subs	r3, r3, #1
 3381 0480 9A42     		cmp	r2, r3
 3382 0482 05DB     		blt	.L172
 3383              		.loc 2 901 0 is_stmt 0 discriminator 1
 3384 0484 7B6C     		ldr	r3, [r7, #68]
 3385 0486 1B8C     		ldrh	r3, [r3, #32]
 3386 0488 013B     		subs	r3, r3, #1
 3387 048a 9AB2     		uxth	r2, r3
 3388 048c 7B6C     		ldr	r3, [r7, #68]
 3389 048e 5A84     		strh	r2, [r3, #34]	@ movhi
 3390              	.L172:
 902:..\..\..\lvgl\version_6.1.2\lvgl\src\lv_objx/lv_btnm.c ****             ext->btn_id_act = ext->btn_id_pr;
 3391              		.loc 2 902 0 is_stmt 1
 3392 0490 7B6C     		ldr	r3, [r7, #68]
 3393 0492 5A8C     		ldrh	r2, [r3, #34]
 3394 0494 7B6C     		ldr	r3, [r7, #68]
 3395 0496 9A84     		strh	r2, [r3, #36]	@ movhi
 903:..\..\..\lvgl\version_6.1.2\lvgl\src\lv_objx/lv_btnm.c ****             lv_obj_invalidate(btnm);
 3396              		.loc 2 903 0
 3397 0498 F868     		ldr	r0, [r7, #12]
 3398 049a FFF7FEFF 		bl	lv_obj_invalidate
 3399 049e 23E1     		b	.L147
 3400              	.L169:
 904:..\..\..\lvgl\version_6.1.2\lvgl\src\lv_objx/lv_btnm.c ****         } else if(c == LV_KEY_LEFT) {
 3401              		.loc 2 904 0
 3402 04a0 97F83B30 		ldrb	r3, [r7, #59]	@ zero_extendqisi2
 3403 04a4 142B     		cmp	r3, #20
 3404 04a6 1AD1     		bne	.L174
 905:..\..\..\lvgl\version_6.1.2\lvgl\src\lv_objx/lv_btnm.c ****             if(ext->btn_id_pr == LV_BTNM_BTN_NONE) ext->btn_id_pr = 0;
 3405              		.loc 2 905 0
 3406 04a8 7B6C     		ldr	r3, [r7, #68]
 3407 04aa 5B8C     		ldrh	r3, [r3, #34]
ARM GAS  C:\Users\tmj32\AppData\Local\Temp\ccyJ4BPG.s 			page 79


 3408 04ac 4FF6FF72 		movw	r2, #65535
 3409 04b0 9342     		cmp	r3, r2
 3410 04b2 02D1     		bne	.L175
 3411              		.loc 2 905 0 is_stmt 0 discriminator 1
 3412 04b4 7B6C     		ldr	r3, [r7, #68]
 3413 04b6 0022     		movs	r2, #0
 3414 04b8 5A84     		strh	r2, [r3, #34]	@ movhi
 3415              	.L175:
 906:..\..\..\lvgl\version_6.1.2\lvgl\src\lv_objx/lv_btnm.c ****             if(ext->btn_id_pr > 0) ext->btn_id_pr--;
 3416              		.loc 2 906 0 is_stmt 1
 3417 04ba 7B6C     		ldr	r3, [r7, #68]
 3418 04bc 5B8C     		ldrh	r3, [r3, #34]
 3419 04be 002B     		cmp	r3, #0
 3420 04c0 05D0     		beq	.L176
 3421              		.loc 2 906 0 is_stmt 0 discriminator 1
 3422 04c2 7B6C     		ldr	r3, [r7, #68]
 3423 04c4 5B8C     		ldrh	r3, [r3, #34]
 3424 04c6 013B     		subs	r3, r3, #1
 3425 04c8 9AB2     		uxth	r2, r3
 3426 04ca 7B6C     		ldr	r3, [r7, #68]
 3427 04cc 5A84     		strh	r2, [r3, #34]	@ movhi
 3428              	.L176:
 907:..\..\..\lvgl\version_6.1.2\lvgl\src\lv_objx/lv_btnm.c ****             ext->btn_id_act = ext->btn_id_pr;
 3429              		.loc 2 907 0 is_stmt 1
 3430 04ce 7B6C     		ldr	r3, [r7, #68]
 3431 04d0 5A8C     		ldrh	r2, [r3, #34]
 3432 04d2 7B6C     		ldr	r3, [r7, #68]
 3433 04d4 9A84     		strh	r2, [r3, #36]	@ movhi
 908:..\..\..\lvgl\version_6.1.2\lvgl\src\lv_objx/lv_btnm.c ****             lv_obj_invalidate(btnm);
 3434              		.loc 2 908 0
 3435 04d6 F868     		ldr	r0, [r7, #12]
 3436 04d8 FFF7FEFF 		bl	lv_obj_invalidate
 3437 04dc 04E1     		b	.L147
 3438              	.L174:
 909:..\..\..\lvgl\version_6.1.2\lvgl\src\lv_objx/lv_btnm.c ****         } else if(c == LV_KEY_DOWN) {
 3439              		.loc 2 909 0
 3440 04de 97F83B30 		ldrb	r3, [r7, #59]	@ zero_extendqisi2
 3441 04e2 122B     		cmp	r3, #18
 3442 04e4 7AD1     		bne	.L177
 3443              	.LBB17:
 910:..\..\..\lvgl\version_6.1.2\lvgl\src\lv_objx/lv_btnm.c ****             const lv_style_t * style = lv_btnm_get_style(btnm, LV_BTNM_STYLE_BG);
 3444              		.loc 2 910 0
 3445 04e6 0021     		movs	r1, #0
 3446 04e8 F868     		ldr	r0, [r7, #12]
 3447 04ea FFF7FEFF 		bl	lv_btnm_get_style
 3448 04ee 7863     		str	r0, [r7, #52]
 911:..\..\..\lvgl\version_6.1.2\lvgl\src\lv_objx/lv_btnm.c ****             /*Find the area below the the current*/
 912:..\..\..\lvgl\version_6.1.2\lvgl\src\lv_objx/lv_btnm.c ****             if(ext->btn_id_pr == LV_BTNM_BTN_NONE) {
 3449              		.loc 2 912 0
 3450 04f0 7B6C     		ldr	r3, [r7, #68]
 3451 04f2 5B8C     		ldrh	r3, [r3, #34]
 3452 04f4 4FF6FF72 		movw	r2, #65535
 3453 04f8 9342     		cmp	r3, r2
 3454 04fa 03D1     		bne	.L178
 913:..\..\..\lvgl\version_6.1.2\lvgl\src\lv_objx/lv_btnm.c ****                 ext->btn_id_pr = 0;
 3455              		.loc 2 913 0
 3456 04fc 7B6C     		ldr	r3, [r7, #68]
ARM GAS  C:\Users\tmj32\AppData\Local\Temp\ccyJ4BPG.s 			page 80


 3457 04fe 0022     		movs	r2, #0
 3458 0500 5A84     		strh	r2, [r3, #34]	@ movhi
 3459 0502 63E0     		b	.L179
 3460              	.L178:
 3461              	.LBB18:
 914:..\..\..\lvgl\version_6.1.2\lvgl\src\lv_objx/lv_btnm.c ****             } else {
 915:..\..\..\lvgl\version_6.1.2\lvgl\src\lv_objx/lv_btnm.c ****                 uint16_t area_below;
 916:..\..\..\lvgl\version_6.1.2\lvgl\src\lv_objx/lv_btnm.c ****                 lv_coord_t pr_center =
 917:..\..\..\lvgl\version_6.1.2\lvgl\src\lv_objx/lv_btnm.c ****                     ext->button_areas[ext->btn_id_pr].x1 + (lv_area_get_width(&ext->button_areas[ex
 3462              		.loc 2 917 0
 3463 0504 7B6C     		ldr	r3, [r7, #68]
 3464 0506 5A68     		ldr	r2, [r3, #4]
 3465 0508 7B6C     		ldr	r3, [r7, #68]
 3466 050a 5B8C     		ldrh	r3, [r3, #34]
 3467 050c DB00     		lsls	r3, r3, #3
 3468 050e 1344     		add	r3, r3, r2
 3469 0510 B3F90030 		ldrsh	r3, [r3]
 916:..\..\..\lvgl\version_6.1.2\lvgl\src\lv_objx/lv_btnm.c ****                     ext->button_areas[ext->btn_id_pr].x1 + (lv_area_get_width(&ext->button_areas[ex
 3470              		.loc 2 916 0
 3471 0514 9CB2     		uxth	r4, r3
 3472              		.loc 2 917 0
 3473 0516 7B6C     		ldr	r3, [r7, #68]
 3474 0518 5A68     		ldr	r2, [r3, #4]
 3475 051a 7B6C     		ldr	r3, [r7, #68]
 3476 051c 5B8C     		ldrh	r3, [r3, #34]
 3477 051e DB00     		lsls	r3, r3, #3
 3478 0520 1344     		add	r3, r3, r2
 3479 0522 1846     		mov	r0, r3
 3480 0524 FFF7FEFF 		bl	lv_area_get_width
 3481 0528 0346     		mov	r3, r0
 916:..\..\..\lvgl\version_6.1.2\lvgl\src\lv_objx/lv_btnm.c ****                     ext->button_areas[ext->btn_id_pr].x1 + (lv_area_get_width(&ext->button_areas[ex
 3482              		.loc 2 916 0
 3483 052a 5B10     		asrs	r3, r3, #1
 3484 052c 1BB2     		sxth	r3, r3
 3485 052e 9BB2     		uxth	r3, r3
 3486 0530 2344     		add	r3, r3, r4
 3487 0532 9BB2     		uxth	r3, r3
 3488 0534 7B86     		strh	r3, [r7, #50]	@ movhi
 918:..\..\..\lvgl\version_6.1.2\lvgl\src\lv_objx/lv_btnm.c **** 
 919:..\..\..\lvgl\version_6.1.2\lvgl\src\lv_objx/lv_btnm.c ****                 for(area_below = ext->btn_id_pr; area_below < ext->btn_cnt; area_below++) {
 3489              		.loc 2 919 0
 3490 0536 7B6C     		ldr	r3, [r7, #68]
 3491 0538 5B8C     		ldrh	r3, [r3, #34]	@ movhi
 3492 053a A7F84C30 		strh	r3, [r7, #76]	@ movhi
 3493 053e 33E0     		b	.L180
 3494              	.L183:
 920:..\..\..\lvgl\version_6.1.2\lvgl\src\lv_objx/lv_btnm.c ****                     if(ext->button_areas[area_below].y1 > ext->button_areas[ext->btn_id_pr].y1 &&
 3495              		.loc 2 920 0
 3496 0540 7B6C     		ldr	r3, [r7, #68]
 3497 0542 5A68     		ldr	r2, [r3, #4]
 3498 0544 B7F84C30 		ldrh	r3, [r7, #76]
 3499 0548 DB00     		lsls	r3, r3, #3
 3500 054a 1344     		add	r3, r3, r2
 3501 054c B3F90220 		ldrsh	r2, [r3, #2]
 3502 0550 7B6C     		ldr	r3, [r7, #68]
 3503 0552 5968     		ldr	r1, [r3, #4]
 3504 0554 7B6C     		ldr	r3, [r7, #68]
ARM GAS  C:\Users\tmj32\AppData\Local\Temp\ccyJ4BPG.s 			page 81


 3505 0556 5B8C     		ldrh	r3, [r3, #34]
 3506 0558 DB00     		lsls	r3, r3, #3
 3507 055a 0B44     		add	r3, r3, r1
 3508 055c B3F90230 		ldrsh	r3, [r3, #2]
 3509 0560 9A42     		cmp	r2, r3
 3510 0562 1CDD     		ble	.L181
 921:..\..\..\lvgl\version_6.1.2\lvgl\src\lv_objx/lv_btnm.c ****                        pr_center >= ext->button_areas[area_below].x1 &&
 3511              		.loc 2 921 0 discriminator 1
 3512 0564 7B6C     		ldr	r3, [r7, #68]
 3513 0566 5A68     		ldr	r2, [r3, #4]
 3514 0568 B7F84C30 		ldrh	r3, [r7, #76]
 3515 056c DB00     		lsls	r3, r3, #3
 3516 056e 1344     		add	r3, r3, r2
 3517 0570 B3F90030 		ldrsh	r3, [r3]
 920:..\..\..\lvgl\version_6.1.2\lvgl\src\lv_objx/lv_btnm.c ****                     if(ext->button_areas[area_below].y1 > ext->button_areas[ext->btn_id_pr].y1 &&
 3518              		.loc 2 920 0 discriminator 1
 3519 0574 B7F93220 		ldrsh	r2, [r7, #50]
 3520 0578 9A42     		cmp	r2, r3
 3521 057a 10DB     		blt	.L181
 922:..\..\..\lvgl\version_6.1.2\lvgl\src\lv_objx/lv_btnm.c ****                        pr_center <= ext->button_areas[area_below].x2 + style->body.padding.inner) {
 3522              		.loc 2 922 0
 3523 057c B7F93220 		ldrsh	r2, [r7, #50]
 3524 0580 7B6C     		ldr	r3, [r7, #68]
 3525 0582 5968     		ldr	r1, [r3, #4]
 3526 0584 B7F84C30 		ldrh	r3, [r7, #76]
 3527 0588 DB00     		lsls	r3, r3, #3
 3528 058a 0B44     		add	r3, r3, r1
 3529 058c B3F90430 		ldrsh	r3, [r3, #4]
 3530 0590 1946     		mov	r1, r3
 3531 0592 7B6B     		ldr	r3, [r7, #52]
 3532 0594 B3F92830 		ldrsh	r3, [r3, #40]
 3533 0598 0B44     		add	r3, r3, r1
 921:..\..\..\lvgl\version_6.1.2\lvgl\src\lv_objx/lv_btnm.c ****                        pr_center >= ext->button_areas[area_below].x1 &&
 3534              		.loc 2 921 0
 3535 059a 9A42     		cmp	r2, r3
