ARM GAS  C:\Users\tmj32\AppData\Local\Temp\ccKhIVes.s 			page 1


   1              		.syntax unified
   2              		.cpu cortex-m4
   3              		.eabi_attribute 27, 1
   4              		.fpu fpv4-sp-d16
   5              		.eabi_attribute 20, 1
   6              		.eabi_attribute 21, 1
   7              		.eabi_attribute 23, 3
   8              		.eabi_attribute 24, 1
   9              		.eabi_attribute 25, 1
  10              		.eabi_attribute 26, 1
  11              		.eabi_attribute 30, 6
  12              		.eabi_attribute 34, 1
  13              		.eabi_attribute 18, 4
  14              		.thumb
  15              		.syntax unified
  16              		.file	"lv_btn.c"
  17              		.text
  18              	.Ltext0:
  19              		.cfi_sections	.debug_frame
  20              		.section	.text.lv_btn_set_layout,"ax",%progbits
  21              		.align	2
  22              		.thumb
  23              		.thumb_func
  24              		.type	lv_btn_set_layout, %function
  25              	lv_btn_set_layout:
  26              	.LFB35:
  27              		.file 1 "..\\..\\..\\lvgl\\version_6.1.2\\lvgl\\src\\lv_objx\\lv_btn.h"
   1:..\..\..\lvgl\version_6.1.2\lvgl\src\lv_objx/lv_btn.h **** /**
   2:..\..\..\lvgl\version_6.1.2\lvgl\src\lv_objx/lv_btn.h ****  * @file lv_btn.h
   3:..\..\..\lvgl\version_6.1.2\lvgl\src\lv_objx/lv_btn.h ****  *
   4:..\..\..\lvgl\version_6.1.2\lvgl\src\lv_objx/lv_btn.h ****  */
   5:..\..\..\lvgl\version_6.1.2\lvgl\src\lv_objx/lv_btn.h **** 
   6:..\..\..\lvgl\version_6.1.2\lvgl\src\lv_objx/lv_btn.h **** #ifndef LV_BTN_H
   7:..\..\..\lvgl\version_6.1.2\lvgl\src\lv_objx/lv_btn.h **** #define LV_BTN_H
   8:..\..\..\lvgl\version_6.1.2\lvgl\src\lv_objx/lv_btn.h **** 
   9:..\..\..\lvgl\version_6.1.2\lvgl\src\lv_objx/lv_btn.h **** #ifdef __cplusplus
  10:..\..\..\lvgl\version_6.1.2\lvgl\src\lv_objx/lv_btn.h **** extern "C" {
  11:..\..\..\lvgl\version_6.1.2\lvgl\src\lv_objx/lv_btn.h **** #endif
  12:..\..\..\lvgl\version_6.1.2\lvgl\src\lv_objx/lv_btn.h **** 
  13:..\..\..\lvgl\version_6.1.2\lvgl\src\lv_objx/lv_btn.h **** /*********************
  14:..\..\..\lvgl\version_6.1.2\lvgl\src\lv_objx/lv_btn.h ****  *      INCLUDES
  15:..\..\..\lvgl\version_6.1.2\lvgl\src\lv_objx/lv_btn.h ****  *********************/
  16:..\..\..\lvgl\version_6.1.2\lvgl\src\lv_objx/lv_btn.h **** #ifdef LV_CONF_INCLUDE_SIMPLE
  17:..\..\..\lvgl\version_6.1.2\lvgl\src\lv_objx/lv_btn.h **** #include "lv_conf.h"
  18:..\..\..\lvgl\version_6.1.2\lvgl\src\lv_objx/lv_btn.h **** #else
  19:..\..\..\lvgl\version_6.1.2\lvgl\src\lv_objx/lv_btn.h **** #include "../../../lv_conf.h"
  20:..\..\..\lvgl\version_6.1.2\lvgl\src\lv_objx/lv_btn.h **** #endif
  21:..\..\..\lvgl\version_6.1.2\lvgl\src\lv_objx/lv_btn.h **** 
  22:..\..\..\lvgl\version_6.1.2\lvgl\src\lv_objx/lv_btn.h **** #if LV_USE_BTN != 0
  23:..\..\..\lvgl\version_6.1.2\lvgl\src\lv_objx/lv_btn.h **** 
  24:..\..\..\lvgl\version_6.1.2\lvgl\src\lv_objx/lv_btn.h **** /*Testing of dependencies*/
  25:..\..\..\lvgl\version_6.1.2\lvgl\src\lv_objx/lv_btn.h **** #if LV_USE_CONT == 0
  26:..\..\..\lvgl\version_6.1.2\lvgl\src\lv_objx/lv_btn.h **** #error "lv_btn: lv_cont is required. Enable it in lv_conf.h (LV_USE_CONT  1) "
  27:..\..\..\lvgl\version_6.1.2\lvgl\src\lv_objx/lv_btn.h **** #endif
  28:..\..\..\lvgl\version_6.1.2\lvgl\src\lv_objx/lv_btn.h **** 
  29:..\..\..\lvgl\version_6.1.2\lvgl\src\lv_objx/lv_btn.h **** #include "lv_cont.h"
  30:..\..\..\lvgl\version_6.1.2\lvgl\src\lv_objx/lv_btn.h **** #include "../lv_core/lv_indev.h"
ARM GAS  C:\Users\tmj32\AppData\Local\Temp\ccKhIVes.s 			page 2


  31:..\..\..\lvgl\version_6.1.2\lvgl\src\lv_objx/lv_btn.h **** 
  32:..\..\..\lvgl\version_6.1.2\lvgl\src\lv_objx/lv_btn.h **** /*********************
  33:..\..\..\lvgl\version_6.1.2\lvgl\src\lv_objx/lv_btn.h ****  *      DEFINES
  34:..\..\..\lvgl\version_6.1.2\lvgl\src\lv_objx/lv_btn.h ****  *********************/
  35:..\..\..\lvgl\version_6.1.2\lvgl\src\lv_objx/lv_btn.h **** 
  36:..\..\..\lvgl\version_6.1.2\lvgl\src\lv_objx/lv_btn.h **** /**********************
  37:..\..\..\lvgl\version_6.1.2\lvgl\src\lv_objx/lv_btn.h ****  *      TYPEDEFS
  38:..\..\..\lvgl\version_6.1.2\lvgl\src\lv_objx/lv_btn.h ****  **********************/
  39:..\..\..\lvgl\version_6.1.2\lvgl\src\lv_objx/lv_btn.h **** 
  40:..\..\..\lvgl\version_6.1.2\lvgl\src\lv_objx/lv_btn.h **** /** Possible states of a button.
  41:..\..\..\lvgl\version_6.1.2\lvgl\src\lv_objx/lv_btn.h ****  * It can be used not only by buttons but other button-like objects too*/
  42:..\..\..\lvgl\version_6.1.2\lvgl\src\lv_objx/lv_btn.h **** enum {
  43:..\..\..\lvgl\version_6.1.2\lvgl\src\lv_objx/lv_btn.h ****     /**Released*/
  44:..\..\..\lvgl\version_6.1.2\lvgl\src\lv_objx/lv_btn.h ****     LV_BTN_STATE_REL,
  45:..\..\..\lvgl\version_6.1.2\lvgl\src\lv_objx/lv_btn.h **** 
  46:..\..\..\lvgl\version_6.1.2\lvgl\src\lv_objx/lv_btn.h ****     /**Pressed*/
  47:..\..\..\lvgl\version_6.1.2\lvgl\src\lv_objx/lv_btn.h ****     LV_BTN_STATE_PR,
  48:..\..\..\lvgl\version_6.1.2\lvgl\src\lv_objx/lv_btn.h **** 
  49:..\..\..\lvgl\version_6.1.2\lvgl\src\lv_objx/lv_btn.h ****     /**Toggled released*/
  50:..\..\..\lvgl\version_6.1.2\lvgl\src\lv_objx/lv_btn.h ****     LV_BTN_STATE_TGL_REL,
  51:..\..\..\lvgl\version_6.1.2\lvgl\src\lv_objx/lv_btn.h **** 
  52:..\..\..\lvgl\version_6.1.2\lvgl\src\lv_objx/lv_btn.h ****     /**Toggled pressed*/
  53:..\..\..\lvgl\version_6.1.2\lvgl\src\lv_objx/lv_btn.h ****     LV_BTN_STATE_TGL_PR,
  54:..\..\..\lvgl\version_6.1.2\lvgl\src\lv_objx/lv_btn.h **** 
  55:..\..\..\lvgl\version_6.1.2\lvgl\src\lv_objx/lv_btn.h ****     /**Inactive*/
  56:..\..\..\lvgl\version_6.1.2\lvgl\src\lv_objx/lv_btn.h ****     LV_BTN_STATE_INA,
  57:..\..\..\lvgl\version_6.1.2\lvgl\src\lv_objx/lv_btn.h **** 
  58:..\..\..\lvgl\version_6.1.2\lvgl\src\lv_objx/lv_btn.h ****     /**Number of states*/
  59:..\..\..\lvgl\version_6.1.2\lvgl\src\lv_objx/lv_btn.h ****     _LV_BTN_STATE_NUM,
  60:..\..\..\lvgl\version_6.1.2\lvgl\src\lv_objx/lv_btn.h **** };
  61:..\..\..\lvgl\version_6.1.2\lvgl\src\lv_objx/lv_btn.h **** typedef uint8_t lv_btn_state_t;
  62:..\..\..\lvgl\version_6.1.2\lvgl\src\lv_objx/lv_btn.h **** 
  63:..\..\..\lvgl\version_6.1.2\lvgl\src\lv_objx/lv_btn.h **** /** Extended data of button*/
  64:..\..\..\lvgl\version_6.1.2\lvgl\src\lv_objx/lv_btn.h **** typedef struct
  65:..\..\..\lvgl\version_6.1.2\lvgl\src\lv_objx/lv_btn.h **** {
  66:..\..\..\lvgl\version_6.1.2\lvgl\src\lv_objx/lv_btn.h ****     /** Ext. of ancestor*/
  67:..\..\..\lvgl\version_6.1.2\lvgl\src\lv_objx/lv_btn.h ****     lv_cont_ext_t cont;
  68:..\..\..\lvgl\version_6.1.2\lvgl\src\lv_objx/lv_btn.h **** 
  69:..\..\..\lvgl\version_6.1.2\lvgl\src\lv_objx/lv_btn.h ****     /*New data for this type */
  70:..\..\..\lvgl\version_6.1.2\lvgl\src\lv_objx/lv_btn.h **** 
  71:..\..\..\lvgl\version_6.1.2\lvgl\src\lv_objx/lv_btn.h ****     /**Styles in each state*/
  72:..\..\..\lvgl\version_6.1.2\lvgl\src\lv_objx/lv_btn.h ****     const lv_style_t * styles[_LV_BTN_STATE_NUM];
  73:..\..\..\lvgl\version_6.1.2\lvgl\src\lv_objx/lv_btn.h **** #if LV_BTN_INK_EFFECT
  74:..\..\..\lvgl\version_6.1.2\lvgl\src\lv_objx/lv_btn.h ****     /** [ms] Time of ink fill effect (0: disable ink effect)*/
  75:..\..\..\lvgl\version_6.1.2\lvgl\src\lv_objx/lv_btn.h ****     uint16_t ink_in_time;
  76:..\..\..\lvgl\version_6.1.2\lvgl\src\lv_objx/lv_btn.h **** 
  77:..\..\..\lvgl\version_6.1.2\lvgl\src\lv_objx/lv_btn.h ****     /** [ms] Wait before the ink disappears */
  78:..\..\..\lvgl\version_6.1.2\lvgl\src\lv_objx/lv_btn.h ****     uint16_t ink_wait_time;
  79:..\..\..\lvgl\version_6.1.2\lvgl\src\lv_objx/lv_btn.h **** 
  80:..\..\..\lvgl\version_6.1.2\lvgl\src\lv_objx/lv_btn.h ****     /** [ms] Time of ink disappearing*/
  81:..\..\..\lvgl\version_6.1.2\lvgl\src\lv_objx/lv_btn.h ****     uint16_t ink_out_time;
  82:..\..\..\lvgl\version_6.1.2\lvgl\src\lv_objx/lv_btn.h **** #endif
  83:..\..\..\lvgl\version_6.1.2\lvgl\src\lv_objx/lv_btn.h **** 
  84:..\..\..\lvgl\version_6.1.2\lvgl\src\lv_objx/lv_btn.h ****     /** Current state of the button from 'lv_btn_state_t' enum*/
  85:..\..\..\lvgl\version_6.1.2\lvgl\src\lv_objx/lv_btn.h ****     lv_btn_state_t state : 3;
  86:..\..\..\lvgl\version_6.1.2\lvgl\src\lv_objx/lv_btn.h **** 
  87:..\..\..\lvgl\version_6.1.2\lvgl\src\lv_objx/lv_btn.h ****     /** 1: Toggle enabled*/
ARM GAS  C:\Users\tmj32\AppData\Local\Temp\ccKhIVes.s 			page 3


  88:..\..\..\lvgl\version_6.1.2\lvgl\src\lv_objx/lv_btn.h ****     uint8_t toggle : 1;
  89:..\..\..\lvgl\version_6.1.2\lvgl\src\lv_objx/lv_btn.h **** } lv_btn_ext_t;
  90:..\..\..\lvgl\version_6.1.2\lvgl\src\lv_objx/lv_btn.h **** 
  91:..\..\..\lvgl\version_6.1.2\lvgl\src\lv_objx/lv_btn.h **** /**Styles*/
  92:..\..\..\lvgl\version_6.1.2\lvgl\src\lv_objx/lv_btn.h **** enum {
  93:..\..\..\lvgl\version_6.1.2\lvgl\src\lv_objx/lv_btn.h ****     /** Release style */
  94:..\..\..\lvgl\version_6.1.2\lvgl\src\lv_objx/lv_btn.h ****     LV_BTN_STYLE_REL,
  95:..\..\..\lvgl\version_6.1.2\lvgl\src\lv_objx/lv_btn.h **** 
  96:..\..\..\lvgl\version_6.1.2\lvgl\src\lv_objx/lv_btn.h ****     /**Pressed style*/
  97:..\..\..\lvgl\version_6.1.2\lvgl\src\lv_objx/lv_btn.h ****     LV_BTN_STYLE_PR,
  98:..\..\..\lvgl\version_6.1.2\lvgl\src\lv_objx/lv_btn.h **** 
  99:..\..\..\lvgl\version_6.1.2\lvgl\src\lv_objx/lv_btn.h ****     /** Toggle released style*/
 100:..\..\..\lvgl\version_6.1.2\lvgl\src\lv_objx/lv_btn.h ****     LV_BTN_STYLE_TGL_REL,
 101:..\..\..\lvgl\version_6.1.2\lvgl\src\lv_objx/lv_btn.h **** 
 102:..\..\..\lvgl\version_6.1.2\lvgl\src\lv_objx/lv_btn.h ****     /** Toggle pressed style */
 103:..\..\..\lvgl\version_6.1.2\lvgl\src\lv_objx/lv_btn.h ****     LV_BTN_STYLE_TGL_PR,
 104:..\..\..\lvgl\version_6.1.2\lvgl\src\lv_objx/lv_btn.h **** 
 105:..\..\..\lvgl\version_6.1.2\lvgl\src\lv_objx/lv_btn.h ****     /** Inactive style*/
 106:..\..\..\lvgl\version_6.1.2\lvgl\src\lv_objx/lv_btn.h ****     LV_BTN_STYLE_INA,
 107:..\..\..\lvgl\version_6.1.2\lvgl\src\lv_objx/lv_btn.h **** };
 108:..\..\..\lvgl\version_6.1.2\lvgl\src\lv_objx/lv_btn.h **** typedef uint8_t lv_btn_style_t;
 109:..\..\..\lvgl\version_6.1.2\lvgl\src\lv_objx/lv_btn.h **** 
 110:..\..\..\lvgl\version_6.1.2\lvgl\src\lv_objx/lv_btn.h **** /**********************
 111:..\..\..\lvgl\version_6.1.2\lvgl\src\lv_objx/lv_btn.h ****  * GLOBAL PROTOTYPES
 112:..\..\..\lvgl\version_6.1.2\lvgl\src\lv_objx/lv_btn.h ****  **********************/
 113:..\..\..\lvgl\version_6.1.2\lvgl\src\lv_objx/lv_btn.h **** 
 114:..\..\..\lvgl\version_6.1.2\lvgl\src\lv_objx/lv_btn.h **** /**
 115:..\..\..\lvgl\version_6.1.2\lvgl\src\lv_objx/lv_btn.h ****  * Create a button object
 116:..\..\..\lvgl\version_6.1.2\lvgl\src\lv_objx/lv_btn.h ****  * @param par pointer to an object, it will be the parent of the new button
 117:..\..\..\lvgl\version_6.1.2\lvgl\src\lv_objx/lv_btn.h ****  * @param copy pointer to a button object, if not NULL then the new object will be copied from it
 118:..\..\..\lvgl\version_6.1.2\lvgl\src\lv_objx/lv_btn.h ****  * @return pointer to the created button
 119:..\..\..\lvgl\version_6.1.2\lvgl\src\lv_objx/lv_btn.h ****  */
 120:..\..\..\lvgl\version_6.1.2\lvgl\src\lv_objx/lv_btn.h **** lv_obj_t * lv_btn_create(lv_obj_t * par, const lv_obj_t * copy);
 121:..\..\..\lvgl\version_6.1.2\lvgl\src\lv_objx/lv_btn.h **** 
 122:..\..\..\lvgl\version_6.1.2\lvgl\src\lv_objx/lv_btn.h **** /*=====================
 123:..\..\..\lvgl\version_6.1.2\lvgl\src\lv_objx/lv_btn.h ****  * Setter functions
 124:..\..\..\lvgl\version_6.1.2\lvgl\src\lv_objx/lv_btn.h ****  *====================*/
 125:..\..\..\lvgl\version_6.1.2\lvgl\src\lv_objx/lv_btn.h **** 
 126:..\..\..\lvgl\version_6.1.2\lvgl\src\lv_objx/lv_btn.h **** /**
 127:..\..\..\lvgl\version_6.1.2\lvgl\src\lv_objx/lv_btn.h ****  * Enable the toggled states. On release the button will change from/to toggled state.
 128:..\..\..\lvgl\version_6.1.2\lvgl\src\lv_objx/lv_btn.h ****  * @param btn pointer to a button object
 129:..\..\..\lvgl\version_6.1.2\lvgl\src\lv_objx/lv_btn.h ****  * @param tgl true: enable toggled states, false: disable
 130:..\..\..\lvgl\version_6.1.2\lvgl\src\lv_objx/lv_btn.h ****  */
 131:..\..\..\lvgl\version_6.1.2\lvgl\src\lv_objx/lv_btn.h **** void lv_btn_set_toggle(lv_obj_t * btn, bool tgl);
 132:..\..\..\lvgl\version_6.1.2\lvgl\src\lv_objx/lv_btn.h **** 
 133:..\..\..\lvgl\version_6.1.2\lvgl\src\lv_objx/lv_btn.h **** /**
 134:..\..\..\lvgl\version_6.1.2\lvgl\src\lv_objx/lv_btn.h ****  * Set the state of the button
 135:..\..\..\lvgl\version_6.1.2\lvgl\src\lv_objx/lv_btn.h ****  * @param btn pointer to a button object
 136:..\..\..\lvgl\version_6.1.2\lvgl\src\lv_objx/lv_btn.h ****  * @param state the new state of the button (from lv_btn_state_t enum)
 137:..\..\..\lvgl\version_6.1.2\lvgl\src\lv_objx/lv_btn.h ****  */
 138:..\..\..\lvgl\version_6.1.2\lvgl\src\lv_objx/lv_btn.h **** void lv_btn_set_state(lv_obj_t * btn, lv_btn_state_t state);
 139:..\..\..\lvgl\version_6.1.2\lvgl\src\lv_objx/lv_btn.h **** 
 140:..\..\..\lvgl\version_6.1.2\lvgl\src\lv_objx/lv_btn.h **** /**
 141:..\..\..\lvgl\version_6.1.2\lvgl\src\lv_objx/lv_btn.h ****  * Toggle the state of the button (ON->OFF, OFF->ON)
 142:..\..\..\lvgl\version_6.1.2\lvgl\src\lv_objx/lv_btn.h ****  * @param btn pointer to a button object
 143:..\..\..\lvgl\version_6.1.2\lvgl\src\lv_objx/lv_btn.h ****  */
 144:..\..\..\lvgl\version_6.1.2\lvgl\src\lv_objx/lv_btn.h **** void lv_btn_toggle(lv_obj_t * btn);
ARM GAS  C:\Users\tmj32\AppData\Local\Temp\ccKhIVes.s 			page 4


 145:..\..\..\lvgl\version_6.1.2\lvgl\src\lv_objx/lv_btn.h **** 
 146:..\..\..\lvgl\version_6.1.2\lvgl\src\lv_objx/lv_btn.h **** /**
 147:..\..\..\lvgl\version_6.1.2\lvgl\src\lv_objx/lv_btn.h ****  * Set the layout on a button
 148:..\..\..\lvgl\version_6.1.2\lvgl\src\lv_objx/lv_btn.h ****  * @param btn pointer to a button object
 149:..\..\..\lvgl\version_6.1.2\lvgl\src\lv_objx/lv_btn.h ****  * @param layout a layout from 'lv_cont_layout_t'
 150:..\..\..\lvgl\version_6.1.2\lvgl\src\lv_objx/lv_btn.h ****  */
 151:..\..\..\lvgl\version_6.1.2\lvgl\src\lv_objx/lv_btn.h **** static inline void lv_btn_set_layout(lv_obj_t * btn, lv_layout_t layout)
 152:..\..\..\lvgl\version_6.1.2\lvgl\src\lv_objx/lv_btn.h **** {
  28              		.loc 1 152 0
  29              		.cfi_startproc
  30              		@ args = 0, pretend = 0, frame = 8
  31              		@ frame_needed = 1, uses_anonymous_args = 0
  32 0000 80B5     		push	{r7, lr}
  33              		.cfi_def_cfa_offset 8
  34              		.cfi_offset 7, -8
  35              		.cfi_offset 14, -4
  36 0002 82B0     		sub	sp, sp, #8
  37              		.cfi_def_cfa_offset 16
  38 0004 00AF     		add	r7, sp, #0
  39              		.cfi_def_cfa_register 7
  40 0006 7860     		str	r0, [r7, #4]
  41 0008 0B46     		mov	r3, r1
  42 000a FB70     		strb	r3, [r7, #3]
 153:..\..\..\lvgl\version_6.1.2\lvgl\src\lv_objx/lv_btn.h ****     lv_cont_set_layout(btn, layout);
  43              		.loc 1 153 0
  44 000c FB78     		ldrb	r3, [r7, #3]	@ zero_extendqisi2
  45 000e 1946     		mov	r1, r3
  46 0010 7868     		ldr	r0, [r7, #4]
  47 0012 FFF7FEFF 		bl	lv_cont_set_layout
 154:..\..\..\lvgl\version_6.1.2\lvgl\src\lv_objx/lv_btn.h **** }
  48              		.loc 1 154 0
  49 0016 00BF     		nop
  50 0018 0837     		adds	r7, r7, #8
  51              		.cfi_def_cfa_offset 8
  52 001a BD46     		mov	sp, r7
  53              		.cfi_def_cfa_register 13
  54              		@ sp needed
  55 001c 80BD     		pop	{r7, pc}
  56              		.cfi_endproc
  57              	.LFE35:
  58              		.size	lv_btn_set_layout, .-lv_btn_set_layout
  59 001e 00BF     		.bss
  60              		.align	2
  61              	ancestor_signal:
  62 0000 00000000 		.space	4
  63              		.align	2
  64              	ancestor_design:
  65 0004 00000000 		.space	4
  66              		.section	.text.lv_btn_create,"ax",%progbits
  67              		.align	2
  68              		.global	lv_btn_create
  69              		.thumb
  70              		.thumb_func
  71              		.type	lv_btn_create, %function
  72              	lv_btn_create:
  73              	.LFB44:
  74              		.file 2 "..\\..\\..\\lvgl\\version_6.1.2\\lvgl\\src\\lv_objx\\lv_btn.c"
ARM GAS  C:\Users\tmj32\AppData\Local\Temp\ccKhIVes.s 			page 5


   1:..\..\..\lvgl\version_6.1.2\lvgl\src\lv_objx/lv_btn.c **** /**
   2:..\..\..\lvgl\version_6.1.2\lvgl\src\lv_objx/lv_btn.c ****  * @file lv_btn.c
   3:..\..\..\lvgl\version_6.1.2\lvgl\src\lv_objx/lv_btn.c ****  *
   4:..\..\..\lvgl\version_6.1.2\lvgl\src\lv_objx/lv_btn.c ****  */
   5:..\..\..\lvgl\version_6.1.2\lvgl\src\lv_objx/lv_btn.c **** 
   6:..\..\..\lvgl\version_6.1.2\lvgl\src\lv_objx/lv_btn.c **** /*********************
   7:..\..\..\lvgl\version_6.1.2\lvgl\src\lv_objx/lv_btn.c ****  *      INCLUDES
   8:..\..\..\lvgl\version_6.1.2\lvgl\src\lv_objx/lv_btn.c ****  *********************/
   9:..\..\..\lvgl\version_6.1.2\lvgl\src\lv_objx/lv_btn.c **** 
  10:..\..\..\lvgl\version_6.1.2\lvgl\src\lv_objx/lv_btn.c **** #include "lv_btn.h"
  11:..\..\..\lvgl\version_6.1.2\lvgl\src\lv_objx/lv_btn.c **** #if LV_USE_BTN != 0
  12:..\..\..\lvgl\version_6.1.2\lvgl\src\lv_objx/lv_btn.c **** 
  13:..\..\..\lvgl\version_6.1.2\lvgl\src\lv_objx/lv_btn.c **** #include <string.h>
  14:..\..\..\lvgl\version_6.1.2\lvgl\src\lv_objx/lv_btn.c **** #include "../lv_core/lv_group.h"
  15:..\..\..\lvgl\version_6.1.2\lvgl\src\lv_objx/lv_btn.c **** #include "../lv_core/lv_debug.h"
  16:..\..\..\lvgl\version_6.1.2\lvgl\src\lv_objx/lv_btn.c **** #include "../lv_draw/lv_draw.h"
  17:..\..\..\lvgl\version_6.1.2\lvgl\src\lv_objx/lv_btn.c **** #include "../lv_themes/lv_theme.h"
  18:..\..\..\lvgl\version_6.1.2\lvgl\src\lv_objx/lv_btn.c **** #include "../lv_misc/lv_area.h"
  19:..\..\..\lvgl\version_6.1.2\lvgl\src\lv_objx/lv_btn.c **** #include "../lv_misc/lv_color.h"
  20:..\..\..\lvgl\version_6.1.2\lvgl\src\lv_objx/lv_btn.c **** #include "../lv_misc/lv_math.h"
  21:..\..\..\lvgl\version_6.1.2\lvgl\src\lv_objx/lv_btn.c **** 
  22:..\..\..\lvgl\version_6.1.2\lvgl\src\lv_objx/lv_btn.c **** /*********************
  23:..\..\..\lvgl\version_6.1.2\lvgl\src\lv_objx/lv_btn.c ****  *      DEFINES
  24:..\..\..\lvgl\version_6.1.2\lvgl\src\lv_objx/lv_btn.c ****  *********************/
  25:..\..\..\lvgl\version_6.1.2\lvgl\src\lv_objx/lv_btn.c **** #define LV_OBJX_NAME "lv_btn"
  26:..\..\..\lvgl\version_6.1.2\lvgl\src\lv_objx/lv_btn.c **** #define LV_BTN_INK_VALUE_MAX 256
  27:..\..\..\lvgl\version_6.1.2\lvgl\src\lv_objx/lv_btn.c **** #define LV_BTN_INK_VALUE_MAX_SHIFT 8
  28:..\..\..\lvgl\version_6.1.2\lvgl\src\lv_objx/lv_btn.c **** 
  29:..\..\..\lvgl\version_6.1.2\lvgl\src\lv_objx/lv_btn.c **** /**********************
  30:..\..\..\lvgl\version_6.1.2\lvgl\src\lv_objx/lv_btn.c ****  *      TYPEDEFS
  31:..\..\..\lvgl\version_6.1.2\lvgl\src\lv_objx/lv_btn.c ****  **********************/
  32:..\..\..\lvgl\version_6.1.2\lvgl\src\lv_objx/lv_btn.c **** 
  33:..\..\..\lvgl\version_6.1.2\lvgl\src\lv_objx/lv_btn.c **** /**********************
  34:..\..\..\lvgl\version_6.1.2\lvgl\src\lv_objx/lv_btn.c ****  *  STATIC PROTOTYPES
  35:..\..\..\lvgl\version_6.1.2\lvgl\src\lv_objx/lv_btn.c ****  **********************/
  36:..\..\..\lvgl\version_6.1.2\lvgl\src\lv_objx/lv_btn.c **** static bool lv_btn_design(lv_obj_t * btn, const lv_area_t * mask, lv_design_mode_t mode);
  37:..\..\..\lvgl\version_6.1.2\lvgl\src\lv_objx/lv_btn.c **** static lv_res_t lv_btn_signal(lv_obj_t * btn, lv_signal_t sign, void * param);
  38:..\..\..\lvgl\version_6.1.2\lvgl\src\lv_objx/lv_btn.c **** 
  39:..\..\..\lvgl\version_6.1.2\lvgl\src\lv_objx/lv_btn.c **** #if LV_USE_ANIMATION && LV_BTN_INK_EFFECT
  40:..\..\..\lvgl\version_6.1.2\lvgl\src\lv_objx/lv_btn.c **** static void lv_btn_ink_effect_anim(lv_obj_t * btn, lv_anim_value_t val);
  41:..\..\..\lvgl\version_6.1.2\lvgl\src\lv_objx/lv_btn.c **** static void lv_btn_ink_effect_anim_ready(lv_anim_t * a);
  42:..\..\..\lvgl\version_6.1.2\lvgl\src\lv_objx/lv_btn.c **** #endif
  43:..\..\..\lvgl\version_6.1.2\lvgl\src\lv_objx/lv_btn.c **** 
  44:..\..\..\lvgl\version_6.1.2\lvgl\src\lv_objx/lv_btn.c **** /**********************
  45:..\..\..\lvgl\version_6.1.2\lvgl\src\lv_objx/lv_btn.c ****  *  STATIC VARIABLES
  46:..\..\..\lvgl\version_6.1.2\lvgl\src\lv_objx/lv_btn.c ****  **********************/
  47:..\..\..\lvgl\version_6.1.2\lvgl\src\lv_objx/lv_btn.c **** static lv_signal_cb_t ancestor_signal;
  48:..\..\..\lvgl\version_6.1.2\lvgl\src\lv_objx/lv_btn.c **** static lv_design_cb_t ancestor_design;
  49:..\..\..\lvgl\version_6.1.2\lvgl\src\lv_objx/lv_btn.c **** 
  50:..\..\..\lvgl\version_6.1.2\lvgl\src\lv_objx/lv_btn.c **** #if LV_USE_ANIMATION && LV_BTN_INK_EFFECT
  51:..\..\..\lvgl\version_6.1.2\lvgl\src\lv_objx/lv_btn.c **** static lv_coord_t ink_act_value;
  52:..\..\..\lvgl\version_6.1.2\lvgl\src\lv_objx/lv_btn.c **** static lv_obj_t * ink_obj;
  53:..\..\..\lvgl\version_6.1.2\lvgl\src\lv_objx/lv_btn.c **** static lv_btn_state_t ink_bg_state;
  54:..\..\..\lvgl\version_6.1.2\lvgl\src\lv_objx/lv_btn.c **** static lv_btn_state_t ink_top_state;
  55:..\..\..\lvgl\version_6.1.2\lvgl\src\lv_objx/lv_btn.c **** static bool ink_ready;
  56:..\..\..\lvgl\version_6.1.2\lvgl\src\lv_objx/lv_btn.c **** static bool ink_playback;
  57:..\..\..\lvgl\version_6.1.2\lvgl\src\lv_objx/lv_btn.c **** static lv_point_t ink_point;
ARM GAS  C:\Users\tmj32\AppData\Local\Temp\ccKhIVes.s 			page 6


  58:..\..\..\lvgl\version_6.1.2\lvgl\src\lv_objx/lv_btn.c **** #endif
  59:..\..\..\lvgl\version_6.1.2\lvgl\src\lv_objx/lv_btn.c **** 
  60:..\..\..\lvgl\version_6.1.2\lvgl\src\lv_objx/lv_btn.c **** /**********************
  61:..\..\..\lvgl\version_6.1.2\lvgl\src\lv_objx/lv_btn.c ****  *      MACROS
  62:..\..\..\lvgl\version_6.1.2\lvgl\src\lv_objx/lv_btn.c ****  **********************/
  63:..\..\..\lvgl\version_6.1.2\lvgl\src\lv_objx/lv_btn.c **** 
  64:..\..\..\lvgl\version_6.1.2\lvgl\src\lv_objx/lv_btn.c **** /**********************
  65:..\..\..\lvgl\version_6.1.2\lvgl\src\lv_objx/lv_btn.c ****  *   GLOBAL FUNCTIONS
  66:..\..\..\lvgl\version_6.1.2\lvgl\src\lv_objx/lv_btn.c ****  **********************/
  67:..\..\..\lvgl\version_6.1.2\lvgl\src\lv_objx/lv_btn.c **** 
  68:..\..\..\lvgl\version_6.1.2\lvgl\src\lv_objx/lv_btn.c **** /**
  69:..\..\..\lvgl\version_6.1.2\lvgl\src\lv_objx/lv_btn.c ****  * Create a button object
  70:..\..\..\lvgl\version_6.1.2\lvgl\src\lv_objx/lv_btn.c ****  * @param par pointer to an object, it will be the parent of the new button
  71:..\..\..\lvgl\version_6.1.2\lvgl\src\lv_objx/lv_btn.c ****  * @param copy pointer to a button object, if not NULL then the new object will be copied from it
  72:..\..\..\lvgl\version_6.1.2\lvgl\src\lv_objx/lv_btn.c ****  * @return pointer to the created button
  73:..\..\..\lvgl\version_6.1.2\lvgl\src\lv_objx/lv_btn.c ****  */
  74:..\..\..\lvgl\version_6.1.2\lvgl\src\lv_objx/lv_btn.c **** lv_obj_t * lv_btn_create(lv_obj_t * par, const lv_obj_t * copy)
  75:..\..\..\lvgl\version_6.1.2\lvgl\src\lv_objx/lv_btn.c **** {
  75              		.loc 2 75 0
  76              		.cfi_startproc
  77              		@ args = 0, pretend = 0, frame = 24
  78              		@ frame_needed = 1, uses_anonymous_args = 0
  79 0000 80B5     		push	{r7, lr}
  80              		.cfi_def_cfa_offset 8
  81              		.cfi_offset 7, -8
  82              		.cfi_offset 14, -4
  83 0002 86B0     		sub	sp, sp, #24
  84              		.cfi_def_cfa_offset 32
  85 0004 00AF     		add	r7, sp, #0
  86              		.cfi_def_cfa_register 7
  87 0006 7860     		str	r0, [r7, #4]
  88 0008 3960     		str	r1, [r7]
  76:..\..\..\lvgl\version_6.1.2\lvgl\src\lv_objx/lv_btn.c ****     LV_LOG_TRACE("button create started");
  77:..\..\..\lvgl\version_6.1.2\lvgl\src\lv_objx/lv_btn.c **** 
  78:..\..\..\lvgl\version_6.1.2\lvgl\src\lv_objx/lv_btn.c ****     lv_obj_t * new_btn;
  79:..\..\..\lvgl\version_6.1.2\lvgl\src\lv_objx/lv_btn.c **** 
  80:..\..\..\lvgl\version_6.1.2\lvgl\src\lv_objx/lv_btn.c ****     new_btn = lv_cont_create(par, copy);
  89              		.loc 2 80 0
  90 000a 3968     		ldr	r1, [r7]
  91 000c 7868     		ldr	r0, [r7, #4]
  92 000e FFF7FEFF 		bl	lv_cont_create
  93 0012 7861     		str	r0, [r7, #20]
  81:..\..\..\lvgl\version_6.1.2\lvgl\src\lv_objx/lv_btn.c ****     LV_ASSERT_MEM(new_btn);
  82:..\..\..\lvgl\version_6.1.2\lvgl\src\lv_objx/lv_btn.c ****     if(new_btn == NULL) return NULL;
  94              		.loc 2 82 0
  95 0014 7B69     		ldr	r3, [r7, #20]
  96 0016 002B     		cmp	r3, #0
  97 0018 01D1     		bne	.L3
  98              		.loc 2 82 0 is_stmt 0 discriminator 1
  99 001a 0023     		movs	r3, #0
 100 001c A1E0     		b	.L4
 101              	.L3:
  83:..\..\..\lvgl\version_6.1.2\lvgl\src\lv_objx/lv_btn.c **** 
  84:..\..\..\lvgl\version_6.1.2\lvgl\src\lv_objx/lv_btn.c ****     if(ancestor_signal == NULL) ancestor_signal = lv_obj_get_signal_cb(new_btn);
 102              		.loc 2 84 0 is_stmt 1
 103 001e 534B     		ldr	r3, .L13
 104 0020 1B68     		ldr	r3, [r3]
ARM GAS  C:\Users\tmj32\AppData\Local\Temp\ccKhIVes.s 			page 7


 105 0022 002B     		cmp	r3, #0
 106 0024 05D1     		bne	.L5
 107              		.loc 2 84 0 is_stmt 0 discriminator 1
 108 0026 7869     		ldr	r0, [r7, #20]
 109 0028 FFF7FEFF 		bl	lv_obj_get_signal_cb
 110 002c 0246     		mov	r2, r0
 111 002e 4F4B     		ldr	r3, .L13
 112 0030 1A60     		str	r2, [r3]
 113              	.L5:
  85:..\..\..\lvgl\version_6.1.2\lvgl\src\lv_objx/lv_btn.c ****     if(ancestor_design == NULL) ancestor_design = lv_obj_get_design_cb(new_btn);
 114              		.loc 2 85 0 is_stmt 1
 115 0032 4F4B     		ldr	r3, .L13+4
 116 0034 1B68     		ldr	r3, [r3]
 117 0036 002B     		cmp	r3, #0
 118 0038 05D1     		bne	.L6
 119              		.loc 2 85 0 is_stmt 0 discriminator 1
 120 003a 7869     		ldr	r0, [r7, #20]
 121 003c FFF7FEFF 		bl	lv_obj_get_design_cb
 122 0040 0246     		mov	r2, r0
 123 0042 4B4B     		ldr	r3, .L13+4
 124 0044 1A60     		str	r2, [r3]
 125              	.L6:
  86:..\..\..\lvgl\version_6.1.2\lvgl\src\lv_objx/lv_btn.c **** 
  87:..\..\..\lvgl\version_6.1.2\lvgl\src\lv_objx/lv_btn.c ****     /*Allocate the extended data*/
  88:..\..\..\lvgl\version_6.1.2\lvgl\src\lv_objx/lv_btn.c ****     lv_btn_ext_t * ext = lv_obj_allocate_ext_attr(new_btn, sizeof(lv_btn_ext_t));
 126              		.loc 2 88 0 is_stmt 1
 127 0046 1C21     		movs	r1, #28
 128 0048 7869     		ldr	r0, [r7, #20]
 129 004a FFF7FEFF 		bl	lv_obj_allocate_ext_attr
 130 004e 3861     		str	r0, [r7, #16]
  89:..\..\..\lvgl\version_6.1.2\lvgl\src\lv_objx/lv_btn.c ****     LV_ASSERT_MEM(ext);
  90:..\..\..\lvgl\version_6.1.2\lvgl\src\lv_objx/lv_btn.c ****     if(ext == NULL) return NULL;
 131              		.loc 2 90 0
 132 0050 3B69     		ldr	r3, [r7, #16]
 133 0052 002B     		cmp	r3, #0
 134 0054 01D1     		bne	.L7
 135              		.loc 2 90 0 is_stmt 0 discriminator 1
 136 0056 0023     		movs	r3, #0
 137 0058 83E0     		b	.L4
 138              	.L7:
  91:..\..\..\lvgl\version_6.1.2\lvgl\src\lv_objx/lv_btn.c **** 
  92:..\..\..\lvgl\version_6.1.2\lvgl\src\lv_objx/lv_btn.c ****     ext->state = LV_BTN_STATE_REL;
 139              		.loc 2 92 0 is_stmt 1
 140 005a 3A69     		ldr	r2, [r7, #16]
 141 005c 137E     		ldrb	r3, [r2, #24]
 142 005e 6FF30203 		bfc	r3, #0, #3
 143 0062 1376     		strb	r3, [r2, #24]
  93:..\..\..\lvgl\version_6.1.2\lvgl\src\lv_objx/lv_btn.c **** 
  94:..\..\..\lvgl\version_6.1.2\lvgl\src\lv_objx/lv_btn.c ****     ext->styles[LV_BTN_STATE_REL]     = &lv_style_btn_rel;
 144              		.loc 2 94 0
 145 0064 3B69     		ldr	r3, [r7, #16]
 146 0066 434A     		ldr	r2, .L13+8
 147 0068 5A60     		str	r2, [r3, #4]
  95:..\..\..\lvgl\version_6.1.2\lvgl\src\lv_objx/lv_btn.c ****     ext->styles[LV_BTN_STATE_PR]      = &lv_style_btn_pr;
 148              		.loc 2 95 0
 149 006a 3B69     		ldr	r3, [r7, #16]
 150 006c 424A     		ldr	r2, .L13+12
ARM GAS  C:\Users\tmj32\AppData\Local\Temp\ccKhIVes.s 			page 8


 151 006e 9A60     		str	r2, [r3, #8]
  96:..\..\..\lvgl\version_6.1.2\lvgl\src\lv_objx/lv_btn.c ****     ext->styles[LV_BTN_STATE_TGL_REL] = &lv_style_btn_tgl_rel;
 152              		.loc 2 96 0
 153 0070 3B69     		ldr	r3, [r7, #16]
 154 0072 424A     		ldr	r2, .L13+16
 155 0074 DA60     		str	r2, [r3, #12]
  97:..\..\..\lvgl\version_6.1.2\lvgl\src\lv_objx/lv_btn.c ****     ext->styles[LV_BTN_STATE_TGL_PR]  = &lv_style_btn_tgl_pr;
 156              		.loc 2 97 0
 157 0076 3B69     		ldr	r3, [r7, #16]
 158 0078 414A     		ldr	r2, .L13+20
 159 007a 1A61     		str	r2, [r3, #16]
  98:..\..\..\lvgl\version_6.1.2\lvgl\src\lv_objx/lv_btn.c ****     ext->styles[LV_BTN_STATE_INA]     = &lv_style_btn_ina;
 160              		.loc 2 98 0
 161 007c 3B69     		ldr	r3, [r7, #16]
 162 007e 414A     		ldr	r2, .L13+24
 163 0080 5A61     		str	r2, [r3, #20]
  99:..\..\..\lvgl\version_6.1.2\lvgl\src\lv_objx/lv_btn.c **** 
 100:..\..\..\lvgl\version_6.1.2\lvgl\src\lv_objx/lv_btn.c ****     ext->toggle = 0;
 164              		.loc 2 100 0
 165 0082 3A69     		ldr	r2, [r7, #16]
 166 0084 137E     		ldrb	r3, [r2, #24]
 167 0086 6FF3C303 		bfc	r3, #3, #1
 168 008a 1376     		strb	r3, [r2, #24]
 101:..\..\..\lvgl\version_6.1.2\lvgl\src\lv_objx/lv_btn.c **** #if LV_USE_ANIMATION && LV_BTN_INK_EFFECT
 102:..\..\..\lvgl\version_6.1.2\lvgl\src\lv_objx/lv_btn.c ****     ext->ink_in_time   = 0;
 103:..\..\..\lvgl\version_6.1.2\lvgl\src\lv_objx/lv_btn.c ****     ext->ink_wait_time = 0;
 104:..\..\..\lvgl\version_6.1.2\lvgl\src\lv_objx/lv_btn.c ****     ext->ink_out_time  = 0;
 105:..\..\..\lvgl\version_6.1.2\lvgl\src\lv_objx/lv_btn.c **** #endif
 106:..\..\..\lvgl\version_6.1.2\lvgl\src\lv_objx/lv_btn.c **** 
 107:..\..\..\lvgl\version_6.1.2\lvgl\src\lv_objx/lv_btn.c ****     lv_obj_set_signal_cb(new_btn, lv_btn_signal);
 169              		.loc 2 107 0
 170 008c 3E49     		ldr	r1, .L13+28
 171 008e 7869     		ldr	r0, [r7, #20]
 172 0090 FFF7FEFF 		bl	lv_obj_set_signal_cb
 108:..\..\..\lvgl\version_6.1.2\lvgl\src\lv_objx/lv_btn.c ****     lv_obj_set_design_cb(new_btn, lv_btn_design);
 173              		.loc 2 108 0
 174 0094 3D49     		ldr	r1, .L13+32
 175 0096 7869     		ldr	r0, [r7, #20]
 176 0098 FFF7FEFF 		bl	lv_obj_set_design_cb
 109:..\..\..\lvgl\version_6.1.2\lvgl\src\lv_objx/lv_btn.c **** 
 110:..\..\..\lvgl\version_6.1.2\lvgl\src\lv_objx/lv_btn.c ****     /*If no copy do the basic initialization*/
 111:..\..\..\lvgl\version_6.1.2\lvgl\src\lv_objx/lv_btn.c ****     if(copy == NULL) {
 177              		.loc 2 111 0
 178 009c 3B68     		ldr	r3, [r7]
 179 009e 002B     		cmp	r3, #0
 180 00a0 3BD1     		bne	.L8
 181              	.LBB2:
 112:..\..\..\lvgl\version_6.1.2\lvgl\src\lv_objx/lv_btn.c ****         /*Set layout if the button is not a screen*/
 113:..\..\..\lvgl\version_6.1.2\lvgl\src\lv_objx/lv_btn.c ****         if(par != NULL) {
 182              		.loc 2 113 0
 183 00a2 7B68     		ldr	r3, [r7, #4]
 184 00a4 002B     		cmp	r3, #0
 185 00a6 03D0     		beq	.L9
 114:..\..\..\lvgl\version_6.1.2\lvgl\src\lv_objx/lv_btn.c ****             lv_btn_set_layout(new_btn, LV_LAYOUT_CENTER);
 186              		.loc 2 114 0
 187 00a8 0121     		movs	r1, #1
 188 00aa 7869     		ldr	r0, [r7, #20]
ARM GAS  C:\Users\tmj32\AppData\Local\Temp\ccKhIVes.s 			page 9


 189 00ac FFF7FEFF 		bl	lv_btn_set_layout
 190              	.L9:
 115:..\..\..\lvgl\version_6.1.2\lvgl\src\lv_objx/lv_btn.c ****         }
 116:..\..\..\lvgl\version_6.1.2\lvgl\src\lv_objx/lv_btn.c **** 
 117:..\..\..\lvgl\version_6.1.2\lvgl\src\lv_objx/lv_btn.c ****         lv_obj_set_click(new_btn, true); /*Be sure the button is clickable*/
 191              		.loc 2 117 0
 192 00b0 0121     		movs	r1, #1
 193 00b2 7869     		ldr	r0, [r7, #20]
 194 00b4 FFF7FEFF 		bl	lv_obj_set_click
 118:..\..\..\lvgl\version_6.1.2\lvgl\src\lv_objx/lv_btn.c **** 
 119:..\..\..\lvgl\version_6.1.2\lvgl\src\lv_objx/lv_btn.c ****         /*Set the default styles*/
 120:..\..\..\lvgl\version_6.1.2\lvgl\src\lv_objx/lv_btn.c ****         lv_theme_t * th = lv_theme_get_current();
 195              		.loc 2 120 0
 196 00b8 FFF7FEFF 		bl	lv_theme_get_current
 197 00bc F860     		str	r0, [r7, #12]
 121:..\..\..\lvgl\version_6.1.2\lvgl\src\lv_objx/lv_btn.c ****         if(th) {
 198              		.loc 2 121 0
 199 00be FB68     		ldr	r3, [r7, #12]
 200 00c0 002B     		cmp	r3, #0
 201 00c2 23D0     		beq	.L10
 122:..\..\..\lvgl\version_6.1.2\lvgl\src\lv_objx/lv_btn.c ****             lv_btn_set_style(new_btn, LV_BTN_STYLE_REL, th->style.btn.rel);
 202              		.loc 2 122 0
 203 00c4 FB68     		ldr	r3, [r7, #12]
 204 00c6 1B69     		ldr	r3, [r3, #16]
 205 00c8 1A46     		mov	r2, r3
 206 00ca 0021     		movs	r1, #0
 207 00cc 7869     		ldr	r0, [r7, #20]
 208 00ce FFF7FEFF 		bl	lv_btn_set_style
 123:..\..\..\lvgl\version_6.1.2\lvgl\src\lv_objx/lv_btn.c ****             lv_btn_set_style(new_btn, LV_BTN_STYLE_PR, th->style.btn.pr);
 209              		.loc 2 123 0
 210 00d2 FB68     		ldr	r3, [r7, #12]
 211 00d4 5B69     		ldr	r3, [r3, #20]
 212 00d6 1A46     		mov	r2, r3
 213 00d8 0121     		movs	r1, #1
 214 00da 7869     		ldr	r0, [r7, #20]
 215 00dc FFF7FEFF 		bl	lv_btn_set_style
 124:..\..\..\lvgl\version_6.1.2\lvgl\src\lv_objx/lv_btn.c ****             lv_btn_set_style(new_btn, LV_BTN_STYLE_TGL_REL, th->style.btn.tgl_rel);
 216              		.loc 2 124 0
 217 00e0 FB68     		ldr	r3, [r7, #12]
 218 00e2 9B69     		ldr	r3, [r3, #24]
 219 00e4 1A46     		mov	r2, r3
 220 00e6 0221     		movs	r1, #2
 221 00e8 7869     		ldr	r0, [r7, #20]
 222 00ea FFF7FEFF 		bl	lv_btn_set_style
 125:..\..\..\lvgl\version_6.1.2\lvgl\src\lv_objx/lv_btn.c ****             lv_btn_set_style(new_btn, LV_BTN_STYLE_TGL_PR, th->style.btn.tgl_pr);
 223              		.loc 2 125 0
 224 00ee FB68     		ldr	r3, [r7, #12]
 225 00f0 DB69     		ldr	r3, [r3, #28]
 226 00f2 1A46     		mov	r2, r3
 227 00f4 0321     		movs	r1, #3
 228 00f6 7869     		ldr	r0, [r7, #20]
 229 00f8 FFF7FEFF 		bl	lv_btn_set_style
 126:..\..\..\lvgl\version_6.1.2\lvgl\src\lv_objx/lv_btn.c ****             lv_btn_set_style(new_btn, LV_BTN_STYLE_INA, th->style.btn.ina);
 230              		.loc 2 126 0
 231 00fc FB68     		ldr	r3, [r7, #12]
 232 00fe 1B6A     		ldr	r3, [r3, #32]
 233 0100 1A46     		mov	r2, r3
ARM GAS  C:\Users\tmj32\AppData\Local\Temp\ccKhIVes.s 			page 10


 234 0102 0421     		movs	r1, #4
 235 0104 7869     		ldr	r0, [r7, #20]
 236 0106 FFF7FEFF 		bl	lv_btn_set_style
 237 010a 29E0     		b	.L12
 238              	.L10:
 127:..\..\..\lvgl\version_6.1.2\lvgl\src\lv_objx/lv_btn.c ****         } else {
 128:..\..\..\lvgl\version_6.1.2\lvgl\src\lv_objx/lv_btn.c ****             lv_obj_set_style(new_btn, ext->styles[LV_BTN_STATE_REL]);
 239              		.loc 2 128 0
 240 010c 3B69     		ldr	r3, [r7, #16]
 241 010e 5B68     		ldr	r3, [r3, #4]
 242 0110 1946     		mov	r1, r3
 243 0112 7869     		ldr	r0, [r7, #20]
 244 0114 FFF7FEFF 		bl	lv_obj_set_style
 245 0118 22E0     		b	.L12
 246              	.L8:
 247              	.LBE2:
 248              	.LBB3:
 129:..\..\..\lvgl\version_6.1.2\lvgl\src\lv_objx/lv_btn.c ****         }
 130:..\..\..\lvgl\version_6.1.2\lvgl\src\lv_objx/lv_btn.c ****     }
 131:..\..\..\lvgl\version_6.1.2\lvgl\src\lv_objx/lv_btn.c ****     /*Copy 'copy'*/
 132:..\..\..\lvgl\version_6.1.2\lvgl\src\lv_objx/lv_btn.c ****     else {
 133:..\..\..\lvgl\version_6.1.2\lvgl\src\lv_objx/lv_btn.c ****         lv_btn_ext_t * copy_ext = lv_obj_get_ext_attr(copy);
 249              		.loc 2 133 0
 250 011a 3868     		ldr	r0, [r7]
 251 011c FFF7FEFF 		bl	lv_obj_get_ext_attr
 252 0120 B860     		str	r0, [r7, #8]
 134:..\..\..\lvgl\version_6.1.2\lvgl\src\lv_objx/lv_btn.c ****         ext->state              = copy_ext->state;
 253              		.loc 2 134 0
 254 0122 BB68     		ldr	r3, [r7, #8]
 255 0124 1B7E     		ldrb	r3, [r3, #24]
 256 0126 C3F30203 		ubfx	r3, r3, #0, #3
 257 012a D9B2     		uxtb	r1, r3
 258 012c 3A69     		ldr	r2, [r7, #16]
 259 012e 137E     		ldrb	r3, [r2, #24]
 260 0130 61F30203 		bfi	r3, r1, #0, #3
 261 0134 1376     		strb	r3, [r2, #24]
 135:..\..\..\lvgl\version_6.1.2\lvgl\src\lv_objx/lv_btn.c ****         ext->toggle             = copy_ext->toggle;
 262              		.loc 2 135 0
 263 0136 BB68     		ldr	r3, [r7, #8]
 264 0138 1B7E     		ldrb	r3, [r3, #24]
 265 013a C3F3C003 		ubfx	r3, r3, #3, #1
 266 013e D9B2     		uxtb	r1, r3
 267 0140 3A69     		ldr	r2, [r7, #16]
 268 0142 137E     		ldrb	r3, [r2, #24]
 269 0144 61F3C303 		bfi	r3, r1, #3, #1
 270 0148 1376     		strb	r3, [r2, #24]
 136:..\..\..\lvgl\version_6.1.2\lvgl\src\lv_objx/lv_btn.c **** #if LV_USE_ANIMATION && LV_BTN_INK_EFFECT
 137:..\..\..\lvgl\version_6.1.2\lvgl\src\lv_objx/lv_btn.c ****         ext->ink_in_time   = copy_ext->ink_in_time;
 138:..\..\..\lvgl\version_6.1.2\lvgl\src\lv_objx/lv_btn.c ****         ext->ink_wait_time = copy_ext->ink_wait_time;
 139:..\..\..\lvgl\version_6.1.2\lvgl\src\lv_objx/lv_btn.c ****         ext->ink_out_time  = copy_ext->ink_out_time;
 140:..\..\..\lvgl\version_6.1.2\lvgl\src\lv_objx/lv_btn.c **** #endif
 141:..\..\..\lvgl\version_6.1.2\lvgl\src\lv_objx/lv_btn.c ****         memcpy((void*) ext->styles, copy_ext->styles, sizeof(ext->styles));
 271              		.loc 2 141 0
 272 014a 3B69     		ldr	r3, [r7, #16]
 273 014c 181D     		adds	r0, r3, #4
 274 014e BB68     		ldr	r3, [r7, #8]
 275 0150 0433     		adds	r3, r3, #4
ARM GAS  C:\Users\tmj32\AppData\Local\Temp\ccKhIVes.s 			page 11


 276 0152 1422     		movs	r2, #20
 277 0154 1946     		mov	r1, r3
 278 0156 FFF7FEFF 		bl	memcpy
 142:..\..\..\lvgl\version_6.1.2\lvgl\src\lv_objx/lv_btn.c **** 
 143:..\..\..\lvgl\version_6.1.2\lvgl\src\lv_objx/lv_btn.c ****         /*Refresh the style with new signal function*/
 144:..\..\..\lvgl\version_6.1.2\lvgl\src\lv_objx/lv_btn.c ****         lv_obj_refresh_style(new_btn);
 279              		.loc 2 144 0
 280 015a 7869     		ldr	r0, [r7, #20]
 281 015c FFF7FEFF 		bl	lv_obj_refresh_style
 282              	.L12:
 283              	.LBE3:
 145:..\..\..\lvgl\version_6.1.2\lvgl\src\lv_objx/lv_btn.c ****     }
 146:..\..\..\lvgl\version_6.1.2\lvgl\src\lv_objx/lv_btn.c **** 
 147:..\..\..\lvgl\version_6.1.2\lvgl\src\lv_objx/lv_btn.c ****     LV_LOG_INFO("button created");
 148:..\..\..\lvgl\version_6.1.2\lvgl\src\lv_objx/lv_btn.c **** 
 149:..\..\..\lvgl\version_6.1.2\lvgl\src\lv_objx/lv_btn.c ****     return new_btn;
 284              		.loc 2 149 0
 285 0160 7B69     		ldr	r3, [r7, #20]
 286              	.L4:
 150:..\..\..\lvgl\version_6.1.2\lvgl\src\lv_objx/lv_btn.c **** }
 287              		.loc 2 150 0
 288 0162 1846     		mov	r0, r3
 289 0164 1837     		adds	r7, r7, #24
 290              		.cfi_def_cfa_offset 8
 291 0166 BD46     		mov	sp, r7
 292              		.cfi_def_cfa_register 13
 293              		@ sp needed
 294 0168 80BD     		pop	{r7, pc}
 295              	.L14:
 296 016a 00BF     		.align	2
 297              	.L13:
 298 016c 00000000 		.word	ancestor_signal
 299 0170 04000000 		.word	ancestor_design
 300 0174 00000000 		.word	lv_style_btn_rel
 301 0178 00000000 		.word	lv_style_btn_pr
 302 017c 00000000 		.word	lv_style_btn_tgl_rel
 303 0180 00000000 		.word	lv_style_btn_tgl_pr
 304 0184 00000000 		.word	lv_style_btn_ina
 305 0188 00000000 		.word	lv_btn_signal
 306 018c 00000000 		.word	lv_btn_design
 307              		.cfi_endproc
 308              	.LFE44:
 309              		.size	lv_btn_create, .-lv_btn_create
 310              		.section	.text.lv_btn_set_toggle,"ax",%progbits
 311              		.align	2
 312              		.global	lv_btn_set_toggle
 313              		.thumb
 314              		.thumb_func
 315              		.type	lv_btn_set_toggle, %function
 316              	lv_btn_set_toggle:
 317              	.LFB45:
 151:..\..\..\lvgl\version_6.1.2\lvgl\src\lv_objx/lv_btn.c **** 
 152:..\..\..\lvgl\version_6.1.2\lvgl\src\lv_objx/lv_btn.c **** /*=====================
 153:..\..\..\lvgl\version_6.1.2\lvgl\src\lv_objx/lv_btn.c ****  * Setter functions
 154:..\..\..\lvgl\version_6.1.2\lvgl\src\lv_objx/lv_btn.c ****  *====================*/
 155:..\..\..\lvgl\version_6.1.2\lvgl\src\lv_objx/lv_btn.c **** 
 156:..\..\..\lvgl\version_6.1.2\lvgl\src\lv_objx/lv_btn.c **** /**
ARM GAS  C:\Users\tmj32\AppData\Local\Temp\ccKhIVes.s 			page 12


 157:..\..\..\lvgl\version_6.1.2\lvgl\src\lv_objx/lv_btn.c ****  * Enable the toggled states
 158:..\..\..\lvgl\version_6.1.2\lvgl\src\lv_objx/lv_btn.c ****  * @param btn pointer to a button object
 159:..\..\..\lvgl\version_6.1.2\lvgl\src\lv_objx/lv_btn.c ****  * @param tgl true: enable toggled states, false: disable
 160:..\..\..\lvgl\version_6.1.2\lvgl\src\lv_objx/lv_btn.c ****  */
 161:..\..\..\lvgl\version_6.1.2\lvgl\src\lv_objx/lv_btn.c **** void lv_btn_set_toggle(lv_obj_t * btn, bool tgl)
 162:..\..\..\lvgl\version_6.1.2\lvgl\src\lv_objx/lv_btn.c **** {
 318              		.loc 2 162 0
 319              		.cfi_startproc
 320              		@ args = 0, pretend = 0, frame = 16
 321              		@ frame_needed = 1, uses_anonymous_args = 0
 322 0000 80B5     		push	{r7, lr}
 323              		.cfi_def_cfa_offset 8
 324              		.cfi_offset 7, -8
 325              		.cfi_offset 14, -4
 326 0002 84B0     		sub	sp, sp, #16
 327              		.cfi_def_cfa_offset 24
 328 0004 00AF     		add	r7, sp, #0
 329              		.cfi_def_cfa_register 7
 330 0006 7860     		str	r0, [r7, #4]
 331 0008 0B46     		mov	r3, r1
 332 000a FB70     		strb	r3, [r7, #3]
 163:..\..\..\lvgl\version_6.1.2\lvgl\src\lv_objx/lv_btn.c ****     LV_ASSERT_OBJ(btn, LV_OBJX_NAME);
 164:..\..\..\lvgl\version_6.1.2\lvgl\src\lv_objx/lv_btn.c **** 
 165:..\..\..\lvgl\version_6.1.2\lvgl\src\lv_objx/lv_btn.c ****     lv_btn_ext_t * ext = lv_obj_get_ext_attr(btn);
 333              		.loc 2 165 0
 334 000c 7868     		ldr	r0, [r7, #4]
 335 000e FFF7FEFF 		bl	lv_obj_get_ext_attr
 336 0012 F860     		str	r0, [r7, #12]
 166:..\..\..\lvgl\version_6.1.2\lvgl\src\lv_objx/lv_btn.c **** 
 167:..\..\..\lvgl\version_6.1.2\lvgl\src\lv_objx/lv_btn.c ****     ext->toggle = tgl != false ? 1 : 0;
 337              		.loc 2 167 0
 338 0014 FB78     		ldrb	r3, [r7, #3]	@ zero_extendqisi2
 339 0016 03F00103 		and	r3, r3, #1
 340 001a D9B2     		uxtb	r1, r3
 341 001c FA68     		ldr	r2, [r7, #12]
 342 001e 137E     		ldrb	r3, [r2, #24]
 343 0020 61F3C303 		bfi	r3, r1, #3, #1
 344 0024 1376     		strb	r3, [r2, #24]
 168:..\..\..\lvgl\version_6.1.2\lvgl\src\lv_objx/lv_btn.c **** }
 345              		.loc 2 168 0
 346 0026 00BF     		nop
 347 0028 1037     		adds	r7, r7, #16
 348              		.cfi_def_cfa_offset 8
 349 002a BD46     		mov	sp, r7
 350              		.cfi_def_cfa_register 13
 351              		@ sp needed
 352 002c 80BD     		pop	{r7, pc}
 353              		.cfi_endproc
 354              	.LFE45:
 355              		.size	lv_btn_set_toggle, .-lv_btn_set_toggle
 356 002e 00BF     		.section	.text.lv_btn_set_state,"ax",%progbits
 357              		.align	2
 358              		.global	lv_btn_set_state
 359              		.thumb
 360              		.thumb_func
 361              		.type	lv_btn_set_state, %function
 362              	lv_btn_set_state:
ARM GAS  C:\Users\tmj32\AppData\Local\Temp\ccKhIVes.s 			page 13


 363              	.LFB46:
 169:..\..\..\lvgl\version_6.1.2\lvgl\src\lv_objx/lv_btn.c **** 
 170:..\..\..\lvgl\version_6.1.2\lvgl\src\lv_objx/lv_btn.c **** /**
 171:..\..\..\lvgl\version_6.1.2\lvgl\src\lv_objx/lv_btn.c ****  * Set the state of the button
 172:..\..\..\lvgl\version_6.1.2\lvgl\src\lv_objx/lv_btn.c ****  * @param btn pointer to a button object
 173:..\..\..\lvgl\version_6.1.2\lvgl\src\lv_objx/lv_btn.c ****  * @param state the new state of the button (from lv_btn_state_t enum)
 174:..\..\..\lvgl\version_6.1.2\lvgl\src\lv_objx/lv_btn.c ****  */
 175:..\..\..\lvgl\version_6.1.2\lvgl\src\lv_objx/lv_btn.c **** void lv_btn_set_state(lv_obj_t * btn, lv_btn_state_t state)
 176:..\..\..\lvgl\version_6.1.2\lvgl\src\lv_objx/lv_btn.c **** {
 364              		.loc 2 176 0
 365              		.cfi_startproc
 366              		@ args = 0, pretend = 0, frame = 16
 367              		@ frame_needed = 1, uses_anonymous_args = 0
 368 0000 80B5     		push	{r7, lr}
 369              		.cfi_def_cfa_offset 8
 370              		.cfi_offset 7, -8
 371              		.cfi_offset 14, -4
 372 0002 84B0     		sub	sp, sp, #16
 373              		.cfi_def_cfa_offset 24
 374 0004 00AF     		add	r7, sp, #0
 375              		.cfi_def_cfa_register 7
 376 0006 7860     		str	r0, [r7, #4]
 377 0008 0B46     		mov	r3, r1
 378 000a FB70     		strb	r3, [r7, #3]
 177:..\..\..\lvgl\version_6.1.2\lvgl\src\lv_objx/lv_btn.c ****     LV_ASSERT_OBJ(btn, LV_OBJX_NAME);
 178:..\..\..\lvgl\version_6.1.2\lvgl\src\lv_objx/lv_btn.c **** 
 179:..\..\..\lvgl\version_6.1.2\lvgl\src\lv_objx/lv_btn.c ****     lv_btn_ext_t * ext = lv_obj_get_ext_attr(btn);
 379              		.loc 2 179 0
 380 000c 7868     		ldr	r0, [r7, #4]
 381 000e FFF7FEFF 		bl	lv_obj_get_ext_attr
 382 0012 F860     		str	r0, [r7, #12]
 180:..\..\..\lvgl\version_6.1.2\lvgl\src\lv_objx/lv_btn.c ****     if(ext->state != state) {
 383              		.loc 2 180 0
 384 0014 FB68     		ldr	r3, [r7, #12]
 385 0016 1B7E     		ldrb	r3, [r3, #24]
 386 0018 C3F30203 		ubfx	r3, r3, #0, #3
 387 001c DBB2     		uxtb	r3, r3
 388 001e 1A46     		mov	r2, r3
 389 0020 FB78     		ldrb	r3, [r7, #3]	@ zero_extendqisi2
 390 0022 9A42     		cmp	r2, r3
 391 0024 11D0     		beq	.L18
 181:..\..\..\lvgl\version_6.1.2\lvgl\src\lv_objx/lv_btn.c ****         ext->state = state;
 392              		.loc 2 181 0
 393 0026 FB78     		ldrb	r3, [r7, #3]
 394 0028 03F00703 		and	r3, r3, #7
 395 002c D9B2     		uxtb	r1, r3
 396 002e FA68     		ldr	r2, [r7, #12]
 397 0030 137E     		ldrb	r3, [r2, #24]
 398 0032 61F30203 		bfi	r3, r1, #0, #3
 399 0036 1376     		strb	r3, [r2, #24]
 182:..\..\..\lvgl\version_6.1.2\lvgl\src\lv_objx/lv_btn.c ****         lv_obj_set_style(btn, ext->styles[state]);
 400              		.loc 2 182 0
 401 0038 FB78     		ldrb	r3, [r7, #3]	@ zero_extendqisi2
 402 003a FA68     		ldr	r2, [r7, #12]
 403 003c 9B00     		lsls	r3, r3, #2
 404 003e 1344     		add	r3, r3, r2
 405 0040 5B68     		ldr	r3, [r3, #4]
ARM GAS  C:\Users\tmj32\AppData\Local\Temp\ccKhIVes.s 			page 14


 406 0042 1946     		mov	r1, r3
 407 0044 7868     		ldr	r0, [r7, #4]
 408 0046 FFF7FEFF 		bl	lv_obj_set_style
 409              	.L18:
 183:..\..\..\lvgl\version_6.1.2\lvgl\src\lv_objx/lv_btn.c ****     }
 184:..\..\..\lvgl\version_6.1.2\lvgl\src\lv_objx/lv_btn.c **** }
 410              		.loc 2 184 0
 411 004a 00BF     		nop
 412 004c 1037     		adds	r7, r7, #16
 413              		.cfi_def_cfa_offset 8
 414 004e BD46     		mov	sp, r7
 415              		.cfi_def_cfa_register 13
 416              		@ sp needed
 417 0050 80BD     		pop	{r7, pc}
 418              		.cfi_endproc
 419              	.LFE46:
 420              		.size	lv_btn_set_state, .-lv_btn_set_state
 421 0052 00BF     		.section	.text.lv_btn_toggle,"ax",%progbits
 422              		.align	2
 423              		.global	lv_btn_toggle
 424              		.thumb
 425              		.thumb_func
 426              		.type	lv_btn_toggle, %function
 427              	lv_btn_toggle:
 428              	.LFB47:
 185:..\..\..\lvgl\version_6.1.2\lvgl\src\lv_objx/lv_btn.c **** 
 186:..\..\..\lvgl\version_6.1.2\lvgl\src\lv_objx/lv_btn.c **** /**
 187:..\..\..\lvgl\version_6.1.2\lvgl\src\lv_objx/lv_btn.c ****  * Toggle the state of the button (ON->OFF, OFF->ON)
 188:..\..\..\lvgl\version_6.1.2\lvgl\src\lv_objx/lv_btn.c ****  * @param btn pointer to a button object
 189:..\..\..\lvgl\version_6.1.2\lvgl\src\lv_objx/lv_btn.c ****  */
 190:..\..\..\lvgl\version_6.1.2\lvgl\src\lv_objx/lv_btn.c **** void lv_btn_toggle(lv_obj_t * btn)
 191:..\..\..\lvgl\version_6.1.2\lvgl\src\lv_objx/lv_btn.c **** {
 429              		.loc 2 191 0
 430              		.cfi_startproc
 431              		@ args = 0, pretend = 0, frame = 16
 432              		@ frame_needed = 1, uses_anonymous_args = 0
 433 0000 80B5     		push	{r7, lr}
 434              		.cfi_def_cfa_offset 8
 435              		.cfi_offset 7, -8
 436              		.cfi_offset 14, -4
 437 0002 84B0     		sub	sp, sp, #16
 438              		.cfi_def_cfa_offset 24
 439 0004 00AF     		add	r7, sp, #0
 440              		.cfi_def_cfa_register 7
 441 0006 7860     		str	r0, [r7, #4]
 192:..\..\..\lvgl\version_6.1.2\lvgl\src\lv_objx/lv_btn.c ****     LV_ASSERT_OBJ(btn, LV_OBJX_NAME);
 193:..\..\..\lvgl\version_6.1.2\lvgl\src\lv_objx/lv_btn.c **** 
 194:..\..\..\lvgl\version_6.1.2\lvgl\src\lv_objx/lv_btn.c ****     lv_btn_ext_t * ext = lv_obj_get_ext_attr(btn);
 442              		.loc 2 194 0
 443 0008 7868     		ldr	r0, [r7, #4]
 444 000a FFF7FEFF 		bl	lv_obj_get_ext_attr
 445 000e F860     		str	r0, [r7, #12]
 195:..\..\..\lvgl\version_6.1.2\lvgl\src\lv_objx/lv_btn.c ****     switch(ext->state) {
 446              		.loc 2 195 0
 447 0010 FB68     		ldr	r3, [r7, #12]
 448 0012 1B7E     		ldrb	r3, [r3, #24]
 449 0014 C3F30203 		ubfx	r3, r3, #0, #3
ARM GAS  C:\Users\tmj32\AppData\Local\Temp\ccKhIVes.s 			page 15


 450 0018 DBB2     		uxtb	r3, r3
 451 001a 032B     		cmp	r3, #3
 452 001c 1ED8     		bhi	.L27
 453 001e 01A2     		adr	r2, .L22
 454 0020 52F823F0 		ldr	pc, [r2, r3, lsl #2]
 455              		.p2align 2
 456              	.L22:
 457 0024 35000000 		.word	.L21+1
 458 0028 3F000000 		.word	.L23+1
 459 002c 49000000 		.word	.L24+1
 460 0030 53000000 		.word	.L25+1
 461              		.p2align 1
 462              	.L21:
 196:..\..\..\lvgl\version_6.1.2\lvgl\src\lv_objx/lv_btn.c ****         case LV_BTN_STATE_REL: lv_btn_set_state(btn, LV_BTN_STATE_TGL_REL); break;
 463              		.loc 2 196 0
 464 0034 0221     		movs	r1, #2
 465 0036 7868     		ldr	r0, [r7, #4]
 466 0038 FFF7FEFF 		bl	lv_btn_set_state
 467 003c 0FE0     		b	.L26
 468              	.L23:
 197:..\..\..\lvgl\version_6.1.2\lvgl\src\lv_objx/lv_btn.c ****         case LV_BTN_STATE_PR: lv_btn_set_state(btn, LV_BTN_STATE_TGL_PR); break;
 469              		.loc 2 197 0
 470 003e 0321     		movs	r1, #3
 471 0040 7868     		ldr	r0, [r7, #4]
 472 0042 FFF7FEFF 		bl	lv_btn_set_state
 473 0046 0AE0     		b	.L26
 474              	.L24:
 198:..\..\..\lvgl\version_6.1.2\lvgl\src\lv_objx/lv_btn.c ****         case LV_BTN_STATE_TGL_REL: lv_btn_set_state(btn, LV_BTN_STATE_REL); break;
 475              		.loc 2 198 0
 476 0048 0021     		movs	r1, #0
 477 004a 7868     		ldr	r0, [r7, #4]
 478 004c FFF7FEFF 		bl	lv_btn_set_state
 479 0050 05E0     		b	.L26
 480              	.L25:
 199:..\..\..\lvgl\version_6.1.2\lvgl\src\lv_objx/lv_btn.c ****         case LV_BTN_STATE_TGL_PR: lv_btn_set_state(btn, LV_BTN_STATE_PR); break;
 481              		.loc 2 199 0
 482 0052 0121     		movs	r1, #1
 483 0054 7868     		ldr	r0, [r7, #4]
 484 0056 FFF7FEFF 		bl	lv_btn_set_state
 485 005a 00E0     		b	.L26
 486              	.L27:
 200:..\..\..\lvgl\version_6.1.2\lvgl\src\lv_objx/lv_btn.c ****         default: break;
 487              		.loc 2 200 0
 488 005c 00BF     		nop
 489              	.L26:
 201:..\..\..\lvgl\version_6.1.2\lvgl\src\lv_objx/lv_btn.c ****     }
 202:..\..\..\lvgl\version_6.1.2\lvgl\src\lv_objx/lv_btn.c **** }
 490              		.loc 2 202 0
 491 005e 00BF     		nop
 492 0060 1037     		adds	r7, r7, #16
 493              		.cfi_def_cfa_offset 8
 494 0062 BD46     		mov	sp, r7
 495              		.cfi_def_cfa_register 13
 496              		@ sp needed
 497 0064 80BD     		pop	{r7, pc}
 498              		.cfi_endproc
 499              	.LFE47:
ARM GAS  C:\Users\tmj32\AppData\Local\Temp\ccKhIVes.s 			page 16


 500              		.size	lv_btn_toggle, .-lv_btn_toggle
 501 0066 00BF     		.section	.text.lv_btn_set_ink_in_time,"ax",%progbits
 502              		.align	2
 503              		.global	lv_btn_set_ink_in_time
 504              		.thumb
 505              		.thumb_func
 506              		.type	lv_btn_set_ink_in_time, %function
 507              	lv_btn_set_ink_in_time:
 508              	.LFB48:
 203:..\..\..\lvgl\version_6.1.2\lvgl\src\lv_objx/lv_btn.c **** 
 204:..\..\..\lvgl\version_6.1.2\lvgl\src\lv_objx/lv_btn.c **** /**
 205:..\..\..\lvgl\version_6.1.2\lvgl\src\lv_objx/lv_btn.c ****  * Set time of the ink effect (draw a circle on click to animate in the new state)
 206:..\..\..\lvgl\version_6.1.2\lvgl\src\lv_objx/lv_btn.c ****  * @param btn pointer to a button object
 207:..\..\..\lvgl\version_6.1.2\lvgl\src\lv_objx/lv_btn.c ****  * @param time the time of the ink animation
 208:..\..\..\lvgl\version_6.1.2\lvgl\src\lv_objx/lv_btn.c ****  */
 209:..\..\..\lvgl\version_6.1.2\lvgl\src\lv_objx/lv_btn.c **** void lv_btn_set_ink_in_time(lv_obj_t * btn, uint16_t time)
 210:..\..\..\lvgl\version_6.1.2\lvgl\src\lv_objx/lv_btn.c **** {
 509              		.loc 2 210 0
 510              		.cfi_startproc
 511              		@ args = 0, pretend = 0, frame = 8
 512              		@ frame_needed = 1, uses_anonymous_args = 0
 513              		@ link register save eliminated.
 514 0000 80B4     		push	{r7}
 515              		.cfi_def_cfa_offset 4
 516              		.cfi_offset 7, -4
 517 0002 83B0     		sub	sp, sp, #12
 518              		.cfi_def_cfa_offset 16
 519 0004 00AF     		add	r7, sp, #0
 520              		.cfi_def_cfa_register 7
 521 0006 7860     		str	r0, [r7, #4]
 522 0008 0B46     		mov	r3, r1
 523 000a 7B80     		strh	r3, [r7, #2]	@ movhi
 211:..\..\..\lvgl\version_6.1.2\lvgl\src\lv_objx/lv_btn.c ****     LV_ASSERT_OBJ(btn, LV_OBJX_NAME);
 212:..\..\..\lvgl\version_6.1.2\lvgl\src\lv_objx/lv_btn.c **** 
 213:..\..\..\lvgl\version_6.1.2\lvgl\src\lv_objx/lv_btn.c **** #if LV_USE_ANIMATION && LV_BTN_INK_EFFECT
 214:..\..\..\lvgl\version_6.1.2\lvgl\src\lv_objx/lv_btn.c ****     lv_btn_ext_t * ext = lv_obj_get_ext_attr(btn);
 215:..\..\..\lvgl\version_6.1.2\lvgl\src\lv_objx/lv_btn.c ****     ext->ink_in_time   = time;
 216:..\..\..\lvgl\version_6.1.2\lvgl\src\lv_objx/lv_btn.c **** #else
 217:..\..\..\lvgl\version_6.1.2\lvgl\src\lv_objx/lv_btn.c ****     (void)btn;  /*Unused*/
 218:..\..\..\lvgl\version_6.1.2\lvgl\src\lv_objx/lv_btn.c ****     (void)time; /*Unused*/
 219:..\..\..\lvgl\version_6.1.2\lvgl\src\lv_objx/lv_btn.c ****     LV_LOG_WARN("`lv_btn_set_ink_ink_time` has no effect if LV_BTN_INK_EFEFCT or LV_USE_ANIMATION "
 220:..\..\..\lvgl\version_6.1.2\lvgl\src\lv_objx/lv_btn.c ****                 "is disabled")
 221:..\..\..\lvgl\version_6.1.2\lvgl\src\lv_objx/lv_btn.c **** #endif
 222:..\..\..\lvgl\version_6.1.2\lvgl\src\lv_objx/lv_btn.c **** }
 524              		.loc 2 222 0
 525 000c 00BF     		nop
 526 000e 0C37     		adds	r7, r7, #12
 527              		.cfi_def_cfa_offset 4
 528 0010 BD46     		mov	sp, r7
 529              		.cfi_def_cfa_register 13
 530              		@ sp needed
 531 0012 5DF8047B 		ldr	r7, [sp], #4
 532              		.cfi_restore 7
 533              		.cfi_def_cfa_offset 0
 534 0016 7047     		bx	lr
 535              		.cfi_endproc
 536              	.LFE48:
ARM GAS  C:\Users\tmj32\AppData\Local\Temp\ccKhIVes.s 			page 17


 537              		.size	lv_btn_set_ink_in_time, .-lv_btn_set_ink_in_time
 538              		.section	.text.lv_btn_set_ink_wait_time,"ax",%progbits
 539              		.align	2
 540              		.global	lv_btn_set_ink_wait_time
 541              		.thumb
 542              		.thumb_func
 543              		.type	lv_btn_set_ink_wait_time, %function
 544              	lv_btn_set_ink_wait_time:
 545              	.LFB49:
 223:..\..\..\lvgl\version_6.1.2\lvgl\src\lv_objx/lv_btn.c **** 
 224:..\..\..\lvgl\version_6.1.2\lvgl\src\lv_objx/lv_btn.c **** /**
 225:..\..\..\lvgl\version_6.1.2\lvgl\src\lv_objx/lv_btn.c ****  * Set the wait time before the ink disappears
 226:..\..\..\lvgl\version_6.1.2\lvgl\src\lv_objx/lv_btn.c ****  * @param btn pointer to a button object
 227:..\..\..\lvgl\version_6.1.2\lvgl\src\lv_objx/lv_btn.c ****  * @param time the time of the ink animation
 228:..\..\..\lvgl\version_6.1.2\lvgl\src\lv_objx/lv_btn.c ****  */
 229:..\..\..\lvgl\version_6.1.2\lvgl\src\lv_objx/lv_btn.c **** void lv_btn_set_ink_wait_time(lv_obj_t * btn, uint16_t time)
 230:..\..\..\lvgl\version_6.1.2\lvgl\src\lv_objx/lv_btn.c **** {
 546              		.loc 2 230 0
 547              		.cfi_startproc
 548              		@ args = 0, pretend = 0, frame = 8
 549              		@ frame_needed = 1, uses_anonymous_args = 0
 550              		@ link register save eliminated.
 551 0000 80B4     		push	{r7}
 552              		.cfi_def_cfa_offset 4
 553              		.cfi_offset 7, -4
 554 0002 83B0     		sub	sp, sp, #12
 555              		.cfi_def_cfa_offset 16
 556 0004 00AF     		add	r7, sp, #0
 557              		.cfi_def_cfa_register 7
 558 0006 7860     		str	r0, [r7, #4]
 559 0008 0B46     		mov	r3, r1
 560 000a 7B80     		strh	r3, [r7, #2]	@ movhi
 231:..\..\..\lvgl\version_6.1.2\lvgl\src\lv_objx/lv_btn.c ****     LV_ASSERT_OBJ(btn, LV_OBJX_NAME);
 232:..\..\..\lvgl\version_6.1.2\lvgl\src\lv_objx/lv_btn.c **** 
 233:..\..\..\lvgl\version_6.1.2\lvgl\src\lv_objx/lv_btn.c **** 
 234:..\..\..\lvgl\version_6.1.2\lvgl\src\lv_objx/lv_btn.c **** #if LV_USE_ANIMATION && LV_BTN_INK_EFFECT
 235:..\..\..\lvgl\version_6.1.2\lvgl\src\lv_objx/lv_btn.c ****     lv_btn_ext_t * ext = lv_obj_get_ext_attr(btn);
 236:..\..\..\lvgl\version_6.1.2\lvgl\src\lv_objx/lv_btn.c ****     ext->ink_wait_time = time;
 237:..\..\..\lvgl\version_6.1.2\lvgl\src\lv_objx/lv_btn.c **** #else
 238:..\..\..\lvgl\version_6.1.2\lvgl\src\lv_objx/lv_btn.c ****     (void)btn;  /*Unused*/
 239:..\..\..\lvgl\version_6.1.2\lvgl\src\lv_objx/lv_btn.c ****     (void)time; /*Unused*/
 240:..\..\..\lvgl\version_6.1.2\lvgl\src\lv_objx/lv_btn.c ****     LV_LOG_WARN("`lv_btn_set_ink_wait_time` has no effect if LV_BTN_INK_EFEFCT or LV_USE_ANIMATION 
 241:..\..\..\lvgl\version_6.1.2\lvgl\src\lv_objx/lv_btn.c ****                 "is disabled")
 242:..\..\..\lvgl\version_6.1.2\lvgl\src\lv_objx/lv_btn.c **** #endif
 243:..\..\..\lvgl\version_6.1.2\lvgl\src\lv_objx/lv_btn.c **** }
 561              		.loc 2 243 0
 562 000c 00BF     		nop
 563 000e 0C37     		adds	r7, r7, #12
 564              		.cfi_def_cfa_offset 4
 565 0010 BD46     		mov	sp, r7
 566              		.cfi_def_cfa_register 13
 567              		@ sp needed
 568 0012 5DF8047B 		ldr	r7, [sp], #4
 569              		.cfi_restore 7
 570              		.cfi_def_cfa_offset 0
 571 0016 7047     		bx	lr
 572              		.cfi_endproc
ARM GAS  C:\Users\tmj32\AppData\Local\Temp\ccKhIVes.s 			page 18


 573              	.LFE49:
 574              		.size	lv_btn_set_ink_wait_time, .-lv_btn_set_ink_wait_time
 575              		.section	.text.lv_btn_set_ink_out_time,"ax",%progbits
 576              		.align	2
 577              		.global	lv_btn_set_ink_out_time
 578              		.thumb
 579              		.thumb_func
 580              		.type	lv_btn_set_ink_out_time, %function
 581              	lv_btn_set_ink_out_time:
 582              	.LFB50:
 244:..\..\..\lvgl\version_6.1.2\lvgl\src\lv_objx/lv_btn.c **** 
 245:..\..\..\lvgl\version_6.1.2\lvgl\src\lv_objx/lv_btn.c **** /**
 246:..\..\..\lvgl\version_6.1.2\lvgl\src\lv_objx/lv_btn.c ****  * Set time of the ink out effect (animate to the released state)
 247:..\..\..\lvgl\version_6.1.2\lvgl\src\lv_objx/lv_btn.c ****  * @param btn pointer to a button object
 248:..\..\..\lvgl\version_6.1.2\lvgl\src\lv_objx/lv_btn.c ****  * @param time the time of the ink animation
 249:..\..\..\lvgl\version_6.1.2\lvgl\src\lv_objx/lv_btn.c ****  */
 250:..\..\..\lvgl\version_6.1.2\lvgl\src\lv_objx/lv_btn.c **** void lv_btn_set_ink_out_time(lv_obj_t * btn, uint16_t time)
 251:..\..\..\lvgl\version_6.1.2\lvgl\src\lv_objx/lv_btn.c **** {
 583              		.loc 2 251 0
 584              		.cfi_startproc
 585              		@ args = 0, pretend = 0, frame = 8
 586              		@ frame_needed = 1, uses_anonymous_args = 0
 587              		@ link register save eliminated.
 588 0000 80B4     		push	{r7}
 589              		.cfi_def_cfa_offset 4
 590              		.cfi_offset 7, -4
 591 0002 83B0     		sub	sp, sp, #12
 592              		.cfi_def_cfa_offset 16
 593 0004 00AF     		add	r7, sp, #0
 594              		.cfi_def_cfa_register 7
 595 0006 7860     		str	r0, [r7, #4]
 596 0008 0B46     		mov	r3, r1
 597 000a 7B80     		strh	r3, [r7, #2]	@ movhi
 252:..\..\..\lvgl\version_6.1.2\lvgl\src\lv_objx/lv_btn.c ****     LV_ASSERT_OBJ(btn, LV_OBJX_NAME);
 253:..\..\..\lvgl\version_6.1.2\lvgl\src\lv_objx/lv_btn.c **** 
 254:..\..\..\lvgl\version_6.1.2\lvgl\src\lv_objx/lv_btn.c **** #if LV_USE_ANIMATION && LV_BTN_INK_EFFECT
 255:..\..\..\lvgl\version_6.1.2\lvgl\src\lv_objx/lv_btn.c ****     lv_btn_ext_t * ext = lv_obj_get_ext_attr(btn);
 256:..\..\..\lvgl\version_6.1.2\lvgl\src\lv_objx/lv_btn.c ****     ext->ink_out_time  = time;
 257:..\..\..\lvgl\version_6.1.2\lvgl\src\lv_objx/lv_btn.c **** #else
 258:..\..\..\lvgl\version_6.1.2\lvgl\src\lv_objx/lv_btn.c ****     (void)btn;  /*Unused*/
 259:..\..\..\lvgl\version_6.1.2\lvgl\src\lv_objx/lv_btn.c ****     (void)time; /*Unused*/
 260:..\..\..\lvgl\version_6.1.2\lvgl\src\lv_objx/lv_btn.c ****     LV_LOG_WARN("`lv_btn_set_ink_out_time` has no effect if LV_BTN_INK_EFEFCT or LV_USE_ANIMATION "
 261:..\..\..\lvgl\version_6.1.2\lvgl\src\lv_objx/lv_btn.c ****                 "is disabled")
 262:..\..\..\lvgl\version_6.1.2\lvgl\src\lv_objx/lv_btn.c **** #endif
 263:..\..\..\lvgl\version_6.1.2\lvgl\src\lv_objx/lv_btn.c **** }
 598              		.loc 2 263 0
 599 000c 00BF     		nop
 600 000e 0C37     		adds	r7, r7, #12
 601              		.cfi_def_cfa_offset 4
 602 0010 BD46     		mov	sp, r7
 603              		.cfi_def_cfa_register 13
 604              		@ sp needed
 605 0012 5DF8047B 		ldr	r7, [sp], #4
 606              		.cfi_restore 7
 607              		.cfi_def_cfa_offset 0
 608 0016 7047     		bx	lr
 609              		.cfi_endproc
ARM GAS  C:\Users\tmj32\AppData\Local\Temp\ccKhIVes.s 			page 19


 610              	.LFE50:
 611              		.size	lv_btn_set_ink_out_time, .-lv_btn_set_ink_out_time
 612              		.section	.text.lv_btn_set_style,"ax",%progbits
 613              		.align	2
 614              		.global	lv_btn_set_style
 615              		.thumb
 616              		.thumb_func
 617              		.type	lv_btn_set_style, %function
 618              	lv_btn_set_style:
 619              	.LFB51:
 264:..\..\..\lvgl\version_6.1.2\lvgl\src\lv_objx/lv_btn.c **** 
 265:..\..\..\lvgl\version_6.1.2\lvgl\src\lv_objx/lv_btn.c **** /**
 266:..\..\..\lvgl\version_6.1.2\lvgl\src\lv_objx/lv_btn.c ****  * Set a style of a button
 267:..\..\..\lvgl\version_6.1.2\lvgl\src\lv_objx/lv_btn.c ****  * @param btn pointer to a button object
 268:..\..\..\lvgl\version_6.1.2\lvgl\src\lv_objx/lv_btn.c ****  * @param type which style should be set
 269:..\..\..\lvgl\version_6.1.2\lvgl\src\lv_objx/lv_btn.c ****  * @param style pointer to a style
 270:..\..\..\lvgl\version_6.1.2\lvgl\src\lv_objx/lv_btn.c ****  */
 271:..\..\..\lvgl\version_6.1.2\lvgl\src\lv_objx/lv_btn.c **** void lv_btn_set_style(lv_obj_t * btn, lv_btn_style_t type, const lv_style_t * style)
 272:..\..\..\lvgl\version_6.1.2\lvgl\src\lv_objx/lv_btn.c **** {
 620              		.loc 2 272 0
 621              		.cfi_startproc
 622              		@ args = 0, pretend = 0, frame = 24
 623              		@ frame_needed = 1, uses_anonymous_args = 0
 624 0000 80B5     		push	{r7, lr}
 625              		.cfi_def_cfa_offset 8
 626              		.cfi_offset 7, -8
 627              		.cfi_offset 14, -4
 628 0002 86B0     		sub	sp, sp, #24
 629              		.cfi_def_cfa_offset 32
 630 0004 00AF     		add	r7, sp, #0
 631              		.cfi_def_cfa_register 7
 632 0006 F860     		str	r0, [r7, #12]
 633 0008 0B46     		mov	r3, r1
 634 000a 7A60     		str	r2, [r7, #4]
 635 000c FB72     		strb	r3, [r7, #11]
 273:..\..\..\lvgl\version_6.1.2\lvgl\src\lv_objx/lv_btn.c ****     LV_ASSERT_OBJ(btn, LV_OBJX_NAME);
 274:..\..\..\lvgl\version_6.1.2\lvgl\src\lv_objx/lv_btn.c **** 
 275:..\..\..\lvgl\version_6.1.2\lvgl\src\lv_objx/lv_btn.c ****     lv_btn_ext_t * ext = lv_obj_get_ext_attr(btn);
 636              		.loc 2 275 0
 637 000e F868     		ldr	r0, [r7, #12]
 638 0010 FFF7FEFF 		bl	lv_obj_get_ext_attr
 639 0014 7861     		str	r0, [r7, #20]
 276:..\..\..\lvgl\version_6.1.2\lvgl\src\lv_objx/lv_btn.c **** 
 277:..\..\..\lvgl\version_6.1.2\lvgl\src\lv_objx/lv_btn.c ****     switch(type) {
 640              		.loc 2 277 0
 641 0016 FB7A     		ldrb	r3, [r7, #11]	@ zero_extendqisi2
 642 0018 042B     		cmp	r3, #4
 643 001a 21D8     		bhi	.L32
 644 001c 01A2     		adr	r2, .L34
 645 001e 52F823F0 		ldr	pc, [r2, r3, lsl #2]
 646 0022 00BF     		.p2align 2
 647              	.L34:
 648 0024 39000000 		.word	.L33+1
 649 0028 41000000 		.word	.L35+1
 650 002c 49000000 		.word	.L36+1
 651 0030 51000000 		.word	.L37+1
 652 0034 59000000 		.word	.L38+1
ARM GAS  C:\Users\tmj32\AppData\Local\Temp\ccKhIVes.s 			page 20


 653              		.p2align 1
 654              	.L33:
 278:..\..\..\lvgl\version_6.1.2\lvgl\src\lv_objx/lv_btn.c ****         case LV_BTN_STYLE_REL: ext->styles[LV_BTN_STATE_REL] = style; break;
 655              		.loc 2 278 0
 656 0038 7B69     		ldr	r3, [r7, #20]
 657 003a 7A68     		ldr	r2, [r7, #4]
 658 003c 5A60     		str	r2, [r3, #4]
 659 003e 0FE0     		b	.L32
 660              	.L35:
 279:..\..\..\lvgl\version_6.1.2\lvgl\src\lv_objx/lv_btn.c ****         case LV_BTN_STYLE_PR: ext->styles[LV_BTN_STATE_PR] = style; break;
 661              		.loc 2 279 0
 662 0040 7B69     		ldr	r3, [r7, #20]
 663 0042 7A68     		ldr	r2, [r7, #4]
 664 0044 9A60     		str	r2, [r3, #8]
 665 0046 0BE0     		b	.L32
 666              	.L36:
 280:..\..\..\lvgl\version_6.1.2\lvgl\src\lv_objx/lv_btn.c ****         case LV_BTN_STYLE_TGL_REL: ext->styles[LV_BTN_STATE_TGL_REL] = style; break;
 667              		.loc 2 280 0
 668 0048 7B69     		ldr	r3, [r7, #20]
 669 004a 7A68     		ldr	r2, [r7, #4]
 670 004c DA60     		str	r2, [r3, #12]
 671 004e 07E0     		b	.L32
 672              	.L37:
 281:..\..\..\lvgl\version_6.1.2\lvgl\src\lv_objx/lv_btn.c ****         case LV_BTN_STYLE_TGL_PR: ext->styles[LV_BTN_STATE_TGL_PR] = style; break;
 673              		.loc 2 281 0
 674 0050 7B69     		ldr	r3, [r7, #20]
 675 0052 7A68     		ldr	r2, [r7, #4]
 676 0054 1A61     		str	r2, [r3, #16]
 677 0056 03E0     		b	.L32
 678              	.L38:
 282:..\..\..\lvgl\version_6.1.2\lvgl\src\lv_objx/lv_btn.c ****         case LV_BTN_STYLE_INA: ext->styles[LV_BTN_STATE_INA] = style; break;
 679              		.loc 2 282 0
 680 0058 7B69     		ldr	r3, [r7, #20]
 681 005a 7A68     		ldr	r2, [r7, #4]
 682 005c 5A61     		str	r2, [r3, #20]
 683 005e 00BF     		nop
 684              	.L32:
 283:..\..\..\lvgl\version_6.1.2\lvgl\src\lv_objx/lv_btn.c ****     }
 284:..\..\..\lvgl\version_6.1.2\lvgl\src\lv_objx/lv_btn.c **** 
 285:..\..\..\lvgl\version_6.1.2\lvgl\src\lv_objx/lv_btn.c ****     /*Refresh the object with the new style*/
 286:..\..\..\lvgl\version_6.1.2\lvgl\src\lv_objx/lv_btn.c ****     lv_obj_set_style(btn, ext->styles[ext->state]);
 685              		.loc 2 286 0
 686 0060 7B69     		ldr	r3, [r7, #20]
 687 0062 1B7E     		ldrb	r3, [r3, #24]
 688 0064 C3F30203 		ubfx	r3, r3, #0, #3
 689 0068 DBB2     		uxtb	r3, r3
 690 006a 7A69     		ldr	r2, [r7, #20]
 691 006c 9B00     		lsls	r3, r3, #2
 692 006e 1344     		add	r3, r3, r2
 693 0070 5B68     		ldr	r3, [r3, #4]
 694 0072 1946     		mov	r1, r3
 695 0074 F868     		ldr	r0, [r7, #12]
 696 0076 FFF7FEFF 		bl	lv_obj_set_style
 287:..\..\..\lvgl\version_6.1.2\lvgl\src\lv_objx/lv_btn.c **** }
 697              		.loc 2 287 0
 698 007a 00BF     		nop
 699 007c 1837     		adds	r7, r7, #24
ARM GAS  C:\Users\tmj32\AppData\Local\Temp\ccKhIVes.s 			page 21


 700              		.cfi_def_cfa_offset 8
 701 007e BD46     		mov	sp, r7
 702              		.cfi_def_cfa_register 13
 703              		@ sp needed
 704 0080 80BD     		pop	{r7, pc}
 705              		.cfi_endproc
 706              	.LFE51:
 707              		.size	lv_btn_set_style, .-lv_btn_set_style
 708 0082 00BF     		.section	.text.lv_btn_get_state,"ax",%progbits
 709              		.align	2
 710              		.global	lv_btn_get_state
 711              		.thumb
 712              		.thumb_func
 713              		.type	lv_btn_get_state, %function
 714              	lv_btn_get_state:
 715              	.LFB52:
 288:..\..\..\lvgl\version_6.1.2\lvgl\src\lv_objx/lv_btn.c **** 
 289:..\..\..\lvgl\version_6.1.2\lvgl\src\lv_objx/lv_btn.c **** /*=====================
 290:..\..\..\lvgl\version_6.1.2\lvgl\src\lv_objx/lv_btn.c ****  * Getter functions
 291:..\..\..\lvgl\version_6.1.2\lvgl\src\lv_objx/lv_btn.c ****  *====================*/
 292:..\..\..\lvgl\version_6.1.2\lvgl\src\lv_objx/lv_btn.c **** 
 293:..\..\..\lvgl\version_6.1.2\lvgl\src\lv_objx/lv_btn.c **** /**
 294:..\..\..\lvgl\version_6.1.2\lvgl\src\lv_objx/lv_btn.c ****  * Get the current state of the button
 295:..\..\..\lvgl\version_6.1.2\lvgl\src\lv_objx/lv_btn.c ****  * @param btn pointer to a button object
 296:..\..\..\lvgl\version_6.1.2\lvgl\src\lv_objx/lv_btn.c ****  * @return the state of the button (from lv_btn_state_t enum)
 297:..\..\..\lvgl\version_6.1.2\lvgl\src\lv_objx/lv_btn.c ****  */
 298:..\..\..\lvgl\version_6.1.2\lvgl\src\lv_objx/lv_btn.c **** lv_btn_state_t lv_btn_get_state(const lv_obj_t * btn)
 299:..\..\..\lvgl\version_6.1.2\lvgl\src\lv_objx/lv_btn.c **** {
 716              		.loc 2 299 0
 717              		.cfi_startproc
 718              		@ args = 0, pretend = 0, frame = 16
 719              		@ frame_needed = 1, uses_anonymous_args = 0
 720 0000 80B5     		push	{r7, lr}
 721              		.cfi_def_cfa_offset 8
 722              		.cfi_offset 7, -8
 723              		.cfi_offset 14, -4
 724 0002 84B0     		sub	sp, sp, #16
 725              		.cfi_def_cfa_offset 24
 726 0004 00AF     		add	r7, sp, #0
 727              		.cfi_def_cfa_register 7
 728 0006 7860     		str	r0, [r7, #4]
 300:..\..\..\lvgl\version_6.1.2\lvgl\src\lv_objx/lv_btn.c ****     LV_ASSERT_OBJ(btn, LV_OBJX_NAME);
 301:..\..\..\lvgl\version_6.1.2\lvgl\src\lv_objx/lv_btn.c **** 
 302:..\..\..\lvgl\version_6.1.2\lvgl\src\lv_objx/lv_btn.c ****     lv_btn_ext_t * ext = lv_obj_get_ext_attr(btn);
 729              		.loc 2 302 0
 730 0008 7868     		ldr	r0, [r7, #4]
 731 000a FFF7FEFF 		bl	lv_obj_get_ext_attr
 732 000e F860     		str	r0, [r7, #12]
 303:..\..\..\lvgl\version_6.1.2\lvgl\src\lv_objx/lv_btn.c ****     return ext->state;
 733              		.loc 2 303 0
 734 0010 FB68     		ldr	r3, [r7, #12]
 735 0012 1B7E     		ldrb	r3, [r3, #24]
 736 0014 C3F30203 		ubfx	r3, r3, #0, #3
 737 0018 DBB2     		uxtb	r3, r3
 304:..\..\..\lvgl\version_6.1.2\lvgl\src\lv_objx/lv_btn.c **** }
 738              		.loc 2 304 0
 739 001a 1846     		mov	r0, r3
ARM GAS  C:\Users\tmj32\AppData\Local\Temp\ccKhIVes.s 			page 22


 740 001c 1037     		adds	r7, r7, #16
 741              		.cfi_def_cfa_offset 8
 742 001e BD46     		mov	sp, r7
 743              		.cfi_def_cfa_register 13
 744              		@ sp needed
 745 0020 80BD     		pop	{r7, pc}
 746              		.cfi_endproc
 747              	.LFE52:
 748              		.size	lv_btn_get_state, .-lv_btn_get_state
 749 0022 00BF     		.section	.text.lv_btn_get_toggle,"ax",%progbits
 750              		.align	2
 751              		.global	lv_btn_get_toggle
 752              		.thumb
 753              		.thumb_func
 754              		.type	lv_btn_get_toggle, %function
 755              	lv_btn_get_toggle:
 756              	.LFB53:
 305:..\..\..\lvgl\version_6.1.2\lvgl\src\lv_objx/lv_btn.c **** 
 306:..\..\..\lvgl\version_6.1.2\lvgl\src\lv_objx/lv_btn.c **** /**
 307:..\..\..\lvgl\version_6.1.2\lvgl\src\lv_objx/lv_btn.c ****  * Get the toggle enable attribute of the button
 308:..\..\..\lvgl\version_6.1.2\lvgl\src\lv_objx/lv_btn.c ****  * @param btn pointer to a button object
 309:..\..\..\lvgl\version_6.1.2\lvgl\src\lv_objx/lv_btn.c ****  * @return true: toggle enabled, false: disabled
 310:..\..\..\lvgl\version_6.1.2\lvgl\src\lv_objx/lv_btn.c ****  */
 311:..\..\..\lvgl\version_6.1.2\lvgl\src\lv_objx/lv_btn.c **** bool lv_btn_get_toggle(const lv_obj_t * btn)
 312:..\..\..\lvgl\version_6.1.2\lvgl\src\lv_objx/lv_btn.c **** {
 757              		.loc 2 312 0
 758              		.cfi_startproc
 759              		@ args = 0, pretend = 0, frame = 16
 760              		@ frame_needed = 1, uses_anonymous_args = 0
 761 0000 80B5     		push	{r7, lr}
 762              		.cfi_def_cfa_offset 8
 763              		.cfi_offset 7, -8
 764              		.cfi_offset 14, -4
 765 0002 84B0     		sub	sp, sp, #16
 766              		.cfi_def_cfa_offset 24
 767 0004 00AF     		add	r7, sp, #0
 768              		.cfi_def_cfa_register 7
 769 0006 7860     		str	r0, [r7, #4]
 313:..\..\..\lvgl\version_6.1.2\lvgl\src\lv_objx/lv_btn.c ****     LV_ASSERT_OBJ(btn, LV_OBJX_NAME);
 314:..\..\..\lvgl\version_6.1.2\lvgl\src\lv_objx/lv_btn.c **** 
 315:..\..\..\lvgl\version_6.1.2\lvgl\src\lv_objx/lv_btn.c ****     lv_btn_ext_t * ext = lv_obj_get_ext_attr(btn);
 770              		.loc 2 315 0
 771 0008 7868     		ldr	r0, [r7, #4]
 772 000a FFF7FEFF 		bl	lv_obj_get_ext_attr
 773 000e F860     		str	r0, [r7, #12]
 316:..\..\..\lvgl\version_6.1.2\lvgl\src\lv_objx/lv_btn.c **** 
 317:..\..\..\lvgl\version_6.1.2\lvgl\src\lv_objx/lv_btn.c ****     return ext->toggle != 0 ? true : false;
 774              		.loc 2 317 0
 775 0010 FB68     		ldr	r3, [r7, #12]
 776 0012 1B7E     		ldrb	r3, [r3, #24]	@ zero_extendqisi2
 777 0014 03F00803 		and	r3, r3, #8
 778 0018 DBB2     		uxtb	r3, r3
 779 001a 002B     		cmp	r3, #0
 780 001c 14BF     		ite	ne
 781 001e 0123     		movne	r3, #1
 782 0020 0023     		moveq	r3, #0
 783 0022 DBB2     		uxtb	r3, r3
ARM GAS  C:\Users\tmj32\AppData\Local\Temp\ccKhIVes.s 			page 23


 318:..\..\..\lvgl\version_6.1.2\lvgl\src\lv_objx/lv_btn.c **** }
 784              		.loc 2 318 0
 785 0024 1846     		mov	r0, r3
 786 0026 1037     		adds	r7, r7, #16
 787              		.cfi_def_cfa_offset 8
 788 0028 BD46     		mov	sp, r7
 789              		.cfi_def_cfa_register 13
 790              		@ sp needed
 791 002a 80BD     		pop	{r7, pc}
 792              		.cfi_endproc
 793              	.LFE53:
 794              		.size	lv_btn_get_toggle, .-lv_btn_get_toggle
 795              		.section	.text.lv_btn_get_ink_in_time,"ax",%progbits
 796              		.align	2
 797              		.global	lv_btn_get_ink_in_time
 798              		.thumb
 799              		.thumb_func
 800              		.type	lv_btn_get_ink_in_time, %function
 801              	lv_btn_get_ink_in_time:
 802              	.LFB54:
 319:..\..\..\lvgl\version_6.1.2\lvgl\src\lv_objx/lv_btn.c **** 
 320:..\..\..\lvgl\version_6.1.2\lvgl\src\lv_objx/lv_btn.c **** /**
 321:..\..\..\lvgl\version_6.1.2\lvgl\src\lv_objx/lv_btn.c ****  * Get time of the ink in effect (draw a circle on click to animate in the new state)
 322:..\..\..\lvgl\version_6.1.2\lvgl\src\lv_objx/lv_btn.c ****  * @param btn pointer to a button object
 323:..\..\..\lvgl\version_6.1.2\lvgl\src\lv_objx/lv_btn.c ****  * @return the time of the ink animation
 324:..\..\..\lvgl\version_6.1.2\lvgl\src\lv_objx/lv_btn.c ****  */
 325:..\..\..\lvgl\version_6.1.2\lvgl\src\lv_objx/lv_btn.c **** uint16_t lv_btn_get_ink_in_time(const lv_obj_t * btn)
 326:..\..\..\lvgl\version_6.1.2\lvgl\src\lv_objx/lv_btn.c **** {
 803              		.loc 2 326 0
 804              		.cfi_startproc
 805              		@ args = 0, pretend = 0, frame = 8
 806              		@ frame_needed = 1, uses_anonymous_args = 0
 807              		@ link register save eliminated.
 808 0000 80B4     		push	{r7}
 809              		.cfi_def_cfa_offset 4
 810              		.cfi_offset 7, -4
 811 0002 83B0     		sub	sp, sp, #12
 812              		.cfi_def_cfa_offset 16
 813 0004 00AF     		add	r7, sp, #0
 814              		.cfi_def_cfa_register 7
 815 0006 7860     		str	r0, [r7, #4]
 327:..\..\..\lvgl\version_6.1.2\lvgl\src\lv_objx/lv_btn.c ****     LV_ASSERT_OBJ(btn, LV_OBJX_NAME);
 328:..\..\..\lvgl\version_6.1.2\lvgl\src\lv_objx/lv_btn.c **** 
 329:..\..\..\lvgl\version_6.1.2\lvgl\src\lv_objx/lv_btn.c **** #if LV_USE_ANIMATION && LV_BTN_INK_EFFECT
 330:..\..\..\lvgl\version_6.1.2\lvgl\src\lv_objx/lv_btn.c ****     lv_btn_ext_t * ext = lv_obj_get_ext_attr(btn);
 331:..\..\..\lvgl\version_6.1.2\lvgl\src\lv_objx/lv_btn.c ****     return ext->ink_in_time;
 332:..\..\..\lvgl\version_6.1.2\lvgl\src\lv_objx/lv_btn.c **** #else
 333:..\..\..\lvgl\version_6.1.2\lvgl\src\lv_objx/lv_btn.c ****     (void)btn; /*Unused*/
 334:..\..\..\lvgl\version_6.1.2\lvgl\src\lv_objx/lv_btn.c ****     return 0;
 816              		.loc 2 334 0
 817 0008 0023     		movs	r3, #0
 335:..\..\..\lvgl\version_6.1.2\lvgl\src\lv_objx/lv_btn.c **** #endif
 336:..\..\..\lvgl\version_6.1.2\lvgl\src\lv_objx/lv_btn.c **** }
 818              		.loc 2 336 0
 819 000a 1846     		mov	r0, r3
 820 000c 0C37     		adds	r7, r7, #12
 821              		.cfi_def_cfa_offset 4
ARM GAS  C:\Users\tmj32\AppData\Local\Temp\ccKhIVes.s 			page 24


 822 000e BD46     		mov	sp, r7
 823              		.cfi_def_cfa_register 13
 824              		@ sp needed
 825 0010 5DF8047B 		ldr	r7, [sp], #4
 826              		.cfi_restore 7
 827              		.cfi_def_cfa_offset 0
 828 0014 7047     		bx	lr
 829              		.cfi_endproc
 830              	.LFE54:
 831              		.size	lv_btn_get_ink_in_time, .-lv_btn_get_ink_in_time
 832 0016 00BF     		.section	.text.lv_btn_get_ink_wait_time,"ax",%progbits
 833              		.align	2
 834              		.global	lv_btn_get_ink_wait_time
 835              		.thumb
 836              		.thumb_func
 837              		.type	lv_btn_get_ink_wait_time, %function
 838              	lv_btn_get_ink_wait_time:
 839              	.LFB55:
 337:..\..\..\lvgl\version_6.1.2\lvgl\src\lv_objx/lv_btn.c **** 
 338:..\..\..\lvgl\version_6.1.2\lvgl\src\lv_objx/lv_btn.c **** /**
 339:..\..\..\lvgl\version_6.1.2\lvgl\src\lv_objx/lv_btn.c ****  * Get the wait time before the ink disappears
 340:..\..\..\lvgl\version_6.1.2\lvgl\src\lv_objx/lv_btn.c ****  * @param btn pointer to a button object
 341:..\..\..\lvgl\version_6.1.2\lvgl\src\lv_objx/lv_btn.c ****  * @return the time of the ink animation
 342:..\..\..\lvgl\version_6.1.2\lvgl\src\lv_objx/lv_btn.c ****  */
 343:..\..\..\lvgl\version_6.1.2\lvgl\src\lv_objx/lv_btn.c **** uint16_t lv_btn_get_ink_wait_time(const lv_obj_t * btn)
 344:..\..\..\lvgl\version_6.1.2\lvgl\src\lv_objx/lv_btn.c **** {
 840              		.loc 2 344 0
 841              		.cfi_startproc
 842              		@ args = 0, pretend = 0, frame = 8
 843              		@ frame_needed = 1, uses_anonymous_args = 0
 844              		@ link register save eliminated.
 845 0000 80B4     		push	{r7}
 846              		.cfi_def_cfa_offset 4
 847              		.cfi_offset 7, -4
 848 0002 83B0     		sub	sp, sp, #12
 849              		.cfi_def_cfa_offset 16
 850 0004 00AF     		add	r7, sp, #0
 851              		.cfi_def_cfa_register 7
 852 0006 7860     		str	r0, [r7, #4]
 345:..\..\..\lvgl\version_6.1.2\lvgl\src\lv_objx/lv_btn.c ****     LV_ASSERT_OBJ(btn, LV_OBJX_NAME);
 346:..\..\..\lvgl\version_6.1.2\lvgl\src\lv_objx/lv_btn.c **** 
 347:..\..\..\lvgl\version_6.1.2\lvgl\src\lv_objx/lv_btn.c **** #if LV_USE_ANIMATION && LV_BTN_INK_EFFECT
 348:..\..\..\lvgl\version_6.1.2\lvgl\src\lv_objx/lv_btn.c ****     lv_btn_ext_t * ext = lv_obj_get_ext_attr(btn);
 349:..\..\..\lvgl\version_6.1.2\lvgl\src\lv_objx/lv_btn.c ****     return ext->ink_wait_time;
 350:..\..\..\lvgl\version_6.1.2\lvgl\src\lv_objx/lv_btn.c **** #else
 351:..\..\..\lvgl\version_6.1.2\lvgl\src\lv_objx/lv_btn.c ****     (void)btn; /*Unused*/
 352:..\..\..\lvgl\version_6.1.2\lvgl\src\lv_objx/lv_btn.c ****     return 0;
 853              		.loc 2 352 0
 854 0008 0023     		movs	r3, #0
 353:..\..\..\lvgl\version_6.1.2\lvgl\src\lv_objx/lv_btn.c **** #endif
 354:..\..\..\lvgl\version_6.1.2\lvgl\src\lv_objx/lv_btn.c **** }
 855              		.loc 2 354 0
 856 000a 1846     		mov	r0, r3
 857 000c 0C37     		adds	r7, r7, #12
 858              		.cfi_def_cfa_offset 4
 859 000e BD46     		mov	sp, r7
 860              		.cfi_def_cfa_register 13
ARM GAS  C:\Users\tmj32\AppData\Local\Temp\ccKhIVes.s 			page 25


 861              		@ sp needed
 862 0010 5DF8047B 		ldr	r7, [sp], #4
 863              		.cfi_restore 7
 864              		.cfi_def_cfa_offset 0
 865 0014 7047     		bx	lr
 866              		.cfi_endproc
 867              	.LFE55:
 868              		.size	lv_btn_get_ink_wait_time, .-lv_btn_get_ink_wait_time
 869 0016 00BF     		.section	.text.lv_btn_get_ink_out_time,"ax",%progbits
 870              		.align	2
 871              		.global	lv_btn_get_ink_out_time
 872              		.thumb
 873              		.thumb_func
 874              		.type	lv_btn_get_ink_out_time, %function
 875              	lv_btn_get_ink_out_time:
 876              	.LFB56:
 355:..\..\..\lvgl\version_6.1.2\lvgl\src\lv_objx/lv_btn.c **** /**
 356:..\..\..\lvgl\version_6.1.2\lvgl\src\lv_objx/lv_btn.c ****  * Get time of the ink out effect (animate to the releases state)
 357:..\..\..\lvgl\version_6.1.2\lvgl\src\lv_objx/lv_btn.c ****  * @param btn pointer to a button object
 358:..\..\..\lvgl\version_6.1.2\lvgl\src\lv_objx/lv_btn.c ****  * @return the time of the ink animation
 359:..\..\..\lvgl\version_6.1.2\lvgl\src\lv_objx/lv_btn.c ****  */
 360:..\..\..\lvgl\version_6.1.2\lvgl\src\lv_objx/lv_btn.c **** uint16_t lv_btn_get_ink_out_time(const lv_obj_t * btn)
 361:..\..\..\lvgl\version_6.1.2\lvgl\src\lv_objx/lv_btn.c **** {
 877              		.loc 2 361 0
 878              		.cfi_startproc
 879              		@ args = 0, pretend = 0, frame = 8
 880              		@ frame_needed = 1, uses_anonymous_args = 0
 881              		@ link register save eliminated.
 882 0000 80B4     		push	{r7}
 883              		.cfi_def_cfa_offset 4
 884              		.cfi_offset 7, -4
 885 0002 83B0     		sub	sp, sp, #12
 886              		.cfi_def_cfa_offset 16
 887 0004 00AF     		add	r7, sp, #0
 888              		.cfi_def_cfa_register 7
 889 0006 7860     		str	r0, [r7, #4]
 362:..\..\..\lvgl\version_6.1.2\lvgl\src\lv_objx/lv_btn.c ****     LV_ASSERT_OBJ(btn, LV_OBJX_NAME);
 363:..\..\..\lvgl\version_6.1.2\lvgl\src\lv_objx/lv_btn.c **** 
 364:..\..\..\lvgl\version_6.1.2\lvgl\src\lv_objx/lv_btn.c **** #if LV_USE_ANIMATION && LV_BTN_INK_EFFECT
 365:..\..\..\lvgl\version_6.1.2\lvgl\src\lv_objx/lv_btn.c ****     lv_btn_ext_t * ext = lv_obj_get_ext_attr(btn);
 366:..\..\..\lvgl\version_6.1.2\lvgl\src\lv_objx/lv_btn.c ****     return ext->ink_out_time;
 367:..\..\..\lvgl\version_6.1.2\lvgl\src\lv_objx/lv_btn.c **** #else
 368:..\..\..\lvgl\version_6.1.2\lvgl\src\lv_objx/lv_btn.c ****     (void)btn; /*Unused*/
 369:..\..\..\lvgl\version_6.1.2\lvgl\src\lv_objx/lv_btn.c ****     return 0;
 890              		.loc 2 369 0
 891 0008 0023     		movs	r3, #0
 370:..\..\..\lvgl\version_6.1.2\lvgl\src\lv_objx/lv_btn.c **** #endif
 371:..\..\..\lvgl\version_6.1.2\lvgl\src\lv_objx/lv_btn.c **** }
 892              		.loc 2 371 0
 893 000a 1846     		mov	r0, r3
 894 000c 0C37     		adds	r7, r7, #12
 895              		.cfi_def_cfa_offset 4
 896 000e BD46     		mov	sp, r7
 897              		.cfi_def_cfa_register 13
 898              		@ sp needed
 899 0010 5DF8047B 		ldr	r7, [sp], #4
 900              		.cfi_restore 7
ARM GAS  C:\Users\tmj32\AppData\Local\Temp\ccKhIVes.s 			page 26


 901              		.cfi_def_cfa_offset 0
 902 0014 7047     		bx	lr
 903              		.cfi_endproc
 904              	.LFE56:
 905              		.size	lv_btn_get_ink_out_time, .-lv_btn_get_ink_out_time
 906 0016 00BF     		.section	.text.lv_btn_get_style,"ax",%progbits
 907              		.align	2
 908              		.global	lv_btn_get_style
 909              		.thumb
 910              		.thumb_func
 911              		.type	lv_btn_get_style, %function
 912              	lv_btn_get_style:
 913              	.LFB57:
 372:..\..\..\lvgl\version_6.1.2\lvgl\src\lv_objx/lv_btn.c **** 
 373:..\..\..\lvgl\version_6.1.2\lvgl\src\lv_objx/lv_btn.c **** /**
 374:..\..\..\lvgl\version_6.1.2\lvgl\src\lv_objx/lv_btn.c ****  * Get a style of a button
 375:..\..\..\lvgl\version_6.1.2\lvgl\src\lv_objx/lv_btn.c ****  * @param btn pointer to a button object
 376:..\..\..\lvgl\version_6.1.2\lvgl\src\lv_objx/lv_btn.c ****  * @param type which style should be get
 377:..\..\..\lvgl\version_6.1.2\lvgl\src\lv_objx/lv_btn.c ****  * @return style pointer to a style
 378:..\..\..\lvgl\version_6.1.2\lvgl\src\lv_objx/lv_btn.c ****  */
 379:..\..\..\lvgl\version_6.1.2\lvgl\src\lv_objx/lv_btn.c **** const lv_style_t * lv_btn_get_style(const lv_obj_t * btn, lv_btn_style_t type)
 380:..\..\..\lvgl\version_6.1.2\lvgl\src\lv_objx/lv_btn.c **** {
 914              		.loc 2 380 0
 915              		.cfi_startproc
 916              		@ args = 0, pretend = 0, frame = 24
 917              		@ frame_needed = 1, uses_anonymous_args = 0
 918 0000 80B5     		push	{r7, lr}
 919              		.cfi_def_cfa_offset 8
 920              		.cfi_offset 7, -8
 921              		.cfi_offset 14, -4
 922 0002 86B0     		sub	sp, sp, #24
 923              		.cfi_def_cfa_offset 32
 924 0004 00AF     		add	r7, sp, #0
 925              		.cfi_def_cfa_register 7
 926 0006 7860     		str	r0, [r7, #4]
 927 0008 0B46     		mov	r3, r1
 928 000a FB70     		strb	r3, [r7, #3]
 381:..\..\..\lvgl\version_6.1.2\lvgl\src\lv_objx/lv_btn.c ****     LV_ASSERT_OBJ(btn, LV_OBJX_NAME);
 382:..\..\..\lvgl\version_6.1.2\lvgl\src\lv_objx/lv_btn.c **** 
 383:..\..\..\lvgl\version_6.1.2\lvgl\src\lv_objx/lv_btn.c ****     const lv_style_t * style = NULL;
 929              		.loc 2 383 0
 930 000c 0023     		movs	r3, #0
 931 000e 7B61     		str	r3, [r7, #20]
 384:..\..\..\lvgl\version_6.1.2\lvgl\src\lv_objx/lv_btn.c ****     lv_btn_ext_t * ext       = lv_obj_get_ext_attr(btn);
 932              		.loc 2 384 0
 933 0010 7868     		ldr	r0, [r7, #4]
 934 0012 FFF7FEFF 		bl	lv_obj_get_ext_attr
 935 0016 3861     		str	r0, [r7, #16]
 385:..\..\..\lvgl\version_6.1.2\lvgl\src\lv_objx/lv_btn.c ****     lv_btn_state_t state     = lv_btn_get_state(btn);
 936              		.loc 2 385 0
 937 0018 7868     		ldr	r0, [r7, #4]
 938 001a FFF7FEFF 		bl	lv_btn_get_state
 939 001e 0346     		mov	r3, r0
 940 0020 FB73     		strb	r3, [r7, #15]
 386:..\..\..\lvgl\version_6.1.2\lvgl\src\lv_objx/lv_btn.c **** 
 387:..\..\..\lvgl\version_6.1.2\lvgl\src\lv_objx/lv_btn.c ****     /* If the style of the current state is asked then return object style.
 388:..\..\..\lvgl\version_6.1.2\lvgl\src\lv_objx/lv_btn.c ****      * If the button is focused then this style is updated by the group's
ARM GAS  C:\Users\tmj32\AppData\Local\Temp\ccKhIVes.s 			page 27


 389:..\..\..\lvgl\version_6.1.2\lvgl\src\lv_objx/lv_btn.c ****      * `style_mod_cb` function */
 390:..\..\..\lvgl\version_6.1.2\lvgl\src\lv_objx/lv_btn.c ****     if((type == LV_BTN_STYLE_REL && state == LV_BTN_STATE_REL) ||
 941              		.loc 2 390 0
 942 0022 FB78     		ldrb	r3, [r7, #3]	@ zero_extendqisi2
 943 0024 002B     		cmp	r3, #0
 944 0026 02D1     		bne	.L50
 945              		.loc 2 390 0 is_stmt 0 discriminator 1
 946 0028 FB7B     		ldrb	r3, [r7, #15]	@ zero_extendqisi2
 947 002a 002B     		cmp	r3, #0
 948 002c 17D0     		beq	.L51
 949              	.L50:
 950              		.loc 2 390 0 discriminator 3
 951 002e FB78     		ldrb	r3, [r7, #3]	@ zero_extendqisi2
 952 0030 012B     		cmp	r3, #1
 953 0032 02D1     		bne	.L52
 391:..\..\..\lvgl\version_6.1.2\lvgl\src\lv_objx/lv_btn.c ****        (type == LV_BTN_STYLE_PR && state == LV_BTN_STATE_PR) ||
 954              		.loc 2 391 0 is_stmt 1
 955 0034 FB7B     		ldrb	r3, [r7, #15]	@ zero_extendqisi2
 956 0036 012B     		cmp	r3, #1
 957 0038 11D0     		beq	.L51
 958              	.L52:
 959              		.loc 2 391 0 is_stmt 0 discriminator 1
 960 003a FB78     		ldrb	r3, [r7, #3]	@ zero_extendqisi2
 961 003c 022B     		cmp	r3, #2
 962 003e 02D1     		bne	.L53
 392:..\..\..\lvgl\version_6.1.2\lvgl\src\lv_objx/lv_btn.c ****        (type == LV_BTN_STYLE_TGL_REL && state == LV_BTN_STATE_TGL_REL) ||
 963              		.loc 2 392 0 is_stmt 1
 964 0040 FB7B     		ldrb	r3, [r7, #15]	@ zero_extendqisi2
 965 0042 022B     		cmp	r3, #2
 966 0044 0BD0     		beq	.L51
 967              	.L53:
 968              		.loc 2 392 0 is_stmt 0 discriminator 1
 969 0046 FB78     		ldrb	r3, [r7, #3]	@ zero_extendqisi2
 970 0048 032B     		cmp	r3, #3
 971 004a 02D1     		bne	.L54
 393:..\..\..\lvgl\version_6.1.2\lvgl\src\lv_objx/lv_btn.c ****        (type == LV_BTN_STYLE_TGL_PR && state == LV_BTN_STATE_TGL_PR) ||
 972              		.loc 2 393 0 is_stmt 1
 973 004c FB7B     		ldrb	r3, [r7, #15]	@ zero_extendqisi2
 974 004e 032B     		cmp	r3, #3
 975 0050 05D0     		beq	.L51
 976              	.L54:
 977              		.loc 2 393 0 is_stmt 0 discriminator 1
 978 0052 FB78     		ldrb	r3, [r7, #3]	@ zero_extendqisi2
 979 0054 042B     		cmp	r3, #4
 980 0056 07D1     		bne	.L55
 394:..\..\..\lvgl\version_6.1.2\lvgl\src\lv_objx/lv_btn.c ****        (type == LV_BTN_STYLE_INA && state == LV_BTN_STATE_INA)) {
 981              		.loc 2 394 0 is_stmt 1
 982 0058 FB7B     		ldrb	r3, [r7, #15]	@ zero_extendqisi2
 983 005a 042B     		cmp	r3, #4
 984 005c 04D1     		bne	.L55
 985              	.L51:
 395:..\..\..\lvgl\version_6.1.2\lvgl\src\lv_objx/lv_btn.c **** 
 396:..\..\..\lvgl\version_6.1.2\lvgl\src\lv_objx/lv_btn.c ****         style = lv_obj_get_style(btn);
 986              		.loc 2 396 0
 987 005e 7868     		ldr	r0, [r7, #4]
 988 0060 FFF7FEFF 		bl	lv_obj_get_style
 989 0064 7861     		str	r0, [r7, #20]
ARM GAS  C:\Users\tmj32\AppData\Local\Temp\ccKhIVes.s 			page 28


 990 0066 26E0     		b	.L56
 991              	.L55:
 397:..\..\..\lvgl\version_6.1.2\lvgl\src\lv_objx/lv_btn.c ****     } else {
 398:..\..\..\lvgl\version_6.1.2\lvgl\src\lv_objx/lv_btn.c ****         switch(type) {
 992              		.loc 2 398 0
 993 0068 FB78     		ldrb	r3, [r7, #3]	@ zero_extendqisi2
 994 006a 042B     		cmp	r3, #4
 995 006c 20D8     		bhi	.L57
 996 006e 01A2     		adr	r2, .L59
 997 0070 52F823F0 		ldr	pc, [r2, r3, lsl #2]
 998              		.p2align 2
 999              	.L59:
 1000 0074 89000000 		.word	.L58+1
 1001 0078 91000000 		.word	.L60+1
 1002 007c 99000000 		.word	.L61+1
 1003 0080 A1000000 		.word	.L62+1
 1004 0084 A9000000 		.word	.L63+1
 1005              		.p2align 1
 1006              	.L58:
 399:..\..\..\lvgl\version_6.1.2\lvgl\src\lv_objx/lv_btn.c ****             case LV_BTN_STYLE_REL: style = ext->styles[LV_BTN_STATE_REL]; break;
 1007              		.loc 2 399 0
 1008 0088 3B69     		ldr	r3, [r7, #16]
 1009 008a 5B68     		ldr	r3, [r3, #4]
 1010 008c 7B61     		str	r3, [r7, #20]
 1011 008e 12E0     		b	.L56
 1012              	.L60:
 400:..\..\..\lvgl\version_6.1.2\lvgl\src\lv_objx/lv_btn.c ****             case LV_BTN_STYLE_PR: style = ext->styles[LV_BTN_STATE_PR]; break;
 1013              		.loc 2 400 0
 1014 0090 3B69     		ldr	r3, [r7, #16]
 1015 0092 9B68     		ldr	r3, [r3, #8]
 1016 0094 7B61     		str	r3, [r7, #20]
 1017 0096 0EE0     		b	.L56
 1018              	.L61:
 401:..\..\..\lvgl\version_6.1.2\lvgl\src\lv_objx/lv_btn.c ****             case LV_BTN_STYLE_TGL_REL: style = ext->styles[LV_BTN_STATE_TGL_REL]; break;
 1019              		.loc 2 401 0
 1020 0098 3B69     		ldr	r3, [r7, #16]
 1021 009a DB68     		ldr	r3, [r3, #12]
 1022 009c 7B61     		str	r3, [r7, #20]
 1023 009e 0AE0     		b	.L56
 1024              	.L62:
 402:..\..\..\lvgl\version_6.1.2\lvgl\src\lv_objx/lv_btn.c ****             case LV_BTN_STYLE_TGL_PR: style = ext->styles[LV_BTN_STATE_TGL_PR]; break;
 1025              		.loc 2 402 0
 1026 00a0 3B69     		ldr	r3, [r7, #16]
 1027 00a2 1B69     		ldr	r3, [r3, #16]
 1028 00a4 7B61     		str	r3, [r7, #20]
 1029 00a6 06E0     		b	.L56
 1030              	.L63:
 403:..\..\..\lvgl\version_6.1.2\lvgl\src\lv_objx/lv_btn.c ****             case LV_BTN_STYLE_INA: style = ext->styles[LV_BTN_STATE_INA]; break;
 1031              		.loc 2 403 0
 1032 00a8 3B69     		ldr	r3, [r7, #16]
 1033 00aa 5B69     		ldr	r3, [r3, #20]
 1034 00ac 7B61     		str	r3, [r7, #20]
 1035 00ae 02E0     		b	.L56
 1036              	.L57:
 404:..\..\..\lvgl\version_6.1.2\lvgl\src\lv_objx/lv_btn.c ****             default: style = NULL; break;
 1037              		.loc 2 404 0
 1038 00b0 0023     		movs	r3, #0
ARM GAS  C:\Users\tmj32\AppData\Local\Temp\ccKhIVes.s 			page 29


 1039 00b2 7B61     		str	r3, [r7, #20]
 1040 00b4 00BF     		nop
 1041              	.L56:
 405:..\..\..\lvgl\version_6.1.2\lvgl\src\lv_objx/lv_btn.c ****         }
 406:..\..\..\lvgl\version_6.1.2\lvgl\src\lv_objx/lv_btn.c ****     }
 407:..\..\..\lvgl\version_6.1.2\lvgl\src\lv_objx/lv_btn.c **** 
 408:..\..\..\lvgl\version_6.1.2\lvgl\src\lv_objx/lv_btn.c ****     return style;
 1042              		.loc 2 408 0
 1043 00b6 7B69     		ldr	r3, [r7, #20]
 409:..\..\..\lvgl\version_6.1.2\lvgl\src\lv_objx/lv_btn.c **** }
 1044              		.loc 2 409 0
 1045 00b8 1846     		mov	r0, r3
 1046 00ba 1837     		adds	r7, r7, #24
 1047              		.cfi_def_cfa_offset 8
 1048 00bc BD46     		mov	sp, r7
 1049              		.cfi_def_cfa_register 13
 1050              		@ sp needed
 1051 00be 80BD     		pop	{r7, pc}
 1052              		.cfi_endproc
 1053              	.LFE57:
 1054              		.size	lv_btn_get_style, .-lv_btn_get_style
 1055              		.section	.text.lv_btn_design,"ax",%progbits
 1056              		.align	2
 1057              		.thumb
 1058              		.thumb_func
 1059              		.type	lv_btn_design, %function
 1060              	lv_btn_design:
 1061              	.LFB58:
 410:..\..\..\lvgl\version_6.1.2\lvgl\src\lv_objx/lv_btn.c **** 
 411:..\..\..\lvgl\version_6.1.2\lvgl\src\lv_objx/lv_btn.c **** /**********************
 412:..\..\..\lvgl\version_6.1.2\lvgl\src\lv_objx/lv_btn.c ****  *   STATIC FUNCTIONS
 413:..\..\..\lvgl\version_6.1.2\lvgl\src\lv_objx/lv_btn.c ****  **********************/
 414:..\..\..\lvgl\version_6.1.2\lvgl\src\lv_objx/lv_btn.c **** 
 415:..\..\..\lvgl\version_6.1.2\lvgl\src\lv_objx/lv_btn.c **** /**
 416:..\..\..\lvgl\version_6.1.2\lvgl\src\lv_objx/lv_btn.c ****  * Handle the drawing related tasks of the drop down lists
 417:..\..\..\lvgl\version_6.1.2\lvgl\src\lv_objx/lv_btn.c ****  * @param btn pointer to an object
 418:..\..\..\lvgl\version_6.1.2\lvgl\src\lv_objx/lv_btn.c ****  * @param mask the object will be drawn only in this area
 419:..\..\..\lvgl\version_6.1.2\lvgl\src\lv_objx/lv_btn.c ****  * @param mode LV_DESIGN_COVER_CHK: only check if the object fully covers the 'mask_p' area
 420:..\..\..\lvgl\version_6.1.2\lvgl\src\lv_objx/lv_btn.c ****  *                                  (return 'true' if yes)
 421:..\..\..\lvgl\version_6.1.2\lvgl\src\lv_objx/lv_btn.c ****  *             LV_DESIGN_DRAW: draw the object (always return 'true')
 422:..\..\..\lvgl\version_6.1.2\lvgl\src\lv_objx/lv_btn.c ****  *             LV_DESIGN_DRAW_POST: drawing after every children are drawn
 423:..\..\..\lvgl\version_6.1.2\lvgl\src\lv_objx/lv_btn.c ****  * @param return true/false, depends on 'mode'
 424:..\..\..\lvgl\version_6.1.2\lvgl\src\lv_objx/lv_btn.c ****  */
 425:..\..\..\lvgl\version_6.1.2\lvgl\src\lv_objx/lv_btn.c **** static bool lv_btn_design(lv_obj_t * btn, const lv_area_t * mask, lv_design_mode_t mode)
 426:..\..\..\lvgl\version_6.1.2\lvgl\src\lv_objx/lv_btn.c **** {
 1062              		.loc 2 426 0
 1063              		.cfi_startproc
 1064              		@ args = 0, pretend = 0, frame = 16
 1065              		@ frame_needed = 1, uses_anonymous_args = 0
 1066 0000 80B5     		push	{r7, lr}
 1067              		.cfi_def_cfa_offset 8
 1068              		.cfi_offset 7, -8
 1069              		.cfi_offset 14, -4
 1070 0002 84B0     		sub	sp, sp, #16
 1071              		.cfi_def_cfa_offset 24
 1072 0004 00AF     		add	r7, sp, #0
 1073              		.cfi_def_cfa_register 7
ARM GAS  C:\Users\tmj32\AppData\Local\Temp\ccKhIVes.s 			page 30


 1074 0006 F860     		str	r0, [r7, #12]
 1075 0008 B960     		str	r1, [r7, #8]
 1076 000a 1346     		mov	r3, r2
 1077 000c FB71     		strb	r3, [r7, #7]
 427:..\..\..\lvgl\version_6.1.2\lvgl\src\lv_objx/lv_btn.c ****     if(mode == LV_DESIGN_COVER_CHK) {
 1078              		.loc 2 427 0
 1079 000e FB79     		ldrb	r3, [r7, #7]	@ zero_extendqisi2
 1080 0010 022B     		cmp	r3, #2
 1081 0012 01D1     		bne	.L66
 428:..\..\..\lvgl\version_6.1.2\lvgl\src\lv_objx/lv_btn.c ****         return false;
 1082              		.loc 2 428 0
 1083 0014 0023     		movs	r3, #0
 1084 0016 13E0     		b	.L67
 1085              	.L66:
 429:..\..\..\lvgl\version_6.1.2\lvgl\src\lv_objx/lv_btn.c ****     } else if(mode == LV_DESIGN_DRAW_MAIN) {
 1086              		.loc 2 429 0
 1087 0018 FB79     		ldrb	r3, [r7, #7]	@ zero_extendqisi2
 1088 001a 002B     		cmp	r3, #0
 1089 001c 06D1     		bne	.L68
 430:..\..\..\lvgl\version_6.1.2\lvgl\src\lv_objx/lv_btn.c **** 
 431:..\..\..\lvgl\version_6.1.2\lvgl\src\lv_objx/lv_btn.c **** #if LV_USE_ANIMATION && LV_BTN_INK_EFFECT
 432:..\..\..\lvgl\version_6.1.2\lvgl\src\lv_objx/lv_btn.c ****         if(btn != ink_obj) {
 433:..\..\..\lvgl\version_6.1.2\lvgl\src\lv_objx/lv_btn.c ****             ancestor_design(btn, mask, mode);
 434:..\..\..\lvgl\version_6.1.2\lvgl\src\lv_objx/lv_btn.c ****         } else {
 435:..\..\..\lvgl\version_6.1.2\lvgl\src\lv_objx/lv_btn.c ****             lv_opa_t opa_scale = lv_obj_get_opa_scale(btn);
 436:..\..\..\lvgl\version_6.1.2\lvgl\src\lv_objx/lv_btn.c ****             lv_btn_ext_t * ext = lv_obj_get_ext_attr(btn);
 437:..\..\..\lvgl\version_6.1.2\lvgl\src\lv_objx/lv_btn.c **** 
 438:..\..\..\lvgl\version_6.1.2\lvgl\src\lv_objx/lv_btn.c ****             /*Draw the normal button*/
 439:..\..\..\lvgl\version_6.1.2\lvgl\src\lv_objx/lv_btn.c ****             if(ink_playback == false) {
 440:..\..\..\lvgl\version_6.1.2\lvgl\src\lv_objx/lv_btn.c ****                 lv_style_t style_tmp;
 441:..\..\..\lvgl\version_6.1.2\lvgl\src\lv_objx/lv_btn.c ****                 lv_style_copy(&style_tmp, ext->styles[ink_bg_state]);
 442:..\..\..\lvgl\version_6.1.2\lvgl\src\lv_objx/lv_btn.c ****                 style_tmp.body.shadow.width = ext->styles[ink_top_state]->body.shadow.width;
 443:..\..\..\lvgl\version_6.1.2\lvgl\src\lv_objx/lv_btn.c ****                 lv_draw_rect(&btn->coords, mask, &style_tmp, opa_scale);
 444:..\..\..\lvgl\version_6.1.2\lvgl\src\lv_objx/lv_btn.c **** 
 445:..\..\..\lvgl\version_6.1.2\lvgl\src\lv_objx/lv_btn.c ****                 lv_coord_t w     = lv_obj_get_width(btn);
 446:..\..\..\lvgl\version_6.1.2\lvgl\src\lv_objx/lv_btn.c ****                 lv_coord_t h     = lv_obj_get_height(btn);
 447:..\..\..\lvgl\version_6.1.2\lvgl\src\lv_objx/lv_btn.c ****                 lv_coord_t r_max = LV_MATH_MIN(w, h) / 2;
 448:..\..\..\lvgl\version_6.1.2\lvgl\src\lv_objx/lv_btn.c **** 
 449:..\..\..\lvgl\version_6.1.2\lvgl\src\lv_objx/lv_btn.c ****                 /*In the first part of the animation increase the size of the circle (ink effect) *
 450:..\..\..\lvgl\version_6.1.2\lvgl\src\lv_objx/lv_btn.c ****                 lv_area_t cir_area;
 451:..\..\..\lvgl\version_6.1.2\lvgl\src\lv_objx/lv_btn.c **** 
 452:..\..\..\lvgl\version_6.1.2\lvgl\src\lv_objx/lv_btn.c ****                 lv_coord_t coord_state =
 453:..\..\..\lvgl\version_6.1.2\lvgl\src\lv_objx/lv_btn.c ****                     ink_act_value < LV_BTN_INK_VALUE_MAX / 2 ? ink_act_value : LV_BTN_INK_VALUE_MAX
 454:..\..\..\lvgl\version_6.1.2\lvgl\src\lv_objx/lv_btn.c ****                 lv_point_t p_act;
 455:..\..\..\lvgl\version_6.1.2\lvgl\src\lv_objx/lv_btn.c ****                 p_act.x          = ink_point.x;
 456:..\..\..\lvgl\version_6.1.2\lvgl\src\lv_objx/lv_btn.c ****                 p_act.y          = ink_point.y;
 457:..\..\..\lvgl\version_6.1.2\lvgl\src\lv_objx/lv_btn.c ****                 lv_coord_t x_err = (btn->coords.x1 + w / 2) - p_act.x;
 458:..\..\..\lvgl\version_6.1.2\lvgl\src\lv_objx/lv_btn.c ****                 lv_coord_t y_err = (btn->coords.y1 + h / 2) - p_act.y;
 459:..\..\..\lvgl\version_6.1.2\lvgl\src\lv_objx/lv_btn.c **** 
 460:..\..\..\lvgl\version_6.1.2\lvgl\src\lv_objx/lv_btn.c ****                 p_act.x += (x_err * coord_state) >> (LV_BTN_INK_VALUE_MAX_SHIFT - 1);
 461:..\..\..\lvgl\version_6.1.2\lvgl\src\lv_objx/lv_btn.c ****                 p_act.y += (y_err * coord_state) >> (LV_BTN_INK_VALUE_MAX_SHIFT - 1);
 462:..\..\..\lvgl\version_6.1.2\lvgl\src\lv_objx/lv_btn.c **** 
 463:..\..\..\lvgl\version_6.1.2\lvgl\src\lv_objx/lv_btn.c ****                 lv_coord_t half_side = LV_MATH_MAX(w, h) / 2;
 464:..\..\..\lvgl\version_6.1.2\lvgl\src\lv_objx/lv_btn.c ****                 cir_area.x1          = p_act.x - ((half_side * coord_state) >> (LV_BTN_INK_VALUE_MA
 465:..\..\..\lvgl\version_6.1.2\lvgl\src\lv_objx/lv_btn.c ****                 cir_area.y1          = p_act.y - ((half_side * coord_state) >> (LV_BTN_INK_VALUE_MA
 466:..\..\..\lvgl\version_6.1.2\lvgl\src\lv_objx/lv_btn.c ****                 cir_area.x2          = p_act.x + ((half_side * coord_state) >> (LV_BTN_INK_VALUE_MA
 467:..\..\..\lvgl\version_6.1.2\lvgl\src\lv_objx/lv_btn.c ****                 cir_area.y2          = p_act.y + ((half_side * coord_state) >> (LV_BTN_INK_VALUE_MA
ARM GAS  C:\Users\tmj32\AppData\Local\Temp\ccKhIVes.s 			page 31


 468:..\..\..\lvgl\version_6.1.2\lvgl\src\lv_objx/lv_btn.c **** 
 469:..\..\..\lvgl\version_6.1.2\lvgl\src\lv_objx/lv_btn.c ****                 lv_area_intersect(&cir_area, &btn->coords,
 470:..\..\..\lvgl\version_6.1.2\lvgl\src\lv_objx/lv_btn.c ****                                   &cir_area); /*Limit the area. (It might be too big on the smaller
 471:..\..\..\lvgl\version_6.1.2\lvgl\src\lv_objx/lv_btn.c **** 
 472:..\..\..\lvgl\version_6.1.2\lvgl\src\lv_objx/lv_btn.c ****                 /*In the second part animate the radius. Circle -> body.radius*/
 473:..\..\..\lvgl\version_6.1.2\lvgl\src\lv_objx/lv_btn.c ****                 lv_coord_t r_state =
 474:..\..\..\lvgl\version_6.1.2\lvgl\src\lv_objx/lv_btn.c ****                     ink_act_value > LV_BTN_INK_VALUE_MAX / 2 ? ink_act_value - LV_BTN_INK_VALUE_MAX
 475:..\..\..\lvgl\version_6.1.2\lvgl\src\lv_objx/lv_btn.c **** 
 476:..\..\..\lvgl\version_6.1.2\lvgl\src\lv_objx/lv_btn.c ****                 lv_style_copy(&style_tmp, ext->styles[ink_top_state]);
 477:..\..\..\lvgl\version_6.1.2\lvgl\src\lv_objx/lv_btn.c ****                 style_tmp.body.radius       = r_max + (((ext->styles[ink_bg_state]->body.radius - r
 478:..\..\..\lvgl\version_6.1.2\lvgl\src\lv_objx/lv_btn.c ****                                                  (LV_BTN_INK_VALUE_MAX_SHIFT - 1));
 479:..\..\..\lvgl\version_6.1.2\lvgl\src\lv_objx/lv_btn.c ****                 style_tmp.body.border.width = 0;
 480:..\..\..\lvgl\version_6.1.2\lvgl\src\lv_objx/lv_btn.c **** 
 481:..\..\..\lvgl\version_6.1.2\lvgl\src\lv_objx/lv_btn.c ****                 /*Draw the circle*/
 482:..\..\..\lvgl\version_6.1.2\lvgl\src\lv_objx/lv_btn.c ****                 lv_draw_rect(&cir_area, mask, &style_tmp, opa_scale);
 483:..\..\..\lvgl\version_6.1.2\lvgl\src\lv_objx/lv_btn.c ****             } else {
 484:..\..\..\lvgl\version_6.1.2\lvgl\src\lv_objx/lv_btn.c ****                 lv_style_t res;
 485:..\..\..\lvgl\version_6.1.2\lvgl\src\lv_objx/lv_btn.c ****                 lv_style_copy(&res, ext->styles[ink_bg_state]);
 486:..\..\..\lvgl\version_6.1.2\lvgl\src\lv_objx/lv_btn.c ****                 lv_style_mix(ext->styles[ink_bg_state], ext->styles[ink_top_state], &res, ink_act_v
 487:..\..\..\lvgl\version_6.1.2\lvgl\src\lv_objx/lv_btn.c ****                 lv_draw_rect(&btn->coords, mask, &res, opa_scale);
 488:..\..\..\lvgl\version_6.1.2\lvgl\src\lv_objx/lv_btn.c ****             }
 489:..\..\..\lvgl\version_6.1.2\lvgl\src\lv_objx/lv_btn.c ****         }
 490:..\..\..\lvgl\version_6.1.2\lvgl\src\lv_objx/lv_btn.c **** #else
 491:..\..\..\lvgl\version_6.1.2\lvgl\src\lv_objx/lv_btn.c ****         ancestor_design(btn, mask, mode);
 1090              		.loc 2 491 0
 1091 001e 0A4B     		ldr	r3, .L70
 1092 0020 1B68     		ldr	r3, [r3]
 1093 0022 FA79     		ldrb	r2, [r7, #7]	@ zero_extendqisi2
 1094 0024 B968     		ldr	r1, [r7, #8]
 1095 0026 F868     		ldr	r0, [r7, #12]
 1096 0028 9847     		blx	r3
 1097 002a 08E0     		b	.L69
 1098              	.L68:
 492:..\..\..\lvgl\version_6.1.2\lvgl\src\lv_objx/lv_btn.c **** #endif
 493:..\..\..\lvgl\version_6.1.2\lvgl\src\lv_objx/lv_btn.c ****     } else if(mode == LV_DESIGN_DRAW_POST) {
 1099              		.loc 2 493 0
 1100 002c FB79     		ldrb	r3, [r7, #7]	@ zero_extendqisi2
 1101 002e 012B     		cmp	r3, #1
 1102 0030 05D1     		bne	.L69
 494:..\..\..\lvgl\version_6.1.2\lvgl\src\lv_objx/lv_btn.c ****         ancestor_design(btn, mask, mode);
 1103              		.loc 2 494 0
 1104 0032 054B     		ldr	r3, .L70
 1105 0034 1B68     		ldr	r3, [r3]
 1106 0036 FA79     		ldrb	r2, [r7, #7]	@ zero_extendqisi2
 1107 0038 B968     		ldr	r1, [r7, #8]
 1108 003a F868     		ldr	r0, [r7, #12]
 1109 003c 9847     		blx	r3
 1110              	.L69:
 495:..\..\..\lvgl\version_6.1.2\lvgl\src\lv_objx/lv_btn.c ****     }
 496:..\..\..\lvgl\version_6.1.2\lvgl\src\lv_objx/lv_btn.c **** 
 497:..\..\..\lvgl\version_6.1.2\lvgl\src\lv_objx/lv_btn.c ****     return true;
 1111              		.loc 2 497 0
 1112 003e 0123     		movs	r3, #1
 1113              	.L67:
 498:..\..\..\lvgl\version_6.1.2\lvgl\src\lv_objx/lv_btn.c **** }
 1114              		.loc 2 498 0
 1115 0040 1846     		mov	r0, r3
ARM GAS  C:\Users\tmj32\AppData\Local\Temp\ccKhIVes.s 			page 32


 1116 0042 1037     		adds	r7, r7, #16
 1117              		.cfi_def_cfa_offset 8
 1118 0044 BD46     		mov	sp, r7
 1119              		.cfi_def_cfa_register 13
 1120              		@ sp needed
 1121 0046 80BD     		pop	{r7, pc}
 1122              	.L71:
 1123              		.align	2
 1124              	.L70:
 1125 0048 04000000 		.word	ancestor_design
 1126              		.cfi_endproc
 1127              	.LFE58:
 1128              		.size	lv_btn_design, .-lv_btn_design
 1129              		.section	.rodata
 1130              		.align	2
 1131              	.LC0:
 1132 0000 6C765F62 		.ascii	"lv_btn\000"
 1132      746E00
 1133              		.section	.text.lv_btn_signal,"ax",%progbits
 1134              		.align	2
 1135              		.thumb
 1136              		.thumb_func
 1137              		.type	lv_btn_signal, %function
 1138              	lv_btn_signal:
 1139              	.LFB59:
 499:..\..\..\lvgl\version_6.1.2\lvgl\src\lv_objx/lv_btn.c **** 
 500:..\..\..\lvgl\version_6.1.2\lvgl\src\lv_objx/lv_btn.c **** /**
 501:..\..\..\lvgl\version_6.1.2\lvgl\src\lv_objx/lv_btn.c ****  * Signal function of the button
 502:..\..\..\lvgl\version_6.1.2\lvgl\src\lv_objx/lv_btn.c ****  * @param btn pointer to a button object
 503:..\..\..\lvgl\version_6.1.2\lvgl\src\lv_objx/lv_btn.c ****  * @param sign a signal type from lv_signal_t enum
 504:..\..\..\lvgl\version_6.1.2\lvgl\src\lv_objx/lv_btn.c ****  * @param param pointer to a signal specific variable
 505:..\..\..\lvgl\version_6.1.2\lvgl\src\lv_objx/lv_btn.c ****  * @return LV_RES_OK: the object is not deleted in the function; LV_RES_INV: the object is deleted
 506:..\..\..\lvgl\version_6.1.2\lvgl\src\lv_objx/lv_btn.c ****  */
 507:..\..\..\lvgl\version_6.1.2\lvgl\src\lv_objx/lv_btn.c **** static lv_res_t lv_btn_signal(lv_obj_t * btn, lv_signal_t sign, void * param)
 508:..\..\..\lvgl\version_6.1.2\lvgl\src\lv_objx/lv_btn.c **** {
 1140              		.loc 2 508 0
 1141              		.cfi_startproc
 1142              		@ args = 0, pretend = 0, frame = 40
 1143              		@ frame_needed = 1, uses_anonymous_args = 0
 1144 0000 80B5     		push	{r7, lr}
 1145              		.cfi_def_cfa_offset 8
 1146              		.cfi_offset 7, -8
 1147              		.cfi_offset 14, -4
 1148 0002 8AB0     		sub	sp, sp, #40
 1149              		.cfi_def_cfa_offset 48
 1150 0004 00AF     		add	r7, sp, #0
 1151              		.cfi_def_cfa_register 7
 1152 0006 F860     		str	r0, [r7, #12]
 1153 0008 0B46     		mov	r3, r1
 1154 000a 7A60     		str	r2, [r7, #4]
 1155 000c FB72     		strb	r3, [r7, #11]
 509:..\..\..\lvgl\version_6.1.2\lvgl\src\lv_objx/lv_btn.c ****     lv_res_t res;
 510:..\..\..\lvgl\version_6.1.2\lvgl\src\lv_objx/lv_btn.c **** 
 511:..\..\..\lvgl\version_6.1.2\lvgl\src\lv_objx/lv_btn.c ****     /* Include the ancient signal function */
 512:..\..\..\lvgl\version_6.1.2\lvgl\src\lv_objx/lv_btn.c ****     res = ancestor_signal(btn, sign, param);
 1156              		.loc 2 512 0
 1157 000e A94B     		ldr	r3, .L103
ARM GAS  C:\Users\tmj32\AppData\Local\Temp\ccKhIVes.s 			page 33


 1158 0010 1B68     		ldr	r3, [r3]
 1159 0012 F97A     		ldrb	r1, [r7, #11]	@ zero_extendqisi2
 1160 0014 7A68     		ldr	r2, [r7, #4]
 1161 0016 F868     		ldr	r0, [r7, #12]
 1162 0018 9847     		blx	r3
 1163 001a 0346     		mov	r3, r0
 1164 001c 87F82730 		strb	r3, [r7, #39]
 513:..\..\..\lvgl\version_6.1.2\lvgl\src\lv_objx/lv_btn.c ****     if(res != LV_RES_OK) return res;
 1165              		.loc 2 513 0
 1166 0020 97F82730 		ldrb	r3, [r7, #39]	@ zero_extendqisi2
 1167 0024 012B     		cmp	r3, #1
 1168 0026 02D0     		beq	.L73
 1169              		.loc 2 513 0 is_stmt 0 discriminator 1
 1170 0028 97F82730 		ldrb	r3, [r7, #39]	@ zero_extendqisi2
 1171 002c 3EE1     		b	.L74
 1172              	.L73:
 514:..\..\..\lvgl\version_6.1.2\lvgl\src\lv_objx/lv_btn.c ****     if(sign == LV_SIGNAL_GET_TYPE) return lv_obj_handle_get_type_signal(param, LV_OBJX_NAME);
 1173              		.loc 2 514 0 is_stmt 1
 1174 002e FB7A     		ldrb	r3, [r7, #11]	@ zero_extendqisi2
 1175 0030 072B     		cmp	r3, #7
 1176 0032 05D1     		bne	.L75
 1177              		.loc 2 514 0 is_stmt 0 discriminator 1
 1178 0034 A049     		ldr	r1, .L103+4
 1179 0036 7868     		ldr	r0, [r7, #4]
 1180 0038 FFF7FEFF 		bl	lv_obj_handle_get_type_signal
 1181 003c 0346     		mov	r3, r0
 1182 003e 35E1     		b	.L74
 1183              	.L75:
 515:..\..\..\lvgl\version_6.1.2\lvgl\src\lv_objx/lv_btn.c **** 
 516:..\..\..\lvgl\version_6.1.2\lvgl\src\lv_objx/lv_btn.c ****     lv_btn_ext_t * ext = lv_obj_get_ext_attr(btn);
 1184              		.loc 2 516 0 is_stmt 1
 1185 0040 F868     		ldr	r0, [r7, #12]
 1186 0042 FFF7FEFF 		bl	lv_obj_get_ext_attr
 1187 0046 3862     		str	r0, [r7, #32]
 517:..\..\..\lvgl\version_6.1.2\lvgl\src\lv_objx/lv_btn.c ****     bool tgl           = lv_btn_get_toggle(btn);
 1188              		.loc 2 517 0
 1189 0048 F868     		ldr	r0, [r7, #12]
 1190 004a FFF7FEFF 		bl	lv_btn_get_toggle
 1191 004e 0346     		mov	r3, r0
 1192 0050 FB77     		strb	r3, [r7, #31]
 518:..\..\..\lvgl\version_6.1.2\lvgl\src\lv_objx/lv_btn.c **** 
 519:..\..\..\lvgl\version_6.1.2\lvgl\src\lv_objx/lv_btn.c ****     if(sign == LV_SIGNAL_PRESSED) {
 1193              		.loc 2 519 0
 1194 0052 FB7A     		ldrb	r3, [r7, #11]	@ zero_extendqisi2
 1195 0054 082B     		cmp	r3, #8
 1196 0056 18D1     		bne	.L76
 520:..\..\..\lvgl\version_6.1.2\lvgl\src\lv_objx/lv_btn.c ****         /*Refresh the state*/
 521:..\..\..\lvgl\version_6.1.2\lvgl\src\lv_objx/lv_btn.c ****         if(ext->state == LV_BTN_STATE_REL) {
 1197              		.loc 2 521 0
 1198 0058 3B6A     		ldr	r3, [r7, #32]
 1199 005a 1B7E     		ldrb	r3, [r3, #24]	@ zero_extendqisi2
 1200 005c 03F00703 		and	r3, r3, #7
 1201 0060 DBB2     		uxtb	r3, r3
 1202 0062 002B     		cmp	r3, #0
 1203 0064 04D1     		bne	.L77
 522:..\..\..\lvgl\version_6.1.2\lvgl\src\lv_objx/lv_btn.c ****             lv_btn_set_state(btn, LV_BTN_STATE_PR);
 1204              		.loc 2 522 0
ARM GAS  C:\Users\tmj32\AppData\Local\Temp\ccKhIVes.s 			page 34


 1205 0066 0121     		movs	r1, #1
 1206 0068 F868     		ldr	r0, [r7, #12]
 1207 006a FFF7FEFF 		bl	lv_btn_set_state
 1208 006e 1BE1     		b	.L79
 1209              	.L77:
 523:..\..\..\lvgl\version_6.1.2\lvgl\src\lv_objx/lv_btn.c **** #if LV_USE_ANIMATION && LV_BTN_INK_EFFECT
 524:..\..\..\lvgl\version_6.1.2\lvgl\src\lv_objx/lv_btn.c ****             ink_bg_state  = LV_BTN_STATE_REL;
 525:..\..\..\lvgl\version_6.1.2\lvgl\src\lv_objx/lv_btn.c ****             ink_top_state = LV_BTN_STATE_PR;
 526:..\..\..\lvgl\version_6.1.2\lvgl\src\lv_objx/lv_btn.c **** #endif
 527:..\..\..\lvgl\version_6.1.2\lvgl\src\lv_objx/lv_btn.c ****         } else if(ext->state == LV_BTN_STATE_TGL_REL) {
 1210              		.loc 2 527 0
 1211 0070 3B6A     		ldr	r3, [r7, #32]
 1212 0072 1B7E     		ldrb	r3, [r3, #24]	@ zero_extendqisi2
 1213 0074 03F00703 		and	r3, r3, #7
 1214 0078 DBB2     		uxtb	r3, r3
 1215 007a 022B     		cmp	r3, #2
 1216 007c 40F01481 		bne	.L79
 528:..\..\..\lvgl\version_6.1.2\lvgl\src\lv_objx/lv_btn.c ****             lv_btn_set_state(btn, LV_BTN_STATE_TGL_PR);
 1217              		.loc 2 528 0
 1218 0080 0321     		movs	r1, #3
 1219 0082 F868     		ldr	r0, [r7, #12]
 1220 0084 FFF7FEFF 		bl	lv_btn_set_state
 1221 0088 0EE1     		b	.L79
 1222              	.L76:
 529:..\..\..\lvgl\version_6.1.2\lvgl\src\lv_objx/lv_btn.c **** #if LV_USE_ANIMATION && LV_BTN_INK_EFFECT
 530:..\..\..\lvgl\version_6.1.2\lvgl\src\lv_objx/lv_btn.c ****             ink_bg_state  = LV_BTN_STATE_TGL_REL;
 531:..\..\..\lvgl\version_6.1.2\lvgl\src\lv_objx/lv_btn.c ****             ink_top_state = LV_BTN_STATE_TGL_PR;
 532:..\..\..\lvgl\version_6.1.2\lvgl\src\lv_objx/lv_btn.c **** #endif
 533:..\..\..\lvgl\version_6.1.2\lvgl\src\lv_objx/lv_btn.c ****         }
 534:..\..\..\lvgl\version_6.1.2\lvgl\src\lv_objx/lv_btn.c **** 
 535:..\..\..\lvgl\version_6.1.2\lvgl\src\lv_objx/lv_btn.c **** #if LV_USE_ANIMATION && LV_BTN_INK_EFFECT
 536:..\..\..\lvgl\version_6.1.2\lvgl\src\lv_objx/lv_btn.c ****         /*Forget the old inked button*/
 537:..\..\..\lvgl\version_6.1.2\lvgl\src\lv_objx/lv_btn.c ****         if(ink_obj != NULL && ink_obj != btn) {
 538:..\..\..\lvgl\version_6.1.2\lvgl\src\lv_objx/lv_btn.c ****             lv_anim_del(ink_obj, (lv_anim_exec_xcb_t)lv_btn_ink_effect_anim);
 539:..\..\..\lvgl\version_6.1.2\lvgl\src\lv_objx/lv_btn.c ****             lv_obj_invalidate(ink_obj);
 540:..\..\..\lvgl\version_6.1.2\lvgl\src\lv_objx/lv_btn.c ****             ink_obj = NULL;
 541:..\..\..\lvgl\version_6.1.2\lvgl\src\lv_objx/lv_btn.c ****         }
 542:..\..\..\lvgl\version_6.1.2\lvgl\src\lv_objx/lv_btn.c ****         /*Save the new data for inking and start it's animation if enabled*/
 543:..\..\..\lvgl\version_6.1.2\lvgl\src\lv_objx/lv_btn.c ****         if(ext->ink_in_time > 0) {
 544:..\..\..\lvgl\version_6.1.2\lvgl\src\lv_objx/lv_btn.c ****             ink_obj      = btn;
 545:..\..\..\lvgl\version_6.1.2\lvgl\src\lv_objx/lv_btn.c ****             ink_playback = false;
 546:..\..\..\lvgl\version_6.1.2\lvgl\src\lv_objx/lv_btn.c ****             ink_ready    = false;
 547:..\..\..\lvgl\version_6.1.2\lvgl\src\lv_objx/lv_btn.c ****             lv_indev_get_point(lv_indev_get_act(), &ink_point);
 548:..\..\..\lvgl\version_6.1.2\lvgl\src\lv_objx/lv_btn.c **** 
 549:..\..\..\lvgl\version_6.1.2\lvgl\src\lv_objx/lv_btn.c ****             lv_anim_t a;
 550:..\..\..\lvgl\version_6.1.2\lvgl\src\lv_objx/lv_btn.c ****             a.var            = btn;
 551:..\..\..\lvgl\version_6.1.2\lvgl\src\lv_objx/lv_btn.c ****             a.start          = 0;
 552:..\..\..\lvgl\version_6.1.2\lvgl\src\lv_objx/lv_btn.c ****             a.end            = LV_BTN_INK_VALUE_MAX;
 553:..\..\..\lvgl\version_6.1.2\lvgl\src\lv_objx/lv_btn.c ****             a.exec_cb        = (lv_anim_exec_xcb_t)lv_btn_ink_effect_anim;
 554:..\..\..\lvgl\version_6.1.2\lvgl\src\lv_objx/lv_btn.c ****             a.path_cb        = lv_anim_path_linear;
 555:..\..\..\lvgl\version_6.1.2\lvgl\src\lv_objx/lv_btn.c ****             a.ready_cb       = lv_btn_ink_effect_anim_ready;
 556:..\..\..\lvgl\version_6.1.2\lvgl\src\lv_objx/lv_btn.c ****             a.act_time       = 0;
 557:..\..\..\lvgl\version_6.1.2\lvgl\src\lv_objx/lv_btn.c ****             a.time           = ext->ink_in_time;
 558:..\..\..\lvgl\version_6.1.2\lvgl\src\lv_objx/lv_btn.c ****             a.playback       = 0;
 559:..\..\..\lvgl\version_6.1.2\lvgl\src\lv_objx/lv_btn.c ****             a.playback_pause = 0;
 560:..\..\..\lvgl\version_6.1.2\lvgl\src\lv_objx/lv_btn.c ****             a.repeat         = 0;
 561:..\..\..\lvgl\version_6.1.2\lvgl\src\lv_objx/lv_btn.c ****             a.repeat_pause   = 0;
ARM GAS  C:\Users\tmj32\AppData\Local\Temp\ccKhIVes.s 			page 35


 562:..\..\..\lvgl\version_6.1.2\lvgl\src\lv_objx/lv_btn.c ****             lv_anim_create(&a);
 563:..\..\..\lvgl\version_6.1.2\lvgl\src\lv_objx/lv_btn.c ****         }
 564:..\..\..\lvgl\version_6.1.2\lvgl\src\lv_objx/lv_btn.c **** #endif
 565:..\..\..\lvgl\version_6.1.2\lvgl\src\lv_objx/lv_btn.c ****     } else if(sign == LV_SIGNAL_PRESS_LOST) {
 1223              		.loc 2 565 0
 1224 008a FB7A     		ldrb	r3, [r7, #11]	@ zero_extendqisi2
 1225 008c 0A2B     		cmp	r3, #10
 1226 008e 18D1     		bne	.L80
 566:..\..\..\lvgl\version_6.1.2\lvgl\src\lv_objx/lv_btn.c ****         /*Refresh the state*/
 567:..\..\..\lvgl\version_6.1.2\lvgl\src\lv_objx/lv_btn.c ****         if(ext->state == LV_BTN_STATE_PR)
 1227              		.loc 2 567 0
 1228 0090 3B6A     		ldr	r3, [r7, #32]
 1229 0092 1B7E     		ldrb	r3, [r3, #24]	@ zero_extendqisi2
 1230 0094 03F00703 		and	r3, r3, #7
 1231 0098 DBB2     		uxtb	r3, r3
 1232 009a 012B     		cmp	r3, #1
 1233 009c 04D1     		bne	.L81
 568:..\..\..\lvgl\version_6.1.2\lvgl\src\lv_objx/lv_btn.c ****             lv_btn_set_state(btn, LV_BTN_STATE_REL);
 1234              		.loc 2 568 0
 1235 009e 0021     		movs	r1, #0
 1236 00a0 F868     		ldr	r0, [r7, #12]
 1237 00a2 FFF7FEFF 		bl	lv_btn_set_state
 1238 00a6 FFE0     		b	.L79
 1239              	.L81:
 569:..\..\..\lvgl\version_6.1.2\lvgl\src\lv_objx/lv_btn.c ****         else if(ext->state == LV_BTN_STATE_TGL_PR)
 1240              		.loc 2 569 0
 1241 00a8 3B6A     		ldr	r3, [r7, #32]
 1242 00aa 1B7E     		ldrb	r3, [r3, #24]	@ zero_extendqisi2
 1243 00ac 03F00703 		and	r3, r3, #7
 1244 00b0 DBB2     		uxtb	r3, r3
 1245 00b2 032B     		cmp	r3, #3
 1246 00b4 40F0F880 		bne	.L79
 570:..\..\..\lvgl\version_6.1.2\lvgl\src\lv_objx/lv_btn.c ****             lv_btn_set_state(btn, LV_BTN_STATE_TGL_REL);
 1247              		.loc 2 570 0
 1248 00b8 0221     		movs	r1, #2
 1249 00ba F868     		ldr	r0, [r7, #12]
 1250 00bc FFF7FEFF 		bl	lv_btn_set_state
 1251 00c0 F2E0     		b	.L79
 1252              	.L80:
 571:..\..\..\lvgl\version_6.1.2\lvgl\src\lv_objx/lv_btn.c ****     } else if(sign == LV_SIGNAL_PRESSING) {
 1253              		.loc 2 571 0
 1254 00c2 FB7A     		ldrb	r3, [r7, #11]	@ zero_extendqisi2
 1255 00c4 092B     		cmp	r3, #9
 1256 00c6 1FD1     		bne	.L83
 572:..\..\..\lvgl\version_6.1.2\lvgl\src\lv_objx/lv_btn.c ****         /*When the button begins to drag revert pressed states to released*/
 573:..\..\..\lvgl\version_6.1.2\lvgl\src\lv_objx/lv_btn.c ****         if(lv_indev_is_dragging(param) != false) {
 1257              		.loc 2 573 0
 1258 00c8 7868     		ldr	r0, [r7, #4]
 1259 00ca FFF7FEFF 		bl	lv_indev_is_dragging
 1260 00ce 0346     		mov	r3, r0
 1261 00d0 002B     		cmp	r3, #0
 1262 00d2 00F0E980 		beq	.L79
 574:..\..\..\lvgl\version_6.1.2\lvgl\src\lv_objx/lv_btn.c ****             if(ext->state == LV_BTN_STATE_PR)
 1263              		.loc 2 574 0
 1264 00d6 3B6A     		ldr	r3, [r7, #32]
 1265 00d8 1B7E     		ldrb	r3, [r3, #24]	@ zero_extendqisi2
 1266 00da 03F00703 		and	r3, r3, #7
ARM GAS  C:\Users\tmj32\AppData\Local\Temp\ccKhIVes.s 			page 36


 1267 00de DBB2     		uxtb	r3, r3
 1268 00e0 012B     		cmp	r3, #1
 1269 00e2 04D1     		bne	.L85
 575:..\..\..\lvgl\version_6.1.2\lvgl\src\lv_objx/lv_btn.c ****                 lv_btn_set_state(btn, LV_BTN_STATE_REL);
 1270              		.loc 2 575 0
 1271 00e4 0021     		movs	r1, #0
 1272 00e6 F868     		ldr	r0, [r7, #12]
 1273 00e8 FFF7FEFF 		bl	lv_btn_set_state
 1274 00ec DCE0     		b	.L79
 1275              	.L85:
 576:..\..\..\lvgl\version_6.1.2\lvgl\src\lv_objx/lv_btn.c ****             else if(ext->state == LV_BTN_STATE_TGL_PR)
 1276              		.loc 2 576 0
 1277 00ee 3B6A     		ldr	r3, [r7, #32]
 1278 00f0 1B7E     		ldrb	r3, [r3, #24]	@ zero_extendqisi2
 1279 00f2 03F00703 		and	r3, r3, #7
 1280 00f6 DBB2     		uxtb	r3, r3
 1281 00f8 032B     		cmp	r3, #3
 1282 00fa 40F0D580 		bne	.L79
 577:..\..\..\lvgl\version_6.1.2\lvgl\src\lv_objx/lv_btn.c ****                 lv_btn_set_state(btn, LV_BTN_STATE_TGL_REL);
 1283              		.loc 2 577 0
 1284 00fe 0221     		movs	r1, #2
 1285 0100 F868     		ldr	r0, [r7, #12]
 1286 0102 FFF7FEFF 		bl	lv_btn_set_state
 1287 0106 CFE0     		b	.L79
 1288              	.L83:
 578:..\..\..\lvgl\version_6.1.2\lvgl\src\lv_objx/lv_btn.c ****         }
 579:..\..\..\lvgl\version_6.1.2\lvgl\src\lv_objx/lv_btn.c ****     } else if(sign == LV_SIGNAL_RELEASED) {
 1289              		.loc 2 579 0
 1290 0108 FB7A     		ldrb	r3, [r7, #11]	@ zero_extendqisi2
 1291 010a 0B2B     		cmp	r3, #11
 1292 010c 7FD1     		bne	.L86
 580:..\..\..\lvgl\version_6.1.2\lvgl\src\lv_objx/lv_btn.c ****         /*If not dragged and it was not long press action then
 581:..\..\..\lvgl\version_6.1.2\lvgl\src\lv_objx/lv_btn.c ****          *change state and run the action*/
 582:..\..\..\lvgl\version_6.1.2\lvgl\src\lv_objx/lv_btn.c ****         if(lv_indev_is_dragging(param) == false) {
 1293              		.loc 2 582 0
 1294 010e 7868     		ldr	r0, [r7, #4]
 1295 0110 FFF7FEFF 		bl	lv_indev_is_dragging
 1296 0114 0346     		mov	r3, r0
 1297 0116 83F00103 		eor	r3, r3, #1
 1298 011a DBB2     		uxtb	r3, r3
 1299 011c 002B     		cmp	r3, #0
 1300 011e 5ED0     		beq	.L87
 1301              	.LBB4:
 583:..\..\..\lvgl\version_6.1.2\lvgl\src\lv_objx/lv_btn.c ****             uint32_t toggled = 0;
 1302              		.loc 2 583 0
 1303 0120 0023     		movs	r3, #0
 1304 0122 BB61     		str	r3, [r7, #24]
 584:..\..\..\lvgl\version_6.1.2\lvgl\src\lv_objx/lv_btn.c ****             if(ext->state == LV_BTN_STATE_PR && tgl == false) {
 1305              		.loc 2 584 0
 1306 0124 3B6A     		ldr	r3, [r7, #32]
 1307 0126 1B7E     		ldrb	r3, [r3, #24]	@ zero_extendqisi2
 1308 0128 03F00703 		and	r3, r3, #7
 1309 012c DBB2     		uxtb	r3, r3
 1310 012e 012B     		cmp	r3, #1
 1311 0130 0CD1     		bne	.L88
 1312              		.loc 2 584 0 is_stmt 0 discriminator 1
 1313 0132 FB7F     		ldrb	r3, [r7, #31]
ARM GAS  C:\Users\tmj32\AppData\Local\Temp\ccKhIVes.s 			page 37


 1314 0134 83F00103 		eor	r3, r3, #1
 1315 0138 DBB2     		uxtb	r3, r3
 1316 013a 002B     		cmp	r3, #0
 1317 013c 06D0     		beq	.L88
 585:..\..\..\lvgl\version_6.1.2\lvgl\src\lv_objx/lv_btn.c ****                 lv_btn_set_state(btn, LV_BTN_STATE_REL);
 1318              		.loc 2 585 0 is_stmt 1
 1319 013e 0021     		movs	r1, #0
 1320 0140 F868     		ldr	r0, [r7, #12]
 1321 0142 FFF7FEFF 		bl	lv_btn_set_state
 586:..\..\..\lvgl\version_6.1.2\lvgl\src\lv_objx/lv_btn.c ****                 toggled = 0;
 1322              		.loc 2 586 0
 1323 0146 0023     		movs	r3, #0
 1324 0148 BB61     		str	r3, [r7, #24]
 1325 014a 34E0     		b	.L89
 1326              	.L88:
 587:..\..\..\lvgl\version_6.1.2\lvgl\src\lv_objx/lv_btn.c ****             } else if(ext->state == LV_BTN_STATE_TGL_PR && tgl == false) {
 1327              		.loc 2 587 0
 1328 014c 3B6A     		ldr	r3, [r7, #32]
 1329 014e 1B7E     		ldrb	r3, [r3, #24]	@ zero_extendqisi2
 1330 0150 03F00703 		and	r3, r3, #7
 1331 0154 DBB2     		uxtb	r3, r3
 1332 0156 032B     		cmp	r3, #3
 1333 0158 0CD1     		bne	.L90
 1334              		.loc 2 587 0 is_stmt 0 discriminator 1
 1335 015a FB7F     		ldrb	r3, [r7, #31]
 1336 015c 83F00103 		eor	r3, r3, #1
 1337 0160 DBB2     		uxtb	r3, r3
 1338 0162 002B     		cmp	r3, #0
 1339 0164 06D0     		beq	.L90
 588:..\..\..\lvgl\version_6.1.2\lvgl\src\lv_objx/lv_btn.c ****                 lv_btn_set_state(btn, LV_BTN_STATE_TGL_REL);
 1340              		.loc 2 588 0 is_stmt 1
 1341 0166 0221     		movs	r1, #2
 1342 0168 F868     		ldr	r0, [r7, #12]
 1343 016a FFF7FEFF 		bl	lv_btn_set_state
 589:..\..\..\lvgl\version_6.1.2\lvgl\src\lv_objx/lv_btn.c ****                 toggled = 1;
 1344              		.loc 2 589 0
 1345 016e 0123     		movs	r3, #1
 1346 0170 BB61     		str	r3, [r7, #24]
 1347 0172 20E0     		b	.L89
 1348              	.L90:
 590:..\..\..\lvgl\version_6.1.2\lvgl\src\lv_objx/lv_btn.c ****             } else if(ext->state == LV_BTN_STATE_PR && tgl == true) {
 1349              		.loc 2 590 0
 1350 0174 3B6A     		ldr	r3, [r7, #32]
 1351 0176 1B7E     		ldrb	r3, [r3, #24]	@ zero_extendqisi2
 1352 0178 03F00703 		and	r3, r3, #7
 1353 017c DBB2     		uxtb	r3, r3
 1354 017e 012B     		cmp	r3, #1
 1355 0180 09D1     		bne	.L91
 1356              		.loc 2 590 0 is_stmt 0 discriminator 1
 1357 0182 FB7F     		ldrb	r3, [r7, #31]	@ zero_extendqisi2
 1358 0184 002B     		cmp	r3, #0
 1359 0186 06D0     		beq	.L91
 591:..\..\..\lvgl\version_6.1.2\lvgl\src\lv_objx/lv_btn.c ****                 lv_btn_set_state(btn, LV_BTN_STATE_TGL_REL);
 1360              		.loc 2 591 0 is_stmt 1
 1361 0188 0221     		movs	r1, #2
 1362 018a F868     		ldr	r0, [r7, #12]
 1363 018c FFF7FEFF 		bl	lv_btn_set_state
ARM GAS  C:\Users\tmj32\AppData\Local\Temp\ccKhIVes.s 			page 38


 592:..\..\..\lvgl\version_6.1.2\lvgl\src\lv_objx/lv_btn.c ****                 toggled = 1;
 1364              		.loc 2 592 0
 1365 0190 0123     		movs	r3, #1
 1366 0192 BB61     		str	r3, [r7, #24]
 1367 0194 0FE0     		b	.L89
 1368              	.L91:
 593:..\..\..\lvgl\version_6.1.2\lvgl\src\lv_objx/lv_btn.c ****             } else if(ext->state == LV_BTN_STATE_TGL_PR && tgl == true) {
 1369              		.loc 2 593 0
 1370 0196 3B6A     		ldr	r3, [r7, #32]
 1371 0198 1B7E     		ldrb	r3, [r3, #24]	@ zero_extendqisi2
 1372 019a 03F00703 		and	r3, r3, #7
 1373 019e DBB2     		uxtb	r3, r3
 1374 01a0 032B     		cmp	r3, #3
 1375 01a2 08D1     		bne	.L89
 1376              		.loc 2 593 0 is_stmt 0 discriminator 1
 1377 01a4 FB7F     		ldrb	r3, [r7, #31]	@ zero_extendqisi2
 1378 01a6 002B     		cmp	r3, #0
 1379 01a8 05D0     		beq	.L89
 594:..\..\..\lvgl\version_6.1.2\lvgl\src\lv_objx/lv_btn.c ****                 lv_btn_set_state(btn, LV_BTN_STATE_REL);
 1380              		.loc 2 594 0 is_stmt 1
 1381 01aa 0021     		movs	r1, #0
 1382 01ac F868     		ldr	r0, [r7, #12]
 1383 01ae FFF7FEFF 		bl	lv_btn_set_state
 595:..\..\..\lvgl\version_6.1.2\lvgl\src\lv_objx/lv_btn.c ****                 toggled = 0;
 1384              		.loc 2 595 0
 1385 01b2 0023     		movs	r3, #0
 1386 01b4 BB61     		str	r3, [r7, #24]
 1387              	.L89:
 596:..\..\..\lvgl\version_6.1.2\lvgl\src\lv_objx/lv_btn.c ****             }
 597:..\..\..\lvgl\version_6.1.2\lvgl\src\lv_objx/lv_btn.c **** 
 598:..\..\..\lvgl\version_6.1.2\lvgl\src\lv_objx/lv_btn.c ****             if(tgl) {
 1388              		.loc 2 598 0
 1389 01b6 FB7F     		ldrb	r3, [r7, #31]	@ zero_extendqisi2
 1390 01b8 002B     		cmp	r3, #0
 1391 01ba 75D0     		beq	.L79
 599:..\..\..\lvgl\version_6.1.2\lvgl\src\lv_objx/lv_btn.c ****                 res = lv_event_send(btn, LV_EVENT_VALUE_CHANGED, &toggled);
 1392              		.loc 2 599 0
 1393 01bc 07F11803 		add	r3, r7, #24
 1394 01c0 1A46     		mov	r2, r3
 1395 01c2 0E21     		movs	r1, #14
 1396 01c4 F868     		ldr	r0, [r7, #12]
 1397 01c6 FFF7FEFF 		bl	lv_event_send
 1398 01ca 0346     		mov	r3, r0
 1399 01cc 87F82730 		strb	r3, [r7, #39]
 600:..\..\..\lvgl\version_6.1.2\lvgl\src\lv_objx/lv_btn.c ****                 if(res != LV_RES_OK) return res;
 1400              		.loc 2 600 0
 1401 01d0 97F82730 		ldrb	r3, [r7, #39]	@ zero_extendqisi2
 1402 01d4 012B     		cmp	r3, #1
 1403 01d6 67D0     		beq	.L79
 1404              		.loc 2 600 0 is_stmt 0 discriminator 1
 1405 01d8 97F82730 		ldrb	r3, [r7, #39]	@ zero_extendqisi2
 1406 01dc 66E0     		b	.L74
 1407              	.L87:
 1408              	.LBE4:
 601:..\..\..\lvgl\version_6.1.2\lvgl\src\lv_objx/lv_btn.c ****             }
 602:..\..\..\lvgl\version_6.1.2\lvgl\src\lv_objx/lv_btn.c **** 
 603:..\..\..\lvgl\version_6.1.2\lvgl\src\lv_objx/lv_btn.c ****         } else { /*If dragged change back the state*/
ARM GAS  C:\Users\tmj32\AppData\Local\Temp\ccKhIVes.s 			page 39


 604:..\..\..\lvgl\version_6.1.2\lvgl\src\lv_objx/lv_btn.c ****             if(ext->state == LV_BTN_STATE_PR) {
 1409              		.loc 2 604 0 is_stmt 1
 1410 01de 3B6A     		ldr	r3, [r7, #32]
 1411 01e0 1B7E     		ldrb	r3, [r3, #24]	@ zero_extendqisi2
 1412 01e2 03F00703 		and	r3, r3, #7
 1413 01e6 DBB2     		uxtb	r3, r3
 1414 01e8 012B     		cmp	r3, #1
 1415 01ea 04D1     		bne	.L94
 605:..\..\..\lvgl\version_6.1.2\lvgl\src\lv_objx/lv_btn.c ****                 lv_btn_set_state(btn, LV_BTN_STATE_REL);
 1416              		.loc 2 605 0
 1417 01ec 0021     		movs	r1, #0
 1418 01ee F868     		ldr	r0, [r7, #12]
 1419 01f0 FFF7FEFF 		bl	lv_btn_set_state
 1420 01f4 58E0     		b	.L79
 1421              	.L94:
 606:..\..\..\lvgl\version_6.1.2\lvgl\src\lv_objx/lv_btn.c ****             } else if(ext->state == LV_BTN_STATE_TGL_PR) {
 1422              		.loc 2 606 0
 1423 01f6 3B6A     		ldr	r3, [r7, #32]
 1424 01f8 1B7E     		ldrb	r3, [r3, #24]	@ zero_extendqisi2
 1425 01fa 03F00703 		and	r3, r3, #7
 1426 01fe DBB2     		uxtb	r3, r3
 1427 0200 032B     		cmp	r3, #3
 1428 0202 51D1     		bne	.L79
 607:..\..\..\lvgl\version_6.1.2\lvgl\src\lv_objx/lv_btn.c ****                 lv_btn_set_state(btn, LV_BTN_STATE_TGL_REL);
 1429              		.loc 2 607 0
 1430 0204 0221     		movs	r1, #2
 1431 0206 F868     		ldr	r0, [r7, #12]
 1432 0208 FFF7FEFF 		bl	lv_btn_set_state
 1433 020c 4CE0     		b	.L79
 1434              	.L86:
 608:..\..\..\lvgl\version_6.1.2\lvgl\src\lv_objx/lv_btn.c ****             }
 609:..\..\..\lvgl\version_6.1.2\lvgl\src\lv_objx/lv_btn.c ****         }
 610:..\..\..\lvgl\version_6.1.2\lvgl\src\lv_objx/lv_btn.c **** 
 611:..\..\..\lvgl\version_6.1.2\lvgl\src\lv_objx/lv_btn.c **** #if LV_USE_ANIMATION && LV_BTN_INK_EFFECT
 612:..\..\..\lvgl\version_6.1.2\lvgl\src\lv_objx/lv_btn.c ****         /*Draw the toggled state in the inking instead*/
 613:..\..\..\lvgl\version_6.1.2\lvgl\src\lv_objx/lv_btn.c ****         if(ext->toggle) {
 614:..\..\..\lvgl\version_6.1.2\lvgl\src\lv_objx/lv_btn.c ****             ink_top_state = ext->state;
 615:..\..\..\lvgl\version_6.1.2\lvgl\src\lv_objx/lv_btn.c ****         }
 616:..\..\..\lvgl\version_6.1.2\lvgl\src\lv_objx/lv_btn.c ****         /*If not a toggle button and the "IN" inking is ready then start an "OUT" inking*/
 617:..\..\..\lvgl\version_6.1.2\lvgl\src\lv_objx/lv_btn.c ****         else if(ink_ready && ext->ink_out_time > 0) {
 618:..\..\..\lvgl\version_6.1.2\lvgl\src\lv_objx/lv_btn.c ****             ink_obj      = btn;
 619:..\..\..\lvgl\version_6.1.2\lvgl\src\lv_objx/lv_btn.c ****             ink_playback = true; /*It is the playback. If not set `lv_btn_ink_effect_anim_ready`
 620:..\..\..\lvgl\version_6.1.2\lvgl\src\lv_objx/lv_btn.c ****                                     will start its own playback*/
 621:..\..\..\lvgl\version_6.1.2\lvgl\src\lv_objx/lv_btn.c ****             lv_indev_get_point(lv_indev_get_act(), &ink_point);
 622:..\..\..\lvgl\version_6.1.2\lvgl\src\lv_objx/lv_btn.c **** 
 623:..\..\..\lvgl\version_6.1.2\lvgl\src\lv_objx/lv_btn.c ****             lv_anim_t a;
 624:..\..\..\lvgl\version_6.1.2\lvgl\src\lv_objx/lv_btn.c ****             a.var            = ink_obj;
 625:..\..\..\lvgl\version_6.1.2\lvgl\src\lv_objx/lv_btn.c ****             a.start          = LV_BTN_INK_VALUE_MAX;
 626:..\..\..\lvgl\version_6.1.2\lvgl\src\lv_objx/lv_btn.c ****             a.end            = 0;
 627:..\..\..\lvgl\version_6.1.2\lvgl\src\lv_objx/lv_btn.c ****             a.exec_cb        = (lv_anim_exec_xcb_t)lv_btn_ink_effect_anim;
 628:..\..\..\lvgl\version_6.1.2\lvgl\src\lv_objx/lv_btn.c ****             a.path_cb        = lv_anim_path_linear;
 629:..\..\..\lvgl\version_6.1.2\lvgl\src\lv_objx/lv_btn.c ****             a.ready_cb       = lv_btn_ink_effect_anim_ready;
 630:..\..\..\lvgl\version_6.1.2\lvgl\src\lv_objx/lv_btn.c ****             a.act_time       = 0;
 631:..\..\..\lvgl\version_6.1.2\lvgl\src\lv_objx/lv_btn.c ****             a.time           = ext->ink_out_time;
 632:..\..\..\lvgl\version_6.1.2\lvgl\src\lv_objx/lv_btn.c ****             a.playback       = 0;
 633:..\..\..\lvgl\version_6.1.2\lvgl\src\lv_objx/lv_btn.c ****             a.playback_pause = 0;
 634:..\..\..\lvgl\version_6.1.2\lvgl\src\lv_objx/lv_btn.c ****             a.repeat         = 0;
ARM GAS  C:\Users\tmj32\AppData\Local\Temp\ccKhIVes.s 			page 40


 635:..\..\..\lvgl\version_6.1.2\lvgl\src\lv_objx/lv_btn.c ****             a.repeat_pause   = 0;
 636:..\..\..\lvgl\version_6.1.2\lvgl\src\lv_objx/lv_btn.c ****             lv_anim_create(&a);
 637:..\..\..\lvgl\version_6.1.2\lvgl\src\lv_objx/lv_btn.c ****         }
 638:..\..\..\lvgl\version_6.1.2\lvgl\src\lv_objx/lv_btn.c **** #endif
 639:..\..\..\lvgl\version_6.1.2\lvgl\src\lv_objx/lv_btn.c ****     } else if(sign == LV_SIGNAL_CONTROL) {
 1435              		.loc 2 639 0
 1436 020e FB7A     		ldrb	r3, [r7, #11]	@ zero_extendqisi2
 1437 0210 122B     		cmp	r3, #18
 1438 0212 49D1     		bne	.L79
 1439              	.LBB5:
 640:..\..\..\lvgl\version_6.1.2\lvgl\src\lv_objx/lv_btn.c ****         char c = *((char *)param);
 1440              		.loc 2 640 0
 1441 0214 7B68     		ldr	r3, [r7, #4]
 1442 0216 1B78     		ldrb	r3, [r3]
 1443 0218 BB77     		strb	r3, [r7, #30]
 641:..\..\..\lvgl\version_6.1.2\lvgl\src\lv_objx/lv_btn.c ****         if(c == LV_KEY_RIGHT || c == LV_KEY_UP) {
 1444              		.loc 2 641 0
 1445 021a BB7F     		ldrb	r3, [r7, #30]	@ zero_extendqisi2
 1446 021c 132B     		cmp	r3, #19
 1447 021e 02D0     		beq	.L95
 1448              		.loc 2 641 0 is_stmt 0 discriminator 1
 1449 0220 BB7F     		ldrb	r3, [r7, #30]	@ zero_extendqisi2
 1450 0222 112B     		cmp	r3, #17
 1451 0224 1CD1     		bne	.L96
 1452              	.L95:
 642:..\..\..\lvgl\version_6.1.2\lvgl\src\lv_objx/lv_btn.c ****             if(lv_btn_get_toggle(btn)) {
 1453              		.loc 2 642 0 is_stmt 1
 1454 0226 F868     		ldr	r0, [r7, #12]
 1455 0228 FFF7FEFF 		bl	lv_btn_get_toggle
 1456 022c 0346     		mov	r3, r0
 1457 022e 002B     		cmp	r3, #0
 1458 0230 39D0     		beq	.L102
 1459              	.LBB6:
 643:..\..\..\lvgl\version_6.1.2\lvgl\src\lv_objx/lv_btn.c ****                 lv_btn_set_state(btn, LV_BTN_STATE_TGL_REL);
 1460              		.loc 2 643 0
 1461 0232 0221     		movs	r1, #2
 1462 0234 F868     		ldr	r0, [r7, #12]
 1463 0236 FFF7FEFF 		bl	lv_btn_set_state
 644:..\..\..\lvgl\version_6.1.2\lvgl\src\lv_objx/lv_btn.c **** 
 645:..\..\..\lvgl\version_6.1.2\lvgl\src\lv_objx/lv_btn.c ****                 uint32_t state = 1;
 1464              		.loc 2 645 0
 1465 023a 0123     		movs	r3, #1
 1466 023c 7B61     		str	r3, [r7, #20]
 646:..\..\..\lvgl\version_6.1.2\lvgl\src\lv_objx/lv_btn.c ****                 res            = lv_event_send(btn, LV_EVENT_VALUE_CHANGED, &state);
 1467              		.loc 2 646 0
 1468 023e 07F11403 		add	r3, r7, #20
 1469 0242 1A46     		mov	r2, r3
 1470 0244 0E21     		movs	r1, #14
 1471 0246 F868     		ldr	r0, [r7, #12]
 1472 0248 FFF7FEFF 		bl	lv_event_send
 1473 024c 0346     		mov	r3, r0
 1474 024e 87F82730 		strb	r3, [r7, #39]
 647:..\..\..\lvgl\version_6.1.2\lvgl\src\lv_objx/lv_btn.c ****                 if(res != LV_RES_OK) return res;
 1475              		.loc 2 647 0
 1476 0252 97F82730 		ldrb	r3, [r7, #39]	@ zero_extendqisi2
 1477 0256 012B     		cmp	r3, #1
 1478 0258 25D0     		beq	.L102
ARM GAS  C:\Users\tmj32\AppData\Local\Temp\ccKhIVes.s 			page 41


 1479              		.loc 2 647 0 is_stmt 0 discriminator 1
 1480 025a 97F82730 		ldrb	r3, [r7, #39]	@ zero_extendqisi2
 1481 025e 25E0     		b	.L74
 1482              	.L96:
 1483              	.LBE6:
 648:..\..\..\lvgl\version_6.1.2\lvgl\src\lv_objx/lv_btn.c ****             }
 649:..\..\..\lvgl\version_6.1.2\lvgl\src\lv_objx/lv_btn.c **** 
 650:..\..\..\lvgl\version_6.1.2\lvgl\src\lv_objx/lv_btn.c ****         } else if(c == LV_KEY_LEFT || c == LV_KEY_DOWN) {
 1484              		.loc 2 650 0 is_stmt 1
 1485 0260 BB7F     		ldrb	r3, [r7, #30]	@ zero_extendqisi2
 1486 0262 142B     		cmp	r3, #20
 1487 0264 02D0     		beq	.L100
 1488              		.loc 2 650 0 is_stmt 0 discriminator 1
 1489 0266 BB7F     		ldrb	r3, [r7, #30]	@ zero_extendqisi2
 1490 0268 122B     		cmp	r3, #18
 1491 026a 1DD1     		bne	.L79
 1492              	.L100:
 651:..\..\..\lvgl\version_6.1.2\lvgl\src\lv_objx/lv_btn.c ****             if(lv_btn_get_toggle(btn)) {
 1493              		.loc 2 651 0 is_stmt 1
 1494 026c F868     		ldr	r0, [r7, #12]
 1495 026e FFF7FEFF 		bl	lv_btn_get_toggle
 1496 0272 0346     		mov	r3, r0
 1497 0274 002B     		cmp	r3, #0
 1498 0276 17D0     		beq	.L79
 1499              	.LBB7:
 652:..\..\..\lvgl\version_6.1.2\lvgl\src\lv_objx/lv_btn.c ****                 lv_btn_set_state(btn, LV_BTN_STATE_REL);
 1500              		.loc 2 652 0
 1501 0278 0021     		movs	r1, #0
 1502 027a F868     		ldr	r0, [r7, #12]
 1503 027c FFF7FEFF 		bl	lv_btn_set_state
 653:..\..\..\lvgl\version_6.1.2\lvgl\src\lv_objx/lv_btn.c **** 
 654:..\..\..\lvgl\version_6.1.2\lvgl\src\lv_objx/lv_btn.c ****                 uint32_t state = 0;
 1504              		.loc 2 654 0
 1505 0280 0023     		movs	r3, #0
 1506 0282 3B61     		str	r3, [r7, #16]
 655:..\..\..\lvgl\version_6.1.2\lvgl\src\lv_objx/lv_btn.c ****                 res            = lv_event_send(btn, LV_EVENT_VALUE_CHANGED, &state);
 1507              		.loc 2 655 0
 1508 0284 07F11003 		add	r3, r7, #16
 1509 0288 1A46     		mov	r2, r3
 1510 028a 0E21     		movs	r1, #14
 1511 028c F868     		ldr	r0, [r7, #12]
 1512 028e FFF7FEFF 		bl	lv_event_send
 1513 0292 0346     		mov	r3, r0
 1514 0294 87F82730 		strb	r3, [r7, #39]
 656:..\..\..\lvgl\version_6.1.2\lvgl\src\lv_objx/lv_btn.c ****                 if(res != LV_RES_OK) return res;
 1515              		.loc 2 656 0
 1516 0298 97F82730 		ldrb	r3, [r7, #39]	@ zero_extendqisi2
 1517 029c 012B     		cmp	r3, #1
 1518 029e 03D0     		beq	.L79
 1519              		.loc 2 656 0 is_stmt 0 discriminator 1
 1520 02a0 97F82730 		ldrb	r3, [r7, #39]	@ zero_extendqisi2
 1521 02a4 02E0     		b	.L74
 1522              	.L102:
 1523              	.LBE7:
 642:..\..\..\lvgl\version_6.1.2\lvgl\src\lv_objx/lv_btn.c ****                 lv_btn_set_state(btn, LV_BTN_STATE_TGL_REL);
 1524              		.loc 2 642 0 is_stmt 1
 1525 02a6 00BF     		nop
ARM GAS  C:\Users\tmj32\AppData\Local\Temp\ccKhIVes.s 			page 42


 1526              	.L79:
 1527              	.LBE5:
 657:..\..\..\lvgl\version_6.1.2\lvgl\src\lv_objx/lv_btn.c ****             }
 658:..\..\..\lvgl\version_6.1.2\lvgl\src\lv_objx/lv_btn.c ****         }
 659:..\..\..\lvgl\version_6.1.2\lvgl\src\lv_objx/lv_btn.c ****     } else if(sign == LV_SIGNAL_CLEANUP) {
 660:..\..\..\lvgl\version_6.1.2\lvgl\src\lv_objx/lv_btn.c **** #if LV_USE_ANIMATION && LV_BTN_INK_EFFECT
 661:..\..\..\lvgl\version_6.1.2\lvgl\src\lv_objx/lv_btn.c ****         if(btn == ink_obj) {
 662:..\..\..\lvgl\version_6.1.2\lvgl\src\lv_objx/lv_btn.c ****             lv_anim_del(ink_obj, (lv_anim_exec_xcb_t)lv_btn_ink_effect_anim);
 663:..\..\..\lvgl\version_6.1.2\lvgl\src\lv_objx/lv_btn.c ****             ink_obj = NULL;
 664:..\..\..\lvgl\version_6.1.2\lvgl\src\lv_objx/lv_btn.c ****         }
 665:..\..\..\lvgl\version_6.1.2\lvgl\src\lv_objx/lv_btn.c **** #endif
 666:..\..\..\lvgl\version_6.1.2\lvgl\src\lv_objx/lv_btn.c ****     }
 667:..\..\..\lvgl\version_6.1.2\lvgl\src\lv_objx/lv_btn.c **** 
 668:..\..\..\lvgl\version_6.1.2\lvgl\src\lv_objx/lv_btn.c ****     return res;
 1528              		.loc 2 668 0
 1529 02a8 97F82730 		ldrb	r3, [r7, #39]	@ zero_extendqisi2
 1530              	.L74:
 669:..\..\..\lvgl\version_6.1.2\lvgl\src\lv_objx/lv_btn.c **** }
 1531              		.loc 2 669 0
 1532 02ac 1846     		mov	r0, r3
 1533 02ae 2837     		adds	r7, r7, #40
 1534              		.cfi_def_cfa_offset 8
 1535 02b0 BD46     		mov	sp, r7
 1536              		.cfi_def_cfa_register 13
 1537              		@ sp needed
 1538 02b2 80BD     		pop	{r7, pc}
 1539              	.L104:
 1540              		.align	2
 1541              	.L103:
 1542 02b4 00000000 		.word	ancestor_signal
 1543 02b8 00000000 		.word	.LC0
 1544              		.cfi_endproc
 1545              	.LFE59:
 1546              		.size	lv_btn_signal, .-lv_btn_signal
 1547              		.text
 1548              	.Letext0:
 1549              		.file 3 "c:\\program files (x86)\\cypress\\psoc creator\\4.3\\psoc creator\\import\\gnu\\arm\\5.4.
 1550              		.file 4 "c:\\program files (x86)\\cypress\\psoc creator\\4.3\\psoc creator\\import\\gnu\\arm\\5.4.
 1551              		.file 5 "..\\..\\..\\lvgl\\version_6.1.2\\lvgl\\src\\lv_objx\\../../../lv_conf.h"
 1552              		.file 6 "..\\..\\..\\lvgl\\version_6.1.2\\lvgl\\src\\lv_objx\\../lv_core/../lv_font/lv_font.h"
 1553              		.file 7 "..\\..\\..\\lvgl\\version_6.1.2\\lvgl\\src\\lv_objx\\../lv_core/../lv_misc/lv_color.h"
 1554              		.file 8 "..\\..\\..\\lvgl\\version_6.1.2\\lvgl\\src\\lv_objx\\../lv_core/../lv_misc/lv_area.h"
 1555              		.file 9 "..\\..\\..\\lvgl\\version_6.1.2\\lvgl\\src\\lv_objx\\../lv_core/lv_style.h"
 1556              		.file 10 "..\\..\\..\\lvgl\\version_6.1.2\\lvgl\\src\\lv_objx\\../lv_core/../lv_misc/lv_types.h"
 1557              		.file 11 "..\\..\\..\\lvgl\\version_6.1.2\\lvgl\\src\\lv_objx\\../lv_core/../lv_misc/lv_ll.h"
 1558              		.file 12 "..\\..\\..\\lvgl\\version_6.1.2\\lvgl\\src\\lv_objx\\../lv_core/../lv_misc/lv_bidi.h"
 1559              		.file 13 "..\\..\\..\\lvgl\\version_6.1.2\\lvgl\\src\\lv_objx\\../lv_core/lv_obj.h"
 1560              		.file 14 "..\\..\\..\\lvgl\\version_6.1.2\\lvgl\\src\\lv_objx\\lv_cont.h"
 1561              		.file 15 "..\\..\\..\\lvgl\\version_6.1.2\\lvgl\\src\\lv_objx\\../lv_core/../lv_core/lv_group.h"
 1562              		.file 16 "..\\..\\..\\lvgl\\version_6.1.2\\lvgl\\src\\lv_objx\\../lv_themes/lv_theme.h"
 1563              		.section	.debug_info,"",%progbits
 1564              	.Ldebug_info0:
 1565 0000 00180000 		.4byte	0x1800
 1566 0004 0400     		.2byte	0x4
 1567 0006 00000000 		.4byte	.Ldebug_abbrev0
 1568 000a 04       		.byte	0x4
 1569 000b 01       		.uleb128 0x1
ARM GAS  C:\Users\tmj32\AppData\Local\Temp\ccKhIVes.s 			page 43


 1570 000c 170B0000 		.4byte	.LASF288
 1571 0010 0C       		.byte	0xc
 1572 0011 1C010000 		.4byte	.LASF289
 1573 0015 8A060000 		.4byte	.LASF290
 1574 0019 00000000 		.4byte	.Ldebug_ranges0+0
 1575 001d 00000000 		.4byte	0
 1576 0021 00000000 		.4byte	.Ldebug_line0
 1577 0025 02       		.uleb128 0x2
 1578 0026 170A0000 		.4byte	.LASF0
 1579 002a 03       		.byte	0x3
 1580 002b 1B       		.byte	0x1b
 1581 002c 30000000 		.4byte	0x30
 1582 0030 03       		.uleb128 0x3
 1583 0031 01       		.byte	0x1
 1584 0032 06       		.byte	0x6
 1585 0033 82020000 		.4byte	.LASF2
 1586 0037 02       		.uleb128 0x2
 1587 0038 E1010000 		.4byte	.LASF1
 1588 003c 03       		.byte	0x3
 1589 003d 1D       		.byte	0x1d
 1590 003e 42000000 		.4byte	0x42
 1591 0042 03       		.uleb128 0x3
 1592 0043 01       		.byte	0x1
 1593 0044 08       		.byte	0x8
 1594 0045 EB020000 		.4byte	.LASF3
 1595 0049 02       		.uleb128 0x2
 1596 004a D70B0000 		.4byte	.LASF4
 1597 004e 03       		.byte	0x3
 1598 004f 29       		.byte	0x29
 1599 0050 54000000 		.4byte	0x54
 1600 0054 03       		.uleb128 0x3
 1601 0055 02       		.byte	0x2
 1602 0056 05       		.byte	0x5
 1603 0057 AD0C0000 		.4byte	.LASF5
 1604 005b 02       		.uleb128 0x2
 1605 005c A8030000 		.4byte	.LASF6
 1606 0060 03       		.byte	0x3
 1607 0061 2B       		.byte	0x2b
 1608 0062 66000000 		.4byte	0x66
 1609 0066 03       		.uleb128 0x3
 1610 0067 02       		.byte	0x2
 1611 0068 07       		.byte	0x7
 1612 0069 F30D0000 		.4byte	.LASF7
 1613 006d 03       		.uleb128 0x3
 1614 006e 04       		.byte	0x4
 1615 006f 05       		.byte	0x5
 1616 0070 F8010000 		.4byte	.LASF8
 1617 0074 02       		.uleb128 0x2
 1618 0075 5A060000 		.4byte	.LASF9
 1619 0079 03       		.byte	0x3
 1620 007a 41       		.byte	0x41
 1621 007b 7F000000 		.4byte	0x7f
 1622 007f 03       		.uleb128 0x3
 1623 0080 04       		.byte	0x4
 1624 0081 07       		.byte	0x7
 1625 0082 A1050000 		.4byte	.LASF10
 1626 0086 03       		.uleb128 0x3
ARM GAS  C:\Users\tmj32\AppData\Local\Temp\ccKhIVes.s 			page 44


 1627 0087 08       		.byte	0x8
 1628 0088 05       		.byte	0x5
 1629 0089 7C060000 		.4byte	.LASF11
 1630 008d 03       		.uleb128 0x3
 1631 008e 08       		.byte	0x8
 1632 008f 07       		.byte	0x7
 1633 0090 740A0000 		.4byte	.LASF12
 1634 0094 04       		.uleb128 0x4
 1635 0095 04       		.byte	0x4
 1636 0096 05       		.byte	0x5
 1637 0097 696E7400 		.ascii	"int\000"
 1638 009b 03       		.uleb128 0x3
 1639 009c 04       		.byte	0x4
 1640 009d 07       		.byte	0x7
 1641 009e F0070000 		.4byte	.LASF13
 1642 00a2 02       		.uleb128 0x2
 1643 00a3 00000000 		.4byte	.LASF14
 1644 00a7 04       		.byte	0x4
 1645 00a8 14       		.byte	0x14
 1646 00a9 25000000 		.4byte	0x25
 1647 00ad 02       		.uleb128 0x2
 1648 00ae 8E020000 		.4byte	.LASF15
 1649 00b2 04       		.byte	0x4
 1650 00b3 18       		.byte	0x18
 1651 00b4 37000000 		.4byte	0x37
 1652 00b8 02       		.uleb128 0x2
 1653 00b9 F30C0000 		.4byte	.LASF16
 1654 00bd 04       		.byte	0x4
 1655 00be 20       		.byte	0x20
 1656 00bf 49000000 		.4byte	0x49
 1657 00c3 02       		.uleb128 0x2
 1658 00c4 990A0000 		.4byte	.LASF17
 1659 00c8 04       		.byte	0x4
 1660 00c9 24       		.byte	0x24
 1661 00ca 5B000000 		.4byte	0x5b
 1662 00ce 02       		.uleb128 0x2
 1663 00cf B10D0000 		.4byte	.LASF18
 1664 00d3 04       		.byte	0x4
 1665 00d4 30       		.byte	0x30
 1666 00d5 74000000 		.4byte	0x74
 1667 00d9 02       		.uleb128 0x2
 1668 00da 130E0000 		.4byte	.LASF19
 1669 00de 05       		.byte	0x5
 1670 00df 3C       		.byte	0x3c
 1671 00e0 B8000000 		.4byte	0xb8
 1672 00e4 05       		.uleb128 0x5
 1673 00e5 04       		.byte	0x4
 1674 00e6 03       		.uleb128 0x3
 1675 00e7 08       		.byte	0x8
 1676 00e8 04       		.byte	0x4
 1677 00e9 28090000 		.4byte	.LASF20
 1678 00ed 06       		.uleb128 0x6
 1679 00ee 08       		.byte	0x8
 1680 00ef 06       		.byte	0x6
 1681 00f0 2E       		.byte	0x2e
 1682 00f1 3E010000 		.4byte	0x13e
 1683 00f5 07       		.uleb128 0x7
ARM GAS  C:\Users\tmj32\AppData\Local\Temp\ccKhIVes.s 			page 45


 1684 00f6 28000000 		.4byte	.LASF21
 1685 00fa 06       		.byte	0x6
 1686 00fb 30       		.byte	0x30
 1687 00fc C3000000 		.4byte	0xc3
 1688 0100 00       		.byte	0
 1689 0101 07       		.uleb128 0x7
 1690 0102 A70C0000 		.4byte	.LASF22
 1691 0106 06       		.byte	0x6
 1692 0107 31       		.byte	0x31
 1693 0108 AD000000 		.4byte	0xad
 1694 010c 02       		.byte	0x2
 1695 010d 07       		.uleb128 0x7
 1696 010e 7E0C0000 		.4byte	.LASF23
 1697 0112 06       		.byte	0x6
 1698 0113 32       		.byte	0x32
 1699 0114 AD000000 		.4byte	0xad
 1700 0118 03       		.byte	0x3
 1701 0119 07       		.uleb128 0x7
 1702 011a 37030000 		.4byte	.LASF24
 1703 011e 06       		.byte	0x6
 1704 011f 33       		.byte	0x33
 1705 0120 A2000000 		.4byte	0xa2
 1706 0124 04       		.byte	0x4
 1707 0125 07       		.uleb128 0x7
 1708 0126 3D030000 		.4byte	.LASF25
 1709 012a 06       		.byte	0x6
 1710 012b 34       		.byte	0x34
 1711 012c A2000000 		.4byte	0xa2
 1712 0130 05       		.byte	0x5
 1713 0131 08       		.uleb128 0x8
 1714 0132 62707000 		.ascii	"bpp\000"
 1715 0136 06       		.byte	0x6
 1716 0137 35       		.byte	0x35
 1717 0138 AD000000 		.4byte	0xad
 1718 013c 06       		.byte	0x6
 1719 013d 00       		.byte	0
 1720 013e 02       		.uleb128 0x2
 1721 013f 67080000 		.4byte	.LASF26
 1722 0143 06       		.byte	0x6
 1723 0144 36       		.byte	0x36
 1724 0145 ED000000 		.4byte	0xed
 1725 0149 09       		.uleb128 0x9
 1726 014a C60E0000 		.4byte	.LASF81
 1727 014e 10       		.byte	0x10
 1728 014f 06       		.byte	0x6
 1729 0150 44       		.byte	0x44
 1730 0151 A1010000 		.4byte	0x1a1
 1731 0155 07       		.uleb128 0x7
 1732 0156 500E0000 		.4byte	.LASF27
 1733 015a 06       		.byte	0x6
 1734 015b 47       		.byte	0x47
 1735 015c D7010000 		.4byte	0x1d7
 1736 0160 00       		.byte	0
 1737 0161 07       		.uleb128 0x7
 1738 0162 AF020000 		.4byte	.LASF28
 1739 0166 06       		.byte	0x6
 1740 0167 4A       		.byte	0x4a
ARM GAS  C:\Users\tmj32\AppData\Local\Temp\ccKhIVes.s 			page 46


 1741 0168 FC010000 		.4byte	0x1fc
 1742 016c 04       		.byte	0x4
 1743 016d 07       		.uleb128 0x7
 1744 016e D9000000 		.4byte	.LASF29
 1745 0172 06       		.byte	0x6
 1746 0173 4D       		.byte	0x4d
 1747 0174 AD000000 		.4byte	0xad
 1748 0178 08       		.byte	0x8
 1749 0179 07       		.uleb128 0x7
 1750 017a CE0C0000 		.4byte	.LASF30
 1751 017e 06       		.byte	0x6
 1752 017f 4E       		.byte	0x4e
 1753 0180 A2000000 		.4byte	0xa2
 1754 0184 09       		.byte	0x9
 1755 0185 0A       		.uleb128 0xa
 1756 0186 73090000 		.4byte	.LASF64
 1757 018a 06       		.byte	0x6
 1758 018b 4F       		.byte	0x4f
 1759 018c AD000000 		.4byte	0xad
 1760 0190 01       		.byte	0x1
 1761 0191 02       		.byte	0x2
 1762 0192 06       		.byte	0x6
 1763 0193 0A       		.byte	0xa
 1764 0194 08       		.uleb128 0x8
 1765 0195 64736300 		.ascii	"dsc\000"
 1766 0199 06       		.byte	0x6
 1767 019a 50       		.byte	0x50
 1768 019b E4000000 		.4byte	0xe4
 1769 019f 0C       		.byte	0xc
 1770 01a0 00       		.byte	0
 1771 01a1 0B       		.uleb128 0xb
 1772 01a2 BF010000 		.4byte	0x1bf
 1773 01a6 BF010000 		.4byte	0x1bf
 1774 01aa 0C       		.uleb128 0xc
 1775 01ab C6010000 		.4byte	0x1c6
 1776 01af 0C       		.uleb128 0xc
 1777 01b0 D1010000 		.4byte	0x1d1
 1778 01b4 0C       		.uleb128 0xc
 1779 01b5 CE000000 		.4byte	0xce
 1780 01b9 0C       		.uleb128 0xc
 1781 01ba CE000000 		.4byte	0xce
 1782 01be 00       		.byte	0
 1783 01bf 03       		.uleb128 0x3
 1784 01c0 01       		.byte	0x1
 1785 01c1 02       		.byte	0x2
 1786 01c2 5B030000 		.4byte	.LASF31
 1787 01c6 0D       		.uleb128 0xd
 1788 01c7 04       		.byte	0x4
 1789 01c8 CC010000 		.4byte	0x1cc
 1790 01cc 0E       		.uleb128 0xe
 1791 01cd 49010000 		.4byte	0x149
 1792 01d1 0D       		.uleb128 0xd
 1793 01d2 04       		.byte	0x4
 1794 01d3 3E010000 		.4byte	0x13e
 1795 01d7 0D       		.uleb128 0xd
 1796 01d8 04       		.byte	0x4
 1797 01d9 A1010000 		.4byte	0x1a1
ARM GAS  C:\Users\tmj32\AppData\Local\Temp\ccKhIVes.s 			page 47


 1798 01dd 0B       		.uleb128 0xb
 1799 01de F1010000 		.4byte	0x1f1
 1800 01e2 F1010000 		.4byte	0x1f1
 1801 01e6 0C       		.uleb128 0xc
 1802 01e7 C6010000 		.4byte	0x1c6
 1803 01eb 0C       		.uleb128 0xc
 1804 01ec CE000000 		.4byte	0xce
 1805 01f0 00       		.byte	0
 1806 01f1 0D       		.uleb128 0xd
 1807 01f2 04       		.byte	0x4
 1808 01f3 F7010000 		.4byte	0x1f7
 1809 01f7 0E       		.uleb128 0xe
 1810 01f8 AD000000 		.4byte	0xad
 1811 01fc 0D       		.uleb128 0xd
 1812 01fd 04       		.byte	0x4
 1813 01fe DD010000 		.4byte	0x1dd
 1814 0202 02       		.uleb128 0x2
 1815 0203 C50D0000 		.4byte	.LASF32
 1816 0207 06       		.byte	0x6
 1817 0208 56       		.byte	0x56
 1818 0209 49010000 		.4byte	0x149
 1819 020d 06       		.uleb128 0x6
 1820 020e 04       		.byte	0x4
 1821 020f 07       		.byte	0x7
 1822 0210 F3       		.byte	0xf3
 1823 0211 46020000 		.4byte	0x246
 1824 0215 07       		.uleb128 0x7
 1825 0216 CD020000 		.4byte	.LASF33
 1826 021a 07       		.byte	0x7
 1827 021b F5       		.byte	0xf5
 1828 021c AD000000 		.4byte	0xad
 1829 0220 00       		.byte	0
 1830 0221 07       		.uleb128 0x7
 1831 0222 BF0D0000 		.4byte	.LASF34
 1832 0226 07       		.byte	0x7
 1833 0227 F6       		.byte	0xf6
 1834 0228 AD000000 		.4byte	0xad
 1835 022c 01       		.byte	0x1
 1836 022d 08       		.uleb128 0x8
 1837 022e 72656400 		.ascii	"red\000"
 1838 0232 07       		.byte	0x7
 1839 0233 F7       		.byte	0xf7
 1840 0234 AD000000 		.4byte	0xad
 1841 0238 02       		.byte	0x2
 1842 0239 07       		.uleb128 0x7
 1843 023a EB010000 		.4byte	.LASF35
 1844 023e 07       		.byte	0x7
 1845 023f F8       		.byte	0xf8
 1846 0240 AD000000 		.4byte	0xad
 1847 0244 03       		.byte	0x3
 1848 0245 00       		.byte	0
 1849 0246 0F       		.uleb128 0xf
 1850 0247 04       		.byte	0x4
 1851 0248 07       		.byte	0x7
 1852 0249 F1       		.byte	0xf1
 1853 024a 64020000 		.4byte	0x264
 1854 024e 10       		.uleb128 0x10
ARM GAS  C:\Users\tmj32\AppData\Local\Temp\ccKhIVes.s 			page 48


 1855 024f 636800   		.ascii	"ch\000"
 1856 0252 07       		.byte	0x7
 1857 0253 F9       		.byte	0xf9
 1858 0254 0D020000 		.4byte	0x20d
 1859 0258 11       		.uleb128 0x11
 1860 0259 F80B0000 		.4byte	.LASF36
 1861 025d 07       		.byte	0x7
 1862 025e FA       		.byte	0xfa
 1863 025f CE000000 		.4byte	0xce
 1864 0263 00       		.byte	0
 1865 0264 02       		.uleb128 0x2
 1866 0265 4E000000 		.4byte	.LASF37
 1867 0269 07       		.byte	0x7
 1868 026a FB       		.byte	0xfb
 1869 026b 46020000 		.4byte	0x246
 1870 026f 12       		.uleb128 0x12
 1871 0270 BC0A0000 		.4byte	.LASF38
 1872 0274 07       		.byte	0x7
 1873 0275 0801     		.2byte	0x108
 1874 0277 64020000 		.4byte	0x264
 1875 027b 12       		.uleb128 0x12
 1876 027c 79000000 		.4byte	.LASF39
 1877 0280 07       		.byte	0x7
 1878 0281 0D01     		.2byte	0x10d
 1879 0283 AD000000 		.4byte	0xad
 1880 0287 03       		.uleb128 0x3
 1881 0288 04       		.byte	0x4
 1882 0289 07       		.byte	0x7
 1883 028a 38000000 		.4byte	.LASF40
 1884 028e 03       		.uleb128 0x3
 1885 028f 01       		.byte	0x1
 1886 0290 08       		.byte	0x8
 1887 0291 76030000 		.4byte	.LASF41
 1888 0295 06       		.uleb128 0x6
 1889 0296 08       		.byte	0x8
 1890 0297 08       		.byte	0x8
 1891 0298 31       		.byte	0x31
 1892 0299 CA020000 		.4byte	0x2ca
 1893 029d 08       		.uleb128 0x8
 1894 029e 783100   		.ascii	"x1\000"
 1895 02a1 08       		.byte	0x8
 1896 02a2 33       		.byte	0x33
 1897 02a3 D9000000 		.4byte	0xd9
 1898 02a7 00       		.byte	0
 1899 02a8 08       		.uleb128 0x8
 1900 02a9 793100   		.ascii	"y1\000"
 1901 02ac 08       		.byte	0x8
 1902 02ad 34       		.byte	0x34
 1903 02ae D9000000 		.4byte	0xd9
 1904 02b2 02       		.byte	0x2
 1905 02b3 08       		.uleb128 0x8
 1906 02b4 783200   		.ascii	"x2\000"
 1907 02b7 08       		.byte	0x8
 1908 02b8 35       		.byte	0x35
 1909 02b9 D9000000 		.4byte	0xd9
 1910 02bd 04       		.byte	0x4
 1911 02be 08       		.uleb128 0x8
ARM GAS  C:\Users\tmj32\AppData\Local\Temp\ccKhIVes.s 			page 49


 1912 02bf 793200   		.ascii	"y2\000"
 1913 02c2 08       		.byte	0x8
 1914 02c3 36       		.byte	0x36
 1915 02c4 D9000000 		.4byte	0xd9
 1916 02c8 06       		.byte	0x6
 1917 02c9 00       		.byte	0
 1918 02ca 02       		.uleb128 0x2
 1919 02cb E5040000 		.4byte	.LASF42
 1920 02cf 08       		.byte	0x8
 1921 02d0 37       		.byte	0x37
 1922 02d1 95020000 		.4byte	0x295
 1923 02d5 02       		.uleb128 0x2
 1924 02d6 650E0000 		.4byte	.LASF43
 1925 02da 09       		.byte	0x9
 1926 02db 2C       		.byte	0x2c
 1927 02dc AD000000 		.4byte	0xad
 1928 02e0 02       		.uleb128 0x2
 1929 02e1 3A0C0000 		.4byte	.LASF44
 1930 02e5 09       		.byte	0x9
 1931 02e6 33       		.byte	0x33
 1932 02e7 AD000000 		.4byte	0xad
 1933 02eb 06       		.uleb128 0x6
 1934 02ec 08       		.byte	0x8
 1935 02ed 09       		.byte	0x9
 1936 02ee 48       		.byte	0x48
 1937 02ef 24030000 		.4byte	0x324
 1938 02f3 07       		.uleb128 0x7
 1939 02f4 FD0B0000 		.4byte	.LASF45
 1940 02f8 09       		.byte	0x9
 1941 02f9 4A       		.byte	0x4a
 1942 02fa 6F020000 		.4byte	0x26f
 1943 02fe 00       		.byte	0
 1944 02ff 07       		.uleb128 0x7
 1945 0300 27070000 		.4byte	.LASF46
 1946 0304 09       		.byte	0x9
 1947 0305 4B       		.byte	0x4b
 1948 0306 D9000000 		.4byte	0xd9
 1949 030a 04       		.byte	0x4
 1950 030b 07       		.uleb128 0x7
 1951 030c D60E0000 		.4byte	.LASF47
 1952 0310 09       		.byte	0x9
 1953 0311 4C       		.byte	0x4c
 1954 0312 D5020000 		.4byte	0x2d5
 1955 0316 06       		.byte	0x6
 1956 0317 08       		.uleb128 0x8
 1957 0318 6F706100 		.ascii	"opa\000"
 1958 031c 09       		.byte	0x9
 1959 031d 4D       		.byte	0x4d
 1960 031e 7B020000 		.4byte	0x27b
 1961 0322 07       		.byte	0x7
 1962 0323 00       		.byte	0
 1963 0324 06       		.uleb128 0x6
 1964 0325 08       		.byte	0x8
 1965 0326 09       		.byte	0x9
 1966 0327 51       		.byte	0x51
 1967 0328 51030000 		.4byte	0x351
 1968 032c 07       		.uleb128 0x7
ARM GAS  C:\Users\tmj32\AppData\Local\Temp\ccKhIVes.s 			page 50


 1969 032d FD0B0000 		.4byte	.LASF45
 1970 0331 09       		.byte	0x9
 1971 0332 53       		.byte	0x53
 1972 0333 6F020000 		.4byte	0x26f
 1973 0337 00       		.byte	0
 1974 0338 07       		.uleb128 0x7
 1975 0339 27070000 		.4byte	.LASF46
 1976 033d 09       		.byte	0x9
 1977 033e 54       		.byte	0x54
 1978 033f D9000000 		.4byte	0xd9
 1979 0343 04       		.byte	0x4
 1980 0344 07       		.uleb128 0x7
 1981 0345 92010000 		.4byte	.LASF48
 1982 0349 09       		.byte	0x9
 1983 034a 55       		.byte	0x55
 1984 034b E0020000 		.4byte	0x2e0
 1985 034f 06       		.byte	0x6
 1986 0350 00       		.byte	0
 1987 0351 06       		.uleb128 0x6
 1988 0352 0A       		.byte	0xa
 1989 0353 09       		.byte	0x9
 1990 0354 58       		.byte	0x58
 1991 0355 96030000 		.4byte	0x396
 1992 0359 08       		.uleb128 0x8
 1993 035a 746F7000 		.ascii	"top\000"
 1994 035e 09       		.byte	0x9
 1995 035f 5A       		.byte	0x5a
 1996 0360 D9000000 		.4byte	0xd9
 1997 0364 00       		.byte	0
 1998 0365 07       		.uleb128 0x7
 1999 0366 3F070000 		.4byte	.LASF49
 2000 036a 09       		.byte	0x9
 2001 036b 5B       		.byte	0x5b
 2002 036c D9000000 		.4byte	0xd9
 2003 0370 02       		.byte	0x2
 2004 0371 07       		.uleb128 0x7
 2005 0372 19050000 		.4byte	.LASF50
 2006 0376 09       		.byte	0x9
 2007 0377 5C       		.byte	0x5c
 2008 0378 D9000000 		.4byte	0xd9
 2009 037c 04       		.byte	0x4
 2010 037d 07       		.uleb128 0x7
 2011 037e 6E060000 		.4byte	.LASF51
 2012 0382 09       		.byte	0x9
 2013 0383 5D       		.byte	0x5d
 2014 0384 D9000000 		.4byte	0xd9
 2015 0388 06       		.byte	0x6
 2016 0389 07       		.uleb128 0x7
 2017 038a 94050000 		.4byte	.LASF52
 2018 038e 09       		.byte	0x9
 2019 038f 5E       		.byte	0x5e
 2020 0390 D9000000 		.4byte	0xd9
 2021 0394 08       		.byte	0x8
 2022 0395 00       		.byte	0
 2023 0396 06       		.uleb128 0x6
 2024 0397 28       		.byte	0x28
 2025 0398 09       		.byte	0x9
ARM GAS  C:\Users\tmj32\AppData\Local\Temp\ccKhIVes.s 			page 51


 2026 0399 41       		.byte	0x41
 2027 039a F3030000 		.4byte	0x3f3
 2028 039e 07       		.uleb128 0x7
 2029 039f 0C0A0000 		.4byte	.LASF53
 2030 03a3 09       		.byte	0x9
 2031 03a4 43       		.byte	0x43
 2032 03a5 6F020000 		.4byte	0x26f
 2033 03a9 00       		.byte	0
 2034 03aa 07       		.uleb128 0x7
 2035 03ab 80080000 		.4byte	.LASF54
 2036 03af 09       		.byte	0x9
 2037 03b0 44       		.byte	0x44
 2038 03b1 6F020000 		.4byte	0x26f
 2039 03b5 04       		.byte	0x4
 2040 03b6 07       		.uleb128 0x7
 2041 03b7 C5000000 		.4byte	.LASF55
 2042 03bb 09       		.byte	0x9
 2043 03bc 45       		.byte	0x45
 2044 03bd D9000000 		.4byte	0xd9
 2045 03c1 08       		.byte	0x8
 2046 03c2 08       		.uleb128 0x8
 2047 03c3 6F706100 		.ascii	"opa\000"
 2048 03c7 09       		.byte	0x9
 2049 03c8 46       		.byte	0x46
 2050 03c9 7B020000 		.4byte	0x27b
 2051 03cd 0A       		.byte	0xa
 2052 03ce 07       		.uleb128 0x7
 2053 03cf 430E0000 		.4byte	.LASF56
 2054 03d3 09       		.byte	0x9
 2055 03d4 4E       		.byte	0x4e
 2056 03d5 EB020000 		.4byte	0x2eb
 2057 03d9 0C       		.byte	0xc
 2058 03da 07       		.uleb128 0x7
 2059 03db 340D0000 		.4byte	.LASF57
 2060 03df 09       		.byte	0x9
 2061 03e0 56       		.byte	0x56
 2062 03e1 24030000 		.4byte	0x324
 2063 03e5 14       		.byte	0x14
 2064 03e6 07       		.uleb128 0x7
 2065 03e7 9F0D0000 		.4byte	.LASF58
 2066 03eb 09       		.byte	0x9
 2067 03ec 5F       		.byte	0x5f
 2068 03ed 51030000 		.4byte	0x351
 2069 03f1 1C       		.byte	0x1c
 2070 03f2 00       		.byte	0
 2071 03f3 06       		.uleb128 0x6
 2072 03f4 14       		.byte	0x14
 2073 03f5 09       		.byte	0x9
 2074 03f6 63       		.byte	0x63
 2075 03f7 44040000 		.4byte	0x444
 2076 03fb 07       		.uleb128 0x7
 2077 03fc FD0B0000 		.4byte	.LASF45
 2078 0400 09       		.byte	0x9
 2079 0401 65       		.byte	0x65
 2080 0402 6F020000 		.4byte	0x26f
 2081 0406 00       		.byte	0
 2082 0407 07       		.uleb128 0x7
ARM GAS  C:\Users\tmj32\AppData\Local\Temp\ccKhIVes.s 			page 52


 2083 0408 BC0E0000 		.4byte	.LASF59
 2084 040c 09       		.byte	0x9
 2085 040d 66       		.byte	0x66
 2086 040e 6F020000 		.4byte	0x26f
 2087 0412 04       		.byte	0x4
 2088 0413 07       		.uleb128 0x7
 2089 0414 5A0C0000 		.4byte	.LASF60
 2090 0418 09       		.byte	0x9
 2091 0419 67       		.byte	0x67
 2092 041a 44040000 		.4byte	0x444
 2093 041e 08       		.byte	0x8
 2094 041f 07       		.uleb128 0x7
 2095 0420 5F0C0000 		.4byte	.LASF61
 2096 0424 09       		.byte	0x9
 2097 0425 68       		.byte	0x68
 2098 0426 D9000000 		.4byte	0xd9
 2099 042a 0C       		.byte	0xc
 2100 042b 07       		.uleb128 0x7
 2101 042c 080C0000 		.4byte	.LASF62
 2102 0430 09       		.byte	0x9
 2103 0431 69       		.byte	0x69
 2104 0432 D9000000 		.4byte	0xd9
 2105 0436 0E       		.byte	0xe
 2106 0437 08       		.uleb128 0x8
 2107 0438 6F706100 		.ascii	"opa\000"
 2108 043c 09       		.byte	0x9
 2109 043d 6A       		.byte	0x6a
 2110 043e 7B020000 		.4byte	0x27b
 2111 0442 10       		.byte	0x10
 2112 0443 00       		.byte	0
 2113 0444 0D       		.uleb128 0xd
 2114 0445 04       		.byte	0x4
 2115 0446 4A040000 		.4byte	0x44a
 2116 044a 0E       		.uleb128 0xe
 2117 044b 02020000 		.4byte	0x202
 2118 044f 06       		.uleb128 0x6
 2119 0450 08       		.byte	0x8
 2120 0451 09       		.byte	0x9
 2121 0452 6E       		.byte	0x6e
 2122 0453 7C040000 		.4byte	0x47c
 2123 0457 07       		.uleb128 0x7
 2124 0458 FD0B0000 		.4byte	.LASF45
 2125 045c 09       		.byte	0x9
 2126 045d 70       		.byte	0x70
 2127 045e 6F020000 		.4byte	0x26f
 2128 0462 00       		.byte	0
 2129 0463 07       		.uleb128 0x7
 2130 0464 91000000 		.4byte	.LASF63
 2131 0468 09       		.byte	0x9
 2132 0469 71       		.byte	0x71
 2133 046a 7B020000 		.4byte	0x27b
 2134 046e 04       		.byte	0x4
 2135 046f 08       		.uleb128 0x8
 2136 0470 6F706100 		.ascii	"opa\000"
 2137 0474 09       		.byte	0x9
 2138 0475 72       		.byte	0x72
 2139 0476 7B020000 		.4byte	0x27b
ARM GAS  C:\Users\tmj32\AppData\Local\Temp\ccKhIVes.s 			page 53


 2140 047a 05       		.byte	0x5
 2141 047b 00       		.byte	0
 2142 047c 06       		.uleb128 0x6
 2143 047d 08       		.byte	0x8
 2144 047e 09       		.byte	0x9
 2145 047f 76       		.byte	0x76
 2146 0480 B8040000 		.4byte	0x4b8
 2147 0484 07       		.uleb128 0x7
 2148 0485 FD0B0000 		.4byte	.LASF45
 2149 0489 09       		.byte	0x9
 2150 048a 78       		.byte	0x78
 2151 048b 6F020000 		.4byte	0x26f
 2152 048f 00       		.byte	0
 2153 0490 07       		.uleb128 0x7
 2154 0491 27070000 		.4byte	.LASF46
 2155 0495 09       		.byte	0x9
 2156 0496 79       		.byte	0x79
 2157 0497 D9000000 		.4byte	0xd9
 2158 049b 04       		.byte	0x4
 2159 049c 08       		.uleb128 0x8
 2160 049d 6F706100 		.ascii	"opa\000"
 2161 04a1 09       		.byte	0x9
 2162 04a2 7A       		.byte	0x7a
 2163 04a3 7B020000 		.4byte	0x27b
 2164 04a7 06       		.byte	0x6
 2165 04a8 0A       		.uleb128 0xa
 2166 04a9 A9040000 		.4byte	.LASF65
 2167 04ad 09       		.byte	0x9
 2168 04ae 7B       		.byte	0x7b
 2169 04af AD000000 		.4byte	0xad
 2170 04b3 01       		.byte	0x1
 2171 04b4 01       		.byte	0x1
 2172 04b5 07       		.byte	0x7
 2173 04b6 07       		.byte	0x7
 2174 04b7 00       		.byte	0
 2175 04b8 06       		.uleb128 0x6
 2176 04b9 50       		.byte	0x50
 2177 04ba 09       		.byte	0x9
 2178 04bb 3C       		.byte	0x3c
 2179 04bc 00050000 		.4byte	0x500
 2180 04c0 0A       		.uleb128 0xa
 2181 04c1 BB070000 		.4byte	.LASF66
 2182 04c5 09       		.byte	0x9
 2183 04c6 3E       		.byte	0x3e
 2184 04c7 AD000000 		.4byte	0xad
 2185 04cb 01       		.byte	0x1
 2186 04cc 01       		.byte	0x1
 2187 04cd 07       		.byte	0x7
 2188 04ce 00       		.byte	0
 2189 04cf 07       		.uleb128 0x7
 2190 04d0 9E030000 		.4byte	.LASF67
 2191 04d4 09       		.byte	0x9
 2192 04d5 60       		.byte	0x60
 2193 04d6 96030000 		.4byte	0x396
 2194 04da 04       		.byte	0x4
 2195 04db 07       		.uleb128 0x7
 2196 04dc 7C040000 		.4byte	.LASF68
ARM GAS  C:\Users\tmj32\AppData\Local\Temp\ccKhIVes.s 			page 54


 2197 04e0 09       		.byte	0x9
 2198 04e1 6B       		.byte	0x6b
 2199 04e2 F3030000 		.4byte	0x3f3
 2200 04e6 2C       		.byte	0x2c
 2201 04e7 07       		.uleb128 0x7
 2202 04e8 A3040000 		.4byte	.LASF69
 2203 04ec 09       		.byte	0x9
 2204 04ed 73       		.byte	0x73
 2205 04ee 4F040000 		.4byte	0x44f
 2206 04f2 40       		.byte	0x40
 2207 04f3 07       		.uleb128 0x7
 2208 04f4 ED050000 		.4byte	.LASF70
 2209 04f8 09       		.byte	0x9
 2210 04f9 7C       		.byte	0x7c
 2211 04fa 7C040000 		.4byte	0x47c
 2212 04fe 48       		.byte	0x48
 2213 04ff 00       		.byte	0
 2214 0500 02       		.uleb128 0x2
 2215 0501 89050000 		.4byte	.LASF71
 2216 0505 09       		.byte	0x9
 2217 0506 84       		.byte	0x84
 2218 0507 B8040000 		.4byte	0x4b8
 2219 050b 0D       		.uleb128 0xd
 2220 050c 04       		.byte	0x4
 2221 050d 00050000 		.4byte	0x500
 2222 0511 13       		.uleb128 0x13
 2223 0512 01       		.byte	0x1
 2224 0513 42000000 		.4byte	0x42
 2225 0517 0A       		.byte	0xa
 2226 0518 27       		.byte	0x27
 2227 0519 2A050000 		.4byte	0x52a
 2228 051d 14       		.uleb128 0x14
 2229 051e 75010000 		.4byte	.LASF72
 2230 0522 00       		.byte	0
 2231 0523 14       		.uleb128 0x14
 2232 0524 A20A0000 		.4byte	.LASF73
 2233 0528 01       		.byte	0x1
 2234 0529 00       		.byte	0
 2235 052a 02       		.uleb128 0x2
 2236 052b 1F090000 		.4byte	.LASF74
 2237 052f 0A       		.byte	0xa
 2238 0530 2C       		.byte	0x2c
 2239 0531 AD000000 		.4byte	0xad
 2240 0535 02       		.uleb128 0x2
 2241 0536 07000000 		.4byte	.LASF75
 2242 053a 0B       		.byte	0xb
 2243 053b 1E       		.byte	0x1e
 2244 053c AD000000 		.4byte	0xad
 2245 0540 06       		.uleb128 0x6
 2246 0541 0C       		.byte	0xc
 2247 0542 0B       		.byte	0xb
 2248 0543 21       		.byte	0x21
 2249 0544 6D050000 		.4byte	0x56d
 2250 0548 07       		.uleb128 0x7
 2251 0549 DB0E0000 		.4byte	.LASF76
 2252 054d 0B       		.byte	0xb
 2253 054e 23       		.byte	0x23
ARM GAS  C:\Users\tmj32\AppData\Local\Temp\ccKhIVes.s 			page 55


 2254 054f CE000000 		.4byte	0xce
 2255 0553 00       		.byte	0
 2256 0554 07       		.uleb128 0x7
 2257 0555 3B020000 		.4byte	.LASF77
 2258 0559 0B       		.byte	0xb
 2259 055a 24       		.byte	0x24
 2260 055b 6D050000 		.4byte	0x56d
 2261 055f 04       		.byte	0x4
 2262 0560 07       		.uleb128 0x7
 2263 0561 60000000 		.4byte	.LASF78
 2264 0565 0B       		.byte	0xb
 2265 0566 25       		.byte	0x25
 2266 0567 6D050000 		.4byte	0x56d
 2267 056b 08       		.byte	0x8
 2268 056c 00       		.byte	0
 2269 056d 0D       		.uleb128 0xd
 2270 056e 04       		.byte	0x4
 2271 056f 35050000 		.4byte	0x535
 2272 0573 02       		.uleb128 0x2
 2273 0574 D80C0000 		.4byte	.LASF79
 2274 0578 0B       		.byte	0xb
 2275 0579 26       		.byte	0x26
 2276 057a 40050000 		.4byte	0x540
 2277 057e 02       		.uleb128 0x2
 2278 057f CA040000 		.4byte	.LASF80
 2279 0583 0C       		.byte	0xc
 2280 0584 30       		.byte	0x30
 2281 0585 AD000000 		.4byte	0xad
 2282 0589 0D       		.uleb128 0xd
 2283 058a 04       		.byte	0x4
 2284 058b 8F050000 		.4byte	0x58f
 2285 058f 0E       		.uleb128 0xe
 2286 0590 CA020000 		.4byte	0x2ca
 2287 0594 09       		.uleb128 0x9
 2288 0595 500C0000 		.4byte	.LASF82
 2289 0599 40       		.byte	0x40
 2290 059a 0D       		.byte	0xd
 2291 059b BB       		.byte	0xbb
 2292 059c D6060000 		.4byte	0x6d6
 2293 05a0 08       		.uleb128 0x8
 2294 05a1 70617200 		.ascii	"par\000"
 2295 05a5 0D       		.byte	0xd
 2296 05a6 BD       		.byte	0xbd
 2297 05a7 D6060000 		.4byte	0x6d6
 2298 05ab 00       		.byte	0
 2299 05ac 07       		.uleb128 0x7
 2300 05ad 46070000 		.4byte	.LASF83
 2301 05b1 0D       		.byte	0xd
 2302 05b2 BE       		.byte	0xbe
 2303 05b3 73050000 		.4byte	0x573
 2304 05b7 04       		.byte	0x4
 2305 05b8 07       		.uleb128 0x7
 2306 05b9 0E0D0000 		.4byte	.LASF84
 2307 05bd 0D       		.byte	0xd
 2308 05be C0       		.byte	0xc0
 2309 05bf CA020000 		.4byte	0x2ca
 2310 05c3 10       		.byte	0x10
ARM GAS  C:\Users\tmj32\AppData\Local\Temp\ccKhIVes.s 			page 56


 2311 05c4 07       		.uleb128 0x7
 2312 05c5 65060000 		.4byte	.LASF85
 2313 05c9 0D       		.byte	0xd
 2314 05ca C2       		.byte	0xc2
 2315 05cb C0070000 		.4byte	0x7c0
 2316 05cf 18       		.byte	0x18
 2317 05d0 07       		.uleb128 0x7
 2318 05d1 A70D0000 		.4byte	.LASF86
 2319 05d5 0D       		.byte	0xd
 2320 05d6 C3       		.byte	0xc3
 2321 05d7 71080000 		.4byte	0x871
 2322 05db 1C       		.byte	0x1c
 2323 05dc 07       		.uleb128 0x7
 2324 05dd 10040000 		.4byte	.LASF87
 2325 05e1 0D       		.byte	0xd
 2326 05e2 C4       		.byte	0xc4
 2327 05e3 06070000 		.4byte	0x706
 2328 05e7 20       		.byte	0x20
 2329 05e8 07       		.uleb128 0x7
 2330 05e9 48090000 		.4byte	.LASF88
 2331 05ed 0D       		.byte	0xd
 2332 05ee C6       		.byte	0xc6
 2333 05ef E4000000 		.4byte	0xe4
 2334 05f3 24       		.byte	0x24
 2335 05f4 07       		.uleb128 0x7
 2336 05f5 74060000 		.4byte	.LASF89
 2337 05f9 0D       		.byte	0xd
 2338 05fa C7       		.byte	0xc7
 2339 05fb 1E090000 		.4byte	0x91e
 2340 05ff 28       		.byte	0x28
 2341 0600 0A       		.uleb128 0xa
 2342 0601 E5000000 		.4byte	.LASF90
 2343 0605 0D       		.byte	0xd
 2344 0606 D7       		.byte	0xd7
 2345 0607 AD000000 		.4byte	0xad
 2346 060b 01       		.byte	0x1
 2347 060c 01       		.byte	0x1
 2348 060d 07       		.byte	0x7
 2349 060e 2C       		.byte	0x2c
 2350 060f 0A       		.uleb128 0xa
 2351 0610 4B0C0000 		.4byte	.LASF91
 2352 0614 0D       		.byte	0xd
 2353 0615 D8       		.byte	0xd8
 2354 0616 AD000000 		.4byte	0xad
 2355 061a 01       		.byte	0x1
 2356 061b 01       		.byte	0x1
 2357 061c 06       		.byte	0x6
 2358 061d 2C       		.byte	0x2c
 2359 061e 0A       		.uleb128 0xa
 2360 061f B1040000 		.4byte	.LASF92
 2361 0623 0D       		.byte	0xd
 2362 0624 D9       		.byte	0xd9
 2363 0625 AD000000 		.4byte	0xad
 2364 0629 01       		.byte	0x1
 2365 062a 01       		.byte	0x1
 2366 062b 05       		.byte	0x5
 2367 062c 2C       		.byte	0x2c
ARM GAS  C:\Users\tmj32\AppData\Local\Temp\ccKhIVes.s 			page 57


 2368 062d 0A       		.uleb128 0xa
 2369 062e 5A0D0000 		.4byte	.LASF93
 2370 0632 0D       		.byte	0xd
 2371 0633 DA       		.byte	0xda
 2372 0634 AD000000 		.4byte	0xad
 2373 0638 01       		.byte	0x1
 2374 0639 01       		.byte	0x1
 2375 063a 04       		.byte	0x4
 2376 063b 2C       		.byte	0x2c
 2377 063c 0A       		.uleb128 0xa
 2378 063d F1010000 		.4byte	.LASF94
 2379 0641 0D       		.byte	0xd
 2380 0642 DB       		.byte	0xdb
 2381 0643 AD000000 		.4byte	0xad
 2382 0647 01       		.byte	0x1
 2383 0648 01       		.byte	0x1
 2384 0649 03       		.byte	0x3
 2385 064a 2C       		.byte	0x2c
 2386 064b 15       		.uleb128 0x15
 2387 064c 746F7000 		.ascii	"top\000"
 2388 0650 0D       		.byte	0xd
 2389 0651 DC       		.byte	0xdc
 2390 0652 AD000000 		.4byte	0xad
 2391 0656 01       		.byte	0x1
 2392 0657 01       		.byte	0x1
 2393 0658 02       		.byte	0x2
 2394 0659 2C       		.byte	0x2c
 2395 065a 0A       		.uleb128 0xa
 2396 065b 1D0D0000 		.4byte	.LASF95
 2397 065f 0D       		.byte	0xd
 2398 0660 DD       		.byte	0xdd
 2399 0661 AD000000 		.4byte	0xad
 2400 0665 01       		.byte	0x1
 2401 0666 01       		.byte	0x1
 2402 0667 01       		.byte	0x1
 2403 0668 2C       		.byte	0x2c
 2404 0669 0A       		.uleb128 0xa
 2405 066a 71070000 		.4byte	.LASF96
 2406 066e 0D       		.byte	0xd
 2407 066f DE       		.byte	0xde
 2408 0670 AD000000 		.4byte	0xad
 2409 0674 01       		.byte	0x1
 2410 0675 01       		.byte	0x1
 2411 0676 00       		.byte	0
 2412 0677 2C       		.byte	0x2c
 2413 0678 0A       		.uleb128 0xa
 2414 0679 26030000 		.4byte	.LASF97
 2415 067d 0D       		.byte	0xd
 2416 067e DF       		.byte	0xdf
 2417 067f 13090000 		.4byte	0x913
 2418 0683 01       		.byte	0x1
 2419 0684 02       		.byte	0x2
 2420 0685 06       		.byte	0x6
 2421 0686 2D       		.byte	0x2d
 2422 0687 0A       		.uleb128 0xa
 2423 0688 750C0000 		.4byte	.LASF98
 2424 068c 0D       		.byte	0xd
ARM GAS  C:\Users\tmj32\AppData\Local\Temp\ccKhIVes.s 			page 58


 2425 068d E0       		.byte	0xe0
 2426 068e 7E050000 		.4byte	0x57e
 2427 0692 01       		.byte	0x1
 2428 0693 02       		.byte	0x2
 2429 0694 04       		.byte	0x4
 2430 0695 2D       		.byte	0x2d
 2431 0696 0A       		.uleb128 0xa
 2432 0697 CF0D0000 		.4byte	.LASF99
 2433 069b 0D       		.byte	0xd
 2434 069c E1       		.byte	0xe1
 2435 069d AD000000 		.4byte	0xad
 2436 06a1 01       		.byte	0x1
 2437 06a2 03       		.byte	0x3
 2438 06a3 01       		.byte	0x1
 2439 06a4 2D       		.byte	0x2d
 2440 06a5 07       		.uleb128 0x7
 2441 06a6 55070000 		.4byte	.LASF100
 2442 06aa 0D       		.byte	0xd
 2443 06ab E2       		.byte	0xe2
 2444 06ac AD000000 		.4byte	0xad
 2445 06b0 2E       		.byte	0x2e
 2446 06b1 07       		.uleb128 0x7
 2447 06b2 1C0F0000 		.4byte	.LASF101
 2448 06b6 0D       		.byte	0xd
 2449 06b7 E4       		.byte	0xe4
 2450 06b8 7B020000 		.4byte	0x27b
 2451 06bc 2F       		.byte	0x2f
 2452 06bd 07       		.uleb128 0x7
 2453 06be D8040000 		.4byte	.LASF102
 2454 06c2 0D       		.byte	0xd
 2455 06c3 E6       		.byte	0xe6
 2456 06c4 D9000000 		.4byte	0xd9
 2457 06c8 30       		.byte	0x30
 2458 06c9 07       		.uleb128 0x7
 2459 06ca 38050000 		.4byte	.LASF103
 2460 06ce 0D       		.byte	0xd
 2461 06cf E9       		.byte	0xe9
 2462 06d0 08090000 		.4byte	0x908
 2463 06d4 34       		.byte	0x34
 2464 06d5 00       		.byte	0
 2465 06d6 0D       		.uleb128 0xd
 2466 06d7 04       		.byte	0x4
 2467 06d8 94050000 		.4byte	0x594
 2468 06dc 13       		.uleb128 0x13
 2469 06dd 01       		.byte	0x1
 2470 06de 42000000 		.4byte	0x42
 2471 06e2 0D       		.byte	0xd
 2472 06e3 3D       		.byte	0x3d
 2473 06e4 FB060000 		.4byte	0x6fb
 2474 06e8 14       		.uleb128 0x14
 2475 06e9 53080000 		.4byte	.LASF104
 2476 06ed 00       		.byte	0
 2477 06ee 14       		.uleb128 0x14
 2478 06ef 8A030000 		.4byte	.LASF105
 2479 06f3 01       		.byte	0x1
 2480 06f4 14       		.uleb128 0x14
 2481 06f5 FC030000 		.4byte	.LASF106
ARM GAS  C:\Users\tmj32\AppData\Local\Temp\ccKhIVes.s 			page 59


 2482 06f9 02       		.byte	0x2
 2483 06fa 00       		.byte	0
 2484 06fb 02       		.uleb128 0x2
 2485 06fc 62090000 		.4byte	.LASF107
 2486 0700 0D       		.byte	0xd
 2487 0701 42       		.byte	0x42
 2488 0702 AD000000 		.4byte	0xad
 2489 0706 02       		.uleb128 0x2
 2490 0707 0D0F0000 		.4byte	.LASF108
 2491 070b 0D       		.byte	0xd
 2492 070c 48       		.byte	0x48
 2493 070d 11070000 		.4byte	0x711
 2494 0711 0D       		.uleb128 0xd
 2495 0712 04       		.byte	0x4
 2496 0713 17070000 		.4byte	0x717
 2497 0717 0B       		.uleb128 0xb
 2498 0718 BF010000 		.4byte	0x1bf
 2499 071c 30070000 		.4byte	0x730
 2500 0720 0C       		.uleb128 0xc
 2501 0721 D6060000 		.4byte	0x6d6
 2502 0725 0C       		.uleb128 0xc
 2503 0726 89050000 		.4byte	0x589
 2504 072a 0C       		.uleb128 0xc
 2505 072b FB060000 		.4byte	0x6fb
 2506 072f 00       		.byte	0
 2507 0730 13       		.uleb128 0x13
 2508 0731 01       		.byte	0x1
 2509 0732 42000000 		.4byte	0x42
 2510 0736 0D       		.byte	0xd
 2511 0737 4A       		.byte	0x4a
 2512 0738 B5070000 		.4byte	0x7b5
 2513 073c 14       		.uleb128 0x14
 2514 073d BE090000 		.4byte	.LASF109
 2515 0741 00       		.byte	0
 2516 0742 14       		.uleb128 0x14
 2517 0743 94080000 		.4byte	.LASF110
 2518 0747 01       		.byte	0x1
 2519 0748 14       		.uleb128 0x14
 2520 0749 1E0E0000 		.4byte	.LASF111
 2521 074d 02       		.byte	0x2
 2522 074e 14       		.uleb128 0x14
 2523 074f D9080000 		.4byte	.LASF112
 2524 0753 03       		.byte	0x3
 2525 0754 14       		.uleb128 0x14
 2526 0755 97010000 		.4byte	.LASF113
 2527 0759 04       		.byte	0x4
 2528 075a 14       		.uleb128 0x14
 2529 075b 02090000 		.4byte	.LASF114
 2530 075f 05       		.byte	0x5
 2531 0760 14       		.uleb128 0x14
 2532 0761 08050000 		.4byte	.LASF115
 2533 0765 06       		.byte	0x6
 2534 0766 14       		.uleb128 0x14
 2535 0767 FB0E0000 		.4byte	.LASF116
 2536 076b 07       		.byte	0x7
 2537 076c 14       		.uleb128 0x14
 2538 076d 8F040000 		.4byte	.LASF117
ARM GAS  C:\Users\tmj32\AppData\Local\Temp\ccKhIVes.s 			page 60


 2539 0771 08       		.byte	0x8
 2540 0772 14       		.uleb128 0x14
 2541 0773 79090000 		.4byte	.LASF118
 2542 0777 09       		.byte	0x9
 2543 0778 14       		.uleb128 0x14
 2544 0779 40050000 		.4byte	.LASF119
 2545 077d 0A       		.byte	0xa
 2546 077e 14       		.uleb128 0x14
 2547 077f 060E0000 		.4byte	.LASF120
 2548 0783 0B       		.byte	0xb
 2549 0784 14       		.uleb128 0x14
 2550 0785 3D040000 		.4byte	.LASF121
 2551 0789 0C       		.byte	0xc
 2552 078a 14       		.uleb128 0x14
 2553 078b 3B0D0000 		.4byte	.LASF122
 2554 078f 0D       		.byte	0xd
 2555 0790 14       		.uleb128 0x14
 2556 0791 1E080000 		.4byte	.LASF123
 2557 0795 0E       		.byte	0xe
 2558 0796 14       		.uleb128 0x14
 2559 0797 99000000 		.4byte	.LASF124
 2560 079b 0F       		.byte	0xf
 2561 079c 14       		.uleb128 0x14
 2562 079d 11060000 		.4byte	.LASF125
 2563 07a1 10       		.byte	0x10
 2564 07a2 14       		.uleb128 0x14
 2565 07a3 29050000 		.4byte	.LASF126
 2566 07a7 11       		.byte	0x11
 2567 07a8 14       		.uleb128 0x14
 2568 07a9 E9090000 		.4byte	.LASF127
 2569 07ad 12       		.byte	0x12
 2570 07ae 14       		.uleb128 0x14
 2571 07af D2070000 		.4byte	.LASF128
 2572 07b3 13       		.byte	0x13
 2573 07b4 00       		.byte	0
 2574 07b5 02       		.uleb128 0x2
 2575 07b6 57010000 		.4byte	.LASF129
 2576 07ba 0D       		.byte	0xd
 2577 07bb 61       		.byte	0x61
 2578 07bc AD000000 		.4byte	0xad
 2579 07c0 02       		.uleb128 0x2
 2580 07c1 760E0000 		.4byte	.LASF130
 2581 07c5 0D       		.byte	0xd
 2582 07c6 68       		.byte	0x68
 2583 07c7 CB070000 		.4byte	0x7cb
 2584 07cb 0D       		.uleb128 0xd
 2585 07cc 04       		.byte	0x4
 2586 07cd D1070000 		.4byte	0x7d1
 2587 07d1 16       		.uleb128 0x16
 2588 07d2 E1070000 		.4byte	0x7e1
 2589 07d6 0C       		.uleb128 0xc
 2590 07d7 D6060000 		.4byte	0x6d6
 2591 07db 0C       		.uleb128 0xc
 2592 07dc B5070000 		.4byte	0x7b5
 2593 07e0 00       		.byte	0
 2594 07e1 13       		.uleb128 0x13
 2595 07e2 01       		.byte	0x1
ARM GAS  C:\Users\tmj32\AppData\Local\Temp\ccKhIVes.s 			page 61


 2596 07e3 42000000 		.4byte	0x42
 2597 07e7 0D       		.byte	0xd
 2598 07e8 6D       		.byte	0x6d
 2599 07e9 66080000 		.4byte	0x866
 2600 07ed 14       		.uleb128 0x14
 2601 07ee 7E070000 		.4byte	.LASF131
 2602 07f2 00       		.byte	0
 2603 07f3 14       		.uleb128 0x14
 2604 07f4 FD070000 		.4byte	.LASF132
 2605 07f8 01       		.byte	0x1
 2606 07f9 14       		.uleb128 0x14
 2607 07fa FB0C0000 		.4byte	.LASF133
 2608 07fe 02       		.byte	0x2
 2609 07ff 14       		.uleb128 0x14
 2610 0800 CF090000 		.4byte	.LASF134
 2611 0804 03       		.byte	0x3
 2612 0805 14       		.uleb128 0x14
 2613 0806 65000000 		.4byte	.LASF135
 2614 080a 04       		.byte	0x4
 2615 080b 14       		.uleb128 0x14
 2616 080c 660D0000 		.4byte	.LASF136
 2617 0810 05       		.byte	0x5
 2618 0811 14       		.uleb128 0x14
 2619 0812 0A030000 		.4byte	.LASF137
 2620 0816 06       		.byte	0x6
 2621 0817 14       		.uleb128 0x14
 2622 0818 71050000 		.4byte	.LASF138
 2623 081c 07       		.byte	0x7
 2624 081d 14       		.uleb128 0x14
 2625 081e 80010000 		.4byte	.LASF139
 2626 0822 08       		.byte	0x8
 2627 0823 14       		.uleb128 0x14
 2628 0824 C6080000 		.4byte	.LASF140
 2629 0828 09       		.byte	0x9
 2630 0829 14       		.uleb128 0x14
 2631 082a 8B090000 		.4byte	.LASF141
 2632 082e 0A       		.byte	0xa
 2633 082f 14       		.uleb128 0x14
 2634 0830 F9090000 		.4byte	.LASF142
 2635 0834 0B       		.byte	0xb
 2636 0835 14       		.uleb128 0x14
 2637 0836 B0000000 		.4byte	.LASF143
 2638 083a 0C       		.byte	0xc
 2639 083b 14       		.uleb128 0x14
 2640 083c D2020000 		.4byte	.LASF144
 2641 0840 0D       		.byte	0xd
 2642 0841 14       		.uleb128 0x14
 2643 0842 F6000000 		.4byte	.LASF145
 2644 0846 0E       		.byte	0xe
 2645 0847 14       		.uleb128 0x14
 2646 0848 AB090000 		.4byte	.LASF146
 2647 084c 0F       		.byte	0xf
 2648 084d 14       		.uleb128 0x14
 2649 084e 01060000 		.4byte	.LASF147
 2650 0852 10       		.byte	0x10
 2651 0853 14       		.uleb128 0x14
 2652 0854 2B040000 		.4byte	.LASF148
ARM GAS  C:\Users\tmj32\AppData\Local\Temp\ccKhIVes.s 			page 62


 2653 0858 11       		.byte	0x11
 2654 0859 14       		.uleb128 0x14
 2655 085a 2D070000 		.4byte	.LASF149
 2656 085e 12       		.byte	0x12
 2657 085f 14       		.uleb128 0x14
 2658 0860 3B060000 		.4byte	.LASF150
 2659 0864 13       		.byte	0x13
 2660 0865 00       		.byte	0
 2661 0866 02       		.uleb128 0x2
 2662 0867 280A0000 		.4byte	.LASF151
 2663 086b 0D       		.byte	0xd
 2664 086c 88       		.byte	0x88
 2665 086d AD000000 		.4byte	0xad
 2666 0871 02       		.uleb128 0x2
 2667 0872 61030000 		.4byte	.LASF152
 2668 0876 0D       		.byte	0xd
 2669 0877 8A       		.byte	0x8a
 2670 0878 7C080000 		.4byte	0x87c
 2671 087c 0D       		.uleb128 0xd
 2672 087d 04       		.byte	0x4
 2673 087e 82080000 		.4byte	0x882
 2674 0882 0B       		.uleb128 0xb
 2675 0883 2A050000 		.4byte	0x52a
 2676 0887 9B080000 		.4byte	0x89b
 2677 088b 0C       		.uleb128 0xc
 2678 088c D6060000 		.4byte	0x6d6
 2679 0890 0C       		.uleb128 0xc
 2680 0891 66080000 		.4byte	0x866
 2681 0895 0C       		.uleb128 0xc
 2682 0896 E4000000 		.4byte	0xe4
 2683 089a 00       		.byte	0
 2684 089b 02       		.uleb128 0x2
 2685 089c EB000000 		.4byte	.LASF153
 2686 08a0 0D       		.byte	0xd
 2687 08a1 A4       		.byte	0xa4
 2688 08a2 AD000000 		.4byte	0xad
 2689 08a6 06       		.uleb128 0x6
 2690 08a7 0C       		.byte	0xc
 2691 08a8 0D       		.byte	0xd
 2692 08a9 A7       		.byte	0xa7
 2693 08aa FD080000 		.4byte	0x8fd
 2694 08ae 07       		.uleb128 0x7
 2695 08af 900C0000 		.4byte	.LASF154
 2696 08b3 0D       		.byte	0xd
 2697 08b4 A9       		.byte	0xa9
 2698 08b5 FD080000 		.4byte	0x8fd
 2699 08b9 00       		.byte	0
 2700 08ba 07       		.uleb128 0x7
 2701 08bb 130C0000 		.4byte	.LASF155
 2702 08bf 0D       		.byte	0xd
 2703 08c0 AA       		.byte	0xaa
 2704 08c1 D9000000 		.4byte	0xd9
 2705 08c5 04       		.byte	0x4
 2706 08c6 07       		.uleb128 0x7
 2707 08c7 A3030000 		.4byte	.LASF156
 2708 08cb 0D       		.byte	0xd
 2709 08cc AB       		.byte	0xab
ARM GAS  C:\Users\tmj32\AppData\Local\Temp\ccKhIVes.s 			page 63


 2710 08cd D9000000 		.4byte	0xd9
 2711 08d1 06       		.byte	0x6
 2712 08d2 07       		.uleb128 0x7
 2713 08d3 90070000 		.4byte	.LASF157
 2714 08d7 0D       		.byte	0xd
 2715 08d8 AC       		.byte	0xac
 2716 08d9 9B080000 		.4byte	0x89b
 2717 08dd 08       		.byte	0x8
 2718 08de 0A       		.uleb128 0xa
 2719 08df 46080000 		.4byte	.LASF158
 2720 08e3 0D       		.byte	0xd
 2721 08e4 AD       		.byte	0xad
 2722 08e5 AD000000 		.4byte	0xad
 2723 08e9 01       		.byte	0x1
 2724 08ea 01       		.byte	0x1
 2725 08eb 07       		.byte	0x7
 2726 08ec 09       		.byte	0x9
 2727 08ed 0A       		.uleb128 0xa
 2728 08ee 8C0E0000 		.4byte	.LASF159
 2729 08f2 0D       		.byte	0xd
 2730 08f3 AE       		.byte	0xae
 2731 08f4 AD000000 		.4byte	0xad
 2732 08f8 01       		.byte	0x1
 2733 08f9 01       		.byte	0x1
 2734 08fa 06       		.byte	0x6
 2735 08fb 09       		.byte	0x9
 2736 08fc 00       		.byte	0
 2737 08fd 0D       		.uleb128 0xd
 2738 08fe 04       		.byte	0x4
 2739 08ff 03090000 		.4byte	0x903
 2740 0903 0E       		.uleb128 0xe
 2741 0904 94050000 		.4byte	0x594
 2742 0908 02       		.uleb128 0x2
 2743 0909 CC000000 		.4byte	.LASF160
 2744 090d 0D       		.byte	0xd
 2745 090e B0       		.byte	0xb0
 2746 090f A6080000 		.4byte	0x8a6
 2747 0913 02       		.uleb128 0x2
 2748 0914 34090000 		.4byte	.LASF161
 2749 0918 0D       		.byte	0xd
 2750 0919 B9       		.byte	0xb9
 2751 091a AD000000 		.4byte	0xad
 2752 091e 0D       		.uleb128 0xd
 2753 091f 04       		.byte	0x4
 2754 0920 24090000 		.4byte	0x924
 2755 0924 0E       		.uleb128 0xe
 2756 0925 00050000 		.4byte	0x500
 2757 0929 02       		.uleb128 0x2
 2758 092a 220C0000 		.4byte	.LASF162
 2759 092e 0D       		.byte	0xd
 2760 092f F0       		.byte	0xf0
 2761 0930 94050000 		.4byte	0x594
 2762 0934 13       		.uleb128 0x13
 2763 0935 01       		.byte	0x1
 2764 0936 42000000 		.4byte	0x42
 2765 093a 0E       		.byte	0xe
 2766 093b 23       		.byte	0x23
ARM GAS  C:\Users\tmj32\AppData\Local\Temp\ccKhIVes.s 			page 64


 2767 093c 83090000 		.4byte	0x983
 2768 0940 14       		.uleb128 0x14
 2769 0941 DF050000 		.4byte	.LASF163
 2770 0945 00       		.byte	0
 2771 0946 14       		.uleb128 0x14
 2772 0947 320E0000 		.4byte	.LASF164
 2773 094b 01       		.byte	0x1
 2774 094c 14       		.uleb128 0x14
 2775 094d BC030000 		.4byte	.LASF165
 2776 0951 02       		.byte	0x2
 2777 0952 14       		.uleb128 0x14
 2778 0953 CC030000 		.4byte	.LASF166
 2779 0957 03       		.byte	0x3
 2780 0958 14       		.uleb128 0x14
 2781 0959 DC030000 		.4byte	.LASF167
 2782 095d 04       		.byte	0x4
 2783 095e 14       		.uleb128 0x14
 2784 095f 50020000 		.4byte	.LASF168
 2785 0963 05       		.byte	0x5
 2786 0964 14       		.uleb128 0x14
 2787 0965 40020000 		.4byte	.LASF169
 2788 0969 06       		.byte	0x6
 2789 096a 14       		.uleb128 0x14
 2790 096b 1A020000 		.4byte	.LASF170
 2791 096f 07       		.byte	0x7
 2792 0970 14       		.uleb128 0x14
 2793 0971 2A020000 		.4byte	.LASF171
 2794 0975 08       		.byte	0x8
 2795 0976 14       		.uleb128 0x14
 2796 0977 2B0C0000 		.4byte	.LASF172
 2797 097b 09       		.byte	0x9
 2798 097c 14       		.uleb128 0x14
 2799 097d 7B030000 		.4byte	.LASF173
 2800 0981 0A       		.byte	0xa
 2801 0982 00       		.byte	0
 2802 0983 02       		.uleb128 0x2
 2803 0984 4E0D0000 		.4byte	.LASF174
 2804 0988 0E       		.byte	0xe
 2805 0989 30       		.byte	0x30
 2806 098a AD000000 		.4byte	0xad
 2807 098e 06       		.uleb128 0x6
 2808 098f 02       		.byte	0x2
 2809 0990 0E       		.byte	0xe
 2810 0991 3F       		.byte	0x3f
 2811 0992 E2090000 		.4byte	0x9e2
 2812 0996 0A       		.uleb128 0xa
 2813 0997 5D070000 		.4byte	.LASF175
 2814 099b 0E       		.byte	0xe
 2815 099c 43       		.byte	0x43
 2816 099d AD000000 		.4byte	0xad
 2817 09a1 01       		.byte	0x1
 2818 09a2 04       		.byte	0x4
 2819 09a3 04       		.byte	0x4
 2820 09a4 00       		.byte	0
 2821 09a5 0A       		.uleb128 0xa
 2822 09a6 8B080000 		.4byte	.LASF176
 2823 09aa 0E       		.byte	0xe
ARM GAS  C:\Users\tmj32\AppData\Local\Temp\ccKhIVes.s 			page 65


 2824 09ab 44       		.byte	0x44
 2825 09ac AD000000 		.4byte	0xad
 2826 09b0 01       		.byte	0x1
 2827 09b1 02       		.byte	0x2
 2828 09b2 02       		.byte	0x2
 2829 09b3 00       		.byte	0
 2830 09b4 0A       		.uleb128 0xa
 2831 09b5 180C0000 		.4byte	.LASF177
 2832 09b9 0E       		.byte	0xe
 2833 09ba 45       		.byte	0x45
 2834 09bb AD000000 		.4byte	0xad
 2835 09bf 01       		.byte	0x1
 2836 09c0 02       		.byte	0x2
 2837 09c1 00       		.byte	0
 2838 09c2 00       		.byte	0
 2839 09c3 0A       		.uleb128 0xa
 2840 09c4 A7020000 		.4byte	.LASF178
 2841 09c8 0E       		.byte	0xe
 2842 09c9 46       		.byte	0x46
 2843 09ca AD000000 		.4byte	0xad
 2844 09ce 01       		.byte	0x1
 2845 09cf 02       		.byte	0x2
 2846 09d0 06       		.byte	0x6
 2847 09d1 01       		.byte	0x1
 2848 09d2 0A       		.uleb128 0xa
 2849 09d3 010B0000 		.4byte	.LASF179
 2850 09d7 0E       		.byte	0xe
 2851 09d8 47       		.byte	0x47
 2852 09d9 AD000000 		.4byte	0xad
 2853 09dd 01       		.byte	0x1
 2854 09de 02       		.byte	0x2
 2855 09df 04       		.byte	0x4
 2856 09e0 01       		.byte	0x1
 2857 09e1 00       		.byte	0
 2858 09e2 02       		.uleb128 0x2
 2859 09e3 E2070000 		.4byte	.LASF180
 2860 09e7 0E       		.byte	0xe
 2861 09e8 48       		.byte	0x48
 2862 09e9 8E090000 		.4byte	0x98e
 2863 09ed 13       		.uleb128 0x13
 2864 09ee 01       		.byte	0x1
 2865 09ef 42000000 		.4byte	0x42
 2866 09f3 0F       		.byte	0xf
 2867 09f4 1E       		.byte	0x1e
 2868 09f5 420A0000 		.4byte	0xa42
 2869 09f9 14       		.uleb128 0x14
 2870 09fa B20E0000 		.4byte	.LASF181
 2871 09fe 11       		.byte	0x11
 2872 09ff 14       		.uleb128 0x14
 2873 0a00 F50A0000 		.4byte	.LASF182
 2874 0a04 12       		.byte	0x12
 2875 0a05 14       		.uleb128 0x14
 2876 0a06 41000000 		.4byte	.LASF183
 2877 0a0a 13       		.byte	0x13
 2878 0a0b 14       		.uleb128 0x14
 2879 0a0c 76020000 		.4byte	.LASF184
 2880 0a10 14       		.byte	0x14
ARM GAS  C:\Users\tmj32\AppData\Local\Temp\ccKhIVes.s 			page 66


 2881 0a11 14       		.uleb128 0x14
 2882 0a12 0C0B0000 		.4byte	.LASF185
 2883 0a16 1B       		.byte	0x1b
 2884 0a17 14       		.uleb128 0x14
 2885 0a18 0A020000 		.4byte	.LASF186
 2886 0a1c 7F       		.byte	0x7f
 2887 0a1d 14       		.uleb128 0x14
 2888 0a1e 43030000 		.4byte	.LASF187
 2889 0a22 08       		.byte	0x8
 2890 0a23 14       		.uleb128 0x14
 2891 0a24 68010000 		.4byte	.LASF188
 2892 0a28 0A       		.byte	0xa
 2893 0a29 14       		.uleb128 0x14
 2894 0a2a BA080000 		.4byte	.LASF189
 2895 0a2e 09       		.byte	0x9
 2896 0a2f 14       		.uleb128 0x14
 2897 0a30 840C0000 		.4byte	.LASF190
 2898 0a34 0B       		.byte	0xb
 2899 0a35 14       		.uleb128 0x14
 2900 0a36 B3050000 		.4byte	.LASF191
 2901 0a3a 02       		.byte	0x2
 2902 0a3b 14       		.uleb128 0x14
 2903 0a3c A0090000 		.4byte	.LASF192
 2904 0a40 03       		.byte	0x3
 2905 0a41 00       		.byte	0
 2906 0a42 13       		.uleb128 0x13
 2907 0a43 01       		.byte	0x1
 2908 0a44 42000000 		.4byte	0x42
 2909 0a48 01       		.byte	0x1
 2910 0a49 2A       		.byte	0x2a
 2911 0a4a 730A0000 		.4byte	0xa73
 2912 0a4e 14       		.uleb128 0x14
 2913 0a4f CA010000 		.4byte	.LASF193
 2914 0a53 00       		.byte	0
 2915 0a54 14       		.uleb128 0x14
 2916 0a55 640A0000 		.4byte	.LASF194
 2917 0a59 01       		.byte	0x1
 2918 0a5a 14       		.uleb128 0x14
 2919 0a5b CA050000 		.4byte	.LASF195
 2920 0a5f 02       		.byte	0x2
 2921 0a60 14       		.uleb128 0x14
 2922 0a61 14000000 		.4byte	.LASF196
 2923 0a65 03       		.byte	0x3
 2924 0a66 14       		.uleb128 0x14
 2925 0a67 35080000 		.4byte	.LASF197
 2926 0a6b 04       		.byte	0x4
 2927 0a6c 14       		.uleb128 0x14
 2928 0a6d E20E0000 		.4byte	.LASF198
 2929 0a71 05       		.byte	0x5
 2930 0a72 00       		.byte	0
 2931 0a73 02       		.uleb128 0x2
 2932 0a74 82000000 		.4byte	.LASF199
 2933 0a78 01       		.byte	0x1
 2934 0a79 3D       		.byte	0x3d
 2935 0a7a AD000000 		.4byte	0xad
 2936 0a7e 06       		.uleb128 0x6
 2937 0a7f 1C       		.byte	0x1c
ARM GAS  C:\Users\tmj32\AppData\Local\Temp\ccKhIVes.s 			page 67


 2938 0a80 01       		.byte	0x1
 2939 0a81 40       		.byte	0x40
 2940 0a82 BD0A0000 		.4byte	0xabd
 2941 0a86 07       		.uleb128 0x7
 2942 0a87 C0010000 		.4byte	.LASF200
 2943 0a8b 01       		.byte	0x1
 2944 0a8c 43       		.byte	0x43
 2945 0a8d E2090000 		.4byte	0x9e2
 2946 0a91 00       		.byte	0
 2947 0a92 07       		.uleb128 0x7
 2948 0a93 9A050000 		.4byte	.LASF201
 2949 0a97 01       		.byte	0x1
 2950 0a98 48       		.byte	0x48
 2951 0a99 BD0A0000 		.4byte	0xabd
 2952 0a9d 04       		.byte	0x4
 2953 0a9e 0A       		.uleb128 0xa
 2954 0a9f 62010000 		.4byte	.LASF202
 2955 0aa3 01       		.byte	0x1
 2956 0aa4 55       		.byte	0x55
 2957 0aa5 730A0000 		.4byte	0xa73
 2958 0aa9 01       		.byte	0x1
 2959 0aaa 03       		.byte	0x3
 2960 0aab 05       		.byte	0x5
 2961 0aac 18       		.byte	0x18
 2962 0aad 0A       		.uleb128 0xa
 2963 0aae D80D0000 		.4byte	.LASF203
 2964 0ab2 01       		.byte	0x1
 2965 0ab3 58       		.byte	0x58
 2966 0ab4 AD000000 		.4byte	0xad
 2967 0ab8 01       		.byte	0x1
 2968 0ab9 01       		.byte	0x1
 2969 0aba 04       		.byte	0x4
 2970 0abb 18       		.byte	0x18
 2971 0abc 00       		.byte	0
 2972 0abd 17       		.uleb128 0x17
 2973 0abe 1E090000 		.4byte	0x91e
 2974 0ac2 CD0A0000 		.4byte	0xacd
 2975 0ac6 18       		.uleb128 0x18
 2976 0ac7 87020000 		.4byte	0x287
 2977 0acb 04       		.byte	0x4
 2978 0acc 00       		.byte	0
 2979 0acd 02       		.uleb128 0x2
 2980 0ace B3010000 		.4byte	.LASF204
 2981 0ad2 01       		.byte	0x1
 2982 0ad3 59       		.byte	0x59
 2983 0ad4 7E0A0000 		.4byte	0xa7e
 2984 0ad8 13       		.uleb128 0x13
 2985 0ad9 01       		.byte	0x1
 2986 0ada 42000000 		.4byte	0x42
 2987 0ade 01       		.byte	0x1
 2988 0adf 5C       		.byte	0x5c
 2989 0ae0 030B0000 		.4byte	0xb03
 2990 0ae4 14       		.uleb128 0x14
 2991 0ae5 60020000 		.4byte	.LASF205
 2992 0ae9 00       		.byte	0
 2993 0aea 14       		.uleb128 0x14
 2994 0aeb EC030000 		.4byte	.LASF206
ARM GAS  C:\Users\tmj32\AppData\Local\Temp\ccKhIVes.s 			page 68


 2995 0aef 01       		.byte	0x1
 2996 0af0 14       		.uleb128 0x14
 2997 0af1 980E0000 		.4byte	.LASF207
 2998 0af5 02       		.byte	0x2
 2999 0af6 14       		.uleb128 0x14
 3000 0af7 DF0D0000 		.4byte	.LASF208
 3001 0afb 03       		.byte	0x3
 3002 0afc 14       		.uleb128 0x14
 3003 0afd AA070000 		.4byte	.LASF209
 3004 0b01 04       		.byte	0x4
 3005 0b02 00       		.byte	0
 3006 0b03 02       		.uleb128 0x2
 3007 0b04 F2050000 		.4byte	.LASF210
 3008 0b08 01       		.byte	0x1
 3009 0b09 6C       		.byte	0x6c
 3010 0b0a AD000000 		.4byte	0xad
 3011 0b0e 06       		.uleb128 0x6
 3012 0b0f 14       		.byte	0x14
 3013 0b10 10       		.byte	0x10
 3014 0b11 34       		.byte	0x34
 3015 0b12 520B0000 		.4byte	0xb52
 3016 0b16 08       		.uleb128 0x8
 3017 0b17 72656C00 		.ascii	"rel\000"
 3018 0b1b 10       		.byte	0x10
 3019 0b1c 36       		.byte	0x36
 3020 0b1d 0B050000 		.4byte	0x50b
 3021 0b21 00       		.byte	0
 3022 0b22 08       		.uleb128 0x8
 3023 0b23 707200   		.ascii	"pr\000"
 3024 0b26 10       		.byte	0x10
 3025 0b27 37       		.byte	0x37
 3026 0b28 0B050000 		.4byte	0x50b
 3027 0b2c 04       		.byte	0x4
 3028 0b2d 07       		.uleb128 0x7
 3029 0b2e 16080000 		.4byte	.LASF211
 3030 0b32 10       		.byte	0x10
 3031 0b33 38       		.byte	0x38
 3032 0b34 0B050000 		.4byte	0x50b
 3033 0b38 08       		.byte	0x8
 3034 0b39 07       		.uleb128 0x7
 3035 0b3a A0020000 		.4byte	.LASF212
 3036 0b3e 10       		.byte	0x10
 3037 0b3f 39       		.byte	0x39
 3038 0b40 0B050000 		.4byte	0x50b
 3039 0b44 0C       		.byte	0xc
 3040 0b45 08       		.uleb128 0x8
 3041 0b46 696E6100 		.ascii	"ina\000"
 3042 0b4a 10       		.byte	0x10
 3043 0b4b 3A       		.byte	0x3a
 3044 0b4c 0B050000 		.4byte	0x50b
 3045 0b50 10       		.byte	0x10
 3046 0b51 00       		.byte	0
 3047 0b52 06       		.uleb128 0x6
 3048 0b53 14       		.byte	0x14
 3049 0b54 10       		.byte	0x10
 3050 0b55 3F       		.byte	0x3f
 3051 0b56 960B0000 		.4byte	0xb96
ARM GAS  C:\Users\tmj32\AppData\Local\Temp\ccKhIVes.s 			page 69


 3052 0b5a 08       		.uleb128 0x8
 3053 0b5b 72656C00 		.ascii	"rel\000"
 3054 0b5f 10       		.byte	0x10
 3055 0b60 41       		.byte	0x41
 3056 0b61 0B050000 		.4byte	0x50b
 3057 0b65 00       		.byte	0
 3058 0b66 08       		.uleb128 0x8
 3059 0b67 707200   		.ascii	"pr\000"
 3060 0b6a 10       		.byte	0x10
 3061 0b6b 42       		.byte	0x42
 3062 0b6c 0B050000 		.4byte	0x50b
 3063 0b70 04       		.byte	0x4
 3064 0b71 07       		.uleb128 0x7
 3065 0b72 16080000 		.4byte	.LASF211
 3066 0b76 10       		.byte	0x10
 3067 0b77 43       		.byte	0x43
 3068 0b78 0B050000 		.4byte	0x50b
 3069 0b7c 08       		.byte	0x8
 3070 0b7d 07       		.uleb128 0x7
 3071 0b7e A0020000 		.4byte	.LASF212
 3072 0b82 10       		.byte	0x10
 3073 0b83 44       		.byte	0x44
 3074 0b84 0B050000 		.4byte	0x50b
 3075 0b88 0C       		.byte	0xc
 3076 0b89 08       		.uleb128 0x8
 3077 0b8a 696E6100 		.ascii	"ina\000"
 3078 0b8e 10       		.byte	0x10
 3079 0b8f 45       		.byte	0x45
 3080 0b90 0B050000 		.4byte	0x50b
 3081 0b94 10       		.byte	0x10
 3082 0b95 00       		.byte	0
 3083 0b96 06       		.uleb128 0x6
 3084 0b97 0C       		.byte	0xc
 3085 0b98 10       		.byte	0x10
 3086 0b99 4A       		.byte	0x4a
 3087 0b9a C30B0000 		.4byte	0xbc3
 3088 0b9e 07       		.uleb128 0x7
 3089 0b9f C5010000 		.4byte	.LASF213
 3090 0ba3 10       		.byte	0x10
 3091 0ba4 4C       		.byte	0x4c
 3092 0ba5 0B050000 		.4byte	0x50b
 3093 0ba9 00       		.byte	0
 3094 0baa 08       		.uleb128 0x8
 3095 0bab 73656300 		.ascii	"sec\000"
 3096 0baf 10       		.byte	0x10
 3097 0bb0 4D       		.byte	0x4d
 3098 0bb1 0B050000 		.4byte	0x50b
 3099 0bb5 04       		.byte	0x4
 3100 0bb6 07       		.uleb128 0x7
 3101 0bb7 BF050000 		.4byte	.LASF214
 3102 0bbb 10       		.byte	0x10
 3103 0bbc 4E       		.byte	0x4e
 3104 0bbd 0B050000 		.4byte	0x50b
 3105 0bc1 08       		.byte	0x8
 3106 0bc2 00       		.byte	0
 3107 0bc3 06       		.uleb128 0x6
 3108 0bc4 08       		.byte	0x8
ARM GAS  C:\Users\tmj32\AppData\Local\Temp\ccKhIVes.s 			page 70


 3109 0bc5 10       		.byte	0x10
 3110 0bc6 53       		.byte	0x53
 3111 0bc7 E40B0000 		.4byte	0xbe4
 3112 0bcb 07       		.uleb128 0x7
 3113 0bcc AD010000 		.4byte	.LASF215
 3114 0bd0 10       		.byte	0x10
 3115 0bd1 55       		.byte	0x55
 3116 0bd2 0B050000 		.4byte	0x50b
 3117 0bd6 00       		.byte	0
 3118 0bd7 07       		.uleb128 0x7
 3119 0bd8 BA0D0000 		.4byte	.LASF216
 3120 0bdc 10       		.byte	0x10
 3121 0bdd 56       		.byte	0x56
 3122 0bde 0B050000 		.4byte	0x50b
 3123 0be2 04       		.byte	0x4
 3124 0be3 00       		.byte	0
 3125 0be4 06       		.uleb128 0x6
 3126 0be5 04       		.byte	0x4
 3127 0be6 10       		.byte	0x10
 3128 0be7 5B       		.byte	0x5b
 3129 0be8 F90B0000 		.4byte	0xbf9
 3130 0bec 07       		.uleb128 0x7
 3131 0bed CA0B0000 		.4byte	.LASF217
 3132 0bf1 10       		.byte	0x10
 3133 0bf2 5D       		.byte	0x5d
 3134 0bf3 0B050000 		.4byte	0x50b
 3135 0bf7 00       		.byte	0
 3136 0bf8 00       		.byte	0
 3137 0bf9 06       		.uleb128 0x6
 3138 0bfa 08       		.byte	0x8
 3139 0bfb 10       		.byte	0x10
 3140 0bfc 66       		.byte	0x66
 3141 0bfd 190C0000 		.4byte	0xc19
 3142 0c01 08       		.uleb128 0x8
 3143 0c02 626700   		.ascii	"bg\000"
 3144 0c05 10       		.byte	0x10
 3145 0c06 68       		.byte	0x68
 3146 0c07 0B050000 		.4byte	0x50b
 3147 0c0b 00       		.byte	0
 3148 0c0c 07       		.uleb128 0x7
 3149 0c0d 4F070000 		.4byte	.LASF218
 3150 0c11 10       		.byte	0x10
 3151 0c12 69       		.byte	0x69
 3152 0c13 0B050000 		.4byte	0x50b
 3153 0c17 04       		.byte	0x4
 3154 0c18 00       		.byte	0
 3155 0c19 06       		.uleb128 0x6
 3156 0c1a 0C       		.byte	0xc
 3157 0c1b 10       		.byte	0x10
 3158 0c1c 6E       		.byte	0x6e
 3159 0c1d 450C0000 		.4byte	0xc45
 3160 0c21 08       		.uleb128 0x8
 3161 0c22 626700   		.ascii	"bg\000"
 3162 0c25 10       		.byte	0x10
 3163 0c26 70       		.byte	0x70
 3164 0c27 0B050000 		.4byte	0x50b
 3165 0c2b 00       		.byte	0
ARM GAS  C:\Users\tmj32\AppData\Local\Temp\ccKhIVes.s 			page 71


 3166 0c2c 07       		.uleb128 0x7
 3167 0c2d 4F070000 		.4byte	.LASF218
 3168 0c31 10       		.byte	0x10
 3169 0c32 71       		.byte	0x71
 3170 0c33 0B050000 		.4byte	0x50b
 3171 0c37 04       		.byte	0x4
 3172 0c38 07       		.uleb128 0x7
 3173 0c39 AD0E0000 		.4byte	.LASF219
 3174 0c3d 10       		.byte	0x10
 3175 0c3e 72       		.byte	0x72
 3176 0c3f 0B050000 		.4byte	0x50b
 3177 0c43 08       		.byte	0x8
 3178 0c44 00       		.byte	0
 3179 0c45 06       		.uleb128 0x6
 3180 0c46 10       		.byte	0x10
 3181 0c47 10       		.byte	0x10
 3182 0c48 87       		.byte	0x87
 3183 0c49 7D0C0000 		.4byte	0xc7d
 3184 0c4d 08       		.uleb128 0x8
 3185 0c4e 626700   		.ascii	"bg\000"
 3186 0c51 10       		.byte	0x10
 3187 0c52 89       		.byte	0x89
 3188 0c53 0B050000 		.4byte	0x50b
 3189 0c57 00       		.byte	0
 3190 0c58 07       		.uleb128 0x7
 3191 0c59 4F070000 		.4byte	.LASF218
 3192 0c5d 10       		.byte	0x10
 3193 0c5e 8A       		.byte	0x8a
 3194 0c5f 0B050000 		.4byte	0x50b
 3195 0c63 04       		.byte	0x4
 3196 0c64 07       		.uleb128 0x7
 3197 0c65 AB080000 		.4byte	.LASF220
 3198 0c69 10       		.byte	0x10
 3199 0c6a 8B       		.byte	0x8b
 3200 0c6b 0B050000 		.4byte	0x50b
 3201 0c6f 08       		.byte	0x8
 3202 0c70 07       		.uleb128 0x7
 3203 0c71 2F030000 		.4byte	.LASF221
 3204 0c75 10       		.byte	0x10
 3205 0c76 8C       		.byte	0x8c
 3206 0c77 0B050000 		.4byte	0x50b
 3207 0c7b 0C       		.byte	0xc
 3208 0c7c 00       		.byte	0
 3209 0c7d 06       		.uleb128 0x6
 3210 0c7e 20       		.byte	0x20
 3211 0c7f 10       		.byte	0x10
 3212 0c80 95       		.byte	0x95
 3213 0c81 E50C0000 		.4byte	0xce5
 3214 0c85 08       		.uleb128 0x8
 3215 0c86 626700   		.ascii	"bg\000"
 3216 0c89 10       		.byte	0x10
 3217 0c8a 97       		.byte	0x97
 3218 0c8b 0B050000 		.4byte	0x50b
 3219 0c8f 00       		.byte	0
 3220 0c90 07       		.uleb128 0x7
 3221 0c91 54030000 		.4byte	.LASF222
 3222 0c95 10       		.byte	0x10
ARM GAS  C:\Users\tmj32\AppData\Local\Temp\ccKhIVes.s 			page 72


 3223 0c96 98       		.byte	0x98
 3224 0c97 0B050000 		.4byte	0x50b
 3225 0c9b 04       		.byte	0x4
 3226 0c9c 07       		.uleb128 0x7
 3227 0c9d 2E000000 		.4byte	.LASF223
 3228 0ca1 10       		.byte	0x10
 3229 0ca2 99       		.byte	0x99
 3230 0ca3 0B050000 		.4byte	0x50b
 3231 0ca7 08       		.byte	0x8
 3232 0ca8 07       		.uleb128 0x7
 3233 0ca9 2A0D0000 		.4byte	.LASF224
 3234 0cad 10       		.byte	0x10
 3235 0cae 9A       		.byte	0x9a
 3236 0caf 0B050000 		.4byte	0x50b
 3237 0cb3 0C       		.byte	0xc
 3238 0cb4 07       		.uleb128 0x7
 3239 0cb5 0B010000 		.4byte	.LASF225
 3240 0cb9 10       		.byte	0x10
 3241 0cba 9B       		.byte	0x9b
 3242 0cbb 0B050000 		.4byte	0x50b
 3243 0cbf 10       		.byte	0x10
 3244 0cc0 07       		.uleb128 0x7
 3245 0cc1 BC040000 		.4byte	.LASF226
 3246 0cc5 10       		.byte	0x10
 3247 0cc6 9C       		.byte	0x9c
 3248 0cc7 0B050000 		.4byte	0x50b
 3249 0ccb 14       		.byte	0x14
 3250 0ccc 07       		.uleb128 0x7
 3251 0ccd B3030000 		.4byte	.LASF227
 3252 0cd1 10       		.byte	0x10
 3253 0cd2 9D       		.byte	0x9d
 3254 0cd3 0B050000 		.4byte	0x50b
 3255 0cd7 18       		.byte	0x18
 3256 0cd8 07       		.uleb128 0x7
 3257 0cd9 96020000 		.4byte	.LASF228
 3258 0cdd 10       		.byte	0x10
 3259 0cde 9E       		.byte	0x9e
 3260 0cdf 0B050000 		.4byte	0x50b
 3261 0ce3 1C       		.byte	0x1c
 3262 0ce4 00       		.byte	0
 3263 0ce5 06       		.uleb128 0x6
 3264 0ce6 14       		.byte	0x14
 3265 0ce7 10       		.byte	0x10
 3266 0ce8 A6       		.byte	0xa6
 3267 0ce9 290D0000 		.4byte	0xd29
 3268 0ced 08       		.uleb128 0x8
 3269 0cee 72656C00 		.ascii	"rel\000"
 3270 0cf2 10       		.byte	0x10
 3271 0cf3 A8       		.byte	0xa8
 3272 0cf4 0B050000 		.4byte	0x50b
 3273 0cf8 00       		.byte	0
 3274 0cf9 08       		.uleb128 0x8
 3275 0cfa 707200   		.ascii	"pr\000"
 3276 0cfd 10       		.byte	0x10
 3277 0cfe A9       		.byte	0xa9
 3278 0cff 0B050000 		.4byte	0x50b
 3279 0d03 04       		.byte	0x4
ARM GAS  C:\Users\tmj32\AppData\Local\Temp\ccKhIVes.s 			page 73


 3280 0d04 07       		.uleb128 0x7
 3281 0d05 16080000 		.4byte	.LASF211
 3282 0d09 10       		.byte	0x10
 3283 0d0a AA       		.byte	0xaa
 3284 0d0b 0B050000 		.4byte	0x50b
 3285 0d0f 08       		.byte	0x8
 3286 0d10 07       		.uleb128 0x7
 3287 0d11 A0020000 		.4byte	.LASF212
 3288 0d15 10       		.byte	0x10
 3289 0d16 AB       		.byte	0xab
 3290 0d17 0B050000 		.4byte	0x50b
 3291 0d1b 0C       		.byte	0xc
 3292 0d1c 08       		.uleb128 0x8
 3293 0d1d 696E6100 		.ascii	"ina\000"
 3294 0d21 10       		.byte	0x10
 3295 0d22 AC       		.byte	0xac
 3296 0d23 0B050000 		.4byte	0x50b
 3297 0d27 10       		.byte	0x10
 3298 0d28 00       		.byte	0
 3299 0d29 06       		.uleb128 0x6
 3300 0d2a 18       		.byte	0x18
 3301 0d2b 10       		.byte	0x10
 3302 0d2c A3       		.byte	0xa3
 3303 0d2d 490D0000 		.4byte	0xd49
 3304 0d31 08       		.uleb128 0x8
 3305 0d32 626700   		.ascii	"bg\000"
 3306 0d35 10       		.byte	0x10
 3307 0d36 A5       		.byte	0xa5
 3308 0d37 0B050000 		.4byte	0x50b
 3309 0d3b 00       		.byte	0
 3310 0d3c 08       		.uleb128 0x8
 3311 0d3d 626F7800 		.ascii	"box\000"
 3312 0d41 10       		.byte	0x10
 3313 0d42 AD       		.byte	0xad
 3314 0d43 E50C0000 		.4byte	0xce5
 3315 0d47 04       		.byte	0x4
 3316 0d48 00       		.byte	0
 3317 0d49 06       		.uleb128 0x6
 3318 0d4a 14       		.byte	0x14
 3319 0d4b 10       		.byte	0x10
 3320 0d4c B5       		.byte	0xb5
 3321 0d4d 8D0D0000 		.4byte	0xd8d
 3322 0d51 08       		.uleb128 0x8
 3323 0d52 72656C00 		.ascii	"rel\000"
 3324 0d56 10       		.byte	0x10
 3325 0d57 B7       		.byte	0xb7
 3326 0d58 0B050000 		.4byte	0x50b
 3327 0d5c 00       		.byte	0
 3328 0d5d 08       		.uleb128 0x8
 3329 0d5e 707200   		.ascii	"pr\000"
 3330 0d61 10       		.byte	0x10
 3331 0d62 B8       		.byte	0xb8
 3332 0d63 0B050000 		.4byte	0x50b
 3333 0d67 04       		.byte	0x4
 3334 0d68 07       		.uleb128 0x7
 3335 0d69 16080000 		.4byte	.LASF211
 3336 0d6d 10       		.byte	0x10
ARM GAS  C:\Users\tmj32\AppData\Local\Temp\ccKhIVes.s 			page 74


 3337 0d6e B9       		.byte	0xb9
 3338 0d6f 0B050000 		.4byte	0x50b
 3339 0d73 08       		.byte	0x8
 3340 0d74 07       		.uleb128 0x7
 3341 0d75 A0020000 		.4byte	.LASF212
 3342 0d79 10       		.byte	0x10
 3343 0d7a BA       		.byte	0xba
 3344 0d7b 0B050000 		.4byte	0x50b
 3345 0d7f 0C       		.byte	0xc
 3346 0d80 08       		.uleb128 0x8
 3347 0d81 696E6100 		.ascii	"ina\000"
 3348 0d85 10       		.byte	0x10
 3349 0d86 BB       		.byte	0xbb
 3350 0d87 0B050000 		.4byte	0x50b
 3351 0d8b 10       		.byte	0x10
 3352 0d8c 00       		.byte	0
 3353 0d8d 06       		.uleb128 0x6
 3354 0d8e 18       		.byte	0x18
 3355 0d8f 10       		.byte	0x10
 3356 0d90 B2       		.byte	0xb2
 3357 0d91 AD0D0000 		.4byte	0xdad
 3358 0d95 08       		.uleb128 0x8
 3359 0d96 626700   		.ascii	"bg\000"
 3360 0d99 10       		.byte	0x10
 3361 0d9a B4       		.byte	0xb4
 3362 0d9b 0B050000 		.4byte	0x50b
 3363 0d9f 00       		.byte	0
 3364 0da0 08       		.uleb128 0x8
 3365 0da1 62746E00 		.ascii	"btn\000"
 3366 0da5 10       		.byte	0x10
 3367 0da6 BC       		.byte	0xbc
 3368 0da7 490D0000 		.4byte	0xd49
 3369 0dab 04       		.byte	0x4
 3370 0dac 00       		.byte	0
 3371 0dad 06       		.uleb128 0x6
 3372 0dae 14       		.byte	0x14
 3373 0daf 10       		.byte	0x10
 3374 0db0 C4       		.byte	0xc4
 3375 0db1 F10D0000 		.4byte	0xdf1
 3376 0db5 08       		.uleb128 0x8
 3377 0db6 72656C00 		.ascii	"rel\000"
 3378 0dba 10       		.byte	0x10
 3379 0dbb C6       		.byte	0xc6
 3380 0dbc 0B050000 		.4byte	0x50b
 3381 0dc0 00       		.byte	0
 3382 0dc1 08       		.uleb128 0x8
 3383 0dc2 707200   		.ascii	"pr\000"
 3384 0dc5 10       		.byte	0x10
 3385 0dc6 C7       		.byte	0xc7
 3386 0dc7 0B050000 		.4byte	0x50b
 3387 0dcb 04       		.byte	0x4
 3388 0dcc 07       		.uleb128 0x7
 3389 0dcd 16080000 		.4byte	.LASF211
 3390 0dd1 10       		.byte	0x10
 3391 0dd2 C8       		.byte	0xc8
 3392 0dd3 0B050000 		.4byte	0x50b
 3393 0dd7 08       		.byte	0x8
ARM GAS  C:\Users\tmj32\AppData\Local\Temp\ccKhIVes.s 			page 75


 3394 0dd8 07       		.uleb128 0x7
 3395 0dd9 A0020000 		.4byte	.LASF212
 3396 0ddd 10       		.byte	0x10
 3397 0dde C9       		.byte	0xc9
 3398 0ddf 0B050000 		.4byte	0x50b
 3399 0de3 0C       		.byte	0xc
 3400 0de4 08       		.uleb128 0x8
 3401 0de5 696E6100 		.ascii	"ina\000"
 3402 0de9 10       		.byte	0x10
 3403 0dea CA       		.byte	0xca
 3404 0deb 0B050000 		.4byte	0x50b
 3405 0def 10       		.byte	0x10
 3406 0df0 00       		.byte	0
 3407 0df1 06       		.uleb128 0x6
 3408 0df2 18       		.byte	0x18
 3409 0df3 10       		.byte	0x10
 3410 0df4 C1       		.byte	0xc1
 3411 0df5 110E0000 		.4byte	0xe11
 3412 0df9 08       		.uleb128 0x8
 3413 0dfa 626700   		.ascii	"bg\000"
 3414 0dfd 10       		.byte	0x10
 3415 0dfe C3       		.byte	0xc3
 3416 0dff 0B050000 		.4byte	0x50b
 3417 0e03 00       		.byte	0
 3418 0e04 08       		.uleb128 0x8
 3419 0e05 62746E00 		.ascii	"btn\000"
 3420 0e09 10       		.byte	0x10
 3421 0e0a CB       		.byte	0xcb
 3422 0e0b AD0D0000 		.4byte	0xdad
 3423 0e0f 04       		.byte	0x4
 3424 0e10 00       		.byte	0
 3425 0e11 06       		.uleb128 0x6
 3426 0e12 0C       		.byte	0xc
 3427 0e13 10       		.byte	0x10
 3428 0e14 D3       		.byte	0xd3
 3429 0e15 3C0E0000 		.4byte	0xe3c
 3430 0e19 08       		.uleb128 0x8
 3431 0e1a 626700   		.ascii	"bg\000"
 3432 0e1d 10       		.byte	0x10
 3433 0e1e D5       		.byte	0xd5
 3434 0e1f 0B050000 		.4byte	0x50b
 3435 0e23 00       		.byte	0
 3436 0e24 08       		.uleb128 0x8
 3437 0e25 72656C00 		.ascii	"rel\000"
 3438 0e29 10       		.byte	0x10
 3439 0e2a D6       		.byte	0xd6
 3440 0e2b 0B050000 		.4byte	0x50b
 3441 0e2f 04       		.byte	0x4
 3442 0e30 08       		.uleb128 0x8
 3443 0e31 707200   		.ascii	"pr\000"
 3444 0e34 10       		.byte	0x10
 3445 0e35 D7       		.byte	0xd7
 3446 0e36 0B050000 		.4byte	0x50b
 3447 0e3a 08       		.byte	0x8
 3448 0e3b 00       		.byte	0
 3449 0e3c 06       		.uleb128 0x6
 3450 0e3d 10       		.byte	0x10
ARM GAS  C:\Users\tmj32\AppData\Local\Temp\ccKhIVes.s 			page 76


 3451 0e3e 10       		.byte	0x10
 3452 0e3f D0       		.byte	0xd0
 3453 0e40 5C0E0000 		.4byte	0xe5c
 3454 0e44 08       		.uleb128 0x8
 3455 0e45 626700   		.ascii	"bg\000"
 3456 0e48 10       		.byte	0x10
 3457 0e49 D2       		.byte	0xd2
 3458 0e4a 0B050000 		.4byte	0x50b
 3459 0e4e 00       		.byte	0
 3460 0e4f 08       		.uleb128 0x8
 3461 0e50 62746E00 		.ascii	"btn\000"
 3462 0e54 10       		.byte	0x10
 3463 0e55 D8       		.byte	0xd8
 3464 0e56 110E0000 		.4byte	0xe11
 3465 0e5a 04       		.byte	0x4
 3466 0e5b 00       		.byte	0
 3467 0e5c 06       		.uleb128 0x6
 3468 0e5d 0C       		.byte	0xc
 3469 0e5e 10       		.byte	0x10
 3470 0e5f DD       		.byte	0xdd
 3471 0e60 870E0000 		.4byte	0xe87
 3472 0e64 08       		.uleb128 0x8
 3473 0e65 626700   		.ascii	"bg\000"
 3474 0e68 10       		.byte	0x10
 3475 0e69 DF       		.byte	0xdf
 3476 0e6a 0B050000 		.4byte	0x50b
 3477 0e6e 00       		.byte	0
 3478 0e6f 07       		.uleb128 0x7
 3479 0e70 C8020000 		.4byte	.LASF229
 3480 0e74 10       		.byte	0x10
 3481 0e75 E0       		.byte	0xe0
 3482 0e76 0B050000 		.4byte	0x50b
 3483 0e7a 04       		.byte	0x4
 3484 0e7b 08       		.uleb128 0x8
 3485 0e7c 736200   		.ascii	"sb\000"
 3486 0e7f 10       		.byte	0x10
 3487 0e80 E1       		.byte	0xe1
 3488 0e81 0B050000 		.4byte	0x50b
 3489 0e85 08       		.byte	0x8
 3490 0e86 00       		.byte	0
 3491 0e87 06       		.uleb128 0x6
 3492 0e88 10       		.byte	0x10
 3493 0e89 10       		.byte	0x10
 3494 0e8a E6       		.byte	0xe6
 3495 0e8b BF0E0000 		.4byte	0xebf
 3496 0e8f 07       		.uleb128 0x7
 3497 0e90 84050000 		.4byte	.LASF230
 3498 0e94 10       		.byte	0x10
 3499 0e95 E8       		.byte	0xe8
 3500 0e96 0B050000 		.4byte	0x50b
 3501 0e9a 00       		.byte	0
 3502 0e9b 07       		.uleb128 0x7
 3503 0e9c 52060000 		.4byte	.LASF231
 3504 0ea0 10       		.byte	0x10
 3505 0ea1 E9       		.byte	0xe9
 3506 0ea2 0B050000 		.4byte	0x50b
 3507 0ea6 04       		.byte	0x4
ARM GAS  C:\Users\tmj32\AppData\Local\Temp\ccKhIVes.s 			page 77


 3508 0ea7 07       		.uleb128 0x7
 3509 0ea8 F40E0000 		.4byte	.LASF232
 3510 0eac 10       		.byte	0x10
 3511 0ead EA       		.byte	0xea
 3512 0eae 0B050000 		.4byte	0x50b
 3513 0eb2 08       		.byte	0x8
 3514 0eb3 08       		.uleb128 0x8
 3515 0eb4 736200   		.ascii	"sb\000"
 3516 0eb7 10       		.byte	0x10
 3517 0eb8 EB       		.byte	0xeb
 3518 0eb9 0B050000 		.4byte	0x50b
 3519 0ebd 0C       		.byte	0xc
 3520 0ebe 00       		.byte	0
 3521 0ebf 06       		.uleb128 0x6
 3522 0ec0 0C       		.byte	0xc
 3523 0ec1 10       		.byte	0x10
 3524 0ec2 F0       		.byte	0xf0
 3525 0ec3 EA0E0000 		.4byte	0xeea
 3526 0ec7 08       		.uleb128 0x8
 3527 0ec8 626700   		.ascii	"bg\000"
 3528 0ecb 10       		.byte	0x10
 3529 0ecc F2       		.byte	0xf2
 3530 0ecd 0B050000 		.4byte	0x50b
 3531 0ed1 00       		.byte	0
 3532 0ed2 07       		.uleb128 0x7
 3533 0ed3 F40E0000 		.4byte	.LASF232
 3534 0ed7 10       		.byte	0x10
 3535 0ed8 F3       		.byte	0xf3
 3536 0ed9 0B050000 		.4byte	0x50b
 3537 0edd 04       		.byte	0x4
 3538 0ede 08       		.uleb128 0x8
 3539 0edf 736200   		.ascii	"sb\000"
 3540 0ee2 10       		.byte	0x10
 3541 0ee3 F4       		.byte	0xf4
 3542 0ee4 0B050000 		.4byte	0x50b
 3543 0ee8 08       		.byte	0x8
 3544 0ee9 00       		.byte	0
 3545 0eea 06       		.uleb128 0x6
 3546 0eeb 14       		.byte	0x14
 3547 0eec 10       		.byte	0x10
 3548 0eed FE       		.byte	0xfe
 3549 0eee 330F0000 		.4byte	0xf33
 3550 0ef2 19       		.uleb128 0x19
 3551 0ef3 72656C00 		.ascii	"rel\000"
 3552 0ef7 10       		.byte	0x10
 3553 0ef8 0001     		.2byte	0x100
 3554 0efa 0B050000 		.4byte	0x50b
 3555 0efe 00       		.byte	0
 3556 0eff 19       		.uleb128 0x19
 3557 0f00 707200   		.ascii	"pr\000"
 3558 0f03 10       		.byte	0x10
 3559 0f04 0101     		.2byte	0x101
 3560 0f06 0B050000 		.4byte	0x50b
 3561 0f0a 04       		.byte	0x4
 3562 0f0b 1A       		.uleb128 0x1a
 3563 0f0c 16080000 		.4byte	.LASF211
 3564 0f10 10       		.byte	0x10
ARM GAS  C:\Users\tmj32\AppData\Local\Temp\ccKhIVes.s 			page 78


 3565 0f11 0201     		.2byte	0x102
 3566 0f13 0B050000 		.4byte	0x50b
 3567 0f17 08       		.byte	0x8
 3568 0f18 1A       		.uleb128 0x1a
 3569 0f19 A0020000 		.4byte	.LASF212
 3570 0f1d 10       		.byte	0x10
 3571 0f1e 0301     		.2byte	0x103
 3572 0f20 0B050000 		.4byte	0x50b
 3573 0f24 0C       		.byte	0xc
 3574 0f25 19       		.uleb128 0x19
 3575 0f26 696E6100 		.ascii	"ina\000"
 3576 0f2a 10       		.byte	0x10
 3577 0f2b 0401     		.2byte	0x104
 3578 0f2d 0B050000 		.4byte	0x50b
 3579 0f31 10       		.byte	0x10
 3580 0f32 00       		.byte	0
 3581 0f33 06       		.uleb128 0x6
 3582 0f34 20       		.byte	0x20
 3583 0f35 10       		.byte	0x10
 3584 0f36 F9       		.byte	0xf9
 3585 0f37 6B0F0000 		.4byte	0xf6b
 3586 0f3b 08       		.uleb128 0x8
 3587 0f3c 626700   		.ascii	"bg\000"
 3588 0f3f 10       		.byte	0x10
 3589 0f40 FB       		.byte	0xfb
 3590 0f41 0B050000 		.4byte	0x50b
 3591 0f45 00       		.byte	0
 3592 0f46 07       		.uleb128 0x7
 3593 0f47 C8020000 		.4byte	.LASF229
 3594 0f4b 10       		.byte	0x10
 3595 0f4c FC       		.byte	0xfc
 3596 0f4d 0B050000 		.4byte	0x50b
 3597 0f51 04       		.byte	0x4
 3598 0f52 08       		.uleb128 0x8
 3599 0f53 736200   		.ascii	"sb\000"
 3600 0f56 10       		.byte	0x10
 3601 0f57 FD       		.byte	0xfd
 3602 0f58 0B050000 		.4byte	0x50b
 3603 0f5c 08       		.byte	0x8
 3604 0f5d 19       		.uleb128 0x19
 3605 0f5e 62746E00 		.ascii	"btn\000"
 3606 0f62 10       		.byte	0x10
 3607 0f63 0501     		.2byte	0x105
 3608 0f65 EA0E0000 		.4byte	0xeea
 3609 0f69 0C       		.byte	0xc
 3610 0f6a 00       		.byte	0
 3611 0f6b 1B       		.uleb128 0x1b
 3612 0f6c 0C       		.byte	0xc
 3613 0f6d 10       		.byte	0x10
 3614 0f6e 0A01     		.2byte	0x10a
 3615 0f70 9A0F0000 		.4byte	0xf9a
 3616 0f74 19       		.uleb128 0x19
 3617 0f75 626700   		.ascii	"bg\000"
 3618 0f78 10       		.byte	0x10
 3619 0f79 0C01     		.2byte	0x10c
 3620 0f7b 0B050000 		.4byte	0x50b
 3621 0f7f 00       		.byte	0
ARM GAS  C:\Users\tmj32\AppData\Local\Temp\ccKhIVes.s 			page 79


 3622 0f80 19       		.uleb128 0x19
 3623 0f81 73656C00 		.ascii	"sel\000"
 3624 0f85 10       		.byte	0x10
 3625 0f86 0D01     		.2byte	0x10d
 3626 0f88 0B050000 		.4byte	0x50b
 3627 0f8c 04       		.byte	0x4
 3628 0f8d 19       		.uleb128 0x19
 3629 0f8e 736200   		.ascii	"sb\000"
 3630 0f91 10       		.byte	0x10
 3631 0f92 0E01     		.2byte	0x10e
 3632 0f94 0B050000 		.4byte	0x50b
 3633 0f98 08       		.byte	0x8
 3634 0f99 00       		.byte	0
 3635 0f9a 1B       		.uleb128 0x1b
 3636 0f9b 08       		.byte	0x8
 3637 0f9c 10       		.byte	0x10
 3638 0f9d 1301     		.2byte	0x113
 3639 0f9f BD0F0000 		.4byte	0xfbd
 3640 0fa3 19       		.uleb128 0x19
 3641 0fa4 626700   		.ascii	"bg\000"
 3642 0fa7 10       		.byte	0x10
 3643 0fa8 1501     		.2byte	0x115
 3644 0faa 0B050000 		.4byte	0x50b
 3645 0fae 00       		.byte	0
 3646 0faf 19       		.uleb128 0x19
 3647 0fb0 73656C00 		.ascii	"sel\000"
 3648 0fb4 10       		.byte	0x10
 3649 0fb5 1601     		.2byte	0x116
 3650 0fb7 0B050000 		.4byte	0x50b
 3651 0fbb 04       		.byte	0x4
 3652 0fbc 00       		.byte	0
 3653 0fbd 1B       		.uleb128 0x1b
 3654 0fbe 14       		.byte	0x14
 3655 0fbf 10       		.byte	0x10
 3656 0fc0 1F01     		.2byte	0x11f
 3657 0fc2 06100000 		.4byte	0x1006
 3658 0fc6 19       		.uleb128 0x19
 3659 0fc7 626700   		.ascii	"bg\000"
 3660 0fca 10       		.byte	0x10
 3661 0fcb 2101     		.2byte	0x121
 3662 0fcd 0B050000 		.4byte	0x50b
 3663 0fd1 00       		.byte	0
 3664 0fd2 19       		.uleb128 0x19
 3665 0fd3 72656C00 		.ascii	"rel\000"
 3666 0fd7 10       		.byte	0x10
 3667 0fd8 2201     		.2byte	0x122
 3668 0fda 0B050000 		.4byte	0x50b
 3669 0fde 04       		.byte	0x4
 3670 0fdf 19       		.uleb128 0x19
 3671 0fe0 707200   		.ascii	"pr\000"
 3672 0fe3 10       		.byte	0x10
 3673 0fe4 2301     		.2byte	0x123
 3674 0fe6 0B050000 		.4byte	0x50b
 3675 0fea 08       		.byte	0x8
 3676 0feb 1A       		.uleb128 0x1a
 3677 0fec 16080000 		.4byte	.LASF211
 3678 0ff0 10       		.byte	0x10
ARM GAS  C:\Users\tmj32\AppData\Local\Temp\ccKhIVes.s 			page 80


 3679 0ff1 2401     		.2byte	0x124
 3680 0ff3 0B050000 		.4byte	0x50b
 3681 0ff7 0C       		.byte	0xc
 3682 0ff8 1A       		.uleb128 0x1a
 3683 0ff9 A0020000 		.4byte	.LASF212
 3684 0ffd 10       		.byte	0x10
 3685 0ffe 2501     		.2byte	0x125
 3686 1000 0B050000 		.4byte	0x50b
 3687 1004 10       		.byte	0x10
 3688 1005 00       		.byte	0
 3689 1006 1B       		.uleb128 0x1b
 3690 1007 1C       		.byte	0x1c
 3691 1008 10       		.byte	0x10
 3692 1009 1B01     		.2byte	0x11b
 3693 100b 36100000 		.4byte	0x1036
 3694 100f 19       		.uleb128 0x19
 3695 1010 626700   		.ascii	"bg\000"
 3696 1013 10       		.byte	0x10
 3697 1014 1D01     		.2byte	0x11d
 3698 1016 0B050000 		.4byte	0x50b
 3699 101a 00       		.byte	0
 3700 101b 1A       		.uleb128 0x1a
 3701 101c 4F070000 		.4byte	.LASF218
 3702 1020 10       		.byte	0x10
 3703 1021 1E01     		.2byte	0x11e
 3704 1023 0B050000 		.4byte	0x50b
 3705 1027 04       		.byte	0x4
 3706 1028 19       		.uleb128 0x19
 3707 1029 62746E00 		.ascii	"btn\000"
 3708 102d 10       		.byte	0x10
 3709 102e 2601     		.2byte	0x126
 3710 1030 BD0F0000 		.4byte	0xfbd
 3711 1034 08       		.byte	0x8
 3712 1035 00       		.byte	0
 3713 1036 1B       		.uleb128 0x1b
 3714 1037 0C       		.byte	0xc
 3715 1038 10       		.byte	0x10
 3716 1039 2B01     		.2byte	0x12b
 3717 103b 65100000 		.4byte	0x1065
 3718 103f 19       		.uleb128 0x19
 3719 1040 626700   		.ascii	"bg\000"
 3720 1043 10       		.byte	0x10
 3721 1044 2D01     		.2byte	0x12d
 3722 1046 0B050000 		.4byte	0x50b
 3723 104a 00       		.byte	0
 3724 104b 1A       		.uleb128 0x1a
 3725 104c C8020000 		.4byte	.LASF229
 3726 1050 10       		.byte	0x10
 3727 1051 2E01     		.2byte	0x12e
 3728 1053 0B050000 		.4byte	0x50b
 3729 1057 04       		.byte	0x4
 3730 1058 19       		.uleb128 0x19
 3731 1059 736200   		.ascii	"sb\000"
 3732 105c 10       		.byte	0x10
 3733 105d 2F01     		.2byte	0x12f
 3734 105f 0B050000 		.4byte	0x50b
 3735 1063 08       		.byte	0x8
ARM GAS  C:\Users\tmj32\AppData\Local\Temp\ccKhIVes.s 			page 81


 3736 1064 00       		.byte	0
 3737 1065 1B       		.uleb128 0x1b
 3738 1066 08       		.byte	0x8
 3739 1067 10       		.byte	0x10
 3740 1068 3401     		.2byte	0x134
 3741 106a 88100000 		.4byte	0x1088
 3742 106e 19       		.uleb128 0x19
 3743 106f 626700   		.ascii	"bg\000"
 3744 1072 10       		.byte	0x10
 3745 1073 3601     		.2byte	0x136
 3746 1075 0B050000 		.4byte	0x50b
 3747 1079 00       		.byte	0
 3748 107a 1A       		.uleb128 0x1a
 3749 107b 5B000000 		.4byte	.LASF233
 3750 107f 10       		.byte	0x10
 3751 1080 3701     		.2byte	0x137
 3752 1082 0B050000 		.4byte	0x50b
 3753 1086 04       		.byte	0x4
 3754 1087 00       		.byte	0
 3755 1088 1B       		.uleb128 0x1b
 3756 1089 08       		.byte	0x8
 3757 108a 10       		.byte	0x10
 3758 108b 4201     		.2byte	0x142
 3759 108d AB100000 		.4byte	0x10ab
 3760 1091 19       		.uleb128 0x19
 3761 1092 72656C00 		.ascii	"rel\000"
 3762 1096 10       		.byte	0x10
 3763 1097 4401     		.2byte	0x144
 3764 1099 0B050000 		.4byte	0x50b
 3765 109d 00       		.byte	0
 3766 109e 19       		.uleb128 0x19
 3767 109f 707200   		.ascii	"pr\000"
 3768 10a2 10       		.byte	0x10
 3769 10a3 4501     		.2byte	0x145
 3770 10a5 0B050000 		.4byte	0x50b
 3771 10a9 04       		.byte	0x4
 3772 10aa 00       		.byte	0
 3773 10ab 1B       		.uleb128 0x1b
 3774 10ac 18       		.byte	0x18
 3775 10ad 10       		.byte	0x10
 3776 10ae 3C01     		.2byte	0x13c
 3777 10b0 F4100000 		.4byte	0x10f4
 3778 10b4 19       		.uleb128 0x19
 3779 10b5 626700   		.ascii	"bg\000"
 3780 10b8 10       		.byte	0x10
 3781 10b9 3E01     		.2byte	0x13e
 3782 10bb 0B050000 		.4byte	0x50b
 3783 10bf 00       		.byte	0
 3784 10c0 19       		.uleb128 0x19
 3785 10c1 736200   		.ascii	"sb\000"
 3786 10c4 10       		.byte	0x10
 3787 10c5 3F01     		.2byte	0x13f
 3788 10c7 0B050000 		.4byte	0x50b
 3789 10cb 04       		.byte	0x4
 3790 10cc 1A       		.uleb128 0x1a
 3791 10cd 54030000 		.4byte	.LASF222
 3792 10d1 10       		.byte	0x10
ARM GAS  C:\Users\tmj32\AppData\Local\Temp\ccKhIVes.s 			page 82


 3793 10d2 4001     		.2byte	0x140
 3794 10d4 0B050000 		.4byte	0x50b
 3795 10d8 08       		.byte	0x8
 3796 10d9 1A       		.uleb128 0x1a
 3797 10da 970D0000 		.4byte	.LASF234
 3798 10de 10       		.byte	0x10
 3799 10df 4101     		.2byte	0x141
 3800 10e1 0B050000 		.4byte	0x50b
 3801 10e5 0C       		.byte	0xc
 3802 10e6 19       		.uleb128 0x19
 3803 10e7 62746E00 		.ascii	"btn\000"
 3804 10eb 10       		.byte	0x10
 3805 10ec 4601     		.2byte	0x146
 3806 10ee 88100000 		.4byte	0x1088
 3807 10f2 10       		.byte	0x10
 3808 10f3 00       		.byte	0
 3809 10f4 1C       		.uleb128 0x1c
 3810 10f5 A801     		.2byte	0x1a8
 3811 10f7 10       		.byte	0x10
 3812 10f8 29       		.byte	0x29
 3813 10f9 96120000 		.4byte	0x1296
 3814 10fd 08       		.uleb128 0x8
 3815 10fe 73637200 		.ascii	"scr\000"
 3816 1102 10       		.byte	0x10
 3817 1103 2B       		.byte	0x2b
 3818 1104 0B050000 		.4byte	0x50b
 3819 1108 00       		.byte	0
 3820 1109 08       		.uleb128 0x8
 3821 110a 626700   		.ascii	"bg\000"
 3822 110d 10       		.byte	0x10
 3823 110e 2C       		.byte	0x2c
 3824 110f 0B050000 		.4byte	0x50b
 3825 1113 04       		.byte	0x4
 3826 1114 07       		.uleb128 0x7
 3827 1115 E10B0000 		.4byte	.LASF235
 3828 1119 10       		.byte	0x10
 3829 111a 2D       		.byte	0x2d
 3830 111b 0B050000 		.4byte	0x50b
 3831 111f 08       		.byte	0x8
 3832 1120 07       		.uleb128 0x7
 3833 1121 C0010000 		.4byte	.LASF200
 3834 1125 10       		.byte	0x10
 3835 1126 30       		.byte	0x30
 3836 1127 0B050000 		.4byte	0x50b
 3837 112b 0C       		.byte	0xc
 3838 112c 08       		.uleb128 0x8
 3839 112d 62746E00 		.ascii	"btn\000"
 3840 1131 10       		.byte	0x10
 3841 1132 3B       		.byte	0x3b
 3842 1133 0E0B0000 		.4byte	0xb0e
 3843 1137 10       		.byte	0x10
 3844 1138 07       		.uleb128 0x7
 3845 1139 D00B0000 		.4byte	.LASF236
 3846 113d 10       		.byte	0x10
 3847 113e 46       		.byte	0x46
 3848 113f 520B0000 		.4byte	0xb52
 3849 1143 24       		.byte	0x24
ARM GAS  C:\Users\tmj32\AppData\Local\Temp\ccKhIVes.s 			page 83


 3850 1144 07       		.uleb128 0x7
 3851 1145 4A0E0000 		.4byte	.LASF237
 3852 1149 10       		.byte	0x10
 3853 114a 4F       		.byte	0x4f
 3854 114b 960B0000 		.4byte	0xb96
 3855 114f 38       		.byte	0x38
 3856 1150 08       		.uleb128 0x8
 3857 1151 696D6700 		.ascii	"img\000"
 3858 1155 10       		.byte	0x10
 3859 1156 57       		.byte	0x57
 3860 1157 C30B0000 		.4byte	0xbc3
 3861 115b 44       		.byte	0x44
 3862 115c 07       		.uleb128 0x7
 3863 115d ED050000 		.4byte	.LASF70
 3864 1161 10       		.byte	0x10
 3865 1162 5E       		.byte	0x5e
 3866 1163 E40B0000 		.4byte	0xbe4
 3867 1167 4C       		.byte	0x4c
 3868 1168 08       		.uleb128 0x8
 3869 1169 6C656400 		.ascii	"led\000"
 3870 116d 10       		.byte	0x10
 3871 116e 62       		.byte	0x62
 3872 116f 0B050000 		.4byte	0x50b
 3873 1173 50       		.byte	0x50
 3874 1174 08       		.uleb128 0x8
 3875 1175 62617200 		.ascii	"bar\000"
 3876 1179 10       		.byte	0x10
 3877 117a 6A       		.byte	0x6a
 3878 117b F90B0000 		.4byte	0xbf9
 3879 117f 54       		.byte	0x54
 3880 1180 07       		.uleb128 0x7
 3881 1181 5E0E0000 		.4byte	.LASF238
 3882 1185 10       		.byte	0x10
 3883 1186 73       		.byte	0x73
 3884 1187 190C0000 		.4byte	0xc19
 3885 118b 5C       		.byte	0x5c
 3886 118c 07       		.uleb128 0x7
 3887 118d A9000000 		.4byte	.LASF239
 3888 1191 10       		.byte	0x10
 3889 1192 77       		.byte	0x77
 3890 1193 0B050000 		.4byte	0x50b
 3891 1197 68       		.byte	0x68
 3892 1198 07       		.uleb128 0x7
 3893 1199 B4080000 		.4byte	.LASF240
 3894 119d 10       		.byte	0x10
 3895 119e 7B       		.byte	0x7b
 3896 119f 0B050000 		.4byte	0x50b
 3897 11a3 6C       		.byte	0x6c
 3898 11a4 08       		.uleb128 0x8
 3899 11a5 61726300 		.ascii	"arc\000"
 3900 11a9 10       		.byte	0x10
 3901 11aa 7F       		.byte	0x7f
 3902 11ab 0B050000 		.4byte	0x50b
 3903 11af 70       		.byte	0x70
 3904 11b0 07       		.uleb128 0x7
 3905 11b1 840E0000 		.4byte	.LASF241
 3906 11b5 10       		.byte	0x10
ARM GAS  C:\Users\tmj32\AppData\Local\Temp\ccKhIVes.s 			page 84


 3907 11b6 83       		.byte	0x83
 3908 11b7 0B050000 		.4byte	0x50b
 3909 11bb 74       		.byte	0x74
 3910 11bc 08       		.uleb128 0x8
 3911 11bd 737700   		.ascii	"sw\000"
 3912 11c0 10       		.byte	0x10
 3913 11c1 8D       		.byte	0x8d
 3914 11c2 450C0000 		.4byte	0xc45
 3915 11c6 78       		.byte	0x78
 3916 11c7 07       		.uleb128 0x7
 3917 11c8 DB010000 		.4byte	.LASF242
 3918 11cc 10       		.byte	0x10
 3919 11cd 91       		.byte	0x91
 3920 11ce 0B050000 		.4byte	0x50b
 3921 11d2 88       		.byte	0x88
 3922 11d3 07       		.uleb128 0x7
 3923 11d4 6C0C0000 		.4byte	.LASF243
 3924 11d8 10       		.byte	0x10
 3925 11d9 9F       		.byte	0x9f
 3926 11da 7D0C0000 		.4byte	0xc7d
 3927 11de 8C       		.byte	0x8c
 3928 11df 08       		.uleb128 0x8
 3929 11e0 636200   		.ascii	"cb\000"
 3930 11e3 10       		.byte	0x10
 3931 11e4 AE       		.byte	0xae
 3932 11e5 290D0000 		.4byte	0xd29
 3933 11e9 AC       		.byte	0xac
 3934 11ea 07       		.uleb128 0x7
 3935 11eb 71020000 		.4byte	.LASF244
 3936 11ef 10       		.byte	0x10
 3937 11f0 BD       		.byte	0xbd
 3938 11f1 8D0D0000 		.4byte	0xd8d
 3939 11f5 C4       		.byte	0xc4
 3940 11f6 08       		.uleb128 0x8
 3941 11f7 6B6200   		.ascii	"kb\000"
 3942 11fa 10       		.byte	0x10
 3943 11fb CC       		.byte	0xcc
 3944 11fc F10D0000 		.4byte	0xdf1
 3945 1200 DC       		.byte	0xdc
 3946 1201 07       		.uleb128 0x7
 3947 1202 11080000 		.4byte	.LASF245
 3948 1206 10       		.byte	0x10
 3949 1207 D9       		.byte	0xd9
 3950 1208 3C0E0000 		.4byte	0xe3c
 3951 120c F4       		.byte	0xf4
 3952 120d 1D       		.uleb128 0x1d
 3953 120e A6080000 		.4byte	.LASF246
 3954 1212 10       		.byte	0x10
 3955 1213 E2       		.byte	0xe2
 3956 1214 5C0E0000 		.4byte	0xe5c
 3957 1218 0401     		.2byte	0x104
 3958 121a 1E       		.uleb128 0x1e
 3959 121b 746100   		.ascii	"ta\000"
 3960 121e 10       		.byte	0x10
 3961 121f EC       		.byte	0xec
 3962 1220 870E0000 		.4byte	0xe87
 3963 1224 1001     		.2byte	0x110
ARM GAS  C:\Users\tmj32\AppData\Local\Temp\ccKhIVes.s 			page 85


 3964 1226 1D       		.uleb128 0x1d
 3965 1227 150D0000 		.4byte	.LASF247
 3966 122b 10       		.byte	0x10
 3967 122c F5       		.byte	0xf5
 3968 122d BF0E0000 		.4byte	0xebf
 3969 1231 2001     		.2byte	0x120
 3970 1233 1F       		.uleb128 0x1f
 3971 1234 7B080000 		.4byte	.LASF248
 3972 1238 10       		.byte	0x10
 3973 1239 0601     		.2byte	0x106
 3974 123b 330F0000 		.4byte	0xf33
 3975 123f 2C01     		.2byte	0x12c
 3976 1241 1F       		.uleb128 0x1f
 3977 1242 4E040000 		.4byte	.LASF249
 3978 1246 10       		.byte	0x10
 3979 1247 0F01     		.2byte	0x10f
 3980 1249 6B0F0000 		.4byte	0xf6b
 3981 124d 4C01     		.2byte	0x14c
 3982 124f 1F       		.uleb128 0x1f
 3983 1250 260F0000 		.4byte	.LASF250
 3984 1254 10       		.byte	0x10
 3985 1255 1701     		.2byte	0x117
 3986 1257 9A0F0000 		.4byte	0xf9a
 3987 125b 5801     		.2byte	0x158
 3988 125d 1F       		.uleb128 0x1f
 3989 125e 69070000 		.4byte	.LASF251
 3990 1262 10       		.byte	0x10
 3991 1263 2701     		.2byte	0x127
 3992 1265 06100000 		.4byte	0x1006
 3993 1269 6001     		.2byte	0x160
 3994 126b 1F       		.uleb128 0x1f
 3995 126c 01020000 		.4byte	.LASF252
 3996 1270 10       		.byte	0x10
 3997 1271 3001     		.2byte	0x130
 3998 1273 36100000 		.4byte	0x1036
 3999 1277 7C01     		.2byte	0x17c
 4000 1279 1F       		.uleb128 0x1f
 4001 127a 70030000 		.4byte	.LASF253
 4002 127e 10       		.byte	0x10
 4003 127f 3801     		.2byte	0x138
 4004 1281 65100000 		.4byte	0x1065
 4005 1285 8801     		.2byte	0x188
 4006 1287 20       		.uleb128 0x20
 4007 1288 77696E00 		.ascii	"win\000"
 4008 128c 10       		.byte	0x10
 4009 128d 4701     		.2byte	0x147
 4010 128f AB100000 		.4byte	0x10ab
 4011 1293 9001     		.2byte	0x190
 4012 1295 00       		.byte	0
 4013 1296 1C       		.uleb128 0x1c
 4014 1297 A801     		.2byte	0x1a8
 4015 1299 10       		.byte	0x10
 4016 129a 27       		.byte	0x27
 4017 129b AD120000 		.4byte	0x12ad
 4018 129f 1A       		.uleb128 0x1a
 4019 12a0 42090000 		.4byte	.LASF254
 4020 12a4 10       		.byte	0x10
ARM GAS  C:\Users\tmj32\AppData\Local\Temp\ccKhIVes.s 			page 86


 4021 12a5 4901     		.2byte	0x149
 4022 12a7 F4100000 		.4byte	0x10f4
 4023 12ab 00       		.byte	0
 4024 12ac 00       		.byte	0
 4025 12ad 12       		.uleb128 0x12
 4026 12ae 1E050000 		.4byte	.LASF255
 4027 12b2 10       		.byte	0x10
 4028 12b3 5401     		.2byte	0x154
 4029 12b5 96120000 		.4byte	0x1296
 4030 12b9 21       		.uleb128 0x21
 4031 12ba F0080000 		.4byte	.LASF291
 4032 12be 01       		.byte	0x1
 4033 12bf 97       		.byte	0x97
 4034 12c0 00000000 		.4byte	.LFB35
 4035 12c4 1E000000 		.4byte	.LFE35-.LFB35
 4036 12c8 01       		.uleb128 0x1
 4037 12c9 9C       		.byte	0x9c
 4038 12ca EB120000 		.4byte	0x12eb
 4039 12ce 22       		.uleb128 0x22
 4040 12cf 62746E00 		.ascii	"btn\000"
 4041 12d3 01       		.byte	0x1
 4042 12d4 97       		.byte	0x97
 4043 12d5 EB120000 		.4byte	0x12eb
 4044 12d9 02       		.uleb128 0x2
 4045 12da 91       		.byte	0x91
 4046 12db 74       		.sleb128 -12
 4047 12dc 23       		.uleb128 0x23
 4048 12dd 5D070000 		.4byte	.LASF175
 4049 12e1 01       		.byte	0x1
 4050 12e2 97       		.byte	0x97
 4051 12e3 83090000 		.4byte	0x983
 4052 12e7 02       		.uleb128 0x2
 4053 12e8 91       		.byte	0x91
 4054 12e9 73       		.sleb128 -13
 4055 12ea 00       		.byte	0
 4056 12eb 0D       		.uleb128 0xd
 4057 12ec 04       		.byte	0x4
 4058 12ed 29090000 		.4byte	0x929
 4059 12f1 24       		.uleb128 0x24
 4060 12f2 E00C0000 		.4byte	.LASF267
 4061 12f6 02       		.byte	0x2
 4062 12f7 4A       		.byte	0x4a
 4063 12f8 EB120000 		.4byte	0x12eb
 4064 12fc 00000000 		.4byte	.LFB44
 4065 1300 90010000 		.4byte	.LFE44-.LFB44
 4066 1304 01       		.uleb128 0x1
 4067 1305 9C       		.byte	0x9c
 4068 1306 76130000 		.4byte	0x1376
 4069 130a 22       		.uleb128 0x22
 4070 130b 70617200 		.ascii	"par\000"
 4071 130f 02       		.byte	0x2
 4072 1310 4A       		.byte	0x4a
 4073 1311 EB120000 		.4byte	0x12eb
 4074 1315 02       		.uleb128 0x2
 4075 1316 91       		.byte	0x91
 4076 1317 64       		.sleb128 -28
 4077 1318 23       		.uleb128 0x23
ARM GAS  C:\Users\tmj32\AppData\Local\Temp\ccKhIVes.s 			page 87


 4078 1319 15020000 		.4byte	.LASF256
 4079 131d 02       		.byte	0x2
 4080 131e 4A       		.byte	0x4a
 4081 131f 76130000 		.4byte	0x1376
 4082 1323 02       		.uleb128 0x2
 4083 1324 91       		.byte	0x91
 4084 1325 60       		.sleb128 -32
 4085 1326 25       		.uleb128 0x25
 4086 1327 C0020000 		.4byte	.LASF257
 4087 132b 02       		.byte	0x2
 4088 132c 4E       		.byte	0x4e
 4089 132d EB120000 		.4byte	0x12eb
 4090 1331 02       		.uleb128 0x2
 4091 1332 91       		.byte	0x91
 4092 1333 74       		.sleb128 -12
 4093 1334 26       		.uleb128 0x26
 4094 1335 65787400 		.ascii	"ext\000"
 4095 1339 02       		.byte	0x2
 4096 133a 58       		.byte	0x58
 4097 133b 81130000 		.4byte	0x1381
 4098 133f 02       		.uleb128 0x2
 4099 1340 91       		.byte	0x91
 4100 1341 70       		.sleb128 -16
 4101 1342 27       		.uleb128 0x27
 4102 1343 A2000000 		.4byte	.LBB2
 4103 1347 78000000 		.4byte	.LBE2-.LBB2
 4104 134b 5D130000 		.4byte	0x135d
 4105 134f 26       		.uleb128 0x26
 4106 1350 746800   		.ascii	"th\000"
 4107 1353 02       		.byte	0x2
 4108 1354 78       		.byte	0x78
 4109 1355 87130000 		.4byte	0x1387
 4110 1359 02       		.uleb128 0x2
 4111 135a 91       		.byte	0x91
 4112 135b 6C       		.sleb128 -20
 4113 135c 00       		.byte	0
 4114 135d 28       		.uleb128 0x28
 4115 135e 1A010000 		.4byte	.LBB3
 4116 1362 46000000 		.4byte	.LBE3-.LBB3
 4117 1366 25       		.uleb128 0x25
 4118 1367 8E0D0000 		.4byte	.LASF258
 4119 136b 02       		.byte	0x2
 4120 136c 85       		.byte	0x85
 4121 136d 81130000 		.4byte	0x1381
 4122 1371 02       		.uleb128 0x2
 4123 1372 91       		.byte	0x91
 4124 1373 68       		.sleb128 -24
 4125 1374 00       		.byte	0
 4126 1375 00       		.byte	0
 4127 1376 0D       		.uleb128 0xd
 4128 1377 04       		.byte	0x4
 4129 1378 7C130000 		.4byte	0x137c
 4130 137c 0E       		.uleb128 0xe
 4131 137d 29090000 		.4byte	0x929
 4132 1381 0D       		.uleb128 0xd
 4133 1382 04       		.byte	0x4
 4134 1383 CD0A0000 		.4byte	0xacd
ARM GAS  C:\Users\tmj32\AppData\Local\Temp\ccKhIVes.s 			page 88


 4135 1387 0D       		.uleb128 0xd
 4136 1388 04       		.byte	0x4
 4137 1389 AD120000 		.4byte	0x12ad
 4138 138d 29       		.uleb128 0x29
 4139 138e 55040000 		.4byte	.LASF259
 4140 1392 02       		.byte	0x2
 4141 1393 A1       		.byte	0xa1
 4142 1394 00000000 		.4byte	.LFB45
 4143 1398 2E000000 		.4byte	.LFE45-.LFB45
 4144 139c 01       		.uleb128 0x1
 4145 139d 9C       		.byte	0x9c
 4146 139e CD130000 		.4byte	0x13cd
 4147 13a2 22       		.uleb128 0x22
 4148 13a3 62746E00 		.ascii	"btn\000"
 4149 13a7 02       		.byte	0x2
 4150 13a8 A1       		.byte	0xa1
 4151 13a9 EB120000 		.4byte	0x12eb
 4152 13ad 02       		.uleb128 0x2
 4153 13ae 91       		.byte	0x91
 4154 13af 6C       		.sleb128 -20
 4155 13b0 22       		.uleb128 0x22
 4156 13b1 74676C00 		.ascii	"tgl\000"
 4157 13b5 02       		.byte	0x2
 4158 13b6 A1       		.byte	0xa1
 4159 13b7 BF010000 		.4byte	0x1bf
 4160 13bb 02       		.uleb128 0x2
 4161 13bc 91       		.byte	0x91
 4162 13bd 6B       		.sleb128 -21
 4163 13be 26       		.uleb128 0x26
 4164 13bf 65787400 		.ascii	"ext\000"
 4165 13c3 02       		.byte	0x2
 4166 13c4 A5       		.byte	0xa5
 4167 13c5 81130000 		.4byte	0x1381
 4168 13c9 02       		.uleb128 0x2
 4169 13ca 91       		.byte	0x91
 4170 13cb 74       		.sleb128 -12
 4171 13cc 00       		.byte	0
 4172 13cd 29       		.uleb128 0x29
 4173 13ce 1A040000 		.4byte	.LASF260
 4174 13d2 02       		.byte	0x2
 4175 13d3 AF       		.byte	0xaf
 4176 13d4 00000000 		.4byte	.LFB46
 4177 13d8 52000000 		.4byte	.LFE46-.LFB46
 4178 13dc 01       		.uleb128 0x1
 4179 13dd 9C       		.byte	0x9c
 4180 13de 0D140000 		.4byte	0x140d
 4181 13e2 22       		.uleb128 0x22
 4182 13e3 62746E00 		.ascii	"btn\000"
 4183 13e7 02       		.byte	0x2
 4184 13e8 AF       		.byte	0xaf
 4185 13e9 EB120000 		.4byte	0x12eb
 4186 13ed 02       		.uleb128 0x2
 4187 13ee 91       		.byte	0x91
 4188 13ef 6C       		.sleb128 -20
 4189 13f0 23       		.uleb128 0x23
 4190 13f1 62010000 		.4byte	.LASF202
 4191 13f5 02       		.byte	0x2
ARM GAS  C:\Users\tmj32\AppData\Local\Temp\ccKhIVes.s 			page 89


 4192 13f6 AF       		.byte	0xaf
 4193 13f7 730A0000 		.4byte	0xa73
 4194 13fb 02       		.uleb128 0x2
 4195 13fc 91       		.byte	0x91
 4196 13fd 6B       		.sleb128 -21
 4197 13fe 26       		.uleb128 0x26
 4198 13ff 65787400 		.ascii	"ext\000"
 4199 1403 02       		.byte	0x2
 4200 1404 B3       		.byte	0xb3
 4201 1405 81130000 		.4byte	0x1381
 4202 1409 02       		.uleb128 0x2
 4203 140a 91       		.byte	0x91
 4204 140b 74       		.sleb128 -12
 4205 140c 00       		.byte	0
 4206 140d 29       		.uleb128 0x29
 4207 140e 81040000 		.4byte	.LASF261
 4208 1412 02       		.byte	0x2
 4209 1413 BE       		.byte	0xbe
 4210 1414 00000000 		.4byte	.LFB47
 4211 1418 66000000 		.4byte	.LFE47-.LFB47
 4212 141c 01       		.uleb128 0x1
 4213 141d 9C       		.byte	0x9c
 4214 141e 3F140000 		.4byte	0x143f
 4215 1422 22       		.uleb128 0x22
 4216 1423 62746E00 		.ascii	"btn\000"
 4217 1427 02       		.byte	0x2
 4218 1428 BE       		.byte	0xbe
 4219 1429 EB120000 		.4byte	0x12eb
 4220 142d 02       		.uleb128 0x2
 4221 142e 91       		.byte	0x91
 4222 142f 6C       		.sleb128 -20
 4223 1430 26       		.uleb128 0x26
 4224 1431 65787400 		.ascii	"ext\000"
 4225 1435 02       		.byte	0x2
 4226 1436 C2       		.byte	0xc2
 4227 1437 81130000 		.4byte	0x1381
 4228 143b 02       		.uleb128 0x2
 4229 143c 91       		.byte	0x91
 4230 143d 74       		.sleb128 -12
 4231 143e 00       		.byte	0
 4232 143f 2A       		.uleb128 0x2a
 4233 1440 5A050000 		.4byte	.LASF262
 4234 1444 02       		.byte	0x2
 4235 1445 D1       		.byte	0xd1
 4236 1446 00000000 		.4byte	.LFB48
 4237 144a 18000000 		.4byte	.LFE48-.LFB48
 4238 144e 01       		.uleb128 0x1
 4239 144f 9C       		.byte	0x9c
 4240 1450 71140000 		.4byte	0x1471
 4241 1454 22       		.uleb128 0x22
 4242 1455 62746E00 		.ascii	"btn\000"
 4243 1459 02       		.byte	0x2
 4244 145a D1       		.byte	0xd1
 4245 145b EB120000 		.4byte	0x12eb
 4246 145f 02       		.uleb128 0x2
 4247 1460 91       		.byte	0x91
 4248 1461 74       		.sleb128 -12
ARM GAS  C:\Users\tmj32\AppData\Local\Temp\ccKhIVes.s 			page 90


 4249 1462 23       		.uleb128 0x23
 4250 1463 030C0000 		.4byte	.LASF263
 4251 1467 02       		.byte	0x2
 4252 1468 D1       		.byte	0xd1
 4253 1469 C3000000 		.4byte	0xc3
 4254 146d 02       		.uleb128 0x2
 4255 146e 91       		.byte	0x91
 4256 146f 72       		.sleb128 -14
 4257 1470 00       		.byte	0
 4258 1471 2A       		.uleb128 0x2a
 4259 1472 22060000 		.4byte	.LASF264
 4260 1476 02       		.byte	0x2
 4261 1477 E5       		.byte	0xe5
 4262 1478 00000000 		.4byte	.LFB49
 4263 147c 18000000 		.4byte	.LFE49-.LFB49
 4264 1480 01       		.uleb128 0x1
 4265 1481 9C       		.byte	0x9c
 4266 1482 A3140000 		.4byte	0x14a3
 4267 1486 22       		.uleb128 0x22
 4268 1487 62746E00 		.ascii	"btn\000"
 4269 148b 02       		.byte	0x2
 4270 148c E5       		.byte	0xe5
 4271 148d EB120000 		.4byte	0x12eb
 4272 1491 02       		.uleb128 0x2
 4273 1492 91       		.byte	0x91
 4274 1493 74       		.sleb128 -12
 4275 1494 23       		.uleb128 0x23
 4276 1495 030C0000 		.4byte	.LASF263
 4277 1499 02       		.byte	0x2
 4278 149a E5       		.byte	0xe5
 4279 149b C3000000 		.4byte	0xc3
 4280 149f 02       		.uleb128 0x2
 4281 14a0 91       		.byte	0x91
 4282 14a1 72       		.sleb128 -14
 4283 14a2 00       		.byte	0
 4284 14a3 2A       		.uleb128 0x2a
 4285 14a4 4C0A0000 		.4byte	.LASF265
 4286 14a8 02       		.byte	0x2
 4287 14a9 FA       		.byte	0xfa
 4288 14aa 00000000 		.4byte	.LFB50
 4289 14ae 18000000 		.4byte	.LFE50-.LFB50
 4290 14b2 01       		.uleb128 0x1
 4291 14b3 9C       		.byte	0x9c
 4292 14b4 D5140000 		.4byte	0x14d5
 4293 14b8 22       		.uleb128 0x22
 4294 14b9 62746E00 		.ascii	"btn\000"
 4295 14bd 02       		.byte	0x2
 4296 14be FA       		.byte	0xfa
 4297 14bf EB120000 		.4byte	0x12eb
 4298 14c3 02       		.uleb128 0x2
 4299 14c4 91       		.byte	0x91
 4300 14c5 74       		.sleb128 -12
 4301 14c6 23       		.uleb128 0x23
 4302 14c7 030C0000 		.4byte	.LASF263
 4303 14cb 02       		.byte	0x2
 4304 14cc FA       		.byte	0xfa
 4305 14cd C3000000 		.4byte	0xc3
ARM GAS  C:\Users\tmj32\AppData\Local\Temp\ccKhIVes.s 			page 91


 4306 14d1 02       		.uleb128 0x2
 4307 14d2 91       		.byte	0x91
 4308 14d3 72       		.sleb128 -14
 4309 14d4 00       		.byte	0
 4310 14d5 2B       		.uleb128 0x2b
 4311 14d6 7D0D0000 		.4byte	.LASF266
 4312 14da 02       		.byte	0x2
 4313 14db 0F01     		.2byte	0x10f
 4314 14dd 00000000 		.4byte	.LFB51
 4315 14e1 82000000 		.4byte	.LFE51-.LFB51
 4316 14e5 01       		.uleb128 0x1
 4317 14e6 9C       		.byte	0x9c
 4318 14e7 28150000 		.4byte	0x1528
 4319 14eb 2C       		.uleb128 0x2c
 4320 14ec 62746E00 		.ascii	"btn\000"
 4321 14f0 02       		.byte	0x2
 4322 14f1 0F01     		.2byte	0x10f
 4323 14f3 EB120000 		.4byte	0x12eb
 4324 14f7 02       		.uleb128 0x2
 4325 14f8 91       		.byte	0x91
 4326 14f9 6C       		.sleb128 -20
 4327 14fa 2D       		.uleb128 0x2d
 4328 14fb 92010000 		.4byte	.LASF48
 4329 14ff 02       		.byte	0x2
 4330 1500 0F01     		.2byte	0x10f
 4331 1502 030B0000 		.4byte	0xb03
 4332 1506 02       		.uleb128 0x2
 4333 1507 91       		.byte	0x91
 4334 1508 6B       		.sleb128 -21
 4335 1509 2D       		.uleb128 0x2d
 4336 150a 42090000 		.4byte	.LASF254
 4337 150e 02       		.byte	0x2
 4338 150f 0F01     		.2byte	0x10f
 4339 1511 1E090000 		.4byte	0x91e
 4340 1515 02       		.uleb128 0x2
 4341 1516 91       		.byte	0x91
 4342 1517 64       		.sleb128 -28
 4343 1518 2E       		.uleb128 0x2e
 4344 1519 65787400 		.ascii	"ext\000"
 4345 151d 02       		.byte	0x2
 4346 151e 1301     		.2byte	0x113
 4347 1520 81130000 		.4byte	0x1381
 4348 1524 02       		.uleb128 0x2
 4349 1525 91       		.byte	0x91
 4350 1526 74       		.sleb128 -12
 4351 1527 00       		.byte	0
 4352 1528 2F       		.uleb128 0x2f
 4353 1529 51090000 		.4byte	.LASF268
 4354 152d 02       		.byte	0x2
 4355 152e 2A01     		.2byte	0x12a
 4356 1530 730A0000 		.4byte	0xa73
 4357 1534 00000000 		.4byte	.LFB52
 4358 1538 22000000 		.4byte	.LFE52-.LFB52
 4359 153c 01       		.uleb128 0x1
 4360 153d 9C       		.byte	0x9c
 4361 153e 61150000 		.4byte	0x1561
 4362 1542 2C       		.uleb128 0x2c
ARM GAS  C:\Users\tmj32\AppData\Local\Temp\ccKhIVes.s 			page 92


 4363 1543 62746E00 		.ascii	"btn\000"
 4364 1547 02       		.byte	0x2
 4365 1548 2A01     		.2byte	0x12a
 4366 154a 76130000 		.4byte	0x1376
 4367 154e 02       		.uleb128 0x2
 4368 154f 91       		.byte	0x91
 4369 1550 6C       		.sleb128 -20
 4370 1551 2E       		.uleb128 0x2e
 4371 1552 65787400 		.ascii	"ext\000"
 4372 1556 02       		.byte	0x2
 4373 1557 2E01     		.2byte	0x12e
 4374 1559 81130000 		.4byte	0x1381
 4375 155d 02       		.uleb128 0x2
 4376 155e 91       		.byte	0x91
 4377 155f 74       		.sleb128 -12
 4378 1560 00       		.byte	0
 4379 1561 2F       		.uleb128 0x2f
 4380 1562 950C0000 		.4byte	.LASF269
 4381 1566 02       		.byte	0x2
 4382 1567 3701     		.2byte	0x137
 4383 1569 BF010000 		.4byte	0x1bf
 4384 156d 00000000 		.4byte	.LFB53
 4385 1571 2C000000 		.4byte	.LFE53-.LFB53
 4386 1575 01       		.uleb128 0x1
 4387 1576 9C       		.byte	0x9c
 4388 1577 9A150000 		.4byte	0x159a
 4389 157b 2C       		.uleb128 0x2c
 4390 157c 62746E00 		.ascii	"btn\000"
 4391 1580 02       		.byte	0x2
 4392 1581 3701     		.2byte	0x137
 4393 1583 76130000 		.4byte	0x1376
 4394 1587 02       		.uleb128 0x2
 4395 1588 91       		.byte	0x91
 4396 1589 6C       		.sleb128 -20
 4397 158a 2E       		.uleb128 0x2e
 4398 158b 65787400 		.ascii	"ext\000"
 4399 158f 02       		.byte	0x2
 4400 1590 3B01     		.2byte	0x13b
 4401 1592 81130000 		.4byte	0x1381
 4402 1596 02       		.uleb128 0x2
 4403 1597 91       		.byte	0x91
 4404 1598 74       		.sleb128 -12
 4405 1599 00       		.byte	0
 4406 159a 30       		.uleb128 0x30
 4407 159b B70C0000 		.4byte	.LASF270
 4408 159f 02       		.byte	0x2
 4409 15a0 4501     		.2byte	0x145
 4410 15a2 C3000000 		.4byte	0xc3
 4411 15a6 00000000 		.4byte	.LFB54
 4412 15aa 16000000 		.4byte	.LFE54-.LFB54
 4413 15ae 01       		.uleb128 0x1
 4414 15af 9C       		.byte	0x9c
 4415 15b0 C4150000 		.4byte	0x15c4
 4416 15b4 2C       		.uleb128 0x2c
 4417 15b5 62746E00 		.ascii	"btn\000"
 4418 15b9 02       		.byte	0x2
 4419 15ba 4501     		.2byte	0x145
ARM GAS  C:\Users\tmj32\AppData\Local\Temp\ccKhIVes.s 			page 93


 4420 15bc 76130000 		.4byte	0x1376
 4421 15c0 02       		.uleb128 0x2
 4422 15c1 91       		.byte	0x91
 4423 15c2 74       		.sleb128 -12
 4424 15c3 00       		.byte	0
 4425 15c4 30       		.uleb128 0x30
 4426 15c5 EF040000 		.4byte	.LASF271
 4427 15c9 02       		.byte	0x2
 4428 15ca 5701     		.2byte	0x157
 4429 15cc C3000000 		.4byte	0xc3
 4430 15d0 00000000 		.4byte	.LFB55
 4431 15d4 16000000 		.4byte	.LFE55-.LFB55
 4432 15d8 01       		.uleb128 0x1
 4433 15d9 9C       		.byte	0x9c
 4434 15da EE150000 		.4byte	0x15ee
 4435 15de 2C       		.uleb128 0x2c
 4436 15df 62746E00 		.ascii	"btn\000"
 4437 15e3 02       		.byte	0x2
 4438 15e4 5701     		.2byte	0x157
 4439 15e6 76130000 		.4byte	0x1376
 4440 15ea 02       		.uleb128 0x2
 4441 15eb 91       		.byte	0x91
 4442 15ec 74       		.sleb128 -12
 4443 15ed 00       		.byte	0
 4444 15ee 30       		.uleb128 0x30
 4445 15ef 340A0000 		.4byte	.LASF272
 4446 15f3 02       		.byte	0x2
 4447 15f4 6801     		.2byte	0x168
 4448 15f6 C3000000 		.4byte	0xc3
 4449 15fa 00000000 		.4byte	.LFB56
 4450 15fe 16000000 		.4byte	.LFE56-.LFB56
 4451 1602 01       		.uleb128 0x1
 4452 1603 9C       		.byte	0x9c
 4453 1604 18160000 		.4byte	0x1618
 4454 1608 2C       		.uleb128 0x2c
 4455 1609 62746E00 		.ascii	"btn\000"
 4456 160d 02       		.byte	0x2
 4457 160e 6801     		.2byte	0x168
 4458 1610 76130000 		.4byte	0x1376
 4459 1614 02       		.uleb128 0x2
 4460 1615 91       		.byte	0x91
 4461 1616 74       		.sleb128 -12
 4462 1617 00       		.byte	0
 4463 1618 2F       		.uleb128 0x2f
 4464 1619 F9020000 		.4byte	.LASF273
 4465 161d 02       		.byte	0x2
 4466 161e 7B01     		.2byte	0x17b
 4467 1620 1E090000 		.4byte	0x91e
 4468 1624 00000000 		.4byte	.LFB57
 4469 1628 C0000000 		.4byte	.LFE57-.LFB57
 4470 162c 01       		.uleb128 0x1
 4471 162d 9C       		.byte	0x9c
 4472 162e 7E160000 		.4byte	0x167e
 4473 1632 2C       		.uleb128 0x2c
 4474 1633 62746E00 		.ascii	"btn\000"
 4475 1637 02       		.byte	0x2
 4476 1638 7B01     		.2byte	0x17b
ARM GAS  C:\Users\tmj32\AppData\Local\Temp\ccKhIVes.s 			page 94


 4477 163a 76130000 		.4byte	0x1376
 4478 163e 02       		.uleb128 0x2
 4479 163f 91       		.byte	0x91
 4480 1640 64       		.sleb128 -28
 4481 1641 2D       		.uleb128 0x2d
 4482 1642 92010000 		.4byte	.LASF48
 4483 1646 02       		.byte	0x2
 4484 1647 7B01     		.2byte	0x17b
 4485 1649 030B0000 		.4byte	0xb03
 4486 164d 02       		.uleb128 0x2
 4487 164e 91       		.byte	0x91
 4488 164f 63       		.sleb128 -29
 4489 1650 31       		.uleb128 0x31
 4490 1651 42090000 		.4byte	.LASF254
 4491 1655 02       		.byte	0x2
 4492 1656 7F01     		.2byte	0x17f
 4493 1658 1E090000 		.4byte	0x91e
 4494 165c 02       		.uleb128 0x2
 4495 165d 91       		.byte	0x91
 4496 165e 74       		.sleb128 -12
 4497 165f 2E       		.uleb128 0x2e
 4498 1660 65787400 		.ascii	"ext\000"
 4499 1664 02       		.byte	0x2
 4500 1665 8001     		.2byte	0x180
 4501 1667 81130000 		.4byte	0x1381
 4502 166b 02       		.uleb128 0x2
 4503 166c 91       		.byte	0x91
 4504 166d 70       		.sleb128 -16
 4505 166e 31       		.uleb128 0x31
 4506 166f 62010000 		.4byte	.LASF202
 4507 1673 02       		.byte	0x2
 4508 1674 8101     		.2byte	0x181
 4509 1676 730A0000 		.4byte	0xa73
 4510 167a 02       		.uleb128 0x2
 4511 167b 91       		.byte	0x91
 4512 167c 6F       		.sleb128 -17
 4513 167d 00       		.byte	0
 4514 167e 32       		.uleb128 0x32
 4515 167f D70A0000 		.4byte	.LASF276
 4516 1683 02       		.byte	0x2
 4517 1684 A901     		.2byte	0x1a9
 4518 1686 BF010000 		.4byte	0x1bf
 4519 168a 00000000 		.4byte	.LFB58
 4520 168e 4C000000 		.4byte	.LFE58-.LFB58
 4521 1692 01       		.uleb128 0x1
 4522 1693 9C       		.byte	0x9c
 4523 1694 C6160000 		.4byte	0x16c6
 4524 1698 2C       		.uleb128 0x2c
 4525 1699 62746E00 		.ascii	"btn\000"
 4526 169d 02       		.byte	0x2
 4527 169e A901     		.2byte	0x1a9
 4528 16a0 EB120000 		.4byte	0x12eb
 4529 16a4 02       		.uleb128 0x2
 4530 16a5 91       		.byte	0x91
 4531 16a6 74       		.sleb128 -12
 4532 16a7 2D       		.uleb128 0x2d
 4533 16a8 64070000 		.4byte	.LASF274
ARM GAS  C:\Users\tmj32\AppData\Local\Temp\ccKhIVes.s 			page 95


 4534 16ac 02       		.byte	0x2
 4535 16ad A901     		.2byte	0x1a9
 4536 16af 89050000 		.4byte	0x589
 4537 16b3 02       		.uleb128 0x2
 4538 16b4 91       		.byte	0x91
 4539 16b5 70       		.sleb128 -16
 4540 16b6 2D       		.uleb128 0x2d
 4541 16b7 EE0C0000 		.4byte	.LASF275
 4542 16bb 02       		.byte	0x2
 4543 16bc A901     		.2byte	0x1a9
 4544 16be FB060000 		.4byte	0x6fb
 4545 16c2 02       		.uleb128 0x2
 4546 16c3 91       		.byte	0x91
 4547 16c4 6F       		.sleb128 -17
 4548 16c5 00       		.byte	0
 4549 16c6 32       		.uleb128 0x32
 4550 16c7 8B0A0000 		.4byte	.LASF277
 4551 16cb 02       		.byte	0x2
 4552 16cc FB01     		.2byte	0x1fb
 4553 16ce 2A050000 		.4byte	0x52a
 4554 16d2 00000000 		.4byte	.LFB59
 4555 16d6 BC020000 		.4byte	.LFE59-.LFB59
 4556 16da 01       		.uleb128 0x1
 4557 16db 9C       		.byte	0x9c
 4558 16dc A5170000 		.4byte	0x17a5
 4559 16e0 2C       		.uleb128 0x2c
 4560 16e1 62746E00 		.ascii	"btn\000"
 4561 16e5 02       		.byte	0x2
 4562 16e6 FB01     		.2byte	0x1fb
 4563 16e8 EB120000 		.4byte	0x12eb
 4564 16ec 02       		.uleb128 0x2
 4565 16ed 91       		.byte	0x91
 4566 16ee 5C       		.sleb128 -36
 4567 16ef 2D       		.uleb128 0x2d
 4568 16f0 52010000 		.4byte	.LASF278
 4569 16f4 02       		.byte	0x2
 4570 16f5 FB01     		.2byte	0x1fb
 4571 16f7 66080000 		.4byte	0x866
 4572 16fb 02       		.uleb128 0x2
 4573 16fc 91       		.byte	0x91
 4574 16fd 5B       		.sleb128 -37
 4575 16fe 2D       		.uleb128 0x2d
 4576 16ff C4050000 		.4byte	.LASF279
 4577 1703 02       		.byte	0x2
 4578 1704 FB01     		.2byte	0x1fb
 4579 1706 E4000000 		.4byte	0xe4
 4580 170a 02       		.uleb128 0x2
 4581 170b 91       		.byte	0x91
 4582 170c 54       		.sleb128 -44
 4583 170d 2E       		.uleb128 0x2e
 4584 170e 72657300 		.ascii	"res\000"
 4585 1712 02       		.byte	0x2
 4586 1713 FD01     		.2byte	0x1fd
 4587 1715 2A050000 		.4byte	0x52a
 4588 1719 02       		.uleb128 0x2
 4589 171a 91       		.byte	0x91
 4590 171b 77       		.sleb128 -9
ARM GAS  C:\Users\tmj32\AppData\Local\Temp\ccKhIVes.s 			page 96


 4591 171c 2E       		.uleb128 0x2e
 4592 171d 65787400 		.ascii	"ext\000"
 4593 1721 02       		.byte	0x2
 4594 1722 0402     		.2byte	0x204
 4595 1724 81130000 		.4byte	0x1381
 4596 1728 02       		.uleb128 0x2
 4597 1729 91       		.byte	0x91
 4598 172a 70       		.sleb128 -16
 4599 172b 2E       		.uleb128 0x2e
 4600 172c 74676C00 		.ascii	"tgl\000"
 4601 1730 02       		.byte	0x2
 4602 1731 0502     		.2byte	0x205
 4603 1733 BF010000 		.4byte	0x1bf
 4604 1737 02       		.uleb128 0x2
 4605 1738 91       		.byte	0x91
 4606 1739 6F       		.sleb128 -17
 4607 173a 27       		.uleb128 0x27
 4608 173b 20010000 		.4byte	.LBB4
 4609 173f BE000000 		.4byte	.LBE4-.LBB4
 4610 1743 57170000 		.4byte	0x1757
 4611 1747 31       		.uleb128 0x31
 4612 1748 200A0000 		.4byte	.LASF280
 4613 174c 02       		.byte	0x2
 4614 174d 4702     		.2byte	0x247
 4615 174f CE000000 		.4byte	0xce
 4616 1753 02       		.uleb128 0x2
 4617 1754 91       		.byte	0x91
 4618 1755 68       		.sleb128 -24
 4619 1756 00       		.byte	0
 4620 1757 28       		.uleb128 0x28
 4621 1758 14020000 		.4byte	.LBB5
 4622 175c 94000000 		.4byte	.LBE5-.LBB5
 4623 1760 2E       		.uleb128 0x2e
 4624 1761 6300     		.ascii	"c\000"
 4625 1763 02       		.byte	0x2
 4626 1764 8002     		.2byte	0x280
 4627 1766 8E020000 		.4byte	0x28e
 4628 176a 02       		.uleb128 0x2
 4629 176b 91       		.byte	0x91
 4630 176c 6E       		.sleb128 -18
 4631 176d 27       		.uleb128 0x27
 4632 176e 32020000 		.4byte	.LBB6
 4633 1772 2E000000 		.4byte	.LBE6-.LBB6
 4634 1776 8A170000 		.4byte	0x178a
 4635 177a 31       		.uleb128 0x31
 4636 177b 62010000 		.4byte	.LASF202
 4637 177f 02       		.byte	0x2
 4638 1780 8502     		.2byte	0x285
 4639 1782 CE000000 		.4byte	0xce
 4640 1786 02       		.uleb128 0x2
 4641 1787 91       		.byte	0x91
 4642 1788 64       		.sleb128 -28
 4643 1789 00       		.byte	0
 4644 178a 28       		.uleb128 0x28
 4645 178b 78020000 		.4byte	.LBB7
 4646 178f 2E000000 		.4byte	.LBE7-.LBB7
 4647 1793 31       		.uleb128 0x31
ARM GAS  C:\Users\tmj32\AppData\Local\Temp\ccKhIVes.s 			page 97


 4648 1794 62010000 		.4byte	.LASF202
 4649 1798 02       		.byte	0x2
 4650 1799 8E02     		.2byte	0x28e
 4651 179b CE000000 		.4byte	0xce
 4652 179f 02       		.uleb128 0x2
 4653 17a0 91       		.byte	0x91
 4654 17a1 60       		.sleb128 -32
 4655 17a2 00       		.byte	0
 4656 17a3 00       		.byte	0
 4657 17a4 00       		.byte	0
 4658 17a5 25       		.uleb128 0x25
 4659 17a6 C70A0000 		.4byte	.LASF281
 4660 17aa 02       		.byte	0x2
 4661 17ab 2F       		.byte	0x2f
 4662 17ac 71080000 		.4byte	0x871
 4663 17b0 05       		.uleb128 0x5
 4664 17b1 03       		.byte	0x3
 4665 17b2 00000000 		.4byte	ancestor_signal
 4666 17b6 25       		.uleb128 0x25
 4667 17b7 E50A0000 		.4byte	.LASF282
 4668 17bb 02       		.byte	0x2
 4669 17bc 30       		.byte	0x30
 4670 17bd 06070000 		.4byte	0x706
 4671 17c1 05       		.uleb128 0x5
 4672 17c2 03       		.byte	0x3
 4673 17c3 04000000 		.4byte	ancestor_design
 4674 17c7 33       		.uleb128 0x33
 4675 17c8 C1070000 		.4byte	.LASF283
 4676 17cc 09       		.byte	0x9
 4677 17cd 1301     		.2byte	0x113
 4678 17cf 00050000 		.4byte	0x500
 4679 17d3 33       		.uleb128 0x33
 4680 17d4 AC0A0000 		.4byte	.LASF284
 4681 17d8 09       		.byte	0x9
 4682 17d9 1401     		.2byte	0x114
 4683 17db 00050000 		.4byte	0x500
 4684 17df 33       		.uleb128 0x33
 4685 17e0 67040000 		.4byte	.LASF285
 4686 17e4 09       		.byte	0x9
 4687 17e5 1501     		.2byte	0x115
 4688 17e7 00050000 		.4byte	0x500
 4689 17eb 33       		.uleb128 0x33
 4690 17ec 96070000 		.4byte	.LASF286
 4691 17f0 09       		.byte	0x9
 4692 17f1 1601     		.2byte	0x116
 4693 17f3 00050000 		.4byte	0x500
 4694 17f7 33       		.uleb128 0x33
 4695 17f8 E70B0000 		.4byte	.LASF287
 4696 17fc 09       		.byte	0x9
 4697 17fd 1701     		.2byte	0x117
 4698 17ff 00050000 		.4byte	0x500
 4699 1803 00       		.byte	0
 4700              		.section	.debug_abbrev,"",%progbits
 4701              	.Ldebug_abbrev0:
 4702 0000 01       		.uleb128 0x1
 4703 0001 11       		.uleb128 0x11
 4704 0002 01       		.byte	0x1
ARM GAS  C:\Users\tmj32\AppData\Local\Temp\ccKhIVes.s 			page 98


 4705 0003 25       		.uleb128 0x25
 4706 0004 0E       		.uleb128 0xe
 4707 0005 13       		.uleb128 0x13
 4708 0006 0B       		.uleb128 0xb
 4709 0007 03       		.uleb128 0x3
 4710 0008 0E       		.uleb128 0xe
 4711 0009 1B       		.uleb128 0x1b
 4712 000a 0E       		.uleb128 0xe
 4713 000b 55       		.uleb128 0x55
 4714 000c 17       		.uleb128 0x17
 4715 000d 11       		.uleb128 0x11
 4716 000e 01       		.uleb128 0x1
 4717 000f 10       		.uleb128 0x10
 4718 0010 17       		.uleb128 0x17
 4719 0011 00       		.byte	0
 4720 0012 00       		.byte	0
 4721 0013 02       		.uleb128 0x2
 4722 0014 16       		.uleb128 0x16
 4723 0015 00       		.byte	0
 4724 0016 03       		.uleb128 0x3
 4725 0017 0E       		.uleb128 0xe
 4726 0018 3A       		.uleb128 0x3a
 4727 0019 0B       		.uleb128 0xb
 4728 001a 3B       		.uleb128 0x3b
 4729 001b 0B       		.uleb128 0xb
 4730 001c 49       		.uleb128 0x49
 4731 001d 13       		.uleb128 0x13
 4732 001e 00       		.byte	0
 4733 001f 00       		.byte	0
 4734 0020 03       		.uleb128 0x3
 4735 0021 24       		.uleb128 0x24
 4736 0022 00       		.byte	0
 4737 0023 0B       		.uleb128 0xb
 4738 0024 0B       		.uleb128 0xb
 4739 0025 3E       		.uleb128 0x3e
 4740 0026 0B       		.uleb128 0xb
 4741 0027 03       		.uleb128 0x3
 4742 0028 0E       		.uleb128 0xe
 4743 0029 00       		.byte	0
 4744 002a 00       		.byte	0
 4745 002b 04       		.uleb128 0x4
 4746 002c 24       		.uleb128 0x24
 4747 002d 00       		.byte	0
 4748 002e 0B       		.uleb128 0xb
 4749 002f 0B       		.uleb128 0xb
 4750 0030 3E       		.uleb128 0x3e
 4751 0031 0B       		.uleb128 0xb
 4752 0032 03       		.uleb128 0x3
 4753 0033 08       		.uleb128 0x8
 4754 0034 00       		.byte	0
 4755 0035 00       		.byte	0
 4756 0036 05       		.uleb128 0x5
 4757 0037 0F       		.uleb128 0xf
 4758 0038 00       		.byte	0
 4759 0039 0B       		.uleb128 0xb
 4760 003a 0B       		.uleb128 0xb
 4761 003b 00       		.byte	0
ARM GAS  C:\Users\tmj32\AppData\Local\Temp\ccKhIVes.s 			page 99


 4762 003c 00       		.byte	0
 4763 003d 06       		.uleb128 0x6
 4764 003e 13       		.uleb128 0x13
 4765 003f 01       		.byte	0x1
 4766 0040 0B       		.uleb128 0xb
 4767 0041 0B       		.uleb128 0xb
 4768 0042 3A       		.uleb128 0x3a
 4769 0043 0B       		.uleb128 0xb
 4770 0044 3B       		.uleb128 0x3b
 4771 0045 0B       		.uleb128 0xb
 4772 0046 01       		.uleb128 0x1
 4773 0047 13       		.uleb128 0x13
 4774 0048 00       		.byte	0
 4775 0049 00       		.byte	0
 4776 004a 07       		.uleb128 0x7
 4777 004b 0D       		.uleb128 0xd
 4778 004c 00       		.byte	0
 4779 004d 03       		.uleb128 0x3
 4780 004e 0E       		.uleb128 0xe
 4781 004f 3A       		.uleb128 0x3a
 4782 0050 0B       		.uleb128 0xb
 4783 0051 3B       		.uleb128 0x3b
 4784 0052 0B       		.uleb128 0xb
 4785 0053 49       		.uleb128 0x49
 4786 0054 13       		.uleb128 0x13
 4787 0055 38       		.uleb128 0x38
 4788 0056 0B       		.uleb128 0xb
 4789 0057 00       		.byte	0
 4790 0058 00       		.byte	0
 4791 0059 08       		.uleb128 0x8
 4792 005a 0D       		.uleb128 0xd
 4793 005b 00       		.byte	0
 4794 005c 03       		.uleb128 0x3
 4795 005d 08       		.uleb128 0x8
 4796 005e 3A       		.uleb128 0x3a
 4797 005f 0B       		.uleb128 0xb
 4798 0060 3B       		.uleb128 0x3b
 4799 0061 0B       		.uleb128 0xb
 4800 0062 49       		.uleb128 0x49
 4801 0063 13       		.uleb128 0x13
 4802 0064 38       		.uleb128 0x38
 4803 0065 0B       		.uleb128 0xb
 4804 0066 00       		.byte	0
 4805 0067 00       		.byte	0
 4806 0068 09       		.uleb128 0x9
 4807 0069 13       		.uleb128 0x13
 4808 006a 01       		.byte	0x1
 4809 006b 03       		.uleb128 0x3
 4810 006c 0E       		.uleb128 0xe
 4811 006d 0B       		.uleb128 0xb
 4812 006e 0B       		.uleb128 0xb
 4813 006f 3A       		.uleb128 0x3a
 4814 0070 0B       		.uleb128 0xb
 4815 0071 3B       		.uleb128 0x3b
 4816 0072 0B       		.uleb128 0xb
 4817 0073 01       		.uleb128 0x1
 4818 0074 13       		.uleb128 0x13
ARM GAS  C:\Users\tmj32\AppData\Local\Temp\ccKhIVes.s 			page 100


 4819 0075 00       		.byte	0
 4820 0076 00       		.byte	0
 4821 0077 0A       		.uleb128 0xa
 4822 0078 0D       		.uleb128 0xd
 4823 0079 00       		.byte	0
 4824 007a 03       		.uleb128 0x3
 4825 007b 0E       		.uleb128 0xe
 4826 007c 3A       		.uleb128 0x3a
 4827 007d 0B       		.uleb128 0xb
 4828 007e 3B       		.uleb128 0x3b
 4829 007f 0B       		.uleb128 0xb
 4830 0080 49       		.uleb128 0x49
 4831 0081 13       		.uleb128 0x13
 4832 0082 0B       		.uleb128 0xb
 4833 0083 0B       		.uleb128 0xb
 4834 0084 0D       		.uleb128 0xd
 4835 0085 0B       		.uleb128 0xb
 4836 0086 0C       		.uleb128 0xc
 4837 0087 0B       		.uleb128 0xb
 4838 0088 38       		.uleb128 0x38
 4839 0089 0B       		.uleb128 0xb
 4840 008a 00       		.byte	0
 4841 008b 00       		.byte	0
 4842 008c 0B       		.uleb128 0xb
 4843 008d 15       		.uleb128 0x15
 4844 008e 01       		.byte	0x1
 4845 008f 27       		.uleb128 0x27
 4846 0090 19       		.uleb128 0x19
 4847 0091 49       		.uleb128 0x49
 4848 0092 13       		.uleb128 0x13
 4849 0093 01       		.uleb128 0x1
 4850 0094 13       		.uleb128 0x13
 4851 0095 00       		.byte	0
 4852 0096 00       		.byte	0
 4853 0097 0C       		.uleb128 0xc
 4854 0098 05       		.uleb128 0x5
 4855 0099 00       		.byte	0
 4856 009a 49       		.uleb128 0x49
 4857 009b 13       		.uleb128 0x13
 4858 009c 00       		.byte	0
 4859 009d 00       		.byte	0
 4860 009e 0D       		.uleb128 0xd
 4861 009f 0F       		.uleb128 0xf
 4862 00a0 00       		.byte	0
 4863 00a1 0B       		.uleb128 0xb
 4864 00a2 0B       		.uleb128 0xb
 4865 00a3 49       		.uleb128 0x49
 4866 00a4 13       		.uleb128 0x13
 4867 00a5 00       		.byte	0
 4868 00a6 00       		.byte	0
 4869 00a7 0E       		.uleb128 0xe
 4870 00a8 26       		.uleb128 0x26
 4871 00a9 00       		.byte	0
 4872 00aa 49       		.uleb128 0x49
 4873 00ab 13       		.uleb128 0x13
 4874 00ac 00       		.byte	0
 4875 00ad 00       		.byte	0
ARM GAS  C:\Users\tmj32\AppData\Local\Temp\ccKhIVes.s 			page 101


 4876 00ae 0F       		.uleb128 0xf
 4877 00af 17       		.uleb128 0x17
 4878 00b0 01       		.byte	0x1
 4879 00b1 0B       		.uleb128 0xb
 4880 00b2 0B       		.uleb128 0xb
 4881 00b3 3A       		.uleb128 0x3a
 4882 00b4 0B       		.uleb128 0xb
 4883 00b5 3B       		.uleb128 0x3b
 4884 00b6 0B       		.uleb128 0xb
 4885 00b7 01       		.uleb128 0x1
 4886 00b8 13       		.uleb128 0x13
 4887 00b9 00       		.byte	0
 4888 00ba 00       		.byte	0
 4889 00bb 10       		.uleb128 0x10
 4890 00bc 0D       		.uleb128 0xd
 4891 00bd 00       		.byte	0
 4892 00be 03       		.uleb128 0x3
 4893 00bf 08       		.uleb128 0x8
 4894 00c0 3A       		.uleb128 0x3a
 4895 00c1 0B       		.uleb128 0xb
 4896 00c2 3B       		.uleb128 0x3b
 4897 00c3 0B       		.uleb128 0xb
 4898 00c4 49       		.uleb128 0x49
 4899 00c5 13       		.uleb128 0x13
 4900 00c6 00       		.byte	0
 4901 00c7 00       		.byte	0
 4902 00c8 11       		.uleb128 0x11
 4903 00c9 0D       		.uleb128 0xd
 4904 00ca 00       		.byte	0
 4905 00cb 03       		.uleb128 0x3
 4906 00cc 0E       		.uleb128 0xe
 4907 00cd 3A       		.uleb128 0x3a
 4908 00ce 0B       		.uleb128 0xb
 4909 00cf 3B       		.uleb128 0x3b
 4910 00d0 0B       		.uleb128 0xb
 4911 00d1 49       		.uleb128 0x49
 4912 00d2 13       		.uleb128 0x13
 4913 00d3 00       		.byte	0
 4914 00d4 00       		.byte	0
 4915 00d5 12       		.uleb128 0x12
 4916 00d6 16       		.uleb128 0x16
 4917 00d7 00       		.byte	0
 4918 00d8 03       		.uleb128 0x3
 4919 00d9 0E       		.uleb128 0xe
 4920 00da 3A       		.uleb128 0x3a
 4921 00db 0B       		.uleb128 0xb
 4922 00dc 3B       		.uleb128 0x3b
 4923 00dd 05       		.uleb128 0x5
 4924 00de 49       		.uleb128 0x49
 4925 00df 13       		.uleb128 0x13
 4926 00e0 00       		.byte	0
 4927 00e1 00       		.byte	0
 4928 00e2 13       		.uleb128 0x13
 4929 00e3 04       		.uleb128 0x4
 4930 00e4 01       		.byte	0x1
 4931 00e5 0B       		.uleb128 0xb
 4932 00e6 0B       		.uleb128 0xb
ARM GAS  C:\Users\tmj32\AppData\Local\Temp\ccKhIVes.s 			page 102


 4933 00e7 49       		.uleb128 0x49
 4934 00e8 13       		.uleb128 0x13
 4935 00e9 3A       		.uleb128 0x3a
 4936 00ea 0B       		.uleb128 0xb
 4937 00eb 3B       		.uleb128 0x3b
 4938 00ec 0B       		.uleb128 0xb
 4939 00ed 01       		.uleb128 0x1
 4940 00ee 13       		.uleb128 0x13
 4941 00ef 00       		.byte	0
 4942 00f0 00       		.byte	0
 4943 00f1 14       		.uleb128 0x14
 4944 00f2 28       		.uleb128 0x28
 4945 00f3 00       		.byte	0
 4946 00f4 03       		.uleb128 0x3
 4947 00f5 0E       		.uleb128 0xe
 4948 00f6 1C       		.uleb128 0x1c
 4949 00f7 0B       		.uleb128 0xb
 4950 00f8 00       		.byte	0
 4951 00f9 00       		.byte	0
 4952 00fa 15       		.uleb128 0x15
 4953 00fb 0D       		.uleb128 0xd
 4954 00fc 00       		.byte	0
 4955 00fd 03       		.uleb128 0x3
 4956 00fe 08       		.uleb128 0x8
 4957 00ff 3A       		.uleb128 0x3a
 4958 0100 0B       		.uleb128 0xb
 4959 0101 3B       		.uleb128 0x3b
 4960 0102 0B       		.uleb128 0xb
 4961 0103 49       		.uleb128 0x49
 4962 0104 13       		.uleb128 0x13
 4963 0105 0B       		.uleb128 0xb
 4964 0106 0B       		.uleb128 0xb
 4965 0107 0D       		.uleb128 0xd
 4966 0108 0B       		.uleb128 0xb
 4967 0109 0C       		.uleb128 0xc
 4968 010a 0B       		.uleb128 0xb
 4969 010b 38       		.uleb128 0x38
 4970 010c 0B       		.uleb128 0xb
 4971 010d 00       		.byte	0
 4972 010e 00       		.byte	0
 4973 010f 16       		.uleb128 0x16
 4974 0110 15       		.uleb128 0x15
 4975 0111 01       		.byte	0x1
 4976 0112 27       		.uleb128 0x27
 4977 0113 19       		.uleb128 0x19
 4978 0114 01       		.uleb128 0x1
 4979 0115 13       		.uleb128 0x13
 4980 0116 00       		.byte	0
 4981 0117 00       		.byte	0
 4982 0118 17       		.uleb128 0x17
 4983 0119 01       		.uleb128 0x1
 4984 011a 01       		.byte	0x1
 4985 011b 49       		.uleb128 0x49
 4986 011c 13       		.uleb128 0x13
 4987 011d 01       		.uleb128 0x1
 4988 011e 13       		.uleb128 0x13
 4989 011f 00       		.byte	0
ARM GAS  C:\Users\tmj32\AppData\Local\Temp\ccKhIVes.s 			page 103


 4990 0120 00       		.byte	0
 4991 0121 18       		.uleb128 0x18
 4992 0122 21       		.uleb128 0x21
 4993 0123 00       		.byte	0
 4994 0124 49       		.uleb128 0x49
 4995 0125 13       		.uleb128 0x13
 4996 0126 2F       		.uleb128 0x2f
 4997 0127 0B       		.uleb128 0xb
 4998 0128 00       		.byte	0
 4999 0129 00       		.byte	0
 5000 012a 19       		.uleb128 0x19
 5001 012b 0D       		.uleb128 0xd
 5002 012c 00       		.byte	0
 5003 012d 03       		.uleb128 0x3
 5004 012e 08       		.uleb128 0x8
 5005 012f 3A       		.uleb128 0x3a
 5006 0130 0B       		.uleb128 0xb
 5007 0131 3B       		.uleb128 0x3b
 5008 0132 05       		.uleb128 0x5
 5009 0133 49       		.uleb128 0x49
 5010 0134 13       		.uleb128 0x13
 5011 0135 38       		.uleb128 0x38
 5012 0136 0B       		.uleb128 0xb
 5013 0137 00       		.byte	0
 5014 0138 00       		.byte	0
 5015 0139 1A       		.uleb128 0x1a
 5016 013a 0D       		.uleb128 0xd
 5017 013b 00       		.byte	0
 5018 013c 03       		.uleb128 0x3
 5019 013d 0E       		.uleb128 0xe
 5020 013e 3A       		.uleb128 0x3a
 5021 013f 0B       		.uleb128 0xb
 5022 0140 3B       		.uleb128 0x3b
 5023 0141 05       		.uleb128 0x5
 5024 0142 49       		.uleb128 0x49
 5025 0143 13       		.uleb128 0x13
 5026 0144 38       		.uleb128 0x38
 5027 0145 0B       		.uleb128 0xb
 5028 0146 00       		.byte	0
 5029 0147 00       		.byte	0
 5030 0148 1B       		.uleb128 0x1b
 5031 0149 13       		.uleb128 0x13
 5032 014a 01       		.byte	0x1
 5033 014b 0B       		.uleb128 0xb
 5034 014c 0B       		.uleb128 0xb
 5035 014d 3A       		.uleb128 0x3a
 5036 014e 0B       		.uleb128 0xb
 5037 014f 3B       		.uleb128 0x3b
 5038 0150 05       		.uleb128 0x5
 5039 0151 01       		.uleb128 0x1
 5040 0152 13       		.uleb128 0x13
 5041 0153 00       		.byte	0
 5042 0154 00       		.byte	0
 5043 0155 1C       		.uleb128 0x1c
 5044 0156 13       		.uleb128 0x13
 5045 0157 01       		.byte	0x1
 5046 0158 0B       		.uleb128 0xb
ARM GAS  C:\Users\tmj32\AppData\Local\Temp\ccKhIVes.s 			page 104


 5047 0159 05       		.uleb128 0x5
 5048 015a 3A       		.uleb128 0x3a
 5049 015b 0B       		.uleb128 0xb
 5050 015c 3B       		.uleb128 0x3b
 5051 015d 0B       		.uleb128 0xb
 5052 015e 01       		.uleb128 0x1
 5053 015f 13       		.uleb128 0x13
 5054 0160 00       		.byte	0
 5055 0161 00       		.byte	0
 5056 0162 1D       		.uleb128 0x1d
 5057 0163 0D       		.uleb128 0xd
 5058 0164 00       		.byte	0
 5059 0165 03       		.uleb128 0x3
 5060 0166 0E       		.uleb128 0xe
 5061 0167 3A       		.uleb128 0x3a
 5062 0168 0B       		.uleb128 0xb
 5063 0169 3B       		.uleb128 0x3b
 5064 016a 0B       		.uleb128 0xb
 5065 016b 49       		.uleb128 0x49
 5066 016c 13       		.uleb128 0x13
 5067 016d 38       		.uleb128 0x38
 5068 016e 05       		.uleb128 0x5
 5069 016f 00       		.byte	0
 5070 0170 00       		.byte	0
 5071 0171 1E       		.uleb128 0x1e
 5072 0172 0D       		.uleb128 0xd
 5073 0173 00       		.byte	0
 5074 0174 03       		.uleb128 0x3
 5075 0175 08       		.uleb128 0x8
 5076 0176 3A       		.uleb128 0x3a
 5077 0177 0B       		.uleb128 0xb
 5078 0178 3B       		.uleb128 0x3b
 5079 0179 0B       		.uleb128 0xb
 5080 017a 49       		.uleb128 0x49
 5081 017b 13       		.uleb128 0x13
 5082 017c 38       		.uleb128 0x38
 5083 017d 05       		.uleb128 0x5
 5084 017e 00       		.byte	0
 5085 017f 00       		.byte	0
 5086 0180 1F       		.uleb128 0x1f
 5087 0181 0D       		.uleb128 0xd
 5088 0182 00       		.byte	0
 5089 0183 03       		.uleb128 0x3
 5090 0184 0E       		.uleb128 0xe
 5091 0185 3A       		.uleb128 0x3a
 5092 0186 0B       		.uleb128 0xb
 5093 0187 3B       		.uleb128 0x3b
 5094 0188 05       		.uleb128 0x5
 5095 0189 49       		.uleb128 0x49
 5096 018a 13       		.uleb128 0x13
 5097 018b 38       		.uleb128 0x38
 5098 018c 05       		.uleb128 0x5
 5099 018d 00       		.byte	0
 5100 018e 00       		.byte	0
 5101 018f 20       		.uleb128 0x20
 5102 0190 0D       		.uleb128 0xd
 5103 0191 00       		.byte	0
ARM GAS  C:\Users\tmj32\AppData\Local\Temp\ccKhIVes.s 			page 105


 5104 0192 03       		.uleb128 0x3
 5105 0193 08       		.uleb128 0x8
 5106 0194 3A       		.uleb128 0x3a
 5107 0195 0B       		.uleb128 0xb
 5108 0196 3B       		.uleb128 0x3b
 5109 0197 05       		.uleb128 0x5
 5110 0198 49       		.uleb128 0x49
 5111 0199 13       		.uleb128 0x13
 5112 019a 38       		.uleb128 0x38
 5113 019b 05       		.uleb128 0x5
 5114 019c 00       		.byte	0
 5115 019d 00       		.byte	0
 5116 019e 21       		.uleb128 0x21
 5117 019f 2E       		.uleb128 0x2e
 5118 01a0 01       		.byte	0x1
 5119 01a1 03       		.uleb128 0x3
 5120 01a2 0E       		.uleb128 0xe
 5121 01a3 3A       		.uleb128 0x3a
 5122 01a4 0B       		.uleb128 0xb
 5123 01a5 3B       		.uleb128 0x3b
 5124 01a6 0B       		.uleb128 0xb
 5125 01a7 27       		.uleb128 0x27
 5126 01a8 19       		.uleb128 0x19
 5127 01a9 11       		.uleb128 0x11
 5128 01aa 01       		.uleb128 0x1
 5129 01ab 12       		.uleb128 0x12
 5130 01ac 06       		.uleb128 0x6
 5131 01ad 40       		.uleb128 0x40
 5132 01ae 18       		.uleb128 0x18
 5133 01af 9642     		.uleb128 0x2116
 5134 01b1 19       		.uleb128 0x19
 5135 01b2 01       		.uleb128 0x1
 5136 01b3 13       		.uleb128 0x13
 5137 01b4 00       		.byte	0
 5138 01b5 00       		.byte	0
 5139 01b6 22       		.uleb128 0x22
 5140 01b7 05       		.uleb128 0x5
 5141 01b8 00       		.byte	0
 5142 01b9 03       		.uleb128 0x3
 5143 01ba 08       		.uleb128 0x8
 5144 01bb 3A       		.uleb128 0x3a
 5145 01bc 0B       		.uleb128 0xb
 5146 01bd 3B       		.uleb128 0x3b
 5147 01be 0B       		.uleb128 0xb
 5148 01bf 49       		.uleb128 0x49
 5149 01c0 13       		.uleb128 0x13
 5150 01c1 02       		.uleb128 0x2
 5151 01c2 18       		.uleb128 0x18
 5152 01c3 00       		.byte	0
 5153 01c4 00       		.byte	0
 5154 01c5 23       		.uleb128 0x23
 5155 01c6 05       		.uleb128 0x5
 5156 01c7 00       		.byte	0
 5157 01c8 03       		.uleb128 0x3
 5158 01c9 0E       		.uleb128 0xe
 5159 01ca 3A       		.uleb128 0x3a
 5160 01cb 0B       		.uleb128 0xb
ARM GAS  C:\Users\tmj32\AppData\Local\Temp\ccKhIVes.s 			page 106


 5161 01cc 3B       		.uleb128 0x3b
 5162 01cd 0B       		.uleb128 0xb
 5163 01ce 49       		.uleb128 0x49
 5164 01cf 13       		.uleb128 0x13
 5165 01d0 02       		.uleb128 0x2
 5166 01d1 18       		.uleb128 0x18
 5167 01d2 00       		.byte	0
 5168 01d3 00       		.byte	0
 5169 01d4 24       		.uleb128 0x24
 5170 01d5 2E       		.uleb128 0x2e
 5171 01d6 01       		.byte	0x1
 5172 01d7 3F       		.uleb128 0x3f
 5173 01d8 19       		.uleb128 0x19
 5174 01d9 03       		.uleb128 0x3
 5175 01da 0E       		.uleb128 0xe
 5176 01db 3A       		.uleb128 0x3a
 5177 01dc 0B       		.uleb128 0xb
 5178 01dd 3B       		.uleb128 0x3b
 5179 01de 0B       		.uleb128 0xb
 5180 01df 27       		.uleb128 0x27
 5181 01e0 19       		.uleb128 0x19
 5182 01e1 49       		.uleb128 0x49
 5183 01e2 13       		.uleb128 0x13
 5184 01e3 11       		.uleb128 0x11
 5185 01e4 01       		.uleb128 0x1
 5186 01e5 12       		.uleb128 0x12
 5187 01e6 06       		.uleb128 0x6
 5188 01e7 40       		.uleb128 0x40
 5189 01e8 18       		.uleb128 0x18
 5190 01e9 9642     		.uleb128 0x2116
 5191 01eb 19       		.uleb128 0x19
 5192 01ec 01       		.uleb128 0x1
 5193 01ed 13       		.uleb128 0x13
 5194 01ee 00       		.byte	0
 5195 01ef 00       		.byte	0
 5196 01f0 25       		.uleb128 0x25
 5197 01f1 34       		.uleb128 0x34
 5198 01f2 00       		.byte	0
 5199 01f3 03       		.uleb128 0x3
 5200 01f4 0E       		.uleb128 0xe
 5201 01f5 3A       		.uleb128 0x3a
 5202 01f6 0B       		.uleb128 0xb
 5203 01f7 3B       		.uleb128 0x3b
 5204 01f8 0B       		.uleb128 0xb
 5205 01f9 49       		.uleb128 0x49
 5206 01fa 13       		.uleb128 0x13
 5207 01fb 02       		.uleb128 0x2
 5208 01fc 18       		.uleb128 0x18
 5209 01fd 00       		.byte	0
 5210 01fe 00       		.byte	0
 5211 01ff 26       		.uleb128 0x26
 5212 0200 34       		.uleb128 0x34
 5213 0201 00       		.byte	0
 5214 0202 03       		.uleb128 0x3
 5215 0203 08       		.uleb128 0x8
 5216 0204 3A       		.uleb128 0x3a
 5217 0205 0B       		.uleb128 0xb
ARM GAS  C:\Users\tmj32\AppData\Local\Temp\ccKhIVes.s 			page 107


 5218 0206 3B       		.uleb128 0x3b
 5219 0207 0B       		.uleb128 0xb
 5220 0208 49       		.uleb128 0x49
 5221 0209 13       		.uleb128 0x13
 5222 020a 02       		.uleb128 0x2
 5223 020b 18       		.uleb128 0x18
 5224 020c 00       		.byte	0
 5225 020d 00       		.byte	0
 5226 020e 27       		.uleb128 0x27
 5227 020f 0B       		.uleb128 0xb
 5228 0210 01       		.byte	0x1
 5229 0211 11       		.uleb128 0x11
 5230 0212 01       		.uleb128 0x1
 5231 0213 12       		.uleb128 0x12
 5232 0214 06       		.uleb128 0x6
 5233 0215 01       		.uleb128 0x1
 5234 0216 13       		.uleb128 0x13
 5235 0217 00       		.byte	0
 5236 0218 00       		.byte	0
 5237 0219 28       		.uleb128 0x28
 5238 021a 0B       		.uleb128 0xb
 5239 021b 01       		.byte	0x1
 5240 021c 11       		.uleb128 0x11
 5241 021d 01       		.uleb128 0x1
 5242 021e 12       		.uleb128 0x12
 5243 021f 06       		.uleb128 0x6
 5244 0220 00       		.byte	0
 5245 0221 00       		.byte	0
 5246 0222 29       		.uleb128 0x29
 5247 0223 2E       		.uleb128 0x2e
 5248 0224 01       		.byte	0x1
 5249 0225 3F       		.uleb128 0x3f
 5250 0226 19       		.uleb128 0x19
 5251 0227 03       		.uleb128 0x3
 5252 0228 0E       		.uleb128 0xe
 5253 0229 3A       		.uleb128 0x3a
 5254 022a 0B       		.uleb128 0xb
 5255 022b 3B       		.uleb128 0x3b
 5256 022c 0B       		.uleb128 0xb
 5257 022d 27       		.uleb128 0x27
 5258 022e 19       		.uleb128 0x19
 5259 022f 11       		.uleb128 0x11
 5260 0230 01       		.uleb128 0x1
 5261 0231 12       		.uleb128 0x12
 5262 0232 06       		.uleb128 0x6
 5263 0233 40       		.uleb128 0x40
 5264 0234 18       		.uleb128 0x18
 5265 0235 9642     		.uleb128 0x2116
 5266 0237 19       		.uleb128 0x19
 5267 0238 01       		.uleb128 0x1
 5268 0239 13       		.uleb128 0x13
 5269 023a 00       		.byte	0
 5270 023b 00       		.byte	0
 5271 023c 2A       		.uleb128 0x2a
 5272 023d 2E       		.uleb128 0x2e
 5273 023e 01       		.byte	0x1
 5274 023f 3F       		.uleb128 0x3f
ARM GAS  C:\Users\tmj32\AppData\Local\Temp\ccKhIVes.s 			page 108


 5275 0240 19       		.uleb128 0x19
 5276 0241 03       		.uleb128 0x3
 5277 0242 0E       		.uleb128 0xe
 5278 0243 3A       		.uleb128 0x3a
 5279 0244 0B       		.uleb128 0xb
 5280 0245 3B       		.uleb128 0x3b
 5281 0246 0B       		.uleb128 0xb
 5282 0247 27       		.uleb128 0x27
 5283 0248 19       		.uleb128 0x19
 5284 0249 11       		.uleb128 0x11
 5285 024a 01       		.uleb128 0x1
 5286 024b 12       		.uleb128 0x12
 5287 024c 06       		.uleb128 0x6
 5288 024d 40       		.uleb128 0x40
 5289 024e 18       		.uleb128 0x18
 5290 024f 9742     		.uleb128 0x2117
 5291 0251 19       		.uleb128 0x19
 5292 0252 01       		.uleb128 0x1
 5293 0253 13       		.uleb128 0x13
 5294 0254 00       		.byte	0
 5295 0255 00       		.byte	0
 5296 0256 2B       		.uleb128 0x2b
 5297 0257 2E       		.uleb128 0x2e
 5298 0258 01       		.byte	0x1
 5299 0259 3F       		.uleb128 0x3f
 5300 025a 19       		.uleb128 0x19
 5301 025b 03       		.uleb128 0x3
 5302 025c 0E       		.uleb128 0xe
 5303 025d 3A       		.uleb128 0x3a
 5304 025e 0B       		.uleb128 0xb
 5305 025f 3B       		.uleb128 0x3b
 5306 0260 05       		.uleb128 0x5
 5307 0261 27       		.uleb128 0x27
 5308 0262 19       		.uleb128 0x19
 5309 0263 11       		.uleb128 0x11
 5310 0264 01       		.uleb128 0x1
 5311 0265 12       		.uleb128 0x12
 5312 0266 06       		.uleb128 0x6
 5313 0267 40       		.uleb128 0x40
 5314 0268 18       		.uleb128 0x18
 5315 0269 9642     		.uleb128 0x2116
 5316 026b 19       		.uleb128 0x19
 5317 026c 01       		.uleb128 0x1
 5318 026d 13       		.uleb128 0x13
 5319 026e 00       		.byte	0
 5320 026f 00       		.byte	0
 5321 0270 2C       		.uleb128 0x2c
 5322 0271 05       		.uleb128 0x5
 5323 0272 00       		.byte	0
 5324 0273 03       		.uleb128 0x3
 5325 0274 08       		.uleb128 0x8
 5326 0275 3A       		.uleb128 0x3a
 5327 0276 0B       		.uleb128 0xb
 5328 0277 3B       		.uleb128 0x3b
 5329 0278 05       		.uleb128 0x5
 5330 0279 49       		.uleb128 0x49
 5331 027a 13       		.uleb128 0x13
ARM GAS  C:\Users\tmj32\AppData\Local\Temp\ccKhIVes.s 			page 109


 5332 027b 02       		.uleb128 0x2
 5333 027c 18       		.uleb128 0x18
 5334 027d 00       		.byte	0
 5335 027e 00       		.byte	0
 5336 027f 2D       		.uleb128 0x2d
 5337 0280 05       		.uleb128 0x5
 5338 0281 00       		.byte	0
 5339 0282 03       		.uleb128 0x3
 5340 0283 0E       		.uleb128 0xe
 5341 0284 3A       		.uleb128 0x3a
 5342 0285 0B       		.uleb128 0xb
 5343 0286 3B       		.uleb128 0x3b
 5344 0287 05       		.uleb128 0x5
 5345 0288 49       		.uleb128 0x49
 5346 0289 13       		.uleb128 0x13
 5347 028a 02       		.uleb128 0x2
 5348 028b 18       		.uleb128 0x18
 5349 028c 00       		.byte	0
 5350 028d 00       		.byte	0
 5351 028e 2E       		.uleb128 0x2e
 5352 028f 34       		.uleb128 0x34
 5353 0290 00       		.byte	0
 5354 0291 03       		.uleb128 0x3
 5355 0292 08       		.uleb128 0x8
 5356 0293 3A       		.uleb128 0x3a
 5357 0294 0B       		.uleb128 0xb
 5358 0295 3B       		.uleb128 0x3b
 5359 0296 05       		.uleb128 0x5
 5360 0297 49       		.uleb128 0x49
 5361 0298 13       		.uleb128 0x13
 5362 0299 02       		.uleb128 0x2
 5363 029a 18       		.uleb128 0x18
 5364 029b 00       		.byte	0
 5365 029c 00       		.byte	0
 5366 029d 2F       		.uleb128 0x2f
 5367 029e 2E       		.uleb128 0x2e
 5368 029f 01       		.byte	0x1
 5369 02a0 3F       		.uleb128 0x3f
 5370 02a1 19       		.uleb128 0x19
 5371 02a2 03       		.uleb128 0x3
 5372 02a3 0E       		.uleb128 0xe
 5373 02a4 3A       		.uleb128 0x3a
 5374 02a5 0B       		.uleb128 0xb
 5375 02a6 3B       		.uleb128 0x3b
 5376 02a7 05       		.uleb128 0x5
 5377 02a8 27       		.uleb128 0x27
 5378 02a9 19       		.uleb128 0x19
 5379 02aa 49       		.uleb128 0x49
 5380 02ab 13       		.uleb128 0x13
 5381 02ac 11       		.uleb128 0x11
 5382 02ad 01       		.uleb128 0x1
 5383 02ae 12       		.uleb128 0x12
 5384 02af 06       		.uleb128 0x6
 5385 02b0 40       		.uleb128 0x40
 5386 02b1 18       		.uleb128 0x18
 5387 02b2 9642     		.uleb128 0x2116
 5388 02b4 19       		.uleb128 0x19
ARM GAS  C:\Users\tmj32\AppData\Local\Temp\ccKhIVes.s 			page 110


 5389 02b5 01       		.uleb128 0x1
 5390 02b6 13       		.uleb128 0x13
 5391 02b7 00       		.byte	0
 5392 02b8 00       		.byte	0
 5393 02b9 30       		.uleb128 0x30
 5394 02ba 2E       		.uleb128 0x2e
 5395 02bb 01       		.byte	0x1
 5396 02bc 3F       		.uleb128 0x3f
 5397 02bd 19       		.uleb128 0x19
 5398 02be 03       		.uleb128 0x3
 5399 02bf 0E       		.uleb128 0xe
 5400 02c0 3A       		.uleb128 0x3a
 5401 02c1 0B       		.uleb128 0xb
 5402 02c2 3B       		.uleb128 0x3b
 5403 02c3 05       		.uleb128 0x5
 5404 02c4 27       		.uleb128 0x27
 5405 02c5 19       		.uleb128 0x19
 5406 02c6 49       		.uleb128 0x49
 5407 02c7 13       		.uleb128 0x13
 5408 02c8 11       		.uleb128 0x11
 5409 02c9 01       		.uleb128 0x1
 5410 02ca 12       		.uleb128 0x12
 5411 02cb 06       		.uleb128 0x6
 5412 02cc 40       		.uleb128 0x40
 5413 02cd 18       		.uleb128 0x18
 5414 02ce 9742     		.uleb128 0x2117
 5415 02d0 19       		.uleb128 0x19
 5416 02d1 01       		.uleb128 0x1
 5417 02d2 13       		.uleb128 0x13
 5418 02d3 00       		.byte	0
 5419 02d4 00       		.byte	0
 5420 02d5 31       		.uleb128 0x31
 5421 02d6 34       		.uleb128 0x34
 5422 02d7 00       		.byte	0
 5423 02d8 03       		.uleb128 0x3
 5424 02d9 0E       		.uleb128 0xe
 5425 02da 3A       		.uleb128 0x3a
 5426 02db 0B       		.uleb128 0xb
 5427 02dc 3B       		.uleb128 0x3b
 5428 02dd 05       		.uleb128 0x5
 5429 02de 49       		.uleb128 0x49
 5430 02df 13       		.uleb128 0x13
 5431 02e0 02       		.uleb128 0x2
 5432 02e1 18       		.uleb128 0x18
 5433 02e2 00       		.byte	0
 5434 02e3 00       		.byte	0
 5435 02e4 32       		.uleb128 0x32
 5436 02e5 2E       		.uleb128 0x2e
 5437 02e6 01       		.byte	0x1
 5438 02e7 03       		.uleb128 0x3
 5439 02e8 0E       		.uleb128 0xe
 5440 02e9 3A       		.uleb128 0x3a
 5441 02ea 0B       		.uleb128 0xb
 5442 02eb 3B       		.uleb128 0x3b
 5443 02ec 05       		.uleb128 0x5
 5444 02ed 27       		.uleb128 0x27
 5445 02ee 19       		.uleb128 0x19
ARM GAS  C:\Users\tmj32\AppData\Local\Temp\ccKhIVes.s 			page 111


 5446 02ef 49       		.uleb128 0x49
 5447 02f0 13       		.uleb128 0x13
 5448 02f1 11       		.uleb128 0x11
 5449 02f2 01       		.uleb128 0x1
 5450 02f3 12       		.uleb128 0x12
 5451 02f4 06       		.uleb128 0x6
 5452 02f5 40       		.uleb128 0x40
 5453 02f6 18       		.uleb128 0x18
 5454 02f7 9642     		.uleb128 0x2116
 5455 02f9 19       		.uleb128 0x19
 5456 02fa 01       		.uleb128 0x1
 5457 02fb 13       		.uleb128 0x13
 5458 02fc 00       		.byte	0
 5459 02fd 00       		.byte	0
 5460 02fe 33       		.uleb128 0x33
 5461 02ff 34       		.uleb128 0x34
 5462 0300 00       		.byte	0
 5463 0301 03       		.uleb128 0x3
 5464 0302 0E       		.uleb128 0xe
 5465 0303 3A       		.uleb128 0x3a
 5466 0304 0B       		.uleb128 0xb
 5467 0305 3B       		.uleb128 0x3b
 5468 0306 05       		.uleb128 0x5
 5469 0307 49       		.uleb128 0x49
 5470 0308 13       		.uleb128 0x13
 5471 0309 3F       		.uleb128 0x3f
 5472 030a 19       		.uleb128 0x19
 5473 030b 3C       		.uleb128 0x3c
 5474 030c 19       		.uleb128 0x19
 5475 030d 00       		.byte	0
 5476 030e 00       		.byte	0
 5477 030f 00       		.byte	0
 5478              		.section	.debug_aranges,"",%progbits
 5479 0000 9C000000 		.4byte	0x9c
 5480 0004 0200     		.2byte	0x2
 5481 0006 00000000 		.4byte	.Ldebug_info0
 5482 000a 04       		.byte	0x4
 5483 000b 00       		.byte	0
 5484 000c 0000     		.2byte	0
 5485 000e 0000     		.2byte	0
 5486 0010 00000000 		.4byte	.LFB35
 5487 0014 1E000000 		.4byte	.LFE35-.LFB35
 5488 0018 00000000 		.4byte	.LFB44
 5489 001c 90010000 		.4byte	.LFE44-.LFB44
 5490 0020 00000000 		.4byte	.LFB45
 5491 0024 2E000000 		.4byte	.LFE45-.LFB45
 5492 0028 00000000 		.4byte	.LFB46
 5493 002c 52000000 		.4byte	.LFE46-.LFB46
 5494 0030 00000000 		.4byte	.LFB47
 5495 0034 66000000 		.4byte	.LFE47-.LFB47
 5496 0038 00000000 		.4byte	.LFB48
 5497 003c 18000000 		.4byte	.LFE48-.LFB48
 5498 0040 00000000 		.4byte	.LFB49
 5499 0044 18000000 		.4byte	.LFE49-.LFB49
 5500 0048 00000000 		.4byte	.LFB50
 5501 004c 18000000 		.4byte	.LFE50-.LFB50
 5502 0050 00000000 		.4byte	.LFB51
ARM GAS  C:\Users\tmj32\AppData\Local\Temp\ccKhIVes.s 			page 112


 5503 0054 82000000 		.4byte	.LFE51-.LFB51
 5504 0058 00000000 		.4byte	.LFB52
 5505 005c 22000000 		.4byte	.LFE52-.LFB52
 5506 0060 00000000 		.4byte	.LFB53
 5507 0064 2C000000 		.4byte	.LFE53-.LFB53
 5508 0068 00000000 		.4byte	.LFB54
 5509 006c 16000000 		.4byte	.LFE54-.LFB54
 5510 0070 00000000 		.4byte	.LFB55
 5511 0074 16000000 		.4byte	.LFE55-.LFB55
 5512 0078 00000000 		.4byte	.LFB56
 5513 007c 16000000 		.4byte	.LFE56-.LFB56
 5514 0080 00000000 		.4byte	.LFB57
 5515 0084 C0000000 		.4byte	.LFE57-.LFB57
 5516 0088 00000000 		.4byte	.LFB58
 5517 008c 4C000000 		.4byte	.LFE58-.LFB58
 5518 0090 00000000 		.4byte	.LFB59
 5519 0094 BC020000 		.4byte	.LFE59-.LFB59
 5520 0098 00000000 		.4byte	0
 5521 009c 00000000 		.4byte	0
 5522              		.section	.debug_ranges,"",%progbits
 5523              	.Ldebug_ranges0:
 5524 0000 00000000 		.4byte	.LFB35
 5525 0004 1E000000 		.4byte	.LFE35
 5526 0008 00000000 		.4byte	.LFB44
 5527 000c 90010000 		.4byte	.LFE44
 5528 0010 00000000 		.4byte	.LFB45
 5529 0014 2E000000 		.4byte	.LFE45
 5530 0018 00000000 		.4byte	.LFB46
 5531 001c 52000000 		.4byte	.LFE46
 5532 0020 00000000 		.4byte	.LFB47
 5533 0024 66000000 		.4byte	.LFE47
 5534 0028 00000000 		.4byte	.LFB48
 5535 002c 18000000 		.4byte	.LFE48
 5536 0030 00000000 		.4byte	.LFB49
 5537 0034 18000000 		.4byte	.LFE49
 5538 0038 00000000 		.4byte	.LFB50
 5539 003c 18000000 		.4byte	.LFE50
 5540 0040 00000000 		.4byte	.LFB51
 5541 0044 82000000 		.4byte	.LFE51
 5542 0048 00000000 		.4byte	.LFB52
 5543 004c 22000000 		.4byte	.LFE52
 5544 0050 00000000 		.4byte	.LFB53
 5545 0054 2C000000 		.4byte	.LFE53
 5546 0058 00000000 		.4byte	.LFB54
 5547 005c 16000000 		.4byte	.LFE54
 5548 0060 00000000 		.4byte	.LFB55
 5549 0064 16000000 		.4byte	.LFE55
 5550 0068 00000000 		.4byte	.LFB56
 5551 006c 16000000 		.4byte	.LFE56
 5552 0070 00000000 		.4byte	.LFB57
 5553 0074 C0000000 		.4byte	.LFE57
 5554 0078 00000000 		.4byte	.LFB58
 5555 007c 4C000000 		.4byte	.LFE58
 5556 0080 00000000 		.4byte	.LFB59
 5557 0084 BC020000 		.4byte	.LFE59
 5558 0088 00000000 		.4byte	0
 5559 008c 00000000 		.4byte	0
ARM GAS  C:\Users\tmj32\AppData\Local\Temp\ccKhIVes.s 			page 113


 5560              		.section	.debug_line,"",%progbits
 5561              	.Ldebug_line0:
 5562 0000 D8050000 		.section	.debug_str,"MS",%progbits,1
 5562      02006403 
 5562      00000201 
 5562      FB0E0D00 
 5562      01010101 
 5563              	.LASF14:
 5564 0000 696E7438 		.ascii	"int8_t\000"
 5564      5F7400
 5565              	.LASF75:
 5566 0007 6C765F6C 		.ascii	"lv_ll_node_t\000"
 5566      6C5F6E6F 
 5566      64655F74 
 5566      00
 5567              	.LASF196:
 5568 0014 4C565F42 		.ascii	"LV_BTN_STATE_TGL_PR\000"
 5568      544E5F53 
 5568      54415445 
 5568      5F54474C 
 5568      5F505200 
 5569              	.LASF21:
 5570 0028 6164765F 		.ascii	"adv_w\000"
 5570      7700
 5571              	.LASF223:
 5572 002e 68656164 		.ascii	"header_pr\000"
 5572      65725F70 
 5572      7200
 5573              	.LASF40:
 5574 0038 73697A65 		.ascii	"sizetype\000"
 5574      74797065 
 5574      00
 5575              	.LASF183:
 5576 0041 4C565F4B 		.ascii	"LV_KEY_RIGHT\000"
 5576      45595F52 
 5576      49474854 
 5576      00
 5577              	.LASF37:
 5578 004e 6C765F63 		.ascii	"lv_color32_t\000"
 5578      6F6C6F72 
 5578      33325F74 
 5578      00
 5579              	.LASF233:
 5580 005b 63656C6C 		.ascii	"cell\000"
 5580      00
 5581              	.LASF78:
 5582 0060 7461696C 		.ascii	"tail\000"
 5582      00
 5583              	.LASF135:
 5584 0065 4C565F53 		.ascii	"LV_SIGNAL_STYLE_CHG\000"
 5584      49474E41 
 5584      4C5F5354 
 5584      594C455F 
 5584      43484700 
 5585              	.LASF39:
 5586 0079 6C765F6F 		.ascii	"lv_opa_t\000"
 5586      70615F74 
ARM GAS  C:\Users\tmj32\AppData\Local\Temp\ccKhIVes.s 			page 114


 5586      00
 5587              	.LASF199:
 5588 0082 6C765F62 		.ascii	"lv_btn_state_t\000"
 5588      746E5F73 
 5588      74617465 
 5588      5F7400
 5589              	.LASF63:
 5590 0091 696E7465 		.ascii	"intense\000"
 5590      6E736500 
 5591              	.LASF124:
 5592 0099 4C565F45 		.ascii	"LV_EVENT_INSERT\000"
 5592      56454E54 
 5592      5F494E53 
 5592      45525400 
 5593              	.LASF239:
 5594 00a9 6C6D6574 		.ascii	"lmeter\000"
 5594      657200
 5595              	.LASF143:
 5596 00b0 4C565F53 		.ascii	"LV_SIGNAL_LONG_PRESS\000"
 5596      49474E41 
 5596      4C5F4C4F 
 5596      4E475F50 
 5596      52455353 
 5597              	.LASF55:
 5598 00c5 72616469 		.ascii	"radius\000"
 5598      757300
 5599              	.LASF160:
 5600 00cc 6C765F72 		.ascii	"lv_reailgn_t\000"
 5600      6561696C 
 5600      676E5F74 
 5600      00
 5601              	.LASF29:
 5602 00d9 6C696E65 		.ascii	"line_height\000"
 5602      5F686569 
 5602      67687400 
 5603              	.LASF90:
 5604 00e5 636C6963 		.ascii	"click\000"
 5604      6B00
 5605              	.LASF153:
 5606 00eb 6C765F61 		.ascii	"lv_align_t\000"
 5606      6C69676E 
 5606      5F7400
 5607              	.LASF145:
 5608 00f6 4C565F53 		.ascii	"LV_SIGNAL_DRAG_BEGIN\000"
 5608      49474E41 
 5608      4C5F4452 
 5608      41475F42 
 5608      4547494E 
 5609              	.LASF225:
 5610 010b 68696768 		.ascii	"highlighted_days\000"
 5610      6C696768 
 5610      7465645F 
 5610      64617973 
 5610      00
 5611              	.LASF289:
 5612 011c 2E2E5C2E 		.ascii	"..\\..\\..\\lvgl\\version_6.1.2\\lvgl\\src\\lv_objx"
 5612      2E5C2E2E 
ARM GAS  C:\Users\tmj32\AppData\Local\Temp\ccKhIVes.s 			page 115


 5612      5C6C7667 
 5612      6C5C7665 
 5612      7273696F 
 5613 0148 5C6C765F 		.ascii	"\\lv_btn.c\000"
 5613      62746E2E 
 5613      6300
 5614              	.LASF278:
 5615 0152 7369676E 		.ascii	"sign\000"
 5615      00
 5616              	.LASF129:
 5617 0157 6C765F65 		.ascii	"lv_event_t\000"
 5617      76656E74 
 5617      5F7400
 5618              	.LASF202:
 5619 0162 73746174 		.ascii	"state\000"
 5619      6500
 5620              	.LASF188:
 5621 0168 4C565F4B 		.ascii	"LV_KEY_ENTER\000"
 5621      45595F45 
 5621      4E544552 
 5621      00
 5622              	.LASF72:
 5623 0175 4C565F52 		.ascii	"LV_RES_INV\000"
 5623      45535F49 
 5623      4E5600
 5624              	.LASF139:
 5625 0180 4C565F53 		.ascii	"LV_SIGNAL_PRESSED\000"
 5625      49474E41 
 5625      4C5F5052 
 5625      45535345 
 5625      4400
 5626              	.LASF48:
 5627 0192 74797065 		.ascii	"type\000"
 5627      00
 5628              	.LASF113:
 5629 0197 4C565F45 		.ascii	"LV_EVENT_LONG_PRESSED\000"
 5629      56454E54 
 5629      5F4C4F4E 
 5629      475F5052 
 5629      45535345 
 5630              	.LASF215:
 5631 01ad 6C696768 		.ascii	"light\000"
 5631      7400
 5632              	.LASF204:
 5633 01b3 6C765F62 		.ascii	"lv_btn_ext_t\000"
 5633      746E5F65 
 5633      78745F74 
 5633      00
 5634              	.LASF200:
 5635 01c0 636F6E74 		.ascii	"cont\000"
 5635      00
 5636              	.LASF213:
 5637 01c5 7072696D 		.ascii	"prim\000"
 5637      00
 5638              	.LASF193:
 5639 01ca 4C565F42 		.ascii	"LV_BTN_STATE_REL\000"
 5639      544E5F53 
ARM GAS  C:\Users\tmj32\AppData\Local\Temp\ccKhIVes.s 			page 116


 5639      54415445 
 5639      5F52454C 
 5639      00
 5640              	.LASF242:
 5641 01db 63686172 		.ascii	"chart\000"
 5641      7400
 5642              	.LASF1:
 5643 01e1 5F5F7569 		.ascii	"__uint8_t\000"
 5643      6E74385F 
 5643      7400
 5644              	.LASF35:
 5645 01eb 616C7068 		.ascii	"alpha\000"
 5645      6100
 5646              	.LASF94:
 5647 01f1 68696464 		.ascii	"hidden\000"
 5647      656E00
 5648              	.LASF8:
 5649 01f8 6C6F6E67 		.ascii	"long int\000"
 5649      20696E74 
 5649      00
 5650              	.LASF252:
 5651 0201 74696C65 		.ascii	"tileview\000"
 5651      76696577 
 5651      00
 5652              	.LASF186:
 5653 020a 4C565F4B 		.ascii	"LV_KEY_DEL\000"
 5653      45595F44 
 5653      454C00
 5654              	.LASF256:
 5655 0215 636F7079 		.ascii	"copy\000"
 5655      00
 5656              	.LASF170:
 5657 021a 4C565F4C 		.ascii	"LV_LAYOUT_ROW_B\000"
 5657      41594F55 
 5657      545F524F 
 5657      575F4200 
 5658              	.LASF171:
 5659 022a 4C565F4C 		.ascii	"LV_LAYOUT_PRETTY\000"
 5659      41594F55 
 5659      545F5052 
 5659      45545459 
 5659      00
 5660              	.LASF77:
 5661 023b 68656164 		.ascii	"head\000"
 5661      00
 5662              	.LASF169:
 5663 0240 4C565F4C 		.ascii	"LV_LAYOUT_ROW_M\000"
 5663      41594F55 
 5663      545F524F 
 5663      575F4D00 
 5664              	.LASF168:
 5665 0250 4C565F4C 		.ascii	"LV_LAYOUT_ROW_T\000"
 5665      41594F55 
 5665      545F524F 
 5665      575F5400 
 5666              	.LASF205:
 5667 0260 4C565F42 		.ascii	"LV_BTN_STYLE_REL\000"
ARM GAS  C:\Users\tmj32\AppData\Local\Temp\ccKhIVes.s 			page 117


 5667      544E5F53 
 5667      54594C45 
 5667      5F52454C 
 5667      00
 5668              	.LASF244:
 5669 0271 62746E6D 		.ascii	"btnm\000"
 5669      00
 5670              	.LASF184:
 5671 0276 4C565F4B 		.ascii	"LV_KEY_LEFT\000"
 5671      45595F4C 
 5671      45465400 
 5672              	.LASF2:
 5673 0282 7369676E 		.ascii	"signed char\000"
 5673      65642063 
 5673      68617200 
 5674              	.LASF15:
 5675 028e 75696E74 		.ascii	"uint8_t\000"
 5675      385F7400 
 5676              	.LASF228:
 5677 0296 746F6461 		.ascii	"today_box\000"
 5677      795F626F 
 5677      7800
 5678              	.LASF212:
 5679 02a0 74676C5F 		.ascii	"tgl_pr\000"
 5679      707200
 5680              	.LASF178:
 5681 02a7 6669745F 		.ascii	"fit_top\000"
 5681      746F7000 
 5682              	.LASF28:
 5683 02af 6765745F 		.ascii	"get_glyph_bitmap\000"
 5683      676C7970 
 5683      685F6269 
 5683      746D6170 
 5683      00
 5684              	.LASF257:
 5685 02c0 6E65775F 		.ascii	"new_btn\000"
 5685      62746E00 
 5686              	.LASF229:
 5687 02c8 7363726C 		.ascii	"scrl\000"
 5687      00
 5688              	.LASF33:
 5689 02cd 626C7565 		.ascii	"blue\000"
 5689      00
 5690              	.LASF144:
 5691 02d2 4C565F53 		.ascii	"LV_SIGNAL_LONG_PRESS_REP\000"
 5691      49474E41 
 5691      4C5F4C4F 
 5691      4E475F50 
 5691      52455353 
 5692              	.LASF3:
 5693 02eb 756E7369 		.ascii	"unsigned char\000"
 5693      676E6564 
 5693      20636861 
 5693      7200
 5694              	.LASF273:
 5695 02f9 6C765F62 		.ascii	"lv_btn_get_style\000"
 5695      746E5F67 
ARM GAS  C:\Users\tmj32\AppData\Local\Temp\ccKhIVes.s 			page 118


 5695      65745F73 
 5695      74796C65 
 5695      00
 5696              	.LASF137:
 5697 030a 4C565F53 		.ascii	"LV_SIGNAL_REFR_EXT_DRAW_PAD\000"
 5697      49474E41 
 5697      4C5F5245 
 5697      46525F45 
 5697      58545F44 
 5698              	.LASF97:
 5699 0326 64726167 		.ascii	"drag_dir\000"
 5699      5F646972 
 5699      00
 5700              	.LASF221:
 5701 032f 6B6E6F62 		.ascii	"knob_on\000"
 5701      5F6F6E00 
 5702              	.LASF24:
 5703 0337 6F66735F 		.ascii	"ofs_x\000"
 5703      7800
 5704              	.LASF25:
 5705 033d 6F66735F 		.ascii	"ofs_y\000"
 5705      7900
 5706              	.LASF187:
 5707 0343 4C565F4B 		.ascii	"LV_KEY_BACKSPACE\000"
 5707      45595F42 
 5707      41434B53 
 5707      50414345 
 5707      00
 5708              	.LASF222:
 5709 0354 68656164 		.ascii	"header\000"
 5709      657200
 5710              	.LASF31:
 5711 035b 5F426F6F 		.ascii	"_Bool\000"
 5711      6C00
 5712              	.LASF152:
 5713 0361 6C765F73 		.ascii	"lv_signal_cb_t\000"
 5713      69676E61 
 5713      6C5F6362 
 5713      5F7400
 5714              	.LASF253:
 5715 0370 7461626C 		.ascii	"table\000"
 5715      6500
 5716              	.LASF41:
 5717 0376 63686172 		.ascii	"char\000"
 5717      00
 5718              	.LASF173:
 5719 037b 5F4C565F 		.ascii	"_LV_LAYOUT_NUM\000"
 5719      4C41594F 
 5719      55545F4E 
 5719      554D00
 5720              	.LASF105:
 5721 038a 4C565F44 		.ascii	"LV_DESIGN_DRAW_POST\000"
 5721      45534947 
 5721      4E5F4452 
 5721      41575F50 
 5721      4F535400 
 5722              	.LASF67:
ARM GAS  C:\Users\tmj32\AppData\Local\Temp\ccKhIVes.s 			page 119


 5723 039e 626F6479 		.ascii	"body\000"
 5723      00
 5724              	.LASF156:
 5725 03a3 796F6673 		.ascii	"yofs\000"
 5725      00
 5726              	.LASF6:
 5727 03a8 5F5F7569 		.ascii	"__uint16_t\000"
 5727      6E743136 
 5727      5F7400
 5728              	.LASF227:
 5729 03b3 7765656B 		.ascii	"week_box\000"
 5729      5F626F78 
 5729      00
 5730              	.LASF165:
 5731 03bc 4C565F4C 		.ascii	"LV_LAYOUT_COL_L\000"
 5731      41594F55 
 5731      545F434F 
 5731      4C5F4C00 
 5732              	.LASF166:
 5733 03cc 4C565F4C 		.ascii	"LV_LAYOUT_COL_M\000"
 5733      41594F55 
 5733      545F434F 
 5733      4C5F4D00 
 5734              	.LASF167:
 5735 03dc 4C565F4C 		.ascii	"LV_LAYOUT_COL_R\000"
 5735      41594F55 
 5735      545F434F 
 5735      4C5F5200 
 5736              	.LASF206:
 5737 03ec 4C565F42 		.ascii	"LV_BTN_STYLE_PR\000"
 5737      544E5F53 
 5737      54594C45 
 5737      5F505200 
 5738              	.LASF106:
 5739 03fc 4C565F44 		.ascii	"LV_DESIGN_COVER_CHK\000"
 5739      45534947 
 5739      4E5F434F 
 5739      5645525F 
 5739      43484B00 
 5740              	.LASF87:
 5741 0410 64657369 		.ascii	"design_cb\000"
 5741      676E5F63 
 5741      6200
 5742              	.LASF260:
 5743 041a 6C765F62 		.ascii	"lv_btn_set_state\000"
 5743      746E5F73 
 5743      65745F73 
 5743      74617465 
 5743      00
 5744              	.LASF148:
 5745 042b 4C565F53 		.ascii	"LV_SIGNAL_DEFOCUS\000"
 5745      49474E41 
 5745      4C5F4445 
 5745      464F4355 
 5745      5300
 5746              	.LASF121:
 5747 043d 4C565F45 		.ascii	"LV_EVENT_FOCUSED\000"
ARM GAS  C:\Users\tmj32\AppData\Local\Temp\ccKhIVes.s 			page 120


 5747      56454E54 
 5747      5F464F43 
 5747      55534544 
 5747      00
 5748              	.LASF249:
 5749 044e 64646C69 		.ascii	"ddlist\000"
 5749      737400
 5750              	.LASF259:
 5751 0455 6C765F62 		.ascii	"lv_btn_set_toggle\000"
 5751      746E5F73 
 5751      65745F74 
 5751      6F67676C 
 5751      6500
 5752              	.LASF285:
 5753 0467 6C765F73 		.ascii	"lv_style_btn_tgl_rel\000"
 5753      74796C65 
 5753      5F62746E 
 5753      5F74676C 
 5753      5F72656C 
 5754              	.LASF68:
 5755 047c 74657874 		.ascii	"text\000"
 5755      00
 5756              	.LASF261:
 5757 0481 6C765F62 		.ascii	"lv_btn_toggle\000"
 5757      746E5F74 
 5757      6F67676C 
 5757      6500
 5758              	.LASF117:
 5759 048f 4C565F45 		.ascii	"LV_EVENT_DRAG_BEGIN\000"
 5759      56454E54 
 5759      5F445241 
 5759      475F4245 
 5759      47494E00 
 5760              	.LASF69:
 5761 04a3 696D6167 		.ascii	"image\000"
 5761      6500
 5762              	.LASF65:
 5763 04a9 726F756E 		.ascii	"rounded\000"
 5763      64656400 
 5764              	.LASF92:
 5765 04b1 64726167 		.ascii	"drag_throw\000"
 5765      5F746872 
 5765      6F7700
 5766              	.LASF226:
 5767 04bc 696E6163 		.ascii	"inactive_days\000"
 5767      74697665 
 5767      5F646179 
 5767      7300
 5768              	.LASF80:
 5769 04ca 6C765F62 		.ascii	"lv_bidi_dir_t\000"
 5769      6964695F 
 5769      6469725F 
 5769      7400
 5770              	.LASF102:
 5771 04d8 6578745F 		.ascii	"ext_draw_pad\000"
 5771      64726177 
 5771      5F706164 
ARM GAS  C:\Users\tmj32\AppData\Local\Temp\ccKhIVes.s 			page 121


 5771      00
 5772              	.LASF42:
 5773 04e5 6C765F61 		.ascii	"lv_area_t\000"
 5773      7265615F 
 5773      7400
 5774              	.LASF271:
 5775 04ef 6C765F62 		.ascii	"lv_btn_get_ink_wait_time\000"
 5775      746E5F67 
 5775      65745F69 
 5775      6E6B5F77 
 5775      6169745F 
 5776              	.LASF115:
 5777 0508 4C565F45 		.ascii	"LV_EVENT_CLICKED\000"
 5777      56454E54 
 5777      5F434C49 
 5777      434B4544 
 5777      00
 5778              	.LASF50:
 5779 0519 6C656674 		.ascii	"left\000"
 5779      00
 5780              	.LASF255:
 5781 051e 6C765F74 		.ascii	"lv_theme_t\000"
 5781      68656D65 
 5781      5F7400
 5782              	.LASF126:
 5783 0529 4C565F45 		.ascii	"LV_EVENT_APPLY\000"
 5783      56454E54 
 5783      5F415050 
 5783      4C5900
 5784              	.LASF103:
 5785 0538 7265616C 		.ascii	"realign\000"
 5785      69676E00 
 5786              	.LASF119:
 5787 0540 4C565F45 		.ascii	"LV_EVENT_DRAG_THROW_BEGIN\000"
 5787      56454E54 
 5787      5F445241 
 5787      475F5448 
 5787      524F575F 
 5788              	.LASF262:
 5789 055a 6C765F62 		.ascii	"lv_btn_set_ink_in_time\000"
 5789      746E5F73 
 5789      65745F69 
 5789      6E6B5F69 
 5789      6E5F7469 
 5790              	.LASF138:
 5791 0571 4C565F53 		.ascii	"LV_SIGNAL_GET_TYPE\000"
 5791      49474E41 
 5791      4C5F4745 
 5791      545F5459 
 5791      504500
 5792              	.LASF230:
 5793 0584 61726561 		.ascii	"area\000"
 5793      00
 5794              	.LASF71:
 5795 0589 6C765F73 		.ascii	"lv_style_t\000"
 5795      74796C65 
 5795      5F7400
ARM GAS  C:\Users\tmj32\AppData\Local\Temp\ccKhIVes.s 			page 122


 5796              	.LASF52:
 5797 0594 696E6E65 		.ascii	"inner\000"
 5797      7200
 5798              	.LASF201:
 5799 059a 7374796C 		.ascii	"styles\000"
 5799      657300
 5800              	.LASF10:
 5801 05a1 6C6F6E67 		.ascii	"long unsigned int\000"
 5801      20756E73 
 5801      69676E65 
 5801      6420696E 
 5801      7400
 5802              	.LASF191:
 5803 05b3 4C565F4B 		.ascii	"LV_KEY_HOME\000"
 5803      45595F48 
 5803      4F4D4500 
 5804              	.LASF214:
 5805 05bf 68696E74 		.ascii	"hint\000"
 5805      00
 5806              	.LASF279:
 5807 05c4 70617261 		.ascii	"param\000"
 5807      6D00
 5808              	.LASF195:
 5809 05ca 4C565F42 		.ascii	"LV_BTN_STATE_TGL_REL\000"
 5809      544E5F53 
 5809      54415445 
 5809      5F54474C 
 5809      5F52454C 
 5810              	.LASF163:
 5811 05df 4C565F4C 		.ascii	"LV_LAYOUT_OFF\000"
 5811      41594F55 
 5811      545F4F46 
 5811      4600
 5812              	.LASF70:
 5813 05ed 6C696E65 		.ascii	"line\000"
 5813      00
 5814              	.LASF210:
 5815 05f2 6C765F62 		.ascii	"lv_btn_style_t\000"
 5815      746E5F73 
 5815      74796C65 
 5815      5F7400
 5816              	.LASF147:
 5817 0601 4C565F53 		.ascii	"LV_SIGNAL_FOCUS\000"
 5817      49474E41 
 5817      4C5F464F 
 5817      43555300 
 5818              	.LASF125:
 5819 0611 4C565F45 		.ascii	"LV_EVENT_REFRESH\000"
 5819      56454E54 
 5819      5F524546 
 5819      52455348 
 5819      00
 5820              	.LASF264:
 5821 0622 6C765F62 		.ascii	"lv_btn_set_ink_wait_time\000"
 5821      746E5F73 
 5821      65745F69 
 5821      6E6B5F77 
ARM GAS  C:\Users\tmj32\AppData\Local\Temp\ccKhIVes.s 			page 123


 5821      6169745F 
 5822              	.LASF150:
 5823 063b 4C565F53 		.ascii	"LV_SIGNAL_GET_EDITABLE\000"
 5823      49474E41 
 5823      4C5F4745 
 5823      545F4544 
 5823      49544142 
 5824              	.LASF231:
 5825 0652 6F6E656C 		.ascii	"oneline\000"
 5825      696E6500 
 5826              	.LASF9:
 5827 065a 5F5F7569 		.ascii	"__uint32_t\000"
 5827      6E743332 
 5827      5F7400
 5828              	.LASF85:
 5829 0665 6576656E 		.ascii	"event_cb\000"
 5829      745F6362 
 5829      00
 5830              	.LASF51:
 5831 066e 72696768 		.ascii	"right\000"
 5831      7400
 5832              	.LASF89:
 5833 0674 7374796C 		.ascii	"style_p\000"
 5833      655F7000 
 5834              	.LASF11:
 5835 067c 6C6F6E67 		.ascii	"long long int\000"
 5835      206C6F6E 
 5835      6720696E 
 5835      7400
 5836              	.LASF290:
 5837 068a 433A5C55 		.ascii	"C:\\Users\\tmj32\\Documents\\TCNJ\\Senior_Project\\"
 5837      73657273 
 5837      5C746D6A 
 5837      33325C44 
 5837      6F63756D 
 5838 06b7 4F736369 		.ascii	"Oscilloscope_Senior_Project\\tcom_engineering\\embe"
 5838      6C6C6F73 
 5838      636F7065 
 5838      5F53656E 
 5838      696F725F 
 5839 06e8 645F7377 		.ascii	"d_sw\\tcom_app\\tcom_app_psoc6_lvgl6\\tcom_displ_te"
 5839      5C74636F 
 5839      6D5F6170 
 5839      705C7463 
 5839      6F6D5F61 
 5840 0718 73745F70 		.ascii	"st_psoc6.cydsn\000"
 5840      736F6336 
 5840      2E637964 
 5840      736E00
 5841              	.LASF46:
 5842 0727 77696474 		.ascii	"width\000"
 5842      6800
 5843              	.LASF149:
 5844 072d 4C565F53 		.ascii	"LV_SIGNAL_CONTROL\000"
 5844      49474E41 
 5844      4C5F434F 
 5844      4E54524F 
ARM GAS  C:\Users\tmj32\AppData\Local\Temp\ccKhIVes.s 			page 124


 5844      4C00
 5845              	.LASF49:
 5846 073f 626F7474 		.ascii	"bottom\000"
 5846      6F6D00
 5847              	.LASF83:
 5848 0746 6368696C 		.ascii	"child_ll\000"
 5848      645F6C6C 
 5848      00
 5849              	.LASF218:
 5850 074f 696E6469 		.ascii	"indic\000"
 5850      6300
 5851              	.LASF100:
 5852 0755 70726F74 		.ascii	"protect\000"
 5852      65637400 
 5853              	.LASF175:
 5854 075d 6C61796F 		.ascii	"layout\000"
 5854      757400
 5855              	.LASF274:
 5856 0764 6D61736B 		.ascii	"mask\000"
 5856      00
 5857              	.LASF251:
 5858 0769 74616276 		.ascii	"tabview\000"
 5858      69657700 
 5859              	.LASF96:
 5860 0771 70617265 		.ascii	"parent_event\000"
 5860      6E745F65 
 5860      76656E74 
 5860      00
 5861              	.LASF131:
 5862 077e 4C565F53 		.ascii	"LV_SIGNAL_CLEANUP\000"
 5862      49474E41 
 5862      4C5F434C 
 5862      45414E55 
 5862      5000
 5863              	.LASF157:
 5864 0790 616C6967 		.ascii	"align\000"
 5864      6E00
 5865              	.LASF286:
 5866 0796 6C765F73 		.ascii	"lv_style_btn_tgl_pr\000"
 5866      74796C65 
 5866      5F62746E 
 5866      5F74676C 
 5866      5F707200 
 5867              	.LASF209:
 5868 07aa 4C565F42 		.ascii	"LV_BTN_STYLE_INA\000"
 5868      544E5F53 
 5868      54594C45 
 5868      5F494E41 
 5868      00
 5869              	.LASF66:
 5870 07bb 676C6173 		.ascii	"glass\000"
 5870      7300
 5871              	.LASF283:
 5872 07c1 6C765F73 		.ascii	"lv_style_btn_rel\000"
 5872      74796C65 
 5872      5F62746E 
 5872      5F72656C 
ARM GAS  C:\Users\tmj32\AppData\Local\Temp\ccKhIVes.s 			page 125


 5872      00
 5873              	.LASF128:
 5874 07d2 4C565F45 		.ascii	"LV_EVENT_DELETE\000"
 5874      56454E54 
 5874      5F44454C 
 5874      45544500 
 5875              	.LASF180:
 5876 07e2 6C765F63 		.ascii	"lv_cont_ext_t\000"
 5876      6F6E745F 
 5876      6578745F 
 5876      7400
 5877              	.LASF13:
 5878 07f0 756E7369 		.ascii	"unsigned int\000"
 5878      676E6564 
 5878      20696E74 
 5878      00
 5879              	.LASF132:
 5880 07fd 4C565F53 		.ascii	"LV_SIGNAL_CHILD_CHG\000"
 5880      49474E41 
 5880      4C5F4348 
 5880      494C445F 
 5880      43484700 
 5881              	.LASF245:
 5882 0811 6D626F78 		.ascii	"mbox\000"
 5882      00
 5883              	.LASF211:
 5884 0816 74676C5F 		.ascii	"tgl_rel\000"
 5884      72656C00 
 5885              	.LASF123:
 5886 081e 4C565F45 		.ascii	"LV_EVENT_VALUE_CHANGED\000"
 5886      56454E54 
 5886      5F56414C 
 5886      55455F43 
 5886      48414E47 
 5887              	.LASF197:
 5888 0835 4C565F42 		.ascii	"LV_BTN_STATE_INA\000"
 5888      544E5F53 
 5888      54415445 
 5888      5F494E41 
 5888      00
 5889              	.LASF158:
 5890 0846 6175746F 		.ascii	"auto_realign\000"
 5890      5F726561 
 5890      6C69676E 
 5890      00
 5891              	.LASF104:
 5892 0853 4C565F44 		.ascii	"LV_DESIGN_DRAW_MAIN\000"
 5892      45534947 
 5892      4E5F4452 
 5892      41575F4D 
 5892      41494E00 
 5893              	.LASF26:
 5894 0867 6C765F66 		.ascii	"lv_font_glyph_dsc_t\000"
 5894      6F6E745F 
 5894      676C7970 
 5894      685F6473 
 5894      635F7400 
ARM GAS  C:\Users\tmj32\AppData\Local\Temp\ccKhIVes.s 			page 126


 5895              	.LASF248:
 5896 087b 6C697374 		.ascii	"list\000"
 5896      00
 5897              	.LASF54:
 5898 0880 67726164 		.ascii	"grad_color\000"
 5898      5F636F6C 
 5898      6F7200
 5899              	.LASF176:
 5900 088b 6669745F 		.ascii	"fit_left\000"
 5900      6C656674 
 5900      00
 5901              	.LASF110:
 5902 0894 4C565F45 		.ascii	"LV_EVENT_PRESSING\000"
 5902      56454E54 
 5902      5F505245 
 5902      5353494E 
 5902      4700
 5903              	.LASF246:
 5904 08a6 70616765 		.ascii	"page\000"
 5904      00
 5905              	.LASF220:
 5906 08ab 6B6E6F62 		.ascii	"knob_off\000"
 5906      5F6F6666 
 5906      00
 5907              	.LASF240:
 5908 08b4 67617567 		.ascii	"gauge\000"
 5908      6500
 5909              	.LASF189:
 5910 08ba 4C565F4B 		.ascii	"LV_KEY_NEXT\000"
 5910      45595F4E 
 5910      45585400 
 5911              	.LASF140:
 5912 08c6 4C565F53 		.ascii	"LV_SIGNAL_PRESSING\000"
 5912      49474E41 
 5912      4C5F5052 
 5912      45535349 
 5912      4E4700
 5913              	.LASF112:
 5914 08d9 4C565F45 		.ascii	"LV_EVENT_SHORT_CLICKED\000"
 5914      56454E54 
 5914      5F53484F 
 5914      52545F43 
 5914      4C49434B 
 5915              	.LASF291:
 5916 08f0 6C765F62 		.ascii	"lv_btn_set_layout\000"
 5916      746E5F73 
 5916      65745F6C 
 5916      61796F75 
 5916      7400
 5917              	.LASF114:
 5918 0902 4C565F45 		.ascii	"LV_EVENT_LONG_PRESSED_REPEAT\000"
 5918      56454E54 
 5918      5F4C4F4E 
 5918      475F5052 
 5918      45535345 
 5919              	.LASF74:
 5920 091f 6C765F72 		.ascii	"lv_res_t\000"
ARM GAS  C:\Users\tmj32\AppData\Local\Temp\ccKhIVes.s 			page 127


 5920      65735F74 
 5920      00
 5921              	.LASF20:
 5922 0928 6C6F6E67 		.ascii	"long double\000"
 5922      20646F75 
 5922      626C6500 
 5923              	.LASF161:
 5924 0934 6C765F64 		.ascii	"lv_drag_dir_t\000"
 5924      7261675F 
 5924      6469725F 
 5924      7400
 5925              	.LASF254:
 5926 0942 7374796C 		.ascii	"style\000"
 5926      6500
 5927              	.LASF88:
 5928 0948 6578745F 		.ascii	"ext_attr\000"
 5928      61747472 
 5928      00
 5929              	.LASF268:
 5930 0951 6C765F62 		.ascii	"lv_btn_get_state\000"
 5930      746E5F67 
 5930      65745F73 
 5930      74617465 
 5930      00
 5931              	.LASF107:
 5932 0962 6C765F64 		.ascii	"lv_design_mode_t\000"
 5932      65736967 
 5932      6E5F6D6F 
 5932      64655F74 
 5932      00
 5933              	.LASF64:
 5934 0973 73756270 		.ascii	"subpx\000"
 5934      7800
 5935              	.LASF118:
 5936 0979 4C565F45 		.ascii	"LV_EVENT_DRAG_END\000"
 5936      56454E54 
 5936      5F445241 
 5936      475F454E 
 5936      4400
 5937              	.LASF141:
 5938 098b 4C565F53 		.ascii	"LV_SIGNAL_PRESS_LOST\000"
 5938      49474E41 
 5938      4C5F5052 
 5938      4553535F 
 5938      4C4F5354 
 5939              	.LASF192:
 5940 09a0 4C565F4B 		.ascii	"LV_KEY_END\000"
 5940      45595F45 
 5940      4E4400
 5941              	.LASF146:
 5942 09ab 4C565F53 		.ascii	"LV_SIGNAL_DRAG_END\000"
 5942      49474E41 
 5942      4C5F4452 
 5942      41475F45 
 5942      4E4400
 5943              	.LASF109:
 5944 09be 4C565F45 		.ascii	"LV_EVENT_PRESSED\000"
ARM GAS  C:\Users\tmj32\AppData\Local\Temp\ccKhIVes.s 			page 128


 5944      56454E54 
 5944      5F505245 
 5944      53534544 
 5944      00
 5945              	.LASF134:
 5946 09cf 4C565F53 		.ascii	"LV_SIGNAL_PARENT_SIZE_CHG\000"
 5946      49474E41 
 5946      4C5F5041 
 5946      52454E54 
 5946      5F53495A 
 5947              	.LASF127:
 5948 09e9 4C565F45 		.ascii	"LV_EVENT_CANCEL\000"
 5948      56454E54 
 5948      5F43414E 
 5948      43454C00 
 5949              	.LASF142:
 5950 09f9 4C565F53 		.ascii	"LV_SIGNAL_RELEASED\000"
 5950      49474E41 
 5950      4C5F5245 
 5950      4C454153 
 5950      454400
 5951              	.LASF53:
 5952 0a0c 6D61696E 		.ascii	"main_color\000"
 5952      5F636F6C 
 5952      6F7200
 5953              	.LASF0:
 5954 0a17 5F5F696E 		.ascii	"__int8_t\000"
 5954      74385F74 
 5954      00
 5955              	.LASF280:
 5956 0a20 746F6767 		.ascii	"toggled\000"
 5956      6C656400 
 5957              	.LASF151:
 5958 0a28 6C765F73 		.ascii	"lv_signal_t\000"
 5958      69676E61 
 5958      6C5F7400 
 5959              	.LASF272:
 5960 0a34 6C765F62 		.ascii	"lv_btn_get_ink_out_time\000"
 5960      746E5F67 
 5960      65745F69 
 5960      6E6B5F6F 
 5960      75745F74 
 5961              	.LASF265:
 5962 0a4c 6C765F62 		.ascii	"lv_btn_set_ink_out_time\000"
 5962      746E5F73 
 5962      65745F69 
 5962      6E6B5F6F 
 5962      75745F74 
 5963              	.LASF194:
 5964 0a64 4C565F42 		.ascii	"LV_BTN_STATE_PR\000"
 5964      544E5F53 
 5964      54415445 
 5964      5F505200 
 5965              	.LASF12:
 5966 0a74 6C6F6E67 		.ascii	"long long unsigned int\000"
 5966      206C6F6E 
 5966      6720756E 
ARM GAS  C:\Users\tmj32\AppData\Local\Temp\ccKhIVes.s 			page 129


 5966      7369676E 
 5966      65642069 
 5967              	.LASF277:
 5968 0a8b 6C765F62 		.ascii	"lv_btn_signal\000"
 5968      746E5F73 
 5968      69676E61 
 5968      6C00
 5969              	.LASF17:
 5970 0a99 75696E74 		.ascii	"uint16_t\000"
 5970      31365F74 
 5970      00
 5971              	.LASF73:
 5972 0aa2 4C565F52 		.ascii	"LV_RES_OK\000"
 5972      45535F4F 
 5972      4B00
 5973              	.LASF284:
 5974 0aac 6C765F73 		.ascii	"lv_style_btn_pr\000"
 5974      74796C65 
 5974      5F62746E 
 5974      5F707200 
 5975              	.LASF38:
 5976 0abc 6C765F63 		.ascii	"lv_color_t\000"
 5976      6F6C6F72 
 5976      5F7400
 5977              	.LASF281:
 5978 0ac7 616E6365 		.ascii	"ancestor_signal\000"
 5978      73746F72 
 5978      5F736967 
 5978      6E616C00 
 5979              	.LASF276:
 5980 0ad7 6C765F62 		.ascii	"lv_btn_design\000"
 5980      746E5F64 
 5980      65736967 
 5980      6E00
 5981              	.LASF282:
 5982 0ae5 616E6365 		.ascii	"ancestor_design\000"
 5982      73746F72 
 5982      5F646573 
 5982      69676E00 
 5983              	.LASF182:
 5984 0af5 4C565F4B 		.ascii	"LV_KEY_DOWN\000"
 5984      45595F44 
 5984      4F574E00 
 5985              	.LASF179:
 5986 0b01 6669745F 		.ascii	"fit_bottom\000"
 5986      626F7474 
 5986      6F6D00
 5987              	.LASF185:
 5988 0b0c 4C565F4B 		.ascii	"LV_KEY_ESC\000"
 5988      45595F45 
 5988      534300
 5989              	.LASF288:
 5990 0b17 474E5520 		.ascii	"GNU C11 5.4.1 20160609 (release) [ARM/embedded-5-br"
 5990      43313120 
 5990      352E342E 
 5990      31203230 
 5990      31363036 
ARM GAS  C:\Users\tmj32\AppData\Local\Temp\ccKhIVes.s 			page 130


 5991 0b4a 616E6368 		.ascii	"anch revision 237715] -mcpu=cortex-m4 -mfloat-abi=s"
 5991      20726576 
 5991      6973696F 
 5991      6E203233 
 5991      37373135 
 5992 0b7d 6F667466 		.ascii	"oftfp -mfpu=fpv4-sp-d16 -mthumb -g -O0 -ffunction-s"
 5992      70202D6D 
 5992      6670753D 
 5992      66707634 
 5992      2D73702D 
 5993 0bb0 65637469 		.ascii	"ections -ffat-lto-objects\000"
 5993      6F6E7320 
 5993      2D666661 
 5993      742D6C74 
 5993      6F2D6F62 
 5994              	.LASF217:
 5995 0bca 6465636F 		.ascii	"decor\000"
 5995      7200
 5996              	.LASF236:
 5997 0bd0 696D6762 		.ascii	"imgbtn\000"
 5997      746E00
 5998              	.LASF4:
 5999 0bd7 5F5F696E 		.ascii	"__int16_t\000"
 5999      7431365F 
 5999      7400
 6000              	.LASF235:
 6001 0be1 70616E65 		.ascii	"panel\000"
 6001      6C00
 6002              	.LASF287:
 6003 0be7 6C765F73 		.ascii	"lv_style_btn_ina\000"
 6003      74796C65 
 6003      5F62746E 
 6003      5F696E61 
 6003      00
 6004              	.LASF36:
 6005 0bf8 66756C6C 		.ascii	"full\000"
 6005      00
 6006              	.LASF45:
 6007 0bfd 636F6C6F 		.ascii	"color\000"
 6007      7200
 6008              	.LASF263:
 6009 0c03 74696D65 		.ascii	"time\000"
 6009      00
 6010              	.LASF62:
 6011 0c08 6C696E65 		.ascii	"line_space\000"
 6011      5F737061 
 6011      636500
 6012              	.LASF155:
 6013 0c13 786F6673 		.ascii	"xofs\000"
 6013      00
 6014              	.LASF177:
 6015 0c18 6669745F 		.ascii	"fit_right\000"
 6015      72696768 
 6015      7400
 6016              	.LASF162:
 6017 0c22 6C765F6F 		.ascii	"lv_obj_t\000"
 6017      626A5F74 
ARM GAS  C:\Users\tmj32\AppData\Local\Temp\ccKhIVes.s 			page 131


 6017      00
 6018              	.LASF172:
 6019 0c2b 4C565F4C 		.ascii	"LV_LAYOUT_GRID\000"
 6019      41594F55 
 6019      545F4752 
 6019      494400
 6020              	.LASF44:
 6021 0c3a 6C765F73 		.ascii	"lv_shadow_type_t\000"
 6021      6861646F 
 6021      775F7479 
 6021      70655F74 
 6021      00
 6022              	.LASF91:
 6023 0c4b 64726167 		.ascii	"drag\000"
 6023      00
 6024              	.LASF82:
 6025 0c50 5F6C765F 		.ascii	"_lv_obj_t\000"
 6025      6F626A5F 
 6025      7400
 6026              	.LASF60:
 6027 0c5a 666F6E74 		.ascii	"font\000"
 6027      00
 6028              	.LASF61:
 6029 0c5f 6C657474 		.ascii	"letter_space\000"
 6029      65725F73 
 6029      70616365 
 6029      00
 6030              	.LASF243:
 6031 0c6c 63616C65 		.ascii	"calendar\000"
 6031      6E646172 
 6031      00
 6032              	.LASF98:
 6033 0c75 62617365 		.ascii	"base_dir\000"
 6033      5F646972 
 6033      00
 6034              	.LASF23:
 6035 0c7e 626F785F 		.ascii	"box_h\000"
 6035      6800
 6036              	.LASF190:
 6037 0c84 4C565F4B 		.ascii	"LV_KEY_PREV\000"
 6037      45595F50 
 6037      52455600 
 6038              	.LASF154:
 6039 0c90 62617365 		.ascii	"base\000"
 6039      00
 6040              	.LASF269:
 6041 0c95 6C765F62 		.ascii	"lv_btn_get_toggle\000"
 6041      746E5F67 
 6041      65745F74 
 6041      6F67676C 
 6041      6500
 6042              	.LASF22:
 6043 0ca7 626F785F 		.ascii	"box_w\000"
 6043      7700
 6044              	.LASF5:
 6045 0cad 73686F72 		.ascii	"short int\000"
 6045      7420696E 
ARM GAS  C:\Users\tmj32\AppData\Local\Temp\ccKhIVes.s 			page 132


 6045      7400
 6046              	.LASF270:
 6047 0cb7 6C765F62 		.ascii	"lv_btn_get_ink_in_time\000"
 6047      746E5F67 
 6047      65745F69 
 6047      6E6B5F69 
 6047      6E5F7469 
 6048              	.LASF30:
 6049 0cce 62617365 		.ascii	"base_line\000"
 6049      5F6C696E 
 6049      6500
 6050              	.LASF79:
 6051 0cd8 6C765F6C 		.ascii	"lv_ll_t\000"
 6051      6C5F7400 
 6052              	.LASF267:
 6053 0ce0 6C765F62 		.ascii	"lv_btn_create\000"
 6053      746E5F63 
 6053      72656174 
 6053      6500
 6054              	.LASF275:
 6055 0cee 6D6F6465 		.ascii	"mode\000"
 6055      00
 6056              	.LASF16:
 6057 0cf3 696E7431 		.ascii	"int16_t\000"
 6057      365F7400 
 6058              	.LASF133:
 6059 0cfb 4C565F53 		.ascii	"LV_SIGNAL_CORD_CHG\000"
 6059      49474E41 
 6059      4C5F434F 
 6059      52445F43 
 6059      484700
 6060              	.LASF84:
 6061 0d0e 636F6F72 		.ascii	"coords\000"
 6061      647300
 6062              	.LASF247:
 6063 0d15 7370696E 		.ascii	"spinbox\000"
 6063      626F7800 
 6064              	.LASF95:
 6065 0d1d 6F70615F 		.ascii	"opa_scale_en\000"
 6065      7363616C 
 6065      655F656E 
 6065      00
 6066              	.LASF224:
 6067 0d2a 6461795F 		.ascii	"day_names\000"
 6067      6E616D65 
 6067      7300
 6068              	.LASF57:
 6069 0d34 73686164 		.ascii	"shadow\000"
 6069      6F7700
 6070              	.LASF122:
 6071 0d3b 4C565F45 		.ascii	"LV_EVENT_DEFOCUSED\000"
 6071      56454E54 
 6071      5F444546 
 6071      4F435553 
 6071      454400
 6072              	.LASF174:
 6073 0d4e 6C765F6C 		.ascii	"lv_layout_t\000"
ARM GAS  C:\Users\tmj32\AppData\Local\Temp\ccKhIVes.s 			page 133


 6073      61796F75 
 6073      745F7400 
 6074              	.LASF93:
 6075 0d5a 64726167 		.ascii	"drag_parent\000"
 6075      5F706172 
 6075      656E7400 
 6076              	.LASF136:
 6077 0d66 4C565F53 		.ascii	"LV_SIGNAL_BASE_DIR_CHG\000"
 6077      49474E41 
 6077      4C5F4241 
 6077      53455F44 
 6077      49525F43 
 6078              	.LASF266:
 6079 0d7d 6C765F62 		.ascii	"lv_btn_set_style\000"
 6079      746E5F73 
 6079      65745F73 
 6079      74796C65 
 6079      00
 6080              	.LASF258:
 6081 0d8e 636F7079 		.ascii	"copy_ext\000"
 6081      5F657874 
 6081      00
 6082              	.LASF234:
 6083 0d97 636F6E74 		.ascii	"content\000"
 6083      656E7400 
 6084              	.LASF58:
 6085 0d9f 70616464 		.ascii	"padding\000"
 6085      696E6700 
 6086              	.LASF86:
 6087 0da7 7369676E 		.ascii	"signal_cb\000"
 6087      616C5F63 
 6087      6200
 6088              	.LASF18:
 6089 0db1 75696E74 		.ascii	"uint32_t\000"
 6089      33325F74 
 6089      00
 6090              	.LASF216:
 6091 0dba 6461726B 		.ascii	"dark\000"
 6091      00
 6092              	.LASF34:
 6093 0dbf 67726565 		.ascii	"green\000"
 6093      6E00
 6094              	.LASF32:
 6095 0dc5 6C765F66 		.ascii	"lv_font_t\000"
 6095      6F6E745F 
 6095      7400
 6096              	.LASF99:
 6097 0dcf 72657365 		.ascii	"reserved\000"
 6097      72766564 
 6097      00
 6098              	.LASF203:
 6099 0dd8 746F6767 		.ascii	"toggle\000"
 6099      6C6500
 6100              	.LASF208:
 6101 0ddf 4C565F42 		.ascii	"LV_BTN_STYLE_TGL_PR\000"
 6101      544E5F53 
 6101      54594C45 
ARM GAS  C:\Users\tmj32\AppData\Local\Temp\ccKhIVes.s 			page 134


 6101      5F54474C 
 6101      5F505200 
 6102              	.LASF7:
 6103 0df3 73686F72 		.ascii	"short unsigned int\000"
 6103      7420756E 
 6103      7369676E 
 6103      65642069 
 6103      6E7400
 6104              	.LASF120:
 6105 0e06 4C565F45 		.ascii	"LV_EVENT_KEY\000"
 6105      56454E54 
 6105      5F4B4559 
 6105      00
 6106              	.LASF19:
 6107 0e13 6C765F63 		.ascii	"lv_coord_t\000"
 6107      6F6F7264 
 6107      5F7400
 6108              	.LASF111:
 6109 0e1e 4C565F45 		.ascii	"LV_EVENT_PRESS_LOST\000"
 6109      56454E54 
 6109      5F505245 
 6109      53535F4C 
 6109      4F535400 
 6110              	.LASF164:
 6111 0e32 4C565F4C 		.ascii	"LV_LAYOUT_CENTER\000"
 6111      41594F55 
 6111      545F4345 
 6111      4E544552 
 6111      00
 6112              	.LASF56:
 6113 0e43 626F7264 		.ascii	"border\000"
 6113      657200
 6114              	.LASF237:
 6115 0e4a 6C616265 		.ascii	"label\000"
 6115      6C00
 6116              	.LASF27:
 6117 0e50 6765745F 		.ascii	"get_glyph_dsc\000"
 6117      676C7970 
 6117      685F6473 
 6117      6300
 6118              	.LASF238:
 6119 0e5e 736C6964 		.ascii	"slider\000"
 6119      657200
 6120              	.LASF43:
 6121 0e65 6C765F62 		.ascii	"lv_border_part_t\000"
 6121      6F726465 
 6121      725F7061 
 6121      72745F74 
 6121      00
 6122              	.LASF130:
 6123 0e76 6C765F65 		.ascii	"lv_event_cb_t\000"
 6123      76656E74 
 6123      5F63625F 
 6123      7400
 6124              	.LASF241:
 6125 0e84 7072656C 		.ascii	"preload\000"
 6125      6F616400 
ARM GAS  C:\Users\tmj32\AppData\Local\Temp\ccKhIVes.s 			page 135


 6126              	.LASF159:
 6127 0e8c 6F726967 		.ascii	"origo_align\000"
 6127      6F5F616C 
 6127      69676E00 
 6128              	.LASF207:
 6129 0e98 4C565F42 		.ascii	"LV_BTN_STYLE_TGL_REL\000"
 6129      544E5F53 
 6129      54594C45 
 6129      5F54474C 
 6129      5F52454C 
 6130              	.LASF219:
 6131 0ead 6B6E6F62 		.ascii	"knob\000"
 6131      00
 6132              	.LASF181:
 6133 0eb2 4C565F4B 		.ascii	"LV_KEY_UP\000"
 6133      45595F55 
 6133      5000
 6134              	.LASF59:
 6135 0ebc 73656C5F 		.ascii	"sel_color\000"
 6135      636F6C6F 
 6135      7200
 6136              	.LASF81:
 6137 0ec6 5F6C765F 		.ascii	"_lv_font_struct\000"
 6137      666F6E74 
 6137      5F737472 
 6137      75637400 
 6138              	.LASF47:
 6139 0ed6 70617274 		.ascii	"part\000"
 6139      00
 6140              	.LASF76:
 6141 0edb 6E5F7369 		.ascii	"n_size\000"
 6141      7A6500
 6142              	.LASF198:
 6143 0ee2 5F4C565F 		.ascii	"_LV_BTN_STATE_NUM\000"
 6143      42544E5F 
 6143      53544154 
 6143      455F4E55 
 6143      4D00
 6144              	.LASF232:
 6145 0ef4 63757273 		.ascii	"cursor\000"
 6145      6F7200
 6146              	.LASF116:
 6147 0efb 4C565F45 		.ascii	"LV_EVENT_RELEASED\000"
 6147      56454E54 
 6147      5F52454C 
 6147      45415345 
 6147      4400
 6148              	.LASF108:
 6149 0f0d 6C765F64 		.ascii	"lv_design_cb_t\000"
 6149      65736967 
 6149      6E5F6362 
 6149      5F7400
 6150              	.LASF101:
 6151 0f1c 6F70615F 		.ascii	"opa_scale\000"
 6151      7363616C 
 6151      6500
 6152              	.LASF250:
ARM GAS  C:\Users\tmj32\AppData\Local\Temp\ccKhIVes.s 			page 136


 6153 0f26 726F6C6C 		.ascii	"roller\000"
 6153      657200
 6154              		.ident	"GCC: (GNU Tools for ARM Embedded Processors) 5.4.1 20160609 (release) [ARM/embedded-5-bran
