ARM GAS  C:\Users\tmj32\AppData\Local\Temp\ccKhIVes.s 			page 1


   1              		.syntax unified
   2              		.cpu cortex-m4
   3              		.eabi_attribute 27, 1
   4              		.fpu fpv4-sp-d16
   5              		.eabi_attribute 20, 1
   6              		.eabi_attribute 21, 1
   7              		.eabi_attribute 23, 3
   8              		.eabi_attribute 24, 1
   9              		.eabi_attribute 25, 1
  10              		.eabi_attribute 26, 1
  11              		.eabi_attribute 30, 6
  12              		.eabi_attribute 34, 1
  13              		.eabi_attribute 18, 4
  14              		.thumb
  15              		.syntax unified
  16              		.file	"lv_btn.c"
  17              		.text
  18              	.Ltext0:
  19              		.cfi_sections	.debug_frame
  20              		.section	.text.lv_btn_set_layout,"ax",%progbits
  21              		.align	2
  22              		.thumb
  23              		.thumb_func
  24              		.type	lv_btn_set_layout, %function
  25              	lv_btn_set_layout:
  26              	.LFB35:
  27              		.file 1 "..\\..\\..\\lvgl\\version_6.1.2\\lvgl\\src\\lv_objx\\lv_btn.h"
   1:..\..\..\lvgl\version_6.1.2\lvgl\src\lv_objx/lv_btn.h **** /**
   2:..\..\..\lvgl\version_6.1.2\lvgl\src\lv_objx/lv_btn.h ****  * @file lv_btn.h
   3:..\..\..\lvgl\version_6.1.2\lvgl\src\lv_objx/lv_btn.h ****  *
   4:..\..\..\lvgl\version_6.1.2\lvgl\src\lv_objx/lv_btn.h ****  */
   5:..\..\..\lvgl\version_6.1.2\lvgl\src\lv_objx/lv_btn.h **** 
   6:..\..\..\lvgl\version_6.1.2\lvgl\src\lv_objx/lv_btn.h **** #ifndef LV_BTN_H
   7:..\..\..\lvgl\version_6.1.2\lvgl\src\lv_objx/lv_btn.h **** #define LV_BTN_H
   8:..\..\..\lvgl\version_6.1.2\lvgl\src\lv_objx/lv_btn.h **** 
   9:..\..\..\lvgl\version_6.1.2\lvgl\src\lv_objx/lv_btn.h **** #ifdef __cplusplus
  10:..\..\..\lvgl\version_6.1.2\lvgl\src\lv_objx/lv_btn.h **** extern "C" {
  11:..\..\..\lvgl\version_6.1.2\lvgl\src\lv_objx/lv_btn.h **** #endif
  12:..\..\..\lvgl\version_6.1.2\lvgl\src\lv_objx/lv_btn.h **** 
  13:..\..\..\lvgl\version_6.1.2\lvgl\src\lv_objx/lv_btn.h **** /*********************
  14:..\..\..\lvgl\version_6.1.2\lvgl\src\lv_objx/lv_btn.h ****  *      INCLUDES
  15:..\..\..\lvgl\version_6.1.2\lvgl\src\lv_objx/lv_btn.h ****  *********************/
  16:..\..\..\lvgl\version_6.1.2\lvgl\src\lv_objx/lv_btn.h **** #ifdef LV_CONF_INCLUDE_SIMPLE
  17:..\..\..\lvgl\version_6.1.2\lvgl\src\lv_objx/lv_btn.h **** #include "lv_conf.h"
  18:..\..\..\lvgl\version_6.1.2\lvgl\src\lv_objx/lv_btn.h **** #else
  19:..\..\..\lvgl\version_6.1.2\lvgl\src\lv_objx/lv_btn.h **** #include "../../../lv_conf.h"
  20:..\..\..\lvgl\version_6.1.2\lvgl\src\lv_objx/lv_btn.h **** #endif
  21:..\..\..\lvgl\version_6.1.2\lvgl\src\lv_objx/lv_btn.h **** 
  22:..\..\..\lvgl\version_6.1.2\lvgl\src\lv_objx/lv_btn.h **** #if LV_USE_BTN != 0
  23:..\..\..\lvgl\version_6.1.2\lvgl\src\lv_objx/lv_btn.h **** 
  24:..\..\..\lvgl\version_6.1.2\lvgl\src\lv_objx/lv_btn.h **** /*Testing of dependencies*/
  25:..\..\..\lvgl\version_6.1.2\lvgl\src\lv_objx/lv_btn.h **** #if LV_USE_CONT == 0
  26:..\..\..\lvgl\version_6.1.2\lvgl\src\lv_objx/lv_btn.h **** #error "lv_btn: lv_cont is required. Enable it in lv_conf.h (LV_USE_CONT  1) "
  27:..\..\..\lvgl\version_6.1.2\lvgl\src\lv_objx/lv_btn.h **** #endif
  28:..\..\..\lvgl\version_6.1.2\lvgl\src\lv_objx/lv_btn.h **** 
  29:..\..\..\lvgl\version_6.1.2\lvgl\src\lv_objx/lv_btn.h **** #include "lv_cont.h"
  30:..\..\..\lvgl\version_6.1.2\lvgl\src\lv_objx/lv_btn.h **** #include "../lv_core/lv_indev.h"
ARM GAS  C:\Users\tmj32\AppData\Local\Temp\ccKhIVes.s 			page 2


  31:..\..\..\lvgl\version_6.1.2\lvgl\src\lv_objx/lv_btn.h **** 
  32:..\..\..\lvgl\version_6.1.2\lvgl\src\lv_objx/lv_btn.h **** /*********************
  33:..\..\..\lvgl\version_6.1.2\lvgl\src\lv_objx/lv_btn.h ****  *      DEFINES
  34:..\..\..\lvgl\version_6.1.2\lvgl\src\lv_objx/lv_btn.h ****  *********************/
  35:..\..\..\lvgl\version_6.1.2\lvgl\src\lv_objx/lv_btn.h **** 
  36:..\..\..\lvgl\version_6.1.2\lvgl\src\lv_objx/lv_btn.h **** /**********************
  37:..\..\..\lvgl\version_6.1.2\lvgl\src\lv_objx/lv_btn.h ****  *      TYPEDEFS
  38:..\..\..\lvgl\version_6.1.2\lvgl\src\lv_objx/lv_btn.h ****  **********************/
  39:..\..\..\lvgl\version_6.1.2\lvgl\src\lv_objx/lv_btn.h **** 
  40:..\..\..\lvgl\version_6.1.2\lvgl\src\lv_objx/lv_btn.h **** /** Possible states of a button.
  41:..\..\..\lvgl\version_6.1.2\lvgl\src\lv_objx/lv_btn.h ****  * It can be used not only by buttons but other button-like objects too*/
  42:..\..\..\lvgl\version_6.1.2\lvgl\src\lv_objx/lv_btn.h **** enum {
  43:..\..\..\lvgl\version_6.1.2\lvgl\src\lv_objx/lv_btn.h ****     /**Released*/
  44:..\..\..\lvgl\version_6.1.2\lvgl\src\lv_objx/lv_btn.h ****     LV_BTN_STATE_REL,
  45:..\..\..\lvgl\version_6.1.2\lvgl\src\lv_objx/lv_btn.h **** 
  46:..\..\..\lvgl\version_6.1.2\lvgl\src\lv_objx/lv_btn.h ****     /**Pressed*/
  47:..\..\..\lvgl\version_6.1.2\lvgl\src\lv_objx/lv_btn.h ****     LV_BTN_STATE_PR,
  48:..\..\..\lvgl\version_6.1.2\lvgl\src\lv_objx/lv_btn.h **** 
  49:..\..\..\lvgl\version_6.1.2\lvgl\src\lv_objx/lv_btn.h ****     /**Toggled released*/
  50:..\..\..\lvgl\version_6.1.2\lvgl\src\lv_objx/lv_btn.h ****     LV_BTN_STATE_TGL_REL,
  51:..\..\..\lvgl\version_6.1.2\lvgl\src\lv_objx/lv_btn.h **** 
  52:..\..\..\lvgl\version_6.1.2\lvgl\src\lv_objx/lv_btn.h ****     /**Toggled pressed*/
  53:..\..\..\lvgl\version_6.1.2\lvgl\src\lv_objx/lv_btn.h ****     LV_BTN_STATE_TGL_PR,
  54:..\..\..\lvgl\version_6.1.2\lvgl\src\lv_objx/lv_btn.h **** 
  55:..\..\..\lvgl\version_6.1.2\lvgl\src\lv_objx/lv_btn.h ****     /**Inactive*/
  56:..\..\..\lvgl\version_6.1.2\lvgl\src\lv_objx/lv_btn.h ****     LV_BTN_STATE_INA,
  57:..\..\..\lvgl\version_6.1.2\lvgl\src\lv_objx/lv_btn.h **** 
  58:..\..\..\lvgl\version_6.1.2\lvgl\src\lv_objx/lv_btn.h ****     /**Number of states*/
  59:..\..\..\lvgl\version_6.1.2\lvgl\src\lv_objx/lv_btn.h ****     _LV_BTN_STATE_NUM,
  60:..\..\..\lvgl\version_6.1.2\lvgl\src\lv_objx/lv_btn.h **** };
  61:..\..\..\lvgl\version_6.1.2\lvgl\src\lv_objx/lv_btn.h **** typedef uint8_t lv_btn_state_t;
  62:..\..\..\lvgl\version_6.1.2\lvgl\src\lv_objx/lv_btn.h **** 
  63:..\..\..\lvgl\version_6.1.2\lvgl\src\lv_objx/lv_btn.h **** /** Extended data of button*/
  64:..\..\..\lvgl\version_6.1.2\lvgl\src\lv_objx/lv_btn.h **** typedef struct
  65:..\..\..\lvgl\version_6.1.2\lvgl\src\lv_objx/lv_btn.h **** {
  66:..\..\..\lvgl\version_6.1.2\lvgl\src\lv_objx/lv_btn.h ****     /** Ext. of ancestor*/
  67:..\..\..\lvgl\version_6.1.2\lvgl\src\lv_objx/lv_btn.h ****     lv_cont_ext_t cont;
  68:..\..\..\lvgl\version_6.1.2\lvgl\src\lv_objx/lv_btn.h **** 
  69:..\..\..\lvgl\version_6.1.2\lvgl\src\lv_objx/lv_btn.h ****     /*New data for this type */
  70:..\..\..\lvgl\version_6.1.2\lvgl\src\lv_objx/lv_btn.h **** 
  71:..\..\..\lvgl\version_6.1.2\lvgl\src\lv_objx/lv_btn.h ****     /**Styles in each state*/
  72:..\..\..\lvgl\version_6.1.2\lvgl\src\lv_objx/lv_btn.h ****     const lv_style_t * styles[_LV_BTN_STATE_NUM];
  73:..\..\..\lvgl\version_6.1.2\lvgl\src\lv_objx/lv_btn.h **** #if LV_BTN_INK_EFFECT
  74:..\..\..\lvgl\version_6.1.2\lvgl\src\lv_objx/lv_btn.h ****     /** [ms] Time of ink fill effect (0: disable ink effect)*/
  75:..\..\..\lvgl\version_6.1.2\lvgl\src\lv_objx/lv_btn.h ****     uint16_t ink_in_time;
  76:..\..\..\lvgl\version_6.1.2\lvgl\src\lv_objx/lv_btn.h **** 
  77:..\..\..\lvgl\version_6.1.2\lvgl\src\lv_objx/lv_btn.h ****     /** [ms] Wait before the ink disappears */
  78:..\..\..\lvgl\version_6.1.2\lvgl\src\lv_objx/lv_btn.h ****     uint16_t ink_wait_time;
  79:..\..\..\lvgl\version_6.1.2\lvgl\src\lv_objx/lv_btn.h **** 
  80:..\..\..\lvgl\version_6.1.2\lvgl\src\lv_objx/lv_btn.h ****     /** [ms] Time of ink disappearing*/
  81:..\..\..\lvgl\version_6.1.2\lvgl\src\lv_objx/lv_btn.h ****     uint16_t ink_out_time;
  82:..\..\..\lvgl\version_6.1.2\lvgl\src\lv_objx/lv_btn.h **** #endif
  83:..\..\..\lvgl\version_6.1.2\lvgl\src\lv_objx/lv_btn.h **** 
  84:..\..\..\lvgl\version_6.1.2\lvgl\src\lv_objx/lv_btn.h ****     /** Current state of the button from 'lv_btn_state_t' enum*/
  85:..\..\..\lvgl\version_6.1.2\lvgl\src\lv_objx/lv_btn.h ****     lv_btn_state_t state : 3;
  86:..\..\..\lvgl\version_6.1.2\lvgl\src\lv_objx/lv_btn.h **** 
  87:..\..\..\lvgl\version_6.1.2\lvgl\src\lv_objx/lv_btn.h ****     /** 1: Toggle enabled*/
ARM GAS  C:\Users\tmj32\AppData\Local\Temp\ccKhIVes.s 			page 3


  88:..\..\..\lvgl\version_6.1.2\lvgl\src\lv_objx/lv_btn.h ****     uint8_t toggle : 1;
  89:..\..\..\lvgl\version_6.1.2\lvgl\src\lv_objx/lv_btn.h **** } lv_btn_ext_t;
  90:..\..\..\lvgl\version_6.1.2\lvgl\src\lv_objx/lv_btn.h **** 
  91:..\..\..\lvgl\version_6.1.2\lvgl\src\lv_objx/lv_btn.h **** /**Styles*/
  92:..\..\..\lvgl\version_6.1.2\lvgl\src\lv_objx/lv_btn.h **** enum {
  93:..\..\..\lvgl\version_6.1.2\lvgl\src\lv_objx/lv_btn.h ****     /** Release style */
  94:..\..\..\lvgl\version_6.1.2\lvgl\src\lv_objx/lv_btn.h ****     LV_BTN_STYLE_REL,
  95:..\..\..\lvgl\version_6.1.2\lvgl\src\lv_objx/lv_btn.h **** 
  96:..\..\..\lvgl\version_6.1.2\lvgl\src\lv_objx/lv_btn.h ****     /**Pressed style*/
  97:..\..\..\lvgl\version_6.1.2\lvgl\src\lv_objx/lv_btn.h ****     LV_BTN_STYLE_PR,
  98:..\..\..\lvgl\version_6.1.2\lvgl\src\lv_objx/lv_btn.h **** 
  99:..\..\..\lvgl\version_6.1.2\lvgl\src\lv_objx/lv_btn.h ****     /** Toggle released style*/
 100:..\..\..\lvgl\version_6.1.2\lvgl\src\lv_objx/lv_btn.h ****     LV_BTN_STYLE_TGL_REL,
 101:..\..\..\lvgl\version_6.1.2\lvgl\src\lv_objx/lv_btn.h **** 
 102:..\..\..\lvgl\version_6.1.2\lvgl\src\lv_objx/lv_btn.h ****     /** Toggle pressed style */
 103:..\..\..\lvgl\version_6.1.2\lvgl\src\lv_objx/lv_btn.h ****     LV_BTN_STYLE_TGL_PR,
 104:..\..\..\lvgl\version_6.1.2\lvgl\src\lv_objx/lv_btn.h **** 
 105:..\..\..\lvgl\version_6.1.2\lvgl\src\lv_objx/lv_btn.h ****     /** Inactive style*/
 106:..\..\..\lvgl\version_6.1.2\lvgl\src\lv_objx/lv_btn.h ****     LV_BTN_STYLE_INA,
 107:..\..\..\lvgl\version_6.1.2\lvgl\src\lv_objx/lv_btn.h **** };
 108:..\..\..\lvgl\version_6.1.2\lvgl\src\lv_objx/lv_btn.h **** typedef uint8_t lv_btn_style_t;
 109:..\..\..\lvgl\version_6.1.2\lvgl\src\lv_objx/lv_btn.h **** 
 110:..\..\..\lvgl\version_6.1.2\lvgl\src\lv_objx/lv_btn.h **** /**********************
 111:..\..\..\lvgl\version_6.1.2\lvgl\src\lv_objx/lv_btn.h ****  * GLOBAL PROTOTYPES
 112:..\..\..\lvgl\version_6.1.2\lvgl\src\lv_objx/lv_btn.h ****  **********************/
 113:..\..\..\lvgl\version_6.1.2\lvgl\src\lv_objx/lv_btn.h **** 
 114:..\..\..\lvgl\version_6.1.2\lvgl\src\lv_objx/lv_btn.h **** /**
 115:..\..\..\lvgl\version_6.1.2\lvgl\src\lv_objx/lv_btn.h ****  * Create a button object
 116:..\..\..\lvgl\version_6.1.2\lvgl\src\lv_objx/lv_btn.h ****  * @param par pointer to an object, it will be the parent of the new button
 117:..\..\..\lvgl\version_6.1.2\lvgl\src\lv_objx/lv_btn.h ****  * @param copy pointer to a button object, if not NULL then the new object will be copied from it
 118:..\..\..\lvgl\version_6.1.2\lvgl\src\lv_objx/lv_btn.h ****  * @return pointer to the created button
 119:..\..\..\lvgl\version_6.1.2\lvgl\src\lv_objx/lv_btn.h ****  */
 120:..\..\..\lvgl\version_6.1.2\lvgl\src\lv_objx/lv_btn.h **** lv_obj_t * lv_btn_create(lv_obj_t * par, const lv_obj_t * copy);
 121:..\..\..\lvgl\version_6.1.2\lvgl\src\lv_objx/lv_btn.h **** 
 122:..\..\..\lvgl\version_6.1.2\lvgl\src\lv_objx/lv_btn.h **** /*=====================
 123:..\..\..\lvgl\version_6.1.2\lvgl\src\lv_objx/lv_btn.h ****  * Setter functions
 124:..\..\..\lvgl\version_6.1.2\lvgl\src\lv_objx/lv_btn.h ****  *====================*/
 125:..\..\..\lvgl\version_6.1.2\lvgl\src\lv_objx/lv_btn.h **** 
 126:..\..\..\lvgl\version_6.1.2\lvgl\src\lv_objx/lv_btn.h **** /**
 127:..\..\..\lvgl\version_6.1.2\lvgl\src\lv_objx/lv_btn.h ****  * Enable the toggled states. On release the button will change from/to toggled state.
 128:..\..\..\lvgl\version_6.1.2\lvgl\src\lv_objx/lv_btn.h ****  * @param btn pointer to a button object
 129:..\..\..\lvgl\version_6.1.2\lvgl\src\lv_objx/lv_btn.h ****  * @param tgl true: enable toggled states, false: disable
 130:..\..\..\lvgl\version_6.1.2\lvgl\src\lv_objx/lv_btn.h ****  */
 131:..\..\..\lvgl\version_6.1.2\lvgl\src\lv_objx/lv_btn.h **** void lv_btn_set_toggle(lv_obj_t * btn, bool tgl);
 132:..\..\..\lvgl\version_6.1.2\lvgl\src\lv_objx/lv_btn.h **** 
 133:..\..\..\lvgl\version_6.1.2\lvgl\src\lv_objx/lv_btn.h **** /**
 134:..\..\..\lvgl\version_6.1.2\lvgl\src\lv_objx/lv_btn.h ****  * Set the state of the button
 135:..\..\..\lvgl\version_6.1.2\lvgl\src\lv_objx/lv_btn.h ****  * @param btn pointer to a button object
 136:..\..\..\lvgl\version_6.1.2\lvgl\src\lv_objx/lv_btn.h ****  * @param state the new state of the button (from lv_btn_state_t enum)
 137:..\..\..\lvgl\version_6.1.2\lvgl\src\lv_objx/lv_btn.h ****  */
 138:..\..\..\lvgl\version_6.1.2\lvgl\src\lv_objx/lv_btn.h **** void lv_btn_set_state(lv_obj_t * btn, lv_btn_state_t state);
 139:..\..\..\lvgl\version_6.1.2\lvgl\src\lv_objx/lv_btn.h **** 
 140:..\..\..\lvgl\version_6.1.2\lvgl\src\lv_objx/lv_btn.h **** /**
 141:..\..\..\lvgl\version_6.1.2\lvgl\src\lv_objx/lv_btn.h ****  * Toggle the state of the button (ON->OFF, OFF->ON)
 142:..\..\..\lvgl\version_6.1.2\lvgl\src\lv_objx/lv_btn.h ****  * @param btn pointer to a button object
 143:..\..\..\lvgl\version_6.1.2\lvgl\src\lv_objx/lv_btn.h ****  */
 144:..\..\..\lvgl\version_6.1.2\lvgl\src\lv_objx/lv_btn.h **** void lv_btn_toggle(lv_obj_t * btn);
ARM GAS  C:\Users\tmj32\AppData\Local\Temp\ccKhIVes.s 			page 4


 145:..\..\..\lvgl\version_6.1.2\lvgl\src\lv_objx/lv_btn.h **** 
 146:..\..\..\lvgl\version_6.1.2\lvgl\src\lv_objx/lv_btn.h **** /**
 147:..\..\..\lvgl\version_6.1.2\lvgl\src\lv_objx/lv_btn.h ****  * Set the layout on a button
 148:..\..\..\lvgl\version_6.1.2\lvgl\src\lv_objx/lv_btn.h ****  * @param btn pointer to a button object
 149:..\..\..\lvgl\version_6.1.2\lvgl\src\lv_objx/lv_btn.h ****  * @param layout a layout from 'lv_cont_layout_t'
 150:..\..\..\lvgl\version_6.1.2\lvgl\src\lv_objx/lv_btn.h ****  */
 151:..\..\..\lvgl\version_6.1.2\lvgl\src\lv_objx/lv_btn.h **** static inline void lv_btn_set_layout(lv_obj_t * btn, lv_layout_t layout)
 152:..\..\..\lvgl\version_6.1.2\lvgl\src\lv_objx/lv_btn.h **** {
  28              		.loc 1 152 0
  29              		.cfi_startproc
  30              		@ args = 0, pretend = 0, frame = 8
  31              		@ frame_needed = 1, uses_anonymous_args = 0
  32 0000 80B5     		push	{r7, lr}
  33              		.cfi_def_cfa_offset 8
  34              		.cfi_offset 7, -8
  35              		.cfi_offset 14, -4
  36 0002 82B0     		sub	sp, sp, #8
  37              		.cfi_def_cfa_offset 16
  38 0004 00AF     		add	r7, sp, #0
  39              		.cfi_def_cfa_register 7
  40 0006 7860     		str	r0, [r7, #4]
  41 0008 0B46     		mov	r3, r1
  42 000a FB70     		strb	r3, [r7, #3]
 153:..\..\..\lvgl\version_6.1.2\lvgl\src\lv_objx/lv_btn.h ****     lv_cont_set_layout(btn, layout);
  43              		.loc 1 153 0
  44 000c FB78     		ldrb	r3, [r7, #3]	@ zero_extendqisi2
  45 000e 1946     		mov	r1, r3
  46 0010 7868     		ldr	r0, [r7, #4]
  47 0012 FFF7FEFF 		bl	lv_cont_set_layout
 154:..\..\..\lvgl\version_6.1.2\lvgl\src\lv_objx/lv_btn.h **** }
  48              		.loc 1 154 0
  49 0016 00BF     		nop
  50 0018 0837     		adds	r7, r7, #8
  51              		.cfi_def_cfa_offset 8
  52 001a BD46     		mov	sp, r7
  53              		.cfi_def_cfa_register 13
  54              		@ sp needed
  55 001c 80BD     		pop	{r7, pc}
  56              		.cfi_endproc
  57              	.LFE35:
  58              		.size	lv_btn_set_layout, .-lv_btn_set_layout
  59 001e 00BF     		.bss
  60              		.align	2
  61              	ancestor_signal:
  62 0000 00000000 		.space	4
  63              		.align	2
  64              	ancestor_design:
  65 0004 00000000 		.space	4
  66              		.section	.text.lv_btn_create,"ax",%progbits
  67              		.align	2
  68              		.global	lv_btn_create
  69              		.thumb
  70              		.thumb_func
  71              		.type	lv_btn_create, %function
  72              	lv_btn_create:
  73              	.LFB44:
  74              		.file 2 "..\\..\\..\\lvgl\\version_6.1.2\\lvgl\\src\\lv_objx\\lv_btn.c"
ARM GAS  C:\Users\tmj32\AppData\Local\Temp\ccKhIVes.s 			page 5


   1:..\..\..\lvgl\version_6.1.2\lvgl\src\lv_objx/lv_btn.c **** /**
   2:..\..\..\lvgl\version_6.1.2\lvgl\src\lv_objx/lv_btn.c ****  * @file lv_btn.c
   3:..\..\..\lvgl\version_6.1.2\lvgl\src\lv_objx/lv_btn.c ****  *
   4:..\..\..\lvgl\version_6.1.2\lvgl\src\lv_objx/lv_btn.c ****  */
   5:..\..\..\lvgl\version_6.1.2\lvgl\src\lv_objx/lv_btn.c **** 
   6:..\..\..\lvgl\version_6.1.2\lvgl\src\lv_objx/lv_btn.c **** /*********************
   7:..\..\..\lvgl\version_6.1.2\lvgl\src\lv_objx/lv_btn.c ****  *      INCLUDES
   8:..\..\..\lvgl\version_6.1.2\lvgl\src\lv_objx/lv_btn.c ****  *********************/
   9:..\..\..\lvgl\version_6.1.2\lvgl\src\lv_objx/lv_btn.c **** 
  10:..\..\..\lvgl\version_6.1.2\lvgl\src\lv_objx/lv_btn.c **** #include "lv_btn.h"
  11:..\..\..\lvgl\version_6.1.2\lvgl\src\lv_objx/lv_btn.c **** #if LV_USE_BTN != 0
  12:..\..\..\lvgl\version_6.1.2\lvgl\src\lv_objx/lv_btn.c **** 
  13:..\..\..\lvgl\version_6.1.2\lvgl\src\lv_objx/lv_btn.c **** #include <string.h>
  14:..\..\..\lvgl\version_6.1.2\lvgl\src\lv_objx/lv_btn.c **** #include "../lv_core/lv_group.h"
  15:..\..\..\lvgl\version_6.1.2\lvgl\src\lv_objx/lv_btn.c **** #include "../lv_core/lv_debug.h"
  16:..\..\..\lvgl\version_6.1.2\lvgl\src\lv_objx/lv_btn.c **** #include "../lv_draw/lv_draw.h"
  17:..\..\..\lvgl\version_6.1.2\lvgl\src\lv_objx/lv_btn.c **** #include "../lv_themes/lv_theme.h"
  18:..\..\..\lvgl\version_6.1.2\lvgl\src\lv_objx/lv_btn.c **** #include "../lv_misc/lv_area.h"
  19:..\..\..\lvgl\version_6.1.2\lvgl\src\lv_objx/lv_btn.c **** #include "../lv_misc/lv_color.h"
  20:..\..\..\lvgl\version_6.1.2\lvgl\src\lv_objx/lv_btn.c **** #include "../lv_misc/lv_math.h"
  21:..\..\..\lvgl\version_6.1.2\lvgl\src\lv_objx/lv_btn.c **** 
  22:..\..\..\lvgl\version_6.1.2\lvgl\src\lv_objx/lv_btn.c **** /*********************
  23:..\..\..\lvgl\version_6.1.2\lvgl\src\lv_objx/lv_btn.c ****  *      DEFINES
  24:..\..\..\lvgl\version_6.1.2\lvgl\src\lv_objx/lv_btn.c ****  *********************/
  25:..\..\..\lvgl\version_6.1.2\lvgl\src\lv_objx/lv_btn.c **** #define LV_OBJX_NAME "lv_btn"
  26:..\..\..\lvgl\version_6.1.2\lvgl\src\lv_objx/lv_btn.c **** #define LV_BTN_INK_VALUE_MAX 256
  27:..\..\..\lvgl\version_6.1.2\lvgl\src\lv_objx/lv_btn.c **** #define LV_BTN_INK_VALUE_MAX_SHIFT 8
  28:..\..\..\lvgl\version_6.1.2\lvgl\src\lv_objx/lv_btn.c **** 
  29:..\..\..\lvgl\version_6.1.2\lvgl\src\lv_objx/lv_btn.c **** /**********************
  30:..\..\..\lvgl\version_6.1.2\lvgl\src\lv_objx/lv_btn.c ****  *      TYPEDEFS
  31:..\..\..\lvgl\version_6.1.2\lvgl\src\lv_objx/lv_btn.c ****  **********************/
  32:..\..\..\lvgl\version_6.1.2\lvgl\src\lv_objx/lv_btn.c **** 
  33:..\..\..\lvgl\version_6.1.2\lvgl\src\lv_objx/lv_btn.c **** /**********************
  34:..\..\..\lvgl\version_6.1.2\lvgl\src\lv_objx/lv_btn.c ****  *  STATIC PROTOTYPES
  35:..\..\..\lvgl\version_6.1.2\lvgl\src\lv_objx/lv_btn.c ****  **********************/
  36:..\..\..\lvgl\version_6.1.2\lvgl\src\lv_objx/lv_btn.c **** static bool lv_btn_design(lv_obj_t * btn, const lv_area_t * mask, lv_design_mode_t mode);
  37:..\..\..\lvgl\version_6.1.2\lvgl\src\lv_objx/lv_btn.c **** static lv_res_t lv_btn_signal(lv_obj_t * btn, lv_signal_t sign, void * param);
  38:..\..\..\lvgl\version_6.1.2\lvgl\src\lv_objx/lv_btn.c **** 
  39:..\..\..\lvgl\version_6.1.2\lvgl\src\lv_objx/lv_btn.c **** #if LV_USE_ANIMATION && LV_BTN_INK_EFFECT
  40:..\..\..\lvgl\version_6.1.2\lvgl\src\lv_objx/lv_btn.c **** static void lv_btn_ink_effect_anim(lv_obj_t * btn, lv_anim_value_t val);
  41:..\..\..\lvgl\version_6.1.2\lvgl\src\lv_objx/lv_btn.c **** static void lv_btn_ink_effect_anim_ready(lv_anim_t * a);
  42:..\..\..\lvgl\version_6.1.2\lvgl\src\lv_objx/lv_btn.c **** #endif
  43:..\..\..\lvgl\version_6.1.2\lvgl\src\lv_objx/lv_btn.c **** 
  44:..\..\..\lvgl\version_6.1.2\lvgl\src\lv_objx/lv_btn.c **** /**********************
  45:..\..\..\lvgl\version_6.1.2\lvgl\src\lv_objx/lv_btn.c ****  *  STATIC VARIABLES
  46:..\..\..\lvgl\version_6.1.2\lvgl\src\lv_objx/lv_btn.c ****  **********************/
  47:..\..\..\lvgl\version_6.1.2\lvgl\src\lv_objx/lv_btn.c **** static lv_signal_cb_t ancestor_signal;
  48:..\..\..\lvgl\version_6.1.2\lvgl\src\lv_objx/lv_btn.c **** static lv_design_cb_t ancestor_design;
  49:..\..\..\lvgl\version_6.1.2\lvgl\src\lv_objx/lv_btn.c **** 
  50:..\..\..\lvgl\version_6.1.2\lvgl\src\lv_objx/lv_btn.c **** #if LV_USE_ANIMATION && LV_BTN_INK_EFFECT
  51:..\..\..\lvgl\version_6.1.2\lvgl\src\lv_objx/lv_btn.c **** static lv_coord_t ink_act_value;
  52:..\..\..\lvgl\version_6.1.2\lvgl\src\lv_objx/lv_btn.c **** static lv_obj_t * ink_obj;
  53:..\..\..\lvgl\version_6.1.2\lvgl\src\lv_objx/lv_btn.c **** static lv_btn_state_t ink_bg_state;
  54:..\..\..\lvgl\version_6.1.2\lvgl\src\lv_objx/lv_btn.c **** static lv_btn_state_t ink_top_state;
  55:..\..\..\lvgl\version_6.1.2\lvgl\src\lv_objx/lv_btn.c **** static bool ink_ready;
  56:..\..\..\lvgl\version_6.1.2\lvgl\src\lv_objx/lv_btn.c **** static bool ink_playback;
  57:..\..\..\lvgl\version_6.1.2\lvgl\src\lv_objx/lv_btn.c **** static lv_point_t ink_point;
ARM GAS  C:\Users\tmj32\AppData\Local\Temp\ccKhIVes.s 			page 6


  58:..\..\..\lvgl\version_6.1.2\lvgl\src\lv_objx/lv_btn.c **** #endif
  59:..\..\..\lvgl\version_6.1.2\lvgl\src\lv_objx/lv_btn.c **** 
  60:..\..\..\lvgl\version_6.1.2\lvgl\src\lv_objx/lv_btn.c **** /**********************
  61:..\..\..\lvgl\version_6.1.2\lvgl\src\lv_objx/lv_btn.c ****  *      MACROS
  62:..\..\..\lvgl\version_6.1.2\lvgl\src\lv_objx/lv_btn.c ****  **********************/
  63:..\..\..\lvgl\version_6.1.2\lvgl\src\lv_objx/lv_btn.c **** 
  64:..\..\..\lvgl\version_6.1.2\lvgl\src\lv_objx/lv_btn.c **** /**********************
  65:..\..\..\lvgl\version_6.1.2\lvgl\src\lv_objx/lv_btn.c ****  *   GLOBAL FUNCTIONS
  66:..\..\..\lvgl\version_6.1.2\lvgl\src\lv_objx/lv_btn.c ****  **********************/
  67:..\..\..\lvgl\version_6.1.2\lvgl\src\lv_objx/lv_btn.c **** 
  68:..\..\..\lvgl\version_6.1.2\lvgl\src\lv_objx/lv_btn.c **** /**
  69:..\..\..\lvgl\version_6.1.2\lvgl\src\lv_objx/lv_btn.c ****  * Create a button object
  70:..\..\..\lvgl\version_6.1.2\lvgl\src\lv_objx/lv_btn.c ****  * @param par pointer to an object, it will be the parent of the new button
  71:..\..\..\lvgl\version_6.1.2\lvgl\src\lv_objx/lv_btn.c ****  * @param copy pointer to a button object, if not NULL then the new object will be copied from it
  72:..\..\..\lvgl\version_6.1.2\lvgl\src\lv_objx/lv_btn.c ****  * @return pointer to the created button
  73:..\..\..\lvgl\version_6.1.2\lvgl\src\lv_objx/lv_btn.c ****  */
  74:..\..\..\lvgl\version_6.1.2\lvgl\src\lv_objx/lv_btn.c **** lv_obj_t * lv_btn_create(lv_obj_t * par, const lv_obj_t * copy)
  75:..\..\..\lvgl\version_6.1.2\lvgl\src\lv_objx/lv_btn.c **** {
  75              		.loc 2 75 0
  76              		.cfi_startproc
  77              		@ args = 0, pretend = 0, frame = 24
  78              		@ frame_needed = 1, uses_anonymous_args = 0
  79 0000 80B5     		push	{r7, lr}
  80              		.cfi_def_cfa_offset 8
  81              		.cfi_offset 7, -8
  82              		.cfi_offset 14, -4
  83 0002 86B0     		sub	sp, sp, #24
  84              		.cfi_def_cfa_offset 32
  85 0004 00AF     		add	r7, sp, #0
  86              		.cfi_def_cfa_register 7
  87 0006 7860     		str	r0, [r7, #4]
  88 0008 3960     		str	r1, [r7]
  76:..\..\..\lvgl\version_6.1.2\lvgl\src\lv_objx/lv_btn.c ****     LV_LOG_TRACE("button create started");
  77:..\..\..\lvgl\version_6.1.2\lvgl\src\lv_objx/lv_btn.c **** 
  78:..\..\..\lvgl\version_6.1.2\lvgl\src\lv_objx/lv_btn.c ****     lv_obj_t * new_btn;
  79:..\..\..\lvgl\version_6.1.2\lvgl\src\lv_objx/lv_btn.c **** 
  80:..\..\..\lvgl\version_6.1.2\lvgl\src\lv_objx/lv_btn.c ****     new_btn = lv_cont_create(par, copy);
  89              		.loc 2 80 0
  90 000a 3968     		ldr	r1, [r7]
  91 000c 7868     		ldr	r0, [r7, #4]
  92 000e FFF7FEFF 		bl	lv_cont_create
  93 0012 7861     		str	r0, [r7, #20]
  81:..\..\..\lvgl\version_6.1.2\lvgl\src\lv_objx/lv_btn.c ****     LV_ASSERT_MEM(new_btn);
  82:..\..\..\lvgl\version_6.1.2\lvgl\src\lv_objx/lv_btn.c ****     if(new_btn == NULL) return NULL;
  94              		.loc 2 82 0
  95 0014 7B69     		ldr	r3, [r7, #20]
  96 0016 002B     		cmp	r3, #0
  97 0018 01D1     		bne	.L3
  98              		.loc 2 82 0 is_stmt 0 discriminator 1
  99 001a 0023     		movs	r3, #0
 100 001c A1E0     		b	.L4
 101              	.L3:
  83:..\..\..\lvgl\version_6.1.2\lvgl\src\lv_objx/lv_btn.c **** 
  84:..\..\..\lvgl\version_6.1.2\lvgl\src\lv_objx/lv_btn.c ****     if(ancestor_signal == NULL) ancestor_signal = lv_obj_get_signal_cb(new_btn);
 102              		.loc 2 84 0 is_stmt 1
 103 001e 534B     		ldr	r3, .L13
 104 0020 1B68     		ldr	r3, [r3]
ARM GAS  C:\Users\tmj32\AppData\Local\Temp\ccKhIVes.s 			page 7


 105 0022 002B     		cmp	r3, #0
 106 0024 05D1     		bne	.L5
 107              		.loc 2 84 0 is_stmt 0 discriminator 1
 108 0026 7869     		ldr	r0, [r7, #20]
 109 0028 FFF7FEFF 		bl	lv_obj_get_signal_cb
 110 002c 0246     		mov	r2, r0
 111 002e 4F4B     		ldr	r3, .L13
 112 0030 1A60     		str	r2, [r3]
 113              	.L5:
  85:..\..\..\lvgl\version_6.1.2\lvgl\src\lv_objx/lv_btn.c ****     if(ancestor_design == NULL) ancestor_design = lv_obj_get_design_cb(new_btn);
 114              		.loc 2 85 0 is_stmt 1
 115 0032 4F4B     		ldr	r3, .L13+4
 116 0034 1B68     		ldr	r3, [r3]
 117 0036 002B     		cmp	r3, #0
 118 0038 05D1     		bne	.L6
 119              		.loc 2 85 0 is_stmt 0 discriminator 1
 120 003a 7869     		ldr	r0, [r7, #20]
 121 003c FFF7FEFF 		bl	lv_obj_get_design_cb
 122 0040 0246     		mov	r2, r0
 123 0042 4B4B     		ldr	r3, .L13+4
 124 0044 1A60     		str	r2, [r3]
 125              	.L6:
  86:..\..\..\lvgl\version_6.1.2\lvgl\src\lv_objx/lv_btn.c **** 
  87:..\..\..\lvgl\version_6.1.2\lvgl\src\lv_objx/lv_btn.c ****     /*Allocate the extended data*/
  88:..\..\..\lvgl\version_6.1.2\lvgl\src\lv_objx/lv_btn.c ****     lv_btn_ext_t * ext = lv_obj_allocate_ext_attr(new_btn, sizeof(lv_btn_ext_t));
 126              		.loc 2 88 0 is_stmt 1
 127 0046 1C21     		movs	r1, #28
 128 0048 7869     		ldr	r0, [r7, #20]
 129 004a FFF7FEFF 		bl	lv_obj_allocate_ext_attr
 130 004e 3861     		str	r0, [r7, #16]
  89:..\..\..\lvgl\version_6.1.2\lvgl\src\lv_objx/lv_btn.c ****     LV_ASSERT_MEM(ext);
  90:..\..\..\lvgl\version_6.1.2\lvgl\src\lv_objx/lv_btn.c ****     if(ext == NULL) return NULL;
 131              		.loc 2 90 0
 132 0050 3B69     		ldr	r3, [r7, #16]
 133 0052 002B     		cmp	r3, #0
 134 0054 01D1     		bne	.L7
 135              		.loc 2 90 0 is_stmt 0 discriminator 1
 136 0056 0023     		movs	r3, #0
 137 0058 83E0     		b	.L4
 138              	.L7:
  91:..\..\..\lvgl\version_6.1.2\lvgl\src\lv_objx/lv_btn.c **** 
  92:..\..\..\lvgl\version_6.1.2\lvgl\src\lv_objx/lv_btn.c ****     ext->state = LV_BTN_STATE_REL;
 139              		.loc 2 92 0 is_stmt 1
 140 005a 3A69     		ldr	r2, [r7, #16]
 141 005c 137E     		ldrb	r3, [r2, #24]
 142 005e 6FF30203 		bfc	r3, #0, #3
 143 0062 1376     		strb	r3, [r2, #24]
  93:..\..\..\lvgl\version_6.1.2\lvgl\src\lv_objx/lv_btn.c **** 
  94:..\..\..\lvgl\version_6.1.2\lvgl\src\lv_objx/lv_btn.c ****     ext->styles[LV_BTN_STATE_REL]     = &lv_style_btn_rel;
 144              		.loc 2 94 0
 145 0064 3B69     		ldr	r3, [r7, #16]
 146 0066 434A     		ldr	r2, .L13+8
 147 0068 5A60     		str	r2, [r3, #4]
  95:..\..\..\lvgl\version_6.1.2\lvgl\src\lv_objx/lv_btn.c ****     ext->styles[LV_BTN_STATE_PR]      = &lv_style_btn_pr;
 148              		.loc 2 95 0
 149 006a 3B69     		ldr	r3, [r7, #16]
 150 006c 424A     		ldr	r2, .L13+12
ARM GAS  C:\Users\tmj32\AppData\Local\Temp\ccKhIVes.s 			page 8


 151 006e 9A60     		str	r2, [r3, #8]
  96:..\..\..\lvgl\version_6.1.2\lvgl\src\lv_objx/lv_btn.c ****     ext->styles[LV_BTN_STATE_TGL_REL] = &lv_style_btn_tgl_rel;
 152              		.loc 2 96 0
 153 0070 3B69     		ldr	r3, [r7, #16]
 154 0072 424A     		ldr	r2, .L13+16
 155 0074 DA60     		str	r2, [r3, #12]
  97:..\..\..\lvgl\version_6.1.2\lvgl\src\lv_objx/lv_btn.c ****     ext->styles[LV_BTN_STATE_TGL_PR]  = &lv_style_btn_tgl_pr;
 156              		.loc 2 97 0
 157 0076 3B69     		ldr	r3, [r7, #16]
 158 0078 414A     		ldr	r2, .L13+20
 159 007a 1A61     		str	r2, [r3, #16]
  98:..\..\..\lvgl\version_6.1.2\lvgl\src\lv_objx/lv_btn.c ****     ext->styles[LV_BTN_STATE_INA]     = &lv_style_btn_ina;
 160              		.loc 2 98 0
 161 007c 3B69     		ldr	r3, [r7, #16]
 162 007e 414A     		ldr	r2, .L13+24
 163 0080 5A61     		str	r2, [r3, #20]
  99:..\..\..\lvgl\version_6.1.2\lvgl\src\lv_objx/lv_btn.c **** 
 100:..\..\..\lvgl\version_6.1.2\lvgl\src\lv_objx/lv_btn.c ****     ext->toggle = 0;
 164              		.loc 2 100 0
 165 0082 3A69     		ldr	r2, [r7, #16]
 166 0084 137E     		ldrb	r3, [r2, #24]
 167 0086 6FF3C303 		bfc	r3, #3, #1
 168 008a 1376     		strb	r3, [r2, #24]
 101:..\..\..\lvgl\version_6.1.2\lvgl\src\lv_objx/lv_btn.c **** #if LV_USE_ANIMATION && LV_BTN_INK_EFFECT
 102:..\..\..\lvgl\version_6.1.2\lvgl\src\lv_objx/lv_btn.c ****     ext->ink_in_time   = 0;
 103:..\..\..\lvgl\version_6.1.2\lvgl\src\lv_objx/lv_btn.c ****     ext->ink_wait_time = 0;
 104:..\..\..\lvgl\version_6.1.2\lvgl\src\lv_objx/lv_btn.c ****     ext->ink_out_time  = 0;
 105:..\..\..\lvgl\version_6.1.2\lvgl\src\lv_objx/lv_btn.c **** #endif
 106:..\..\..\lvgl\version_6.1.2\lvgl\src\lv_objx/lv_btn.c **** 
 107:..\..\..\lvgl\version_6.1.2\lvgl\src\lv_objx/lv_btn.c ****     lv_obj_set_signal_cb(new_btn, lv_btn_signal);
 169              		.loc 2 107 0
 170 008c 3E49     		ldr	r1, .L13+28
 171 008e 7869     		ldr	r0, [r7, #20]
 172 0090 FFF7FEFF 		bl	lv_obj_set_signal_cb
 108:..\..\..\lvgl\version_6.1.2\lvgl\src\lv_objx/lv_btn.c ****     lv_obj_set_design_cb(new_btn, lv_btn_design);
 173              		.loc 2 108 0
 174 0094 3D49     		ldr	r1, .L13+32
 175 0096 7869     		ldr	r0, [r7, #20]
 176 0098 FFF7FEFF 		bl	lv_obj_set_design_cb
 109:..\..\..\lvgl\version_6.1.2\lvgl\src\lv_objx/lv_btn.c **** 
 110:..\..\..\lvgl\version_6.1.2\lvgl\src\lv_objx/lv_btn.c ****     /*If no copy do the basic initialization*/
 111:..\..\..\lvgl\version_6.1.2\lvgl\src\lv_objx/lv_btn.c ****     if(copy == NULL) {
 177              		.loc 2 111 0
 178 009c 3B68     		ldr	r3, [r7]
 179 009e 002B     		cmp	r3, #0
 180 00a0 3BD1     		bne	.L8
 181              	.LBB2:
 112:..\..\..\lvgl\version_6.1.2\lvgl\src\lv_objx/lv_btn.c ****         /*Set layout if the button is not a screen*/
 113:..\..\..\lvgl\version_6.1.2\lvgl\src\lv_objx/lv_btn.c ****         if(par != NULL) {
 182              		.loc 2 113 0
 183 00a2 7B68     		ldr	r3, [r7, #4]
 184 00a4 002B     		cmp	r3, #0
 185 00a6 03D0     		beq	.L9
 114:..\..\..\lvgl\version_6.1.2\lvgl\src\lv_objx/lv_btn.c ****             lv_btn_set_layout(new_btn, LV_LAYOUT_CENTER);
 186              		.loc 2 114 0
 187 00a8 0121     		movs	r1, #1
 188 00aa 7869     		ldr	r0, [r7, #20]
ARM GAS  C:\Users\tmj32\AppData\Local\Temp\ccKhIVes.s 			page 9


 189 00ac FFF7FEFF 		bl	lv_btn_set_layout
 190              	.L9:
 115:..\..\..\lvgl\version_6.1.2\lvgl\src\lv_objx/lv_btn.c ****         }
 116:..\..\..\lvgl\version_6.1.2\lvgl\src\lv_objx/lv_btn.c **** 
 117:..\..\..\lvgl\version_6.1.2\lvgl\src\lv_objx/lv_btn.c ****         lv_obj_set_click(new_btn, true); /*Be sure the button is clickable*/
 191              		.loc 2 117 0
 192 00b0 0121     		movs	r1, #1
 193 00b2 7869     		ldr	r0, [r7, #20]
 194 00b4 FFF7FEFF 		bl	lv_obj_set_click
 118:..\..\..\lvgl\version_6.1.2\lvgl\src\lv_objx/lv_btn.c **** 
 119:..\..\..\lvgl\version_6.1.2\lvgl\src\lv_objx/lv_btn.c ****         /*Set the default styles*/
 120:..\..\..\lvgl\version_6.1.2\lvgl\src\lv_objx/lv_btn.c ****         lv_theme_t * th = lv_theme_get_current();
 195              		.loc 2 120 0
 196 00b8 FFF7FEFF 		bl	lv_theme_get_current
 197 00bc F860     		str	r0, [r7, #12]
 121:..\..\..\lvgl\version_6.1.2\lvgl\src\lv_objx/lv_btn.c ****         if(th) {
 198              		.loc 2 121 0
 199 00be FB68     		ldr	r3, [r7, #12]
 200 00c0 002B     		cmp	r3, #0
 201 00c2 23D0     		beq	.L10
 122:..\..\..\lvgl\version_6.1.2\lvgl\src\lv_objx/lv_btn.c ****             lv_btn_set_style(new_btn, LV_BTN_STYLE_REL, th->style.btn.rel);
 202              		.loc 2 122 0
 203 00c4 FB68     		ldr	r3, [r7, #12]
 204 00c6 1B69     		ldr	r3, [r3, #16]
 205 00c8 1A46     		mov	r2, r3
 206 00ca 0021     		movs	r1, #0
 207 00cc 7869     		ldr	r0, [r7, #20]
 208 00ce FFF7FEFF 		bl	lv_btn_set_style
 123:..\..\..\lvgl\version_6.1.2\lvgl\src\lv_objx/lv_btn.c ****             lv_btn_set_style(new_btn, LV_BTN_STYLE_PR, th->style.btn.pr);
 209              		.loc 2 123 0
 210 00d2 FB68     		ldr	r3, [r7, #12]
 211 00d4 5B69     		ldr	r3, [r3, #20]
 212 00d6 1A46     		mov	r2, r3
 213 00d8 0121     		movs	r1, #1
 214 00da 7869     		ldr	r0, [r7, #20]
 215 00dc FFF7FEFF 		bl	lv_btn_set_style
 124:..\..\..\lvgl\version_6.1.2\lvgl\src\lv_objx/lv_btn.c ****             lv_btn_set_style(new_btn, LV_BTN_STYLE_TGL_REL, th->style.btn.tgl_rel);
 216              		.loc 2 124 0
 217 00e0 FB68     		ldr	r3, [r7, #12]
 218 00e2 9B69     		ldr	r3, [r3, #24]
 219 00e4 1A46     		mov	r2, r3
 220 00e6 0221     		movs	r1, #2
 221 00e8 7869     		ldr	r0, [r7, #20]
 222 00ea FFF7FEFF 		bl	lv_btn_set_style
 125:..\..\..\lvgl\version_6.1.2\lvgl\src\lv_objx/lv_btn.c ****             lv_btn_set_style(new_btn, LV_BTN_STYLE_TGL_PR, th->style.btn.tgl_pr);
 223              		.loc 2 125 0
 224 00ee FB68     		ldr	r3, [r7, #12]
 225 00f0 DB69     		ldr	r3, [r3, #28]
 226 00f2 1A46     		mov	r2, r3
 227 00f4 0321     		movs	r1, #3
 228 00f6 7869     		ldr	r0, [r7, #20]
 229 00f8 FFF7FEFF 		bl	lv_btn_set_style
 126:..\..\..\lvgl\version_6.1.2\lvgl\src\lv_objx/lv_btn.c ****             lv_btn_set_style(new_btn, LV_BTN_STYLE_INA, th->style.btn.ina);
 230              		.loc 2 126 0
 231 00fc FB68     		ldr	r3, [r7, #12]
 232 00fe 1B6A     		ldr	r3, [r3, #32]
 233 0100 1A46     		mov	r2, r3
ARM GAS  C:\Users\tmj32\AppData\Local\Temp\ccKhIVes.s 			page 10


 234 0102 0421     		movs	r1, #4
 235 0104 7869     		ldr	r0, [r7, #20]
 236 0106 FFF7FEFF 		bl	lv_btn_set_style
 237 010a 29E0     		b	.L12
 238              	.L10:
 127:..\..\..\lvgl\version_6.1.2\lvgl\src\lv_objx/lv_btn.c ****         } else {
 128:..\..\..\lvgl\version_6.1.2\lvgl\src\lv_objx/lv_btn.c ****             lv_obj_set_style(new_btn, ext->styles[LV_BTN_STATE_REL]);
 239              		.loc 2 128 0
 240 010c 3B69     		ldr	r3, [r7, #16]
 241 010e 5B68     		ldr	r3, [r3, #4]
 242 0110 1946     		mov	r1, r3
 243 0112 7869     		ldr	r0, [r7, #20]
 244 0114 FFF7FEFF 		bl	lv_obj_set_style
 245 0118 22E0     		b	.L12
 246              	.L8:
 247              	.LBE2:
 248              	.LBB3:
 129:..\..\..\lvgl\version_6.1.2\lvgl\src\lv_objx/lv_btn.c ****         }
 130:..\..\..\lvgl\version_6.1.2\lvgl\src\lv_objx/lv_btn.c ****     }
 131:..\..\..\lvgl\version_6.1.2\lvgl\src\lv_objx/lv_btn.c ****     /*Copy 'copy'*/
 132:..\..\..\lvgl\version_6.1.2\lvgl\src\lv_objx/lv_btn.c ****     else {
 133:..\..\..\lvgl\version_6.1.2\lvgl\src\lv_objx/lv_btn.c ****         lv_btn_ext_t * copy_ext = lv_obj_get_ext_attr(copy);
 249              		.loc 2 133 0
 250 011a 3868     		ldr	r0, [r7]
 251 011c FFF7FEFF 		bl	lv_obj_get_ext_attr
 252 0120 B860     		str	r0, [r7, #8]
 134:..\..\..\lvgl\version_6.1.2\lvgl\src\lv_objx/lv_btn.c ****         ext->state              = copy_ext->state;
 253              		.loc 2 134 0
 254 0122 BB68     		ldr	r3, [r7, #8]
 255 0124 1B7E     		ldrb	r3, [r3, #24]
 256 0126 C3F30203 		ubfx	r3, r3, #0, #3
 257 012a D9B2     		uxtb	r1, r3
 258 012c 3A69     		ldr	r2, [r7, #16]
 259 012e 137E     		ldrb	r3, [r2, #24]
 260 0130 61F30203 		bfi	r3, r1, #0, #3
 261 0134 1376     		strb	r3, [r2, #24]
 135:..\..\..\lvgl\version_6.1.2\lvgl\src\lv_objx/lv_btn.c ****         ext->toggle             = copy_ext->toggle;
 262              		.loc 2 135 0
 263 0136 BB68     		ldr	r3, [r7, #8]
 264 0138 1B7E     		ldrb	r3, [r3, #24]
 265 013a C3F3C003 		ubfx	r3, r3, #3, #1
 266 013e D9B2     		uxtb	r1, r3
 267 0140 3A69     		ldr	r2, [r7, #16]
 268 0142 137E     		ldrb	r3, [r2, #24]
 269 0144 61F3C303 		bfi	r3, r1, #3, #1
 270 0148 1376     		strb	r3, [r2, #24]
 136:..\..\..\lvgl\version_6.1.2\lvgl\src\lv_objx/lv_btn.c **** #if LV_USE_ANIMATION && LV_BTN_INK_EFFECT
 137:..\..\..\lvgl\version_6.1.2\lvgl\src\lv_objx/lv_btn.c ****         ext->ink_in_time   = copy_ext->ink_in_time;
 138:..\..\..\lvgl\version_6.1.2\lvgl\src\lv_objx/lv_btn.c ****         ext->ink_wait_time = copy_ext->ink_wait_time;
 139:..\..\..\lvgl\version_6.1.2\lvgl\src\lv_objx/lv_btn.c ****         ext->ink_out_time  = copy_ext->ink_out_time;
 140:..\..\..\lvgl\version_6.1.2\lvgl\src\lv_objx/lv_btn.c **** #endif
 141:..\..\..\lvgl\version_6.1.2\lvgl\src\lv_objx/lv_btn.c ****         memcpy((void*) ext->styles, copy_ext->styles, sizeof(ext->styles));
 271              		.loc 2 141 0
 272 014a 3B69     		ldr	r3, [r7, #16]
 273 014c 181D     		adds	r0, r3, #4
 274 014e BB68     		ldr	r3, [r7, #8]
 275 0150 0433     		adds	r3, r3, #4
ARM GAS  C:\Users\tmj32\AppData\Local\Temp\ccKhIVes.s 			page 11


 276 0152 1422     		movs	r2, #20
 277 0154 1946     		mov	r1, r3
 278 0156 FFF7FEFF 		bl	memcpy
 142:..\..\..\lvgl\version_6.1.2\lvgl\src\lv_objx/lv_btn.c **** 
 143:..\..\..\lvgl\version_6.1.2\lvgl\src\lv_objx/lv_btn.c ****         /*Refresh the style with new signal function*/
 144:..\..\..\lvgl\version_6.1.2\lvgl\src\lv_objx/lv_btn.c ****         lv_obj_refresh_style(new_btn);
 279              		.loc 2 144 0
 280 015a 7869     		ldr	r0, [r7, #20]
 281 015c FFF7FEFF 		bl	lv_obj_refresh_style
 282              	.L12:
 283              	.LBE3:
 145:..\..\..\lvgl\version_6.1.2\lvgl\src\lv_objx/lv_btn.c ****     }
 146:..\..\..\lvgl\version_6.1.2\lvgl\src\lv_objx/lv_btn.c **** 
 147:..\..\..\lvgl\version_6.1.2\lvgl\src\lv_objx/lv_btn.c ****     LV_LOG_INFO("button created");
 148:..\..\..\lvgl\version_6.1.2\lvgl\src\lv_objx/lv_btn.c **** 
 149:..\..\..\lvgl\version_6.1.2\lvgl\src\lv_objx/lv_btn.c ****     return new_btn;
 284              		.loc 2 149 0
 285 0160 7B69     		ldr	r3, [r7, #20]
 286              	.L4:
 150:..\..\..\lvgl\version_6.1.2\lvgl\src\lv_objx/lv_btn.c **** }
 287              		.loc 2 150 0
 288 0162 1846     		mov	r0, r3
 289 0164 1837     		adds	r7, r7, #24
 290              		.cfi_def_cfa_offset 8
 291 0166 BD46     		mov	sp, r7
 292              		.cfi_def_cfa_register 13
 293              		@ sp needed
 294 0168 80BD     		pop	{r7, pc}
 295              	.L14:
 296 016a 00BF     		.align	2
 297              	.L13:
 298 016c 00000000 		.word	ancestor_signal
 299 0170 04000000 		.word	ancestor_design
 300 0174 00000000 		.word	lv_style_btn_rel
 301 0178 00000000 		.word	lv_style_btn_pr
 302 017c 00000000 		.word	lv_style_btn_tgl_rel
 303 0180 00000000 		.word	lv_style_btn_tgl_pr
 304 0184 00000000 		.word	lv_style_btn_ina
 305 0188 00000000 		.word	lv_btn_signal
 306 018c 00000000 		.word	lv_btn_design
 307              		.cfi_endproc
 308              	.LFE44:
 309              		.size	lv_btn_create, .-lv_btn_create
 310              		.section	.text.lv_btn_set_toggle,"ax",%progbits
 311              		.align	2
 312              		.global	lv_btn_set_toggle
 313              		.thumb
 314              		.thumb_func
 315              		.type	lv_btn_set_toggle, %function
 316              	lv_btn_set_toggle:
 317              	.LFB45:
 151:..\..\..\lvgl\version_6.1.2\lvgl\src\lv_objx/lv_btn.c **** 
 152:..\..\..\lvgl\version_6.1.2\lvgl\src\lv_objx/lv_btn.c **** /*=====================
 153:..\..\..\lvgl\version_6.1.2\lvgl\src\lv_objx/lv_btn.c ****  * Setter functions
 154:..\..\..\lvgl\version_6.1.2\lvgl\src\lv_objx/lv_btn.c ****  *====================*/
 155:..\..\..\lvgl\version_6.1.2\lvgl\src\lv_objx/lv_btn.c **** 
 156:..\..\..\lvgl\version_6.1.2\lvgl\src\lv_objx/lv_btn.c **** /**
ARM GAS  C:\Users\tmj32\AppData\Local\Temp\ccKhIVes.s 			page 12


 157:..\..\..\lvgl\version_6.1.2\lvgl\src\lv_objx/lv_btn.c ****  * Enable the toggled states
 158:..\..\..\lvgl\version_6.1.2\lvgl\src\lv_objx/lv_btn.c ****  * @param btn pointer to a button object
 159:..\..\..\lvgl\version_6.1.2\lvgl\src\lv_objx/lv_btn.c ****  * @param tgl true: enable toggled states, false: disable
 160:..\..\..\lvgl\version_6.1.2\lvgl\src\lv_objx/lv_btn.c ****  */
 161:..\..\..\lvgl\version_6.1.2\lvgl\src\lv_objx/lv_btn.c **** void lv_btn_set_toggle(lv_obj_t * btn, bool tgl)
 162:..\..\..\lvgl\version_6.1.2\lvgl\src\lv_objx/lv_btn.c **** {
 318              		.loc 2 162 0
 319              		.cfi_startproc
 320              		@ args = 0, pretend = 0, frame = 16
 321              		@ frame_needed = 1, uses_anonymous_args = 0
 322 0000 80B5     		push	{r7, lr}
 323              		.cfi_def_cfa_offset 8
 324              		.cfi_offset 7, -8
 325              		.cfi_offset 14, -4
 326 0002 84B0     		sub	sp, sp, #16
 327              		.cfi_def_cfa_offset 24
 328 0004 00AF     		add	r7, sp, #0
 329              		.cfi_def_cfa_register 7
 330 0006 7860     		str	r0, [r7, #4]
 331 0008 0B46     		mov	r3, r1
 332 000a FB70     		strb	r3, [r7, #3]
 163:..\..\..\lvgl\version_6.1.2\lvgl\src\lv_objx/lv_btn.c ****     LV_ASSERT_OBJ(btn, LV_OBJX_NAME);
 164:..\..\..\lvgl\version_6.1.2\lvgl\src\lv_objx/lv_btn.c **** 
 165:..\..\..\lvgl\version_6.1.2\lvgl\src\lv_objx/lv_btn.c ****     lv_btn_ext_t * ext = lv_obj_get_ext_attr(btn);
 333              		.loc 2 165 0
 334 000c 7868     		ldr	r0, [r7, #4]
 335 000e FFF7FEFF 		bl	lv_obj_get_ext_attr
 336 0012 F860     		str	r0, [r7, #12]
 166:..\..\..\lvgl\version_6.1.2\lvgl\src\lv_objx/lv_btn.c **** 
 167:..\..\..\lvgl\version_6.1.2\lvgl\src\lv_objx/lv_btn.c ****     ext->toggle = tgl != false ? 1 : 0;
 337              		.loc 2 167 0
 338 0014 FB78     		ldrb	r3, [r7, #3]	@ zero_extendqisi2
 339 0016 03F00103 		and	r3, r3, #1
 340 001a D9B2     		uxtb	r1, r3
 341 001c FA68     		ldr	r2, [r7, #12]
 342 001e 137E     		ldrb	r3, [r2, #24]
 343 0020 61F3C303 		bfi	r3, r1, #3, #1
 344 0024 1376     		strb	r3, [r2, #24]
 168:..\..\..\lvgl\version_6.1.2\lvgl\src\lv_objx/lv_btn.c **** }
 345              		.loc 2 168 0
 346 0026 00BF     		nop
 347 0028 1037     		adds	r7, r7, #16
 348              		.cfi_def_cfa_offset 8
 349 002a BD46     		mov	sp, r7
 350              		.cfi_def_cfa_register 13
 351              		@ sp needed
 352 002c 80BD     		pop	{r7, pc}
 353              		.cfi_endproc
 354              	.LFE45:
 355              		.size	lv_btn_set_toggle, .-lv_btn_set_toggle
 356 002e 00BF     		.section	.text.lv_btn_set_state,"ax",%progbits
 357              		.align	2
 358              		.global	lv_btn_set_state
 359              		.thumb
 360              		.thumb_func
 361              		.type	lv_btn_set_state, %function
 362              	lv_btn_set_state:
ARM GAS  C:\Users\tmj32\AppData\Local\Temp\ccKhIVes.s 			page 13


 363              	.LFB46:
 169:..\..\..\lvgl\version_6.1.2\lvgl\src\lv_objx/lv_btn.c **** 
 170:..\..\..\lvgl\version_6.1.2\lvgl\src\lv_objx/lv_btn.c **** /**
 171:..\..\..\lvgl\version_6.1.2\lvgl\src\lv_objx/lv_btn.c ****  * Set the state of the button
 172:..\..\..\lvgl\version_6.1.2\lvgl\src\lv_objx/lv_btn.c ****  * @param btn pointer to a button object
 173:..\..\..\lvgl\version_6.1.2\lvgl\src\lv_objx/lv_btn.c ****  * @param state the new state of the button (from lv_btn_state_t enum)
 174:..\..\..\lvgl\version_6.1.2\lvgl\src\lv_objx/lv_btn.c ****  */
 175:..\..\..\lvgl\version_6.1.2\lvgl\src\lv_objx/lv_btn.c **** void lv_btn_set_state(lv_obj_t * btn, lv_btn_state_t state)
 176:..\..\..\lvgl\version_6.1.2\lvgl\src\lv_objx/lv_btn.c **** {
 364              		.loc 2 176 0
 365              		.cfi_startproc
 366              		@ args = 0, pretend = 0, frame = 16
 367              		@ frame_needed = 1, uses_anonymous_args = 0
 368 0000 80B5     		push	{r7, lr}
 369              		.cfi_def_cfa_offset 8
 370              		.cfi_offset 7, -8
 371              		.cfi_offset 14, -4
 372 0002 84B0     		sub	sp, sp, #16
 373              		.cfi_def_cfa_offset 24
 374 0004 00AF     		add	r7, sp, #0
 375              		.cfi_def_cfa_register 7
 376 0006 7860     		str	r0, [r7, #4]
 377 0008 0B46     		mov	r3, r1
 378 000a FB70     		strb	r3, [r7, #3]
 177:..\..\..\lvgl\version_6.1.2\lvgl\src\lv_objx/lv_btn.c ****     LV_ASSERT_OBJ(btn, LV_OBJX_NAME);
 178:..\..\..\lvgl\version_6.1.2\lvgl\src\lv_objx/lv_btn.c **** 
 179:..\..\..\lvgl\version_6.1.2\lvgl\src\lv_objx/lv_btn.c ****     lv_btn_ext_t * ext = lv_obj_get_ext_attr(btn);
 379              		.loc 2 179 0
 380 000c 7868     		ldr	r0, [r7, #4]
 381 000e FFF7FEFF 		bl	lv_obj_get_ext_attr
 382 0012 F860     		str	r0, [r7, #12]
 180:..\..\..\lvgl\version_6.1.2\lvgl\src\lv_objx/lv_btn.c ****     if(ext->state != state) {
 383              		.loc 2 180 0
 384 0014 FB68     		ldr	r3, [r7, #12]
 385 0016 1B7E     		ldrb	r3, [r3, #24]
 386 0018 C3F30203 		ubfx	r3, r3, #0, #3
 387 001c DBB2     		uxtb	r3, r3
 388 001e 1A46     		mov	r2, r3
 389 0020 FB78     		ldrb	r3, [r7, #3]	@ zero_extendqisi2
 390 0022 9A42     		cmp	r2, r3
 391 0024 11D0     		beq	.L18
 181:..\..\..\lvgl\version_6.1.2\lvgl\src\lv_objx/lv_btn.c ****         ext->state = state;
 392              		.loc 2 181 0
 393 0026 FB78     		ldrb	r3, [r7, #3]
 394 0028 03F00703 		and	r3, r3, #7
 395 002c D9B2     		uxtb	r1, r3
 396 002e FA68     		ldr	r2, [r7, #12]
 397 0030 137E     		ldrb	r3, [r2, #24]
 398 0032 61F30203 		bfi	r3, r1, #0, #3
 399 0036 1376     		strb	r3, [r2, #24]
 182:..\..\..\lvgl\version_6.1.2\lvgl\src\lv_objx/lv_btn.c ****         lv_obj_set_style(btn, ext->styles[state]);
 400              		.loc 2 182 0
 401 0038 FB78     		ldrb	r3, [r7, #3]	@ zero_extendqisi2
 402 003a FA68     		ldr	r2, [r7, #12]
 403 003c 9B00     		lsls	r3, r3, #2
 404 003e 1344     		add	r3, r3, r2
 405 0040 5B68     		ldr	r3, [r3, #4]
ARM GAS  C:\Users\tmj32\AppData\Local\Temp\ccKhIVes.s 			page 14


 406 0042 1946     		mov	r1, r3
 407 0044 7868     		ldr	r0, [r7, #4]
 408 0046 FFF7FEFF 		bl	lv_obj_set_style
 409              	.L18:
 183:..\..\..\lvgl\version_6.1.2\lvgl\src\lv_objx/lv_btn.c ****     }
 184:..\..\..\lvgl\version_6.1.2\lvgl\src\lv_objx/lv_btn.c **** }
 410              		.loc 2 184 0
 411 004a 00BF     		nop
 412 004c 1037     		adds	r7, r7, #16
 413              		.cfi_def_cfa_offset 8
 414 004e BD46     		mov	sp, r7
 415              		.cfi_def_cfa_register 13
 416              		@ sp needed
 417 0050 80BD     		pop	{r7, pc}
 418              		.cfi_endproc
 419              	.LFE46:
 420              		.size	lv_btn_set_state, .-lv_btn_set_state
 421 0052 00BF     		.section	.text.lv_btn_toggle,"ax",%progbits
 422              		.align	2
 423              		.global	lv_btn_toggle
 424              		.thumb
 425              		.thumb_func
 426              		.type	lv_btn_toggle, %function
 427              	lv_btn_toggle:
 428              	.LFB47:
 185:..\..\..\lvgl\version_6.1.2\lvgl\src\lv_objx/lv_btn.c **** 
 186:..\..\..\lvgl\version_6.1.2\lvgl\src\lv_objx/lv_btn.c **** /**
 187:..\..\..\lvgl\version_6.1.2\lvgl\src\lv_objx/lv_btn.c ****  * Toggle the state of the button (ON->OFF, OFF->ON)
 188:..\..\..\lvgl\version_6.1.2\lvgl\src\lv_objx/lv_btn.c ****  * @param btn pointer to a button object
 189:..\..\..\lvgl\version_6.1.2\lvgl\src\lv_objx/lv_btn.c ****  */
 190:..\..\..\lvgl\version_6.1.2\lvgl\src\lv_objx/lv_btn.c **** void lv_btn_toggle(lv_obj_t * btn)
 191:..\..\..\lvgl\version_6.1.2\lvgl\src\lv_objx/lv_btn.c **** {
 429              		.loc 2 191 0
 430              		.cfi_startproc
 431              		@ args = 0, pretend = 0, frame = 16
 432              		@ frame_needed = 1, uses_anonymous_args = 0
 433 0000 80B5     		push	{r7, lr}
 434              		.cfi_def_cfa_offset 8
 435              		.cfi_offset 7, -8
 436              		.cfi_offset 14, -4
 437 0002 84B0     		sub	sp, sp, #16
 438              		.cfi_def_cfa_offset 24
 439 0004 00AF     		add	r7, sp, #0
 440              		.cfi_def_cfa_register 7
 441 0006 7860     		str	r0, [r7, #4]
 192:..\..\..\lvgl\version_6.1.2\lvgl\src\lv_objx/lv_btn.c ****     LV_ASSERT_OBJ(btn, LV_OBJX_NAME);
 193:..\..\..\lvgl\version_6.1.2\lvgl\src\lv_objx/lv_btn.c **** 
 194:..\..\..\lvgl\version_6.1.2\lvgl\src\lv_objx/lv_btn.c ****     lv_btn_ext_t * ext = lv_obj_get_ext_attr(btn);
 442              		.loc 2 194 0
 443 0008 7868     		ldr	r0, [r7, #4]
 444 000a FFF7FEFF 		bl	lv_obj_get_ext_attr
 445 000e F860     		str	r0, [r7, #12]
 195:..\..\..\lvgl\version_6.1.2\lvgl\src\lv_objx/lv_btn.c ****     switch(ext->state) {
 446              		.loc 2 195 0
 447 0010 FB68     		ldr	r3, [r7, #12]
 448 0012 1B7E     		ldrb	r3, [r3, #24]
 449 0014 C3F30203 		ubfx	r3, r3, #0, #3
ARM GAS  C:\Users\tmj32\AppData\Local\Temp\ccKhIVes.s 			page 15


 450 0018 DBB2     		uxtb	r3, r3
 451 001a 032B     		cmp	r3, #3
 452 001c 1ED8     		bhi	.L27
 453 001e 01A2     		adr	r2, .L22
 454 0020 52F823F0 		ldr	pc, [r2, r3, lsl #2]
 455              		.p2align 2
 456              	.L22:
 457 0024 35000000 		.word	.L21+1
 458 0028 3F000000 		.word	.L23+1
 459 002c 49000000 		.word	.L24+1
 460 0030 53000000 		.word	.L25+1
 461              		.p2align 1
 462              	.L21:
 196:..\..\..\lvgl\version_6.1.2\lvgl\src\lv_objx/lv_btn.c ****         case LV_BTN_STATE_REL: lv_btn_set_state(btn, LV_BTN_STATE_TGL_REL); break;
 463              		.loc 2 196 0
 464 0034 0221     		movs	r1, #2
 465 0036 7868     		ldr	r0, [r7, #4]
 466 0038 FFF7FEFF 		bl	lv_btn_set_state
 467 003c 0FE0     		b	.L26
 468              	.L23:
 197:..\..\..\lvgl\version_6.1.2\lvgl\src\lv_objx/lv_btn.c ****         case LV_BTN_STATE_PR: lv_btn_set_state(btn, LV_BTN_STATE_TGL_PR); break;
 469              		.loc 2 197 0
 470 003e 0321     		movs	r1, #3
 471 0040 7868     		ldr	r0, [r7, #4]
 472 0042 FFF7FEFF 		bl	lv_btn_set_state
 473 0046 0AE0     		b	.L26
 474              	.L24:
 198:..\..\..\lvgl\version_6.1.2\lvgl\src\lv_objx/lv_btn.c ****         case LV_BTN_STATE_TGL_REL: lv_btn_set_state(btn, LV_BTN_STATE_REL); break;
 475              		.loc 2 198 0
 476 0048 0021     		movs	r1, #0
 477 004a 7868     		ldr	r0, [r7, #4]
 478 004c FFF7FEFF 		bl	lv_btn_set_state
 479 0050 05E0     		b	.L26
 480              	.L25:
 199:..\..\..\lvgl\version_6.1.2\lvgl\src\lv_objx/lv_btn.c ****         case LV_BTN_STATE_TGL_PR: lv_btn_set_state(btn, LV_BTN_STATE_PR); break;
 481              		.loc 2 199 0
 482 0052 0121     		movs	r1, #1
 483 0054 7868     		ldr	r0, [r7, #4]
 484 0056 FFF7FEFF 		bl	lv_btn_set_state
 485 005a 00E0     		b	.L26
 486              	.L27:
 200:..\..\..\lvgl\version_6.1.2\lvgl\src\lv_objx/lv_btn.c ****         default: break;
 487              		.loc 2 200 0
 488 005c 00BF     		nop
 489              	.L26:
 201:..\..\..\lvgl\version_6.1.2\lvgl\src\lv_objx/lv_btn.c ****     }
 202:..\..\..\lvgl\version_6.1.2\lvgl\src\lv_objx/lv_btn.c **** }
 490              		.loc 2 202 0
 491 005e 00BF     		nop
 492 0060 1037     		adds	r7, r7, #16
 493              		.cfi_def_cfa_offset 8
 494 0062 BD46     		mov	sp, r7
 495              		.cfi_def_cfa_register 13
 496              		@ sp needed
 497 0064 80BD     		pop	{r7, pc}
 498              		.cfi_endproc
 499              	.LFE47:
ARM GAS  C:\Users\tmj32\AppData\Local\Temp\ccKhIVes.s 			page 16


 500              		.size	lv_btn_toggle, .-lv_btn_toggle
 501 0066 00BF     		.section	.text.lv_btn_set_ink_in_time,"ax",%progbits
 502              		.align	2
 503              		.global	lv_btn_set_ink_in_time
 504              		.thumb
 505              		.thumb_func
 506              		.type	lv_btn_set_ink_in_time, %function
 507              	lv_btn_set_ink_in_time:
 508              	.LFB48:
 203:..\..\..\lvgl\version_6.1.2\lvgl\src\lv_objx/lv_btn.c **** 
 204:..\..\..\lvgl\version_6.1.2\lvgl\src\lv_objx/lv_btn.c **** /**
 205:..\..\..\lvgl\version_6.1.2\lvgl\src\lv_objx/lv_btn.c ****  * Set time of the ink effect (draw a circle on click to animate in the new state)
 206:..\..\..\lvgl\version_6.1.2\lvgl\src\lv_objx/lv_btn.c ****  * @param btn pointer to a button object
 207:..\..\..\lvgl\version_6.1.2\lvgl\src\lv_objx/lv_btn.c ****  * @param time the time of the ink animation
 208:..\..\..\lvgl\version_6.1.2\lvgl\src\lv_objx/lv_btn.c ****  */
 209:..\..\..\lvgl\version_6.1.2\lvgl\src\lv_objx/lv_btn.c **** void lv_btn_set_ink_in_time(lv_obj_t * btn, uint16_t time)
 210:..\..\..\lvgl\version_6.1.2\lvgl\src\lv_objx/lv_btn.c **** {
 509              		.loc 2 210 0
 510              		.cfi_startproc
 511              		@ args = 0, pretend = 0, frame = 8
 512              		@ frame_needed = 1, uses_anonymous_args = 0
 513              		@ link register save eliminated.
 514 0000 80B4     		push	{r7}
 515              		.cfi_def_cfa_offset 4
 516              		.cfi_offset 7, -4
 517 0002 83B0     		sub	sp, sp, #12
 518              		.cfi_def_cfa_offset 16
 519 0004 00AF     		add	r7, sp, #0
 520              		.cfi_def_cfa_register 7
 521 0006 7860     		str	r0, [r7, #4]
 522 0008 0B46     		mov	r3, r1
 523 000a 7B80     		strh	r3, [r7, #2]	@ movhi
 211:..\..\..\lvgl\version_6.1.2\lvgl\src\lv_objx/lv_btn.c ****     LV_ASSERT_OBJ(btn, LV_OBJX_NAME);
 212:..\..\..\lvgl\version_6.1.2\lvgl\src\lv_objx/lv_btn.c **** 
 213:..\..\..\lvgl\version_6.1.2\lvgl\src\lv_objx/lv_btn.c **** #if LV_USE_ANIMATION && LV_BTN_INK_EFFECT
 214:..\..\..\lvgl\version_6.1.2\lvgl\src\lv_objx/lv_btn.c ****     lv_btn_ext_t * ext = lv_obj_get_ext_attr(btn);
 215:..\..\..\lvgl\version_6.1.2\lvgl\src\lv_objx/lv_btn.c ****     ext->ink_in_time   = time;
 216:..\..\..\lvgl\version_6.1.2\lvgl\src\lv_objx/lv_btn.c **** #else
 217:..\..\..\lvgl\version_6.1.2\lvgl\src\lv_objx/lv_btn.c ****     (void)btn;  /*Unused*/
 218:..\..\..\lvgl\version_6.1.2\lvgl\src\lv_objx/lv_btn.c ****     (void)time; /*Unused*/
 219:..\..\..\lvgl\version_6.1.2\lvgl\src\lv_objx/lv_btn.c ****     LV_LOG_WARN("`lv_btn_set_ink_ink_time` has no effect if LV_BTN_INK_EFEFCT or LV_USE_ANIMATION "
 220:..\..\..\lvgl\version_6.1.2\lvgl\src\lv_objx/lv_btn.c ****                 "is disabled")
 221:..\..\..\lvgl\version_6.1.2\lvgl\src\lv_objx/lv_btn.c **** #endif
 222:..\..\..\lvgl\version_6.1.2\lvgl\src\lv_objx/lv_btn.c **** }
 524              		.loc 2 222 0
 525 000c 00BF     		nop
 526 000e 0C37     		adds	r7, r7, #12
 527              		.cfi_def_cfa_offset 4
 528 0010 BD46     		mov	sp, r7
 529              		.cfi_def_cfa_register 13
 530              		@ sp needed
 531 0012 5DF8047B 		ldr	r7, [sp], #4
 532              		.cfi_restore 7
 533              		.cfi_def_cfa_offset 0
 534 0016 7047     		bx	lr
 535              		.cfi_endproc
 536              	.LFE48:
ARM GAS  C:\Users\tmj32\AppData\Local\Temp\ccKhIVes.s 			page 17


 537              		.size	lv_btn_set_ink_in_time, .-lv_btn_set_ink_in_time
 538              		.section	.text.lv_btn_set_ink_wait_time,"ax",%progbits
 539              		.align	2
 540              		.global	lv_btn_set_ink_wait_time
 541              		.thumb
 542              		.thumb_func
 543              		.type	lv_btn_set_ink_wait_time, %function
 544              	lv_btn_set_ink_wait_time:
 545              	.LFB49:
 223:..\..\..\lvgl\version_6.1.2\lvgl\src\lv_objx/lv_btn.c **** 
 224:..\..\..\lvgl\version_6.1.2\lvgl\src\lv_objx/lv_btn.c **** /**
 225:..\..\..\lvgl\version_6.1.2\lvgl\src\lv_objx/lv_btn.c ****  * Set the wait time before the ink disappears
 226:..\..\..\lvgl\version_6.1.2\lvgl\src\lv_objx/lv_btn.c ****  * @param btn pointer to a button object
 227:..\..\..\lvgl\version_6.1.2\lvgl\src\lv_objx/lv_btn.c ****  * @param time the time of the ink animation
 228:..\..\..\lvgl\version_6.1.2\lvgl\src\lv_objx/lv_btn.c ****  */
 229:..\..\..\lvgl\version_6.1.2\lvgl\src\lv_objx/lv_btn.c **** void lv_btn_set_ink_wait_time(lv_obj_t * btn, uint16_t time)
 230:..\..\..\lvgl\version_6.1.2\lvgl\src\lv_objx/lv_btn.c **** {
 546              		.loc 2 230 0
 547              		.cfi_startproc
 548              		@ args = 0, pretend = 0, frame = 8
 549              		@ frame_needed = 1, uses_anonymous_args = 0
 550              		@ link register save eliminated.
 551 0000 80B4     		push	{r7}
 552              		.cfi_def_cfa_offset 4
 553              		.cfi_offset 7, -4
 554 0002 83B0     		sub	sp, sp, #12
 555              		.cfi_def_cfa_offset 16
 556 0004 00AF     		add	r7, sp, #0
 557              		.cfi_def_cfa_register 7
 558 0006 7860     		str	r0, [r7, #4]
 559 0008 0B46     		mov	r3, r1
 560 000a 7B80     		strh	r3, [r7, #2]	@ movhi
 231:..\..\..\lvgl\version_6.1.2\lvgl\src\lv_objx/lv_btn.c ****     LV_ASSERT_OBJ(btn, LV_OBJX_NAME);
 232:..\..\..\lvgl\version_6.1.2\lvgl\src\lv_objx/lv_btn.c **** 
 233:..\..\..\lvgl\version_6.1.2\lvgl\src\lv_objx/lv_btn.c **** 
 234:..\..\..\lvgl\version_6.1.2\lvgl\src\lv_objx/lv_btn.c **** #if LV_USE_ANIMATION && LV_BTN_INK_EFFECT
 235:..\..\..\lvgl\version_6.1.2\lvgl\src\lv_objx/lv_btn.c ****     lv_btn_ext_t * ext = lv_obj_get_ext_attr(btn);
 236:..\..\..\lvgl\version_6.1.2\lvgl\src\lv_objx/lv_btn.c ****     ext->ink_wait_time = time;
 237:..\..\..\lvgl\version_6.1.2\lvgl\src\lv_objx/lv_btn.c **** #else
 238:..\..\..\lvgl\version_6.1.2\lvgl\src\lv_objx/lv_btn.c ****     (void)btn;  /*Unused*/
 239:..\..\..\lvgl\version_6.1.2\lvgl\src\lv_objx/lv_btn.c ****     (void)time; /*Unused*/
 240:..\..\..\lvgl\version_6.1.2\lvgl\src\lv_objx/lv_btn.c ****     LV_LOG_WARN("`lv_btn_set_ink_wait_time` has no effect if LV_BTN_INK_EFEFCT or LV_USE_ANIMATION 
 241:..\..\..\lvgl\version_6.1.2\lvgl\src\lv_objx/lv_btn.c ****                 "is disabled")
 242:..\..\..\lvgl\version_6.1.2\lvgl\src\lv_objx/lv_btn.c **** #endif
 243:..\..\..\lvgl\version_6.1.2\lvgl\src\lv_objx/lv_btn.c **** }
 561              		.loc 2 243 0
 562 000c 00BF     		nop
 563 000e 0C37     		adds	r7, r7, #12
 564              		.cfi_def_cfa_offset 4
 565 0010 BD46     		mov	sp, r7
 566              		.cfi_def_cfa_register 13
 567              		@ sp needed
 568 0012 5DF8047B 		ldr	r7, [sp], #4
 569              		.cfi_restore 7
 570              		.cfi_def_cfa_offset 0
 571 0016 7047     		bx	lr
 572              		.cfi_endproc
ARM GAS  C:\Users\tmj32\AppData\Local\Temp\ccKhIVes.s 			page 18


 573              	.LFE49:
 574              		.size	lv_btn_set_ink_wait_time, .-lv_btn_set_ink_wait_time
 575              		.section	.text.lv_btn_set_ink_out_time,"ax",%progbits
 576              		.align	2
 577              		.global	lv_btn_set_ink_out_time
 578              		.thumb
 579              		.thumb_func
 580              		.type	lv_btn_set_ink_out_time, %function
 581              	lv_btn_set_ink_out_time:
 582              	.LFB50:
 244:..\..\..\lvgl\version_6.1.2\lvgl\src\lv_objx/lv_btn.c **** 
 245:..\..\..\lvgl\version_6.1.2\lvgl\src\lv_objx/lv_btn.c **** /**
 246:..\..\..\lvgl\version_6.1.2\lvgl\src\lv_objx/lv_btn.c ****  * Set time of the ink out effect (animate to the released state)
 247:..\..\..\lvgl\version_6.1.2\lvgl\src\lv_objx/lv_btn.c ****  * @param btn pointer to a button object
 248:..\..\..\lvgl\version_6.1.2\lvgl\src\lv_objx/lv_btn.c ****  * @param time the time of the ink animation
 249:..\..\..\lvgl\version_6.1.2\lvgl\src\lv_objx/lv_btn.c ****  */
 250:..\..\..\lvgl\version_6.1.2\lvgl\src\lv_objx/lv_btn.c **** void lv_btn_set_ink_out_time(lv_obj_t * btn, uint16_t time)
 251:..\..\..\lvgl\version_6.1.2\lvgl\src\lv_objx/lv_btn.c **** {
 583              		.loc 2 251 0
 584              		.cfi_startproc
 585              		@ args = 0, pretend = 0, frame = 8
 586              		@ frame_needed = 1, uses_anonymous_args = 0
 587              		@ link register save eliminated.
 588 0000 80B4     		push	{r7}
 589              		.cfi_def_cfa_offset 4
 590              		.cfi_offset 7, -4
 591 0002 83B0     		sub	sp, sp, #12
 592              		.cfi_def_cfa_offset 16
 593 0004 00AF     		add	r7, sp, #0
 594              		.cfi_def_cfa_register 7
 595 0006 7860     		str	r0, [r7, #4]
 596 0008 0B46     		mov	r3, r1
 597 000a 7B80     		strh	r3, [r7, #2]	@ movhi
 252:..\..\..\lvgl\version_6.1.2\lvgl\src\lv_objx/lv_btn.c ****     LV_ASSERT_OBJ(btn, LV_OBJX_NAME);
 253:..\..\..\lvgl\version_6.1.2\lvgl\src\lv_objx/lv_btn.c **** 
 254:..\..\..\lvgl\version_6.1.2\lvgl\src\lv_objx/lv_btn.c **** #if LV_USE_ANIMATION && LV_BTN_INK_EFFECT
 255:..\..\..\lvgl\version_6.1.2\lvgl\src\lv_objx/lv_btn.c ****     lv_btn_ext_t * ext = lv_obj_get_ext_attr(btn);
 256:..\..\..\lvgl\version_6.1.2\lvgl\src\lv_objx/lv_btn.c ****     ext->ink_out_time  = time;
 257:..\..\..\lvgl\version_6.1.2\lvgl\src\lv_objx/lv_btn.c **** #else
 258:..\..\..\lvgl\version_6.1.2\lvgl\src\lv_objx/lv_btn.c ****     (void)btn;  /*Unused*/
 259:..\..\..\lvgl\version_6.1.2\lvgl\src\lv_objx/lv_btn.c ****     (void)time; /*Unused*/
 260:..\..\..\lvgl\version_6.1.2\lvgl\src\lv_objx/lv_btn.c ****     LV_LOG_WARN("`lv_btn_set_ink_out_time` has no effect if LV_BTN_INK_EFEFCT or LV_USE_ANIMATION "
 261:..\..\..\lvgl\version_6.1.2\lvgl\src\lv_objx/lv_btn.c ****                 "is disabled")
 262:..\..\..\lvgl\version_6.1.2\lvgl\src\lv_objx/lv_btn.c **** #endif
 263:..\..\..\lvgl\version_6.1.2\lvgl\src\lv_objx/lv_btn.c **** }
 598              		.loc 2 263 0
 599 000c 00BF     		nop
 600 000e 0C37     		adds	r7, r7, #12
 601              		.cfi_def_cfa_offset 4
 602 0010 BD46     		mov	sp, r7
 603              		.cfi_def_cfa_register 13
 604              		@ sp needed
 605 0012 5DF8047B 		ldr	r7, [sp], #4
 606              		.cfi_restore 7
 607              		.cfi_def_cfa_offset 0
 608 0016 7047     		bx	lr
 609              		.cfi_endproc
ARM GAS  C:\Users\tmj32\AppData\Local\Temp\ccKhIVes.s 			page 19


 610              	.LFE50:
 611              		.size	lv_btn_set_ink_out_time, .-lv_btn_set_ink_out_time
 612              		.section	.text.lv_btn_set_style,"ax",%progbits
 613              		.align	2
 614              		.global	lv_btn_set_style
 615              		.thumb
 616              		.thumb_func
 617              		.type	lv_btn_set_style, %function
 618              	lv_btn_set_style:
 619              	.LFB51:
 264:..\..\..\lvgl\version_6.1.2\lvgl\src\lv_objx/lv_btn.c **** 
 265:..\..\..\lvgl\version_6.1.2\lvgl\src\lv_objx/lv_btn.c **** /**
 266:..\..\..\lvgl\version_6.1.2\lvgl\src\lv_objx/lv_btn.c ****  * Set a style of a button
 267:..\..\..\lvgl\version_6.1.2\lvgl\src\lv_objx/lv_btn.c ****  * @param btn pointer to a button object
 268:..\..\..\lvgl\version_6.1.2\lvgl\src\lv_objx/lv_btn.c ****  * @param type which style should be set
 269:..\..\..\lvgl\version_6.1.2\lvgl\src\lv_objx/lv_btn.c ****  * @param style pointer to a style
 270:..\..\..\lvgl\version_6.1.2\lvgl\src\lv_objx/lv_btn.c ****  */
 271:..\..\..\lvgl\version_6.1.2\lvgl\src\lv_objx/lv_btn.c **** void lv_btn_set_style(lv_obj_t * btn, lv_btn_style_t type, const lv_style_t * style)
 272:..\..\..\lvgl\version_6.1.2\lvgl\src\lv_objx/lv_btn.c **** {
 620              		.loc 2 272 0
 621              		.cfi_startproc
 622              		@ args = 0, pretend = 0, frame = 24
 623              		@ frame_needed = 1, uses_anonymous_args = 0
 624 0000 80B5     		push	{r7, lr}
 625              		.cfi_def_cfa_offset 8
 626              		.cfi_offset 7, -8
 627              		.cfi_offset 14, -4
 628 0002 86B0     		sub	sp, sp, #24
 629              		.cfi_def_cfa_offset 32
 630 0004 00AF     		add	r7, sp, #0
 631              		.cfi_def_cfa_register 7
 632 0006 F860     		str	r0, [r7, #12]
 633 0008 0B46     		mov	r3, r1
 634 000a 7A60     		str	r2, [r7, #4]
 635 000c FB72     		strb	r3, [r7, #11]
 273:..\..\..\lvgl\version_6.1.2\lvgl\src\lv_objx/lv_btn.c ****     LV_ASSERT_OBJ(btn, LV_OBJX_NAME);
 274:..\..\..\lvgl\version_6.1.2\lvgl\src\lv_objx/lv_btn.c **** 
 275:..\..\..\lvgl\version_6.1.2\lvgl\src\lv_objx/lv_btn.c ****     lv_btn_ext_t * ext = lv_obj_get_ext_attr(btn);
 636              		.loc 2 275 0
 637 000e F868     		ldr	r0, [r7, #12]
 638 0010 FFF7FEFF 		bl	lv_obj_get_ext_attr
 639 0014 7861     		str	r0, [r7, #20]
 276:..\..\..\lvgl\version_6.1.2\lvgl\src\lv_objx/lv_btn.c **** 
 277:..\..\..\lvgl\version_6.1.2\lvgl\src\lv_objx/lv_btn.c ****     switch(type) {
 640              		.loc 2 277 0
 641 0016 FB7A     		ldrb	r3, [r7, #11]	@ zero_extendqisi2
 642 0018 042B     		cmp	r3, #4
 643 001a 21D8     		bhi	.L32
 644 001c 01A2     		adr	r2, .L34
 645 001e 52F823F0 		ldr	pc, [r2, r3, lsl #2]
 646 0022 00BF     		.p2align 2
 647              	.L34:
 648 0024 39000000 		.word	.L33+1
 649 0028 41000000 		.word	.L35+1
 650 002c 49000000 		.word	.L36+1
 651 0030 51000000 		.word	.L37+1
 652 0034 59000000 		.word	.L38+1
ARM GAS  C:\Users\tmj32\AppData\Local\Temp\ccKhIVes.s 			page 20


 653              		.p2align 1
 654              	.L33:
 278:..\..\..\lvgl\version_6.1.2\lvgl\src\lv_objx/lv_btn.c ****         case LV_BTN_STYLE_REL: ext->styles[LV_BTN_STATE_REL] = style; break;
 655              		.loc 2 278 0
 656 0038 7B69     		ldr	r3, [r7, #20]
 657 003a 7A68     		ldr	r2, [r7, #4]
 658 003c 5A60     		str	r2, [r3, #4]
 659 003e 0FE0     		b	.L32
 660              	.L35:
 279:..\..\..\lvgl\version_6.1.2\lvgl\src\lv_objx/lv_btn.c ****         case LV_BTN_STYLE_PR: ext->styles[LV_BTN_STATE_PR] = style; break;
 661              		.loc 2 279 0
 662 0040 7B69     		ldr	r3, [r7, #20]
 663 0042 7A68     		ldr	r2, [r7, #4]
 664 0044 9A60     		str	r2, [r3, #8]
 665 0046 0BE0     		b	.L32
 666              	.L36:
 280:..\..\..\lvgl\version_6.1.2\lvgl\src\lv_objx/lv_btn.c ****         case LV_BTN_STYLE_TGL_REL: ext->styles[LV_BTN_STATE_TGL_REL] = style; break;
 667              		.loc 2 280 0
 668 0048 7B69     		ldr	r3, [r7, #20]
 669 004a 7A68     		ldr	r2, [r7, #4]
 670 004c DA60     		str	r2, [r3, #12]
 671 004e 07E0     		b	.L32
 672              	.L37:
 281:..\..\..\lvgl\version_6.1.2\lvgl\src\lv_objx/lv_btn.c ****         case LV_BTN_STYLE_TGL_PR: ext->styles[LV_BTN_STATE_TGL_PR] = style; break;
 673              		.loc 2 281 0
 674 0050 7B69     		ldr	r3, [r7, #20]
 675 0052 7A68     		ldr	r2, [r7, #4]
 676 0054 1A61     		str	r2, [r3, #16]
 677 0056 03E0     		b	.L32
 678              	.L38:
 282:..\..\..\lvgl\version_6.1.2\lvgl\src\lv_objx/lv_btn.c ****         case LV_BTN_STYLE_INA: ext->styles[LV_BTN_STATE_INA] = style; break;
 679              		.loc 2 282 0
 680 0058 7B69     		ldr	r3, [r7, #20]
 681 005a 7A68     		ldr	r2, [r7, #4]
 682 005c 5A61     		str	r2, [r3, #20]
 683 005e 00BF     		nop
 684              	.L32:
 283:..\..\..\lvgl\version_6.1.2\lvgl\src\lv_objx/lv_btn.c ****     }
 284:..\..\..\lvgl\version_6.1.2\lvgl\src\lv_objx/lv_btn.c **** 
 285:..\..\..\lvgl\version_6.1.2\lvgl\src\lv_objx/lv_btn.c ****     /*Refresh the object with the new style*/
 286:..\..\..\lvgl\version_6.1.2\lvgl\src\lv_objx/lv_btn.c ****     lv_obj_set_style(btn, ext->styles[ext->state]);
 685              		.loc 2 286 0
 686 0060 7B69     		ldr	r3, [r7, #20]
 687 0062 1B7E     		ldrb	r3, [r3, #24]
 688 0064 C3F30203 		ubfx	r3, r3, #0, #3
 689 0068 DBB2     		uxtb	r3, r3
 690 006a 7A69     		ldr	r2, [r7, #20]
 691 006c 9B00     		lsls	r3, r3, #2
 692 006e 1344     		add	r3, r3, r2
 693 0070 5B68     		ldr	r3, [r3, #4]
 694 0072 1946     		mov	r1, r3
 695 0074 F868     		ldr	r0, [r7, #12]
 696 0076 FFF7FEFF 		bl	lv_obj_set_style
 287:..\..\..\lvgl\version_6.1.2\lvgl\src\lv_objx/lv_btn.c **** }
 697              		.loc 2 287 0
 698 007a 00BF     		nop
 699 007c 1837     		adds	r7, r7, #24
ARM GAS  C:\Users\tmj32\AppData\Local\Temp\ccKhIVes.s 			page 21


 700              		.cfi_def_cfa_offset 8
 701 007e BD46     		mov	sp, r7
 702              		.cfi_def_cfa_register 13
 703              		@ sp needed
 704 0080 80BD     		pop	{r7, pc}
 705              		.cfi_endproc
 706              	.LFE51:
 707              		.size	lv_btn_set_style, .-lv_btn_set_style
 708 0082 00BF     		.section	.text.lv_btn_get_state,"ax",%progbits
 709              		.align	2
 710              		.global	lv_btn_get_state
 711              		.thumb
 712              		.thumb_func
 713              		.type	lv_btn_get_state, %function
 714              	lv_btn_get_state:
 715              	.LFB52:
 288:..\..\..\lvgl\version_6.1.2\lvgl\src\lv_objx/lv_btn.c **** 
 289:..\..\..\lvgl\version_6.1.2\lvgl\src\lv_objx/lv_btn.c **** /*=====================
 290:..\..\..\lvgl\version_6.1.2\lvgl\src\lv_objx/lv_btn.c ****  * Getter functions
 291:..\..\..\lvgl\version_6.1.2\lvgl\src\lv_objx/lv_btn.c ****  *====================*/
 292:..\..\..\lvgl\version_6.1.2\lvgl\src\lv_objx/lv_btn.c **** 
 293:..\..\..\lvgl\version_6.1.2\lvgl\src\lv_objx/lv_btn.c **** /**
 294:..\..\..\lvgl\version_6.1.2\lvgl\src\lv_objx/lv_btn.c ****  * Get the current state of the button
 295:..\..\..\lvgl\version_6.1.2\lvgl\src\lv_objx/lv_btn.c ****  * @param btn pointer to a button object
 296:..\..\..\lvgl\version_6.1.2\lvgl\src\lv_objx/lv_btn.c ****  * @return the state of the button (from lv_btn_state_t enum)
 297:..\..\..\lvgl\version_6.1.2\lvgl\src\lv_objx/lv_btn.c ****  */
 298:..\..\..\lvgl\version_6.1.2\lvgl\src\lv_objx/lv_btn.c **** lv_btn_state_t lv_btn_get_state(const lv_obj_t * btn)
 299:..\..\..\lvgl\version_6.1.2\lvgl\src\lv_objx/lv_btn.c **** {
 716              		.loc 2 299 0
 717              		.cfi_startproc
 718              		@ args = 0, pretend = 0, frame = 16
 719              		@ frame_needed = 1, uses_anonymous_args = 0
 720 0000 80B5     		push	{r7, lr}
 721              		.cfi_def_cfa_offset 8
 722              		.cfi_offset 7, -8
 723              		.cfi_offset 14, -4
 724 0002 84B0     		sub	sp, sp, #16
 725              		.cfi_def_cfa_offset 24
 726 0004 00AF     		add	r7, sp, #0
 727              		.cfi_def_cfa_register 7
 728 0006 7860     		str	r0, [r7, #4]
 300:..\..\..\lvgl\version_6.1.2\lvgl\src\lv_objx/lv_btn.c ****     LV_ASSERT_OBJ(btn, LV_OBJX_NAME);
 301:..\..\..\lvgl\version_6.1.2\lvgl\src\lv_objx/lv_btn.c **** 
 302:..\..\..\lvgl\version_6.1.2\lvgl\src\lv_objx/lv_btn.c ****     lv_btn_ext_t * ext = lv_obj_get_ext_attr(btn);
 729              		.loc 2 302 0
 730 0008 7868     		ldr	r0, [r7, #4]
 731 000a FFF7FEFF 		bl	lv_obj_get_ext_attr
 732 000e F860     		str	r0, [r7, #12]
 303:..\..\..\lvgl\version_6.1.2\lvgl\src\lv_objx/lv_btn.c ****     return ext->state;
 733              		.loc 2 303 0
 734 0010 FB68     		ldr	r3, [r7, #12]
 735 0012 1B7E     		ldrb	r3, [r3, #24]
 736 0014 C3F30203 		ubfx	r3, r3, #0, #3
 737 0018 DBB2     		uxtb	r3, r3
 304:..\..\..\lvgl\version_6.1.2\lvgl\src\lv_objx/lv_btn.c **** }
 738              		.loc 2 304 0
 739 001a 1846     		mov	r0, r3
ARM GAS  C:\Users\tmj32\AppData\Local\Temp\ccKhIVes.s 			page 22


 740 001c 1037     		adds	r7, r7, #16
 741              		.cfi_def_cfa_offset 8
 742 001e BD46     		mov	sp, r7
 743              		.cfi_def_cfa_register 13
 744              		@ sp needed
 745 0020 80BD     		pop	{r7, pc}
 746              		.cfi_endproc
 747              	.LFE52:
 748              		.size	lv_btn_get_state, .-lv_btn_get_state
 749 0022 00BF     		.section	.text.lv_btn_get_toggle,"ax",%progbits
 750              		.align	2
 751              		.global	lv_btn_get_toggle
 752              		.thumb
 753              		.thumb_func
 754              		.type	lv_btn_get_toggle, %function
 755              	lv_btn_get_toggle:
 756              	.LFB53:
 305:..\..\..\lvgl\version_6.1.2\lvgl\src\lv_objx/lv_btn.c **** 
 306:..\..\..\lvgl\version_6.1.2\lvgl\src\lv_objx/lv_btn.c **** /**
 307:..\..\..\lvgl\version_6.1.2\lvgl\src\lv_objx/lv_btn.c ****  * Get the toggle enable attribute of the button
 308:..\..\..\lvgl\version_6.1.2\lvgl\src\lv_objx/lv_btn.c ****  * @param btn pointer to a button object
 309:..\..\..\lvgl\version_6.1.2\lvgl\src\lv_objx/lv_btn.c ****  * @return true: toggle enabled, false: disabled
 310:..\..\..\lvgl\version_6.1.2\lvgl\src\lv_objx/lv_btn.c ****  */
 311:..\..\..\lvgl\version_6.1.2\lvgl\src\lv_objx/lv_btn.c **** bool lv_btn_get_toggle(const lv_obj_t * btn)
 312:..\..\..\lvgl\version_6.1.2\lvgl\src\lv_objx/lv_btn.c **** {
 757              		.loc 2 312 0
 758              		.cfi_startproc
 759              		@ args = 0, pretend = 0, frame = 16
 760              		@ frame_needed = 1, uses_anonymous_args = 0
 761 0000 80B5     		push	{r7, lr}
 762              		.cfi_def_cfa_offset 8
 763              		.cfi_offset 7, -8
 764              		.cfi_offset 14, -4
 765 0002 84B0     		sub	sp, sp, #16
 766              		.cfi_def_cfa_offset 24
 767 0004 00AF     		add	r7, sp, #0
 768              		.cfi_def_cfa_register 7
 769 0006 7860     		str	r0, [r7, #4]
 313:..\..\..\lvgl\version_6.1.2\lvgl\src\lv_objx/lv_btn.c ****     LV_ASSERT_OBJ(btn, LV_OBJX_NAME);
 314:..\..\..\lvgl\version_6.1.2\lvgl\src\lv_objx/lv_btn.c **** 
 315:..\..\..\lvgl\version_6.1.2\lvgl\src\lv_objx/lv_btn.c ****     lv_btn_ext_t * ext = lv_obj_get_ext_attr(btn);
 770              		.loc 2 315 0
 771 0008 7868     		ldr	r0, [r7, #4]
 772 000a FFF7FEFF 		bl	lv_obj_get_ext_attr
 773 000e F860     		str	r0, [r7, #12]
 316:..\..\..\lvgl\version_6.1.2\lvgl\src\lv_objx/lv_btn.c **** 
 317:..\..\..\lvgl\version_6.1.2\lvgl\src\lv_objx/lv_btn.c ****     return ext->toggle != 0 ? true : false;
 774              		.loc 2 317 0
 775 0010 FB68     		ldr	r3, [r7, #12]
 776 0012 1B7E     		ldrb	r3, [r3, #24]	@ zero_extendqisi2
 777 0014 03F00803 		and	r3, r3, #8
 778 0018 DBB2     		uxtb	r3, r3
 779 001a 002B     		cmp	r3, #0
 780 001c 14BF     		ite	ne
 781 001e 0123     		movne	r3, #1
 782 0020 0023     		moveq	r3, #0
 783 0022 DBB2     		uxtb	r3, r3
ARM GAS  C:\Users\tmj32\AppData\Local\Temp\ccKhIVes.s 			page 23


 318:..\..\..\lvgl\version_6.1.2\lvgl\src\lv_objx/lv_btn.c **** }
 784              		.loc 2 318 0
 785 0024 1846     		mov	r0, r3
 786 0026 1037     		adds	r7, r7, #16
 787              		.cfi_def_cfa_offset 8
 788 0028 BD46     		mov	sp, r7
 789              		.cfi_def_cfa_register 13
 790              		@ sp needed
 791 002a 80BD     		pop	{r7, pc}
 792              		.cfi_endproc
 793              	.LFE53:
 794              		.size	lv_btn_get_toggle, .-lv_btn_get_toggle
 795              		.section	.text.lv_btn_get_ink_in_time,"ax",%progbits
 796              		.align	2
 797              		.global	lv_btn_get_ink_in_time
 798              		.thumb
 799              		.thumb_func
 800              		.type	lv_btn_get_ink_in_time, %function
 801              	lv_btn_get_ink_in_time:
 802              	.LFB54:
 319:..\..\..\lvgl\version_6.1.2\lvgl\src\lv_objx/lv_btn.c **** 
 320:..\..\..\lvgl\version_6.1.2\lvgl\src\lv_objx/lv_btn.c **** /**
 321:..\..\..\lvgl\version_6.1.2\lvgl\src\lv_objx/lv_btn.c ****  * Get time of the ink in effect (draw a circle on click to animate in the new state)
 322:..\..\..\lvgl\version_6.1.2\lvgl\src\lv_objx/lv_btn.c ****  * @param btn pointer to a button object
 323:..\..\..\lvgl\version_6.1.2\lvgl\src\lv_objx/lv_btn.c ****  * @return the time of the ink animation
 324:..\..\..\lvgl\version_6.1.2\lvgl\src\lv_objx/lv_btn.c ****  */
 325:..\..\..\lvgl\version_6.1.2\lvgl\src\lv_objx/lv_btn.c **** uint16_t lv_btn_get_ink_in_time(const lv_obj_t * btn)
 326:..\..\..\lvgl\version_6.1.2\lvgl\src\lv_objx/lv_btn.c **** {
 803              		.loc 2 326 0
 804              		.cfi_startproc
 805              		@ args = 0, pretend = 0, frame = 8
 806              		@ frame_needed = 1, uses_anonymous_args = 0
 807              		@ link register save eliminated.
 808 0000 80B4     		push	{r7}
 809              		.cfi_def_cfa_offset 4
 810              		.cfi_offset 7, -4
 811 0002 83B0     		sub	sp, sp, #12
 812              		.cfi_def_cfa_offset 16
 813 0004 00AF     		add	r7, sp, #0
 814              		.cfi_def_cfa_register 7
 815 0006 7860     		str	r0, [r7, #4]
 327:..\..\..\lvgl\version_6.1.2\lvgl\src\lv_objx/lv_btn.c ****     LV_ASSERT_OBJ(btn, LV_OBJX_NAME);
 328:..\..\..\lvgl\version_6.1.2\lvgl\src\lv_objx/lv_btn.c **** 
 329:..\..\..\lvgl\version_6.1.2\lvgl\src\lv_objx/lv_btn.c **** #if LV_USE_ANIMATION && LV_BTN_INK_EFFECT
 330:..\..\..\lvgl\version_6.1.2\lvgl\src\lv_objx/lv_btn.c ****     lv_btn_ext_t * ext = lv_obj_get_ext_attr(btn);
 331:..\..\..\lvgl\version_6.1.2\lvgl\src\lv_objx/lv_btn.c ****     return ext->ink_in_time;
 332:..\..\..\lvgl\version_6.1.2\lvgl\src\lv_objx/lv_btn.c **** #else
 333:..\..\..\lvgl\version_6.1.2\lvgl\src\lv_objx/lv_btn.c ****     (void)btn; /*Unused*/
 334:..\..\..\lvgl\version_6.1.2\lvgl\src\lv_objx/lv_btn.c ****     return 0;
 816              		.loc 2 334 0
 817 0008 0023     		movs	r3, #0
 335:..\..\..\lvgl\version_6.1.2\lvgl\src\lv_objx/lv_btn.c **** #endif
 336:..\..\..\lvgl\version_6.1.2\lvgl\src\lv_objx/lv_btn.c **** }
 818              		.loc 2 336 0
 819 000a 1846     		mov	r0, r3
 820 000c 0C37     		adds	r7, r7, #12
 821              		.cfi_def_cfa_offset 4
ARM GAS  C:\Users\tmj32\AppData\Local\Temp\ccKhIVes.s 			page 24


 822 000e BD46     		mov	sp, r7
 823              		.cfi_def_cfa_register 13
 824              		@ sp needed
 825 0010 5DF8047B 		ldr	r7, [sp], #4
 826              		.cfi_restore 7
 827              		.cfi_def_cfa_offset 0
 828 0014 7047     		bx	lr
 829              		.cfi_endproc
 830              	.LFE54:
 831              		.size	lv_btn_get_ink_in_time, .-lv_btn_get_ink_in_time
 832 0016 00BF     		.section	.text.lv_btn_get_ink_wait_time,"ax",%progbits
 833              		.align	2
 834              		.global	lv_btn_get_ink_wait_time
 835              		.thumb
 836              		.thumb_func
 837              		.type	lv_btn_get_ink_wait_time, %function
 838              	lv_btn_get_ink_wait_time:
 839              	.LFB55:
 337:..\..\..\lvgl\version_6.1.2\lvgl\src\lv_objx/lv_btn.c **** 
 338:..\..\..\lvgl\version_6.1.2\lvgl\src\lv_objx/lv_btn.c **** /**
 339:..\..\..\lvgl\version_6.1.2\lvgl\src\lv_objx/lv_btn.c ****  * Get the wait time before the ink disappears
 340:..\..\..\lvgl\version_6.1.2\lvgl\src\lv_objx/lv_btn.c ****  * @param btn pointer to a button object
 341:..\..\..\lvgl\version_6.1.2\lvgl\src\lv_objx/lv_btn.c ****  * @return the time of the ink animation
 342:..\..\..\lvgl\version_6.1.2\lvgl\src\lv_objx/lv_btn.c ****  */
 343:..\..\..\lvgl\version_6.1.2\lvgl\src\lv_objx/lv_btn.c **** uint16_t lv_btn_get_ink_wait_time(const lv_obj_t * btn)
 344:..\..\..\lvgl\version_6.1.2\lvgl\src\lv_objx/lv_btn.c **** {
 840              		.loc 2 344 0
 841              		.cfi_startproc
 842              		@ args = 0, pretend = 0, frame = 8
 843              		@ frame_needed = 1, uses_anonymous_args = 0
 844              		@ link register save eliminated.
 845 0000 80B4     		push	{r7}
 846              		.cfi_def_cfa_offset 4
 847              		.cfi_offset 7, -4
 848 0002 83B0     		sub	sp, sp, #12
 849              		.cfi_def_cfa_offset 16
 850 0004 00AF     		add	r7, sp, #0
 851              		.cfi_def_cfa_register 7
 852 0006 7860     		str	r0, [r7, #4]
 345:..\..\..\lvgl\version_6.1.2\lvgl\src\lv_objx/lv_btn.c ****     LV_ASSERT_OBJ(btn, LV_OBJX_NAME);
 346:..\..\..\lvgl\version_6.1.2\lvgl\src\lv_objx/lv_btn.c **** 
 347:..\..\..\lvgl\version_6.1.2\lvgl\src\lv_objx/lv_btn.c **** #if LV_USE_ANIMATION && LV_BTN_INK_EFFECT
 348:..\..\..\lvgl\version_6.1.2\lvgl\src\lv_objx/lv_btn.c ****     lv_btn_ext_t * ext = lv_obj_get_ext_attr(btn);
 349:..\..\..\lvgl\version_6.1.2\lvgl\src\lv_objx/lv_btn.c ****     return ext->ink_wait_time;
 350:..\..\..\lvgl\version_6.1.2\lvgl\src\lv_objx/lv_btn.c **** #else
 351:..\..\..\lvgl\version_6.1.2\lvgl\src\lv_objx/lv_btn.c ****     (void)btn; /*Unused*/
 352:..\..\..\lvgl\version_6.1.2\lvgl\src\lv_objx/lv_btn.c ****     return 0;
 853              		.loc 2 352 0
 854 0008 0023     		movs	r3, #0
 353:..\..\..\lvgl\version_6.1.2\lvgl\src\lv_objx/lv_btn.c **** #endif
 354:..\..\..\lvgl\version_6.1.2\lvgl\src\lv_objx/lv_btn.c **** }
 855              		.loc 2 354 0
 856 000a 1846     		mov	r0, r3
 857 000c 0C37     		adds	r7, r7, #12
 858              		.cfi_def_cfa_offset 4
 859 000e BD46     		mov	sp, r7
 860              		.cfi_def_cfa_register 13
ARM GAS  C:\Users\tmj32\AppData\Local\Temp\ccKhIVes.s 			page 25


 861              		@ sp needed
 862 0010 5DF8047B 		ldr	r7, [sp], #4
 863              		.cfi_restore 7
 864              		.cfi_def_cfa_offset 0
 865 0014 7047     		bx	lr
 866              		.cfi_endproc
 867              	.LFE55:
 868              		.size	lv_btn_get_ink_wait_time, .-lv_btn_get_ink_wait_time
 869 0016 00BF     		.section	.text.lv_btn_get_ink_out_time,"ax",%progbits
 870              		.align	2
 871              		.global	lv_btn_get_ink_out_time
 872              		.thumb
 873              		.thumb_func
 874              		.type	lv_btn_get_ink_out_time, %function
 875              	lv_btn_get_ink_out_time:
 876              	.LFB56:
 355:..\..\..\lvgl\version_6.1.2\lvgl\src\lv_objx/lv_btn.c **** /**
 356:..\..\..\lvgl\version_6.1.2\lvgl\src\lv_objx/lv_btn.c ****  * Get time of the ink out effect (animate to the releases state)
 357:..\..\..\lvgl\version_6.1.2\lvgl\src\lv_objx/lv_btn.c ****  * @param btn pointer to a button object
 358:..\..\..\lvgl\version_6.1.2\lvgl\src\lv_objx/lv_btn.c ****  * @return the time of the ink animation
 359:..\..\..\lvgl\version_6.1.2\lvgl\src\lv_objx/lv_btn.c ****  */
 360:..\..\..\lvgl\version_6.1.2\lvgl\src\lv_objx/lv_btn.c **** uint16_t lv_btn_get_ink_out_time(const lv_obj_t * btn)
 361:..\..\..\lvgl\version_6.1.2\lvgl\src\lv_objx/lv_btn.c **** {
 877              		.loc 2 361 0
 878              		.cfi_startproc
 879              		@ args = 0, pretend = 0, frame = 8
 880              		@ frame_needed = 1, uses_anonymous_args = 0
 881              		@ link register save eliminated.
 882 0000 80B4     		push	{r7}
 883              		.cfi_def_cfa_offset 4
 884              		.cfi_offset 7, -4
 885 0002 83B0     		sub	sp, sp, #12
 886              		.cfi_def_cfa_offset 16
 887 0004 00AF     		add	r7, sp, #0
 888              		.cfi_def_cfa_register 7
 889 0006 7860     		str	r0, [r7, #4]
 362:..\..\..\lvgl\version_6.1.2\lvgl\src\lv_objx/lv_btn.c ****     LV_ASSERT_OBJ(btn, LV_OBJX_NAME);
 363:..\..\..\lvgl\version_6.1.2\lvgl\src\lv_objx/lv_btn.c **** 
 364:..\..\..\lvgl\version_6.1.2\lvgl\src\lv_objx/lv_btn.c **** #if LV_USE_ANIMATION && LV_BTN_INK_EFFECT
 365:..\..\..\lvgl\version_6.1.2\lvgl\src\lv_objx/lv_btn.c ****     lv_btn_ext_t * ext = lv_obj_get_ext_attr(btn);
 366:..\..\..\lvgl\version_6.1.2\lvgl\src\lv_objx/lv_btn.c ****     return ext->ink_out_time;
 367:..\..\..\lvgl\version_6.1.2\lvgl\src\lv_objx/lv_btn.c **** #else
 368:..\..\..\lvgl\version_6.1.2\lvgl\src\lv_objx/lv_btn.c ****     (void)btn; /*Unused*/
 369:..\..\..\lvgl\version_6.1.2\lvgl\src\lv_objx/lv_btn.c ****     return 0;
 890              		.loc 2 369 0
 891 0008 0023     		movs	r3, #0
 370:..\..\..\lvgl\version_6.1.2\lvgl\src\lv_objx/lv_btn.c **** #endif
 371:..\..\..\lvgl\version_6.1.2\lvgl\src\lv_objx/lv_btn.c **** }
 892              		.loc 2 371 0
 893 000a 1846     		mov	r0, r3
 894 000c 0C37     		adds	r7, r7, #12
 895              		.cfi_def_cfa_offset 4
 896 000e BD46     		mov	sp, r7
 897              		.cfi_def_cfa_register 13
 898              		@ sp needed
 899 0010 5DF8047B 		ldr	r7, [sp], #4
 900              		.cfi_restore 7
ARM GAS  C:\Users\tmj32\AppData\Local\Temp\ccKhIVes.s 			page 26


 901              		.cfi_def_cfa_offset 0
 902 0014 7047     		bx	lr
 903              		.cfi_endproc
 904              	.LFE56:
 905              		.size	lv_btn_get_ink_out_time, .-lv_btn_get_ink_out_time
 906 0016 00BF     		.section	.text.lv_btn_get_style,"ax",%progbits
 907              		.align	2
 908              		.global	lv_btn_get_style
 909              		.thumb
 910              		.thumb_func
 911              		.type	lv_btn_get_style, %function
 912              	lv_btn_get_style:
 913              	.LFB57:
 372:..\..\..\lvgl\version_6.1.2\lvgl\src\lv_objx/lv_btn.c **** 
 373:..\..\..\lvgl\version_6.1.2\lvgl\src\lv_objx/lv_btn.c **** /**
 374:..\..\..\lvgl\version_6.1.2\lvgl\src\lv_objx/lv_btn.c ****  * Get a style of a button
 375:..\..\..\lvgl\version_6.1.2\lvgl\src\lv_objx/lv_btn.c ****  * @param btn pointer to a button object
 376:..\..\..\lvgl\version_6.1.2\lvgl\src\lv_objx/lv_btn.c ****  * @param type which style should be get
 377:..\..\..\lvgl\version_6.1.2\lvgl\src\lv_objx/lv_btn.c ****  * @return style pointer to a style
 378:..\..\..\lvgl\version_6.1.2\lvgl\src\lv_objx/lv_btn.c ****  */
 379:..\..\..\lvgl\version_6.1.2\lvgl\src\lv_objx/lv_btn.c **** const lv_style_t * lv_btn_get_style(const lv_obj_t * btn, lv_btn_style_t type)
 380:..\..\..\lvgl\version_6.1.2\lvgl\src\lv_objx/lv_btn.c **** {
 914              		.loc 2 380 0
 915              		.cfi_startproc
 916              		@ args = 0, pretend = 0, frame = 24
 917              		@ frame_needed = 1, uses_anonymous_args = 0
 918 0000 80B5     		push	{r7, lr}
 919              		.cfi_def_cfa_offset 8
 920              		.cfi_offset 7, -8
 921              		.cfi_offset 14, -4
 922 0002 86B0     		sub	sp, sp, #24
 923              		.cfi_def_cfa_offset 32
 924 0004 00AF     		add	r7, sp, #0
 925              		.cfi_def_cfa_register 7
 926 0006 7860     		str	r0, [r7, #4]
 927 0008 0B46     		mov	r3, r1
 928 000a FB70     		strb	r3, [r7, #3]
 381:..\..\..\lvgl\version_6.1.2\lvgl\src\lv_objx/lv_btn.c ****     LV_ASSERT_OBJ(btn, LV_OBJX_NAME);
 382:..\..\..\lvgl\version_6.1.2\lvgl\src\lv_objx/lv_btn.c **** 
 383:..\..\..\lvgl\version_6.1.2\lvgl\src\lv_objx/lv_btn.c ****     const lv_style_t * style = NULL;
 929              		.loc 2 383 0
 930 000c 0023     		movs	r3, #0
 931 000e 7B61     		str	r3, [r7, #20]
 384:..\..\..\lvgl\version_6.1.2\lvgl\src\lv_objx/lv_btn.c ****     lv_btn_ext_t * ext       = lv_obj_get_ext_attr(btn);
 932              		.loc 2 384 0
 933 0010 7868     		ldr	r0, [r7, #4]
 934 0012 FFF7FEFF 		bl	lv_obj_get_ext_attr
 935 0016 3861     		str	r0, [r7, #16]
 385:..\..\..\lvgl\version_6.1.2\lvgl\src\lv_objx/lv_btn.c ****     lv_btn_state_t state     = lv_btn_get_state(btn);
 936              		.loc 2 385 0
 937 0018 7868     		ldr	r0, [r7, #4]
 938 001a FFF7FEFF 		bl	lv_btn_get_state
 939 001e 0346     		mov	r3, r0
 940 0020 FB73     		strb	r3, [r7, #15]
 386:..\..\..\lvgl\version_6.1.2\lvgl\src\lv_objx/lv_btn.c **** 
 387:..\..\..\lvgl\version_6.1.2\lvgl\src\lv_objx/lv_btn.c ****     /* If the style of the current state is asked then return object style.
 388:..\..\..\lvgl\version_6.1.2\lvgl\src\lv_objx/lv_btn.c ****      * If the button is focused then this style is updated by the group's
ARM GAS  C:\Users\tmj32\AppData\Local\Temp\ccKhIVes.s 			page 27


 389:..\..\..\lvgl\version_6.1.2\lvgl\src\lv_objx/lv_btn.c ****      * `style_mod_cb` function */
 390:..\..\..\lvgl\version_6.1.2\lvgl\src\lv_objx/lv_btn.c ****     if((type == LV_BTN_STYLE_REL && state == LV_BTN_STATE_REL) ||
 941              		.loc 2 390 0
 942 0022 FB78     		ldrb	r3, [r7, #3]	@ zero_extendqisi2
 943 0024 002B     		cmp	r3, #0
 944 0026 02D1     		bne	.L50
 945              		.loc 2 390 0 is_stmt 0 discriminator 1
 946 0028 FB7B     		ldrb	r3, [r7, #15]	@ zero_extendqisi2
 947 002a 002B     		cmp	r3, #0
 948 002c 17D0     		beq	.L51
 949              	.L50:
 950              		.loc 2 390 0 discriminator 3
 951 002e FB78     		ldrb	r3, [r7, #3]	@ zero_extendqisi2
 952 0030 012B     		cmp	r3, #1
 953 0032 02D1     		bne	.L52
 391:..\..\..\lvgl\version_6.1.2\lvgl\src\lv_objx/lv_btn.c ****        (type == LV_BTN_STYLE_PR && state == LV_BTN_STATE_PR) ||
 954              		.loc 2 391 0 is_stmt 1
 955 0034 FB7B     		ldrb	r3, [r7, #15]	@ zero_extendqisi2
 956 0036 012B     		cmp	r3, #1
 957 0038 11D0     		beq	.L51
 958              	.L52:
 959              		.loc 2 391 0 is_stmt 0 discriminator 1
 960 003a FB78     		ldrb	r3, [r7, #3]	@ zero_extendqisi2
 961 003c 022B     		cmp	r3, #2
 962 003e 02D1     		bne	.L53
 392:..\..\..\lvgl\version_6.1.2\lvgl\src\lv_objx/lv_btn.c ****        (type == LV_BTN_STYLE_TGL_REL && state == LV_BTN_STATE_TGL_REL) ||
 963              		.loc 2 392 0 is_stmt 1
 964 0040 FB7B     		ldrb	r3, [r7, #15]	@ zero_extendqisi2
 965 0042 022B     		cmp	r3, #2
 966 0044 0BD0     		beq	.L51
 967              	.L53:
 968              		.loc 2 392 0 is_stmt 0 discriminator 1
 969 0046 FB78     		ldrb	r3, [r7, #3]	@ zero_extendqisi2
 970 0048 032B     		cmp	r3, #3
 971 004a 02D1     		bne	.L54
 393:..\..\..\lvgl\version_6.1.2\lvgl\src\lv_objx/lv_btn.c ****        (type == LV_BTN_STYLE_TGL_PR && state == LV_BTN_STATE_TGL_PR) ||
 972              		.loc 2 393 0 is_stmt 1
 973 004c FB7B     		ldrb	r3, [r7, #15]	@ zero_extendqisi2
 974 004e 032B     		cmp	r3, #3
 975 0050 05D0     		beq	.L51
 976              	.L54:
 977              		.loc 2 393 0 is_stmt 0 discriminator 1
 978 0052 FB78     		ldrb	r3, [r7, #3]	@ zero_extendqisi2
 979 0054 042B     		cmp	r3, #4
 980 0056 07D1     		bne	.L55
 394:..\..\..\lvgl\version_6.1.2\lvgl\src\lv_objx/lv_btn.c ****        (type == LV_BTN_STYLE_INA && state == LV_BTN_STATE_INA)) {
 981              		.loc 2 394 0 is_stmt 1
 982 0058 FB7B     		ldrb	r3, [r7, #15]	@ zero_extendqisi2
 983 005a 042B     		cmp	r3, #4
 984 005c 04D1     		bne	.L55
 985              	.L51:
 395:..\..\..\lvgl\version_6.1.2\lvgl\src\lv_objx/lv_btn.c **** 
 396:..\..\..\lvgl\version_6.1.2\lvgl\src\lv_objx/lv_btn.c ****         style = lv_obj_get_style(btn);
 986              		.loc 2 396 0
 987 005e 7868     		ldr	r0, [r7, #4]
 988 0060 FFF7FEFF 		bl	lv_obj_get_style
 989 0064 7861     		str	r0, [r7, #20]
ARM GAS  C:\Users\tmj32\AppData\Local\Temp\ccKhIVes.s 			page 28


 990 0066 26E0     		b	.L56
 991              	.L55:
 397:..\..\..\lvgl\version_6.1.2\lvgl\src\lv_objx/lv_btn.c ****     } else {
 398:..\..\..\lvgl\version_6.1.2\lvgl\src\lv_objx/lv_btn.c ****         switch(type) {
 992              		.loc 2 398 0
 993 0068 FB78     		ldrb	r3, [r7, #3]	@ zero_extendqisi2
 994 006a 042B     		cmp	r3, #4
 995 006c 20D8     		bhi	.L57
 996 006e 01A2     		adr	r2, .L59
 997 0070 52F823F0 		ldr	pc, [r2, r3, lsl #2]
 998              		.p2align 2
 999              	.L59:
 1000 0074 89000000 		.word	.L58+1
 1001 0078 91000000 		.word	.L60+1
 1002 007c 99000000 		.word	.L61+1
 1003 0080 A1000000 		.word	.L62+1
 1004 0084 A9000000 		.word	.L63+1
 1005              		.p2align 1
 1006              	.L58:
 399:..\..\..\lvgl\version_6.1.2\lvgl\src\lv_objx/lv_btn.c ****             case LV_BTN_STYLE_REL: style = ext->styles[LV_BTN_STATE_REL]; break;
 1007              		.loc 2 399 0
 1008 0088 3B69     		ldr	r3, [r7, #16]
 1009 008a 5B68     		ldr	r3, [r3, #4]
 1010 008c 7B61     		str	r3, [r7, #20]
 1011 008e 12E0     		b	.L56
 1012              	.L60:
 400:..\..\..\lvgl\version_6.1.2\lvgl\src\lv_objx/lv_btn.c ****             case LV_BTN_STYLE_PR: style = ext->styles[LV_BTN_STATE_PR]; break;
 1013              		.loc 2 400 0
 1014 0090 3B69     		ldr	r3, [r7, #16]
 1015 0092 9B68     		ldr	r3, [r3, #8]
 1016 0094 7B61     		str	r3, [r7, #20]
 1017 0096 0EE0     		b	.L56
 1018              	.L61:
 401:..\..\..\lvgl\version_6.1.2\lvgl\src\lv_objx/lv_btn.c ****             case LV_BTN_STYLE_TGL_REL: style = ext->styles[LV_BTN_STATE_TGL_REL]; break;
 1019              		.loc 2 401 0
 1020 0098 3B69     		ldr	r3, [r7, #16]
 1021 009a DB68     		ldr	r3, [r3, #12]
 1022 009c 7B61     		str	r3, [r7, #20]
 1023 009e 0AE0     		b	.L56
 1024              	.L62:
 402:..\..\..\lvgl\version_6.1.2\lvgl\src\lv_objx/lv_btn.c ****             case LV_BTN_STYLE_TGL_PR: style = ext->styles[LV_BTN_STATE_TGL_PR]; break;
 1025              		.loc 2 402 0
 1026 00a0 3B69     		ldr	r3, [r7, #16]
 1027 00a2 1B69     		ldr	r3, [r3, #16]
 1028 00a4 7B61     		str	r3, [r7, #20]
 1029 00a6 06E0     		b	.L56
 1030              	.L63:
 403:..\..\..\lvgl\version_6.1.2\lvgl\src\lv_objx/lv_btn.c ****             case LV_BTN_STYLE_INA: style = ext->styles[LV_BTN_STATE_INA]; break;
 1031              		.loc 2 403 0
 1032 00a8 3B69     		ldr	r3, [r7, #16]
 1033 00aa 5B69     		ldr	r3, [r3, #20]
 1034 00ac 7B61     		str	r3, [r7, #20]
 1035 00ae 02E0     		b	.L56
 1036              	.L57:
 404:..\..\..\lvgl\version_6.1.2\lvgl\src\lv_objx/lv_btn.c ****             default: style = NULL; break;
 1037              		.loc 2 404 0
 1038 00b0 0023     		movs	r3, #0
ARM GAS  C:\Users\tmj32\AppData\Local\Temp\ccKhIVes.s 			page 29


 1039 00b2 7B61     		str	r3, [r7, #20]
 1040 00b4 00BF     		nop
 1041              	.L56:
 405:..\..\..\lvgl\version_6.1.2\lvgl\src\lv_objx/lv_btn.c ****         }
 406:..\..\..\lvgl\version_6.1.2\lvgl\src\lv_objx/lv_btn.c ****     }
 407:..\..\..\lvgl\version_6.1.2\lvgl\src\lv_objx/lv_btn.c **** 
 408:..\..\..\lvgl\version_6.1.2\lvgl\src\lv_objx/lv_btn.c ****     return style;
 1042              		.loc 2 408 0
 1043 00b6 7B69     		ldr	r3, [r7, #20]
 409:..\..\..\lvgl\version_6.1.2\lvgl\src\lv_objx/lv_btn.c **** }
 1044              		.loc 2 409 0
 1045 00b8 1846     		mov	r0, r3
 1046 00ba 1837     		adds	r7, r7, #24
 1047              		.cfi_def_cfa_offset 8
 1048 00bc BD46     		mov	sp, r7
 1049              		.cfi_def_cfa_register 13
 1050              		@ sp needed
 1051 00be 80BD     		pop	{r7, pc}
 1052              		.cfi_endproc
 1053              	.LFE57:
 1054              		.size	lv_btn_get_style, .-lv_btn_get_style
 1055              		.section	.text.lv_btn_design,"ax",%progbits
 1056              		.align	2
 1057              		.thumb
 1058              		.thumb_func
 1059              		.type	lv_btn_design, %function
 1060              	lv_btn_design:
 1061              	.LFB58:
 410:..\..\..\lvgl\version_6.1.2\lvgl\src\lv_objx/lv_btn.c **** 
 411:..\..\..\lvgl\version_6.1.2\lvgl\src\lv_objx/lv_btn.c **** /**********************
 412:..\..\..\lvgl\version_6.1.2\lvgl\src\lv_objx/lv_btn.c ****  *   STATIC FUNCTIONS
 413:..\..\..\lvgl\version_6.1.2\lvgl\src\lv_objx/lv_btn.c ****  **********************/
 414:..\..\..\lvgl\version_6.1.2\lvgl\src\lv_objx/lv_btn.c **** 
 415:..\..\..\lvgl\version_6.1.2\lvgl\src\lv_objx/lv_btn.c **** /**
 416:..\..\..\lvgl\version_6.1.2\lvgl\src\lv_objx/lv_btn.c ****  * Handle the drawing related tasks of the drop down lists
 417:..\..\..\lvgl\version_6.1.2\lvgl\src\lv_objx/lv_btn.c ****  * @param btn pointer to an object
 418:..\..\..\lvgl\version_6.1.2\lvgl\src\lv_objx/lv_btn.c ****  * @param mask the object will be drawn only in this area
 419:..\..\..\lvgl\version_6.1.2\lvgl\src\lv_objx/lv_btn.c ****  * @param mode LV_DESIGN_COVER_CHK: only check if the object fully covers the 'mask_p' area
 420:..\..\..\lvgl\version_6.1.2\lvgl\src\lv_objx/lv_btn.c ****  *                                  (return 'true' if yes)
 421:..\..\..\lvgl\version_6.1.2\lvgl\src\lv_objx/lv_btn.c ****  *             LV_DESIGN_DRAW: draw the object (always return 'true')
 422:..\..\..\lvgl\version_6.1.2\lvgl\src\lv_objx/lv_btn.c ****  *             LV_DESIGN_DRAW_POST: drawing after every children are drawn
 423:..\..\..\lvgl\version_6.1.2\lvgl\src\lv_objx/lv_btn.c ****  * @param return true/false, depends on 'mode'
 424:..\..\..\lvgl\version_6.1.2\lvgl\src\lv_objx/lv_btn.c ****  */
 425:..\..\..\lvgl\version_6.1.2\lvgl\src\lv_objx/lv_btn.c **** static bool lv_btn_design(lv_obj_t * btn, const lv_area_t * mask, lv_design_mode_t mode)
 426:..\..\..\lvgl\version_6.1.2\lvgl\src\lv_objx/lv_btn.c **** {
 1062              		.loc 2 426 0
 1063              		.cfi_startproc
 1064              		@ args = 0, pretend = 0, frame = 16
 1065              		@ frame_needed = 1, uses_anonymous_args = 0
 1066 0000 80B5     		push	{r7, lr}
 1067              		.cfi_def_cfa_offset 8
 1068              		.cfi_offset 7, -8
 1069              		.cfi_offset 14, -4
 1070 0002 84B0     		sub	sp, sp, #16
 1071              		.cfi_def_cfa_offset 24
 1072 0004 00AF     		add	r7, sp, #0
 1073              		.cfi_def_cfa_register 7
ARM GAS  C:\Users\tmj32\AppData\Local\Temp\ccKhIVes.s 			page 30


 1074 0006 F860     		str	r0, [r7, #12]
 1075 0008 B960     		str	r1, [r7, #8]
 1076 000a 1346     		mov	r3, r2
 1077 000c FB71     		strb	r3, [r7, #7]
 427:..\..\..\lvgl\version_6.1.2\lvgl\src\lv_objx/lv_btn.c ****     if(mode == LV_DESIGN_COVER_CHK) {
 1078              		.loc 2 427 0
 1079 000e FB79     		ldrb	r3, [r7, #7]	@ zero_extendqisi2
 1080 0010 022B     		cmp	r3, #2
 1081 0012 01D1     		bne	.L66
 428:..\..\..\lvgl\version_6.1.2\lvgl\src\lv_objx/lv_btn.c ****         return false;
 1082              		.loc 2 428 0
 1083 0014 0023     		movs	r3, #0
 1084 0016 13E0     		b	.L67
 1085              	.L66:
 429:..\..\..\lvgl\version_6.1.2\lvgl\src\lv_objx/lv_btn.c ****     } else if(mode == LV_DESIGN_DRAW_MAIN) {
 1086              		.loc 2 429 0
 1087 0018 FB79     		ldrb	r3, [r7, #7]	@ zero_extendqisi2
 1088 001a 002B     		cmp	r3, #0
 1089 001c 06D1     		bne	.L68
 430:..\..\..\lvgl\version_6.1.2\lvgl\src\lv_objx/lv_btn.c **** 
 431:..\..\..\lvgl\version_6.1.2\lvgl\src\lv_objx/lv_btn.c **** #if LV_USE_ANIMATION && LV_BTN_INK_EFFECT
 432:..\..\..\lvgl\version_6.1.2\lvgl\src\lv_objx/lv_btn.c ****         if(btn != ink_obj) {
 433:..\..\..\lvgl\version_6.1.2\lvgl\src\lv_objx/lv_btn.c ****             ancestor_design(btn, mask, mode);
 434:..\..\..\lvgl\version_6.1.2\lvgl\src\lv_objx/lv_btn.c ****         } else {
 435:..\..\..\lvgl\version_6.1.2\lvgl\src\lv_objx/lv_btn.c ****             lv_opa_t opa_scale = lv_obj_get_opa_scale(btn);
 436:..\..\..\lvgl\version_6.1.2\lvgl\src\lv_objx/lv_btn.c ****             lv_btn_ext_t * ext = lv_obj_get_ext_attr(btn);
 437:..\..\..\lvgl\version_6.1.2\lvgl\src\lv_objx/lv_btn.c **** 
 438:..\..\..\lvgl\version_6.1.2\lvgl\src\lv_objx/lv_btn.c ****             /*Draw the normal button*/
 439:..\..\..\lvgl\version_6.1.2\lvgl\src\lv_objx/lv_btn.c ****             if(ink_playback == false) {
 440:..\..\..\lvgl\version_6.1.2\lvgl\src\lv_objx/lv_btn.c ****                 lv_style_t style_tmp;
 441:..\..\..\lvgl\version_6.1.2\lvgl\src\lv_objx/lv_btn.c ****                 lv_style_copy(&style_tmp, ext->styles[ink_bg_state]);
 442:..\..\..\lvgl\version_6.1.2\lvgl\src\lv_objx/lv_btn.c ****                 style_tmp.body.shadow.width = ext->styles[ink_top_state]->body.shadow.width;
 443:..\..\..\lvgl\version_6.1.2\lvgl\src\lv_objx/lv_btn.c ****                 lv_draw_rect(&btn->coords, mask, &style_tmp, opa_scale);
 444:..\..\..\lvgl\version_6.1.2\lvgl\src\lv_objx/lv_btn.c **** 
 445:..\..\..\lvgl\version_6.1.2\lvgl\src\lv_objx/lv_btn.c ****                 lv_coord_t w     = lv_obj_get_width(btn);
 446:..\..\..\lvgl\version_6.1.2\lvgl\src\lv_objx/lv_btn.c ****                 lv_coord_t h     = lv_obj_get_height(btn);
 447:..\..\..\lvgl\version_6.1.2\lvgl\src\lv_objx/lv_btn.c ****                 lv_coord_t r_max = LV_MATH_MIN(w, h) / 2;
 448:..\..\..\lvgl\version_6.1.2\lvgl\src\lv_objx/lv_btn.c **** 
 449:..\..\..\lvgl\version_6.1.2\lvgl\src\lv_objx/lv_btn.c ****                 /*In the first part of the animation increase the size of the circle (ink effect) *
 450:..\..\..\lvgl\version_6.1.2\lvgl\src\lv_objx/lv_btn.c ****                 lv_area_t cir_area;
 451:..\..\..\lvgl\version_6.1.2\lvgl\src\lv_objx/lv_btn.c **** 
 452:..\..\..\lvgl\version_6.1.2\lvgl\src\lv_objx/lv_btn.c ****                 lv_coord_t coord_state =
 453:..\..\..\lvgl\version_6.1.2\lvgl\src\lv_objx/lv_btn.c ****                     ink_act_value < LV_BTN_INK_VALUE_MAX / 2 ? ink_act_value : LV_BTN_INK_VALUE_MAX
 454:..\..\..\lvgl\version_6.1.2\lvgl\src\lv_objx/lv_btn.c ****                 lv_point_t p_act;
 455:..\..\..\lvgl\version_6.1.2\lvgl\src\lv_objx/lv_btn.c ****                 p_act.x          = ink_point.x;
 456:..\..\..\lvgl\version_6.1.2\lvgl\src\lv_objx/lv_btn.c ****                 p_act.y          = ink_point.y;
 457:..\..\..\lvgl\version_6.1.2\lvgl\src\lv_objx/lv_btn.c ****                 lv_coord_t x_err = (btn->coords.x1 + w / 2) - p_act.x;
 458:..\..\..\lvgl\version_6.1.2\lvgl\src\lv_objx/lv_btn.c ****                 lv_coord_t y_err = (btn->coords.y1 + h / 2) - p_act.y;
 459:..\..\..\lvgl\version_6.1.2\lvgl\src\lv_objx/lv_btn.c **** 
 460:..\..\..\lvgl\version_6.1.2\lvgl\src\lv_objx/lv_btn.c ****                 p_act.x += (x_err * coord_state) >> (LV_BTN_INK_VALUE_MAX_SHIFT - 1);
 461:..\..\..\lvgl\version_6.1.2\lvgl\src\lv_objx/lv_btn.c ****                 p_act.y += (y_err * coord_state) >> (LV_BTN_INK_VALUE_MAX_SHIFT - 1);
 462:..\..\..\lvgl\version_6.1.2\lvgl\src\lv_objx/lv_btn.c **** 
 463:..\..\..\lvgl\version_6.1.2\lvgl\src\lv_objx/lv_btn.c ****                 lv_coord_t half_side = LV_MATH_MAX(w, h) / 2;
 464:..\..\..\lvgl\version_6.1.2\lvgl\src\lv_objx/lv_btn.c ****                 cir_area.x1          = p_act.x - ((half_side * coord_state) >> (LV_BTN_INK_VALUE_MA
 465:..\..\..\lvgl\version_6.1.2\lvgl\src\lv_objx/lv_btn.c ****                 cir_area.y1          = p_act.y - ((half_side * coord_state) >> (LV_BTN_INK_VALUE_MA
 466:..\..\..\lvgl\version_6.1.2\lvgl\src\lv_objx/lv_btn.c ****                 cir_area.x2          = p_act.x + ((half_side * coord_state) >> (LV_BTN_INK_VALUE_MA
 467:..\..\..\lvgl\version_6.1.2\lvgl\src\lv_objx/lv_btn.c ****                 cir_area.y2          = p_act.y + ((half_side * coord_state) >> (LV_BTN_INK_VALUE_MA
ARM GAS  C:\Users\tmj32\AppData\Local\Temp\ccKhIVes.s 			page 31


 468:..\..\..\lvgl\version_6.1.2\lvgl\src\lv_objx/lv_btn.c **** 
 469:..\..\..\lvgl\version_6.1.2\lvgl\src\lv_objx/lv_btn.c ****                 lv_area_intersect(&cir_area, &btn->coords,
 470:..\..\..\lvgl\version_6.1.2\lvgl\src\lv_objx/lv_btn.c ****                                   &cir_area); /*Limit the area. (It might be too big on the smaller
 471:..\..\..\lvgl\version_6.1.2\lvgl\src\lv_objx/lv_btn.c **** 
 472:..\..\..\lvgl\version_6.1.2\lvgl\src\lv_objx/lv_btn.c ****                 /*In the second part animate the radius. Circle -> body.radius*/
 473:..\..\..\lvgl\version_6.1.2\lvgl\src\lv_objx/lv_btn.c ****                 lv_coord_t r_state =
 474:..\..\..\lvgl\version_6.1.2\lvgl\src\lv_objx/lv_btn.c ****                     ink_act_value > LV_BTN_INK_VALUE_MAX / 2 ? ink_act_value - LV_BTN_INK_VALUE_MAX
 475:..\..\..\lvgl\version_6.1.2\lvgl\src\lv_objx/lv_btn.c **** 
 476:..\..\..\lvgl\version_6.1.2\lvgl\src\lv_objx/lv_btn.c ****                 lv_style_copy(&style_tmp, ext->styles[ink_top_state]);
 477:..\..\..\lvgl\version_6.1.2\lvgl\src\lv_objx/lv_btn.c ****                 style_tmp.body.radius       = r_max + (((ext->styles[ink_bg_state]->body.radius - r
 478:..\..\..\lvgl\version_6.1.2\lvgl\src\lv_objx/lv_btn.c ****                                                  (LV_BTN_INK_VALUE_MAX_SHIFT - 1));
 479:..\..\..\lvgl\version_6.1.2\lvgl\src\lv_objx/lv_btn.c ****                 style_tmp.body.border.width = 0;
 480:..\..\..\lvgl\version_6.1.2\lvgl\src\lv_objx/lv_btn.c **** 
 481:..\..\..\lvgl\version_6.1.2\lvgl\src\lv_objx/lv_btn.c ****                 /*Draw the circle*/
 482:..\..\..\lvgl\version_6.1.2\lvgl\src\lv_objx/lv_btn.c ****                 lv_draw_rect(&cir_area, mask, &style_tmp, opa_scale);
 483:..\..\..\lvgl\version_6.1.2\lvgl\src\lv_objx/lv_btn.c ****             } else {
 484:..\..\..\lvgl\version_6.1.2\lvgl\src\lv_objx/lv_btn.c ****                 lv_style_t res;
 485:..\..\..\lvgl\version_6.1.2\lvgl\src\lv_objx/lv_btn.c ****                 lv_style_copy(&res, ext->styles[ink_bg_state]);
 486:..\..\..\lvgl\version_6.1.2\lvgl\src\lv_objx/lv_btn.c ****                 lv_style_mix(ext->styles[ink_bg_state], ext->styles[ink_top_state], &res, ink_act_v
 487:..\..\..\lvgl\version_6.1.2\lvgl\src\lv_objx/lv_btn.c ****                 lv_draw_rect(&btn->coords, mask, &res, opa_scale);
 488:..\..\..\lvgl\version_6.1.2\lvgl\src\lv_objx/lv_btn.c ****             }
 489:..\..\..\lvgl\version_6.1.2\lvgl\src\lv_objx/lv_btn.c ****         }
 490:..\..\..\lvgl\version_6.1.2\lvgl\src\lv_objx/lv_btn.c **** #else
 491:..\..\..\lvgl\version_6.1.2\lvgl\src\lv_objx/lv_btn.c ****         ancestor_design(btn, mask, mode);
 1090              		.loc 2 491 0
 1091 001e 0A4B     		ldr	r3, .L70
 1092 0020 1B68     		ldr	r3, [r3]
 1093 0022 FA79     		ldrb	r2, [r7, #7]	@ zero_extendqisi2
 1094 0024 B968     		ldr	r1, [r7, #8]
 1095 0026 F868     		ldr	r0, [r7, #12]
 1096 0028 9847     		blx	r3
 1097 002a 08E0     		b	.L69
 1098              	.L68:
 492:..\..\..\lvgl\version_6.1.2\lvgl\src\lv_objx/lv_btn.c **** #endif
 493:..\..\..\lvgl\version_6.1.2\lvgl\src\lv_objx/lv_btn.c ****     } else if(mode == LV_DESIGN_DRAW_POST) {
 1099              		.loc 2 493 0
 1100 002c FB79     		ldrb	r3, [r7, #7]	@ zero_extendqisi2
 1101 002e 012B     		cmp	r3, #1
 1102 0030 05D1     		bne	.L69
 494:..\..\..\lvgl\version_6.1.2\lvgl\src\lv_objx/lv_btn.c ****         ancestor_design(btn, mask, mode);
 1103              		.loc 2 494 0
 1104 0032 054B     		ldr	r3, .L70
 1105 0034 1B68     		ldr	r3, [r3]
 1106 0036 FA79     		ldrb	r2, [r7, #7]	@ zero_extendqisi2
 1107 0038 B968     		ldr	r1, [r7, #8]
 1108 003a F868     		ldr	r0, [r7, #12]
 1109 003c 9847     		blx	r3
 1110              	.L69:
 495:..\..\..\lvgl\version_6.1.2\lvgl\src\lv_objx/lv_btn.c ****     }
 496:..\..\..\lvgl\version_6.1.2\lvgl\src\lv_objx/lv_btn.c **** 
 497:..\..\..\lvgl\version_6.1.2\lvgl\src\lv_objx/lv_btn.c ****     return true;
 1111              		.loc 2 497 0
 1112 003e 0123     		movs	r3, #1
 1113              	.L67:
 498:..\..\..\lvgl\version_6.1.2\lvgl\src\lv_objx/lv_btn.c **** }
 1114              		.loc 2 498 0
 1115 0040 1846     		mov	r0, r3
ARM GAS  C:\Users\tmj32\AppData\Local\Temp\ccKhIVes.s 			page 32


 1116 0042 1037     		adds	r7, r7, #16
 1117              		.cfi_def_cfa_offset 8
 1118 0044 BD46     		mov	sp, r7
 1119              		.cfi_def_cfa_register 13
 1120              		@ sp needed
 1121 0046 80BD     		pop	{r7, pc}
 1122              	.L71:
 1123              		.align	2
 1124              	.L70:
 1125 0048 04000000 		.word	ancestor_design
 1126              		.cfi_endproc
 1127              	.LFE58:
 1128              		.size	lv_btn_design, .-lv_btn_design
 1129              		.section	.rodata
 1130              		.align	2
 1131              	.LC0:
 1132 0000 6C765F62 		.ascii	"lv_btn\000"
 1132      746E00
 1133              		.section	.text.lv_btn_signal,"ax",%progbits
 1134              		.align	2
 1135              		.thumb
 1136              		.thumb_func
 1137              		.type	lv_btn_signal, %function
 1138              	lv_btn_signal:
 1139              	.LFB59:
 499:..\..\..\lvgl\version_6.1.2\lvgl\src\lv_objx/lv_btn.c **** 
 500:..\..\..\lvgl\version_6.1.2\lvgl\src\lv_objx/lv_btn.c **** /**
 501:..\..\..\lvgl\version_6.1.2\lvgl\src\lv_objx/lv_btn.c ****  * Signal function of the button
 502:..\..\..\lvgl\version_6.1.2\lvgl\src\lv_objx/lv_btn.c ****  * @param btn pointer to a button object
 503:..\..\..\lvgl\version_6.1.2\lvgl\src\lv_objx/lv_btn.c ****  * @param sign a signal type from lv_signal_t enum
 504:..\..\..\lvgl\version_6.1.2\lvgl\src\lv_objx/lv_btn.c ****  * @param param pointer to a signal specific variable
 505:..\..\..\lvgl\version_6.1.2\lvgl\src\lv_objx/lv_btn.c ****  * @return LV_RES_OK: the object is not deleted in the function; LV_RES_INV: the object is deleted
 506:..\..\..\lvgl\version_6.1.2\lvgl\src\lv_objx/lv_btn.c ****  */
 507:..\..\..\lvgl\version_6.1.2\lvgl\src\lv_objx/lv_btn.c **** static lv_res_t lv_btn_signal(lv_obj_t * btn, lv_signal_t sign, void * param)
 508:..\..\..\lvgl\version_6.1.2\lvgl\src\lv_objx/lv_btn.c **** {
 1140              		.loc 2 508 0
 1141              		.cfi_startproc
 1142              		@ args = 0, pretend = 0, frame = 40
 1143              		@ frame_needed = 1, uses_anonymous_args = 0
 1144 0000 80B5     		push	{r7, lr}
 1145              		.cfi_def_cfa_offset 8
 1146              		.cfi_offset 7, -8
 1147              		.cfi_offset 14, -4
 1148 0002 8AB0     		sub	sp, sp, #40
 1149              		.cfi_def_cfa_offset 48
 1150 0004 00AF     		add	r7, sp, #0
 1151              		.cfi_def_cfa_register 7
 1152 0006 F860     		str	r0, [r7, #12]
 1153 0008 0B46     		mov	r3, r1
 1154 000a 7A60     		str	r2, [r7, #4]
 1155 000c FB72     		strb	r3, [r7, #11]
 509:..\..\..\lvgl\version_6.1.2\lvgl\src\lv_objx/lv_btn.c ****     lv_res_t res;
 510:..\..\..\lvgl\version_6.1.2\lvgl\src\lv_objx/lv_btn.c **** 
 511:..\..\..\lvgl\version_6.1.2\lvgl\src\lv_objx/lv_btn.c ****     /* Include the ancient signal function */
 512:..\..\..\lvgl\version_6.1.2\lvgl\src\lv_objx/lv_btn.c ****     res = ancestor_signal(btn, sign, param);
 1156              		.loc 2 512 0
 1157 000e A94B     		ldr	r3, .L103
ARM GAS  C:\Users\tmj32\AppData\Local\Temp\ccKhIVes.s 			page 33


 1158 0010 1B68     		ldr	r3, [r3]
 1159 0012 F97A     		ldrb	r1, [r7, #11]	@ zero_extendqisi2
 1160 0014 7A68     		ldr	r2, [r7, #4]
 1161 0016 F868     		ldr	r0, [r7, #12]
 1162 0018 9847     		blx	r3
 1163 001a 0346     		mov	r3, r0
 1164 001c 87F82730 		strb	r3, [r7, #39]
 513:..\..\..\lvgl\version_6.1.2\lvgl\src\lv_objx/lv_btn.c ****     if(res != LV_RES_OK) return res;
 1165              		.loc 2 513 0
 1166 0020 97F82730 		ldrb	r3, [r7, #39]	@ zero_extendqisi2
 1167 0024 012B     		cmp	r3, #1
 1168 0026 02D0     		beq	.L73
 1169              		.loc 2 513 0 is_stmt 0 discriminator 1
 1170 0028 97F82730 		ldrb	r3, [r7, #39]	@ zero_extendqisi2
 1171 002c 3EE1     		b	.L74
 1172              	.L73:
 514:..\..\..\lvgl\version_6.1.2\lvgl\src\lv_objx/lv_btn.c ****     if(sign == LV_SIGNAL_GET_TYPE) return lv_obj_handle_get_type_signal(param, LV_OBJX_NAME);
 1173              		.loc 2 514 0 is_stmt 1
 1174 002e FB7A     		ldrb	r3, [r7, #11]	@ zero_extendqisi2
 1175 0030 072B     		cmp	r3, #7
 1176 0032 05D1     		bne	.L75
 1177              		.loc 2 514 0 is_stmt 0 discriminator 1
 1178 0034 A049     		ldr	r1, .L103+4
 1179 0036 7868     		ldr	r0, [r7, #4]
 1180 0038 FFF7FEFF 		bl	lv_obj_handle_get_type_signal
 1181 003c 0346     		mov	r3, r0
 1182 003e 35E1     		b	.L74
 1183              	.L75:
 515:..\..\..\lvgl\version_6.1.2\lvgl\src\lv_objx/lv_btn.c **** 
 516:..\..\..\lvgl\version_6.1.2\lvgl\src\lv_objx/lv_btn.c ****     lv_btn_ext_t * ext = lv_obj_get_ext_attr(btn);
 1184              		.loc 2 516 0 is_stmt 1
 1185 0040 F868     		ldr	r0, [r7, #12]
 1186 0042 FFF7FEFF 		bl	lv_obj_get_ext_attr
 1187 0046 3862     		str	r0, [r7, #32]
 517:..\..\..\lvgl\version_6.1.2\lvgl\src\lv_objx/lv_btn.c ****     bool tgl           = lv_btn_get_toggle(btn);
 1188              		.loc 2 517 0
 1189 0048 F868     		ldr	r0, [r7, #12]
 1190 004a FFF7FEFF 		bl	lv_btn_get_toggle
 1191 004e 0346     		mov	r3, r0
 1192 0050 FB77     		strb	r3, [r7, #31]
 518:..\..\..\lvgl\version_6.1.2\lvgl\src\lv_objx/lv_btn.c **** 
 519:..\..\..\lvgl\version_6.1.2\lvgl\src\lv_objx/lv_btn.c ****     if(sign == LV_SIGNAL_PRESSED) {
 1193              		.loc 2 519 0
 1194 0052 FB7A     		ldrb	r3, [r7, #11]	@ zero_extendqisi2
 1195 0054 082B     		cmp	r3, #8
 1196 0056 18D1     		bne	.L76
 520:..\..\..\lvgl\version_6.1.2\lvgl\src\lv_objx/lv_btn.c ****         /*Refresh the state*/
 521:..\..\..\lvgl\version_6.1.2\lvgl\src\lv_objx/lv_btn.c ****         if(ext->state == LV_BTN_STATE_REL) {
 1197              		.loc 2 521 0
 1198 0058 3B6A     		ldr	r3, [r7, #32]
 1199 005a 1B7E     		ldrb	r3, [r3, #24]	@ zero_extendqisi2
 1200 005c 03F00703 		and	r3, r3, #7
 1201 0060 DBB2     		uxtb	r3, r3
 1202 0062 002B     		cmp	r3, #0
 1203 0064 04D1     		bne	.L77
 522:..\..\..\lvgl\version_6.1.2\lvgl\src\lv_objx/lv_btn.c ****             lv_btn_set_state(btn, LV_BTN_STATE_PR);
 1204              		.loc 2 522 0
ARM GAS  C:\Users\tmj32\AppData\Local\Temp\ccKhIVes.s 			page 34


 1205 0066 0121     		movs	r1, #1
 1206 0068 F868     		ldr	r0, [r7, #12]
 1207 006a FFF7FEFF 		bl	lv_btn_set_state
 1208 006e 1BE1     		b	.L79
 1209              	.L77:
 523:..\..\..\lvgl\version_6.1.2\lvgl\src\lv_objx/lv_btn.c **** #if LV_USE_ANIMATION && LV_BTN_INK_EFFECT
 524:..\..\..\lvgl\version_6.1.2\lvgl\src\lv_objx/lv_btn.c ****             ink_bg_state  = LV_BTN_STATE_REL;
 525:..\..\..\lvgl\version_6.1.2\lvgl\src\lv_objx/lv_btn.c ****             ink_top_state = LV_BTN_STATE_PR;
 526:..\..\..\lvgl\version_6.1.2\lvgl\src\lv_objx/lv_btn.c **** #endif
 527:..\..\..\lvgl\version_6.1.2\lvgl\src\lv_objx/lv_btn.c ****         } else if(ext->state == LV_BTN_STATE_TGL_REL) {
 1210              		.loc 2 527 0
 1211 0070 3B6A     		ldr	r3, [r7, #32]
 1212 0072 1B7E     		ldrb	r3, [r3, #24]	@ zero_extendqisi2
 1213 0074 03F00703 		and	r3, r3, #7
 1214 0078 DBB2     		uxtb	r3, r3
 1215 007a 022B     		cmp	r3, #2
 1216 007c 40F01481 		bne	.L79
 528:..\..\..\lvgl\version_6.1.2\lvgl\src\lv_objx/lv_btn.c ****             lv_btn_set_state(btn, LV_BTN_STATE_TGL_PR);
 1217              		.loc 2 528 0
 1218 0080 0321     		movs	r1, #3
 1219 0082 F868     		ldr	r0, [r7, #12]
 1220 0084 FFF7FEFF 		bl	lv_btn_set_state
 1221 0088 0EE1     		b	.L79
 1222              	.L76:
 529:..\..\..\lvgl\version_6.1.2\lvgl\src\lv_objx/lv_btn.c **** #if LV_USE_ANIMATION && LV_BTN_INK_EFFECT
 530:..\..\..\lvgl\version_6.1.2\lvgl\src\lv_objx/lv_btn.c ****             ink_bg_state  = LV_BTN_STATE_TGL_REL;
 531:..\..\..\lvgl\version_6.1.2\lvgl\src\lv_objx/lv_btn.c ****             ink_top_state = LV_BTN_STATE_TGL_PR;
 532:..\..\..\lvgl\version_6.1.2\lvgl\src\lv_objx/lv_btn.c **** #endif
 533:..\..\..\lvgl\version_6.1.2\lvgl\src\lv_objx/lv_btn.c ****         }
 534:..\..\..\lvgl\version_6.1.2\lvgl\src\lv_objx/lv_btn.c **** 
 535:..\..\..\lvgl\version_6.1.2\lvgl\src\lv_objx/lv_btn.c **** #if LV_USE_ANIMATION && LV_BTN_INK_EFFECT
 536:..\..\..\lvgl\version_6.1.2\lvgl\src\lv_objx/lv_btn.c ****         /*Forget the old inked button*/
 537:..\..\..\lvgl\version_6.1.2\lvgl\src\lv_objx/lv_btn.c ****         if(ink_obj != NULL && ink_obj != btn) {
 538:..\..\..\lvgl\version_6.1.2\lvgl\src\lv_objx/lv_btn.c ****             lv_anim_del(ink_obj, (lv_anim_exec_xcb_t)lv_btn_ink_effect_anim);
 539:..\..\..\lvgl\version_6.1.2\lvgl\src\lv_objx/lv_btn.c ****             lv_obj_invalidate(ink_obj);
 540:..\..\..\lvgl\version_6.1.2\lvgl\src\lv_objx/lv_btn.c ****             ink_obj = NULL;
 541:..\..\..\lvgl\version_6.1.2\lvgl\src\lv_objx/lv_btn.c ****         }
 542:..\..\..\lvgl\version_6.1.2\lvgl\src\lv_objx/lv_btn.c ****         /*Save the new data for inking and start it's animation if enabled*/
 543:..\..\..\lvgl\version_6.1.2\lvgl\src\lv_objx/lv_btn.c ****         if(ext->ink_in_time > 0) {
 544:..\..\..\lvgl\version_6.1.2\lvgl\src\lv_objx/lv_btn.c ****             ink_obj      = btn;
 545:..\..\..\lvgl\version_6.1.2\lvgl\src\lv_objx/lv_btn.c ****             ink_playback = false;
 546:..\..\..\lvgl\version_6.1.2\lvgl\src\lv_objx/lv_btn.c ****             ink_ready    = false;
 547:..\..\..\lvgl\version_6.1.2\lvgl\src\lv_objx/lv_btn.c ****             lv_indev_get_point(lv_indev_get_act(), &ink_point);
 548:..\..\..\lvgl\version_6.1.2\lvgl\src\lv_objx/lv_btn.c **** 
 549:..\..\..\lvgl\version_6.1.2\lvgl\src\lv_objx/lv_btn.c ****             lv_anim_t a;
 550:..\..\..\lvgl\version_6.1.2\lvgl\src\lv_objx/lv_btn.c ****             a.var            = btn;
 551:..\..\..\lvgl\version_6.1.2\lvgl\src\lv_objx/lv_btn.c ****             a.start          = 0;
 552:..\..\..\lvgl\version_6.1.2\lvgl\src\lv_objx/lv_btn.c ****             a.end            = LV_BTN_INK_VALUE_MAX;
 553:..\..\..\lvgl\version_6.1.2\lvgl\src\lv_objx/lv_btn.c ****             a.exec_cb        = (lv_anim_exec_xcb_t)lv_btn_ink_effect_anim;
 554:..\..\..\lvgl\version_6.1.2\lvgl\src\lv_objx/lv_btn.c ****             a.path_cb        = lv_anim_path_linear;
 555:..\..\..\lvgl\version_6.1.2\lvgl\src\lv_objx/lv_btn.c ****             a.ready_cb       = lv_btn_ink_effect_anim_ready;
 556:..\..\..\lvgl\version_6.1.2\lvgl\src\lv_objx/lv_btn.c ****             a.act_time       = 0;
 557:..\..\..\lvgl\version_6.1.2\lvgl\src\lv_objx/lv_btn.c ****             a.time           = ext->ink_in_time;
 558:..\..\..\lvgl\version_6.1.2\lvgl\src\lv_objx/lv_btn.c ****             a.playback       = 0;
 559:..\..\..\lvgl\version_6.1.2\lvgl\src\lv_objx/lv_btn.c ****             a.playback_pause = 0;
 560:..\..\..\lvgl\version_6.1.2\lvgl\src\lv_objx/lv_btn.c ****             a.repeat         = 0;
 561:..\..\..\lvgl\version_6.1.2\lvgl\src\lv_objx/lv_btn.c ****             a.repeat_pause   = 0;
ARM GAS  C:\Users\tmj32\AppData\Local\Temp\ccKhIVes.s 			page 35


 562:..\..\..\lvgl\version_6.1.2\lvgl\src\lv_objx/lv_btn.c ****             lv_anim_create(&a);
 563:..\..\..\lvgl\version_6.1.2\lvgl\src\lv_objx/lv_btn.c ****         }
 564:..\..\..\lvgl\version_6.1.2\lvgl\src\lv_objx/lv_btn.c **** #endif
 565:..\..\..\lvgl\version_6.1.2\lvgl\src\lv_objx/lv_btn.c ****     } else if(sign == LV_SIGNAL_PRESS_LOST) {
 1223              		.loc 2 565 0
 1224 008a FB7A     		ldrb	r3, [r7, #11]	@ zero_extendqisi2
 1225 008c 0A2B     		cmp	r3, #10
 1226 008e 18D1     		bne	.L80
 566:..\..\..\lvgl\version_6.1.2\lvgl\src\lv_objx/lv_btn.c ****         /*Refresh the state*/
 567:..\..\..\lvgl\version_6.1.2\lvgl\src\lv_objx/lv_btn.c ****         if(ext->state == LV_BTN_STATE_PR)
 1227              		.loc 2 567 0
 1228 0090 3B6A     		ldr	r3, [r7, #32]
 1229 0092 1B7E     		ldrb	r3, [r3, #24]	@ zero_extendqisi2
 1230 0094 03F00703 		and	r3, r3, #7
 1231 0098 DBB2     		uxtb	r3, r3
 1232 009a 012B     		cmp	r3, #1
 1233 009c 04D1     		bne	.L81
 568:..\..\..\lvgl\version_6.1.2\lvgl\src\lv_objx/lv_btn.c ****             lv_btn_set_state(btn, LV_BTN_STATE_REL);
 1234              		.loc 2 568 0
 1235 009e 0021     		movs	r1, #0
 1236 00a0 F868     		ldr	r0, [r7, #12]
 1237 00a2 FFF7FEFF 		bl	lv_btn_set_state
 1238 00a6 FFE0     		b	.L79
 1239              	.L81:
 569:..\..\..\lvgl\version_6.1.2\lvgl\src\lv_objx/lv_btn.c ****         else if(ext->state == LV_BTN_STATE_TGL_PR)
 1240              		.loc 2 569 0
 1241 00a8 3B6A     		ldr	r3, [r7, #32]
 1242 00aa 1B7E     		ldrb	r3, [r3, #24]	@ zero_extendqisi2
 1243 00ac 03F00703 		and	r3, r3, #7
 1244 00b0 DBB2     		uxtb	r3, r3
 1245 00b2 032B     		cmp	r3, #3
 1246 00b4 40F0F880 		bne	.L79
 570:..\..\..\lvgl\version_6.1.2\lvgl\src\lv_objx/lv_btn.c ****             lv_btn_set_state(btn, LV_BTN_STATE_TGL_REL);
 1247              		.loc 2 570 0
 1248 00b8 0221     		movs	r1, #2
 1249 00ba F868     		ldr	r0, [r7, #12]
 1250 00bc FFF7FEFF 		bl	lv_btn_set_state
 1251 00c0 F2E0     		b	.L79
 1252              	.L80:
 571:..\..\..\lvgl\version_6.1.2\lvgl\src\lv_objx/lv_btn.c ****     } else if(sign == LV_SIGNAL_PRESSING) {
 1253              		.loc 2 571 0
 1254 00c2 FB7A     		ldrb	r3, [r7, #11]	@ zero_extendqisi2
 1255 00c4 092B     		cmp	r3, #9
 1256 00c6 1FD1     		bne	.L83
 572:..\..\..\lvgl\version_6.1.2\lvgl\src\lv_objx/lv_btn.c ****         /*When the button begins to drag revert pressed states to released*/
 573:..\..\..\lvgl\version_6.1.2\lvgl\src\lv_objx/lv_btn.c ****         if(lv_indev_is_dragging(param) != false) {
 1257              		.loc 2 573 0
 1258 00c8 7868     		ldr	r0, [r7, #4]
 1259 00ca FFF7FEFF 		bl	lv_indev_is_dragging
 1260 00ce 0346     		mov	r3, r0
 1261 00d0 002B     		cmp	r3, #0
 1262 00d2 00F0E980 		beq	.L79
 574:..\..\..\lvgl\version_6.1.2\lvgl\src\lv_objx/lv_btn.c ****             if(ext->state == LV_BTN_STATE_PR)
 1263              		.loc 2 574 0
 1264 00d6 3B6A     		ldr	r3, [r7, #32]
 1265 00d8 1B7E     		ldrb	r3, [r3, #24]	@ zero_extendqisi2
 1266 00da 03F00703 		and	r3, r3, #7
ARM GAS  C:\Users\tmj32\AppData\Local\Temp\ccKhIVes.s 			page 36


 1267 00de DBB2     		uxtb	r3, r3
 1268 00e0 012B     		cmp	r3, #1
 1269 00e2 04D1     		bne	.L85
 575:..\..\..\lvgl\version_6.1.2\lvgl\src\lv_objx/lv_btn.c ****                 lv_btn_set_state(btn, LV_BTN_STATE_REL);
 1270              		.loc 2 575 0
 1271 00e4 0021     		movs	r1, #0
 1272 00e6 F868     		ldr	r0, [r7, #12]
 1273 00e8 FFF7FEFF 		bl	lv_btn_set_state
 1274 00ec DCE0     		b	.L79
 1275              	.L85:
 576:..\..\..\lvgl\version_6.1.2\lvgl\src\lv_objx/lv_btn.c ****             else if(ext->state == LV_BTN_STATE_TGL_PR)
 1276              		.loc 2 576 0
 1277 00ee 3B6A     		ldr	r3, [r7, #32]
 1278 00f0 1B7E     		ldrb	r3, [r3, #24]	@ zero_extendqisi2
 1279 00f2 03F00703 		and	r3, r3, #7
 1280 00f6 DBB2     		uxtb	r3, r3
 1281 00f8 032B     		cmp	r3, #3
 1282 00fa 40F0D580 		bne	.L79
 577:..\..\..\lvgl\version_6.1.2\lvgl\src\lv_objx/lv_btn.c ****                 lv_btn_set_state(btn, LV_BTN_STATE_TGL_REL);
 1283              		.loc 2 577 0
 1284 00fe 0221     		movs	r1, #2
 1285 0100 F868     		ldr	r0, [r7, #12]
 1286 0102 FFF7FEFF 		bl	lv_btn_set_state
 1287 0106 CFE0     		b	.L79
 1288              	.L83:
 578:..\..\..\lvgl\version_6.1.2\lvgl\src\lv_objx/lv_btn.c ****         }
 579:..\..\..\lvgl\version_6.1.2\lvgl\src\lv_objx/lv_btn.c ****     } else if(sign == LV_SIGNAL_RELEASED) {
 1289              		.loc 2 579 0
 1290 0108 FB7A     		ldrb	r3, [r7, #11]	@ zero_extendqisi2
 1291 010a 0B2B     		cmp	r3, #11
 1292 010c 7FD1     		bne	.L86
 580:..\..\..\lvgl\version_6.1.2\lvgl\src\lv_objx/lv_btn.c ****         /*If not dragged and it was not long press action then
 581:..\..\..\lvgl\version_6.1.2\lvgl\src\lv_objx/lv_btn.c ****          *change state and run the action*/
 582:..\..\..\lvgl\version_6.1.2\lvgl\src\lv_objx/lv_btn.c ****         if(lv_indev_is_dragging(param) == false) {
 1293              		.loc 2 582 0
 1294 010e 7868     		ldr	r0, [r7, #4]
 1295 0110 FFF7FEFF 		bl	lv_indev_is_dragging
 1296 0114 0346     		mov	r3, r0
 1297 0116 83F00103 		eor	r3, r3, #1
 1298 011a DBB2     		uxtb	r3, r3
 1299 011c 002B     		cmp	r3, #0
 1300 011e 5ED0     		beq	.L87
 1301              	.LBB4:
 583:..\..\..\lvgl\version_6.1.2\lvgl\src\lv_objx/lv_btn.c ****             uint32_t toggled = 0;
 1302              		.loc 2 583 0
 1303 0120 0023     		movs	r3, #0
 1304 0122 BB61     		str	r3, [r7, #24]
 584:..\..\..\lvgl\version_6.1.2\lvgl\src\lv_objx/lv_btn.c ****             if(ext->state == LV_BTN_STATE_PR && tgl == false) {
 1305              		.loc 2 584 0
 1306 0124 3B6A     		ldr	r3, [r7, #32]
 1307 0126 1B7E     		ldrb	r3, [r3, #24]	@ zero_extendqisi2
 1308 0128 03F00703 		and	r3, r3, #7
 1309 012c DBB2     		uxtb	r3, r3
 1310 012e 012B     		cmp	r3, #1
 1311 0130 0CD1     		bne	.L88
 1312              		.loc 2 584 0 is_stmt 0 discriminator 1
 1313 0132 FB7F     		ldrb	r3, [r7, #31]
ARM GAS  C:\Users\tmj32\AppData\Local\Temp\ccKhIVes.s 			page 37


 1314 0134 83F00103 		eor	r3, r3, #1
 1315 0138 DBB2     		uxtb	r3, r3
 1316 013a 002B     		cmp	r3, #0
 1317 013c 06D0     		beq	.L88
 585:..\..\..\lvgl\version_6.1.2\lvgl\src\lv_objx/lv_btn.c ****                 lv_btn_set_state(btn, LV_BTN_STATE_REL);
 1318              		.loc 2 585 0 is_stmt 1
 1319 013e 0021     		movs	r1, #0
 1320 0140 F868     		ldr	r0, [r7, #12]
 1321 0142 FFF7FEFF 		bl	lv_btn_set_state
 586:..\..\..\lvgl\version_6.1.2\lvgl\src\lv_objx/lv_btn.c ****                 toggled = 0;
 1322              		.loc 2 586 0
 1323 0146 0023     		movs	r3, #0
 1324 0148 BB61     		str	r3, [r7, #24]
 1325 014a 34E0     		b	.L89
 1326              	.L88:
 587:..\..\..\lvgl\version_6.1.2\lvgl\src\lv_objx/lv_btn.c ****             } else if(ext->state == LV_BTN_STATE_TGL_PR && tgl == false) {
 1327              		.loc 2 587 0
 1328 014c 3B6A     		ldr	r3, [r7, #32]
 1329 014e 1B7E     		ldrb	r3, [r3, #24]	@ zero_extendqisi2
 1330 0150 03F00703 		and	r3, r3, #7
 1331 0154 DBB2     		uxtb	r3, r3
 1332 0156 032B     		cmp	r3, #3
 1333 0158 0CD1     		bne	.L90
 1334              		.loc 2 587 0 is_stmt 0 discriminator 1
 1335 015a FB7F     		ldrb	r3, [r7, #31]
 1336 015c 83F00103 		eor	r3, r3, #1
 1337 0160 DBB2     		uxtb	r3, r3
 1338 0162 002B     		cmp	r3, #0
 1339 0164 06D0     		beq	.L90
 588:..\..\..\lvgl\version_6.1.2\lvgl\src\lv_objx/lv_btn.c ****                 lv_btn_set_state(btn, LV_BTN_STATE_TGL_REL);
 1340              		.loc 2 588 0 is_stmt 1
 1341 0166 0221     		movs	r1, #2
 1342 0168 F868     		ldr	r0, [r7, #12]
 1343 016a FFF7FEFF 		bl	lv_btn_set_state
 589:..\..\..\lvgl\version_6.1.2\lvgl\src\lv_objx/lv_btn.c ****                 toggled = 1;
 1344              		.loc 2 589 0
 1345 016e 0123     		movs	r3, #1
 1346 0170 BB61     		str	r3, [r7, #24]
 1347 0172 20E0     		b	.L89
 1348              	.L90:
 590:..\..\..\lvgl\version_6.1.2\lvgl\src\lv_objx/lv_btn.c ****             } else if(ext->state == LV_BTN_STATE_PR && tgl == true) {
 1349              		.loc 2 590 0
 1350 0174 3B6A     		ldr	r3, [r7, #32]
 1351 0176 1B7E     		ldrb	r3, [r3, #24]	@ zero_extendqisi2
 1352 0178 03F00703 		and	r3, r3, #7
 1353 017c DBB2     		uxtb	r3, r3
 1354 017e 012B     		cmp	r3, #1
 1355 0180 09D1     		bne	.L91
 1356              		.loc 2 590 0 is_stmt 0 discriminator 1
 1357 0182 FB7F     		ldrb	r3, [r7, #31]	@ zero_extendqisi2
 1358 0184 002B     		cmp	r3, #0
 1359 0186 06D0     		beq	.L91
 591:..\..\..\lvgl\version_6.1.2\lvgl\src\lv_objx/lv_btn.c ****                 lv_btn_set_state(btn, LV_BTN_STATE_TGL_REL);
 1360              		.loc 2 591 0 is_stmt 1
 1361 0188 0221     		movs	r1, #2
 1362 018a F868     		ldr	r0, [r7, #12]
 1363 018c FFF7FEFF 		bl	lv_btn_set_state
ARM GAS  C:\Users\tmj32\AppData\Local\Temp\ccKhIVes.s 			page 38


 592:..\..\..\lvgl\version_6.1.2\lvgl\src\lv_objx/lv_btn.c ****                 toggled = 1;
 1364              		.loc 2 592 0
 1365 0190 0123     		movs	r3, #1
 1366 0192 BB61     		str	r3, [r7, #24]
 1367 0194 0FE0     		b	.L89
 1368              	.L91:
 593:..\..\..\lvgl\version_6.1.2\lvgl\src\lv_objx/lv_btn.c ****             } else if(ext->state == LV_BTN_STATE_TGL_PR && tgl == true) {
 1369              		.loc 2 593 0
 1370 0196 3B6A     		ldr	r3, [r7, #32]
 1371 0198 1B7E     		ldrb	r3, [r3, #24]	@ zero_extendqisi2
 1372 019a 03F00703 		and	r3, r3, #7
 1373 019e DBB2     		uxtb	r3, r3
 1374 01a0 032B     		cmp	r3, #3
 1375 01a2 08D1     		bne	.L89
 1376              		.loc 2 593 0 is_stmt 0 discriminator 1
 1377 01a4 FB7F     		ldrb	r3, [r7, #31]	@ zero_extendqisi2
 1378 01a6 002B     		cmp	r3, #0
 1379 01a8 05D0     		beq	.L89
 594:..\..\..\lvgl\version_6.1.2\lvgl\src\lv_objx/lv_btn.c ****                 lv_btn_set_state(btn, LV_BTN_STATE_REL);
 1380              		.loc 2 594 0 is_stmt 1
 1381 01aa 0021     		movs	r1, #0
 1382 01ac F868     		ldr	r0, [r7, #12]
 1383 01ae FFF7FEFF 		bl	lv_btn_set_state
 595:..\..\..\lvgl\version_6.1.2\lvgl\src\lv_objx/lv_btn.c ****                 toggled = 0;
 1384              		.loc 2 595 0
 1385 01b2 0023     		movs	r3, #0
 1386 01b4 BB61     		str	r3, [r7, #24]
 1387              	.L89:
 596:..\..\..\lvgl\version_6.1.2\lvgl\src\lv_objx/lv_btn.c ****             }
 597:..\..\..\lvgl\version_6.1.2\lvgl\src\lv_objx/lv_btn.c **** 
 598:..\..\..\lvgl\version_6.1.2\lvgl\src\lv_objx/lv_btn.c ****             if(tgl) {
 1388              		.loc 2 598 0
 1389 01b6 FB7F     		ldrb	r3, [r7, #31]	@ zero_extendqisi2
 1390 01b8 002B     		cmp	r3, #0
 1391 01ba 75D0     		beq	.L79
 599:..\..\..\lvgl\version_6.1.2\lvgl\src\lv_objx/lv_btn.c ****                 res = lv_event_send(btn, LV_EVENT_VALUE_CHANGED, &toggled);
 1392              		.loc 2 599 0
 1393 01bc 07F11803 		add	r3, r7, #24
 1394 01c0 1A46     		mov	r2, r3
 1395 01c2 0E21     		movs	r1, #14
 1396 01c4 F868     		ldr	r0, [r7, #12]
 1397 01c6 FFF7FEFF 		bl	lv_event_send
 1398 01ca 0346     		mov	r3, r0
 1399 01cc 87F82730 		strb	r3, [r7, #39]
 600:..\..\..\lvgl\version_6.1.2\lvgl\src\lv_objx/lv_btn.c ****                 if(res != LV_RES_OK) return res;
 1400              		.loc 2 600 0
 1401 01d0 97F82730 		ldrb	r3, [r7, #39]	@ zero_extendqisi2
 1402 01d4 012B     		cmp	r3, #1
 1403 01d6 67D0     		beq	.L79
 1404              		.loc 2 600 0 is_stmt 0 discriminator 1
 1405 01d8 97F82730 		ldrb	r3, [r7, #39]	@ zero_extendqisi2
 1406 01dc 66E0     		b	.L74
 1407              	.L87:
 1408              	.LBE4:
 601:..\..\..\lvgl\version_6.1.2\lvgl\src\lv_objx/lv_btn.c ****             }
 602:..\..\..\lvgl\version_6.1.2\lvgl\src\lv_objx/lv_btn.c **** 
 603:..\..\..\lvgl\version_6.1.2\lvgl\src\lv_objx/lv_btn.c ****         } else { /*If dragged change back the state*/
ARM GAS  C:\Users\tmj32\AppData\Local\Temp\ccKhIVes.s 			page 39


 604:..\..\..\lvgl\version_6.1.2\lvgl\src\lv_objx/lv_btn.c ****             if(ext->state == LV_BTN_STATE_PR) {
 1409              		.loc 2 604 0 is_stmt 1
 1410 01de 3B6A     		ldr	r3, [r7, #32]
 1411 01e0 1B7E     		ldrb	r3, [r3, #24]	@ zero_extendqisi2
 1412 01e2 03F00703 		and	r3, r3, #7
 1413 01e6 DBB2     		uxtb	r3, r3
 1414 01e8 012B     		cmp	r3, #1
 1415 01ea 04D1     		bne	.L94
 605:..\..\..\lvgl\version_6.1.2\lvgl\src\lv_objx/lv_btn.c ****                 lv_btn_set_state(btn, LV_BTN_STATE_REL);
 1416              		.loc 2 605 0
 1417 01ec 0021     		movs	r1, #0
 1418 01ee F868     		ldr	r0, [r7, #12]
 1419 01f0 FFF7FEFF 		bl	lv_btn_set_state
 1420 01f4 58E0     		b	.L79
 1421              	.L94:
 606:..\..\..\lvgl\version_6.1.2\lvgl\src\lv_objx/lv_btn.c ****             } else if(ext->state == LV_BTN_STATE_TGL_PR) {
 1422              		.loc 2 606 0
 1423 01f6 3B6A     		ldr	r3, [r7, #32]
 1424 01f8 1B7E     		ldrb	r3, [r3, #24]	@ zero_extendqisi2
 1425 01fa 03F00703 		and	r3, r3, #7
 1426 01fe DBB2     		uxtb	r3, r3
 1427 0200 032B     		cmp	r3, #3
 1428 0202 51D1     		bne	.L79
 607:..\..\..\lvgl\version_6.1.2\lvgl\src\lv_objx/lv_btn.c ****                 lv_btn_set_state(btn, LV_BTN_STATE_TGL_REL);
 1429              		.loc 2 607 0
 1430 0204 0221     		movs	r1, #2
 1431 0206 F868     		ldr	r0, [r7, #12]
 1432 0208 FFF7FEFF 		bl	lv_btn_set_state
 1433 020c 4CE0     		b	.L79
 1434              	.L86:
 608:..\..\..\lvgl\version_6.1.2\lvgl\src\lv_objx/lv_btn.c ****             }
 609:..\..\..\lvgl\version_6.1.2\lvgl\src\lv_objx/lv_btn.c ****         }
 610:..\..\..\lvgl\version_6.1.2\lvgl\src\lv_objx/lv_btn.c **** 
 611:..\..\..\lvgl\version_6.1.2\lvgl\src\lv_objx/lv_btn.c **** #if LV_USE_ANIMATION && LV_BTN_INK_EFFECT
 612:..\..\..\lvgl\version_6.1.2\lvgl\src\lv_objx/lv_btn.c ****         /*Draw the toggled state in the inking instead*/
 613:..\..\..\lvgl\version_6.1.2\lvgl\src\lv_objx/lv_btn.c ****         if(ext->toggle) {
 614:..\..\..\lvgl\version_6.1.2\lvgl\src\lv_objx/lv_btn.c ****             ink_top_state = ext->state;
 615:..\..\..\lvgl\version_6.1.2\lvgl\src\lv_objx/lv_btn.c ****         }
 616:..\..\..\lvgl\version_6.1.2\lvgl\src\lv_objx/lv_btn.c ****         /*If not a toggle button and the "IN" inking is ready then start an "OUT" inking*/
 617:..\..\..\lvgl\version_6.1.2\lvgl\src\lv_objx/lv_btn.c ****         else if(ink_ready && ext->ink_out_time > 0) {
 618:..\..\..\lvgl\version_6.1.2\lvgl\src\lv_objx/lv_btn.c ****             ink_obj      = btn;
 619:..\..\..\lvgl\version_6.1.2\lvgl\src\lv_objx/lv_btn.c ****             ink_playback = true; /*It is the playback. If not set `lv_btn_ink_effect_anim_ready`
 620:..\..\..\lvgl\version_6.1.2\lvgl\src\lv_objx/lv_btn.c ****                                     will start its own playback*/
 621:..\..\..\lvgl\version_6.1.2\lvgl\src\lv_objx/lv_btn.c ****             lv_indev_get_point(lv_indev_get_act(), &ink_point);
 622:..\..\..\lvgl\version_6.1.2\lvgl\src\lv_objx/lv_btn.c **** 
 623:..\..\..\lvgl\version_6.1.2\lvgl\src\lv_objx/lv_btn.c ****             lv_anim_t a;
 624:..\..\..\lvgl\version_6.1.2\lvgl\src\lv_objx/lv_btn.c ****             a.var            = ink_obj;
 625:..\..\..\lvgl\version_6.1.2\lvgl\src\lv_objx/lv_btn.c ****             a.start          = LV_BTN_INK_VALUE_MAX;
 626:..\..\..\lvgl\version_6.1.2\lvgl\src\lv_objx/lv_btn.c ****             a.end            = 0;
 627:..\..\..\lvgl\version_6.1.2\lvgl\src\lv_objx/lv_btn.c ****             a.exec_cb        = (lv_anim_exec_xcb_t)lv_btn_ink_effect_anim;
 628:..\..\..\lvgl\version_6.1.2\lvgl\src\lv_objx/lv_btn.c ****             a.path_cb        = lv_anim_path_linear;
 629:..\..\..\lvgl\version_6.1.2\lvgl\src\lv_objx/lv_btn.c ****             a.ready_cb       = lv_btn_ink_effect_anim_ready;
 630:..\..\..\lvgl\version_6.1.2\lvgl\src\lv_objx/lv_btn.c ****             a.act_time       = 0;
 631:..\..\..\lvgl\version_6.1.2\lvgl\src\lv_objx/lv_btn.c ****             a.time           = ext->ink_out_time;
 632:..\..\..\lvgl\version_6.1.2\lvgl\src\lv_objx/lv_btn.c ****             a.playback       = 0;
 633:..\..\..\lvgl\version_6.1.2\lvgl\src\lv_objx/lv_btn.c ****             a.playback_pause = 0;
 634:..\..\..\lvgl\version_6.1.2\lvgl\src\lv_objx/lv_btn.c ****             a.repeat         = 0;
ARM GAS  C:\Users\tmj32\AppData\Local\Temp\ccKhIVes.s 			page 40


 635:..\..\..\lvgl\version_6.1.2\lvgl\src\lv_objx/lv_btn.c ****             a.repeat_pause   = 0;
 636:..\..\..\lvgl\version_6.1.2\lvgl\src\lv_objx/lv_btn.c ****             lv_anim_create(&a);
 637:..\..\..\lvgl\version_6.1.2\lvgl\src\lv_objx/lv_btn.c ****         }
 638:..\..\..\lvgl\version_6.1.2\lvgl\src\lv_objx/lv_btn.c **** #endif
 639:..\..\..\lvgl\version_6.1.2\lvgl\src\lv_objx/lv_btn.c ****     } else if(sign == LV_SIGNAL_CONTROL) {
 1435              		.loc 2 639 0
 1436 020e FB7A     		ldrb	r3, [r7, #11]	@ zero_extendqisi2
 1437 0210 122B     		cmp	r3, #18
 1438 0212 49D1     		bne	.L79
 1439              	.LBB5:
 640:..\..\..\lvgl\version_6.1.2\lvgl\src\lv_objx/lv_btn.c ****         char c = *((char *)param);
 1440              		.loc 2 640 0
 1441 0214 7B68     		ldr	r3, [r7, #4]
 1442 0216 1B78     		ldrb	r3, [r3]
 1443 0218 BB77     		strb	r3, [r7, #30]
 641:..\..\..\lvgl\version_6.1.2\lvgl\src\lv_objx/lv_btn.c ****         if(c == LV_KEY_RIGHT || c == LV_KEY_UP) {
 1444              		.loc 2 641 0
 1445 021a BB7F     		ldrb	r3, [r7, #30]	@ zero_extendqisi2
 1446 021c 132B     		cmp	r3, #19
 1447 021e 02D0     		beq	.L95
 1448              		.loc 2 641 0 is_stmt 0 discriminator 1
 1449 0220 BB7F     		ldrb	r3, [r7, #30]	@ zero_extendqisi2
 1450 0222 112B     		cmp	r3, #17
 1451 0224 1CD1     		bne	.L96
 1452              	.L95:
 642:..\..\..\lvgl\version_6.1.2\lvgl\src\lv_objx/lv_btn.c ****             if(lv_btn_get_toggle(btn)) {
 1453              		.loc 2 642 0 is_stmt 1
 1454 0226 F868     		ldr	r0, [r7, #12]
 1455 0228 FFF7FEFF 		bl	lv_btn_get_toggle
 1456 022c 0346     		mov	r3, r0
 1457 022e 002B     		cmp	r3, #0
 1458 0230 39D0     		beq	.L102
 1459              	.LBB6:
 643:..\..\..\lvgl\version_6.1.2\lvgl\src\lv_objx/lv_btn.c ****                 lv_btn_set_state(btn, LV_BTN_STATE_TGL_REL);
 1460              		.loc 2 643 0
 1461 0232 0221     		movs	r1, #2
 1462 0234 F868     		ldr	r0, [r7, #12]
 1463 0236 FFF7FEFF 		bl	lv_btn_set_state
 644:..\..\..\lvgl\version_6.1.2\lvgl\src\lv_objx/lv_btn.c **** 
 645:..\..\..\lvgl\version_6.1.2\lvgl\src\lv_objx/lv_btn.c ****                 uint32_t state = 1;
 1464              		.loc 2 645 0
 1465 023a 0123     		movs	r3, #1
 1466 023c 7B61     		str	r3, [r7, #20]
 646:..\..\..\lvgl\version_6.1.2\lvgl\src\lv_objx/lv_btn.c ****                 res            = lv_event_send(btn, LV_EVENT_VALUE_CHANGED, &state);
 1467              		.loc 2 646 0
 1468 023e 07F11403 		add	r3, r7, #20
 1469 0242 1A46     		mov	r2, r3
 1470 0244 0E21     		movs	r1, #14
 1471 0246 F868     		ldr	r0, [r7, #12]
 1472 0248 FFF7FEFF 		bl	lv_event_send
 1473 024c 0346     		mov	r3, r0
 1474 024e 87F82730 		strb	r3, [r7, #39]
 647:..\..\..\lvgl\version_6.1.2\lvgl\src\lv_objx/lv_btn.c ****                 if(res != LV_RES_OK) return res;
 1475              		.loc 2 647 0
 1476 0252 97F82730 		ldrb	r3, [r7, #39]	@ zero_extendqisi2
 1477 0256 012B     		cmp	r3, #1
 1478 0258 25D0     		beq	.L102
ARM GAS  C:\Users\tmj32\AppData\Local\Temp\ccKhIVes.s 			page 41


 1479              		.loc 2 647 0 is_stmt 0 discriminator 1
 1480 025a 97F82730 		ldrb	r3, [r7, #39]	@ zero_extendqisi2
 1481 025e 25E0     		b	.L74
 1482              	.L96:
 1483              	.LBE6:
 648:..\..\..\lvgl\version_6.1.2\lvgl\src\lv_objx/lv_btn.c ****             }
 649:..\..\..\lvgl\version_6.1.2\lvgl\src\lv_objx/lv_btn.c **** 
 650:..\..\..\lvgl\version_6.1.2\lvgl\src\lv_objx/lv_btn.c ****         } else if(c == LV_KEY_LEFT || c == LV_KEY_DOWN) {
 1484              		.loc 2 650 0 is_stmt 1
 1485 0260 BB7F     		ldrb	r3, [r7, #30]	@ zero_extendqisi2
 1486 0262 142B     		cmp	r3, #20
 1487 0264 02D0     		beq	.L100
 1488              		.loc 2 650 0 is_stmt 0 discriminator 1
 1489 0266 BB7F     		ldrb	r3, [r7, #30]	@ zero_extendqisi2
 1490 0268 122B     		cmp	r3, #18
 1491 026a 1DD1     		bne	.L79
 1492              	.L100:
 651:..\..\..\lvgl\version_6.1.2\lvgl\src\lv_objx/lv_btn.c ****             if(lv_btn_get_toggle(btn)) {
 1493              		.loc 2 651 0 is_stmt 1
 1494 026c F868     		ldr	r0, [r7, #12]
 1495 026e FFF7FEFF 		bl	lv_btn_get_toggle
 1496 0272 0346     		mov	r3, r0
 1497 0274 002B     		cmp	r3, #0
 1498 0276 17D0     		beq	.L79
 1499              	.LBB7:
 652:..\..\..\lvgl\version_6.1.2\lvgl\src\lv_objx/lv_btn.c ****                 lv_btn_set_state(btn, LV_BTN_STATE_REL);
 1500              		.loc 2 652 0
 1501 0278 0021     		movs	r1, #0
 1502 027a F868     		ldr	r0, [r7, #12]
 1503 027c FFF7FEFF 		bl	lv_btn_set_state
 653:..\..\..\lvgl\version_6.1.2\lvgl\src\lv_objx/lv_btn.c **** 
 654:..\..\..\lvgl\version_6.1.2\lvgl\src\lv_objx/lv_btn.c ****                 uint32_t state = 0;
 1504              		.loc 2 654 0
 1505 0280 0023     		movs	r3, #0
 1506 0282 3B61     		str	r3, [r7, #16]
 655:..\..\..\lvgl\version_6.1.2\lvgl\src\lv_objx/lv_btn.c ****                 res            = lv_event_send(btn, LV_EVENT_VALUE_CHANGED, &state);
 1507              		.loc 2 655 0
 1508 0284 07F11003 		add	r3, r7, #16
 1509 0288 1A46     		mov	r2, r3
 1510 028a 0E21     		movs	r1, #14
 1511 028c F868     		ldr	r0, [r7, #12]
 1512 028e FFF7FEFF 		bl	lv_event_send
 1513 0292 0346     		mov	r3, r0
 1514 0294 87F82730 		strb	r3, [r7, #39]
 656:..\..\..\lvgl\version_6.1.2\lvgl\src\lv_objx/lv_btn.c ****                 if(res != LV_RES_OK) return res;
 1515              		.loc 2 656 0
 1516 0298 97F82730 		ldrb	r3, [r7, #39]	@ zero_extendqisi2
 1517 029c 012B     		cmp	r3, #1
 1518 029e 03D0     		beq	.L79
 1519              		.loc 2 656 0 is_stmt 0 discriminator 1
 1520 02a0 97F82730 		ldrb	r3, [r7, #39]	@ zero_extendqisi2
 1521 02a4 02E0     		b	.L74
 1522              	.L102:
 1523              	.LBE7:
 642:..\..\..\lvgl\version_6.1.2\lvgl\src\lv_objx/lv_btn.c ****                 lv_btn_set_state(btn, LV_BTN_STATE_TGL_REL);
 1524              		.loc 2 642 0 is_stmt 1
 1525 02a6 00BF     		nop
ARM GAS  C:\Users\tmj32\AppData\Local\Temp\ccKhIVes.s 			page 42


 1526              	.L79:
 1527              	.LBE5:
 657:..\..\..\lvgl\version_6.1.2\lvgl\src\lv_objx/lv_btn.c ****             }
 658:..\..\..\lvgl\version_6.1.2\lvgl\src\lv_objx/lv_btn.c ****         }
 659:..\..\..\lvgl\version_6.1.2\lvgl\src\lv_objx/lv_btn.c ****     } else if(sign == LV_SIGNAL_CLEANUP) {
 660:..\..\..\lvgl\version_6.1.2\lvgl\src\lv_objx/lv_btn.c **** #if LV_USE_ANIMATION && LV_BTN_INK_EFFECT
 661:..\..\..\lvgl\version_6.1.2\lvgl\src\lv_objx/lv_btn.c ****         if(btn == ink_obj) {
 662:..\..\..\lvgl\version_6.1.2\lvgl\src\lv_objx/lv_btn.c ****             lv_anim_del(ink_obj, (lv_anim_exec_xcb_t)lv_btn_ink_effect_anim);
 663:..\..\..\lvgl\version_6.1.2\lvgl\src\lv_objx/lv_btn.c ****             ink_obj = NULL;
 664:..\..\..\lvgl\version_6.1.2\lvgl\src\lv_objx/lv_btn.c ****         }
 665:..\..\..\lvgl\version_6.1.2\lvgl\src\lv_objx/lv_btn.c **** #endif
 666:..\..\..\lvgl\version_6.1.2\lvgl\src\lv_objx/lv_btn.c ****     }
 667:..\..\..\lvgl\version_6.1.2\lvgl\src\lv_objx/lv_btn.c **** 
 668:..\..\..\lvgl\version_6.1.2\lvgl\src\lv_objx/lv_btn.c ****     return res;
 1528              		.loc 2 668 0
 1529 02a8 97F82730 		ldrb	r3, [r7, #39]	@ zero_extendqisi2
 1530              	.L74:
 669:..\..\..\lvgl\version_6.1.2\lvgl\src\lv_objx/lv_btn.c **** }
 1531              		.loc 2 669 0
 1532 02ac 1846     		mov	r0, r3
 1533 02ae 2837     		adds	r7, r7, #40
 1534              		.cfi_def_cfa_offset 8
 1535 02b0 BD46     		mov	sp, r7
 1536              		.cfi_def_cfa_register 13
 1537              		@ sp needed
 1538 02b2 80BD     		pop	{r7, pc}
 1539              	.L104:
 1540              		.align	2
 1541              	.L103:
 1542 02b4 00000000 		.word	ancestor_signal
 1543 02b8 00000000 		.word	.LC0
 1544              		.cfi_endproc
 1545              	.LFE59:
 1546              		.size	lv_btn_signal, .-lv_btn_signal
 1547              		.text
 1548              	.Letext0:
 1549              		.file 3 "c:\\program files (x86)\\cypress\\psoc creator\\4.3\\psoc creator\\import\\gnu\\arm\\5.4.
 1550              		.file 4 "c:\\program files (x86)\\cypress\\psoc creator\\4.3\\psoc creator\\import\\gnu\\arm\\5.4.
 1551              		.file 5 "..\\..\\..\\lvgl\\version_6.1.2\\lvgl\\src\\lv_objx\\../../../lv_conf.h"
 1552              		.file 6 "..\\..\\..\\lvgl\\version_6.1.2\\lvgl\\src\\lv_objx\\../lv_core/../lv_font/lv_font.h"
 1553              		.file 7 "..\\..\\..\\lvgl\\version_6.1.2\\lvgl\\src\\lv_objx\\../lv_core/../lv_misc/lv_color.h"
 1554              		.file 8 "..\\..\\..\\lvgl\\version_6.1.2\\lvgl\\src\\lv_objx\\../lv_core/../lv_misc/lv_area.h"
 1555              		.file 9 "..\\..\\..\\lvgl\\version_6.1.2\\lvgl\\src\\lv_objx\\../lv_core/lv_style.h"
 1556              		.file 10 "..\\..\\..\\lvgl\\version_6.1.2\\lvgl\\src\\lv_objx\\../lv_core/../lv_misc/lv_types.h"
 1557              		.file 11 "..\\..\\..\\lvgl\\version_6.1.2\\lvgl\\src\\lv_objx\\../lv_core/../lv_misc/lv_ll.h"
 1558              		.file 12 "..\\..\\..\\lvgl\\version_6.1.2\\lvgl\\src\\lv_objx\\../lv_core/../lv_misc/lv_bidi.h"
 1559              		.file 13 "..\\..\\..\\lvgl\\version_6.1.2\\lvgl\\src\\lv_objx\\../lv_core/lv_obj.h"
 1560              		.file 14 "..\\..\\..\\lvgl\\version_6.1.2\\lvgl\\src\\lv_objx\\lv_cont.h"
 1561              		.file 15 "..\\..\\..\\lvgl\\version_6.1.2\\lvgl\\src\\lv_objx\\../lv_core/../lv_core/lv_group.h"
 1562              		.file 16 "..\\..\\..\\lvgl\\version_6.1.2\\lvgl\\src\\lv_objx\\../lv_themes/lv_theme.h"