ARM GAS  C:\Users\tmj32\AppData\Local\Temp\ccrrExWC.s 			page 1


   1              		.syntax unified
   2              		.cpu cortex-m4
   3              		.eabi_attribute 27, 1
   4              		.fpu fpv4-sp-d16
   5              		.eabi_attribute 20, 1
   6              		.eabi_attribute 21, 1
   7              		.eabi_attribute 23, 3
   8              		.eabi_attribute 24, 1
   9              		.eabi_attribute 25, 1
  10              		.eabi_attribute 26, 1
  11              		.eabi_attribute 30, 6
  12              		.eabi_attribute 34, 1
  13              		.eabi_attribute 18, 4
  14              		.thumb
  15              		.syntax unified
  16              		.file	"lv_chart.c"
  17              		.text
  18              	.Ltext0:
  19              		.cfi_sections	.debug_frame
  20              		.section	.text.lv_color_mix,"ax",%progbits
  21              		.align	2
  22              		.thumb
  23              		.thumb_func
  24              		.type	lv_color_mix, %function
  25              	lv_color_mix:
  26              	.LFB5:
  27              		.file 1 "..\\..\\..\\lvgl\\version_6.1.2\\lvgl\\src\\lv_objx\\../lv_core/../lv_misc/lv_color.h"
   1:..\..\..\lvgl\version_6.1.2\lvgl\src\lv_objx\../lv_core/../lv_misc/lv_color.h **** /**
   2:..\..\..\lvgl\version_6.1.2\lvgl\src\lv_objx\../lv_core/../lv_misc/lv_color.h ****  * @file lv_color.h
   3:..\..\..\lvgl\version_6.1.2\lvgl\src\lv_objx\../lv_core/../lv_misc/lv_color.h ****  *
   4:..\..\..\lvgl\version_6.1.2\lvgl\src\lv_objx\../lv_core/../lv_misc/lv_color.h ****  */
   5:..\..\..\lvgl\version_6.1.2\lvgl\src\lv_objx\../lv_core/../lv_misc/lv_color.h **** 
   6:..\..\..\lvgl\version_6.1.2\lvgl\src\lv_objx\../lv_core/../lv_misc/lv_color.h **** #ifndef LV_COLOR_H
   7:..\..\..\lvgl\version_6.1.2\lvgl\src\lv_objx\../lv_core/../lv_misc/lv_color.h **** #define LV_COLOR_H
   8:..\..\..\lvgl\version_6.1.2\lvgl\src\lv_objx\../lv_core/../lv_misc/lv_color.h **** 
   9:..\..\..\lvgl\version_6.1.2\lvgl\src\lv_objx\../lv_core/../lv_misc/lv_color.h **** #ifdef __cplusplus
  10:..\..\..\lvgl\version_6.1.2\lvgl\src\lv_objx\../lv_core/../lv_misc/lv_color.h **** extern "C" {
  11:..\..\..\lvgl\version_6.1.2\lvgl\src\lv_objx\../lv_core/../lv_misc/lv_color.h **** #endif
  12:..\..\..\lvgl\version_6.1.2\lvgl\src\lv_objx\../lv_core/../lv_misc/lv_color.h **** 
  13:..\..\..\lvgl\version_6.1.2\lvgl\src\lv_objx\../lv_core/../lv_misc/lv_color.h **** /*********************
  14:..\..\..\lvgl\version_6.1.2\lvgl\src\lv_objx\../lv_core/../lv_misc/lv_color.h ****  *      INCLUDES
  15:..\..\..\lvgl\version_6.1.2\lvgl\src\lv_objx\../lv_core/../lv_misc/lv_color.h ****  *********************/
  16:..\..\..\lvgl\version_6.1.2\lvgl\src\lv_objx\../lv_core/../lv_misc/lv_color.h **** #ifdef LV_CONF_INCLUDE_SIMPLE
  17:..\..\..\lvgl\version_6.1.2\lvgl\src\lv_objx\../lv_core/../lv_misc/lv_color.h **** #include "lv_conf.h"
  18:..\..\..\lvgl\version_6.1.2\lvgl\src\lv_objx\../lv_core/../lv_misc/lv_color.h **** #else
  19:..\..\..\lvgl\version_6.1.2\lvgl\src\lv_objx\../lv_core/../lv_misc/lv_color.h **** #include "../../../lv_conf.h"
  20:..\..\..\lvgl\version_6.1.2\lvgl\src\lv_objx\../lv_core/../lv_misc/lv_color.h **** #endif
  21:..\..\..\lvgl\version_6.1.2\lvgl\src\lv_objx\../lv_core/../lv_misc/lv_color.h **** 
  22:..\..\..\lvgl\version_6.1.2\lvgl\src\lv_objx\../lv_core/../lv_misc/lv_color.h **** /*Error checking*/
  23:..\..\..\lvgl\version_6.1.2\lvgl\src\lv_objx\../lv_core/../lv_misc/lv_color.h **** #if LV_COLOR_DEPTH == 24
  24:..\..\..\lvgl\version_6.1.2\lvgl\src\lv_objx\../lv_core/../lv_misc/lv_color.h **** #error "LV_COLOR_DEPTH  24 is deprecated. Use LV_COLOR_DEPTH  32 instead (lv_conf.h)"
  25:..\..\..\lvgl\version_6.1.2\lvgl\src\lv_objx\../lv_core/../lv_misc/lv_color.h **** #endif
  26:..\..\..\lvgl\version_6.1.2\lvgl\src\lv_objx\../lv_core/../lv_misc/lv_color.h **** 
  27:..\..\..\lvgl\version_6.1.2\lvgl\src\lv_objx\../lv_core/../lv_misc/lv_color.h **** #if LV_COLOR_DEPTH != 32 && LV_COLOR_SCREEN_TRANSP != 0
  28:..\..\..\lvgl\version_6.1.2\lvgl\src\lv_objx\../lv_core/../lv_misc/lv_color.h **** #error "LV_COLOR_SCREEN_TRANSP requires LV_COLOR_DEPTH == 32. Set it in lv_conf.h"
  29:..\..\..\lvgl\version_6.1.2\lvgl\src\lv_objx\../lv_core/../lv_misc/lv_color.h **** #endif
  30:..\..\..\lvgl\version_6.1.2\lvgl\src\lv_objx\../lv_core/../lv_misc/lv_color.h **** 
ARM GAS  C:\Users\tmj32\AppData\Local\Temp\ccrrExWC.s 			page 2


  31:..\..\..\lvgl\version_6.1.2\lvgl\src\lv_objx\../lv_core/../lv_misc/lv_color.h **** #if LV_COLOR_DEPTH != 16 && LV_COLOR_16_SWAP != 0
  32:..\..\..\lvgl\version_6.1.2\lvgl\src\lv_objx\../lv_core/../lv_misc/lv_color.h **** #error "LV_COLOR_16_SWAP requires LV_COLOR_DEPTH == 16. Set it in lv_conf.h"
  33:..\..\..\lvgl\version_6.1.2\lvgl\src\lv_objx\../lv_core/../lv_misc/lv_color.h **** #endif
  34:..\..\..\lvgl\version_6.1.2\lvgl\src\lv_objx\../lv_core/../lv_misc/lv_color.h **** 
  35:..\..\..\lvgl\version_6.1.2\lvgl\src\lv_objx\../lv_core/../lv_misc/lv_color.h **** #include <stdint.h>
  36:..\..\..\lvgl\version_6.1.2\lvgl\src\lv_objx\../lv_core/../lv_misc/lv_color.h **** 
  37:..\..\..\lvgl\version_6.1.2\lvgl\src\lv_objx\../lv_core/../lv_misc/lv_color.h **** /*********************
  38:..\..\..\lvgl\version_6.1.2\lvgl\src\lv_objx\../lv_core/../lv_misc/lv_color.h ****  *      DEFINES
  39:..\..\..\lvgl\version_6.1.2\lvgl\src\lv_objx\../lv_core/../lv_misc/lv_color.h ****  *********************/
  40:..\..\..\lvgl\version_6.1.2\lvgl\src\lv_objx\../lv_core/../lv_misc/lv_color.h **** #define LV_COLOR_WHITE LV_COLOR_MAKE(0xFF, 0xFF, 0xFF)
  41:..\..\..\lvgl\version_6.1.2\lvgl\src\lv_objx\../lv_core/../lv_misc/lv_color.h **** #define LV_COLOR_SILVER LV_COLOR_MAKE(0xC0, 0xC0, 0xC0)
  42:..\..\..\lvgl\version_6.1.2\lvgl\src\lv_objx\../lv_core/../lv_misc/lv_color.h **** #define LV_COLOR_GRAY LV_COLOR_MAKE(0x80, 0x80, 0x80)
  43:..\..\..\lvgl\version_6.1.2\lvgl\src\lv_objx\../lv_core/../lv_misc/lv_color.h **** #define LV_COLOR_BLACK LV_COLOR_MAKE(0x00, 0x00, 0x00)
  44:..\..\..\lvgl\version_6.1.2\lvgl\src\lv_objx\../lv_core/../lv_misc/lv_color.h **** #define LV_COLOR_RED LV_COLOR_MAKE(0xFF, 0x00, 0x00)
  45:..\..\..\lvgl\version_6.1.2\lvgl\src\lv_objx\../lv_core/../lv_misc/lv_color.h **** #define LV_COLOR_MAROON LV_COLOR_MAKE(0x80, 0x00, 0x00)
  46:..\..\..\lvgl\version_6.1.2\lvgl\src\lv_objx\../lv_core/../lv_misc/lv_color.h **** #define LV_COLOR_YELLOW LV_COLOR_MAKE(0xFF, 0xFF, 0x00)
  47:..\..\..\lvgl\version_6.1.2\lvgl\src\lv_objx\../lv_core/../lv_misc/lv_color.h **** #define LV_COLOR_OLIVE LV_COLOR_MAKE(0x80, 0x80, 0x00)
  48:..\..\..\lvgl\version_6.1.2\lvgl\src\lv_objx\../lv_core/../lv_misc/lv_color.h **** #define LV_COLOR_LIME LV_COLOR_MAKE(0x00, 0xFF, 0x00)
  49:..\..\..\lvgl\version_6.1.2\lvgl\src\lv_objx\../lv_core/../lv_misc/lv_color.h **** #define LV_COLOR_GREEN LV_COLOR_MAKE(0x00, 0x80, 0x00)
  50:..\..\..\lvgl\version_6.1.2\lvgl\src\lv_objx\../lv_core/../lv_misc/lv_color.h **** #define LV_COLOR_CYAN LV_COLOR_MAKE(0x00, 0xFF, 0xFF)
  51:..\..\..\lvgl\version_6.1.2\lvgl\src\lv_objx\../lv_core/../lv_misc/lv_color.h **** #define LV_COLOR_AQUA LV_COLOR_CYAN
  52:..\..\..\lvgl\version_6.1.2\lvgl\src\lv_objx\../lv_core/../lv_misc/lv_color.h **** #define LV_COLOR_TEAL LV_COLOR_MAKE(0x00, 0x80, 0x80)
  53:..\..\..\lvgl\version_6.1.2\lvgl\src\lv_objx\../lv_core/../lv_misc/lv_color.h **** #define LV_COLOR_BLUE LV_COLOR_MAKE(0x00, 0x00, 0xFF)
  54:..\..\..\lvgl\version_6.1.2\lvgl\src\lv_objx\../lv_core/../lv_misc/lv_color.h **** #define LV_COLOR_NAVY LV_COLOR_MAKE(0x00, 0x00, 0x80)
  55:..\..\..\lvgl\version_6.1.2\lvgl\src\lv_objx\../lv_core/../lv_misc/lv_color.h **** #define LV_COLOR_MAGENTA LV_COLOR_MAKE(0xFF, 0x00, 0xFF)
  56:..\..\..\lvgl\version_6.1.2\lvgl\src\lv_objx\../lv_core/../lv_misc/lv_color.h **** #define LV_COLOR_PURPLE LV_COLOR_MAKE(0x80, 0x00, 0x80)
  57:..\..\..\lvgl\version_6.1.2\lvgl\src\lv_objx\../lv_core/../lv_misc/lv_color.h **** #define LV_COLOR_ORANGE LV_COLOR_MAKE(0xFF, 0xA5, 0x00)
  58:..\..\..\lvgl\version_6.1.2\lvgl\src\lv_objx\../lv_core/../lv_misc/lv_color.h **** 
  59:..\..\..\lvgl\version_6.1.2\lvgl\src\lv_objx\../lv_core/../lv_misc/lv_color.h **** /**
  60:..\..\..\lvgl\version_6.1.2\lvgl\src\lv_objx\../lv_core/../lv_misc/lv_color.h ****  * Opacity percentages.
  61:..\..\..\lvgl\version_6.1.2\lvgl\src\lv_objx\../lv_core/../lv_misc/lv_color.h ****  */
  62:..\..\..\lvgl\version_6.1.2\lvgl\src\lv_objx\../lv_core/../lv_misc/lv_color.h **** enum {
  63:..\..\..\lvgl\version_6.1.2\lvgl\src\lv_objx\../lv_core/../lv_misc/lv_color.h ****     LV_OPA_TRANSP = 0,
  64:..\..\..\lvgl\version_6.1.2\lvgl\src\lv_objx\../lv_core/../lv_misc/lv_color.h ****     LV_OPA_0      = 0,
  65:..\..\..\lvgl\version_6.1.2\lvgl\src\lv_objx\../lv_core/../lv_misc/lv_color.h ****     LV_OPA_10     = 25,
  66:..\..\..\lvgl\version_6.1.2\lvgl\src\lv_objx\../lv_core/../lv_misc/lv_color.h ****     LV_OPA_20     = 51,
  67:..\..\..\lvgl\version_6.1.2\lvgl\src\lv_objx\../lv_core/../lv_misc/lv_color.h ****     LV_OPA_30     = 76,
  68:..\..\..\lvgl\version_6.1.2\lvgl\src\lv_objx\../lv_core/../lv_misc/lv_color.h ****     LV_OPA_40     = 102,
  69:..\..\..\lvgl\version_6.1.2\lvgl\src\lv_objx\../lv_core/../lv_misc/lv_color.h ****     LV_OPA_50     = 127,
  70:..\..\..\lvgl\version_6.1.2\lvgl\src\lv_objx\../lv_core/../lv_misc/lv_color.h ****     LV_OPA_60     = 153,
  71:..\..\..\lvgl\version_6.1.2\lvgl\src\lv_objx\../lv_core/../lv_misc/lv_color.h ****     LV_OPA_70     = 178,
  72:..\..\..\lvgl\version_6.1.2\lvgl\src\lv_objx\../lv_core/../lv_misc/lv_color.h ****     LV_OPA_80     = 204,
  73:..\..\..\lvgl\version_6.1.2\lvgl\src\lv_objx\../lv_core/../lv_misc/lv_color.h ****     LV_OPA_90     = 229,
  74:..\..\..\lvgl\version_6.1.2\lvgl\src\lv_objx\../lv_core/../lv_misc/lv_color.h ****     LV_OPA_100    = 255,
  75:..\..\..\lvgl\version_6.1.2\lvgl\src\lv_objx\../lv_core/../lv_misc/lv_color.h ****     LV_OPA_COVER  = 255,
  76:..\..\..\lvgl\version_6.1.2\lvgl\src\lv_objx\../lv_core/../lv_misc/lv_color.h **** };
  77:..\..\..\lvgl\version_6.1.2\lvgl\src\lv_objx\../lv_core/../lv_misc/lv_color.h **** 
  78:..\..\..\lvgl\version_6.1.2\lvgl\src\lv_objx\../lv_core/../lv_misc/lv_color.h **** #define LV_OPA_MIN 16  /*Opacities below this will be transparent*/
  79:..\..\..\lvgl\version_6.1.2\lvgl\src\lv_objx\../lv_core/../lv_misc/lv_color.h **** #define LV_OPA_MAX 251 /*Opacities above this will fully cover*/
  80:..\..\..\lvgl\version_6.1.2\lvgl\src\lv_objx\../lv_core/../lv_misc/lv_color.h **** 
  81:..\..\..\lvgl\version_6.1.2\lvgl\src\lv_objx\../lv_core/../lv_misc/lv_color.h **** #if LV_COLOR_DEPTH == 1
  82:..\..\..\lvgl\version_6.1.2\lvgl\src\lv_objx\../lv_core/../lv_misc/lv_color.h **** #define LV_COLOR_SIZE 8
  83:..\..\..\lvgl\version_6.1.2\lvgl\src\lv_objx\../lv_core/../lv_misc/lv_color.h **** #elif LV_COLOR_DEPTH == 8
  84:..\..\..\lvgl\version_6.1.2\lvgl\src\lv_objx\../lv_core/../lv_misc/lv_color.h **** #define LV_COLOR_SIZE 8
  85:..\..\..\lvgl\version_6.1.2\lvgl\src\lv_objx\../lv_core/../lv_misc/lv_color.h **** #elif LV_COLOR_DEPTH == 16
  86:..\..\..\lvgl\version_6.1.2\lvgl\src\lv_objx\../lv_core/../lv_misc/lv_color.h **** #define LV_COLOR_SIZE 16
  87:..\..\..\lvgl\version_6.1.2\lvgl\src\lv_objx\../lv_core/../lv_misc/lv_color.h **** #elif LV_COLOR_DEPTH == 32
ARM GAS  C:\Users\tmj32\AppData\Local\Temp\ccrrExWC.s 			page 3


  88:..\..\..\lvgl\version_6.1.2\lvgl\src\lv_objx\../lv_core/../lv_misc/lv_color.h **** #define LV_COLOR_SIZE 32
  89:..\..\..\lvgl\version_6.1.2\lvgl\src\lv_objx\../lv_core/../lv_misc/lv_color.h **** #else
  90:..\..\..\lvgl\version_6.1.2\lvgl\src\lv_objx\../lv_core/../lv_misc/lv_color.h **** #error "Invalid LV_COLOR_DEPTH in lv_conf.h! Set it to 1, 8, 16 or 32!"
  91:..\..\..\lvgl\version_6.1.2\lvgl\src\lv_objx\../lv_core/../lv_misc/lv_color.h **** #endif
  92:..\..\..\lvgl\version_6.1.2\lvgl\src\lv_objx\../lv_core/../lv_misc/lv_color.h **** 
  93:..\..\..\lvgl\version_6.1.2\lvgl\src\lv_objx\../lv_core/../lv_misc/lv_color.h **** /*---------------------------------------
  94:..\..\..\lvgl\version_6.1.2\lvgl\src\lv_objx\../lv_core/../lv_misc/lv_color.h ****  * Macros for all existing  color depths
  95:..\..\..\lvgl\version_6.1.2\lvgl\src\lv_objx\../lv_core/../lv_misc/lv_color.h ****  * to set/get values of the color channels
  96:..\..\..\lvgl\version_6.1.2\lvgl\src\lv_objx\../lv_core/../lv_misc/lv_color.h ****  *------------------------------------------*/
  97:..\..\..\lvgl\version_6.1.2\lvgl\src\lv_objx\../lv_core/../lv_misc/lv_color.h **** # define LV_COLOR_SET_R1(c, v) (c).ch.red = (uint8_t)((v) & 0x1);
  98:..\..\..\lvgl\version_6.1.2\lvgl\src\lv_objx\../lv_core/../lv_misc/lv_color.h **** # define LV_COLOR_SET_G1(c, v) (c).ch.green = (uint8_t)((v) & 0x1);
  99:..\..\..\lvgl\version_6.1.2\lvgl\src\lv_objx\../lv_core/../lv_misc/lv_color.h **** # define LV_COLOR_SET_B1(c, v) (c).ch.blue = (uint8_t)((v) & 0x1);
 100:..\..\..\lvgl\version_6.1.2\lvgl\src\lv_objx\../lv_core/../lv_misc/lv_color.h **** # define LV_COLOR_SET_A1(c, v)
 101:..\..\..\lvgl\version_6.1.2\lvgl\src\lv_objx\../lv_core/../lv_misc/lv_color.h **** 
 102:..\..\..\lvgl\version_6.1.2\lvgl\src\lv_objx\../lv_core/../lv_misc/lv_color.h **** # define LV_COLOR_GET_R1(c) (c).ch.red
 103:..\..\..\lvgl\version_6.1.2\lvgl\src\lv_objx\../lv_core/../lv_misc/lv_color.h **** # define LV_COLOR_GET_G1(c) (c).ch.green
 104:..\..\..\lvgl\version_6.1.2\lvgl\src\lv_objx\../lv_core/../lv_misc/lv_color.h **** # define LV_COLOR_GET_B1(c) (c).ch.blue
 105:..\..\..\lvgl\version_6.1.2\lvgl\src\lv_objx\../lv_core/../lv_misc/lv_color.h **** # define LV_COLOR_GET_A1(c) 1
 106:..\..\..\lvgl\version_6.1.2\lvgl\src\lv_objx\../lv_core/../lv_misc/lv_color.h **** 
 107:..\..\..\lvgl\version_6.1.2\lvgl\src\lv_objx\../lv_core/../lv_misc/lv_color.h **** # define LV_COLOR_SET_R8(c, v) (c).ch.red = (uint8_t)(v) & 0x7U;
 108:..\..\..\lvgl\version_6.1.2\lvgl\src\lv_objx\../lv_core/../lv_misc/lv_color.h **** # define LV_COLOR_SET_G8(c, v) (c).ch.green = (uint8_t)(v) & 0x7U;
 109:..\..\..\lvgl\version_6.1.2\lvgl\src\lv_objx\../lv_core/../lv_misc/lv_color.h **** # define LV_COLOR_SET_B8(c, v) (c).ch.blue = (uint8_t)(v) & 0x3U;
 110:..\..\..\lvgl\version_6.1.2\lvgl\src\lv_objx\../lv_core/../lv_misc/lv_color.h **** # define LV_COLOR_SET_A8(c, v) do {} while(0)
 111:..\..\..\lvgl\version_6.1.2\lvgl\src\lv_objx\../lv_core/../lv_misc/lv_color.h **** 
 112:..\..\..\lvgl\version_6.1.2\lvgl\src\lv_objx\../lv_core/../lv_misc/lv_color.h **** # define LV_COLOR_GET_R8(c) (c).ch.red
 113:..\..\..\lvgl\version_6.1.2\lvgl\src\lv_objx\../lv_core/../lv_misc/lv_color.h **** # define LV_COLOR_GET_G8(c) (c).ch.green
 114:..\..\..\lvgl\version_6.1.2\lvgl\src\lv_objx\../lv_core/../lv_misc/lv_color.h **** # define LV_COLOR_GET_B8(c) (c).ch.blue
 115:..\..\..\lvgl\version_6.1.2\lvgl\src\lv_objx\../lv_core/../lv_misc/lv_color.h **** # define LV_COLOR_GET_A8(c) 0xFF
 116:..\..\..\lvgl\version_6.1.2\lvgl\src\lv_objx\../lv_core/../lv_misc/lv_color.h **** 
 117:..\..\..\lvgl\version_6.1.2\lvgl\src\lv_objx\../lv_core/../lv_misc/lv_color.h **** # define LV_COLOR_SET_R16(c, v) (c).ch.red = (uint8_t)(v) & 0x1FU;
 118:..\..\..\lvgl\version_6.1.2\lvgl\src\lv_objx\../lv_core/../lv_misc/lv_color.h **** # define LV_COLOR_SET_G16(c, v) (c).ch.green = (uint8_t)(v) & 0x3FU;
 119:..\..\..\lvgl\version_6.1.2\lvgl\src\lv_objx\../lv_core/../lv_misc/lv_color.h **** # define LV_COLOR_SET_G16_SWAP(c, v) {(c).ch.green_h = (uint8_t)(((v) >> 3) & 0x7); (c).ch.green_l 
 120:..\..\..\lvgl\version_6.1.2\lvgl\src\lv_objx\../lv_core/../lv_misc/lv_color.h **** # define LV_COLOR_SET_B16(c, v) (c).ch.blue = (uint8_t)(v) & 0x1FU;
 121:..\..\..\lvgl\version_6.1.2\lvgl\src\lv_objx\../lv_core/../lv_misc/lv_color.h **** # define LV_COLOR_SET_A16(c, v) do {} while(0)
 122:..\..\..\lvgl\version_6.1.2\lvgl\src\lv_objx\../lv_core/../lv_misc/lv_color.h **** 
 123:..\..\..\lvgl\version_6.1.2\lvgl\src\lv_objx\../lv_core/../lv_misc/lv_color.h **** # define LV_COLOR_GET_R16(c) (c).ch.red
 124:..\..\..\lvgl\version_6.1.2\lvgl\src\lv_objx\../lv_core/../lv_misc/lv_color.h **** # define LV_COLOR_GET_G16(c) (c).ch.green
 125:..\..\..\lvgl\version_6.1.2\lvgl\src\lv_objx\../lv_core/../lv_misc/lv_color.h **** # define LV_COLOR_GET_G16_SWAP(c) (((c).ch.green_h << 3) + (c).ch.green_l)
 126:..\..\..\lvgl\version_6.1.2\lvgl\src\lv_objx\../lv_core/../lv_misc/lv_color.h **** # define LV_COLOR_GET_B16(c) (c).ch.blue
 127:..\..\..\lvgl\version_6.1.2\lvgl\src\lv_objx\../lv_core/../lv_misc/lv_color.h **** # define LV_COLOR_GET_A16(c) 0xFF
 128:..\..\..\lvgl\version_6.1.2\lvgl\src\lv_objx\../lv_core/../lv_misc/lv_color.h **** 
 129:..\..\..\lvgl\version_6.1.2\lvgl\src\lv_objx\../lv_core/../lv_misc/lv_color.h **** # define LV_COLOR_SET_R32(c, v) (c).ch.red = (uint32_t)((v) & 0xFF);
 130:..\..\..\lvgl\version_6.1.2\lvgl\src\lv_objx\../lv_core/../lv_misc/lv_color.h **** # define LV_COLOR_SET_G32(c, v) (c).ch.green = (uint32_t)((v) & 0xFF);
 131:..\..\..\lvgl\version_6.1.2\lvgl\src\lv_objx\../lv_core/../lv_misc/lv_color.h **** # define LV_COLOR_SET_B32(c, v) (c).ch.blue = (uint32_t)((v) & 0xFF);
 132:..\..\..\lvgl\version_6.1.2\lvgl\src\lv_objx\../lv_core/../lv_misc/lv_color.h **** # define LV_COLOR_SET_A32(c, v) (c).ch.alpha = (uint32_t)((v) & 0xFF);
 133:..\..\..\lvgl\version_6.1.2\lvgl\src\lv_objx\../lv_core/../lv_misc/lv_color.h **** 
 134:..\..\..\lvgl\version_6.1.2\lvgl\src\lv_objx\../lv_core/../lv_misc/lv_color.h **** # define LV_COLOR_GET_R32(c) (c).ch.red
 135:..\..\..\lvgl\version_6.1.2\lvgl\src\lv_objx\../lv_core/../lv_misc/lv_color.h **** # define LV_COLOR_GET_G32(c) (c).ch.green
 136:..\..\..\lvgl\version_6.1.2\lvgl\src\lv_objx\../lv_core/../lv_misc/lv_color.h **** # define LV_COLOR_GET_B32(c) (c).ch.blue
 137:..\..\..\lvgl\version_6.1.2\lvgl\src\lv_objx\../lv_core/../lv_misc/lv_color.h **** # define LV_COLOR_GET_A32(c) (c).ch.alpha
 138:..\..\..\lvgl\version_6.1.2\lvgl\src\lv_objx\../lv_core/../lv_misc/lv_color.h **** 
 139:..\..\..\lvgl\version_6.1.2\lvgl\src\lv_objx\../lv_core/../lv_misc/lv_color.h **** 
 140:..\..\..\lvgl\version_6.1.2\lvgl\src\lv_objx\../lv_core/../lv_misc/lv_color.h **** /*---------------------------------------
 141:..\..\..\lvgl\version_6.1.2\lvgl\src\lv_objx\../lv_core/../lv_misc/lv_color.h ****  * Macros for the current color depth
 142:..\..\..\lvgl\version_6.1.2\lvgl\src\lv_objx\../lv_core/../lv_misc/lv_color.h ****  * to set/get values of the color channels
 143:..\..\..\lvgl\version_6.1.2\lvgl\src\lv_objx\../lv_core/../lv_misc/lv_color.h ****  *------------------------------------------*/
 144:..\..\..\lvgl\version_6.1.2\lvgl\src\lv_objx\../lv_core/../lv_misc/lv_color.h **** #if LV_COLOR_DEPTH == 1
ARM GAS  C:\Users\tmj32\AppData\Local\Temp\ccrrExWC.s 			page 4


 145:..\..\..\lvgl\version_6.1.2\lvgl\src\lv_objx\../lv_core/../lv_misc/lv_color.h **** # define LV_COLOR_SET_R(c, v) LV_COLOR_SET_R1(c,v)
 146:..\..\..\lvgl\version_6.1.2\lvgl\src\lv_objx\../lv_core/../lv_misc/lv_color.h **** # define LV_COLOR_SET_G(c, v) LV_COLOR_SET_G1(c,v)
 147:..\..\..\lvgl\version_6.1.2\lvgl\src\lv_objx\../lv_core/../lv_misc/lv_color.h **** # define LV_COLOR_SET_B(c, v) LV_COLOR_SET_B1(c,v)
 148:..\..\..\lvgl\version_6.1.2\lvgl\src\lv_objx\../lv_core/../lv_misc/lv_color.h **** # define LV_COLOR_SET_A(c, v) LV_COLOR_SET_A1(c,v)
 149:..\..\..\lvgl\version_6.1.2\lvgl\src\lv_objx\../lv_core/../lv_misc/lv_color.h **** 
 150:..\..\..\lvgl\version_6.1.2\lvgl\src\lv_objx\../lv_core/../lv_misc/lv_color.h **** # define LV_COLOR_GET_R(c) LV_COLOR_GET_R1(c)
 151:..\..\..\lvgl\version_6.1.2\lvgl\src\lv_objx\../lv_core/../lv_misc/lv_color.h **** # define LV_COLOR_GET_G(c) LV_COLOR_GET_G1(c)
 152:..\..\..\lvgl\version_6.1.2\lvgl\src\lv_objx\../lv_core/../lv_misc/lv_color.h **** # define LV_COLOR_GET_B(c) LV_COLOR_GET_B1(c)
 153:..\..\..\lvgl\version_6.1.2\lvgl\src\lv_objx\../lv_core/../lv_misc/lv_color.h **** # define LV_COLOR_GET_A(c) LV_COLOR_GET_A1(c)
 154:..\..\..\lvgl\version_6.1.2\lvgl\src\lv_objx\../lv_core/../lv_misc/lv_color.h **** 
 155:..\..\..\lvgl\version_6.1.2\lvgl\src\lv_objx\../lv_core/../lv_misc/lv_color.h **** #elif LV_COLOR_DEPTH == 8
 156:..\..\..\lvgl\version_6.1.2\lvgl\src\lv_objx\../lv_core/../lv_misc/lv_color.h **** # define LV_COLOR_SET_R(c, v) LV_COLOR_SET_R8(c,v)
 157:..\..\..\lvgl\version_6.1.2\lvgl\src\lv_objx\../lv_core/../lv_misc/lv_color.h **** # define LV_COLOR_SET_G(c, v) LV_COLOR_SET_G8(c,v)
 158:..\..\..\lvgl\version_6.1.2\lvgl\src\lv_objx\../lv_core/../lv_misc/lv_color.h **** # define LV_COLOR_SET_B(c, v) LV_COLOR_SET_B8(c,v)
 159:..\..\..\lvgl\version_6.1.2\lvgl\src\lv_objx\../lv_core/../lv_misc/lv_color.h **** # define LV_COLOR_SET_A(c, v) LV_COLOR_SET_A8(c,v)
 160:..\..\..\lvgl\version_6.1.2\lvgl\src\lv_objx\../lv_core/../lv_misc/lv_color.h **** 
 161:..\..\..\lvgl\version_6.1.2\lvgl\src\lv_objx\../lv_core/../lv_misc/lv_color.h **** # define LV_COLOR_GET_R(c) LV_COLOR_GET_R8(c)
 162:..\..\..\lvgl\version_6.1.2\lvgl\src\lv_objx\../lv_core/../lv_misc/lv_color.h **** # define LV_COLOR_GET_G(c) LV_COLOR_GET_G8(c)
 163:..\..\..\lvgl\version_6.1.2\lvgl\src\lv_objx\../lv_core/../lv_misc/lv_color.h **** # define LV_COLOR_GET_B(c) LV_COLOR_GET_B8(c)
 164:..\..\..\lvgl\version_6.1.2\lvgl\src\lv_objx\../lv_core/../lv_misc/lv_color.h **** # define LV_COLOR_GET_A(c) LV_COLOR_GET_A8(c)
 165:..\..\..\lvgl\version_6.1.2\lvgl\src\lv_objx\../lv_core/../lv_misc/lv_color.h **** 
 166:..\..\..\lvgl\version_6.1.2\lvgl\src\lv_objx\../lv_core/../lv_misc/lv_color.h **** #elif LV_COLOR_DEPTH == 16
 167:..\..\..\lvgl\version_6.1.2\lvgl\src\lv_objx\../lv_core/../lv_misc/lv_color.h **** # define LV_COLOR_SET_R(c, v) LV_COLOR_SET_R16(c,v)
 168:..\..\..\lvgl\version_6.1.2\lvgl\src\lv_objx\../lv_core/../lv_misc/lv_color.h **** # if LV_COLOR_16_SWAP == 0
 169:..\..\..\lvgl\version_6.1.2\lvgl\src\lv_objx\../lv_core/../lv_misc/lv_color.h **** #   define LV_COLOR_SET_G(c, v) LV_COLOR_SET_G16(c,v)
 170:..\..\..\lvgl\version_6.1.2\lvgl\src\lv_objx\../lv_core/../lv_misc/lv_color.h **** # else
 171:..\..\..\lvgl\version_6.1.2\lvgl\src\lv_objx\../lv_core/../lv_misc/lv_color.h **** #   define LV_COLOR_SET_G(c, v) LV_COLOR_SET_G16_SWAP(c,v)
 172:..\..\..\lvgl\version_6.1.2\lvgl\src\lv_objx\../lv_core/../lv_misc/lv_color.h **** # endif
 173:..\..\..\lvgl\version_6.1.2\lvgl\src\lv_objx\../lv_core/../lv_misc/lv_color.h **** # define LV_COLOR_SET_B(c, v) LV_COLOR_SET_B16(c,v)
 174:..\..\..\lvgl\version_6.1.2\lvgl\src\lv_objx\../lv_core/../lv_misc/lv_color.h **** # define LV_COLOR_SET_A(c, v) LV_COLOR_SET_A16(c,v)
 175:..\..\..\lvgl\version_6.1.2\lvgl\src\lv_objx\../lv_core/../lv_misc/lv_color.h **** 
 176:..\..\..\lvgl\version_6.1.2\lvgl\src\lv_objx\../lv_core/../lv_misc/lv_color.h **** # define LV_COLOR_GET_R(c) LV_COLOR_GET_R16(c)
 177:..\..\..\lvgl\version_6.1.2\lvgl\src\lv_objx\../lv_core/../lv_misc/lv_color.h **** # if LV_COLOR_16_SWAP == 0
 178:..\..\..\lvgl\version_6.1.2\lvgl\src\lv_objx\../lv_core/../lv_misc/lv_color.h **** #   define LV_COLOR_GET_G(c) LV_COLOR_GET_G16(c)
 179:..\..\..\lvgl\version_6.1.2\lvgl\src\lv_objx\../lv_core/../lv_misc/lv_color.h **** # else
 180:..\..\..\lvgl\version_6.1.2\lvgl\src\lv_objx\../lv_core/../lv_misc/lv_color.h **** #   define LV_COLOR_GET_G(c) LV_COLOR_GET_G16_SWAP(c)
 181:..\..\..\lvgl\version_6.1.2\lvgl\src\lv_objx\../lv_core/../lv_misc/lv_color.h **** # endif
 182:..\..\..\lvgl\version_6.1.2\lvgl\src\lv_objx\../lv_core/../lv_misc/lv_color.h **** # define LV_COLOR_GET_B(c)   LV_COLOR_GET_B16(c)
 183:..\..\..\lvgl\version_6.1.2\lvgl\src\lv_objx\../lv_core/../lv_misc/lv_color.h **** # define LV_COLOR_GET_A(c)   LV_COLOR_GET_A16(c)
 184:..\..\..\lvgl\version_6.1.2\lvgl\src\lv_objx\../lv_core/../lv_misc/lv_color.h **** 
 185:..\..\..\lvgl\version_6.1.2\lvgl\src\lv_objx\../lv_core/../lv_misc/lv_color.h **** #elif LV_COLOR_DEPTH == 32
 186:..\..\..\lvgl\version_6.1.2\lvgl\src\lv_objx\../lv_core/../lv_misc/lv_color.h **** # define LV_COLOR_SET_R(c, v) LV_COLOR_SET_R32(c,v)
 187:..\..\..\lvgl\version_6.1.2\lvgl\src\lv_objx\../lv_core/../lv_misc/lv_color.h **** # define LV_COLOR_SET_G(c, v) LV_COLOR_SET_G32(c,v)
 188:..\..\..\lvgl\version_6.1.2\lvgl\src\lv_objx\../lv_core/../lv_misc/lv_color.h **** # define LV_COLOR_SET_B(c, v) LV_COLOR_SET_B32(c,v)
 189:..\..\..\lvgl\version_6.1.2\lvgl\src\lv_objx\../lv_core/../lv_misc/lv_color.h **** # define LV_COLOR_SET_A(c, v) LV_COLOR_SET_A32(c,v)
 190:..\..\..\lvgl\version_6.1.2\lvgl\src\lv_objx\../lv_core/../lv_misc/lv_color.h **** 
 191:..\..\..\lvgl\version_6.1.2\lvgl\src\lv_objx\../lv_core/../lv_misc/lv_color.h **** # define LV_COLOR_GET_R(c) LV_COLOR_GET_R32(c)
 192:..\..\..\lvgl\version_6.1.2\lvgl\src\lv_objx\../lv_core/../lv_misc/lv_color.h **** # define LV_COLOR_GET_G(c) LV_COLOR_GET_G32(c)
 193:..\..\..\lvgl\version_6.1.2\lvgl\src\lv_objx\../lv_core/../lv_misc/lv_color.h **** # define LV_COLOR_GET_B(c) LV_COLOR_GET_B32(c)
 194:..\..\..\lvgl\version_6.1.2\lvgl\src\lv_objx\../lv_core/../lv_misc/lv_color.h **** # define LV_COLOR_GET_A(c) LV_COLOR_GET_A32(c)
 195:..\..\..\lvgl\version_6.1.2\lvgl\src\lv_objx\../lv_core/../lv_misc/lv_color.h **** #endif
 196:..\..\..\lvgl\version_6.1.2\lvgl\src\lv_objx\../lv_core/../lv_misc/lv_color.h **** 
 197:..\..\..\lvgl\version_6.1.2\lvgl\src\lv_objx\../lv_core/../lv_misc/lv_color.h **** /**********************
 198:..\..\..\lvgl\version_6.1.2\lvgl\src\lv_objx\../lv_core/../lv_misc/lv_color.h ****  *      TYPEDEFS
 199:..\..\..\lvgl\version_6.1.2\lvgl\src\lv_objx\../lv_core/../lv_misc/lv_color.h ****  **********************/
 200:..\..\..\lvgl\version_6.1.2\lvgl\src\lv_objx\../lv_core/../lv_misc/lv_color.h **** 
 201:..\..\..\lvgl\version_6.1.2\lvgl\src\lv_objx\../lv_core/../lv_misc/lv_color.h **** typedef union
ARM GAS  C:\Users\tmj32\AppData\Local\Temp\ccrrExWC.s 			page 5


 202:..\..\..\lvgl\version_6.1.2\lvgl\src\lv_objx\../lv_core/../lv_misc/lv_color.h **** {
 203:..\..\..\lvgl\version_6.1.2\lvgl\src\lv_objx\../lv_core/../lv_misc/lv_color.h ****     struct
 204:..\..\..\lvgl\version_6.1.2\lvgl\src\lv_objx\../lv_core/../lv_misc/lv_color.h ****     {
 205:..\..\..\lvgl\version_6.1.2\lvgl\src\lv_objx\../lv_core/../lv_misc/lv_color.h ****         uint8_t blue : 1;
 206:..\..\..\lvgl\version_6.1.2\lvgl\src\lv_objx\../lv_core/../lv_misc/lv_color.h ****         uint8_t green : 1;
 207:..\..\..\lvgl\version_6.1.2\lvgl\src\lv_objx\../lv_core/../lv_misc/lv_color.h ****         uint8_t red : 1;
 208:..\..\..\lvgl\version_6.1.2\lvgl\src\lv_objx\../lv_core/../lv_misc/lv_color.h ****     } ch;
 209:..\..\..\lvgl\version_6.1.2\lvgl\src\lv_objx\../lv_core/../lv_misc/lv_color.h ****     uint8_t full;
 210:..\..\..\lvgl\version_6.1.2\lvgl\src\lv_objx\../lv_core/../lv_misc/lv_color.h **** } lv_color1_t;
 211:..\..\..\lvgl\version_6.1.2\lvgl\src\lv_objx\../lv_core/../lv_misc/lv_color.h **** 
 212:..\..\..\lvgl\version_6.1.2\lvgl\src\lv_objx\../lv_core/../lv_misc/lv_color.h **** typedef union
 213:..\..\..\lvgl\version_6.1.2\lvgl\src\lv_objx\../lv_core/../lv_misc/lv_color.h **** {
 214:..\..\..\lvgl\version_6.1.2\lvgl\src\lv_objx\../lv_core/../lv_misc/lv_color.h ****     struct
 215:..\..\..\lvgl\version_6.1.2\lvgl\src\lv_objx\../lv_core/../lv_misc/lv_color.h ****     {
 216:..\..\..\lvgl\version_6.1.2\lvgl\src\lv_objx\../lv_core/../lv_misc/lv_color.h ****         uint8_t blue : 2;
 217:..\..\..\lvgl\version_6.1.2\lvgl\src\lv_objx\../lv_core/../lv_misc/lv_color.h ****         uint8_t green : 3;
 218:..\..\..\lvgl\version_6.1.2\lvgl\src\lv_objx\../lv_core/../lv_misc/lv_color.h ****         uint8_t red : 3;
 219:..\..\..\lvgl\version_6.1.2\lvgl\src\lv_objx\../lv_core/../lv_misc/lv_color.h ****     } ch;
 220:..\..\..\lvgl\version_6.1.2\lvgl\src\lv_objx\../lv_core/../lv_misc/lv_color.h ****     uint8_t full;
 221:..\..\..\lvgl\version_6.1.2\lvgl\src\lv_objx\../lv_core/../lv_misc/lv_color.h **** } lv_color8_t;
 222:..\..\..\lvgl\version_6.1.2\lvgl\src\lv_objx\../lv_core/../lv_misc/lv_color.h **** 
 223:..\..\..\lvgl\version_6.1.2\lvgl\src\lv_objx\../lv_core/../lv_misc/lv_color.h **** typedef union
 224:..\..\..\lvgl\version_6.1.2\lvgl\src\lv_objx\../lv_core/../lv_misc/lv_color.h **** {
 225:..\..\..\lvgl\version_6.1.2\lvgl\src\lv_objx\../lv_core/../lv_misc/lv_color.h ****     struct
 226:..\..\..\lvgl\version_6.1.2\lvgl\src\lv_objx\../lv_core/../lv_misc/lv_color.h ****     {
 227:..\..\..\lvgl\version_6.1.2\lvgl\src\lv_objx\../lv_core/../lv_misc/lv_color.h **** #if LV_COLOR_16_SWAP == 0
 228:..\..\..\lvgl\version_6.1.2\lvgl\src\lv_objx\../lv_core/../lv_misc/lv_color.h ****         uint16_t blue : 5;
 229:..\..\..\lvgl\version_6.1.2\lvgl\src\lv_objx\../lv_core/../lv_misc/lv_color.h ****         uint16_t green : 6;
 230:..\..\..\lvgl\version_6.1.2\lvgl\src\lv_objx\../lv_core/../lv_misc/lv_color.h ****         uint16_t red : 5;
 231:..\..\..\lvgl\version_6.1.2\lvgl\src\lv_objx\../lv_core/../lv_misc/lv_color.h **** #else
 232:..\..\..\lvgl\version_6.1.2\lvgl\src\lv_objx\../lv_core/../lv_misc/lv_color.h ****         uint16_t green_h : 3;
 233:..\..\..\lvgl\version_6.1.2\lvgl\src\lv_objx\../lv_core/../lv_misc/lv_color.h ****         uint16_t red : 5;
 234:..\..\..\lvgl\version_6.1.2\lvgl\src\lv_objx\../lv_core/../lv_misc/lv_color.h ****         uint16_t blue : 5;
 235:..\..\..\lvgl\version_6.1.2\lvgl\src\lv_objx\../lv_core/../lv_misc/lv_color.h ****         uint16_t green_l : 3;
 236:..\..\..\lvgl\version_6.1.2\lvgl\src\lv_objx\../lv_core/../lv_misc/lv_color.h **** #endif
 237:..\..\..\lvgl\version_6.1.2\lvgl\src\lv_objx\../lv_core/../lv_misc/lv_color.h ****     } ch;
 238:..\..\..\lvgl\version_6.1.2\lvgl\src\lv_objx\../lv_core/../lv_misc/lv_color.h ****     uint16_t full;
 239:..\..\..\lvgl\version_6.1.2\lvgl\src\lv_objx\../lv_core/../lv_misc/lv_color.h **** } lv_color16_t;
 240:..\..\..\lvgl\version_6.1.2\lvgl\src\lv_objx\../lv_core/../lv_misc/lv_color.h **** 
 241:..\..\..\lvgl\version_6.1.2\lvgl\src\lv_objx\../lv_core/../lv_misc/lv_color.h **** typedef union
 242:..\..\..\lvgl\version_6.1.2\lvgl\src\lv_objx\../lv_core/../lv_misc/lv_color.h **** {
 243:..\..\..\lvgl\version_6.1.2\lvgl\src\lv_objx\../lv_core/../lv_misc/lv_color.h ****     struct
 244:..\..\..\lvgl\version_6.1.2\lvgl\src\lv_objx\../lv_core/../lv_misc/lv_color.h ****     {
 245:..\..\..\lvgl\version_6.1.2\lvgl\src\lv_objx\../lv_core/../lv_misc/lv_color.h ****         uint8_t blue;
 246:..\..\..\lvgl\version_6.1.2\lvgl\src\lv_objx\../lv_core/../lv_misc/lv_color.h ****         uint8_t green;
 247:..\..\..\lvgl\version_6.1.2\lvgl\src\lv_objx\../lv_core/../lv_misc/lv_color.h ****         uint8_t red;
 248:..\..\..\lvgl\version_6.1.2\lvgl\src\lv_objx\../lv_core/../lv_misc/lv_color.h ****         uint8_t alpha;
 249:..\..\..\lvgl\version_6.1.2\lvgl\src\lv_objx\../lv_core/../lv_misc/lv_color.h ****     } ch;
 250:..\..\..\lvgl\version_6.1.2\lvgl\src\lv_objx\../lv_core/../lv_misc/lv_color.h ****     uint32_t full;
 251:..\..\..\lvgl\version_6.1.2\lvgl\src\lv_objx\../lv_core/../lv_misc/lv_color.h **** } lv_color32_t;
 252:..\..\..\lvgl\version_6.1.2\lvgl\src\lv_objx\../lv_core/../lv_misc/lv_color.h **** 
 253:..\..\..\lvgl\version_6.1.2\lvgl\src\lv_objx\../lv_core/../lv_misc/lv_color.h **** #if LV_COLOR_DEPTH == 1
 254:..\..\..\lvgl\version_6.1.2\lvgl\src\lv_objx\../lv_core/../lv_misc/lv_color.h **** typedef uint8_t lv_color_int_t;
 255:..\..\..\lvgl\version_6.1.2\lvgl\src\lv_objx\../lv_core/../lv_misc/lv_color.h **** typedef lv_color1_t lv_color_t;
 256:..\..\..\lvgl\version_6.1.2\lvgl\src\lv_objx\../lv_core/../lv_misc/lv_color.h **** #elif LV_COLOR_DEPTH == 8
 257:..\..\..\lvgl\version_6.1.2\lvgl\src\lv_objx\../lv_core/../lv_misc/lv_color.h **** typedef uint8_t lv_color_int_t;
 258:..\..\..\lvgl\version_6.1.2\lvgl\src\lv_objx\../lv_core/../lv_misc/lv_color.h **** typedef lv_color8_t lv_color_t;
ARM GAS  C:\Users\tmj32\AppData\Local\Temp\ccrrExWC.s 			page 6


 259:..\..\..\lvgl\version_6.1.2\lvgl\src\lv_objx\../lv_core/../lv_misc/lv_color.h **** #elif LV_COLOR_DEPTH == 16
 260:..\..\..\lvgl\version_6.1.2\lvgl\src\lv_objx\../lv_core/../lv_misc/lv_color.h **** typedef uint16_t lv_color_int_t;
 261:..\..\..\lvgl\version_6.1.2\lvgl\src\lv_objx\../lv_core/../lv_misc/lv_color.h **** typedef lv_color16_t lv_color_t;
 262:..\..\..\lvgl\version_6.1.2\lvgl\src\lv_objx\../lv_core/../lv_misc/lv_color.h **** #elif LV_COLOR_DEPTH == 32
 263:..\..\..\lvgl\version_6.1.2\lvgl\src\lv_objx\../lv_core/../lv_misc/lv_color.h **** typedef uint32_t lv_color_int_t;
 264:..\..\..\lvgl\version_6.1.2\lvgl\src\lv_objx\../lv_core/../lv_misc/lv_color.h **** typedef lv_color32_t lv_color_t;
 265:..\..\..\lvgl\version_6.1.2\lvgl\src\lv_objx\../lv_core/../lv_misc/lv_color.h **** #else
 266:..\..\..\lvgl\version_6.1.2\lvgl\src\lv_objx\../lv_core/../lv_misc/lv_color.h **** #error "Invalid LV_COLOR_DEPTH in lv_conf.h! Set it to 1, 8, 16 or 32!"
 267:..\..\..\lvgl\version_6.1.2\lvgl\src\lv_objx\../lv_core/../lv_misc/lv_color.h **** #endif
 268:..\..\..\lvgl\version_6.1.2\lvgl\src\lv_objx\../lv_core/../lv_misc/lv_color.h **** 
 269:..\..\..\lvgl\version_6.1.2\lvgl\src\lv_objx\../lv_core/../lv_misc/lv_color.h **** typedef uint8_t lv_opa_t;
 270:..\..\..\lvgl\version_6.1.2\lvgl\src\lv_objx\../lv_core/../lv_misc/lv_color.h **** 
 271:..\..\..\lvgl\version_6.1.2\lvgl\src\lv_objx\../lv_core/../lv_misc/lv_color.h **** typedef struct
 272:..\..\..\lvgl\version_6.1.2\lvgl\src\lv_objx\../lv_core/../lv_misc/lv_color.h **** {
 273:..\..\..\lvgl\version_6.1.2\lvgl\src\lv_objx\../lv_core/../lv_misc/lv_color.h ****     uint16_t h;
 274:..\..\..\lvgl\version_6.1.2\lvgl\src\lv_objx\../lv_core/../lv_misc/lv_color.h ****     uint8_t s;
 275:..\..\..\lvgl\version_6.1.2\lvgl\src\lv_objx\../lv_core/../lv_misc/lv_color.h ****     uint8_t v;
 276:..\..\..\lvgl\version_6.1.2\lvgl\src\lv_objx\../lv_core/../lv_misc/lv_color.h **** } lv_color_hsv_t;
 277:..\..\..\lvgl\version_6.1.2\lvgl\src\lv_objx\../lv_core/../lv_misc/lv_color.h **** 
 278:..\..\..\lvgl\version_6.1.2\lvgl\src\lv_objx\../lv_core/../lv_misc/lv_color.h **** /**********************
 279:..\..\..\lvgl\version_6.1.2\lvgl\src\lv_objx\../lv_core/../lv_misc/lv_color.h ****  * GLOBAL PROTOTYPES
 280:..\..\..\lvgl\version_6.1.2\lvgl\src\lv_objx\../lv_core/../lv_misc/lv_color.h ****  **********************/
 281:..\..\..\lvgl\version_6.1.2\lvgl\src\lv_objx\../lv_core/../lv_misc/lv_color.h **** 
 282:..\..\..\lvgl\version_6.1.2\lvgl\src\lv_objx\../lv_core/../lv_misc/lv_color.h **** /*In color conversations:
 283:..\..\..\lvgl\version_6.1.2\lvgl\src\lv_objx\../lv_core/../lv_misc/lv_color.h ****  * - When converting to bigger color type the LSB weight of 1 LSB is calculated
 284:..\..\..\lvgl\version_6.1.2\lvgl\src\lv_objx\../lv_core/../lv_misc/lv_color.h ****  *   E.g. 16 bit Red has 5 bits
 285:..\..\..\lvgl\version_6.1.2\lvgl\src\lv_objx\../lv_core/../lv_misc/lv_color.h ****  *         8 bit Red has 2 bits
 286:..\..\..\lvgl\version_6.1.2\lvgl\src\lv_objx\../lv_core/../lv_misc/lv_color.h ****  *        ----------------------
 287:..\..\..\lvgl\version_6.1.2\lvgl\src\lv_objx\../lv_core/../lv_misc/lv_color.h ****  *        8 bit red LSB = (2^5 - 1) / (2^2 - 1) = 31 / 3 = 10
 288:..\..\..\lvgl\version_6.1.2\lvgl\src\lv_objx\../lv_core/../lv_misc/lv_color.h ****  *
 289:..\..\..\lvgl\version_6.1.2\lvgl\src\lv_objx\../lv_core/../lv_misc/lv_color.h ****  * - When calculating to smaller color type simply shift out the LSBs
 290:..\..\..\lvgl\version_6.1.2\lvgl\src\lv_objx\../lv_core/../lv_misc/lv_color.h ****  *   E.g.  8 bit Red has 2 bits
 291:..\..\..\lvgl\version_6.1.2\lvgl\src\lv_objx\../lv_core/../lv_misc/lv_color.h ****  *        16 bit Red has 5 bits
 292:..\..\..\lvgl\version_6.1.2\lvgl\src\lv_objx\../lv_core/../lv_misc/lv_color.h ****  *        ----------------------
 293:..\..\..\lvgl\version_6.1.2\lvgl\src\lv_objx\../lv_core/../lv_misc/lv_color.h ****  *         Shift right with 5 - 3 = 2
 294:..\..\..\lvgl\version_6.1.2\lvgl\src\lv_objx\../lv_core/../lv_misc/lv_color.h ****  */
 295:..\..\..\lvgl\version_6.1.2\lvgl\src\lv_objx\../lv_core/../lv_misc/lv_color.h **** 
 296:..\..\..\lvgl\version_6.1.2\lvgl\src\lv_objx\../lv_core/../lv_misc/lv_color.h **** static inline uint8_t lv_color_to1(lv_color_t color)
 297:..\..\..\lvgl\version_6.1.2\lvgl\src\lv_objx\../lv_core/../lv_misc/lv_color.h **** {
 298:..\..\..\lvgl\version_6.1.2\lvgl\src\lv_objx\../lv_core/../lv_misc/lv_color.h **** #if LV_COLOR_DEPTH == 1
 299:..\..\..\lvgl\version_6.1.2\lvgl\src\lv_objx\../lv_core/../lv_misc/lv_color.h ****     return color.full;
 300:..\..\..\lvgl\version_6.1.2\lvgl\src\lv_objx\../lv_core/../lv_misc/lv_color.h **** #elif LV_COLOR_DEPTH == 8
 301:..\..\..\lvgl\version_6.1.2\lvgl\src\lv_objx\../lv_core/../lv_misc/lv_color.h ****     if((LV_COLOR_GET_R(color) & 0x4) || (LV_COLOR_GET_G(color) & 0x4) || (LV_COLOR_GET_B(color) & 0
 302:..\..\..\lvgl\version_6.1.2\lvgl\src\lv_objx\../lv_core/../lv_misc/lv_color.h ****         return 1;
 303:..\..\..\lvgl\version_6.1.2\lvgl\src\lv_objx\../lv_core/../lv_misc/lv_color.h ****     } else {
 304:..\..\..\lvgl\version_6.1.2\lvgl\src\lv_objx\../lv_core/../lv_misc/lv_color.h ****         return 0;
 305:..\..\..\lvgl\version_6.1.2\lvgl\src\lv_objx\../lv_core/../lv_misc/lv_color.h ****     }
 306:..\..\..\lvgl\version_6.1.2\lvgl\src\lv_objx\../lv_core/../lv_misc/lv_color.h **** #elif LV_COLOR_DEPTH == 16
 307:..\..\..\lvgl\version_6.1.2\lvgl\src\lv_objx\../lv_core/../lv_misc/lv_color.h ****     if((LV_COLOR_GET_R(color) & 0x10) || (LV_COLOR_GET_G(color) & 0x20) || (LV_COLOR_GET_B(color) &
 308:..\..\..\lvgl\version_6.1.2\lvgl\src\lv_objx\../lv_core/../lv_misc/lv_color.h ****         return 1;
 309:..\..\..\lvgl\version_6.1.2\lvgl\src\lv_objx\../lv_core/../lv_misc/lv_color.h ****     } else {
 310:..\..\..\lvgl\version_6.1.2\lvgl\src\lv_objx\../lv_core/../lv_misc/lv_color.h ****         return 0;
 311:..\..\..\lvgl\version_6.1.2\lvgl\src\lv_objx\../lv_core/../lv_misc/lv_color.h ****     }
 312:..\..\..\lvgl\version_6.1.2\lvgl\src\lv_objx\../lv_core/../lv_misc/lv_color.h **** #elif LV_COLOR_DEPTH == 32
 313:..\..\..\lvgl\version_6.1.2\lvgl\src\lv_objx\../lv_core/../lv_misc/lv_color.h ****     if((LV_COLOR_GET_R(color) & 0x80) || (LV_COLOR_GET_G(color) & 0x80) || (LV_COLOR_GET_B(color) &
 314:..\..\..\lvgl\version_6.1.2\lvgl\src\lv_objx\../lv_core/../lv_misc/lv_color.h ****         return 1;
 315:..\..\..\lvgl\version_6.1.2\lvgl\src\lv_objx\../lv_core/../lv_misc/lv_color.h ****     } else {
ARM GAS  C:\Users\tmj32\AppData\Local\Temp\ccrrExWC.s 			page 7


 316:..\..\..\lvgl\version_6.1.2\lvgl\src\lv_objx\../lv_core/../lv_misc/lv_color.h ****         return 0;
 317:..\..\..\lvgl\version_6.1.2\lvgl\src\lv_objx\../lv_core/../lv_misc/lv_color.h ****     }
 318:..\..\..\lvgl\version_6.1.2\lvgl\src\lv_objx\../lv_core/../lv_misc/lv_color.h **** #endif
 319:..\..\..\lvgl\version_6.1.2\lvgl\src\lv_objx\../lv_core/../lv_misc/lv_color.h **** }
 320:..\..\..\lvgl\version_6.1.2\lvgl\src\lv_objx\../lv_core/../lv_misc/lv_color.h **** 
 321:..\..\..\lvgl\version_6.1.2\lvgl\src\lv_objx\../lv_core/../lv_misc/lv_color.h **** static inline uint8_t lv_color_to8(lv_color_t color)
 322:..\..\..\lvgl\version_6.1.2\lvgl\src\lv_objx\../lv_core/../lv_misc/lv_color.h **** {
 323:..\..\..\lvgl\version_6.1.2\lvgl\src\lv_objx\../lv_core/../lv_misc/lv_color.h **** #if LV_COLOR_DEPTH == 1
 324:..\..\..\lvgl\version_6.1.2\lvgl\src\lv_objx\../lv_core/../lv_misc/lv_color.h ****     if(color.full == 0)
 325:..\..\..\lvgl\version_6.1.2\lvgl\src\lv_objx\../lv_core/../lv_misc/lv_color.h ****         return 0;
 326:..\..\..\lvgl\version_6.1.2\lvgl\src\lv_objx\../lv_core/../lv_misc/lv_color.h ****     else
 327:..\..\..\lvgl\version_6.1.2\lvgl\src\lv_objx\../lv_core/../lv_misc/lv_color.h ****         return 0xFF;
 328:..\..\..\lvgl\version_6.1.2\lvgl\src\lv_objx\../lv_core/../lv_misc/lv_color.h **** #elif LV_COLOR_DEPTH == 8
 329:..\..\..\lvgl\version_6.1.2\lvgl\src\lv_objx\../lv_core/../lv_misc/lv_color.h ****     return color.full;
 330:..\..\..\lvgl\version_6.1.2\lvgl\src\lv_objx\../lv_core/../lv_misc/lv_color.h **** #elif LV_COLOR_DEPTH == 16
 331:..\..\..\lvgl\version_6.1.2\lvgl\src\lv_objx\../lv_core/../lv_misc/lv_color.h ****     lv_color8_t ret;
 332:..\..\..\lvgl\version_6.1.2\lvgl\src\lv_objx\../lv_core/../lv_misc/lv_color.h ****     LV_COLOR_SET_R8(ret, LV_COLOR_GET_R(color) >> 2);   /* 5 - 3  = 2*/
 333:..\..\..\lvgl\version_6.1.2\lvgl\src\lv_objx\../lv_core/../lv_misc/lv_color.h ****     LV_COLOR_SET_G8(ret, LV_COLOR_GET_G(color) >> 3); /* 6 - 3  = 3*/
 334:..\..\..\lvgl\version_6.1.2\lvgl\src\lv_objx\../lv_core/../lv_misc/lv_color.h ****     LV_COLOR_SET_B8(ret, LV_COLOR_GET_B(color) >> 3);  /* 5 - 2  = 3*/
 335:..\..\..\lvgl\version_6.1.2\lvgl\src\lv_objx\../lv_core/../lv_misc/lv_color.h ****     return ret.full;
 336:..\..\..\lvgl\version_6.1.2\lvgl\src\lv_objx\../lv_core/../lv_misc/lv_color.h **** #elif LV_COLOR_DEPTH == 32
 337:..\..\..\lvgl\version_6.1.2\lvgl\src\lv_objx\../lv_core/../lv_misc/lv_color.h ****     lv_color8_t ret;
 338:..\..\..\lvgl\version_6.1.2\lvgl\src\lv_objx\../lv_core/../lv_misc/lv_color.h ****     LV_COLOR_SET_R8(ret, LV_COLOR_GET_R(color) >> 5);   /* 8 - 3  = 5*/
 339:..\..\..\lvgl\version_6.1.2\lvgl\src\lv_objx\../lv_core/../lv_misc/lv_color.h ****     LV_COLOR_SET_G8(ret, LV_COLOR_GET_G(color) >> 5); /* 8 - 3  = 5*/
 340:..\..\..\lvgl\version_6.1.2\lvgl\src\lv_objx\../lv_core/../lv_misc/lv_color.h ****     LV_COLOR_SET_B8(ret, LV_COLOR_GET_B(color) >> 6);  /* 8 - 2  = 6*/
 341:..\..\..\lvgl\version_6.1.2\lvgl\src\lv_objx\../lv_core/../lv_misc/lv_color.h ****     return ret.full;
 342:..\..\..\lvgl\version_6.1.2\lvgl\src\lv_objx\../lv_core/../lv_misc/lv_color.h **** #endif
 343:..\..\..\lvgl\version_6.1.2\lvgl\src\lv_objx\../lv_core/../lv_misc/lv_color.h **** }
 344:..\..\..\lvgl\version_6.1.2\lvgl\src\lv_objx\../lv_core/../lv_misc/lv_color.h **** 
 345:..\..\..\lvgl\version_6.1.2\lvgl\src\lv_objx\../lv_core/../lv_misc/lv_color.h **** static inline uint16_t lv_color_to16(lv_color_t color)
 346:..\..\..\lvgl\version_6.1.2\lvgl\src\lv_objx\../lv_core/../lv_misc/lv_color.h **** {
 347:..\..\..\lvgl\version_6.1.2\lvgl\src\lv_objx\../lv_core/../lv_misc/lv_color.h **** #if LV_COLOR_DEPTH == 1
 348:..\..\..\lvgl\version_6.1.2\lvgl\src\lv_objx\../lv_core/../lv_misc/lv_color.h ****     if(color.full == 0)
 349:..\..\..\lvgl\version_6.1.2\lvgl\src\lv_objx\../lv_core/../lv_misc/lv_color.h ****         return 0;
 350:..\..\..\lvgl\version_6.1.2\lvgl\src\lv_objx\../lv_core/../lv_misc/lv_color.h ****     else
 351:..\..\..\lvgl\version_6.1.2\lvgl\src\lv_objx\../lv_core/../lv_misc/lv_color.h ****         return 0xFFFF;
 352:..\..\..\lvgl\version_6.1.2\lvgl\src\lv_objx\../lv_core/../lv_misc/lv_color.h **** #elif LV_COLOR_DEPTH == 8
 353:..\..\..\lvgl\version_6.1.2\lvgl\src\lv_objx\../lv_core/../lv_misc/lv_color.h ****     lv_color16_t ret;
 354:..\..\..\lvgl\version_6.1.2\lvgl\src\lv_objx\../lv_core/../lv_misc/lv_color.h ****     LV_COLOR_SET_R16(ret, LV_COLOR_GET_R(color) * 4);     /*(2^5 - 1)/(2^3 - 1) = 31/7 = 4*/
 355:..\..\..\lvgl\version_6.1.2\lvgl\src\lv_objx\../lv_core/../lv_misc/lv_color.h **** #if LV_COLOR_16_SWAP == 0
 356:..\..\..\lvgl\version_6.1.2\lvgl\src\lv_objx\../lv_core/../lv_misc/lv_color.h ****     LV_COLOR_SET_G16(ret,  LV_COLOR_GET_G(color) * 9); /*(2^6 - 1)/(2^3 - 1) = 63/7 = 9*/
 357:..\..\..\lvgl\version_6.1.2\lvgl\src\lv_objx\../lv_core/../lv_misc/lv_color.h **** #else
 358:..\..\..\lvgl\version_6.1.2\lvgl\src\lv_objx\../lv_core/../lv_misc/lv_color.h ****     LV_COLOR_SET_G16_SWAP(ret, (LV_COLOR_GET_G(color) * 9)); /*(2^6 - 1)/(2^3 - 1) = 63/7 = 9*/
 359:..\..\..\lvgl\version_6.1.2\lvgl\src\lv_objx\../lv_core/../lv_misc/lv_color.h **** #endif
 360:..\..\..\lvgl\version_6.1.2\lvgl\src\lv_objx\../lv_core/../lv_misc/lv_color.h ****     LV_COLOR_SET_B16(ret, LV_COLOR_GET_B(color) * 10);  /*(2^5 - 1)/(2^2 - 1) = 31/3 = 10*/
 361:..\..\..\lvgl\version_6.1.2\lvgl\src\lv_objx\../lv_core/../lv_misc/lv_color.h ****     return ret.full;
 362:..\..\..\lvgl\version_6.1.2\lvgl\src\lv_objx\../lv_core/../lv_misc/lv_color.h **** #elif LV_COLOR_DEPTH == 16
 363:..\..\..\lvgl\version_6.1.2\lvgl\src\lv_objx\../lv_core/../lv_misc/lv_color.h ****     return color.full;
 364:..\..\..\lvgl\version_6.1.2\lvgl\src\lv_objx\../lv_core/../lv_misc/lv_color.h **** #elif LV_COLOR_DEPTH == 32
 365:..\..\..\lvgl\version_6.1.2\lvgl\src\lv_objx\../lv_core/../lv_misc/lv_color.h ****     lv_color16_t ret;
 366:..\..\..\lvgl\version_6.1.2\lvgl\src\lv_objx\../lv_core/../lv_misc/lv_color.h ****     LV_COLOR_SET_R16(ret, LV_COLOR_GET_R(color) >> 3);   /* 8 - 5  = 3*/
 367:..\..\..\lvgl\version_6.1.2\lvgl\src\lv_objx\../lv_core/../lv_misc/lv_color.h **** 
 368:..\..\..\lvgl\version_6.1.2\lvgl\src\lv_objx\../lv_core/../lv_misc/lv_color.h **** #if LV_COLOR_16_SWAP == 0
 369:..\..\..\lvgl\version_6.1.2\lvgl\src\lv_objx\../lv_core/../lv_misc/lv_color.h ****     LV_COLOR_SET_G16(ret, LV_COLOR_GET_G(color) >> 2); /* 8 - 6  = 2*/
 370:..\..\..\lvgl\version_6.1.2\lvgl\src\lv_objx\../lv_core/../lv_misc/lv_color.h **** #else
 371:..\..\..\lvgl\version_6.1.2\lvgl\src\lv_objx\../lv_core/../lv_misc/lv_color.h ****     LV_COLOR_SET_G16_SWAP(ret, ret.ch.green_h = (LV_COLOR_GET_G(color) >> 2); /*(2^6 - 1)/(2^3 - 1)
 372:..\..\..\lvgl\version_6.1.2\lvgl\src\lv_objx\../lv_core/../lv_misc/lv_color.h **** #endif
ARM GAS  C:\Users\tmj32\AppData\Local\Temp\ccrrExWC.s 			page 8


 373:..\..\..\lvgl\version_6.1.2\lvgl\src\lv_objx\../lv_core/../lv_misc/lv_color.h ****     LV_COLOR_SET_B16(ret, LV_COLOR_GET_B(color) >> 3);  /* 8 - 5  = 3*/
 374:..\..\..\lvgl\version_6.1.2\lvgl\src\lv_objx\../lv_core/../lv_misc/lv_color.h ****     return ret.full;
 375:..\..\..\lvgl\version_6.1.2\lvgl\src\lv_objx\../lv_core/../lv_misc/lv_color.h **** #endif                         
 376:..\..\..\lvgl\version_6.1.2\lvgl\src\lv_objx\../lv_core/../lv_misc/lv_color.h **** }
 377:..\..\..\lvgl\version_6.1.2\lvgl\src\lv_objx\../lv_core/../lv_misc/lv_color.h **** 
 378:..\..\..\lvgl\version_6.1.2\lvgl\src\lv_objx\../lv_core/../lv_misc/lv_color.h **** static inline uint32_t lv_color_to32(lv_color_t color)
 379:..\..\..\lvgl\version_6.1.2\lvgl\src\lv_objx\../lv_core/../lv_misc/lv_color.h **** {
 380:..\..\..\lvgl\version_6.1.2\lvgl\src\lv_objx\../lv_core/../lv_misc/lv_color.h **** #if LV_COLOR_DEPTH == 1
 381:..\..\..\lvgl\version_6.1.2\lvgl\src\lv_objx\../lv_core/../lv_misc/lv_color.h ****     if(color.full == 0)
 382:..\..\..\lvgl\version_6.1.2\lvgl\src\lv_objx\../lv_core/../lv_misc/lv_color.h ****         return 0;
 383:..\..\..\lvgl\version_6.1.2\lvgl\src\lv_objx\../lv_core/../lv_misc/lv_color.h ****     else
 384:..\..\..\lvgl\version_6.1.2\lvgl\src\lv_objx\../lv_core/../lv_misc/lv_color.h ****         return 0xFFFFFFFF;
 385:..\..\..\lvgl\version_6.1.2\lvgl\src\lv_objx\../lv_core/../lv_misc/lv_color.h **** #elif LV_COLOR_DEPTH == 8
 386:..\..\..\lvgl\version_6.1.2\lvgl\src\lv_objx\../lv_core/../lv_misc/lv_color.h ****     lv_color32_t ret;
 387:..\..\..\lvgl\version_6.1.2\lvgl\src\lv_objx\../lv_core/../lv_misc/lv_color.h ****     LV_COLOR_SET_R32(ret, LV_COLOR_GET_R(color) * 36);     /*(2^8 - 1)/(2^3 - 1) = 255/7 = 36*/
 388:..\..\..\lvgl\version_6.1.2\lvgl\src\lv_objx\../lv_core/../lv_misc/lv_color.h ****     LV_COLOR_SET_G32(ret, LV_COLOR_GET_G(color) * 36); /*(2^8 - 1)/(2^3 - 1) = 255/7 = 36*/
 389:..\..\..\lvgl\version_6.1.2\lvgl\src\lv_objx\../lv_core/../lv_misc/lv_color.h ****     LV_COLOR_SET_B32(ret, LV_COLOR_GET_B(color) * 85);   /*(2^8 - 1)/(2^2 - 1) = 255/3 = 85*/
 390:..\..\..\lvgl\version_6.1.2\lvgl\src\lv_objx\../lv_core/../lv_misc/lv_color.h ****     LV_COLOR_SET_A32(ret, 0xFF);
 391:..\..\..\lvgl\version_6.1.2\lvgl\src\lv_objx\../lv_core/../lv_misc/lv_color.h ****     return ret.full;
 392:..\..\..\lvgl\version_6.1.2\lvgl\src\lv_objx\../lv_core/../lv_misc/lv_color.h **** #elif LV_COLOR_DEPTH == 16
 393:..\..\..\lvgl\version_6.1.2\lvgl\src\lv_objx\../lv_core/../lv_misc/lv_color.h ****     /**
 394:..\..\..\lvgl\version_6.1.2\lvgl\src\lv_objx\../lv_core/../lv_misc/lv_color.h ****      * The floating point math for conversion is:
 395:..\..\..\lvgl\version_6.1.2\lvgl\src\lv_objx\../lv_core/../lv_misc/lv_color.h ****      *  valueto = valuefrom * ( (2^bitsto - 1) / (float)(2^bitsfrom - 1) )
 396:..\..\..\lvgl\version_6.1.2\lvgl\src\lv_objx\../lv_core/../lv_misc/lv_color.h ****      * The faster integer math for conversion is:
 397:..\..\..\lvgl\version_6.1.2\lvgl\src\lv_objx\../lv_core/../lv_misc/lv_color.h ****      *  valueto = ( valuefrom * multiplier + adder ) >> divisor
 398:..\..\..\lvgl\version_6.1.2\lvgl\src\lv_objx\../lv_core/../lv_misc/lv_color.h ****      *   multiplier = FLOOR( ( (2^bitsto - 1) << divisor ) / (float)(2^bitsfrom - 1) )
 399:..\..\..\lvgl\version_6.1.2\lvgl\src\lv_objx\../lv_core/../lv_misc/lv_color.h ****      * 
 400:..\..\..\lvgl\version_6.1.2\lvgl\src\lv_objx\../lv_core/../lv_misc/lv_color.h ****      * Find the first divisor where ( adder >> divisor ) <= 0
 401:..\..\..\lvgl\version_6.1.2\lvgl\src\lv_objx\../lv_core/../lv_misc/lv_color.h ****      * 
 402:..\..\..\lvgl\version_6.1.2\lvgl\src\lv_objx\../lv_core/../lv_misc/lv_color.h ****      * 5-bit to 8-bit: ( 31 * multiplier + adder ) >> divisor = 255
 403:..\..\..\lvgl\version_6.1.2\lvgl\src\lv_objx\../lv_core/../lv_misc/lv_color.h ****      * divisor  multiplier  adder  min (0)  max (31)
 404:..\..\..\lvgl\version_6.1.2\lvgl\src\lv_objx\../lv_core/../lv_misc/lv_color.h ****      *       0           8      7        7       255
 405:..\..\..\lvgl\version_6.1.2\lvgl\src\lv_objx\../lv_core/../lv_misc/lv_color.h ****      *       1          16     14        7       255
 406:..\..\..\lvgl\version_6.1.2\lvgl\src\lv_objx\../lv_core/../lv_misc/lv_color.h ****      *       2          32     28        7       255
 407:..\..\..\lvgl\version_6.1.2\lvgl\src\lv_objx\../lv_core/../lv_misc/lv_color.h ****      *       3          65     25        3       255
 408:..\..\..\lvgl\version_6.1.2\lvgl\src\lv_objx\../lv_core/../lv_misc/lv_color.h ****      *       4         131     19        1       255
 409:..\..\..\lvgl\version_6.1.2\lvgl\src\lv_objx\../lv_core/../lv_misc/lv_color.h ****      *       5         263      7        0       255
 410:..\..\..\lvgl\version_6.1.2\lvgl\src\lv_objx\../lv_core/../lv_misc/lv_color.h ****      * 
 411:..\..\..\lvgl\version_6.1.2\lvgl\src\lv_objx\../lv_core/../lv_misc/lv_color.h ****      * 6-bit to 8-bit: 255 = ( 63 * multiplier + adder ) >> divisor
 412:..\..\..\lvgl\version_6.1.2\lvgl\src\lv_objx\../lv_core/../lv_misc/lv_color.h ****      * divisor  multiplier  adder  min (0)  max (63)
 413:..\..\..\lvgl\version_6.1.2\lvgl\src\lv_objx\../lv_core/../lv_misc/lv_color.h ****      *       0           4      3        3       255
 414:..\..\..\lvgl\version_6.1.2\lvgl\src\lv_objx\../lv_core/../lv_misc/lv_color.h ****      *       1           8      6        3       255
 415:..\..\..\lvgl\version_6.1.2\lvgl\src\lv_objx\../lv_core/../lv_misc/lv_color.h ****      *       2          16     12        3       255
 416:..\..\..\lvgl\version_6.1.2\lvgl\src\lv_objx\../lv_core/../lv_misc/lv_color.h ****      *       3          32     24        3       255
 417:..\..\..\lvgl\version_6.1.2\lvgl\src\lv_objx\../lv_core/../lv_misc/lv_color.h ****      *       4          64     48        3       255
 418:..\..\..\lvgl\version_6.1.2\lvgl\src\lv_objx\../lv_core/../lv_misc/lv_color.h ****      *       5         129     33        1       255
 419:..\..\..\lvgl\version_6.1.2\lvgl\src\lv_objx\../lv_core/../lv_misc/lv_color.h ****      *       6         259      3        0       255
 420:..\..\..\lvgl\version_6.1.2\lvgl\src\lv_objx\../lv_core/../lv_misc/lv_color.h ****      */
 421:..\..\..\lvgl\version_6.1.2\lvgl\src\lv_objx\../lv_core/../lv_misc/lv_color.h ****     lv_color32_t ret;
 422:..\..\..\lvgl\version_6.1.2\lvgl\src\lv_objx\../lv_core/../lv_misc/lv_color.h ****     LV_COLOR_SET_R32(ret, (LV_COLOR_GET_R(color) * 263 + 7 ) >> 5);
 423:..\..\..\lvgl\version_6.1.2\lvgl\src\lv_objx\../lv_core/../lv_misc/lv_color.h ****     LV_COLOR_SET_G32(ret, (LV_COLOR_GET_G(color) * 259 + 3 ) >> 6);
 424:..\..\..\lvgl\version_6.1.2\lvgl\src\lv_objx\../lv_core/../lv_misc/lv_color.h ****     LV_COLOR_SET_B32(ret, (LV_COLOR_GET_B(color) * 263 + 7 ) >> 5);
 425:..\..\..\lvgl\version_6.1.2\lvgl\src\lv_objx\../lv_core/../lv_misc/lv_color.h ****     LV_COLOR_SET_A32(ret, 0xFF);
 426:..\..\..\lvgl\version_6.1.2\lvgl\src\lv_objx\../lv_core/../lv_misc/lv_color.h ****     return ret.full;
 427:..\..\..\lvgl\version_6.1.2\lvgl\src\lv_objx\../lv_core/../lv_misc/lv_color.h **** #elif LV_COLOR_DEPTH == 32
 428:..\..\..\lvgl\version_6.1.2\lvgl\src\lv_objx\../lv_core/../lv_misc/lv_color.h ****     return color.full;
 429:..\..\..\lvgl\version_6.1.2\lvgl\src\lv_objx\../lv_core/../lv_misc/lv_color.h **** #endif
ARM GAS  C:\Users\tmj32\AppData\Local\Temp\ccrrExWC.s 			page 9


 430:..\..\..\lvgl\version_6.1.2\lvgl\src\lv_objx\../lv_core/../lv_misc/lv_color.h **** }
 431:..\..\..\lvgl\version_6.1.2\lvgl\src\lv_objx\../lv_core/../lv_misc/lv_color.h **** 
 432:..\..\..\lvgl\version_6.1.2\lvgl\src\lv_objx\../lv_core/../lv_misc/lv_color.h **** static inline lv_color_t lv_color_mix(lv_color_t c1, lv_color_t c2, uint8_t mix)
 433:..\..\..\lvgl\version_6.1.2\lvgl\src\lv_objx\../lv_core/../lv_misc/lv_color.h **** {
  28              		.loc 1 433 0
  29              		.cfi_startproc
  30              		@ args = 0, pretend = 0, frame = 24
  31              		@ frame_needed = 1, uses_anonymous_args = 0
  32              		@ link register save eliminated.
  33 0000 80B4     		push	{r7}
  34              		.cfi_def_cfa_offset 4
  35              		.cfi_offset 7, -4
  36 0002 87B0     		sub	sp, sp, #28
  37              		.cfi_def_cfa_offset 32
  38 0004 00AF     		add	r7, sp, #0
  39              		.cfi_def_cfa_register 7
  40 0006 F860     		str	r0, [r7, #12]
  41 0008 B960     		str	r1, [r7, #8]
  42 000a 1346     		mov	r3, r2
  43 000c FB71     		strb	r3, [r7, #7]
 434:..\..\..\lvgl\version_6.1.2\lvgl\src\lv_objx\../lv_core/../lv_misc/lv_color.h ****     lv_color_t ret;
 435:..\..\..\lvgl\version_6.1.2\lvgl\src\lv_objx\../lv_core/../lv_misc/lv_color.h **** #if LV_COLOR_DEPTH != 1
 436:..\..\..\lvgl\version_6.1.2\lvgl\src\lv_objx\../lv_core/../lv_misc/lv_color.h ****     /*LV_COLOR_DEPTH == 8, 16 or 32*/
 437:..\..\..\lvgl\version_6.1.2\lvgl\src\lv_objx\../lv_core/../lv_misc/lv_color.h ****     LV_COLOR_SET_R(ret, (uint16_t)((uint16_t) LV_COLOR_GET_R(c1) * mix + LV_COLOR_GET_R(c2) * (255 
  44              		.loc 1 437 0
  45 000e BB7B     		ldrb	r3, [r7, #14]	@ zero_extendqisi2
  46 0010 9AB2     		uxth	r2, r3
  47 0012 FB79     		ldrb	r3, [r7, #7]	@ zero_extendqisi2
  48 0014 9BB2     		uxth	r3, r3
  49 0016 12FB03F3 		smulbb	r3, r2, r3
  50 001a 9AB2     		uxth	r2, r3
  51 001c BB7A     		ldrb	r3, [r7, #10]	@ zero_extendqisi2
  52 001e 99B2     		uxth	r1, r3
  53 0020 FB79     		ldrb	r3, [r7, #7]	@ zero_extendqisi2
  54 0022 C3F1FF03 		rsb	r3, r3, #255
  55 0026 9BB2     		uxth	r3, r3
  56 0028 11FB03F3 		smulbb	r3, r1, r3
  57 002c 9BB2     		uxth	r3, r3
  58 002e 1344     		add	r3, r3, r2
  59 0030 9BB2     		uxth	r3, r3
  60 0032 1B0A     		lsrs	r3, r3, #8
  61 0034 9BB2     		uxth	r3, r3
  62 0036 DBB2     		uxtb	r3, r3
  63 0038 BB75     		strb	r3, [r7, #22]
 438:..\..\..\lvgl\version_6.1.2\lvgl\src\lv_objx\../lv_core/../lv_misc/lv_color.h ****     LV_COLOR_SET_G(ret, (uint16_t)((uint16_t) LV_COLOR_GET_G(c1) * mix + LV_COLOR_GET_G(c2) * (255 
  64              		.loc 1 438 0
  65 003a 7B7B     		ldrb	r3, [r7, #13]	@ zero_extendqisi2
  66 003c 9AB2     		uxth	r2, r3
  67 003e FB79     		ldrb	r3, [r7, #7]	@ zero_extendqisi2
  68 0040 9BB2     		uxth	r3, r3
  69 0042 12FB03F3 		smulbb	r3, r2, r3
  70 0046 9AB2     		uxth	r2, r3
  71 0048 7B7A     		ldrb	r3, [r7, #9]	@ zero_extendqisi2
  72 004a 99B2     		uxth	r1, r3
  73 004c FB79     		ldrb	r3, [r7, #7]	@ zero_extendqisi2
  74 004e C3F1FF03 		rsb	r3, r3, #255
  75 0052 9BB2     		uxth	r3, r3
ARM GAS  C:\Users\tmj32\AppData\Local\Temp\ccrrExWC.s 			page 10


  76 0054 11FB03F3 		smulbb	r3, r1, r3
  77 0058 9BB2     		uxth	r3, r3
  78 005a 1344     		add	r3, r3, r2
  79 005c 9BB2     		uxth	r3, r3
  80 005e 1B0A     		lsrs	r3, r3, #8
  81 0060 9BB2     		uxth	r3, r3
  82 0062 DBB2     		uxtb	r3, r3
  83 0064 7B75     		strb	r3, [r7, #21]
 439:..\..\..\lvgl\version_6.1.2\lvgl\src\lv_objx\../lv_core/../lv_misc/lv_color.h ****     LV_COLOR_SET_B(ret, (uint16_t)((uint16_t) LV_COLOR_GET_B(c1) * mix + LV_COLOR_GET_B(c2) * (255 
  84              		.loc 1 439 0
  85 0066 3B7B     		ldrb	r3, [r7, #12]	@ zero_extendqisi2
  86 0068 9AB2     		uxth	r2, r3
  87 006a FB79     		ldrb	r3, [r7, #7]	@ zero_extendqisi2
  88 006c 9BB2     		uxth	r3, r3
  89 006e 12FB03F3 		smulbb	r3, r2, r3
  90 0072 9AB2     		uxth	r2, r3
  91 0074 3B7A     		ldrb	r3, [r7, #8]	@ zero_extendqisi2
  92 0076 99B2     		uxth	r1, r3
  93 0078 FB79     		ldrb	r3, [r7, #7]	@ zero_extendqisi2
  94 007a C3F1FF03 		rsb	r3, r3, #255
  95 007e 9BB2     		uxth	r3, r3
  96 0080 11FB03F3 		smulbb	r3, r1, r3
  97 0084 9BB2     		uxth	r3, r3
  98 0086 1344     		add	r3, r3, r2
  99 0088 9BB2     		uxth	r3, r3
 100 008a 1B0A     		lsrs	r3, r3, #8
 101 008c 9BB2     		uxth	r3, r3
 102 008e DBB2     		uxtb	r3, r3
 103 0090 3B75     		strb	r3, [r7, #20]
 440:..\..\..\lvgl\version_6.1.2\lvgl\src\lv_objx\../lv_core/../lv_misc/lv_color.h ****     LV_COLOR_SET_A(ret, 0xFF);
 104              		.loc 1 440 0
 105 0092 FF23     		movs	r3, #255
 106 0094 FB75     		strb	r3, [r7, #23]
 441:..\..\..\lvgl\version_6.1.2\lvgl\src\lv_objx\../lv_core/../lv_misc/lv_color.h **** #else
 442:..\..\..\lvgl\version_6.1.2\lvgl\src\lv_objx\../lv_core/../lv_misc/lv_color.h ****     /*LV_COLOR_DEPTH == 1*/
 443:..\..\..\lvgl\version_6.1.2\lvgl\src\lv_objx\../lv_core/../lv_misc/lv_color.h ****     ret.full = mix > LV_OPA_50 ? c1.full : c2.full;
 444:..\..\..\lvgl\version_6.1.2\lvgl\src\lv_objx\../lv_core/../lv_misc/lv_color.h **** #endif
 445:..\..\..\lvgl\version_6.1.2\lvgl\src\lv_objx\../lv_core/../lv_misc/lv_color.h **** 
 446:..\..\..\lvgl\version_6.1.2\lvgl\src\lv_objx\../lv_core/../lv_misc/lv_color.h ****     return ret;
 107              		.loc 1 446 0
 108 0096 7B69     		ldr	r3, [r7, #20]
 447:..\..\..\lvgl\version_6.1.2\lvgl\src\lv_objx\../lv_core/../lv_misc/lv_color.h **** }
 109              		.loc 1 447 0
 110 0098 1846     		mov	r0, r3
 111 009a 1C37     		adds	r7, r7, #28
 112              		.cfi_def_cfa_offset 4
 113 009c BD46     		mov	sp, r7
 114              		.cfi_def_cfa_register 13
 115              		@ sp needed
 116 009e 5DF8047B 		ldr	r7, [sp], #4
 117              		.cfi_restore 7
 118              		.cfi_def_cfa_offset 0
 119 00a2 7047     		bx	lr
 120              		.cfi_endproc
 121              	.LFE5:
 122              		.size	lv_color_mix, .-lv_color_mix
 123              		.section	.text.lv_chart_set_style,"ax",%progbits
ARM GAS  C:\Users\tmj32\AppData\Local\Temp\ccrrExWC.s 			page 11


 124              		.align	2
 125              		.thumb
 126              		.thumb_func
 127              		.type	lv_chart_set_style, %function
 128              	lv_chart_set_style:
 129              	.LFB33:
 130              		.file 2 "..\\..\\..\\lvgl\\version_6.1.2\\lvgl\\src\\lv_objx\\lv_chart.h"
   1:..\..\..\lvgl\version_6.1.2\lvgl\src\lv_objx/lv_chart.h **** /**
   2:..\..\..\lvgl\version_6.1.2\lvgl\src\lv_objx/lv_chart.h ****  * @file lv_chart.h
   3:..\..\..\lvgl\version_6.1.2\lvgl\src\lv_objx/lv_chart.h ****  *
   4:..\..\..\lvgl\version_6.1.2\lvgl\src\lv_objx/lv_chart.h ****  */
   5:..\..\..\lvgl\version_6.1.2\lvgl\src\lv_objx/lv_chart.h **** 
   6:..\..\..\lvgl\version_6.1.2\lvgl\src\lv_objx/lv_chart.h **** #ifndef LV_CHART_H
   7:..\..\..\lvgl\version_6.1.2\lvgl\src\lv_objx/lv_chart.h **** #define LV_CHART_H
   8:..\..\..\lvgl\version_6.1.2\lvgl\src\lv_objx/lv_chart.h **** 
   9:..\..\..\lvgl\version_6.1.2\lvgl\src\lv_objx/lv_chart.h **** #ifdef __cplusplus
  10:..\..\..\lvgl\version_6.1.2\lvgl\src\lv_objx/lv_chart.h **** extern "C" {
  11:..\..\..\lvgl\version_6.1.2\lvgl\src\lv_objx/lv_chart.h **** #endif
  12:..\..\..\lvgl\version_6.1.2\lvgl\src\lv_objx/lv_chart.h **** 
  13:..\..\..\lvgl\version_6.1.2\lvgl\src\lv_objx/lv_chart.h **** /*********************
  14:..\..\..\lvgl\version_6.1.2\lvgl\src\lv_objx/lv_chart.h ****  *      INCLUDES
  15:..\..\..\lvgl\version_6.1.2\lvgl\src\lv_objx/lv_chart.h ****  *********************/
  16:..\..\..\lvgl\version_6.1.2\lvgl\src\lv_objx/lv_chart.h **** #ifdef LV_CONF_INCLUDE_SIMPLE
  17:..\..\..\lvgl\version_6.1.2\lvgl\src\lv_objx/lv_chart.h **** #include "lv_conf.h"
  18:..\..\..\lvgl\version_6.1.2\lvgl\src\lv_objx/lv_chart.h **** #else
  19:..\..\..\lvgl\version_6.1.2\lvgl\src\lv_objx/lv_chart.h **** #include "../../../lv_conf.h"
  20:..\..\..\lvgl\version_6.1.2\lvgl\src\lv_objx/lv_chart.h **** #endif
  21:..\..\..\lvgl\version_6.1.2\lvgl\src\lv_objx/lv_chart.h **** 
  22:..\..\..\lvgl\version_6.1.2\lvgl\src\lv_objx/lv_chart.h **** #if LV_USE_CHART != 0
  23:..\..\..\lvgl\version_6.1.2\lvgl\src\lv_objx/lv_chart.h **** 
  24:..\..\..\lvgl\version_6.1.2\lvgl\src\lv_objx/lv_chart.h **** #include "../lv_core/lv_obj.h"
  25:..\..\..\lvgl\version_6.1.2\lvgl\src\lv_objx/lv_chart.h **** #include "lv_line.h"
  26:..\..\..\lvgl\version_6.1.2\lvgl\src\lv_objx/lv_chart.h **** 
  27:..\..\..\lvgl\version_6.1.2\lvgl\src\lv_objx/lv_chart.h **** /*********************
  28:..\..\..\lvgl\version_6.1.2\lvgl\src\lv_objx/lv_chart.h ****  *      DEFINES
  29:..\..\..\lvgl\version_6.1.2\lvgl\src\lv_objx/lv_chart.h ****  *********************/
  30:..\..\..\lvgl\version_6.1.2\lvgl\src\lv_objx/lv_chart.h **** 
  31:..\..\..\lvgl\version_6.1.2\lvgl\src\lv_objx/lv_chart.h **** /**Default value of points. Can be used to not draw a point*/
  32:..\..\..\lvgl\version_6.1.2\lvgl\src\lv_objx/lv_chart.h **** #define LV_CHART_POINT_DEF (LV_COORD_MIN)
  33:..\..\..\lvgl\version_6.1.2\lvgl\src\lv_objx/lv_chart.h **** 
  34:..\..\..\lvgl\version_6.1.2\lvgl\src\lv_objx/lv_chart.h **** /**Automatically calculate the tick length*/
  35:..\..\..\lvgl\version_6.1.2\lvgl\src\lv_objx/lv_chart.h **** #define LV_CHART_TICK_LENGTH_AUTO 255
  36:..\..\..\lvgl\version_6.1.2\lvgl\src\lv_objx/lv_chart.h **** 
  37:..\..\..\lvgl\version_6.1.2\lvgl\src\lv_objx/lv_chart.h **** LV_EXPORT_CONST_INT(LV_CHART_POINT_DEF);
  38:..\..\..\lvgl\version_6.1.2\lvgl\src\lv_objx/lv_chart.h **** LV_EXPORT_CONST_INT(LV_CHART_TICK_LENGTH_AUTO);
  39:..\..\..\lvgl\version_6.1.2\lvgl\src\lv_objx/lv_chart.h **** 
  40:..\..\..\lvgl\version_6.1.2\lvgl\src\lv_objx/lv_chart.h **** /**********************
  41:..\..\..\lvgl\version_6.1.2\lvgl\src\lv_objx/lv_chart.h ****  *      TYPEDEFS
  42:..\..\..\lvgl\version_6.1.2\lvgl\src\lv_objx/lv_chart.h ****  **********************/
  43:..\..\..\lvgl\version_6.1.2\lvgl\src\lv_objx/lv_chart.h **** 
  44:..\..\..\lvgl\version_6.1.2\lvgl\src\lv_objx/lv_chart.h **** /** Chart types*/
  45:..\..\..\lvgl\version_6.1.2\lvgl\src\lv_objx/lv_chart.h **** enum {
  46:..\..\..\lvgl\version_6.1.2\lvgl\src\lv_objx/lv_chart.h ****     LV_CHART_TYPE_NONE           = 0x00, /**< Don't draw the series*/
  47:..\..\..\lvgl\version_6.1.2\lvgl\src\lv_objx/lv_chart.h ****     LV_CHART_TYPE_LINE          = 0x01, /**< Connect the points with lines*/
  48:..\..\..\lvgl\version_6.1.2\lvgl\src\lv_objx/lv_chart.h ****     LV_CHART_TYPE_COLUMN        = 0x02, /**< Draw columns*/
  49:..\..\..\lvgl\version_6.1.2\lvgl\src\lv_objx/lv_chart.h ****     LV_CHART_TYPE_POINT         = 0x04, /**< Draw circles on the points*/
  50:..\..\..\lvgl\version_6.1.2\lvgl\src\lv_objx/lv_chart.h ****     LV_CHART_TYPE_VERTICAL_LINE = 0x08, /**< Draw vertical lines on points (useful when chart width
ARM GAS  C:\Users\tmj32\AppData\Local\Temp\ccrrExWC.s 			page 12


  51:..\..\..\lvgl\version_6.1.2\lvgl\src\lv_objx/lv_chart.h ****     LV_CHART_TYPE_AREA          = 0x10, /**< Draw area chart*/
  52:..\..\..\lvgl\version_6.1.2\lvgl\src\lv_objx/lv_chart.h **** };
  53:..\..\..\lvgl\version_6.1.2\lvgl\src\lv_objx/lv_chart.h **** typedef uint8_t lv_chart_type_t;
  54:..\..\..\lvgl\version_6.1.2\lvgl\src\lv_objx/lv_chart.h **** 
  55:..\..\..\lvgl\version_6.1.2\lvgl\src\lv_objx/lv_chart.h **** /** Chart update mode for `lv_chart_set_next`*/
  56:..\..\..\lvgl\version_6.1.2\lvgl\src\lv_objx/lv_chart.h **** enum {
  57:..\..\..\lvgl\version_6.1.2\lvgl\src\lv_objx/lv_chart.h ****     LV_CHART_UPDATE_MODE_SHIFT,     /**< Shift old data to the left and add the new one o the right
  58:..\..\..\lvgl\version_6.1.2\lvgl\src\lv_objx/lv_chart.h ****     LV_CHART_UPDATE_MODE_CIRCULAR,  /**< Add the new data in a circular way*/
  59:..\..\..\lvgl\version_6.1.2\lvgl\src\lv_objx/lv_chart.h **** };
  60:..\..\..\lvgl\version_6.1.2\lvgl\src\lv_objx/lv_chart.h **** typedef uint8_t lv_chart_update_mode_t;
  61:..\..\..\lvgl\version_6.1.2\lvgl\src\lv_objx/lv_chart.h **** 
  62:..\..\..\lvgl\version_6.1.2\lvgl\src\lv_objx/lv_chart.h **** typedef struct
  63:..\..\..\lvgl\version_6.1.2\lvgl\src\lv_objx/lv_chart.h **** {
  64:..\..\..\lvgl\version_6.1.2\lvgl\src\lv_objx/lv_chart.h ****     lv_coord_t * points;
  65:..\..\..\lvgl\version_6.1.2\lvgl\src\lv_objx/lv_chart.h ****     lv_color_t color;
  66:..\..\..\lvgl\version_6.1.2\lvgl\src\lv_objx/lv_chart.h ****     uint16_t start_point;
  67:..\..\..\lvgl\version_6.1.2\lvgl\src\lv_objx/lv_chart.h **** } lv_chart_series_t;
  68:..\..\..\lvgl\version_6.1.2\lvgl\src\lv_objx/lv_chart.h **** 
  69:..\..\..\lvgl\version_6.1.2\lvgl\src\lv_objx/lv_chart.h **** /** Data of axis */
  70:..\..\..\lvgl\version_6.1.2\lvgl\src\lv_objx/lv_chart.h **** enum {
  71:..\..\..\lvgl\version_6.1.2\lvgl\src\lv_objx/lv_chart.h ****     LV_CHART_AXIS_SKIP_LAST_TICK = 0x00,            /**< don't draw the last tick */
  72:..\..\..\lvgl\version_6.1.2\lvgl\src\lv_objx/lv_chart.h ****     LV_CHART_AXIS_DRAW_LAST_TICK = 0x01,            /**< draw the last tick */
  73:..\..\..\lvgl\version_6.1.2\lvgl\src\lv_objx/lv_chart.h ****     LV_CHART_AXIS_INVERSE_LABELS_ORDER = 0x02       /**< draw tick labels in an inversed order*/
  74:..\..\..\lvgl\version_6.1.2\lvgl\src\lv_objx/lv_chart.h **** };
  75:..\..\..\lvgl\version_6.1.2\lvgl\src\lv_objx/lv_chart.h **** typedef uint8_t lv_chart_axis_options_t;
  76:..\..\..\lvgl\version_6.1.2\lvgl\src\lv_objx/lv_chart.h **** 
  77:..\..\..\lvgl\version_6.1.2\lvgl\src\lv_objx/lv_chart.h **** typedef struct
  78:..\..\..\lvgl\version_6.1.2\lvgl\src\lv_objx/lv_chart.h **** {
  79:..\..\..\lvgl\version_6.1.2\lvgl\src\lv_objx/lv_chart.h ****     const char * list_of_values;
  80:..\..\..\lvgl\version_6.1.2\lvgl\src\lv_objx/lv_chart.h ****     lv_chart_axis_options_t options;
  81:..\..\..\lvgl\version_6.1.2\lvgl\src\lv_objx/lv_chart.h ****     uint8_t num_tick_marks;
  82:..\..\..\lvgl\version_6.1.2\lvgl\src\lv_objx/lv_chart.h ****     uint8_t major_tick_len;
  83:..\..\..\lvgl\version_6.1.2\lvgl\src\lv_objx/lv_chart.h ****     uint8_t minor_tick_len;
  84:..\..\..\lvgl\version_6.1.2\lvgl\src\lv_objx/lv_chart.h **** } lv_chart_axis_cfg_t;
  85:..\..\..\lvgl\version_6.1.2\lvgl\src\lv_objx/lv_chart.h **** 
  86:..\..\..\lvgl\version_6.1.2\lvgl\src\lv_objx/lv_chart.h **** /*Data of chart */
  87:..\..\..\lvgl\version_6.1.2\lvgl\src\lv_objx/lv_chart.h **** typedef struct
  88:..\..\..\lvgl\version_6.1.2\lvgl\src\lv_objx/lv_chart.h **** {
  89:..\..\..\lvgl\version_6.1.2\lvgl\src\lv_objx/lv_chart.h ****     /*No inherited ext*/ /*Ext. of ancestor*/
  90:..\..\..\lvgl\version_6.1.2\lvgl\src\lv_objx/lv_chart.h ****     /*New data for this type */
  91:..\..\..\lvgl\version_6.1.2\lvgl\src\lv_objx/lv_chart.h ****     lv_ll_t series_ll;    /*Linked list for the data line pointers (stores lv_chart_dl_t)*/
  92:..\..\..\lvgl\version_6.1.2\lvgl\src\lv_objx/lv_chart.h ****     lv_coord_t ymin;      /*y min value (used to scale the data)*/
  93:..\..\..\lvgl\version_6.1.2\lvgl\src\lv_objx/lv_chart.h ****     lv_coord_t ymax;      /*y max value (used to scale the data)*/
  94:..\..\..\lvgl\version_6.1.2\lvgl\src\lv_objx/lv_chart.h ****     uint8_t hdiv_cnt;     /*Number of horizontal division lines*/
  95:..\..\..\lvgl\version_6.1.2\lvgl\src\lv_objx/lv_chart.h ****     uint8_t vdiv_cnt;     /*Number of vertical division lines*/
  96:..\..\..\lvgl\version_6.1.2\lvgl\src\lv_objx/lv_chart.h ****     uint16_t point_cnt;   /*Point number in a data line*/
  97:..\..\..\lvgl\version_6.1.2\lvgl\src\lv_objx/lv_chart.h ****     lv_chart_type_t type; /*Line, column or point chart (from 'lv_chart_type_t')*/
  98:..\..\..\lvgl\version_6.1.2\lvgl\src\lv_objx/lv_chart.h ****     lv_chart_axis_cfg_t y_axis;
  99:..\..\..\lvgl\version_6.1.2\lvgl\src\lv_objx/lv_chart.h ****     lv_chart_axis_cfg_t x_axis;
 100:..\..\..\lvgl\version_6.1.2\lvgl\src\lv_objx/lv_chart.h ****     lv_chart_axis_cfg_t secondary_y_axis;
 101:..\..\..\lvgl\version_6.1.2\lvgl\src\lv_objx/lv_chart.h ****     uint16_t margin;
 102:..\..\..\lvgl\version_6.1.2\lvgl\src\lv_objx/lv_chart.h ****     uint8_t update_mode : 1;
 103:..\..\..\lvgl\version_6.1.2\lvgl\src\lv_objx/lv_chart.h ****     struct
 104:..\..\..\lvgl\version_6.1.2\lvgl\src\lv_objx/lv_chart.h ****     {
 105:..\..\..\lvgl\version_6.1.2\lvgl\src\lv_objx/lv_chart.h ****         lv_coord_t width; /*Line width or point radius*/
 106:..\..\..\lvgl\version_6.1.2\lvgl\src\lv_objx/lv_chart.h ****         uint8_t num;      /*Number of data lines in dl_ll*/
 107:..\..\..\lvgl\version_6.1.2\lvgl\src\lv_objx/lv_chart.h ****         lv_opa_t opa;     /*Opacity of data lines*/
ARM GAS  C:\Users\tmj32\AppData\Local\Temp\ccrrExWC.s 			page 13


 108:..\..\..\lvgl\version_6.1.2\lvgl\src\lv_objx/lv_chart.h ****         lv_opa_t dark;    /*Dark level of the point/column bottoms*/
 109:..\..\..\lvgl\version_6.1.2\lvgl\src\lv_objx/lv_chart.h ****     } series;
 110:..\..\..\lvgl\version_6.1.2\lvgl\src\lv_objx/lv_chart.h **** } lv_chart_ext_t;
 111:..\..\..\lvgl\version_6.1.2\lvgl\src\lv_objx/lv_chart.h **** 
 112:..\..\..\lvgl\version_6.1.2\lvgl\src\lv_objx/lv_chart.h **** enum {
 113:..\..\..\lvgl\version_6.1.2\lvgl\src\lv_objx/lv_chart.h ****     LV_CHART_STYLE_MAIN,
 114:..\..\..\lvgl\version_6.1.2\lvgl\src\lv_objx/lv_chart.h **** };
 115:..\..\..\lvgl\version_6.1.2\lvgl\src\lv_objx/lv_chart.h **** typedef uint8_t lv_chart_style_t;
 116:..\..\..\lvgl\version_6.1.2\lvgl\src\lv_objx/lv_chart.h **** 
 117:..\..\..\lvgl\version_6.1.2\lvgl\src\lv_objx/lv_chart.h **** /**********************
 118:..\..\..\lvgl\version_6.1.2\lvgl\src\lv_objx/lv_chart.h ****  * GLOBAL PROTOTYPES
 119:..\..\..\lvgl\version_6.1.2\lvgl\src\lv_objx/lv_chart.h ****  **********************/
 120:..\..\..\lvgl\version_6.1.2\lvgl\src\lv_objx/lv_chart.h **** 
 121:..\..\..\lvgl\version_6.1.2\lvgl\src\lv_objx/lv_chart.h **** /**
 122:..\..\..\lvgl\version_6.1.2\lvgl\src\lv_objx/lv_chart.h ****  * Create a chart background objects
 123:..\..\..\lvgl\version_6.1.2\lvgl\src\lv_objx/lv_chart.h ****  * @param par pointer to an object, it will be the parent of the new chart background
 124:..\..\..\lvgl\version_6.1.2\lvgl\src\lv_objx/lv_chart.h ****  * @param copy pointer to a chart background object, if not NULL then the new object will be copied
 125:..\..\..\lvgl\version_6.1.2\lvgl\src\lv_objx/lv_chart.h ****  * from it
 126:..\..\..\lvgl\version_6.1.2\lvgl\src\lv_objx/lv_chart.h ****  * @return pointer to the created chart background
 127:..\..\..\lvgl\version_6.1.2\lvgl\src\lv_objx/lv_chart.h ****  */
 128:..\..\..\lvgl\version_6.1.2\lvgl\src\lv_objx/lv_chart.h **** lv_obj_t * lv_chart_create(lv_obj_t * par, const lv_obj_t * copy);
 129:..\..\..\lvgl\version_6.1.2\lvgl\src\lv_objx/lv_chart.h **** 
 130:..\..\..\lvgl\version_6.1.2\lvgl\src\lv_objx/lv_chart.h **** /*======================
 131:..\..\..\lvgl\version_6.1.2\lvgl\src\lv_objx/lv_chart.h ****  * Add/remove functions
 132:..\..\..\lvgl\version_6.1.2\lvgl\src\lv_objx/lv_chart.h ****  *=====================*/
 133:..\..\..\lvgl\version_6.1.2\lvgl\src\lv_objx/lv_chart.h **** 
 134:..\..\..\lvgl\version_6.1.2\lvgl\src\lv_objx/lv_chart.h **** /**
 135:..\..\..\lvgl\version_6.1.2\lvgl\src\lv_objx/lv_chart.h ****  * Allocate and add a data series to the chart
 136:..\..\..\lvgl\version_6.1.2\lvgl\src\lv_objx/lv_chart.h ****  * @param chart pointer to a chart object
 137:..\..\..\lvgl\version_6.1.2\lvgl\src\lv_objx/lv_chart.h ****  * @param color color of the data series
 138:..\..\..\lvgl\version_6.1.2\lvgl\src\lv_objx/lv_chart.h ****  * @return pointer to the allocated data series
 139:..\..\..\lvgl\version_6.1.2\lvgl\src\lv_objx/lv_chart.h ****  */
 140:..\..\..\lvgl\version_6.1.2\lvgl\src\lv_objx/lv_chart.h **** lv_chart_series_t * lv_chart_add_series(lv_obj_t * chart, lv_color_t color);
 141:..\..\..\lvgl\version_6.1.2\lvgl\src\lv_objx/lv_chart.h **** 
 142:..\..\..\lvgl\version_6.1.2\lvgl\src\lv_objx/lv_chart.h **** /**
 143:..\..\..\lvgl\version_6.1.2\lvgl\src\lv_objx/lv_chart.h ****  * Clear the point of a serie
 144:..\..\..\lvgl\version_6.1.2\lvgl\src\lv_objx/lv_chart.h ****  * @param chart pointer to a chart object
 145:..\..\..\lvgl\version_6.1.2\lvgl\src\lv_objx/lv_chart.h ****  * @param serie pointer to the chart's serie to clear
 146:..\..\..\lvgl\version_6.1.2\lvgl\src\lv_objx/lv_chart.h ****  */
 147:..\..\..\lvgl\version_6.1.2\lvgl\src\lv_objx/lv_chart.h **** void lv_chart_clear_serie(lv_obj_t * chart, lv_chart_series_t * serie);
 148:..\..\..\lvgl\version_6.1.2\lvgl\src\lv_objx/lv_chart.h **** 
 149:..\..\..\lvgl\version_6.1.2\lvgl\src\lv_objx/lv_chart.h **** /*=====================
 150:..\..\..\lvgl\version_6.1.2\lvgl\src\lv_objx/lv_chart.h ****  * Setter functions
 151:..\..\..\lvgl\version_6.1.2\lvgl\src\lv_objx/lv_chart.h ****  *====================*/
 152:..\..\..\lvgl\version_6.1.2\lvgl\src\lv_objx/lv_chart.h **** 
 153:..\..\..\lvgl\version_6.1.2\lvgl\src\lv_objx/lv_chart.h **** /**
 154:..\..\..\lvgl\version_6.1.2\lvgl\src\lv_objx/lv_chart.h ****  * Set the number of horizontal and vertical division lines
 155:..\..\..\lvgl\version_6.1.2\lvgl\src\lv_objx/lv_chart.h ****  * @param chart pointer to a graph background object
 156:..\..\..\lvgl\version_6.1.2\lvgl\src\lv_objx/lv_chart.h ****  * @param hdiv number of horizontal division lines
 157:..\..\..\lvgl\version_6.1.2\lvgl\src\lv_objx/lv_chart.h ****  * @param vdiv number of vertical division lines
 158:..\..\..\lvgl\version_6.1.2\lvgl\src\lv_objx/lv_chart.h ****  */
 159:..\..\..\lvgl\version_6.1.2\lvgl\src\lv_objx/lv_chart.h **** void lv_chart_set_div_line_count(lv_obj_t * chart, uint8_t hdiv, uint8_t vdiv);
 160:..\..\..\lvgl\version_6.1.2\lvgl\src\lv_objx/lv_chart.h **** 
 161:..\..\..\lvgl\version_6.1.2\lvgl\src\lv_objx/lv_chart.h **** /**
 162:..\..\..\lvgl\version_6.1.2\lvgl\src\lv_objx/lv_chart.h ****  * Set the minimal and maximal y values
 163:..\..\..\lvgl\version_6.1.2\lvgl\src\lv_objx/lv_chart.h ****  * @param chart pointer to a graph background object
 164:..\..\..\lvgl\version_6.1.2\lvgl\src\lv_objx/lv_chart.h ****  * @param ymin y minimum value
ARM GAS  C:\Users\tmj32\AppData\Local\Temp\ccrrExWC.s 			page 14


 165:..\..\..\lvgl\version_6.1.2\lvgl\src\lv_objx/lv_chart.h ****  * @param ymax y maximum value
 166:..\..\..\lvgl\version_6.1.2\lvgl\src\lv_objx/lv_chart.h ****  */
 167:..\..\..\lvgl\version_6.1.2\lvgl\src\lv_objx/lv_chart.h **** void lv_chart_set_range(lv_obj_t * chart, lv_coord_t ymin, lv_coord_t ymax);
 168:..\..\..\lvgl\version_6.1.2\lvgl\src\lv_objx/lv_chart.h **** 
 169:..\..\..\lvgl\version_6.1.2\lvgl\src\lv_objx/lv_chart.h **** /**
 170:..\..\..\lvgl\version_6.1.2\lvgl\src\lv_objx/lv_chart.h ****  * Set a new type for a chart
 171:..\..\..\lvgl\version_6.1.2\lvgl\src\lv_objx/lv_chart.h ****  * @param chart pointer to a chart object
 172:..\..\..\lvgl\version_6.1.2\lvgl\src\lv_objx/lv_chart.h ****  * @param type new type of the chart (from 'lv_chart_type_t' enum)
 173:..\..\..\lvgl\version_6.1.2\lvgl\src\lv_objx/lv_chart.h ****  */
 174:..\..\..\lvgl\version_6.1.2\lvgl\src\lv_objx/lv_chart.h **** void lv_chart_set_type(lv_obj_t * chart, lv_chart_type_t type);
 175:..\..\..\lvgl\version_6.1.2\lvgl\src\lv_objx/lv_chart.h **** 
 176:..\..\..\lvgl\version_6.1.2\lvgl\src\lv_objx/lv_chart.h **** /**
 177:..\..\..\lvgl\version_6.1.2\lvgl\src\lv_objx/lv_chart.h ****  * Set the number of points on a data line on a chart
 178:..\..\..\lvgl\version_6.1.2\lvgl\src\lv_objx/lv_chart.h ****  * @param chart pointer r to chart object
 179:..\..\..\lvgl\version_6.1.2\lvgl\src\lv_objx/lv_chart.h ****  * @param point_cnt new number of points on the data lines
 180:..\..\..\lvgl\version_6.1.2\lvgl\src\lv_objx/lv_chart.h ****  */
 181:..\..\..\lvgl\version_6.1.2\lvgl\src\lv_objx/lv_chart.h **** void lv_chart_set_point_count(lv_obj_t * chart, uint16_t point_cnt);
 182:..\..\..\lvgl\version_6.1.2\lvgl\src\lv_objx/lv_chart.h **** 
 183:..\..\..\lvgl\version_6.1.2\lvgl\src\lv_objx/lv_chart.h **** /**
 184:..\..\..\lvgl\version_6.1.2\lvgl\src\lv_objx/lv_chart.h ****  * Set the opacity of the data series
 185:..\..\..\lvgl\version_6.1.2\lvgl\src\lv_objx/lv_chart.h ****  * @param chart pointer to a chart object
 186:..\..\..\lvgl\version_6.1.2\lvgl\src\lv_objx/lv_chart.h ****  * @param opa opacity of the data series
 187:..\..\..\lvgl\version_6.1.2\lvgl\src\lv_objx/lv_chart.h ****  */
 188:..\..\..\lvgl\version_6.1.2\lvgl\src\lv_objx/lv_chart.h **** void lv_chart_set_series_opa(lv_obj_t * chart, lv_opa_t opa);
 189:..\..\..\lvgl\version_6.1.2\lvgl\src\lv_objx/lv_chart.h **** 
 190:..\..\..\lvgl\version_6.1.2\lvgl\src\lv_objx/lv_chart.h **** /**
 191:..\..\..\lvgl\version_6.1.2\lvgl\src\lv_objx/lv_chart.h ****  * Set the line width or point radius of the data series
 192:..\..\..\lvgl\version_6.1.2\lvgl\src\lv_objx/lv_chart.h ****  * @param chart pointer to a chart object
 193:..\..\..\lvgl\version_6.1.2\lvgl\src\lv_objx/lv_chart.h ****  * @param width the new width
 194:..\..\..\lvgl\version_6.1.2\lvgl\src\lv_objx/lv_chart.h ****  */
 195:..\..\..\lvgl\version_6.1.2\lvgl\src\lv_objx/lv_chart.h **** void lv_chart_set_series_width(lv_obj_t * chart, lv_coord_t width);
 196:..\..\..\lvgl\version_6.1.2\lvgl\src\lv_objx/lv_chart.h **** 
 197:..\..\..\lvgl\version_6.1.2\lvgl\src\lv_objx/lv_chart.h **** /**
 198:..\..\..\lvgl\version_6.1.2\lvgl\src\lv_objx/lv_chart.h ****  * Set the dark effect on the bottom of the points or columns
 199:..\..\..\lvgl\version_6.1.2\lvgl\src\lv_objx/lv_chart.h ****  * @param chart pointer to a chart object
 200:..\..\..\lvgl\version_6.1.2\lvgl\src\lv_objx/lv_chart.h ****  * @param dark_eff dark effect level (LV_OPA_TRANSP to turn off)
 201:..\..\..\lvgl\version_6.1.2\lvgl\src\lv_objx/lv_chart.h ****  */
 202:..\..\..\lvgl\version_6.1.2\lvgl\src\lv_objx/lv_chart.h **** void lv_chart_set_series_darking(lv_obj_t * chart, lv_opa_t dark_eff);
 203:..\..\..\lvgl\version_6.1.2\lvgl\src\lv_objx/lv_chart.h **** 
 204:..\..\..\lvgl\version_6.1.2\lvgl\src\lv_objx/lv_chart.h **** /**
 205:..\..\..\lvgl\version_6.1.2\lvgl\src\lv_objx/lv_chart.h ****  * Initialize all data points with a value
 206:..\..\..\lvgl\version_6.1.2\lvgl\src\lv_objx/lv_chart.h ****  * @param chart pointer to chart object
 207:..\..\..\lvgl\version_6.1.2\lvgl\src\lv_objx/lv_chart.h ****  * @param ser pointer to a data series on 'chart'
 208:..\..\..\lvgl\version_6.1.2\lvgl\src\lv_objx/lv_chart.h ****  * @param y the new value  for all points
 209:..\..\..\lvgl\version_6.1.2\lvgl\src\lv_objx/lv_chart.h ****  */
 210:..\..\..\lvgl\version_6.1.2\lvgl\src\lv_objx/lv_chart.h **** void lv_chart_init_points(lv_obj_t * chart, lv_chart_series_t * ser, lv_coord_t y);
 211:..\..\..\lvgl\version_6.1.2\lvgl\src\lv_objx/lv_chart.h **** 
 212:..\..\..\lvgl\version_6.1.2\lvgl\src\lv_objx/lv_chart.h **** /**
 213:..\..\..\lvgl\version_6.1.2\lvgl\src\lv_objx/lv_chart.h ****  * Set the value of points from an array
 214:..\..\..\lvgl\version_6.1.2\lvgl\src\lv_objx/lv_chart.h ****  * @param chart pointer to chart object
 215:..\..\..\lvgl\version_6.1.2\lvgl\src\lv_objx/lv_chart.h ****  * @param ser pointer to a data series on 'chart'
 216:..\..\..\lvgl\version_6.1.2\lvgl\src\lv_objx/lv_chart.h ****  * @param y_array array of 'lv_coord_t' points (with 'points count' elements )
 217:..\..\..\lvgl\version_6.1.2\lvgl\src\lv_objx/lv_chart.h ****  */
 218:..\..\..\lvgl\version_6.1.2\lvgl\src\lv_objx/lv_chart.h **** void lv_chart_set_points(lv_obj_t * chart, lv_chart_series_t * ser, lv_coord_t y_array[]);
 219:..\..\..\lvgl\version_6.1.2\lvgl\src\lv_objx/lv_chart.h **** 
 220:..\..\..\lvgl\version_6.1.2\lvgl\src\lv_objx/lv_chart.h **** /**
 221:..\..\..\lvgl\version_6.1.2\lvgl\src\lv_objx/lv_chart.h ****  * Shift all data right and set the most right data on a data line
ARM GAS  C:\Users\tmj32\AppData\Local\Temp\ccrrExWC.s 			page 15


 222:..\..\..\lvgl\version_6.1.2\lvgl\src\lv_objx/lv_chart.h ****  * @param chart pointer to chart object
 223:..\..\..\lvgl\version_6.1.2\lvgl\src\lv_objx/lv_chart.h ****  * @param ser pointer to a data series on 'chart'
 224:..\..\..\lvgl\version_6.1.2\lvgl\src\lv_objx/lv_chart.h ****  * @param y the new value of the most right data
 225:..\..\..\lvgl\version_6.1.2\lvgl\src\lv_objx/lv_chart.h ****  */
 226:..\..\..\lvgl\version_6.1.2\lvgl\src\lv_objx/lv_chart.h **** void lv_chart_set_next(lv_obj_t * chart, lv_chart_series_t * ser, lv_coord_t y);
 227:..\..\..\lvgl\version_6.1.2\lvgl\src\lv_objx/lv_chart.h **** 
 228:..\..\..\lvgl\version_6.1.2\lvgl\src\lv_objx/lv_chart.h **** /**
 229:..\..\..\lvgl\version_6.1.2\lvgl\src\lv_objx/lv_chart.h ****  * Set update mode of the chart object.
 230:..\..\..\lvgl\version_6.1.2\lvgl\src\lv_objx/lv_chart.h ****  * @param chart pointer to a chart object
 231:..\..\..\lvgl\version_6.1.2\lvgl\src\lv_objx/lv_chart.h ****  * @param update mode
 232:..\..\..\lvgl\version_6.1.2\lvgl\src\lv_objx/lv_chart.h ****  */
 233:..\..\..\lvgl\version_6.1.2\lvgl\src\lv_objx/lv_chart.h **** void lv_chart_set_update_mode(lv_obj_t * chart, lv_chart_update_mode_t update_mode);
 234:..\..\..\lvgl\version_6.1.2\lvgl\src\lv_objx/lv_chart.h **** 
 235:..\..\..\lvgl\version_6.1.2\lvgl\src\lv_objx/lv_chart.h **** /**
 236:..\..\..\lvgl\version_6.1.2\lvgl\src\lv_objx/lv_chart.h ****  * Set the style of a chart
 237:..\..\..\lvgl\version_6.1.2\lvgl\src\lv_objx/lv_chart.h ****  * @param chart pointer to a chart object
 238:..\..\..\lvgl\version_6.1.2\lvgl\src\lv_objx/lv_chart.h ****  * @param type which style should be set (can be only `LV_CHART_STYLE_MAIN`)
 239:..\..\..\lvgl\version_6.1.2\lvgl\src\lv_objx/lv_chart.h ****  * @param style pointer to a style
 240:..\..\..\lvgl\version_6.1.2\lvgl\src\lv_objx/lv_chart.h ****  */
 241:..\..\..\lvgl\version_6.1.2\lvgl\src\lv_objx/lv_chart.h **** static inline void lv_chart_set_style(lv_obj_t * chart, lv_chart_style_t type, const lv_style_t * s
 242:..\..\..\lvgl\version_6.1.2\lvgl\src\lv_objx/lv_chart.h **** {
 131              		.loc 2 242 0
 132              		.cfi_startproc
 133              		@ args = 0, pretend = 0, frame = 16
 134              		@ frame_needed = 1, uses_anonymous_args = 0
 135 0000 80B5     		push	{r7, lr}
 136              		.cfi_def_cfa_offset 8
 137              		.cfi_offset 7, -8
 138              		.cfi_offset 14, -4
 139 0002 84B0     		sub	sp, sp, #16
 140              		.cfi_def_cfa_offset 24
 141 0004 00AF     		add	r7, sp, #0
 142              		.cfi_def_cfa_register 7
 143 0006 F860     		str	r0, [r7, #12]
 144 0008 0B46     		mov	r3, r1
 145 000a 7A60     		str	r2, [r7, #4]
 146 000c FB72     		strb	r3, [r7, #11]
 243:..\..\..\lvgl\version_6.1.2\lvgl\src\lv_objx/lv_chart.h ****     (void)type; /*Unused*/
 244:..\..\..\lvgl\version_6.1.2\lvgl\src\lv_objx/lv_chart.h ****     lv_obj_set_style(chart, style);
 147              		.loc 2 244 0
 148 000e 7968     		ldr	r1, [r7, #4]
 149 0010 F868     		ldr	r0, [r7, #12]
 150 0012 FFF7FEFF 		bl	lv_obj_set_style
 245:..\..\..\lvgl\version_6.1.2\lvgl\src\lv_objx/lv_chart.h **** }
 151              		.loc 2 245 0
 152 0016 00BF     		nop
 153 0018 1037     		adds	r7, r7, #16
 154              		.cfi_def_cfa_offset 8
 155 001a BD46     		mov	sp, r7
 156              		.cfi_def_cfa_register 13
 157              		@ sp needed
 158 001c 80BD     		pop	{r7, pc}
 159              		.cfi_endproc
 160              	.LFE33:
 161              		.size	lv_chart_set_style, .-lv_chart_set_style
 162 001e 00BF     		.bss
 163              		.align	2
ARM GAS  C:\Users\tmj32\AppData\Local\Temp\ccrrExWC.s 			page 16


 164              	ancestor_design_f:
 165 0000 00000000 		.space	4
 166              		.align	2
 167              	ancestor_signal:
 168 0004 00000000 		.space	4
 169              		.section	.text.lv_chart_create,"ax",%progbits
 170              		.align	2
 171              		.global	lv_chart_create
 172              		.thumb
 173              		.thumb_func
 174              		.type	lv_chart_create, %function
 175              	lv_chart_create:
 176              	.LFB35:
 177              		.file 3 "..\\..\\..\\lvgl\\version_6.1.2\\lvgl\\src\\lv_objx\\lv_chart.c"
   1:..\..\..\lvgl\version_6.1.2\lvgl\src\lv_objx/lv_chart.c **** /**
   2:..\..\..\lvgl\version_6.1.2\lvgl\src\lv_objx/lv_chart.c ****  * @file lv_chart.c
   3:..\..\..\lvgl\version_6.1.2\lvgl\src\lv_objx/lv_chart.c ****  *
   4:..\..\..\lvgl\version_6.1.2\lvgl\src\lv_objx/lv_chart.c ****  */
   5:..\..\..\lvgl\version_6.1.2\lvgl\src\lv_objx/lv_chart.c **** 
   6:..\..\..\lvgl\version_6.1.2\lvgl\src\lv_objx/lv_chart.c **** /*********************
   7:..\..\..\lvgl\version_6.1.2\lvgl\src\lv_objx/lv_chart.c ****  *      INCLUDES
   8:..\..\..\lvgl\version_6.1.2\lvgl\src\lv_objx/lv_chart.c ****  *********************/
   9:..\..\..\lvgl\version_6.1.2\lvgl\src\lv_objx/lv_chart.c **** #include "lv_chart.h"
  10:..\..\..\lvgl\version_6.1.2\lvgl\src\lv_objx/lv_chart.c **** #if LV_USE_CHART != 0
  11:..\..\..\lvgl\version_6.1.2\lvgl\src\lv_objx/lv_chart.c **** 
  12:..\..\..\lvgl\version_6.1.2\lvgl\src\lv_objx/lv_chart.c **** #include "../lv_core/lv_debug.h"
  13:..\..\..\lvgl\version_6.1.2\lvgl\src\lv_objx/lv_chart.c **** #include "../lv_core/lv_refr.h"
  14:..\..\..\lvgl\version_6.1.2\lvgl\src\lv_objx/lv_chart.c **** #include "../lv_draw/lv_draw.h"
  15:..\..\..\lvgl\version_6.1.2\lvgl\src\lv_objx/lv_chart.c **** #include "../lv_themes/lv_theme.h"
  16:..\..\..\lvgl\version_6.1.2\lvgl\src\lv_objx/lv_chart.c **** 
  17:..\..\..\lvgl\version_6.1.2\lvgl\src\lv_objx/lv_chart.c **** /*********************
  18:..\..\..\lvgl\version_6.1.2\lvgl\src\lv_objx/lv_chart.c ****  *      DEFINES
  19:..\..\..\lvgl\version_6.1.2\lvgl\src\lv_objx/lv_chart.c ****  *********************/
  20:..\..\..\lvgl\version_6.1.2\lvgl\src\lv_objx/lv_chart.c **** #define LV_OBJX_NAME "lv_chart"
  21:..\..\..\lvgl\version_6.1.2\lvgl\src\lv_objx/lv_chart.c **** 
  22:..\..\..\lvgl\version_6.1.2\lvgl\src\lv_objx/lv_chart.c **** #define LV_CHART_YMIN_DEF 0
  23:..\..\..\lvgl\version_6.1.2\lvgl\src\lv_objx/lv_chart.c **** #define LV_CHART_YMAX_DEF 100
  24:..\..\..\lvgl\version_6.1.2\lvgl\src\lv_objx/lv_chart.c **** #define LV_CHART_HDIV_DEF 3
  25:..\..\..\lvgl\version_6.1.2\lvgl\src\lv_objx/lv_chart.c **** #define LV_CHART_VDIV_DEF 5
  26:..\..\..\lvgl\version_6.1.2\lvgl\src\lv_objx/lv_chart.c **** #define LV_CHART_PNUM_DEF 10
  27:..\..\..\lvgl\version_6.1.2\lvgl\src\lv_objx/lv_chart.c **** #define LV_CHART_AXIS_TO_LABEL_DISTANCE 4
  28:..\..\..\lvgl\version_6.1.2\lvgl\src\lv_objx/lv_chart.c **** #define LV_CHART_AXIS_MAJOR_TICK_LEN_COE 1 / 15
  29:..\..\..\lvgl\version_6.1.2\lvgl\src\lv_objx/lv_chart.c **** #define LV_CHART_AXIS_MINOR_TICK_LEN_COE 2 / 3
  30:..\..\..\lvgl\version_6.1.2\lvgl\src\lv_objx/lv_chart.c **** #define LV_CHART_AXIS_PRIMARY_Y 1
  31:..\..\..\lvgl\version_6.1.2\lvgl\src\lv_objx/lv_chart.c **** #define LV_CHART_AXIS_SECONDARY_Y 0
  32:..\..\..\lvgl\version_6.1.2\lvgl\src\lv_objx/lv_chart.c **** #define LV_CHART_LABEL_ITERATOR_FORWARD 1
  33:..\..\..\lvgl\version_6.1.2\lvgl\src\lv_objx/lv_chart.c **** #define LV_CHART_LABEL_ITERATOR_REVERSE 0
  34:..\..\..\lvgl\version_6.1.2\lvgl\src\lv_objx/lv_chart.c **** 
  35:..\..\..\lvgl\version_6.1.2\lvgl\src\lv_objx/lv_chart.c **** /**********************
  36:..\..\..\lvgl\version_6.1.2\lvgl\src\lv_objx/lv_chart.c ****  *      TYPEDEFS
  37:..\..\..\lvgl\version_6.1.2\lvgl\src\lv_objx/lv_chart.c ****  **********************/
  38:..\..\..\lvgl\version_6.1.2\lvgl\src\lv_objx/lv_chart.c **** 
  39:..\..\..\lvgl\version_6.1.2\lvgl\src\lv_objx/lv_chart.c **** typedef struct {
  40:..\..\..\lvgl\version_6.1.2\lvgl\src\lv_objx/lv_chart.c ****     const char * list_start;
  41:..\..\..\lvgl\version_6.1.2\lvgl\src\lv_objx/lv_chart.c ****     const char * current_pos;
  42:..\..\..\lvgl\version_6.1.2\lvgl\src\lv_objx/lv_chart.c ****     uint8_t items_left;
  43:..\..\..\lvgl\version_6.1.2\lvgl\src\lv_objx/lv_chart.c ****     uint8_t is_reverse_iter;
ARM GAS  C:\Users\tmj32\AppData\Local\Temp\ccrrExWC.s 			page 17


  44:..\..\..\lvgl\version_6.1.2\lvgl\src\lv_objx/lv_chart.c **** } lv_chart_label_iterator_t;
  45:..\..\..\lvgl\version_6.1.2\lvgl\src\lv_objx/lv_chart.c **** 
  46:..\..\..\lvgl\version_6.1.2\lvgl\src\lv_objx/lv_chart.c **** /**********************
  47:..\..\..\lvgl\version_6.1.2\lvgl\src\lv_objx/lv_chart.c ****  *  STATIC PROTOTYPES
  48:..\..\..\lvgl\version_6.1.2\lvgl\src\lv_objx/lv_chart.c ****  **********************/
  49:..\..\..\lvgl\version_6.1.2\lvgl\src\lv_objx/lv_chart.c **** static bool lv_chart_design(lv_obj_t * chart, const lv_area_t * mask, lv_design_mode_t mode);
  50:..\..\..\lvgl\version_6.1.2\lvgl\src\lv_objx/lv_chart.c **** static lv_res_t lv_chart_signal(lv_obj_t * chart, lv_signal_t sign, void * param);
  51:..\..\..\lvgl\version_6.1.2\lvgl\src\lv_objx/lv_chart.c **** static void lv_chart_draw_div(lv_obj_t * chart, const lv_area_t * mask);
  52:..\..\..\lvgl\version_6.1.2\lvgl\src\lv_objx/lv_chart.c **** static void lv_chart_draw_lines(lv_obj_t * chart, const lv_area_t * mask);
  53:..\..\..\lvgl\version_6.1.2\lvgl\src\lv_objx/lv_chart.c **** static void lv_chart_draw_points(lv_obj_t * chart, const lv_area_t * mask);
  54:..\..\..\lvgl\version_6.1.2\lvgl\src\lv_objx/lv_chart.c **** static void lv_chart_draw_cols(lv_obj_t * chart, const lv_area_t * mask);
  55:..\..\..\lvgl\version_6.1.2\lvgl\src\lv_objx/lv_chart.c **** static void lv_chart_draw_vertical_lines(lv_obj_t * chart, const lv_area_t * mask);
  56:..\..\..\lvgl\version_6.1.2\lvgl\src\lv_objx/lv_chart.c **** static void lv_chart_draw_areas(lv_obj_t * chart, const lv_area_t * mask);
  57:..\..\..\lvgl\version_6.1.2\lvgl\src\lv_objx/lv_chart.c **** static void lv_chart_draw_axes(lv_obj_t * chart, const lv_area_t * mask);
  58:..\..\..\lvgl\version_6.1.2\lvgl\src\lv_objx/lv_chart.c **** static void lv_chart_inv_lines(lv_obj_t * chart, uint16_t i);
  59:..\..\..\lvgl\version_6.1.2\lvgl\src\lv_objx/lv_chart.c **** static void lv_chart_inv_points(lv_obj_t * chart, uint16_t i);
  60:..\..\..\lvgl\version_6.1.2\lvgl\src\lv_objx/lv_chart.c **** static void lv_chart_inv_cols(lv_obj_t * chart, uint16_t i);
  61:..\..\..\lvgl\version_6.1.2\lvgl\src\lv_objx/lv_chart.c **** static void lv_chart_get_next_label(lv_chart_label_iterator_t * iterator, char * buf);
  62:..\..\..\lvgl\version_6.1.2\lvgl\src\lv_objx/lv_chart.c **** static inline bool lv_chart_is_tick_with_label(uint8_t tick_num, lv_chart_axis_cfg_t * axis);
  63:..\..\..\lvgl\version_6.1.2\lvgl\src\lv_objx/lv_chart.c **** static lv_chart_label_iterator_t lv_chart_create_label_iter(const char * list, uint8_t iterator_dir
  64:..\..\..\lvgl\version_6.1.2\lvgl\src\lv_objx/lv_chart.c **** 
  65:..\..\..\lvgl\version_6.1.2\lvgl\src\lv_objx/lv_chart.c **** /**********************
  66:..\..\..\lvgl\version_6.1.2\lvgl\src\lv_objx/lv_chart.c ****  *  STATIC VARIABLES
  67:..\..\..\lvgl\version_6.1.2\lvgl\src\lv_objx/lv_chart.c ****  **********************/
  68:..\..\..\lvgl\version_6.1.2\lvgl\src\lv_objx/lv_chart.c **** static lv_design_cb_t ancestor_design_f;
  69:..\..\..\lvgl\version_6.1.2\lvgl\src\lv_objx/lv_chart.c **** static lv_signal_cb_t ancestor_signal;
  70:..\..\..\lvgl\version_6.1.2\lvgl\src\lv_objx/lv_chart.c **** 
  71:..\..\..\lvgl\version_6.1.2\lvgl\src\lv_objx/lv_chart.c **** /**********************
  72:..\..\..\lvgl\version_6.1.2\lvgl\src\lv_objx/lv_chart.c ****  *      MACROS
  73:..\..\..\lvgl\version_6.1.2\lvgl\src\lv_objx/lv_chart.c ****  **********************/
  74:..\..\..\lvgl\version_6.1.2\lvgl\src\lv_objx/lv_chart.c **** 
  75:..\..\..\lvgl\version_6.1.2\lvgl\src\lv_objx/lv_chart.c **** /**********************
  76:..\..\..\lvgl\version_6.1.2\lvgl\src\lv_objx/lv_chart.c ****  *   GLOBAL FUNCTIONS
  77:..\..\..\lvgl\version_6.1.2\lvgl\src\lv_objx/lv_chart.c ****  **********************/
  78:..\..\..\lvgl\version_6.1.2\lvgl\src\lv_objx/lv_chart.c **** 
  79:..\..\..\lvgl\version_6.1.2\lvgl\src\lv_objx/lv_chart.c **** /**
  80:..\..\..\lvgl\version_6.1.2\lvgl\src\lv_objx/lv_chart.c ****  * Create a chart background objects
  81:..\..\..\lvgl\version_6.1.2\lvgl\src\lv_objx/lv_chart.c ****  * @param par pointer to an object, it will be the parent of the new chart background
  82:..\..\..\lvgl\version_6.1.2\lvgl\src\lv_objx/lv_chart.c ****  * @param copy pointer to a chart background object, if not NULL then the new object will be copied
  83:..\..\..\lvgl\version_6.1.2\lvgl\src\lv_objx/lv_chart.c ****  * from it
  84:..\..\..\lvgl\version_6.1.2\lvgl\src\lv_objx/lv_chart.c ****  * @return pointer to the created chart background
  85:..\..\..\lvgl\version_6.1.2\lvgl\src\lv_objx/lv_chart.c ****  */
  86:..\..\..\lvgl\version_6.1.2\lvgl\src\lv_objx/lv_chart.c **** lv_obj_t * lv_chart_create(lv_obj_t * par, const lv_obj_t * copy)
  87:..\..\..\lvgl\version_6.1.2\lvgl\src\lv_objx/lv_chart.c **** {
 178              		.loc 3 87 0
 179              		.cfi_startproc
 180              		@ args = 0, pretend = 0, frame = 24
 181              		@ frame_needed = 1, uses_anonymous_args = 0
 182 0000 80B5     		push	{r7, lr}
 183              		.cfi_def_cfa_offset 8
 184              		.cfi_offset 7, -8
 185              		.cfi_offset 14, -4
 186 0002 86B0     		sub	sp, sp, #24
 187              		.cfi_def_cfa_offset 32
 188 0004 00AF     		add	r7, sp, #0
 189              		.cfi_def_cfa_register 7
 190 0006 7860     		str	r0, [r7, #4]
ARM GAS  C:\Users\tmj32\AppData\Local\Temp\ccrrExWC.s 			page 18


 191 0008 3960     		str	r1, [r7]
  88:..\..\..\lvgl\version_6.1.2\lvgl\src\lv_objx/lv_chart.c ****     LV_LOG_TRACE("chart create started");
  89:..\..\..\lvgl\version_6.1.2\lvgl\src\lv_objx/lv_chart.c **** 
  90:..\..\..\lvgl\version_6.1.2\lvgl\src\lv_objx/lv_chart.c ****     /*Create the ancestor basic object*/
  91:..\..\..\lvgl\version_6.1.2\lvgl\src\lv_objx/lv_chart.c ****     lv_obj_t * new_chart = lv_obj_create(par, copy);
 192              		.loc 3 91 0
 193 000a 3968     		ldr	r1, [r7]
 194 000c 7868     		ldr	r0, [r7, #4]
 195 000e FFF7FEFF 		bl	lv_obj_create
 196 0012 7861     		str	r0, [r7, #20]
  92:..\..\..\lvgl\version_6.1.2\lvgl\src\lv_objx/lv_chart.c ****     LV_ASSERT_MEM(new_chart);
  93:..\..\..\lvgl\version_6.1.2\lvgl\src\lv_objx/lv_chart.c ****     if(new_chart == NULL) return NULL;
 197              		.loc 3 93 0
 198 0014 7B69     		ldr	r3, [r7, #20]
 199 0016 002B     		cmp	r3, #0
 200 0018 01D1     		bne	.L5
 201              		.loc 3 93 0 is_stmt 0 discriminator 1
 202 001a 0023     		movs	r3, #0
 203 001c E6E0     		b	.L6
 204              	.L5:
  94:..\..\..\lvgl\version_6.1.2\lvgl\src\lv_objx/lv_chart.c **** 
  95:..\..\..\lvgl\version_6.1.2\lvgl\src\lv_objx/lv_chart.c ****     /*Allocate the object type specific extended data*/
  96:..\..\..\lvgl\version_6.1.2\lvgl\src\lv_objx/lv_chart.c ****     lv_chart_ext_t * ext = lv_obj_allocate_ext_attr(new_chart, sizeof(lv_chart_ext_t));
 205              		.loc 3 96 0 is_stmt 1
 206 001e 3C21     		movs	r1, #60
 207 0020 7869     		ldr	r0, [r7, #20]
 208 0022 FFF7FEFF 		bl	lv_obj_allocate_ext_attr
 209 0026 3861     		str	r0, [r7, #16]
  97:..\..\..\lvgl\version_6.1.2\lvgl\src\lv_objx/lv_chart.c ****     LV_ASSERT_MEM(ext);
  98:..\..\..\lvgl\version_6.1.2\lvgl\src\lv_objx/lv_chart.c ****     if(ext == NULL) return NULL;
 210              		.loc 3 98 0
 211 0028 3B69     		ldr	r3, [r7, #16]
 212 002a 002B     		cmp	r3, #0
 213 002c 01D1     		bne	.L7
 214              		.loc 3 98 0 is_stmt 0 discriminator 1
 215 002e 0023     		movs	r3, #0
 216 0030 DCE0     		b	.L6
 217              	.L7:
  99:..\..\..\lvgl\version_6.1.2\lvgl\src\lv_objx/lv_chart.c **** 
 100:..\..\..\lvgl\version_6.1.2\lvgl\src\lv_objx/lv_chart.c ****     lv_ll_init(&ext->series_ll, sizeof(lv_chart_series_t));
 218              		.loc 3 100 0 is_stmt 1
 219 0032 3B69     		ldr	r3, [r7, #16]
 220 0034 0C21     		movs	r1, #12
 221 0036 1846     		mov	r0, r3
 222 0038 FFF7FEFF 		bl	lv_ll_init
 101:..\..\..\lvgl\version_6.1.2\lvgl\src\lv_objx/lv_chart.c **** 
 102:..\..\..\lvgl\version_6.1.2\lvgl\src\lv_objx/lv_chart.c ****     ext->series.num            = 0;
 223              		.loc 3 102 0
 224 003c 3B69     		ldr	r3, [r7, #16]
 225 003e 0022     		movs	r2, #0
 226 0040 83F83620 		strb	r2, [r3, #54]
 103:..\..\..\lvgl\version_6.1.2\lvgl\src\lv_objx/lv_chart.c ****     ext->ymin                  = LV_CHART_YMIN_DEF;
 227              		.loc 3 103 0
 228 0044 3B69     		ldr	r3, [r7, #16]
 229 0046 0022     		movs	r2, #0
 230 0048 9A81     		strh	r2, [r3, #12]	@ movhi
 104:..\..\..\lvgl\version_6.1.2\lvgl\src\lv_objx/lv_chart.c ****     ext->ymax                  = LV_CHART_YMAX_DEF;
ARM GAS  C:\Users\tmj32\AppData\Local\Temp\ccrrExWC.s 			page 19


 231              		.loc 3 104 0
 232 004a 3B69     		ldr	r3, [r7, #16]
 233 004c 6422     		movs	r2, #100
 234 004e DA81     		strh	r2, [r3, #14]	@ movhi
 105:..\..\..\lvgl\version_6.1.2\lvgl\src\lv_objx/lv_chart.c ****     ext->hdiv_cnt              = LV_CHART_HDIV_DEF;
 235              		.loc 3 105 0
 236 0050 3B69     		ldr	r3, [r7, #16]
 237 0052 0322     		movs	r2, #3
 238 0054 1A74     		strb	r2, [r3, #16]
 106:..\..\..\lvgl\version_6.1.2\lvgl\src\lv_objx/lv_chart.c ****     ext->vdiv_cnt              = LV_CHART_VDIV_DEF;
 239              		.loc 3 106 0
 240 0056 3B69     		ldr	r3, [r7, #16]
 241 0058 0522     		movs	r2, #5
 242 005a 5A74     		strb	r2, [r3, #17]
 107:..\..\..\lvgl\version_6.1.2\lvgl\src\lv_objx/lv_chart.c ****     ext->point_cnt             = LV_CHART_PNUM_DEF;
 243              		.loc 3 107 0
 244 005c 3B69     		ldr	r3, [r7, #16]
 245 005e 0A22     		movs	r2, #10
 246 0060 5A82     		strh	r2, [r3, #18]	@ movhi
 108:..\..\..\lvgl\version_6.1.2\lvgl\src\lv_objx/lv_chart.c ****     ext->type                  = LV_CHART_TYPE_LINE;
 247              		.loc 3 108 0
 248 0062 3B69     		ldr	r3, [r7, #16]
 249 0064 0122     		movs	r2, #1
 250 0066 1A75     		strb	r2, [r3, #20]
 109:..\..\..\lvgl\version_6.1.2\lvgl\src\lv_objx/lv_chart.c ****     ext->update_mode           = LV_CHART_UPDATE_MODE_SHIFT;
 251              		.loc 3 109 0
 252 0068 3A69     		ldr	r2, [r7, #16]
 253 006a 92F83230 		ldrb	r3, [r2, #50]
 254 006e 6FF30003 		bfc	r3, #0, #1
 255 0072 82F83230 		strb	r3, [r2, #50]
 110:..\..\..\lvgl\version_6.1.2\lvgl\src\lv_objx/lv_chart.c ****     ext->series.opa            = LV_OPA_COVER;
 256              		.loc 3 110 0
 257 0076 3B69     		ldr	r3, [r7, #16]
 258 0078 FF22     		movs	r2, #255
 259 007a 83F83720 		strb	r2, [r3, #55]
 111:..\..\..\lvgl\version_6.1.2\lvgl\src\lv_objx/lv_chart.c ****     ext->series.dark           = LV_OPA_50;
 260              		.loc 3 111 0
 261 007e 3B69     		ldr	r3, [r7, #16]
 262 0080 7F22     		movs	r2, #127
 263 0082 83F83820 		strb	r2, [r3, #56]
 112:..\..\..\lvgl\version_6.1.2\lvgl\src\lv_objx/lv_chart.c ****     ext->series.width          = 2;
 264              		.loc 3 112 0
 265 0086 3B69     		ldr	r3, [r7, #16]
 266 0088 0222     		movs	r2, #2
 267 008a 9A86     		strh	r2, [r3, #52]	@ movhi
 113:..\..\..\lvgl\version_6.1.2\lvgl\src\lv_objx/lv_chart.c ****     ext->margin                = 0;
 268              		.loc 3 113 0
 269 008c 3B69     		ldr	r3, [r7, #16]
 270 008e 0022     		movs	r2, #0
 271 0090 1A86     		strh	r2, [r3, #48]	@ movhi
 114:..\..\..\lvgl\version_6.1.2\lvgl\src\lv_objx/lv_chart.c ****     memset(&ext->x_axis, 0, sizeof(ext->x_axis));
 272              		.loc 3 114 0
 273 0092 3B69     		ldr	r3, [r7, #16]
 274 0094 2033     		adds	r3, r3, #32
 275 0096 0822     		movs	r2, #8
 276 0098 0021     		movs	r1, #0
 277 009a 1846     		mov	r0, r3
ARM GAS  C:\Users\tmj32\AppData\Local\Temp\ccrrExWC.s 			page 20


 278 009c FFF7FEFF 		bl	memset
 115:..\..\..\lvgl\version_6.1.2\lvgl\src\lv_objx/lv_chart.c ****     memset(&ext->y_axis, 0, sizeof(ext->y_axis));
 279              		.loc 3 115 0
 280 00a0 3B69     		ldr	r3, [r7, #16]
 281 00a2 1833     		adds	r3, r3, #24
 282 00a4 0822     		movs	r2, #8
 283 00a6 0021     		movs	r1, #0
 284 00a8 1846     		mov	r0, r3
 285 00aa FFF7FEFF 		bl	memset
 116:..\..\..\lvgl\version_6.1.2\lvgl\src\lv_objx/lv_chart.c ****     memset(&ext->secondary_y_axis, 0, sizeof(ext->secondary_y_axis));
 286              		.loc 3 116 0
 287 00ae 3B69     		ldr	r3, [r7, #16]
 288 00b0 2833     		adds	r3, r3, #40
 289 00b2 0822     		movs	r2, #8
 290 00b4 0021     		movs	r1, #0
 291 00b6 1846     		mov	r0, r3
 292 00b8 FFF7FEFF 		bl	memset
 117:..\..\..\lvgl\version_6.1.2\lvgl\src\lv_objx/lv_chart.c ****     ext->x_axis.major_tick_len = LV_CHART_TICK_LENGTH_AUTO;
 293              		.loc 3 117 0
 294 00bc 3B69     		ldr	r3, [r7, #16]
 295 00be FF22     		movs	r2, #255
 296 00c0 83F82620 		strb	r2, [r3, #38]
 118:..\..\..\lvgl\version_6.1.2\lvgl\src\lv_objx/lv_chart.c ****     ext->x_axis.minor_tick_len = LV_CHART_TICK_LENGTH_AUTO;
 297              		.loc 3 118 0
 298 00c4 3B69     		ldr	r3, [r7, #16]
 299 00c6 FF22     		movs	r2, #255
 300 00c8 83F82720 		strb	r2, [r3, #39]
 119:..\..\..\lvgl\version_6.1.2\lvgl\src\lv_objx/lv_chart.c ****     ext->y_axis.major_tick_len = LV_CHART_TICK_LENGTH_AUTO;
 301              		.loc 3 119 0
 302 00cc 3B69     		ldr	r3, [r7, #16]
 303 00ce FF22     		movs	r2, #255
 304 00d0 9A77     		strb	r2, [r3, #30]
 120:..\..\..\lvgl\version_6.1.2\lvgl\src\lv_objx/lv_chart.c ****     ext->y_axis.minor_tick_len = LV_CHART_TICK_LENGTH_AUTO;
 305              		.loc 3 120 0
 306 00d2 3B69     		ldr	r3, [r7, #16]
 307 00d4 FF22     		movs	r2, #255
 308 00d6 DA77     		strb	r2, [r3, #31]
 121:..\..\..\lvgl\version_6.1.2\lvgl\src\lv_objx/lv_chart.c ****     ext->secondary_y_axis.major_tick_len = LV_CHART_TICK_LENGTH_AUTO;
 309              		.loc 3 121 0
 310 00d8 3B69     		ldr	r3, [r7, #16]
 311 00da FF22     		movs	r2, #255
 312 00dc 83F82E20 		strb	r2, [r3, #46]
 122:..\..\..\lvgl\version_6.1.2\lvgl\src\lv_objx/lv_chart.c ****     ext->secondary_y_axis.minor_tick_len = LV_CHART_TICK_LENGTH_AUTO;
 313              		.loc 3 122 0
 314 00e0 3B69     		ldr	r3, [r7, #16]
 315 00e2 FF22     		movs	r2, #255
 316 00e4 83F82F20 		strb	r2, [r3, #47]
 123:..\..\..\lvgl\version_6.1.2\lvgl\src\lv_objx/lv_chart.c **** 
 124:..\..\..\lvgl\version_6.1.2\lvgl\src\lv_objx/lv_chart.c ****     if(ancestor_design_f == NULL) ancestor_design_f = lv_obj_get_design_cb(new_chart);
 317              		.loc 3 124 0
 318 00e8 424B     		ldr	r3, .L14
 319 00ea 1B68     		ldr	r3, [r3]
 320 00ec 002B     		cmp	r3, #0
 321 00ee 05D1     		bne	.L8
 322              		.loc 3 124 0 is_stmt 0 discriminator 1
 323 00f0 7869     		ldr	r0, [r7, #20]
 324 00f2 FFF7FEFF 		bl	lv_obj_get_design_cb
ARM GAS  C:\Users\tmj32\AppData\Local\Temp\ccrrExWC.s 			page 21


 325 00f6 0246     		mov	r2, r0
 326 00f8 3E4B     		ldr	r3, .L14
 327 00fa 1A60     		str	r2, [r3]
 328              	.L8:
 125:..\..\..\lvgl\version_6.1.2\lvgl\src\lv_objx/lv_chart.c ****     if(ancestor_signal == NULL) ancestor_signal = lv_obj_get_signal_cb(new_chart);
 329              		.loc 3 125 0 is_stmt 1
 330 00fc 3E4B     		ldr	r3, .L14+4
 331 00fe 1B68     		ldr	r3, [r3]
 332 0100 002B     		cmp	r3, #0
 333 0102 05D1     		bne	.L9
 334              		.loc 3 125 0 is_stmt 0 discriminator 1
 335 0104 7869     		ldr	r0, [r7, #20]
 336 0106 FFF7FEFF 		bl	lv_obj_get_signal_cb
 337 010a 0246     		mov	r2, r0
 338 010c 3A4B     		ldr	r3, .L14+4
 339 010e 1A60     		str	r2, [r3]
 340              	.L9:
 126:..\..\..\lvgl\version_6.1.2\lvgl\src\lv_objx/lv_chart.c **** 
 127:..\..\..\lvgl\version_6.1.2\lvgl\src\lv_objx/lv_chart.c ****     lv_obj_set_signal_cb(new_chart, lv_chart_signal);
 341              		.loc 3 127 0 is_stmt 1
 342 0110 3A49     		ldr	r1, .L14+8
 343 0112 7869     		ldr	r0, [r7, #20]
 344 0114 FFF7FEFF 		bl	lv_obj_set_signal_cb
 128:..\..\..\lvgl\version_6.1.2\lvgl\src\lv_objx/lv_chart.c ****     lv_obj_set_design_cb(new_chart, lv_chart_design);
 345              		.loc 3 128 0
 346 0118 3949     		ldr	r1, .L14+12
 347 011a 7869     		ldr	r0, [r7, #20]
 348 011c FFF7FEFF 		bl	lv_obj_set_design_cb
 129:..\..\..\lvgl\version_6.1.2\lvgl\src\lv_objx/lv_chart.c **** 
 130:..\..\..\lvgl\version_6.1.2\lvgl\src\lv_objx/lv_chart.c ****     /*Init the new chart background object*/
 131:..\..\..\lvgl\version_6.1.2\lvgl\src\lv_objx/lv_chart.c ****     if(copy == NULL) {
 349              		.loc 3 131 0
 350 0120 3B68     		ldr	r3, [r7]
 351 0122 002B     		cmp	r3, #0
 352 0124 1BD1     		bne	.L10
 353              	.LBB2:
 132:..\..\..\lvgl\version_6.1.2\lvgl\src\lv_objx/lv_chart.c ****         lv_obj_set_size(new_chart, LV_DPI * 3, LV_DPI * 2);
 354              		.loc 3 132 0
 355 0126 4FF49672 		mov	r2, #300
 356 012a 4FF4E171 		mov	r1, #450
 357 012e 7869     		ldr	r0, [r7, #20]
 358 0130 FFF7FEFF 		bl	lv_obj_set_size
 133:..\..\..\lvgl\version_6.1.2\lvgl\src\lv_objx/lv_chart.c **** 
 134:..\..\..\lvgl\version_6.1.2\lvgl\src\lv_objx/lv_chart.c ****         /*Set the default styles*/
 135:..\..\..\lvgl\version_6.1.2\lvgl\src\lv_objx/lv_chart.c ****         lv_theme_t * th = lv_theme_get_current();
 359              		.loc 3 135 0
 360 0134 FFF7FEFF 		bl	lv_theme_get_current
 361 0138 F860     		str	r0, [r7, #12]
 136:..\..\..\lvgl\version_6.1.2\lvgl\src\lv_objx/lv_chart.c ****         if(th) {
 362              		.loc 3 136 0
 363 013a FB68     		ldr	r3, [r7, #12]
 364 013c 002B     		cmp	r3, #0
 365 013e 08D0     		beq	.L11
 137:..\..\..\lvgl\version_6.1.2\lvgl\src\lv_objx/lv_chart.c ****             lv_chart_set_style(new_chart, LV_CHART_STYLE_MAIN, th->style.chart);
 366              		.loc 3 137 0
 367 0140 FB68     		ldr	r3, [r7, #12]
 368 0142 D3F88830 		ldr	r3, [r3, #136]
ARM GAS  C:\Users\tmj32\AppData\Local\Temp\ccrrExWC.s 			page 22


 369 0146 1A46     		mov	r2, r3
 370 0148 0021     		movs	r1, #0
 371 014a 7869     		ldr	r0, [r7, #20]
 372 014c FFF7FEFF 		bl	lv_chart_set_style
 373 0150 4BE0     		b	.L13
 374              	.L11:
 138:..\..\..\lvgl\version_6.1.2\lvgl\src\lv_objx/lv_chart.c ****         } else {
 139:..\..\..\lvgl\version_6.1.2\lvgl\src\lv_objx/lv_chart.c ****             lv_chart_set_style(new_chart, LV_CHART_STYLE_MAIN, &lv_style_pretty);
 375              		.loc 3 139 0
 376 0152 2C4A     		ldr	r2, .L14+16
 377 0154 0021     		movs	r1, #0
 378 0156 7869     		ldr	r0, [r7, #20]
 379 0158 FFF7FEFF 		bl	lv_chart_set_style
 380 015c 45E0     		b	.L13
 381              	.L10:
 382              	.LBE2:
 383              	.LBB3:
 140:..\..\..\lvgl\version_6.1.2\lvgl\src\lv_objx/lv_chart.c ****         }
 141:..\..\..\lvgl\version_6.1.2\lvgl\src\lv_objx/lv_chart.c **** 
 142:..\..\..\lvgl\version_6.1.2\lvgl\src\lv_objx/lv_chart.c ****     } else {
 143:..\..\..\lvgl\version_6.1.2\lvgl\src\lv_objx/lv_chart.c ****         lv_chart_ext_t * ext_copy = lv_obj_get_ext_attr(copy);
 384              		.loc 3 143 0
 385 015e 3868     		ldr	r0, [r7]
 386 0160 FFF7FEFF 		bl	lv_obj_get_ext_attr
 387 0164 B860     		str	r0, [r7, #8]
 144:..\..\..\lvgl\version_6.1.2\lvgl\src\lv_objx/lv_chart.c **** 
 145:..\..\..\lvgl\version_6.1.2\lvgl\src\lv_objx/lv_chart.c ****         ext->type       = ext_copy->type;
 388              		.loc 3 145 0
 389 0166 BB68     		ldr	r3, [r7, #8]
 390 0168 1A7D     		ldrb	r2, [r3, #20]	@ zero_extendqisi2
 391 016a 3B69     		ldr	r3, [r7, #16]
 392 016c 1A75     		strb	r2, [r3, #20]
 146:..\..\..\lvgl\version_6.1.2\lvgl\src\lv_objx/lv_chart.c ****         ext->ymin       = ext_copy->ymin;
 393              		.loc 3 146 0
 394 016e BB68     		ldr	r3, [r7, #8]
 395 0170 B3F90C20 		ldrsh	r2, [r3, #12]
 396 0174 3B69     		ldr	r3, [r7, #16]
 397 0176 9A81     		strh	r2, [r3, #12]	@ movhi
 147:..\..\..\lvgl\version_6.1.2\lvgl\src\lv_objx/lv_chart.c ****         ext->ymax       = ext_copy->ymax;
 398              		.loc 3 147 0
 399 0178 BB68     		ldr	r3, [r7, #8]
 400 017a B3F90E20 		ldrsh	r2, [r3, #14]
 401 017e 3B69     		ldr	r3, [r7, #16]
 402 0180 DA81     		strh	r2, [r3, #14]	@ movhi
 148:..\..\..\lvgl\version_6.1.2\lvgl\src\lv_objx/lv_chart.c ****         ext->hdiv_cnt   = ext_copy->hdiv_cnt;
 403              		.loc 3 148 0
 404 0182 BB68     		ldr	r3, [r7, #8]
 405 0184 1A7C     		ldrb	r2, [r3, #16]	@ zero_extendqisi2
 406 0186 3B69     		ldr	r3, [r7, #16]
 407 0188 1A74     		strb	r2, [r3, #16]
 149:..\..\..\lvgl\version_6.1.2\lvgl\src\lv_objx/lv_chart.c ****         ext->vdiv_cnt   = ext_copy->vdiv_cnt;
 408              		.loc 3 149 0
 409 018a BB68     		ldr	r3, [r7, #8]
 410 018c 5A7C     		ldrb	r2, [r3, #17]	@ zero_extendqisi2
 411 018e 3B69     		ldr	r3, [r7, #16]
 412 0190 5A74     		strb	r2, [r3, #17]
 150:..\..\..\lvgl\version_6.1.2\lvgl\src\lv_objx/lv_chart.c ****         ext->point_cnt  = ext_copy->point_cnt;
ARM GAS  C:\Users\tmj32\AppData\Local\Temp\ccrrExWC.s 			page 23


 413              		.loc 3 150 0
 414 0192 BB68     		ldr	r3, [r7, #8]
 415 0194 5A8A     		ldrh	r2, [r3, #18]
 416 0196 3B69     		ldr	r3, [r7, #16]
 417 0198 5A82     		strh	r2, [r3, #18]	@ movhi
 151:..\..\..\lvgl\version_6.1.2\lvgl\src\lv_objx/lv_chart.c ****         ext->series.opa = ext_copy->series.opa;
 418              		.loc 3 151 0
 419 019a BB68     		ldr	r3, [r7, #8]
 420 019c 93F83720 		ldrb	r2, [r3, #55]	@ zero_extendqisi2
 421 01a0 3B69     		ldr	r3, [r7, #16]
 422 01a2 83F83720 		strb	r2, [r3, #55]
 152:..\..\..\lvgl\version_6.1.2\lvgl\src\lv_objx/lv_chart.c ****         ext->margin     = ext_copy->margin;
 423              		.loc 3 152 0
 424 01a6 BB68     		ldr	r3, [r7, #8]
 425 01a8 1A8E     		ldrh	r2, [r3, #48]
 426 01aa 3B69     		ldr	r3, [r7, #16]
 427 01ac 1A86     		strh	r2, [r3, #48]	@ movhi
 153:..\..\..\lvgl\version_6.1.2\lvgl\src\lv_objx/lv_chart.c ****         memcpy(&ext->x_axis, &ext_copy->x_axis, sizeof(lv_chart_axis_cfg_t));
 428              		.loc 3 153 0
 429 01ae 3B69     		ldr	r3, [r7, #16]
 430 01b0 03F12000 		add	r0, r3, #32
 431 01b4 BB68     		ldr	r3, [r7, #8]
 432 01b6 2033     		adds	r3, r3, #32
 433 01b8 0822     		movs	r2, #8
 434 01ba 1946     		mov	r1, r3
 435 01bc FFF7FEFF 		bl	memcpy
 154:..\..\..\lvgl\version_6.1.2\lvgl\src\lv_objx/lv_chart.c ****         memcpy(&ext->y_axis, &ext_copy->y_axis, sizeof(lv_chart_axis_cfg_t));
 436              		.loc 3 154 0
 437 01c0 3B69     		ldr	r3, [r7, #16]
 438 01c2 03F11800 		add	r0, r3, #24
 439 01c6 BB68     		ldr	r3, [r7, #8]
 440 01c8 1833     		adds	r3, r3, #24
 441 01ca 0822     		movs	r2, #8
 442 01cc 1946     		mov	r1, r3
 443 01ce FFF7FEFF 		bl	memcpy
 155:..\..\..\lvgl\version_6.1.2\lvgl\src\lv_objx/lv_chart.c ****         memcpy(&ext->secondary_y_axis, &ext_copy->secondary_y_axis, sizeof(lv_chart_axis_cfg_t));
 444              		.loc 3 155 0
 445 01d2 3B69     		ldr	r3, [r7, #16]
 446 01d4 03F12800 		add	r0, r3, #40
 447 01d8 BB68     		ldr	r3, [r7, #8]
 448 01da 2833     		adds	r3, r3, #40
 449 01dc 0822     		movs	r2, #8
 450 01de 1946     		mov	r1, r3
 451 01e0 FFF7FEFF 		bl	memcpy
 156:..\..\..\lvgl\version_6.1.2\lvgl\src\lv_objx/lv_chart.c **** 
 157:..\..\..\lvgl\version_6.1.2\lvgl\src\lv_objx/lv_chart.c ****         /*Refresh the style with new signal function*/
 158:..\..\..\lvgl\version_6.1.2\lvgl\src\lv_objx/lv_chart.c ****         lv_obj_refresh_style(new_chart);
 452              		.loc 3 158 0
 453 01e4 7869     		ldr	r0, [r7, #20]
 454 01e6 FFF7FEFF 		bl	lv_obj_refresh_style
 455              	.L13:
 456              	.LBE3:
 159:..\..\..\lvgl\version_6.1.2\lvgl\src\lv_objx/lv_chart.c ****     }
 160:..\..\..\lvgl\version_6.1.2\lvgl\src\lv_objx/lv_chart.c **** 
 161:..\..\..\lvgl\version_6.1.2\lvgl\src\lv_objx/lv_chart.c ****     LV_LOG_INFO("chart created");
 162:..\..\..\lvgl\version_6.1.2\lvgl\src\lv_objx/lv_chart.c **** 
 163:..\..\..\lvgl\version_6.1.2\lvgl\src\lv_objx/lv_chart.c ****     return new_chart;
ARM GAS  C:\Users\tmj32\AppData\Local\Temp\ccrrExWC.s 			page 24


 457              		.loc 3 163 0
 458 01ea 7B69     		ldr	r3, [r7, #20]
 459              	.L6:
 164:..\..\..\lvgl\version_6.1.2\lvgl\src\lv_objx/lv_chart.c **** }
 460              		.loc 3 164 0
 461 01ec 1846     		mov	r0, r3
 462 01ee 1837     		adds	r7, r7, #24
 463              		.cfi_def_cfa_offset 8
 464 01f0 BD46     		mov	sp, r7
 465              		.cfi_def_cfa_register 13
 466              		@ sp needed
 467 01f2 80BD     		pop	{r7, pc}
 468              	.L15:
 469              		.align	2
 470              	.L14:
 471 01f4 00000000 		.word	ancestor_design_f
 472 01f8 04000000 		.word	ancestor_signal
 473 01fc 00000000 		.word	lv_chart_signal
 474 0200 00000000 		.word	lv_chart_design
 475 0204 00000000 		.word	lv_style_pretty
 476              		.cfi_endproc
 477              	.LFE35:
 478              		.size	lv_chart_create, .-lv_chart_create
 479              		.section	.text.lv_chart_add_series,"ax",%progbits
 480              		.align	2
 481              		.global	lv_chart_add_series
 482              		.thumb
 483              		.thumb_func
 484              		.type	lv_chart_add_series, %function
 485              	lv_chart_add_series:
 486              	.LFB36:
 165:..\..\..\lvgl\version_6.1.2\lvgl\src\lv_objx/lv_chart.c **** 
 166:..\..\..\lvgl\version_6.1.2\lvgl\src\lv_objx/lv_chart.c **** /*======================
 167:..\..\..\lvgl\version_6.1.2\lvgl\src\lv_objx/lv_chart.c ****  * Add/remove functions
 168:..\..\..\lvgl\version_6.1.2\lvgl\src\lv_objx/lv_chart.c ****  *=====================*/
 169:..\..\..\lvgl\version_6.1.2\lvgl\src\lv_objx/lv_chart.c **** 
 170:..\..\..\lvgl\version_6.1.2\lvgl\src\lv_objx/lv_chart.c **** /**
 171:..\..\..\lvgl\version_6.1.2\lvgl\src\lv_objx/lv_chart.c ****  * Allocate and add a data series to the chart
 172:..\..\..\lvgl\version_6.1.2\lvgl\src\lv_objx/lv_chart.c ****  * @param chart pointer to a chart object
 173:..\..\..\lvgl\version_6.1.2\lvgl\src\lv_objx/lv_chart.c ****  * @param color color of the data series
 174:..\..\..\lvgl\version_6.1.2\lvgl\src\lv_objx/lv_chart.c ****  * @return pointer to the allocated data series
 175:..\..\..\lvgl\version_6.1.2\lvgl\src\lv_objx/lv_chart.c ****  */
 176:..\..\..\lvgl\version_6.1.2\lvgl\src\lv_objx/lv_chart.c **** lv_chart_series_t * lv_chart_add_series(lv_obj_t * chart, lv_color_t color)
 177:..\..\..\lvgl\version_6.1.2\lvgl\src\lv_objx/lv_chart.c **** {
 487              		.loc 3 177 0
 488              		.cfi_startproc
 489              		@ args = 0, pretend = 0, frame = 32
 490              		@ frame_needed = 1, uses_anonymous_args = 0
 491 0000 80B5     		push	{r7, lr}
 492              		.cfi_def_cfa_offset 8
 493              		.cfi_offset 7, -8
 494              		.cfi_offset 14, -4
 495 0002 88B0     		sub	sp, sp, #32
 496              		.cfi_def_cfa_offset 40
 497 0004 00AF     		add	r7, sp, #0
 498              		.cfi_def_cfa_register 7
 499 0006 7860     		str	r0, [r7, #4]
ARM GAS  C:\Users\tmj32\AppData\Local\Temp\ccrrExWC.s 			page 25


 500 0008 3960     		str	r1, [r7]
 178:..\..\..\lvgl\version_6.1.2\lvgl\src\lv_objx/lv_chart.c ****     LV_ASSERT_OBJ(chart, LV_OBJX_NAME);
 179:..\..\..\lvgl\version_6.1.2\lvgl\src\lv_objx/lv_chart.c **** 
 180:..\..\..\lvgl\version_6.1.2\lvgl\src\lv_objx/lv_chart.c ****     lv_chart_ext_t * ext    = lv_obj_get_ext_attr(chart);
 501              		.loc 3 180 0
 502 000a 7868     		ldr	r0, [r7, #4]
 503 000c FFF7FEFF 		bl	lv_obj_get_ext_attr
 504 0010 7861     		str	r0, [r7, #20]
 181:..\..\..\lvgl\version_6.1.2\lvgl\src\lv_objx/lv_chart.c ****     lv_chart_series_t * ser = lv_ll_ins_head(&ext->series_ll);
 505              		.loc 3 181 0
 506 0012 7B69     		ldr	r3, [r7, #20]
 507 0014 1846     		mov	r0, r3
 508 0016 FFF7FEFF 		bl	lv_ll_ins_head
 509 001a 3861     		str	r0, [r7, #16]
 182:..\..\..\lvgl\version_6.1.2\lvgl\src\lv_objx/lv_chart.c ****     LV_ASSERT_MEM(ser);
 183:..\..\..\lvgl\version_6.1.2\lvgl\src\lv_objx/lv_chart.c ****     if(ser == NULL) return NULL;
 510              		.loc 3 183 0
 511 001c 3B69     		ldr	r3, [r7, #16]
 512 001e 002B     		cmp	r3, #0
 513 0020 01D1     		bne	.L17
 514              		.loc 3 183 0 is_stmt 0 discriminator 1
 515 0022 0023     		movs	r3, #0
 516 0024 41E0     		b	.L18
 517              	.L17:
 184:..\..\..\lvgl\version_6.1.2\lvgl\src\lv_objx/lv_chart.c **** 
 185:..\..\..\lvgl\version_6.1.2\lvgl\src\lv_objx/lv_chart.c ****     lv_coord_t def = LV_CHART_POINT_DEF;
 518              		.loc 3 185 0 is_stmt 1
 519 0026 48F2E833 		movw	r3, #33768
 520 002a FB81     		strh	r3, [r7, #14]	@ movhi
 186:..\..\..\lvgl\version_6.1.2\lvgl\src\lv_objx/lv_chart.c **** 
 187:..\..\..\lvgl\version_6.1.2\lvgl\src\lv_objx/lv_chart.c ****     if(ser == NULL) return NULL;
 521              		.loc 3 187 0
 522 002c 3B69     		ldr	r3, [r7, #16]
 523 002e 002B     		cmp	r3, #0
 524 0030 01D1     		bne	.L19
 525              		.loc 3 187 0 is_stmt 0 discriminator 1
 526 0032 0023     		movs	r3, #0
 527 0034 39E0     		b	.L18
 528              	.L19:
 188:..\..\..\lvgl\version_6.1.2\lvgl\src\lv_objx/lv_chart.c **** 
 189:..\..\..\lvgl\version_6.1.2\lvgl\src\lv_objx/lv_chart.c ****     ser->color  = color;
 529              		.loc 3 189 0 is_stmt 1
 530 0036 3B69     		ldr	r3, [r7, #16]
 531 0038 3A68     		ldr	r2, [r7]
 532 003a 5A60     		str	r2, [r3, #4]
 190:..\..\..\lvgl\version_6.1.2\lvgl\src\lv_objx/lv_chart.c ****     ser->points = lv_mem_alloc(sizeof(lv_coord_t) * ext->point_cnt);
 533              		.loc 3 190 0
 534 003c 7B69     		ldr	r3, [r7, #20]
 535 003e 5B8A     		ldrh	r3, [r3, #18]
 536 0040 5B00     		lsls	r3, r3, #1
 537 0042 1846     		mov	r0, r3
 538 0044 FFF7FEFF 		bl	lv_mem_alloc
 539 0048 0246     		mov	r2, r0
 540 004a 3B69     		ldr	r3, [r7, #16]
 541 004c 1A60     		str	r2, [r3]
 191:..\..\..\lvgl\version_6.1.2\lvgl\src\lv_objx/lv_chart.c ****     LV_ASSERT_MEM(ser->points);
 192:..\..\..\lvgl\version_6.1.2\lvgl\src\lv_objx/lv_chart.c ****     if(ser->points == NULL) {
ARM GAS  C:\Users\tmj32\AppData\Local\Temp\ccrrExWC.s 			page 26


 542              		.loc 3 192 0
 543 004e 3B69     		ldr	r3, [r7, #16]
 544 0050 1B68     		ldr	r3, [r3]
 545 0052 002B     		cmp	r3, #0
 546 0054 09D1     		bne	.L20
 193:..\..\..\lvgl\version_6.1.2\lvgl\src\lv_objx/lv_chart.c ****         lv_ll_rem(&ext->series_ll, ser);
 547              		.loc 3 193 0
 548 0056 7B69     		ldr	r3, [r7, #20]
 549 0058 3969     		ldr	r1, [r7, #16]
 550 005a 1846     		mov	r0, r3
 551 005c FFF7FEFF 		bl	lv_ll_rem
 194:..\..\..\lvgl\version_6.1.2\lvgl\src\lv_objx/lv_chart.c ****         lv_mem_free(ser);
 552              		.loc 3 194 0
 553 0060 3869     		ldr	r0, [r7, #16]
 554 0062 FFF7FEFF 		bl	lv_mem_free
 195:..\..\..\lvgl\version_6.1.2\lvgl\src\lv_objx/lv_chart.c ****         return NULL;
 555              		.loc 3 195 0
 556 0066 0023     		movs	r3, #0
 557 0068 1FE0     		b	.L18
 558              	.L20:
 196:..\..\..\lvgl\version_6.1.2\lvgl\src\lv_objx/lv_chart.c ****     }
 197:..\..\..\lvgl\version_6.1.2\lvgl\src\lv_objx/lv_chart.c **** 
 198:..\..\..\lvgl\version_6.1.2\lvgl\src\lv_objx/lv_chart.c ****     ser->start_point = 0;
 559              		.loc 3 198 0
 560 006a 3B69     		ldr	r3, [r7, #16]
 561 006c 0022     		movs	r2, #0
 562 006e 1A81     		strh	r2, [r3, #8]	@ movhi
 199:..\..\..\lvgl\version_6.1.2\lvgl\src\lv_objx/lv_chart.c **** 
 200:..\..\..\lvgl\version_6.1.2\lvgl\src\lv_objx/lv_chart.c ****     uint16_t i;
 201:..\..\..\lvgl\version_6.1.2\lvgl\src\lv_objx/lv_chart.c ****     lv_coord_t * p_tmp = ser->points;
 563              		.loc 3 201 0
 564 0070 3B69     		ldr	r3, [r7, #16]
 565 0072 1B68     		ldr	r3, [r3]
 566 0074 BB61     		str	r3, [r7, #24]
 202:..\..\..\lvgl\version_6.1.2\lvgl\src\lv_objx/lv_chart.c ****     for(i = 0; i < ext->point_cnt; i++) {
 567              		.loc 3 202 0
 568 0076 0023     		movs	r3, #0
 569 0078 FB83     		strh	r3, [r7, #30]	@ movhi
 570 007a 08E0     		b	.L21
 571              	.L22:
 203:..\..\..\lvgl\version_6.1.2\lvgl\src\lv_objx/lv_chart.c ****         *p_tmp = def;
 572              		.loc 3 203 0 discriminator 3
 573 007c BB69     		ldr	r3, [r7, #24]
 574 007e FA89     		ldrh	r2, [r7, #14]	@ movhi
 575 0080 1A80     		strh	r2, [r3]	@ movhi
 204:..\..\..\lvgl\version_6.1.2\lvgl\src\lv_objx/lv_chart.c ****         p_tmp++;
 576              		.loc 3 204 0 discriminator 3
 577 0082 BB69     		ldr	r3, [r7, #24]
 578 0084 0233     		adds	r3, r3, #2
 579 0086 BB61     		str	r3, [r7, #24]
 202:..\..\..\lvgl\version_6.1.2\lvgl\src\lv_objx/lv_chart.c ****     for(i = 0; i < ext->point_cnt; i++) {
 580              		.loc 3 202 0 discriminator 3
 581 0088 FB8B     		ldrh	r3, [r7, #30]
 582 008a 0133     		adds	r3, r3, #1
 583 008c FB83     		strh	r3, [r7, #30]	@ movhi
 584              	.L21:
 202:..\..\..\lvgl\version_6.1.2\lvgl\src\lv_objx/lv_chart.c ****     for(i = 0; i < ext->point_cnt; i++) {
ARM GAS  C:\Users\tmj32\AppData\Local\Temp\ccrrExWC.s 			page 27


 585              		.loc 3 202 0 is_stmt 0 discriminator 1
 586 008e 7B69     		ldr	r3, [r7, #20]
 587 0090 5B8A     		ldrh	r3, [r3, #18]
 588 0092 FA8B     		ldrh	r2, [r7, #30]
 589 0094 9A42     		cmp	r2, r3
 590 0096 F1D3     		bcc	.L22
 205:..\..\..\lvgl\version_6.1.2\lvgl\src\lv_objx/lv_chart.c ****     }
 206:..\..\..\lvgl\version_6.1.2\lvgl\src\lv_objx/lv_chart.c **** 
 207:..\..\..\lvgl\version_6.1.2\lvgl\src\lv_objx/lv_chart.c ****     ext->series.num++;
 591              		.loc 3 207 0 is_stmt 1
 592 0098 7B69     		ldr	r3, [r7, #20]
 593 009a 93F83630 		ldrb	r3, [r3, #54]	@ zero_extendqisi2
 594 009e 0133     		adds	r3, r3, #1
 595 00a0 DAB2     		uxtb	r2, r3
 596 00a2 7B69     		ldr	r3, [r7, #20]
 597 00a4 83F83620 		strb	r2, [r3, #54]
 208:..\..\..\lvgl\version_6.1.2\lvgl\src\lv_objx/lv_chart.c **** 
 209:..\..\..\lvgl\version_6.1.2\lvgl\src\lv_objx/lv_chart.c ****     return ser;
 598              		.loc 3 209 0
 599 00a8 3B69     		ldr	r3, [r7, #16]
 600              	.L18:
 210:..\..\..\lvgl\version_6.1.2\lvgl\src\lv_objx/lv_chart.c **** }
 601              		.loc 3 210 0
 602 00aa 1846     		mov	r0, r3
 603 00ac 2037     		adds	r7, r7, #32
 604              		.cfi_def_cfa_offset 8
 605 00ae BD46     		mov	sp, r7
 606              		.cfi_def_cfa_register 13
 607              		@ sp needed
 608 00b0 80BD     		pop	{r7, pc}
 609              		.cfi_endproc
 610              	.LFE36:
 611              		.size	lv_chart_add_series, .-lv_chart_add_series
 612 00b2 00BF     		.section	.text.lv_chart_clear_serie,"ax",%progbits
 613              		.align	2
 614              		.global	lv_chart_clear_serie
 615              		.thumb
 616              		.thumb_func
 617              		.type	lv_chart_clear_serie, %function
 618              	lv_chart_clear_serie:
 619              	.LFB37:
 211:..\..\..\lvgl\version_6.1.2\lvgl\src\lv_objx/lv_chart.c **** 
 212:..\..\..\lvgl\version_6.1.2\lvgl\src\lv_objx/lv_chart.c **** /**
 213:..\..\..\lvgl\version_6.1.2\lvgl\src\lv_objx/lv_chart.c ****  * Clear the point of a serie
 214:..\..\..\lvgl\version_6.1.2\lvgl\src\lv_objx/lv_chart.c ****  * @param chart pointer to a chart object
 215:..\..\..\lvgl\version_6.1.2\lvgl\src\lv_objx/lv_chart.c ****  * @param serie pointer to the chart's serie to clear
 216:..\..\..\lvgl\version_6.1.2\lvgl\src\lv_objx/lv_chart.c ****  */
 217:..\..\..\lvgl\version_6.1.2\lvgl\src\lv_objx/lv_chart.c **** void lv_chart_clear_serie(lv_obj_t * chart, lv_chart_series_t * serie)
 218:..\..\..\lvgl\version_6.1.2\lvgl\src\lv_objx/lv_chart.c **** {
 620              		.loc 3 218 0
 621              		.cfi_startproc
 622              		@ args = 0, pretend = 0, frame = 16
 623              		@ frame_needed = 1, uses_anonymous_args = 0
 624 0000 80B5     		push	{r7, lr}
 625              		.cfi_def_cfa_offset 8
 626              		.cfi_offset 7, -8
 627              		.cfi_offset 14, -4
ARM GAS  C:\Users\tmj32\AppData\Local\Temp\ccrrExWC.s 			page 28


 628 0002 84B0     		sub	sp, sp, #16
 629              		.cfi_def_cfa_offset 24
 630 0004 00AF     		add	r7, sp, #0
 631              		.cfi_def_cfa_register 7
 632 0006 7860     		str	r0, [r7, #4]
 633 0008 3960     		str	r1, [r7]
 219:..\..\..\lvgl\version_6.1.2\lvgl\src\lv_objx/lv_chart.c ****     LV_ASSERT_OBJ(chart, LV_OBJX_NAME);
 220:..\..\..\lvgl\version_6.1.2\lvgl\src\lv_objx/lv_chart.c ****     LV_ASSERT_NULL(serie);
 221:..\..\..\lvgl\version_6.1.2\lvgl\src\lv_objx/lv_chart.c **** 
 222:..\..\..\lvgl\version_6.1.2\lvgl\src\lv_objx/lv_chart.c ****     if(chart == NULL || serie == NULL) return;
 634              		.loc 3 222 0
 635 000a 7B68     		ldr	r3, [r7, #4]
 636 000c 002B     		cmp	r3, #0
 637 000e 21D0     		beq	.L30
 638              		.loc 3 222 0 is_stmt 0 discriminator 1
 639 0010 3B68     		ldr	r3, [r7]
 640 0012 002B     		cmp	r3, #0
 641 0014 1ED0     		beq	.L30
 223:..\..\..\lvgl\version_6.1.2\lvgl\src\lv_objx/lv_chart.c ****     lv_chart_ext_t * ext = lv_obj_get_ext_attr(chart);
 642              		.loc 3 223 0 is_stmt 1
 643 0016 7868     		ldr	r0, [r7, #4]
 644 0018 FFF7FEFF 		bl	lv_obj_get_ext_attr
 645 001c B860     		str	r0, [r7, #8]
 224:..\..\..\lvgl\version_6.1.2\lvgl\src\lv_objx/lv_chart.c ****     if(ext == NULL) return;
 646              		.loc 3 224 0
 647 001e BB68     		ldr	r3, [r7, #8]
 648 0020 002B     		cmp	r3, #0
 649 0022 19D0     		beq	.L31
 225:..\..\..\lvgl\version_6.1.2\lvgl\src\lv_objx/lv_chart.c **** 
 226:..\..\..\lvgl\version_6.1.2\lvgl\src\lv_objx/lv_chart.c ****     uint32_t i;
 227:..\..\..\lvgl\version_6.1.2\lvgl\src\lv_objx/lv_chart.c ****     for(i = 0; i < ext->point_cnt; i++) {
 650              		.loc 3 227 0
 651 0024 0023     		movs	r3, #0
 652 0026 FB60     		str	r3, [r7, #12]
 653 0028 0AE0     		b	.L28
 654              	.L29:
 228:..\..\..\lvgl\version_6.1.2\lvgl\src\lv_objx/lv_chart.c ****         serie->points[i] = LV_CHART_POINT_DEF;
 655              		.loc 3 228 0 discriminator 3
 656 002a 3B68     		ldr	r3, [r7]
 657 002c 1A68     		ldr	r2, [r3]
 658 002e FB68     		ldr	r3, [r7, #12]
 659 0030 5B00     		lsls	r3, r3, #1
 660 0032 1344     		add	r3, r3, r2
 661 0034 48F2E832 		movw	r2, #33768
 662 0038 1A80     		strh	r2, [r3]	@ movhi
 227:..\..\..\lvgl\version_6.1.2\lvgl\src\lv_objx/lv_chart.c ****         serie->points[i] = LV_CHART_POINT_DEF;
 663              		.loc 3 227 0 discriminator 3
 664 003a FB68     		ldr	r3, [r7, #12]
 665 003c 0133     		adds	r3, r3, #1
 666 003e FB60     		str	r3, [r7, #12]
 667              	.L28:
 227:..\..\..\lvgl\version_6.1.2\lvgl\src\lv_objx/lv_chart.c ****         serie->points[i] = LV_CHART_POINT_DEF;
 668              		.loc 3 227 0 is_stmt 0 discriminator 1
 669 0040 BB68     		ldr	r3, [r7, #8]
 670 0042 5B8A     		ldrh	r3, [r3, #18]
 671 0044 1A46     		mov	r2, r3
 672 0046 FB68     		ldr	r3, [r7, #12]
ARM GAS  C:\Users\tmj32\AppData\Local\Temp\ccrrExWC.s 			page 29


 673 0048 9A42     		cmp	r2, r3
 674 004a EED8     		bhi	.L29
 229:..\..\..\lvgl\version_6.1.2\lvgl\src\lv_objx/lv_chart.c ****     }
 230:..\..\..\lvgl\version_6.1.2\lvgl\src\lv_objx/lv_chart.c **** 
 231:..\..\..\lvgl\version_6.1.2\lvgl\src\lv_objx/lv_chart.c ****     serie->start_point = 0;
 675              		.loc 3 231 0 is_stmt 1
 676 004c 3B68     		ldr	r3, [r7]
 677 004e 0022     		movs	r2, #0
 678 0050 1A81     		strh	r2, [r3, #8]	@ movhi
 679 0052 02E0     		b	.L23
 680              	.L30:
 222:..\..\..\lvgl\version_6.1.2\lvgl\src\lv_objx/lv_chart.c ****     lv_chart_ext_t * ext = lv_obj_get_ext_attr(chart);
 681              		.loc 3 222 0
 682 0054 00BF     		nop
 683 0056 00E0     		b	.L23
 684              	.L31:
 224:..\..\..\lvgl\version_6.1.2\lvgl\src\lv_objx/lv_chart.c **** 
 685              		.loc 3 224 0
 686 0058 00BF     		nop
 687              	.L23:
 232:..\..\..\lvgl\version_6.1.2\lvgl\src\lv_objx/lv_chart.c **** }
 688              		.loc 3 232 0
 689 005a 1037     		adds	r7, r7, #16
 690              		.cfi_def_cfa_offset 8
 691 005c BD46     		mov	sp, r7
 692              		.cfi_def_cfa_register 13
 693              		@ sp needed
 694 005e 80BD     		pop	{r7, pc}
 695              		.cfi_endproc
 696              	.LFE37:
 697              		.size	lv_chart_clear_serie, .-lv_chart_clear_serie
 698              		.section	.text.lv_chart_set_div_line_count,"ax",%progbits
 699              		.align	2
 700              		.global	lv_chart_set_div_line_count
 701              		.thumb
 702              		.thumb_func
 703              		.type	lv_chart_set_div_line_count, %function
 704              	lv_chart_set_div_line_count:
 705              	.LFB38:
 233:..\..\..\lvgl\version_6.1.2\lvgl\src\lv_objx/lv_chart.c **** 
 234:..\..\..\lvgl\version_6.1.2\lvgl\src\lv_objx/lv_chart.c **** /*=====================
 235:..\..\..\lvgl\version_6.1.2\lvgl\src\lv_objx/lv_chart.c ****  * Setter functions
 236:..\..\..\lvgl\version_6.1.2\lvgl\src\lv_objx/lv_chart.c ****  *====================*/
 237:..\..\..\lvgl\version_6.1.2\lvgl\src\lv_objx/lv_chart.c **** 
 238:..\..\..\lvgl\version_6.1.2\lvgl\src\lv_objx/lv_chart.c **** /**
 239:..\..\..\lvgl\version_6.1.2\lvgl\src\lv_objx/lv_chart.c ****  * Set the number of horizontal and vertical division lines
 240:..\..\..\lvgl\version_6.1.2\lvgl\src\lv_objx/lv_chart.c ****  * @param chart pointer to a graph background object
 241:..\..\..\lvgl\version_6.1.2\lvgl\src\lv_objx/lv_chart.c ****  * @param hdiv number of horizontal division lines
 242:..\..\..\lvgl\version_6.1.2\lvgl\src\lv_objx/lv_chart.c ****  * @param vdiv number of vertical division lines
 243:..\..\..\lvgl\version_6.1.2\lvgl\src\lv_objx/lv_chart.c ****  */
 244:..\..\..\lvgl\version_6.1.2\lvgl\src\lv_objx/lv_chart.c **** void lv_chart_set_div_line_count(lv_obj_t * chart, uint8_t hdiv, uint8_t vdiv)
 245:..\..\..\lvgl\version_6.1.2\lvgl\src\lv_objx/lv_chart.c **** {
 706              		.loc 3 245 0
 707              		.cfi_startproc
 708              		@ args = 0, pretend = 0, frame = 16
 709              		@ frame_needed = 1, uses_anonymous_args = 0
 710 0000 80B5     		push	{r7, lr}
ARM GAS  C:\Users\tmj32\AppData\Local\Temp\ccrrExWC.s 			page 30


 711              		.cfi_def_cfa_offset 8
 712              		.cfi_offset 7, -8
 713              		.cfi_offset 14, -4
 714 0002 84B0     		sub	sp, sp, #16
 715              		.cfi_def_cfa_offset 24
 716 0004 00AF     		add	r7, sp, #0
 717              		.cfi_def_cfa_register 7
 718 0006 7860     		str	r0, [r7, #4]
 719 0008 0B46     		mov	r3, r1
 720 000a FB70     		strb	r3, [r7, #3]
 721 000c 1346     		mov	r3, r2
 722 000e BB70     		strb	r3, [r7, #2]
 246:..\..\..\lvgl\version_6.1.2\lvgl\src\lv_objx/lv_chart.c ****     LV_ASSERT_OBJ(chart, LV_OBJX_NAME);
 247:..\..\..\lvgl\version_6.1.2\lvgl\src\lv_objx/lv_chart.c **** 
 248:..\..\..\lvgl\version_6.1.2\lvgl\src\lv_objx/lv_chart.c ****     lv_chart_ext_t * ext = lv_obj_get_ext_attr(chart);
 723              		.loc 3 248 0
 724 0010 7868     		ldr	r0, [r7, #4]
 725 0012 FFF7FEFF 		bl	lv_obj_get_ext_attr
 726 0016 F860     		str	r0, [r7, #12]
 249:..\..\..\lvgl\version_6.1.2\lvgl\src\lv_objx/lv_chart.c ****     if(ext->hdiv_cnt == hdiv && ext->vdiv_cnt == vdiv) return;
 727              		.loc 3 249 0
 728 0018 FB68     		ldr	r3, [r7, #12]
 729 001a 1B7C     		ldrb	r3, [r3, #16]	@ zero_extendqisi2
 730 001c FA78     		ldrb	r2, [r7, #3]	@ zero_extendqisi2
 731 001e 9A42     		cmp	r2, r3
 732 0020 04D1     		bne	.L33
 733              		.loc 3 249 0 is_stmt 0 discriminator 1
 734 0022 FB68     		ldr	r3, [r7, #12]
 735 0024 5B7C     		ldrb	r3, [r3, #17]	@ zero_extendqisi2
 736 0026 BA78     		ldrb	r2, [r7, #2]	@ zero_extendqisi2
 737 0028 9A42     		cmp	r2, r3
 738 002a 09D0     		beq	.L35
 739              	.L33:
 250:..\..\..\lvgl\version_6.1.2\lvgl\src\lv_objx/lv_chart.c **** 
 251:..\..\..\lvgl\version_6.1.2\lvgl\src\lv_objx/lv_chart.c ****     ext->hdiv_cnt = hdiv;
 740              		.loc 3 251 0 is_stmt 1
 741 002c FB68     		ldr	r3, [r7, #12]
 742 002e FA78     		ldrb	r2, [r7, #3]
 743 0030 1A74     		strb	r2, [r3, #16]
 252:..\..\..\lvgl\version_6.1.2\lvgl\src\lv_objx/lv_chart.c ****     ext->vdiv_cnt = vdiv;
 744              		.loc 3 252 0
 745 0032 FB68     		ldr	r3, [r7, #12]
 746 0034 BA78     		ldrb	r2, [r7, #2]
 747 0036 5A74     		strb	r2, [r3, #17]
 253:..\..\..\lvgl\version_6.1.2\lvgl\src\lv_objx/lv_chart.c **** 
 254:..\..\..\lvgl\version_6.1.2\lvgl\src\lv_objx/lv_chart.c ****     lv_obj_invalidate(chart);
 748              		.loc 3 254 0
 749 0038 7868     		ldr	r0, [r7, #4]
 750 003a FFF7FEFF 		bl	lv_obj_invalidate
 751 003e 00E0     		b	.L32
 752              	.L35:
 249:..\..\..\lvgl\version_6.1.2\lvgl\src\lv_objx/lv_chart.c **** 
 753              		.loc 3 249 0
 754 0040 00BF     		nop
 755              	.L32:
 255:..\..\..\lvgl\version_6.1.2\lvgl\src\lv_objx/lv_chart.c **** }
 756              		.loc 3 255 0
ARM GAS  C:\Users\tmj32\AppData\Local\Temp\ccrrExWC.s 			page 31


 757 0042 1037     		adds	r7, r7, #16
 758              		.cfi_def_cfa_offset 8
 759 0044 BD46     		mov	sp, r7
 760              		.cfi_def_cfa_register 13
 761              		@ sp needed
 762 0046 80BD     		pop	{r7, pc}
 763              		.cfi_endproc
 764              	.LFE38:
 765              		.size	lv_chart_set_div_line_count, .-lv_chart_set_div_line_count
 766              		.section	.text.lv_chart_set_range,"ax",%progbits
 767              		.align	2
 768              		.global	lv_chart_set_range
 769              		.thumb
 770              		.thumb_func
 771              		.type	lv_chart_set_range, %function
 772              	lv_chart_set_range:
 773              	.LFB39:
 256:..\..\..\lvgl\version_6.1.2\lvgl\src\lv_objx/lv_chart.c **** 
 257:..\..\..\lvgl\version_6.1.2\lvgl\src\lv_objx/lv_chart.c **** /**
 258:..\..\..\lvgl\version_6.1.2\lvgl\src\lv_objx/lv_chart.c ****  * Set the minimal and maximal y values
 259:..\..\..\lvgl\version_6.1.2\lvgl\src\lv_objx/lv_chart.c ****  * @param chart pointer to a graph background object
 260:..\..\..\lvgl\version_6.1.2\lvgl\src\lv_objx/lv_chart.c ****  * @param ymin y minimum value
 261:..\..\..\lvgl\version_6.1.2\lvgl\src\lv_objx/lv_chart.c ****  * @param ymax y maximum value
 262:..\..\..\lvgl\version_6.1.2\lvgl\src\lv_objx/lv_chart.c ****  */
 263:..\..\..\lvgl\version_6.1.2\lvgl\src\lv_objx/lv_chart.c **** void lv_chart_set_range(lv_obj_t * chart, lv_coord_t ymin, lv_coord_t ymax)
 264:..\..\..\lvgl\version_6.1.2\lvgl\src\lv_objx/lv_chart.c **** {
 774              		.loc 3 264 0
 775              		.cfi_startproc
 776              		@ args = 0, pretend = 0, frame = 16
 777              		@ frame_needed = 1, uses_anonymous_args = 0
 778 0000 80B5     		push	{r7, lr}
 779              		.cfi_def_cfa_offset 8
 780              		.cfi_offset 7, -8
 781              		.cfi_offset 14, -4
 782 0002 84B0     		sub	sp, sp, #16
 783              		.cfi_def_cfa_offset 24
 784 0004 00AF     		add	r7, sp, #0
 785              		.cfi_def_cfa_register 7
 786 0006 7860     		str	r0, [r7, #4]
 787 0008 0B46     		mov	r3, r1
 788 000a 7B80     		strh	r3, [r7, #2]	@ movhi
 789 000c 1346     		mov	r3, r2	@ movhi
 790 000e 3B80     		strh	r3, [r7]	@ movhi
 265:..\..\..\lvgl\version_6.1.2\lvgl\src\lv_objx/lv_chart.c ****     LV_ASSERT_OBJ(chart, LV_OBJX_NAME);
 266:..\..\..\lvgl\version_6.1.2\lvgl\src\lv_objx/lv_chart.c **** 
 267:..\..\..\lvgl\version_6.1.2\lvgl\src\lv_objx/lv_chart.c ****     lv_chart_ext_t * ext = lv_obj_get_ext_attr(chart);
 791              		.loc 3 267 0
 792 0010 7868     		ldr	r0, [r7, #4]
 793 0012 FFF7FEFF 		bl	lv_obj_get_ext_attr
 794 0016 F860     		str	r0, [r7, #12]
 268:..\..\..\lvgl\version_6.1.2\lvgl\src\lv_objx/lv_chart.c ****     if(ext->ymin == ymin && ext->ymax == ymax) return;
 795              		.loc 3 268 0
 796 0018 FB68     		ldr	r3, [r7, #12]
 797 001a B3F90C30 		ldrsh	r3, [r3, #12]
 798 001e B7F90220 		ldrsh	r2, [r7, #2]
 799 0022 9A42     		cmp	r2, r3
 800 0024 06D1     		bne	.L37
ARM GAS  C:\Users\tmj32\AppData\Local\Temp\ccrrExWC.s 			page 32


 801              		.loc 3 268 0 is_stmt 0 discriminator 1
 802 0026 FB68     		ldr	r3, [r7, #12]
 803 0028 B3F90E30 		ldrsh	r3, [r3, #14]
 804 002c B7F90020 		ldrsh	r2, [r7]
 805 0030 9A42     		cmp	r2, r3
 806 0032 09D0     		beq	.L39
 807              	.L37:
 269:..\..\..\lvgl\version_6.1.2\lvgl\src\lv_objx/lv_chart.c **** 
 270:..\..\..\lvgl\version_6.1.2\lvgl\src\lv_objx/lv_chart.c ****     ext->ymin = ymin;
 808              		.loc 3 270 0 is_stmt 1
 809 0034 FB68     		ldr	r3, [r7, #12]
 810 0036 7A88     		ldrh	r2, [r7, #2]	@ movhi
 811 0038 9A81     		strh	r2, [r3, #12]	@ movhi
 271:..\..\..\lvgl\version_6.1.2\lvgl\src\lv_objx/lv_chart.c ****     ext->ymax = ymax;
 812              		.loc 3 271 0
 813 003a FB68     		ldr	r3, [r7, #12]
 814 003c 3A88     		ldrh	r2, [r7]	@ movhi
 815 003e DA81     		strh	r2, [r3, #14]	@ movhi
 272:..\..\..\lvgl\version_6.1.2\lvgl\src\lv_objx/lv_chart.c **** 
 273:..\..\..\lvgl\version_6.1.2\lvgl\src\lv_objx/lv_chart.c ****     lv_chart_refresh(chart);
 816              		.loc 3 273 0
 817 0040 7868     		ldr	r0, [r7, #4]
 818 0042 FFF7FEFF 		bl	lv_chart_refresh
 819 0046 00E0     		b	.L36
 820              	.L39:
 268:..\..\..\lvgl\version_6.1.2\lvgl\src\lv_objx/lv_chart.c **** 
 821              		.loc 3 268 0
 822 0048 00BF     		nop
 823              	.L36:
 274:..\..\..\lvgl\version_6.1.2\lvgl\src\lv_objx/lv_chart.c **** }
 824              		.loc 3 274 0
 825 004a 1037     		adds	r7, r7, #16
 826              		.cfi_def_cfa_offset 8
 827 004c BD46     		mov	sp, r7
 828              		.cfi_def_cfa_register 13
 829              		@ sp needed
 830 004e 80BD     		pop	{r7, pc}
 831              		.cfi_endproc
 832              	.LFE39:
 833              		.size	lv_chart_set_range, .-lv_chart_set_range
 834              		.section	.text.lv_chart_set_type,"ax",%progbits
 835              		.align	2
 836              		.global	lv_chart_set_type
 837              		.thumb
 838              		.thumb_func
 839              		.type	lv_chart_set_type, %function
 840              	lv_chart_set_type:
 841              	.LFB40:
 275:..\..\..\lvgl\version_6.1.2\lvgl\src\lv_objx/lv_chart.c **** 
 276:..\..\..\lvgl\version_6.1.2\lvgl\src\lv_objx/lv_chart.c **** /**
 277:..\..\..\lvgl\version_6.1.2\lvgl\src\lv_objx/lv_chart.c ****  * Set a new type for a chart
 278:..\..\..\lvgl\version_6.1.2\lvgl\src\lv_objx/lv_chart.c ****  * @param chart pointer to a chart object
 279:..\..\..\lvgl\version_6.1.2\lvgl\src\lv_objx/lv_chart.c ****  * @param type new type of the chart (from 'lv_chart_type_t' enum)
 280:..\..\..\lvgl\version_6.1.2\lvgl\src\lv_objx/lv_chart.c ****  */
 281:..\..\..\lvgl\version_6.1.2\lvgl\src\lv_objx/lv_chart.c **** void lv_chart_set_type(lv_obj_t * chart, lv_chart_type_t type)
 282:..\..\..\lvgl\version_6.1.2\lvgl\src\lv_objx/lv_chart.c **** {
 842              		.loc 3 282 0
ARM GAS  C:\Users\tmj32\AppData\Local\Temp\ccrrExWC.s 			page 33


 843              		.cfi_startproc
 844              		@ args = 0, pretend = 0, frame = 16
 845              		@ frame_needed = 1, uses_anonymous_args = 0
 846 0000 80B5     		push	{r7, lr}
 847              		.cfi_def_cfa_offset 8
 848              		.cfi_offset 7, -8
 849              		.cfi_offset 14, -4
 850 0002 84B0     		sub	sp, sp, #16
 851              		.cfi_def_cfa_offset 24
 852 0004 00AF     		add	r7, sp, #0
 853              		.cfi_def_cfa_register 7
 854 0006 7860     		str	r0, [r7, #4]
 855 0008 0B46     		mov	r3, r1
 856 000a FB70     		strb	r3, [r7, #3]
 283:..\..\..\lvgl\version_6.1.2\lvgl\src\lv_objx/lv_chart.c ****     LV_ASSERT_OBJ(chart, LV_OBJX_NAME);
 284:..\..\..\lvgl\version_6.1.2\lvgl\src\lv_objx/lv_chart.c **** 
 285:..\..\..\lvgl\version_6.1.2\lvgl\src\lv_objx/lv_chart.c ****     lv_chart_ext_t * ext = lv_obj_get_ext_attr(chart);
 857              		.loc 3 285 0
 858 000c 7868     		ldr	r0, [r7, #4]
 859 000e FFF7FEFF 		bl	lv_obj_get_ext_attr
 860 0012 F860     		str	r0, [r7, #12]
 286:..\..\..\lvgl\version_6.1.2\lvgl\src\lv_objx/lv_chart.c ****     if(ext->type == type) return;
 861              		.loc 3 286 0
 862 0014 FB68     		ldr	r3, [r7, #12]
 863 0016 1B7D     		ldrb	r3, [r3, #20]	@ zero_extendqisi2
 864 0018 FA78     		ldrb	r2, [r7, #3]	@ zero_extendqisi2
 865 001a 9A42     		cmp	r2, r3
 866 001c 06D0     		beq	.L43
 287:..\..\..\lvgl\version_6.1.2\lvgl\src\lv_objx/lv_chart.c **** 
 288:..\..\..\lvgl\version_6.1.2\lvgl\src\lv_objx/lv_chart.c ****     ext->type = type;
 867              		.loc 3 288 0
 868 001e FB68     		ldr	r3, [r7, #12]
 869 0020 FA78     		ldrb	r2, [r7, #3]
 870 0022 1A75     		strb	r2, [r3, #20]
 289:..\..\..\lvgl\version_6.1.2\lvgl\src\lv_objx/lv_chart.c **** 
 290:..\..\..\lvgl\version_6.1.2\lvgl\src\lv_objx/lv_chart.c ****     lv_chart_refresh(chart);
 871              		.loc 3 290 0
 872 0024 7868     		ldr	r0, [r7, #4]
 873 0026 FFF7FEFF 		bl	lv_chart_refresh
 874 002a 00E0     		b	.L40
 875              	.L43:
 286:..\..\..\lvgl\version_6.1.2\lvgl\src\lv_objx/lv_chart.c **** 
 876              		.loc 3 286 0
 877 002c 00BF     		nop
 878              	.L40:
 291:..\..\..\lvgl\version_6.1.2\lvgl\src\lv_objx/lv_chart.c **** }
 879              		.loc 3 291 0
 880 002e 1037     		adds	r7, r7, #16
 881              		.cfi_def_cfa_offset 8
 882 0030 BD46     		mov	sp, r7
 883              		.cfi_def_cfa_register 13
 884              		@ sp needed
 885 0032 80BD     		pop	{r7, pc}
 886              		.cfi_endproc
 887              	.LFE40:
 888              		.size	lv_chart_set_type, .-lv_chart_set_type
 889              		.section	.text.lv_chart_set_point_count,"ax",%progbits
ARM GAS  C:\Users\tmj32\AppData\Local\Temp\ccrrExWC.s 			page 34


 890              		.align	2
 891              		.global	lv_chart_set_point_count
 892              		.thumb
 893              		.thumb_func
 894              		.type	lv_chart_set_point_count, %function
 895              	lv_chart_set_point_count:
 896              	.LFB41:
 292:..\..\..\lvgl\version_6.1.2\lvgl\src\lv_objx/lv_chart.c **** 
 293:..\..\..\lvgl\version_6.1.2\lvgl\src\lv_objx/lv_chart.c **** /**
 294:..\..\..\lvgl\version_6.1.2\lvgl\src\lv_objx/lv_chart.c ****  * Set the number of points on a data line on a chart
 295:..\..\..\lvgl\version_6.1.2\lvgl\src\lv_objx/lv_chart.c ****  * @param chart pointer r to chart object
 296:..\..\..\lvgl\version_6.1.2\lvgl\src\lv_objx/lv_chart.c ****  * @param point_cnt new number of points on the data lines
 297:..\..\..\lvgl\version_6.1.2\lvgl\src\lv_objx/lv_chart.c ****  */
 298:..\..\..\lvgl\version_6.1.2\lvgl\src\lv_objx/lv_chart.c **** void lv_chart_set_point_count(lv_obj_t * chart, uint16_t point_cnt)
 299:..\..\..\lvgl\version_6.1.2\lvgl\src\lv_objx/lv_chart.c **** {
 897              		.loc 3 299 0
 898              		.cfi_startproc
 899              		@ args = 0, pretend = 0, frame = 32
 900              		@ frame_needed = 1, uses_anonymous_args = 0
 901 0000 90B5     		push	{r4, r7, lr}
 902              		.cfi_def_cfa_offset 12
 903              		.cfi_offset 4, -12
 904              		.cfi_offset 7, -8
 905              		.cfi_offset 14, -4
 906 0002 89B0     		sub	sp, sp, #36
 907              		.cfi_def_cfa_offset 48
 908 0004 00AF     		add	r7, sp, #0
 909              		.cfi_def_cfa_register 7
 910 0006 7860     		str	r0, [r7, #4]
 911 0008 0B46     		mov	r3, r1
 912 000a 7B80     		strh	r3, [r7, #2]	@ movhi
 300:..\..\..\lvgl\version_6.1.2\lvgl\src\lv_objx/lv_chart.c ****     LV_ASSERT_OBJ(chart, LV_OBJX_NAME);
 301:..\..\..\lvgl\version_6.1.2\lvgl\src\lv_objx/lv_chart.c **** 
 302:..\..\..\lvgl\version_6.1.2\lvgl\src\lv_objx/lv_chart.c ****     lv_chart_ext_t * ext = lv_obj_get_ext_attr(chart);
 913              		.loc 3 302 0
 914 000c 7868     		ldr	r0, [r7, #4]
 915 000e FFF7FEFF 		bl	lv_obj_get_ext_attr
 916 0012 7861     		str	r0, [r7, #20]
 303:..\..\..\lvgl\version_6.1.2\lvgl\src\lv_objx/lv_chart.c ****     if(ext->point_cnt == point_cnt) return;
 917              		.loc 3 303 0
 918 0014 7B69     		ldr	r3, [r7, #20]
 919 0016 5B8A     		ldrh	r3, [r3, #18]
 920 0018 7A88     		ldrh	r2, [r7, #2]
 921 001a 9A42     		cmp	r2, r3
 922 001c 00F0B480 		beq	.L64
 304:..\..\..\lvgl\version_6.1.2\lvgl\src\lv_objx/lv_chart.c **** 
 305:..\..\..\lvgl\version_6.1.2\lvgl\src\lv_objx/lv_chart.c ****     lv_chart_series_t * ser;
 306:..\..\..\lvgl\version_6.1.2\lvgl\src\lv_objx/lv_chart.c ****     uint16_t point_cnt_old = ext->point_cnt;
 923              		.loc 3 306 0
 924 0020 7B69     		ldr	r3, [r7, #20]
 925 0022 5B8A     		ldrh	r3, [r3, #18]	@ movhi
 926 0024 7B82     		strh	r3, [r7, #18]	@ movhi
 307:..\..\..\lvgl\version_6.1.2\lvgl\src\lv_objx/lv_chart.c ****     uint16_t i;
 308:..\..\..\lvgl\version_6.1.2\lvgl\src\lv_objx/lv_chart.c ****     lv_coord_t def = LV_CHART_POINT_DEF;
 927              		.loc 3 308 0
 928 0026 48F2E833 		movw	r3, #33768
 929 002a 3B82     		strh	r3, [r7, #16]	@ movhi
ARM GAS  C:\Users\tmj32\AppData\Local\Temp\ccrrExWC.s 			page 35


 309:..\..\..\lvgl\version_6.1.2\lvgl\src\lv_objx/lv_chart.c **** 
 310:..\..\..\lvgl\version_6.1.2\lvgl\src\lv_objx/lv_chart.c ****     if(point_cnt < 1) point_cnt = 1;
 930              		.loc 3 310 0
 931 002c 7B88     		ldrh	r3, [r7, #2]
 932 002e 002B     		cmp	r3, #0
 933 0030 01D1     		bne	.L47
 934              		.loc 3 310 0 is_stmt 0 discriminator 1
 935 0032 0123     		movs	r3, #1
 936 0034 7B80     		strh	r3, [r7, #2]	@ movhi
 937              	.L47:
 311:..\..\..\lvgl\version_6.1.2\lvgl\src\lv_objx/lv_chart.c **** 
 312:..\..\..\lvgl\version_6.1.2\lvgl\src\lv_objx/lv_chart.c ****     LV_LL_READ_BACK(ext->series_ll, ser)
 938              		.loc 3 312 0 is_stmt 1
 939 0036 7B69     		ldr	r3, [r7, #20]
 940 0038 1846     		mov	r0, r3
 941 003a FFF7FEFF 		bl	lv_ll_get_tail
 942 003e F861     		str	r0, [r7, #28]
 943 0040 97E0     		b	.L48
 944              	.L63:
 313:..\..\..\lvgl\version_6.1.2\lvgl\src\lv_objx/lv_chart.c ****     {
 314:..\..\..\lvgl\version_6.1.2\lvgl\src\lv_objx/lv_chart.c ****         if(ser->start_point != 0) {
 945              		.loc 3 314 0
 946 0042 FB69     		ldr	r3, [r7, #28]
 947 0044 1B89     		ldrh	r3, [r3, #8]
 948 0046 002B     		cmp	r3, #0
 949 0048 65D0     		beq	.L49
 950              	.LBB4:
 315:..\..\..\lvgl\version_6.1.2\lvgl\src\lv_objx/lv_chart.c ****             lv_coord_t * new_points = lv_mem_alloc(sizeof(lv_coord_t) * point_cnt);
 951              		.loc 3 315 0
 952 004a 7B88     		ldrh	r3, [r7, #2]
 953 004c 5B00     		lsls	r3, r3, #1
 954 004e 1846     		mov	r0, r3
 955 0050 FFF7FEFF 		bl	lv_mem_alloc
 956 0054 F860     		str	r0, [r7, #12]
 316:..\..\..\lvgl\version_6.1.2\lvgl\src\lv_objx/lv_chart.c ****             LV_ASSERT_MEM(new_points);
 317:..\..\..\lvgl\version_6.1.2\lvgl\src\lv_objx/lv_chart.c ****             if(new_points == NULL) return;
 957              		.loc 3 317 0
 958 0056 FB68     		ldr	r3, [r7, #12]
 959 0058 002B     		cmp	r3, #0
 960 005a 00F09780 		beq	.L65
 318:..\..\..\lvgl\version_6.1.2\lvgl\src\lv_objx/lv_chart.c **** 
 319:..\..\..\lvgl\version_6.1.2\lvgl\src\lv_objx/lv_chart.c ****             if(point_cnt >= point_cnt_old) {
 961              		.loc 3 319 0
 962 005e 7A88     		ldrh	r2, [r7, #2]
 963 0060 7B8A     		ldrh	r3, [r7, #18]
 964 0062 9A42     		cmp	r2, r3
 965 0064 2FD3     		bcc	.L51
 320:..\..\..\lvgl\version_6.1.2\lvgl\src\lv_objx/lv_chart.c ****                 for(i = 0; i < point_cnt_old; i++) {
 966              		.loc 3 320 0
 967 0066 0023     		movs	r3, #0
 968 0068 7B83     		strh	r3, [r7, #26]	@ movhi
 969 006a 17E0     		b	.L52
 970              	.L53:
 321:..\..\..\lvgl\version_6.1.2\lvgl\src\lv_objx/lv_chart.c ****                     new_points[i] =
 971              		.loc 3 321 0 discriminator 3
 972 006c 7B8B     		ldrh	r3, [r7, #26]
 973 006e 5B00     		lsls	r3, r3, #1
ARM GAS  C:\Users\tmj32\AppData\Local\Temp\ccrrExWC.s 			page 36


 974 0070 FA68     		ldr	r2, [r7, #12]
 975 0072 D118     		adds	r1, r2, r3
 322:..\..\..\lvgl\version_6.1.2\lvgl\src\lv_objx/lv_chart.c ****                         ser->points[(i + ser->start_point) % point_cnt_old]; /*Copy old contents to
 976              		.loc 3 322 0 discriminator 3
 977 0074 FB69     		ldr	r3, [r7, #28]
 978 0076 1868     		ldr	r0, [r3]
 979 0078 7B8B     		ldrh	r3, [r7, #26]
 980 007a FA69     		ldr	r2, [r7, #28]
 981 007c 1289     		ldrh	r2, [r2, #8]
 982 007e 1344     		add	r3, r3, r2
 983 0080 7A8A     		ldrh	r2, [r7, #18]
 984 0082 93FBF2F4 		sdiv	r4, r3, r2
 985 0086 02FB04F2 		mul	r2, r2, r4
 986 008a 9B1A     		subs	r3, r3, r2
 987 008c 5B00     		lsls	r3, r3, #1
 988 008e 0344     		add	r3, r3, r0
 989 0090 B3F90030 		ldrsh	r3, [r3]
 321:..\..\..\lvgl\version_6.1.2\lvgl\src\lv_objx/lv_chart.c ****                     new_points[i] =
 990              		.loc 3 321 0 discriminator 3
 991 0094 0B80     		strh	r3, [r1]	@ movhi
 320:..\..\..\lvgl\version_6.1.2\lvgl\src\lv_objx/lv_chart.c ****                 for(i = 0; i < point_cnt_old; i++) {
 992              		.loc 3 320 0 discriminator 3
 993 0096 7B8B     		ldrh	r3, [r7, #26]
 994 0098 0133     		adds	r3, r3, #1
 995 009a 7B83     		strh	r3, [r7, #26]	@ movhi
 996              	.L52:
 320:..\..\..\lvgl\version_6.1.2\lvgl\src\lv_objx/lv_chart.c ****                 for(i = 0; i < point_cnt_old; i++) {
 997              		.loc 3 320 0 is_stmt 0 discriminator 1
 998 009c 7A8B     		ldrh	r2, [r7, #26]
 999 009e 7B8A     		ldrh	r3, [r7, #18]
 1000 00a0 9A42     		cmp	r2, r3
 1001 00a2 E3D3     		bcc	.L53
 323:..\..\..\lvgl\version_6.1.2\lvgl\src\lv_objx/lv_chart.c ****                 }
 324:..\..\..\lvgl\version_6.1.2\lvgl\src\lv_objx/lv_chart.c ****                 for(i = point_cnt_old; i < point_cnt; i++) {
 1002              		.loc 3 324 0 is_stmt 1
 1003 00a4 7B8A     		ldrh	r3, [r7, #18]	@ movhi
 1004 00a6 7B83     		strh	r3, [r7, #26]	@ movhi
 1005 00a8 08E0     		b	.L54
 1006              	.L55:
 325:..\..\..\lvgl\version_6.1.2\lvgl\src\lv_objx/lv_chart.c ****                     new_points[i] = def; /*Fill up the rest with default value*/
 1007              		.loc 3 325 0 discriminator 3
 1008 00aa 7B8B     		ldrh	r3, [r7, #26]
 1009 00ac 5B00     		lsls	r3, r3, #1
 1010 00ae FA68     		ldr	r2, [r7, #12]
 1011 00b0 1344     		add	r3, r3, r2
 1012 00b2 3A8A     		ldrh	r2, [r7, #16]	@ movhi
 1013 00b4 1A80     		strh	r2, [r3]	@ movhi
 324:..\..\..\lvgl\version_6.1.2\lvgl\src\lv_objx/lv_chart.c ****                     new_points[i] = def; /*Fill up the rest with default value*/
 1014              		.loc 3 324 0 discriminator 3
 1015 00b6 7B8B     		ldrh	r3, [r7, #26]
 1016 00b8 0133     		adds	r3, r3, #1
 1017 00ba 7B83     		strh	r3, [r7, #26]	@ movhi
 1018              	.L54:
 324:..\..\..\lvgl\version_6.1.2\lvgl\src\lv_objx/lv_chart.c ****                     new_points[i] = def; /*Fill up the rest with default value*/
 1019              		.loc 3 324 0 is_stmt 0 discriminator 1
 1020 00bc 7A8B     		ldrh	r2, [r7, #26]
 1021 00be 7B88     		ldrh	r3, [r7, #2]
ARM GAS  C:\Users\tmj32\AppData\Local\Temp\ccrrExWC.s 			page 37


 1022 00c0 9A42     		cmp	r2, r3
 1023 00c2 F2D3     		bcc	.L55
 1024 00c4 1EE0     		b	.L56
 1025              	.L51:
 326:..\..\..\lvgl\version_6.1.2\lvgl\src\lv_objx/lv_chart.c ****                 }
 327:..\..\..\lvgl\version_6.1.2\lvgl\src\lv_objx/lv_chart.c ****             } else {
 328:..\..\..\lvgl\version_6.1.2\lvgl\src\lv_objx/lv_chart.c ****                 for(i = 0; i < point_cnt; i++) {
 1026              		.loc 3 328 0 is_stmt 1
 1027 00c6 0023     		movs	r3, #0
 1028 00c8 7B83     		strh	r3, [r7, #26]	@ movhi
 1029 00ca 17E0     		b	.L57
 1030              	.L58:
 329:..\..\..\lvgl\version_6.1.2\lvgl\src\lv_objx/lv_chart.c ****                     new_points[i] =
 1031              		.loc 3 329 0 discriminator 3
 1032 00cc 7B8B     		ldrh	r3, [r7, #26]
 1033 00ce 5B00     		lsls	r3, r3, #1
 1034 00d0 FA68     		ldr	r2, [r7, #12]
 1035 00d2 D118     		adds	r1, r2, r3
 330:..\..\..\lvgl\version_6.1.2\lvgl\src\lv_objx/lv_chart.c ****                         ser->points[(i + ser->start_point) % point_cnt_old]; /*Copy old contents to
 1036              		.loc 3 330 0 discriminator 3
 1037 00d4 FB69     		ldr	r3, [r7, #28]
 1038 00d6 1868     		ldr	r0, [r3]
 1039 00d8 7B8B     		ldrh	r3, [r7, #26]
 1040 00da FA69     		ldr	r2, [r7, #28]
 1041 00dc 1289     		ldrh	r2, [r2, #8]
 1042 00de 1344     		add	r3, r3, r2
 1043 00e0 7A8A     		ldrh	r2, [r7, #18]
 1044 00e2 93FBF2F4 		sdiv	r4, r3, r2
 1045 00e6 02FB04F2 		mul	r2, r2, r4
 1046 00ea 9B1A     		subs	r3, r3, r2
 1047 00ec 5B00     		lsls	r3, r3, #1
 1048 00ee 0344     		add	r3, r3, r0
 1049 00f0 B3F90030 		ldrsh	r3, [r3]
 329:..\..\..\lvgl\version_6.1.2\lvgl\src\lv_objx/lv_chart.c ****                     new_points[i] =
 1050              		.loc 3 329 0 discriminator 3
 1051 00f4 0B80     		strh	r3, [r1]	@ movhi
 328:..\..\..\lvgl\version_6.1.2\lvgl\src\lv_objx/lv_chart.c ****                     new_points[i] =
 1052              		.loc 3 328 0 discriminator 3
 1053 00f6 7B8B     		ldrh	r3, [r7, #26]
 1054 00f8 0133     		adds	r3, r3, #1
 1055 00fa 7B83     		strh	r3, [r7, #26]	@ movhi
 1056              	.L57:
 328:..\..\..\lvgl\version_6.1.2\lvgl\src\lv_objx/lv_chart.c ****                     new_points[i] =
 1057              		.loc 3 328 0 is_stmt 0 discriminator 1
 1058 00fc 7A8B     		ldrh	r2, [r7, #26]
 1059 00fe 7B88     		ldrh	r3, [r7, #2]
 1060 0100 9A42     		cmp	r2, r3
 1061 0102 E3D3     		bcc	.L58
 1062              	.L56:
 331:..\..\..\lvgl\version_6.1.2\lvgl\src\lv_objx/lv_chart.c ****                 }
 332:..\..\..\lvgl\version_6.1.2\lvgl\src\lv_objx/lv_chart.c ****             }
 333:..\..\..\lvgl\version_6.1.2\lvgl\src\lv_objx/lv_chart.c **** 
 334:..\..\..\lvgl\version_6.1.2\lvgl\src\lv_objx/lv_chart.c ****             /*Switch over pointer from old to new*/
 335:..\..\..\lvgl\version_6.1.2\lvgl\src\lv_objx/lv_chart.c ****             lv_mem_free(ser->points);
 1063              		.loc 3 335 0 is_stmt 1
 1064 0104 FB69     		ldr	r3, [r7, #28]
 1065 0106 1B68     		ldr	r3, [r3]
ARM GAS  C:\Users\tmj32\AppData\Local\Temp\ccrrExWC.s 			page 38


 1066 0108 1846     		mov	r0, r3
 1067 010a FFF7FEFF 		bl	lv_mem_free
 336:..\..\..\lvgl\version_6.1.2\lvgl\src\lv_objx/lv_chart.c ****             ser->points = new_points;
 1068              		.loc 3 336 0
 1069 010e FB69     		ldr	r3, [r7, #28]
 1070 0110 FA68     		ldr	r2, [r7, #12]
 1071 0112 1A60     		str	r2, [r3]
 1072              	.LBE4:
 1073 0114 24E0     		b	.L59
 1074              	.L49:
 337:..\..\..\lvgl\version_6.1.2\lvgl\src\lv_objx/lv_chart.c ****         } else {
 338:..\..\..\lvgl\version_6.1.2\lvgl\src\lv_objx/lv_chart.c ****             ser->points = lv_mem_realloc(ser->points, sizeof(lv_coord_t) * point_cnt);
 1075              		.loc 3 338 0
 1076 0116 FB69     		ldr	r3, [r7, #28]
 1077 0118 1A68     		ldr	r2, [r3]
 1078 011a 7B88     		ldrh	r3, [r7, #2]
 1079 011c 5B00     		lsls	r3, r3, #1
 1080 011e 1946     		mov	r1, r3
 1081 0120 1046     		mov	r0, r2
 1082 0122 FFF7FEFF 		bl	lv_mem_realloc
 1083 0126 0246     		mov	r2, r0
 1084 0128 FB69     		ldr	r3, [r7, #28]
 1085 012a 1A60     		str	r2, [r3]
 339:..\..\..\lvgl\version_6.1.2\lvgl\src\lv_objx/lv_chart.c ****             LV_ASSERT_MEM(ser->points);
 340:..\..\..\lvgl\version_6.1.2\lvgl\src\lv_objx/lv_chart.c ****             if(ser->points == NULL) return;
 1086              		.loc 3 340 0
 1087 012c FB69     		ldr	r3, [r7, #28]
 1088 012e 1B68     		ldr	r3, [r3]
 1089 0130 002B     		cmp	r3, #0
 1090 0132 2DD0     		beq	.L66
 341:..\..\..\lvgl\version_6.1.2\lvgl\src\lv_objx/lv_chart.c ****             /*Initialize the new points*/
 342:..\..\..\lvgl\version_6.1.2\lvgl\src\lv_objx/lv_chart.c ****             if(point_cnt > point_cnt_old) {
 1091              		.loc 3 342 0
 1092 0134 7A88     		ldrh	r2, [r7, #2]
 1093 0136 7B8A     		ldrh	r3, [r7, #18]
 1094 0138 9A42     		cmp	r2, r3
 1095 013a 11D9     		bls	.L59
 343:..\..\..\lvgl\version_6.1.2\lvgl\src\lv_objx/lv_chart.c ****                 for(i = point_cnt_old - 1; i < point_cnt; i++) {
 1096              		.loc 3 343 0
 1097 013c 7B8A     		ldrh	r3, [r7, #18]	@ movhi
 1098 013e 013B     		subs	r3, r3, #1
 1099 0140 7B83     		strh	r3, [r7, #26]	@ movhi
 1100 0142 09E0     		b	.L61
 1101              	.L62:
 344:..\..\..\lvgl\version_6.1.2\lvgl\src\lv_objx/lv_chart.c ****                     ser->points[i] = def;
 1102              		.loc 3 344 0 discriminator 3
 1103 0144 FB69     		ldr	r3, [r7, #28]
 1104 0146 1A68     		ldr	r2, [r3]
 1105 0148 7B8B     		ldrh	r3, [r7, #26]
 1106 014a 5B00     		lsls	r3, r3, #1
 1107 014c 1344     		add	r3, r3, r2
 1108 014e 3A8A     		ldrh	r2, [r7, #16]	@ movhi
 1109 0150 1A80     		strh	r2, [r3]	@ movhi
 343:..\..\..\lvgl\version_6.1.2\lvgl\src\lv_objx/lv_chart.c ****                 for(i = point_cnt_old - 1; i < point_cnt; i++) {
 1110              		.loc 3 343 0 discriminator 3
 1111 0152 7B8B     		ldrh	r3, [r7, #26]
 1112 0154 0133     		adds	r3, r3, #1
ARM GAS  C:\Users\tmj32\AppData\Local\Temp\ccrrExWC.s 			page 39


 1113 0156 7B83     		strh	r3, [r7, #26]	@ movhi
 1114              	.L61:
 343:..\..\..\lvgl\version_6.1.2\lvgl\src\lv_objx/lv_chart.c ****                 for(i = point_cnt_old - 1; i < point_cnt; i++) {
 1115              		.loc 3 343 0 is_stmt 0 discriminator 1
 1116 0158 7A8B     		ldrh	r2, [r7, #26]
 1117 015a 7B88     		ldrh	r3, [r7, #2]
 1118 015c 9A42     		cmp	r2, r3
 1119 015e F1D3     		bcc	.L62
 1120              	.L59:
 345:..\..\..\lvgl\version_6.1.2\lvgl\src\lv_objx/lv_chart.c ****                 }
 346:..\..\..\lvgl\version_6.1.2\lvgl\src\lv_objx/lv_chart.c ****             }
 347:..\..\..\lvgl\version_6.1.2\lvgl\src\lv_objx/lv_chart.c ****         }
 348:..\..\..\lvgl\version_6.1.2\lvgl\src\lv_objx/lv_chart.c **** 
 349:..\..\..\lvgl\version_6.1.2\lvgl\src\lv_objx/lv_chart.c ****         ser->start_point = 0;
 1121              		.loc 3 349 0 is_stmt 1 discriminator 2
 1122 0160 FB69     		ldr	r3, [r7, #28]
 1123 0162 0022     		movs	r2, #0
 1124 0164 1A81     		strh	r2, [r3, #8]	@ movhi
 312:..\..\..\lvgl\version_6.1.2\lvgl\src\lv_objx/lv_chart.c ****     {
 1125              		.loc 3 312 0 discriminator 2
 1126 0166 7B69     		ldr	r3, [r7, #20]
 1127 0168 F969     		ldr	r1, [r7, #28]
 1128 016a 1846     		mov	r0, r3
 1129 016c FFF7FEFF 		bl	lv_ll_get_prev
 1130 0170 F861     		str	r0, [r7, #28]
 1131              	.L48:
 312:..\..\..\lvgl\version_6.1.2\lvgl\src\lv_objx/lv_chart.c ****     {
 1132              		.loc 3 312 0 is_stmt 0 discriminator 1
 1133 0172 FB69     		ldr	r3, [r7, #28]
 1134 0174 002B     		cmp	r3, #0
 1135 0176 7FF464AF 		bne	.L63
 350:..\..\..\lvgl\version_6.1.2\lvgl\src\lv_objx/lv_chart.c ****     }
 351:..\..\..\lvgl\version_6.1.2\lvgl\src\lv_objx/lv_chart.c **** 
 352:..\..\..\lvgl\version_6.1.2\lvgl\src\lv_objx/lv_chart.c ****     ext->point_cnt = point_cnt;
 1136              		.loc 3 352 0 is_stmt 1
 1137 017a 7B69     		ldr	r3, [r7, #20]
 1138 017c 7A88     		ldrh	r2, [r7, #2]	@ movhi
 1139 017e 5A82     		strh	r2, [r3, #18]	@ movhi
 353:..\..\..\lvgl\version_6.1.2\lvgl\src\lv_objx/lv_chart.c **** 
 354:..\..\..\lvgl\version_6.1.2\lvgl\src\lv_objx/lv_chart.c ****     lv_chart_refresh(chart);
 1140              		.loc 3 354 0
 1141 0180 7868     		ldr	r0, [r7, #4]
 1142 0182 FFF7FEFF 		bl	lv_chart_refresh
 1143 0186 04E0     		b	.L44
 1144              	.L64:
 303:..\..\..\lvgl\version_6.1.2\lvgl\src\lv_objx/lv_chart.c **** 
 1145              		.loc 3 303 0
 1146 0188 00BF     		nop
 1147 018a 02E0     		b	.L44
 1148              	.L65:
 1149              	.LBB5:
 317:..\..\..\lvgl\version_6.1.2\lvgl\src\lv_objx/lv_chart.c **** 
 1150              		.loc 3 317 0
 1151 018c 00BF     		nop
 1152 018e 00E0     		b	.L44
 1153              	.L66:
 1154              	.LBE5:
ARM GAS  C:\Users\tmj32\AppData\Local\Temp\ccrrExWC.s 			page 40


 340:..\..\..\lvgl\version_6.1.2\lvgl\src\lv_objx/lv_chart.c ****             /*Initialize the new points*/
 1155              		.loc 3 340 0
 1156 0190 00BF     		nop
 1157              	.L44:
 355:..\..\..\lvgl\version_6.1.2\lvgl\src\lv_objx/lv_chart.c **** }
 1158              		.loc 3 355 0
 1159 0192 2437     		adds	r7, r7, #36
 1160              		.cfi_def_cfa_offset 12
 1161 0194 BD46     		mov	sp, r7
 1162              		.cfi_def_cfa_register 13
 1163              		@ sp needed
 1164 0196 90BD     		pop	{r4, r7, pc}
 1165              		.cfi_endproc
 1166              	.LFE41:
 1167              		.size	lv_chart_set_point_count, .-lv_chart_set_point_count
 1168              		.section	.text.lv_chart_set_series_opa,"ax",%progbits
 1169              		.align	2
 1170              		.global	lv_chart_set_series_opa
 1171              		.thumb
 1172              		.thumb_func
 1173              		.type	lv_chart_set_series_opa, %function
 1174              	lv_chart_set_series_opa:
 1175              	.LFB42:
 356:..\..\..\lvgl\version_6.1.2\lvgl\src\lv_objx/lv_chart.c **** 
 357:..\..\..\lvgl\version_6.1.2\lvgl\src\lv_objx/lv_chart.c **** /**
 358:..\..\..\lvgl\version_6.1.2\lvgl\src\lv_objx/lv_chart.c ****  * Set the opacity of the data series
 359:..\..\..\lvgl\version_6.1.2\lvgl\src\lv_objx/lv_chart.c ****  * @param chart pointer to a chart object
 360:..\..\..\lvgl\version_6.1.2\lvgl\src\lv_objx/lv_chart.c ****  * @param opa opacity of the data series
 361:..\..\..\lvgl\version_6.1.2\lvgl\src\lv_objx/lv_chart.c ****  */
 362:..\..\..\lvgl\version_6.1.2\lvgl\src\lv_objx/lv_chart.c **** void lv_chart_set_series_opa(lv_obj_t * chart, lv_opa_t opa)
 363:..\..\..\lvgl\version_6.1.2\lvgl\src\lv_objx/lv_chart.c **** {
 1176              		.loc 3 363 0
 1177              		.cfi_startproc
 1178              		@ args = 0, pretend = 0, frame = 16
 1179              		@ frame_needed = 1, uses_anonymous_args = 0
 1180 0000 80B5     		push	{r7, lr}
 1181              		.cfi_def_cfa_offset 8
 1182              		.cfi_offset 7, -8
 1183              		.cfi_offset 14, -4
 1184 0002 84B0     		sub	sp, sp, #16
 1185              		.cfi_def_cfa_offset 24
 1186 0004 00AF     		add	r7, sp, #0
 1187              		.cfi_def_cfa_register 7
 1188 0006 7860     		str	r0, [r7, #4]
 1189 0008 0B46     		mov	r3, r1
 1190 000a FB70     		strb	r3, [r7, #3]
 364:..\..\..\lvgl\version_6.1.2\lvgl\src\lv_objx/lv_chart.c ****     LV_ASSERT_OBJ(chart, LV_OBJX_NAME);
 365:..\..\..\lvgl\version_6.1.2\lvgl\src\lv_objx/lv_chart.c **** 
 366:..\..\..\lvgl\version_6.1.2\lvgl\src\lv_objx/lv_chart.c ****     lv_chart_ext_t * ext = lv_obj_get_ext_attr(chart);
 1191              		.loc 3 366 0
 1192 000c 7868     		ldr	r0, [r7, #4]
 1193 000e FFF7FEFF 		bl	lv_obj_get_ext_attr
 1194 0012 F860     		str	r0, [r7, #12]
 367:..\..\..\lvgl\version_6.1.2\lvgl\src\lv_objx/lv_chart.c ****     if(ext->series.opa == opa) return;
 1195              		.loc 3 367 0
 1196 0014 FB68     		ldr	r3, [r7, #12]
 1197 0016 93F83730 		ldrb	r3, [r3, #55]	@ zero_extendqisi2
ARM GAS  C:\Users\tmj32\AppData\Local\Temp\ccrrExWC.s 			page 41


 1198 001a FA78     		ldrb	r2, [r7, #3]	@ zero_extendqisi2
 1199 001c 9A42     		cmp	r2, r3
 1200 001e 07D0     		beq	.L70
 368:..\..\..\lvgl\version_6.1.2\lvgl\src\lv_objx/lv_chart.c **** 
 369:..\..\..\lvgl\version_6.1.2\lvgl\src\lv_objx/lv_chart.c ****     ext->series.opa = opa;
 1201              		.loc 3 369 0
 1202 0020 FB68     		ldr	r3, [r7, #12]
 1203 0022 FA78     		ldrb	r2, [r7, #3]
 1204 0024 83F83720 		strb	r2, [r3, #55]
 370:..\..\..\lvgl\version_6.1.2\lvgl\src\lv_objx/lv_chart.c ****     lv_obj_invalidate(chart);
 1205              		.loc 3 370 0
 1206 0028 7868     		ldr	r0, [r7, #4]
 1207 002a FFF7FEFF 		bl	lv_obj_invalidate
 1208 002e 00E0     		b	.L67
 1209              	.L70:
 367:..\..\..\lvgl\version_6.1.2\lvgl\src\lv_objx/lv_chart.c ****     if(ext->series.opa == opa) return;
 1210              		.loc 3 367 0
 1211 0030 00BF     		nop
 1212              	.L67:
 371:..\..\..\lvgl\version_6.1.2\lvgl\src\lv_objx/lv_chart.c **** }
 1213              		.loc 3 371 0
 1214 0032 1037     		adds	r7, r7, #16
 1215              		.cfi_def_cfa_offset 8
 1216 0034 BD46     		mov	sp, r7
 1217              		.cfi_def_cfa_register 13
 1218              		@ sp needed
 1219 0036 80BD     		pop	{r7, pc}
 1220              		.cfi_endproc
 1221              	.LFE42:
 1222              		.size	lv_chart_set_series_opa, .-lv_chart_set_series_opa
 1223              		.section	.text.lv_chart_set_series_width,"ax",%progbits
 1224              		.align	2
 1225              		.global	lv_chart_set_series_width
 1226              		.thumb
 1227              		.thumb_func
 1228              		.type	lv_chart_set_series_width, %function
 1229              	lv_chart_set_series_width:
 1230              	.LFB43:
 372:..\..\..\lvgl\version_6.1.2\lvgl\src\lv_objx/lv_chart.c **** 
 373:..\..\..\lvgl\version_6.1.2\lvgl\src\lv_objx/lv_chart.c **** /**
 374:..\..\..\lvgl\version_6.1.2\lvgl\src\lv_objx/lv_chart.c ****  * Set the line width or point radius of the data series
 375:..\..\..\lvgl\version_6.1.2\lvgl\src\lv_objx/lv_chart.c ****  * @param chart pointer to a chart object
 376:..\..\..\lvgl\version_6.1.2\lvgl\src\lv_objx/lv_chart.c ****  * @param width the new width
 377:..\..\..\lvgl\version_6.1.2\lvgl\src\lv_objx/lv_chart.c ****  */
 378:..\..\..\lvgl\version_6.1.2\lvgl\src\lv_objx/lv_chart.c **** void lv_chart_set_series_width(lv_obj_t * chart, lv_coord_t width)
 379:..\..\..\lvgl\version_6.1.2\lvgl\src\lv_objx/lv_chart.c **** {
 1231              		.loc 3 379 0
 1232              		.cfi_startproc
 1233              		@ args = 0, pretend = 0, frame = 16
 1234              		@ frame_needed = 1, uses_anonymous_args = 0
 1235 0000 80B5     		push	{r7, lr}
 1236              		.cfi_def_cfa_offset 8
 1237              		.cfi_offset 7, -8
 1238              		.cfi_offset 14, -4
 1239 0002 84B0     		sub	sp, sp, #16
 1240              		.cfi_def_cfa_offset 24
 1241 0004 00AF     		add	r7, sp, #0
ARM GAS  C:\Users\tmj32\AppData\Local\Temp\ccrrExWC.s 			page 42


 1242              		.cfi_def_cfa_register 7
 1243 0006 7860     		str	r0, [r7, #4]
 1244 0008 0B46     		mov	r3, r1
 1245 000a 7B80     		strh	r3, [r7, #2]	@ movhi
 380:..\..\..\lvgl\version_6.1.2\lvgl\src\lv_objx/lv_chart.c ****     LV_ASSERT_OBJ(chart, LV_OBJX_NAME);
 381:..\..\..\lvgl\version_6.1.2\lvgl\src\lv_objx/lv_chart.c **** 
 382:..\..\..\lvgl\version_6.1.2\lvgl\src\lv_objx/lv_chart.c ****     lv_chart_ext_t * ext = lv_obj_get_ext_attr(chart);
 1246              		.loc 3 382 0
 1247 000c 7868     		ldr	r0, [r7, #4]
 1248 000e FFF7FEFF 		bl	lv_obj_get_ext_attr
 1249 0012 F860     		str	r0, [r7, #12]
 383:..\..\..\lvgl\version_6.1.2\lvgl\src\lv_objx/lv_chart.c ****     if(ext->series.width == width) return;
 1250              		.loc 3 383 0
 1251 0014 FB68     		ldr	r3, [r7, #12]
 1252 0016 B3F93430 		ldrsh	r3, [r3, #52]
 1253 001a B7F90220 		ldrsh	r2, [r7, #2]
 1254 001e 9A42     		cmp	r2, r3
 1255 0020 06D0     		beq	.L74
 384:..\..\..\lvgl\version_6.1.2\lvgl\src\lv_objx/lv_chart.c **** 
 385:..\..\..\lvgl\version_6.1.2\lvgl\src\lv_objx/lv_chart.c ****     ext->series.width = width;
 1256              		.loc 3 385 0
 1257 0022 FB68     		ldr	r3, [r7, #12]
 1258 0024 7A88     		ldrh	r2, [r7, #2]	@ movhi
 1259 0026 9A86     		strh	r2, [r3, #52]	@ movhi
 386:..\..\..\lvgl\version_6.1.2\lvgl\src\lv_objx/lv_chart.c ****     lv_obj_invalidate(chart);
 1260              		.loc 3 386 0
 1261 0028 7868     		ldr	r0, [r7, #4]
 1262 002a FFF7FEFF 		bl	lv_obj_invalidate
 1263 002e 00E0     		b	.L71
 1264              	.L74:
 383:..\..\..\lvgl\version_6.1.2\lvgl\src\lv_objx/lv_chart.c ****     if(ext->series.width == width) return;
 1265              		.loc 3 383 0
 1266 0030 00BF     		nop
 1267              	.L71:
 387:..\..\..\lvgl\version_6.1.2\lvgl\src\lv_objx/lv_chart.c **** }
 1268              		.loc 3 387 0
 1269 0032 1037     		adds	r7, r7, #16
 1270              		.cfi_def_cfa_offset 8
 1271 0034 BD46     		mov	sp, r7
 1272              		.cfi_def_cfa_register 13
 1273              		@ sp needed
 1274 0036 80BD     		pop	{r7, pc}
 1275              		.cfi_endproc
 1276              	.LFE43:
 1277              		.size	lv_chart_set_series_width, .-lv_chart_set_series_width
 1278              		.section	.text.lv_chart_set_series_darking,"ax",%progbits
 1279              		.align	2
 1280              		.global	lv_chart_set_series_darking
 1281              		.thumb
 1282              		.thumb_func
 1283              		.type	lv_chart_set_series_darking, %function
 1284              	lv_chart_set_series_darking:
 1285              	.LFB44:
 388:..\..\..\lvgl\version_6.1.2\lvgl\src\lv_objx/lv_chart.c **** /**
 389:..\..\..\lvgl\version_6.1.2\lvgl\src\lv_objx/lv_chart.c ****  * Set the dark effect on the bottom of the points or columns
 390:..\..\..\lvgl\version_6.1.2\lvgl\src\lv_objx/lv_chart.c ****  * @param chart pointer to a chart object
 391:..\..\..\lvgl\version_6.1.2\lvgl\src\lv_objx/lv_chart.c ****  * @param dark_eff dark effect level (LV_OPA_TRANSP to turn off)
ARM GAS  C:\Users\tmj32\AppData\Local\Temp\ccrrExWC.s 			page 43


 392:..\..\..\lvgl\version_6.1.2\lvgl\src\lv_objx/lv_chart.c ****  */
 393:..\..\..\lvgl\version_6.1.2\lvgl\src\lv_objx/lv_chart.c **** void lv_chart_set_series_darking(lv_obj_t * chart, lv_opa_t dark_eff)
 394:..\..\..\lvgl\version_6.1.2\lvgl\src\lv_objx/lv_chart.c **** {
 1286              		.loc 3 394 0
 1287              		.cfi_startproc
 1288              		@ args = 0, pretend = 0, frame = 16
 1289              		@ frame_needed = 1, uses_anonymous_args = 0
 1290 0000 80B5     		push	{r7, lr}
 1291              		.cfi_def_cfa_offset 8
 1292              		.cfi_offset 7, -8
 1293              		.cfi_offset 14, -4
 1294 0002 84B0     		sub	sp, sp, #16
 1295              		.cfi_def_cfa_offset 24
 1296 0004 00AF     		add	r7, sp, #0
 1297              		.cfi_def_cfa_register 7
 1298 0006 7860     		str	r0, [r7, #4]
 1299 0008 0B46     		mov	r3, r1
 1300 000a FB70     		strb	r3, [r7, #3]
 395:..\..\..\lvgl\version_6.1.2\lvgl\src\lv_objx/lv_chart.c ****     LV_ASSERT_OBJ(chart, LV_OBJX_NAME);
 396:..\..\..\lvgl\version_6.1.2\lvgl\src\lv_objx/lv_chart.c **** 
 397:..\..\..\lvgl\version_6.1.2\lvgl\src\lv_objx/lv_chart.c ****     lv_chart_ext_t * ext = lv_obj_get_ext_attr(chart);
 1301              		.loc 3 397 0
 1302 000c 7868     		ldr	r0, [r7, #4]
 1303 000e FFF7FEFF 		bl	lv_obj_get_ext_attr
 1304 0012 F860     		str	r0, [r7, #12]
 398:..\..\..\lvgl\version_6.1.2\lvgl\src\lv_objx/lv_chart.c ****     if(ext->series.dark == dark_eff) return;
 1305              		.loc 3 398 0
 1306 0014 FB68     		ldr	r3, [r7, #12]
 1307 0016 93F83830 		ldrb	r3, [r3, #56]	@ zero_extendqisi2
 1308 001a FA78     		ldrb	r2, [r7, #3]	@ zero_extendqisi2
 1309 001c 9A42     		cmp	r2, r3
 1310 001e 07D0     		beq	.L78
 399:..\..\..\lvgl\version_6.1.2\lvgl\src\lv_objx/lv_chart.c **** 
 400:..\..\..\lvgl\version_6.1.2\lvgl\src\lv_objx/lv_chart.c ****     ext->series.dark = dark_eff;
 1311              		.loc 3 400 0
 1312 0020 FB68     		ldr	r3, [r7, #12]
 1313 0022 FA78     		ldrb	r2, [r7, #3]
 1314 0024 83F83820 		strb	r2, [r3, #56]
 401:..\..\..\lvgl\version_6.1.2\lvgl\src\lv_objx/lv_chart.c ****     lv_obj_invalidate(chart);
 1315              		.loc 3 401 0
 1316 0028 7868     		ldr	r0, [r7, #4]
 1317 002a FFF7FEFF 		bl	lv_obj_invalidate
 1318 002e 00E0     		b	.L75
 1319              	.L78:
 398:..\..\..\lvgl\version_6.1.2\lvgl\src\lv_objx/lv_chart.c ****     if(ext->series.dark == dark_eff) return;
 1320              		.loc 3 398 0
 1321 0030 00BF     		nop
 1322              	.L75:
 402:..\..\..\lvgl\version_6.1.2\lvgl\src\lv_objx/lv_chart.c **** }
 1323              		.loc 3 402 0
 1324 0032 1037     		adds	r7, r7, #16
 1325              		.cfi_def_cfa_offset 8
 1326 0034 BD46     		mov	sp, r7
 1327              		.cfi_def_cfa_register 13
 1328              		@ sp needed
 1329 0036 80BD     		pop	{r7, pc}
 1330              		.cfi_endproc
ARM GAS  C:\Users\tmj32\AppData\Local\Temp\ccrrExWC.s 			page 44


 1331              	.LFE44:
 1332              		.size	lv_chart_set_series_darking, .-lv_chart_set_series_darking
 1333              		.section	.text.lv_chart_init_points,"ax",%progbits
 1334              		.align	2
 1335              		.global	lv_chart_init_points
 1336              		.thumb
 1337              		.thumb_func
 1338              		.type	lv_chart_init_points, %function
 1339              	lv_chart_init_points:
 1340              	.LFB45:
 403:..\..\..\lvgl\version_6.1.2\lvgl\src\lv_objx/lv_chart.c **** 
 404:..\..\..\lvgl\version_6.1.2\lvgl\src\lv_objx/lv_chart.c **** /**
 405:..\..\..\lvgl\version_6.1.2\lvgl\src\lv_objx/lv_chart.c ****  * Initialize all data points with a value
 406:..\..\..\lvgl\version_6.1.2\lvgl\src\lv_objx/lv_chart.c ****  * @param chart pointer to chart object
 407:..\..\..\lvgl\version_6.1.2\lvgl\src\lv_objx/lv_chart.c ****  * @param ser pointer to a data series on 'chart'
 408:..\..\..\lvgl\version_6.1.2\lvgl\src\lv_objx/lv_chart.c ****  * @param y the new value  for all points
 409:..\..\..\lvgl\version_6.1.2\lvgl\src\lv_objx/lv_chart.c ****  */
 410:..\..\..\lvgl\version_6.1.2\lvgl\src\lv_objx/lv_chart.c **** void lv_chart_init_points(lv_obj_t * chart, lv_chart_series_t * ser, lv_coord_t y)
 411:..\..\..\lvgl\version_6.1.2\lvgl\src\lv_objx/lv_chart.c **** {
 1341              		.loc 3 411 0
 1342              		.cfi_startproc
 1343              		@ args = 0, pretend = 0, frame = 24
 1344              		@ frame_needed = 1, uses_anonymous_args = 0
 1345 0000 80B5     		push	{r7, lr}
 1346              		.cfi_def_cfa_offset 8
 1347              		.cfi_offset 7, -8
 1348              		.cfi_offset 14, -4
 1349 0002 86B0     		sub	sp, sp, #24
 1350              		.cfi_def_cfa_offset 32
 1351 0004 00AF     		add	r7, sp, #0
 1352              		.cfi_def_cfa_register 7
 1353 0006 F860     		str	r0, [r7, #12]
 1354 0008 B960     		str	r1, [r7, #8]
 1355 000a 1346     		mov	r3, r2
 1356 000c FB80     		strh	r3, [r7, #6]	@ movhi
 412:..\..\..\lvgl\version_6.1.2\lvgl\src\lv_objx/lv_chart.c ****     LV_ASSERT_OBJ(chart, LV_OBJX_NAME);
 413:..\..\..\lvgl\version_6.1.2\lvgl\src\lv_objx/lv_chart.c ****     LV_ASSERT_NULL(ser);
 414:..\..\..\lvgl\version_6.1.2\lvgl\src\lv_objx/lv_chart.c **** 
 415:..\..\..\lvgl\version_6.1.2\lvgl\src\lv_objx/lv_chart.c ****     lv_chart_ext_t * ext = lv_obj_get_ext_attr(chart);
 1357              		.loc 3 415 0
 1358 000e F868     		ldr	r0, [r7, #12]
 1359 0010 FFF7FEFF 		bl	lv_obj_get_ext_attr
 1360 0014 3861     		str	r0, [r7, #16]
 416:..\..\..\lvgl\version_6.1.2\lvgl\src\lv_objx/lv_chart.c ****     uint16_t i;
 417:..\..\..\lvgl\version_6.1.2\lvgl\src\lv_objx/lv_chart.c ****     for(i = 0; i < ext->point_cnt; i++) {
 1361              		.loc 3 417 0
 1362 0016 0023     		movs	r3, #0
 1363 0018 FB82     		strh	r3, [r7, #22]	@ movhi
 1364 001a 09E0     		b	.L80
 1365              	.L81:
 418:..\..\..\lvgl\version_6.1.2\lvgl\src\lv_objx/lv_chart.c ****         ser->points[i] = y;
 1366              		.loc 3 418 0 discriminator 3
 1367 001c BB68     		ldr	r3, [r7, #8]
 1368 001e 1A68     		ldr	r2, [r3]
 1369 0020 FB8A     		ldrh	r3, [r7, #22]
 1370 0022 5B00     		lsls	r3, r3, #1
 1371 0024 1344     		add	r3, r3, r2
ARM GAS  C:\Users\tmj32\AppData\Local\Temp\ccrrExWC.s 			page 45


 1372 0026 FA88     		ldrh	r2, [r7, #6]	@ movhi
 1373 0028 1A80     		strh	r2, [r3]	@ movhi
 417:..\..\..\lvgl\version_6.1.2\lvgl\src\lv_objx/lv_chart.c ****         ser->points[i] = y;
 1374              		.loc 3 417 0 discriminator 3
 1375 002a FB8A     		ldrh	r3, [r7, #22]
 1376 002c 0133     		adds	r3, r3, #1
 1377 002e FB82     		strh	r3, [r7, #22]	@ movhi
 1378              	.L80:
 417:..\..\..\lvgl\version_6.1.2\lvgl\src\lv_objx/lv_chart.c ****         ser->points[i] = y;
 1379              		.loc 3 417 0 is_stmt 0 discriminator 1
 1380 0030 3B69     		ldr	r3, [r7, #16]
 1381 0032 5B8A     		ldrh	r3, [r3, #18]
 1382 0034 FA8A     		ldrh	r2, [r7, #22]
 1383 0036 9A42     		cmp	r2, r3
 1384 0038 F0D3     		bcc	.L81
 419:..\..\..\lvgl\version_6.1.2\lvgl\src\lv_objx/lv_chart.c ****     }
 420:..\..\..\lvgl\version_6.1.2\lvgl\src\lv_objx/lv_chart.c ****     ser->start_point = 0;
 1385              		.loc 3 420 0 is_stmt 1
 1386 003a BB68     		ldr	r3, [r7, #8]
 1387 003c 0022     		movs	r2, #0
 1388 003e 1A81     		strh	r2, [r3, #8]	@ movhi
 421:..\..\..\lvgl\version_6.1.2\lvgl\src\lv_objx/lv_chart.c ****     lv_chart_refresh(chart);
 1389              		.loc 3 421 0
 1390 0040 F868     		ldr	r0, [r7, #12]
 1391 0042 FFF7FEFF 		bl	lv_chart_refresh
 422:..\..\..\lvgl\version_6.1.2\lvgl\src\lv_objx/lv_chart.c **** }
 1392              		.loc 3 422 0
 1393 0046 00BF     		nop
 1394 0048 1837     		adds	r7, r7, #24
 1395              		.cfi_def_cfa_offset 8
 1396 004a BD46     		mov	sp, r7
 1397              		.cfi_def_cfa_register 13
 1398              		@ sp needed
 1399 004c 80BD     		pop	{r7, pc}
 1400              		.cfi_endproc
 1401              	.LFE45:
 1402              		.size	lv_chart_init_points, .-lv_chart_init_points
 1403 004e 00BF     		.section	.text.lv_chart_set_points,"ax",%progbits
 1404              		.align	2
 1405              		.global	lv_chart_set_points
 1406              		.thumb
 1407              		.thumb_func
 1408              		.type	lv_chart_set_points, %function
 1409              	lv_chart_set_points:
 1410              	.LFB46:
 423:..\..\..\lvgl\version_6.1.2\lvgl\src\lv_objx/lv_chart.c **** 
 424:..\..\..\lvgl\version_6.1.2\lvgl\src\lv_objx/lv_chart.c **** /**
 425:..\..\..\lvgl\version_6.1.2\lvgl\src\lv_objx/lv_chart.c ****  * Set the value of points from an array
 426:..\..\..\lvgl\version_6.1.2\lvgl\src\lv_objx/lv_chart.c ****  * @param chart pointer to chart object
 427:..\..\..\lvgl\version_6.1.2\lvgl\src\lv_objx/lv_chart.c ****  * @param ser pointer to a data series on 'chart'
 428:..\..\..\lvgl\version_6.1.2\lvgl\src\lv_objx/lv_chart.c ****  * @param y_array array of 'lv_coord_t' points (with 'points count' elements )
 429:..\..\..\lvgl\version_6.1.2\lvgl\src\lv_objx/lv_chart.c ****  */
 430:..\..\..\lvgl\version_6.1.2\lvgl\src\lv_objx/lv_chart.c **** void lv_chart_set_points(lv_obj_t * chart, lv_chart_series_t * ser, lv_coord_t y_array[])
 431:..\..\..\lvgl\version_6.1.2\lvgl\src\lv_objx/lv_chart.c **** {
 1411              		.loc 3 431 0
 1412              		.cfi_startproc
 1413              		@ args = 0, pretend = 0, frame = 24
ARM GAS  C:\Users\tmj32\AppData\Local\Temp\ccrrExWC.s 			page 46


 1414              		@ frame_needed = 1, uses_anonymous_args = 0
 1415 0000 80B5     		push	{r7, lr}
 1416              		.cfi_def_cfa_offset 8
 1417              		.cfi_offset 7, -8
 1418              		.cfi_offset 14, -4
 1419 0002 86B0     		sub	sp, sp, #24
 1420              		.cfi_def_cfa_offset 32
 1421 0004 00AF     		add	r7, sp, #0
 1422              		.cfi_def_cfa_register 7
 1423 0006 F860     		str	r0, [r7, #12]
 1424 0008 B960     		str	r1, [r7, #8]
 1425 000a 7A60     		str	r2, [r7, #4]
 432:..\..\..\lvgl\version_6.1.2\lvgl\src\lv_objx/lv_chart.c ****     LV_ASSERT_OBJ(chart, LV_OBJX_NAME);
 433:..\..\..\lvgl\version_6.1.2\lvgl\src\lv_objx/lv_chart.c ****     LV_ASSERT_NULL(ser);
 434:..\..\..\lvgl\version_6.1.2\lvgl\src\lv_objx/lv_chart.c **** 
 435:..\..\..\lvgl\version_6.1.2\lvgl\src\lv_objx/lv_chart.c ****     lv_chart_ext_t * ext = lv_obj_get_ext_attr(chart);
 1426              		.loc 3 435 0
 1427 000c F868     		ldr	r0, [r7, #12]
 1428 000e FFF7FEFF 		bl	lv_obj_get_ext_attr
 1429 0012 7861     		str	r0, [r7, #20]
 436:..\..\..\lvgl\version_6.1.2\lvgl\src\lv_objx/lv_chart.c ****     memcpy(ser->points, y_array, ext->point_cnt * (sizeof(lv_coord_t)));
 1430              		.loc 3 436 0
 1431 0014 BB68     		ldr	r3, [r7, #8]
 1432 0016 1868     		ldr	r0, [r3]
 1433 0018 7B69     		ldr	r3, [r7, #20]
 1434 001a 5B8A     		ldrh	r3, [r3, #18]
 1435 001c 5B00     		lsls	r3, r3, #1
 1436 001e 1A46     		mov	r2, r3
 1437 0020 7968     		ldr	r1, [r7, #4]
 1438 0022 FFF7FEFF 		bl	memcpy
 437:..\..\..\lvgl\version_6.1.2\lvgl\src\lv_objx/lv_chart.c ****     ser->start_point = 0;
 1439              		.loc 3 437 0
 1440 0026 BB68     		ldr	r3, [r7, #8]
 1441 0028 0022     		movs	r2, #0
 1442 002a 1A81     		strh	r2, [r3, #8]	@ movhi
 438:..\..\..\lvgl\version_6.1.2\lvgl\src\lv_objx/lv_chart.c ****     lv_chart_refresh(chart);
 1443              		.loc 3 438 0
 1444 002c F868     		ldr	r0, [r7, #12]
 1445 002e FFF7FEFF 		bl	lv_chart_refresh
 439:..\..\..\lvgl\version_6.1.2\lvgl\src\lv_objx/lv_chart.c **** }
 1446              		.loc 3 439 0
 1447 0032 00BF     		nop
 1448 0034 1837     		adds	r7, r7, #24
 1449              		.cfi_def_cfa_offset 8
 1450 0036 BD46     		mov	sp, r7
 1451              		.cfi_def_cfa_register 13
 1452              		@ sp needed
 1453 0038 80BD     		pop	{r7, pc}
 1454              		.cfi_endproc
 1455              	.LFE46:
 1456              		.size	lv_chart_set_points, .-lv_chart_set_points
 1457 003a 00BF     		.section	.text.lv_chart_set_next,"ax",%progbits
 1458              		.align	2
 1459              		.global	lv_chart_set_next
 1460              		.thumb
 1461              		.thumb_func
 1462              		.type	lv_chart_set_next, %function
ARM GAS  C:\Users\tmj32\AppData\Local\Temp\ccrrExWC.s 			page 47


 1463              	lv_chart_set_next:
 1464              	.LFB47:
 440:..\..\..\lvgl\version_6.1.2\lvgl\src\lv_objx/lv_chart.c **** 
 441:..\..\..\lvgl\version_6.1.2\lvgl\src\lv_objx/lv_chart.c **** /**
 442:..\..\..\lvgl\version_6.1.2\lvgl\src\lv_objx/lv_chart.c ****  * Shift all data left and set the rightmost data on a data line
 443:..\..\..\lvgl\version_6.1.2\lvgl\src\lv_objx/lv_chart.c ****  * @param chart pointer to chart object
 444:..\..\..\lvgl\version_6.1.2\lvgl\src\lv_objx/lv_chart.c ****  * @param ser pointer to a data series on 'chart'
 445:..\..\..\lvgl\version_6.1.2\lvgl\src\lv_objx/lv_chart.c ****  * @param y the new value of the rightmost data
 446:..\..\..\lvgl\version_6.1.2\lvgl\src\lv_objx/lv_chart.c ****  */
 447:..\..\..\lvgl\version_6.1.2\lvgl\src\lv_objx/lv_chart.c **** void lv_chart_set_next(lv_obj_t * chart, lv_chart_series_t * ser, lv_coord_t y)
 448:..\..\..\lvgl\version_6.1.2\lvgl\src\lv_objx/lv_chart.c **** {
 1465              		.loc 3 448 0
 1466              		.cfi_startproc
 1467              		@ args = 0, pretend = 0, frame = 24
 1468              		@ frame_needed = 1, uses_anonymous_args = 0
 1469 0000 80B5     		push	{r7, lr}
 1470              		.cfi_def_cfa_offset 8
 1471              		.cfi_offset 7, -8
 1472              		.cfi_offset 14, -4
 1473 0002 86B0     		sub	sp, sp, #24
 1474              		.cfi_def_cfa_offset 32
 1475 0004 00AF     		add	r7, sp, #0
 1476              		.cfi_def_cfa_register 7
 1477 0006 F860     		str	r0, [r7, #12]
 1478 0008 B960     		str	r1, [r7, #8]
 1479 000a 1346     		mov	r3, r2
 1480 000c FB80     		strh	r3, [r7, #6]	@ movhi
 449:..\..\..\lvgl\version_6.1.2\lvgl\src\lv_objx/lv_chart.c ****     LV_ASSERT_OBJ(chart, LV_OBJX_NAME);
 450:..\..\..\lvgl\version_6.1.2\lvgl\src\lv_objx/lv_chart.c ****     LV_ASSERT_NULL(ser);
 451:..\..\..\lvgl\version_6.1.2\lvgl\src\lv_objx/lv_chart.c **** 
 452:..\..\..\lvgl\version_6.1.2\lvgl\src\lv_objx/lv_chart.c ****     lv_chart_ext_t * ext = lv_obj_get_ext_attr(chart);
 1481              		.loc 3 452 0
 1482 000e F868     		ldr	r0, [r7, #12]
 1483 0010 FFF7FEFF 		bl	lv_obj_get_ext_attr
 1484 0014 7861     		str	r0, [r7, #20]
 453:..\..\..\lvgl\version_6.1.2\lvgl\src\lv_objx/lv_chart.c ****     if(ext->update_mode == LV_CHART_UPDATE_MODE_SHIFT) {
 1485              		.loc 3 453 0
 1486 0016 7B69     		ldr	r3, [r7, #20]
 1487 0018 93F83230 		ldrb	r3, [r3, #50]	@ zero_extendqisi2
 1488 001c 03F00103 		and	r3, r3, #1
 1489 0020 DBB2     		uxtb	r3, r3
 1490 0022 002B     		cmp	r3, #0
 1491 0024 18D1     		bne	.L84
 454:..\..\..\lvgl\version_6.1.2\lvgl\src\lv_objx/lv_chart.c ****         ser->points[ser->start_point] =
 1492              		.loc 3 454 0
 1493 0026 BB68     		ldr	r3, [r7, #8]
 1494 0028 1A68     		ldr	r2, [r3]
 1495 002a BB68     		ldr	r3, [r7, #8]
 1496 002c 1B89     		ldrh	r3, [r3, #8]
 1497 002e 5B00     		lsls	r3, r3, #1
 1498 0030 1344     		add	r3, r3, r2
 1499 0032 FA88     		ldrh	r2, [r7, #6]	@ movhi
 1500 0034 1A80     		strh	r2, [r3]	@ movhi
 455:..\..\..\lvgl\version_6.1.2\lvgl\src\lv_objx/lv_chart.c ****             y; /*This was the place of the former left most value, after shifting it is the rightmo
 456:..\..\..\lvgl\version_6.1.2\lvgl\src\lv_objx/lv_chart.c ****         ser->start_point = (ser->start_point + 1) % ext->point_cnt;
 1501              		.loc 3 456 0
 1502 0036 BB68     		ldr	r3, [r7, #8]
ARM GAS  C:\Users\tmj32\AppData\Local\Temp\ccrrExWC.s 			page 48


 1503 0038 1B89     		ldrh	r3, [r3, #8]
 1504 003a 0133     		adds	r3, r3, #1
 1505 003c 7A69     		ldr	r2, [r7, #20]
 1506 003e 528A     		ldrh	r2, [r2, #18]
 1507 0040 93FBF2F1 		sdiv	r1, r3, r2
 1508 0044 02FB01F2 		mul	r2, r2, r1
 1509 0048 9B1A     		subs	r3, r3, r2
 1510 004a 9AB2     		uxth	r2, r3
 1511 004c BB68     		ldr	r3, [r7, #8]
 1512 004e 1A81     		strh	r2, [r3, #8]	@ movhi
 457:..\..\..\lvgl\version_6.1.2\lvgl\src\lv_objx/lv_chart.c ****         lv_chart_refresh(chart);
 1513              		.loc 3 457 0
 1514 0050 F868     		ldr	r0, [r7, #12]
 1515 0052 FFF7FEFF 		bl	lv_chart_refresh
 458:..\..\..\lvgl\version_6.1.2\lvgl\src\lv_objx/lv_chart.c ****     } else if(ext->update_mode == LV_CHART_UPDATE_MODE_CIRCULAR) {
 459:..\..\..\lvgl\version_6.1.2\lvgl\src\lv_objx/lv_chart.c ****         ser->points[ser->start_point] = y;
 460:..\..\..\lvgl\version_6.1.2\lvgl\src\lv_objx/lv_chart.c **** 
 461:..\..\..\lvgl\version_6.1.2\lvgl\src\lv_objx/lv_chart.c ****         if(ext->type & LV_CHART_TYPE_LINE) lv_chart_inv_lines(chart, ser->start_point);
 462:..\..\..\lvgl\version_6.1.2\lvgl\src\lv_objx/lv_chart.c ****         if(ext->type & LV_CHART_TYPE_COLUMN) lv_chart_inv_cols(chart, ser->start_point);
 463:..\..\..\lvgl\version_6.1.2\lvgl\src\lv_objx/lv_chart.c ****         if(ext->type & LV_CHART_TYPE_POINT) lv_chart_inv_points(chart, ser->start_point);
 464:..\..\..\lvgl\version_6.1.2\lvgl\src\lv_objx/lv_chart.c ****         if(ext->type & LV_CHART_TYPE_VERTICAL_LINE) lv_chart_inv_lines(chart, ser->start_point);
 465:..\..\..\lvgl\version_6.1.2\lvgl\src\lv_objx/lv_chart.c ****         if(ext->type & LV_CHART_TYPE_AREA) lv_chart_inv_lines(chart, ser->start_point);
 466:..\..\..\lvgl\version_6.1.2\lvgl\src\lv_objx/lv_chart.c **** 
 467:..\..\..\lvgl\version_6.1.2\lvgl\src\lv_objx/lv_chart.c ****         ser->start_point = (ser->start_point + 1) % ext->point_cnt; /*update the x for next incomin
 468:..\..\..\lvgl\version_6.1.2\lvgl\src\lv_objx/lv_chart.c ****     }
 469:..\..\..\lvgl\version_6.1.2\lvgl\src\lv_objx/lv_chart.c **** }
 1516              		.loc 3 469 0
 1517 0056 58E0     		b	.L91
 1518              	.L84:
 458:..\..\..\lvgl\version_6.1.2\lvgl\src\lv_objx/lv_chart.c ****     } else if(ext->update_mode == LV_CHART_UPDATE_MODE_CIRCULAR) {
 1519              		.loc 3 458 0
 1520 0058 7B69     		ldr	r3, [r7, #20]
 1521 005a 93F83230 		ldrb	r3, [r3, #50]	@ zero_extendqisi2
 1522 005e 03F00103 		and	r3, r3, #1
 1523 0062 DBB2     		uxtb	r3, r3
 1524 0064 002B     		cmp	r3, #0
 1525 0066 50D0     		beq	.L91
 459:..\..\..\lvgl\version_6.1.2\lvgl\src\lv_objx/lv_chart.c **** 
 1526              		.loc 3 459 0
 1527 0068 BB68     		ldr	r3, [r7, #8]
 1528 006a 1A68     		ldr	r2, [r3]
 1529 006c BB68     		ldr	r3, [r7, #8]
 1530 006e 1B89     		ldrh	r3, [r3, #8]
 1531 0070 5B00     		lsls	r3, r3, #1
 1532 0072 1344     		add	r3, r3, r2
 1533 0074 FA88     		ldrh	r2, [r7, #6]	@ movhi
 1534 0076 1A80     		strh	r2, [r3]	@ movhi
 461:..\..\..\lvgl\version_6.1.2\lvgl\src\lv_objx/lv_chart.c ****         if(ext->type & LV_CHART_TYPE_COLUMN) lv_chart_inv_cols(chart, ser->start_point);
 1535              		.loc 3 461 0
 1536 0078 7B69     		ldr	r3, [r7, #20]
 1537 007a 1B7D     		ldrb	r3, [r3, #20]	@ zero_extendqisi2
 1538 007c 03F00103 		and	r3, r3, #1
 1539 0080 002B     		cmp	r3, #0
 1540 0082 05D0     		beq	.L86
 461:..\..\..\lvgl\version_6.1.2\lvgl\src\lv_objx/lv_chart.c ****         if(ext->type & LV_CHART_TYPE_COLUMN) lv_chart_inv_cols(chart, ser->start_point);
 1541              		.loc 3 461 0 is_stmt 0 discriminator 1
 1542 0084 BB68     		ldr	r3, [r7, #8]
ARM GAS  C:\Users\tmj32\AppData\Local\Temp\ccrrExWC.s 			page 49


 1543 0086 1B89     		ldrh	r3, [r3, #8]
 1544 0088 1946     		mov	r1, r3
 1545 008a F868     		ldr	r0, [r7, #12]
 1546 008c FFF7FEFF 		bl	lv_chart_inv_lines
 1547              	.L86:
 462:..\..\..\lvgl\version_6.1.2\lvgl\src\lv_objx/lv_chart.c ****         if(ext->type & LV_CHART_TYPE_POINT) lv_chart_inv_points(chart, ser->start_point);
 1548              		.loc 3 462 0 is_stmt 1
 1549 0090 7B69     		ldr	r3, [r7, #20]
 1550 0092 1B7D     		ldrb	r3, [r3, #20]	@ zero_extendqisi2
 1551 0094 03F00203 		and	r3, r3, #2
 1552 0098 002B     		cmp	r3, #0
 1553 009a 05D0     		beq	.L87
 462:..\..\..\lvgl\version_6.1.2\lvgl\src\lv_objx/lv_chart.c ****         if(ext->type & LV_CHART_TYPE_POINT) lv_chart_inv_points(chart, ser->start_point);
 1554              		.loc 3 462 0 is_stmt 0 discriminator 1
 1555 009c BB68     		ldr	r3, [r7, #8]
 1556 009e 1B89     		ldrh	r3, [r3, #8]
 1557 00a0 1946     		mov	r1, r3
 1558 00a2 F868     		ldr	r0, [r7, #12]
 1559 00a4 FFF7FEFF 		bl	lv_chart_inv_cols
 1560              	.L87:
 463:..\..\..\lvgl\version_6.1.2\lvgl\src\lv_objx/lv_chart.c ****         if(ext->type & LV_CHART_TYPE_VERTICAL_LINE) lv_chart_inv_lines(chart, ser->start_point);
 1561              		.loc 3 463 0 is_stmt 1
 1562 00a8 7B69     		ldr	r3, [r7, #20]
 1563 00aa 1B7D     		ldrb	r3, [r3, #20]	@ zero_extendqisi2
 1564 00ac 03F00403 		and	r3, r3, #4
 1565 00b0 002B     		cmp	r3, #0
 1566 00b2 05D0     		beq	.L88
 463:..\..\..\lvgl\version_6.1.2\lvgl\src\lv_objx/lv_chart.c ****         if(ext->type & LV_CHART_TYPE_VERTICAL_LINE) lv_chart_inv_lines(chart, ser->start_point);
 1567              		.loc 3 463 0 is_stmt 0 discriminator 1
 1568 00b4 BB68     		ldr	r3, [r7, #8]
 1569 00b6 1B89     		ldrh	r3, [r3, #8]
 1570 00b8 1946     		mov	r1, r3
 1571 00ba F868     		ldr	r0, [r7, #12]
 1572 00bc FFF7FEFF 		bl	lv_chart_inv_points
 1573              	.L88:
 464:..\..\..\lvgl\version_6.1.2\lvgl\src\lv_objx/lv_chart.c ****         if(ext->type & LV_CHART_TYPE_AREA) lv_chart_inv_lines(chart, ser->start_point);
 1574              		.loc 3 464 0 is_stmt 1
 1575 00c0 7B69     		ldr	r3, [r7, #20]
 1576 00c2 1B7D     		ldrb	r3, [r3, #20]	@ zero_extendqisi2
 1577 00c4 03F00803 		and	r3, r3, #8
 1578 00c8 002B     		cmp	r3, #0
 1579 00ca 05D0     		beq	.L89
 464:..\..\..\lvgl\version_6.1.2\lvgl\src\lv_objx/lv_chart.c ****         if(ext->type & LV_CHART_TYPE_AREA) lv_chart_inv_lines(chart, ser->start_point);
 1580              		.loc 3 464 0 is_stmt 0 discriminator 1
 1581 00cc BB68     		ldr	r3, [r7, #8]
 1582 00ce 1B89     		ldrh	r3, [r3, #8]
 1583 00d0 1946     		mov	r1, r3
 1584 00d2 F868     		ldr	r0, [r7, #12]
 1585 00d4 FFF7FEFF 		bl	lv_chart_inv_lines
 1586              	.L89:
 465:..\..\..\lvgl\version_6.1.2\lvgl\src\lv_objx/lv_chart.c **** 
 1587              		.loc 3 465 0 is_stmt 1
 1588 00d8 7B69     		ldr	r3, [r7, #20]
 1589 00da 1B7D     		ldrb	r3, [r3, #20]	@ zero_extendqisi2
 1590 00dc 03F01003 		and	r3, r3, #16
 1591 00e0 002B     		cmp	r3, #0
 1592 00e2 05D0     		beq	.L90
ARM GAS  C:\Users\tmj32\AppData\Local\Temp\ccrrExWC.s 			page 50


 465:..\..\..\lvgl\version_6.1.2\lvgl\src\lv_objx/lv_chart.c **** 
 1593              		.loc 3 465 0 is_stmt 0 discriminator 1
 1594 00e4 BB68     		ldr	r3, [r7, #8]
 1595 00e6 1B89     		ldrh	r3, [r3, #8]
 1596 00e8 1946     		mov	r1, r3
 1597 00ea F868     		ldr	r0, [r7, #12]
 1598 00ec FFF7FEFF 		bl	lv_chart_inv_lines
 1599              	.L90:
 467:..\..\..\lvgl\version_6.1.2\lvgl\src\lv_objx/lv_chart.c ****     }
 1600              		.loc 3 467 0 is_stmt 1
 1601 00f0 BB68     		ldr	r3, [r7, #8]
 1602 00f2 1B89     		ldrh	r3, [r3, #8]
 1603 00f4 0133     		adds	r3, r3, #1
 1604 00f6 7A69     		ldr	r2, [r7, #20]
 1605 00f8 528A     		ldrh	r2, [r2, #18]
 1606 00fa 93FBF2F1 		sdiv	r1, r3, r2
 1607 00fe 02FB01F2 		mul	r2, r2, r1
 1608 0102 9B1A     		subs	r3, r3, r2
 1609 0104 9AB2     		uxth	r2, r3
 1610 0106 BB68     		ldr	r3, [r7, #8]
 1611 0108 1A81     		strh	r2, [r3, #8]	@ movhi
 1612              	.L91:
 1613              		.loc 3 469 0
 1614 010a 00BF     		nop
 1615 010c 1837     		adds	r7, r7, #24
 1616              		.cfi_def_cfa_offset 8
 1617 010e BD46     		mov	sp, r7
 1618              		.cfi_def_cfa_register 13
 1619              		@ sp needed
 1620 0110 80BD     		pop	{r7, pc}
 1621              		.cfi_endproc
 1622              	.LFE47:
 1623              		.size	lv_chart_set_next, .-lv_chart_set_next
 1624 0112 00BF     		.section	.text.lv_chart_set_update_mode,"ax",%progbits
 1625              		.align	2
 1626              		.global	lv_chart_set_update_mode
 1627              		.thumb
 1628              		.thumb_func
 1629              		.type	lv_chart_set_update_mode, %function
 1630              	lv_chart_set_update_mode:
 1631              	.LFB48:
 470:..\..\..\lvgl\version_6.1.2\lvgl\src\lv_objx/lv_chart.c **** 
 471:..\..\..\lvgl\version_6.1.2\lvgl\src\lv_objx/lv_chart.c **** /**
 472:..\..\..\lvgl\version_6.1.2\lvgl\src\lv_objx/lv_chart.c ****  * Set update mode of the chart object.
 473:..\..\..\lvgl\version_6.1.2\lvgl\src\lv_objx/lv_chart.c ****  * @param chart pointer to a chart object
 474:..\..\..\lvgl\version_6.1.2\lvgl\src\lv_objx/lv_chart.c ****  * @param update mode
 475:..\..\..\lvgl\version_6.1.2\lvgl\src\lv_objx/lv_chart.c ****  */
 476:..\..\..\lvgl\version_6.1.2\lvgl\src\lv_objx/lv_chart.c **** void lv_chart_set_update_mode(lv_obj_t * chart, lv_chart_update_mode_t update_mode)
 477:..\..\..\lvgl\version_6.1.2\lvgl\src\lv_objx/lv_chart.c **** {
 1632              		.loc 3 477 0
 1633              		.cfi_startproc
 1634              		@ args = 0, pretend = 0, frame = 16
 1635              		@ frame_needed = 1, uses_anonymous_args = 0
 1636 0000 80B5     		push	{r7, lr}
 1637              		.cfi_def_cfa_offset 8
 1638              		.cfi_offset 7, -8
 1639              		.cfi_offset 14, -4
ARM GAS  C:\Users\tmj32\AppData\Local\Temp\ccrrExWC.s 			page 51


 1640 0002 84B0     		sub	sp, sp, #16
 1641              		.cfi_def_cfa_offset 24
 1642 0004 00AF     		add	r7, sp, #0
 1643              		.cfi_def_cfa_register 7
 1644 0006 7860     		str	r0, [r7, #4]
 1645 0008 0B46     		mov	r3, r1
 1646 000a FB70     		strb	r3, [r7, #3]
 478:..\..\..\lvgl\version_6.1.2\lvgl\src\lv_objx/lv_chart.c ****     LV_ASSERT_OBJ(chart, LV_OBJX_NAME);
 479:..\..\..\lvgl\version_6.1.2\lvgl\src\lv_objx/lv_chart.c **** 
 480:..\..\..\lvgl\version_6.1.2\lvgl\src\lv_objx/lv_chart.c ****     lv_chart_ext_t * ext = lv_obj_get_ext_attr(chart);
 1647              		.loc 3 480 0
 1648 000c 7868     		ldr	r0, [r7, #4]
 1649 000e FFF7FEFF 		bl	lv_obj_get_ext_attr
 1650 0012 F860     		str	r0, [r7, #12]
 481:..\..\..\lvgl\version_6.1.2\lvgl\src\lv_objx/lv_chart.c ****     if(ext->update_mode == update_mode) return;
 1651              		.loc 3 481 0
 1652 0014 FB68     		ldr	r3, [r7, #12]
 1653 0016 93F83230 		ldrb	r3, [r3, #50]
 1654 001a C3F30003 		ubfx	r3, r3, #0, #1
 1655 001e DBB2     		uxtb	r3, r3
 1656 0020 1A46     		mov	r2, r3
 1657 0022 FB78     		ldrb	r3, [r7, #3]	@ zero_extendqisi2
 1658 0024 9A42     		cmp	r2, r3
 1659 0026 0ED0     		beq	.L95
 482:..\..\..\lvgl\version_6.1.2\lvgl\src\lv_objx/lv_chart.c **** 
 483:..\..\..\lvgl\version_6.1.2\lvgl\src\lv_objx/lv_chart.c ****     ext->update_mode = update_mode;
 1660              		.loc 3 483 0
 1661 0028 FB78     		ldrb	r3, [r7, #3]
 1662 002a 03F00103 		and	r3, r3, #1
 1663 002e D9B2     		uxtb	r1, r3
 1664 0030 FA68     		ldr	r2, [r7, #12]
 1665 0032 92F83230 		ldrb	r3, [r2, #50]
 1666 0036 61F30003 		bfi	r3, r1, #0, #1
 1667 003a 82F83230 		strb	r3, [r2, #50]
 484:..\..\..\lvgl\version_6.1.2\lvgl\src\lv_objx/lv_chart.c ****     lv_obj_invalidate(chart);
 1668              		.loc 3 484 0
 1669 003e 7868     		ldr	r0, [r7, #4]
 1670 0040 FFF7FEFF 		bl	lv_obj_invalidate
 1671 0044 00E0     		b	.L92
 1672              	.L95:
 481:..\..\..\lvgl\version_6.1.2\lvgl\src\lv_objx/lv_chart.c ****     if(ext->update_mode == update_mode) return;
 1673              		.loc 3 481 0
 1674 0046 00BF     		nop
 1675              	.L92:
 485:..\..\..\lvgl\version_6.1.2\lvgl\src\lv_objx/lv_chart.c **** }
 1676              		.loc 3 485 0
 1677 0048 1037     		adds	r7, r7, #16
 1678              		.cfi_def_cfa_offset 8
 1679 004a BD46     		mov	sp, r7
 1680              		.cfi_def_cfa_register 13
 1681              		@ sp needed
 1682 004c 80BD     		pop	{r7, pc}
 1683              		.cfi_endproc
 1684              	.LFE48:
 1685              		.size	lv_chart_set_update_mode, .-lv_chart_set_update_mode
 1686 004e 00BF     		.section	.text.lv_chart_set_x_tick_length,"ax",%progbits
 1687              		.align	2
ARM GAS  C:\Users\tmj32\AppData\Local\Temp\ccrrExWC.s 			page 52


 1688              		.global	lv_chart_set_x_tick_length
 1689              		.thumb
 1690              		.thumb_func
 1691              		.type	lv_chart_set_x_tick_length, %function
 1692              	lv_chart_set_x_tick_length:
 1693              	.LFB49:
 486:..\..\..\lvgl\version_6.1.2\lvgl\src\lv_objx/lv_chart.c **** 
 487:..\..\..\lvgl\version_6.1.2\lvgl\src\lv_objx/lv_chart.c **** /**
 488:..\..\..\lvgl\version_6.1.2\lvgl\src\lv_objx/lv_chart.c ****  * Set the length of the tick marks on the x axis
 489:..\..\..\lvgl\version_6.1.2\lvgl\src\lv_objx/lv_chart.c ****  * @param chart pointer to the chart
 490:..\..\..\lvgl\version_6.1.2\lvgl\src\lv_objx/lv_chart.c ****  * @param major_tick_len the length of the major tick or `LV_CHART_TICK_LENGTH_AUTO` to set automat
 491:..\..\..\lvgl\version_6.1.2\lvgl\src\lv_objx/lv_chart.c ****  *                       (where labels are added)
 492:..\..\..\lvgl\version_6.1.2\lvgl\src\lv_objx/lv_chart.c ****  * @param minor_tick_len the length of the minor tick, `LV_CHART_TICK_LENGTH_AUTO` to set automatic
 493:..\..\..\lvgl\version_6.1.2\lvgl\src\lv_objx/lv_chart.c ****  *                       (where no labels are added)
 494:..\..\..\lvgl\version_6.1.2\lvgl\src\lv_objx/lv_chart.c ****  */
 495:..\..\..\lvgl\version_6.1.2\lvgl\src\lv_objx/lv_chart.c **** void lv_chart_set_x_tick_length(lv_obj_t * chart, uint8_t major_tick_len, uint8_t minor_tick_len)
 496:..\..\..\lvgl\version_6.1.2\lvgl\src\lv_objx/lv_chart.c **** {
 1694              		.loc 3 496 0
 1695              		.cfi_startproc
 1696              		@ args = 0, pretend = 0, frame = 16
 1697              		@ frame_needed = 1, uses_anonymous_args = 0
 1698 0000 80B5     		push	{r7, lr}
 1699              		.cfi_def_cfa_offset 8
 1700              		.cfi_offset 7, -8
 1701              		.cfi_offset 14, -4
 1702 0002 84B0     		sub	sp, sp, #16
 1703              		.cfi_def_cfa_offset 24
 1704 0004 00AF     		add	r7, sp, #0
 1705              		.cfi_def_cfa_register 7
 1706 0006 7860     		str	r0, [r7, #4]
 1707 0008 0B46     		mov	r3, r1
 1708 000a FB70     		strb	r3, [r7, #3]
 1709 000c 1346     		mov	r3, r2
 1710 000e BB70     		strb	r3, [r7, #2]
 497:..\..\..\lvgl\version_6.1.2\lvgl\src\lv_objx/lv_chart.c ****     LV_ASSERT_OBJ(chart, LV_OBJX_NAME);
 498:..\..\..\lvgl\version_6.1.2\lvgl\src\lv_objx/lv_chart.c **** 
 499:..\..\..\lvgl\version_6.1.2\lvgl\src\lv_objx/lv_chart.c ****     lv_chart_ext_t * ext       = lv_obj_get_ext_attr(chart);
 1711              		.loc 3 499 0
 1712 0010 7868     		ldr	r0, [r7, #4]
 1713 0012 FFF7FEFF 		bl	lv_obj_get_ext_attr
 1714 0016 F860     		str	r0, [r7, #12]
 500:..\..\..\lvgl\version_6.1.2\lvgl\src\lv_objx/lv_chart.c ****     ext->x_axis.major_tick_len = major_tick_len;
 1715              		.loc 3 500 0
 1716 0018 FB68     		ldr	r3, [r7, #12]
 1717 001a FA78     		ldrb	r2, [r7, #3]
 1718 001c 83F82620 		strb	r2, [r3, #38]
 501:..\..\..\lvgl\version_6.1.2\lvgl\src\lv_objx/lv_chart.c ****     ext->x_axis.minor_tick_len = minor_tick_len;
 1719              		.loc 3 501 0
 1720 0020 FB68     		ldr	r3, [r7, #12]
 1721 0022 BA78     		ldrb	r2, [r7, #2]
 1722 0024 83F82720 		strb	r2, [r3, #39]
 502:..\..\..\lvgl\version_6.1.2\lvgl\src\lv_objx/lv_chart.c **** }
 1723              		.loc 3 502 0
 1724 0028 00BF     		nop
 1725 002a 1037     		adds	r7, r7, #16
 1726              		.cfi_def_cfa_offset 8
 1727 002c BD46     		mov	sp, r7
ARM GAS  C:\Users\tmj32\AppData\Local\Temp\ccrrExWC.s 			page 53


 1728              		.cfi_def_cfa_register 13
 1729              		@ sp needed
 1730 002e 80BD     		pop	{r7, pc}
 1731              		.cfi_endproc
 1732              	.LFE49:
 1733              		.size	lv_chart_set_x_tick_length, .-lv_chart_set_x_tick_length
 1734              		.section	.text.lv_chart_set_y_tick_length,"ax",%progbits
 1735              		.align	2
 1736              		.global	lv_chart_set_y_tick_length
 1737              		.thumb
 1738              		.thumb_func
 1739              		.type	lv_chart_set_y_tick_length, %function
 1740              	lv_chart_set_y_tick_length:
 1741              	.LFB50:
 503:..\..\..\lvgl\version_6.1.2\lvgl\src\lv_objx/lv_chart.c **** 
 504:..\..\..\lvgl\version_6.1.2\lvgl\src\lv_objx/lv_chart.c **** /**
 505:..\..\..\lvgl\version_6.1.2\lvgl\src\lv_objx/lv_chart.c ****  * Set the length of the tick marks on the y axis
 506:..\..\..\lvgl\version_6.1.2\lvgl\src\lv_objx/lv_chart.c ****  * @param chart pointer to the chart
 507:..\..\..\lvgl\version_6.1.2\lvgl\src\lv_objx/lv_chart.c ****  * @param major_tick_len the length of the major tick or `LV_CHART_TICK_LENGTH_AUTO` to set automat
 508:..\..\..\lvgl\version_6.1.2\lvgl\src\lv_objx/lv_chart.c ****  *                       (where labels are added)
 509:..\..\..\lvgl\version_6.1.2\lvgl\src\lv_objx/lv_chart.c ****  * @param minor_tick_len the length of the minor tick, `LV_CHART_TICK_LENGTH_AUTO` to set automatic
 510:..\..\..\lvgl\version_6.1.2\lvgl\src\lv_objx/lv_chart.c ****  *                       (where no labels are added)
 511:..\..\..\lvgl\version_6.1.2\lvgl\src\lv_objx/lv_chart.c ****  */
 512:..\..\..\lvgl\version_6.1.2\lvgl\src\lv_objx/lv_chart.c **** void lv_chart_set_y_tick_length(lv_obj_t * chart, uint8_t major_tick_len, uint8_t minor_tick_len)
 513:..\..\..\lvgl\version_6.1.2\lvgl\src\lv_objx/lv_chart.c **** {
 1742              		.loc 3 513 0
 1743              		.cfi_startproc
 1744              		@ args = 0, pretend = 0, frame = 16
 1745              		@ frame_needed = 1, uses_anonymous_args = 0
 1746 0000 80B5     		push	{r7, lr}
 1747              		.cfi_def_cfa_offset 8
 1748              		.cfi_offset 7, -8
 1749              		.cfi_offset 14, -4
 1750 0002 84B0     		sub	sp, sp, #16
 1751              		.cfi_def_cfa_offset 24
 1752 0004 00AF     		add	r7, sp, #0
 1753              		.cfi_def_cfa_register 7
 1754 0006 7860     		str	r0, [r7, #4]
 1755 0008 0B46     		mov	r3, r1
 1756 000a FB70     		strb	r3, [r7, #3]
 1757 000c 1346     		mov	r3, r2
 1758 000e BB70     		strb	r3, [r7, #2]
 514:..\..\..\lvgl\version_6.1.2\lvgl\src\lv_objx/lv_chart.c ****     LV_ASSERT_OBJ(chart, LV_OBJX_NAME);
 515:..\..\..\lvgl\version_6.1.2\lvgl\src\lv_objx/lv_chart.c **** 
 516:..\..\..\lvgl\version_6.1.2\lvgl\src\lv_objx/lv_chart.c ****     lv_chart_ext_t * ext       = lv_obj_get_ext_attr(chart);
 1759              		.loc 3 516 0
 1760 0010 7868     		ldr	r0, [r7, #4]
 1761 0012 FFF7FEFF 		bl	lv_obj_get_ext_attr
 1762 0016 F860     		str	r0, [r7, #12]
 517:..\..\..\lvgl\version_6.1.2\lvgl\src\lv_objx/lv_chart.c ****     ext->y_axis.major_tick_len = major_tick_len;
 1763              		.loc 3 517 0
 1764 0018 FB68     		ldr	r3, [r7, #12]
 1765 001a FA78     		ldrb	r2, [r7, #3]
 1766 001c 9A77     		strb	r2, [r3, #30]
 518:..\..\..\lvgl\version_6.1.2\lvgl\src\lv_objx/lv_chart.c ****     ext->y_axis.minor_tick_len = minor_tick_len;
 1767              		.loc 3 518 0
 1768 001e FB68     		ldr	r3, [r7, #12]
ARM GAS  C:\Users\tmj32\AppData\Local\Temp\ccrrExWC.s 			page 54


 1769 0020 BA78     		ldrb	r2, [r7, #2]
 1770 0022 DA77     		strb	r2, [r3, #31]
 519:..\..\..\lvgl\version_6.1.2\lvgl\src\lv_objx/lv_chart.c **** }
 1771              		.loc 3 519 0
 1772 0024 00BF     		nop
 1773 0026 1037     		adds	r7, r7, #16
 1774              		.cfi_def_cfa_offset 8
 1775 0028 BD46     		mov	sp, r7
 1776              		.cfi_def_cfa_register 13
 1777              		@ sp needed
 1778 002a 80BD     		pop	{r7, pc}
 1779              		.cfi_endproc
 1780              	.LFE50:
 1781              		.size	lv_chart_set_y_tick_length, .-lv_chart_set_y_tick_length
 1782              		.section	.text.lv_chart_set_secondary_y_tick_length,"ax",%progbits
 1783              		.align	2
 1784              		.global	lv_chart_set_secondary_y_tick_length
 1785              		.thumb
 1786              		.thumb_func
 1787              		.type	lv_chart_set_secondary_y_tick_length, %function
 1788              	lv_chart_set_secondary_y_tick_length:
 1789              	.LFB51:
 520:..\..\..\lvgl\version_6.1.2\lvgl\src\lv_objx/lv_chart.c **** 
 521:..\..\..\lvgl\version_6.1.2\lvgl\src\lv_objx/lv_chart.c **** /**
 522:..\..\..\lvgl\version_6.1.2\lvgl\src\lv_objx/lv_chart.c ****  * Set the length of the tick marks on the secondary y axis
 523:..\..\..\lvgl\version_6.1.2\lvgl\src\lv_objx/lv_chart.c ****  * @param chart pointer to the chart
 524:..\..\..\lvgl\version_6.1.2\lvgl\src\lv_objx/lv_chart.c ****  * @param major_tick_len the length of the major tick or `LV_CHART_TICK_LENGTH_AUTO` to set automat
 525:..\..\..\lvgl\version_6.1.2\lvgl\src\lv_objx/lv_chart.c ****  *                       (where labels are added)
 526:..\..\..\lvgl\version_6.1.2\lvgl\src\lv_objx/lv_chart.c ****  * @param minor_tick_len the length of the minor tick, `LV_CHART_TICK_LENGTH_AUTO` to set automatic
 527:..\..\..\lvgl\version_6.1.2\lvgl\src\lv_objx/lv_chart.c ****  *                       (where no labels are added)
 528:..\..\..\lvgl\version_6.1.2\lvgl\src\lv_objx/lv_chart.c ****  */
 529:..\..\..\lvgl\version_6.1.2\lvgl\src\lv_objx/lv_chart.c **** void lv_chart_set_secondary_y_tick_length(lv_obj_t * chart, uint8_t major_tick_len, uint8_t minor_t
 530:..\..\..\lvgl\version_6.1.2\lvgl\src\lv_objx/lv_chart.c **** {
 1790              		.loc 3 530 0
 1791              		.cfi_startproc
 1792              		@ args = 0, pretend = 0, frame = 16
 1793              		@ frame_needed = 1, uses_anonymous_args = 0
 1794 0000 80B5     		push	{r7, lr}
 1795              		.cfi_def_cfa_offset 8
 1796              		.cfi_offset 7, -8
 1797              		.cfi_offset 14, -4
 1798 0002 84B0     		sub	sp, sp, #16
 1799              		.cfi_def_cfa_offset 24
 1800 0004 00AF     		add	r7, sp, #0
 1801              		.cfi_def_cfa_register 7
 1802 0006 7860     		str	r0, [r7, #4]
 1803 0008 0B46     		mov	r3, r1
 1804 000a FB70     		strb	r3, [r7, #3]
 1805 000c 1346     		mov	r3, r2
 1806 000e BB70     		strb	r3, [r7, #2]
 531:..\..\..\lvgl\version_6.1.2\lvgl\src\lv_objx/lv_chart.c ****     LV_ASSERT_OBJ(chart, LV_OBJX_NAME);
 532:..\..\..\lvgl\version_6.1.2\lvgl\src\lv_objx/lv_chart.c **** 
 533:..\..\..\lvgl\version_6.1.2\lvgl\src\lv_objx/lv_chart.c ****     lv_chart_ext_t * ext       = lv_obj_get_ext_attr(chart);
 1807              		.loc 3 533 0
 1808 0010 7868     		ldr	r0, [r7, #4]
 1809 0012 FFF7FEFF 		bl	lv_obj_get_ext_attr
 1810 0016 F860     		str	r0, [r7, #12]
ARM GAS  C:\Users\tmj32\AppData\Local\Temp\ccrrExWC.s 			page 55


 534:..\..\..\lvgl\version_6.1.2\lvgl\src\lv_objx/lv_chart.c ****     ext->secondary_y_axis.major_tick_len = major_tick_len;
 1811              		.loc 3 534 0
 1812 0018 FB68     		ldr	r3, [r7, #12]
 1813 001a FA78     		ldrb	r2, [r7, #3]
 1814 001c 83F82E20 		strb	r2, [r3, #46]
 535:..\..\..\lvgl\version_6.1.2\lvgl\src\lv_objx/lv_chart.c ****     ext->secondary_y_axis.minor_tick_len = minor_tick_len;
 1815              		.loc 3 535 0
 1816 0020 FB68     		ldr	r3, [r7, #12]
 1817 0022 BA78     		ldrb	r2, [r7, #2]
 1818 0024 83F82F20 		strb	r2, [r3, #47]
 536:..\..\..\lvgl\version_6.1.2\lvgl\src\lv_objx/lv_chart.c **** }
 1819              		.loc 3 536 0
 1820 0028 00BF     		nop
 1821 002a 1037     		adds	r7, r7, #16
 1822              		.cfi_def_cfa_offset 8
 1823 002c BD46     		mov	sp, r7
 1824              		.cfi_def_cfa_register 13
 1825              		@ sp needed
 1826 002e 80BD     		pop	{r7, pc}
 1827              		.cfi_endproc
 1828              	.LFE51:
 1829              		.size	lv_chart_set_secondary_y_tick_length, .-lv_chart_set_secondary_y_tick_length
 1830              		.section	.text.lv_chart_set_x_tick_texts,"ax",%progbits
 1831              		.align	2
 1832              		.global	lv_chart_set_x_tick_texts
 1833              		.thumb
 1834              		.thumb_func
 1835              		.type	lv_chart_set_x_tick_texts, %function
 1836              	lv_chart_set_x_tick_texts:
 1837              	.LFB52:
 537:..\..\..\lvgl\version_6.1.2\lvgl\src\lv_objx/lv_chart.c **** 
 538:..\..\..\lvgl\version_6.1.2\lvgl\src\lv_objx/lv_chart.c **** /**
 539:..\..\..\lvgl\version_6.1.2\lvgl\src\lv_objx/lv_chart.c ****  * Set the x-axis tick count and labels of a chart
 540:..\..\..\lvgl\version_6.1.2\lvgl\src\lv_objx/lv_chart.c ****  * @param chart 			pointer to a chart object
 541:..\..\..\lvgl\version_6.1.2\lvgl\src\lv_objx/lv_chart.c ****  * @param list_of_values 	list of string values, terminated with \n, except the last
 542:..\..\..\lvgl\version_6.1.2\lvgl\src\lv_objx/lv_chart.c ****  * @param num_tick_marks 	if list_of_values is NULL: total number of ticks per axis
 543:..\..\..\lvgl\version_6.1.2\lvgl\src\lv_objx/lv_chart.c ****  * 							else number of ticks between two value labels
 544:..\..\..\lvgl\version_6.1.2\lvgl\src\lv_objx/lv_chart.c ****  * @param options			extra options
 545:..\..\..\lvgl\version_6.1.2\lvgl\src\lv_objx/lv_chart.c ****  */
 546:..\..\..\lvgl\version_6.1.2\lvgl\src\lv_objx/lv_chart.c **** void lv_chart_set_x_tick_texts(lv_obj_t * chart, const char * list_of_values, uint8_t num_tick_mark
 547:..\..\..\lvgl\version_6.1.2\lvgl\src\lv_objx/lv_chart.c ****                                lv_chart_axis_options_t options)
 548:..\..\..\lvgl\version_6.1.2\lvgl\src\lv_objx/lv_chart.c **** {
 1838              		.loc 3 548 0
 1839              		.cfi_startproc
 1840              		@ args = 0, pretend = 0, frame = 24
 1841              		@ frame_needed = 1, uses_anonymous_args = 0
 1842 0000 80B5     		push	{r7, lr}
 1843              		.cfi_def_cfa_offset 8
 1844              		.cfi_offset 7, -8
 1845              		.cfi_offset 14, -4
 1846 0002 86B0     		sub	sp, sp, #24
 1847              		.cfi_def_cfa_offset 32
 1848 0004 00AF     		add	r7, sp, #0
 1849              		.cfi_def_cfa_register 7
 1850 0006 F860     		str	r0, [r7, #12]
 1851 0008 B960     		str	r1, [r7, #8]
 1852 000a 1146     		mov	r1, r2
ARM GAS  C:\Users\tmj32\AppData\Local\Temp\ccrrExWC.s 			page 56


 1853 000c 1A46     		mov	r2, r3
 1854 000e 0B46     		mov	r3, r1
 1855 0010 FB71     		strb	r3, [r7, #7]
 1856 0012 1346     		mov	r3, r2
 1857 0014 BB71     		strb	r3, [r7, #6]
 549:..\..\..\lvgl\version_6.1.2\lvgl\src\lv_objx/lv_chart.c ****     LV_ASSERT_OBJ(chart, LV_OBJX_NAME);
 550:..\..\..\lvgl\version_6.1.2\lvgl\src\lv_objx/lv_chart.c ****     LV_ASSERT_NULL(list_of_values);
 551:..\..\..\lvgl\version_6.1.2\lvgl\src\lv_objx/lv_chart.c **** 
 552:..\..\..\lvgl\version_6.1.2\lvgl\src\lv_objx/lv_chart.c ****     lv_chart_ext_t * ext       = lv_obj_get_ext_attr(chart);
 1858              		.loc 3 552 0
 1859 0016 F868     		ldr	r0, [r7, #12]
 1860 0018 FFF7FEFF 		bl	lv_obj_get_ext_attr
 1861 001c 7861     		str	r0, [r7, #20]
 553:..\..\..\lvgl\version_6.1.2\lvgl\src\lv_objx/lv_chart.c ****     ext->x_axis.num_tick_marks = num_tick_marks;
 1862              		.loc 3 553 0
 1863 001e 7B69     		ldr	r3, [r7, #20]
 1864 0020 FA79     		ldrb	r2, [r7, #7]
 1865 0022 83F82520 		strb	r2, [r3, #37]
 554:..\..\..\lvgl\version_6.1.2\lvgl\src\lv_objx/lv_chart.c ****     ext->x_axis.list_of_values = list_of_values;
 1866              		.loc 3 554 0
 1867 0026 7B69     		ldr	r3, [r7, #20]
 1868 0028 BA68     		ldr	r2, [r7, #8]
 1869 002a 1A62     		str	r2, [r3, #32]
 555:..\..\..\lvgl\version_6.1.2\lvgl\src\lv_objx/lv_chart.c ****     ext->x_axis.options        = options;
 1870              		.loc 3 555 0
 1871 002c 7B69     		ldr	r3, [r7, #20]
 1872 002e BA79     		ldrb	r2, [r7, #6]
 1873 0030 83F82420 		strb	r2, [r3, #36]
 556:..\..\..\lvgl\version_6.1.2\lvgl\src\lv_objx/lv_chart.c **** }
 1874              		.loc 3 556 0
 1875 0034 00BF     		nop
 1876 0036 1837     		adds	r7, r7, #24
 1877              		.cfi_def_cfa_offset 8
 1878 0038 BD46     		mov	sp, r7
 1879              		.cfi_def_cfa_register 13
 1880              		@ sp needed
 1881 003a 80BD     		pop	{r7, pc}
 1882              		.cfi_endproc
 1883              	.LFE52:
 1884              		.size	lv_chart_set_x_tick_texts, .-lv_chart_set_x_tick_texts
 1885              		.section	.text.lv_chart_set_y_tick_texts,"ax",%progbits
 1886              		.align	2
 1887              		.global	lv_chart_set_y_tick_texts
 1888              		.thumb
 1889              		.thumb_func
 1890              		.type	lv_chart_set_y_tick_texts, %function
 1891              	lv_chart_set_y_tick_texts:
 1892              	.LFB53:
 557:..\..\..\lvgl\version_6.1.2\lvgl\src\lv_objx/lv_chart.c **** 
 558:..\..\..\lvgl\version_6.1.2\lvgl\src\lv_objx/lv_chart.c **** /**
 559:..\..\..\lvgl\version_6.1.2\lvgl\src\lv_objx/lv_chart.c ****  * Set the y-axis tick count and labels of a chart
 560:..\..\..\lvgl\version_6.1.2\lvgl\src\lv_objx/lv_chart.c ****  * @param chart             pointer to a chart object
 561:..\..\..\lvgl\version_6.1.2\lvgl\src\lv_objx/lv_chart.c ****  * @param list_of_values    list of string values, terminated with \n, except the last
 562:..\..\..\lvgl\version_6.1.2\lvgl\src\lv_objx/lv_chart.c ****  * @param num_tick_marks    if list_of_values is NULL: total number of ticks per axis
 563:..\..\..\lvgl\version_6.1.2\lvgl\src\lv_objx/lv_chart.c ****  *                          else number of ticks between two value labels
 564:..\..\..\lvgl\version_6.1.2\lvgl\src\lv_objx/lv_chart.c ****  * @param options           extra options
 565:..\..\..\lvgl\version_6.1.2\lvgl\src\lv_objx/lv_chart.c ****  */
ARM GAS  C:\Users\tmj32\AppData\Local\Temp\ccrrExWC.s 			page 57


 566:..\..\..\lvgl\version_6.1.2\lvgl\src\lv_objx/lv_chart.c **** void lv_chart_set_y_tick_texts(lv_obj_t * chart, const char * list_of_values, uint8_t num_tick_mark
 567:..\..\..\lvgl\version_6.1.2\lvgl\src\lv_objx/lv_chart.c ****                                lv_chart_axis_options_t options)
 568:..\..\..\lvgl\version_6.1.2\lvgl\src\lv_objx/lv_chart.c **** {
 1893              		.loc 3 568 0
 1894              		.cfi_startproc
 1895              		@ args = 0, pretend = 0, frame = 24
 1896              		@ frame_needed = 1, uses_anonymous_args = 0
 1897 0000 80B5     		push	{r7, lr}
 1898              		.cfi_def_cfa_offset 8
 1899              		.cfi_offset 7, -8
 1900              		.cfi_offset 14, -4
 1901 0002 86B0     		sub	sp, sp, #24
 1902              		.cfi_def_cfa_offset 32
 1903 0004 00AF     		add	r7, sp, #0
 1904              		.cfi_def_cfa_register 7
 1905 0006 F860     		str	r0, [r7, #12]
 1906 0008 B960     		str	r1, [r7, #8]
 1907 000a 1146     		mov	r1, r2
 1908 000c 1A46     		mov	r2, r3
 1909 000e 0B46     		mov	r3, r1
 1910 0010 FB71     		strb	r3, [r7, #7]
 1911 0012 1346     		mov	r3, r2
 1912 0014 BB71     		strb	r3, [r7, #6]
 569:..\..\..\lvgl\version_6.1.2\lvgl\src\lv_objx/lv_chart.c ****     LV_ASSERT_OBJ(chart, LV_OBJX_NAME);
 570:..\..\..\lvgl\version_6.1.2\lvgl\src\lv_objx/lv_chart.c ****     LV_ASSERT_NULL(list_of_values);
 571:..\..\..\lvgl\version_6.1.2\lvgl\src\lv_objx/lv_chart.c **** 
 572:..\..\..\lvgl\version_6.1.2\lvgl\src\lv_objx/lv_chart.c ****     lv_chart_ext_t * ext       = lv_obj_get_ext_attr(chart);
 1913              		.loc 3 572 0
 1914 0016 F868     		ldr	r0, [r7, #12]
 1915 0018 FFF7FEFF 		bl	lv_obj_get_ext_attr
 1916 001c 7861     		str	r0, [r7, #20]
 573:..\..\..\lvgl\version_6.1.2\lvgl\src\lv_objx/lv_chart.c ****     ext->y_axis.num_tick_marks = num_tick_marks;
 1917              		.loc 3 573 0
 1918 001e 7B69     		ldr	r3, [r7, #20]
 1919 0020 FA79     		ldrb	r2, [r7, #7]
 1920 0022 5A77     		strb	r2, [r3, #29]
 574:..\..\..\lvgl\version_6.1.2\lvgl\src\lv_objx/lv_chart.c ****     ext->y_axis.list_of_values = list_of_values;
 1921              		.loc 3 574 0
 1922 0024 7B69     		ldr	r3, [r7, #20]
 1923 0026 BA68     		ldr	r2, [r7, #8]
 1924 0028 9A61     		str	r2, [r3, #24]
 575:..\..\..\lvgl\version_6.1.2\lvgl\src\lv_objx/lv_chart.c ****     ext->y_axis.options        = options;
 1925              		.loc 3 575 0
 1926 002a 7B69     		ldr	r3, [r7, #20]
 1927 002c BA79     		ldrb	r2, [r7, #6]
 1928 002e 1A77     		strb	r2, [r3, #28]
 576:..\..\..\lvgl\version_6.1.2\lvgl\src\lv_objx/lv_chart.c **** }
 1929              		.loc 3 576 0
 1930 0030 00BF     		nop
 1931 0032 1837     		adds	r7, r7, #24
 1932              		.cfi_def_cfa_offset 8
 1933 0034 BD46     		mov	sp, r7
 1934              		.cfi_def_cfa_register 13
 1935              		@ sp needed
 1936 0036 80BD     		pop	{r7, pc}
 1937              		.cfi_endproc
 1938              	.LFE53:
ARM GAS  C:\Users\tmj32\AppData\Local\Temp\ccrrExWC.s 			page 58


 1939              		.size	lv_chart_set_y_tick_texts, .-lv_chart_set_y_tick_texts
 1940              		.section	.text.lv_chart_set_secondary_y_tick_texts,"ax",%progbits
 1941              		.align	2
 1942              		.global	lv_chart_set_secondary_y_tick_texts
 1943              		.thumb
 1944              		.thumb_func
 1945              		.type	lv_chart_set_secondary_y_tick_texts, %function
 1946              	lv_chart_set_secondary_y_tick_texts:
 1947              	.LFB54:
 577:..\..\..\lvgl\version_6.1.2\lvgl\src\lv_objx/lv_chart.c **** 
 578:..\..\..\lvgl\version_6.1.2\lvgl\src\lv_objx/lv_chart.c **** /**
 579:..\..\..\lvgl\version_6.1.2\lvgl\src\lv_objx/lv_chart.c ****  * Set the secondary y-axis tick count and labels of a chart
 580:..\..\..\lvgl\version_6.1.2\lvgl\src\lv_objx/lv_chart.c ****  * @param chart             pointer to a chart object
 581:..\..\..\lvgl\version_6.1.2\lvgl\src\lv_objx/lv_chart.c ****  * @param list_of_values    list of string values, terminated with \n, except the last
 582:..\..\..\lvgl\version_6.1.2\lvgl\src\lv_objx/lv_chart.c ****  * @param num_tick_marks    if list_of_values is NULL: total number of ticks per axis
 583:..\..\..\lvgl\version_6.1.2\lvgl\src\lv_objx/lv_chart.c ****  *                          else number of ticks between two value labels
 584:..\..\..\lvgl\version_6.1.2\lvgl\src\lv_objx/lv_chart.c ****  * @param options           extra options
 585:..\..\..\lvgl\version_6.1.2\lvgl\src\lv_objx/lv_chart.c ****  */
 586:..\..\..\lvgl\version_6.1.2\lvgl\src\lv_objx/lv_chart.c **** void lv_chart_set_secondary_y_tick_texts(lv_obj_t * chart, const char * list_of_values, uint8_t num
 587:..\..\..\lvgl\version_6.1.2\lvgl\src\lv_objx/lv_chart.c ****                                         lv_chart_axis_options_t options)
 588:..\..\..\lvgl\version_6.1.2\lvgl\src\lv_objx/lv_chart.c **** {
 1948              		.loc 3 588 0
 1949              		.cfi_startproc
 1950              		@ args = 0, pretend = 0, frame = 24
 1951              		@ frame_needed = 1, uses_anonymous_args = 0
 1952 0000 80B5     		push	{r7, lr}
 1953              		.cfi_def_cfa_offset 8
 1954              		.cfi_offset 7, -8
 1955              		.cfi_offset 14, -4
 1956 0002 86B0     		sub	sp, sp, #24
 1957              		.cfi_def_cfa_offset 32
 1958 0004 00AF     		add	r7, sp, #0
 1959              		.cfi_def_cfa_register 7
 1960 0006 F860     		str	r0, [r7, #12]
 1961 0008 B960     		str	r1, [r7, #8]
 1962 000a 1146     		mov	r1, r2
 1963 000c 1A46     		mov	r2, r3
 1964 000e 0B46     		mov	r3, r1
 1965 0010 FB71     		strb	r3, [r7, #7]
 1966 0012 1346     		mov	r3, r2
 1967 0014 BB71     		strb	r3, [r7, #6]
 589:..\..\..\lvgl\version_6.1.2\lvgl\src\lv_objx/lv_chart.c ****     LV_ASSERT_OBJ(chart, LV_OBJX_NAME);
 590:..\..\..\lvgl\version_6.1.2\lvgl\src\lv_objx/lv_chart.c ****     LV_ASSERT_NULL(list_of_values);
 591:..\..\..\lvgl\version_6.1.2\lvgl\src\lv_objx/lv_chart.c **** 
 592:..\..\..\lvgl\version_6.1.2\lvgl\src\lv_objx/lv_chart.c ****     lv_chart_ext_t * ext       = lv_obj_get_ext_attr(chart);
 1968              		.loc 3 592 0
 1969 0016 F868     		ldr	r0, [r7, #12]
 1970 0018 FFF7FEFF 		bl	lv_obj_get_ext_attr
 1971 001c 7861     		str	r0, [r7, #20]
 593:..\..\..\lvgl\version_6.1.2\lvgl\src\lv_objx/lv_chart.c ****     ext->secondary_y_axis.num_tick_marks = num_tick_marks;
 1972              		.loc 3 593 0
 1973 001e 7B69     		ldr	r3, [r7, #20]
 1974 0020 FA79     		ldrb	r2, [r7, #7]
 1975 0022 83F82D20 		strb	r2, [r3, #45]
 594:..\..\..\lvgl\version_6.1.2\lvgl\src\lv_objx/lv_chart.c ****     ext->secondary_y_axis.list_of_values = list_of_values;
 1976              		.loc 3 594 0
 1977 0026 7B69     		ldr	r3, [r7, #20]
ARM GAS  C:\Users\tmj32\AppData\Local\Temp\ccrrExWC.s 			page 59


 1978 0028 BA68     		ldr	r2, [r7, #8]
 1979 002a 9A62     		str	r2, [r3, #40]
 595:..\..\..\lvgl\version_6.1.2\lvgl\src\lv_objx/lv_chart.c ****     ext->secondary_y_axis.options        = options;
 1980              		.loc 3 595 0
 1981 002c 7B69     		ldr	r3, [r7, #20]
 1982 002e BA79     		ldrb	r2, [r7, #6]
 1983 0030 83F82C20 		strb	r2, [r3, #44]
 596:..\..\..\lvgl\version_6.1.2\lvgl\src\lv_objx/lv_chart.c **** }
 1984              		.loc 3 596 0
 1985 0034 00BF     		nop
 1986 0036 1837     		adds	r7, r7, #24
 1987              		.cfi_def_cfa_offset 8
 1988 0038 BD46     		mov	sp, r7
 1989              		.cfi_def_cfa_register 13
 1990              		@ sp needed
 1991 003a 80BD     		pop	{r7, pc}
 1992              		.cfi_endproc
 1993              	.LFE54:
 1994              		.size	lv_chart_set_secondary_y_tick_texts, .-lv_chart_set_secondary_y_tick_texts
 1995              		.section	.text.lv_chart_set_margin,"ax",%progbits
 1996              		.align	2
 1997              		.global	lv_chart_set_margin
 1998              		.thumb
 1999              		.thumb_func
 2000              		.type	lv_chart_set_margin, %function
 2001              	lv_chart_set_margin:
 2002              	.LFB55:
 597:..\..\..\lvgl\version_6.1.2\lvgl\src\lv_objx/lv_chart.c **** 
 598:..\..\..\lvgl\version_6.1.2\lvgl\src\lv_objx/lv_chart.c **** /**
 599:..\..\..\lvgl\version_6.1.2\lvgl\src\lv_objx/lv_chart.c ****  * Set the margin around the chart, used for axes value and ticks
 600:..\..\..\lvgl\version_6.1.2\lvgl\src\lv_objx/lv_chart.c ****  * @param chart     pointer to an chart object
 601:..\..\..\lvgl\version_6.1.2\lvgl\src\lv_objx/lv_chart.c ****  * @param margin    value of the margin [px]
 602:..\..\..\lvgl\version_6.1.2\lvgl\src\lv_objx/lv_chart.c ****  */
 603:..\..\..\lvgl\version_6.1.2\lvgl\src\lv_objx/lv_chart.c **** void lv_chart_set_margin(lv_obj_t * chart, uint16_t margin)
 604:..\..\..\lvgl\version_6.1.2\lvgl\src\lv_objx/lv_chart.c **** {
 2003              		.loc 3 604 0
 2004              		.cfi_startproc
 2005              		@ args = 0, pretend = 0, frame = 16
 2006              		@ frame_needed = 1, uses_anonymous_args = 0
 2007 0000 80B5     		push	{r7, lr}
 2008              		.cfi_def_cfa_offset 8
 2009              		.cfi_offset 7, -8
 2010              		.cfi_offset 14, -4
 2011 0002 84B0     		sub	sp, sp, #16
 2012              		.cfi_def_cfa_offset 24
 2013 0004 00AF     		add	r7, sp, #0
 2014              		.cfi_def_cfa_register 7
 2015 0006 7860     		str	r0, [r7, #4]
 2016 0008 0B46     		mov	r3, r1
 2017 000a 7B80     		strh	r3, [r7, #2]	@ movhi
 605:..\..\..\lvgl\version_6.1.2\lvgl\src\lv_objx/lv_chart.c ****     LV_ASSERT_OBJ(chart, LV_OBJX_NAME);
 606:..\..\..\lvgl\version_6.1.2\lvgl\src\lv_objx/lv_chart.c **** 
 607:..\..\..\lvgl\version_6.1.2\lvgl\src\lv_objx/lv_chart.c ****     lv_chart_ext_t * ext = lv_obj_get_ext_attr(chart);
 2018              		.loc 3 607 0
 2019 000c 7868     		ldr	r0, [r7, #4]
 2020 000e FFF7FEFF 		bl	lv_obj_get_ext_attr
 2021 0012 F860     		str	r0, [r7, #12]
ARM GAS  C:\Users\tmj32\AppData\Local\Temp\ccrrExWC.s 			page 60


 608:..\..\..\lvgl\version_6.1.2\lvgl\src\lv_objx/lv_chart.c ****     ext->margin          = margin;
 2022              		.loc 3 608 0
 2023 0014 FB68     		ldr	r3, [r7, #12]
 2024 0016 7A88     		ldrh	r2, [r7, #2]	@ movhi
 2025 0018 1A86     		strh	r2, [r3, #48]	@ movhi
 609:..\..\..\lvgl\version_6.1.2\lvgl\src\lv_objx/lv_chart.c ****     lv_obj_refresh_ext_draw_pad(chart);
 2026              		.loc 3 609 0
 2027 001a 7868     		ldr	r0, [r7, #4]
 2028 001c FFF7FEFF 		bl	lv_obj_refresh_ext_draw_pad
 610:..\..\..\lvgl\version_6.1.2\lvgl\src\lv_objx/lv_chart.c **** }
 2029              		.loc 3 610 0
 2030 0020 00BF     		nop
 2031 0022 1037     		adds	r7, r7, #16
 2032              		.cfi_def_cfa_offset 8
 2033 0024 BD46     		mov	sp, r7
 2034              		.cfi_def_cfa_register 13
 2035              		@ sp needed
 2036 0026 80BD     		pop	{r7, pc}
 2037              		.cfi_endproc
 2038              	.LFE55:
 2039              		.size	lv_chart_set_margin, .-lv_chart_set_margin
 2040              		.section	.text.lv_chart_get_type,"ax",%progbits
 2041              		.align	2
 2042              		.global	lv_chart_get_type
 2043              		.thumb
 2044              		.thumb_func
 2045              		.type	lv_chart_get_type, %function
 2046              	lv_chart_get_type:
 2047              	.LFB56:
 611:..\..\..\lvgl\version_6.1.2\lvgl\src\lv_objx/lv_chart.c **** 
 612:..\..\..\lvgl\version_6.1.2\lvgl\src\lv_objx/lv_chart.c **** /*=====================
 613:..\..\..\lvgl\version_6.1.2\lvgl\src\lv_objx/lv_chart.c ****  * Getter functions
 614:..\..\..\lvgl\version_6.1.2\lvgl\src\lv_objx/lv_chart.c ****  *====================*/
 615:..\..\..\lvgl\version_6.1.2\lvgl\src\lv_objx/lv_chart.c **** 
 616:..\..\..\lvgl\version_6.1.2\lvgl\src\lv_objx/lv_chart.c **** /**
 617:..\..\..\lvgl\version_6.1.2\lvgl\src\lv_objx/lv_chart.c ****  * Get the type of a chart
 618:..\..\..\lvgl\version_6.1.2\lvgl\src\lv_objx/lv_chart.c ****  * @param chart pointer to chart object
 619:..\..\..\lvgl\version_6.1.2\lvgl\src\lv_objx/lv_chart.c ****  * @return type of the chart (from 'lv_chart_t' enum)
 620:..\..\..\lvgl\version_6.1.2\lvgl\src\lv_objx/lv_chart.c ****  */
 621:..\..\..\lvgl\version_6.1.2\lvgl\src\lv_objx/lv_chart.c **** lv_chart_type_t lv_chart_get_type(const lv_obj_t * chart)
 622:..\..\..\lvgl\version_6.1.2\lvgl\src\lv_objx/lv_chart.c **** {
 2048              		.loc 3 622 0
 2049              		.cfi_startproc
 2050              		@ args = 0, pretend = 0, frame = 16
 2051              		@ frame_needed = 1, uses_anonymous_args = 0
 2052 0000 80B5     		push	{r7, lr}
 2053              		.cfi_def_cfa_offset 8
 2054              		.cfi_offset 7, -8
 2055              		.cfi_offset 14, -4
 2056 0002 84B0     		sub	sp, sp, #16
 2057              		.cfi_def_cfa_offset 24
 2058 0004 00AF     		add	r7, sp, #0
 2059              		.cfi_def_cfa_register 7
 2060 0006 7860     		str	r0, [r7, #4]
 623:..\..\..\lvgl\version_6.1.2\lvgl\src\lv_objx/lv_chart.c ****     LV_ASSERT_OBJ(chart, LV_OBJX_NAME);
 624:..\..\..\lvgl\version_6.1.2\lvgl\src\lv_objx/lv_chart.c **** 
 625:..\..\..\lvgl\version_6.1.2\lvgl\src\lv_objx/lv_chart.c ****     lv_chart_ext_t * ext = lv_obj_get_ext_attr(chart);
ARM GAS  C:\Users\tmj32\AppData\Local\Temp\ccrrExWC.s 			page 61


 2061              		.loc 3 625 0
 2062 0008 7868     		ldr	r0, [r7, #4]
 2063 000a FFF7FEFF 		bl	lv_obj_get_ext_attr
 2064 000e F860     		str	r0, [r7, #12]
 626:..\..\..\lvgl\version_6.1.2\lvgl\src\lv_objx/lv_chart.c ****     return ext->type;
 2065              		.loc 3 626 0
 2066 0010 FB68     		ldr	r3, [r7, #12]
 2067 0012 1B7D     		ldrb	r3, [r3, #20]	@ zero_extendqisi2
 627:..\..\..\lvgl\version_6.1.2\lvgl\src\lv_objx/lv_chart.c **** }
 2068              		.loc 3 627 0
 2069 0014 1846     		mov	r0, r3
 2070 0016 1037     		adds	r7, r7, #16
 2071              		.cfi_def_cfa_offset 8
 2072 0018 BD46     		mov	sp, r7
 2073              		.cfi_def_cfa_register 13
 2074              		@ sp needed
 2075 001a 80BD     		pop	{r7, pc}
 2076              		.cfi_endproc
 2077              	.LFE56:
 2078              		.size	lv_chart_get_type, .-lv_chart_get_type
 2079              		.section	.text.lv_chart_get_point_cnt,"ax",%progbits
 2080              		.align	2
 2081              		.global	lv_chart_get_point_cnt
 2082              		.thumb
 2083              		.thumb_func
 2084              		.type	lv_chart_get_point_cnt, %function
 2085              	lv_chart_get_point_cnt:
 2086              	.LFB57:
 628:..\..\..\lvgl\version_6.1.2\lvgl\src\lv_objx/lv_chart.c **** 
 629:..\..\..\lvgl\version_6.1.2\lvgl\src\lv_objx/lv_chart.c **** /**
 630:..\..\..\lvgl\version_6.1.2\lvgl\src\lv_objx/lv_chart.c ****  * Get the data point number per data line on chart
 631:..\..\..\lvgl\version_6.1.2\lvgl\src\lv_objx/lv_chart.c ****  * @param chart pointer to chart object
 632:..\..\..\lvgl\version_6.1.2\lvgl\src\lv_objx/lv_chart.c ****  * @return point number on each data line
 633:..\..\..\lvgl\version_6.1.2\lvgl\src\lv_objx/lv_chart.c ****  */
 634:..\..\..\lvgl\version_6.1.2\lvgl\src\lv_objx/lv_chart.c **** uint16_t lv_chart_get_point_cnt(const lv_obj_t * chart)
 635:..\..\..\lvgl\version_6.1.2\lvgl\src\lv_objx/lv_chart.c **** {
 2087              		.loc 3 635 0
 2088              		.cfi_startproc
 2089              		@ args = 0, pretend = 0, frame = 16
 2090              		@ frame_needed = 1, uses_anonymous_args = 0
 2091 0000 80B5     		push	{r7, lr}
 2092              		.cfi_def_cfa_offset 8
 2093              		.cfi_offset 7, -8
 2094              		.cfi_offset 14, -4
 2095 0002 84B0     		sub	sp, sp, #16
 2096              		.cfi_def_cfa_offset 24
 2097 0004 00AF     		add	r7, sp, #0
 2098              		.cfi_def_cfa_register 7
 2099 0006 7860     		str	r0, [r7, #4]
 636:..\..\..\lvgl\version_6.1.2\lvgl\src\lv_objx/lv_chart.c ****     LV_ASSERT_OBJ(chart, LV_OBJX_NAME);
 637:..\..\..\lvgl\version_6.1.2\lvgl\src\lv_objx/lv_chart.c **** 
 638:..\..\..\lvgl\version_6.1.2\lvgl\src\lv_objx/lv_chart.c ****     lv_chart_ext_t * ext = lv_obj_get_ext_attr(chart);
 2100              		.loc 3 638 0
 2101 0008 7868     		ldr	r0, [r7, #4]
 2102 000a FFF7FEFF 		bl	lv_obj_get_ext_attr
 2103 000e F860     		str	r0, [r7, #12]
 639:..\..\..\lvgl\version_6.1.2\lvgl\src\lv_objx/lv_chart.c ****     return ext->point_cnt;
ARM GAS  C:\Users\tmj32\AppData\Local\Temp\ccrrExWC.s 			page 62


 2104              		.loc 3 639 0
 2105 0010 FB68     		ldr	r3, [r7, #12]
 2106 0012 5B8A     		ldrh	r3, [r3, #18]
 640:..\..\..\lvgl\version_6.1.2\lvgl\src\lv_objx/lv_chart.c **** }
 2107              		.loc 3 640 0
 2108 0014 1846     		mov	r0, r3
 2109 0016 1037     		adds	r7, r7, #16
 2110              		.cfi_def_cfa_offset 8
 2111 0018 BD46     		mov	sp, r7
 2112              		.cfi_def_cfa_register 13
 2113              		@ sp needed
 2114 001a 80BD     		pop	{r7, pc}
 2115              		.cfi_endproc
 2116              	.LFE57:
 2117              		.size	lv_chart_get_point_cnt, .-lv_chart_get_point_cnt
 2118              		.section	.text.lv_chart_get_series_opa,"ax",%progbits
 2119              		.align	2
 2120              		.global	lv_chart_get_series_opa
 2121              		.thumb
 2122              		.thumb_func
 2123              		.type	lv_chart_get_series_opa, %function
 2124              	lv_chart_get_series_opa:
 2125              	.LFB58:
 641:..\..\..\lvgl\version_6.1.2\lvgl\src\lv_objx/lv_chart.c **** 
 642:..\..\..\lvgl\version_6.1.2\lvgl\src\lv_objx/lv_chart.c **** /**
 643:..\..\..\lvgl\version_6.1.2\lvgl\src\lv_objx/lv_chart.c ****  * Get the opacity of the data series
 644:..\..\..\lvgl\version_6.1.2\lvgl\src\lv_objx/lv_chart.c ****  * @param chart pointer to chart object
 645:..\..\..\lvgl\version_6.1.2\lvgl\src\lv_objx/lv_chart.c ****  * @return the opacity of the data series
 646:..\..\..\lvgl\version_6.1.2\lvgl\src\lv_objx/lv_chart.c ****  */
 647:..\..\..\lvgl\version_6.1.2\lvgl\src\lv_objx/lv_chart.c **** lv_opa_t lv_chart_get_series_opa(const lv_obj_t * chart)
 648:..\..\..\lvgl\version_6.1.2\lvgl\src\lv_objx/lv_chart.c **** {
 2126              		.loc 3 648 0
 2127              		.cfi_startproc
 2128              		@ args = 0, pretend = 0, frame = 16
 2129              		@ frame_needed = 1, uses_anonymous_args = 0
 2130 0000 80B5     		push	{r7, lr}
 2131              		.cfi_def_cfa_offset 8
 2132              		.cfi_offset 7, -8
 2133              		.cfi_offset 14, -4
 2134 0002 84B0     		sub	sp, sp, #16
 2135              		.cfi_def_cfa_offset 24
 2136 0004 00AF     		add	r7, sp, #0
 2137              		.cfi_def_cfa_register 7
 2138 0006 7860     		str	r0, [r7, #4]
 649:..\..\..\lvgl\version_6.1.2\lvgl\src\lv_objx/lv_chart.c ****     LV_ASSERT_OBJ(chart, LV_OBJX_NAME);
 650:..\..\..\lvgl\version_6.1.2\lvgl\src\lv_objx/lv_chart.c **** 
 651:..\..\..\lvgl\version_6.1.2\lvgl\src\lv_objx/lv_chart.c ****     lv_chart_ext_t * ext = lv_obj_get_ext_attr(chart);
 2139              		.loc 3 651 0
 2140 0008 7868     		ldr	r0, [r7, #4]
 2141 000a FFF7FEFF 		bl	lv_obj_get_ext_attr
 2142 000e F860     		str	r0, [r7, #12]
 652:..\..\..\lvgl\version_6.1.2\lvgl\src\lv_objx/lv_chart.c ****     return ext->series.opa;
 2143              		.loc 3 652 0
 2144 0010 FB68     		ldr	r3, [r7, #12]
 2145 0012 93F83730 		ldrb	r3, [r3, #55]	@ zero_extendqisi2
 653:..\..\..\lvgl\version_6.1.2\lvgl\src\lv_objx/lv_chart.c **** }
 2146              		.loc 3 653 0
ARM GAS  C:\Users\tmj32\AppData\Local\Temp\ccrrExWC.s 			page 63


 2147 0016 1846     		mov	r0, r3
 2148 0018 1037     		adds	r7, r7, #16
 2149              		.cfi_def_cfa_offset 8
 2150 001a BD46     		mov	sp, r7
 2151              		.cfi_def_cfa_register 13
 2152              		@ sp needed
 2153 001c 80BD     		pop	{r7, pc}
 2154              		.cfi_endproc
 2155              	.LFE58:
 2156              		.size	lv_chart_get_series_opa, .-lv_chart_get_series_opa
 2157 001e 00BF     		.section	.text.lv_chart_get_series_width,"ax",%progbits
 2158              		.align	2
 2159              		.global	lv_chart_get_series_width
 2160              		.thumb
 2161              		.thumb_func
 2162              		.type	lv_chart_get_series_width, %function
 2163              	lv_chart_get_series_width:
 2164              	.LFB59:
 654:..\..\..\lvgl\version_6.1.2\lvgl\src\lv_objx/lv_chart.c **** 
 655:..\..\..\lvgl\version_6.1.2\lvgl\src\lv_objx/lv_chart.c **** /**
 656:..\..\..\lvgl\version_6.1.2\lvgl\src\lv_objx/lv_chart.c ****  * Get the data series width
 657:..\..\..\lvgl\version_6.1.2\lvgl\src\lv_objx/lv_chart.c ****  * @param chart pointer to chart object
 658:..\..\..\lvgl\version_6.1.2\lvgl\src\lv_objx/lv_chart.c ****  * @return the width the data series (lines or points)
 659:..\..\..\lvgl\version_6.1.2\lvgl\src\lv_objx/lv_chart.c ****  */
 660:..\..\..\lvgl\version_6.1.2\lvgl\src\lv_objx/lv_chart.c **** lv_coord_t lv_chart_get_series_width(const lv_obj_t * chart)
 661:..\..\..\lvgl\version_6.1.2\lvgl\src\lv_objx/lv_chart.c **** {
 2165              		.loc 3 661 0
 2166              		.cfi_startproc
 2167              		@ args = 0, pretend = 0, frame = 16
 2168              		@ frame_needed = 1, uses_anonymous_args = 0
 2169 0000 80B5     		push	{r7, lr}
 2170              		.cfi_def_cfa_offset 8
 2171              		.cfi_offset 7, -8
 2172              		.cfi_offset 14, -4
 2173 0002 84B0     		sub	sp, sp, #16
 2174              		.cfi_def_cfa_offset 24
 2175 0004 00AF     		add	r7, sp, #0
 2176              		.cfi_def_cfa_register 7
 2177 0006 7860     		str	r0, [r7, #4]
 662:..\..\..\lvgl\version_6.1.2\lvgl\src\lv_objx/lv_chart.c ****     LV_ASSERT_OBJ(chart, LV_OBJX_NAME);
 663:..\..\..\lvgl\version_6.1.2\lvgl\src\lv_objx/lv_chart.c **** 
 664:..\..\..\lvgl\version_6.1.2\lvgl\src\lv_objx/lv_chart.c ****     lv_chart_ext_t * ext = lv_obj_get_ext_attr(chart);
 2178              		.loc 3 664 0
 2179 0008 7868     		ldr	r0, [r7, #4]
 2180 000a FFF7FEFF 		bl	lv_obj_get_ext_attr
 2181 000e F860     		str	r0, [r7, #12]
 665:..\..\..\lvgl\version_6.1.2\lvgl\src\lv_objx/lv_chart.c ****     return ext->series.width;
 2182              		.loc 3 665 0
 2183 0010 FB68     		ldr	r3, [r7, #12]
 2184 0012 B3F93430 		ldrsh	r3, [r3, #52]
 666:..\..\..\lvgl\version_6.1.2\lvgl\src\lv_objx/lv_chart.c **** }
 2185              		.loc 3 666 0
 2186 0016 1846     		mov	r0, r3
 2187 0018 1037     		adds	r7, r7, #16
 2188              		.cfi_def_cfa_offset 8
 2189 001a BD46     		mov	sp, r7
 2190              		.cfi_def_cfa_register 13
ARM GAS  C:\Users\tmj32\AppData\Local\Temp\ccrrExWC.s 			page 64


 2191              		@ sp needed
 2192 001c 80BD     		pop	{r7, pc}
 2193              		.cfi_endproc
 2194              	.LFE59:
 2195              		.size	lv_chart_get_series_width, .-lv_chart_get_series_width
 2196 001e 00BF     		.section	.text.lv_chart_get_series_darking,"ax",%progbits
 2197              		.align	2
 2198              		.global	lv_chart_get_series_darking
 2199              		.thumb
 2200              		.thumb_func
 2201              		.type	lv_chart_get_series_darking, %function
 2202              	lv_chart_get_series_darking:
 2203              	.LFB60:
 667:..\..\..\lvgl\version_6.1.2\lvgl\src\lv_objx/lv_chart.c **** 
 668:..\..\..\lvgl\version_6.1.2\lvgl\src\lv_objx/lv_chart.c **** /**
 669:..\..\..\lvgl\version_6.1.2\lvgl\src\lv_objx/lv_chart.c ****  * Get the dark effect level on the bottom of the points or columns
 670:..\..\..\lvgl\version_6.1.2\lvgl\src\lv_objx/lv_chart.c ****  * @param chart pointer to chart object
 671:..\..\..\lvgl\version_6.1.2\lvgl\src\lv_objx/lv_chart.c ****  * @return dark effect level (LV_OPA_TRANSP to turn off)
 672:..\..\..\lvgl\version_6.1.2\lvgl\src\lv_objx/lv_chart.c ****  */
 673:..\..\..\lvgl\version_6.1.2\lvgl\src\lv_objx/lv_chart.c **** lv_opa_t lv_chart_get_series_darking(const lv_obj_t * chart)
 674:..\..\..\lvgl\version_6.1.2\lvgl\src\lv_objx/lv_chart.c **** {
 2204              		.loc 3 674 0
 2205              		.cfi_startproc
 2206              		@ args = 0, pretend = 0, frame = 16
 2207              		@ frame_needed = 1, uses_anonymous_args = 0
 2208 0000 80B5     		push	{r7, lr}
 2209              		.cfi_def_cfa_offset 8
 2210              		.cfi_offset 7, -8
 2211              		.cfi_offset 14, -4
 2212 0002 84B0     		sub	sp, sp, #16
 2213              		.cfi_def_cfa_offset 24
 2214 0004 00AF     		add	r7, sp, #0
 2215              		.cfi_def_cfa_register 7
 2216 0006 7860     		str	r0, [r7, #4]
 675:..\..\..\lvgl\version_6.1.2\lvgl\src\lv_objx/lv_chart.c ****     LV_ASSERT_OBJ(chart, LV_OBJX_NAME);
 676:..\..\..\lvgl\version_6.1.2\lvgl\src\lv_objx/lv_chart.c **** 
 677:..\..\..\lvgl\version_6.1.2\lvgl\src\lv_objx/lv_chart.c ****     lv_chart_ext_t * ext = lv_obj_get_ext_attr(chart);
 2217              		.loc 3 677 0
 2218 0008 7868     		ldr	r0, [r7, #4]
 2219 000a FFF7FEFF 		bl	lv_obj_get_ext_attr
 2220 000e F860     		str	r0, [r7, #12]
 678:..\..\..\lvgl\version_6.1.2\lvgl\src\lv_objx/lv_chart.c ****     return ext->series.dark;
 2221              		.loc 3 678 0
 2222 0010 FB68     		ldr	r3, [r7, #12]
 2223 0012 93F83830 		ldrb	r3, [r3, #56]	@ zero_extendqisi2
 679:..\..\..\lvgl\version_6.1.2\lvgl\src\lv_objx/lv_chart.c **** }
 2224              		.loc 3 679 0
 2225 0016 1846     		mov	r0, r3
 2226 0018 1037     		adds	r7, r7, #16
 2227              		.cfi_def_cfa_offset 8
 2228 001a BD46     		mov	sp, r7
 2229              		.cfi_def_cfa_register 13
 2230              		@ sp needed
 2231 001c 80BD     		pop	{r7, pc}
 2232              		.cfi_endproc
 2233              	.LFE60:
 2234              		.size	lv_chart_get_series_darking, .-lv_chart_get_series_darking
ARM GAS  C:\Users\tmj32\AppData\Local\Temp\ccrrExWC.s 			page 65


 2235 001e 00BF     		.section	.text.lv_chart_refresh,"ax",%progbits
 2236              		.align	2
 2237              		.global	lv_chart_refresh
 2238              		.thumb
 2239              		.thumb_func
 2240              		.type	lv_chart_refresh, %function
 2241              	lv_chart_refresh:
 2242              	.LFB61:
 680:..\..\..\lvgl\version_6.1.2\lvgl\src\lv_objx/lv_chart.c **** 
 681:..\..\..\lvgl\version_6.1.2\lvgl\src\lv_objx/lv_chart.c **** /*=====================
 682:..\..\..\lvgl\version_6.1.2\lvgl\src\lv_objx/lv_chart.c ****  * Other functions
 683:..\..\..\lvgl\version_6.1.2\lvgl\src\lv_objx/lv_chart.c ****  *====================*/
 684:..\..\..\lvgl\version_6.1.2\lvgl\src\lv_objx/lv_chart.c **** 
 685:..\..\..\lvgl\version_6.1.2\lvgl\src\lv_objx/lv_chart.c **** /**
 686:..\..\..\lvgl\version_6.1.2\lvgl\src\lv_objx/lv_chart.c ****  * Refresh a chart if its data line has changed
 687:..\..\..\lvgl\version_6.1.2\lvgl\src\lv_objx/lv_chart.c ****  * @param chart pointer to chart object
 688:..\..\..\lvgl\version_6.1.2\lvgl\src\lv_objx/lv_chart.c ****  */
 689:..\..\..\lvgl\version_6.1.2\lvgl\src\lv_objx/lv_chart.c **** void lv_chart_refresh(lv_obj_t * chart)
 690:..\..\..\lvgl\version_6.1.2\lvgl\src\lv_objx/lv_chart.c **** {
 2243              		.loc 3 690 0
 2244              		.cfi_startproc
 2245              		@ args = 0, pretend = 0, frame = 8
 2246              		@ frame_needed = 1, uses_anonymous_args = 0
 2247 0000 80B5     		push	{r7, lr}
 2248              		.cfi_def_cfa_offset 8
 2249              		.cfi_offset 7, -8
 2250              		.cfi_offset 14, -4
 2251 0002 82B0     		sub	sp, sp, #8
 2252              		.cfi_def_cfa_offset 16
 2253 0004 00AF     		add	r7, sp, #0
 2254              		.cfi_def_cfa_register 7
 2255 0006 7860     		str	r0, [r7, #4]
 691:..\..\..\lvgl\version_6.1.2\lvgl\src\lv_objx/lv_chart.c ****     LV_ASSERT_OBJ(chart, LV_OBJX_NAME);
 692:..\..\..\lvgl\version_6.1.2\lvgl\src\lv_objx/lv_chart.c **** 
 693:..\..\..\lvgl\version_6.1.2\lvgl\src\lv_objx/lv_chart.c ****     lv_obj_invalidate(chart);
 2256              		.loc 3 693 0
 2257 0008 7868     		ldr	r0, [r7, #4]
 2258 000a FFF7FEFF 		bl	lv_obj_invalidate
 694:..\..\..\lvgl\version_6.1.2\lvgl\src\lv_objx/lv_chart.c **** }
 2259              		.loc 3 694 0
 2260 000e 00BF     		nop
 2261 0010 0837     		adds	r7, r7, #8
 2262              		.cfi_def_cfa_offset 8
 2263 0012 BD46     		mov	sp, r7
 2264              		.cfi_def_cfa_register 13
 2265              		@ sp needed
 2266 0014 80BD     		pop	{r7, pc}
 2267              		.cfi_endproc
 2268              	.LFE61:
 2269              		.size	lv_chart_refresh, .-lv_chart_refresh
 2270 0016 00BF     		.section	.text.lv_chart_get_margin,"ax",%progbits
 2271              		.align	2
 2272              		.global	lv_chart_get_margin
 2273              		.thumb
 2274              		.thumb_func
 2275              		.type	lv_chart_get_margin, %function
 2276              	lv_chart_get_margin:
ARM GAS  C:\Users\tmj32\AppData\Local\Temp\ccrrExWC.s 			page 66


 2277              	.LFB62:
 695:..\..\..\lvgl\version_6.1.2\lvgl\src\lv_objx/lv_chart.c **** 
 696:..\..\..\lvgl\version_6.1.2\lvgl\src\lv_objx/lv_chart.c **** /**
 697:..\..\..\lvgl\version_6.1.2\lvgl\src\lv_objx/lv_chart.c ****  * Get the margin around the chart, used for axes value and labels
 698:..\..\..\lvgl\version_6.1.2\lvgl\src\lv_objx/lv_chart.c ****  * @param chart pointer to an chart object
 699:..\..\..\lvgl\version_6.1.2\lvgl\src\lv_objx/lv_chart.c ****  * @param return value of the margin
 700:..\..\..\lvgl\version_6.1.2\lvgl\src\lv_objx/lv_chart.c ****  */
 701:..\..\..\lvgl\version_6.1.2\lvgl\src\lv_objx/lv_chart.c **** uint16_t lv_chart_get_margin(lv_obj_t * chart)
 702:..\..\..\lvgl\version_6.1.2\lvgl\src\lv_objx/lv_chart.c **** {
 2278              		.loc 3 702 0
 2279              		.cfi_startproc
 2280              		@ args = 0, pretend = 0, frame = 16
 2281              		@ frame_needed = 1, uses_anonymous_args = 0
 2282 0000 80B5     		push	{r7, lr}
 2283              		.cfi_def_cfa_offset 8
 2284              		.cfi_offset 7, -8
 2285              		.cfi_offset 14, -4
 2286 0002 84B0     		sub	sp, sp, #16
 2287              		.cfi_def_cfa_offset 24
 2288 0004 00AF     		add	r7, sp, #0
 2289              		.cfi_def_cfa_register 7
 2290 0006 7860     		str	r0, [r7, #4]
 703:..\..\..\lvgl\version_6.1.2\lvgl\src\lv_objx/lv_chart.c ****     LV_ASSERT_OBJ(chart, LV_OBJX_NAME);
 704:..\..\..\lvgl\version_6.1.2\lvgl\src\lv_objx/lv_chart.c **** 
 705:..\..\..\lvgl\version_6.1.2\lvgl\src\lv_objx/lv_chart.c ****     lv_chart_ext_t * ext = lv_obj_get_ext_attr(chart);
 2291              		.loc 3 705 0
 2292 0008 7868     		ldr	r0, [r7, #4]
 2293 000a FFF7FEFF 		bl	lv_obj_get_ext_attr
 2294 000e F860     		str	r0, [r7, #12]
 706:..\..\..\lvgl\version_6.1.2\lvgl\src\lv_objx/lv_chart.c ****     return ext->margin;
 2295              		.loc 3 706 0
 2296 0010 FB68     		ldr	r3, [r7, #12]
 2297 0012 1B8E     		ldrh	r3, [r3, #48]
 707:..\..\..\lvgl\version_6.1.2\lvgl\src\lv_objx/lv_chart.c **** }
 2298              		.loc 3 707 0
 2299 0014 1846     		mov	r0, r3
 2300 0016 1037     		adds	r7, r7, #16
 2301              		.cfi_def_cfa_offset 8
 2302 0018 BD46     		mov	sp, r7
 2303              		.cfi_def_cfa_register 13
 2304              		@ sp needed
 2305 001a 80BD     		pop	{r7, pc}
 2306              		.cfi_endproc
 2307              	.LFE62:
 2308              		.size	lv_chart_get_margin, .-lv_chart_get_margin
 2309              		.section	.text.lv_chart_design,"ax",%progbits
 2310              		.align	2
 2311              		.thumb
 2312              		.thumb_func
 2313              		.type	lv_chart_design, %function
 2314              	lv_chart_design:
 2315              	.LFB63:
 708:..\..\..\lvgl\version_6.1.2\lvgl\src\lv_objx/lv_chart.c **** 
 709:..\..\..\lvgl\version_6.1.2\lvgl\src\lv_objx/lv_chart.c **** /**********************
 710:..\..\..\lvgl\version_6.1.2\lvgl\src\lv_objx/lv_chart.c ****  *   STATIC FUNCTIONS
 711:..\..\..\lvgl\version_6.1.2\lvgl\src\lv_objx/lv_chart.c ****  **********************/
 712:..\..\..\lvgl\version_6.1.2\lvgl\src\lv_objx/lv_chart.c **** 
ARM GAS  C:\Users\tmj32\AppData\Local\Temp\ccrrExWC.s 			page 67


 713:..\..\..\lvgl\version_6.1.2\lvgl\src\lv_objx/lv_chart.c **** /**
 714:..\..\..\lvgl\version_6.1.2\lvgl\src\lv_objx/lv_chart.c ****  * Handle the drawing related tasks of the chart backgrounds
 715:..\..\..\lvgl\version_6.1.2\lvgl\src\lv_objx/lv_chart.c ****  * @param chart pointer to an object
 716:..\..\..\lvgl\version_6.1.2\lvgl\src\lv_objx/lv_chart.c ****  * @param mask the object will be drawn only in this area
 717:..\..\..\lvgl\version_6.1.2\lvgl\src\lv_objx/lv_chart.c ****  * @param mode LV_DESIGN_COVER_CHK: only check if the object fully covers the 'mask_p' area
 718:..\..\..\lvgl\version_6.1.2\lvgl\src\lv_objx/lv_chart.c ****  *                                  (return 'true' if yes)
 719:..\..\..\lvgl\version_6.1.2\lvgl\src\lv_objx/lv_chart.c ****  *             LV_DESIGN_DRAW: draw the object (always return 'true')
 720:..\..\..\lvgl\version_6.1.2\lvgl\src\lv_objx/lv_chart.c ****  *             LV_DESIGN_DRAW_POST: drawing after every children are drawn
 721:..\..\..\lvgl\version_6.1.2\lvgl\src\lv_objx/lv_chart.c ****  * @param return true/false, depends on 'mode'
 722:..\..\..\lvgl\version_6.1.2\lvgl\src\lv_objx/lv_chart.c ****  */
 723:..\..\..\lvgl\version_6.1.2\lvgl\src\lv_objx/lv_chart.c **** static bool lv_chart_design(lv_obj_t * chart, const lv_area_t * mask, lv_design_mode_t mode)
 724:..\..\..\lvgl\version_6.1.2\lvgl\src\lv_objx/lv_chart.c **** {
 2316              		.loc 3 724 0
 2317              		.cfi_startproc
 2318              		@ args = 0, pretend = 0, frame = 40
 2319              		@ frame_needed = 1, uses_anonymous_args = 0
 2320 0000 B0B5     		push	{r4, r5, r7, lr}
 2321              		.cfi_def_cfa_offset 16
 2322              		.cfi_offset 4, -16
 2323              		.cfi_offset 5, -12
 2324              		.cfi_offset 7, -8
 2325              		.cfi_offset 14, -4
 2326 0002 8AB0     		sub	sp, sp, #40
 2327              		.cfi_def_cfa_offset 56
 2328 0004 00AF     		add	r7, sp, #0
 2329              		.cfi_def_cfa_register 7
 2330 0006 F860     		str	r0, [r7, #12]
 2331 0008 B960     		str	r1, [r7, #8]
 2332 000a 1346     		mov	r3, r2
 2333 000c FB71     		strb	r3, [r7, #7]
 725:..\..\..\lvgl\version_6.1.2\lvgl\src\lv_objx/lv_chart.c ****     if(mode == LV_DESIGN_COVER_CHK) {
 2334              		.loc 3 725 0
 2335 000e FB79     		ldrb	r3, [r7, #7]	@ zero_extendqisi2
 2336 0010 022B     		cmp	r3, #2
 2337 0012 07D1     		bne	.L117
 726:..\..\..\lvgl\version_6.1.2\lvgl\src\lv_objx/lv_chart.c ****         /*Return false if the object is not covers the mask_p area*/
 727:..\..\..\lvgl\version_6.1.2\lvgl\src\lv_objx/lv_chart.c ****         return ancestor_design_f(chart, mask, mode);
 2338              		.loc 3 727 0
 2339 0014 3E4B     		ldr	r3, .L125
 2340 0016 1B68     		ldr	r3, [r3]
 2341 0018 FA79     		ldrb	r2, [r7, #7]	@ zero_extendqisi2
 2342 001a B968     		ldr	r1, [r7, #8]
 2343 001c F868     		ldr	r0, [r7, #12]
 2344 001e 9847     		blx	r3
 2345 0020 0346     		mov	r3, r0
 2346 0022 70E0     		b	.L118
 2347              	.L117:
 728:..\..\..\lvgl\version_6.1.2\lvgl\src\lv_objx/lv_chart.c ****     } else if(mode == LV_DESIGN_DRAW_MAIN) {
 2348              		.loc 3 728 0
 2349 0024 FB79     		ldrb	r3, [r7, #7]	@ zero_extendqisi2
 2350 0026 002B     		cmp	r3, #0
 2351 0028 6CD1     		bne	.L119
 2352              	.LBB6:
 729:..\..\..\lvgl\version_6.1.2\lvgl\src\lv_objx/lv_chart.c ****         /*Draw the background*/
 730:..\..\..\lvgl\version_6.1.2\lvgl\src\lv_objx/lv_chart.c ****         lv_draw_rect(&chart->coords, mask, lv_obj_get_style(chart), lv_obj_get_opa_scale(chart));
 2353              		.loc 3 730 0
 2354 002a FB68     		ldr	r3, [r7, #12]
ARM GAS  C:\Users\tmj32\AppData\Local\Temp\ccrrExWC.s 			page 68


 2355 002c 03F11004 		add	r4, r3, #16
 2356 0030 F868     		ldr	r0, [r7, #12]
 2357 0032 FFF7FEFF 		bl	lv_obj_get_style
 2358 0036 0546     		mov	r5, r0
 2359 0038 F868     		ldr	r0, [r7, #12]
 2360 003a FFF7FEFF 		bl	lv_obj_get_opa_scale
 2361 003e 0346     		mov	r3, r0
 2362 0040 2A46     		mov	r2, r5
 2363 0042 B968     		ldr	r1, [r7, #8]
 2364 0044 2046     		mov	r0, r4
 2365 0046 FFF7FEFF 		bl	lv_draw_rect
 731:..\..\..\lvgl\version_6.1.2\lvgl\src\lv_objx/lv_chart.c **** 
 732:..\..\..\lvgl\version_6.1.2\lvgl\src\lv_objx/lv_chart.c ****         lv_chart_ext_t * ext = lv_obj_get_ext_attr(chart);
 2366              		.loc 3 732 0
 2367 004a F868     		ldr	r0, [r7, #12]
 2368 004c FFF7FEFF 		bl	lv_obj_get_ext_attr
 2369 0050 7862     		str	r0, [r7, #36]
 733:..\..\..\lvgl\version_6.1.2\lvgl\src\lv_objx/lv_chart.c **** 
 734:..\..\..\lvgl\version_6.1.2\lvgl\src\lv_objx/lv_chart.c ****         lv_chart_draw_div(chart, mask);
 2370              		.loc 3 734 0
 2371 0052 B968     		ldr	r1, [r7, #8]
 2372 0054 F868     		ldr	r0, [r7, #12]
 2373 0056 FFF7FEFF 		bl	lv_chart_draw_div
 735:..\..\..\lvgl\version_6.1.2\lvgl\src\lv_objx/lv_chart.c **** 
 736:..\..\..\lvgl\version_6.1.2\lvgl\src\lv_objx/lv_chart.c ****         /* Adjust the mask to remove the margin (clips chart contents to be within background) */
 737:..\..\..\lvgl\version_6.1.2\lvgl\src\lv_objx/lv_chart.c **** 
 738:..\..\..\lvgl\version_6.1.2\lvgl\src\lv_objx/lv_chart.c ****         lv_area_t mask_tmp, adjusted_mask;
 739:..\..\..\lvgl\version_6.1.2\lvgl\src\lv_objx/lv_chart.c ****         lv_obj_get_coords(chart, &mask_tmp);
 2374              		.loc 3 739 0
 2375 005a 07F11803 		add	r3, r7, #24
 2376 005e 1946     		mov	r1, r3
 2377 0060 F868     		ldr	r0, [r7, #12]
 2378 0062 FFF7FEFF 		bl	lv_obj_get_coords
 740:..\..\..\lvgl\version_6.1.2\lvgl\src\lv_objx/lv_chart.c **** 
 741:..\..\..\lvgl\version_6.1.2\lvgl\src\lv_objx/lv_chart.c ****         bool union_ok = lv_area_intersect(&adjusted_mask, mask, &mask_tmp);
 2379              		.loc 3 741 0
 2380 0066 07F11802 		add	r2, r7, #24
 2381 006a 07F11003 		add	r3, r7, #16
 2382 006e B968     		ldr	r1, [r7, #8]
 2383 0070 1846     		mov	r0, r3
 2384 0072 FFF7FEFF 		bl	lv_area_intersect
 2385 0076 0346     		mov	r3, r0
 2386 0078 87F82330 		strb	r3, [r7, #35]
 742:..\..\..\lvgl\version_6.1.2\lvgl\src\lv_objx/lv_chart.c **** 
 743:..\..\..\lvgl\version_6.1.2\lvgl\src\lv_objx/lv_chart.c ****         if(union_ok) {
 2387              		.loc 3 743 0
 2388 007c 97F82330 		ldrb	r3, [r7, #35]	@ zero_extendqisi2
 2389 0080 002B     		cmp	r3, #0
 2390 0082 3BD0     		beq	.L120
 744:..\..\..\lvgl\version_6.1.2\lvgl\src\lv_objx/lv_chart.c ****                 if(ext->type & LV_CHART_TYPE_LINE) lv_chart_draw_lines(chart, &adjusted_mask);
 2391              		.loc 3 744 0
 2392 0084 7B6A     		ldr	r3, [r7, #36]
 2393 0086 1B7D     		ldrb	r3, [r3, #20]	@ zero_extendqisi2
 2394 0088 03F00103 		and	r3, r3, #1
 2395 008c 002B     		cmp	r3, #0
 2396 008e 05D0     		beq	.L121
 2397              		.loc 3 744 0 is_stmt 0 discriminator 1
ARM GAS  C:\Users\tmj32\AppData\Local\Temp\ccrrExWC.s 			page 69


 2398 0090 07F11003 		add	r3, r7, #16
 2399 0094 1946     		mov	r1, r3
 2400 0096 F868     		ldr	r0, [r7, #12]
 2401 0098 FFF7FEFF 		bl	lv_chart_draw_lines
 2402              	.L121:
 745:..\..\..\lvgl\version_6.1.2\lvgl\src\lv_objx/lv_chart.c ****                 if(ext->type & LV_CHART_TYPE_COLUMN) lv_chart_draw_cols(chart, &adjusted_mask);
 2403              		.loc 3 745 0 is_stmt 1
 2404 009c 7B6A     		ldr	r3, [r7, #36]
 2405 009e 1B7D     		ldrb	r3, [r3, #20]	@ zero_extendqisi2
 2406 00a0 03F00203 		and	r3, r3, #2
 2407 00a4 002B     		cmp	r3, #0
 2408 00a6 05D0     		beq	.L122
 2409              		.loc 3 745 0 is_stmt 0 discriminator 1
 2410 00a8 07F11003 		add	r3, r7, #16
 2411 00ac 1946     		mov	r1, r3
 2412 00ae F868     		ldr	r0, [r7, #12]
 2413 00b0 FFF7FEFF 		bl	lv_chart_draw_cols
 2414              	.L122:
 746:..\..\..\lvgl\version_6.1.2\lvgl\src\lv_objx/lv_chart.c ****                 if(ext->type & LV_CHART_TYPE_POINT) lv_chart_draw_points(chart, &adjusted_mask);
 2415              		.loc 3 746 0 is_stmt 1
 2416 00b4 7B6A     		ldr	r3, [r7, #36]
 2417 00b6 1B7D     		ldrb	r3, [r3, #20]	@ zero_extendqisi2
 2418 00b8 03F00403 		and	r3, r3, #4
 2419 00bc 002B     		cmp	r3, #0
 2420 00be 05D0     		beq	.L123
 2421              		.loc 3 746 0 is_stmt 0 discriminator 1
 2422 00c0 07F11003 		add	r3, r7, #16
 2423 00c4 1946     		mov	r1, r3
 2424 00c6 F868     		ldr	r0, [r7, #12]
 2425 00c8 FFF7FEFF 		bl	lv_chart_draw_points
 2426              	.L123:
 747:..\..\..\lvgl\version_6.1.2\lvgl\src\lv_objx/lv_chart.c ****                 if(ext->type & LV_CHART_TYPE_VERTICAL_LINE) lv_chart_draw_vertical_lines(chart, &ad
 2427              		.loc 3 747 0 is_stmt 1
 2428 00cc 7B6A     		ldr	r3, [r7, #36]
 2429 00ce 1B7D     		ldrb	r3, [r3, #20]	@ zero_extendqisi2
 2430 00d0 03F00803 		and	r3, r3, #8
 2431 00d4 002B     		cmp	r3, #0
 2432 00d6 05D0     		beq	.L124
 2433              		.loc 3 747 0 is_stmt 0 discriminator 1
 2434 00d8 07F11003 		add	r3, r7, #16
 2435 00dc 1946     		mov	r1, r3
 2436 00de F868     		ldr	r0, [r7, #12]
 2437 00e0 FFF7FEFF 		bl	lv_chart_draw_vertical_lines
 2438              	.L124:
 748:..\..\..\lvgl\version_6.1.2\lvgl\src\lv_objx/lv_chart.c ****                 if(ext->type & LV_CHART_TYPE_AREA) lv_chart_draw_areas(chart, &adjusted_mask);
 2439              		.loc 3 748 0 is_stmt 1
 2440 00e4 7B6A     		ldr	r3, [r7, #36]
 2441 00e6 1B7D     		ldrb	r3, [r3, #20]	@ zero_extendqisi2
 2442 00e8 03F01003 		and	r3, r3, #16
 2443 00ec 002B     		cmp	r3, #0
 2444 00ee 05D0     		beq	.L120
 2445              		.loc 3 748 0 is_stmt 0 discriminator 1
 2446 00f0 07F11003 		add	r3, r7, #16
 2447 00f4 1946     		mov	r1, r3
 2448 00f6 F868     		ldr	r0, [r7, #12]
 2449 00f8 FFF7FEFF 		bl	lv_chart_draw_areas
 2450              	.L120:
ARM GAS  C:\Users\tmj32\AppData\Local\Temp\ccrrExWC.s 			page 70


 749:..\..\..\lvgl\version_6.1.2\lvgl\src\lv_objx/lv_chart.c ****         }
 750:..\..\..\lvgl\version_6.1.2\lvgl\src\lv_objx/lv_chart.c **** 
 751:..\..\..\lvgl\version_6.1.2\lvgl\src\lv_objx/lv_chart.c ****         lv_chart_draw_axes(chart, mask);
 2451              		.loc 3 751 0 is_stmt 1
 2452 00fc B968     		ldr	r1, [r7, #8]
 2453 00fe F868     		ldr	r0, [r7, #12]
 2454 0100 FFF7FEFF 		bl	lv_chart_draw_axes
 2455              	.L119:
 2456              	.LBE6:
 752:..\..\..\lvgl\version_6.1.2\lvgl\src\lv_objx/lv_chart.c ****     }
 753:..\..\..\lvgl\version_6.1.2\lvgl\src\lv_objx/lv_chart.c ****     return true;
 2457              		.loc 3 753 0
 2458 0104 0123     		movs	r3, #1
 2459              	.L118:
 754:..\..\..\lvgl\version_6.1.2\lvgl\src\lv_objx/lv_chart.c **** }
 2460              		.loc 3 754 0
 2461 0106 1846     		mov	r0, r3
 2462 0108 2837     		adds	r7, r7, #40
 2463              		.cfi_def_cfa_offset 16
 2464 010a BD46     		mov	sp, r7
 2465              		.cfi_def_cfa_register 13
 2466              		@ sp needed
 2467 010c B0BD     		pop	{r4, r5, r7, pc}
 2468              	.L126:
 2469 010e 00BF     		.align	2
 2470              	.L125:
 2471 0110 00000000 		.word	ancestor_design_f
 2472              		.cfi_endproc
 2473              	.LFE63:
 2474              		.size	lv_chart_design, .-lv_chart_design
 2475              		.section	.rodata
 2476              		.align	2
 2477              	.LC0:
 2478 0000 6C765F63 		.ascii	"lv_chart\000"
 2478      68617274 
 2478      00
 2479              		.section	.text.lv_chart_signal,"ax",%progbits
 2480              		.align	2
 2481              		.thumb
 2482              		.thumb_func
 2483              		.type	lv_chart_signal, %function
 2484              	lv_chart_signal:
 2485              	.LFB64:
 755:..\..\..\lvgl\version_6.1.2\lvgl\src\lv_objx/lv_chart.c **** 
 756:..\..\..\lvgl\version_6.1.2\lvgl\src\lv_objx/lv_chart.c **** /**
 757:..\..\..\lvgl\version_6.1.2\lvgl\src\lv_objx/lv_chart.c ****  * Signal function of the chart background
 758:..\..\..\lvgl\version_6.1.2\lvgl\src\lv_objx/lv_chart.c ****  * @param chart pointer to a chart background object
 759:..\..\..\lvgl\version_6.1.2\lvgl\src\lv_objx/lv_chart.c ****  * @param sign a signal type from lv_signal_t enum
 760:..\..\..\lvgl\version_6.1.2\lvgl\src\lv_objx/lv_chart.c ****  * @param param pointer to a signal specific variable
 761:..\..\..\lvgl\version_6.1.2\lvgl\src\lv_objx/lv_chart.c ****  */
 762:..\..\..\lvgl\version_6.1.2\lvgl\src\lv_objx/lv_chart.c **** static lv_res_t lv_chart_signal(lv_obj_t * chart, lv_signal_t sign, void * param)
 763:..\..\..\lvgl\version_6.1.2\lvgl\src\lv_objx/lv_chart.c **** {
 2486              		.loc 3 763 0
 2487              		.cfi_startproc
 2488              		@ args = 0, pretend = 0, frame = 32
 2489              		@ frame_needed = 1, uses_anonymous_args = 0
 2490 0000 80B5     		push	{r7, lr}
ARM GAS  C:\Users\tmj32\AppData\Local\Temp\ccrrExWC.s 			page 71


 2491              		.cfi_def_cfa_offset 8
 2492              		.cfi_offset 7, -8
 2493              		.cfi_offset 14, -4
 2494 0002 88B0     		sub	sp, sp, #32
 2495              		.cfi_def_cfa_offset 40
 2496 0004 00AF     		add	r7, sp, #0
 2497              		.cfi_def_cfa_register 7
 2498 0006 F860     		str	r0, [r7, #12]
 2499 0008 0B46     		mov	r3, r1
 2500 000a 7A60     		str	r2, [r7, #4]
 2501 000c FB72     		strb	r3, [r7, #11]
 764:..\..\..\lvgl\version_6.1.2\lvgl\src\lv_objx/lv_chart.c ****     /* Include the ancient signal function */
 765:..\..\..\lvgl\version_6.1.2\lvgl\src\lv_objx/lv_chart.c ****     lv_res_t res;
 766:..\..\..\lvgl\version_6.1.2\lvgl\src\lv_objx/lv_chart.c ****     res = ancestor_signal(chart, sign, param);
 2502              		.loc 3 766 0
 2503 000e 214B     		ldr	r3, .L135
 2504 0010 1B68     		ldr	r3, [r3]
 2505 0012 F97A     		ldrb	r1, [r7, #11]	@ zero_extendqisi2
 2506 0014 7A68     		ldr	r2, [r7, #4]
 2507 0016 F868     		ldr	r0, [r7, #12]
 2508 0018 9847     		blx	r3
 2509 001a 0346     		mov	r3, r0
 2510 001c FB76     		strb	r3, [r7, #27]
 767:..\..\..\lvgl\version_6.1.2\lvgl\src\lv_objx/lv_chart.c ****     if(res != LV_RES_OK) return res;
 2511              		.loc 3 767 0
 2512 001e FB7E     		ldrb	r3, [r7, #27]	@ zero_extendqisi2
 2513 0020 012B     		cmp	r3, #1
 2514 0022 01D0     		beq	.L128
 2515              		.loc 3 767 0 is_stmt 0 discriminator 1
 2516 0024 FB7E     		ldrb	r3, [r7, #27]	@ zero_extendqisi2
 2517 0026 31E0     		b	.L129
 2518              	.L128:
 768:..\..\..\lvgl\version_6.1.2\lvgl\src\lv_objx/lv_chart.c ****     if(sign == LV_SIGNAL_GET_TYPE) return lv_obj_handle_get_type_signal(param, LV_OBJX_NAME);
 2519              		.loc 3 768 0 is_stmt 1
 2520 0028 FB7A     		ldrb	r3, [r7, #11]	@ zero_extendqisi2
 2521 002a 072B     		cmp	r3, #7
 2522 002c 05D1     		bne	.L130
 2523              		.loc 3 768 0 is_stmt 0 discriminator 1
 2524 002e 1A49     		ldr	r1, .L135+4
 2525 0030 7868     		ldr	r0, [r7, #4]
 2526 0032 FFF7FEFF 		bl	lv_obj_handle_get_type_signal
 2527 0036 0346     		mov	r3, r0
 2528 0038 28E0     		b	.L129
 2529              	.L130:
 769:..\..\..\lvgl\version_6.1.2\lvgl\src\lv_objx/lv_chart.c **** 
 770:..\..\..\lvgl\version_6.1.2\lvgl\src\lv_objx/lv_chart.c ****     lv_chart_ext_t * ext = lv_obj_get_ext_attr(chart);
 2530              		.loc 3 770 0 is_stmt 1
 2531 003a F868     		ldr	r0, [r7, #12]
 2532 003c FFF7FEFF 		bl	lv_obj_get_ext_attr
 2533 0040 7861     		str	r0, [r7, #20]
 771:..\..\..\lvgl\version_6.1.2\lvgl\src\lv_objx/lv_chart.c **** 
 772:..\..\..\lvgl\version_6.1.2\lvgl\src\lv_objx/lv_chart.c ****     if(sign == LV_SIGNAL_CLEANUP) {
 2534              		.loc 3 772 0
 2535 0042 FB7A     		ldrb	r3, [r7, #11]	@ zero_extendqisi2
 2536 0044 002B     		cmp	r3, #0
 2537 0046 18D1     		bne	.L131
 2538              	.LBB7:
ARM GAS  C:\Users\tmj32\AppData\Local\Temp\ccrrExWC.s 			page 72


 773:..\..\..\lvgl\version_6.1.2\lvgl\src\lv_objx/lv_chart.c ****         lv_coord_t ** datal;
 774:..\..\..\lvgl\version_6.1.2\lvgl\src\lv_objx/lv_chart.c ****         LV_LL_READ(ext->series_ll, datal)
 2539              		.loc 3 774 0
 2540 0048 7B69     		ldr	r3, [r7, #20]
 2541 004a 1846     		mov	r0, r3
 2542 004c FFF7FEFF 		bl	lv_ll_get_head
 2543 0050 F861     		str	r0, [r7, #28]
 2544 0052 0AE0     		b	.L132
 2545              	.L133:
 775:..\..\..\lvgl\version_6.1.2\lvgl\src\lv_objx/lv_chart.c ****         {
 776:..\..\..\lvgl\version_6.1.2\lvgl\src\lv_objx/lv_chart.c ****             lv_mem_free(*datal);
 2546              		.loc 3 776 0 discriminator 3
 2547 0054 FB69     		ldr	r3, [r7, #28]
 2548 0056 1B68     		ldr	r3, [r3]
 2549 0058 1846     		mov	r0, r3
 2550 005a FFF7FEFF 		bl	lv_mem_free
 774:..\..\..\lvgl\version_6.1.2\lvgl\src\lv_objx/lv_chart.c ****         {
 2551              		.loc 3 774 0 discriminator 3
 2552 005e 7B69     		ldr	r3, [r7, #20]
 2553 0060 F969     		ldr	r1, [r7, #28]
 2554 0062 1846     		mov	r0, r3
 2555 0064 FFF7FEFF 		bl	lv_ll_get_next
 2556 0068 F861     		str	r0, [r7, #28]
 2557              	.L132:
 774:..\..\..\lvgl\version_6.1.2\lvgl\src\lv_objx/lv_chart.c ****         {
 2558              		.loc 3 774 0 is_stmt 0 discriminator 1
 2559 006a FB69     		ldr	r3, [r7, #28]
 2560 006c 002B     		cmp	r3, #0
 2561 006e F1D1     		bne	.L133
 777:..\..\..\lvgl\version_6.1.2\lvgl\src\lv_objx/lv_chart.c ****         }
 778:..\..\..\lvgl\version_6.1.2\lvgl\src\lv_objx/lv_chart.c ****         lv_ll_clear(&ext->series_ll);
 2562              		.loc 3 778 0 is_stmt 1
 2563 0070 7B69     		ldr	r3, [r7, #20]
 2564 0072 1846     		mov	r0, r3
 2565 0074 FFF7FEFF 		bl	lv_ll_clear
 2566              	.LBE7:
 2567 0078 07E0     		b	.L134
 2568              	.L131:
 779:..\..\..\lvgl\version_6.1.2\lvgl\src\lv_objx/lv_chart.c ****     } else if(sign == LV_SIGNAL_REFR_EXT_DRAW_PAD) {
 2569              		.loc 3 779 0
 2570 007a FB7A     		ldrb	r3, [r7, #11]	@ zero_extendqisi2
 2571 007c 062B     		cmp	r3, #6
 2572 007e 04D1     		bne	.L134
 780:..\..\..\lvgl\version_6.1.2\lvgl\src\lv_objx/lv_chart.c ****         /*Provide extra px draw area around the chart*/
 781:..\..\..\lvgl\version_6.1.2\lvgl\src\lv_objx/lv_chart.c ****         chart->ext_draw_pad = ext->margin;
 2573              		.loc 3 781 0
 2574 0080 7B69     		ldr	r3, [r7, #20]
 2575 0082 1B8E     		ldrh	r3, [r3, #48]
 2576 0084 1AB2     		sxth	r2, r3
 2577 0086 FB68     		ldr	r3, [r7, #12]
 2578 0088 1A86     		strh	r2, [r3, #48]	@ movhi
 2579              	.L134:
 782:..\..\..\lvgl\version_6.1.2\lvgl\src\lv_objx/lv_chart.c ****     }
 783:..\..\..\lvgl\version_6.1.2\lvgl\src\lv_objx/lv_chart.c **** 
 784:..\..\..\lvgl\version_6.1.2\lvgl\src\lv_objx/lv_chart.c ****     return res;
 2580              		.loc 3 784 0
 2581 008a FB7E     		ldrb	r3, [r7, #27]	@ zero_extendqisi2
ARM GAS  C:\Users\tmj32\AppData\Local\Temp\ccrrExWC.s 			page 73


 2582              	.L129:
 785:..\..\..\lvgl\version_6.1.2\lvgl\src\lv_objx/lv_chart.c **** }
 2583              		.loc 3 785 0
 2584 008c 1846     		mov	r0, r3
 2585 008e 2037     		adds	r7, r7, #32
 2586              		.cfi_def_cfa_offset 8
 2587 0090 BD46     		mov	sp, r7
 2588              		.cfi_def_cfa_register 13
 2589              		@ sp needed
 2590 0092 80BD     		pop	{r7, pc}
 2591              	.L136:
 2592              		.align	2
 2593              	.L135:
 2594 0094 04000000 		.word	ancestor_signal
 2595 0098 00000000 		.word	.LC0
 2596              		.cfi_endproc
 2597              	.LFE64:
 2598              		.size	lv_chart_signal, .-lv_chart_signal
 2599              		.section	.text.lv_chart_draw_div,"ax",%progbits
 2600              		.align	2
 2601              		.thumb
 2602              		.thumb_func
 2603              		.type	lv_chart_draw_div, %function
 2604              	lv_chart_draw_div:
 2605              	.LFB65:
 786:..\..\..\lvgl\version_6.1.2\lvgl\src\lv_objx/lv_chart.c **** 
 787:..\..\..\lvgl\version_6.1.2\lvgl\src\lv_objx/lv_chart.c **** /**
 788:..\..\..\lvgl\version_6.1.2\lvgl\src\lv_objx/lv_chart.c ****  * Draw the division lines on chart background
 789:..\..\..\lvgl\version_6.1.2\lvgl\src\lv_objx/lv_chart.c ****  * @param chart pointer to chart object
 790:..\..\..\lvgl\version_6.1.2\lvgl\src\lv_objx/lv_chart.c ****  * @param mask mask, inherited from the design function
 791:..\..\..\lvgl\version_6.1.2\lvgl\src\lv_objx/lv_chart.c ****  */
 792:..\..\..\lvgl\version_6.1.2\lvgl\src\lv_objx/lv_chart.c **** static void lv_chart_draw_div(lv_obj_t * chart, const lv_area_t * mask)
 793:..\..\..\lvgl\version_6.1.2\lvgl\src\lv_objx/lv_chart.c **** {
 2606              		.loc 3 793 0
 2607              		.cfi_startproc
 2608              		@ args = 0, pretend = 0, frame = 40
 2609              		@ frame_needed = 1, uses_anonymous_args = 0
 2610 0000 80B5     		push	{r7, lr}
 2611              		.cfi_def_cfa_offset 8
 2612              		.cfi_offset 7, -8
 2613              		.cfi_offset 14, -4
 2614 0002 8CB0     		sub	sp, sp, #48
 2615              		.cfi_def_cfa_offset 56
 2616 0004 02AF     		add	r7, sp, #8
 2617              		.cfi_def_cfa 7, 48
 2618 0006 7860     		str	r0, [r7, #4]
 2619 0008 3960     		str	r1, [r7]
 794:..\..\..\lvgl\version_6.1.2\lvgl\src\lv_objx/lv_chart.c ****     lv_chart_ext_t * ext     = lv_obj_get_ext_attr(chart);
 2620              		.loc 3 794 0
 2621 000a 7868     		ldr	r0, [r7, #4]
 2622 000c FFF7FEFF 		bl	lv_obj_get_ext_attr
 2623 0010 3862     		str	r0, [r7, #32]
 795:..\..\..\lvgl\version_6.1.2\lvgl\src\lv_objx/lv_chart.c ****     const lv_style_t * style = lv_obj_get_style(chart);
 2624              		.loc 3 795 0
 2625 0012 7868     		ldr	r0, [r7, #4]
 2626 0014 FFF7FEFF 		bl	lv_obj_get_style
 2627 0018 F861     		str	r0, [r7, #28]
ARM GAS  C:\Users\tmj32\AppData\Local\Temp\ccrrExWC.s 			page 74


 796:..\..\..\lvgl\version_6.1.2\lvgl\src\lv_objx/lv_chart.c ****     lv_opa_t opa_scale       = lv_obj_get_opa_scale(chart);
 2628              		.loc 3 796 0
 2629 001a 7868     		ldr	r0, [r7, #4]
 2630 001c FFF7FEFF 		bl	lv_obj_get_opa_scale
 2631 0020 0346     		mov	r3, r0
 2632 0022 FB76     		strb	r3, [r7, #27]
 797:..\..\..\lvgl\version_6.1.2\lvgl\src\lv_objx/lv_chart.c **** 
 798:..\..\..\lvgl\version_6.1.2\lvgl\src\lv_objx/lv_chart.c ****     uint8_t div_i;
 799:..\..\..\lvgl\version_6.1.2\lvgl\src\lv_objx/lv_chart.c ****     uint8_t div_i_end;
 800:..\..\..\lvgl\version_6.1.2\lvgl\src\lv_objx/lv_chart.c ****     uint8_t div_i_start;
 801:..\..\..\lvgl\version_6.1.2\lvgl\src\lv_objx/lv_chart.c ****     lv_point_t p1;
 802:..\..\..\lvgl\version_6.1.2\lvgl\src\lv_objx/lv_chart.c ****     lv_point_t p2;
 803:..\..\..\lvgl\version_6.1.2\lvgl\src\lv_objx/lv_chart.c ****     lv_coord_t w     = lv_obj_get_width(chart);
 2633              		.loc 3 803 0
 2634 0024 7868     		ldr	r0, [r7, #4]
 2635 0026 FFF7FEFF 		bl	lv_obj_get_width
 2636 002a 0346     		mov	r3, r0
 2637 002c 3B83     		strh	r3, [r7, #24]	@ movhi
 804:..\..\..\lvgl\version_6.1.2\lvgl\src\lv_objx/lv_chart.c ****     lv_coord_t h     = lv_obj_get_height(chart);
 2638              		.loc 3 804 0
 2639 002e 7868     		ldr	r0, [r7, #4]
 2640 0030 FFF7FEFF 		bl	lv_obj_get_height
 2641 0034 0346     		mov	r3, r0
 2642 0036 FB82     		strh	r3, [r7, #22]	@ movhi
 805:..\..\..\lvgl\version_6.1.2\lvgl\src\lv_objx/lv_chart.c ****     lv_coord_t x_ofs = chart->coords.x1;
 2643              		.loc 3 805 0
 2644 0038 7B68     		ldr	r3, [r7, #4]
 2645 003a 1B8A     		ldrh	r3, [r3, #16]	@ movhi
 2646 003c BB82     		strh	r3, [r7, #20]	@ movhi
 806:..\..\..\lvgl\version_6.1.2\lvgl\src\lv_objx/lv_chart.c ****     lv_coord_t y_ofs = chart->coords.y1;
 2647              		.loc 3 806 0
 2648 003e 7B68     		ldr	r3, [r7, #4]
 2649 0040 5B8A     		ldrh	r3, [r3, #18]	@ movhi
 2650 0042 7B82     		strh	r3, [r7, #18]	@ movhi
 807:..\..\..\lvgl\version_6.1.2\lvgl\src\lv_objx/lv_chart.c **** 
 808:..\..\..\lvgl\version_6.1.2\lvgl\src\lv_objx/lv_chart.c ****     if(ext->hdiv_cnt != 0) {
 2651              		.loc 3 808 0
 2652 0044 3B6A     		ldr	r3, [r7, #32]
 2653 0046 1B7C     		ldrb	r3, [r3, #16]	@ zero_extendqisi2
 2654 0048 002B     		cmp	r3, #0
 2655 004a 54D0     		beq	.L138
 809:..\..\..\lvgl\version_6.1.2\lvgl\src\lv_objx/lv_chart.c ****         /*Draw side lines if no border*/
 810:..\..\..\lvgl\version_6.1.2\lvgl\src\lv_objx/lv_chart.c ****         if(style->body.border.width != 0) {
 2656              		.loc 3 810 0
 2657 004c FB69     		ldr	r3, [r7, #28]
 2658 004e B3F91430 		ldrsh	r3, [r3, #20]
 2659 0052 002B     		cmp	r3, #0
 2660 0054 07D0     		beq	.L139
 811:..\..\..\lvgl\version_6.1.2\lvgl\src\lv_objx/lv_chart.c ****             div_i_start = 1;
 2661              		.loc 3 811 0
 2662 0056 0123     		movs	r3, #1
 2663 0058 87F82530 		strb	r3, [r7, #37]
 812:..\..\..\lvgl\version_6.1.2\lvgl\src\lv_objx/lv_chart.c ****             div_i_end   = ext->hdiv_cnt;
 2664              		.loc 3 812 0
 2665 005c 3B6A     		ldr	r3, [r7, #32]
 2666 005e 1B7C     		ldrb	r3, [r3, #16]
 2667 0060 87F82630 		strb	r3, [r7, #38]
ARM GAS  C:\Users\tmj32\AppData\Local\Temp\ccrrExWC.s 			page 75


 2668 0064 07E0     		b	.L140
 2669              	.L139:
 813:..\..\..\lvgl\version_6.1.2\lvgl\src\lv_objx/lv_chart.c ****         } else {
 814:..\..\..\lvgl\version_6.1.2\lvgl\src\lv_objx/lv_chart.c ****             div_i_start = 0;
 2670              		.loc 3 814 0
 2671 0066 0023     		movs	r3, #0
 2672 0068 87F82530 		strb	r3, [r7, #37]
 815:..\..\..\lvgl\version_6.1.2\lvgl\src\lv_objx/lv_chart.c ****             div_i_end   = ext->hdiv_cnt + 1;
 2673              		.loc 3 815 0
 2674 006c 3B6A     		ldr	r3, [r7, #32]
 2675 006e 1B7C     		ldrb	r3, [r3, #16]	@ zero_extendqisi2
 2676 0070 0133     		adds	r3, r3, #1
 2677 0072 87F82630 		strb	r3, [r7, #38]
 2678              	.L140:
 816:..\..\..\lvgl\version_6.1.2\lvgl\src\lv_objx/lv_chart.c ****         }
 817:..\..\..\lvgl\version_6.1.2\lvgl\src\lv_objx/lv_chart.c **** 
 818:..\..\..\lvgl\version_6.1.2\lvgl\src\lv_objx/lv_chart.c ****         p1.x = 0 + x_ofs;
 2679              		.loc 3 818 0
 2680 0076 BB8A     		ldrh	r3, [r7, #20]	@ movhi
 2681 0078 BB81     		strh	r3, [r7, #12]	@ movhi
 819:..\..\..\lvgl\version_6.1.2\lvgl\src\lv_objx/lv_chart.c ****         p2.x = w - 1 + x_ofs;
 2682              		.loc 3 819 0
 2683 007a 3A8B     		ldrh	r2, [r7, #24]
 2684 007c BB8A     		ldrh	r3, [r7, #20]
 2685 007e 1344     		add	r3, r3, r2
 2686 0080 9BB2     		uxth	r3, r3
 2687 0082 013B     		subs	r3, r3, #1
 2688 0084 9BB2     		uxth	r3, r3
 2689 0086 1BB2     		sxth	r3, r3
 2690 0088 3B81     		strh	r3, [r7, #8]	@ movhi
 820:..\..\..\lvgl\version_6.1.2\lvgl\src\lv_objx/lv_chart.c ****         for(div_i = div_i_start; div_i <= div_i_end; div_i++) {
 2691              		.loc 3 820 0
 2692 008a 97F82530 		ldrb	r3, [r7, #37]
 2693 008e 87F82730 		strb	r3, [r7, #39]
 2694 0092 2AE0     		b	.L141
 2695              	.L142:
 821:..\..\..\lvgl\version_6.1.2\lvgl\src\lv_objx/lv_chart.c ****             p1.y = (int32_t)((int32_t)(h - style->line.width) * div_i) / (ext->hdiv_cnt + 1);
 2696              		.loc 3 821 0 discriminator 3
 2697 0094 B7F91630 		ldrsh	r3, [r7, #22]
 2698 0098 FA69     		ldr	r2, [r7, #28]
 2699 009a B2F94C20 		ldrsh	r2, [r2, #76]
 2700 009e 9B1A     		subs	r3, r3, r2
 2701 00a0 97F82720 		ldrb	r2, [r7, #39]	@ zero_extendqisi2
 2702 00a4 02FB03F2 		mul	r2, r2, r3
 2703 00a8 3B6A     		ldr	r3, [r7, #32]
 2704 00aa 1B7C     		ldrb	r3, [r3, #16]	@ zero_extendqisi2
 2705 00ac 0133     		adds	r3, r3, #1
 2706 00ae 92FBF3F3 		sdiv	r3, r2, r3
 2707 00b2 1BB2     		sxth	r3, r3
 2708 00b4 FB81     		strh	r3, [r7, #14]	@ movhi
 822:..\..\..\lvgl\version_6.1.2\lvgl\src\lv_objx/lv_chart.c ****             p1.y += y_ofs;
 2709              		.loc 3 822 0 discriminator 3
 2710 00b6 B7F90E30 		ldrsh	r3, [r7, #14]
 2711 00ba 9AB2     		uxth	r2, r3
 2712 00bc 7B8A     		ldrh	r3, [r7, #18]
 2713 00be 1344     		add	r3, r3, r2
 2714 00c0 9BB2     		uxth	r3, r3
ARM GAS  C:\Users\tmj32\AppData\Local\Temp\ccrrExWC.s 			page 76


 2715 00c2 1BB2     		sxth	r3, r3
 2716 00c4 FB81     		strh	r3, [r7, #14]	@ movhi
 823:..\..\..\lvgl\version_6.1.2\lvgl\src\lv_objx/lv_chart.c ****             p2.y = p1.y;
 2717              		.loc 3 823 0 discriminator 3
 2718 00c6 B7F90E30 		ldrsh	r3, [r7, #14]
 2719 00ca 7B81     		strh	r3, [r7, #10]	@ movhi
 824:..\..\..\lvgl\version_6.1.2\lvgl\src\lv_objx/lv_chart.c ****             lv_draw_line(&p1, &p2, mask, style, opa_scale);
 2720              		.loc 3 824 0 discriminator 3
 2721 00cc 07F10801 		add	r1, r7, #8
 2722 00d0 07F10C00 		add	r0, r7, #12
 2723 00d4 FB7E     		ldrb	r3, [r7, #27]	@ zero_extendqisi2
 2724 00d6 0093     		str	r3, [sp]
 2725 00d8 FB69     		ldr	r3, [r7, #28]
 2726 00da 3A68     		ldr	r2, [r7]
 2727 00dc FFF7FEFF 		bl	lv_draw_line
 820:..\..\..\lvgl\version_6.1.2\lvgl\src\lv_objx/lv_chart.c ****             p1.y = (int32_t)((int32_t)(h - style->line.width) * div_i) / (ext->hdiv_cnt + 1);
 2728              		.loc 3 820 0 discriminator 3
 2729 00e0 97F82730 		ldrb	r3, [r7, #39]	@ zero_extendqisi2
 2730 00e4 0133     		adds	r3, r3, #1
 2731 00e6 87F82730 		strb	r3, [r7, #39]
 2732              	.L141:
 820:..\..\..\lvgl\version_6.1.2\lvgl\src\lv_objx/lv_chart.c ****             p1.y = (int32_t)((int32_t)(h - style->line.width) * div_i) / (ext->hdiv_cnt + 1);
 2733              		.loc 3 820 0 is_stmt 0 discriminator 1
 2734 00ea 97F82720 		ldrb	r2, [r7, #39]	@ zero_extendqisi2
 2735 00ee 97F82630 		ldrb	r3, [r7, #38]	@ zero_extendqisi2
 2736 00f2 9A42     		cmp	r2, r3
 2737 00f4 CED9     		bls	.L142
 2738              	.L138:
 825:..\..\..\lvgl\version_6.1.2\lvgl\src\lv_objx/lv_chart.c ****         }
 826:..\..\..\lvgl\version_6.1.2\lvgl\src\lv_objx/lv_chart.c ****     }
 827:..\..\..\lvgl\version_6.1.2\lvgl\src\lv_objx/lv_chart.c **** 
 828:..\..\..\lvgl\version_6.1.2\lvgl\src\lv_objx/lv_chart.c ****     if(ext->vdiv_cnt != 0) {
 2739              		.loc 3 828 0 is_stmt 1
 2740 00f6 3B6A     		ldr	r3, [r7, #32]
 2741 00f8 5B7C     		ldrb	r3, [r3, #17]	@ zero_extendqisi2
 2742 00fa 002B     		cmp	r3, #0
 2743 00fc 54D0     		beq	.L148
 829:..\..\..\lvgl\version_6.1.2\lvgl\src\lv_objx/lv_chart.c ****         /*Draw side lines if no border*/
 830:..\..\..\lvgl\version_6.1.2\lvgl\src\lv_objx/lv_chart.c ****         if(style->body.border.width != 0) {
 2744              		.loc 3 830 0
 2745 00fe FB69     		ldr	r3, [r7, #28]
 2746 0100 B3F91430 		ldrsh	r3, [r3, #20]
 2747 0104 002B     		cmp	r3, #0
 2748 0106 07D0     		beq	.L144
 831:..\..\..\lvgl\version_6.1.2\lvgl\src\lv_objx/lv_chart.c ****             div_i_start = 1;
 2749              		.loc 3 831 0
 2750 0108 0123     		movs	r3, #1
 2751 010a 87F82530 		strb	r3, [r7, #37]
 832:..\..\..\lvgl\version_6.1.2\lvgl\src\lv_objx/lv_chart.c ****             div_i_end   = ext->vdiv_cnt;
 2752              		.loc 3 832 0
 2753 010e 3B6A     		ldr	r3, [r7, #32]
 2754 0110 5B7C     		ldrb	r3, [r3, #17]
 2755 0112 87F82630 		strb	r3, [r7, #38]
 2756 0116 07E0     		b	.L145
 2757              	.L144:
 833:..\..\..\lvgl\version_6.1.2\lvgl\src\lv_objx/lv_chart.c ****         } else {
 834:..\..\..\lvgl\version_6.1.2\lvgl\src\lv_objx/lv_chart.c ****             div_i_start = 0;
ARM GAS  C:\Users\tmj32\AppData\Local\Temp\ccrrExWC.s 			page 77


 2758              		.loc 3 834 0
 2759 0118 0023     		movs	r3, #0
 2760 011a 87F82530 		strb	r3, [r7, #37]
 835:..\..\..\lvgl\version_6.1.2\lvgl\src\lv_objx/lv_chart.c ****             div_i_end   = ext->vdiv_cnt + 1;
 2761              		.loc 3 835 0
 2762 011e 3B6A     		ldr	r3, [r7, #32]
 2763 0120 5B7C     		ldrb	r3, [r3, #17]	@ zero_extendqisi2
 2764 0122 0133     		adds	r3, r3, #1
 2765 0124 87F82630 		strb	r3, [r7, #38]
 2766              	.L145:
 836:..\..\..\lvgl\version_6.1.2\lvgl\src\lv_objx/lv_chart.c ****         }
 837:..\..\..\lvgl\version_6.1.2\lvgl\src\lv_objx/lv_chart.c **** 
 838:..\..\..\lvgl\version_6.1.2\lvgl\src\lv_objx/lv_chart.c ****         p1.y = 0 + y_ofs;
 2767              		.loc 3 838 0
 2768 0128 7B8A     		ldrh	r3, [r7, #18]	@ movhi
 2769 012a FB81     		strh	r3, [r7, #14]	@ movhi
 839:..\..\..\lvgl\version_6.1.2\lvgl\src\lv_objx/lv_chart.c ****         p2.y = h + y_ofs - 1;
 2770              		.loc 3 839 0
 2771 012c FA8A     		ldrh	r2, [r7, #22]
 2772 012e 7B8A     		ldrh	r3, [r7, #18]
 2773 0130 1344     		add	r3, r3, r2
 2774 0132 9BB2     		uxth	r3, r3
 2775 0134 013B     		subs	r3, r3, #1
 2776 0136 9BB2     		uxth	r3, r3
 2777 0138 1BB2     		sxth	r3, r3
 2778 013a 7B81     		strh	r3, [r7, #10]	@ movhi
 840:..\..\..\lvgl\version_6.1.2\lvgl\src\lv_objx/lv_chart.c ****         for(div_i = div_i_start; div_i <= div_i_end; div_i++) {
 2779              		.loc 3 840 0
 2780 013c 97F82530 		ldrb	r3, [r7, #37]
 2781 0140 87F82730 		strb	r3, [r7, #39]
 2782 0144 2AE0     		b	.L146
 2783              	.L147:
 841:..\..\..\lvgl\version_6.1.2\lvgl\src\lv_objx/lv_chart.c ****             p1.x = (int32_t)((int32_t)(w - style->line.width) * div_i) / (ext->vdiv_cnt + 1);
 2784              		.loc 3 841 0 discriminator 3
 2785 0146 B7F91830 		ldrsh	r3, [r7, #24]
 2786 014a FA69     		ldr	r2, [r7, #28]
 2787 014c B2F94C20 		ldrsh	r2, [r2, #76]
 2788 0150 9B1A     		subs	r3, r3, r2
 2789 0152 97F82720 		ldrb	r2, [r7, #39]	@ zero_extendqisi2
 2790 0156 02FB03F2 		mul	r2, r2, r3
 2791 015a 3B6A     		ldr	r3, [r7, #32]
 2792 015c 5B7C     		ldrb	r3, [r3, #17]	@ zero_extendqisi2
 2793 015e 0133     		adds	r3, r3, #1
 2794 0160 92FBF3F3 		sdiv	r3, r2, r3
 2795 0164 1BB2     		sxth	r3, r3
 2796 0166 BB81     		strh	r3, [r7, #12]	@ movhi
 842:..\..\..\lvgl\version_6.1.2\lvgl\src\lv_objx/lv_chart.c ****             p1.x += x_ofs;
 2797              		.loc 3 842 0 discriminator 3
 2798 0168 B7F90C30 		ldrsh	r3, [r7, #12]
 2799 016c 9AB2     		uxth	r2, r3
 2800 016e BB8A     		ldrh	r3, [r7, #20]
 2801 0170 1344     		add	r3, r3, r2
 2802 0172 9BB2     		uxth	r3, r3
 2803 0174 1BB2     		sxth	r3, r3
 2804 0176 BB81     		strh	r3, [r7, #12]	@ movhi
 843:..\..\..\lvgl\version_6.1.2\lvgl\src\lv_objx/lv_chart.c ****             p2.x = p1.x;
 2805              		.loc 3 843 0 discriminator 3
ARM GAS  C:\Users\tmj32\AppData\Local\Temp\ccrrExWC.s 			page 78


 2806 0178 B7F90C30 		ldrsh	r3, [r7, #12]
 2807 017c 3B81     		strh	r3, [r7, #8]	@ movhi
 844:..\..\..\lvgl\version_6.1.2\lvgl\src\lv_objx/lv_chart.c ****             lv_draw_line(&p1, &p2, mask, style, opa_scale);
 2808              		.loc 3 844 0 discriminator 3
 2809 017e 07F10801 		add	r1, r7, #8
 2810 0182 07F10C00 		add	r0, r7, #12
 2811 0186 FB7E     		ldrb	r3, [r7, #27]	@ zero_extendqisi2
 2812 0188 0093     		str	r3, [sp]
 2813 018a FB69     		ldr	r3, [r7, #28]
 2814 018c 3A68     		ldr	r2, [r7]
 2815 018e FFF7FEFF 		bl	lv_draw_line
 840:..\..\..\lvgl\version_6.1.2\lvgl\src\lv_objx/lv_chart.c ****             p1.x = (int32_t)((int32_t)(w - style->line.width) * div_i) / (ext->vdiv_cnt + 1);
 2816              		.loc 3 840 0 discriminator 3
 2817 0192 97F82730 		ldrb	r3, [r7, #39]	@ zero_extendqisi2
 2818 0196 0133     		adds	r3, r3, #1
 2819 0198 87F82730 		strb	r3, [r7, #39]
 2820              	.L146:
 840:..\..\..\lvgl\version_6.1.2\lvgl\src\lv_objx/lv_chart.c ****             p1.x = (int32_t)((int32_t)(w - style->line.width) * div_i) / (ext->vdiv_cnt + 1);
 2821              		.loc 3 840 0 is_stmt 0 discriminator 1
 2822 019c 97F82720 		ldrb	r2, [r7, #39]	@ zero_extendqisi2
 2823 01a0 97F82630 		ldrb	r3, [r7, #38]	@ zero_extendqisi2
 2824 01a4 9A42     		cmp	r2, r3
 2825 01a6 CED9     		bls	.L147
 2826              	.L148:
 845:..\..\..\lvgl\version_6.1.2\lvgl\src\lv_objx/lv_chart.c ****         }
 846:..\..\..\lvgl\version_6.1.2\lvgl\src\lv_objx/lv_chart.c ****     }
 847:..\..\..\lvgl\version_6.1.2\lvgl\src\lv_objx/lv_chart.c **** }
 2827              		.loc 3 847 0 is_stmt 1
 2828 01a8 00BF     		nop
 2829 01aa 2837     		adds	r7, r7, #40
 2830              		.cfi_def_cfa_offset 8
 2831 01ac BD46     		mov	sp, r7
 2832              		.cfi_def_cfa_register 13
 2833              		@ sp needed
 2834 01ae 80BD     		pop	{r7, pc}
 2835              		.cfi_endproc
 2836              	.LFE65:
 2837              		.size	lv_chart_draw_div, .-lv_chart_draw_div
 2838              		.section	.text.lv_chart_draw_lines,"ax",%progbits
 2839              		.align	2
 2840              		.thumb
 2841              		.thumb_func
 2842              		.type	lv_chart_draw_lines, %function
 2843              	lv_chart_draw_lines:
 2844              	.LFB66:
 848:..\..\..\lvgl\version_6.1.2\lvgl\src\lv_objx/lv_chart.c **** 
 849:..\..\..\lvgl\version_6.1.2\lvgl\src\lv_objx/lv_chart.c **** /**
 850:..\..\..\lvgl\version_6.1.2\lvgl\src\lv_objx/lv_chart.c ****  * Draw the data lines as lines on a chart
 851:..\..\..\lvgl\version_6.1.2\lvgl\src\lv_objx/lv_chart.c ****  * @param obj pointer to chart object
 852:..\..\..\lvgl\version_6.1.2\lvgl\src\lv_objx/lv_chart.c ****  */
 853:..\..\..\lvgl\version_6.1.2\lvgl\src\lv_objx/lv_chart.c **** static void lv_chart_draw_lines(lv_obj_t * chart, const lv_area_t * mask)
 854:..\..\..\lvgl\version_6.1.2\lvgl\src\lv_objx/lv_chart.c **** {
 2845              		.loc 3 854 0
 2846              		.cfi_startproc
 2847              		@ args = 0, pretend = 0, frame = 128
 2848              		@ frame_needed = 1, uses_anonymous_args = 0
 2849 0000 80B5     		push	{r7, lr}
ARM GAS  C:\Users\tmj32\AppData\Local\Temp\ccrrExWC.s 			page 79


 2850              		.cfi_def_cfa_offset 8
 2851              		.cfi_offset 7, -8
 2852              		.cfi_offset 14, -4
 2853 0002 A2B0     		sub	sp, sp, #136
 2854              		.cfi_def_cfa_offset 144
 2855 0004 02AF     		add	r7, sp, #8
 2856              		.cfi_def_cfa 7, 136
 2857 0006 7860     		str	r0, [r7, #4]
 2858 0008 3960     		str	r1, [r7]
 855:..\..\..\lvgl\version_6.1.2\lvgl\src\lv_objx/lv_chart.c ****     lv_chart_ext_t * ext = lv_obj_get_ext_attr(chart);
 2859              		.loc 3 855 0
 2860 000a 7868     		ldr	r0, [r7, #4]
 2861 000c FFF7FEFF 		bl	lv_obj_get_ext_attr
 2862 0010 7867     		str	r0, [r7, #116]
 856:..\..\..\lvgl\version_6.1.2\lvgl\src\lv_objx/lv_chart.c **** 
 857:..\..\..\lvgl\version_6.1.2\lvgl\src\lv_objx/lv_chart.c ****     uint16_t i;
 858:..\..\..\lvgl\version_6.1.2\lvgl\src\lv_objx/lv_chart.c ****     lv_point_t p1;
 859:..\..\..\lvgl\version_6.1.2\lvgl\src\lv_objx/lv_chart.c ****     lv_point_t p2;
 860:..\..\..\lvgl\version_6.1.2\lvgl\src\lv_objx/lv_chart.c ****     lv_coord_t w     = lv_obj_get_width(chart);
 2863              		.loc 3 860 0
 2864 0012 7868     		ldr	r0, [r7, #4]
 2865 0014 FFF7FEFF 		bl	lv_obj_get_width
 2866 0018 0346     		mov	r3, r0
 2867 001a A7F87230 		strh	r3, [r7, #114]	@ movhi
 861:..\..\..\lvgl\version_6.1.2\lvgl\src\lv_objx/lv_chart.c ****     lv_coord_t h     = lv_obj_get_height(chart);
 2868              		.loc 3 861 0
 2869 001e 7868     		ldr	r0, [r7, #4]
 2870 0020 FFF7FEFF 		bl	lv_obj_get_height
 2871 0024 0346     		mov	r3, r0
 2872 0026 A7F87030 		strh	r3, [r7, #112]	@ movhi
 862:..\..\..\lvgl\version_6.1.2\lvgl\src\lv_objx/lv_chart.c ****     lv_coord_t x_ofs = chart->coords.x1;
 2873              		.loc 3 862 0
 2874 002a 7B68     		ldr	r3, [r7, #4]
 2875 002c 1B8A     		ldrh	r3, [r3, #16]	@ movhi
 2876 002e A7F86E30 		strh	r3, [r7, #110]	@ movhi
 863:..\..\..\lvgl\version_6.1.2\lvgl\src\lv_objx/lv_chart.c ****     lv_coord_t y_ofs = chart->coords.y1;
 2877              		.loc 3 863 0
 2878 0032 7B68     		ldr	r3, [r7, #4]
 2879 0034 5B8A     		ldrh	r3, [r3, #18]	@ movhi
 2880 0036 A7F86C30 		strh	r3, [r7, #108]	@ movhi
 864:..\..\..\lvgl\version_6.1.2\lvgl\src\lv_objx/lv_chart.c ****     int32_t y_tmp;
 865:..\..\..\lvgl\version_6.1.2\lvgl\src\lv_objx/lv_chart.c ****     lv_coord_t p_prev;
 866:..\..\..\lvgl\version_6.1.2\lvgl\src\lv_objx/lv_chart.c ****     lv_coord_t p_act;
 867:..\..\..\lvgl\version_6.1.2\lvgl\src\lv_objx/lv_chart.c ****     lv_chart_series_t * ser;
 868:..\..\..\lvgl\version_6.1.2\lvgl\src\lv_objx/lv_chart.c ****     lv_opa_t opa_scale = lv_obj_get_opa_scale(chart);
 2881              		.loc 3 868 0
 2882 003a 7868     		ldr	r0, [r7, #4]
 2883 003c FFF7FEFF 		bl	lv_obj_get_opa_scale
 2884 0040 0346     		mov	r3, r0
 2885 0042 87F86B30 		strb	r3, [r7, #107]
 869:..\..\..\lvgl\version_6.1.2\lvgl\src\lv_objx/lv_chart.c ****     lv_style_t style;
 870:..\..\..\lvgl\version_6.1.2\lvgl\src\lv_objx/lv_chart.c ****     lv_style_copy(&style, &lv_style_plain);
 2886              		.loc 3 870 0
 2887 0046 07F10803 		add	r3, r7, #8
 2888 004a 7B49     		ldr	r1, .L157
 2889 004c 1846     		mov	r0, r3
 2890 004e FFF7FEFF 		bl	lv_style_copy
ARM GAS  C:\Users\tmj32\AppData\Local\Temp\ccrrExWC.s 			page 80


 871:..\..\..\lvgl\version_6.1.2\lvgl\src\lv_objx/lv_chart.c ****     style.line.opa   = ext->series.opa;
 2891              		.loc 3 871 0
 2892 0052 7B6F     		ldr	r3, [r7, #116]
 2893 0054 93F83730 		ldrb	r3, [r3, #55]	@ zero_extendqisi2
 2894 0058 87F85630 		strb	r3, [r7, #86]
 872:..\..\..\lvgl\version_6.1.2\lvgl\src\lv_objx/lv_chart.c ****     style.line.width = ext->series.width;
 2895              		.loc 3 872 0
 2896 005c 7B6F     		ldr	r3, [r7, #116]
 2897 005e B3F93430 		ldrsh	r3, [r3, #52]
 2898 0062 A7F85430 		strh	r3, [r7, #84]	@ movhi
 873:..\..\..\lvgl\version_6.1.2\lvgl\src\lv_objx/lv_chart.c **** 
 874:..\..\..\lvgl\version_6.1.2\lvgl\src\lv_objx/lv_chart.c ****     /*Go through all data lines*/
 875:..\..\..\lvgl\version_6.1.2\lvgl\src\lv_objx/lv_chart.c ****     LV_LL_READ_BACK(ext->series_ll, ser)
 2899              		.loc 3 875 0
 2900 0066 7B6F     		ldr	r3, [r7, #116]
 2901 0068 1846     		mov	r0, r3
 2902 006a FFF7FEFF 		bl	lv_ll_get_tail
 2903 006e B867     		str	r0, [r7, #120]
 2904 0070 D9E0     		b	.L150
 2905              	.L156:
 2906              	.LBB8:
 876:..\..\..\lvgl\version_6.1.2\lvgl\src\lv_objx/lv_chart.c ****     {
 877:..\..\..\lvgl\version_6.1.2\lvgl\src\lv_objx/lv_chart.c ****         style.line.color = ser->color;
 2907              		.loc 3 877 0
 2908 0072 BB6F     		ldr	r3, [r7, #120]
 2909 0074 5B68     		ldr	r3, [r3, #4]
 2910 0076 3B65     		str	r3, [r7, #80]
 878:..\..\..\lvgl\version_6.1.2\lvgl\src\lv_objx/lv_chart.c **** 
 879:..\..\..\lvgl\version_6.1.2\lvgl\src\lv_objx/lv_chart.c ****         lv_coord_t start_point = ext->update_mode == LV_CHART_UPDATE_MODE_SHIFT ? ser->start_point 
 2911              		.loc 3 879 0
 2912 0078 7B6F     		ldr	r3, [r7, #116]
 2913 007a 93F83230 		ldrb	r3, [r3, #50]	@ zero_extendqisi2
 2914 007e 03F00103 		and	r3, r3, #1
 2915 0082 DBB2     		uxtb	r3, r3
 2916 0084 002B     		cmp	r3, #0
 2917 0086 03D1     		bne	.L151
 2918              		.loc 3 879 0 is_stmt 0 discriminator 1
 2919 0088 BB6F     		ldr	r3, [r7, #120]
 2920 008a 1B89     		ldrh	r3, [r3, #8]
 2921 008c 1BB2     		sxth	r3, r3
 2922 008e 00E0     		b	.L152
 2923              	.L151:
 2924              		.loc 3 879 0 discriminator 2
 2925 0090 0023     		movs	r3, #0
 2926              	.L152:
 2927              		.loc 3 879 0 discriminator 4
 2928 0092 A7F86830 		strh	r3, [r7, #104]	@ movhi
 880:..\..\..\lvgl\version_6.1.2\lvgl\src\lv_objx/lv_chart.c **** 
 881:..\..\..\lvgl\version_6.1.2\lvgl\src\lv_objx/lv_chart.c ****         p1.x = 0 + x_ofs;
 2929              		.loc 3 881 0 is_stmt 1 discriminator 4
 2930 0096 B7F86E30 		ldrh	r3, [r7, #110]	@ movhi
 2931 009a A7F85C30 		strh	r3, [r7, #92]	@ movhi
 882:..\..\..\lvgl\version_6.1.2\lvgl\src\lv_objx/lv_chart.c ****         p2.x = 0 + x_ofs;
 2932              		.loc 3 882 0 discriminator 4
 2933 009e B7F86E30 		ldrh	r3, [r7, #110]	@ movhi
 2934 00a2 A7F85830 		strh	r3, [r7, #88]	@ movhi
 883:..\..\..\lvgl\version_6.1.2\lvgl\src\lv_objx/lv_chart.c **** 
ARM GAS  C:\Users\tmj32\AppData\Local\Temp\ccrrExWC.s 			page 81


 884:..\..\..\lvgl\version_6.1.2\lvgl\src\lv_objx/lv_chart.c ****         p_prev = start_point;
 2935              		.loc 3 884 0 discriminator 4
 2936 00a6 B7F86830 		ldrh	r3, [r7, #104]	@ movhi
 2937 00aa A7F87C30 		strh	r3, [r7, #124]	@ movhi
 885:..\..\..\lvgl\version_6.1.2\lvgl\src\lv_objx/lv_chart.c ****         y_tmp  = (int32_t)((int32_t)ser->points[p_prev] - ext->ymin) * h;
 2938              		.loc 3 885 0 discriminator 4
 2939 00ae BB6F     		ldr	r3, [r7, #120]
 2940 00b0 1A68     		ldr	r2, [r3]
 2941 00b2 B7F97C30 		ldrsh	r3, [r7, #124]
 2942 00b6 5B00     		lsls	r3, r3, #1
 2943 00b8 1344     		add	r3, r3, r2
 2944 00ba B3F90030 		ldrsh	r3, [r3]
 2945 00be 1A46     		mov	r2, r3
 2946 00c0 7B6F     		ldr	r3, [r7, #116]
 2947 00c2 B3F90C30 		ldrsh	r3, [r3, #12]
 2948 00c6 D31A     		subs	r3, r2, r3
 2949 00c8 B7F97020 		ldrsh	r2, [r7, #112]
 2950 00cc 02FB03F3 		mul	r3, r2, r3
 2951 00d0 7B66     		str	r3, [r7, #100]
 886:..\..\..\lvgl\version_6.1.2\lvgl\src\lv_objx/lv_chart.c ****         y_tmp  = y_tmp / (ext->ymax - ext->ymin);
 2952              		.loc 3 886 0 discriminator 4
 2953 00d2 7B6F     		ldr	r3, [r7, #116]
 2954 00d4 B3F90E30 		ldrsh	r3, [r3, #14]
 2955 00d8 1A46     		mov	r2, r3
 2956 00da 7B6F     		ldr	r3, [r7, #116]
 2957 00dc B3F90C30 		ldrsh	r3, [r3, #12]
 2958 00e0 D31A     		subs	r3, r2, r3
 2959 00e2 7A6E     		ldr	r2, [r7, #100]
 2960 00e4 92FBF3F3 		sdiv	r3, r2, r3
 2961 00e8 7B66     		str	r3, [r7, #100]
 887:..\..\..\lvgl\version_6.1.2\lvgl\src\lv_objx/lv_chart.c ****         p2.y   = h - y_tmp + y_ofs;
 2962              		.loc 3 887 0 discriminator 4
 2963 00ea B7F87020 		ldrh	r2, [r7, #112]
 2964 00ee 7B6E     		ldr	r3, [r7, #100]
 2965 00f0 9BB2     		uxth	r3, r3
 2966 00f2 D31A     		subs	r3, r2, r3
 2967 00f4 9AB2     		uxth	r2, r3
 2968 00f6 B7F86C30 		ldrh	r3, [r7, #108]
 2969 00fa 1344     		add	r3, r3, r2
 2970 00fc 9BB2     		uxth	r3, r3
 2971 00fe 1BB2     		sxth	r3, r3
 2972 0100 A7F85A30 		strh	r3, [r7, #90]	@ movhi
 888:..\..\..\lvgl\version_6.1.2\lvgl\src\lv_objx/lv_chart.c **** 
 889:..\..\..\lvgl\version_6.1.2\lvgl\src\lv_objx/lv_chart.c ****         for(i = 1; i < ext->point_cnt; i++) {
 2973              		.loc 3 889 0 discriminator 4
 2974 0104 0123     		movs	r3, #1
 2975 0106 A7F87E30 		strh	r3, [r7, #126]	@ movhi
 2976 010a 7FE0     		b	.L153
 2977              	.L155:
 890:..\..\..\lvgl\version_6.1.2\lvgl\src\lv_objx/lv_chart.c ****             p1.x = p2.x;
 2978              		.loc 3 890 0
 2979 010c B7F95830 		ldrsh	r3, [r7, #88]
 2980 0110 A7F85C30 		strh	r3, [r7, #92]	@ movhi
 891:..\..\..\lvgl\version_6.1.2\lvgl\src\lv_objx/lv_chart.c ****             p1.y = p2.y;
 2981              		.loc 3 891 0
 2982 0114 B7F95A30 		ldrsh	r3, [r7, #90]
 2983 0118 A7F85E30 		strh	r3, [r7, #94]	@ movhi
ARM GAS  C:\Users\tmj32\AppData\Local\Temp\ccrrExWC.s 			page 82


 892:..\..\..\lvgl\version_6.1.2\lvgl\src\lv_objx/lv_chart.c **** 
 893:..\..\..\lvgl\version_6.1.2\lvgl\src\lv_objx/lv_chart.c ****             p2.x = ((w * i) / (ext->point_cnt - 1)) + x_ofs;
 2984              		.loc 3 893 0
 2985 011c B7F97230 		ldrsh	r3, [r7, #114]
 2986 0120 B7F87E20 		ldrh	r2, [r7, #126]
 2987 0124 02FB03F2 		mul	r2, r2, r3
 2988 0128 7B6F     		ldr	r3, [r7, #116]
 2989 012a 5B8A     		ldrh	r3, [r3, #18]
 2990 012c 013B     		subs	r3, r3, #1
 2991 012e 92FBF3F3 		sdiv	r3, r2, r3
 2992 0132 9AB2     		uxth	r2, r3
 2993 0134 B7F86E30 		ldrh	r3, [r7, #110]
 2994 0138 1344     		add	r3, r3, r2
 2995 013a 9BB2     		uxth	r3, r3
 2996 013c 1BB2     		sxth	r3, r3
 2997 013e A7F85830 		strh	r3, [r7, #88]	@ movhi
 894:..\..\..\lvgl\version_6.1.2\lvgl\src\lv_objx/lv_chart.c **** 
 895:..\..\..\lvgl\version_6.1.2\lvgl\src\lv_objx/lv_chart.c ****             p_act = (start_point + i) % ext->point_cnt;
 2998              		.loc 3 895 0
 2999 0142 B7F96820 		ldrsh	r2, [r7, #104]
 3000 0146 B7F87E30 		ldrh	r3, [r7, #126]
 3001 014a 1344     		add	r3, r3, r2
 3002 014c 7A6F     		ldr	r2, [r7, #116]
 3003 014e 528A     		ldrh	r2, [r2, #18]
 3004 0150 93FBF2F1 		sdiv	r1, r3, r2
 3005 0154 02FB01F2 		mul	r2, r2, r1
 3006 0158 9B1A     		subs	r3, r3, r2
 3007 015a A7F86230 		strh	r3, [r7, #98]	@ movhi
 896:..\..\..\lvgl\version_6.1.2\lvgl\src\lv_objx/lv_chart.c **** 
 897:..\..\..\lvgl\version_6.1.2\lvgl\src\lv_objx/lv_chart.c ****             y_tmp = (int32_t)((int32_t)ser->points[p_act] - ext->ymin) * h;
 3008              		.loc 3 897 0
 3009 015e BB6F     		ldr	r3, [r7, #120]
 3010 0160 1A68     		ldr	r2, [r3]
 3011 0162 B7F96230 		ldrsh	r3, [r7, #98]
 3012 0166 5B00     		lsls	r3, r3, #1
 3013 0168 1344     		add	r3, r3, r2
 3014 016a B3F90030 		ldrsh	r3, [r3]
 3015 016e 1A46     		mov	r2, r3
 3016 0170 7B6F     		ldr	r3, [r7, #116]
 3017 0172 B3F90C30 		ldrsh	r3, [r3, #12]
 3018 0176 D31A     		subs	r3, r2, r3
 3019 0178 B7F97020 		ldrsh	r2, [r7, #112]
 3020 017c 02FB03F3 		mul	r3, r2, r3
 3021 0180 7B66     		str	r3, [r7, #100]
 898:..\..\..\lvgl\version_6.1.2\lvgl\src\lv_objx/lv_chart.c ****             y_tmp = y_tmp / (ext->ymax - ext->ymin);
 3022              		.loc 3 898 0
 3023 0182 7B6F     		ldr	r3, [r7, #116]
 3024 0184 B3F90E30 		ldrsh	r3, [r3, #14]
 3025 0188 1A46     		mov	r2, r3
 3026 018a 7B6F     		ldr	r3, [r7, #116]
 3027 018c B3F90C30 		ldrsh	r3, [r3, #12]
 3028 0190 D31A     		subs	r3, r2, r3
 3029 0192 7A6E     		ldr	r2, [r7, #100]
 3030 0194 92FBF3F3 		sdiv	r3, r2, r3
 3031 0198 7B66     		str	r3, [r7, #100]
 899:..\..\..\lvgl\version_6.1.2\lvgl\src\lv_objx/lv_chart.c ****             p2.y  = h - y_tmp + y_ofs;
 3032              		.loc 3 899 0
ARM GAS  C:\Users\tmj32\AppData\Local\Temp\ccrrExWC.s 			page 83


 3033 019a B7F87020 		ldrh	r2, [r7, #112]
 3034 019e 7B6E     		ldr	r3, [r7, #100]
 3035 01a0 9BB2     		uxth	r3, r3
 3036 01a2 D31A     		subs	r3, r2, r3
 3037 01a4 9AB2     		uxth	r2, r3
 3038 01a6 B7F86C30 		ldrh	r3, [r7, #108]
 3039 01aa 1344     		add	r3, r3, r2
 3040 01ac 9BB2     		uxth	r3, r3
 3041 01ae 1BB2     		sxth	r3, r3
 3042 01b0 A7F85A30 		strh	r3, [r7, #90]	@ movhi
 900:..\..\..\lvgl\version_6.1.2\lvgl\src\lv_objx/lv_chart.c **** 
 901:..\..\..\lvgl\version_6.1.2\lvgl\src\lv_objx/lv_chart.c ****             if(ser->points[p_prev] != LV_CHART_POINT_DEF && ser->points[p_act] != LV_CHART_POINT_DE
 3043              		.loc 3 901 0
 3044 01b4 BB6F     		ldr	r3, [r7, #120]
 3045 01b6 1A68     		ldr	r2, [r3]
 3046 01b8 B7F97C30 		ldrsh	r3, [r7, #124]
 3047 01bc 5B00     		lsls	r3, r3, #1
 3048 01be 1344     		add	r3, r3, r2
 3049 01c0 B3F90030 		ldrsh	r3, [r3]
 3050 01c4 1D4A     		ldr	r2, .L157+4
 3051 01c6 9342     		cmp	r3, r2
 3052 01c8 17D0     		beq	.L154
 3053              		.loc 3 901 0 is_stmt 0 discriminator 1
 3054 01ca BB6F     		ldr	r3, [r7, #120]
 3055 01cc 1A68     		ldr	r2, [r3]
 3056 01ce B7F96230 		ldrsh	r3, [r7, #98]
 3057 01d2 5B00     		lsls	r3, r3, #1
 3058 01d4 1344     		add	r3, r3, r2
 3059 01d6 B3F90030 		ldrsh	r3, [r3]
 3060 01da 184A     		ldr	r2, .L157+4
 3061 01dc 9342     		cmp	r3, r2
 3062 01de 0CD0     		beq	.L154
 902:..\..\..\lvgl\version_6.1.2\lvgl\src\lv_objx/lv_chart.c ****                 lv_draw_line(&p1, &p2, mask, &style, opa_scale);
 3063              		.loc 3 902 0 is_stmt 1
 3064 01e0 07F10802 		add	r2, r7, #8
 3065 01e4 07F15801 		add	r1, r7, #88
 3066 01e8 07F15C00 		add	r0, r7, #92
 3067 01ec 97F86B30 		ldrb	r3, [r7, #107]	@ zero_extendqisi2
 3068 01f0 0093     		str	r3, [sp]
 3069 01f2 1346     		mov	r3, r2
 3070 01f4 3A68     		ldr	r2, [r7]
 3071 01f6 FFF7FEFF 		bl	lv_draw_line
 3072              	.L154:
 903:..\..\..\lvgl\version_6.1.2\lvgl\src\lv_objx/lv_chart.c **** 
 904:..\..\..\lvgl\version_6.1.2\lvgl\src\lv_objx/lv_chart.c ****             p_prev = p_act;
 3073              		.loc 3 904 0 discriminator 2
 3074 01fa B7F86230 		ldrh	r3, [r7, #98]	@ movhi
 3075 01fe A7F87C30 		strh	r3, [r7, #124]	@ movhi
 889:..\..\..\lvgl\version_6.1.2\lvgl\src\lv_objx/lv_chart.c ****             p1.x = p2.x;
 3076              		.loc 3 889 0 discriminator 2
 3077 0202 B7F87E30 		ldrh	r3, [r7, #126]
 3078 0206 0133     		adds	r3, r3, #1
 3079 0208 A7F87E30 		strh	r3, [r7, #126]	@ movhi
 3080              	.L153:
 889:..\..\..\lvgl\version_6.1.2\lvgl\src\lv_objx/lv_chart.c ****             p1.x = p2.x;
 3081              		.loc 3 889 0 is_stmt 0 discriminator 1
 3082 020c 7B6F     		ldr	r3, [r7, #116]
ARM GAS  C:\Users\tmj32\AppData\Local\Temp\ccrrExWC.s 			page 84


 3083 020e 5B8A     		ldrh	r3, [r3, #18]
 3084 0210 B7F87E20 		ldrh	r2, [r7, #126]
 3085 0214 9A42     		cmp	r2, r3
 3086 0216 FFF479AF 		bcc	.L155
 3087              	.LBE8:
 875:..\..\..\lvgl\version_6.1.2\lvgl\src\lv_objx/lv_chart.c ****     {
 3088              		.loc 3 875 0 is_stmt 1 discriminator 2
 3089 021a 7B6F     		ldr	r3, [r7, #116]
 3090 021c B96F     		ldr	r1, [r7, #120]
 3091 021e 1846     		mov	r0, r3
 3092 0220 FFF7FEFF 		bl	lv_ll_get_prev
 3093 0224 B867     		str	r0, [r7, #120]
 3094              	.L150:
 875:..\..\..\lvgl\version_6.1.2\lvgl\src\lv_objx/lv_chart.c ****     {
 3095              		.loc 3 875 0 is_stmt 0 discriminator 1
 3096 0226 BB6F     		ldr	r3, [r7, #120]
 3097 0228 002B     		cmp	r3, #0
 3098 022a 7FF422AF 		bne	.L156
 905:..\..\..\lvgl\version_6.1.2\lvgl\src\lv_objx/lv_chart.c ****         }
 906:..\..\..\lvgl\version_6.1.2\lvgl\src\lv_objx/lv_chart.c ****     }
 907:..\..\..\lvgl\version_6.1.2\lvgl\src\lv_objx/lv_chart.c **** }
 3099              		.loc 3 907 0 is_stmt 1
 3100 022e 00BF     		nop
 3101 0230 8037     		adds	r7, r7, #128
 3102              		.cfi_def_cfa_offset 8
 3103 0232 BD46     		mov	sp, r7
 3104              		.cfi_def_cfa_register 13
 3105              		@ sp needed
 3106 0234 80BD     		pop	{r7, pc}
 3107              	.L158:
 3108 0236 00BF     		.align	2
 3109              	.L157:
 3110 0238 00000000 		.word	lv_style_plain
 3111 023c E883FFFF 		.word	-31768
 3112              		.cfi_endproc
 3113              	.LFE66:
 3114              		.size	lv_chart_draw_lines, .-lv_chart_draw_lines
 3115              		.section	.text.lv_chart_draw_points,"ax",%progbits
 3116              		.align	2
 3117              		.thumb
 3118              		.thumb_func
 3119              		.type	lv_chart_draw_points, %function
 3120              	lv_chart_draw_points:
 3121              	.LFB67:
 908:..\..\..\lvgl\version_6.1.2\lvgl\src\lv_objx/lv_chart.c **** 
 909:..\..\..\lvgl\version_6.1.2\lvgl\src\lv_objx/lv_chart.c **** /**
 910:..\..\..\lvgl\version_6.1.2\lvgl\src\lv_objx/lv_chart.c ****  * Draw the data lines as points on a chart
 911:..\..\..\lvgl\version_6.1.2\lvgl\src\lv_objx/lv_chart.c ****  * @param chart pointer to chart object
 912:..\..\..\lvgl\version_6.1.2\lvgl\src\lv_objx/lv_chart.c ****  * @param mask mask, inherited from the design function
 913:..\..\..\lvgl\version_6.1.2\lvgl\src\lv_objx/lv_chart.c ****  */
 914:..\..\..\lvgl\version_6.1.2\lvgl\src\lv_objx/lv_chart.c **** static void lv_chart_draw_points(lv_obj_t * chart, const lv_area_t * mask)
 915:..\..\..\lvgl\version_6.1.2\lvgl\src\lv_objx/lv_chart.c **** {
 3122              		.loc 3 915 0
 3123              		.cfi_startproc
 3124              		@ args = 0, pretend = 0, frame = 136
 3125              		@ frame_needed = 1, uses_anonymous_args = 0
 3126 0000 80B5     		push	{r7, lr}
ARM GAS  C:\Users\tmj32\AppData\Local\Temp\ccrrExWC.s 			page 85


 3127              		.cfi_def_cfa_offset 8
 3128              		.cfi_offset 7, -8
 3129              		.cfi_offset 14, -4
 3130 0002 A2B0     		sub	sp, sp, #136
 3131              		.cfi_def_cfa_offset 144
 3132 0004 00AF     		add	r7, sp, #0
 3133              		.cfi_def_cfa_register 7
 3134 0006 7860     		str	r0, [r7, #4]
 3135 0008 3960     		str	r1, [r7]
 916:..\..\..\lvgl\version_6.1.2\lvgl\src\lv_objx/lv_chart.c ****     lv_chart_ext_t * ext = lv_obj_get_ext_attr(chart);
 3136              		.loc 3 916 0
 3137 000a 7868     		ldr	r0, [r7, #4]
 3138 000c FFF7FEFF 		bl	lv_obj_get_ext_attr
 3139 0010 B867     		str	r0, [r7, #120]
 917:..\..\..\lvgl\version_6.1.2\lvgl\src\lv_objx/lv_chart.c **** 
 918:..\..\..\lvgl\version_6.1.2\lvgl\src\lv_objx/lv_chart.c ****     uint16_t i;
 919:..\..\..\lvgl\version_6.1.2\lvgl\src\lv_objx/lv_chart.c ****     lv_area_t cir_a;
 920:..\..\..\lvgl\version_6.1.2\lvgl\src\lv_objx/lv_chart.c ****     lv_coord_t w     = lv_obj_get_width(chart);
 3140              		.loc 3 920 0
 3141 0012 7868     		ldr	r0, [r7, #4]
 3142 0014 FFF7FEFF 		bl	lv_obj_get_width
 3143 0018 0346     		mov	r3, r0
 3144 001a A7F87630 		strh	r3, [r7, #118]	@ movhi
 921:..\..\..\lvgl\version_6.1.2\lvgl\src\lv_objx/lv_chart.c ****     lv_coord_t h     = lv_obj_get_height(chart);
 3145              		.loc 3 921 0
 3146 001e 7868     		ldr	r0, [r7, #4]
 3147 0020 FFF7FEFF 		bl	lv_obj_get_height
 3148 0024 0346     		mov	r3, r0
 3149 0026 A7F87430 		strh	r3, [r7, #116]	@ movhi
 922:..\..\..\lvgl\version_6.1.2\lvgl\src\lv_objx/lv_chart.c ****     lv_coord_t x_ofs = chart->coords.x1;
 3150              		.loc 3 922 0
 3151 002a 7B68     		ldr	r3, [r7, #4]
 3152 002c 1B8A     		ldrh	r3, [r3, #16]	@ movhi
 3153 002e A7F87230 		strh	r3, [r7, #114]	@ movhi
 923:..\..\..\lvgl\version_6.1.2\lvgl\src\lv_objx/lv_chart.c ****     lv_coord_t y_ofs = chart->coords.y1;
 3154              		.loc 3 923 0
 3155 0032 7B68     		ldr	r3, [r7, #4]
 3156 0034 5B8A     		ldrh	r3, [r3, #18]	@ movhi
 3157 0036 A7F87030 		strh	r3, [r7, #112]	@ movhi
 924:..\..\..\lvgl\version_6.1.2\lvgl\src\lv_objx/lv_chart.c ****     int32_t y_tmp;
 925:..\..\..\lvgl\version_6.1.2\lvgl\src\lv_objx/lv_chart.c ****     lv_coord_t p_act;
 926:..\..\..\lvgl\version_6.1.2\lvgl\src\lv_objx/lv_chart.c ****     lv_chart_series_t * ser;
 927:..\..\..\lvgl\version_6.1.2\lvgl\src\lv_objx/lv_chart.c ****     uint8_t series_cnt = 0;
 3158              		.loc 3 927 0
 3159 003a 0023     		movs	r3, #0
 3160 003c 87F87F30 		strb	r3, [r7, #127]
 928:..\..\..\lvgl\version_6.1.2\lvgl\src\lv_objx/lv_chart.c ****     lv_style_t style_point;
 929:..\..\..\lvgl\version_6.1.2\lvgl\src\lv_objx/lv_chart.c ****     lv_style_copy(&style_point, &lv_style_plain);
 3161              		.loc 3 929 0
 3162 0040 07F10C03 		add	r3, r7, #12
 3163 0044 7C49     		ldr	r1, .L167
 3164 0046 1846     		mov	r0, r3
 3165 0048 FFF7FEFF 		bl	lv_style_copy
 930:..\..\..\lvgl\version_6.1.2\lvgl\src\lv_objx/lv_chart.c **** 
 931:..\..\..\lvgl\version_6.1.2\lvgl\src\lv_objx/lv_chart.c ****     style_point.body.border.width = 0;
 3166              		.loc 3 931 0
 3167 004c 0023     		movs	r3, #0
ARM GAS  C:\Users\tmj32\AppData\Local\Temp\ccrrExWC.s 			page 86


 3168 004e 3B84     		strh	r3, [r7, #32]	@ movhi
 932:..\..\..\lvgl\version_6.1.2\lvgl\src\lv_objx/lv_chart.c ****     style_point.body.radius       = LV_RADIUS_CIRCLE;
 3169              		.loc 3 932 0
 3170 0050 47F61843 		movw	r3, #31768
 3171 0054 3B83     		strh	r3, [r7, #24]	@ movhi
 933:..\..\..\lvgl\version_6.1.2\lvgl\src\lv_objx/lv_chart.c ****     style_point.body.opa          = ext->series.opa;
 3172              		.loc 3 933 0
 3173 0056 BB6F     		ldr	r3, [r7, #120]
 3174 0058 93F83730 		ldrb	r3, [r3, #55]	@ zero_extendqisi2
 3175 005c BB76     		strb	r3, [r7, #26]
 934:..\..\..\lvgl\version_6.1.2\lvgl\src\lv_objx/lv_chart.c ****     style_point.body.radius       = ext->series.width;
 3176              		.loc 3 934 0
 3177 005e BB6F     		ldr	r3, [r7, #120]
 3178 0060 B3F93430 		ldrsh	r3, [r3, #52]
 3179 0064 3B83     		strh	r3, [r7, #24]	@ movhi
 935:..\..\..\lvgl\version_6.1.2\lvgl\src\lv_objx/lv_chart.c **** 
 936:..\..\..\lvgl\version_6.1.2\lvgl\src\lv_objx/lv_chart.c ****     /*Go through all data lines*/
 937:..\..\..\lvgl\version_6.1.2\lvgl\src\lv_objx/lv_chart.c **** 
 938:..\..\..\lvgl\version_6.1.2\lvgl\src\lv_objx/lv_chart.c ****     LV_LL_READ_BACK(ext->series_ll, ser)
 3180              		.loc 3 938 0
 3181 0066 BB6F     		ldr	r3, [r7, #120]
 3182 0068 1846     		mov	r0, r3
 3183 006a FFF7FEFF 		bl	lv_ll_get_tail
 3184 006e C7F88000 		str	r0, [r7, #128]
 3185 0072 D8E0     		b	.L160
 3186              	.L166:
 3187              	.LBB9:
 939:..\..\..\lvgl\version_6.1.2\lvgl\src\lv_objx/lv_chart.c ****     {
 940:..\..\..\lvgl\version_6.1.2\lvgl\src\lv_objx/lv_chart.c ****         lv_coord_t start_point = ext->update_mode == LV_CHART_UPDATE_MODE_SHIFT ? ser->start_point 
 3188              		.loc 3 940 0
 3189 0074 BB6F     		ldr	r3, [r7, #120]
 3190 0076 93F83230 		ldrb	r3, [r3, #50]	@ zero_extendqisi2
 3191 007a 03F00103 		and	r3, r3, #1
 3192 007e DBB2     		uxtb	r3, r3
 3193 0080 002B     		cmp	r3, #0
 3194 0082 04D1     		bne	.L161
 3195              		.loc 3 940 0 is_stmt 0 discriminator 1
 3196 0084 D7F88030 		ldr	r3, [r7, #128]
 3197 0088 1B89     		ldrh	r3, [r3, #8]
 3198 008a 1BB2     		sxth	r3, r3
 3199 008c 00E0     		b	.L162
 3200              	.L161:
 3201              		.loc 3 940 0 discriminator 2
 3202 008e 0023     		movs	r3, #0
 3203              	.L162:
 3204              		.loc 3 940 0 discriminator 4
 3205 0090 A7F86E30 		strh	r3, [r7, #110]	@ movhi
 941:..\..\..\lvgl\version_6.1.2\lvgl\src\lv_objx/lv_chart.c **** 
 942:..\..\..\lvgl\version_6.1.2\lvgl\src\lv_objx/lv_chart.c ****         style_point.body.main_color = ser->color;
 3206              		.loc 3 942 0 is_stmt 1 discriminator 4
 3207 0094 D7F88030 		ldr	r3, [r7, #128]
 3208 0098 5B68     		ldr	r3, [r3, #4]
 3209 009a 3B61     		str	r3, [r7, #16]
 943:..\..\..\lvgl\version_6.1.2\lvgl\src\lv_objx/lv_chart.c ****         style_point.body.grad_color = lv_color_mix(LV_COLOR_BLACK, ser->color, ext->series.dark);
 3210              		.loc 3 943 0 discriminator 4
 3211 009c 0023     		movs	r3, #0
 3212 009e 87F86430 		strb	r3, [r7, #100]
ARM GAS  C:\Users\tmj32\AppData\Local\Temp\ccrrExWC.s 			page 87


 3213 00a2 0023     		movs	r3, #0
 3214 00a4 87F86530 		strb	r3, [r7, #101]
 3215 00a8 0023     		movs	r3, #0
 3216 00aa 87F86630 		strb	r3, [r7, #102]
 3217 00ae FF23     		movs	r3, #255
 3218 00b0 87F86730 		strb	r3, [r7, #103]
 3219 00b4 BB6F     		ldr	r3, [r7, #120]
 3220 00b6 93F83820 		ldrb	r2, [r3, #56]	@ zero_extendqisi2
 3221 00ba D7F88030 		ldr	r3, [r7, #128]
 3222 00be 5968     		ldr	r1, [r3, #4]
 3223 00c0 786E     		ldr	r0, [r7, #100]
 3224 00c2 FFF7FEFF 		bl	lv_color_mix
 3225 00c6 7861     		str	r0, [r7, #20]
 944:..\..\..\lvgl\version_6.1.2\lvgl\src\lv_objx/lv_chart.c **** 
 945:..\..\..\lvgl\version_6.1.2\lvgl\src\lv_objx/lv_chart.c ****         for(i = 0; i < ext->point_cnt; i++) {
 3226              		.loc 3 945 0 discriminator 4
 3227 00c8 0023     		movs	r3, #0
 3228 00ca A7F88630 		strh	r3, [r7, #134]	@ movhi
 3229 00ce 96E0     		b	.L163
 3230              	.L165:
 946:..\..\..\lvgl\version_6.1.2\lvgl\src\lv_objx/lv_chart.c ****             cir_a.x1 = ((w * i) / (ext->point_cnt - 1)) + x_ofs;
 3231              		.loc 3 946 0
 3232 00d0 B7F97630 		ldrsh	r3, [r7, #118]
 3233 00d4 B7F88620 		ldrh	r2, [r7, #134]
 3234 00d8 02FB03F2 		mul	r2, r2, r3
 3235 00dc BB6F     		ldr	r3, [r7, #120]
 3236 00de 5B8A     		ldrh	r3, [r3, #18]
 3237 00e0 013B     		subs	r3, r3, #1
 3238 00e2 92FBF3F3 		sdiv	r3, r2, r3
 3239 00e6 9AB2     		uxth	r2, r3
 3240 00e8 B7F87230 		ldrh	r3, [r7, #114]
 3241 00ec 1344     		add	r3, r3, r2
 3242 00ee 9BB2     		uxth	r3, r3
 3243 00f0 1BB2     		sxth	r3, r3
 3244 00f2 A7F85C30 		strh	r3, [r7, #92]	@ movhi
 947:..\..\..\lvgl\version_6.1.2\lvgl\src\lv_objx/lv_chart.c ****             cir_a.x2 = cir_a.x1 + style_point.body.radius;
 3245              		.loc 3 947 0
 3246 00f6 B7F95C30 		ldrsh	r3, [r7, #92]
 3247 00fa 9AB2     		uxth	r2, r3
 3248 00fc B7F91830 		ldrsh	r3, [r7, #24]
 3249 0100 9BB2     		uxth	r3, r3
 3250 0102 1344     		add	r3, r3, r2
 3251 0104 9BB2     		uxth	r3, r3
 3252 0106 1BB2     		sxth	r3, r3
 3253 0108 A7F86030 		strh	r3, [r7, #96]	@ movhi
 948:..\..\..\lvgl\version_6.1.2\lvgl\src\lv_objx/lv_chart.c ****             cir_a.x1 -= style_point.body.radius;
 3254              		.loc 3 948 0
 3255 010c B7F95C30 		ldrsh	r3, [r7, #92]
 3256 0110 9AB2     		uxth	r2, r3
 3257 0112 B7F91830 		ldrsh	r3, [r7, #24]
 3258 0116 9BB2     		uxth	r3, r3
 3259 0118 D31A     		subs	r3, r2, r3
 3260 011a 9BB2     		uxth	r3, r3
 3261 011c 1BB2     		sxth	r3, r3
 3262 011e A7F85C30 		strh	r3, [r7, #92]	@ movhi
 949:..\..\..\lvgl\version_6.1.2\lvgl\src\lv_objx/lv_chart.c **** 
 950:..\..\..\lvgl\version_6.1.2\lvgl\src\lv_objx/lv_chart.c ****             p_act = (start_point + i) % ext->point_cnt;
ARM GAS  C:\Users\tmj32\AppData\Local\Temp\ccrrExWC.s 			page 88


 3263              		.loc 3 950 0
 3264 0122 B7F96E20 		ldrsh	r2, [r7, #110]
 3265 0126 B7F88630 		ldrh	r3, [r7, #134]
 3266 012a 1344     		add	r3, r3, r2
 3267 012c BA6F     		ldr	r2, [r7, #120]
 3268 012e 528A     		ldrh	r2, [r2, #18]
 3269 0130 93FBF2F1 		sdiv	r1, r3, r2
 3270 0134 02FB01F2 		mul	r2, r2, r1
 3271 0138 9B1A     		subs	r3, r3, r2
 3272 013a A7F86C30 		strh	r3, [r7, #108]	@ movhi
 951:..\..\..\lvgl\version_6.1.2\lvgl\src\lv_objx/lv_chart.c ****             y_tmp = (int32_t)((int32_t)ser->points[p_act] - ext->ymin) * h;
 3273              		.loc 3 951 0
 3274 013e D7F88030 		ldr	r3, [r7, #128]
 3275 0142 1A68     		ldr	r2, [r3]
 3276 0144 B7F96C30 		ldrsh	r3, [r7, #108]
 3277 0148 5B00     		lsls	r3, r3, #1
 3278 014a 1344     		add	r3, r3, r2
 3279 014c B3F90030 		ldrsh	r3, [r3]
 3280 0150 1A46     		mov	r2, r3
 3281 0152 BB6F     		ldr	r3, [r7, #120]
 3282 0154 B3F90C30 		ldrsh	r3, [r3, #12]
 3283 0158 D31A     		subs	r3, r2, r3
 3284 015a B7F97420 		ldrsh	r2, [r7, #116]
 3285 015e 02FB03F3 		mul	r3, r2, r3
 3286 0162 BB66     		str	r3, [r7, #104]
 952:..\..\..\lvgl\version_6.1.2\lvgl\src\lv_objx/lv_chart.c ****             y_tmp = y_tmp / (ext->ymax - ext->ymin);
 3287              		.loc 3 952 0
 3288 0164 BB6F     		ldr	r3, [r7, #120]
 3289 0166 B3F90E30 		ldrsh	r3, [r3, #14]
 3290 016a 1A46     		mov	r2, r3
 3291 016c BB6F     		ldr	r3, [r7, #120]
 3292 016e B3F90C30 		ldrsh	r3, [r3, #12]
 3293 0172 D31A     		subs	r3, r2, r3
 3294 0174 BA6E     		ldr	r2, [r7, #104]
 3295 0176 92FBF3F3 		sdiv	r3, r2, r3
 3296 017a BB66     		str	r3, [r7, #104]
 953:..\..\..\lvgl\version_6.1.2\lvgl\src\lv_objx/lv_chart.c **** 
 954:..\..\..\lvgl\version_6.1.2\lvgl\src\lv_objx/lv_chart.c ****             cir_a.y1 = h - y_tmp + y_ofs - 1;
 3297              		.loc 3 954 0
 3298 017c B7F87420 		ldrh	r2, [r7, #116]
 3299 0180 BB6E     		ldr	r3, [r7, #104]
 3300 0182 9BB2     		uxth	r3, r3
 3301 0184 D31A     		subs	r3, r2, r3
 3302 0186 9AB2     		uxth	r2, r3
 3303 0188 B7F87030 		ldrh	r3, [r7, #112]
 3304 018c 1344     		add	r3, r3, r2
 3305 018e 9BB2     		uxth	r3, r3
 3306 0190 013B     		subs	r3, r3, #1
 3307 0192 9BB2     		uxth	r3, r3
 3308 0194 1BB2     		sxth	r3, r3
 3309 0196 A7F85E30 		strh	r3, [r7, #94]	@ movhi
 955:..\..\..\lvgl\version_6.1.2\lvgl\src\lv_objx/lv_chart.c ****             cir_a.y2 = cir_a.y1 + style_point.body.radius;
 3310              		.loc 3 955 0
 3311 019a B7F95E30 		ldrsh	r3, [r7, #94]
 3312 019e 9AB2     		uxth	r2, r3
 3313 01a0 B7F91830 		ldrsh	r3, [r7, #24]
 3314 01a4 9BB2     		uxth	r3, r3
ARM GAS  C:\Users\tmj32\AppData\Local\Temp\ccrrExWC.s 			page 89


 3315 01a6 1344     		add	r3, r3, r2
 3316 01a8 9BB2     		uxth	r3, r3
 3317 01aa 1BB2     		sxth	r3, r3
 3318 01ac A7F86230 		strh	r3, [r7, #98]	@ movhi
 956:..\..\..\lvgl\version_6.1.2\lvgl\src\lv_objx/lv_chart.c ****             cir_a.y1 -= style_point.body.radius;
 3319              		.loc 3 956 0
 3320 01b0 B7F95E30 		ldrsh	r3, [r7, #94]
 3321 01b4 9AB2     		uxth	r2, r3
 3322 01b6 B7F91830 		ldrsh	r3, [r7, #24]
 3323 01ba 9BB2     		uxth	r3, r3
 3324 01bc D31A     		subs	r3, r2, r3
 3325 01be 9BB2     		uxth	r3, r3
 3326 01c0 1BB2     		sxth	r3, r3
 3327 01c2 A7F85E30 		strh	r3, [r7, #94]	@ movhi
 957:..\..\..\lvgl\version_6.1.2\lvgl\src\lv_objx/lv_chart.c **** 
 958:..\..\..\lvgl\version_6.1.2\lvgl\src\lv_objx/lv_chart.c ****             if(ser->points[p_act] != LV_CHART_POINT_DEF)
 3328              		.loc 3 958 0
 3329 01c6 D7F88030 		ldr	r3, [r7, #128]
 3330 01ca 1A68     		ldr	r2, [r3]
 3331 01cc B7F96C30 		ldrsh	r3, [r7, #108]
 3332 01d0 5B00     		lsls	r3, r3, #1
 3333 01d2 1344     		add	r3, r3, r2
 3334 01d4 B3F90030 		ldrsh	r3, [r3]
 3335 01d8 184A     		ldr	r2, .L167+4
 3336 01da 9342     		cmp	r3, r2
 3337 01dc 0AD0     		beq	.L164
 959:..\..\..\lvgl\version_6.1.2\lvgl\src\lv_objx/lv_chart.c ****                 lv_draw_rect(&cir_a, mask, &style_point, lv_obj_get_opa_scale(chart));
 3338              		.loc 3 959 0
 3339 01de 7868     		ldr	r0, [r7, #4]
 3340 01e0 FFF7FEFF 		bl	lv_obj_get_opa_scale
 3341 01e4 0346     		mov	r3, r0
 3342 01e6 07F10C02 		add	r2, r7, #12
 3343 01ea 07F15C00 		add	r0, r7, #92
 3344 01ee 3968     		ldr	r1, [r7]
 3345 01f0 FFF7FEFF 		bl	lv_draw_rect
 3346              	.L164:
 945:..\..\..\lvgl\version_6.1.2\lvgl\src\lv_objx/lv_chart.c ****             cir_a.x1 = ((w * i) / (ext->point_cnt - 1)) + x_ofs;
 3347              		.loc 3 945 0 discriminator 2
 3348 01f4 B7F88630 		ldrh	r3, [r7, #134]
 3349 01f8 0133     		adds	r3, r3, #1
 3350 01fa A7F88630 		strh	r3, [r7, #134]	@ movhi
 3351              	.L163:
 945:..\..\..\lvgl\version_6.1.2\lvgl\src\lv_objx/lv_chart.c ****             cir_a.x1 = ((w * i) / (ext->point_cnt - 1)) + x_ofs;
 3352              		.loc 3 945 0 is_stmt 0 discriminator 1
 3353 01fe BB6F     		ldr	r3, [r7, #120]
 3354 0200 5B8A     		ldrh	r3, [r3, #18]
 3355 0202 B7F88620 		ldrh	r2, [r7, #134]
 3356 0206 9A42     		cmp	r2, r3
 3357 0208 FFF462AF 		bcc	.L165
 960:..\..\..\lvgl\version_6.1.2\lvgl\src\lv_objx/lv_chart.c ****         }
 961:..\..\..\lvgl\version_6.1.2\lvgl\src\lv_objx/lv_chart.c ****         series_cnt++;
 3358              		.loc 3 961 0 is_stmt 1 discriminator 2
 3359 020c 97F87F30 		ldrb	r3, [r7, #127]	@ zero_extendqisi2
 3360 0210 0133     		adds	r3, r3, #1
 3361 0212 87F87F30 		strb	r3, [r7, #127]
 3362              	.LBE9:
 938:..\..\..\lvgl\version_6.1.2\lvgl\src\lv_objx/lv_chart.c ****     {
ARM GAS  C:\Users\tmj32\AppData\Local\Temp\ccrrExWC.s 			page 90


 3363              		.loc 3 938 0 discriminator 2
 3364 0216 BB6F     		ldr	r3, [r7, #120]
 3365 0218 D7F88010 		ldr	r1, [r7, #128]
 3366 021c 1846     		mov	r0, r3
 3367 021e FFF7FEFF 		bl	lv_ll_get_prev
 3368 0222 C7F88000 		str	r0, [r7, #128]
 3369              	.L160:
 938:..\..\..\lvgl\version_6.1.2\lvgl\src\lv_objx/lv_chart.c ****     {
 3370              		.loc 3 938 0 is_stmt 0 discriminator 1
 3371 0226 D7F88030 		ldr	r3, [r7, #128]
 3372 022a 002B     		cmp	r3, #0
 3373 022c 7FF422AF 		bne	.L166
 962:..\..\..\lvgl\version_6.1.2\lvgl\src\lv_objx/lv_chart.c ****     }
 963:..\..\..\lvgl\version_6.1.2\lvgl\src\lv_objx/lv_chart.c **** }
 3374              		.loc 3 963 0 is_stmt 1
 3375 0230 00BF     		nop
 3376 0232 8837     		adds	r7, r7, #136
 3377              		.cfi_def_cfa_offset 8
 3378 0234 BD46     		mov	sp, r7
 3379              		.cfi_def_cfa_register 13
 3380              		@ sp needed
 3381 0236 80BD     		pop	{r7, pc}
 3382              	.L168:
 3383              		.align	2
 3384              	.L167:
 3385 0238 00000000 		.word	lv_style_plain
 3386 023c E883FFFF 		.word	-31768
 3387              		.cfi_endproc
 3388              	.LFE67:
 3389              		.size	lv_chart_draw_points, .-lv_chart_draw_points
 3390              		.section	.text.lv_chart_draw_cols,"ax",%progbits
 3391              		.align	2
 3392              		.thumb
 3393              		.thumb_func
 3394              		.type	lv_chart_draw_cols, %function
 3395              	lv_chart_draw_cols:
 3396              	.LFB68:
 964:..\..\..\lvgl\version_6.1.2\lvgl\src\lv_objx/lv_chart.c **** 
 965:..\..\..\lvgl\version_6.1.2\lvgl\src\lv_objx/lv_chart.c **** /**
 966:..\..\..\lvgl\version_6.1.2\lvgl\src\lv_objx/lv_chart.c ****  * Draw the data lines as columns on a chart
 967:..\..\..\lvgl\version_6.1.2\lvgl\src\lv_objx/lv_chart.c ****  * @param chart pointer to chart object
 968:..\..\..\lvgl\version_6.1.2\lvgl\src\lv_objx/lv_chart.c ****  * @param mask mask, inherited from the design function
 969:..\..\..\lvgl\version_6.1.2\lvgl\src\lv_objx/lv_chart.c ****  */
 970:..\..\..\lvgl\version_6.1.2\lvgl\src\lv_objx/lv_chart.c **** static void lv_chart_draw_cols(lv_obj_t * chart, const lv_area_t * mask)
 971:..\..\..\lvgl\version_6.1.2\lvgl\src\lv_objx/lv_chart.c **** {
 3397              		.loc 3 971 0
 3398              		.cfi_startproc
 3399              		@ args = 0, pretend = 0, frame = 144
 3400              		@ frame_needed = 1, uses_anonymous_args = 0
 3401 0000 90B5     		push	{r4, r7, lr}
 3402              		.cfi_def_cfa_offset 12
 3403              		.cfi_offset 4, -12
 3404              		.cfi_offset 7, -8
 3405              		.cfi_offset 14, -4
 3406 0002 A5B0     		sub	sp, sp, #148
 3407              		.cfi_def_cfa_offset 160
 3408 0004 00AF     		add	r7, sp, #0
ARM GAS  C:\Users\tmj32\AppData\Local\Temp\ccrrExWC.s 			page 91


 3409              		.cfi_def_cfa_register 7
 3410 0006 7860     		str	r0, [r7, #4]
 3411 0008 3960     		str	r1, [r7]
 972:..\..\..\lvgl\version_6.1.2\lvgl\src\lv_objx/lv_chart.c ****     lv_chart_ext_t * ext = lv_obj_get_ext_attr(chart);
 3412              		.loc 3 972 0
 3413 000a 7868     		ldr	r0, [r7, #4]
 3414 000c FFF7FEFF 		bl	lv_obj_get_ext_attr
 3415 0010 C7F88000 		str	r0, [r7, #128]
 973:..\..\..\lvgl\version_6.1.2\lvgl\src\lv_objx/lv_chart.c **** 
 974:..\..\..\lvgl\version_6.1.2\lvgl\src\lv_objx/lv_chart.c ****     uint16_t i;
 975:..\..\..\lvgl\version_6.1.2\lvgl\src\lv_objx/lv_chart.c ****     lv_area_t col_a;
 976:..\..\..\lvgl\version_6.1.2\lvgl\src\lv_objx/lv_chart.c ****     lv_area_t col_mask;
 977:..\..\..\lvgl\version_6.1.2\lvgl\src\lv_objx/lv_chart.c ****     bool mask_ret;
 978:..\..\..\lvgl\version_6.1.2\lvgl\src\lv_objx/lv_chart.c ****     lv_coord_t w = lv_obj_get_width(chart);
 3416              		.loc 3 978 0
 3417 0014 7868     		ldr	r0, [r7, #4]
 3418 0016 FFF7FEFF 		bl	lv_obj_get_width
 3419 001a 0346     		mov	r3, r0
 3420 001c A7F87E30 		strh	r3, [r7, #126]	@ movhi
 979:..\..\..\lvgl\version_6.1.2\lvgl\src\lv_objx/lv_chart.c ****     lv_coord_t h = lv_obj_get_height(chart);
 3421              		.loc 3 979 0
 3422 0020 7868     		ldr	r0, [r7, #4]
 3423 0022 FFF7FEFF 		bl	lv_obj_get_height
 3424 0026 0346     		mov	r3, r0
 3425 0028 A7F87C30 		strh	r3, [r7, #124]	@ movhi
 980:..\..\..\lvgl\version_6.1.2\lvgl\src\lv_objx/lv_chart.c ****     int32_t y_tmp;
 981:..\..\..\lvgl\version_6.1.2\lvgl\src\lv_objx/lv_chart.c ****     lv_chart_series_t * ser;
 982:..\..\..\lvgl\version_6.1.2\lvgl\src\lv_objx/lv_chart.c ****     lv_style_t rects;
 983:..\..\..\lvgl\version_6.1.2\lvgl\src\lv_objx/lv_chart.c ****     lv_coord_t col_w = w / ((ext->series.num + 1) * ext->point_cnt); /* Suppose + 1 series as separ
 3426              		.loc 3 983 0
 3427 002c B7F97E20 		ldrsh	r2, [r7, #126]
 3428 0030 D7F88030 		ldr	r3, [r7, #128]
 3429 0034 93F83630 		ldrb	r3, [r3, #54]	@ zero_extendqisi2
 3430 0038 0133     		adds	r3, r3, #1
 3431 003a D7F88010 		ldr	r1, [r7, #128]
 3432 003e 498A     		ldrh	r1, [r1, #18]
 3433 0040 01FB03F3 		mul	r3, r1, r3
 3434 0044 92FBF3F3 		sdiv	r3, r2, r3
 3435 0048 A7F87A30 		strh	r3, [r7, #122]	@ movhi
 984:..\..\..\lvgl\version_6.1.2\lvgl\src\lv_objx/lv_chart.c ****     lv_coord_t x_ofs = col_w / 2;                                    /*Shift with a half col.*/
 3436              		.loc 3 984 0
 3437 004c B7F97A30 		ldrsh	r3, [r7, #122]
 3438 0050 DA0F     		lsrs	r2, r3, #31
 3439 0052 1344     		add	r3, r3, r2
 3440 0054 5B10     		asrs	r3, r3, #1
 3441 0056 A7F87830 		strh	r3, [r7, #120]	@ movhi
 985:..\..\..\lvgl\version_6.1.2\lvgl\src\lv_objx/lv_chart.c **** 
 986:..\..\..\lvgl\version_6.1.2\lvgl\src\lv_objx/lv_chart.c ****     lv_style_copy(&rects, &lv_style_plain);
 3442              		.loc 3 986 0
 3443 005a 07F10803 		add	r3, r7, #8
 3444 005e 8B49     		ldr	r1, .L182
 3445 0060 1846     		mov	r0, r3
 3446 0062 FFF7FEFF 		bl	lv_style_copy
 987:..\..\..\lvgl\version_6.1.2\lvgl\src\lv_objx/lv_chart.c ****     rects.body.border.width = 0;
 3447              		.loc 3 987 0
 3448 0066 0023     		movs	r3, #0
 3449 0068 BB83     		strh	r3, [r7, #28]	@ movhi
ARM GAS  C:\Users\tmj32\AppData\Local\Temp\ccrrExWC.s 			page 92


 988:..\..\..\lvgl\version_6.1.2\lvgl\src\lv_objx/lv_chart.c ****     rects.body.radius       = 0;
 3450              		.loc 3 988 0
 3451 006a 0023     		movs	r3, #0
 3452 006c BB82     		strh	r3, [r7, #20]	@ movhi
 989:..\..\..\lvgl\version_6.1.2\lvgl\src\lv_objx/lv_chart.c ****     rects.body.opa          = ext->series.opa;
 3453              		.loc 3 989 0
 3454 006e D7F88030 		ldr	r3, [r7, #128]
 3455 0072 93F83730 		ldrb	r3, [r3, #55]	@ zero_extendqisi2
 3456 0076 BB75     		strb	r3, [r7, #22]
 990:..\..\..\lvgl\version_6.1.2\lvgl\src\lv_objx/lv_chart.c **** 
 991:..\..\..\lvgl\version_6.1.2\lvgl\src\lv_objx/lv_chart.c ****     col_a.y2 = chart->coords.y2;
 3457              		.loc 3 991 0
 3458 0078 7B68     		ldr	r3, [r7, #4]
 3459 007a B3F91630 		ldrsh	r3, [r3, #22]
 3460 007e A7F86630 		strh	r3, [r7, #102]	@ movhi
 992:..\..\..\lvgl\version_6.1.2\lvgl\src\lv_objx/lv_chart.c **** 
 993:..\..\..\lvgl\version_6.1.2\lvgl\src\lv_objx/lv_chart.c ****     lv_coord_t x_act;
 994:..\..\..\lvgl\version_6.1.2\lvgl\src\lv_objx/lv_chart.c **** 
 995:..\..\..\lvgl\version_6.1.2\lvgl\src\lv_objx/lv_chart.c ****     /*Go through all points*/
 996:..\..\..\lvgl\version_6.1.2\lvgl\src\lv_objx/lv_chart.c ****     for(i = 0; i < ext->point_cnt; i++) {
 3461              		.loc 3 996 0
 3462 0082 0023     		movs	r3, #0
 3463 0084 A7F88E30 		strh	r3, [r7, #142]	@ movhi
 3464 0088 F4E0     		b	.L170
 3465              	.L179:
 997:..\..\..\lvgl\version_6.1.2\lvgl\src\lv_objx/lv_chart.c ****         x_act = (int32_t)((int32_t)w * i) / ext->point_cnt;
 3466              		.loc 3 997 0
 3467 008a B7F97E30 		ldrsh	r3, [r7, #126]
 3468 008e B7F88E20 		ldrh	r2, [r7, #142]
 3469 0092 02FB03F3 		mul	r3, r2, r3
 3470 0096 D7F88020 		ldr	r2, [r7, #128]
 3471 009a 528A     		ldrh	r2, [r2, #18]
 3472 009c 93FBF2F3 		sdiv	r3, r3, r2
 3473 00a0 A7F88630 		strh	r3, [r7, #134]	@ movhi
 998:..\..\..\lvgl\version_6.1.2\lvgl\src\lv_objx/lv_chart.c ****         x_act += chart->coords.x1 + x_ofs;
 3474              		.loc 3 998 0
 3475 00a4 7B68     		ldr	r3, [r7, #4]
 3476 00a6 B3F91030 		ldrsh	r3, [r3, #16]
 3477 00aa 9AB2     		uxth	r2, r3
 3478 00ac B7F87830 		ldrh	r3, [r7, #120]
 3479 00b0 1344     		add	r3, r3, r2
 3480 00b2 9AB2     		uxth	r2, r3
 3481 00b4 B7F88630 		ldrh	r3, [r7, #134]
 3482 00b8 1344     		add	r3, r3, r2
 3483 00ba 9BB2     		uxth	r3, r3
 3484 00bc A7F88630 		strh	r3, [r7, #134]	@ movhi
 999:..\..\..\lvgl\version_6.1.2\lvgl\src\lv_objx/lv_chart.c **** 
1000:..\..\..\lvgl\version_6.1.2\lvgl\src\lv_objx/lv_chart.c ****         /*Draw the current point of all data line*/
1001:..\..\..\lvgl\version_6.1.2\lvgl\src\lv_objx/lv_chart.c ****         LV_LL_READ_BACK(ext->series_ll, ser)
 3485              		.loc 3 1001 0
 3486 00c0 D7F88030 		ldr	r3, [r7, #128]
 3487 00c4 1846     		mov	r0, r3
 3488 00c6 FFF7FEFF 		bl	lv_ll_get_tail
 3489 00ca C7F88800 		str	r0, [r7, #136]
 3490 00ce C5E0     		b	.L171
 3491              	.L178:
 3492              	.LBB10:
ARM GAS  C:\Users\tmj32\AppData\Local\Temp\ccrrExWC.s 			page 93


1002:..\..\..\lvgl\version_6.1.2\lvgl\src\lv_objx/lv_chart.c ****         {
1003:..\..\..\lvgl\version_6.1.2\lvgl\src\lv_objx/lv_chart.c ****             lv_coord_t start_point = ext->update_mode == LV_CHART_UPDATE_MODE_SHIFT ? ser->start_po
 3493              		.loc 3 1003 0
 3494 00d0 D7F88030 		ldr	r3, [r7, #128]
 3495 00d4 93F83230 		ldrb	r3, [r3, #50]	@ zero_extendqisi2
 3496 00d8 03F00103 		and	r3, r3, #1
 3497 00dc DBB2     		uxtb	r3, r3
 3498 00de 002B     		cmp	r3, #0
 3499 00e0 04D1     		bne	.L172
 3500              		.loc 3 1003 0 is_stmt 0 discriminator 1
 3501 00e2 D7F88830 		ldr	r3, [r7, #136]
 3502 00e6 1B89     		ldrh	r3, [r3, #8]
 3503 00e8 1BB2     		sxth	r3, r3
 3504 00ea 00E0     		b	.L173
 3505              	.L172:
 3506              		.loc 3 1003 0 discriminator 2
 3507 00ec 0023     		movs	r3, #0
 3508              	.L173:
 3509              		.loc 3 1003 0 discriminator 4
 3510 00ee A7F87630 		strh	r3, [r7, #118]	@ movhi
1004:..\..\..\lvgl\version_6.1.2\lvgl\src\lv_objx/lv_chart.c **** 
1005:..\..\..\lvgl\version_6.1.2\lvgl\src\lv_objx/lv_chart.c ****             col_a.x1 = x_act;
 3511              		.loc 3 1005 0 is_stmt 1 discriminator 4
 3512 00f2 B7F88630 		ldrh	r3, [r7, #134]	@ movhi
 3513 00f6 A7F86030 		strh	r3, [r7, #96]	@ movhi
1006:..\..\..\lvgl\version_6.1.2\lvgl\src\lv_objx/lv_chart.c ****             col_a.x2 = col_a.x1 + col_w;
 3514              		.loc 3 1006 0 discriminator 4
 3515 00fa B7F96030 		ldrsh	r3, [r7, #96]
 3516 00fe 9AB2     		uxth	r2, r3
 3517 0100 B7F87A30 		ldrh	r3, [r7, #122]
 3518 0104 1344     		add	r3, r3, r2
 3519 0106 9BB2     		uxth	r3, r3
 3520 0108 1BB2     		sxth	r3, r3
 3521 010a A7F86430 		strh	r3, [r7, #100]	@ movhi
1007:..\..\..\lvgl\version_6.1.2\lvgl\src\lv_objx/lv_chart.c ****             x_act += col_w;
 3522              		.loc 3 1007 0 discriminator 4
 3523 010e B7F88620 		ldrh	r2, [r7, #134]
 3524 0112 B7F87A30 		ldrh	r3, [r7, #122]
 3525 0116 1344     		add	r3, r3, r2
 3526 0118 9BB2     		uxth	r3, r3
 3527 011a A7F88630 		strh	r3, [r7, #134]	@ movhi
1008:..\..\..\lvgl\version_6.1.2\lvgl\src\lv_objx/lv_chart.c **** 
1009:..\..\..\lvgl\version_6.1.2\lvgl\src\lv_objx/lv_chart.c ****             if(col_a.x2 < mask->x1) continue;
 3528              		.loc 3 1009 0 discriminator 4
 3529 011e B7F96420 		ldrsh	r2, [r7, #100]
 3530 0122 3B68     		ldr	r3, [r7]
 3531 0124 B3F90030 		ldrsh	r3, [r3]
 3532 0128 9A42     		cmp	r2, r3
 3533 012a C0F28D80 		blt	.L180
1010:..\..\..\lvgl\version_6.1.2\lvgl\src\lv_objx/lv_chart.c ****             if(col_a.x1 > mask->x2) break;
 3534              		.loc 3 1010 0
 3535 012e B7F96020 		ldrsh	r2, [r7, #96]
 3536 0132 3B68     		ldr	r3, [r7]
 3537 0134 B3F90430 		ldrsh	r3, [r3, #4]
 3538 0138 9A42     		cmp	r2, r3
 3539 013a 00F39580 		bgt	.L181
1011:..\..\..\lvgl\version_6.1.2\lvgl\src\lv_objx/lv_chart.c **** 
ARM GAS  C:\Users\tmj32\AppData\Local\Temp\ccrrExWC.s 			page 94


1012:..\..\..\lvgl\version_6.1.2\lvgl\src\lv_objx/lv_chart.c ****             rects.body.main_color = ser->color;
 3540              		.loc 3 1012 0
 3541 013e D7F88830 		ldr	r3, [r7, #136]
 3542 0142 5B68     		ldr	r3, [r3, #4]
 3543 0144 FB60     		str	r3, [r7, #12]
1013:..\..\..\lvgl\version_6.1.2\lvgl\src\lv_objx/lv_chart.c ****             rects.body.grad_color = lv_color_mix(LV_COLOR_BLACK, ser->color, ext->series.dark);
 3544              		.loc 3 1013 0
 3545 0146 0023     		movs	r3, #0
 3546 0148 87F86830 		strb	r3, [r7, #104]
 3547 014c 0023     		movs	r3, #0
 3548 014e 87F86930 		strb	r3, [r7, #105]
 3549 0152 0023     		movs	r3, #0
 3550 0154 87F86A30 		strb	r3, [r7, #106]
 3551 0158 FF23     		movs	r3, #255
 3552 015a 87F86B30 		strb	r3, [r7, #107]
 3553 015e D7F88030 		ldr	r3, [r7, #128]
 3554 0162 93F83820 		ldrb	r2, [r3, #56]	@ zero_extendqisi2
 3555 0166 D7F88830 		ldr	r3, [r7, #136]
 3556 016a 5968     		ldr	r1, [r3, #4]
 3557 016c B86E     		ldr	r0, [r7, #104]
 3558 016e FFF7FEFF 		bl	lv_color_mix
 3559 0172 3861     		str	r0, [r7, #16]
1014:..\..\..\lvgl\version_6.1.2\lvgl\src\lv_objx/lv_chart.c **** 
1015:..\..\..\lvgl\version_6.1.2\lvgl\src\lv_objx/lv_chart.c ****             lv_coord_t p_act = (start_point + i) % ext->point_cnt;
 3560              		.loc 3 1015 0
 3561 0174 B7F97620 		ldrsh	r2, [r7, #118]
 3562 0178 B7F88E30 		ldrh	r3, [r7, #142]
 3563 017c 1344     		add	r3, r3, r2
 3564 017e D7F88020 		ldr	r2, [r7, #128]
 3565 0182 528A     		ldrh	r2, [r2, #18]
 3566 0184 93FBF2F1 		sdiv	r1, r3, r2
 3567 0188 02FB01F2 		mul	r2, r2, r1
 3568 018c 9B1A     		subs	r3, r3, r2
 3569 018e A7F87430 		strh	r3, [r7, #116]	@ movhi
1016:..\..\..\lvgl\version_6.1.2\lvgl\src\lv_objx/lv_chart.c ****             y_tmp            = (int32_t)((int32_t)ser->points[p_act] - ext->ymin) * h;
 3570              		.loc 3 1016 0
 3571 0192 D7F88830 		ldr	r3, [r7, #136]
 3572 0196 1A68     		ldr	r2, [r3]
 3573 0198 B7F97430 		ldrsh	r3, [r7, #116]
 3574 019c 5B00     		lsls	r3, r3, #1
 3575 019e 1344     		add	r3, r3, r2
 3576 01a0 B3F90030 		ldrsh	r3, [r3]
 3577 01a4 1A46     		mov	r2, r3
 3578 01a6 D7F88030 		ldr	r3, [r7, #128]
 3579 01aa B3F90C30 		ldrsh	r3, [r3, #12]
 3580 01ae D31A     		subs	r3, r2, r3
 3581 01b0 B7F97C20 		ldrsh	r2, [r7, #124]
 3582 01b4 02FB03F3 		mul	r3, r2, r3
 3583 01b8 3B67     		str	r3, [r7, #112]
1017:..\..\..\lvgl\version_6.1.2\lvgl\src\lv_objx/lv_chart.c ****             y_tmp            = y_tmp / (ext->ymax - ext->ymin);
 3584              		.loc 3 1017 0
 3585 01ba D7F88030 		ldr	r3, [r7, #128]
 3586 01be B3F90E30 		ldrsh	r3, [r3, #14]
 3587 01c2 1A46     		mov	r2, r3
 3588 01c4 D7F88030 		ldr	r3, [r7, #128]
 3589 01c8 B3F90C30 		ldrsh	r3, [r3, #12]
 3590 01cc D31A     		subs	r3, r2, r3
ARM GAS  C:\Users\tmj32\AppData\Local\Temp\ccrrExWC.s 			page 95


 3591 01ce 3A6F     		ldr	r2, [r7, #112]
 3592 01d0 92FBF3F3 		sdiv	r3, r2, r3
 3593 01d4 3B67     		str	r3, [r7, #112]
1018:..\..\..\lvgl\version_6.1.2\lvgl\src\lv_objx/lv_chart.c ****             col_a.y1         = h - y_tmp + chart->coords.y1;
 3594              		.loc 3 1018 0
 3595 01d6 B7F87C20 		ldrh	r2, [r7, #124]
 3596 01da 3B6F     		ldr	r3, [r7, #112]
 3597 01dc 9BB2     		uxth	r3, r3
 3598 01de D31A     		subs	r3, r2, r3
 3599 01e0 9AB2     		uxth	r2, r3
 3600 01e2 7B68     		ldr	r3, [r7, #4]
 3601 01e4 B3F91230 		ldrsh	r3, [r3, #18]
 3602 01e8 9BB2     		uxth	r3, r3
 3603 01ea 1344     		add	r3, r3, r2
 3604 01ec 9BB2     		uxth	r3, r3
 3605 01ee 1BB2     		sxth	r3, r3
 3606 01f0 A7F86230 		strh	r3, [r7, #98]	@ movhi
1019:..\..\..\lvgl\version_6.1.2\lvgl\src\lv_objx/lv_chart.c **** 
1020:..\..\..\lvgl\version_6.1.2\lvgl\src\lv_objx/lv_chart.c ****             mask_ret = lv_area_intersect(&col_mask, mask, &col_a);
 3607              		.loc 3 1020 0
 3608 01f4 07F16002 		add	r2, r7, #96
 3609 01f8 07F15803 		add	r3, r7, #88
 3610 01fc 3968     		ldr	r1, [r7]
 3611 01fe 1846     		mov	r0, r3
 3612 0200 FFF7FEFF 		bl	lv_area_intersect
 3613 0204 0346     		mov	r3, r0
 3614 0206 87F86F30 		strb	r3, [r7, #111]
1021:..\..\..\lvgl\version_6.1.2\lvgl\src\lv_objx/lv_chart.c ****             if(mask_ret != false && ser->points[p_act] != LV_CHART_POINT_DEF) {
 3615              		.loc 3 1021 0
 3616 020a 97F86F30 		ldrb	r3, [r7, #111]	@ zero_extendqisi2
 3617 020e 002B     		cmp	r3, #0
 3618 0210 1BD0     		beq	.L175
 3619              		.loc 3 1021 0 is_stmt 0 discriminator 1
 3620 0212 D7F88830 		ldr	r3, [r7, #136]
 3621 0216 1A68     		ldr	r2, [r3]
 3622 0218 B7F97430 		ldrsh	r3, [r7, #116]
 3623 021c 5B00     		lsls	r3, r3, #1
 3624 021e 1344     		add	r3, r3, r2
 3625 0220 B3F90030 		ldrsh	r3, [r3]
 3626 0224 1A4A     		ldr	r2, .L182+4
 3627 0226 9342     		cmp	r3, r2
 3628 0228 0FD0     		beq	.L175
1022:..\..\..\lvgl\version_6.1.2\lvgl\src\lv_objx/lv_chart.c ****                 lv_draw_rect(&chart->coords, &col_mask, &rects, lv_obj_get_opa_scale(chart));
 3629              		.loc 3 1022 0 is_stmt 1
 3630 022a 7B68     		ldr	r3, [r7, #4]
 3631 022c 03F11004 		add	r4, r3, #16
 3632 0230 7868     		ldr	r0, [r7, #4]
 3633 0232 FFF7FEFF 		bl	lv_obj_get_opa_scale
 3634 0236 0346     		mov	r3, r0
 3635 0238 07F10802 		add	r2, r7, #8
 3636 023c 07F15801 		add	r1, r7, #88
 3637 0240 2046     		mov	r0, r4
 3638 0242 FFF7FEFF 		bl	lv_draw_rect
 3639 0246 00E0     		b	.L175
 3640              	.L180:
1009:..\..\..\lvgl\version_6.1.2\lvgl\src\lv_objx/lv_chart.c ****             if(col_a.x1 > mask->x2) break;
 3641              		.loc 3 1009 0
ARM GAS  C:\Users\tmj32\AppData\Local\Temp\ccrrExWC.s 			page 96


 3642 0248 00BF     		nop
 3643              	.L175:
 3644              	.LBE10:
1001:..\..\..\lvgl\version_6.1.2\lvgl\src\lv_objx/lv_chart.c ****         {
 3645              		.loc 3 1001 0 discriminator 2
 3646 024a D7F88030 		ldr	r3, [r7, #128]
 3647 024e D7F88810 		ldr	r1, [r7, #136]
 3648 0252 1846     		mov	r0, r3
 3649 0254 FFF7FEFF 		bl	lv_ll_get_prev
 3650 0258 C7F88800 		str	r0, [r7, #136]
 3651              	.L171:
1001:..\..\..\lvgl\version_6.1.2\lvgl\src\lv_objx/lv_chart.c ****         {
 3652              		.loc 3 1001 0 is_stmt 0 discriminator 1
 3653 025c D7F88830 		ldr	r3, [r7, #136]
 3654 0260 002B     		cmp	r3, #0
 3655 0262 7FF435AF 		bne	.L178
 3656 0266 00E0     		b	.L177
 3657              	.L181:
 3658              	.LBB11:
1010:..\..\..\lvgl\version_6.1.2\lvgl\src\lv_objx/lv_chart.c **** 
 3659              		.loc 3 1010 0 is_stmt 1
 3660 0268 00BF     		nop
 3661              	.L177:
 3662              	.LBE11:
 996:..\..\..\lvgl\version_6.1.2\lvgl\src\lv_objx/lv_chart.c ****         x_act = (int32_t)((int32_t)w * i) / ext->point_cnt;
 3663              		.loc 3 996 0 discriminator 2
 3664 026a B7F88E30 		ldrh	r3, [r7, #142]
 3665 026e 0133     		adds	r3, r3, #1
 3666 0270 A7F88E30 		strh	r3, [r7, #142]	@ movhi
 3667              	.L170:
 996:..\..\..\lvgl\version_6.1.2\lvgl\src\lv_objx/lv_chart.c ****         x_act = (int32_t)((int32_t)w * i) / ext->point_cnt;
 3668              		.loc 3 996 0 is_stmt 0 discriminator 1
 3669 0274 D7F88030 		ldr	r3, [r7, #128]
 3670 0278 5B8A     		ldrh	r3, [r3, #18]
 3671 027a B7F88E20 		ldrh	r2, [r7, #142]
 3672 027e 9A42     		cmp	r2, r3
 3673 0280 FFF403AF 		bcc	.L179
1023:..\..\..\lvgl\version_6.1.2\lvgl\src\lv_objx/lv_chart.c ****             }
1024:..\..\..\lvgl\version_6.1.2\lvgl\src\lv_objx/lv_chart.c ****         }
1025:..\..\..\lvgl\version_6.1.2\lvgl\src\lv_objx/lv_chart.c ****     }
1026:..\..\..\lvgl\version_6.1.2\lvgl\src\lv_objx/lv_chart.c **** }
 3674              		.loc 3 1026 0 is_stmt 1
 3675 0284 00BF     		nop
 3676 0286 9437     		adds	r7, r7, #148
 3677              		.cfi_def_cfa_offset 12
 3678 0288 BD46     		mov	sp, r7
 3679              		.cfi_def_cfa_register 13
 3680              		@ sp needed
 3681 028a 90BD     		pop	{r4, r7, pc}
 3682              	.L183:
 3683              		.align	2
 3684              	.L182:
 3685 028c 00000000 		.word	lv_style_plain
 3686 0290 E883FFFF 		.word	-31768
 3687              		.cfi_endproc
 3688              	.LFE68:
 3689              		.size	lv_chart_draw_cols, .-lv_chart_draw_cols
ARM GAS  C:\Users\tmj32\AppData\Local\Temp\ccrrExWC.s 			page 97


 3690              		.section	.text.lv_chart_draw_vertical_lines,"ax",%progbits
 3691              		.align	2
 3692              		.thumb
 3693              		.thumb_func
 3694              		.type	lv_chart_draw_vertical_lines, %function
 3695              	lv_chart_draw_vertical_lines:
 3696              	.LFB69:
1027:..\..\..\lvgl\version_6.1.2\lvgl\src\lv_objx/lv_chart.c **** 
1028:..\..\..\lvgl\version_6.1.2\lvgl\src\lv_objx/lv_chart.c **** /**
1029:..\..\..\lvgl\version_6.1.2\lvgl\src\lv_objx/lv_chart.c ****  * Draw the data lines as vertical lines on a chart if there is only 1px between point
1030:..\..\..\lvgl\version_6.1.2\lvgl\src\lv_objx/lv_chart.c ****  * @param obj pointer to chart object
1031:..\..\..\lvgl\version_6.1.2\lvgl\src\lv_objx/lv_chart.c ****  */
1032:..\..\..\lvgl\version_6.1.2\lvgl\src\lv_objx/lv_chart.c **** static void lv_chart_draw_vertical_lines(lv_obj_t * chart, const lv_area_t * mask)
1033:..\..\..\lvgl\version_6.1.2\lvgl\src\lv_objx/lv_chart.c **** {
 3697              		.loc 3 1033 0
 3698              		.cfi_startproc
 3699              		@ args = 0, pretend = 0, frame = 128
 3700              		@ frame_needed = 1, uses_anonymous_args = 0
 3701 0000 80B5     		push	{r7, lr}
 3702              		.cfi_def_cfa_offset 8
 3703              		.cfi_offset 7, -8
 3704              		.cfi_offset 14, -4
 3705 0002 A2B0     		sub	sp, sp, #136
 3706              		.cfi_def_cfa_offset 144
 3707 0004 02AF     		add	r7, sp, #8
 3708              		.cfi_def_cfa 7, 136
 3709 0006 7860     		str	r0, [r7, #4]
 3710 0008 3960     		str	r1, [r7]
1034:..\..\..\lvgl\version_6.1.2\lvgl\src\lv_objx/lv_chart.c **** 
1035:..\..\..\lvgl\version_6.1.2\lvgl\src\lv_objx/lv_chart.c ****     lv_chart_ext_t * ext = lv_obj_get_ext_attr(chart);
 3711              		.loc 3 1035 0
 3712 000a 7868     		ldr	r0, [r7, #4]
 3713 000c FFF7FEFF 		bl	lv_obj_get_ext_attr
 3714 0010 7867     		str	r0, [r7, #116]
1036:..\..\..\lvgl\version_6.1.2\lvgl\src\lv_objx/lv_chart.c ****     lv_coord_t w         = lv_obj_get_width(chart);
 3715              		.loc 3 1036 0
 3716 0012 7868     		ldr	r0, [r7, #4]
 3717 0014 FFF7FEFF 		bl	lv_obj_get_width
 3718 0018 0346     		mov	r3, r0
 3719 001a A7F87230 		strh	r3, [r7, #114]	@ movhi
1037:..\..\..\lvgl\version_6.1.2\lvgl\src\lv_objx/lv_chart.c ****     /*Vertical lines works only if the width == point count. Else use the normal line type*/
1038:..\..\..\lvgl\version_6.1.2\lvgl\src\lv_objx/lv_chart.c ****     if(ext->point_cnt != w) {
 3720              		.loc 3 1038 0
 3721 001e 7B6F     		ldr	r3, [r7, #116]
 3722 0020 5B8A     		ldrh	r3, [r3, #18]
 3723 0022 1A46     		mov	r2, r3
 3724 0024 B7F97230 		ldrsh	r3, [r7, #114]
 3725 0028 9A42     		cmp	r2, r3
 3726 002a 04D0     		beq	.L185
1039:..\..\..\lvgl\version_6.1.2\lvgl\src\lv_objx/lv_chart.c ****         lv_chart_draw_lines(chart, mask);
 3727              		.loc 3 1039 0
 3728 002c 3968     		ldr	r1, [r7]
 3729 002e 7868     		ldr	r0, [r7, #4]
 3730 0030 FFF7FEFF 		bl	lv_chart_draw_lines
 3731 0034 02E1     		b	.L184
 3732              	.L185:
1040:..\..\..\lvgl\version_6.1.2\lvgl\src\lv_objx/lv_chart.c ****         return;
ARM GAS  C:\Users\tmj32\AppData\Local\Temp\ccrrExWC.s 			page 98


1041:..\..\..\lvgl\version_6.1.2\lvgl\src\lv_objx/lv_chart.c ****     }
1042:..\..\..\lvgl\version_6.1.2\lvgl\src\lv_objx/lv_chart.c **** 
1043:..\..\..\lvgl\version_6.1.2\lvgl\src\lv_objx/lv_chart.c ****     uint16_t i;
1044:..\..\..\lvgl\version_6.1.2\lvgl\src\lv_objx/lv_chart.c ****     lv_point_t p1;
1045:..\..\..\lvgl\version_6.1.2\lvgl\src\lv_objx/lv_chart.c ****     lv_point_t p2;
1046:..\..\..\lvgl\version_6.1.2\lvgl\src\lv_objx/lv_chart.c ****     lv_coord_t p_act;
1047:..\..\..\lvgl\version_6.1.2\lvgl\src\lv_objx/lv_chart.c ****     lv_coord_t h     = lv_obj_get_height(chart);
 3733              		.loc 3 1047 0
 3734 0036 7868     		ldr	r0, [r7, #4]
 3735 0038 FFF7FEFF 		bl	lv_obj_get_height
 3736 003c 0346     		mov	r3, r0
 3737 003e A7F87030 		strh	r3, [r7, #112]	@ movhi
1048:..\..\..\lvgl\version_6.1.2\lvgl\src\lv_objx/lv_chart.c ****     lv_coord_t x_ofs = chart->coords.x1;
 3738              		.loc 3 1048 0
 3739 0042 7B68     		ldr	r3, [r7, #4]
 3740 0044 1B8A     		ldrh	r3, [r3, #16]	@ movhi
 3741 0046 A7F86E30 		strh	r3, [r7, #110]	@ movhi
1049:..\..\..\lvgl\version_6.1.2\lvgl\src\lv_objx/lv_chart.c ****     lv_coord_t y_ofs = chart->coords.y1;
 3742              		.loc 3 1049 0
 3743 004a 7B68     		ldr	r3, [r7, #4]
 3744 004c 5B8A     		ldrh	r3, [r3, #18]	@ movhi
 3745 004e A7F86C30 		strh	r3, [r7, #108]	@ movhi
1050:..\..\..\lvgl\version_6.1.2\lvgl\src\lv_objx/lv_chart.c ****     int32_t y_tmp;
1051:..\..\..\lvgl\version_6.1.2\lvgl\src\lv_objx/lv_chart.c ****     lv_chart_series_t * ser;
1052:..\..\..\lvgl\version_6.1.2\lvgl\src\lv_objx/lv_chart.c ****     lv_opa_t opa_scale = lv_obj_get_opa_scale(chart);
 3746              		.loc 3 1052 0
 3747 0052 7868     		ldr	r0, [r7, #4]
 3748 0054 FFF7FEFF 		bl	lv_obj_get_opa_scale
 3749 0058 0346     		mov	r3, r0
 3750 005a 87F86B30 		strb	r3, [r7, #107]
1053:..\..\..\lvgl\version_6.1.2\lvgl\src\lv_objx/lv_chart.c ****     lv_style_t style;
1054:..\..\..\lvgl\version_6.1.2\lvgl\src\lv_objx/lv_chart.c ****     lv_style_copy(&style, &lv_style_plain);
 3751              		.loc 3 1054 0
 3752 005e 07F10803 		add	r3, r7, #8
 3753 0062 7849     		ldr	r1, .L195
 3754 0064 1846     		mov	r0, r3
 3755 0066 FFF7FEFF 		bl	lv_style_copy
1055:..\..\..\lvgl\version_6.1.2\lvgl\src\lv_objx/lv_chart.c ****     style.line.opa   = ext->series.opa;
 3756              		.loc 3 1055 0
 3757 006a 7B6F     		ldr	r3, [r7, #116]
 3758 006c 93F83730 		ldrb	r3, [r3, #55]	@ zero_extendqisi2
 3759 0070 87F85630 		strb	r3, [r7, #86]
1056:..\..\..\lvgl\version_6.1.2\lvgl\src\lv_objx/lv_chart.c ****     style.line.width = ext->series.width;
 3760              		.loc 3 1056 0
 3761 0074 7B6F     		ldr	r3, [r7, #116]
 3762 0076 B3F93430 		ldrsh	r3, [r3, #52]
 3763 007a A7F85430 		strh	r3, [r7, #84]	@ movhi
1057:..\..\..\lvgl\version_6.1.2\lvgl\src\lv_objx/lv_chart.c **** 
1058:..\..\..\lvgl\version_6.1.2\lvgl\src\lv_objx/lv_chart.c ****     /*Go through all data lines*/
1059:..\..\..\lvgl\version_6.1.2\lvgl\src\lv_objx/lv_chart.c ****     LV_LL_READ_BACK(ext->series_ll, ser)
 3764              		.loc 3 1059 0
 3765 007e 7B6F     		ldr	r3, [r7, #116]
 3766 0080 1846     		mov	r0, r3
 3767 0082 FFF7FEFF 		bl	lv_ll_get_tail
 3768 0086 B867     		str	r0, [r7, #120]
 3769 0088 D4E0     		b	.L187
 3770              	.L194:
ARM GAS  C:\Users\tmj32\AppData\Local\Temp\ccrrExWC.s 			page 99


 3771              	.LBB12:
1060:..\..\..\lvgl\version_6.1.2\lvgl\src\lv_objx/lv_chart.c ****     {
1061:..\..\..\lvgl\version_6.1.2\lvgl\src\lv_objx/lv_chart.c ****         lv_coord_t start_point = ext->update_mode == LV_CHART_UPDATE_MODE_SHIFT ? ser->start_point 
 3772              		.loc 3 1061 0
 3773 008a 7B6F     		ldr	r3, [r7, #116]
 3774 008c 93F83230 		ldrb	r3, [r3, #50]	@ zero_extendqisi2
 3775 0090 03F00103 		and	r3, r3, #1
 3776 0094 DBB2     		uxtb	r3, r3
 3777 0096 002B     		cmp	r3, #0
 3778 0098 03D1     		bne	.L188
 3779              		.loc 3 1061 0 is_stmt 0 discriminator 1
 3780 009a BB6F     		ldr	r3, [r7, #120]
 3781 009c 1B89     		ldrh	r3, [r3, #8]
 3782 009e 1BB2     		sxth	r3, r3
 3783 00a0 00E0     		b	.L189
 3784              	.L188:
 3785              		.loc 3 1061 0 discriminator 2
 3786 00a2 0023     		movs	r3, #0
 3787              	.L189:
 3788              		.loc 3 1061 0 discriminator 4
 3789 00a4 A7F86830 		strh	r3, [r7, #104]	@ movhi
1062:..\..\..\lvgl\version_6.1.2\lvgl\src\lv_objx/lv_chart.c ****         style.line.color       = ser->color;
 3790              		.loc 3 1062 0 is_stmt 1 discriminator 4
 3791 00a8 BB6F     		ldr	r3, [r7, #120]
 3792 00aa 5B68     		ldr	r3, [r3, #4]
 3793 00ac 3B65     		str	r3, [r7, #80]
1063:..\..\..\lvgl\version_6.1.2\lvgl\src\lv_objx/lv_chart.c **** 
1064:..\..\..\lvgl\version_6.1.2\lvgl\src\lv_objx/lv_chart.c ****         p1.x  = 0 + x_ofs;
 3794              		.loc 3 1064 0 discriminator 4
 3795 00ae B7F86E30 		ldrh	r3, [r7, #110]	@ movhi
 3796 00b2 A7F85C30 		strh	r3, [r7, #92]	@ movhi
1065:..\..\..\lvgl\version_6.1.2\lvgl\src\lv_objx/lv_chart.c ****         p2.x  = 0 + x_ofs;
 3797              		.loc 3 1065 0 discriminator 4
 3798 00b6 B7F86E30 		ldrh	r3, [r7, #110]	@ movhi
 3799 00ba A7F85830 		strh	r3, [r7, #88]	@ movhi
1066:..\..\..\lvgl\version_6.1.2\lvgl\src\lv_objx/lv_chart.c ****         y_tmp = (int32_t)((int32_t)ser->points[0] - ext->ymin) * h;
 3800              		.loc 3 1066 0 discriminator 4
 3801 00be BB6F     		ldr	r3, [r7, #120]
 3802 00c0 1B68     		ldr	r3, [r3]
 3803 00c2 B3F90030 		ldrsh	r3, [r3]
 3804 00c6 1A46     		mov	r2, r3
 3805 00c8 7B6F     		ldr	r3, [r7, #116]
 3806 00ca B3F90C30 		ldrsh	r3, [r3, #12]
 3807 00ce D31A     		subs	r3, r2, r3
 3808 00d0 B7F97020 		ldrsh	r2, [r7, #112]
 3809 00d4 02FB03F3 		mul	r3, r2, r3
 3810 00d8 7B66     		str	r3, [r7, #100]
1067:..\..\..\lvgl\version_6.1.2\lvgl\src\lv_objx/lv_chart.c ****         y_tmp = y_tmp / (ext->ymax - ext->ymin);
 3811              		.loc 3 1067 0 discriminator 4
 3812 00da 7B6F     		ldr	r3, [r7, #116]
 3813 00dc B3F90E30 		ldrsh	r3, [r3, #14]
 3814 00e0 1A46     		mov	r2, r3
 3815 00e2 7B6F     		ldr	r3, [r7, #116]
 3816 00e4 B3F90C30 		ldrsh	r3, [r3, #12]
 3817 00e8 D31A     		subs	r3, r2, r3
 3818 00ea 7A6E     		ldr	r2, [r7, #100]
 3819 00ec 92FBF3F3 		sdiv	r3, r2, r3
ARM GAS  C:\Users\tmj32\AppData\Local\Temp\ccrrExWC.s 			page 100


 3820 00f0 7B66     		str	r3, [r7, #100]
1068:..\..\..\lvgl\version_6.1.2\lvgl\src\lv_objx/lv_chart.c ****         p2.y  = h - y_tmp + y_ofs;
 3821              		.loc 3 1068 0 discriminator 4
 3822 00f2 B7F87020 		ldrh	r2, [r7, #112]
 3823 00f6 7B6E     		ldr	r3, [r7, #100]
 3824 00f8 9BB2     		uxth	r3, r3
 3825 00fa D31A     		subs	r3, r2, r3
 3826 00fc 9AB2     		uxth	r2, r3
 3827 00fe B7F86C30 		ldrh	r3, [r7, #108]
 3828 0102 1344     		add	r3, r3, r2
 3829 0104 9BB2     		uxth	r3, r3
 3830 0106 1BB2     		sxth	r3, r3
 3831 0108 A7F85A30 		strh	r3, [r7, #90]	@ movhi
1069:..\..\..\lvgl\version_6.1.2\lvgl\src\lv_objx/lv_chart.c ****         p1.y  = p2.y;
 3832              		.loc 3 1069 0 discriminator 4
 3833 010c B7F95A30 		ldrsh	r3, [r7, #90]
 3834 0110 A7F85E30 		strh	r3, [r7, #94]	@ movhi
1070:..\..\..\lvgl\version_6.1.2\lvgl\src\lv_objx/lv_chart.c **** 
1071:..\..\..\lvgl\version_6.1.2\lvgl\src\lv_objx/lv_chart.c ****         for(i = 0; i < ext->point_cnt; i++) {
 3835              		.loc 3 1071 0 discriminator 4
 3836 0114 0023     		movs	r3, #0
 3837 0116 A7F87E30 		strh	r3, [r7, #126]	@ movhi
 3838 011a 7EE0     		b	.L190
 3839              	.L193:
1072:..\..\..\lvgl\version_6.1.2\lvgl\src\lv_objx/lv_chart.c ****             p_act = (start_point + i) % ext->point_cnt;
 3840              		.loc 3 1072 0
 3841 011c B7F96820 		ldrsh	r2, [r7, #104]
 3842 0120 B7F87E30 		ldrh	r3, [r7, #126]
 3843 0124 1344     		add	r3, r3, r2
 3844 0126 7A6F     		ldr	r2, [r7, #116]
 3845 0128 528A     		ldrh	r2, [r2, #18]
 3846 012a 93FBF2F1 		sdiv	r1, r3, r2
 3847 012e 02FB01F2 		mul	r2, r2, r1
 3848 0132 9B1A     		subs	r3, r3, r2
 3849 0134 A7F86230 		strh	r3, [r7, #98]	@ movhi
1073:..\..\..\lvgl\version_6.1.2\lvgl\src\lv_objx/lv_chart.c **** 
1074:..\..\..\lvgl\version_6.1.2\lvgl\src\lv_objx/lv_chart.c ****             y_tmp = (int32_t)((int32_t)ser->points[p_act] - ext->ymin) * h;
 3850              		.loc 3 1074 0
 3851 0138 BB6F     		ldr	r3, [r7, #120]
 3852 013a 1A68     		ldr	r2, [r3]
 3853 013c B7F96230 		ldrsh	r3, [r7, #98]
 3854 0140 5B00     		lsls	r3, r3, #1
 3855 0142 1344     		add	r3, r3, r2
 3856 0144 B3F90030 		ldrsh	r3, [r3]
 3857 0148 1A46     		mov	r2, r3
 3858 014a 7B6F     		ldr	r3, [r7, #116]
 3859 014c B3F90C30 		ldrsh	r3, [r3, #12]
 3860 0150 D31A     		subs	r3, r2, r3
 3861 0152 B7F97020 		ldrsh	r2, [r7, #112]
 3862 0156 02FB03F3 		mul	r3, r2, r3
 3863 015a 7B66     		str	r3, [r7, #100]
1075:..\..\..\lvgl\version_6.1.2\lvgl\src\lv_objx/lv_chart.c ****             y_tmp = y_tmp / (ext->ymax - ext->ymin);
 3864              		.loc 3 1075 0
 3865 015c 7B6F     		ldr	r3, [r7, #116]
 3866 015e B3F90E30 		ldrsh	r3, [r3, #14]
 3867 0162 1A46     		mov	r2, r3
 3868 0164 7B6F     		ldr	r3, [r7, #116]
ARM GAS  C:\Users\tmj32\AppData\Local\Temp\ccrrExWC.s 			page 101


 3869 0166 B3F90C30 		ldrsh	r3, [r3, #12]
 3870 016a D31A     		subs	r3, r2, r3
 3871 016c 7A6E     		ldr	r2, [r7, #100]
 3872 016e 92FBF3F3 		sdiv	r3, r2, r3
 3873 0172 7B66     		str	r3, [r7, #100]
1076:..\..\..\lvgl\version_6.1.2\lvgl\src\lv_objx/lv_chart.c ****             p2.y  = h - y_tmp + y_ofs;
 3874              		.loc 3 1076 0
 3875 0174 B7F87020 		ldrh	r2, [r7, #112]
 3876 0178 7B6E     		ldr	r3, [r7, #100]
 3877 017a 9BB2     		uxth	r3, r3
 3878 017c D31A     		subs	r3, r2, r3
 3879 017e 9AB2     		uxth	r2, r3
 3880 0180 B7F86C30 		ldrh	r3, [r7, #108]
 3881 0184 1344     		add	r3, r3, r2
 3882 0186 9BB2     		uxth	r3, r3
 3883 0188 1BB2     		sxth	r3, r3
 3884 018a A7F85A30 		strh	r3, [r7, #90]	@ movhi
1077:..\..\..\lvgl\version_6.1.2\lvgl\src\lv_objx/lv_chart.c **** 
1078:..\..\..\lvgl\version_6.1.2\lvgl\src\lv_objx/lv_chart.c ****             if(p1.y == p2.y) {
 3885              		.loc 3 1078 0
 3886 018e B7F95E20 		ldrsh	r2, [r7, #94]
 3887 0192 B7F95A30 		ldrsh	r3, [r7, #90]
 3888 0196 9A42     		cmp	r2, r3
 3889 0198 07D1     		bne	.L191
1079:..\..\..\lvgl\version_6.1.2\lvgl\src\lv_objx/lv_chart.c ****                 p2.x++;
 3890              		.loc 3 1079 0
 3891 019a B7F95830 		ldrsh	r3, [r7, #88]
 3892 019e 9BB2     		uxth	r3, r3
 3893 01a0 0133     		adds	r3, r3, #1
 3894 01a2 9BB2     		uxth	r3, r3
 3895 01a4 1BB2     		sxth	r3, r3
 3896 01a6 A7F85830 		strh	r3, [r7, #88]	@ movhi
 3897              	.L191:
1080:..\..\..\lvgl\version_6.1.2\lvgl\src\lv_objx/lv_chart.c ****             }
1081:..\..\..\lvgl\version_6.1.2\lvgl\src\lv_objx/lv_chart.c **** 
1082:..\..\..\lvgl\version_6.1.2\lvgl\src\lv_objx/lv_chart.c ****             if(ser->points[p_act] != LV_CHART_POINT_DEF) {
 3898              		.loc 3 1082 0
 3899 01aa BB6F     		ldr	r3, [r7, #120]
 3900 01ac 1A68     		ldr	r2, [r3]
 3901 01ae B7F96230 		ldrsh	r3, [r7, #98]
 3902 01b2 5B00     		lsls	r3, r3, #1
 3903 01b4 1344     		add	r3, r3, r2
 3904 01b6 B3F90030 		ldrsh	r3, [r3]
 3905 01ba 234A     		ldr	r2, .L195+4
 3906 01bc 9342     		cmp	r3, r2
 3907 01be 0CD0     		beq	.L192
1083:..\..\..\lvgl\version_6.1.2\lvgl\src\lv_objx/lv_chart.c ****                 lv_draw_line(&p1, &p2, mask, &style, opa_scale);
 3908              		.loc 3 1083 0
 3909 01c0 07F10802 		add	r2, r7, #8
 3910 01c4 07F15801 		add	r1, r7, #88
 3911 01c8 07F15C00 		add	r0, r7, #92
 3912 01cc 97F86B30 		ldrb	r3, [r7, #107]	@ zero_extendqisi2
 3913 01d0 0093     		str	r3, [sp]
 3914 01d2 1346     		mov	r3, r2
 3915 01d4 3A68     		ldr	r2, [r7]
 3916 01d6 FFF7FEFF 		bl	lv_draw_line
 3917              	.L192:
ARM GAS  C:\Users\tmj32\AppData\Local\Temp\ccrrExWC.s 			page 102


1084:..\..\..\lvgl\version_6.1.2\lvgl\src\lv_objx/lv_chart.c ****             }
1085:..\..\..\lvgl\version_6.1.2\lvgl\src\lv_objx/lv_chart.c **** 
1086:..\..\..\lvgl\version_6.1.2\lvgl\src\lv_objx/lv_chart.c ****             p2.x = ((w * p_act) / (ext->point_cnt - 1)) + x_ofs;
 3918              		.loc 3 1086 0 discriminator 2
 3919 01da B7F97230 		ldrsh	r3, [r7, #114]
 3920 01de B7F96220 		ldrsh	r2, [r7, #98]
 3921 01e2 02FB03F2 		mul	r2, r2, r3
 3922 01e6 7B6F     		ldr	r3, [r7, #116]
 3923 01e8 5B8A     		ldrh	r3, [r3, #18]
 3924 01ea 013B     		subs	r3, r3, #1
 3925 01ec 92FBF3F3 		sdiv	r3, r2, r3
 3926 01f0 9AB2     		uxth	r2, r3
 3927 01f2 B7F86E30 		ldrh	r3, [r7, #110]
 3928 01f6 1344     		add	r3, r3, r2
 3929 01f8 9BB2     		uxth	r3, r3
 3930 01fa 1BB2     		sxth	r3, r3
 3931 01fc A7F85830 		strh	r3, [r7, #88]	@ movhi
1087:..\..\..\lvgl\version_6.1.2\lvgl\src\lv_objx/lv_chart.c ****             p1.x = p2.x;
 3932              		.loc 3 1087 0 discriminator 2
 3933 0200 B7F95830 		ldrsh	r3, [r7, #88]
 3934 0204 A7F85C30 		strh	r3, [r7, #92]	@ movhi
1088:..\..\..\lvgl\version_6.1.2\lvgl\src\lv_objx/lv_chart.c ****             p1.y = p2.y;
 3935              		.loc 3 1088 0 discriminator 2
 3936 0208 B7F95A30 		ldrsh	r3, [r7, #90]
 3937 020c A7F85E30 		strh	r3, [r7, #94]	@ movhi
1071:..\..\..\lvgl\version_6.1.2\lvgl\src\lv_objx/lv_chart.c ****             p_act = (start_point + i) % ext->point_cnt;
 3938              		.loc 3 1071 0 discriminator 2
 3939 0210 B7F87E30 		ldrh	r3, [r7, #126]
 3940 0214 0133     		adds	r3, r3, #1
 3941 0216 A7F87E30 		strh	r3, [r7, #126]	@ movhi
 3942              	.L190:
1071:..\..\..\lvgl\version_6.1.2\lvgl\src\lv_objx/lv_chart.c ****             p_act = (start_point + i) % ext->point_cnt;
 3943              		.loc 3 1071 0 is_stmt 0 discriminator 1
 3944 021a 7B6F     		ldr	r3, [r7, #116]
 3945 021c 5B8A     		ldrh	r3, [r3, #18]
 3946 021e B7F87E20 		ldrh	r2, [r7, #126]
 3947 0222 9A42     		cmp	r2, r3
 3948 0224 FFF47AAF 		bcc	.L193
 3949              	.LBE12:
1059:..\..\..\lvgl\version_6.1.2\lvgl\src\lv_objx/lv_chart.c ****     {
 3950              		.loc 3 1059 0 is_stmt 1 discriminator 2
 3951 0228 7B6F     		ldr	r3, [r7, #116]
 3952 022a B96F     		ldr	r1, [r7, #120]
 3953 022c 1846     		mov	r0, r3
 3954 022e FFF7FEFF 		bl	lv_ll_get_prev
 3955 0232 B867     		str	r0, [r7, #120]
 3956              	.L187:
1059:..\..\..\lvgl\version_6.1.2\lvgl\src\lv_objx/lv_chart.c ****     {
 3957              		.loc 3 1059 0 is_stmt 0 discriminator 1
 3958 0234 BB6F     		ldr	r3, [r7, #120]
 3959 0236 002B     		cmp	r3, #0
 3960 0238 7FF427AF 		bne	.L194
 3961              	.L184:
1089:..\..\..\lvgl\version_6.1.2\lvgl\src\lv_objx/lv_chart.c ****         }
1090:..\..\..\lvgl\version_6.1.2\lvgl\src\lv_objx/lv_chart.c ****     }
1091:..\..\..\lvgl\version_6.1.2\lvgl\src\lv_objx/lv_chart.c **** }
 3962              		.loc 3 1091 0 is_stmt 1
ARM GAS  C:\Users\tmj32\AppData\Local\Temp\ccrrExWC.s 			page 103


 3963 023c 8037     		adds	r7, r7, #128
 3964              		.cfi_def_cfa_offset 8
 3965 023e BD46     		mov	sp, r7
 3966              		.cfi_def_cfa_register 13
 3967              		@ sp needed
 3968 0240 80BD     		pop	{r7, pc}
 3969              	.L196:
 3970 0242 00BF     		.align	2
 3971              	.L195:
 3972 0244 00000000 		.word	lv_style_plain
 3973 0248 E883FFFF 		.word	-31768
 3974              		.cfi_endproc
 3975              	.LFE69:
 3976              		.size	lv_chart_draw_vertical_lines, .-lv_chart_draw_vertical_lines
 3977              		.section	.text.lv_chart_draw_areas,"ax",%progbits
 3978              		.align	2
 3979              		.thumb
 3980              		.thumb_func
 3981              		.type	lv_chart_draw_areas, %function
 3982              	lv_chart_draw_areas:
 3983              	.LFB70:
1092:..\..\..\lvgl\version_6.1.2\lvgl\src\lv_objx/lv_chart.c **** 
1093:..\..\..\lvgl\version_6.1.2\lvgl\src\lv_objx/lv_chart.c **** /**
1094:..\..\..\lvgl\version_6.1.2\lvgl\src\lv_objx/lv_chart.c ****  * Draw the data lines as areas on a chart
1095:..\..\..\lvgl\version_6.1.2\lvgl\src\lv_objx/lv_chart.c ****  * @param obj pointer to chart object
1096:..\..\..\lvgl\version_6.1.2\lvgl\src\lv_objx/lv_chart.c ****  */
1097:..\..\..\lvgl\version_6.1.2\lvgl\src\lv_objx/lv_chart.c **** static void lv_chart_draw_areas(lv_obj_t * chart, const lv_area_t * mask)
1098:..\..\..\lvgl\version_6.1.2\lvgl\src\lv_objx/lv_chart.c **** {
 3984              		.loc 3 1098 0
 3985              		.cfi_startproc
 3986              		@ args = 0, pretend = 0, frame = 144
 3987              		@ frame_needed = 1, uses_anonymous_args = 0
 3988 0000 80B5     		push	{r7, lr}
 3989              		.cfi_def_cfa_offset 8
 3990              		.cfi_offset 7, -8
 3991              		.cfi_offset 14, -4
 3992 0002 A4B0     		sub	sp, sp, #144
 3993              		.cfi_def_cfa_offset 152
 3994 0004 00AF     		add	r7, sp, #0
 3995              		.cfi_def_cfa_register 7
 3996 0006 7860     		str	r0, [r7, #4]
 3997 0008 3960     		str	r1, [r7]
1099:..\..\..\lvgl\version_6.1.2\lvgl\src\lv_objx/lv_chart.c ****     lv_chart_ext_t * ext = lv_obj_get_ext_attr(chart);
 3998              		.loc 3 1099 0
 3999 000a 7868     		ldr	r0, [r7, #4]
 4000 000c FFF7FEFF 		bl	lv_obj_get_ext_attr
 4001 0010 C7F88400 		str	r0, [r7, #132]
1100:..\..\..\lvgl\version_6.1.2\lvgl\src\lv_objx/lv_chart.c **** 
1101:..\..\..\lvgl\version_6.1.2\lvgl\src\lv_objx/lv_chart.c ****     uint16_t i;
1102:..\..\..\lvgl\version_6.1.2\lvgl\src\lv_objx/lv_chart.c ****     lv_point_t p1;
1103:..\..\..\lvgl\version_6.1.2\lvgl\src\lv_objx/lv_chart.c ****     lv_point_t p2;
1104:..\..\..\lvgl\version_6.1.2\lvgl\src\lv_objx/lv_chart.c ****     lv_coord_t w     = lv_obj_get_width(chart);
 4002              		.loc 3 1104 0
 4003 0014 7868     		ldr	r0, [r7, #4]
 4004 0016 FFF7FEFF 		bl	lv_obj_get_width
 4005 001a 0346     		mov	r3, r0
 4006 001c A7F88230 		strh	r3, [r7, #130]	@ movhi
ARM GAS  C:\Users\tmj32\AppData\Local\Temp\ccrrExWC.s 			page 104


1105:..\..\..\lvgl\version_6.1.2\lvgl\src\lv_objx/lv_chart.c ****     lv_coord_t h     = lv_obj_get_height(chart);
 4007              		.loc 3 1105 0
 4008 0020 7868     		ldr	r0, [r7, #4]
 4009 0022 FFF7FEFF 		bl	lv_obj_get_height
 4010 0026 0346     		mov	r3, r0
 4011 0028 A7F88030 		strh	r3, [r7, #128]	@ movhi
1106:..\..\..\lvgl\version_6.1.2\lvgl\src\lv_objx/lv_chart.c ****     lv_coord_t x_ofs = chart->coords.x1;
 4012              		.loc 3 1106 0
 4013 002c 7B68     		ldr	r3, [r7, #4]
 4014 002e 1B8A     		ldrh	r3, [r3, #16]	@ movhi
 4015 0030 A7F87E30 		strh	r3, [r7, #126]	@ movhi
1107:..\..\..\lvgl\version_6.1.2\lvgl\src\lv_objx/lv_chart.c ****     lv_coord_t y_ofs = chart->coords.y1;
 4016              		.loc 3 1107 0
 4017 0034 7B68     		ldr	r3, [r7, #4]
 4018 0036 5B8A     		ldrh	r3, [r3, #18]	@ movhi
 4019 0038 A7F87C30 		strh	r3, [r7, #124]	@ movhi
1108:..\..\..\lvgl\version_6.1.2\lvgl\src\lv_objx/lv_chart.c ****     int32_t y_tmp;
1109:..\..\..\lvgl\version_6.1.2\lvgl\src\lv_objx/lv_chart.c ****     lv_coord_t p_prev;
1110:..\..\..\lvgl\version_6.1.2\lvgl\src\lv_objx/lv_chart.c ****     lv_coord_t p_act;
1111:..\..\..\lvgl\version_6.1.2\lvgl\src\lv_objx/lv_chart.c ****     lv_chart_series_t * ser;
1112:..\..\..\lvgl\version_6.1.2\lvgl\src\lv_objx/lv_chart.c ****     lv_opa_t opa_scale = lv_obj_get_opa_scale(chart);
 4020              		.loc 3 1112 0
 4021 003c 7868     		ldr	r0, [r7, #4]
 4022 003e FFF7FEFF 		bl	lv_obj_get_opa_scale
 4023 0042 0346     		mov	r3, r0
 4024 0044 87F87B30 		strb	r3, [r7, #123]
1113:..\..\..\lvgl\version_6.1.2\lvgl\src\lv_objx/lv_chart.c ****     lv_style_t style;
1114:..\..\..\lvgl\version_6.1.2\lvgl\src\lv_objx/lv_chart.c ****     lv_style_copy(&style, &lv_style_plain);
 4025              		.loc 3 1114 0
 4026 0048 07F11803 		add	r3, r7, #24
 4027 004c 8D49     		ldr	r1, .L205
 4028 004e 1846     		mov	r0, r3
 4029 0050 FFF7FEFF 		bl	lv_style_copy
1115:..\..\..\lvgl\version_6.1.2\lvgl\src\lv_objx/lv_chart.c **** 
1116:..\..\..\lvgl\version_6.1.2\lvgl\src\lv_objx/lv_chart.c ****     /*Go through all data lines*/
1117:..\..\..\lvgl\version_6.1.2\lvgl\src\lv_objx/lv_chart.c ****     LV_LL_READ_BACK(ext->series_ll, ser)
 4030              		.loc 3 1117 0
 4031 0054 D7F88430 		ldr	r3, [r7, #132]
 4032 0058 1846     		mov	r0, r3
 4033 005a FFF7FEFF 		bl	lv_ll_get_tail
 4034 005e C7F88800 		str	r0, [r7, #136]
 4035 0062 05E1     		b	.L198
 4036              	.L204:
 4037              	.LBB13:
1118:..\..\..\lvgl\version_6.1.2\lvgl\src\lv_objx/lv_chart.c ****     {
1119:..\..\..\lvgl\version_6.1.2\lvgl\src\lv_objx/lv_chart.c ****         lv_coord_t start_point = ext->update_mode == LV_CHART_UPDATE_MODE_SHIFT ? ser->start_point 
 4038              		.loc 3 1119 0
 4039 0064 D7F88430 		ldr	r3, [r7, #132]
 4040 0068 93F83230 		ldrb	r3, [r3, #50]	@ zero_extendqisi2
 4041 006c 03F00103 		and	r3, r3, #1
 4042 0070 DBB2     		uxtb	r3, r3
 4043 0072 002B     		cmp	r3, #0
 4044 0074 04D1     		bne	.L199
 4045              		.loc 3 1119 0 is_stmt 0 discriminator 1
 4046 0076 D7F88830 		ldr	r3, [r7, #136]
 4047 007a 1B89     		ldrh	r3, [r3, #8]
 4048 007c 1BB2     		sxth	r3, r3
ARM GAS  C:\Users\tmj32\AppData\Local\Temp\ccrrExWC.s 			page 105


 4049 007e 00E0     		b	.L200
 4050              	.L199:
 4051              		.loc 3 1119 0 discriminator 2
 4052 0080 0023     		movs	r3, #0
 4053              	.L200:
 4054              		.loc 3 1119 0 discriminator 4
 4055 0082 A7F87830 		strh	r3, [r7, #120]	@ movhi
1120:..\..\..\lvgl\version_6.1.2\lvgl\src\lv_objx/lv_chart.c ****         style.body.main_color  = ser->color;
 4056              		.loc 3 1120 0 is_stmt 1 discriminator 4
 4057 0086 D7F88830 		ldr	r3, [r7, #136]
 4058 008a 5B68     		ldr	r3, [r3, #4]
 4059 008c FB61     		str	r3, [r7, #28]
1121:..\..\..\lvgl\version_6.1.2\lvgl\src\lv_objx/lv_chart.c ****         style.body.opa         = ext->series.opa;
 4060              		.loc 3 1121 0 discriminator 4
 4061 008e D7F88430 		ldr	r3, [r7, #132]
 4062 0092 93F83730 		ldrb	r3, [r3, #55]	@ zero_extendqisi2
 4063 0096 87F82630 		strb	r3, [r7, #38]
1122:..\..\..\lvgl\version_6.1.2\lvgl\src\lv_objx/lv_chart.c **** 
1123:..\..\..\lvgl\version_6.1.2\lvgl\src\lv_objx/lv_chart.c ****         p2.x = 0 + x_ofs;
 4064              		.loc 3 1123 0 discriminator 4
 4065 009a B7F87E30 		ldrh	r3, [r7, #126]	@ movhi
 4066 009e A7F86830 		strh	r3, [r7, #104]	@ movhi
1124:..\..\..\lvgl\version_6.1.2\lvgl\src\lv_objx/lv_chart.c **** 
1125:..\..\..\lvgl\version_6.1.2\lvgl\src\lv_objx/lv_chart.c ****         p_prev = start_point;
 4067              		.loc 3 1125 0 discriminator 4
 4068 00a2 B7F87830 		ldrh	r3, [r7, #120]	@ movhi
 4069 00a6 A7F88C30 		strh	r3, [r7, #140]	@ movhi
1126:..\..\..\lvgl\version_6.1.2\lvgl\src\lv_objx/lv_chart.c ****         y_tmp  = (int32_t)((int32_t)ser->points[p_prev] - ext->ymin) * h;
 4070              		.loc 3 1126 0 discriminator 4
 4071 00aa D7F88830 		ldr	r3, [r7, #136]
 4072 00ae 1A68     		ldr	r2, [r3]
 4073 00b0 B7F98C30 		ldrsh	r3, [r7, #140]
 4074 00b4 5B00     		lsls	r3, r3, #1
 4075 00b6 1344     		add	r3, r3, r2
 4076 00b8 B3F90030 		ldrsh	r3, [r3]
 4077 00bc 1A46     		mov	r2, r3
 4078 00be D7F88430 		ldr	r3, [r7, #132]
 4079 00c2 B3F90C30 		ldrsh	r3, [r3, #12]
 4080 00c6 D31A     		subs	r3, r2, r3
 4081 00c8 B7F98020 		ldrsh	r2, [r7, #128]
 4082 00cc 02FB03F3 		mul	r3, r2, r3
 4083 00d0 7B67     		str	r3, [r7, #116]
1127:..\..\..\lvgl\version_6.1.2\lvgl\src\lv_objx/lv_chart.c ****         y_tmp  = y_tmp / (ext->ymax - ext->ymin);
 4084              		.loc 3 1127 0 discriminator 4
 4085 00d2 D7F88430 		ldr	r3, [r7, #132]
 4086 00d6 B3F90E30 		ldrsh	r3, [r3, #14]
 4087 00da 1A46     		mov	r2, r3
 4088 00dc D7F88430 		ldr	r3, [r7, #132]
 4089 00e0 B3F90C30 		ldrsh	r3, [r3, #12]
 4090 00e4 D31A     		subs	r3, r2, r3
 4091 00e6 7A6F     		ldr	r2, [r7, #116]
 4092 00e8 92FBF3F3 		sdiv	r3, r2, r3
 4093 00ec 7B67     		str	r3, [r7, #116]
1128:..\..\..\lvgl\version_6.1.2\lvgl\src\lv_objx/lv_chart.c ****         p2.y   = h - y_tmp + y_ofs;
 4094              		.loc 3 1128 0 discriminator 4
 4095 00ee B7F88020 		ldrh	r2, [r7, #128]
 4096 00f2 7B6F     		ldr	r3, [r7, #116]
ARM GAS  C:\Users\tmj32\AppData\Local\Temp\ccrrExWC.s 			page 106


 4097 00f4 9BB2     		uxth	r3, r3
 4098 00f6 D31A     		subs	r3, r2, r3
 4099 00f8 9AB2     		uxth	r2, r3
 4100 00fa B7F87C30 		ldrh	r3, [r7, #124]
 4101 00fe 1344     		add	r3, r3, r2
 4102 0100 9BB2     		uxth	r3, r3
 4103 0102 1BB2     		sxth	r3, r3
 4104 0104 A7F86A30 		strh	r3, [r7, #106]	@ movhi
1129:..\..\..\lvgl\version_6.1.2\lvgl\src\lv_objx/lv_chart.c **** 
1130:..\..\..\lvgl\version_6.1.2\lvgl\src\lv_objx/lv_chart.c ****         for(i = 1; i < ext->point_cnt; i++) {
 4105              		.loc 3 1130 0 discriminator 4
 4106 0108 0123     		movs	r3, #1
 4107 010a A7F88E30 		strh	r3, [r7, #142]	@ movhi
 4108 010e 9EE0     		b	.L201
 4109              	.L203:
1131:..\..\..\lvgl\version_6.1.2\lvgl\src\lv_objx/lv_chart.c ****             p1.x = p2.x;
 4110              		.loc 3 1131 0
 4111 0110 B7F96830 		ldrsh	r3, [r7, #104]
 4112 0114 A7F86C30 		strh	r3, [r7, #108]	@ movhi
1132:..\..\..\lvgl\version_6.1.2\lvgl\src\lv_objx/lv_chart.c ****             p1.y = p2.y;
 4113              		.loc 3 1132 0
 4114 0118 B7F96A30 		ldrsh	r3, [r7, #106]
 4115 011c A7F86E30 		strh	r3, [r7, #110]	@ movhi
1133:..\..\..\lvgl\version_6.1.2\lvgl\src\lv_objx/lv_chart.c **** 
1134:..\..\..\lvgl\version_6.1.2\lvgl\src\lv_objx/lv_chart.c ****             p_act = (start_point + i) % ext->point_cnt;
 4116              		.loc 3 1134 0
 4117 0120 B7F97820 		ldrsh	r2, [r7, #120]
 4118 0124 B7F88E30 		ldrh	r3, [r7, #142]
 4119 0128 1344     		add	r3, r3, r2
 4120 012a D7F88420 		ldr	r2, [r7, #132]
 4121 012e 528A     		ldrh	r2, [r2, #18]
 4122 0130 93FBF2F1 		sdiv	r1, r3, r2
 4123 0134 02FB01F2 		mul	r2, r2, r1
 4124 0138 9B1A     		subs	r3, r3, r2
 4125 013a A7F87230 		strh	r3, [r7, #114]	@ movhi
1135:..\..\..\lvgl\version_6.1.2\lvgl\src\lv_objx/lv_chart.c ****             p2.x  = ((w * i) / (ext->point_cnt - 1)) + x_ofs;
 4126              		.loc 3 1135 0
 4127 013e B7F98230 		ldrsh	r3, [r7, #130]
 4128 0142 B7F88E20 		ldrh	r2, [r7, #142]
 4129 0146 02FB03F2 		mul	r2, r2, r3
 4130 014a D7F88430 		ldr	r3, [r7, #132]
 4131 014e 5B8A     		ldrh	r3, [r3, #18]
 4132 0150 013B     		subs	r3, r3, #1
 4133 0152 92FBF3F3 		sdiv	r3, r2, r3
 4134 0156 9AB2     		uxth	r2, r3
 4135 0158 B7F87E30 		ldrh	r3, [r7, #126]
 4136 015c 1344     		add	r3, r3, r2
 4137 015e 9BB2     		uxth	r3, r3
 4138 0160 1BB2     		sxth	r3, r3
 4139 0162 A7F86830 		strh	r3, [r7, #104]	@ movhi
1136:..\..\..\lvgl\version_6.1.2\lvgl\src\lv_objx/lv_chart.c **** 
1137:..\..\..\lvgl\version_6.1.2\lvgl\src\lv_objx/lv_chart.c ****             y_tmp = (int32_t)((int32_t)ser->points[p_act] - ext->ymin) * h;
 4140              		.loc 3 1137 0
 4141 0166 D7F88830 		ldr	r3, [r7, #136]
 4142 016a 1A68     		ldr	r2, [r3]
 4143 016c B7F97230 		ldrsh	r3, [r7, #114]
 4144 0170 5B00     		lsls	r3, r3, #1
ARM GAS  C:\Users\tmj32\AppData\Local\Temp\ccrrExWC.s 			page 107


 4145 0172 1344     		add	r3, r3, r2
 4146 0174 B3F90030 		ldrsh	r3, [r3]
 4147 0178 1A46     		mov	r2, r3
 4148 017a D7F88430 		ldr	r3, [r7, #132]
 4149 017e B3F90C30 		ldrsh	r3, [r3, #12]
 4150 0182 D31A     		subs	r3, r2, r3
 4151 0184 B7F98020 		ldrsh	r2, [r7, #128]
 4152 0188 02FB03F3 		mul	r3, r2, r3
 4153 018c 7B67     		str	r3, [r7, #116]
1138:..\..\..\lvgl\version_6.1.2\lvgl\src\lv_objx/lv_chart.c ****             y_tmp = y_tmp / (ext->ymax - ext->ymin);
 4154              		.loc 3 1138 0
 4155 018e D7F88430 		ldr	r3, [r7, #132]
 4156 0192 B3F90E30 		ldrsh	r3, [r3, #14]
 4157 0196 1A46     		mov	r2, r3
 4158 0198 D7F88430 		ldr	r3, [r7, #132]
 4159 019c B3F90C30 		ldrsh	r3, [r3, #12]
 4160 01a0 D31A     		subs	r3, r2, r3
 4161 01a2 7A6F     		ldr	r2, [r7, #116]
 4162 01a4 92FBF3F3 		sdiv	r3, r2, r3
 4163 01a8 7B67     		str	r3, [r7, #116]
1139:..\..\..\lvgl\version_6.1.2\lvgl\src\lv_objx/lv_chart.c ****             p2.y  = h - y_tmp + y_ofs;
 4164              		.loc 3 1139 0
 4165 01aa B7F88020 		ldrh	r2, [r7, #128]
 4166 01ae 7B6F     		ldr	r3, [r7, #116]
 4167 01b0 9BB2     		uxth	r3, r3
 4168 01b2 D31A     		subs	r3, r2, r3
 4169 01b4 9AB2     		uxth	r2, r3
 4170 01b6 B7F87C30 		ldrh	r3, [r7, #124]
 4171 01ba 1344     		add	r3, r3, r2
 4172 01bc 9BB2     		uxth	r3, r3
 4173 01be 1BB2     		sxth	r3, r3
 4174 01c0 A7F86A30 		strh	r3, [r7, #106]	@ movhi
1140:..\..\..\lvgl\version_6.1.2\lvgl\src\lv_objx/lv_chart.c **** 
1141:..\..\..\lvgl\version_6.1.2\lvgl\src\lv_objx/lv_chart.c ****             if(ser->points[p_prev] != LV_CHART_POINT_DEF && ser->points[p_act] != LV_CHART_POINT_DE
 4175              		.loc 3 1141 0
 4176 01c4 D7F88830 		ldr	r3, [r7, #136]
 4177 01c8 1A68     		ldr	r2, [r3]
 4178 01ca B7F98C30 		ldrsh	r3, [r7, #140]
 4179 01ce 5B00     		lsls	r3, r3, #1
 4180 01d0 1344     		add	r3, r3, r2
 4181 01d2 B3F90030 		ldrsh	r3, [r3]
 4182 01d6 2C4A     		ldr	r2, .L205+4
 4183 01d8 9342     		cmp	r3, r2
 4184 01da 2FD0     		beq	.L202
 4185              		.loc 3 1141 0 is_stmt 0 discriminator 1
 4186 01dc D7F88830 		ldr	r3, [r7, #136]
 4187 01e0 1A68     		ldr	r2, [r3]
 4188 01e2 B7F97230 		ldrsh	r3, [r7, #114]
 4189 01e6 5B00     		lsls	r3, r3, #1
 4190 01e8 1344     		add	r3, r3, r2
 4191 01ea B3F90030 		ldrsh	r3, [r3]
 4192 01ee 264A     		ldr	r2, .L205+4
 4193 01f0 9342     		cmp	r3, r2
 4194 01f2 23D0     		beq	.L202
 4195              	.LBB14:
1142:..\..\..\lvgl\version_6.1.2\lvgl\src\lv_objx/lv_chart.c ****                 lv_point_t triangle_points[3];
1143:..\..\..\lvgl\version_6.1.2\lvgl\src\lv_objx/lv_chart.c ****                 triangle_points[0]   = p1;
ARM GAS  C:\Users\tmj32\AppData\Local\Temp\ccrrExWC.s 			page 108


 4196              		.loc 3 1143 0 is_stmt 1
 4197 01f4 FB6E     		ldr	r3, [r7, #108]
 4198 01f6 FB60     		str	r3, [r7, #12]
1144:..\..\..\lvgl\version_6.1.2\lvgl\src\lv_objx/lv_chart.c ****                 triangle_points[1]   = p2;
 4199              		.loc 3 1144 0
 4200 01f8 BB6E     		ldr	r3, [r7, #104]
 4201 01fa 3B61     		str	r3, [r7, #16]
1145:..\..\..\lvgl\version_6.1.2\lvgl\src\lv_objx/lv_chart.c ****                 triangle_points[2].x = p1.x;
 4202              		.loc 3 1145 0
 4203 01fc B7F96C30 		ldrsh	r3, [r7, #108]
 4204 0200 BB82     		strh	r3, [r7, #20]	@ movhi
1146:..\..\..\lvgl\version_6.1.2\lvgl\src\lv_objx/lv_chart.c ****                 triangle_points[2].y = chart->coords.y2;
 4205              		.loc 3 1146 0
 4206 0202 7B68     		ldr	r3, [r7, #4]
 4207 0204 B3F91630 		ldrsh	r3, [r3, #22]
 4208 0208 FB82     		strh	r3, [r7, #22]	@ movhi
1147:..\..\..\lvgl\version_6.1.2\lvgl\src\lv_objx/lv_chart.c ****                 lv_draw_triangle(triangle_points, mask, &style, opa_scale);
 4209              		.loc 3 1147 0
 4210 020a 97F87B30 		ldrb	r3, [r7, #123]	@ zero_extendqisi2
 4211 020e 07F11802 		add	r2, r7, #24
 4212 0212 07F10C00 		add	r0, r7, #12
 4213 0216 3968     		ldr	r1, [r7]
 4214 0218 FFF7FEFF 		bl	lv_draw_triangle
1148:..\..\..\lvgl\version_6.1.2\lvgl\src\lv_objx/lv_chart.c ****                 triangle_points[2].x = p2.x;
 4215              		.loc 3 1148 0
 4216 021c B7F96830 		ldrsh	r3, [r7, #104]
 4217 0220 BB82     		strh	r3, [r7, #20]	@ movhi
1149:..\..\..\lvgl\version_6.1.2\lvgl\src\lv_objx/lv_chart.c ****                 triangle_points[0].y = chart->coords.y2;
 4218              		.loc 3 1149 0
 4219 0222 7B68     		ldr	r3, [r7, #4]
 4220 0224 B3F91630 		ldrsh	r3, [r3, #22]
 4221 0228 FB81     		strh	r3, [r7, #14]	@ movhi
1150:..\..\..\lvgl\version_6.1.2\lvgl\src\lv_objx/lv_chart.c ****                 lv_draw_triangle(triangle_points, mask, &style, opa_scale);
 4222              		.loc 3 1150 0
 4223 022a 97F87B30 		ldrb	r3, [r7, #123]	@ zero_extendqisi2
 4224 022e 07F11802 		add	r2, r7, #24
 4225 0232 07F10C00 		add	r0, r7, #12
 4226 0236 3968     		ldr	r1, [r7]
 4227 0238 FFF7FEFF 		bl	lv_draw_triangle
 4228              	.L202:
 4229              	.LBE14:
1151:..\..\..\lvgl\version_6.1.2\lvgl\src\lv_objx/lv_chart.c ****             }
1152:..\..\..\lvgl\version_6.1.2\lvgl\src\lv_objx/lv_chart.c ****             p_prev = p_act;
 4230              		.loc 3 1152 0 discriminator 2
 4231 023c B7F87230 		ldrh	r3, [r7, #114]	@ movhi
 4232 0240 A7F88C30 		strh	r3, [r7, #140]	@ movhi
1130:..\..\..\lvgl\version_6.1.2\lvgl\src\lv_objx/lv_chart.c ****             p1.x = p2.x;
 4233              		.loc 3 1130 0 discriminator 2
 4234 0244 B7F88E30 		ldrh	r3, [r7, #142]
 4235 0248 0133     		adds	r3, r3, #1
 4236 024a A7F88E30 		strh	r3, [r7, #142]	@ movhi
 4237              	.L201:
1130:..\..\..\lvgl\version_6.1.2\lvgl\src\lv_objx/lv_chart.c ****             p1.x = p2.x;
 4238              		.loc 3 1130 0 is_stmt 0 discriminator 1
 4239 024e D7F88430 		ldr	r3, [r7, #132]
 4240 0252 5B8A     		ldrh	r3, [r3, #18]
 4241 0254 B7F88E20 		ldrh	r2, [r7, #142]
ARM GAS  C:\Users\tmj32\AppData\Local\Temp\ccrrExWC.s 			page 109


 4242 0258 9A42     		cmp	r2, r3
 4243 025a FFF459AF 		bcc	.L203
 4244              	.LBE13:
1117:..\..\..\lvgl\version_6.1.2\lvgl\src\lv_objx/lv_chart.c ****     {
 4245              		.loc 3 1117 0 is_stmt 1 discriminator 2
 4246 025e D7F88430 		ldr	r3, [r7, #132]
 4247 0262 D7F88810 		ldr	r1, [r7, #136]
 4248 0266 1846     		mov	r0, r3
 4249 0268 FFF7FEFF 		bl	lv_ll_get_prev
 4250 026c C7F88800 		str	r0, [r7, #136]
 4251              	.L198:
1117:..\..\..\lvgl\version_6.1.2\lvgl\src\lv_objx/lv_chart.c ****     {
 4252              		.loc 3 1117 0 is_stmt 0 discriminator 1
 4253 0270 D7F88830 		ldr	r3, [r7, #136]
 4254 0274 002B     		cmp	r3, #0
 4255 0276 7FF4F5AE 		bne	.L204
1153:..\..\..\lvgl\version_6.1.2\lvgl\src\lv_objx/lv_chart.c ****         }
1154:..\..\..\lvgl\version_6.1.2\lvgl\src\lv_objx/lv_chart.c ****     }
1155:..\..\..\lvgl\version_6.1.2\lvgl\src\lv_objx/lv_chart.c **** }
 4256              		.loc 3 1155 0 is_stmt 1
 4257 027a 00BF     		nop
 4258 027c 9037     		adds	r7, r7, #144
 4259              		.cfi_def_cfa_offset 8
 4260 027e BD46     		mov	sp, r7
 4261              		.cfi_def_cfa_register 13
 4262              		@ sp needed
 4263 0280 80BD     		pop	{r7, pc}
 4264              	.L206:
 4265 0282 00BF     		.align	2
 4266              	.L205:
 4267 0284 00000000 		.word	lv_style_plain
 4268 0288 E883FFFF 		.word	-31768
 4269              		.cfi_endproc
 4270              	.LFE70:
 4271              		.size	lv_chart_draw_areas, .-lv_chart_draw_areas
 4272              		.section	.text.lv_chart_create_label_iter,"ax",%progbits
 4273              		.align	2
 4274              		.thumb
 4275              		.thumb_func
 4276              		.type	lv_chart_create_label_iter, %function
 4277              	lv_chart_create_label_iter:
 4278              	.LFB71:
1156:..\..\..\lvgl\version_6.1.2\lvgl\src\lv_objx/lv_chart.c **** 
1157:..\..\..\lvgl\version_6.1.2\lvgl\src\lv_objx/lv_chart.c **** /**
1158:..\..\..\lvgl\version_6.1.2\lvgl\src\lv_objx/lv_chart.c ****  * Create iterator for newline-separated list
1159:..\..\..\lvgl\version_6.1.2\lvgl\src\lv_objx/lv_chart.c ****  * @param list pointer to newline-separated labels list
1160:..\..\..\lvgl\version_6.1.2\lvgl\src\lv_objx/lv_chart.c ****  * @param iterator_dir LV_CHART_ITERATOR_FORWARD or LV_CHART_LABEL_ITERATOR_REVERSE
1161:..\..\..\lvgl\version_6.1.2\lvgl\src\lv_objx/lv_chart.c ****  * @return lv_chart_label_iterator_t
1162:..\..\..\lvgl\version_6.1.2\lvgl\src\lv_objx/lv_chart.c ****  */
1163:..\..\..\lvgl\version_6.1.2\lvgl\src\lv_objx/lv_chart.c **** static lv_chart_label_iterator_t lv_chart_create_label_iter(const char * list, uint8_t iterator_dir
1164:..\..\..\lvgl\version_6.1.2\lvgl\src\lv_objx/lv_chart.c **** {
 4279              		.loc 3 1164 0
 4280              		.cfi_startproc
 4281              		@ args = 0, pretend = 0, frame = 32
 4282              		@ frame_needed = 1, uses_anonymous_args = 0
 4283              		@ link register save eliminated.
 4284 0000 90B4     		push	{r4, r7}
ARM GAS  C:\Users\tmj32\AppData\Local\Temp\ccrrExWC.s 			page 110


 4285              		.cfi_def_cfa_offset 8
 4286              		.cfi_offset 4, -8
 4287              		.cfi_offset 7, -4
 4288 0002 88B0     		sub	sp, sp, #32
 4289              		.cfi_def_cfa_offset 40
 4290 0004 00AF     		add	r7, sp, #0
 4291              		.cfi_def_cfa_register 7
 4292 0006 F860     		str	r0, [r7, #12]
 4293 0008 B960     		str	r1, [r7, #8]
 4294 000a 1346     		mov	r3, r2
 4295 000c FB71     		strb	r3, [r7, #7]
1165:..\..\..\lvgl\version_6.1.2\lvgl\src\lv_objx/lv_chart.c ****     lv_chart_label_iterator_t iterator = {0};
 4296              		.loc 3 1165 0
 4297 000e 07F11003 		add	r3, r7, #16
 4298 0012 0022     		movs	r2, #0
 4299 0014 1A60     		str	r2, [r3]
 4300 0016 5A60     		str	r2, [r3, #4]
 4301 0018 9A60     		str	r2, [r3, #8]
1166:..\..\..\lvgl\version_6.1.2\lvgl\src\lv_objx/lv_chart.c ****     uint8_t j;
1167:..\..\..\lvgl\version_6.1.2\lvgl\src\lv_objx/lv_chart.c **** 
1168:..\..\..\lvgl\version_6.1.2\lvgl\src\lv_objx/lv_chart.c ****     iterator.list_start = list;
 4302              		.loc 3 1168 0
 4303 001a BB68     		ldr	r3, [r7, #8]
 4304 001c 3B61     		str	r3, [r7, #16]
1169:..\..\..\lvgl\version_6.1.2\lvgl\src\lv_objx/lv_chart.c **** 
1170:..\..\..\lvgl\version_6.1.2\lvgl\src\lv_objx/lv_chart.c ****     /* count number of list items */
1171:..\..\..\lvgl\version_6.1.2\lvgl\src\lv_objx/lv_chart.c ****     for(j = 0; list[j] != '\0'; j++) {
 4305              		.loc 3 1171 0
 4306 001e 0023     		movs	r3, #0
 4307 0020 FB77     		strb	r3, [r7, #31]
 4308 0022 0CE0     		b	.L208
 4309              	.L210:
1172:..\..\..\lvgl\version_6.1.2\lvgl\src\lv_objx/lv_chart.c ****             if(list[j] == '\n')
 4310              		.loc 3 1172 0
 4311 0024 FB7F     		ldrb	r3, [r7, #31]	@ zero_extendqisi2
 4312 0026 BA68     		ldr	r2, [r7, #8]
 4313 0028 1344     		add	r3, r3, r2
 4314 002a 1B78     		ldrb	r3, [r3]	@ zero_extendqisi2
 4315 002c 0A2B     		cmp	r3, #10
 4316 002e 03D1     		bne	.L209
1173:..\..\..\lvgl\version_6.1.2\lvgl\src\lv_objx/lv_chart.c ****                iterator.items_left++;
 4317              		.loc 3 1173 0
 4318 0030 3B7E     		ldrb	r3, [r7, #24]	@ zero_extendqisi2
 4319 0032 0133     		adds	r3, r3, #1
 4320 0034 DBB2     		uxtb	r3, r3
 4321 0036 3B76     		strb	r3, [r7, #24]
 4322              	.L209:
1171:..\..\..\lvgl\version_6.1.2\lvgl\src\lv_objx/lv_chart.c ****             if(list[j] == '\n')
 4323              		.loc 3 1171 0 discriminator 2
 4324 0038 FB7F     		ldrb	r3, [r7, #31]	@ zero_extendqisi2
 4325 003a 0133     		adds	r3, r3, #1
 4326 003c FB77     		strb	r3, [r7, #31]
 4327              	.L208:
1171:..\..\..\lvgl\version_6.1.2\lvgl\src\lv_objx/lv_chart.c ****             if(list[j] == '\n')
 4328              		.loc 3 1171 0 is_stmt 0 discriminator 1
 4329 003e FB7F     		ldrb	r3, [r7, #31]	@ zero_extendqisi2
 4330 0040 BA68     		ldr	r2, [r7, #8]
ARM GAS  C:\Users\tmj32\AppData\Local\Temp\ccrrExWC.s 			page 111


 4331 0042 1344     		add	r3, r3, r2
 4332 0044 1B78     		ldrb	r3, [r3]	@ zero_extendqisi2
 4333 0046 002B     		cmp	r3, #0
 4334 0048 ECD1     		bne	.L210
1174:..\..\..\lvgl\version_6.1.2\lvgl\src\lv_objx/lv_chart.c ****     }
1175:..\..\..\lvgl\version_6.1.2\lvgl\src\lv_objx/lv_chart.c **** 
1176:..\..\..\lvgl\version_6.1.2\lvgl\src\lv_objx/lv_chart.c ****     if(iterator_dir == LV_CHART_LABEL_ITERATOR_FORWARD) {
 4335              		.loc 3 1176 0 is_stmt 1
 4336 004a FB79     		ldrb	r3, [r7, #7]	@ zero_extendqisi2
 4337 004c 012B     		cmp	r3, #1
 4338 004e 04D1     		bne	.L211
1177:..\..\..\lvgl\version_6.1.2\lvgl\src\lv_objx/lv_chart.c ****         iterator.is_reverse_iter = 0;
 4339              		.loc 3 1177 0
 4340 0050 0023     		movs	r3, #0
 4341 0052 7B76     		strb	r3, [r7, #25]
1178:..\..\..\lvgl\version_6.1.2\lvgl\src\lv_objx/lv_chart.c ****         iterator.current_pos = list;
 4342              		.loc 3 1178 0
 4343 0054 BB68     		ldr	r3, [r7, #8]
 4344 0056 7B61     		str	r3, [r7, #20]
 4345 0058 06E0     		b	.L212
 4346              	.L211:
1179:..\..\..\lvgl\version_6.1.2\lvgl\src\lv_objx/lv_chart.c ****     } else {
1180:..\..\..\lvgl\version_6.1.2\lvgl\src\lv_objx/lv_chart.c ****         iterator.is_reverse_iter = 1;
 4347              		.loc 3 1180 0
 4348 005a 0123     		movs	r3, #1
 4349 005c 7B76     		strb	r3, [r7, #25]
1181:..\..\..\lvgl\version_6.1.2\lvgl\src\lv_objx/lv_chart.c ****         // -1 to skip '\0' at the end of the string
1182:..\..\..\lvgl\version_6.1.2\lvgl\src\lv_objx/lv_chart.c ****         iterator.current_pos = list + j - 1;
 4350              		.loc 3 1182 0
 4351 005e FB7F     		ldrb	r3, [r7, #31]	@ zero_extendqisi2
 4352 0060 013B     		subs	r3, r3, #1
 4353 0062 BA68     		ldr	r2, [r7, #8]
 4354 0064 1344     		add	r3, r3, r2
 4355 0066 7B61     		str	r3, [r7, #20]
 4356              	.L212:
1183:..\..\..\lvgl\version_6.1.2\lvgl\src\lv_objx/lv_chart.c ****     }
1184:..\..\..\lvgl\version_6.1.2\lvgl\src\lv_objx/lv_chart.c ****     iterator.items_left++;
 4357              		.loc 3 1184 0
 4358 0068 3B7E     		ldrb	r3, [r7, #24]	@ zero_extendqisi2
 4359 006a 0133     		adds	r3, r3, #1
 4360 006c DBB2     		uxtb	r3, r3
 4361 006e 3B76     		strb	r3, [r7, #24]
1185:..\..\..\lvgl\version_6.1.2\lvgl\src\lv_objx/lv_chart.c ****     return iterator;
 4362              		.loc 3 1185 0
 4363 0070 FB68     		ldr	r3, [r7, #12]
 4364 0072 1C46     		mov	r4, r3
 4365 0074 07F11003 		add	r3, r7, #16
 4366 0078 93E80700 		ldmia	r3, {r0, r1, r2}
 4367 007c 84E80700 		stmia	r4, {r0, r1, r2}
1186:..\..\..\lvgl\version_6.1.2\lvgl\src\lv_objx/lv_chart.c **** }
 4368              		.loc 3 1186 0
 4369 0080 F868     		ldr	r0, [r7, #12]
 4370 0082 2037     		adds	r7, r7, #32
 4371              		.cfi_def_cfa_offset 8
 4372 0084 BD46     		mov	sp, r7
 4373              		.cfi_def_cfa_register 13
 4374              		@ sp needed
ARM GAS  C:\Users\tmj32\AppData\Local\Temp\ccrrExWC.s 			page 112


 4375 0086 90BC     		pop	{r4, r7}
 4376              		.cfi_restore 7
 4377              		.cfi_restore 4
 4378              		.cfi_def_cfa_offset 0
 4379 0088 7047     		bx	lr
 4380              		.cfi_endproc
 4381              	.LFE71:
 4382              		.size	lv_chart_create_label_iter, .-lv_chart_create_label_iter
 4383 008a 00BF     		.section	.text.lv_chart_get_next_label,"ax",%progbits
 4384              		.align	2
 4385              		.thumb
 4386              		.thumb_func
 4387              		.type	lv_chart_get_next_label, %function
 4388              	lv_chart_get_next_label:
 4389              	.LFB72:
1187:..\..\..\lvgl\version_6.1.2\lvgl\src\lv_objx/lv_chart.c **** 
1188:..\..\..\lvgl\version_6.1.2\lvgl\src\lv_objx/lv_chart.c **** /**
1189:..\..\..\lvgl\version_6.1.2\lvgl\src\lv_objx/lv_chart.c ****  * Get next label from iterator created by lv_chart_create_label_iter()
1190:..\..\..\lvgl\version_6.1.2\lvgl\src\lv_objx/lv_chart.c ****  * @param iterator iterator to get label from
1191:..\..\..\lvgl\version_6.1.2\lvgl\src\lv_objx/lv_chart.c ****  * @param[out] buf buffer to point next label to
1192:..\..\..\lvgl\version_6.1.2\lvgl\src\lv_objx/lv_chart.c ****  */
1193:..\..\..\lvgl\version_6.1.2\lvgl\src\lv_objx/lv_chart.c **** static void lv_chart_get_next_label(lv_chart_label_iterator_t * iterator, char * buf)
1194:..\..\..\lvgl\version_6.1.2\lvgl\src\lv_objx/lv_chart.c **** {
 4390              		.loc 3 1194 0
 4391              		.cfi_startproc
 4392              		@ args = 0, pretend = 0, frame = 16
 4393              		@ frame_needed = 1, uses_anonymous_args = 0
 4394 0000 80B5     		push	{r7, lr}
 4395              		.cfi_def_cfa_offset 8
 4396              		.cfi_offset 7, -8
 4397              		.cfi_offset 14, -4
 4398 0002 84B0     		sub	sp, sp, #16
 4399              		.cfi_def_cfa_offset 24
 4400 0004 00AF     		add	r7, sp, #0
 4401              		.cfi_def_cfa_register 7
 4402 0006 7860     		str	r0, [r7, #4]
 4403 0008 3960     		str	r1, [r7]
1195:..\..\..\lvgl\version_6.1.2\lvgl\src\lv_objx/lv_chart.c ****     uint8_t label_len = 0;
 4404              		.loc 3 1195 0
 4405 000a 0023     		movs	r3, #0
 4406 000c FB73     		strb	r3, [r7, #15]
1196:..\..\..\lvgl\version_6.1.2\lvgl\src\lv_objx/lv_chart.c ****     if (iterator->is_reverse_iter) {
 4407              		.loc 3 1196 0
 4408 000e 7B68     		ldr	r3, [r7, #4]
 4409 0010 5B7A     		ldrb	r3, [r3, #9]	@ zero_extendqisi2
 4410 0012 002B     		cmp	r3, #0
 4411 0014 46D0     		beq	.L223
 4412              	.LBB15:
1197:..\..\..\lvgl\version_6.1.2\lvgl\src\lv_objx/lv_chart.c ****         const char * label_start;
1198:..\..\..\lvgl\version_6.1.2\lvgl\src\lv_objx/lv_chart.c ****         /* count the length of the current label*/
1199:..\..\..\lvgl\version_6.1.2\lvgl\src\lv_objx/lv_chart.c ****         while ((*iterator->current_pos != '\n') &&
 4413              		.loc 3 1199 0
 4414 0016 07E0     		b	.L216
 4415              	.L218:
1200:..\..\..\lvgl\version_6.1.2\lvgl\src\lv_objx/lv_chart.c ****                 (iterator->current_pos != iterator->list_start)) {
1201:..\..\..\lvgl\version_6.1.2\lvgl\src\lv_objx/lv_chart.c ****             iterator->current_pos--;
 4416              		.loc 3 1201 0
ARM GAS  C:\Users\tmj32\AppData\Local\Temp\ccrrExWC.s 			page 113


 4417 0018 7B68     		ldr	r3, [r7, #4]
 4418 001a 5B68     		ldr	r3, [r3, #4]
 4419 001c 5A1E     		subs	r2, r3, #1
 4420 001e 7B68     		ldr	r3, [r7, #4]
 4421 0020 5A60     		str	r2, [r3, #4]
1202:..\..\..\lvgl\version_6.1.2\lvgl\src\lv_objx/lv_chart.c ****             label_len++;
 4422              		.loc 3 1202 0
 4423 0022 FB7B     		ldrb	r3, [r7, #15]	@ zero_extendqisi2
 4424 0024 0133     		adds	r3, r3, #1
 4425 0026 FB73     		strb	r3, [r7, #15]
 4426              	.L216:
1199:..\..\..\lvgl\version_6.1.2\lvgl\src\lv_objx/lv_chart.c ****                 (iterator->current_pos != iterator->list_start)) {
 4427              		.loc 3 1199 0
 4428 0028 7B68     		ldr	r3, [r7, #4]
 4429 002a 5B68     		ldr	r3, [r3, #4]
 4430 002c 1B78     		ldrb	r3, [r3]	@ zero_extendqisi2
 4431 002e 0A2B     		cmp	r3, #10
 4432 0030 05D0     		beq	.L217
1200:..\..\..\lvgl\version_6.1.2\lvgl\src\lv_objx/lv_chart.c ****                 (iterator->current_pos != iterator->list_start)) {
 4433              		.loc 3 1200 0 discriminator 1
 4434 0032 7B68     		ldr	r3, [r7, #4]
 4435 0034 5A68     		ldr	r2, [r3, #4]
 4436 0036 7B68     		ldr	r3, [r7, #4]
 4437 0038 1B68     		ldr	r3, [r3]
1199:..\..\..\lvgl\version_6.1.2\lvgl\src\lv_objx/lv_chart.c ****                 (iterator->current_pos != iterator->list_start)) {
 4438              		.loc 3 1199 0 discriminator 1
 4439 003a 9A42     		cmp	r2, r3
 4440 003c ECD1     		bne	.L218
 4441              	.L217:
1203:..\..\..\lvgl\version_6.1.2\lvgl\src\lv_objx/lv_chart.c ****         }
1204:..\..\..\lvgl\version_6.1.2\lvgl\src\lv_objx/lv_chart.c **** 
1205:..\..\..\lvgl\version_6.1.2\lvgl\src\lv_objx/lv_chart.c ****         label_start = iterator->current_pos;
 4442              		.loc 3 1205 0
 4443 003e 7B68     		ldr	r3, [r7, #4]
 4444 0040 5B68     		ldr	r3, [r3, #4]
 4445 0042 BB60     		str	r3, [r7, #8]
1206:..\..\..\lvgl\version_6.1.2\lvgl\src\lv_objx/lv_chart.c **** 
1207:..\..\..\lvgl\version_6.1.2\lvgl\src\lv_objx/lv_chart.c ****         if (*iterator->current_pos == '\n') {
 4446              		.loc 3 1207 0
 4447 0044 7B68     		ldr	r3, [r7, #4]
 4448 0046 5B68     		ldr	r3, [r3, #4]
 4449 0048 1B78     		ldrb	r3, [r3]	@ zero_extendqisi2
 4450 004a 0A2B     		cmp	r3, #10
 4451 004c 08D1     		bne	.L219
1208:..\..\..\lvgl\version_6.1.2\lvgl\src\lv_objx/lv_chart.c ****             /* do not copy \n symbol, +1 to skip it*/
1209:..\..\..\lvgl\version_6.1.2\lvgl\src\lv_objx/lv_chart.c ****             label_start++;
 4452              		.loc 3 1209 0
 4453 004e BB68     		ldr	r3, [r7, #8]
 4454 0050 0133     		adds	r3, r3, #1
 4455 0052 BB60     		str	r3, [r7, #8]
1210:..\..\..\lvgl\version_6.1.2\lvgl\src\lv_objx/lv_chart.c ****             /* skip newline*/
1211:..\..\..\lvgl\version_6.1.2\lvgl\src\lv_objx/lv_chart.c ****             iterator->current_pos--;
 4456              		.loc 3 1211 0
 4457 0054 7B68     		ldr	r3, [r7, #4]
 4458 0056 5B68     		ldr	r3, [r3, #4]
 4459 0058 5A1E     		subs	r2, r3, #1
 4460 005a 7B68     		ldr	r3, [r7, #4]
ARM GAS  C:\Users\tmj32\AppData\Local\Temp\ccrrExWC.s 			page 114


 4461 005c 5A60     		str	r2, [r3, #4]
 4462 005e 02E0     		b	.L220
 4463              	.L219:
1212:..\..\..\lvgl\version_6.1.2\lvgl\src\lv_objx/lv_chart.c ****         } else {
1213:..\..\..\lvgl\version_6.1.2\lvgl\src\lv_objx/lv_chart.c ****             /* it is last label in list (first one from the beginning )*/
1214:..\..\..\lvgl\version_6.1.2\lvgl\src\lv_objx/lv_chart.c ****             label_len++;
 4464              		.loc 3 1214 0
 4465 0060 FB7B     		ldrb	r3, [r7, #15]	@ zero_extendqisi2
 4466 0062 0133     		adds	r3, r3, #1
 4467 0064 FB73     		strb	r3, [r7, #15]
 4468              	.L220:
1215:..\..\..\lvgl\version_6.1.2\lvgl\src\lv_objx/lv_chart.c ****         }
1216:..\..\..\lvgl\version_6.1.2\lvgl\src\lv_objx/lv_chart.c **** 
1217:..\..\..\lvgl\version_6.1.2\lvgl\src\lv_objx/lv_chart.c ****         /* do not allow output buffer overflow */
1218:..\..\..\lvgl\version_6.1.2\lvgl\src\lv_objx/lv_chart.c ****         if (label_len > LV_CHART_AXIS_TICK_LABEL_MAX_LEN) {
 4469              		.loc 3 1218 0
 4470 0066 FB7B     		ldrb	r3, [r7, #15]	@ zero_extendqisi2
 4471 0068 142B     		cmp	r3, #20
 4472 006a 01D9     		bls	.L221
1219:..\..\..\lvgl\version_6.1.2\lvgl\src\lv_objx/lv_chart.c ****             label_len = LV_CHART_AXIS_TICK_LABEL_MAX_LEN;
 4473              		.loc 3 1219 0
 4474 006c 1423     		movs	r3, #20
 4475 006e FB73     		strb	r3, [r7, #15]
 4476              	.L221:
1220:..\..\..\lvgl\version_6.1.2\lvgl\src\lv_objx/lv_chart.c ****         }
1221:..\..\..\lvgl\version_6.1.2\lvgl\src\lv_objx/lv_chart.c **** 
1222:..\..\..\lvgl\version_6.1.2\lvgl\src\lv_objx/lv_chart.c ****         strncpy(buf, label_start, label_len);
 4477              		.loc 3 1222 0
 4478 0070 FB7B     		ldrb	r3, [r7, #15]	@ zero_extendqisi2
 4479 0072 1A46     		mov	r2, r3
 4480 0074 B968     		ldr	r1, [r7, #8]
 4481 0076 3868     		ldr	r0, [r7]
 4482 0078 FFF7FEFF 		bl	strncpy
 4483              	.LBE15:
 4484 007c 35E0     		b	.L222
 4485              	.L226:
1223:..\..\..\lvgl\version_6.1.2\lvgl\src\lv_objx/lv_chart.c ****     } else {
1224:..\..\..\lvgl\version_6.1.2\lvgl\src\lv_objx/lv_chart.c ****         /* search for tick string */
1225:..\..\..\lvgl\version_6.1.2\lvgl\src\lv_objx/lv_chart.c ****         while(iterator->current_pos[label_len] != '\n' &&
1226:..\..\..\lvgl\version_6.1.2\lvgl\src\lv_objx/lv_chart.c ****             iterator->current_pos[label_len] != '\0') {
1227:..\..\..\lvgl\version_6.1.2\lvgl\src\lv_objx/lv_chart.c ****             /* do not overflow the buffer, but move to the end of the current label */
1228:..\..\..\lvgl\version_6.1.2\lvgl\src\lv_objx/lv_chart.c ****             if(label_len < LV_CHART_AXIS_TICK_LABEL_MAX_LEN) {
 4486              		.loc 3 1228 0
 4487 007e FB7B     		ldrb	r3, [r7, #15]	@ zero_extendqisi2
 4488 0080 132B     		cmp	r3, #19
 4489 0082 0CD8     		bhi	.L224
1229:..\..\..\lvgl\version_6.1.2\lvgl\src\lv_objx/lv_chart.c ****                 buf[label_len] = iterator->current_pos[label_len];
 4490              		.loc 3 1229 0
 4491 0084 FB7B     		ldrb	r3, [r7, #15]	@ zero_extendqisi2
 4492 0086 3A68     		ldr	r2, [r7]
 4493 0088 1344     		add	r3, r3, r2
 4494 008a 7A68     		ldr	r2, [r7, #4]
 4495 008c 5168     		ldr	r1, [r2, #4]
 4496 008e FA7B     		ldrb	r2, [r7, #15]	@ zero_extendqisi2
 4497 0090 0A44     		add	r2, r2, r1
 4498 0092 1278     		ldrb	r2, [r2]	@ zero_extendqisi2
 4499 0094 1A70     		strb	r2, [r3]
ARM GAS  C:\Users\tmj32\AppData\Local\Temp\ccrrExWC.s 			page 115


1230:..\..\..\lvgl\version_6.1.2\lvgl\src\lv_objx/lv_chart.c ****                 label_len++;
 4500              		.loc 3 1230 0
 4501 0096 FB7B     		ldrb	r3, [r7, #15]	@ zero_extendqisi2
 4502 0098 0133     		adds	r3, r3, #1
 4503 009a FB73     		strb	r3, [r7, #15]
 4504 009c 02E0     		b	.L223
 4505              	.L224:
1231:..\..\..\lvgl\version_6.1.2\lvgl\src\lv_objx/lv_chart.c ****             } else {
1232:..\..\..\lvgl\version_6.1.2\lvgl\src\lv_objx/lv_chart.c ****                 label_len++;
 4506              		.loc 3 1232 0
 4507 009e FB7B     		ldrb	r3, [r7, #15]	@ zero_extendqisi2
 4508 00a0 0133     		adds	r3, r3, #1
 4509 00a2 FB73     		strb	r3, [r7, #15]
 4510              	.L223:
1225:..\..\..\lvgl\version_6.1.2\lvgl\src\lv_objx/lv_chart.c ****             iterator->current_pos[label_len] != '\0') {
 4511              		.loc 3 1225 0
 4512 00a4 7B68     		ldr	r3, [r7, #4]
 4513 00a6 5A68     		ldr	r2, [r3, #4]
 4514 00a8 FB7B     		ldrb	r3, [r7, #15]	@ zero_extendqisi2
 4515 00aa 1344     		add	r3, r3, r2
 4516 00ac 1B78     		ldrb	r3, [r3]	@ zero_extendqisi2
 4517 00ae 0A2B     		cmp	r3, #10
 4518 00b0 06D0     		beq	.L225
1226:..\..\..\lvgl\version_6.1.2\lvgl\src\lv_objx/lv_chart.c ****             /* do not overflow the buffer, but move to the end of the current label */
 4519              		.loc 3 1226 0 discriminator 1
 4520 00b2 7B68     		ldr	r3, [r7, #4]
 4521 00b4 5A68     		ldr	r2, [r3, #4]
 4522 00b6 FB7B     		ldrb	r3, [r7, #15]	@ zero_extendqisi2
 4523 00b8 1344     		add	r3, r3, r2
 4524 00ba 1B78     		ldrb	r3, [r3]	@ zero_extendqisi2
1225:..\..\..\lvgl\version_6.1.2\lvgl\src\lv_objx/lv_chart.c ****             iterator->current_pos[label_len] != '\0') {
 4525              		.loc 3 1225 0 discriminator 1
 4526 00bc 002B     		cmp	r3, #0
 4527 00be DED1     		bne	.L226
 4528              	.L225:
1233:..\..\..\lvgl\version_6.1.2\lvgl\src\lv_objx/lv_chart.c ****             }
1234:..\..\..\lvgl\version_6.1.2\lvgl\src\lv_objx/lv_chart.c ****         }
1235:..\..\..\lvgl\version_6.1.2\lvgl\src\lv_objx/lv_chart.c **** 
1236:..\..\..\lvgl\version_6.1.2\lvgl\src\lv_objx/lv_chart.c ****         iterator->current_pos += label_len;
 4529              		.loc 3 1236 0
 4530 00c0 7B68     		ldr	r3, [r7, #4]
 4531 00c2 5A68     		ldr	r2, [r3, #4]
 4532 00c4 FB7B     		ldrb	r3, [r7, #15]	@ zero_extendqisi2
 4533 00c6 1A44     		add	r2, r2, r3
 4534 00c8 7B68     		ldr	r3, [r7, #4]
 4535 00ca 5A60     		str	r2, [r3, #4]
1237:..\..\..\lvgl\version_6.1.2\lvgl\src\lv_objx/lv_chart.c **** 
1238:..\..\..\lvgl\version_6.1.2\lvgl\src\lv_objx/lv_chart.c ****         /* do not allow output buffer overflow */
1239:..\..\..\lvgl\version_6.1.2\lvgl\src\lv_objx/lv_chart.c ****         if (label_len > LV_CHART_AXIS_TICK_LABEL_MAX_LEN) {
 4536              		.loc 3 1239 0
 4537 00cc FB7B     		ldrb	r3, [r7, #15]	@ zero_extendqisi2
 4538 00ce 142B     		cmp	r3, #20
 4539 00d0 01D9     		bls	.L227
1240:..\..\..\lvgl\version_6.1.2\lvgl\src\lv_objx/lv_chart.c ****             label_len = LV_CHART_AXIS_TICK_LABEL_MAX_LEN;
 4540              		.loc 3 1240 0
 4541 00d2 1423     		movs	r3, #20
 4542 00d4 FB73     		strb	r3, [r7, #15]
ARM GAS  C:\Users\tmj32\AppData\Local\Temp\ccrrExWC.s 			page 116


 4543              	.L227:
1241:..\..\..\lvgl\version_6.1.2\lvgl\src\lv_objx/lv_chart.c ****         }
1242:..\..\..\lvgl\version_6.1.2\lvgl\src\lv_objx/lv_chart.c **** 
1243:..\..\..\lvgl\version_6.1.2\lvgl\src\lv_objx/lv_chart.c ****         if(*iterator->current_pos == '\n') iterator->current_pos++;
 4544              		.loc 3 1243 0
 4545 00d6 7B68     		ldr	r3, [r7, #4]
 4546 00d8 5B68     		ldr	r3, [r3, #4]
 4547 00da 1B78     		ldrb	r3, [r3]	@ zero_extendqisi2
 4548 00dc 0A2B     		cmp	r3, #10
 4549 00de 04D1     		bne	.L222
 4550              		.loc 3 1243 0 is_stmt 0 discriminator 1
 4551 00e0 7B68     		ldr	r3, [r7, #4]
 4552 00e2 5B68     		ldr	r3, [r3, #4]
 4553 00e4 5A1C     		adds	r2, r3, #1
 4554 00e6 7B68     		ldr	r3, [r7, #4]
 4555 00e8 5A60     		str	r2, [r3, #4]
 4556              	.L222:
1244:..\..\..\lvgl\version_6.1.2\lvgl\src\lv_objx/lv_chart.c ****     }
1245:..\..\..\lvgl\version_6.1.2\lvgl\src\lv_objx/lv_chart.c **** 
1246:..\..\..\lvgl\version_6.1.2\lvgl\src\lv_objx/lv_chart.c ****     /* terminate the string */
1247:..\..\..\lvgl\version_6.1.2\lvgl\src\lv_objx/lv_chart.c ****     buf[label_len] = '\0';
 4557              		.loc 3 1247 0 is_stmt 1
 4558 00ea FB7B     		ldrb	r3, [r7, #15]	@ zero_extendqisi2
 4559 00ec 3A68     		ldr	r2, [r7]
 4560 00ee 1344     		add	r3, r3, r2
 4561 00f0 0022     		movs	r2, #0
 4562 00f2 1A70     		strb	r2, [r3]
1248:..\..\..\lvgl\version_6.1.2\lvgl\src\lv_objx/lv_chart.c **** }
 4563              		.loc 3 1248 0
 4564 00f4 00BF     		nop
 4565 00f6 1037     		adds	r7, r7, #16
 4566              		.cfi_def_cfa_offset 8
 4567 00f8 BD46     		mov	sp, r7
 4568              		.cfi_def_cfa_register 13
 4569              		@ sp needed
 4570 00fa 80BD     		pop	{r7, pc}
 4571              		.cfi_endproc
 4572              	.LFE72:
 4573              		.size	lv_chart_get_next_label, .-lv_chart_get_next_label
 4574              		.section	.text.lv_chart_is_tick_with_label,"ax",%progbits
 4575              		.align	2
 4576              		.thumb
 4577              		.thumb_func
 4578              		.type	lv_chart_is_tick_with_label, %function
 4579              	lv_chart_is_tick_with_label:
 4580              	.LFB73:
1249:..\..\..\lvgl\version_6.1.2\lvgl\src\lv_objx/lv_chart.c **** 
1250:..\..\..\lvgl\version_6.1.2\lvgl\src\lv_objx/lv_chart.c **** /**
1251:..\..\..\lvgl\version_6.1.2\lvgl\src\lv_objx/lv_chart.c ****  * Check whether there should be a label next to tick with given
1252:..\..\..\lvgl\version_6.1.2\lvgl\src\lv_objx/lv_chart.c ****  * number
1253:..\..\..\lvgl\version_6.1.2\lvgl\src\lv_objx/lv_chart.c ****  * @param tick_num number of the tick to check
1254:..\..\..\lvgl\version_6.1.2\lvgl\src\lv_objx/lv_chart.c ****  * @param axis pointer to struct containing info on the axis
1255:..\..\..\lvgl\version_6.1.2\lvgl\src\lv_objx/lv_chart.c ****  * @return true if label should be located next to current tick
1256:..\..\..\lvgl\version_6.1.2\lvgl\src\lv_objx/lv_chart.c ****  */
1257:..\..\..\lvgl\version_6.1.2\lvgl\src\lv_objx/lv_chart.c **** static inline bool lv_chart_is_tick_with_label(uint8_t tick_num, lv_chart_axis_cfg_t * axis)
1258:..\..\..\lvgl\version_6.1.2\lvgl\src\lv_objx/lv_chart.c **** {
 4581              		.loc 3 1258 0
ARM GAS  C:\Users\tmj32\AppData\Local\Temp\ccrrExWC.s 			page 117


 4582              		.cfi_startproc
 4583              		@ args = 0, pretend = 0, frame = 8
 4584              		@ frame_needed = 1, uses_anonymous_args = 0
 4585              		@ link register save eliminated.
 4586 0000 80B4     		push	{r7}
 4587              		.cfi_def_cfa_offset 4
 4588              		.cfi_offset 7, -4
 4589 0002 83B0     		sub	sp, sp, #12
 4590              		.cfi_def_cfa_offset 16
 4591 0004 00AF     		add	r7, sp, #0
 4592              		.cfi_def_cfa_register 7
 4593 0006 0346     		mov	r3, r0
 4594 0008 3960     		str	r1, [r7]
 4595 000a FB71     		strb	r3, [r7, #7]
1259:..\..\..\lvgl\version_6.1.2\lvgl\src\lv_objx/lv_chart.c ****     return ((tick_num == 0) || ((tick_num % axis->num_tick_marks) == 0));
 4596              		.loc 3 1259 0
 4597 000c FB79     		ldrb	r3, [r7, #7]	@ zero_extendqisi2
 4598 000e 002B     		cmp	r3, #0
 4599 0010 0AD0     		beq	.L229
 4600              		.loc 3 1259 0 is_stmt 0 discriminator 2
 4601 0012 3B68     		ldr	r3, [r7]
 4602 0014 5A79     		ldrb	r2, [r3, #5]	@ zero_extendqisi2
 4603 0016 FB79     		ldrb	r3, [r7, #7]	@ zero_extendqisi2
 4604 0018 B3FBF2F1 		udiv	r1, r3, r2
 4605 001c 02FB01F2 		mul	r2, r2, r1
 4606 0020 9B1A     		subs	r3, r3, r2
 4607 0022 DBB2     		uxtb	r3, r3
 4608 0024 002B     		cmp	r3, #0
 4609 0026 01D1     		bne	.L230
 4610              	.L229:
 4611              		.loc 3 1259 0 discriminator 3
 4612 0028 0123     		movs	r3, #1
 4613 002a 00E0     		b	.L231
 4614              	.L230:
 4615              		.loc 3 1259 0 discriminator 4
 4616 002c 0023     		movs	r3, #0
 4617              	.L231:
 4618              		.loc 3 1259 0 discriminator 6
 4619 002e 03F00103 		and	r3, r3, #1
 4620 0032 DBB2     		uxtb	r3, r3
1260:..\..\..\lvgl\version_6.1.2\lvgl\src\lv_objx/lv_chart.c **** }
 4621              		.loc 3 1260 0 is_stmt 1 discriminator 6
 4622 0034 1846     		mov	r0, r3
 4623 0036 0C37     		adds	r7, r7, #12
 4624              		.cfi_def_cfa_offset 4
 4625 0038 BD46     		mov	sp, r7
 4626              		.cfi_def_cfa_register 13
 4627              		@ sp needed
 4628 003a 5DF8047B 		ldr	r7, [sp], #4
 4629              		.cfi_restore 7
 4630              		.cfi_def_cfa_offset 0
 4631 003e 7047     		bx	lr
 4632              		.cfi_endproc
 4633              	.LFE73:
 4634              		.size	lv_chart_is_tick_with_label, .-lv_chart_is_tick_with_label
 4635              		.section	.text.lv_chart_draw_y_ticks,"ax",%progbits
 4636              		.align	2
ARM GAS  C:\Users\tmj32\AppData\Local\Temp\ccrrExWC.s 			page 118


 4637              		.thumb
 4638              		.thumb_func
 4639              		.type	lv_chart_draw_y_ticks, %function
 4640              	lv_chart_draw_y_ticks:
 4641              	.LFB74:
1261:..\..\..\lvgl\version_6.1.2\lvgl\src\lv_objx/lv_chart.c **** 
1262:..\..\..\lvgl\version_6.1.2\lvgl\src\lv_objx/lv_chart.c **** static void lv_chart_draw_y_ticks(lv_obj_t * chart, const lv_area_t * mask, uint8_t which_axis)
1263:..\..\..\lvgl\version_6.1.2\lvgl\src\lv_objx/lv_chart.c **** {
 4642              		.loc 3 1263 0
 4643              		.cfi_startproc
 4644              		@ args = 0, pretend = 0, frame = 120
 4645              		@ frame_needed = 1, uses_anonymous_args = 0
 4646 0000 B0B5     		push	{r4, r5, r7, lr}
 4647              		.cfi_def_cfa_offset 16
 4648              		.cfi_offset 4, -16
 4649              		.cfi_offset 5, -12
 4650              		.cfi_offset 7, -8
 4651              		.cfi_offset 14, -4
 4652 0002 A4B0     		sub	sp, sp, #144
 4653              		.cfi_def_cfa_offset 160
 4654 0004 06AF     		add	r7, sp, #24
 4655              		.cfi_def_cfa 7, 136
 4656 0006 F861     		str	r0, [r7, #28]
 4657 0008 B961     		str	r1, [r7, #24]
 4658 000a 1346     		mov	r3, r2
 4659 000c FB75     		strb	r3, [r7, #23]
1264:..\..\..\lvgl\version_6.1.2\lvgl\src\lv_objx/lv_chart.c ****     lv_chart_ext_t * ext = lv_obj_get_ext_attr(chart);
 4660              		.loc 3 1264 0
 4661 000e F869     		ldr	r0, [r7, #28]
 4662 0010 FFF7FEFF 		bl	lv_obj_get_ext_attr
 4663 0014 F866     		str	r0, [r7, #108]
1265:..\..\..\lvgl\version_6.1.2\lvgl\src\lv_objx/lv_chart.c ****     lv_chart_axis_cfg_t * y_axis = (which_axis == LV_CHART_AXIS_PRIMARY_Y) ?
1266:..\..\..\lvgl\version_6.1.2\lvgl\src\lv_objx/lv_chart.c ****                                             &ext->y_axis : &ext->secondary_y_axis;
 4664              		.loc 3 1266 0
 4665 0016 FB7D     		ldrb	r3, [r7, #23]	@ zero_extendqisi2
 4666 0018 012B     		cmp	r3, #1
 4667 001a 02D1     		bne	.L234
 4668              		.loc 3 1266 0 is_stmt 0 discriminator 1
 4669 001c FB6E     		ldr	r3, [r7, #108]
 4670 001e 1833     		adds	r3, r3, #24
 4671 0020 01E0     		b	.L235
 4672              	.L234:
 4673              		.loc 3 1266 0 discriminator 2
 4674 0022 FB6E     		ldr	r3, [r7, #108]
 4675 0024 2833     		adds	r3, r3, #40
 4676              	.L235:
1265:..\..\..\lvgl\version_6.1.2\lvgl\src\lv_objx/lv_chart.c ****     lv_chart_axis_cfg_t * y_axis = (which_axis == LV_CHART_AXIS_PRIMARY_Y) ?
 4677              		.loc 3 1265 0 is_stmt 1
 4678 0026 BB66     		str	r3, [r7, #104]
1267:..\..\..\lvgl\version_6.1.2\lvgl\src\lv_objx/lv_chart.c **** 
1268:..\..\..\lvgl\version_6.1.2\lvgl\src\lv_objx/lv_chart.c ****     if(y_axis->list_of_values != NULL || y_axis->num_tick_marks != 0) {
 4679              		.loc 3 1268 0
 4680 0028 BB6E     		ldr	r3, [r7, #104]
 4681 002a 1B68     		ldr	r3, [r3]
 4682 002c 002B     		cmp	r3, #0
 4683 002e 04D1     		bne	.L236
 4684              		.loc 3 1268 0 is_stmt 0 discriminator 1
ARM GAS  C:\Users\tmj32\AppData\Local\Temp\ccrrExWC.s 			page 119


 4685 0030 BB6E     		ldr	r3, [r7, #104]
 4686 0032 5B79     		ldrb	r3, [r3, #5]	@ zero_extendqisi2
 4687 0034 002B     		cmp	r3, #0
 4688 0036 00F0E281 		beq	.L263
 4689              	.L236:
 4690              	.LBB16:
1269:..\..\..\lvgl\version_6.1.2\lvgl\src\lv_objx/lv_chart.c **** 
1270:..\..\..\lvgl\version_6.1.2\lvgl\src\lv_objx/lv_chart.c ****         const lv_style_t * style = lv_obj_get_style(chart);
 4691              		.loc 3 1270 0 is_stmt 1
 4692 003a F869     		ldr	r0, [r7, #28]
 4693 003c FFF7FEFF 		bl	lv_obj_get_style
 4694 0040 7866     		str	r0, [r7, #100]
1271:..\..\..\lvgl\version_6.1.2\lvgl\src\lv_objx/lv_chart.c ****         lv_opa_t opa_scale       = lv_obj_get_opa_scale(chart);
 4695              		.loc 3 1271 0
 4696 0042 F869     		ldr	r0, [r7, #28]
 4697 0044 FFF7FEFF 		bl	lv_obj_get_opa_scale
 4698 0048 0346     		mov	r3, r0
 4699 004a 87F86330 		strb	r3, [r7, #99]
1272:..\..\..\lvgl\version_6.1.2\lvgl\src\lv_objx/lv_chart.c **** 
1273:..\..\..\lvgl\version_6.1.2\lvgl\src\lv_objx/lv_chart.c ****         uint8_t i;
1274:..\..\..\lvgl\version_6.1.2\lvgl\src\lv_objx/lv_chart.c ****         uint8_t num_of_labels;
1275:..\..\..\lvgl\version_6.1.2\lvgl\src\lv_objx/lv_chart.c ****         uint8_t num_scale_ticks;
1276:..\..\..\lvgl\version_6.1.2\lvgl\src\lv_objx/lv_chart.c ****         int8_t major_tick_len, minor_tick_len;
1277:..\..\..\lvgl\version_6.1.2\lvgl\src\lv_objx/lv_chart.c ****         uint8_t iter_dir;
1278:..\..\..\lvgl\version_6.1.2\lvgl\src\lv_objx/lv_chart.c **** 
1279:..\..\..\lvgl\version_6.1.2\lvgl\src\lv_objx/lv_chart.c ****         lv_point_t p1;
1280:..\..\..\lvgl\version_6.1.2\lvgl\src\lv_objx/lv_chart.c ****         lv_point_t p2;
1281:..\..\..\lvgl\version_6.1.2\lvgl\src\lv_objx/lv_chart.c ****         lv_coord_t x_ofs;
1282:..\..\..\lvgl\version_6.1.2\lvgl\src\lv_objx/lv_chart.c ****         lv_chart_label_iterator_t iter;
1283:..\..\..\lvgl\version_6.1.2\lvgl\src\lv_objx/lv_chart.c ****         lv_coord_t y_ofs = chart->coords.y1;
 4700              		.loc 3 1283 0
 4701 004e FB69     		ldr	r3, [r7, #28]
 4702 0050 5B8A     		ldrh	r3, [r3, #18]	@ movhi
 4703 0052 A7F86030 		strh	r3, [r7, #96]	@ movhi
1284:..\..\..\lvgl\version_6.1.2\lvgl\src\lv_objx/lv_chart.c ****         lv_coord_t h     = lv_obj_get_height(chart);
 4704              		.loc 3 1284 0
 4705 0056 F869     		ldr	r0, [r7, #28]
 4706 0058 FFF7FEFF 		bl	lv_obj_get_height
 4707 005c 0346     		mov	r3, r0
 4708 005e A7F85E30 		strh	r3, [r7, #94]	@ movhi
1285:..\..\..\lvgl\version_6.1.2\lvgl\src\lv_objx/lv_chart.c ****         lv_coord_t w     = lv_obj_get_width(chart);
 4709              		.loc 3 1285 0
 4710 0062 F869     		ldr	r0, [r7, #28]
 4711 0064 FFF7FEFF 		bl	lv_obj_get_width
 4712 0068 0346     		mov	r3, r0
 4713 006a A7F85C30 		strh	r3, [r7, #92]	@ movhi
1286:..\..\..\lvgl\version_6.1.2\lvgl\src\lv_objx/lv_chart.c ****         char buf[LV_CHART_AXIS_TICK_LABEL_MAX_LEN + 1]; /* up to N symbols per label + null termina
1287:..\..\..\lvgl\version_6.1.2\lvgl\src\lv_objx/lv_chart.c **** 
1288:..\..\..\lvgl\version_6.1.2\lvgl\src\lv_objx/lv_chart.c ****         /* chose correct side of the chart */
1289:..\..\..\lvgl\version_6.1.2\lvgl\src\lv_objx/lv_chart.c ****         if(which_axis == LV_CHART_AXIS_PRIMARY_Y)
 4714              		.loc 3 1289 0
 4715 006e FB7D     		ldrb	r3, [r7, #23]	@ zero_extendqisi2
 4716 0070 012B     		cmp	r3, #1
 4717 0072 04D1     		bne	.L238
1290:..\..\..\lvgl\version_6.1.2\lvgl\src\lv_objx/lv_chart.c ****             x_ofs = chart->coords.x1;
 4718              		.loc 3 1290 0
 4719 0074 FB69     		ldr	r3, [r7, #28]
ARM GAS  C:\Users\tmj32\AppData\Local\Temp\ccrrExWC.s 			page 120


 4720 0076 1B8A     		ldrh	r3, [r3, #16]	@ movhi
 4721 0078 A7F87230 		strh	r3, [r7, #114]	@ movhi
 4722 007c 03E0     		b	.L239
 4723              	.L238:
1291:..\..\..\lvgl\version_6.1.2\lvgl\src\lv_objx/lv_chart.c ****         else
1292:..\..\..\lvgl\version_6.1.2\lvgl\src\lv_objx/lv_chart.c ****             x_ofs = chart->coords.x2;
 4724              		.loc 3 1292 0
 4725 007e FB69     		ldr	r3, [r7, #28]
 4726 0080 9B8A     		ldrh	r3, [r3, #20]	@ movhi
 4727 0082 A7F87230 		strh	r3, [r7, #114]	@ movhi
 4728              	.L239:
1293:..\..\..\lvgl\version_6.1.2\lvgl\src\lv_objx/lv_chart.c **** 
1294:..\..\..\lvgl\version_6.1.2\lvgl\src\lv_objx/lv_chart.c ****         /* calculate the size of tick marks */
1295:..\..\..\lvgl\version_6.1.2\lvgl\src\lv_objx/lv_chart.c ****         if(y_axis->major_tick_len == LV_CHART_TICK_LENGTH_AUTO)
 4729              		.loc 3 1295 0
 4730 0086 BB6E     		ldr	r3, [r7, #104]
 4731 0088 9B79     		ldrb	r3, [r3, #6]	@ zero_extendqisi2
 4732 008a FF2B     		cmp	r3, #255
 4733 008c 0BD1     		bne	.L240
1296:..\..\..\lvgl\version_6.1.2\lvgl\src\lv_objx/lv_chart.c ****             major_tick_len = (int32_t)w * LV_CHART_AXIS_MAJOR_TICK_LEN_COE;
 4734              		.loc 3 1296 0
 4735 008e B7F95C30 		ldrsh	r3, [r7, #92]
 4736 0092 BC4A     		ldr	r2, .L264
 4737 0094 82FB0312 		smull	r1, r2, r2, r3
 4738 0098 1A44     		add	r2, r2, r3
 4739 009a D210     		asrs	r2, r2, #3
 4740 009c DB17     		asrs	r3, r3, #31
 4741 009e D31A     		subs	r3, r2, r3
 4742 00a0 87F87530 		strb	r3, [r7, #117]
 4743 00a4 03E0     		b	.L241
 4744              	.L240:
1297:..\..\..\lvgl\version_6.1.2\lvgl\src\lv_objx/lv_chart.c ****         else
1298:..\..\..\lvgl\version_6.1.2\lvgl\src\lv_objx/lv_chart.c ****             major_tick_len = y_axis->major_tick_len;
 4745              		.loc 3 1298 0
 4746 00a6 BB6E     		ldr	r3, [r7, #104]
 4747 00a8 9B79     		ldrb	r3, [r3, #6]	@ zero_extendqisi2
 4748 00aa 87F87530 		strb	r3, [r7, #117]
 4749              	.L241:
1299:..\..\..\lvgl\version_6.1.2\lvgl\src\lv_objx/lv_chart.c **** 
1300:..\..\..\lvgl\version_6.1.2\lvgl\src\lv_objx/lv_chart.c ****         if(y_axis->minor_tick_len == LV_CHART_TICK_LENGTH_AUTO)
 4750              		.loc 3 1300 0
 4751 00ae BB6E     		ldr	r3, [r7, #104]
 4752 00b0 DB79     		ldrb	r3, [r3, #7]	@ zero_extendqisi2
 4753 00b2 FF2B     		cmp	r3, #255
 4754 00b4 0AD1     		bne	.L242
1301:..\..\..\lvgl\version_6.1.2\lvgl\src\lv_objx/lv_chart.c ****             minor_tick_len = major_tick_len * LV_CHART_AXIS_MINOR_TICK_LEN_COE;
 4755              		.loc 3 1301 0
 4756 00b6 97F97530 		ldrsb	r3, [r7, #117]
 4757 00ba 5B00     		lsls	r3, r3, #1
 4758 00bc B24A     		ldr	r2, .L264+4
 4759 00be 82FB0312 		smull	r1, r2, r2, r3
 4760 00c2 DB17     		asrs	r3, r3, #31
 4761 00c4 D31A     		subs	r3, r2, r3
 4762 00c6 87F87430 		strb	r3, [r7, #116]
 4763 00ca 03E0     		b	.L243
 4764              	.L242:
1302:..\..\..\lvgl\version_6.1.2\lvgl\src\lv_objx/lv_chart.c ****         else
ARM GAS  C:\Users\tmj32\AppData\Local\Temp\ccrrExWC.s 			page 121


1303:..\..\..\lvgl\version_6.1.2\lvgl\src\lv_objx/lv_chart.c ****             minor_tick_len = y_axis->minor_tick_len;
 4765              		.loc 3 1303 0
 4766 00cc BB6E     		ldr	r3, [r7, #104]
 4767 00ce DB79     		ldrb	r3, [r3, #7]	@ zero_extendqisi2
 4768 00d0 87F87430 		strb	r3, [r7, #116]
 4769              	.L243:
1304:..\..\..\lvgl\version_6.1.2\lvgl\src\lv_objx/lv_chart.c **** 
1305:..\..\..\lvgl\version_6.1.2\lvgl\src\lv_objx/lv_chart.c ****         /* tick lines on secondary y axis are drawn in other direction*/
1306:..\..\..\lvgl\version_6.1.2\lvgl\src\lv_objx/lv_chart.c ****         if(which_axis == LV_CHART_AXIS_SECONDARY_Y) {
 4770              		.loc 3 1306 0
 4771 00d4 FB7D     		ldrb	r3, [r7, #23]	@ zero_extendqisi2
 4772 00d6 002B     		cmp	r3, #0
 4773 00d8 0BD1     		bne	.L244
1307:..\..\..\lvgl\version_6.1.2\lvgl\src\lv_objx/lv_chart.c ****             major_tick_len *= -1;
 4774              		.loc 3 1307 0
 4775 00da 97F87530 		ldrb	r3, [r7, #117]	@ zero_extendqisi2
 4776 00de 5B42     		negs	r3, r3
 4777 00e0 DBB2     		uxtb	r3, r3
 4778 00e2 87F87530 		strb	r3, [r7, #117]
1308:..\..\..\lvgl\version_6.1.2\lvgl\src\lv_objx/lv_chart.c ****             minor_tick_len *= -1;
 4779              		.loc 3 1308 0
 4780 00e6 97F87430 		ldrb	r3, [r7, #116]	@ zero_extendqisi2
 4781 00ea 5B42     		negs	r3, r3
 4782 00ec DBB2     		uxtb	r3, r3
 4783 00ee 87F87430 		strb	r3, [r7, #116]
 4784              	.L244:
1309:..\..\..\lvgl\version_6.1.2\lvgl\src\lv_objx/lv_chart.c ****         }
1310:..\..\..\lvgl\version_6.1.2\lvgl\src\lv_objx/lv_chart.c **** 
1311:..\..\..\lvgl\version_6.1.2\lvgl\src\lv_objx/lv_chart.c ****         iter_dir = (y_axis->options & LV_CHART_AXIS_INVERSE_LABELS_ORDER) ? LV_CHART_LABEL_ITERATOR
 4785              		.loc 3 1311 0
 4786 00f2 BB6E     		ldr	r3, [r7, #104]
 4787 00f4 1B79     		ldrb	r3, [r3, #4]	@ zero_extendqisi2
 4788 00f6 03F00203 		and	r3, r3, #2
 4789 00fa 002B     		cmp	r3, #0
 4790 00fc 0CBF     		ite	eq
 4791 00fe 0123     		moveq	r3, #1
 4792 0100 0023     		movne	r3, #0
 4793 0102 DBB2     		uxtb	r3, r3
 4794 0104 87F85B30 		strb	r3, [r7, #91]
1312:..\..\..\lvgl\version_6.1.2\lvgl\src\lv_objx/lv_chart.c ****         iter = lv_chart_create_label_iter(y_axis->list_of_values, iter_dir);
 4795              		.loc 3 1312 0
 4796 0108 BB6E     		ldr	r3, [r7, #104]
 4797 010a 1968     		ldr	r1, [r3]
 4798 010c 3B46     		mov	r3, r7
 4799 010e 97F85B20 		ldrb	r2, [r7, #91]	@ zero_extendqisi2
 4800 0112 1846     		mov	r0, r3
 4801 0114 FFF7FEFF 		bl	lv_chart_create_label_iter
 4802 0118 07F14403 		add	r3, r7, #68
 4803 011c 3A46     		mov	r2, r7
 4804 011e 07CA     		ldmia	r2, {r0, r1, r2}
 4805 0120 83E80700 		stmia	r3, {r0, r1, r2}
1313:..\..\..\lvgl\version_6.1.2\lvgl\src\lv_objx/lv_chart.c **** 
1314:..\..\..\lvgl\version_6.1.2\lvgl\src\lv_objx/lv_chart.c ****         /*determine the number of options */
1315:..\..\..\lvgl\version_6.1.2\lvgl\src\lv_objx/lv_chart.c ****         num_of_labels = iter.items_left;
 4806              		.loc 3 1315 0
 4807 0124 97F84C30 		ldrb	r3, [r7, #76]
 4808 0128 87F85A30 		strb	r3, [r7, #90]
ARM GAS  C:\Users\tmj32\AppData\Local\Temp\ccrrExWC.s 			page 122


1316:..\..\..\lvgl\version_6.1.2\lvgl\src\lv_objx/lv_chart.c **** 
1317:..\..\..\lvgl\version_6.1.2\lvgl\src\lv_objx/lv_chart.c ****         /* we can't have string labels without ticks step, set to 1 if not specified */
1318:..\..\..\lvgl\version_6.1.2\lvgl\src\lv_objx/lv_chart.c ****         if(y_axis->num_tick_marks == 0) y_axis->num_tick_marks = 1;
 4809              		.loc 3 1318 0
 4810 012c BB6E     		ldr	r3, [r7, #104]
 4811 012e 5B79     		ldrb	r3, [r3, #5]	@ zero_extendqisi2
 4812 0130 002B     		cmp	r3, #0
 4813 0132 02D1     		bne	.L245
 4814              		.loc 3 1318 0 is_stmt 0 discriminator 1
 4815 0134 BB6E     		ldr	r3, [r7, #104]
 4816 0136 0122     		movs	r2, #1
 4817 0138 5A71     		strb	r2, [r3, #5]
 4818              	.L245:
1319:..\..\..\lvgl\version_6.1.2\lvgl\src\lv_objx/lv_chart.c **** 
1320:..\..\..\lvgl\version_6.1.2\lvgl\src\lv_objx/lv_chart.c ****         /* calculate total number of ticks */
1321:..\..\..\lvgl\version_6.1.2\lvgl\src\lv_objx/lv_chart.c ****         if(num_of_labels < 2)
 4819              		.loc 3 1321 0 is_stmt 1
 4820 013a 97F85A30 		ldrb	r3, [r7, #90]	@ zero_extendqisi2
 4821 013e 012B     		cmp	r3, #1
 4822 0140 04D8     		bhi	.L246
1322:..\..\..\lvgl\version_6.1.2\lvgl\src\lv_objx/lv_chart.c ****             num_scale_ticks = y_axis->num_tick_marks;
 4823              		.loc 3 1322 0
 4824 0142 BB6E     		ldr	r3, [r7, #104]
 4825 0144 5B79     		ldrb	r3, [r3, #5]
 4826 0146 87F87630 		strb	r3, [r7, #118]
 4827 014a 09E0     		b	.L247
 4828              	.L246:
1323:..\..\..\lvgl\version_6.1.2\lvgl\src\lv_objx/lv_chart.c ****         else
1324:..\..\..\lvgl\version_6.1.2\lvgl\src\lv_objx/lv_chart.c ****             num_scale_ticks = (y_axis->num_tick_marks * (num_of_labels - 1));
 4829              		.loc 3 1324 0
 4830 014c BB6E     		ldr	r3, [r7, #104]
 4831 014e 5A79     		ldrb	r2, [r3, #5]	@ zero_extendqisi2
 4832 0150 97F85A30 		ldrb	r3, [r7, #90]	@ zero_extendqisi2
 4833 0154 013B     		subs	r3, r3, #1
 4834 0156 DBB2     		uxtb	r3, r3
 4835 0158 12FB03F3 		smulbb	r3, r2, r3
 4836 015c 87F87630 		strb	r3, [r7, #118]
 4837              	.L247:
1325:..\..\..\lvgl\version_6.1.2\lvgl\src\lv_objx/lv_chart.c **** 
1326:..\..\..\lvgl\version_6.1.2\lvgl\src\lv_objx/lv_chart.c ****         for(i = 0; i < (num_scale_ticks + 1); i++) { /* one extra loop - it may not exist in the li
 4838              		.loc 3 1326 0
 4839 0160 0023     		movs	r3, #0
 4840 0162 87F87730 		strb	r3, [r7, #119]
 4841 0166 42E1     		b	.L248
 4842              	.L262:
1327:..\..\..\lvgl\version_6.1.2\lvgl\src\lv_objx/lv_chart.c ****                                                      /* first point of the tick */
1328:..\..\..\lvgl\version_6.1.2\lvgl\src\lv_objx/lv_chart.c ****             p1.x = x_ofs;
 4843              		.loc 3 1328 0
 4844 0168 B7F87230 		ldrh	r3, [r7, #114]	@ movhi
 4845 016c A7F85430 		strh	r3, [r7, #84]	@ movhi
1329:..\..\..\lvgl\version_6.1.2\lvgl\src\lv_objx/lv_chart.c **** 
1330:..\..\..\lvgl\version_6.1.2\lvgl\src\lv_objx/lv_chart.c ****             /* move extra pixel out of chart boundary */
1331:..\..\..\lvgl\version_6.1.2\lvgl\src\lv_objx/lv_chart.c ****             if (which_axis == LV_CHART_AXIS_PRIMARY_Y)
 4846              		.loc 3 1331 0
 4847 0170 FB7D     		ldrb	r3, [r7, #23]	@ zero_extendqisi2
 4848 0172 012B     		cmp	r3, #1
 4849 0174 08D1     		bne	.L249
ARM GAS  C:\Users\tmj32\AppData\Local\Temp\ccrrExWC.s 			page 123


1332:..\..\..\lvgl\version_6.1.2\lvgl\src\lv_objx/lv_chart.c ****                 p1.x--;
 4850              		.loc 3 1332 0
 4851 0176 B7F95430 		ldrsh	r3, [r7, #84]
 4852 017a 9BB2     		uxth	r3, r3
 4853 017c 013B     		subs	r3, r3, #1
 4854 017e 9BB2     		uxth	r3, r3
 4855 0180 1BB2     		sxth	r3, r3
 4856 0182 A7F85430 		strh	r3, [r7, #84]	@ movhi
 4857 0186 07E0     		b	.L250
 4858              	.L249:
1333:..\..\..\lvgl\version_6.1.2\lvgl\src\lv_objx/lv_chart.c ****             else
1334:..\..\..\lvgl\version_6.1.2\lvgl\src\lv_objx/lv_chart.c ****                 p1.x++;
 4859              		.loc 3 1334 0
 4860 0188 B7F95430 		ldrsh	r3, [r7, #84]
 4861 018c 9BB2     		uxth	r3, r3
 4862 018e 0133     		adds	r3, r3, #1
 4863 0190 9BB2     		uxth	r3, r3
 4864 0192 1BB2     		sxth	r3, r3
 4865 0194 A7F85430 		strh	r3, [r7, #84]	@ movhi
 4866              	.L250:
1335:..\..\..\lvgl\version_6.1.2\lvgl\src\lv_objx/lv_chart.c **** 
1336:..\..\..\lvgl\version_6.1.2\lvgl\src\lv_objx/lv_chart.c ****             /* second point of the tick */
1337:..\..\..\lvgl\version_6.1.2\lvgl\src\lv_objx/lv_chart.c ****             if((num_of_labels != 0) && (i == 0 || i % y_axis->num_tick_marks == 0))
 4867              		.loc 3 1337 0
 4868 0198 97F85A30 		ldrb	r3, [r7, #90]	@ zero_extendqisi2
 4869 019c 002B     		cmp	r3, #0
 4870 019e 1BD0     		beq	.L251
 4871              		.loc 3 1337 0 is_stmt 0 discriminator 1
 4872 01a0 97F87730 		ldrb	r3, [r7, #119]	@ zero_extendqisi2
 4873 01a4 002B     		cmp	r3, #0
 4874 01a6 0BD0     		beq	.L252
 4875              		.loc 3 1337 0 discriminator 2
 4876 01a8 BB6E     		ldr	r3, [r7, #104]
 4877 01aa 5A79     		ldrb	r2, [r3, #5]	@ zero_extendqisi2
 4878 01ac 97F87730 		ldrb	r3, [r7, #119]	@ zero_extendqisi2
 4879 01b0 B3FBF2F1 		udiv	r1, r3, r2
 4880 01b4 02FB01F2 		mul	r2, r2, r1
 4881 01b8 9B1A     		subs	r3, r3, r2
 4882 01ba DBB2     		uxtb	r3, r3
 4883 01bc 002B     		cmp	r3, #0
 4884 01be 0BD1     		bne	.L251
 4885              	.L252:
1338:..\..\..\lvgl\version_6.1.2\lvgl\src\lv_objx/lv_chart.c ****                 p2.x = p1.x - major_tick_len; /* major tick */
 4886              		.loc 3 1338 0 is_stmt 1
 4887 01c0 B7F95430 		ldrsh	r3, [r7, #84]
 4888 01c4 9AB2     		uxth	r2, r3
 4889 01c6 97F97530 		ldrsb	r3, [r7, #117]
 4890 01ca 9BB2     		uxth	r3, r3
 4891 01cc D31A     		subs	r3, r2, r3
 4892 01ce 9BB2     		uxth	r3, r3
 4893 01d0 1BB2     		sxth	r3, r3
 4894 01d2 A7F85030 		strh	r3, [r7, #80]	@ movhi
 4895 01d6 0AE0     		b	.L253
 4896              	.L251:
1339:..\..\..\lvgl\version_6.1.2\lvgl\src\lv_objx/lv_chart.c ****             else
1340:..\..\..\lvgl\version_6.1.2\lvgl\src\lv_objx/lv_chart.c ****                 p2.x = p1.x - minor_tick_len; /* minor tick */
 4897              		.loc 3 1340 0
ARM GAS  C:\Users\tmj32\AppData\Local\Temp\ccrrExWC.s 			page 124


 4898 01d8 B7F95430 		ldrsh	r3, [r7, #84]
 4899 01dc 9AB2     		uxth	r2, r3
 4900 01de 97F97430 		ldrsb	r3, [r7, #116]
 4901 01e2 9BB2     		uxth	r3, r3
 4902 01e4 D31A     		subs	r3, r2, r3
 4903 01e6 9BB2     		uxth	r3, r3
 4904 01e8 1BB2     		sxth	r3, r3
 4905 01ea A7F85030 		strh	r3, [r7, #80]	@ movhi
 4906              	.L253:
1341:..\..\..\lvgl\version_6.1.2\lvgl\src\lv_objx/lv_chart.c **** 
1342:..\..\..\lvgl\version_6.1.2\lvgl\src\lv_objx/lv_chart.c ****             /* draw a line at moving y position */
1343:..\..\..\lvgl\version_6.1.2\lvgl\src\lv_objx/lv_chart.c ****             p2.y = p1.y =
1344:..\..\..\lvgl\version_6.1.2\lvgl\src\lv_objx/lv_chart.c ****                 y_ofs + (int32_t)((int32_t)(h - style->line.width) * i) / num_scale_ticks;
 4907              		.loc 3 1344 0
 4908 01ee B7F95E30 		ldrsh	r3, [r7, #94]
 4909 01f2 7A6E     		ldr	r2, [r7, #100]
 4910 01f4 B2F94C20 		ldrsh	r2, [r2, #76]
 4911 01f8 9B1A     		subs	r3, r3, r2
 4912 01fa 97F87720 		ldrb	r2, [r7, #119]	@ zero_extendqisi2
 4913 01fe 02FB03F2 		mul	r2, r2, r3
 4914 0202 97F87630 		ldrb	r3, [r7, #118]	@ zero_extendqisi2
 4915 0206 92FBF3F3 		sdiv	r3, r2, r3
1343:..\..\..\lvgl\version_6.1.2\lvgl\src\lv_objx/lv_chart.c ****                 y_ofs + (int32_t)((int32_t)(h - style->line.width) * i) / num_scale_ticks;
 4916              		.loc 3 1343 0
 4917 020a 9AB2     		uxth	r2, r3
 4918 020c B7F86030 		ldrh	r3, [r7, #96]
 4919 0210 1344     		add	r3, r3, r2
 4920 0212 9BB2     		uxth	r3, r3
 4921 0214 1BB2     		sxth	r3, r3
 4922 0216 A7F85630 		strh	r3, [r7, #86]	@ movhi
 4923 021a B7F95630 		ldrsh	r3, [r7, #86]
 4924 021e A7F85230 		strh	r3, [r7, #82]	@ movhi
1345:..\..\..\lvgl\version_6.1.2\lvgl\src\lv_objx/lv_chart.c **** 
1346:..\..\..\lvgl\version_6.1.2\lvgl\src\lv_objx/lv_chart.c ****             if(y_axis->options & LV_CHART_AXIS_INVERSE_LABELS_ORDER) {
 4925              		.loc 3 1346 0
 4926 0222 BB6E     		ldr	r3, [r7, #104]
 4927 0224 1B79     		ldrb	r3, [r3, #4]	@ zero_extendqisi2
 4928 0226 03F00203 		and	r3, r3, #2
 4929 022a 002B     		cmp	r3, #0
 4930 022c 21D0     		beq	.L254
1347:..\..\..\lvgl\version_6.1.2\lvgl\src\lv_objx/lv_chart.c ****                 /*if label order is inversed last tick have number 0*/
1348:..\..\..\lvgl\version_6.1.2\lvgl\src\lv_objx/lv_chart.c ****                 if(i != 0)
 4931              		.loc 3 1348 0
 4932 022e 97F87730 		ldrb	r3, [r7, #119]	@ zero_extendqisi2
 4933 0232 002B     		cmp	r3, #0
 4934 0234 0BD0     		beq	.L255
1349:..\..\..\lvgl\version_6.1.2\lvgl\src\lv_objx/lv_chart.c ****                     lv_draw_line(&p1, &p2, mask, style, opa_scale);
 4935              		.loc 3 1349 0
 4936 0236 07F15001 		add	r1, r7, #80
 4937 023a 07F15400 		add	r0, r7, #84
 4938 023e 97F86330 		ldrb	r3, [r7, #99]	@ zero_extendqisi2
 4939 0242 0093     		str	r3, [sp]
 4940 0244 7B6E     		ldr	r3, [r7, #100]
 4941 0246 BA69     		ldr	r2, [r7, #24]
 4942 0248 FFF7FEFF 		bl	lv_draw_line
 4943 024c 34E0     		b	.L257
 4944              	.L255:
ARM GAS  C:\Users\tmj32\AppData\Local\Temp\ccrrExWC.s 			page 125


1350:..\..\..\lvgl\version_6.1.2\lvgl\src\lv_objx/lv_chart.c ****                 else if((y_axis->options & LV_CHART_AXIS_DRAW_LAST_TICK) != 0)
 4945              		.loc 3 1350 0
 4946 024e BB6E     		ldr	r3, [r7, #104]
 4947 0250 1B79     		ldrb	r3, [r3, #4]	@ zero_extendqisi2
 4948 0252 03F00103 		and	r3, r3, #1
 4949 0256 002B     		cmp	r3, #0
 4950 0258 2ED0     		beq	.L257
1351:..\..\..\lvgl\version_6.1.2\lvgl\src\lv_objx/lv_chart.c ****                     lv_draw_line(&p1, &p2, mask, style, opa_scale);
 4951              		.loc 3 1351 0
 4952 025a 07F15001 		add	r1, r7, #80
 4953 025e 07F15400 		add	r0, r7, #84
 4954 0262 97F86330 		ldrb	r3, [r7, #99]	@ zero_extendqisi2
 4955 0266 0093     		str	r3, [sp]
 4956 0268 7B6E     		ldr	r3, [r7, #100]
 4957 026a BA69     		ldr	r2, [r7, #24]
 4958 026c FFF7FEFF 		bl	lv_draw_line
 4959 0270 22E0     		b	.L257
 4960              	.L254:
1352:..\..\..\lvgl\version_6.1.2\lvgl\src\lv_objx/lv_chart.c ****             } else {
1353:..\..\..\lvgl\version_6.1.2\lvgl\src\lv_objx/lv_chart.c ****                 if(i != num_scale_ticks)
 4961              		.loc 3 1353 0
 4962 0272 97F87720 		ldrb	r2, [r7, #119]	@ zero_extendqisi2
 4963 0276 97F87630 		ldrb	r3, [r7, #118]	@ zero_extendqisi2
 4964 027a 9A42     		cmp	r2, r3
 4965 027c 0BD0     		beq	.L258
1354:..\..\..\lvgl\version_6.1.2\lvgl\src\lv_objx/lv_chart.c ****                     lv_draw_line(&p1, &p2, mask, style, opa_scale);
 4966              		.loc 3 1354 0
 4967 027e 07F15001 		add	r1, r7, #80
 4968 0282 07F15400 		add	r0, r7, #84
 4969 0286 97F86330 		ldrb	r3, [r7, #99]	@ zero_extendqisi2
 4970 028a 0093     		str	r3, [sp]
 4971 028c 7B6E     		ldr	r3, [r7, #100]
 4972 028e BA69     		ldr	r2, [r7, #24]
 4973 0290 FFF7FEFF 		bl	lv_draw_line
 4974 0294 10E0     		b	.L257
 4975              	.L258:
1355:..\..\..\lvgl\version_6.1.2\lvgl\src\lv_objx/lv_chart.c ****                 else if((y_axis->options & LV_CHART_AXIS_DRAW_LAST_TICK) != 0)
 4976              		.loc 3 1355 0
 4977 0296 BB6E     		ldr	r3, [r7, #104]
 4978 0298 1B79     		ldrb	r3, [r3, #4]	@ zero_extendqisi2
 4979 029a 03F00103 		and	r3, r3, #1
 4980 029e 002B     		cmp	r3, #0
 4981 02a0 0AD0     		beq	.L257
1356:..\..\..\lvgl\version_6.1.2\lvgl\src\lv_objx/lv_chart.c ****                     lv_draw_line(&p1, &p2, mask, style, opa_scale);
 4982              		.loc 3 1356 0
 4983 02a2 07F15001 		add	r1, r7, #80
 4984 02a6 07F15400 		add	r0, r7, #84
 4985 02aa 97F86330 		ldrb	r3, [r7, #99]	@ zero_extendqisi2
 4986 02ae 0093     		str	r3, [sp]
 4987 02b0 7B6E     		ldr	r3, [r7, #100]
 4988 02b2 BA69     		ldr	r2, [r7, #24]
 4989 02b4 FFF7FEFF 		bl	lv_draw_line
 4990              	.L257:
1357:..\..\..\lvgl\version_6.1.2\lvgl\src\lv_objx/lv_chart.c ****             }
1358:..\..\..\lvgl\version_6.1.2\lvgl\src\lv_objx/lv_chart.c **** 
1359:..\..\..\lvgl\version_6.1.2\lvgl\src\lv_objx/lv_chart.c ****             /* draw values if available */
1360:..\..\..\lvgl\version_6.1.2\lvgl\src\lv_objx/lv_chart.c ****             if(num_of_labels != 0) {
ARM GAS  C:\Users\tmj32\AppData\Local\Temp\ccrrExWC.s 			page 126


 4991              		.loc 3 1360 0
 4992 02b8 97F85A30 		ldrb	r3, [r7, #90]	@ zero_extendqisi2
 4993 02bc 002B     		cmp	r3, #0
 4994 02be 00F09180 		beq	.L259
1361:..\..\..\lvgl\version_6.1.2\lvgl\src\lv_objx/lv_chart.c ****                 /* add text only to major tick */
1362:..\..\..\lvgl\version_6.1.2\lvgl\src\lv_objx/lv_chart.c ****                 if(lv_chart_is_tick_with_label(i, y_axis)) {
 4995              		.loc 3 1362 0
 4996 02c2 97F87730 		ldrb	r3, [r7, #119]	@ zero_extendqisi2
 4997 02c6 B96E     		ldr	r1, [r7, #104]
 4998 02c8 1846     		mov	r0, r3
 4999 02ca FFF7FEFF 		bl	lv_chart_is_tick_with_label
 5000 02ce 0346     		mov	r3, r0
 5001 02d0 002B     		cmp	r3, #0
 5002 02d2 00F08780 		beq	.L259
 5003              	.LBB17:
1363:..\..\..\lvgl\version_6.1.2\lvgl\src\lv_objx/lv_chart.c **** 
1364:..\..\..\lvgl\version_6.1.2\lvgl\src\lv_objx/lv_chart.c ****                     lv_chart_get_next_label(&iter, buf);
 5004              		.loc 3 1364 0
 5005 02d6 07F12C02 		add	r2, r7, #44
 5006 02da 07F14403 		add	r3, r7, #68
 5007 02de 1146     		mov	r1, r2
 5008 02e0 1846     		mov	r0, r3
 5009 02e2 FFF7FEFF 		bl	lv_chart_get_next_label
1365:..\..\..\lvgl\version_6.1.2\lvgl\src\lv_objx/lv_chart.c **** 
1366:..\..\..\lvgl\version_6.1.2\lvgl\src\lv_objx/lv_chart.c ****                     /* reserve appropriate area */
1367:..\..\..\lvgl\version_6.1.2\lvgl\src\lv_objx/lv_chart.c ****                     lv_point_t size;
1368:..\..\..\lvgl\version_6.1.2\lvgl\src\lv_objx/lv_chart.c ****                     lv_txt_get_size(&size, buf, style->text.font, style->text.letter_space, style->
 5010              		.loc 3 1368 0
 5011 02e6 7B6E     		ldr	r3, [r7, #100]
 5012 02e8 5C6B     		ldr	r4, [r3, #52]
 5013 02ea 7B6E     		ldr	r3, [r7, #100]
 5014 02ec B3F93850 		ldrsh	r5, [r3, #56]
 5015 02f0 7B6E     		ldr	r3, [r7, #100]
 5016 02f2 B3F93A30 		ldrsh	r3, [r3, #58]
 5017 02f6 07F12C01 		add	r1, r7, #44
 5018 02fa 07F12800 		add	r0, r7, #40
 5019 02fe 0422     		movs	r2, #4
 5020 0300 0292     		str	r2, [sp, #8]
 5021 0302 47F61842 		movw	r2, #31768
 5022 0306 0192     		str	r2, [sp, #4]
 5023 0308 0093     		str	r3, [sp]
 5024 030a 2B46     		mov	r3, r5
 5025 030c 2246     		mov	r2, r4
 5026 030e FFF7FEFF 		bl	lv_txt_get_size
1369:..\..\..\lvgl\version_6.1.2\lvgl\src\lv_objx/lv_chart.c ****                                     LV_COORD_MAX, LV_TXT_FLAG_CENTER);
1370:..\..\..\lvgl\version_6.1.2\lvgl\src\lv_objx/lv_chart.c **** 
1371:..\..\..\lvgl\version_6.1.2\lvgl\src\lv_objx/lv_chart.c ****                     /* set the area at some distance of the major tick len left of the tick */
1372:..\..\..\lvgl\version_6.1.2\lvgl\src\lv_objx/lv_chart.c ****                     lv_area_t a = {.y1 = p2.y - size.y / 2, .y2 = p2.y + size.y / 2};
 5027              		.loc 3 1372 0
 5028 0312 07F12003 		add	r3, r7, #32
 5029 0316 0022     		movs	r2, #0
 5030 0318 1A60     		str	r2, [r3]
 5031 031a 5A60     		str	r2, [r3, #4]
 5032 031c B7F95230 		ldrsh	r3, [r7, #82]
 5033 0320 9AB2     		uxth	r2, r3
 5034 0322 B7F92A30 		ldrsh	r3, [r7, #42]
 5035 0326 D90F     		lsrs	r1, r3, #31
ARM GAS  C:\Users\tmj32\AppData\Local\Temp\ccrrExWC.s 			page 127


 5036 0328 0B44     		add	r3, r3, r1
 5037 032a 5B10     		asrs	r3, r3, #1
 5038 032c 1BB2     		sxth	r3, r3
 5039 032e 9BB2     		uxth	r3, r3
 5040 0330 D31A     		subs	r3, r2, r3
 5041 0332 9BB2     		uxth	r3, r3
 5042 0334 1BB2     		sxth	r3, r3
 5043 0336 7B84     		strh	r3, [r7, #34]	@ movhi
 5044 0338 B7F95230 		ldrsh	r3, [r7, #82]
 5045 033c 9AB2     		uxth	r2, r3
 5046 033e B7F92A30 		ldrsh	r3, [r7, #42]
 5047 0342 D90F     		lsrs	r1, r3, #31
 5048 0344 0B44     		add	r3, r3, r1
 5049 0346 5B10     		asrs	r3, r3, #1
 5050 0348 1BB2     		sxth	r3, r3
 5051 034a 9BB2     		uxth	r3, r3
 5052 034c 1344     		add	r3, r3, r2
 5053 034e 9BB2     		uxth	r3, r3
 5054 0350 1BB2     		sxth	r3, r3
 5055 0352 FB84     		strh	r3, [r7, #38]	@ movhi
1373:..\..\..\lvgl\version_6.1.2\lvgl\src\lv_objx/lv_chart.c **** 
1374:..\..\..\lvgl\version_6.1.2\lvgl\src\lv_objx/lv_chart.c ****                     if(which_axis == LV_CHART_AXIS_PRIMARY_Y) {
 5056              		.loc 3 1374 0
 5057 0354 FB7D     		ldrb	r3, [r7, #23]	@ zero_extendqisi2
 5058 0356 012B     		cmp	r3, #1
 5059 0358 18D1     		bne	.L260
1375:..\..\..\lvgl\version_6.1.2\lvgl\src\lv_objx/lv_chart.c ****                         a.x1 = p2.x - size.x - LV_CHART_AXIS_TO_LABEL_DISTANCE;
 5060              		.loc 3 1375 0
 5061 035a B7F95030 		ldrsh	r3, [r7, #80]
 5062 035e 9AB2     		uxth	r2, r3
 5063 0360 B7F92830 		ldrsh	r3, [r7, #40]
 5064 0364 9BB2     		uxth	r3, r3
 5065 0366 D31A     		subs	r3, r2, r3
 5066 0368 9BB2     		uxth	r3, r3
 5067 036a 043B     		subs	r3, r3, #4
 5068 036c 9BB2     		uxth	r3, r3
 5069 036e 1BB2     		sxth	r3, r3
 5070 0370 3B84     		strh	r3, [r7, #32]	@ movhi
1376:..\..\..\lvgl\version_6.1.2\lvgl\src\lv_objx/lv_chart.c ****                         a.x2 = p2.x - LV_CHART_AXIS_TO_LABEL_DISTANCE;
 5071              		.loc 3 1376 0
 5072 0372 B7F95030 		ldrsh	r3, [r7, #80]
 5073 0376 9BB2     		uxth	r3, r3
 5074 0378 043B     		subs	r3, r3, #4
 5075 037a 9BB2     		uxth	r3, r3
 5076 037c 1BB2     		sxth	r3, r3
 5077 037e BB84     		strh	r3, [r7, #36]	@ movhi
 5078 0380 17E0     		b	.L261
 5079              	.L265:
 5080 0382 00BF     		.align	2
 5081              	.L264:
 5082 0384 89888888 		.word	-2004318071
 5083 0388 56555555 		.word	1431655766
 5084              	.L260:
1377:..\..\..\lvgl\version_6.1.2\lvgl\src\lv_objx/lv_chart.c ****                     } else {
1378:..\..\..\lvgl\version_6.1.2\lvgl\src\lv_objx/lv_chart.c ****                         a.x1 = p2.x + LV_CHART_AXIS_TO_LABEL_DISTANCE;
 5085              		.loc 3 1378 0
 5086 038c B7F95030 		ldrsh	r3, [r7, #80]
ARM GAS  C:\Users\tmj32\AppData\Local\Temp\ccrrExWC.s 			page 128


 5087 0390 9BB2     		uxth	r3, r3
 5088 0392 0433     		adds	r3, r3, #4
 5089 0394 9BB2     		uxth	r3, r3
 5090 0396 1BB2     		sxth	r3, r3
 5091 0398 3B84     		strh	r3, [r7, #32]	@ movhi
1379:..\..\..\lvgl\version_6.1.2\lvgl\src\lv_objx/lv_chart.c ****                         a.x2 = p2.x + size.x + LV_CHART_AXIS_TO_LABEL_DISTANCE;
 5092              		.loc 3 1379 0
 5093 039a B7F95030 		ldrsh	r3, [r7, #80]
 5094 039e 9AB2     		uxth	r2, r3
 5095 03a0 B7F92830 		ldrsh	r3, [r7, #40]
 5096 03a4 9BB2     		uxth	r3, r3
 5097 03a6 1344     		add	r3, r3, r2
 5098 03a8 9BB2     		uxth	r3, r3
 5099 03aa 0433     		adds	r3, r3, #4
 5100 03ac 9BB2     		uxth	r3, r3
 5101 03ae 1BB2     		sxth	r3, r3
 5102 03b0 BB84     		strh	r3, [r7, #36]	@ movhi
 5103              	.L261:
1380:..\..\..\lvgl\version_6.1.2\lvgl\src\lv_objx/lv_chart.c ****                     }
1381:..\..\..\lvgl\version_6.1.2\lvgl\src\lv_objx/lv_chart.c **** 
1382:..\..\..\lvgl\version_6.1.2\lvgl\src\lv_objx/lv_chart.c ****                     lv_draw_label(&a, mask, style, opa_scale, buf, LV_TXT_FLAG_CENTER, NULL, NULL, 
 5104              		.loc 3 1382 0
 5105 03b2 F869     		ldr	r0, [r7, #28]
 5106 03b4 FFF7FEFF 		bl	lv_obj_get_base_dir
 5107 03b8 0346     		mov	r3, r0
 5108 03ba 97F86320 		ldrb	r2, [r7, #99]	@ zero_extendqisi2
 5109 03be 07F12000 		add	r0, r7, #32
 5110 03c2 0593     		str	r3, [sp, #20]
 5111 03c4 0023     		movs	r3, #0
 5112 03c6 0493     		str	r3, [sp, #16]
 5113 03c8 0023     		movs	r3, #0
 5114 03ca 0393     		str	r3, [sp, #12]
 5115 03cc 0023     		movs	r3, #0
 5116 03ce 0293     		str	r3, [sp, #8]
 5117 03d0 0423     		movs	r3, #4
 5118 03d2 0193     		str	r3, [sp, #4]
 5119 03d4 07F12C03 		add	r3, r7, #44
 5120 03d8 0093     		str	r3, [sp]
 5121 03da 1346     		mov	r3, r2
 5122 03dc 7A6E     		ldr	r2, [r7, #100]
 5123 03de B969     		ldr	r1, [r7, #24]
 5124 03e0 FFF7FEFF 		bl	lv_draw_label
 5125              	.L259:
 5126              	.LBE17:
1326:..\..\..\lvgl\version_6.1.2\lvgl\src\lv_objx/lv_chart.c ****                                                      /* first point of the tick */
 5127              		.loc 3 1326 0 discriminator 2
 5128 03e4 97F87730 		ldrb	r3, [r7, #119]	@ zero_extendqisi2
 5129 03e8 0133     		adds	r3, r3, #1
 5130 03ea 87F87730 		strb	r3, [r7, #119]
 5131              	.L248:
1326:..\..\..\lvgl\version_6.1.2\lvgl\src\lv_objx/lv_chart.c ****                                                      /* first point of the tick */
 5132              		.loc 3 1326 0 is_stmt 0 discriminator 1
 5133 03ee 97F87720 		ldrb	r2, [r7, #119]	@ zero_extendqisi2
 5134 03f2 97F87630 		ldrb	r3, [r7, #118]	@ zero_extendqisi2
 5135 03f6 0133     		adds	r3, r3, #1
 5136 03f8 9A42     		cmp	r2, r3
 5137 03fa FFF6B5AE 		blt	.L262
ARM GAS  C:\Users\tmj32\AppData\Local\Temp\ccrrExWC.s 			page 129


 5138              	.L263:
 5139              	.LBE16:
1383:..\..\..\lvgl\version_6.1.2\lvgl\src\lv_objx/lv_chart.c ****                 }
1384:..\..\..\lvgl\version_6.1.2\lvgl\src\lv_objx/lv_chart.c ****             }
1385:..\..\..\lvgl\version_6.1.2\lvgl\src\lv_objx/lv_chart.c **** 
1386:..\..\..\lvgl\version_6.1.2\lvgl\src\lv_objx/lv_chart.c ****         }
1387:..\..\..\lvgl\version_6.1.2\lvgl\src\lv_objx/lv_chart.c ****     }
1388:..\..\..\lvgl\version_6.1.2\lvgl\src\lv_objx/lv_chart.c **** }
 5140              		.loc 3 1388 0 is_stmt 1
 5141 03fe 00BF     		nop
 5142 0400 7837     		adds	r7, r7, #120
 5143              		.cfi_def_cfa_offset 16
 5144 0402 BD46     		mov	sp, r7
 5145              		.cfi_def_cfa_register 13
 5146              		@ sp needed
 5147 0404 B0BD     		pop	{r4, r5, r7, pc}
 5148              		.cfi_endproc
 5149              	.LFE74:
 5150              		.size	lv_chart_draw_y_ticks, .-lv_chart_draw_y_ticks
 5151 0406 00BF     		.section	.text.lv_chart_draw_x_ticks,"ax",%progbits
 5152              		.align	2
 5153              		.thumb
 5154              		.thumb_func
 5155              		.type	lv_chart_draw_x_ticks, %function
 5156              	lv_chart_draw_x_ticks:
 5157              	.LFB75:
1389:..\..\..\lvgl\version_6.1.2\lvgl\src\lv_objx/lv_chart.c **** 
1390:..\..\..\lvgl\version_6.1.2\lvgl\src\lv_objx/lv_chart.c **** static void lv_chart_draw_x_ticks(lv_obj_t * chart, const lv_area_t * mask)
1391:..\..\..\lvgl\version_6.1.2\lvgl\src\lv_objx/lv_chart.c **** {
 5158              		.loc 3 1391 0
 5159              		.cfi_startproc
 5160              		@ args = 0, pretend = 0, frame = 104
 5161              		@ frame_needed = 1, uses_anonymous_args = 0
 5162 0000 B0B5     		push	{r4, r5, r7, lr}
 5163              		.cfi_def_cfa_offset 16
 5164              		.cfi_offset 4, -16
 5165              		.cfi_offset 5, -12
 5166              		.cfi_offset 7, -8
 5167              		.cfi_offset 14, -4
 5168 0002 A0B0     		sub	sp, sp, #128
 5169              		.cfi_def_cfa_offset 144
 5170 0004 06AF     		add	r7, sp, #24
 5171              		.cfi_def_cfa 7, 120
 5172 0006 7861     		str	r0, [r7, #20]
 5173 0008 3961     		str	r1, [r7, #16]
1392:..\..\..\lvgl\version_6.1.2\lvgl\src\lv_objx/lv_chart.c ****     lv_chart_ext_t * ext = lv_obj_get_ext_attr(chart);
 5174              		.loc 3 1392 0
 5175 000a 7869     		ldr	r0, [r7, #20]
 5176 000c FFF7FEFF 		bl	lv_obj_get_ext_attr
 5177 0010 3866     		str	r0, [r7, #96]
1393:..\..\..\lvgl\version_6.1.2\lvgl\src\lv_objx/lv_chart.c **** 
1394:..\..\..\lvgl\version_6.1.2\lvgl\src\lv_objx/lv_chart.c ****     if(ext->x_axis.list_of_values != NULL || ext->x_axis.num_tick_marks != 0) {
 5178              		.loc 3 1394 0
 5179 0012 3B6E     		ldr	r3, [r7, #96]
 5180 0014 1B6A     		ldr	r3, [r3, #32]
 5181 0016 002B     		cmp	r3, #0
 5182 0018 05D1     		bne	.L267
ARM GAS  C:\Users\tmj32\AppData\Local\Temp\ccrrExWC.s 			page 130


 5183              		.loc 3 1394 0 is_stmt 0 discriminator 1
 5184 001a 3B6E     		ldr	r3, [r7, #96]
 5185 001c 93F82530 		ldrb	r3, [r3, #37]	@ zero_extendqisi2
 5186 0020 002B     		cmp	r3, #0
 5187 0022 00F06F81 		beq	.L284
 5188              	.L267:
 5189              	.LBB18:
1395:..\..\..\lvgl\version_6.1.2\lvgl\src\lv_objx/lv_chart.c **** 
1396:..\..\..\lvgl\version_6.1.2\lvgl\src\lv_objx/lv_chart.c ****         const lv_style_t * style = lv_obj_get_style(chart);
 5190              		.loc 3 1396 0 is_stmt 1
 5191 0026 7869     		ldr	r0, [r7, #20]
 5192 0028 FFF7FEFF 		bl	lv_obj_get_style
 5193 002c F865     		str	r0, [r7, #92]
1397:..\..\..\lvgl\version_6.1.2\lvgl\src\lv_objx/lv_chart.c ****         lv_opa_t opa_scale       = lv_obj_get_opa_scale(chart);
 5194              		.loc 3 1397 0
 5195 002e 7869     		ldr	r0, [r7, #20]
 5196 0030 FFF7FEFF 		bl	lv_obj_get_opa_scale
 5197 0034 0346     		mov	r3, r0
 5198 0036 87F85B30 		strb	r3, [r7, #91]
1398:..\..\..\lvgl\version_6.1.2\lvgl\src\lv_objx/lv_chart.c **** 
1399:..\..\..\lvgl\version_6.1.2\lvgl\src\lv_objx/lv_chart.c ****         uint8_t i;
1400:..\..\..\lvgl\version_6.1.2\lvgl\src\lv_objx/lv_chart.c ****         uint8_t num_of_labels;
1401:..\..\..\lvgl\version_6.1.2\lvgl\src\lv_objx/lv_chart.c ****         uint8_t num_scale_ticks;
1402:..\..\..\lvgl\version_6.1.2\lvgl\src\lv_objx/lv_chart.c ****         uint8_t major_tick_len, minor_tick_len;
1403:..\..\..\lvgl\version_6.1.2\lvgl\src\lv_objx/lv_chart.c ****         lv_chart_label_iterator_t iter;
1404:..\..\..\lvgl\version_6.1.2\lvgl\src\lv_objx/lv_chart.c ****         lv_point_t p1;
1405:..\..\..\lvgl\version_6.1.2\lvgl\src\lv_objx/lv_chart.c ****         lv_point_t p2;
1406:..\..\..\lvgl\version_6.1.2\lvgl\src\lv_objx/lv_chart.c ****         lv_coord_t x_ofs = chart->coords.x1;
 5199              		.loc 3 1406 0
 5200 003a 7B69     		ldr	r3, [r7, #20]
 5201 003c 1B8A     		ldrh	r3, [r3, #16]	@ movhi
 5202 003e A7F85830 		strh	r3, [r7, #88]	@ movhi
1407:..\..\..\lvgl\version_6.1.2\lvgl\src\lv_objx/lv_chart.c ****         lv_coord_t y_ofs = chart->coords.y1;
 5203              		.loc 3 1407 0
 5204 0042 7B69     		ldr	r3, [r7, #20]
 5205 0044 5B8A     		ldrh	r3, [r3, #18]	@ movhi
 5206 0046 A7F85630 		strh	r3, [r7, #86]	@ movhi
1408:..\..\..\lvgl\version_6.1.2\lvgl\src\lv_objx/lv_chart.c ****         lv_coord_t h     = lv_obj_get_height(chart);
 5207              		.loc 3 1408 0
 5208 004a 7869     		ldr	r0, [r7, #20]
 5209 004c FFF7FEFF 		bl	lv_obj_get_height
 5210 0050 0346     		mov	r3, r0
 5211 0052 A7F85430 		strh	r3, [r7, #84]	@ movhi
1409:..\..\..\lvgl\version_6.1.2\lvgl\src\lv_objx/lv_chart.c ****         lv_coord_t w     = lv_obj_get_width(chart);
 5212              		.loc 3 1409 0
 5213 0056 7869     		ldr	r0, [r7, #20]
 5214 0058 FFF7FEFF 		bl	lv_obj_get_width
 5215 005c 0346     		mov	r3, r0
 5216 005e A7F85230 		strh	r3, [r7, #82]	@ movhi
1410:..\..\..\lvgl\version_6.1.2\lvgl\src\lv_objx/lv_chart.c ****         char buf[LV_CHART_AXIS_TICK_LABEL_MAX_LEN + 1]; /* up to N symbols per label + null termina
1411:..\..\..\lvgl\version_6.1.2\lvgl\src\lv_objx/lv_chart.c **** 
1412:..\..\..\lvgl\version_6.1.2\lvgl\src\lv_objx/lv_chart.c ****         /* calculate the size of tick marks */
1413:..\..\..\lvgl\version_6.1.2\lvgl\src\lv_objx/lv_chart.c ****         if(ext->x_axis.major_tick_len == LV_CHART_TICK_LENGTH_AUTO)
 5217              		.loc 3 1413 0
 5218 0062 3B6E     		ldr	r3, [r7, #96]
 5219 0064 93F82630 		ldrb	r3, [r3, #38]	@ zero_extendqisi2
 5220 0068 FF2B     		cmp	r3, #255
ARM GAS  C:\Users\tmj32\AppData\Local\Temp\ccrrExWC.s 			page 131


 5221 006a 0BD1     		bne	.L269
1414:..\..\..\lvgl\version_6.1.2\lvgl\src\lv_objx/lv_chart.c ****             major_tick_len = (int32_t)w * LV_CHART_AXIS_MAJOR_TICK_LEN_COE;
 5222              		.loc 3 1414 0
 5223 006c B7F95230 		ldrsh	r3, [r7, #82]
 5224 0070 A64A     		ldr	r2, .L285
 5225 0072 82FB0312 		smull	r1, r2, r2, r3
 5226 0076 1A44     		add	r2, r2, r3
 5227 0078 D210     		asrs	r2, r2, #3
 5228 007a DB17     		asrs	r3, r3, #31
 5229 007c D31A     		subs	r3, r2, r3
 5230 007e 87F86530 		strb	r3, [r7, #101]
 5231 0082 04E0     		b	.L270
 5232              	.L269:
1415:..\..\..\lvgl\version_6.1.2\lvgl\src\lv_objx/lv_chart.c ****         else
1416:..\..\..\lvgl\version_6.1.2\lvgl\src\lv_objx/lv_chart.c ****             major_tick_len = ext->x_axis.major_tick_len;
 5233              		.loc 3 1416 0
 5234 0084 3B6E     		ldr	r3, [r7, #96]
 5235 0086 93F82630 		ldrb	r3, [r3, #38]
 5236 008a 87F86530 		strb	r3, [r7, #101]
 5237              	.L270:
1417:..\..\..\lvgl\version_6.1.2\lvgl\src\lv_objx/lv_chart.c **** 
1418:..\..\..\lvgl\version_6.1.2\lvgl\src\lv_objx/lv_chart.c ****         if(ext->x_axis.minor_tick_len == LV_CHART_TICK_LENGTH_AUTO)
 5238              		.loc 3 1418 0
 5239 008e 3B6E     		ldr	r3, [r7, #96]
 5240 0090 93F82730 		ldrb	r3, [r3, #39]	@ zero_extendqisi2
 5241 0094 FF2B     		cmp	r3, #255
 5242 0096 0AD1     		bne	.L271
1419:..\..\..\lvgl\version_6.1.2\lvgl\src\lv_objx/lv_chart.c ****             minor_tick_len = major_tick_len * LV_CHART_AXIS_MINOR_TICK_LEN_COE;
 5243              		.loc 3 1419 0
 5244 0098 97F86530 		ldrb	r3, [r7, #101]	@ zero_extendqisi2
 5245 009c 5B00     		lsls	r3, r3, #1
 5246 009e 9C4A     		ldr	r2, .L285+4
 5247 00a0 82FB0312 		smull	r1, r2, r2, r3
 5248 00a4 DB17     		asrs	r3, r3, #31
 5249 00a6 D31A     		subs	r3, r2, r3
 5250 00a8 87F86430 		strb	r3, [r7, #100]
 5251 00ac 04E0     		b	.L272
 5252              	.L271:
1420:..\..\..\lvgl\version_6.1.2\lvgl\src\lv_objx/lv_chart.c ****         else
1421:..\..\..\lvgl\version_6.1.2\lvgl\src\lv_objx/lv_chart.c ****             minor_tick_len = ext->x_axis.minor_tick_len;
 5253              		.loc 3 1421 0
 5254 00ae 3B6E     		ldr	r3, [r7, #96]
 5255 00b0 93F82730 		ldrb	r3, [r3, #39]
 5256 00b4 87F86430 		strb	r3, [r7, #100]
 5257              	.L272:
1422:..\..\..\lvgl\version_6.1.2\lvgl\src\lv_objx/lv_chart.c **** 
1423:..\..\..\lvgl\version_6.1.2\lvgl\src\lv_objx/lv_chart.c ****         /*determine the number of options */
1424:..\..\..\lvgl\version_6.1.2\lvgl\src\lv_objx/lv_chart.c ****         iter = lv_chart_create_label_iter(ext->x_axis.list_of_values, LV_CHART_LABEL_ITERATOR_FORWA
 5258              		.loc 3 1424 0
 5259 00b8 3B6E     		ldr	r3, [r7, #96]
 5260 00ba 196A     		ldr	r1, [r3, #32]
 5261 00bc 3B46     		mov	r3, r7
 5262 00be 0122     		movs	r2, #1
 5263 00c0 1846     		mov	r0, r3
 5264 00c2 FFF7FEFF 		bl	lv_chart_create_label_iter
 5265 00c6 07F14403 		add	r3, r7, #68
 5266 00ca 3A46     		mov	r2, r7
ARM GAS  C:\Users\tmj32\AppData\Local\Temp\ccrrExWC.s 			page 132


 5267 00cc 07CA     		ldmia	r2, {r0, r1, r2}
 5268 00ce 83E80700 		stmia	r3, {r0, r1, r2}
1425:..\..\..\lvgl\version_6.1.2\lvgl\src\lv_objx/lv_chart.c ****         num_of_labels = iter.items_left;
 5269              		.loc 3 1425 0
 5270 00d2 97F84C30 		ldrb	r3, [r7, #76]
 5271 00d6 87F85130 		strb	r3, [r7, #81]
1426:..\..\..\lvgl\version_6.1.2\lvgl\src\lv_objx/lv_chart.c **** 
1427:..\..\..\lvgl\version_6.1.2\lvgl\src\lv_objx/lv_chart.c ****         /* we can't have string labels without ticks step, set to 1 if not specified */
1428:..\..\..\lvgl\version_6.1.2\lvgl\src\lv_objx/lv_chart.c ****         if(ext->x_axis.num_tick_marks == 0) ext->x_axis.num_tick_marks = 1;
 5272              		.loc 3 1428 0
 5273 00da 3B6E     		ldr	r3, [r7, #96]
 5274 00dc 93F82530 		ldrb	r3, [r3, #37]	@ zero_extendqisi2
 5275 00e0 002B     		cmp	r3, #0
 5276 00e2 03D1     		bne	.L273
 5277              		.loc 3 1428 0 is_stmt 0 discriminator 1
 5278 00e4 3B6E     		ldr	r3, [r7, #96]
 5279 00e6 0122     		movs	r2, #1
 5280 00e8 83F82520 		strb	r2, [r3, #37]
 5281              	.L273:
1429:..\..\..\lvgl\version_6.1.2\lvgl\src\lv_objx/lv_chart.c **** 
1430:..\..\..\lvgl\version_6.1.2\lvgl\src\lv_objx/lv_chart.c ****         /* calculate total number of marks */
1431:..\..\..\lvgl\version_6.1.2\lvgl\src\lv_objx/lv_chart.c ****         if(num_of_labels < 2)
 5282              		.loc 3 1431 0 is_stmt 1
 5283 00ec 97F85130 		ldrb	r3, [r7, #81]	@ zero_extendqisi2
 5284 00f0 012B     		cmp	r3, #1
 5285 00f2 05D8     		bhi	.L274
1432:..\..\..\lvgl\version_6.1.2\lvgl\src\lv_objx/lv_chart.c ****             num_scale_ticks = ext->x_axis.num_tick_marks;
 5286              		.loc 3 1432 0
 5287 00f4 3B6E     		ldr	r3, [r7, #96]
 5288 00f6 93F82530 		ldrb	r3, [r3, #37]
 5289 00fa 87F86630 		strb	r3, [r7, #102]
 5290 00fe 0AE0     		b	.L275
 5291              	.L274:
1433:..\..\..\lvgl\version_6.1.2\lvgl\src\lv_objx/lv_chart.c ****         else
1434:..\..\..\lvgl\version_6.1.2\lvgl\src\lv_objx/lv_chart.c ****             num_scale_ticks = (ext->x_axis.num_tick_marks * (num_of_labels - 1));
 5292              		.loc 3 1434 0
 5293 0100 3B6E     		ldr	r3, [r7, #96]
 5294 0102 93F82520 		ldrb	r2, [r3, #37]	@ zero_extendqisi2
 5295 0106 97F85130 		ldrb	r3, [r7, #81]	@ zero_extendqisi2
 5296 010a 013B     		subs	r3, r3, #1
 5297 010c DBB2     		uxtb	r3, r3
 5298 010e 12FB03F3 		smulbb	r3, r2, r3
 5299 0112 87F86630 		strb	r3, [r7, #102]
 5300              	.L275:
1435:..\..\..\lvgl\version_6.1.2\lvgl\src\lv_objx/lv_chart.c **** 
1436:..\..\..\lvgl\version_6.1.2\lvgl\src\lv_objx/lv_chart.c ****         for(i = 0; i < (num_scale_ticks + 1); i++) { /* one extra loop - it may not exist in the li
 5301              		.loc 3 1436 0
 5302 0116 0023     		movs	r3, #0
 5303 0118 87F86730 		strb	r3, [r7, #103]
 5304 011c EAE0     		b	.L276
 5305              	.L283:
1437:..\..\..\lvgl\version_6.1.2\lvgl\src\lv_objx/lv_chart.c ****                                                      /* first point of the tick */
1438:..\..\..\lvgl\version_6.1.2\lvgl\src\lv_objx/lv_chart.c ****             p1.y = h + y_ofs;
 5306              		.loc 3 1438 0
 5307 011e B7F85420 		ldrh	r2, [r7, #84]
 5308 0122 B7F85630 		ldrh	r3, [r7, #86]
 5309 0126 1344     		add	r3, r3, r2
ARM GAS  C:\Users\tmj32\AppData\Local\Temp\ccrrExWC.s 			page 133


 5310 0128 9BB2     		uxth	r3, r3
 5311 012a 1BB2     		sxth	r3, r3
 5312 012c A7F84230 		strh	r3, [r7, #66]	@ movhi
1439:..\..\..\lvgl\version_6.1.2\lvgl\src\lv_objx/lv_chart.c **** 
1440:..\..\..\lvgl\version_6.1.2\lvgl\src\lv_objx/lv_chart.c ****             /* second point of the tick */
1441:..\..\..\lvgl\version_6.1.2\lvgl\src\lv_objx/lv_chart.c ****             if((num_of_labels != 0) && (i == 0 || i % ext->x_axis.num_tick_marks == 0))
 5313              		.loc 3 1441 0
 5314 0130 97F85130 		ldrb	r3, [r7, #81]	@ zero_extendqisi2
 5315 0134 002B     		cmp	r3, #0
 5316 0136 1BD0     		beq	.L277
 5317              		.loc 3 1441 0 is_stmt 0 discriminator 1
 5318 0138 97F86730 		ldrb	r3, [r7, #103]	@ zero_extendqisi2
 5319 013c 002B     		cmp	r3, #0
 5320 013e 0CD0     		beq	.L278
 5321              		.loc 3 1441 0 discriminator 2
 5322 0140 3B6E     		ldr	r3, [r7, #96]
 5323 0142 93F82520 		ldrb	r2, [r3, #37]	@ zero_extendqisi2
 5324 0146 97F86730 		ldrb	r3, [r7, #103]	@ zero_extendqisi2
 5325 014a B3FBF2F1 		udiv	r1, r3, r2
 5326 014e 02FB01F2 		mul	r2, r2, r1
 5327 0152 9B1A     		subs	r3, r3, r2
 5328 0154 DBB2     		uxtb	r3, r3
 5329 0156 002B     		cmp	r3, #0
 5330 0158 0AD1     		bne	.L277
 5331              	.L278:
1442:..\..\..\lvgl\version_6.1.2\lvgl\src\lv_objx/lv_chart.c ****                 p2.y = p1.y + major_tick_len; /* major tick */
 5332              		.loc 3 1442 0 is_stmt 1
 5333 015a B7F94230 		ldrsh	r3, [r7, #66]
 5334 015e 9AB2     		uxth	r2, r3
 5335 0160 97F86530 		ldrb	r3, [r7, #101]	@ zero_extendqisi2
 5336 0164 9BB2     		uxth	r3, r3
 5337 0166 1344     		add	r3, r3, r2
 5338 0168 9BB2     		uxth	r3, r3
 5339 016a 1BB2     		sxth	r3, r3
 5340 016c FB87     		strh	r3, [r7, #62]	@ movhi
 5341 016e 09E0     		b	.L279
 5342              	.L277:
1443:..\..\..\lvgl\version_6.1.2\lvgl\src\lv_objx/lv_chart.c ****             else
1444:..\..\..\lvgl\version_6.1.2\lvgl\src\lv_objx/lv_chart.c ****                 p2.y = p1.y + minor_tick_len; /* minor tick */
 5343              		.loc 3 1444 0
 5344 0170 B7F94230 		ldrsh	r3, [r7, #66]
 5345 0174 9AB2     		uxth	r2, r3
 5346 0176 97F86430 		ldrb	r3, [r7, #100]	@ zero_extendqisi2
 5347 017a 9BB2     		uxth	r3, r3
 5348 017c 1344     		add	r3, r3, r2
 5349 017e 9BB2     		uxth	r3, r3
 5350 0180 1BB2     		sxth	r3, r3
 5351 0182 FB87     		strh	r3, [r7, #62]	@ movhi
 5352              	.L279:
1445:..\..\..\lvgl\version_6.1.2\lvgl\src\lv_objx/lv_chart.c **** 
1446:..\..\..\lvgl\version_6.1.2\lvgl\src\lv_objx/lv_chart.c ****             /* draw a line at moving x position */
1447:..\..\..\lvgl\version_6.1.2\lvgl\src\lv_objx/lv_chart.c ****             p2.x = p1.x = x_ofs + (int32_t)((int32_t)(w - style->line.width) * i) / num_scale_ticks
 5353              		.loc 3 1447 0
 5354 0184 B7F95230 		ldrsh	r3, [r7, #82]
 5355 0188 FA6D     		ldr	r2, [r7, #92]
 5356 018a B2F94C20 		ldrsh	r2, [r2, #76]
 5357 018e 9B1A     		subs	r3, r3, r2
ARM GAS  C:\Users\tmj32\AppData\Local\Temp\ccrrExWC.s 			page 134


 5358 0190 97F86720 		ldrb	r2, [r7, #103]	@ zero_extendqisi2
 5359 0194 02FB03F2 		mul	r2, r2, r3
 5360 0198 97F86630 		ldrb	r3, [r7, #102]	@ zero_extendqisi2
 5361 019c 92FBF3F3 		sdiv	r3, r2, r3
 5362 01a0 9AB2     		uxth	r2, r3
 5363 01a2 B7F85830 		ldrh	r3, [r7, #88]
 5364 01a6 1344     		add	r3, r3, r2
 5365 01a8 9BB2     		uxth	r3, r3
 5366 01aa 1BB2     		sxth	r3, r3
 5367 01ac A7F84030 		strh	r3, [r7, #64]	@ movhi
 5368 01b0 B7F94030 		ldrsh	r3, [r7, #64]
 5369 01b4 BB87     		strh	r3, [r7, #60]	@ movhi
1448:..\..\..\lvgl\version_6.1.2\lvgl\src\lv_objx/lv_chart.c **** 
1449:..\..\..\lvgl\version_6.1.2\lvgl\src\lv_objx/lv_chart.c ****             if(i != num_scale_ticks)
 5370              		.loc 3 1449 0
 5371 01b6 97F86720 		ldrb	r2, [r7, #103]	@ zero_extendqisi2
 5372 01ba 97F86630 		ldrb	r3, [r7, #102]	@ zero_extendqisi2
 5373 01be 9A42     		cmp	r2, r3
 5374 01c0 0BD0     		beq	.L280
1450:..\..\..\lvgl\version_6.1.2\lvgl\src\lv_objx/lv_chart.c ****                 lv_draw_line(&p1, &p2, mask, style, opa_scale);
 5375              		.loc 3 1450 0
 5376 01c2 07F13C01 		add	r1, r7, #60
 5377 01c6 07F14000 		add	r0, r7, #64
 5378 01ca 97F85B30 		ldrb	r3, [r7, #91]	@ zero_extendqisi2
 5379 01ce 0093     		str	r3, [sp]
 5380 01d0 FB6D     		ldr	r3, [r7, #92]
 5381 01d2 3A69     		ldr	r2, [r7, #16]
 5382 01d4 FFF7FEFF 		bl	lv_draw_line
 5383 01d8 11E0     		b	.L281
 5384              	.L280:
1451:..\..\..\lvgl\version_6.1.2\lvgl\src\lv_objx/lv_chart.c ****             else if((ext->x_axis.options & LV_CHART_AXIS_DRAW_LAST_TICK) != 0)
 5385              		.loc 3 1451 0
 5386 01da 3B6E     		ldr	r3, [r7, #96]
 5387 01dc 93F82430 		ldrb	r3, [r3, #36]	@ zero_extendqisi2
 5388 01e0 03F00103 		and	r3, r3, #1
 5389 01e4 002B     		cmp	r3, #0
 5390 01e6 0AD0     		beq	.L281
1452:..\..\..\lvgl\version_6.1.2\lvgl\src\lv_objx/lv_chart.c ****                 lv_draw_line(&p1, &p2, mask, style, opa_scale);
 5391              		.loc 3 1452 0
 5392 01e8 07F13C01 		add	r1, r7, #60
 5393 01ec 07F14000 		add	r0, r7, #64
 5394 01f0 97F85B30 		ldrb	r3, [r7, #91]	@ zero_extendqisi2
 5395 01f4 0093     		str	r3, [sp]
 5396 01f6 FB6D     		ldr	r3, [r7, #92]
 5397 01f8 3A69     		ldr	r2, [r7, #16]
 5398 01fa FFF7FEFF 		bl	lv_draw_line
 5399              	.L281:
1453:..\..\..\lvgl\version_6.1.2\lvgl\src\lv_objx/lv_chart.c **** 
1454:..\..\..\lvgl\version_6.1.2\lvgl\src\lv_objx/lv_chart.c ****             /* draw values if available */
1455:..\..\..\lvgl\version_6.1.2\lvgl\src\lv_objx/lv_chart.c ****             if(num_of_labels != 0) {
 5400              		.loc 3 1455 0
 5401 01fe 97F85130 		ldrb	r3, [r7, #81]	@ zero_extendqisi2
 5402 0202 002B     		cmp	r3, #0
 5403 0204 71D0     		beq	.L282
1456:..\..\..\lvgl\version_6.1.2\lvgl\src\lv_objx/lv_chart.c ****                 /* add text only to major tick */
1457:..\..\..\lvgl\version_6.1.2\lvgl\src\lv_objx/lv_chart.c ****                 if(lv_chart_is_tick_with_label(i, &(ext->x_axis))) {
 5404              		.loc 3 1457 0
ARM GAS  C:\Users\tmj32\AppData\Local\Temp\ccrrExWC.s 			page 135


 5405 0206 3B6E     		ldr	r3, [r7, #96]
 5406 0208 03F12002 		add	r2, r3, #32
 5407 020c 97F86730 		ldrb	r3, [r7, #103]	@ zero_extendqisi2
 5408 0210 1146     		mov	r1, r2
 5409 0212 1846     		mov	r0, r3
 5410 0214 FFF7FEFF 		bl	lv_chart_is_tick_with_label
 5411 0218 0346     		mov	r3, r0
 5412 021a 002B     		cmp	r3, #0
 5413 021c 65D0     		beq	.L282
 5414              	.LBB19:
1458:..\..\..\lvgl\version_6.1.2\lvgl\src\lv_objx/lv_chart.c ****                     lv_chart_get_next_label(&iter, buf);
 5415              		.loc 3 1458 0
 5416 021e 07F12402 		add	r2, r7, #36
 5417 0222 07F14403 		add	r3, r7, #68
 5418 0226 1146     		mov	r1, r2
 5419 0228 1846     		mov	r0, r3
 5420 022a FFF7FEFF 		bl	lv_chart_get_next_label
1459:..\..\..\lvgl\version_6.1.2\lvgl\src\lv_objx/lv_chart.c **** 
1460:..\..\..\lvgl\version_6.1.2\lvgl\src\lv_objx/lv_chart.c ****                     /* reserve appropriate area */
1461:..\..\..\lvgl\version_6.1.2\lvgl\src\lv_objx/lv_chart.c ****                     lv_point_t size;
1462:..\..\..\lvgl\version_6.1.2\lvgl\src\lv_objx/lv_chart.c ****                     lv_txt_get_size(&size, buf, style->text.font, style->text.letter_space, style->
 5421              		.loc 3 1462 0
 5422 022e FB6D     		ldr	r3, [r7, #92]
 5423 0230 5C6B     		ldr	r4, [r3, #52]
 5424 0232 FB6D     		ldr	r3, [r7, #92]
 5425 0234 B3F93850 		ldrsh	r5, [r3, #56]
 5426 0238 FB6D     		ldr	r3, [r7, #92]
 5427 023a B3F93A30 		ldrsh	r3, [r3, #58]
 5428 023e 07F12401 		add	r1, r7, #36
 5429 0242 07F12000 		add	r0, r7, #32
 5430 0246 0422     		movs	r2, #4
 5431 0248 0292     		str	r2, [sp, #8]
 5432 024a 47F61842 		movw	r2, #31768
 5433 024e 0192     		str	r2, [sp, #4]
 5434 0250 0093     		str	r3, [sp]
 5435 0252 2B46     		mov	r3, r5
 5436 0254 2246     		mov	r2, r4
 5437 0256 FFF7FEFF 		bl	lv_txt_get_size
1463:..\..\..\lvgl\version_6.1.2\lvgl\src\lv_objx/lv_chart.c ****                                     LV_COORD_MAX, LV_TXT_FLAG_CENTER);
1464:..\..\..\lvgl\version_6.1.2\lvgl\src\lv_objx/lv_chart.c **** 
1465:..\..\..\lvgl\version_6.1.2\lvgl\src\lv_objx/lv_chart.c ****                     /* set the area at some distance of the major tick len under of the tick */
1466:..\..\..\lvgl\version_6.1.2\lvgl\src\lv_objx/lv_chart.c ****                     lv_area_t a = {(p2.x - size.x / 2), (p2.y + LV_CHART_AXIS_TO_LABEL_DISTANCE), (
 5438              		.loc 3 1466 0
 5439 025a B7F93C30 		ldrsh	r3, [r7, #60]
 5440 025e 9AB2     		uxth	r2, r3
 5441 0260 B7F92030 		ldrsh	r3, [r7, #32]
 5442 0264 D90F     		lsrs	r1, r3, #31
 5443 0266 0B44     		add	r3, r3, r1
 5444 0268 5B10     		asrs	r3, r3, #1
 5445 026a 1BB2     		sxth	r3, r3
 5446 026c 9BB2     		uxth	r3, r3
 5447 026e D31A     		subs	r3, r2, r3
 5448 0270 9BB2     		uxth	r3, r3
 5449 0272 1BB2     		sxth	r3, r3
 5450 0274 3B83     		strh	r3, [r7, #24]	@ movhi
 5451 0276 B7F93E30 		ldrsh	r3, [r7, #62]
 5452 027a 9BB2     		uxth	r3, r3
ARM GAS  C:\Users\tmj32\AppData\Local\Temp\ccrrExWC.s 			page 136


 5453 027c 0433     		adds	r3, r3, #4
 5454 027e 9BB2     		uxth	r3, r3
 5455 0280 1BB2     		sxth	r3, r3
 5456 0282 7B83     		strh	r3, [r7, #26]	@ movhi
 5457 0284 B7F93C30 		ldrsh	r3, [r7, #60]
 5458 0288 9AB2     		uxth	r2, r3
 5459 028a B7F92030 		ldrsh	r3, [r7, #32]
 5460 028e D90F     		lsrs	r1, r3, #31
 5461 0290 0B44     		add	r3, r3, r1
 5462 0292 5B10     		asrs	r3, r3, #1
 5463 0294 1BB2     		sxth	r3, r3
 5464 0296 9BB2     		uxth	r3, r3
 5465 0298 1344     		add	r3, r3, r2
 5466 029a 9BB2     		uxth	r3, r3
 5467 029c 1BB2     		sxth	r3, r3
 5468 029e BB83     		strh	r3, [r7, #28]	@ movhi
1467:..\..\..\lvgl\version_6.1.2\lvgl\src\lv_objx/lv_chart.c ****                                    (p2.y + size.y + LV_CHART_AXIS_TO_LABEL_DISTANCE)};
 5469              		.loc 3 1467 0
 5470 02a0 B7F93E30 		ldrsh	r3, [r7, #62]
1466:..\..\..\lvgl\version_6.1.2\lvgl\src\lv_objx/lv_chart.c ****                                    (p2.y + size.y + LV_CHART_AXIS_TO_LABEL_DISTANCE)};
 5471              		.loc 3 1466 0
 5472 02a4 9AB2     		uxth	r2, r3
 5473              		.loc 3 1467 0
 5474 02a6 B7F92230 		ldrsh	r3, [r7, #34]
1466:..\..\..\lvgl\version_6.1.2\lvgl\src\lv_objx/lv_chart.c ****                                    (p2.y + size.y + LV_CHART_AXIS_TO_LABEL_DISTANCE)};
 5475              		.loc 3 1466 0
 5476 02aa 9BB2     		uxth	r3, r3
 5477 02ac 1344     		add	r3, r3, r2
 5478 02ae 9BB2     		uxth	r3, r3
 5479 02b0 0433     		adds	r3, r3, #4
 5480 02b2 9BB2     		uxth	r3, r3
 5481 02b4 1BB2     		sxth	r3, r3
 5482 02b6 FB83     		strh	r3, [r7, #30]	@ movhi
1468:..\..\..\lvgl\version_6.1.2\lvgl\src\lv_objx/lv_chart.c ****                     lv_draw_label(&a, mask, style, opa_scale, buf, LV_TXT_FLAG_CENTER, NULL, NULL, 
 5483              		.loc 3 1468 0
 5484 02b8 7869     		ldr	r0, [r7, #20]
 5485 02ba FFF7FEFF 		bl	lv_obj_get_base_dir
 5486 02be 0346     		mov	r3, r0
 5487 02c0 97F85B20 		ldrb	r2, [r7, #91]	@ zero_extendqisi2
 5488 02c4 07F11800 		add	r0, r7, #24
 5489 02c8 0593     		str	r3, [sp, #20]
 5490 02ca 0023     		movs	r3, #0
 5491 02cc 0493     		str	r3, [sp, #16]
 5492 02ce 0023     		movs	r3, #0
 5493 02d0 0393     		str	r3, [sp, #12]
 5494 02d2 0023     		movs	r3, #0
 5495 02d4 0293     		str	r3, [sp, #8]
 5496 02d6 0423     		movs	r3, #4
 5497 02d8 0193     		str	r3, [sp, #4]
 5498 02da 07F12403 		add	r3, r7, #36
 5499 02de 0093     		str	r3, [sp]
 5500 02e0 1346     		mov	r3, r2
 5501 02e2 FA6D     		ldr	r2, [r7, #92]
 5502 02e4 3969     		ldr	r1, [r7, #16]
 5503 02e6 FFF7FEFF 		bl	lv_draw_label
 5504              	.L282:
 5505              	.LBE19:
ARM GAS  C:\Users\tmj32\AppData\Local\Temp\ccrrExWC.s 			page 137


1436:..\..\..\lvgl\version_6.1.2\lvgl\src\lv_objx/lv_chart.c ****                                                      /* first point of the tick */
 5506              		.loc 3 1436 0 discriminator 2
 5507 02ea 97F86730 		ldrb	r3, [r7, #103]	@ zero_extendqisi2
 5508 02ee 0133     		adds	r3, r3, #1
 5509 02f0 87F86730 		strb	r3, [r7, #103]
 5510              	.L276:
1436:..\..\..\lvgl\version_6.1.2\lvgl\src\lv_objx/lv_chart.c ****                                                      /* first point of the tick */
 5511              		.loc 3 1436 0 is_stmt 0 discriminator 1
 5512 02f4 97F86720 		ldrb	r2, [r7, #103]	@ zero_extendqisi2
 5513 02f8 97F86630 		ldrb	r3, [r7, #102]	@ zero_extendqisi2
 5514 02fc 0133     		adds	r3, r3, #1
 5515 02fe 9A42     		cmp	r2, r3
 5516 0300 FFF60DAF 		blt	.L283
 5517              	.L284:
 5518              	.LBE18:
1469:..\..\..\lvgl\version_6.1.2\lvgl\src\lv_objx/lv_chart.c ****                 }
1470:..\..\..\lvgl\version_6.1.2\lvgl\src\lv_objx/lv_chart.c ****             }
1471:..\..\..\lvgl\version_6.1.2\lvgl\src\lv_objx/lv_chart.c ****         }
1472:..\..\..\lvgl\version_6.1.2\lvgl\src\lv_objx/lv_chart.c ****     }
1473:..\..\..\lvgl\version_6.1.2\lvgl\src\lv_objx/lv_chart.c **** }
 5519              		.loc 3 1473 0 is_stmt 1
 5520 0304 00BF     		nop
 5521 0306 6837     		adds	r7, r7, #104
 5522              		.cfi_def_cfa_offset 16
 5523 0308 BD46     		mov	sp, r7
 5524              		.cfi_def_cfa_register 13
 5525              		@ sp needed
 5526 030a B0BD     		pop	{r4, r5, r7, pc}
 5527              	.L286:
 5528              		.align	2
 5529              	.L285:
 5530 030c 89888888 		.word	-2004318071
 5531 0310 56555555 		.word	1431655766
 5532              		.cfi_endproc
 5533              	.LFE75:
 5534              		.size	lv_chart_draw_x_ticks, .-lv_chart_draw_x_ticks
 5535              		.section	.text.lv_chart_draw_axes,"ax",%progbits
 5536              		.align	2
 5537              		.thumb
 5538              		.thumb_func
 5539              		.type	lv_chart_draw_axes, %function
 5540              	lv_chart_draw_axes:
 5541              	.LFB76:
1474:..\..\..\lvgl\version_6.1.2\lvgl\src\lv_objx/lv_chart.c **** 
1475:..\..\..\lvgl\version_6.1.2\lvgl\src\lv_objx/lv_chart.c **** static void lv_chart_draw_axes(lv_obj_t * chart, const lv_area_t * mask)
1476:..\..\..\lvgl\version_6.1.2\lvgl\src\lv_objx/lv_chart.c **** {
 5542              		.loc 3 1476 0
 5543              		.cfi_startproc
 5544              		@ args = 0, pretend = 0, frame = 8
 5545              		@ frame_needed = 1, uses_anonymous_args = 0
 5546 0000 80B5     		push	{r7, lr}
 5547              		.cfi_def_cfa_offset 8
 5548              		.cfi_offset 7, -8
 5549              		.cfi_offset 14, -4
 5550 0002 82B0     		sub	sp, sp, #8
 5551              		.cfi_def_cfa_offset 16
 5552 0004 00AF     		add	r7, sp, #0
ARM GAS  C:\Users\tmj32\AppData\Local\Temp\ccrrExWC.s 			page 138


 5553              		.cfi_def_cfa_register 7
 5554 0006 7860     		str	r0, [r7, #4]
 5555 0008 3960     		str	r1, [r7]
1477:..\..\..\lvgl\version_6.1.2\lvgl\src\lv_objx/lv_chart.c ****     lv_chart_draw_y_ticks(chart, mask, LV_CHART_AXIS_PRIMARY_Y);
 5556              		.loc 3 1477 0
 5557 000a 0122     		movs	r2, #1
 5558 000c 3968     		ldr	r1, [r7]
 5559 000e 7868     		ldr	r0, [r7, #4]
 5560 0010 FFF7FEFF 		bl	lv_chart_draw_y_ticks
1478:..\..\..\lvgl\version_6.1.2\lvgl\src\lv_objx/lv_chart.c ****     lv_chart_draw_y_ticks(chart, mask, LV_CHART_AXIS_SECONDARY_Y);
 5561              		.loc 3 1478 0
 5562 0014 0022     		movs	r2, #0
 5563 0016 3968     		ldr	r1, [r7]
 5564 0018 7868     		ldr	r0, [r7, #4]
 5565 001a FFF7FEFF 		bl	lv_chart_draw_y_ticks
1479:..\..\..\lvgl\version_6.1.2\lvgl\src\lv_objx/lv_chart.c ****     lv_chart_draw_x_ticks(chart, mask);
 5566              		.loc 3 1479 0
 5567 001e 3968     		ldr	r1, [r7]
 5568 0020 7868     		ldr	r0, [r7, #4]
 5569 0022 FFF7FEFF 		bl	lv_chart_draw_x_ticks
1480:..\..\..\lvgl\version_6.1.2\lvgl\src\lv_objx/lv_chart.c **** }
 5570              		.loc 3 1480 0
 5571 0026 00BF     		nop
 5572 0028 0837     		adds	r7, r7, #8
 5573              		.cfi_def_cfa_offset 8
 5574 002a BD46     		mov	sp, r7
 5575              		.cfi_def_cfa_register 13
 5576              		@ sp needed
 5577 002c 80BD     		pop	{r7, pc}
 5578              		.cfi_endproc
 5579              	.LFE76:
 5580              		.size	lv_chart_draw_axes, .-lv_chart_draw_axes
 5581 002e 00BF     		.section	.text.lv_chart_inv_lines,"ax",%progbits
 5582              		.align	2
 5583              		.thumb
 5584              		.thumb_func
 5585              		.type	lv_chart_inv_lines, %function
 5586              	lv_chart_inv_lines:
 5587              	.LFB77:
1481:..\..\..\lvgl\version_6.1.2\lvgl\src\lv_objx/lv_chart.c **** 
1482:..\..\..\lvgl\version_6.1.2\lvgl\src\lv_objx/lv_chart.c **** /**
1483:..\..\..\lvgl\version_6.1.2\lvgl\src\lv_objx/lv_chart.c ****  * invalid area of the new line data lines on a chart
1484:..\..\..\lvgl\version_6.1.2\lvgl\src\lv_objx/lv_chart.c ****  * @param obj pointer to chart object
1485:..\..\..\lvgl\version_6.1.2\lvgl\src\lv_objx/lv_chart.c ****  */
1486:..\..\..\lvgl\version_6.1.2\lvgl\src\lv_objx/lv_chart.c **** static void lv_chart_inv_lines(lv_obj_t * chart, uint16_t i)
1487:..\..\..\lvgl\version_6.1.2\lvgl\src\lv_objx/lv_chart.c **** {
 5588              		.loc 3 1487 0
 5589              		.cfi_startproc
 5590              		@ args = 0, pretend = 0, frame = 24
 5591              		@ frame_needed = 1, uses_anonymous_args = 0
 5592 0000 80B5     		push	{r7, lr}
 5593              		.cfi_def_cfa_offset 8
 5594              		.cfi_offset 7, -8
 5595              		.cfi_offset 14, -4
 5596 0002 86B0     		sub	sp, sp, #24
 5597              		.cfi_def_cfa_offset 32
 5598 0004 00AF     		add	r7, sp, #0
ARM GAS  C:\Users\tmj32\AppData\Local\Temp\ccrrExWC.s 			page 139


 5599              		.cfi_def_cfa_register 7
 5600 0006 7860     		str	r0, [r7, #4]
 5601 0008 0B46     		mov	r3, r1
 5602 000a 7B80     		strh	r3, [r7, #2]	@ movhi
1488:..\..\..\lvgl\version_6.1.2\lvgl\src\lv_objx/lv_chart.c ****     lv_chart_ext_t * ext = lv_obj_get_ext_attr(chart);
 5603              		.loc 3 1488 0
 5604 000c 7868     		ldr	r0, [r7, #4]
 5605 000e FFF7FEFF 		bl	lv_obj_get_ext_attr
 5606 0012 7861     		str	r0, [r7, #20]
1489:..\..\..\lvgl\version_6.1.2\lvgl\src\lv_objx/lv_chart.c **** 
1490:..\..\..\lvgl\version_6.1.2\lvgl\src\lv_objx/lv_chart.c ****     lv_coord_t w     = lv_obj_get_width(chart);
 5607              		.loc 3 1490 0
 5608 0014 7868     		ldr	r0, [r7, #4]
 5609 0016 FFF7FEFF 		bl	lv_obj_get_width
 5610 001a 0346     		mov	r3, r0
 5611 001c 7B82     		strh	r3, [r7, #18]	@ movhi
1491:..\..\..\lvgl\version_6.1.2\lvgl\src\lv_objx/lv_chart.c ****     lv_coord_t x_ofs = chart->coords.x1;
 5612              		.loc 3 1491 0
 5613 001e 7B68     		ldr	r3, [r7, #4]
 5614 0020 1B8A     		ldrh	r3, [r3, #16]	@ movhi
 5615 0022 3B82     		strh	r3, [r7, #16]	@ movhi
1492:..\..\..\lvgl\version_6.1.2\lvgl\src\lv_objx/lv_chart.c **** 
1493:..\..\..\lvgl\version_6.1.2\lvgl\src\lv_objx/lv_chart.c ****     if(i < ext->point_cnt) {
 5616              		.loc 3 1493 0
 5617 0024 7B69     		ldr	r3, [r7, #20]
 5618 0026 5B8A     		ldrh	r3, [r3, #18]
 5619 0028 7A88     		ldrh	r2, [r7, #2]
 5620 002a 9A42     		cmp	r2, r3
 5621 002c 74D2     		bcs	.L292
 5622              	.LBB20:
1494:..\..\..\lvgl\version_6.1.2\lvgl\src\lv_objx/lv_chart.c ****         lv_area_t coords;
1495:..\..\..\lvgl\version_6.1.2\lvgl\src\lv_objx/lv_chart.c ****         lv_obj_get_coords(chart, &coords);
 5623              		.loc 3 1495 0
 5624 002e 07F10803 		add	r3, r7, #8
 5625 0032 1946     		mov	r1, r3
 5626 0034 7868     		ldr	r0, [r7, #4]
 5627 0036 FFF7FEFF 		bl	lv_obj_get_coords
1496:..\..\..\lvgl\version_6.1.2\lvgl\src\lv_objx/lv_chart.c ****         if(i < ext->point_cnt - 1) {
 5628              		.loc 3 1496 0
 5629 003a 7A88     		ldrh	r2, [r7, #2]
 5630 003c 7B69     		ldr	r3, [r7, #20]
 5631 003e 5B8A     		ldrh	r3, [r3, #18]
 5632 0040 013B     		subs	r3, r3, #1
 5633 0042 9A42     		cmp	r2, r3
 5634 0044 32DA     		bge	.L290
1497:..\..\..\lvgl\version_6.1.2\lvgl\src\lv_objx/lv_chart.c ****             coords.x1 = ((w * i) / (ext->point_cnt - 1)) + x_ofs - ext->series.width;
 5635              		.loc 3 1497 0
 5636 0046 B7F91230 		ldrsh	r3, [r7, #18]
 5637 004a 7A88     		ldrh	r2, [r7, #2]
 5638 004c 02FB03F2 		mul	r2, r2, r3
 5639 0050 7B69     		ldr	r3, [r7, #20]
 5640 0052 5B8A     		ldrh	r3, [r3, #18]
 5641 0054 013B     		subs	r3, r3, #1
 5642 0056 92FBF3F3 		sdiv	r3, r2, r3
 5643 005a 9AB2     		uxth	r2, r3
 5644 005c 3B8A     		ldrh	r3, [r7, #16]
 5645 005e 1344     		add	r3, r3, r2
ARM GAS  C:\Users\tmj32\AppData\Local\Temp\ccrrExWC.s 			page 140


 5646 0060 9AB2     		uxth	r2, r3
 5647 0062 7B69     		ldr	r3, [r7, #20]
 5648 0064 B3F93430 		ldrsh	r3, [r3, #52]
 5649 0068 9BB2     		uxth	r3, r3
 5650 006a D31A     		subs	r3, r2, r3
 5651 006c 9BB2     		uxth	r3, r3
 5652 006e 1BB2     		sxth	r3, r3
 5653 0070 3B81     		strh	r3, [r7, #8]	@ movhi
1498:..\..\..\lvgl\version_6.1.2\lvgl\src\lv_objx/lv_chart.c ****             coords.x2 = ((w * (i + 1)) / (ext->point_cnt - 1)) + x_ofs + ext->series.width;
 5654              		.loc 3 1498 0
 5655 0072 B7F91230 		ldrsh	r3, [r7, #18]
 5656 0076 7A88     		ldrh	r2, [r7, #2]
 5657 0078 0132     		adds	r2, r2, #1
 5658 007a 02FB03F2 		mul	r2, r2, r3
 5659 007e 7B69     		ldr	r3, [r7, #20]
 5660 0080 5B8A     		ldrh	r3, [r3, #18]
 5661 0082 013B     		subs	r3, r3, #1
 5662 0084 92FBF3F3 		sdiv	r3, r2, r3
 5663 0088 9AB2     		uxth	r2, r3
 5664 008a 3B8A     		ldrh	r3, [r7, #16]
 5665 008c 1344     		add	r3, r3, r2
 5666 008e 9AB2     		uxth	r2, r3
 5667 0090 7B69     		ldr	r3, [r7, #20]
 5668 0092 B3F93430 		ldrsh	r3, [r3, #52]
 5669 0096 9BB2     		uxth	r3, r3
 5670 0098 1344     		add	r3, r3, r2
 5671 009a 9BB2     		uxth	r3, r3
 5672 009c 1BB2     		sxth	r3, r3
 5673 009e BB81     		strh	r3, [r7, #12]	@ movhi
1499:..\..\..\lvgl\version_6.1.2\lvgl\src\lv_objx/lv_chart.c ****             lv_obj_invalidate_area(chart, &coords);
 5674              		.loc 3 1499 0
 5675 00a0 07F10803 		add	r3, r7, #8
 5676 00a4 1946     		mov	r1, r3
 5677 00a6 7868     		ldr	r0, [r7, #4]
 5678 00a8 FFF7FEFF 		bl	lv_obj_invalidate_area
 5679              	.L290:
1500:..\..\..\lvgl\version_6.1.2\lvgl\src\lv_objx/lv_chart.c ****         }
1501:..\..\..\lvgl\version_6.1.2\lvgl\src\lv_objx/lv_chart.c **** 
1502:..\..\..\lvgl\version_6.1.2\lvgl\src\lv_objx/lv_chart.c ****         if(i > 0) {
 5680              		.loc 3 1502 0
 5681 00ac 7B88     		ldrh	r3, [r7, #2]
 5682 00ae 002B     		cmp	r3, #0
 5683 00b0 32D0     		beq	.L292
1503:..\..\..\lvgl\version_6.1.2\lvgl\src\lv_objx/lv_chart.c ****             coords.x1 = ((w * (i - 1)) / (ext->point_cnt - 1)) + x_ofs - ext->series.width;
 5684              		.loc 3 1503 0
 5685 00b2 B7F91230 		ldrsh	r3, [r7, #18]
 5686 00b6 7A88     		ldrh	r2, [r7, #2]
 5687 00b8 013A     		subs	r2, r2, #1
 5688 00ba 02FB03F2 		mul	r2, r2, r3
 5689 00be 7B69     		ldr	r3, [r7, #20]
 5690 00c0 5B8A     		ldrh	r3, [r3, #18]
 5691 00c2 013B     		subs	r3, r3, #1
 5692 00c4 92FBF3F3 		sdiv	r3, r2, r3
 5693 00c8 9AB2     		uxth	r2, r3
 5694 00ca 3B8A     		ldrh	r3, [r7, #16]
 5695 00cc 1344     		add	r3, r3, r2
 5696 00ce 9AB2     		uxth	r2, r3
ARM GAS  C:\Users\tmj32\AppData\Local\Temp\ccrrExWC.s 			page 141


 5697 00d0 7B69     		ldr	r3, [r7, #20]
 5698 00d2 B3F93430 		ldrsh	r3, [r3, #52]
 5699 00d6 9BB2     		uxth	r3, r3
 5700 00d8 D31A     		subs	r3, r2, r3
 5701 00da 9BB2     		uxth	r3, r3
 5702 00dc 1BB2     		sxth	r3, r3
 5703 00de 3B81     		strh	r3, [r7, #8]	@ movhi
1504:..\..\..\lvgl\version_6.1.2\lvgl\src\lv_objx/lv_chart.c ****             coords.x2 = ((w * i) / (ext->point_cnt - 1)) + x_ofs + ext->series.width;
 5704              		.loc 3 1504 0
 5705 00e0 B7F91230 		ldrsh	r3, [r7, #18]
 5706 00e4 7A88     		ldrh	r2, [r7, #2]
 5707 00e6 02FB03F2 		mul	r2, r2, r3
 5708 00ea 7B69     		ldr	r3, [r7, #20]
 5709 00ec 5B8A     		ldrh	r3, [r3, #18]
 5710 00ee 013B     		subs	r3, r3, #1
 5711 00f0 92FBF3F3 		sdiv	r3, r2, r3
 5712 00f4 9AB2     		uxth	r2, r3
 5713 00f6 3B8A     		ldrh	r3, [r7, #16]
 5714 00f8 1344     		add	r3, r3, r2
 5715 00fa 9AB2     		uxth	r2, r3
 5716 00fc 7B69     		ldr	r3, [r7, #20]
 5717 00fe B3F93430 		ldrsh	r3, [r3, #52]
 5718 0102 9BB2     		uxth	r3, r3
 5719 0104 1344     		add	r3, r3, r2
 5720 0106 9BB2     		uxth	r3, r3
 5721 0108 1BB2     		sxth	r3, r3
 5722 010a BB81     		strh	r3, [r7, #12]	@ movhi
1505:..\..\..\lvgl\version_6.1.2\lvgl\src\lv_objx/lv_chart.c ****             lv_obj_invalidate_area(chart, &coords);
 5723              		.loc 3 1505 0
 5724 010c 07F10803 		add	r3, r7, #8
 5725 0110 1946     		mov	r1, r3
 5726 0112 7868     		ldr	r0, [r7, #4]
 5727 0114 FFF7FEFF 		bl	lv_obj_invalidate_area
 5728              	.L292:
 5729              	.LBE20:
1506:..\..\..\lvgl\version_6.1.2\lvgl\src\lv_objx/lv_chart.c ****         }
1507:..\..\..\lvgl\version_6.1.2\lvgl\src\lv_objx/lv_chart.c ****     }
1508:..\..\..\lvgl\version_6.1.2\lvgl\src\lv_objx/lv_chart.c **** }
 5730              		.loc 3 1508 0
 5731 0118 00BF     		nop
 5732 011a 1837     		adds	r7, r7, #24
 5733              		.cfi_def_cfa_offset 8
 5734 011c BD46     		mov	sp, r7
 5735              		.cfi_def_cfa_register 13
 5736              		@ sp needed
 5737 011e 80BD     		pop	{r7, pc}
 5738              		.cfi_endproc
 5739              	.LFE77:
 5740              		.size	lv_chart_inv_lines, .-lv_chart_inv_lines
 5741              		.section	.text.lv_chart_inv_points,"ax",%progbits
 5742              		.align	2
 5743              		.thumb
 5744              		.thumb_func
 5745              		.type	lv_chart_inv_points, %function
 5746              	lv_chart_inv_points:
 5747              	.LFB78:
1509:..\..\..\lvgl\version_6.1.2\lvgl\src\lv_objx/lv_chart.c **** 
ARM GAS  C:\Users\tmj32\AppData\Local\Temp\ccrrExWC.s 			page 142


1510:..\..\..\lvgl\version_6.1.2\lvgl\src\lv_objx/lv_chart.c **** /**
1511:..\..\..\lvgl\version_6.1.2\lvgl\src\lv_objx/lv_chart.c ****  * invalid area of the new point data lines on a chart
1512:..\..\..\lvgl\version_6.1.2\lvgl\src\lv_objx/lv_chart.c ****  * @param chart pointer to chart object
1513:..\..\..\lvgl\version_6.1.2\lvgl\src\lv_objx/lv_chart.c ****  * @param mask mask, inherited from the design function
1514:..\..\..\lvgl\version_6.1.2\lvgl\src\lv_objx/lv_chart.c ****  */
1515:..\..\..\lvgl\version_6.1.2\lvgl\src\lv_objx/lv_chart.c **** static void lv_chart_inv_points(lv_obj_t * chart, uint16_t i)
1516:..\..\..\lvgl\version_6.1.2\lvgl\src\lv_objx/lv_chart.c **** {
 5748              		.loc 3 1516 0
 5749              		.cfi_startproc
 5750              		@ args = 0, pretend = 0, frame = 24
 5751              		@ frame_needed = 1, uses_anonymous_args = 0
 5752 0000 80B5     		push	{r7, lr}
 5753              		.cfi_def_cfa_offset 8
 5754              		.cfi_offset 7, -8
 5755              		.cfi_offset 14, -4
 5756 0002 86B0     		sub	sp, sp, #24
 5757              		.cfi_def_cfa_offset 32
 5758 0004 00AF     		add	r7, sp, #0
 5759              		.cfi_def_cfa_register 7
 5760 0006 7860     		str	r0, [r7, #4]
 5761 0008 0B46     		mov	r3, r1
 5762 000a 7B80     		strh	r3, [r7, #2]	@ movhi
1517:..\..\..\lvgl\version_6.1.2\lvgl\src\lv_objx/lv_chart.c ****     lv_chart_ext_t * ext = lv_obj_get_ext_attr(chart);
 5763              		.loc 3 1517 0
 5764 000c 7868     		ldr	r0, [r7, #4]
 5765 000e FFF7FEFF 		bl	lv_obj_get_ext_attr
 5766 0012 7861     		str	r0, [r7, #20]
1518:..\..\..\lvgl\version_6.1.2\lvgl\src\lv_objx/lv_chart.c **** 
1519:..\..\..\lvgl\version_6.1.2\lvgl\src\lv_objx/lv_chart.c ****     lv_area_t cir_a;
1520:..\..\..\lvgl\version_6.1.2\lvgl\src\lv_objx/lv_chart.c ****     lv_coord_t w     = lv_obj_get_width(chart);
 5767              		.loc 3 1520 0
 5768 0014 7868     		ldr	r0, [r7, #4]
 5769 0016 FFF7FEFF 		bl	lv_obj_get_width
 5770 001a 0346     		mov	r3, r0
 5771 001c 7B82     		strh	r3, [r7, #18]	@ movhi
1521:..\..\..\lvgl\version_6.1.2\lvgl\src\lv_objx/lv_chart.c ****     lv_coord_t x_ofs = chart->coords.x1;
 5772              		.loc 3 1521 0
 5773 001e 7B68     		ldr	r3, [r7, #4]
 5774 0020 1B8A     		ldrh	r3, [r3, #16]	@ movhi
 5775 0022 3B82     		strh	r3, [r7, #16]	@ movhi
1522:..\..\..\lvgl\version_6.1.2\lvgl\src\lv_objx/lv_chart.c **** 
1523:..\..\..\lvgl\version_6.1.2\lvgl\src\lv_objx/lv_chart.c ****     lv_obj_get_coords(chart, &cir_a);
 5776              		.loc 3 1523 0
 5777 0024 07F10803 		add	r3, r7, #8
 5778 0028 1946     		mov	r1, r3
 5779 002a 7868     		ldr	r0, [r7, #4]
 5780 002c FFF7FEFF 		bl	lv_obj_get_coords
1524:..\..\..\lvgl\version_6.1.2\lvgl\src\lv_objx/lv_chart.c ****     cir_a.x1 = ((w * i) / (ext->point_cnt - 1)) + x_ofs;
 5781              		.loc 3 1524 0
 5782 0030 B7F91230 		ldrsh	r3, [r7, #18]
 5783 0034 7A88     		ldrh	r2, [r7, #2]
 5784 0036 02FB03F2 		mul	r2, r2, r3
 5785 003a 7B69     		ldr	r3, [r7, #20]
 5786 003c 5B8A     		ldrh	r3, [r3, #18]
 5787 003e 013B     		subs	r3, r3, #1
 5788 0040 92FBF3F3 		sdiv	r3, r2, r3
 5789 0044 9AB2     		uxth	r2, r3
ARM GAS  C:\Users\tmj32\AppData\Local\Temp\ccrrExWC.s 			page 143


 5790 0046 3B8A     		ldrh	r3, [r7, #16]
 5791 0048 1344     		add	r3, r3, r2
 5792 004a 9BB2     		uxth	r3, r3
 5793 004c 1BB2     		sxth	r3, r3
 5794 004e 3B81     		strh	r3, [r7, #8]	@ movhi
1525:..\..\..\lvgl\version_6.1.2\lvgl\src\lv_objx/lv_chart.c ****     cir_a.x2 = cir_a.x1 + ext->series.width;
 5795              		.loc 3 1525 0
 5796 0050 B7F90830 		ldrsh	r3, [r7, #8]
 5797 0054 9AB2     		uxth	r2, r3
 5798 0056 7B69     		ldr	r3, [r7, #20]
 5799 0058 B3F93430 		ldrsh	r3, [r3, #52]
 5800 005c 9BB2     		uxth	r3, r3
 5801 005e 1344     		add	r3, r3, r2
 5802 0060 9BB2     		uxth	r3, r3
 5803 0062 1BB2     		sxth	r3, r3
 5804 0064 BB81     		strh	r3, [r7, #12]	@ movhi
1526:..\..\..\lvgl\version_6.1.2\lvgl\src\lv_objx/lv_chart.c ****     cir_a.x1 -= ext->series.width;
 5805              		.loc 3 1526 0
 5806 0066 B7F90830 		ldrsh	r3, [r7, #8]
 5807 006a 9AB2     		uxth	r2, r3
 5808 006c 7B69     		ldr	r3, [r7, #20]
 5809 006e B3F93430 		ldrsh	r3, [r3, #52]
 5810 0072 9BB2     		uxth	r3, r3
 5811 0074 D31A     		subs	r3, r2, r3
 5812 0076 9BB2     		uxth	r3, r3
 5813 0078 1BB2     		sxth	r3, r3
 5814 007a 3B81     		strh	r3, [r7, #8]	@ movhi
1527:..\..\..\lvgl\version_6.1.2\lvgl\src\lv_objx/lv_chart.c **** 
1528:..\..\..\lvgl\version_6.1.2\lvgl\src\lv_objx/lv_chart.c ****     lv_inv_area(lv_obj_get_disp(chart), &cir_a);
 5815              		.loc 3 1528 0
 5816 007c 7868     		ldr	r0, [r7, #4]
 5817 007e FFF7FEFF 		bl	lv_obj_get_disp
 5818 0082 0246     		mov	r2, r0
 5819 0084 07F10803 		add	r3, r7, #8
 5820 0088 1946     		mov	r1, r3
 5821 008a 1046     		mov	r0, r2
 5822 008c FFF7FEFF 		bl	lv_inv_area
1529:..\..\..\lvgl\version_6.1.2\lvgl\src\lv_objx/lv_chart.c **** }
 5823              		.loc 3 1529 0
 5824 0090 00BF     		nop
 5825 0092 1837     		adds	r7, r7, #24
 5826              		.cfi_def_cfa_offset 8
 5827 0094 BD46     		mov	sp, r7
 5828              		.cfi_def_cfa_register 13
 5829              		@ sp needed
 5830 0096 80BD     		pop	{r7, pc}
 5831              		.cfi_endproc
 5832              	.LFE78:
 5833              		.size	lv_chart_inv_points, .-lv_chart_inv_points
 5834              		.section	.text.lv_chart_inv_cols,"ax",%progbits
 5835              		.align	2
 5836              		.thumb
 5837              		.thumb_func
 5838              		.type	lv_chart_inv_cols, %function
 5839              	lv_chart_inv_cols:
 5840              	.LFB79:
1530:..\..\..\lvgl\version_6.1.2\lvgl\src\lv_objx/lv_chart.c **** 
ARM GAS  C:\Users\tmj32\AppData\Local\Temp\ccrrExWC.s 			page 144


1531:..\..\..\lvgl\version_6.1.2\lvgl\src\lv_objx/lv_chart.c **** /**
1532:..\..\..\lvgl\version_6.1.2\lvgl\src\lv_objx/lv_chart.c ****  * invalid area of the new column data lines on a chart
1533:..\..\..\lvgl\version_6.1.2\lvgl\src\lv_objx/lv_chart.c ****  * @param chart pointer to chart object
1534:..\..\..\lvgl\version_6.1.2\lvgl\src\lv_objx/lv_chart.c ****  * @param mask mask, inherited from the design function
1535:..\..\..\lvgl\version_6.1.2\lvgl\src\lv_objx/lv_chart.c ****  */
1536:..\..\..\lvgl\version_6.1.2\lvgl\src\lv_objx/lv_chart.c **** static void lv_chart_inv_cols(lv_obj_t * chart, uint16_t i)
1537:..\..\..\lvgl\version_6.1.2\lvgl\src\lv_objx/lv_chart.c **** {
 5841              		.loc 3 1537 0
 5842              		.cfi_startproc
 5843              		@ args = 0, pretend = 0, frame = 32
 5844              		@ frame_needed = 1, uses_anonymous_args = 0
 5845 0000 80B5     		push	{r7, lr}
 5846              		.cfi_def_cfa_offset 8
 5847              		.cfi_offset 7, -8
 5848              		.cfi_offset 14, -4
 5849 0002 88B0     		sub	sp, sp, #32
 5850              		.cfi_def_cfa_offset 40
 5851 0004 00AF     		add	r7, sp, #0
 5852              		.cfi_def_cfa_register 7
 5853 0006 7860     		str	r0, [r7, #4]
 5854 0008 0B46     		mov	r3, r1
 5855 000a 7B80     		strh	r3, [r7, #2]	@ movhi
1538:..\..\..\lvgl\version_6.1.2\lvgl\src\lv_objx/lv_chart.c ****     lv_chart_ext_t * ext = lv_obj_get_ext_attr(chart);
 5856              		.loc 3 1538 0
 5857 000c 7868     		ldr	r0, [r7, #4]
 5858 000e FFF7FEFF 		bl	lv_obj_get_ext_attr
 5859 0012 F861     		str	r0, [r7, #28]
1539:..\..\..\lvgl\version_6.1.2\lvgl\src\lv_objx/lv_chart.c **** 
1540:..\..\..\lvgl\version_6.1.2\lvgl\src\lv_objx/lv_chart.c ****     lv_area_t col_a;
1541:..\..\..\lvgl\version_6.1.2\lvgl\src\lv_objx/lv_chart.c ****     lv_coord_t w     = lv_obj_get_width(chart);
 5860              		.loc 3 1541 0
 5861 0014 7868     		ldr	r0, [r7, #4]
 5862 0016 FFF7FEFF 		bl	lv_obj_get_width
 5863 001a 0346     		mov	r3, r0
 5864 001c 7B83     		strh	r3, [r7, #26]	@ movhi
1542:..\..\..\lvgl\version_6.1.2\lvgl\src\lv_objx/lv_chart.c ****     lv_coord_t col_w = w / ((ext->series.num + 1) * ext->point_cnt); /* Suppose + 1 series as separ
 5865              		.loc 3 1542 0
 5866 001e B7F91A20 		ldrsh	r2, [r7, #26]
 5867 0022 FB69     		ldr	r3, [r7, #28]
 5868 0024 93F83630 		ldrb	r3, [r3, #54]	@ zero_extendqisi2
 5869 0028 0133     		adds	r3, r3, #1
 5870 002a F969     		ldr	r1, [r7, #28]
 5871 002c 498A     		ldrh	r1, [r1, #18]
 5872 002e 01FB03F3 		mul	r3, r1, r3
 5873 0032 92FBF3F3 		sdiv	r3, r2, r3
 5874 0036 3B83     		strh	r3, [r7, #24]	@ movhi
1543:..\..\..\lvgl\version_6.1.2\lvgl\src\lv_objx/lv_chart.c ****     lv_coord_t x_ofs = col_w / 2;                                    /*Shift with a half col.*/
 5875              		.loc 3 1543 0
 5876 0038 B7F91830 		ldrsh	r3, [r7, #24]
 5877 003c DA0F     		lsrs	r2, r3, #31
 5878 003e 1344     		add	r3, r3, r2
 5879 0040 5B10     		asrs	r3, r3, #1
 5880 0042 FB82     		strh	r3, [r7, #22]	@ movhi
1544:..\..\..\lvgl\version_6.1.2\lvgl\src\lv_objx/lv_chart.c **** 
1545:..\..\..\lvgl\version_6.1.2\lvgl\src\lv_objx/lv_chart.c ****     lv_coord_t x_act;
1546:..\..\..\lvgl\version_6.1.2\lvgl\src\lv_objx/lv_chart.c **** 
1547:..\..\..\lvgl\version_6.1.2\lvgl\src\lv_objx/lv_chart.c ****     x_act = (int32_t)((int32_t)w * i) / ext->point_cnt;
ARM GAS  C:\Users\tmj32\AppData\Local\Temp\ccrrExWC.s 			page 145


 5881              		.loc 3 1547 0
 5882 0044 B7F91A30 		ldrsh	r3, [r7, #26]
 5883 0048 7A88     		ldrh	r2, [r7, #2]
 5884 004a 02FB03F3 		mul	r3, r2, r3
 5885 004e FA69     		ldr	r2, [r7, #28]
 5886 0050 528A     		ldrh	r2, [r2, #18]
 5887 0052 93FBF2F3 		sdiv	r3, r3, r2
 5888 0056 BB82     		strh	r3, [r7, #20]	@ movhi
1548:..\..\..\lvgl\version_6.1.2\lvgl\src\lv_objx/lv_chart.c ****     x_act += chart->coords.x1 + x_ofs;
 5889              		.loc 3 1548 0
 5890 0058 7B68     		ldr	r3, [r7, #4]
 5891 005a B3F91030 		ldrsh	r3, [r3, #16]
 5892 005e 9AB2     		uxth	r2, r3
 5893 0060 FB8A     		ldrh	r3, [r7, #22]
 5894 0062 1344     		add	r3, r3, r2
 5895 0064 9AB2     		uxth	r2, r3
 5896 0066 BB8A     		ldrh	r3, [r7, #20]
 5897 0068 1344     		add	r3, r3, r2
 5898 006a 9BB2     		uxth	r3, r3
 5899 006c BB82     		strh	r3, [r7, #20]	@ movhi
1549:..\..\..\lvgl\version_6.1.2\lvgl\src\lv_objx/lv_chart.c **** 
1550:..\..\..\lvgl\version_6.1.2\lvgl\src\lv_objx/lv_chart.c ****     lv_obj_get_coords(chart, &col_a);
 5900              		.loc 3 1550 0
 5901 006e 07F10C03 		add	r3, r7, #12
 5902 0072 1946     		mov	r1, r3
 5903 0074 7868     		ldr	r0, [r7, #4]
 5904 0076 FFF7FEFF 		bl	lv_obj_get_coords
1551:..\..\..\lvgl\version_6.1.2\lvgl\src\lv_objx/lv_chart.c ****     col_a.x1 = x_act;
 5905              		.loc 3 1551 0
 5906 007a BB8A     		ldrh	r3, [r7, #20]	@ movhi
 5907 007c BB81     		strh	r3, [r7, #12]	@ movhi
1552:..\..\..\lvgl\version_6.1.2\lvgl\src\lv_objx/lv_chart.c ****     col_a.x2 = col_a.x1 + col_w;
 5908              		.loc 3 1552 0
 5909 007e B7F90C30 		ldrsh	r3, [r7, #12]
 5910 0082 9AB2     		uxth	r2, r3
 5911 0084 3B8B     		ldrh	r3, [r7, #24]
 5912 0086 1344     		add	r3, r3, r2
 5913 0088 9BB2     		uxth	r3, r3
 5914 008a 1BB2     		sxth	r3, r3
 5915 008c 3B82     		strh	r3, [r7, #16]	@ movhi
1553:..\..\..\lvgl\version_6.1.2\lvgl\src\lv_objx/lv_chart.c **** 
1554:..\..\..\lvgl\version_6.1.2\lvgl\src\lv_objx/lv_chart.c ****     lv_inv_area(lv_obj_get_disp(chart), &col_a);
 5916              		.loc 3 1554 0
 5917 008e 7868     		ldr	r0, [r7, #4]
 5918 0090 FFF7FEFF 		bl	lv_obj_get_disp
 5919 0094 0246     		mov	r2, r0
 5920 0096 07F10C03 		add	r3, r7, #12
 5921 009a 1946     		mov	r1, r3
 5922 009c 1046     		mov	r0, r2
 5923 009e FFF7FEFF 		bl	lv_inv_area
1555:..\..\..\lvgl\version_6.1.2\lvgl\src\lv_objx/lv_chart.c **** }
 5924              		.loc 3 1555 0
 5925 00a2 00BF     		nop
 5926 00a4 2037     		adds	r7, r7, #32
 5927              		.cfi_def_cfa_offset 8
 5928 00a6 BD46     		mov	sp, r7
 5929              		.cfi_def_cfa_register 13
ARM GAS  C:\Users\tmj32\AppData\Local\Temp\ccrrExWC.s 			page 146


 5930              		@ sp needed
 5931 00a8 80BD     		pop	{r7, pc}
 5932              		.cfi_endproc
 5933              	.LFE79:
 5934              		.size	lv_chart_inv_cols, .-lv_chart_inv_cols
 5935 00aa 00BF     		.text
 5936              	.Letext0:
 5937              		.file 4 "c:\\program files (x86)\\cypress\\psoc creator\\4.3\\psoc creator\\import\\gnu\\arm\\5.4.
 5938              		.file 5 "c:\\program files (x86)\\cypress\\psoc creator\\4.3\\psoc creator\\import\\gnu\\arm\\5.4.
 5939              		.file 6 "..\\..\\..\\lvgl\\version_6.1.2\\lvgl\\src\\lv_objx\\../../../lv_conf.h"
 5940              		.file 7 "..\\..\\..\\lvgl\\version_6.1.2\\lvgl\\src\\lv_objx\\../lv_core/../lv_font/lv_font.h"
 5941              		.file 8 "..\\..\\..\\lvgl\\version_6.1.2\\lvgl\\src\\lv_objx\\../lv_core/../lv_misc/lv_area.h"
 5942              		.file 9 "..\\..\\..\\lvgl\\version_6.1.2\\lvgl\\src\\lv_objx\\../lv_core/lv_style.h"
 5943              		.file 10 "..\\..\\..\\lvgl\\version_6.1.2\\lvgl\\src\\lv_objx\\../lv_core/../lv_misc/lv_types.h"
 5944              		.file 11 "..\\..\\..\\lvgl\\version_6.1.2\\lvgl\\src\\lv_objx\\../lv_core/../lv_misc/lv_ll.h"
 5945              		.file 12 "..\\..\\..\\lvgl\\version_6.1.2\\lvgl\\src\\lv_objx\\../lv_core/../lv_misc/lv_bidi.h"
 5946              		.file 13 "..\\..\\..\\lvgl\\version_6.1.2\\lvgl\\src\\lv_objx\\../lv_core/lv_obj.h"
 5947              		.file 14 "..\\..\\..\\lvgl\\version_6.1.2\\lvgl\\src\\lv_objx\\../lv_draw/../lv_misc/lv_txt.h"
 5948              		.file 15 "..\\..\\..\\lvgl\\version_6.1.2\\lvgl\\src\\lv_objx\\../lv_themes/lv_theme.h"
 5949              		.section	.debug_info,"",%progbits
 5950              	.Ldebug_info0:
 5951 0000 312A0000 		.4byte	0x2a31
 5952 0004 0400     		.2byte	0x4
 5953 0006 00000000 		.4byte	.Ldebug_abbrev0
 5954 000a 04       		.byte	0x4
 5955 000b 01       		.uleb128 0x1
 5956 000c 350D0000 		.4byte	.LASF353
 5957 0010 0C       		.byte	0xc
 5958 0011 2D0E0000 		.4byte	.LASF354
 5959 0015 52080000 		.4byte	.LASF355
 5960 0019 30000000 		.4byte	.Ldebug_ranges0+0x30
 5961 001d 00000000 		.4byte	0
 5962 0021 00000000 		.4byte	.Ldebug_line0
 5963 0025 02       		.uleb128 0x2
 5964 0026 1C0C0000 		.4byte	.LASF0
 5965 002a 04       		.byte	0x4
 5966 002b 1B       		.byte	0x1b
 5967 002c 30000000 		.4byte	0x30
 5968 0030 03       		.uleb128 0x3
 5969 0031 01       		.byte	0x1
 5970 0032 06       		.byte	0x6
 5971 0033 C0030000 		.4byte	.LASF2
 5972 0037 02       		.uleb128 0x2
 5973 0038 B0020000 		.4byte	.LASF1
 5974 003c 04       		.byte	0x4
 5975 003d 1D       		.byte	0x1d
 5976 003e 42000000 		.4byte	0x42
 5977 0042 03       		.uleb128 0x3
 5978 0043 01       		.byte	0x1
 5979 0044 08       		.byte	0x8
 5980 0045 81040000 		.4byte	.LASF3
 5981 0049 02       		.uleb128 0x2
 5982 004a FA0D0000 		.4byte	.LASF4
 5983 004e 04       		.byte	0x4
 5984 004f 29       		.byte	0x29
 5985 0050 54000000 		.4byte	0x54
 5986 0054 03       		.uleb128 0x3
ARM GAS  C:\Users\tmj32\AppData\Local\Temp\ccrrExWC.s 			page 147


 5987 0055 02       		.byte	0x2
 5988 0056 05       		.byte	0x5
 5989 0057 880F0000 		.4byte	.LASF5
 5990 005b 02       		.uleb128 0x2
 5991 005c 3F050000 		.4byte	.LASF6
 5992 0060 04       		.byte	0x4
 5993 0061 2B       		.byte	0x2b
 5994 0062 66000000 		.4byte	0x66
 5995 0066 03       		.uleb128 0x3
 5996 0067 02       		.byte	0x2
 5997 0068 07       		.byte	0x7
 5998 0069 BA110000 		.4byte	.LASF7
 5999 006d 02       		.uleb128 0x2
 6000 006e 22120000 		.4byte	.LASF8
 6001 0072 04       		.byte	0x4
 6002 0073 3F       		.byte	0x3f
 6003 0074 78000000 		.4byte	0x78
 6004 0078 03       		.uleb128 0x3
 6005 0079 04       		.byte	0x4
 6006 007a 05       		.byte	0x5
 6007 007b 09030000 		.4byte	.LASF9
 6008 007f 02       		.uleb128 0x2
 6009 0080 16080000 		.4byte	.LASF10
 6010 0084 04       		.byte	0x4
 6011 0085 41       		.byte	0x41
 6012 0086 8A000000 		.4byte	0x8a
 6013 008a 03       		.uleb128 0x3
 6014 008b 04       		.byte	0x4
 6015 008c 07       		.byte	0x7
 6016 008d 2F070000 		.4byte	.LASF11
 6017 0091 03       		.uleb128 0x3
 6018 0092 08       		.byte	0x8
 6019 0093 05       		.byte	0x5
 6020 0094 44080000 		.4byte	.LASF12
 6021 0098 03       		.uleb128 0x3
 6022 0099 08       		.byte	0x8
 6023 009a 07       		.byte	0x7
 6024 009b 370C0000 		.4byte	.LASF13
 6025 009f 04       		.uleb128 0x4
 6026 00a0 04       		.byte	0x4
 6027 00a1 05       		.byte	0x5
 6028 00a2 696E7400 		.ascii	"int\000"
 6029 00a6 03       		.uleb128 0x3
 6030 00a7 04       		.byte	0x4
 6031 00a8 07       		.byte	0x7
 6032 00a9 9C090000 		.4byte	.LASF14
 6033 00ad 02       		.uleb128 0x2
 6034 00ae 1D000000 		.4byte	.LASF15
 6035 00b2 05       		.byte	0x5
 6036 00b3 14       		.byte	0x14
 6037 00b4 25000000 		.4byte	0x25
 6038 00b8 02       		.uleb128 0x2
 6039 00b9 CC030000 		.4byte	.LASF16
 6040 00bd 05       		.byte	0x5
 6041 00be 18       		.byte	0x18
 6042 00bf 37000000 		.4byte	0x37
 6043 00c3 02       		.uleb128 0x2
ARM GAS  C:\Users\tmj32\AppData\Local\Temp\ccrrExWC.s 			page 148


 6044 00c4 CE0F0000 		.4byte	.LASF17
 6045 00c8 05       		.byte	0x5
 6046 00c9 20       		.byte	0x20
 6047 00ca 49000000 		.4byte	0x49
 6048 00ce 02       		.uleb128 0x2
 6049 00cf 830C0000 		.4byte	.LASF18
 6050 00d3 05       		.byte	0x5
 6051 00d4 24       		.byte	0x24
 6052 00d5 5B000000 		.4byte	0x5b
 6053 00d9 02       		.uleb128 0x2
 6054 00da F2000000 		.4byte	.LASF19
 6055 00de 05       		.byte	0x5
 6056 00df 2C       		.byte	0x2c
 6057 00e0 6D000000 		.4byte	0x6d
 6058 00e4 02       		.uleb128 0x2
 6059 00e5 3E110000 		.4byte	.LASF20
 6060 00e9 05       		.byte	0x5
 6061 00ea 30       		.byte	0x30
 6062 00eb 7F000000 		.4byte	0x7f
 6063 00ef 02       		.uleb128 0x2
 6064 00f0 CD110000 		.4byte	.LASF21
 6065 00f4 06       		.byte	0x6
 6066 00f5 3C       		.byte	0x3c
 6067 00f6 C3000000 		.4byte	0xc3
 6068 00fa 05       		.uleb128 0x5
 6069 00fb 04       		.byte	0x4
 6070 00fc 03       		.uleb128 0x3
 6071 00fd 08       		.byte	0x8
 6072 00fe 04       		.byte	0x4
 6073 00ff 470B0000 		.4byte	.LASF22
 6074 0103 06       		.uleb128 0x6
 6075 0104 08       		.byte	0x8
 6076 0105 07       		.byte	0x7
 6077 0106 2E       		.byte	0x2e
 6078 0107 54010000 		.4byte	0x154
 6079 010b 07       		.uleb128 0x7
 6080 010c 31000000 		.4byte	.LASF23
 6081 0110 07       		.byte	0x7
 6082 0111 30       		.byte	0x30
 6083 0112 CE000000 		.4byte	0xce
 6084 0116 00       		.byte	0
 6085 0117 07       		.uleb128 0x7
 6086 0118 820F0000 		.4byte	.LASF24
 6087 011c 07       		.byte	0x7
 6088 011d 31       		.byte	0x31
 6089 011e B8000000 		.4byte	0xb8
 6090 0122 02       		.byte	0x2
 6091 0123 07       		.uleb128 0x7
 6092 0124 600F0000 		.4byte	.LASF25
 6093 0128 07       		.byte	0x7
 6094 0129 32       		.byte	0x32
 6095 012a B8000000 		.4byte	0xb8
 6096 012e 03       		.byte	0x3
 6097 012f 07       		.uleb128 0x7
 6098 0130 E9040000 		.4byte	.LASF26
 6099 0134 07       		.byte	0x7
 6100 0135 33       		.byte	0x33
ARM GAS  C:\Users\tmj32\AppData\Local\Temp\ccrrExWC.s 			page 149


 6101 0136 AD000000 		.4byte	0xad
 6102 013a 04       		.byte	0x4
 6103 013b 07       		.uleb128 0x7
 6104 013c EF040000 		.4byte	.LASF27
 6105 0140 07       		.byte	0x7
 6106 0141 34       		.byte	0x34
 6107 0142 AD000000 		.4byte	0xad
 6108 0146 05       		.byte	0x5
 6109 0147 08       		.uleb128 0x8
 6110 0148 62707000 		.ascii	"bpp\000"
 6111 014c 07       		.byte	0x7
 6112 014d 35       		.byte	0x35
 6113 014e B8000000 		.4byte	0xb8
 6114 0152 06       		.byte	0x6
 6115 0153 00       		.byte	0
 6116 0154 02       		.uleb128 0x2
 6117 0155 980A0000 		.4byte	.LASF28
 6118 0159 07       		.byte	0x7
 6119 015a 36       		.byte	0x36
 6120 015b 03010000 		.4byte	0x103
 6121 015f 09       		.uleb128 0x9
 6122 0160 99120000 		.4byte	.LASF97
 6123 0164 10       		.byte	0x10
 6124 0165 07       		.byte	0x7
 6125 0166 44       		.byte	0x44
 6126 0167 B7010000 		.4byte	0x1b7
 6127 016b 07       		.uleb128 0x7
 6128 016c 14120000 		.4byte	.LASF29
 6129 0170 07       		.byte	0x7
 6130 0171 47       		.byte	0x47
 6131 0172 ED010000 		.4byte	0x1ed
 6132 0176 00       		.byte	0
 6133 0177 07       		.uleb128 0x7
 6134 0178 4D040000 		.4byte	.LASF30
 6135 017c 07       		.byte	0x7
 6136 017d 4A       		.byte	0x4a
 6137 017e 12020000 		.4byte	0x212
 6138 0182 04       		.byte	0x4
 6139 0183 07       		.uleb128 0x7
 6140 0184 58010000 		.4byte	.LASF31
 6141 0188 07       		.byte	0x7
 6142 0189 4D       		.byte	0x4d
 6143 018a B8000000 		.4byte	0xb8
 6144 018e 08       		.byte	0x8
 6145 018f 07       		.uleb128 0x7
 6146 0190 920F0000 		.4byte	.LASF32
 6147 0194 07       		.byte	0x7
 6148 0195 4E       		.byte	0x4e
 6149 0196 AD000000 		.4byte	0xad
 6150 019a 09       		.byte	0x9
 6151 019b 0A       		.uleb128 0xa
 6152 019c 8A0B0000 		.4byte	.LASF80
 6153 01a0 07       		.byte	0x7
 6154 01a1 4F       		.byte	0x4f
 6155 01a2 B8000000 		.4byte	0xb8
 6156 01a6 01       		.byte	0x1
 6157 01a7 02       		.byte	0x2
ARM GAS  C:\Users\tmj32\AppData\Local\Temp\ccrrExWC.s 			page 150


 6158 01a8 06       		.byte	0x6
 6159 01a9 0A       		.byte	0xa
 6160 01aa 08       		.uleb128 0x8
 6161 01ab 64736300 		.ascii	"dsc\000"
 6162 01af 07       		.byte	0x7
 6163 01b0 50       		.byte	0x50
 6164 01b1 FA000000 		.4byte	0xfa
 6165 01b5 0C       		.byte	0xc
 6166 01b6 00       		.byte	0
 6167 01b7 0B       		.uleb128 0xb
 6168 01b8 D5010000 		.4byte	0x1d5
 6169 01bc D5010000 		.4byte	0x1d5
 6170 01c0 0C       		.uleb128 0xc
 6171 01c1 DC010000 		.4byte	0x1dc
 6172 01c5 0C       		.uleb128 0xc
 6173 01c6 E7010000 		.4byte	0x1e7
 6174 01ca 0C       		.uleb128 0xc
 6175 01cb E4000000 		.4byte	0xe4
 6176 01cf 0C       		.uleb128 0xc
 6177 01d0 E4000000 		.4byte	0xe4
 6178 01d4 00       		.byte	0
 6179 01d5 03       		.uleb128 0x3
 6180 01d6 01       		.byte	0x1
 6181 01d7 02       		.byte	0x2
 6182 01d8 01050000 		.4byte	.LASF33
 6183 01dc 0D       		.uleb128 0xd
 6184 01dd 04       		.byte	0x4
 6185 01de E2010000 		.4byte	0x1e2
 6186 01e2 0E       		.uleb128 0xe
 6187 01e3 5F010000 		.4byte	0x15f
 6188 01e7 0D       		.uleb128 0xd
 6189 01e8 04       		.byte	0x4
 6190 01e9 54010000 		.4byte	0x154
 6191 01ed 0D       		.uleb128 0xd
 6192 01ee 04       		.byte	0x4
 6193 01ef B7010000 		.4byte	0x1b7
 6194 01f3 0B       		.uleb128 0xb
 6195 01f4 07020000 		.4byte	0x207
 6196 01f8 07020000 		.4byte	0x207
 6197 01fc 0C       		.uleb128 0xc
 6198 01fd DC010000 		.4byte	0x1dc
 6199 0201 0C       		.uleb128 0xc
 6200 0202 E4000000 		.4byte	0xe4
 6201 0206 00       		.byte	0
 6202 0207 0D       		.uleb128 0xd
 6203 0208 04       		.byte	0x4
 6204 0209 0D020000 		.4byte	0x20d
 6205 020d 0E       		.uleb128 0xe
 6206 020e B8000000 		.4byte	0xb8
 6207 0212 0D       		.uleb128 0xd
 6208 0213 04       		.byte	0x4
 6209 0214 F3010000 		.4byte	0x1f3
 6210 0218 02       		.uleb128 0x2
 6211 0219 94110000 		.4byte	.LASF34
 6212 021d 07       		.byte	0x7
 6213 021e 56       		.byte	0x56
 6214 021f 5F010000 		.4byte	0x15f
ARM GAS  C:\Users\tmj32\AppData\Local\Temp\ccrrExWC.s 			page 151


 6215 0223 0F       		.uleb128 0xf
 6216 0224 01       		.byte	0x1
 6217 0225 42000000 		.4byte	0x42
 6218 0229 01       		.byte	0x1
 6219 022a 3E       		.byte	0x3e
 6220 022b 7E020000 		.4byte	0x27e
 6221 022f 10       		.uleb128 0x10
 6222 0230 6B090000 		.4byte	.LASF35
 6223 0234 00       		.byte	0
 6224 0235 10       		.uleb128 0x10
 6225 0236 85070000 		.4byte	.LASF36
 6226 023a 00       		.byte	0
 6227 023b 10       		.uleb128 0x10
 6228 023c 180D0000 		.4byte	.LASF37
 6229 0240 19       		.byte	0x19
 6230 0241 10       		.uleb128 0x10
 6231 0242 1D0E0000 		.4byte	.LASF38
 6232 0246 33       		.byte	0x33
 6233 0247 10       		.uleb128 0x10
 6234 0248 400F0000 		.4byte	.LASF39
 6235 024c 4C       		.byte	0x4c
 6236 024d 10       		.uleb128 0x10
 6237 024e C40F0000 		.4byte	.LASF40
 6238 0252 66       		.byte	0x66
 6239 0253 10       		.uleb128 0x10
 6240 0254 73100000 		.4byte	.LASF41
 6241 0258 7F       		.byte	0x7f
 6242 0259 10       		.uleb128 0x10
 6243 025a 22110000 		.4byte	.LASF42
 6244 025e 99       		.byte	0x99
 6245 025f 10       		.uleb128 0x10
 6246 0260 B0110000 		.4byte	.LASF43
 6247 0264 B2       		.byte	0xb2
 6248 0265 10       		.uleb128 0x10
 6249 0266 58120000 		.4byte	.LASF44
 6250 026a CC       		.byte	0xcc
 6251 026b 10       		.uleb128 0x10
 6252 026c CB120000 		.4byte	.LASF45
 6253 0270 E5       		.byte	0xe5
 6254 0271 10       		.uleb128 0x10
 6255 0272 E80A0000 		.4byte	.LASF46
 6256 0276 FF       		.byte	0xff
 6257 0277 10       		.uleb128 0x10
 6258 0278 900B0000 		.4byte	.LASF47
 6259 027c FF       		.byte	0xff
 6260 027d 00       		.byte	0
 6261 027e 06       		.uleb128 0x6
 6262 027f 04       		.byte	0x4
 6263 0280 01       		.byte	0x1
 6264 0281 F3       		.byte	0xf3
 6265 0282 B7020000 		.4byte	0x2b7
 6266 0286 07       		.uleb128 0x7
 6267 0287 63040000 		.4byte	.LASF48
 6268 028b 01       		.byte	0x1
 6269 028c F5       		.byte	0xf5
 6270 028d B8000000 		.4byte	0xb8
 6271 0291 00       		.byte	0
ARM GAS  C:\Users\tmj32\AppData\Local\Temp\ccrrExWC.s 			page 152


 6272 0292 07       		.uleb128 0x7
 6273 0293 8E110000 		.4byte	.LASF49
 6274 0297 01       		.byte	0x1
 6275 0298 F6       		.byte	0xf6
 6276 0299 B8000000 		.4byte	0xb8
 6277 029d 01       		.byte	0x1
 6278 029e 08       		.uleb128 0x8
 6279 029f 72656400 		.ascii	"red\000"
 6280 02a3 01       		.byte	0x1
 6281 02a4 F7       		.byte	0xf7
 6282 02a5 B8000000 		.4byte	0xb8
 6283 02a9 02       		.byte	0x2
 6284 02aa 07       		.uleb128 0x7
 6285 02ab C6020000 		.4byte	.LASF50
 6286 02af 01       		.byte	0x1
 6287 02b0 F8       		.byte	0xf8
 6288 02b1 B8000000 		.4byte	0xb8
 6289 02b5 03       		.byte	0x3
 6290 02b6 00       		.byte	0
 6291 02b7 11       		.uleb128 0x11
 6292 02b8 04       		.byte	0x4
 6293 02b9 01       		.byte	0x1
 6294 02ba F1       		.byte	0xf1
 6295 02bb D5020000 		.4byte	0x2d5
 6296 02bf 12       		.uleb128 0x12
 6297 02c0 636800   		.ascii	"ch\000"
 6298 02c3 01       		.byte	0x1
 6299 02c4 F9       		.byte	0xf9
 6300 02c5 7E020000 		.4byte	0x27e
 6301 02c9 13       		.uleb128 0x13
 6302 02ca 0A0E0000 		.4byte	.LASF51
 6303 02ce 01       		.byte	0x1
 6304 02cf FA       		.byte	0xfa
 6305 02d0 E4000000 		.4byte	0xe4
 6306 02d4 00       		.byte	0
 6307 02d5 02       		.uleb128 0x2
 6308 02d6 A1000000 		.4byte	.LASF52
 6309 02da 01       		.byte	0x1
 6310 02db FB       		.byte	0xfb
 6311 02dc B7020000 		.4byte	0x2b7
 6312 02e0 14       		.uleb128 0x14
 6313 02e1 960C0000 		.4byte	.LASF53
 6314 02e5 01       		.byte	0x1
 6315 02e6 0801     		.2byte	0x108
 6316 02e8 D5020000 		.4byte	0x2d5
 6317 02ec 14       		.uleb128 0x14
 6318 02ed E9000000 		.4byte	.LASF54
 6319 02f1 01       		.byte	0x1
 6320 02f2 0D01     		.2byte	0x10d
 6321 02f4 B8000000 		.4byte	0xb8
 6322 02f8 03       		.uleb128 0x3
 6323 02f9 04       		.byte	0x4
 6324 02fa 07       		.byte	0x7
 6325 02fb 41000000 		.4byte	.LASF55
 6326 02ff 0D       		.uleb128 0xd
 6327 0300 04       		.byte	0x4
 6328 0301 05030000 		.4byte	0x305
ARM GAS  C:\Users\tmj32\AppData\Local\Temp\ccrrExWC.s 			page 153


 6329 0305 03       		.uleb128 0x3
 6330 0306 01       		.byte	0x1
 6331 0307 08       		.byte	0x8
 6332 0308 1C050000 		.4byte	.LASF56
 6333 030c 0D       		.uleb128 0xd
 6334 030d 04       		.byte	0x4
 6335 030e 12030000 		.4byte	0x312
 6336 0312 0E       		.uleb128 0xe
 6337 0313 05030000 		.4byte	0x305
 6338 0317 06       		.uleb128 0x6
 6339 0318 04       		.byte	0x4
 6340 0319 08       		.byte	0x8
 6341 031a 2A       		.byte	0x2a
 6342 031b 34030000 		.4byte	0x334
 6343 031f 08       		.uleb128 0x8
 6344 0320 7800     		.ascii	"x\000"
 6345 0322 08       		.byte	0x8
 6346 0323 2C       		.byte	0x2c
 6347 0324 EF000000 		.4byte	0xef
 6348 0328 00       		.byte	0
 6349 0329 08       		.uleb128 0x8
 6350 032a 7900     		.ascii	"y\000"
 6351 032c 08       		.byte	0x8
 6352 032d 2D       		.byte	0x2d
 6353 032e EF000000 		.4byte	0xef
 6354 0332 02       		.byte	0x2
 6355 0333 00       		.byte	0
 6356 0334 02       		.uleb128 0x2
 6357 0335 1D010000 		.4byte	.LASF57
 6358 0339 08       		.byte	0x8
 6359 033a 2E       		.byte	0x2e
 6360 033b 17030000 		.4byte	0x317
 6361 033f 06       		.uleb128 0x6
 6362 0340 08       		.byte	0x8
 6363 0341 08       		.byte	0x8
 6364 0342 31       		.byte	0x31
 6365 0343 74030000 		.4byte	0x374
 6366 0347 08       		.uleb128 0x8
 6367 0348 783100   		.ascii	"x1\000"
 6368 034b 08       		.byte	0x8
 6369 034c 33       		.byte	0x33
 6370 034d EF000000 		.4byte	0xef
 6371 0351 00       		.byte	0
 6372 0352 08       		.uleb128 0x8
 6373 0353 793100   		.ascii	"y1\000"
 6374 0356 08       		.byte	0x8
 6375 0357 34       		.byte	0x34
 6376 0358 EF000000 		.4byte	0xef
 6377 035c 02       		.byte	0x2
 6378 035d 08       		.uleb128 0x8
 6379 035e 783200   		.ascii	"x2\000"
 6380 0361 08       		.byte	0x8
 6381 0362 35       		.byte	0x35
 6382 0363 EF000000 		.4byte	0xef
 6383 0367 04       		.byte	0x4
 6384 0368 08       		.uleb128 0x8
 6385 0369 793200   		.ascii	"y2\000"
ARM GAS  C:\Users\tmj32\AppData\Local\Temp\ccrrExWC.s 			page 154


 6386 036c 08       		.byte	0x8
 6387 036d 36       		.byte	0x36
 6388 036e EF000000 		.4byte	0xef
 6389 0372 06       		.byte	0x6
 6390 0373 00       		.byte	0
 6391 0374 02       		.uleb128 0x2
 6392 0375 73060000 		.4byte	.LASF58
 6393 0379 08       		.byte	0x8
 6394 037a 37       		.byte	0x37
 6395 037b 3F030000 		.4byte	0x33f
 6396 037f 02       		.uleb128 0x2
 6397 0380 3F120000 		.4byte	.LASF59
 6398 0384 09       		.byte	0x9
 6399 0385 2C       		.byte	0x2c
 6400 0386 B8000000 		.4byte	0xb8
 6401 038a 02       		.uleb128 0x2
 6402 038b AB0E0000 		.4byte	.LASF60
 6403 038f 09       		.byte	0x9
 6404 0390 33       		.byte	0x33
 6405 0391 B8000000 		.4byte	0xb8
 6406 0395 06       		.uleb128 0x6
 6407 0396 08       		.byte	0x8
 6408 0397 09       		.byte	0x9
 6409 0398 48       		.byte	0x48
 6410 0399 CE030000 		.4byte	0x3ce
 6411 039d 07       		.uleb128 0x7
 6412 039e 270E0000 		.4byte	.LASF61
 6413 03a2 09       		.byte	0x9
 6414 03a3 4A       		.byte	0x4a
 6415 03a4 E0020000 		.4byte	0x2e0
 6416 03a8 00       		.byte	0
 6417 03a9 07       		.uleb128 0x7
 6418 03aa EF080000 		.4byte	.LASF62
 6419 03ae 09       		.byte	0x9
 6420 03af 4B       		.byte	0x4b
 6421 03b0 EF000000 		.4byte	0xef
 6422 03b4 04       		.byte	0x4
 6423 03b5 07       		.uleb128 0x7
 6424 03b6 A9120000 		.4byte	.LASF63
 6425 03ba 09       		.byte	0x9
 6426 03bb 4C       		.byte	0x4c
 6427 03bc 7F030000 		.4byte	0x37f
 6428 03c0 06       		.byte	0x6
 6429 03c1 08       		.uleb128 0x8
 6430 03c2 6F706100 		.ascii	"opa\000"
 6431 03c6 09       		.byte	0x9
 6432 03c7 4D       		.byte	0x4d
 6433 03c8 EC020000 		.4byte	0x2ec
 6434 03cc 07       		.byte	0x7
 6435 03cd 00       		.byte	0
 6436 03ce 06       		.uleb128 0x6
 6437 03cf 08       		.byte	0x8
 6438 03d0 09       		.byte	0x9
 6439 03d1 51       		.byte	0x51
 6440 03d2 FB030000 		.4byte	0x3fb
 6441 03d6 07       		.uleb128 0x7
 6442 03d7 270E0000 		.4byte	.LASF61
ARM GAS  C:\Users\tmj32\AppData\Local\Temp\ccrrExWC.s 			page 155


 6443 03db 09       		.byte	0x9
 6444 03dc 53       		.byte	0x53
 6445 03dd E0020000 		.4byte	0x2e0
 6446 03e1 00       		.byte	0
 6447 03e2 07       		.uleb128 0x7
 6448 03e3 EF080000 		.4byte	.LASF62
 6449 03e7 09       		.byte	0x9
 6450 03e8 54       		.byte	0x54
 6451 03e9 EF000000 		.4byte	0xef
 6452 03ed 04       		.byte	0x4
 6453 03ee 07       		.uleb128 0x7
 6454 03ef 45020000 		.4byte	.LASF64
 6455 03f3 09       		.byte	0x9
 6456 03f4 55       		.byte	0x55
 6457 03f5 8A030000 		.4byte	0x38a
 6458 03f9 06       		.byte	0x6
 6459 03fa 00       		.byte	0
 6460 03fb 06       		.uleb128 0x6
 6461 03fc 0A       		.byte	0xa
 6462 03fd 09       		.byte	0x9
 6463 03fe 58       		.byte	0x58
 6464 03ff 40040000 		.4byte	0x440
 6465 0403 08       		.uleb128 0x8
 6466 0404 746F7000 		.ascii	"top\000"
 6467 0408 09       		.byte	0x9
 6468 0409 5A       		.byte	0x5a
 6469 040a EF000000 		.4byte	0xef
 6470 040e 00       		.byte	0
 6471 040f 07       		.uleb128 0x7
 6472 0410 07090000 		.4byte	.LASF65
 6473 0414 09       		.byte	0x9
 6474 0415 5B       		.byte	0x5b
 6475 0416 EF000000 		.4byte	0xef
 6476 041a 02       		.byte	0x2
 6477 041b 07       		.uleb128 0x7
 6478 041c A9060000 		.4byte	.LASF66
 6479 0420 09       		.byte	0x9
 6480 0421 5C       		.byte	0x5c
 6481 0422 EF000000 		.4byte	0xef
 6482 0426 04       		.byte	0x4
 6483 0427 07       		.uleb128 0x7
 6484 0428 2A080000 		.4byte	.LASF67
 6485 042c 09       		.byte	0x9
 6486 042d 5D       		.byte	0x5d
 6487 042e EF000000 		.4byte	0xef
 6488 0432 06       		.byte	0x6
 6489 0433 07       		.uleb128 0x7
 6490 0434 23070000 		.4byte	.LASF68
 6491 0438 09       		.byte	0x9
 6492 0439 5E       		.byte	0x5e
 6493 043a EF000000 		.4byte	0xef
 6494 043e 08       		.byte	0x8
 6495 043f 00       		.byte	0
 6496 0440 06       		.uleb128 0x6
 6497 0441 28       		.byte	0x28
 6498 0442 09       		.byte	0x9
 6499 0443 41       		.byte	0x41
ARM GAS  C:\Users\tmj32\AppData\Local\Temp\ccrrExWC.s 			page 156


 6500 0444 9D040000 		.4byte	0x49d
 6501 0448 07       		.uleb128 0x7
 6502 0449 110C0000 		.4byte	.LASF69
 6503 044d 09       		.byte	0x9
 6504 044e 43       		.byte	0x43
 6505 044f E0020000 		.4byte	0x2e0
 6506 0453 00       		.byte	0
 6507 0454 07       		.uleb128 0x7
 6508 0455 B60A0000 		.4byte	.LASF70
 6509 0459 09       		.byte	0x9
 6510 045a 44       		.byte	0x44
 6511 045b E0020000 		.4byte	0x2e0
 6512 045f 04       		.byte	0x4
 6513 0460 07       		.uleb128 0x7
 6514 0461 44010000 		.4byte	.LASF71
 6515 0465 09       		.byte	0x9
 6516 0466 45       		.byte	0x45
 6517 0467 EF000000 		.4byte	0xef
 6518 046b 08       		.byte	0x8
 6519 046c 08       		.uleb128 0x8
 6520 046d 6F706100 		.ascii	"opa\000"
 6521 0471 09       		.byte	0x9
 6522 0472 46       		.byte	0x46
 6523 0473 EC020000 		.4byte	0x2ec
 6524 0477 0A       		.byte	0xa
 6525 0478 07       		.uleb128 0x7
 6526 0479 07120000 		.4byte	.LASF72
 6527 047d 09       		.byte	0x9
 6528 047e 4E       		.byte	0x4e
 6529 047f 95030000 		.4byte	0x395
 6530 0483 0C       		.byte	0xc
 6531 0484 07       		.uleb128 0x7
 6532 0485 6C100000 		.4byte	.LASF73
 6533 0489 09       		.byte	0x9
 6534 048a 56       		.byte	0x56
 6535 048b CE030000 		.4byte	0x3ce
 6536 048f 14       		.byte	0x14
 6537 0490 07       		.uleb128 0x7
 6538 0491 05110000 		.4byte	.LASF74
 6539 0495 09       		.byte	0x9
 6540 0496 5F       		.byte	0x5f
 6541 0497 FB030000 		.4byte	0x3fb
 6542 049b 1C       		.byte	0x1c
 6543 049c 00       		.byte	0
 6544 049d 06       		.uleb128 0x6
 6545 049e 14       		.byte	0x14
 6546 049f 09       		.byte	0x9
 6547 04a0 63       		.byte	0x63
 6548 04a1 EE040000 		.4byte	0x4ee
 6549 04a5 07       		.uleb128 0x7
 6550 04a6 270E0000 		.4byte	.LASF61
 6551 04aa 09       		.byte	0x9
 6552 04ab 65       		.byte	0x65
 6553 04ac E0020000 		.4byte	0x2e0
 6554 04b0 00       		.byte	0
 6555 04b1 07       		.uleb128 0x7
 6556 04b2 8F120000 		.4byte	.LASF75
ARM GAS  C:\Users\tmj32\AppData\Local\Temp\ccrrExWC.s 			page 157


 6557 04b6 09       		.byte	0x9
 6558 04b7 66       		.byte	0x66
 6559 04b8 E0020000 		.4byte	0x2e0
 6560 04bc 04       		.byte	0x4
 6561 04bd 07       		.uleb128 0x7
 6562 04be 2E0F0000 		.4byte	.LASF76
 6563 04c2 09       		.byte	0x9
 6564 04c3 67       		.byte	0x67
 6565 04c4 EE040000 		.4byte	0x4ee
 6566 04c8 08       		.byte	0x8
 6567 04c9 07       		.uleb128 0x7
 6568 04ca 330F0000 		.4byte	.LASF77
 6569 04ce 09       		.byte	0x9
 6570 04cf 68       		.byte	0x68
 6571 04d0 EF000000 		.4byte	0xef
 6572 04d4 0C       		.byte	0xc
 6573 04d5 07       		.uleb128 0x7
 6574 04d6 7E0E0000 		.4byte	.LASF78
 6575 04da 09       		.byte	0x9
 6576 04db 69       		.byte	0x69
 6577 04dc EF000000 		.4byte	0xef
 6578 04e0 0E       		.byte	0xe
 6579 04e1 08       		.uleb128 0x8
 6580 04e2 6F706100 		.ascii	"opa\000"
 6581 04e6 09       		.byte	0x9
 6582 04e7 6A       		.byte	0x6a
 6583 04e8 EC020000 		.4byte	0x2ec
 6584 04ec 10       		.byte	0x10
 6585 04ed 00       		.byte	0
 6586 04ee 0D       		.uleb128 0xd
 6587 04ef 04       		.byte	0x4
 6588 04f0 F4040000 		.4byte	0x4f4
 6589 04f4 0E       		.uleb128 0xe
 6590 04f5 18020000 		.4byte	0x218
 6591 04f9 06       		.uleb128 0x6
 6592 04fa 08       		.byte	0x8
 6593 04fb 09       		.byte	0x9
 6594 04fc 6E       		.byte	0x6e
 6595 04fd 26050000 		.4byte	0x526
 6596 0501 07       		.uleb128 0x7
 6597 0502 270E0000 		.4byte	.LASF61
 6598 0506 09       		.byte	0x9
 6599 0507 70       		.byte	0x70
 6600 0508 E0020000 		.4byte	0x2e0
 6601 050c 00       		.byte	0
 6602 050d 07       		.uleb128 0x7
 6603 050e FA000000 		.4byte	.LASF79
 6604 0512 09       		.byte	0x9
 6605 0513 71       		.byte	0x71
 6606 0514 EC020000 		.4byte	0x2ec
 6607 0518 04       		.byte	0x4
 6608 0519 08       		.uleb128 0x8
 6609 051a 6F706100 		.ascii	"opa\000"
 6610 051e 09       		.byte	0x9
 6611 051f 72       		.byte	0x72
 6612 0520 EC020000 		.4byte	0x2ec
 6613 0524 05       		.byte	0x5
ARM GAS  C:\Users\tmj32\AppData\Local\Temp\ccrrExWC.s 			page 158


 6614 0525 00       		.byte	0
 6615 0526 06       		.uleb128 0x6
 6616 0527 08       		.byte	0x8
 6617 0528 09       		.byte	0x9
 6618 0529 76       		.byte	0x76
 6619 052a 62050000 		.4byte	0x562
 6620 052e 07       		.uleb128 0x7
 6621 052f 270E0000 		.4byte	.LASF61
 6622 0533 09       		.byte	0x9
 6623 0534 78       		.byte	0x78
 6624 0535 E0020000 		.4byte	0x2e0
 6625 0539 00       		.byte	0
 6626 053a 07       		.uleb128 0x7
 6627 053b EF080000 		.4byte	.LASF62
 6628 053f 09       		.byte	0x9
 6629 0540 79       		.byte	0x79
 6630 0541 EF000000 		.4byte	0xef
 6631 0545 04       		.byte	0x4
 6632 0546 08       		.uleb128 0x8
 6633 0547 6F706100 		.ascii	"opa\000"
 6634 054b 09       		.byte	0x9
 6635 054c 7A       		.byte	0x7a
 6636 054d EC020000 		.4byte	0x2ec
 6637 0551 06       		.byte	0x6
 6638 0552 0A       		.uleb128 0xa
 6639 0553 37060000 		.4byte	.LASF81
 6640 0557 09       		.byte	0x9
 6641 0558 7B       		.byte	0x7b
 6642 0559 B8000000 		.4byte	0xb8
 6643 055d 01       		.byte	0x1
 6644 055e 01       		.byte	0x1
 6645 055f 07       		.byte	0x7
 6646 0560 07       		.byte	0x7
 6647 0561 00       		.byte	0
 6648 0562 06       		.uleb128 0x6
 6649 0563 50       		.byte	0x50
 6650 0564 09       		.byte	0x9
 6651 0565 3C       		.byte	0x3c
 6652 0566 AA050000 		.4byte	0x5aa
 6653 056a 0A       		.uleb128 0xa
 6654 056b 79090000 		.4byte	.LASF82
 6655 056f 09       		.byte	0x9
 6656 0570 3E       		.byte	0x3e
 6657 0571 B8000000 		.4byte	0xb8
 6658 0575 01       		.byte	0x1
 6659 0576 01       		.byte	0x1
 6660 0577 07       		.byte	0x7
 6661 0578 00       		.byte	0
 6662 0579 07       		.uleb128 0x7
 6663 057a 35050000 		.4byte	.LASF83
 6664 057e 09       		.byte	0x9
 6665 057f 60       		.byte	0x60
 6666 0580 40040000 		.4byte	0x440
 6667 0584 04       		.byte	0x4
 6668 0585 07       		.uleb128 0x7
 6669 0586 F7050000 		.4byte	.LASF84
 6670 058a 09       		.byte	0x9
ARM GAS  C:\Users\tmj32\AppData\Local\Temp\ccrrExWC.s 			page 159


 6671 058b 6B       		.byte	0x6b
 6672 058c 9D040000 		.4byte	0x49d
 6673 0590 2C       		.byte	0x2c
 6674 0591 07       		.uleb128 0x7
 6675 0592 31060000 		.4byte	.LASF85
 6676 0596 09       		.byte	0x9
 6677 0597 73       		.byte	0x73
 6678 0598 F9040000 		.4byte	0x4f9
 6679 059c 40       		.byte	0x40
 6680 059d 07       		.uleb128 0x7
 6681 059e 70070000 		.4byte	.LASF86
 6682 05a2 09       		.byte	0x9
 6683 05a3 7C       		.byte	0x7c
 6684 05a4 26050000 		.4byte	0x526
 6685 05a8 48       		.byte	0x48
 6686 05a9 00       		.byte	0
 6687 05aa 02       		.uleb128 0x2
 6688 05ab 18070000 		.4byte	.LASF87
 6689 05af 09       		.byte	0x9
 6690 05b0 84       		.byte	0x84
 6691 05b1 62050000 		.4byte	0x562
 6692 05b5 0D       		.uleb128 0xd
 6693 05b6 04       		.byte	0x4
 6694 05b7 AA050000 		.4byte	0x5aa
 6695 05bb 0F       		.uleb128 0xf
 6696 05bc 01       		.byte	0x1
 6697 05bd 42000000 		.4byte	0x42
 6698 05c1 0A       		.byte	0xa
 6699 05c2 27       		.byte	0x27
 6700 05c3 D4050000 		.4byte	0x5d4
 6701 05c7 10       		.uleb128 0x10
 6702 05c8 0B020000 		.4byte	.LASF88
 6703 05cc 00       		.byte	0
 6704 05cd 10       		.uleb128 0x10
 6705 05ce 8C0C0000 		.4byte	.LASF89
 6706 05d2 01       		.byte	0x1
 6707 05d3 00       		.byte	0
 6708 05d4 02       		.uleb128 0x2
 6709 05d5 390B0000 		.4byte	.LASF90
 6710 05d9 0A       		.byte	0xa
 6711 05da 2C       		.byte	0x2c
 6712 05db B8000000 		.4byte	0xb8
 6713 05df 02       		.uleb128 0x2
 6714 05e0 24000000 		.4byte	.LASF91
 6715 05e4 0B       		.byte	0xb
 6716 05e5 1E       		.byte	0x1e
 6717 05e6 B8000000 		.4byte	0xb8
 6718 05ea 06       		.uleb128 0x6
 6719 05eb 0C       		.byte	0xc
 6720 05ec 0B       		.byte	0xb
 6721 05ed 21       		.byte	0x21
 6722 05ee 17060000 		.4byte	0x617
 6723 05f2 07       		.uleb128 0x7
 6724 05f3 AE120000 		.4byte	.LASF92
 6725 05f7 0B       		.byte	0xb
 6726 05f8 23       		.byte	0x23
 6727 05f9 E4000000 		.4byte	0xe4
ARM GAS  C:\Users\tmj32\AppData\Local\Temp\ccrrExWC.s 			page 160


 6728 05fd 00       		.byte	0
 6729 05fe 07       		.uleb128 0x7
 6730 05ff 6B030000 		.4byte	.LASF93
 6731 0603 0B       		.byte	0xb
 6732 0604 24       		.byte	0x24
 6733 0605 17060000 		.4byte	0x617
 6734 0609 04       		.byte	0x4
 6735 060a 07       		.uleb128 0x7
 6736 060b D0000000 		.4byte	.LASF94
 6737 060f 0B       		.byte	0xb
 6738 0610 25       		.byte	0x25
 6739 0611 17060000 		.4byte	0x617
 6740 0615 08       		.byte	0x8
 6741 0616 00       		.byte	0
 6742 0617 0D       		.uleb128 0xd
 6743 0618 04       		.byte	0x4
 6744 0619 DF050000 		.4byte	0x5df
 6745 061d 02       		.uleb128 0x2
 6746 061e 9C0F0000 		.4byte	.LASF95
 6747 0622 0B       		.byte	0xb
 6748 0623 26       		.byte	0x26
 6749 0624 EA050000 		.4byte	0x5ea
 6750 0628 02       		.uleb128 0x2
 6751 0629 58060000 		.4byte	.LASF96
 6752 062d 0C       		.byte	0xc
 6753 062e 30       		.byte	0x30
 6754 062f B8000000 		.4byte	0xb8
 6755 0633 0D       		.uleb128 0xd
 6756 0634 04       		.byte	0x4
 6757 0635 39060000 		.4byte	0x639
 6758 0639 0E       		.uleb128 0xe
 6759 063a 74030000 		.4byte	0x374
 6760 063e 09       		.uleb128 0x9
 6761 063f 240F0000 		.4byte	.LASF98
 6762 0643 40       		.byte	0x40
 6763 0644 0D       		.byte	0xd
 6764 0645 BB       		.byte	0xbb
 6765 0646 80070000 		.4byte	0x780
 6766 064a 08       		.uleb128 0x8
 6767 064b 70617200 		.ascii	"par\000"
 6768 064f 0D       		.byte	0xd
 6769 0650 BD       		.byte	0xbd
 6770 0651 80070000 		.4byte	0x780
 6771 0655 00       		.byte	0
 6772 0656 07       		.uleb128 0x7
 6773 0657 0E090000 		.4byte	.LASF99
 6774 065b 0D       		.byte	0xd
 6775 065c BE       		.byte	0xbe
 6776 065d 1D060000 		.4byte	0x61d
 6777 0661 04       		.byte	0x4
 6778 0662 07       		.uleb128 0x7
 6779 0663 FF0F0000 		.4byte	.LASF100
 6780 0667 0D       		.byte	0xd
 6781 0668 C0       		.byte	0xc0
 6782 0669 74030000 		.4byte	0x374
 6783 066d 10       		.byte	0x10
 6784 066e 07       		.uleb128 0x7
ARM GAS  C:\Users\tmj32\AppData\Local\Temp\ccrrExWC.s 			page 161


 6785 066f 21080000 		.4byte	.LASF101
 6786 0673 0D       		.byte	0xd
 6787 0674 C2       		.byte	0xc2
 6788 0675 E5070000 		.4byte	0x7e5
 6789 0679 18       		.byte	0x18
 6790 067a 07       		.uleb128 0x7
 6791 067b 0D110000 		.4byte	.LASF102
 6792 067f 0D       		.byte	0xd
 6793 0680 C3       		.byte	0xc3
 6794 0681 96080000 		.4byte	0x896
 6795 0685 1C       		.byte	0x1c
 6796 0686 07       		.uleb128 0x7
 6797 0687 A3050000 		.4byte	.LASF103
 6798 068b 0D       		.byte	0xd
 6799 068c C4       		.byte	0xc4
 6800 068d B0070000 		.4byte	0x7b0
 6801 0691 20       		.byte	0x20
 6802 0692 07       		.uleb128 0x7
 6803 0693 670B0000 		.4byte	.LASF104
 6804 0697 0D       		.byte	0xd
 6805 0698 C6       		.byte	0xc6
 6806 0699 FA000000 		.4byte	0xfa
 6807 069d 24       		.byte	0x24
 6808 069e 07       		.uleb128 0x7
 6809 069f 30080000 		.4byte	.LASF105
 6810 06a3 0D       		.byte	0xd
 6811 06a4 C7       		.byte	0xc7
 6812 06a5 43090000 		.4byte	0x943
 6813 06a9 28       		.byte	0x28
 6814 06aa 0A       		.uleb128 0xa
 6815 06ab 64010000 		.4byte	.LASF106
 6816 06af 0D       		.byte	0xd
 6817 06b0 D7       		.byte	0xd7
 6818 06b1 B8000000 		.4byte	0xb8
 6819 06b5 01       		.byte	0x1
 6820 06b6 01       		.byte	0x1
 6821 06b7 07       		.byte	0x7
 6822 06b8 2C       		.byte	0x2c
 6823 06b9 0A       		.uleb128 0xa
 6824 06ba BC0E0000 		.4byte	.LASF107
 6825 06be 0D       		.byte	0xd
 6826 06bf D8       		.byte	0xd8
 6827 06c0 B8000000 		.4byte	0xb8
 6828 06c4 01       		.byte	0x1
 6829 06c5 01       		.byte	0x1
 6830 06c6 06       		.byte	0x6
 6831 06c7 2C       		.byte	0x2c
 6832 06c8 0A       		.uleb128 0xa
 6833 06c9 3F060000 		.4byte	.LASF108
 6834 06cd 0D       		.byte	0xd
 6835 06ce D9       		.byte	0xd9
 6836 06cf B8000000 		.4byte	0xb8
 6837 06d3 01       		.byte	0x1
 6838 06d4 01       		.byte	0x1
 6839 06d5 05       		.byte	0x5
 6840 06d6 2C       		.byte	0x2c
 6841 06d7 0A       		.uleb128 0xa
ARM GAS  C:\Users\tmj32\AppData\Local\Temp\ccrrExWC.s 			page 162


 6842 06d8 9A100000 		.4byte	.LASF109
 6843 06dc 0D       		.byte	0xd
 6844 06dd DA       		.byte	0xda
 6845 06de B8000000 		.4byte	0xb8
 6846 06e2 01       		.byte	0x1
 6847 06e3 01       		.byte	0x1
 6848 06e4 04       		.byte	0x4
 6849 06e5 2C       		.byte	0x2c
 6850 06e6 0A       		.uleb128 0xa
 6851 06e7 F2020000 		.4byte	.LASF110
 6852 06eb 0D       		.byte	0xd
 6853 06ec DB       		.byte	0xdb
 6854 06ed B8000000 		.4byte	0xb8
 6855 06f1 01       		.byte	0x1
 6856 06f2 01       		.byte	0x1
 6857 06f3 03       		.byte	0x3
 6858 06f4 2C       		.byte	0x2c
 6859 06f5 15       		.uleb128 0x15
 6860 06f6 746F7000 		.ascii	"top\000"
 6861 06fa 0D       		.byte	0xd
 6862 06fb DC       		.byte	0xdc
 6863 06fc B8000000 		.4byte	0xb8
 6864 0700 01       		.byte	0x1
 6865 0701 01       		.byte	0x1
 6866 0702 02       		.byte	0x2
 6867 0703 2C       		.byte	0x2c
 6868 0704 0A       		.uleb128 0xa
 6869 0705 55100000 		.4byte	.LASF111
 6870 0709 0D       		.byte	0xd
 6871 070a DD       		.byte	0xdd
 6872 070b B8000000 		.4byte	0xb8
 6873 070f 01       		.byte	0x1
 6874 0710 01       		.byte	0x1
 6875 0711 01       		.byte	0x1
 6876 0712 2C       		.byte	0x2c
 6877 0713 0A       		.uleb128 0xa
 6878 0714 46090000 		.4byte	.LASF112
 6879 0718 0D       		.byte	0xd
 6880 0719 DE       		.byte	0xde
 6881 071a B8000000 		.4byte	0xb8
 6882 071e 01       		.byte	0x1
 6883 071f 01       		.byte	0x1
 6884 0720 00       		.byte	0
 6885 0721 2C       		.byte	0x2c
 6886 0722 0A       		.uleb128 0xa
 6887 0723 B1040000 		.4byte	.LASF113
 6888 0727 0D       		.byte	0xd
 6889 0728 DF       		.byte	0xdf
 6890 0729 38090000 		.4byte	0x938
 6891 072d 01       		.byte	0x1
 6892 072e 02       		.byte	0x2
 6893 072f 06       		.byte	0x6
 6894 0730 2D       		.byte	0x2d
 6895 0731 0A       		.uleb128 0xa
 6896 0732 570F0000 		.4byte	.LASF114
 6897 0736 0D       		.byte	0xd
 6898 0737 E0       		.byte	0xe0
ARM GAS  C:\Users\tmj32\AppData\Local\Temp\ccrrExWC.s 			page 163


 6899 0738 28060000 		.4byte	0x628
 6900 073c 01       		.byte	0x1
 6901 073d 02       		.byte	0x2
 6902 073e 04       		.byte	0x4
 6903 073f 2D       		.byte	0x2d
 6904 0740 0A       		.uleb128 0xa
 6905 0741 9E110000 		.4byte	.LASF115
 6906 0745 0D       		.byte	0xd
 6907 0746 E1       		.byte	0xe1
 6908 0747 B8000000 		.4byte	0xb8
 6909 074b 01       		.byte	0x1
 6910 074c 03       		.byte	0x3
 6911 074d 01       		.byte	0x1
 6912 074e 2D       		.byte	0x2d
 6913 074f 07       		.uleb128 0x7
 6914 0750 28090000 		.4byte	.LASF116
 6915 0754 0D       		.byte	0xd
 6916 0755 E2       		.byte	0xe2
 6917 0756 B8000000 		.4byte	0xb8
 6918 075a 2E       		.byte	0x2e
 6919 075b 07       		.uleb128 0x7
 6920 075c D5120000 		.4byte	.LASF117
 6921 0760 0D       		.byte	0xd
 6922 0761 E4       		.byte	0xe4
 6923 0762 EC020000 		.4byte	0x2ec
 6924 0766 2F       		.byte	0x2f
 6925 0767 07       		.uleb128 0x7
 6926 0768 66060000 		.4byte	.LASF118
 6927 076c 0D       		.byte	0xd
 6928 076d E6       		.byte	0xe6
 6929 076e EF000000 		.4byte	0xef
 6930 0772 30       		.byte	0x30
 6931 0773 07       		.uleb128 0x7
 6932 0774 C8060000 		.4byte	.LASF119
 6933 0778 0D       		.byte	0xd
 6934 0779 E9       		.byte	0xe9
 6935 077a 2D090000 		.4byte	0x92d
 6936 077e 34       		.byte	0x34
 6937 077f 00       		.byte	0
 6938 0780 0D       		.uleb128 0xd
 6939 0781 04       		.byte	0x4
 6940 0782 3E060000 		.4byte	0x63e
 6941 0786 0F       		.uleb128 0xf
 6942 0787 01       		.byte	0x1
 6943 0788 42000000 		.4byte	0x42
 6944 078c 0D       		.byte	0xd
 6945 078d 3D       		.byte	0x3d
 6946 078e A5070000 		.4byte	0x7a5
 6947 0792 10       		.uleb128 0x10
 6948 0793 840A0000 		.4byte	.LASF120
 6949 0797 00       		.byte	0
 6950 0798 10       		.uleb128 0x10
 6951 0799 21050000 		.4byte	.LASF121
 6952 079d 01       		.byte	0x1
 6953 079e 10       		.uleb128 0x10
 6954 079f 76050000 		.4byte	.LASF122
 6955 07a3 02       		.byte	0x2
ARM GAS  C:\Users\tmj32\AppData\Local\Temp\ccrrExWC.s 			page 164


 6956 07a4 00       		.byte	0
 6957 07a5 02       		.uleb128 0x2
 6958 07a6 790B0000 		.4byte	.LASF123
 6959 07aa 0D       		.byte	0xd
 6960 07ab 42       		.byte	0x42
 6961 07ac B8000000 		.4byte	0xb8
 6962 07b0 02       		.uleb128 0x2
 6963 07b1 BC120000 		.4byte	.LASF124
 6964 07b5 0D       		.byte	0xd
 6965 07b6 48       		.byte	0x48
 6966 07b7 BB070000 		.4byte	0x7bb
 6967 07bb 0D       		.uleb128 0xd
 6968 07bc 04       		.byte	0x4
 6969 07bd C1070000 		.4byte	0x7c1
 6970 07c1 0B       		.uleb128 0xb
 6971 07c2 D5010000 		.4byte	0x1d5
 6972 07c6 DA070000 		.4byte	0x7da
 6973 07ca 0C       		.uleb128 0xc
 6974 07cb 80070000 		.4byte	0x780
 6975 07cf 0C       		.uleb128 0xc
 6976 07d0 33060000 		.4byte	0x633
 6977 07d4 0C       		.uleb128 0xc
 6978 07d5 A5070000 		.4byte	0x7a5
 6979 07d9 00       		.byte	0
 6980 07da 02       		.uleb128 0x2
 6981 07db CD010000 		.4byte	.LASF125
 6982 07df 0D       		.byte	0xd
 6983 07e0 61       		.byte	0x61
 6984 07e1 B8000000 		.4byte	0xb8
 6985 07e5 02       		.uleb128 0x2
 6986 07e6 D0050000 		.4byte	.LASF126
 6987 07ea 0D       		.byte	0xd
 6988 07eb 68       		.byte	0x68
 6989 07ec F0070000 		.4byte	0x7f0
 6990 07f0 0D       		.uleb128 0xd
 6991 07f1 04       		.byte	0x4
 6992 07f2 F6070000 		.4byte	0x7f6
 6993 07f6 16       		.uleb128 0x16
 6994 07f7 06080000 		.4byte	0x806
 6995 07fb 0C       		.uleb128 0xc
 6996 07fc 80070000 		.4byte	0x780
 6997 0800 0C       		.uleb128 0xc
 6998 0801 DA070000 		.4byte	0x7da
 6999 0805 00       		.byte	0
 7000 0806 0F       		.uleb128 0xf
 7001 0807 01       		.byte	0x1
 7002 0808 42000000 		.4byte	0x42
 7003 080c 0D       		.byte	0xd
 7004 080d 6D       		.byte	0x6d
 7005 080e 8B080000 		.4byte	0x88b
 7006 0812 10       		.uleb128 0x10
 7007 0813 53090000 		.4byte	.LASF127
 7008 0817 00       		.byte	0
 7009 0818 10       		.uleb128 0x10
 7010 0819 B3090000 		.4byte	.LASF128
 7011 081d 01       		.byte	0x1
 7012 081e 10       		.uleb128 0x10
ARM GAS  C:\Users\tmj32\AppData\Local\Temp\ccrrExWC.s 			page 165


 7013 081f EC0F0000 		.4byte	.LASF129
 7014 0823 02       		.byte	0x2
 7015 0824 10       		.uleb128 0x10
 7016 0825 E40B0000 		.4byte	.LASF130
 7017 0829 03       		.byte	0x3
 7018 082a 10       		.uleb128 0x10
 7019 082b D5000000 		.4byte	.LASF131
 7020 082f 04       		.byte	0x4
 7021 0830 10       		.uleb128 0x10
 7022 0831 C4100000 		.4byte	.LASF132
 7023 0835 05       		.byte	0x5
 7024 0836 10       		.uleb128 0x10
 7025 0837 95040000 		.4byte	.LASF133
 7026 083b 06       		.byte	0x6
 7027 083c 10       		.uleb128 0x10
 7028 083d D0060000 		.4byte	.LASF134
 7029 0841 07       		.byte	0x7
 7030 0842 10       		.uleb128 0x10
 7031 0843 33020000 		.4byte	.LASF135
 7032 0847 08       		.byte	0x8
 7033 0848 10       		.uleb128 0x10
 7034 0849 D50A0000 		.4byte	.LASF136
 7035 084d 09       		.byte	0x9
 7036 084e 10       		.uleb128 0x10
 7037 084f 9D0B0000 		.4byte	.LASF137
 7038 0853 0A       		.byte	0xa
 7039 0854 10       		.uleb128 0x10
 7040 0855 FE0B0000 		.4byte	.LASF138
 7041 0859 0B       		.byte	0xb
 7042 085a 10       		.uleb128 0x10
 7043 085b 2F010000 		.4byte	.LASF139
 7044 085f 0C       		.byte	0xc
 7045 0860 10       		.uleb128 0x10
 7046 0861 68040000 		.4byte	.LASF140
 7047 0865 0D       		.byte	0xd
 7048 0866 10       		.uleb128 0x10
 7049 0867 7B010000 		.4byte	.LASF141
 7050 086b 0E       		.byte	0xe
 7051 086c 10       		.uleb128 0x10
 7052 086d BD0B0000 		.4byte	.LASF142
 7053 0871 0F       		.byte	0xf
 7054 0872 10       		.uleb128 0x10
 7055 0873 75070000 		.4byte	.LASF143
 7056 0877 10       		.byte	0x10
 7057 0878 10       		.uleb128 0x10
 7058 0879 DE050000 		.4byte	.LASF144
 7059 087d 11       		.byte	0x11
 7060 087e 10       		.uleb128 0x10
 7061 087f F5080000 		.4byte	.LASF145
 7062 0883 12       		.byte	0x12
 7063 0884 10       		.uleb128 0x10
 7064 0885 CD070000 		.4byte	.LASF146
 7065 0889 13       		.byte	0x13
 7066 088a 00       		.byte	0
 7067 088b 02       		.uleb128 0x2
 7068 088c 250C0000 		.4byte	.LASF147
 7069 0890 0D       		.byte	0xd
ARM GAS  C:\Users\tmj32\AppData\Local\Temp\ccrrExWC.s 			page 166


 7070 0891 88       		.byte	0x88
 7071 0892 B8000000 		.4byte	0xb8
 7072 0896 02       		.uleb128 0x2
 7073 0897 07050000 		.4byte	.LASF148
 7074 089b 0D       		.byte	0xd
 7075 089c 8A       		.byte	0x8a
 7076 089d A1080000 		.4byte	0x8a1
 7077 08a1 0D       		.uleb128 0xd
 7078 08a2 04       		.byte	0x4
 7079 08a3 A7080000 		.4byte	0x8a7
 7080 08a7 0B       		.uleb128 0xb
 7081 08a8 D4050000 		.4byte	0x5d4
 7082 08ac C0080000 		.4byte	0x8c0
 7083 08b0 0C       		.uleb128 0xc
 7084 08b1 80070000 		.4byte	0x780
 7085 08b5 0C       		.uleb128 0xc
 7086 08b6 8B080000 		.4byte	0x88b
 7087 08ba 0C       		.uleb128 0xc
 7088 08bb FA000000 		.4byte	0xfa
 7089 08bf 00       		.byte	0
 7090 08c0 02       		.uleb128 0x2
 7091 08c1 6A010000 		.4byte	.LASF149
 7092 08c5 0D       		.byte	0xd
 7093 08c6 A4       		.byte	0xa4
 7094 08c7 B8000000 		.4byte	0xb8
 7095 08cb 06       		.uleb128 0x6
 7096 08cc 0C       		.byte	0xc
 7097 08cd 0D       		.byte	0xd
 7098 08ce A7       		.byte	0xa7
 7099 08cf 22090000 		.4byte	0x922
 7100 08d3 07       		.uleb128 0x7
 7101 08d4 760F0000 		.4byte	.LASF150
 7102 08d8 0D       		.byte	0xd
 7103 08d9 A9       		.byte	0xa9
 7104 08da 22090000 		.4byte	0x922
 7105 08de 00       		.byte	0
 7106 08df 07       		.uleb128 0x7
 7107 08e0 890E0000 		.4byte	.LASF151
 7108 08e4 0D       		.byte	0xd
 7109 08e5 AA       		.byte	0xaa
 7110 08e6 EF000000 		.4byte	0xef
 7111 08ea 04       		.byte	0x4
 7112 08eb 07       		.uleb128 0x7
 7113 08ec 3A050000 		.4byte	.LASF152
 7114 08f0 0D       		.byte	0xd
 7115 08f1 AB       		.byte	0xab
 7116 08f2 EF000000 		.4byte	0xef
 7117 08f6 06       		.byte	0x6
 7118 08f7 07       		.uleb128 0x7
 7119 08f8 65090000 		.4byte	.LASF153
 7120 08fc 0D       		.byte	0xd
 7121 08fd AC       		.byte	0xac
 7122 08fe C0080000 		.4byte	0x8c0
 7123 0902 08       		.byte	0x8
 7124 0903 0A       		.uleb128 0xa
 7125 0904 580A0000 		.4byte	.LASF154
 7126 0908 0D       		.byte	0xd
ARM GAS  C:\Users\tmj32\AppData\Local\Temp\ccrrExWC.s 			page 167


 7127 0909 AD       		.byte	0xad
 7128 090a B8000000 		.4byte	0xb8
 7129 090e 01       		.byte	0x1
 7130 090f 01       		.byte	0x1
 7131 0910 07       		.byte	0x7
 7132 0911 09       		.byte	0x9
 7133 0912 0A       		.uleb128 0xa
 7134 0913 79120000 		.4byte	.LASF155
 7135 0917 0D       		.byte	0xd
 7136 0918 AE       		.byte	0xae
 7137 0919 B8000000 		.4byte	0xb8
 7138 091d 01       		.byte	0x1
 7139 091e 01       		.byte	0x1
 7140 091f 06       		.byte	0x6
 7141 0920 09       		.byte	0x9
 7142 0921 00       		.byte	0
 7143 0922 0D       		.uleb128 0xd
 7144 0923 04       		.byte	0x4
 7145 0924 28090000 		.4byte	0x928
 7146 0928 0E       		.uleb128 0xe
 7147 0929 3E060000 		.4byte	0x63e
 7148 092d 02       		.uleb128 0x2
 7149 092e 4B010000 		.4byte	.LASF156
 7150 0932 0D       		.byte	0xd
 7151 0933 B0       		.byte	0xb0
 7152 0934 CB080000 		.4byte	0x8cb
 7153 0938 02       		.uleb128 0x2
 7154 0939 530B0000 		.4byte	.LASF157
 7155 093d 0D       		.byte	0xd
 7156 093e B9       		.byte	0xb9
 7157 093f B8000000 		.4byte	0xb8
 7158 0943 0D       		.uleb128 0xd
 7159 0944 04       		.byte	0x4
 7160 0945 49090000 		.4byte	0x949
 7161 0949 0E       		.uleb128 0xe
 7162 094a AA050000 		.4byte	0x5aa
 7163 094e 02       		.uleb128 0x2
 7164 094f 8E0E0000 		.4byte	.LASF158
 7165 0953 0D       		.byte	0xd
 7166 0954 F0       		.byte	0xf0
 7167 0955 3E060000 		.4byte	0x63e
 7168 0959 0F       		.uleb128 0xf
 7169 095a 01       		.byte	0x1
 7170 095b 42000000 		.4byte	0x42
 7171 095f 02       		.byte	0x2
 7172 0960 2D       		.byte	0x2d
 7173 0961 8A090000 		.4byte	0x98a
 7174 0965 10       		.uleb128 0x10
 7175 0966 2C120000 		.4byte	.LASF159
 7176 096a 00       		.byte	0
 7177 096b 10       		.uleb128 0x10
 7178 096c 220D0000 		.4byte	.LASF160
 7179 0970 01       		.byte	0x1
 7180 0971 10       		.uleb128 0x10
 7181 0972 4D110000 		.4byte	.LASF161
 7182 0976 02       		.byte	0x2
 7183 0977 10       		.uleb128 0x10
ARM GAS  C:\Users\tmj32\AppData\Local\Temp\ccrrExWC.s 			page 168


 7184 0978 5C0C0000 		.4byte	.LASF162
 7185 097c 04       		.byte	0x4
 7186 097d 10       		.uleb128 0x10
 7187 097e 12030000 		.4byte	.LASF163
 7188 0982 08       		.byte	0x8
 7189 0983 10       		.uleb128 0x10
 7190 0984 700C0000 		.4byte	.LASF164
 7191 0988 10       		.byte	0x10
 7192 0989 00       		.byte	0
 7193 098a 02       		.uleb128 0x2
 7194 098b F9020000 		.4byte	.LASF165
 7195 098f 02       		.byte	0x2
 7196 0990 35       		.byte	0x35
 7197 0991 B8000000 		.4byte	0xb8
 7198 0995 0F       		.uleb128 0xf
 7199 0996 01       		.byte	0x1
 7200 0997 42000000 		.4byte	0x42
 7201 099b 02       		.byte	0x2
 7202 099c 38       		.byte	0x38
 7203 099d AE090000 		.4byte	0x9ae
 7204 09a1 10       		.uleb128 0x10
 7205 09a2 35030000 		.4byte	.LASF166
 7206 09a6 00       		.byte	0
 7207 09a7 10       		.uleb128 0x10
 7208 09a8 EE030000 		.4byte	.LASF167
 7209 09ac 01       		.byte	0x1
 7210 09ad 00       		.byte	0
 7211 09ae 02       		.uleb128 0x2
 7212 09af 62120000 		.4byte	.LASF168
 7213 09b3 02       		.byte	0x2
 7214 09b4 3C       		.byte	0x3c
 7215 09b5 B8000000 		.4byte	0xb8
 7216 09b9 06       		.uleb128 0x6
 7217 09ba 0C       		.byte	0xc
 7218 09bb 02       		.byte	0x2
 7219 09bc 3E       		.byte	0x3e
 7220 09bd E6090000 		.4byte	0x9e6
 7221 09c1 07       		.uleb128 0x7
 7222 09c2 BD0F0000 		.4byte	.LASF169
 7223 09c6 02       		.byte	0x2
 7224 09c7 40       		.byte	0x40
 7225 09c8 E6090000 		.4byte	0x9e6
 7226 09cc 00       		.byte	0
 7227 09cd 07       		.uleb128 0x7
 7228 09ce 270E0000 		.4byte	.LASF61
 7229 09d2 02       		.byte	0x2
 7230 09d3 41       		.byte	0x41
 7231 09d4 E0020000 		.4byte	0x2e0
 7232 09d8 04       		.byte	0x4
 7233 09d9 07       		.uleb128 0x7
 7234 09da F8060000 		.4byte	.LASF170
 7235 09de 02       		.byte	0x2
 7236 09df 42       		.byte	0x42
 7237 09e0 CE000000 		.4byte	0xce
 7238 09e4 08       		.byte	0x8
 7239 09e5 00       		.byte	0
 7240 09e6 0D       		.uleb128 0xd
ARM GAS  C:\Users\tmj32\AppData\Local\Temp\ccrrExWC.s 			page 169


 7241 09e7 04       		.byte	0x4
 7242 09e8 EF000000 		.4byte	0xef
 7243 09ec 02       		.uleb128 0x2
 7244 09ed 3B040000 		.4byte	.LASF171
 7245 09f1 02       		.byte	0x2
 7246 09f2 43       		.byte	0x43
 7247 09f3 B9090000 		.4byte	0x9b9
 7248 09f7 0F       		.uleb128 0xf
 7249 09f8 01       		.byte	0x1
 7250 09f9 42000000 		.4byte	0x42
 7251 09fd 02       		.byte	0x2
 7252 09fe 46       		.byte	0x46
 7253 09ff 160A0000 		.4byte	0xa16
 7254 0a03 10       		.uleb128 0x10
 7255 0a04 AE000000 		.4byte	.LASF172
 7256 0a08 00       		.byte	0
 7257 0a09 10       		.uleb128 0x10
 7258 0a0a 00000000 		.4byte	.LASF173
 7259 0a0e 01       		.byte	0x1
 7260 0a0f 10       		.uleb128 0x10
 7261 0a10 5C000000 		.4byte	.LASF174
 7262 0a14 02       		.byte	0x2
 7263 0a15 00       		.byte	0
 7264 0a16 02       		.uleb128 0x2
 7265 0a17 F80C0000 		.4byte	.LASF175
 7266 0a1b 02       		.byte	0x2
 7267 0a1c 4B       		.byte	0x4b
 7268 0a1d B8000000 		.4byte	0xb8
 7269 0a21 06       		.uleb128 0x6
 7270 0a22 08       		.byte	0x8
 7271 0a23 02       		.byte	0x2
 7272 0a24 4D       		.byte	0x4d
 7273 0a25 660A0000 		.4byte	0xa66
 7274 0a29 07       		.uleb128 0x7
 7275 0a2a F30A0000 		.4byte	.LASF176
 7276 0a2e 02       		.byte	0x2
 7277 0a2f 4F       		.byte	0x4f
 7278 0a30 0C030000 		.4byte	0x30c
 7279 0a34 00       		.byte	0
 7280 0a35 07       		.uleb128 0x7
 7281 0a36 50120000 		.4byte	.LASF177
 7282 0a3a 02       		.byte	0x2
 7283 0a3b 50       		.byte	0x50
 7284 0a3c 160A0000 		.4byte	0xa16
 7285 0a40 04       		.byte	0x4
 7286 0a41 07       		.uleb128 0x7
 7287 0a42 B9060000 		.4byte	.LASF178
 7288 0a46 02       		.byte	0x2
 7289 0a47 51       		.byte	0x51
 7290 0a48 B8000000 		.4byte	0xb8
 7291 0a4c 05       		.byte	0x5
 7292 0a4d 07       		.uleb128 0x7
 7293 0a4e 07080000 		.4byte	.LASF179
 7294 0a52 02       		.byte	0x2
 7295 0a53 52       		.byte	0x52
 7296 0a54 B8000000 		.4byte	0xb8
 7297 0a58 06       		.byte	0x6
ARM GAS  C:\Users\tmj32\AppData\Local\Temp\ccrrExWC.s 			page 170


 7298 0a59 07       		.uleb128 0x7
 7299 0a5a 16040000 		.4byte	.LASF180
 7300 0a5e 02       		.byte	0x2
 7301 0a5f 53       		.byte	0x53
 7302 0a60 B8000000 		.4byte	0xb8
 7303 0a64 07       		.byte	0x7
 7304 0a65 00       		.byte	0
 7305 0a66 02       		.uleb128 0x2
 7306 0a67 E40C0000 		.4byte	.LASF181
 7307 0a6b 02       		.byte	0x2
 7308 0a6c 54       		.byte	0x54
 7309 0a6d 210A0000 		.4byte	0xa21
 7310 0a71 06       		.uleb128 0x6
 7311 0a72 06       		.byte	0x6
 7312 0a73 02       		.byte	0x2
 7313 0a74 67       		.byte	0x67
 7314 0a75 AA0A0000 		.4byte	0xaaa
 7315 0a79 07       		.uleb128 0x7
 7316 0a7a EF080000 		.4byte	.LASF62
 7317 0a7e 02       		.byte	0x2
 7318 0a7f 69       		.byte	0x69
 7319 0a80 EF000000 		.4byte	0xef
 7320 0a84 00       		.byte	0
 7321 0a85 08       		.uleb128 0x8
 7322 0a86 6E756D00 		.ascii	"num\000"
 7323 0a8a 02       		.byte	0x2
 7324 0a8b 6A       		.byte	0x6a
 7325 0a8c B8000000 		.4byte	0xb8
 7326 0a90 02       		.byte	0x2
 7327 0a91 08       		.uleb128 0x8
 7328 0a92 6F706100 		.ascii	"opa\000"
 7329 0a96 02       		.byte	0x2
 7330 0a97 6B       		.byte	0x6b
 7331 0a98 EC020000 		.4byte	0x2ec
 7332 0a9c 03       		.byte	0x3
 7333 0a9d 07       		.uleb128 0x7
 7334 0a9e 89110000 		.4byte	.LASF182
 7335 0aa2 02       		.byte	0x2
 7336 0aa3 6C       		.byte	0x6c
 7337 0aa4 EC020000 		.4byte	0x2ec
 7338 0aa8 04       		.byte	0x4
 7339 0aa9 00       		.byte	0
 7340 0aaa 06       		.uleb128 0x6
 7341 0aab 3C       		.byte	0x3c
 7342 0aac 02       		.byte	0x2
 7343 0aad 57       		.byte	0x57
 7344 0aae 520B0000 		.4byte	0xb52
 7345 0ab2 07       		.uleb128 0x7
 7346 0ab3 B90C0000 		.4byte	.LASF183
 7347 0ab7 02       		.byte	0x2
 7348 0ab8 5B       		.byte	0x5b
 7349 0ab9 1D060000 		.4byte	0x61d
 7350 0abd 00       		.byte	0
 7351 0abe 07       		.uleb128 0x7
 7352 0abf 8A120000 		.4byte	.LASF184
 7353 0ac3 02       		.byte	0x2
 7354 0ac4 5C       		.byte	0x5c
ARM GAS  C:\Users\tmj32\AppData\Local\Temp\ccrrExWC.s 			page 171


 7355 0ac5 EF000000 		.4byte	0xef
 7356 0ac9 0C       		.byte	0xc
 7357 0aca 07       		.uleb128 0x7
 7358 0acb C30C0000 		.4byte	.LASF185
 7359 0acf 02       		.byte	0x2
 7360 0ad0 5D       		.byte	0x5d
 7361 0ad1 EF000000 		.4byte	0xef
 7362 0ad5 0E       		.byte	0xe
 7363 0ad6 07       		.uleb128 0x7
 7364 0ad7 6D050000 		.4byte	.LASF186
 7365 0adb 02       		.byte	0x2
 7366 0adc 5E       		.byte	0x5e
 7367 0add B8000000 		.4byte	0xb8
 7368 0ae1 10       		.byte	0x10
 7369 0ae2 07       		.uleb128 0x7
 7370 0ae3 4C100000 		.4byte	.LASF187
 7371 0ae7 02       		.byte	0x2
 7372 0ae8 5F       		.byte	0x5f
 7373 0ae9 B8000000 		.4byte	0xb8
 7374 0aed 11       		.byte	0x11
 7375 0aee 07       		.uleb128 0x7
 7376 0aef CC020000 		.4byte	.LASF188
 7377 0af3 02       		.byte	0x2
 7378 0af4 60       		.byte	0x60
 7379 0af5 CE000000 		.4byte	0xce
 7380 0af9 12       		.byte	0x12
 7381 0afa 07       		.uleb128 0x7
 7382 0afb 45020000 		.4byte	.LASF64
 7383 0aff 02       		.byte	0x2
 7384 0b00 61       		.byte	0x61
 7385 0b01 8A090000 		.4byte	0x98a
 7386 0b05 14       		.byte	0x14
 7387 0b06 07       		.uleb128 0x7
 7388 0b07 69070000 		.4byte	.LASF189
 7389 0b0b 02       		.byte	0x2
 7390 0b0c 62       		.byte	0x62
 7391 0b0d 660A0000 		.4byte	0xa66
 7392 0b11 18       		.byte	0x18
 7393 0b12 07       		.uleb128 0x7
 7394 0b13 7B0F0000 		.4byte	.LASF190
 7395 0b17 02       		.byte	0x2
 7396 0b18 63       		.byte	0x63
 7397 0b19 660A0000 		.4byte	0xa66
 7398 0b1d 20       		.byte	0x20
 7399 0b1e 07       		.uleb128 0x7
 7400 0b1f FC050000 		.4byte	.LASF191
 7401 0b23 02       		.byte	0x2
 7402 0b24 64       		.byte	0x64
 7403 0b25 660A0000 		.4byte	0xa66
 7404 0b29 28       		.byte	0x28
 7405 0b2a 07       		.uleb128 0x7
 7406 0b2b 740A0000 		.4byte	.LASF192
 7407 0b2f 02       		.byte	0x2
 7408 0b30 65       		.byte	0x65
 7409 0b31 CE000000 		.4byte	0xce
 7410 0b35 30       		.byte	0x30
 7411 0b36 0A       		.uleb128 0xa
ARM GAS  C:\Users\tmj32\AppData\Local\Temp\ccrrExWC.s 			page 172


 7412 0b37 A4020000 		.4byte	.LASF193
 7413 0b3b 02       		.byte	0x2
 7414 0b3c 66       		.byte	0x66
 7415 0b3d B8000000 		.4byte	0xb8
 7416 0b41 01       		.byte	0x1
 7417 0b42 01       		.byte	0x1
 7418 0b43 07       		.byte	0x7
 7419 0b44 32       		.byte	0x32
 7420 0b45 07       		.uleb128 0x7
 7421 0b46 510A0000 		.4byte	.LASF194
 7422 0b4a 02       		.byte	0x2
 7423 0b4b 6D       		.byte	0x6d
 7424 0b4c 710A0000 		.4byte	0xa71
 7425 0b50 34       		.byte	0x34
 7426 0b51 00       		.byte	0
 7427 0b52 02       		.uleb128 0x2
 7428 0b53 BA040000 		.4byte	.LASF195
 7429 0b57 02       		.byte	0x2
 7430 0b58 6E       		.byte	0x6e
 7431 0b59 AA0A0000 		.4byte	0xaaa
 7432 0b5d 0F       		.uleb128 0xf
 7433 0b5e 01       		.byte	0x1
 7434 0b5f 42000000 		.4byte	0x42
 7435 0b63 02       		.byte	0x2
 7436 0b64 70       		.byte	0x70
 7437 0b65 700B0000 		.4byte	0xb70
 7438 0b69 10       		.uleb128 0x10
 7439 0b6a 970E0000 		.4byte	.LASF196
 7440 0b6e 00       		.byte	0
 7441 0b6f 00       		.byte	0
 7442 0b70 02       		.uleb128 0x2
 7443 0b71 F90E0000 		.4byte	.LASF197
 7444 0b75 02       		.byte	0x2
 7445 0b76 73       		.byte	0x73
 7446 0b77 B8000000 		.4byte	0xb8
 7447 0b7b 0F       		.uleb128 0xf
 7448 0b7c 01       		.byte	0x1
 7449 0b7d 42000000 		.4byte	0x42
 7450 0b81 0E       		.byte	0xe
 7451 0b82 2B       		.byte	0x2b
 7452 0b83 A60B0000 		.4byte	0xba6
 7453 0b87 10       		.uleb128 0x10
 7454 0b88 AD050000 		.4byte	.LASF198
 7455 0b8c 00       		.byte	0
 7456 0b8d 10       		.uleb128 0x10
 7457 0b8e AC030000 		.4byte	.LASF199
 7458 0b92 01       		.byte	0x1
 7459 0b93 10       		.uleb128 0x10
 7460 0b94 95070000 		.4byte	.LASF200
 7461 0b98 02       		.byte	0x2
 7462 0b99 10       		.uleb128 0x10
 7463 0b9a 96060000 		.4byte	.LASF201
 7464 0b9e 04       		.byte	0x4
 7465 0b9f 10       		.uleb128 0x10
 7466 0ba0 59030000 		.4byte	.LASF202
 7467 0ba4 08       		.byte	0x8
 7468 0ba5 00       		.byte	0
ARM GAS  C:\Users\tmj32\AppData\Local\Temp\ccrrExWC.s 			page 173


 7469 0ba6 06       		.uleb128 0x6
 7470 0ba7 14       		.byte	0x14
 7471 0ba8 0F       		.byte	0xf
 7472 0ba9 34       		.byte	0x34
 7473 0baa EA0B0000 		.4byte	0xbea
 7474 0bae 08       		.uleb128 0x8
 7475 0baf 72656C00 		.ascii	"rel\000"
 7476 0bb3 0F       		.byte	0xf
 7477 0bb4 36       		.byte	0x36
 7478 0bb5 B5050000 		.4byte	0x5b5
 7479 0bb9 00       		.byte	0
 7480 0bba 08       		.uleb128 0x8
 7481 0bbb 707200   		.ascii	"pr\000"
 7482 0bbe 0F       		.byte	0xf
 7483 0bbf 37       		.byte	0x37
 7484 0bc0 B5050000 		.4byte	0x5b5
 7485 0bc4 04       		.byte	0x4
 7486 0bc5 07       		.uleb128 0x7
 7487 0bc6 250A0000 		.4byte	.LASF203
 7488 0bca 0F       		.byte	0xf
 7489 0bcb 38       		.byte	0x38
 7490 0bcc B5050000 		.4byte	0x5b5
 7491 0bd0 08       		.byte	0x8
 7492 0bd1 07       		.uleb128 0x7
 7493 0bd2 2E040000 		.4byte	.LASF204
 7494 0bd6 0F       		.byte	0xf
 7495 0bd7 39       		.byte	0x39
 7496 0bd8 B5050000 		.4byte	0x5b5
 7497 0bdc 0C       		.byte	0xc
 7498 0bdd 08       		.uleb128 0x8
 7499 0bde 696E6100 		.ascii	"ina\000"
 7500 0be2 0F       		.byte	0xf
 7501 0be3 3A       		.byte	0x3a
 7502 0be4 B5050000 		.4byte	0x5b5
 7503 0be8 10       		.byte	0x10
 7504 0be9 00       		.byte	0
 7505 0bea 06       		.uleb128 0x6
 7506 0beb 14       		.byte	0x14
 7507 0bec 0F       		.byte	0xf
 7508 0bed 3F       		.byte	0x3f
 7509 0bee 2E0C0000 		.4byte	0xc2e
 7510 0bf2 08       		.uleb128 0x8
 7511 0bf3 72656C00 		.ascii	"rel\000"
 7512 0bf7 0F       		.byte	0xf
 7513 0bf8 41       		.byte	0x41
 7514 0bf9 B5050000 		.4byte	0x5b5
 7515 0bfd 00       		.byte	0
 7516 0bfe 08       		.uleb128 0x8
 7517 0bff 707200   		.ascii	"pr\000"
 7518 0c02 0F       		.byte	0xf
 7519 0c03 42       		.byte	0x42
 7520 0c04 B5050000 		.4byte	0x5b5
 7521 0c08 04       		.byte	0x4
 7522 0c09 07       		.uleb128 0x7
 7523 0c0a 250A0000 		.4byte	.LASF203
 7524 0c0e 0F       		.byte	0xf
 7525 0c0f 43       		.byte	0x43
ARM GAS  C:\Users\tmj32\AppData\Local\Temp\ccrrExWC.s 			page 174


 7526 0c10 B5050000 		.4byte	0x5b5
 7527 0c14 08       		.byte	0x8
 7528 0c15 07       		.uleb128 0x7
 7529 0c16 2E040000 		.4byte	.LASF204
 7530 0c1a 0F       		.byte	0xf
 7531 0c1b 44       		.byte	0x44
 7532 0c1c B5050000 		.4byte	0x5b5
 7533 0c20 0C       		.byte	0xc
 7534 0c21 08       		.uleb128 0x8
 7535 0c22 696E6100 		.ascii	"ina\000"
 7536 0c26 0F       		.byte	0xf
 7537 0c27 45       		.byte	0x45
 7538 0c28 B5050000 		.4byte	0x5b5
 7539 0c2c 10       		.byte	0x10
 7540 0c2d 00       		.byte	0
 7541 0c2e 06       		.uleb128 0x6
 7542 0c2f 0C       		.byte	0xc
 7543 0c30 0F       		.byte	0xf
 7544 0c31 4A       		.byte	0x4a
 7545 0c32 5B0C0000 		.4byte	0xc5b
 7546 0c36 07       		.uleb128 0x7
 7547 0c37 89020000 		.4byte	.LASF205
 7548 0c3b 0F       		.byte	0xf
 7549 0c3c 4C       		.byte	0x4c
 7550 0c3d B5050000 		.4byte	0x5b5
 7551 0c41 00       		.byte	0
 7552 0c42 08       		.uleb128 0x8
 7553 0c43 73656300 		.ascii	"sec\000"
 7554 0c47 0F       		.byte	0xf
 7555 0c48 4D       		.byte	0x4d
 7556 0c49 B5050000 		.4byte	0x5b5
 7557 0c4d 04       		.byte	0x4
 7558 0c4e 07       		.uleb128 0x7
 7559 0c4f 41070000 		.4byte	.LASF206
 7560 0c53 0F       		.byte	0xf
 7561 0c54 4E       		.byte	0x4e
 7562 0c55 B5050000 		.4byte	0x5b5
 7563 0c59 08       		.byte	0x8
 7564 0c5a 00       		.byte	0
 7565 0c5b 06       		.uleb128 0x6
 7566 0c5c 08       		.byte	0x8
 7567 0c5d 0F       		.byte	0xf
 7568 0c5e 53       		.byte	0x53
 7569 0c5f 7C0C0000 		.4byte	0xc7c
 7570 0c63 07       		.uleb128 0x7
 7571 0c64 7E020000 		.4byte	.LASF207
 7572 0c68 0F       		.byte	0xf
 7573 0c69 55       		.byte	0x55
 7574 0c6a B5050000 		.4byte	0x5b5
 7575 0c6e 00       		.byte	0
 7576 0c6f 07       		.uleb128 0x7
 7577 0c70 89110000 		.4byte	.LASF182
 7578 0c74 0F       		.byte	0xf
 7579 0c75 56       		.byte	0x56
 7580 0c76 B5050000 		.4byte	0x5b5
 7581 0c7a 04       		.byte	0x4
 7582 0c7b 00       		.byte	0
ARM GAS  C:\Users\tmj32\AppData\Local\Temp\ccrrExWC.s 			page 175


 7583 0c7c 06       		.uleb128 0x6
 7584 0c7d 04       		.byte	0x4
 7585 0c7e 0F       		.byte	0xf
 7586 0c7f 5B       		.byte	0x5b
 7587 0c80 910C0000 		.4byte	0xc91
 7588 0c84 07       		.uleb128 0x7
 7589 0c85 E80D0000 		.4byte	.LASF208
 7590 0c89 0F       		.byte	0xf
 7591 0c8a 5D       		.byte	0x5d
 7592 0c8b B5050000 		.4byte	0x5b5
 7593 0c8f 00       		.byte	0
 7594 0c90 00       		.byte	0
 7595 0c91 06       		.uleb128 0x6
 7596 0c92 08       		.byte	0x8
 7597 0c93 0F       		.byte	0xf
 7598 0c94 66       		.byte	0x66
 7599 0c95 B10C0000 		.4byte	0xcb1
 7600 0c99 08       		.uleb128 0x8
 7601 0c9a 626700   		.ascii	"bg\000"
 7602 0c9d 0F       		.byte	0xf
 7603 0c9e 68       		.byte	0x68
 7604 0c9f B5050000 		.4byte	0x5b5
 7605 0ca3 00       		.byte	0
 7606 0ca4 07       		.uleb128 0x7
 7607 0ca5 17090000 		.4byte	.LASF209
 7608 0ca9 0F       		.byte	0xf
 7609 0caa 69       		.byte	0x69
 7610 0cab B5050000 		.4byte	0x5b5
 7611 0caf 04       		.byte	0x4
 7612 0cb0 00       		.byte	0
 7613 0cb1 06       		.uleb128 0x6
 7614 0cb2 0C       		.byte	0xc
 7615 0cb3 0F       		.byte	0xf
 7616 0cb4 6E       		.byte	0x6e
 7617 0cb5 DD0C0000 		.4byte	0xcdd
 7618 0cb9 08       		.uleb128 0x8
 7619 0cba 626700   		.ascii	"bg\000"
 7620 0cbd 0F       		.byte	0xf
 7621 0cbe 70       		.byte	0x70
 7622 0cbf B5050000 		.4byte	0x5b5
 7623 0cc3 00       		.byte	0
 7624 0cc4 07       		.uleb128 0x7
 7625 0cc5 17090000 		.4byte	.LASF209
 7626 0cc9 0F       		.byte	0xf
 7627 0cca 71       		.byte	0x71
 7628 0ccb B5050000 		.4byte	0x5b5
 7629 0ccf 04       		.byte	0x4
 7630 0cd0 07       		.uleb128 0x7
 7631 0cd1 85120000 		.4byte	.LASF210
 7632 0cd5 0F       		.byte	0xf
 7633 0cd6 72       		.byte	0x72
 7634 0cd7 B5050000 		.4byte	0x5b5
 7635 0cdb 08       		.byte	0x8
 7636 0cdc 00       		.byte	0
 7637 0cdd 06       		.uleb128 0x6
 7638 0cde 10       		.byte	0x10
 7639 0cdf 0F       		.byte	0xf
ARM GAS  C:\Users\tmj32\AppData\Local\Temp\ccrrExWC.s 			page 176


 7640 0ce0 87       		.byte	0x87
 7641 0ce1 150D0000 		.4byte	0xd15
 7642 0ce5 08       		.uleb128 0x8
 7643 0ce6 626700   		.ascii	"bg\000"
 7644 0ce9 0F       		.byte	0xf
 7645 0cea 89       		.byte	0x89
 7646 0ceb B5050000 		.4byte	0x5b5
 7647 0cef 00       		.byte	0
 7648 0cf0 07       		.uleb128 0x7
 7649 0cf1 17090000 		.4byte	.LASF209
 7650 0cf5 0F       		.byte	0xf
 7651 0cf6 8A       		.byte	0x8a
 7652 0cf7 B5050000 		.4byte	0x5b5
 7653 0cfb 04       		.byte	0x4
 7654 0cfc 07       		.uleb128 0x7
 7655 0cfd C60A0000 		.4byte	.LASF211
 7656 0d01 0F       		.byte	0xf
 7657 0d02 8B       		.byte	0x8b
 7658 0d03 B5050000 		.4byte	0x5b5
 7659 0d07 08       		.byte	0x8
 7660 0d08 07       		.uleb128 0x7
 7661 0d09 CF040000 		.4byte	.LASF212
 7662 0d0d 0F       		.byte	0xf
 7663 0d0e 8C       		.byte	0x8c
 7664 0d0f B5050000 		.4byte	0x5b5
 7665 0d13 0C       		.byte	0xc
 7666 0d14 00       		.byte	0
 7667 0d15 06       		.uleb128 0x6
 7668 0d16 20       		.byte	0x20
 7669 0d17 0F       		.byte	0xf
 7670 0d18 95       		.byte	0x95
 7671 0d19 7D0D0000 		.4byte	0xd7d
 7672 0d1d 08       		.uleb128 0x8
 7673 0d1e 626700   		.ascii	"bg\000"
 7674 0d21 0F       		.byte	0xf
 7675 0d22 97       		.byte	0x97
 7676 0d23 B5050000 		.4byte	0x5b5
 7677 0d27 00       		.byte	0
 7678 0d28 07       		.uleb128 0x7
 7679 0d29 F5040000 		.4byte	.LASF213
 7680 0d2d 0F       		.byte	0xf
 7681 0d2e 98       		.byte	0x98
 7682 0d2f B5050000 		.4byte	0x5b5
 7683 0d33 04       		.byte	0x4
 7684 0d34 07       		.uleb128 0x7
 7685 0d35 37000000 		.4byte	.LASF214
 7686 0d39 0F       		.byte	0xf
 7687 0d3a 99       		.byte	0x99
 7688 0d3b B5050000 		.4byte	0x5b5
 7689 0d3f 08       		.byte	0x8
 7690 0d40 07       		.uleb128 0x7
 7691 0d41 62100000 		.4byte	.LASF215
 7692 0d45 0F       		.byte	0xf
 7693 0d46 9A       		.byte	0x9a
 7694 0d47 B5050000 		.4byte	0x5b5
 7695 0d4b 0C       		.byte	0xc
 7696 0d4c 07       		.uleb128 0x7
ARM GAS  C:\Users\tmj32\AppData\Local\Temp\ccrrExWC.s 			page 177


 7697 0d4d 9C010000 		.4byte	.LASF216
 7698 0d51 0F       		.byte	0xf
 7699 0d52 9B       		.byte	0x9b
 7700 0d53 B5050000 		.4byte	0x5b5
 7701 0d57 10       		.byte	0x10
 7702 0d58 07       		.uleb128 0x7
 7703 0d59 4A060000 		.4byte	.LASF217
 7704 0d5d 0F       		.byte	0xf
 7705 0d5e 9C       		.byte	0x9c
 7706 0d5f B5050000 		.4byte	0x5b5
 7707 0d63 14       		.byte	0x14
 7708 0d64 07       		.uleb128 0x7
 7709 0d65 4A050000 		.4byte	.LASF218
 7710 0d69 0F       		.byte	0xf
 7711 0d6a 9D       		.byte	0x9d
 7712 0d6b B5050000 		.4byte	0x5b5
 7713 0d6f 18       		.byte	0x18
 7714 0d70 07       		.uleb128 0x7
 7715 0d71 0C040000 		.4byte	.LASF219
 7716 0d75 0F       		.byte	0xf
 7717 0d76 9E       		.byte	0x9e
 7718 0d77 B5050000 		.4byte	0x5b5
 7719 0d7b 1C       		.byte	0x1c
 7720 0d7c 00       		.byte	0
 7721 0d7d 06       		.uleb128 0x6
 7722 0d7e 14       		.byte	0x14
 7723 0d7f 0F       		.byte	0xf
 7724 0d80 A6       		.byte	0xa6
 7725 0d81 C10D0000 		.4byte	0xdc1
 7726 0d85 08       		.uleb128 0x8
 7727 0d86 72656C00 		.ascii	"rel\000"
 7728 0d8a 0F       		.byte	0xf
 7729 0d8b A8       		.byte	0xa8
 7730 0d8c B5050000 		.4byte	0x5b5
 7731 0d90 00       		.byte	0
 7732 0d91 08       		.uleb128 0x8
 7733 0d92 707200   		.ascii	"pr\000"
 7734 0d95 0F       		.byte	0xf
 7735 0d96 A9       		.byte	0xa9
 7736 0d97 B5050000 		.4byte	0x5b5
 7737 0d9b 04       		.byte	0x4
 7738 0d9c 07       		.uleb128 0x7
 7739 0d9d 250A0000 		.4byte	.LASF203
 7740 0da1 0F       		.byte	0xf
 7741 0da2 AA       		.byte	0xaa
 7742 0da3 B5050000 		.4byte	0x5b5
 7743 0da7 08       		.byte	0x8
 7744 0da8 07       		.uleb128 0x7
 7745 0da9 2E040000 		.4byte	.LASF204
 7746 0dad 0F       		.byte	0xf
 7747 0dae AB       		.byte	0xab
 7748 0daf B5050000 		.4byte	0x5b5
 7749 0db3 0C       		.byte	0xc
 7750 0db4 08       		.uleb128 0x8
 7751 0db5 696E6100 		.ascii	"ina\000"
 7752 0db9 0F       		.byte	0xf
 7753 0dba AC       		.byte	0xac
ARM GAS  C:\Users\tmj32\AppData\Local\Temp\ccrrExWC.s 			page 178


 7754 0dbb B5050000 		.4byte	0x5b5
 7755 0dbf 10       		.byte	0x10
 7756 0dc0 00       		.byte	0
 7757 0dc1 06       		.uleb128 0x6
 7758 0dc2 18       		.byte	0x18
 7759 0dc3 0F       		.byte	0xf
 7760 0dc4 A3       		.byte	0xa3
 7761 0dc5 E10D0000 		.4byte	0xde1
 7762 0dc9 08       		.uleb128 0x8
 7763 0dca 626700   		.ascii	"bg\000"
 7764 0dcd 0F       		.byte	0xf
 7765 0dce A5       		.byte	0xa5
 7766 0dcf B5050000 		.4byte	0x5b5
 7767 0dd3 00       		.byte	0
 7768 0dd4 08       		.uleb128 0x8
 7769 0dd5 626F7800 		.ascii	"box\000"
 7770 0dd9 0F       		.byte	0xf
 7771 0dda AD       		.byte	0xad
 7772 0ddb 7D0D0000 		.4byte	0xd7d
 7773 0ddf 04       		.byte	0x4
 7774 0de0 00       		.byte	0
 7775 0de1 06       		.uleb128 0x6
 7776 0de2 14       		.byte	0x14
 7777 0de3 0F       		.byte	0xf
 7778 0de4 B5       		.byte	0xb5
 7779 0de5 250E0000 		.4byte	0xe25
 7780 0de9 08       		.uleb128 0x8
 7781 0dea 72656C00 		.ascii	"rel\000"
 7782 0dee 0F       		.byte	0xf
 7783 0def B7       		.byte	0xb7
 7784 0df0 B5050000 		.4byte	0x5b5
 7785 0df4 00       		.byte	0
 7786 0df5 08       		.uleb128 0x8
 7787 0df6 707200   		.ascii	"pr\000"
 7788 0df9 0F       		.byte	0xf
 7789 0dfa B8       		.byte	0xb8
 7790 0dfb B5050000 		.4byte	0x5b5
 7791 0dff 04       		.byte	0x4
 7792 0e00 07       		.uleb128 0x7
 7793 0e01 250A0000 		.4byte	.LASF203
 7794 0e05 0F       		.byte	0xf
 7795 0e06 B9       		.byte	0xb9
 7796 0e07 B5050000 		.4byte	0x5b5
 7797 0e0b 08       		.byte	0x8
 7798 0e0c 07       		.uleb128 0x7
 7799 0e0d 2E040000 		.4byte	.LASF204
 7800 0e11 0F       		.byte	0xf
 7801 0e12 BA       		.byte	0xba
 7802 0e13 B5050000 		.4byte	0x5b5
 7803 0e17 0C       		.byte	0xc
 7804 0e18 08       		.uleb128 0x8
 7805 0e19 696E6100 		.ascii	"ina\000"
 7806 0e1d 0F       		.byte	0xf
 7807 0e1e BB       		.byte	0xbb
 7808 0e1f B5050000 		.4byte	0x5b5
 7809 0e23 10       		.byte	0x10
 7810 0e24 00       		.byte	0
ARM GAS  C:\Users\tmj32\AppData\Local\Temp\ccrrExWC.s 			page 179


 7811 0e25 06       		.uleb128 0x6
 7812 0e26 18       		.byte	0x18
 7813 0e27 0F       		.byte	0xf
 7814 0e28 B2       		.byte	0xb2
 7815 0e29 450E0000 		.4byte	0xe45
 7816 0e2d 08       		.uleb128 0x8
 7817 0e2e 626700   		.ascii	"bg\000"
 7818 0e31 0F       		.byte	0xf
 7819 0e32 B4       		.byte	0xb4
 7820 0e33 B5050000 		.4byte	0x5b5
 7821 0e37 00       		.byte	0
 7822 0e38 08       		.uleb128 0x8
 7823 0e39 62746E00 		.ascii	"btn\000"
 7824 0e3d 0F       		.byte	0xf
 7825 0e3e BC       		.byte	0xbc
 7826 0e3f E10D0000 		.4byte	0xde1
 7827 0e43 04       		.byte	0x4
 7828 0e44 00       		.byte	0
 7829 0e45 06       		.uleb128 0x6
 7830 0e46 14       		.byte	0x14
 7831 0e47 0F       		.byte	0xf
 7832 0e48 C4       		.byte	0xc4
 7833 0e49 890E0000 		.4byte	0xe89
 7834 0e4d 08       		.uleb128 0x8
 7835 0e4e 72656C00 		.ascii	"rel\000"
 7836 0e52 0F       		.byte	0xf
 7837 0e53 C6       		.byte	0xc6
 7838 0e54 B5050000 		.4byte	0x5b5
 7839 0e58 00       		.byte	0
 7840 0e59 08       		.uleb128 0x8
 7841 0e5a 707200   		.ascii	"pr\000"
 7842 0e5d 0F       		.byte	0xf
 7843 0e5e C7       		.byte	0xc7
 7844 0e5f B5050000 		.4byte	0x5b5
 7845 0e63 04       		.byte	0x4
 7846 0e64 07       		.uleb128 0x7
 7847 0e65 250A0000 		.4byte	.LASF203
 7848 0e69 0F       		.byte	0xf
 7849 0e6a C8       		.byte	0xc8
 7850 0e6b B5050000 		.4byte	0x5b5
 7851 0e6f 08       		.byte	0x8
 7852 0e70 07       		.uleb128 0x7
 7853 0e71 2E040000 		.4byte	.LASF204
 7854 0e75 0F       		.byte	0xf
 7855 0e76 C9       		.byte	0xc9
 7856 0e77 B5050000 		.4byte	0x5b5
 7857 0e7b 0C       		.byte	0xc
 7858 0e7c 08       		.uleb128 0x8
 7859 0e7d 696E6100 		.ascii	"ina\000"
 7860 0e81 0F       		.byte	0xf
 7861 0e82 CA       		.byte	0xca
 7862 0e83 B5050000 		.4byte	0x5b5
 7863 0e87 10       		.byte	0x10
 7864 0e88 00       		.byte	0
 7865 0e89 06       		.uleb128 0x6
 7866 0e8a 18       		.byte	0x18
 7867 0e8b 0F       		.byte	0xf
ARM GAS  C:\Users\tmj32\AppData\Local\Temp\ccrrExWC.s 			page 180


 7868 0e8c C1       		.byte	0xc1
 7869 0e8d A90E0000 		.4byte	0xea9
 7870 0e91 08       		.uleb128 0x8
 7871 0e92 626700   		.ascii	"bg\000"
 7872 0e95 0F       		.byte	0xf
 7873 0e96 C3       		.byte	0xc3
 7874 0e97 B5050000 		.4byte	0x5b5
 7875 0e9b 00       		.byte	0
 7876 0e9c 08       		.uleb128 0x8
 7877 0e9d 62746E00 		.ascii	"btn\000"
 7878 0ea1 0F       		.byte	0xf
 7879 0ea2 CB       		.byte	0xcb
 7880 0ea3 450E0000 		.4byte	0xe45
 7881 0ea7 04       		.byte	0x4
 7882 0ea8 00       		.byte	0
 7883 0ea9 06       		.uleb128 0x6
 7884 0eaa 0C       		.byte	0xc
 7885 0eab 0F       		.byte	0xf
 7886 0eac D3       		.byte	0xd3
 7887 0ead D40E0000 		.4byte	0xed4
 7888 0eb1 08       		.uleb128 0x8
 7889 0eb2 626700   		.ascii	"bg\000"
 7890 0eb5 0F       		.byte	0xf
 7891 0eb6 D5       		.byte	0xd5
 7892 0eb7 B5050000 		.4byte	0x5b5
 7893 0ebb 00       		.byte	0
 7894 0ebc 08       		.uleb128 0x8
 7895 0ebd 72656C00 		.ascii	"rel\000"
 7896 0ec1 0F       		.byte	0xf
 7897 0ec2 D6       		.byte	0xd6
 7898 0ec3 B5050000 		.4byte	0x5b5
 7899 0ec7 04       		.byte	0x4
 7900 0ec8 08       		.uleb128 0x8
 7901 0ec9 707200   		.ascii	"pr\000"
 7902 0ecc 0F       		.byte	0xf
 7903 0ecd D7       		.byte	0xd7
 7904 0ece B5050000 		.4byte	0x5b5
 7905 0ed2 08       		.byte	0x8
 7906 0ed3 00       		.byte	0
 7907 0ed4 06       		.uleb128 0x6
 7908 0ed5 10       		.byte	0x10
 7909 0ed6 0F       		.byte	0xf
 7910 0ed7 D0       		.byte	0xd0
 7911 0ed8 F40E0000 		.4byte	0xef4
 7912 0edc 08       		.uleb128 0x8
 7913 0edd 626700   		.ascii	"bg\000"
 7914 0ee0 0F       		.byte	0xf
 7915 0ee1 D2       		.byte	0xd2
 7916 0ee2 B5050000 		.4byte	0x5b5
 7917 0ee6 00       		.byte	0
 7918 0ee7 08       		.uleb128 0x8
 7919 0ee8 62746E00 		.ascii	"btn\000"
 7920 0eec 0F       		.byte	0xf
 7921 0eed D8       		.byte	0xd8
 7922 0eee A90E0000 		.4byte	0xea9
 7923 0ef2 04       		.byte	0x4
 7924 0ef3 00       		.byte	0
ARM GAS  C:\Users\tmj32\AppData\Local\Temp\ccrrExWC.s 			page 181


 7925 0ef4 06       		.uleb128 0x6
 7926 0ef5 0C       		.byte	0xc
 7927 0ef6 0F       		.byte	0xf
 7928 0ef7 DD       		.byte	0xdd
 7929 0ef8 1F0F0000 		.4byte	0xf1f
 7930 0efc 08       		.uleb128 0x8
 7931 0efd 626700   		.ascii	"bg\000"
 7932 0f00 0F       		.byte	0xf
 7933 0f01 DF       		.byte	0xdf
 7934 0f02 B5050000 		.4byte	0x5b5
 7935 0f06 00       		.byte	0
 7936 0f07 07       		.uleb128 0x7
 7937 0f08 5E040000 		.4byte	.LASF220
 7938 0f0c 0F       		.byte	0xf
 7939 0f0d E0       		.byte	0xe0
 7940 0f0e B5050000 		.4byte	0x5b5
 7941 0f12 04       		.byte	0x4
 7942 0f13 08       		.uleb128 0x8
 7943 0f14 736200   		.ascii	"sb\000"
 7944 0f17 0F       		.byte	0xf
 7945 0f18 E1       		.byte	0xe1
 7946 0f19 B5050000 		.4byte	0x5b5
 7947 0f1d 08       		.byte	0x8
 7948 0f1e 00       		.byte	0
 7949 0f1f 06       		.uleb128 0x6
 7950 0f20 10       		.byte	0x10
 7951 0f21 0F       		.byte	0xf
 7952 0f22 E6       		.byte	0xe6
 7953 0f23 570F0000 		.4byte	0xf57
 7954 0f27 07       		.uleb128 0x7
 7955 0f28 F3060000 		.4byte	.LASF221
 7956 0f2c 0F       		.byte	0xf
 7957 0f2d E8       		.byte	0xe8
 7958 0f2e B5050000 		.4byte	0x5b5
 7959 0f32 00       		.byte	0
 7960 0f33 07       		.uleb128 0x7
 7961 0f34 E4070000 		.4byte	.LASF222
 7962 0f38 0F       		.byte	0xf
 7963 0f39 E9       		.byte	0xe9
 7964 0f3a B5050000 		.4byte	0x5b5
 7965 0f3e 04       		.byte	0x4
 7966 0f3f 07       		.uleb128 0x7
 7967 0f40 B5120000 		.4byte	.LASF223
 7968 0f44 0F       		.byte	0xf
 7969 0f45 EA       		.byte	0xea
 7970 0f46 B5050000 		.4byte	0x5b5
 7971 0f4a 08       		.byte	0x8
 7972 0f4b 08       		.uleb128 0x8
 7973 0f4c 736200   		.ascii	"sb\000"
 7974 0f4f 0F       		.byte	0xf
 7975 0f50 EB       		.byte	0xeb
 7976 0f51 B5050000 		.4byte	0x5b5
 7977 0f55 0C       		.byte	0xc
 7978 0f56 00       		.byte	0
 7979 0f57 06       		.uleb128 0x6
 7980 0f58 0C       		.byte	0xc
 7981 0f59 0F       		.byte	0xf
ARM GAS  C:\Users\tmj32\AppData\Local\Temp\ccrrExWC.s 			page 182


 7982 0f5a F0       		.byte	0xf0
 7983 0f5b 820F0000 		.4byte	0xf82
 7984 0f5f 08       		.uleb128 0x8
 7985 0f60 626700   		.ascii	"bg\000"
 7986 0f63 0F       		.byte	0xf
 7987 0f64 F2       		.byte	0xf2
 7988 0f65 B5050000 		.4byte	0x5b5
 7989 0f69 00       		.byte	0
 7990 0f6a 07       		.uleb128 0x7
 7991 0f6b B5120000 		.4byte	.LASF223
 7992 0f6f 0F       		.byte	0xf
 7993 0f70 F3       		.byte	0xf3
 7994 0f71 B5050000 		.4byte	0x5b5
 7995 0f75 04       		.byte	0x4
 7996 0f76 08       		.uleb128 0x8
 7997 0f77 736200   		.ascii	"sb\000"
 7998 0f7a 0F       		.byte	0xf
 7999 0f7b F4       		.byte	0xf4
 8000 0f7c B5050000 		.4byte	0x5b5
 8001 0f80 08       		.byte	0x8
 8002 0f81 00       		.byte	0
 8003 0f82 06       		.uleb128 0x6
 8004 0f83 14       		.byte	0x14
 8005 0f84 0F       		.byte	0xf
 8006 0f85 FE       		.byte	0xfe
 8007 0f86 CB0F0000 		.4byte	0xfcb
 8008 0f8a 17       		.uleb128 0x17
 8009 0f8b 72656C00 		.ascii	"rel\000"
 8010 0f8f 0F       		.byte	0xf
 8011 0f90 0001     		.2byte	0x100
 8012 0f92 B5050000 		.4byte	0x5b5
 8013 0f96 00       		.byte	0
 8014 0f97 17       		.uleb128 0x17
 8015 0f98 707200   		.ascii	"pr\000"
 8016 0f9b 0F       		.byte	0xf
 8017 0f9c 0101     		.2byte	0x101
 8018 0f9e B5050000 		.4byte	0x5b5
 8019 0fa2 04       		.byte	0x4
 8020 0fa3 18       		.uleb128 0x18
 8021 0fa4 250A0000 		.4byte	.LASF203
 8022 0fa8 0F       		.byte	0xf
 8023 0fa9 0201     		.2byte	0x102
 8024 0fab B5050000 		.4byte	0x5b5
 8025 0faf 08       		.byte	0x8
 8026 0fb0 18       		.uleb128 0x18
 8027 0fb1 2E040000 		.4byte	.LASF204
 8028 0fb5 0F       		.byte	0xf
 8029 0fb6 0301     		.2byte	0x103
 8030 0fb8 B5050000 		.4byte	0x5b5
 8031 0fbc 0C       		.byte	0xc
 8032 0fbd 17       		.uleb128 0x17
 8033 0fbe 696E6100 		.ascii	"ina\000"
 8034 0fc2 0F       		.byte	0xf
 8035 0fc3 0401     		.2byte	0x104
 8036 0fc5 B5050000 		.4byte	0x5b5
 8037 0fc9 10       		.byte	0x10
 8038 0fca 00       		.byte	0
ARM GAS  C:\Users\tmj32\AppData\Local\Temp\ccrrExWC.s 			page 183


 8039 0fcb 06       		.uleb128 0x6
 8040 0fcc 20       		.byte	0x20
 8041 0fcd 0F       		.byte	0xf
 8042 0fce F9       		.byte	0xf9
 8043 0fcf 03100000 		.4byte	0x1003
 8044 0fd3 08       		.uleb128 0x8
 8045 0fd4 626700   		.ascii	"bg\000"
 8046 0fd7 0F       		.byte	0xf
 8047 0fd8 FB       		.byte	0xfb
 8048 0fd9 B5050000 		.4byte	0x5b5
 8049 0fdd 00       		.byte	0
 8050 0fde 07       		.uleb128 0x7
 8051 0fdf 5E040000 		.4byte	.LASF220
 8052 0fe3 0F       		.byte	0xf
 8053 0fe4 FC       		.byte	0xfc
 8054 0fe5 B5050000 		.4byte	0x5b5
 8055 0fe9 04       		.byte	0x4
 8056 0fea 08       		.uleb128 0x8
 8057 0feb 736200   		.ascii	"sb\000"
 8058 0fee 0F       		.byte	0xf
 8059 0fef FD       		.byte	0xfd
 8060 0ff0 B5050000 		.4byte	0x5b5
 8061 0ff4 08       		.byte	0x8
 8062 0ff5 17       		.uleb128 0x17
 8063 0ff6 62746E00 		.ascii	"btn\000"
 8064 0ffa 0F       		.byte	0xf
 8065 0ffb 0501     		.2byte	0x105
 8066 0ffd 820F0000 		.4byte	0xf82
 8067 1001 0C       		.byte	0xc
 8068 1002 00       		.byte	0
 8069 1003 19       		.uleb128 0x19
 8070 1004 0C       		.byte	0xc
 8071 1005 0F       		.byte	0xf
 8072 1006 0A01     		.2byte	0x10a
 8073 1008 32100000 		.4byte	0x1032
 8074 100c 17       		.uleb128 0x17
 8075 100d 626700   		.ascii	"bg\000"
 8076 1010 0F       		.byte	0xf
 8077 1011 0C01     		.2byte	0x10c
 8078 1013 B5050000 		.4byte	0x5b5
 8079 1017 00       		.byte	0
 8080 1018 17       		.uleb128 0x17
 8081 1019 73656C00 		.ascii	"sel\000"
 8082 101d 0F       		.byte	0xf
 8083 101e 0D01     		.2byte	0x10d
 8084 1020 B5050000 		.4byte	0x5b5
 8085 1024 04       		.byte	0x4
 8086 1025 17       		.uleb128 0x17
 8087 1026 736200   		.ascii	"sb\000"
 8088 1029 0F       		.byte	0xf
 8089 102a 0E01     		.2byte	0x10e
 8090 102c B5050000 		.4byte	0x5b5
 8091 1030 08       		.byte	0x8
 8092 1031 00       		.byte	0
 8093 1032 19       		.uleb128 0x19
 8094 1033 08       		.byte	0x8
 8095 1034 0F       		.byte	0xf
ARM GAS  C:\Users\tmj32\AppData\Local\Temp\ccrrExWC.s 			page 184


 8096 1035 1301     		.2byte	0x113
 8097 1037 55100000 		.4byte	0x1055
 8098 103b 17       		.uleb128 0x17
 8099 103c 626700   		.ascii	"bg\000"
 8100 103f 0F       		.byte	0xf
 8101 1040 1501     		.2byte	0x115
 8102 1042 B5050000 		.4byte	0x5b5
 8103 1046 00       		.byte	0
 8104 1047 17       		.uleb128 0x17
 8105 1048 73656C00 		.ascii	"sel\000"
 8106 104c 0F       		.byte	0xf
 8107 104d 1601     		.2byte	0x116
 8108 104f B5050000 		.4byte	0x5b5
 8109 1053 04       		.byte	0x4
 8110 1054 00       		.byte	0
 8111 1055 19       		.uleb128 0x19
 8112 1056 14       		.byte	0x14
 8113 1057 0F       		.byte	0xf
 8114 1058 1F01     		.2byte	0x11f
 8115 105a 9E100000 		.4byte	0x109e
 8116 105e 17       		.uleb128 0x17
 8117 105f 626700   		.ascii	"bg\000"
 8118 1062 0F       		.byte	0xf
 8119 1063 2101     		.2byte	0x121
 8120 1065 B5050000 		.4byte	0x5b5
 8121 1069 00       		.byte	0
 8122 106a 17       		.uleb128 0x17
 8123 106b 72656C00 		.ascii	"rel\000"
 8124 106f 0F       		.byte	0xf
 8125 1070 2201     		.2byte	0x122
 8126 1072 B5050000 		.4byte	0x5b5
 8127 1076 04       		.byte	0x4
 8128 1077 17       		.uleb128 0x17
 8129 1078 707200   		.ascii	"pr\000"
 8130 107b 0F       		.byte	0xf
 8131 107c 2301     		.2byte	0x123
 8132 107e B5050000 		.4byte	0x5b5
 8133 1082 08       		.byte	0x8
 8134 1083 18       		.uleb128 0x18
 8135 1084 250A0000 		.4byte	.LASF203
 8136 1088 0F       		.byte	0xf
 8137 1089 2401     		.2byte	0x124
 8138 108b B5050000 		.4byte	0x5b5
 8139 108f 0C       		.byte	0xc
 8140 1090 18       		.uleb128 0x18
 8141 1091 2E040000 		.4byte	.LASF204
 8142 1095 0F       		.byte	0xf
 8143 1096 2501     		.2byte	0x125
 8144 1098 B5050000 		.4byte	0x5b5
 8145 109c 10       		.byte	0x10
 8146 109d 00       		.byte	0
 8147 109e 19       		.uleb128 0x19
 8148 109f 1C       		.byte	0x1c
 8149 10a0 0F       		.byte	0xf
 8150 10a1 1B01     		.2byte	0x11b
 8151 10a3 CE100000 		.4byte	0x10ce
 8152 10a7 17       		.uleb128 0x17
ARM GAS  C:\Users\tmj32\AppData\Local\Temp\ccrrExWC.s 			page 185


 8153 10a8 626700   		.ascii	"bg\000"
 8154 10ab 0F       		.byte	0xf
 8155 10ac 1D01     		.2byte	0x11d
 8156 10ae B5050000 		.4byte	0x5b5
 8157 10b2 00       		.byte	0
 8158 10b3 18       		.uleb128 0x18
 8159 10b4 17090000 		.4byte	.LASF209
 8160 10b8 0F       		.byte	0xf
 8161 10b9 1E01     		.2byte	0x11e
 8162 10bb B5050000 		.4byte	0x5b5
 8163 10bf 04       		.byte	0x4
 8164 10c0 17       		.uleb128 0x17
 8165 10c1 62746E00 		.ascii	"btn\000"
 8166 10c5 0F       		.byte	0xf
 8167 10c6 2601     		.2byte	0x126
 8168 10c8 55100000 		.4byte	0x1055
 8169 10cc 08       		.byte	0x8
 8170 10cd 00       		.byte	0
 8171 10ce 19       		.uleb128 0x19
 8172 10cf 0C       		.byte	0xc
 8173 10d0 0F       		.byte	0xf
 8174 10d1 2B01     		.2byte	0x12b
 8175 10d3 FD100000 		.4byte	0x10fd
 8176 10d7 17       		.uleb128 0x17
 8177 10d8 626700   		.ascii	"bg\000"
 8178 10db 0F       		.byte	0xf
 8179 10dc 2D01     		.2byte	0x12d
 8180 10de B5050000 		.4byte	0x5b5
 8181 10e2 00       		.byte	0
 8182 10e3 18       		.uleb128 0x18
 8183 10e4 5E040000 		.4byte	.LASF220
 8184 10e8 0F       		.byte	0xf
 8185 10e9 2E01     		.2byte	0x12e
 8186 10eb B5050000 		.4byte	0x5b5
 8187 10ef 04       		.byte	0x4
 8188 10f0 17       		.uleb128 0x17
 8189 10f1 736200   		.ascii	"sb\000"
 8190 10f4 0F       		.byte	0xf
 8191 10f5 2F01     		.2byte	0x12f
 8192 10f7 B5050000 		.4byte	0x5b5
 8193 10fb 08       		.byte	0x8
 8194 10fc 00       		.byte	0
 8195 10fd 19       		.uleb128 0x19
 8196 10fe 08       		.byte	0x8
 8197 10ff 0F       		.byte	0xf
 8198 1100 3401     		.2byte	0x134
 8199 1102 20110000 		.4byte	0x1120
 8200 1106 17       		.uleb128 0x17
 8201 1107 626700   		.ascii	"bg\000"
 8202 110a 0F       		.byte	0xf
 8203 110b 3601     		.2byte	0x136
 8204 110d B5050000 		.4byte	0x5b5
 8205 1111 00       		.byte	0
 8206 1112 18       		.uleb128 0x18
 8207 1113 CB000000 		.4byte	.LASF224
 8208 1117 0F       		.byte	0xf
 8209 1118 3701     		.2byte	0x137
ARM GAS  C:\Users\tmj32\AppData\Local\Temp\ccrrExWC.s 			page 186


 8210 111a B5050000 		.4byte	0x5b5
 8211 111e 04       		.byte	0x4
 8212 111f 00       		.byte	0
 8213 1120 19       		.uleb128 0x19
 8214 1121 08       		.byte	0x8
 8215 1122 0F       		.byte	0xf
 8216 1123 4201     		.2byte	0x142
 8217 1125 43110000 		.4byte	0x1143
 8218 1129 17       		.uleb128 0x17
 8219 112a 72656C00 		.ascii	"rel\000"
 8220 112e 0F       		.byte	0xf
 8221 112f 4401     		.2byte	0x144
 8222 1131 B5050000 		.4byte	0x5b5
 8223 1135 00       		.byte	0
 8224 1136 17       		.uleb128 0x17
 8225 1137 707200   		.ascii	"pr\000"
 8226 113a 0F       		.byte	0xf
 8227 113b 4501     		.2byte	0x145
 8228 113d B5050000 		.4byte	0x5b5
 8229 1141 04       		.byte	0x4
 8230 1142 00       		.byte	0
 8231 1143 19       		.uleb128 0x19
 8232 1144 18       		.byte	0x18
 8233 1145 0F       		.byte	0xf
 8234 1146 3C01     		.2byte	0x13c
 8235 1148 8C110000 		.4byte	0x118c
 8236 114c 17       		.uleb128 0x17
 8237 114d 626700   		.ascii	"bg\000"
 8238 1150 0F       		.byte	0xf
 8239 1151 3E01     		.2byte	0x13e
 8240 1153 B5050000 		.4byte	0x5b5
 8241 1157 00       		.byte	0
 8242 1158 17       		.uleb128 0x17
 8243 1159 736200   		.ascii	"sb\000"
 8244 115c 0F       		.byte	0xf
 8245 115d 3F01     		.2byte	0x13f
 8246 115f B5050000 		.4byte	0x5b5
 8247 1163 04       		.byte	0x4
 8248 1164 18       		.uleb128 0x18
 8249 1165 F5040000 		.4byte	.LASF213
 8250 1169 0F       		.byte	0xf
 8251 116a 4001     		.2byte	0x140
 8252 116c B5050000 		.4byte	0x5b5
 8253 1170 08       		.byte	0x8
 8254 1171 18       		.uleb128 0x18
 8255 1172 FD100000 		.4byte	.LASF225
 8256 1176 0F       		.byte	0xf
 8257 1177 4101     		.2byte	0x141
 8258 1179 B5050000 		.4byte	0x5b5
 8259 117d 0C       		.byte	0xc
 8260 117e 17       		.uleb128 0x17
 8261 117f 62746E00 		.ascii	"btn\000"
 8262 1183 0F       		.byte	0xf
 8263 1184 4601     		.2byte	0x146
 8264 1186 20110000 		.4byte	0x1120
 8265 118a 10       		.byte	0x10
 8266 118b 00       		.byte	0
ARM GAS  C:\Users\tmj32\AppData\Local\Temp\ccrrExWC.s 			page 187


 8267 118c 1A       		.uleb128 0x1a
 8268 118d A801     		.2byte	0x1a8
 8269 118f 0F       		.byte	0xf
 8270 1190 29       		.byte	0x29
 8271 1191 2E130000 		.4byte	0x132e
 8272 1195 08       		.uleb128 0x8
 8273 1196 73637200 		.ascii	"scr\000"
 8274 119a 0F       		.byte	0xf
 8275 119b 2B       		.byte	0x2b
 8276 119c B5050000 		.4byte	0x5b5
 8277 11a0 00       		.byte	0
 8278 11a1 08       		.uleb128 0x8
 8279 11a2 626700   		.ascii	"bg\000"
 8280 11a5 0F       		.byte	0xf
 8281 11a6 2C       		.byte	0x2c
 8282 11a7 B5050000 		.4byte	0x5b5
 8283 11ab 04       		.byte	0x4
 8284 11ac 07       		.uleb128 0x7
 8285 11ad 040E0000 		.4byte	.LASF226
 8286 11b1 0F       		.byte	0xf
 8287 11b2 2D       		.byte	0x2d
 8288 11b3 B5050000 		.4byte	0x5b5
 8289 11b7 08       		.byte	0x8
 8290 11b8 07       		.uleb128 0x7
 8291 11b9 84020000 		.4byte	.LASF227
 8292 11bd 0F       		.byte	0xf
 8293 11be 30       		.byte	0x30
 8294 11bf B5050000 		.4byte	0x5b5
 8295 11c3 0C       		.byte	0xc
 8296 11c4 08       		.uleb128 0x8
 8297 11c5 62746E00 		.ascii	"btn\000"
 8298 11c9 0F       		.byte	0xf
 8299 11ca 3B       		.byte	0x3b
 8300 11cb A60B0000 		.4byte	0xba6
 8301 11cf 10       		.byte	0x10
 8302 11d0 07       		.uleb128 0x7
 8303 11d1 F30D0000 		.4byte	.LASF228
 8304 11d5 0F       		.byte	0xf
 8305 11d6 46       		.byte	0x46
 8306 11d7 EA0B0000 		.4byte	0xbea
 8307 11db 24       		.byte	0x24
 8308 11dc 07       		.uleb128 0x7
 8309 11dd 0E120000 		.4byte	.LASF229
 8310 11e1 0F       		.byte	0xf
 8311 11e2 4F       		.byte	0x4f
 8312 11e3 2E0C0000 		.4byte	0xc2e
 8313 11e7 38       		.byte	0x38
 8314 11e8 08       		.uleb128 0x8
 8315 11e9 696D6700 		.ascii	"img\000"
 8316 11ed 0F       		.byte	0xf
 8317 11ee 57       		.byte	0x57
 8318 11ef 5B0C0000 		.4byte	0xc5b
 8319 11f3 44       		.byte	0x44
 8320 11f4 07       		.uleb128 0x7
 8321 11f5 70070000 		.4byte	.LASF86
 8322 11f9 0F       		.byte	0xf
 8323 11fa 5E       		.byte	0x5e
ARM GAS  C:\Users\tmj32\AppData\Local\Temp\ccrrExWC.s 			page 188


 8324 11fb 7C0C0000 		.4byte	0xc7c
 8325 11ff 4C       		.byte	0x4c
 8326 1200 08       		.uleb128 0x8
 8327 1201 6C656400 		.ascii	"led\000"
 8328 1205 0F       		.byte	0xf
 8329 1206 62       		.byte	0x62
 8330 1207 B5050000 		.4byte	0x5b5
 8331 120b 50       		.byte	0x50
 8332 120c 08       		.uleb128 0x8
 8333 120d 62617200 		.ascii	"bar\000"
 8334 1211 0F       		.byte	0xf
 8335 1212 6A       		.byte	0x6a
 8336 1213 910C0000 		.4byte	0xc91
 8337 1217 54       		.byte	0x54
 8338 1218 07       		.uleb128 0x7
 8339 1219 8E070000 		.4byte	.LASF230
 8340 121d 0F       		.byte	0xf
 8341 121e 73       		.byte	0x73
 8342 121f B10C0000 		.4byte	0xcb1
 8343 1223 5C       		.byte	0x5c
 8344 1224 07       		.uleb128 0x7
 8345 1225 28010000 		.4byte	.LASF231
 8346 1229 0F       		.byte	0xf
 8347 122a 77       		.byte	0x77
 8348 122b B5050000 		.4byte	0x5b5
 8349 122f 68       		.byte	0x68
 8350 1230 07       		.uleb128 0x7
 8351 1231 CF0A0000 		.4byte	.LASF232
 8352 1235 0F       		.byte	0xf
 8353 1236 7B       		.byte	0x7b
 8354 1237 B5050000 		.4byte	0x5b5
 8355 123b 6C       		.byte	0x6c
 8356 123c 08       		.uleb128 0x8
 8357 123d 61726300 		.ascii	"arc\000"
 8358 1241 0F       		.byte	0xf
 8359 1242 7F       		.byte	0x7f
 8360 1243 B5050000 		.4byte	0x5b5
 8361 1247 70       		.byte	0x70
 8362 1248 07       		.uleb128 0x7
 8363 1249 100D0000 		.4byte	.LASF233
 8364 124d 0F       		.byte	0xf
 8365 124e 83       		.byte	0x83
 8366 124f B5050000 		.4byte	0x5b5
 8367 1253 74       		.byte	0x74
 8368 1254 08       		.uleb128 0x8
 8369 1255 737700   		.ascii	"sw\000"
 8370 1258 0F       		.byte	0xf
 8371 1259 8D       		.byte	0x8d
 8372 125a DD0C0000 		.4byte	0xcdd
 8373 125e 78       		.byte	0x78
 8374 125f 07       		.uleb128 0x7
 8375 1260 9E020000 		.4byte	.LASF234
 8376 1264 0F       		.byte	0xf
 8377 1265 91       		.byte	0x91
 8378 1266 B5050000 		.4byte	0x5b5
 8379 126a 88       		.byte	0x88
 8380 126b 07       		.uleb128 0x7
ARM GAS  C:\Users\tmj32\AppData\Local\Temp\ccrrExWC.s 			page 189


 8381 126c 700B0000 		.4byte	.LASF235
 8382 1270 0F       		.byte	0xf
 8383 1271 9F       		.byte	0x9f
 8384 1272 150D0000 		.4byte	0xd15
 8385 1276 8C       		.byte	0x8c
 8386 1277 08       		.uleb128 0x8
 8387 1278 636200   		.ascii	"cb\000"
 8388 127b 0F       		.byte	0xf
 8389 127c AE       		.byte	0xae
 8390 127d C10D0000 		.4byte	0xdc1
 8391 1281 AC       		.byte	0xac
 8392 1282 07       		.uleb128 0x7
 8393 1283 A7030000 		.4byte	.LASF236
 8394 1287 0F       		.byte	0xf
 8395 1288 BD       		.byte	0xbd
 8396 1289 250E0000 		.4byte	0xe25
 8397 128d C4       		.byte	0xc4
 8398 128e 08       		.uleb128 0x8
 8399 128f 6B6200   		.ascii	"kb\000"
 8400 1292 0F       		.byte	0xf
 8401 1293 CC       		.byte	0xcc
 8402 1294 890E0000 		.4byte	0xe89
 8403 1298 DC       		.byte	0xdc
 8404 1299 07       		.uleb128 0x7
 8405 129a 200A0000 		.4byte	.LASF237
 8406 129e 0F       		.byte	0xf
 8407 129f D9       		.byte	0xd9
 8408 12a0 D40E0000 		.4byte	0xed4
 8409 12a4 F4       		.byte	0xf4
 8410 12a5 1B       		.uleb128 0x1b
 8411 12a6 C10A0000 		.4byte	.LASF238
 8412 12aa 0F       		.byte	0xf
 8413 12ab E2       		.byte	0xe2
 8414 12ac F40E0000 		.4byte	0xef4
 8415 12b0 0401     		.2byte	0x104
 8416 12b2 1C       		.uleb128 0x1c
 8417 12b3 746100   		.ascii	"ta\000"
 8418 12b6 0F       		.byte	0xf
 8419 12b7 EC       		.byte	0xec
 8420 12b8 1F0F0000 		.4byte	0xf1f
 8421 12bc 1001     		.2byte	0x110
 8422 12be 1B       		.uleb128 0x1b
 8423 12bf 06100000 		.4byte	.LASF239
 8424 12c3 0F       		.byte	0xf
 8425 12c4 F5       		.byte	0xf5
 8426 12c5 570F0000 		.4byte	0xf57
 8427 12c9 2001     		.2byte	0x120
 8428 12cb 1D       		.uleb128 0x1d
 8429 12cc B10A0000 		.4byte	.LASF240
 8430 12d0 0F       		.byte	0xf
 8431 12d1 0601     		.2byte	0x106
 8432 12d3 CB0F0000 		.4byte	0xfcb
 8433 12d7 2C01     		.2byte	0x12c
 8434 12d9 1D       		.uleb128 0x1d
 8435 12da F0050000 		.4byte	.LASF241
 8436 12de 0F       		.byte	0xf
 8437 12df 0F01     		.2byte	0x10f
ARM GAS  C:\Users\tmj32\AppData\Local\Temp\ccrrExWC.s 			page 190


 8438 12e1 03100000 		.4byte	0x1003
 8439 12e5 4C01     		.2byte	0x14c
 8440 12e7 1D       		.uleb128 0x1d
 8441 12e8 DF120000 		.4byte	.LASF242
 8442 12ec 0F       		.byte	0xf
 8443 12ed 1701     		.2byte	0x117
 8444 12ef 32100000 		.4byte	0x1032
 8445 12f3 5801     		.2byte	0x158
 8446 12f5 1D       		.uleb128 0x1d
 8447 12f6 3E090000 		.4byte	.LASF243
 8448 12fa 0F       		.byte	0xf
 8449 12fb 2701     		.2byte	0x127
 8450 12fd 9E100000 		.4byte	0x109e
 8451 1301 6001     		.2byte	0x160
 8452 1303 1D       		.uleb128 0x1d
 8453 1304 50030000 		.4byte	.LASF244
 8454 1308 0F       		.byte	0xf
 8455 1309 3001     		.2byte	0x130
 8456 130b CE100000 		.4byte	0x10ce
 8457 130f 7C01     		.2byte	0x17c
 8458 1311 1D       		.uleb128 0x1d
 8459 1312 16050000 		.4byte	.LASF245
 8460 1316 0F       		.byte	0xf
 8461 1317 3801     		.2byte	0x138
 8462 1319 FD100000 		.4byte	0x10fd
 8463 131d 8801     		.2byte	0x188
 8464 131f 1E       		.uleb128 0x1e
 8465 1320 77696E00 		.ascii	"win\000"
 8466 1324 0F       		.byte	0xf
 8467 1325 4701     		.2byte	0x147
 8468 1327 43110000 		.4byte	0x1143
 8469 132b 9001     		.2byte	0x190
 8470 132d 00       		.byte	0
 8471 132e 1A       		.uleb128 0x1a
 8472 132f A801     		.2byte	0x1a8
 8473 1331 0F       		.byte	0xf
 8474 1332 27       		.byte	0x27
 8475 1333 45130000 		.4byte	0x1345
 8476 1337 18       		.uleb128 0x18
 8477 1338 610B0000 		.4byte	.LASF246
 8478 133c 0F       		.byte	0xf
 8479 133d 4901     		.2byte	0x149
 8480 133f 8C110000 		.4byte	0x118c
 8481 1343 00       		.byte	0
 8482 1344 00       		.byte	0
 8483 1345 14       		.uleb128 0x14
 8484 1346 AE060000 		.4byte	.LASF247
 8485 134a 0F       		.byte	0xf
 8486 134b 5401     		.2byte	0x154
 8487 134d 2E130000 		.4byte	0x132e
 8488 1351 06       		.uleb128 0x6
 8489 1352 0C       		.byte	0xc
 8490 1353 03       		.byte	0x3
 8491 1354 27       		.byte	0x27
 8492 1355 8A130000 		.4byte	0x138a
 8493 1359 07       		.uleb128 0x7
 8494 135a 8F100000 		.4byte	.LASF248
ARM GAS  C:\Users\tmj32\AppData\Local\Temp\ccrrExWC.s 			page 191


 8495 135e 03       		.byte	0x3
 8496 135f 28       		.byte	0x28
 8497 1360 0C030000 		.4byte	0x30c
 8498 1364 00       		.byte	0
 8499 1365 07       		.uleb128 0x7
 8500 1366 F1100000 		.4byte	.LASF249
 8501 136a 03       		.byte	0x3
 8502 136b 29       		.byte	0x29
 8503 136c 0C030000 		.4byte	0x30c
 8504 1370 04       		.byte	0x4
 8505 1371 07       		.uleb128 0x7
 8506 1372 B20B0000 		.4byte	.LASF250
 8507 1376 03       		.byte	0x3
 8508 1377 2A       		.byte	0x2a
 8509 1378 B8000000 		.4byte	0xb8
 8510 137c 08       		.byte	0x8
 8511 137d 07       		.uleb128 0x7
 8512 137e E90E0000 		.4byte	.LASF251
 8513 1382 03       		.byte	0x3
 8514 1383 2B       		.byte	0x2b
 8515 1384 B8000000 		.4byte	0xb8
 8516 1388 09       		.byte	0x9
 8517 1389 00       		.byte	0
 8518 138a 02       		.uleb128 0x2
 8519 138b 53050000 		.4byte	.LASF252
 8520 138f 03       		.byte	0x3
 8521 1390 2C       		.byte	0x2c
 8522 1391 51130000 		.4byte	0x1351
 8523 1395 1F       		.uleb128 0x1f
 8524 1396 C0070000 		.4byte	.LASF292
 8525 139a 01       		.byte	0x1
 8526 139b B001     		.2byte	0x1b0
 8527 139d E0020000 		.4byte	0x2e0
 8528 13a1 00000000 		.4byte	.LFB5
 8529 13a5 A4000000 		.4byte	.LFE5-.LFB5
 8530 13a9 01       		.uleb128 0x1
 8531 13aa 9C       		.byte	0x9c
 8532 13ab EA130000 		.4byte	0x13ea
 8533 13af 20       		.uleb128 0x20
 8534 13b0 633100   		.ascii	"c1\000"
 8535 13b3 01       		.byte	0x1
 8536 13b4 B001     		.2byte	0x1b0
 8537 13b6 E0020000 		.4byte	0x2e0
 8538 13ba 02       		.uleb128 0x2
 8539 13bb 91       		.byte	0x91
 8540 13bc 6C       		.sleb128 -20
 8541 13bd 20       		.uleb128 0x20
 8542 13be 633200   		.ascii	"c2\000"
 8543 13c1 01       		.byte	0x1
 8544 13c2 B001     		.2byte	0x1b0
 8545 13c4 E0020000 		.4byte	0x2e0
 8546 13c8 02       		.uleb128 0x2
 8547 13c9 91       		.byte	0x91
 8548 13ca 68       		.sleb128 -24
 8549 13cb 20       		.uleb128 0x20
 8550 13cc 6D697800 		.ascii	"mix\000"
 8551 13d0 01       		.byte	0x1
ARM GAS  C:\Users\tmj32\AppData\Local\Temp\ccrrExWC.s 			page 192


 8552 13d1 B001     		.2byte	0x1b0
 8553 13d3 B8000000 		.4byte	0xb8
 8554 13d7 02       		.uleb128 0x2
 8555 13d8 91       		.byte	0x91
 8556 13d9 67       		.sleb128 -25
 8557 13da 21       		.uleb128 0x21
 8558 13db 72657400 		.ascii	"ret\000"
 8559 13df 01       		.byte	0x1
 8560 13e0 B201     		.2byte	0x1b2
 8561 13e2 E0020000 		.4byte	0x2e0
 8562 13e6 02       		.uleb128 0x2
 8563 13e7 91       		.byte	0x91
 8564 13e8 74       		.sleb128 -12
 8565 13e9 00       		.byte	0
 8566 13ea 22       		.uleb128 0x22
 8567 13eb 68110000 		.4byte	.LASF303
 8568 13ef 02       		.byte	0x2
 8569 13f0 F1       		.byte	0xf1
 8570 13f1 00000000 		.4byte	.LFB33
 8571 13f5 1E000000 		.4byte	.LFE33-.LFB33
 8572 13f9 01       		.uleb128 0x1
 8573 13fa 9C       		.byte	0x9c
 8574 13fb 2A140000 		.4byte	0x142a
 8575 13ff 23       		.uleb128 0x23
 8576 1400 9E020000 		.4byte	.LASF234
 8577 1404 02       		.byte	0x2
 8578 1405 F1       		.byte	0xf1
 8579 1406 2A140000 		.4byte	0x142a
 8580 140a 02       		.uleb128 0x2
 8581 140b 91       		.byte	0x91
 8582 140c 74       		.sleb128 -12
 8583 140d 23       		.uleb128 0x23
 8584 140e 45020000 		.4byte	.LASF64
 8585 1412 02       		.byte	0x2
 8586 1413 F1       		.byte	0xf1
 8587 1414 700B0000 		.4byte	0xb70
 8588 1418 02       		.uleb128 0x2
 8589 1419 91       		.byte	0x91
 8590 141a 73       		.sleb128 -13
 8591 141b 23       		.uleb128 0x23
 8592 141c 610B0000 		.4byte	.LASF246
 8593 1420 02       		.byte	0x2
 8594 1421 F1       		.byte	0xf1
 8595 1422 43090000 		.4byte	0x943
 8596 1426 02       		.uleb128 0x2
 8597 1427 91       		.byte	0x91
 8598 1428 6C       		.sleb128 -20
 8599 1429 00       		.byte	0
 8600 142a 0D       		.uleb128 0xd
 8601 142b 04       		.byte	0x4
 8602 142c 4E090000 		.4byte	0x94e
 8603 1430 24       		.uleb128 0x24
 8604 1431 E2020000 		.4byte	.LASF256
 8605 1435 03       		.byte	0x3
 8606 1436 56       		.byte	0x56
 8607 1437 2A140000 		.4byte	0x142a
 8608 143b 00000000 		.4byte	.LFB35
ARM GAS  C:\Users\tmj32\AppData\Local\Temp\ccrrExWC.s 			page 193


 8609 143f 08020000 		.4byte	.LFE35-.LFB35
 8610 1443 01       		.uleb128 0x1
 8611 1444 9C       		.byte	0x9c
 8612 1445 B5140000 		.4byte	0x14b5
 8613 1449 25       		.uleb128 0x25
 8614 144a 70617200 		.ascii	"par\000"
 8615 144e 03       		.byte	0x3
 8616 144f 56       		.byte	0x56
 8617 1450 2A140000 		.4byte	0x142a
 8618 1454 02       		.uleb128 0x2
 8619 1455 91       		.byte	0x91
 8620 1456 64       		.sleb128 -28
 8621 1457 23       		.uleb128 0x23
 8622 1458 A8070000 		.4byte	.LASF253
 8623 145c 03       		.byte	0x3
 8624 145d 56       		.byte	0x56
 8625 145e B5140000 		.4byte	0x14b5
 8626 1462 02       		.uleb128 0x2
 8627 1463 91       		.byte	0x91
 8628 1464 60       		.sleb128 -32
 8629 1465 26       		.uleb128 0x26
 8630 1466 16020000 		.4byte	.LASF254
 8631 146a 03       		.byte	0x3
 8632 146b 5B       		.byte	0x5b
 8633 146c 2A140000 		.4byte	0x142a
 8634 1470 02       		.uleb128 0x2
 8635 1471 91       		.byte	0x91
 8636 1472 74       		.sleb128 -12
 8637 1473 27       		.uleb128 0x27
 8638 1474 65787400 		.ascii	"ext\000"
 8639 1478 03       		.byte	0x3
 8640 1479 60       		.byte	0x60
 8641 147a C0140000 		.4byte	0x14c0
 8642 147e 02       		.uleb128 0x2
 8643 147f 91       		.byte	0x91
 8644 1480 70       		.sleb128 -16
 8645 1481 28       		.uleb128 0x28
 8646 1482 26010000 		.4byte	.LBB2
 8647 1486 38000000 		.4byte	.LBE2-.LBB2
 8648 148a 9C140000 		.4byte	0x149c
 8649 148e 27       		.uleb128 0x27
 8650 148f 746800   		.ascii	"th\000"
 8651 1492 03       		.byte	0x3
 8652 1493 87       		.byte	0x87
 8653 1494 C6140000 		.4byte	0x14c6
 8654 1498 02       		.uleb128 0x2
 8655 1499 91       		.byte	0x91
 8656 149a 6C       		.sleb128 -20
 8657 149b 00       		.byte	0
 8658 149c 29       		.uleb128 0x29
 8659 149d 5E010000 		.4byte	.LBB3
 8660 14a1 8C000000 		.4byte	.LBE3-.LBB3
 8661 14a5 26       		.uleb128 0x26
 8662 14a6 30090000 		.4byte	.LASF255
 8663 14aa 03       		.byte	0x3
 8664 14ab 8F       		.byte	0x8f
 8665 14ac C0140000 		.4byte	0x14c0
ARM GAS  C:\Users\tmj32\AppData\Local\Temp\ccrrExWC.s 			page 194


 8666 14b0 02       		.uleb128 0x2
 8667 14b1 91       		.byte	0x91
 8668 14b2 68       		.sleb128 -24
 8669 14b3 00       		.byte	0
 8670 14b4 00       		.byte	0
 8671 14b5 0D       		.uleb128 0xd
 8672 14b6 04       		.byte	0x4
 8673 14b7 BB140000 		.4byte	0x14bb
 8674 14bb 0E       		.uleb128 0xe
 8675 14bc 4E090000 		.4byte	0x94e
 8676 14c0 0D       		.uleb128 0xd
 8677 14c1 04       		.byte	0x4
 8678 14c2 520B0000 		.4byte	0xb52
 8679 14c6 0D       		.uleb128 0xd
 8680 14c7 04       		.byte	0x4
 8681 14c8 45130000 		.4byte	0x1345
 8682 14cc 24       		.uleb128 0x24
 8683 14cd 04070000 		.4byte	.LASF257
 8684 14d1 03       		.byte	0x3
 8685 14d2 B0       		.byte	0xb0
 8686 14d3 46150000 		.4byte	0x1546
 8687 14d7 00000000 		.4byte	.LFB36
 8688 14db B2000000 		.4byte	.LFE36-.LFB36
 8689 14df 01       		.uleb128 0x1
 8690 14e0 9C       		.byte	0x9c
 8691 14e1 46150000 		.4byte	0x1546
 8692 14e5 23       		.uleb128 0x23
 8693 14e6 9E020000 		.4byte	.LASF234
 8694 14ea 03       		.byte	0x3
 8695 14eb B0       		.byte	0xb0
 8696 14ec 2A140000 		.4byte	0x142a
 8697 14f0 02       		.uleb128 0x2
 8698 14f1 91       		.byte	0x91
 8699 14f2 5C       		.sleb128 -36
 8700 14f3 23       		.uleb128 0x23
 8701 14f4 270E0000 		.4byte	.LASF61
 8702 14f8 03       		.byte	0x3
 8703 14f9 B0       		.byte	0xb0
 8704 14fa E0020000 		.4byte	0x2e0
 8705 14fe 02       		.uleb128 0x2
 8706 14ff 91       		.byte	0x91
 8707 1500 58       		.sleb128 -40
 8708 1501 27       		.uleb128 0x27
 8709 1502 65787400 		.ascii	"ext\000"
 8710 1506 03       		.byte	0x3
 8711 1507 B4       		.byte	0xb4
 8712 1508 C0140000 		.4byte	0x14c0
 8713 150c 02       		.uleb128 0x2
 8714 150d 91       		.byte	0x91
 8715 150e 6C       		.sleb128 -20
 8716 150f 27       		.uleb128 0x27
 8717 1510 73657200 		.ascii	"ser\000"
 8718 1514 03       		.byte	0x3
 8719 1515 B5       		.byte	0xb5
 8720 1516 46150000 		.4byte	0x1546
 8721 151a 02       		.uleb128 0x2
 8722 151b 91       		.byte	0x91
ARM GAS  C:\Users\tmj32\AppData\Local\Temp\ccrrExWC.s 			page 195


 8723 151c 68       		.sleb128 -24
 8724 151d 27       		.uleb128 0x27
 8725 151e 64656600 		.ascii	"def\000"
 8726 1522 03       		.byte	0x3
 8727 1523 B9       		.byte	0xb9
 8728 1524 EF000000 		.4byte	0xef
 8729 1528 02       		.uleb128 0x2
 8730 1529 91       		.byte	0x91
 8731 152a 66       		.sleb128 -26
 8732 152b 27       		.uleb128 0x27
 8733 152c 6900     		.ascii	"i\000"
 8734 152e 03       		.byte	0x3
 8735 152f C8       		.byte	0xc8
 8736 1530 CE000000 		.4byte	0xce
 8737 1534 02       		.uleb128 0x2
 8738 1535 91       		.byte	0x91
 8739 1536 76       		.sleb128 -10
 8740 1537 26       		.uleb128 0x26
 8741 1538 35040000 		.4byte	.LASF258
 8742 153c 03       		.byte	0x3
 8743 153d C9       		.byte	0xc9
 8744 153e E6090000 		.4byte	0x9e6
 8745 1542 02       		.uleb128 0x2
 8746 1543 91       		.byte	0x91
 8747 1544 70       		.sleb128 -16
 8748 1545 00       		.byte	0
 8749 1546 0D       		.uleb128 0xd
 8750 1547 04       		.byte	0x4
 8751 1548 EC090000 		.4byte	0x9ec
 8752 154c 2A       		.uleb128 0x2a
 8753 154d 0B0A0000 		.4byte	.LASF260
 8754 1551 03       		.byte	0x3
 8755 1552 D9       		.byte	0xd9
 8756 1553 00000000 		.4byte	.LFB37
 8757 1557 60000000 		.4byte	.LFE37-.LFB37
 8758 155b 01       		.uleb128 0x1
 8759 155c 9C       		.byte	0x9c
 8760 155d 98150000 		.4byte	0x1598
 8761 1561 23       		.uleb128 0x23
 8762 1562 9E020000 		.4byte	.LASF234
 8763 1566 03       		.byte	0x3
 8764 1567 D9       		.byte	0xd9
 8765 1568 2A140000 		.4byte	0x142a
 8766 156c 02       		.uleb128 0x2
 8767 156d 91       		.byte	0x91
 8768 156e 6C       		.sleb128 -20
 8769 156f 23       		.uleb128 0x23
 8770 1570 1E0F0000 		.4byte	.LASF259
 8771 1574 03       		.byte	0x3
 8772 1575 D9       		.byte	0xd9
 8773 1576 46150000 		.4byte	0x1546
 8774 157a 02       		.uleb128 0x2
 8775 157b 91       		.byte	0x91
 8776 157c 68       		.sleb128 -24
 8777 157d 27       		.uleb128 0x27
 8778 157e 65787400 		.ascii	"ext\000"
 8779 1582 03       		.byte	0x3
ARM GAS  C:\Users\tmj32\AppData\Local\Temp\ccrrExWC.s 			page 196


 8780 1583 DF       		.byte	0xdf
 8781 1584 C0140000 		.4byte	0x14c0
 8782 1588 02       		.uleb128 0x2
 8783 1589 91       		.byte	0x91
 8784 158a 70       		.sleb128 -16
 8785 158b 27       		.uleb128 0x27
 8786 158c 6900     		.ascii	"i\000"
 8787 158e 03       		.byte	0x3
 8788 158f E2       		.byte	0xe2
 8789 1590 E4000000 		.4byte	0xe4
 8790 1594 02       		.uleb128 0x2
 8791 1595 91       		.byte	0x91
 8792 1596 74       		.sleb128 -12
 8793 1597 00       		.byte	0
 8794 1598 2A       		.uleb128 0x2a
 8795 1599 4A020000 		.4byte	.LASF261
 8796 159d 03       		.byte	0x3
 8797 159e F4       		.byte	0xf4
 8798 159f 00000000 		.4byte	.LFB38
 8799 15a3 48000000 		.4byte	.LFE38-.LFB38
 8800 15a7 01       		.uleb128 0x1
 8801 15a8 9C       		.byte	0x9c
 8802 15a9 E6150000 		.4byte	0x15e6
 8803 15ad 23       		.uleb128 0x23
 8804 15ae 9E020000 		.4byte	.LASF234
 8805 15b2 03       		.byte	0x3
 8806 15b3 F4       		.byte	0xf4
 8807 15b4 2A140000 		.4byte	0x142a
 8808 15b8 02       		.uleb128 0x2
 8809 15b9 91       		.byte	0x91
 8810 15ba 6C       		.sleb128 -20
 8811 15bb 23       		.uleb128 0x23
 8812 15bc FC040000 		.4byte	.LASF262
 8813 15c0 03       		.byte	0x3
 8814 15c1 F4       		.byte	0xf4
 8815 15c2 B8000000 		.4byte	0xb8
 8816 15c6 02       		.uleb128 0x2
 8817 15c7 91       		.byte	0x91
 8818 15c8 6B       		.sleb128 -21
 8819 15c9 23       		.uleb128 0x23
 8820 15ca 420B0000 		.4byte	.LASF263
 8821 15ce 03       		.byte	0x3
 8822 15cf F4       		.byte	0xf4
 8823 15d0 B8000000 		.4byte	0xb8
 8824 15d4 02       		.uleb128 0x2
 8825 15d5 91       		.byte	0x91
 8826 15d6 6A       		.sleb128 -22
 8827 15d7 27       		.uleb128 0x27
 8828 15d8 65787400 		.ascii	"ext\000"
 8829 15dc 03       		.byte	0x3
 8830 15dd F8       		.byte	0xf8
 8831 15de C0140000 		.4byte	0x14c0
 8832 15e2 02       		.uleb128 0x2
 8833 15e3 91       		.byte	0x91
 8834 15e4 74       		.sleb128 -12
 8835 15e5 00       		.byte	0
 8836 15e6 2B       		.uleb128 0x2b
ARM GAS  C:\Users\tmj32\AppData\Local\Temp\ccrrExWC.s 			page 197


 8837 15e7 20020000 		.4byte	.LASF264
 8838 15eb 03       		.byte	0x3
 8839 15ec 0701     		.2byte	0x107
 8840 15ee 00000000 		.4byte	.LFB39
 8841 15f2 50000000 		.4byte	.LFE39-.LFB39
 8842 15f6 01       		.uleb128 0x1
 8843 15f7 9C       		.byte	0x9c
 8844 15f8 39160000 		.4byte	0x1639
 8845 15fc 2C       		.uleb128 0x2c
 8846 15fd 9E020000 		.4byte	.LASF234
 8847 1601 03       		.byte	0x3
 8848 1602 0701     		.2byte	0x107
 8849 1604 2A140000 		.4byte	0x142a
 8850 1608 02       		.uleb128 0x2
 8851 1609 91       		.byte	0x91
 8852 160a 6C       		.sleb128 -20
 8853 160b 2C       		.uleb128 0x2c
 8854 160c 8A120000 		.4byte	.LASF184
 8855 1610 03       		.byte	0x3
 8856 1611 0701     		.2byte	0x107
 8857 1613 EF000000 		.4byte	0xef
 8858 1617 02       		.uleb128 0x2
 8859 1618 91       		.byte	0x91
 8860 1619 6A       		.sleb128 -22
 8861 161a 2C       		.uleb128 0x2c
 8862 161b C30C0000 		.4byte	.LASF185
 8863 161f 03       		.byte	0x3
 8864 1620 0701     		.2byte	0x107
 8865 1622 EF000000 		.4byte	0xef
 8866 1626 02       		.uleb128 0x2
 8867 1627 91       		.byte	0x91
 8868 1628 68       		.sleb128 -24
 8869 1629 21       		.uleb128 0x21
 8870 162a 65787400 		.ascii	"ext\000"
 8871 162e 03       		.byte	0x3
 8872 162f 0B01     		.2byte	0x10b
 8873 1631 C0140000 		.4byte	0x14c0
 8874 1635 02       		.uleb128 0x2
 8875 1636 91       		.byte	0x91
 8876 1637 74       		.sleb128 -12
 8877 1638 00       		.byte	0
 8878 1639 2B       		.uleb128 0x2b
 8879 163a 4A000000 		.4byte	.LASF265
 8880 163e 03       		.byte	0x3
 8881 163f 1901     		.2byte	0x119
 8882 1641 00000000 		.4byte	.LFB40
 8883 1645 34000000 		.4byte	.LFE40-.LFB40
 8884 1649 01       		.uleb128 0x1
 8885 164a 9C       		.byte	0x9c
 8886 164b 7D160000 		.4byte	0x167d
 8887 164f 2C       		.uleb128 0x2c
 8888 1650 9E020000 		.4byte	.LASF234
 8889 1654 03       		.byte	0x3
 8890 1655 1901     		.2byte	0x119
 8891 1657 2A140000 		.4byte	0x142a
 8892 165b 02       		.uleb128 0x2
 8893 165c 91       		.byte	0x91
ARM GAS  C:\Users\tmj32\AppData\Local\Temp\ccrrExWC.s 			page 198


 8894 165d 6C       		.sleb128 -20
 8895 165e 2C       		.uleb128 0x2c
 8896 165f 45020000 		.4byte	.LASF64
 8897 1663 03       		.byte	0x3
 8898 1664 1901     		.2byte	0x119
 8899 1666 8A090000 		.4byte	0x98a
 8900 166a 02       		.uleb128 0x2
 8901 166b 91       		.byte	0x91
 8902 166c 6B       		.sleb128 -21
 8903 166d 21       		.uleb128 0x21
 8904 166e 65787400 		.ascii	"ext\000"
 8905 1672 03       		.byte	0x3
 8906 1673 1D01     		.2byte	0x11d
 8907 1675 C0140000 		.4byte	0x14c0
 8908 1679 02       		.uleb128 0x2
 8909 167a 91       		.byte	0x91
 8910 167b 74       		.sleb128 -12
 8911 167c 00       		.byte	0
 8912 167d 2B       		.uleb128 0x2b
 8913 167e 650E0000 		.4byte	.LASF266
 8914 1682 03       		.byte	0x3
 8915 1683 2A01     		.2byte	0x12a
 8916 1685 00000000 		.4byte	.LFB41
 8917 1689 98010000 		.4byte	.LFE41-.LFB41
 8918 168d 01       		.uleb128 0x1
 8919 168e 9C       		.byte	0x9c
 8920 168f 10170000 		.4byte	0x1710
 8921 1693 2C       		.uleb128 0x2c
 8922 1694 9E020000 		.4byte	.LASF234
 8923 1698 03       		.byte	0x3
 8924 1699 2A01     		.2byte	0x12a
 8925 169b 2A140000 		.4byte	0x142a
 8926 169f 02       		.uleb128 0x2
 8927 16a0 91       		.byte	0x91
 8928 16a1 54       		.sleb128 -44
 8929 16a2 2C       		.uleb128 0x2c
 8930 16a3 CC020000 		.4byte	.LASF188
 8931 16a7 03       		.byte	0x3
 8932 16a8 2A01     		.2byte	0x12a
 8933 16aa CE000000 		.4byte	0xce
 8934 16ae 02       		.uleb128 0x2
 8935 16af 91       		.byte	0x91
 8936 16b0 52       		.sleb128 -46
 8937 16b1 21       		.uleb128 0x21
 8938 16b2 65787400 		.ascii	"ext\000"
 8939 16b6 03       		.byte	0x3
 8940 16b7 2E01     		.2byte	0x12e
 8941 16b9 C0140000 		.4byte	0x14c0
 8942 16bd 02       		.uleb128 0x2
 8943 16be 91       		.byte	0x91
 8944 16bf 64       		.sleb128 -28
 8945 16c0 21       		.uleb128 0x21
 8946 16c1 73657200 		.ascii	"ser\000"
 8947 16c5 03       		.byte	0x3
 8948 16c6 3101     		.2byte	0x131
 8949 16c8 46150000 		.4byte	0x1546
 8950 16cc 02       		.uleb128 0x2
ARM GAS  C:\Users\tmj32\AppData\Local\Temp\ccrrExWC.s 			page 199


 8951 16cd 91       		.byte	0x91
 8952 16ce 6C       		.sleb128 -20
 8953 16cf 2D       		.uleb128 0x2d
 8954 16d0 4E0C0000 		.4byte	.LASF267
 8955 16d4 03       		.byte	0x3
 8956 16d5 3201     		.2byte	0x132
 8957 16d7 CE000000 		.4byte	0xce
 8958 16db 02       		.uleb128 0x2
 8959 16dc 91       		.byte	0x91
 8960 16dd 62       		.sleb128 -30
 8961 16de 21       		.uleb128 0x21
 8962 16df 6900     		.ascii	"i\000"
 8963 16e1 03       		.byte	0x3
 8964 16e2 3301     		.2byte	0x133
 8965 16e4 CE000000 		.4byte	0xce
 8966 16e8 02       		.uleb128 0x2
 8967 16e9 91       		.byte	0x91
 8968 16ea 6A       		.sleb128 -22
 8969 16eb 21       		.uleb128 0x21
 8970 16ec 64656600 		.ascii	"def\000"
 8971 16f0 03       		.byte	0x3
 8972 16f1 3401     		.2byte	0x134
 8973 16f3 EF000000 		.4byte	0xef
 8974 16f7 02       		.uleb128 0x2
 8975 16f8 91       		.byte	0x91
 8976 16f9 60       		.sleb128 -32
 8977 16fa 2E       		.uleb128 0x2e
 8978 16fb 00000000 		.4byte	.Ldebug_ranges0+0
 8979 16ff 2D       		.uleb128 0x2d
 8980 1700 0B0B0000 		.4byte	.LASF268
 8981 1704 03       		.byte	0x3
 8982 1705 3B01     		.2byte	0x13b
 8983 1707 E6090000 		.4byte	0x9e6
 8984 170b 02       		.uleb128 0x2
 8985 170c 91       		.byte	0x91
 8986 170d 5C       		.sleb128 -36
 8987 170e 00       		.byte	0
 8988 170f 00       		.byte	0
 8989 1710 2B       		.uleb128 0x2b
 8990 1711 A10C0000 		.4byte	.LASF269
 8991 1715 03       		.byte	0x3
 8992 1716 6A01     		.2byte	0x16a
 8993 1718 00000000 		.4byte	.LFB42
 8994 171c 38000000 		.4byte	.LFE42-.LFB42
 8995 1720 01       		.uleb128 0x1
 8996 1721 9C       		.byte	0x9c
 8997 1722 54170000 		.4byte	0x1754
 8998 1726 2C       		.uleb128 0x2c
 8999 1727 9E020000 		.4byte	.LASF234
 9000 172b 03       		.byte	0x3
 9001 172c 6A01     		.2byte	0x16a
 9002 172e 2A140000 		.4byte	0x142a
 9003 1732 02       		.uleb128 0x2
 9004 1733 91       		.byte	0x91
 9005 1734 6C       		.sleb128 -20
 9006 1735 20       		.uleb128 0x20
 9007 1736 6F706100 		.ascii	"opa\000"
ARM GAS  C:\Users\tmj32\AppData\Local\Temp\ccrrExWC.s 			page 200


 9008 173a 03       		.byte	0x3
 9009 173b 6A01     		.2byte	0x16a
 9010 173d EC020000 		.4byte	0x2ec
 9011 1741 02       		.uleb128 0x2
 9012 1742 91       		.byte	0x91
 9013 1743 6B       		.sleb128 -21
 9014 1744 21       		.uleb128 0x21
 9015 1745 65787400 		.ascii	"ext\000"
 9016 1749 03       		.byte	0x3
 9017 174a 6E01     		.2byte	0x16e
 9018 174c C0140000 		.4byte	0x14c0
 9019 1750 02       		.uleb128 0x2
 9020 1751 91       		.byte	0x91
 9021 1752 74       		.sleb128 -12
 9022 1753 00       		.byte	0
 9023 1754 2B       		.uleb128 0x2b
 9024 1755 84030000 		.4byte	.LASF270
 9025 1759 03       		.byte	0x3
 9026 175a 7A01     		.2byte	0x17a
 9027 175c 00000000 		.4byte	.LFB43
 9028 1760 38000000 		.4byte	.LFE43-.LFB43
 9029 1764 01       		.uleb128 0x1
 9030 1765 9C       		.byte	0x9c
 9031 1766 98170000 		.4byte	0x1798
 9032 176a 2C       		.uleb128 0x2c
 9033 176b 9E020000 		.4byte	.LASF234
 9034 176f 03       		.byte	0x3
 9035 1770 7A01     		.2byte	0x17a
 9036 1772 2A140000 		.4byte	0x142a
 9037 1776 02       		.uleb128 0x2
 9038 1777 91       		.byte	0x91
 9039 1778 6C       		.sleb128 -20
 9040 1779 2C       		.uleb128 0x2c
 9041 177a EF080000 		.4byte	.LASF62
 9042 177e 03       		.byte	0x3
 9043 177f 7A01     		.2byte	0x17a
 9044 1781 EF000000 		.4byte	0xef
 9045 1785 02       		.uleb128 0x2
 9046 1786 91       		.byte	0x91
 9047 1787 6A       		.sleb128 -22
 9048 1788 21       		.uleb128 0x21
 9049 1789 65787400 		.ascii	"ext\000"
 9050 178d 03       		.byte	0x3
 9051 178e 7E01     		.2byte	0x17e
 9052 1790 C0140000 		.4byte	0x14c0
 9053 1794 02       		.uleb128 0x2
 9054 1795 91       		.byte	0x91
 9055 1796 74       		.sleb128 -12
 9056 1797 00       		.byte	0
 9057 1798 2B       		.uleb128 0x2b
 9058 1799 EB110000 		.4byte	.LASF271
 9059 179d 03       		.byte	0x3
 9060 179e 8901     		.2byte	0x189
 9061 17a0 00000000 		.4byte	.LFB44
 9062 17a4 38000000 		.4byte	.LFE44-.LFB44
 9063 17a8 01       		.uleb128 0x1
 9064 17a9 9C       		.byte	0x9c
ARM GAS  C:\Users\tmj32\AppData\Local\Temp\ccrrExWC.s 			page 201


 9065 17aa DC170000 		.4byte	0x17dc
 9066 17ae 2C       		.uleb128 0x2c
 9067 17af 9E020000 		.4byte	.LASF234
 9068 17b3 03       		.byte	0x3
 9069 17b4 8901     		.2byte	0x189
 9070 17b6 2A140000 		.4byte	0x142a
 9071 17ba 02       		.uleb128 0x2
 9072 17bb 91       		.byte	0x91
 9073 17bc 6C       		.sleb128 -20
 9074 17bd 2C       		.uleb128 0x2c
 9075 17be 020B0000 		.4byte	.LASF272
 9076 17c2 03       		.byte	0x3
 9077 17c3 8901     		.2byte	0x189
 9078 17c5 EC020000 		.4byte	0x2ec
 9079 17c9 02       		.uleb128 0x2
 9080 17ca 91       		.byte	0x91
 9081 17cb 6B       		.sleb128 -21
 9082 17cc 21       		.uleb128 0x21
 9083 17cd 65787400 		.ascii	"ext\000"
 9084 17d1 03       		.byte	0x3
 9085 17d2 8D01     		.2byte	0x18d
 9086 17d4 C0140000 		.4byte	0x14c0
 9087 17d8 02       		.uleb128 0x2
 9088 17d9 91       		.byte	0x91
 9089 17da 74       		.sleb128 -12
 9090 17db 00       		.byte	0
 9091 17dc 2B       		.uleb128 0x2b
 9092 17dd A6100000 		.4byte	.LASF273
 9093 17e1 03       		.byte	0x3
 9094 17e2 9A01     		.2byte	0x19a
 9095 17e4 00000000 		.4byte	.LFB45
 9096 17e8 4E000000 		.4byte	.LFE45-.LFB45
 9097 17ec 01       		.uleb128 0x1
 9098 17ed 9C       		.byte	0x9c
 9099 17ee 3A180000 		.4byte	0x183a
 9100 17f2 2C       		.uleb128 0x2c
 9101 17f3 9E020000 		.4byte	.LASF234
 9102 17f7 03       		.byte	0x3
 9103 17f8 9A01     		.2byte	0x19a
 9104 17fa 2A140000 		.4byte	0x142a
 9105 17fe 02       		.uleb128 0x2
 9106 17ff 91       		.byte	0x91
 9107 1800 6C       		.sleb128 -20
 9108 1801 20       		.uleb128 0x20
 9109 1802 73657200 		.ascii	"ser\000"
 9110 1806 03       		.byte	0x3
 9111 1807 9A01     		.2byte	0x19a
 9112 1809 46150000 		.4byte	0x1546
 9113 180d 02       		.uleb128 0x2
 9114 180e 91       		.byte	0x91
 9115 180f 68       		.sleb128 -24
 9116 1810 20       		.uleb128 0x20
 9117 1811 7900     		.ascii	"y\000"
 9118 1813 03       		.byte	0x3
 9119 1814 9A01     		.2byte	0x19a
 9120 1816 EF000000 		.4byte	0xef
 9121 181a 02       		.uleb128 0x2
ARM GAS  C:\Users\tmj32\AppData\Local\Temp\ccrrExWC.s 			page 202


 9122 181b 91       		.byte	0x91
 9123 181c 66       		.sleb128 -26
 9124 181d 21       		.uleb128 0x21
 9125 181e 65787400 		.ascii	"ext\000"
 9126 1822 03       		.byte	0x3
 9127 1823 9F01     		.2byte	0x19f
 9128 1825 C0140000 		.4byte	0x14c0
 9129 1829 02       		.uleb128 0x2
 9130 182a 91       		.byte	0x91
 9131 182b 70       		.sleb128 -16
 9132 182c 21       		.uleb128 0x21
 9133 182d 6900     		.ascii	"i\000"
 9134 182f 03       		.byte	0x3
 9135 1830 A001     		.2byte	0x1a0
 9136 1832 CE000000 		.4byte	0xce
 9137 1836 02       		.uleb128 0x2
 9138 1837 91       		.byte	0x91
 9139 1838 76       		.sleb128 -10
 9140 1839 00       		.byte	0
 9141 183a 2B       		.uleb128 0x2b
 9142 183b 0A0F0000 		.4byte	.LASF274
 9143 183f 03       		.byte	0x3
 9144 1840 AE01     		.2byte	0x1ae
 9145 1842 00000000 		.4byte	.LFB46
 9146 1846 3A000000 		.4byte	.LFE46-.LFB46
 9147 184a 01       		.uleb128 0x1
 9148 184b 9C       		.byte	0x9c
 9149 184c 8D180000 		.4byte	0x188d
 9150 1850 2C       		.uleb128 0x2c
 9151 1851 9E020000 		.4byte	.LASF234
 9152 1855 03       		.byte	0x3
 9153 1856 AE01     		.2byte	0x1ae
 9154 1858 2A140000 		.4byte	0x142a
 9155 185c 02       		.uleb128 0x2
 9156 185d 91       		.byte	0x91
 9157 185e 6C       		.sleb128 -20
 9158 185f 20       		.uleb128 0x20
 9159 1860 73657200 		.ascii	"ser\000"
 9160 1864 03       		.byte	0x3
 9161 1865 AE01     		.2byte	0x1ae
 9162 1867 46150000 		.4byte	0x1546
 9163 186b 02       		.uleb128 0x2
 9164 186c 91       		.byte	0x91
 9165 186d 68       		.sleb128 -24
 9166 186e 2C       		.uleb128 0x2c
 9167 186f 15010000 		.4byte	.LASF275
 9168 1873 03       		.byte	0x3
 9169 1874 AE01     		.2byte	0x1ae
 9170 1876 E6090000 		.4byte	0x9e6
 9171 187a 02       		.uleb128 0x2
 9172 187b 91       		.byte	0x91
 9173 187c 64       		.sleb128 -28
 9174 187d 21       		.uleb128 0x21
 9175 187e 65787400 		.ascii	"ext\000"
 9176 1882 03       		.byte	0x3
 9177 1883 B301     		.2byte	0x1b3
 9178 1885 C0140000 		.4byte	0x14c0
ARM GAS  C:\Users\tmj32\AppData\Local\Temp\ccrrExWC.s 			page 203


 9179 1889 02       		.uleb128 0x2
 9180 188a 91       		.byte	0x91
 9181 188b 74       		.sleb128 -12
 9182 188c 00       		.byte	0
 9183 188d 2B       		.uleb128 0x2b
 9184 188e 7D100000 		.4byte	.LASF276
 9185 1892 03       		.byte	0x3
 9186 1893 BF01     		.2byte	0x1bf
 9187 1895 00000000 		.4byte	.LFB47
 9188 1899 12010000 		.4byte	.LFE47-.LFB47
 9189 189d 01       		.uleb128 0x1
 9190 189e 9C       		.byte	0x9c
 9191 189f DE180000 		.4byte	0x18de
 9192 18a3 2C       		.uleb128 0x2c
 9193 18a4 9E020000 		.4byte	.LASF234
 9194 18a8 03       		.byte	0x3
 9195 18a9 BF01     		.2byte	0x1bf
 9196 18ab 2A140000 		.4byte	0x142a
 9197 18af 02       		.uleb128 0x2
 9198 18b0 91       		.byte	0x91
 9199 18b1 6C       		.sleb128 -20
 9200 18b2 20       		.uleb128 0x20
 9201 18b3 73657200 		.ascii	"ser\000"
 9202 18b7 03       		.byte	0x3
 9203 18b8 BF01     		.2byte	0x1bf
 9204 18ba 46150000 		.4byte	0x1546
 9205 18be 02       		.uleb128 0x2
 9206 18bf 91       		.byte	0x91
 9207 18c0 68       		.sleb128 -24
 9208 18c1 20       		.uleb128 0x20
 9209 18c2 7900     		.ascii	"y\000"
 9210 18c4 03       		.byte	0x3
 9211 18c5 BF01     		.2byte	0x1bf
 9212 18c7 EF000000 		.4byte	0xef
 9213 18cb 02       		.uleb128 0x2
 9214 18cc 91       		.byte	0x91
 9215 18cd 66       		.sleb128 -26
 9216 18ce 21       		.uleb128 0x21
 9217 18cf 65787400 		.ascii	"ext\000"
 9218 18d3 03       		.byte	0x3
 9219 18d4 C401     		.2byte	0x1c4
 9220 18d6 C0140000 		.4byte	0x14c0
 9221 18da 02       		.uleb128 0x2
 9222 18db 91       		.byte	0x91
 9223 18dc 74       		.sleb128 -12
 9224 18dd 00       		.byte	0
 9225 18de 2B       		.uleb128 0x2b
 9226 18df 8A050000 		.4byte	.LASF277
 9227 18e3 03       		.byte	0x3
 9228 18e4 DC01     		.2byte	0x1dc
 9229 18e6 00000000 		.4byte	.LFB48
 9230 18ea 4E000000 		.4byte	.LFE48-.LFB48
 9231 18ee 01       		.uleb128 0x1
 9232 18ef 9C       		.byte	0x9c
 9233 18f0 22190000 		.4byte	0x1922
 9234 18f4 2C       		.uleb128 0x2c
 9235 18f5 9E020000 		.4byte	.LASF234
ARM GAS  C:\Users\tmj32\AppData\Local\Temp\ccrrExWC.s 			page 204


 9236 18f9 03       		.byte	0x3
 9237 18fa DC01     		.2byte	0x1dc
 9238 18fc 2A140000 		.4byte	0x142a
 9239 1900 02       		.uleb128 0x2
 9240 1901 91       		.byte	0x91
 9241 1902 6C       		.sleb128 -20
 9242 1903 2C       		.uleb128 0x2c
 9243 1904 A4020000 		.4byte	.LASF193
 9244 1908 03       		.byte	0x3
 9245 1909 DC01     		.2byte	0x1dc
 9246 190b AE090000 		.4byte	0x9ae
 9247 190f 02       		.uleb128 0x2
 9248 1910 91       		.byte	0x91
 9249 1911 6B       		.sleb128 -21
 9250 1912 21       		.uleb128 0x21
 9251 1913 65787400 		.ascii	"ext\000"
 9252 1917 03       		.byte	0x3
 9253 1918 E001     		.2byte	0x1e0
 9254 191a C0140000 		.4byte	0x14c0
 9255 191e 02       		.uleb128 0x2
 9256 191f 91       		.byte	0x91
 9257 1920 74       		.sleb128 -12
 9258 1921 00       		.byte	0
 9259 1922 2B       		.uleb128 0x2b
 9260 1923 AD010000 		.4byte	.LASF278
 9261 1927 03       		.byte	0x3
 9262 1928 EF01     		.2byte	0x1ef
 9263 192a 00000000 		.4byte	.LFB49
 9264 192e 30000000 		.4byte	.LFE49-.LFB49
 9265 1932 01       		.uleb128 0x1
 9266 1933 9C       		.byte	0x9c
 9267 1934 75190000 		.4byte	0x1975
 9268 1938 2C       		.uleb128 0x2c
 9269 1939 9E020000 		.4byte	.LASF234
 9270 193d 03       		.byte	0x3
 9271 193e EF01     		.2byte	0x1ef
 9272 1940 2A140000 		.4byte	0x142a
 9273 1944 02       		.uleb128 0x2
 9274 1945 91       		.byte	0x91
 9275 1946 6C       		.sleb128 -20
 9276 1947 2C       		.uleb128 0x2c
 9277 1948 07080000 		.4byte	.LASF179
 9278 194c 03       		.byte	0x3
 9279 194d EF01     		.2byte	0x1ef
 9280 194f B8000000 		.4byte	0xb8
 9281 1953 02       		.uleb128 0x2
 9282 1954 91       		.byte	0x91
 9283 1955 6B       		.sleb128 -21
 9284 1956 2C       		.uleb128 0x2c
 9285 1957 16040000 		.4byte	.LASF180
 9286 195b 03       		.byte	0x3
 9287 195c EF01     		.2byte	0x1ef
 9288 195e B8000000 		.4byte	0xb8
 9289 1962 02       		.uleb128 0x2
 9290 1963 91       		.byte	0x91
 9291 1964 6A       		.sleb128 -22
 9292 1965 21       		.uleb128 0x21
ARM GAS  C:\Users\tmj32\AppData\Local\Temp\ccrrExWC.s 			page 205


 9293 1966 65787400 		.ascii	"ext\000"
 9294 196a 03       		.byte	0x3
 9295 196b F301     		.2byte	0x1f3
 9296 196d C0140000 		.4byte	0x14c0
 9297 1971 02       		.uleb128 0x2
 9298 1972 91       		.byte	0x91
 9299 1973 74       		.sleb128 -12
 9300 1974 00       		.byte	0
 9301 1975 2B       		.uleb128 0x2b
 9302 1976 EC070000 		.4byte	.LASF279
 9303 197a 03       		.byte	0x3
 9304 197b 0002     		.2byte	0x200
 9305 197d 00000000 		.4byte	.LFB50
 9306 1981 2C000000 		.4byte	.LFE50-.LFB50
 9307 1985 01       		.uleb128 0x1
 9308 1986 9C       		.byte	0x9c
 9309 1987 C8190000 		.4byte	0x19c8
 9310 198b 2C       		.uleb128 0x2c
 9311 198c 9E020000 		.4byte	.LASF234
 9312 1990 03       		.byte	0x3
 9313 1991 0002     		.2byte	0x200
 9314 1993 2A140000 		.4byte	0x142a
 9315 1997 02       		.uleb128 0x2
 9316 1998 91       		.byte	0x91
 9317 1999 6C       		.sleb128 -20
 9318 199a 2C       		.uleb128 0x2c
 9319 199b 07080000 		.4byte	.LASF179
 9320 199f 03       		.byte	0x3
 9321 19a0 0002     		.2byte	0x200
 9322 19a2 B8000000 		.4byte	0xb8
 9323 19a6 02       		.uleb128 0x2
 9324 19a7 91       		.byte	0x91
 9325 19a8 6B       		.sleb128 -21
 9326 19a9 2C       		.uleb128 0x2c
 9327 19aa 16040000 		.4byte	.LASF180
 9328 19ae 03       		.byte	0x3
 9329 19af 0002     		.2byte	0x200
 9330 19b1 B8000000 		.4byte	0xb8
 9331 19b5 02       		.uleb128 0x2
 9332 19b6 91       		.byte	0x91
 9333 19b7 6A       		.sleb128 -22
 9334 19b8 21       		.uleb128 0x21
 9335 19b9 65787400 		.ascii	"ext\000"
 9336 19bd 03       		.byte	0x3
 9337 19be 0402     		.2byte	0x204
 9338 19c0 C0140000 		.4byte	0x14c0
 9339 19c4 02       		.uleb128 0x2
 9340 19c5 91       		.byte	0x91
 9341 19c6 74       		.sleb128 -12
 9342 19c7 00       		.byte	0
 9343 19c8 2B       		.uleb128 0x2b
 9344 19c9 0E100000 		.4byte	.LASF280
 9345 19cd 03       		.byte	0x3
 9346 19ce 1102     		.2byte	0x211
 9347 19d0 00000000 		.4byte	.LFB51
 9348 19d4 30000000 		.4byte	.LFE51-.LFB51
 9349 19d8 01       		.uleb128 0x1
ARM GAS  C:\Users\tmj32\AppData\Local\Temp\ccrrExWC.s 			page 206


 9350 19d9 9C       		.byte	0x9c
 9351 19da 1B1A0000 		.4byte	0x1a1b
 9352 19de 2C       		.uleb128 0x2c
 9353 19df 9E020000 		.4byte	.LASF234
 9354 19e3 03       		.byte	0x3
 9355 19e4 1102     		.2byte	0x211
 9356 19e6 2A140000 		.4byte	0x142a
 9357 19ea 02       		.uleb128 0x2
 9358 19eb 91       		.byte	0x91
 9359 19ec 6C       		.sleb128 -20
 9360 19ed 2C       		.uleb128 0x2c
 9361 19ee 07080000 		.4byte	.LASF179
 9362 19f2 03       		.byte	0x3
 9363 19f3 1102     		.2byte	0x211
 9364 19f5 B8000000 		.4byte	0xb8
 9365 19f9 02       		.uleb128 0x2
 9366 19fa 91       		.byte	0x91
 9367 19fb 6B       		.sleb128 -21
 9368 19fc 2C       		.uleb128 0x2c
 9369 19fd 16040000 		.4byte	.LASF180
 9370 1a01 03       		.byte	0x3
 9371 1a02 1102     		.2byte	0x211
 9372 1a04 B8000000 		.4byte	0xb8
 9373 1a08 02       		.uleb128 0x2
 9374 1a09 91       		.byte	0x91
 9375 1a0a 6A       		.sleb128 -22
 9376 1a0b 21       		.uleb128 0x21
 9377 1a0c 65787400 		.ascii	"ext\000"
 9378 1a10 03       		.byte	0x3
 9379 1a11 1502     		.2byte	0x215
 9380 1a13 C0140000 		.4byte	0x14c0
 9381 1a17 02       		.uleb128 0x2
 9382 1a18 91       		.byte	0x91
 9383 1a19 74       		.sleb128 -12
 9384 1a1a 00       		.byte	0
 9385 1a1b 2B       		.uleb128 0x2b
 9386 1a1c D4030000 		.4byte	.LASF281
 9387 1a20 03       		.byte	0x3
 9388 1a21 2202     		.2byte	0x222
 9389 1a23 00000000 		.4byte	.LFB52
 9390 1a27 3C000000 		.4byte	.LFE52-.LFB52
 9391 1a2b 01       		.uleb128 0x1
 9392 1a2c 9C       		.byte	0x9c
 9393 1a2d 7D1A0000 		.4byte	0x1a7d
 9394 1a31 2C       		.uleb128 0x2c
 9395 1a32 9E020000 		.4byte	.LASF234
 9396 1a36 03       		.byte	0x3
 9397 1a37 2202     		.2byte	0x222
 9398 1a39 2A140000 		.4byte	0x142a
 9399 1a3d 02       		.uleb128 0x2
 9400 1a3e 91       		.byte	0x91
 9401 1a3f 6C       		.sleb128 -20
 9402 1a40 2C       		.uleb128 0x2c
 9403 1a41 F30A0000 		.4byte	.LASF176
 9404 1a45 03       		.byte	0x3
 9405 1a46 2202     		.2byte	0x222
 9406 1a48 0C030000 		.4byte	0x30c
ARM GAS  C:\Users\tmj32\AppData\Local\Temp\ccrrExWC.s 			page 207


 9407 1a4c 02       		.uleb128 0x2
 9408 1a4d 91       		.byte	0x91
 9409 1a4e 68       		.sleb128 -24
 9410 1a4f 2C       		.uleb128 0x2c
 9411 1a50 B9060000 		.4byte	.LASF178
 9412 1a54 03       		.byte	0x3
 9413 1a55 2202     		.2byte	0x222
 9414 1a57 B8000000 		.4byte	0xb8
 9415 1a5b 02       		.uleb128 0x2
 9416 1a5c 91       		.byte	0x91
 9417 1a5d 67       		.sleb128 -25
 9418 1a5e 2C       		.uleb128 0x2c
 9419 1a5f 50120000 		.4byte	.LASF177
 9420 1a63 03       		.byte	0x3
 9421 1a64 2302     		.2byte	0x223
 9422 1a66 160A0000 		.4byte	0xa16
 9423 1a6a 02       		.uleb128 0x2
 9424 1a6b 91       		.byte	0x91
 9425 1a6c 66       		.sleb128 -26
 9426 1a6d 21       		.uleb128 0x21
 9427 1a6e 65787400 		.ascii	"ext\000"
 9428 1a72 03       		.byte	0x3
 9429 1a73 2802     		.2byte	0x228
 9430 1a75 C0140000 		.4byte	0x14c0
 9431 1a79 02       		.uleb128 0x2
 9432 1a7a 91       		.byte	0x91
 9433 1a7b 74       		.sleb128 -12
 9434 1a7c 00       		.byte	0
 9435 1a7d 2B       		.uleb128 0x2b
 9436 1a7e 1F0B0000 		.4byte	.LASF282
 9437 1a82 03       		.byte	0x3
 9438 1a83 3602     		.2byte	0x236
 9439 1a85 00000000 		.4byte	.LFB53
 9440 1a89 38000000 		.4byte	.LFE53-.LFB53
 9441 1a8d 01       		.uleb128 0x1
 9442 1a8e 9C       		.byte	0x9c
 9443 1a8f DF1A0000 		.4byte	0x1adf
 9444 1a93 2C       		.uleb128 0x2c
 9445 1a94 9E020000 		.4byte	.LASF234
 9446 1a98 03       		.byte	0x3
 9447 1a99 3602     		.2byte	0x236
 9448 1a9b 2A140000 		.4byte	0x142a
 9449 1a9f 02       		.uleb128 0x2
 9450 1aa0 91       		.byte	0x91
 9451 1aa1 6C       		.sleb128 -20
 9452 1aa2 2C       		.uleb128 0x2c
 9453 1aa3 F30A0000 		.4byte	.LASF176
 9454 1aa7 03       		.byte	0x3
 9455 1aa8 3602     		.2byte	0x236
 9456 1aaa 0C030000 		.4byte	0x30c
 9457 1aae 02       		.uleb128 0x2
 9458 1aaf 91       		.byte	0x91
 9459 1ab0 68       		.sleb128 -24
 9460 1ab1 2C       		.uleb128 0x2c
 9461 1ab2 B9060000 		.4byte	.LASF178
 9462 1ab6 03       		.byte	0x3
 9463 1ab7 3602     		.2byte	0x236
ARM GAS  C:\Users\tmj32\AppData\Local\Temp\ccrrExWC.s 			page 208


 9464 1ab9 B8000000 		.4byte	0xb8
 9465 1abd 02       		.uleb128 0x2
 9466 1abe 91       		.byte	0x91
 9467 1abf 67       		.sleb128 -25
 9468 1ac0 2C       		.uleb128 0x2c
 9469 1ac1 50120000 		.4byte	.LASF177
 9470 1ac5 03       		.byte	0x3
 9471 1ac6 3702     		.2byte	0x237
 9472 1ac8 160A0000 		.4byte	0xa16
 9473 1acc 02       		.uleb128 0x2
 9474 1acd 91       		.byte	0x91
 9475 1ace 66       		.sleb128 -26
 9476 1acf 21       		.uleb128 0x21
 9477 1ad0 65787400 		.ascii	"ext\000"
 9478 1ad4 03       		.byte	0x3
 9479 1ad5 3C02     		.2byte	0x23c
 9480 1ad7 C0140000 		.4byte	0x14c0
 9481 1adb 02       		.uleb128 0x2
 9482 1adc 91       		.byte	0x91
 9483 1add 74       		.sleb128 -12
 9484 1ade 00       		.byte	0
 9485 1adf 2B       		.uleb128 0x2b
 9486 1ae0 0D060000 		.4byte	.LASF283
 9487 1ae4 03       		.byte	0x3
 9488 1ae5 4A02     		.2byte	0x24a
 9489 1ae7 00000000 		.4byte	.LFB54
 9490 1aeb 3C000000 		.4byte	.LFE54-.LFB54
 9491 1aef 01       		.uleb128 0x1
 9492 1af0 9C       		.byte	0x9c
 9493 1af1 411B0000 		.4byte	0x1b41
 9494 1af5 2C       		.uleb128 0x2c
 9495 1af6 9E020000 		.4byte	.LASF234
 9496 1afa 03       		.byte	0x3
 9497 1afb 4A02     		.2byte	0x24a
 9498 1afd 2A140000 		.4byte	0x142a
 9499 1b01 02       		.uleb128 0x2
 9500 1b02 91       		.byte	0x91
 9501 1b03 6C       		.sleb128 -20
 9502 1b04 2C       		.uleb128 0x2c
 9503 1b05 F30A0000 		.4byte	.LASF176
 9504 1b09 03       		.byte	0x3
 9505 1b0a 4A02     		.2byte	0x24a
 9506 1b0c 0C030000 		.4byte	0x30c
 9507 1b10 02       		.uleb128 0x2
 9508 1b11 91       		.byte	0x91
 9509 1b12 68       		.sleb128 -24
 9510 1b13 2C       		.uleb128 0x2c
 9511 1b14 B9060000 		.4byte	.LASF178
 9512 1b18 03       		.byte	0x3
 9513 1b19 4A02     		.2byte	0x24a
 9514 1b1b B8000000 		.4byte	0xb8
 9515 1b1f 02       		.uleb128 0x2
 9516 1b20 91       		.byte	0x91
 9517 1b21 67       		.sleb128 -25
 9518 1b22 2C       		.uleb128 0x2c
 9519 1b23 50120000 		.4byte	.LASF177
 9520 1b27 03       		.byte	0x3
ARM GAS  C:\Users\tmj32\AppData\Local\Temp\ccrrExWC.s 			page 209


 9521 1b28 4B02     		.2byte	0x24b
 9522 1b2a 160A0000 		.4byte	0xa16
 9523 1b2e 02       		.uleb128 0x2
 9524 1b2f 91       		.byte	0x91
 9525 1b30 66       		.sleb128 -26
 9526 1b31 21       		.uleb128 0x21
 9527 1b32 65787400 		.ascii	"ext\000"
 9528 1b36 03       		.byte	0x3
 9529 1b37 5002     		.2byte	0x250
 9530 1b39 C0140000 		.4byte	0x14c0
 9531 1b3d 02       		.uleb128 0x2
 9532 1b3e 91       		.byte	0x91
 9533 1b3f 74       		.sleb128 -12
 9534 1b40 00       		.byte	0
 9535 1b41 2B       		.uleb128 0x2b
 9536 1b42 C7090000 		.4byte	.LASF284
 9537 1b46 03       		.byte	0x3
 9538 1b47 5B02     		.2byte	0x25b
 9539 1b49 00000000 		.4byte	.LFB55
 9540 1b4d 28000000 		.4byte	.LFE55-.LFB55
 9541 1b51 01       		.uleb128 0x1
 9542 1b52 9C       		.byte	0x9c
 9543 1b53 851B0000 		.4byte	0x1b85
 9544 1b57 2C       		.uleb128 0x2c
 9545 1b58 9E020000 		.4byte	.LASF234
 9546 1b5c 03       		.byte	0x3
 9547 1b5d 5B02     		.2byte	0x25b
 9548 1b5f 2A140000 		.4byte	0x142a
 9549 1b63 02       		.uleb128 0x2
 9550 1b64 91       		.byte	0x91
 9551 1b65 6C       		.sleb128 -20
 9552 1b66 2C       		.uleb128 0x2c
 9553 1b67 740A0000 		.4byte	.LASF192
 9554 1b6b 03       		.byte	0x3
 9555 1b6c 5B02     		.2byte	0x25b
 9556 1b6e CE000000 		.4byte	0xce
 9557 1b72 02       		.uleb128 0x2
 9558 1b73 91       		.byte	0x91
 9559 1b74 6A       		.sleb128 -22
 9560 1b75 21       		.uleb128 0x21
 9561 1b76 65787400 		.ascii	"ext\000"
 9562 1b7a 03       		.byte	0x3
 9563 1b7b 5F02     		.2byte	0x25f
 9564 1b7d C0140000 		.4byte	0x14c0
 9565 1b81 02       		.uleb128 0x2
 9566 1b82 91       		.byte	0x91
 9567 1b83 74       		.sleb128 -12
 9568 1b84 00       		.byte	0
 9569 1b85 2F       		.uleb128 0x2f
 9570 1b86 2C110000 		.4byte	.LASF285
 9571 1b8a 03       		.byte	0x3
 9572 1b8b 6D02     		.2byte	0x26d
 9573 1b8d 8A090000 		.4byte	0x98a
 9574 1b91 00000000 		.4byte	.LFB56
 9575 1b95 1C000000 		.4byte	.LFE56-.LFB56
 9576 1b99 01       		.uleb128 0x1
 9577 1b9a 9C       		.byte	0x9c
ARM GAS  C:\Users\tmj32\AppData\Local\Temp\ccrrExWC.s 			page 210


 9578 1b9b BE1B0000 		.4byte	0x1bbe
 9579 1b9f 2C       		.uleb128 0x2c
 9580 1ba0 9E020000 		.4byte	.LASF234
 9581 1ba4 03       		.byte	0x3
 9582 1ba5 6D02     		.2byte	0x26d
 9583 1ba7 B5140000 		.4byte	0x14b5
 9584 1bab 02       		.uleb128 0x2
 9585 1bac 91       		.byte	0x91
 9586 1bad 6C       		.sleb128 -20
 9587 1bae 21       		.uleb128 0x21
 9588 1baf 65787400 		.ascii	"ext\000"
 9589 1bb3 03       		.byte	0x3
 9590 1bb4 7102     		.2byte	0x271
 9591 1bb6 C0140000 		.4byte	0x14c0
 9592 1bba 02       		.uleb128 0x2
 9593 1bbb 91       		.byte	0x91
 9594 1bbc 74       		.sleb128 -12
 9595 1bbd 00       		.byte	0
 9596 1bbe 2F       		.uleb128 0x2f
 9597 1bbf D8010000 		.4byte	.LASF286
 9598 1bc3 03       		.byte	0x3
 9599 1bc4 7A02     		.2byte	0x27a
 9600 1bc6 CE000000 		.4byte	0xce
 9601 1bca 00000000 		.4byte	.LFB57
 9602 1bce 1C000000 		.4byte	.LFE57-.LFB57
 9603 1bd2 01       		.uleb128 0x1
 9604 1bd3 9C       		.byte	0x9c
 9605 1bd4 F71B0000 		.4byte	0x1bf7
 9606 1bd8 2C       		.uleb128 0x2c
 9607 1bd9 9E020000 		.4byte	.LASF234
 9608 1bdd 03       		.byte	0x3
 9609 1bde 7A02     		.2byte	0x27a
 9610 1be0 B5140000 		.4byte	0x14b5
 9611 1be4 02       		.uleb128 0x2
 9612 1be5 91       		.byte	0x91
 9613 1be6 6C       		.sleb128 -20
 9614 1be7 21       		.uleb128 0x21
 9615 1be8 65787400 		.ascii	"ext\000"
 9616 1bec 03       		.byte	0x3
 9617 1bed 7E02     		.2byte	0x27e
 9618 1bef C0140000 		.4byte	0x14c0
 9619 1bf3 02       		.uleb128 0x2
 9620 1bf4 91       		.byte	0x91
 9621 1bf5 74       		.sleb128 -12
 9622 1bf6 00       		.byte	0
 9623 1bf7 2F       		.uleb128 0x2f
 9624 1bf8 66020000 		.4byte	.LASF287
 9625 1bfc 03       		.byte	0x3
 9626 1bfd 8702     		.2byte	0x287
 9627 1bff EC020000 		.4byte	0x2ec
 9628 1c03 00000000 		.4byte	.LFB58
 9629 1c07 1E000000 		.4byte	.LFE58-.LFB58
 9630 1c0b 01       		.uleb128 0x1
 9631 1c0c 9C       		.byte	0x9c
 9632 1c0d 301C0000 		.4byte	0x1c30
 9633 1c11 2C       		.uleb128 0x2c
 9634 1c12 9E020000 		.4byte	.LASF234
ARM GAS  C:\Users\tmj32\AppData\Local\Temp\ccrrExWC.s 			page 211


 9635 1c16 03       		.byte	0x3
 9636 1c17 8702     		.2byte	0x287
 9637 1c19 B5140000 		.4byte	0x14b5
 9638 1c1d 02       		.uleb128 0x2
 9639 1c1e 91       		.byte	0x91
 9640 1c1f 6C       		.sleb128 -20
 9641 1c20 21       		.uleb128 0x21
 9642 1c21 65787400 		.ascii	"ext\000"
 9643 1c25 03       		.byte	0x3
 9644 1c26 8B02     		.2byte	0x28b
 9645 1c28 C0140000 		.4byte	0x14c0
 9646 1c2c 02       		.uleb128 0x2
 9647 1c2d 91       		.byte	0x91
 9648 1c2e 74       		.sleb128 -12
 9649 1c2f 00       		.byte	0
 9650 1c30 2F       		.uleb128 0x2f
 9651 1c31 2D0A0000 		.4byte	.LASF288
 9652 1c35 03       		.byte	0x3
 9653 1c36 9402     		.2byte	0x294
 9654 1c38 EF000000 		.4byte	0xef
 9655 1c3c 00000000 		.4byte	.LFB59
 9656 1c40 1E000000 		.4byte	.LFE59-.LFB59
 9657 1c44 01       		.uleb128 0x1
 9658 1c45 9C       		.byte	0x9c
 9659 1c46 691C0000 		.4byte	0x1c69
 9660 1c4a 2C       		.uleb128 0x2c
 9661 1c4b 9E020000 		.4byte	.LASF234
 9662 1c4f 03       		.byte	0x3
 9663 1c50 9402     		.2byte	0x294
 9664 1c52 B5140000 		.4byte	0x14b5
 9665 1c56 02       		.uleb128 0x2
 9666 1c57 91       		.byte	0x91
 9667 1c58 6C       		.sleb128 -20
 9668 1c59 21       		.uleb128 0x21
 9669 1c5a 65787400 		.ascii	"ext\000"
 9670 1c5e 03       		.byte	0x3
 9671 1c5f 9802     		.2byte	0x298
 9672 1c61 C0140000 		.4byte	0x14c0
 9673 1c65 02       		.uleb128 0x2
 9674 1c66 91       		.byte	0x91
 9675 1c67 74       		.sleb128 -12
 9676 1c68 00       		.byte	0
 9677 1c69 2F       		.uleb128 0x2f
 9678 1c6a C80C0000 		.4byte	.LASF289
 9679 1c6e 03       		.byte	0x3
 9680 1c6f A102     		.2byte	0x2a1
 9681 1c71 EC020000 		.4byte	0x2ec
 9682 1c75 00000000 		.4byte	.LFB60
 9683 1c79 1E000000 		.4byte	.LFE60-.LFB60
 9684 1c7d 01       		.uleb128 0x1
 9685 1c7e 9C       		.byte	0x9c
 9686 1c7f A21C0000 		.4byte	0x1ca2
 9687 1c83 2C       		.uleb128 0x2c
 9688 1c84 9E020000 		.4byte	.LASF234
 9689 1c88 03       		.byte	0x3
 9690 1c89 A102     		.2byte	0x2a1
 9691 1c8b B5140000 		.4byte	0x14b5
ARM GAS  C:\Users\tmj32\AppData\Local\Temp\ccrrExWC.s 			page 212


 9692 1c8f 02       		.uleb128 0x2
 9693 1c90 91       		.byte	0x91
 9694 1c91 6C       		.sleb128 -20
 9695 1c92 21       		.uleb128 0x21
 9696 1c93 65787400 		.ascii	"ext\000"
 9697 1c97 03       		.byte	0x3
 9698 1c98 A502     		.2byte	0x2a5
 9699 1c9a C0140000 		.4byte	0x14c0
 9700 1c9e 02       		.uleb128 0x2
 9701 1c9f 91       		.byte	0x91
 9702 1ca0 74       		.sleb128 -12
 9703 1ca1 00       		.byte	0
 9704 1ca2 2B       		.uleb128 0x2b
 9705 1ca3 8B090000 		.4byte	.LASF290
 9706 1ca7 03       		.byte	0x3
 9707 1ca8 B102     		.2byte	0x2b1
 9708 1caa 00000000 		.4byte	.LFB61
 9709 1cae 16000000 		.4byte	.LFE61-.LFB61
 9710 1cb2 01       		.uleb128 0x1
 9711 1cb3 9C       		.byte	0x9c
 9712 1cb4 C81C0000 		.4byte	0x1cc8
 9713 1cb8 2C       		.uleb128 0x2c
 9714 1cb9 9E020000 		.4byte	.LASF234
 9715 1cbd 03       		.byte	0x3
 9716 1cbe B102     		.2byte	0x2b1
 9717 1cc0 2A140000 		.4byte	0x142a
 9718 1cc4 02       		.uleb128 0x2
 9719 1cc5 91       		.byte	0x91
 9720 1cc6 74       		.sleb128 -12
 9721 1cc7 00       		.byte	0
 9722 1cc8 2F       		.uleb128 0x2f
 9723 1cc9 33100000 		.4byte	.LASF291
 9724 1ccd 03       		.byte	0x3
 9725 1cce BD02     		.2byte	0x2bd
 9726 1cd0 CE000000 		.4byte	0xce
 9727 1cd4 00000000 		.4byte	.LFB62
 9728 1cd8 1C000000 		.4byte	.LFE62-.LFB62
 9729 1cdc 01       		.uleb128 0x1
 9730 1cdd 9C       		.byte	0x9c
 9731 1cde 011D0000 		.4byte	0x1d01
 9732 1ce2 2C       		.uleb128 0x2c
 9733 1ce3 9E020000 		.4byte	.LASF234
 9734 1ce7 03       		.byte	0x3
 9735 1ce8 BD02     		.2byte	0x2bd
 9736 1cea 2A140000 		.4byte	0x142a
 9737 1cee 02       		.uleb128 0x2
 9738 1cef 91       		.byte	0x91
 9739 1cf0 6C       		.sleb128 -20
 9740 1cf1 21       		.uleb128 0x21
 9741 1cf2 65787400 		.ascii	"ext\000"
 9742 1cf6 03       		.byte	0x3
 9743 1cf7 C102     		.2byte	0x2c1
 9744 1cf9 C0140000 		.4byte	0x14c0
 9745 1cfd 02       		.uleb128 0x2
 9746 1cfe 91       		.byte	0x91
 9747 1cff 74       		.sleb128 -12
 9748 1d00 00       		.byte	0
ARM GAS  C:\Users\tmj32\AppData\Local\Temp\ccrrExWC.s 			page 213


 9749 1d01 30       		.uleb128 0x30
 9750 1d02 86060000 		.4byte	.LASF293
 9751 1d06 03       		.byte	0x3
 9752 1d07 D302     		.2byte	0x2d3
 9753 1d09 D5010000 		.4byte	0x1d5
 9754 1d0d 00000000 		.4byte	.LFB63
 9755 1d11 14010000 		.4byte	.LFE63-.LFB63
 9756 1d15 01       		.uleb128 0x1
 9757 1d16 9C       		.byte	0x9c
 9758 1d17 8F1D0000 		.4byte	0x1d8f
 9759 1d1b 2C       		.uleb128 0x2c
 9760 1d1c 9E020000 		.4byte	.LASF234
 9761 1d20 03       		.byte	0x3
 9762 1d21 D302     		.2byte	0x2d3
 9763 1d23 2A140000 		.4byte	0x142a
 9764 1d27 02       		.uleb128 0x2
 9765 1d28 91       		.byte	0x91
 9766 1d29 54       		.sleb128 -44
 9767 1d2a 2C       		.uleb128 0x2c
 9768 1d2b 39090000 		.4byte	.LASF294
 9769 1d2f 03       		.byte	0x3
 9770 1d30 D302     		.2byte	0x2d3
 9771 1d32 33060000 		.4byte	0x633
 9772 1d36 02       		.uleb128 0x2
 9773 1d37 91       		.byte	0x91
 9774 1d38 50       		.sleb128 -48
 9775 1d39 2C       		.uleb128 0x2c
 9776 1d3a A40F0000 		.4byte	.LASF295
 9777 1d3e 03       		.byte	0x3
 9778 1d3f D302     		.2byte	0x2d3
 9779 1d41 A5070000 		.4byte	0x7a5
 9780 1d45 02       		.uleb128 0x2
 9781 1d46 91       		.byte	0x91
 9782 1d47 4F       		.sleb128 -49
 9783 1d48 29       		.uleb128 0x29
 9784 1d49 2A000000 		.4byte	.LBB6
 9785 1d4d DA000000 		.4byte	.LBE6-.LBB6
 9786 1d51 21       		.uleb128 0x21
 9787 1d52 65787400 		.ascii	"ext\000"
 9788 1d56 03       		.byte	0x3
 9789 1d57 DC02     		.2byte	0x2dc
 9790 1d59 C0140000 		.4byte	0x14c0
 9791 1d5d 02       		.uleb128 0x2
 9792 1d5e 91       		.byte	0x91
 9793 1d5f 6C       		.sleb128 -20
 9794 1d60 2D       		.uleb128 0x2d
 9795 1d61 BB100000 		.4byte	.LASF296
 9796 1d65 03       		.byte	0x3
 9797 1d66 E202     		.2byte	0x2e2
 9798 1d68 74030000 		.4byte	0x374
 9799 1d6c 02       		.uleb128 0x2
 9800 1d6d 91       		.byte	0x91
 9801 1d6e 60       		.sleb128 -32
 9802 1d6f 2D       		.uleb128 0x2d
 9803 1d70 7B110000 		.4byte	.LASF297
 9804 1d74 03       		.byte	0x3
 9805 1d75 E202     		.2byte	0x2e2
ARM GAS  C:\Users\tmj32\AppData\Local\Temp\ccrrExWC.s 			page 214


 9806 1d77 74030000 		.4byte	0x374
 9807 1d7b 02       		.uleb128 0x2
 9808 1d7c 91       		.byte	0x91
 9809 1d7d 58       		.sleb128 -40
 9810 1d7e 2D       		.uleb128 0x2d
 9811 1d7f 7B0A0000 		.4byte	.LASF298
 9812 1d83 03       		.byte	0x3
 9813 1d84 E502     		.2byte	0x2e5
 9814 1d86 D5010000 		.4byte	0x1d5
 9815 1d8a 02       		.uleb128 0x2
 9816 1d8b 91       		.byte	0x91
 9817 1d8c 6B       		.sleb128 -21
 9818 1d8d 00       		.byte	0
 9819 1d8e 00       		.byte	0
 9820 1d8f 30       		.uleb128 0x30
 9821 1d90 91000000 		.4byte	.LASF299
 9822 1d94 03       		.byte	0x3
 9823 1d95 FA02     		.2byte	0x2fa
 9824 1d97 D4050000 		.4byte	0x5d4
 9825 1d9b 00000000 		.4byte	.LFB64
 9826 1d9f 9C000000 		.4byte	.LFE64-.LFB64
 9827 1da3 01       		.uleb128 0x1
 9828 1da4 9C       		.byte	0x9c
 9829 1da5 0E1E0000 		.4byte	0x1e0e
 9830 1da9 2C       		.uleb128 0x2c
 9831 1daa 9E020000 		.4byte	.LASF234
 9832 1dae 03       		.byte	0x3
 9833 1daf FA02     		.2byte	0x2fa
 9834 1db1 2A140000 		.4byte	0x142a
 9835 1db5 02       		.uleb128 0x2
 9836 1db6 91       		.byte	0x91
 9837 1db7 64       		.sleb128 -28
 9838 1db8 2C       		.uleb128 0x2c
 9839 1db9 C8010000 		.4byte	.LASF300
 9840 1dbd 03       		.byte	0x3
 9841 1dbe FA02     		.2byte	0x2fa
 9842 1dc0 8B080000 		.4byte	0x88b
 9843 1dc4 02       		.uleb128 0x2
 9844 1dc5 91       		.byte	0x91
 9845 1dc6 63       		.sleb128 -29
 9846 1dc7 2C       		.uleb128 0x2c
 9847 1dc8 63070000 		.4byte	.LASF301
 9848 1dcc 03       		.byte	0x3
 9849 1dcd FA02     		.2byte	0x2fa
 9850 1dcf FA000000 		.4byte	0xfa
 9851 1dd3 02       		.uleb128 0x2
 9852 1dd4 91       		.byte	0x91
 9853 1dd5 5C       		.sleb128 -36
 9854 1dd6 21       		.uleb128 0x21
 9855 1dd7 72657300 		.ascii	"res\000"
 9856 1ddb 03       		.byte	0x3
 9857 1ddc FD02     		.2byte	0x2fd
 9858 1dde D4050000 		.4byte	0x5d4
 9859 1de2 02       		.uleb128 0x2
 9860 1de3 91       		.byte	0x91
 9861 1de4 73       		.sleb128 -13
 9862 1de5 21       		.uleb128 0x21
ARM GAS  C:\Users\tmj32\AppData\Local\Temp\ccrrExWC.s 			page 215


 9863 1de6 65787400 		.ascii	"ext\000"
 9864 1dea 03       		.byte	0x3
 9865 1deb 0203     		.2byte	0x302
 9866 1ded C0140000 		.4byte	0x14c0
 9867 1df1 02       		.uleb128 0x2
 9868 1df2 91       		.byte	0x91
 9869 1df3 6C       		.sleb128 -20
 9870 1df4 29       		.uleb128 0x29
 9871 1df5 48000000 		.4byte	.LBB7
 9872 1df9 30000000 		.4byte	.LBE7-.LBB7
 9873 1dfd 2D       		.uleb128 0x2d
 9874 1dfe 310C0000 		.4byte	.LASF302
 9875 1e02 03       		.byte	0x3
 9876 1e03 0503     		.2byte	0x305
 9877 1e05 0E1E0000 		.4byte	0x1e0e
 9878 1e09 02       		.uleb128 0x2
 9879 1e0a 91       		.byte	0x91
 9880 1e0b 74       		.sleb128 -12
 9881 1e0c 00       		.byte	0
 9882 1e0d 00       		.byte	0
 9883 1e0e 0D       		.uleb128 0xd
 9884 1e0f 04       		.byte	0x4
 9885 1e10 E6090000 		.4byte	0x9e6
 9886 1e14 31       		.uleb128 0x31
 9887 1e15 7F000000 		.4byte	.LASF304
 9888 1e19 03       		.byte	0x3
 9889 1e1a 1803     		.2byte	0x318
 9890 1e1c 00000000 		.4byte	.LFB65
 9891 1e20 B0010000 		.4byte	.LFE65-.LFB65
 9892 1e24 01       		.uleb128 0x1
 9893 1e25 9C       		.byte	0x9c
 9894 1e26 F71E0000 		.4byte	0x1ef7
 9895 1e2a 2C       		.uleb128 0x2c
 9896 1e2b 9E020000 		.4byte	.LASF234
 9897 1e2f 03       		.byte	0x3
 9898 1e30 1803     		.2byte	0x318
 9899 1e32 2A140000 		.4byte	0x142a
 9900 1e36 02       		.uleb128 0x2
 9901 1e37 91       		.byte	0x91
 9902 1e38 54       		.sleb128 -44
 9903 1e39 2C       		.uleb128 0x2c
 9904 1e3a 39090000 		.4byte	.LASF294
 9905 1e3e 03       		.byte	0x3
 9906 1e3f 1803     		.2byte	0x318
 9907 1e41 33060000 		.4byte	0x633
 9908 1e45 02       		.uleb128 0x2
 9909 1e46 91       		.byte	0x91
 9910 1e47 50       		.sleb128 -48
 9911 1e48 21       		.uleb128 0x21
 9912 1e49 65787400 		.ascii	"ext\000"
 9913 1e4d 03       		.byte	0x3
 9914 1e4e 1A03     		.2byte	0x31a
 9915 1e50 C0140000 		.4byte	0x14c0
 9916 1e54 02       		.uleb128 0x2
 9917 1e55 91       		.byte	0x91
 9918 1e56 70       		.sleb128 -16
 9919 1e57 2D       		.uleb128 0x2d
ARM GAS  C:\Users\tmj32\AppData\Local\Temp\ccrrExWC.s 			page 216


 9920 1e58 610B0000 		.4byte	.LASF246
 9921 1e5c 03       		.byte	0x3
 9922 1e5d 1B03     		.2byte	0x31b
 9923 1e5f 43090000 		.4byte	0x943
 9924 1e63 02       		.uleb128 0x2
 9925 1e64 91       		.byte	0x91
 9926 1e65 6C       		.sleb128 -20
 9927 1e66 2D       		.uleb128 0x2d
 9928 1e67 D5120000 		.4byte	.LASF117
 9929 1e6b 03       		.byte	0x3
 9930 1e6c 1C03     		.2byte	0x31c
 9931 1e6e EC020000 		.4byte	0x2ec
 9932 1e72 02       		.uleb128 0x2
 9933 1e73 91       		.byte	0x91
 9934 1e74 6B       		.sleb128 -21
 9935 1e75 2D       		.uleb128 0x2d
 9936 1e76 62110000 		.4byte	.LASF305
 9937 1e7a 03       		.byte	0x3
 9938 1e7b 1E03     		.2byte	0x31e
 9939 1e7d B8000000 		.4byte	0xb8
 9940 1e81 02       		.uleb128 0x2
 9941 1e82 91       		.byte	0x91
 9942 1e83 77       		.sleb128 -9
 9943 1e84 2D       		.uleb128 0x2d
 9944 1e85 A9090000 		.4byte	.LASF306
 9945 1e89 03       		.byte	0x3
 9946 1e8a 1F03     		.2byte	0x31f
 9947 1e8c B8000000 		.4byte	0xb8
 9948 1e90 02       		.uleb128 0x2
 9949 1e91 91       		.byte	0x91
 9950 1e92 76       		.sleb128 -10
 9951 1e93 2D       		.uleb128 0x2d
 9952 1e94 7F090000 		.4byte	.LASF307
 9953 1e98 03       		.byte	0x3
 9954 1e99 2003     		.2byte	0x320
 9955 1e9b B8000000 		.4byte	0xb8
 9956 1e9f 02       		.uleb128 0x2
 9957 1ea0 91       		.byte	0x91
 9958 1ea1 75       		.sleb128 -11
 9959 1ea2 21       		.uleb128 0x21
 9960 1ea3 703100   		.ascii	"p1\000"
 9961 1ea6 03       		.byte	0x3
 9962 1ea7 2103     		.2byte	0x321
 9963 1ea9 34030000 		.4byte	0x334
 9964 1ead 02       		.uleb128 0x2
 9965 1eae 91       		.byte	0x91
 9966 1eaf 5C       		.sleb128 -36
 9967 1eb0 21       		.uleb128 0x21
 9968 1eb1 703200   		.ascii	"p2\000"
 9969 1eb4 03       		.byte	0x3
 9970 1eb5 2203     		.2byte	0x322
 9971 1eb7 34030000 		.4byte	0x334
 9972 1ebb 02       		.uleb128 0x2
 9973 1ebc 91       		.byte	0x91
 9974 1ebd 58       		.sleb128 -40
 9975 1ebe 21       		.uleb128 0x21
 9976 1ebf 7700     		.ascii	"w\000"
ARM GAS  C:\Users\tmj32\AppData\Local\Temp\ccrrExWC.s 			page 217


 9977 1ec1 03       		.byte	0x3
 9978 1ec2 2303     		.2byte	0x323
 9979 1ec4 EF000000 		.4byte	0xef
 9980 1ec8 02       		.uleb128 0x2
 9981 1ec9 91       		.byte	0x91
 9982 1eca 68       		.sleb128 -24
 9983 1ecb 21       		.uleb128 0x21
 9984 1ecc 6800     		.ascii	"h\000"
 9985 1ece 03       		.byte	0x3
 9986 1ecf 2403     		.2byte	0x324
 9987 1ed1 EF000000 		.4byte	0xef
 9988 1ed5 02       		.uleb128 0x2
 9989 1ed6 91       		.byte	0x91
 9990 1ed7 66       		.sleb128 -26
 9991 1ed8 2D       		.uleb128 0x2d
 9992 1ed9 90010000 		.4byte	.LASF308
 9993 1edd 03       		.byte	0x3
 9994 1ede 2503     		.2byte	0x325
 9995 1ee0 EF000000 		.4byte	0xef
 9996 1ee4 02       		.uleb128 0x2
 9997 1ee5 91       		.byte	0x91
 9998 1ee6 64       		.sleb128 -28
 9999 1ee7 2D       		.uleb128 0x2d
 10000 1ee8 47110000 		.4byte	.LASF309
 10001 1eec 03       		.byte	0x3
 10002 1eed 2603     		.2byte	0x326
 10003 1eef EF000000 		.4byte	0xef
 10004 1ef3 02       		.uleb128 0x2
 10005 1ef4 91       		.byte	0x91
 10006 1ef5 62       		.sleb128 -30
 10007 1ef6 00       		.byte	0
 10008 1ef7 31       		.uleb128 0x31
 10009 1ef8 A90F0000 		.4byte	.LASF310
 10010 1efc 03       		.byte	0x3
 10011 1efd 5503     		.2byte	0x355
 10012 1eff 00000000 		.4byte	.LFB66
 10013 1f03 40020000 		.4byte	.LFE66-.LFB66
 10014 1f07 01       		.uleb128 0x1
 10015 1f08 9C       		.byte	0x9c
 10016 1f09 12200000 		.4byte	0x2012
 10017 1f0d 2C       		.uleb128 0x2c
 10018 1f0e 9E020000 		.4byte	.LASF234
 10019 1f12 03       		.byte	0x3
 10020 1f13 5503     		.2byte	0x355
 10021 1f15 2A140000 		.4byte	0x142a
 10022 1f19 03       		.uleb128 0x3
 10023 1f1a 91       		.byte	0x91
 10024 1f1b FC7E     		.sleb128 -132
 10025 1f1d 2C       		.uleb128 0x2c
 10026 1f1e 39090000 		.4byte	.LASF294
 10027 1f22 03       		.byte	0x3
 10028 1f23 5503     		.2byte	0x355
 10029 1f25 33060000 		.4byte	0x633
 10030 1f29 03       		.uleb128 0x3
 10031 1f2a 91       		.byte	0x91
 10032 1f2b F87E     		.sleb128 -136
 10033 1f2d 21       		.uleb128 0x21
ARM GAS  C:\Users\tmj32\AppData\Local\Temp\ccrrExWC.s 			page 218


 10034 1f2e 65787400 		.ascii	"ext\000"
 10035 1f32 03       		.byte	0x3
 10036 1f33 5703     		.2byte	0x357
 10037 1f35 C0140000 		.4byte	0x14c0
 10038 1f39 02       		.uleb128 0x2
 10039 1f3a 91       		.byte	0x91
 10040 1f3b 6C       		.sleb128 -20
 10041 1f3c 21       		.uleb128 0x21
 10042 1f3d 6900     		.ascii	"i\000"
 10043 1f3f 03       		.byte	0x3
 10044 1f40 5903     		.2byte	0x359
 10045 1f42 CE000000 		.4byte	0xce
 10046 1f46 02       		.uleb128 0x2
 10047 1f47 91       		.byte	0x91
 10048 1f48 76       		.sleb128 -10
 10049 1f49 21       		.uleb128 0x21
 10050 1f4a 703100   		.ascii	"p1\000"
 10051 1f4d 03       		.byte	0x3
 10052 1f4e 5A03     		.2byte	0x35a
 10053 1f50 34030000 		.4byte	0x334
 10054 1f54 02       		.uleb128 0x2
 10055 1f55 91       		.byte	0x91
 10056 1f56 54       		.sleb128 -44
 10057 1f57 21       		.uleb128 0x21
 10058 1f58 703200   		.ascii	"p2\000"
 10059 1f5b 03       		.byte	0x3
 10060 1f5c 5B03     		.2byte	0x35b
 10061 1f5e 34030000 		.4byte	0x334
 10062 1f62 02       		.uleb128 0x2
 10063 1f63 91       		.byte	0x91
 10064 1f64 50       		.sleb128 -48
 10065 1f65 21       		.uleb128 0x21
 10066 1f66 7700     		.ascii	"w\000"
 10067 1f68 03       		.byte	0x3
 10068 1f69 5C03     		.2byte	0x35c
 10069 1f6b EF000000 		.4byte	0xef
 10070 1f6f 02       		.uleb128 0x2
 10071 1f70 91       		.byte	0x91
 10072 1f71 6A       		.sleb128 -22
 10073 1f72 21       		.uleb128 0x21
 10074 1f73 6800     		.ascii	"h\000"
 10075 1f75 03       		.byte	0x3
 10076 1f76 5D03     		.2byte	0x35d
 10077 1f78 EF000000 		.4byte	0xef
 10078 1f7c 02       		.uleb128 0x2
 10079 1f7d 91       		.byte	0x91
 10080 1f7e 68       		.sleb128 -24
 10081 1f7f 2D       		.uleb128 0x2d
 10082 1f80 90010000 		.4byte	.LASF308
 10083 1f84 03       		.byte	0x3
 10084 1f85 5E03     		.2byte	0x35e
 10085 1f87 EF000000 		.4byte	0xef
 10086 1f8b 02       		.uleb128 0x2
 10087 1f8c 91       		.byte	0x91
 10088 1f8d 66       		.sleb128 -26
 10089 1f8e 2D       		.uleb128 0x2d
 10090 1f8f 47110000 		.4byte	.LASF309
ARM GAS  C:\Users\tmj32\AppData\Local\Temp\ccrrExWC.s 			page 219


 10091 1f93 03       		.byte	0x3
 10092 1f94 5F03     		.2byte	0x35f
 10093 1f96 EF000000 		.4byte	0xef
 10094 1f9a 02       		.uleb128 0x2
 10095 1f9b 91       		.byte	0x91
 10096 1f9c 64       		.sleb128 -28
 10097 1f9d 2D       		.uleb128 0x2d
 10098 1f9e DC020000 		.4byte	.LASF311
 10099 1fa2 03       		.byte	0x3
 10100 1fa3 6003     		.2byte	0x360
 10101 1fa5 D9000000 		.4byte	0xd9
 10102 1fa9 02       		.uleb128 0x2
 10103 1faa 91       		.byte	0x91
 10104 1fab 5C       		.sleb128 -36
 10105 1fac 2D       		.uleb128 0x2d
 10106 1fad 2E030000 		.4byte	.LASF312
 10107 1fb1 03       		.byte	0x3
 10108 1fb2 6103     		.2byte	0x361
 10109 1fb4 EF000000 		.4byte	0xef
 10110 1fb8 02       		.uleb128 0x2
 10111 1fb9 91       		.byte	0x91
 10112 1fba 74       		.sleb128 -12
 10113 1fbb 2D       		.uleb128 0x2d
 10114 1fbc 75010000 		.4byte	.LASF313
 10115 1fc0 03       		.byte	0x3
 10116 1fc1 6203     		.2byte	0x362
 10117 1fc3 EF000000 		.4byte	0xef
 10118 1fc7 02       		.uleb128 0x2
 10119 1fc8 91       		.byte	0x91
 10120 1fc9 5A       		.sleb128 -38
 10121 1fca 21       		.uleb128 0x21
 10122 1fcb 73657200 		.ascii	"ser\000"
 10123 1fcf 03       		.byte	0x3
 10124 1fd0 6303     		.2byte	0x363
 10125 1fd2 46150000 		.4byte	0x1546
 10126 1fd6 02       		.uleb128 0x2
 10127 1fd7 91       		.byte	0x91
 10128 1fd8 70       		.sleb128 -16
 10129 1fd9 2D       		.uleb128 0x2d
 10130 1fda D5120000 		.4byte	.LASF117
 10131 1fde 03       		.byte	0x3
 10132 1fdf 6403     		.2byte	0x364
 10133 1fe1 EC020000 		.4byte	0x2ec
 10134 1fe5 02       		.uleb128 0x2
 10135 1fe6 91       		.byte	0x91
 10136 1fe7 63       		.sleb128 -29
 10137 1fe8 2D       		.uleb128 0x2d
 10138 1fe9 610B0000 		.4byte	.LASF246
 10139 1fed 03       		.byte	0x3
 10140 1fee 6503     		.2byte	0x365
 10141 1ff0 AA050000 		.4byte	0x5aa
 10142 1ff4 03       		.uleb128 0x3
 10143 1ff5 91       		.byte	0x91
 10144 1ff6 807F     		.sleb128 -128
 10145 1ff8 29       		.uleb128 0x29
 10146 1ff9 72000000 		.4byte	.LBB8
 10147 1ffd A8010000 		.4byte	.LBE8-.LBB8
ARM GAS  C:\Users\tmj32\AppData\Local\Temp\ccrrExWC.s 			page 220


 10148 2001 2D       		.uleb128 0x2d
 10149 2002 F8060000 		.4byte	.LASF170
 10150 2006 03       		.byte	0x3
 10151 2007 6F03     		.2byte	0x36f
 10152 2009 EF000000 		.4byte	0xef
 10153 200d 02       		.uleb128 0x2
 10154 200e 91       		.byte	0x91
 10155 200f 60       		.sleb128 -32
 10156 2010 00       		.byte	0
 10157 2011 00       		.byte	0
 10158 2012 31       		.uleb128 0x31
 10159 2013 F6090000 		.4byte	.LASF314
 10160 2017 03       		.byte	0x3
 10161 2018 9203     		.2byte	0x392
 10162 201a 00000000 		.4byte	.LFB67
 10163 201e 40020000 		.4byte	.LFE67-.LFB67
 10164 2022 01       		.uleb128 0x1
 10165 2023 9C       		.byte	0x9c
 10166 2024 11210000 		.4byte	0x2111
 10167 2028 2C       		.uleb128 0x2c
 10168 2029 9E020000 		.4byte	.LASF234
 10169 202d 03       		.byte	0x3
 10170 202e 9203     		.2byte	0x392
 10171 2030 2A140000 		.4byte	0x142a
 10172 2034 03       		.uleb128 0x3
 10173 2035 91       		.byte	0x91
 10174 2036 F47E     		.sleb128 -140
 10175 2038 2C       		.uleb128 0x2c
 10176 2039 39090000 		.4byte	.LASF294
 10177 203d 03       		.byte	0x3
 10178 203e 9203     		.2byte	0x392
 10179 2040 33060000 		.4byte	0x633
 10180 2044 03       		.uleb128 0x3
 10181 2045 91       		.byte	0x91
 10182 2046 F07E     		.sleb128 -144
 10183 2048 21       		.uleb128 0x21
 10184 2049 65787400 		.ascii	"ext\000"
 10185 204d 03       		.byte	0x3
 10186 204e 9403     		.2byte	0x394
 10187 2050 C0140000 		.4byte	0x14c0
 10188 2054 02       		.uleb128 0x2
 10189 2055 91       		.byte	0x91
 10190 2056 68       		.sleb128 -24
 10191 2057 21       		.uleb128 0x21
 10192 2058 6900     		.ascii	"i\000"
 10193 205a 03       		.byte	0x3
 10194 205b 9603     		.2byte	0x396
 10195 205d CE000000 		.4byte	0xce
 10196 2061 02       		.uleb128 0x2
 10197 2062 91       		.byte	0x91
 10198 2063 76       		.sleb128 -10
 10199 2064 2D       		.uleb128 0x2d
 10200 2065 29070000 		.4byte	.LASF315
 10201 2069 03       		.byte	0x3
 10202 206a 9703     		.2byte	0x397
 10203 206c 74030000 		.4byte	0x374
 10204 2070 02       		.uleb128 0x2
ARM GAS  C:\Users\tmj32\AppData\Local\Temp\ccrrExWC.s 			page 221


 10205 2071 91       		.byte	0x91
 10206 2072 4C       		.sleb128 -52
 10207 2073 21       		.uleb128 0x21
 10208 2074 7700     		.ascii	"w\000"
 10209 2076 03       		.byte	0x3
 10210 2077 9803     		.2byte	0x398
 10211 2079 EF000000 		.4byte	0xef
 10212 207d 02       		.uleb128 0x2
 10213 207e 91       		.byte	0x91
 10214 207f 66       		.sleb128 -26
 10215 2080 21       		.uleb128 0x21
 10216 2081 6800     		.ascii	"h\000"
 10217 2083 03       		.byte	0x3
 10218 2084 9903     		.2byte	0x399
 10219 2086 EF000000 		.4byte	0xef
 10220 208a 02       		.uleb128 0x2
 10221 208b 91       		.byte	0x91
 10222 208c 64       		.sleb128 -28
 10223 208d 2D       		.uleb128 0x2d
 10224 208e 90010000 		.4byte	.LASF308
 10225 2092 03       		.byte	0x3
 10226 2093 9A03     		.2byte	0x39a
 10227 2095 EF000000 		.4byte	0xef
 10228 2099 02       		.uleb128 0x2
 10229 209a 91       		.byte	0x91
 10230 209b 62       		.sleb128 -30
 10231 209c 2D       		.uleb128 0x2d
 10232 209d 47110000 		.4byte	.LASF309
 10233 20a1 03       		.byte	0x3
 10234 20a2 9B03     		.2byte	0x39b
 10235 20a4 EF000000 		.4byte	0xef
 10236 20a8 02       		.uleb128 0x2
 10237 20a9 91       		.byte	0x91
 10238 20aa 60       		.sleb128 -32
 10239 20ab 2D       		.uleb128 0x2d
 10240 20ac DC020000 		.4byte	.LASF311
 10241 20b0 03       		.byte	0x3
 10242 20b1 9C03     		.2byte	0x39c
 10243 20b3 D9000000 		.4byte	0xd9
 10244 20b7 02       		.uleb128 0x2
 10245 20b8 91       		.byte	0x91
 10246 20b9 58       		.sleb128 -40
 10247 20ba 2D       		.uleb128 0x2d
 10248 20bb 75010000 		.4byte	.LASF313
 10249 20bf 03       		.byte	0x3
 10250 20c0 9D03     		.2byte	0x39d
 10251 20c2 EF000000 		.4byte	0xef
 10252 20c6 02       		.uleb128 0x2
 10253 20c7 91       		.byte	0x91
 10254 20c8 5C       		.sleb128 -36
 10255 20c9 21       		.uleb128 0x21
 10256 20ca 73657200 		.ascii	"ser\000"
 10257 20ce 03       		.byte	0x3
 10258 20cf 9E03     		.2byte	0x39e
 10259 20d1 46150000 		.4byte	0x1546
 10260 20d5 02       		.uleb128 0x2
 10261 20d6 91       		.byte	0x91
ARM GAS  C:\Users\tmj32\AppData\Local\Temp\ccrrExWC.s 			page 222


 10262 20d7 70       		.sleb128 -16
 10263 20d8 2D       		.uleb128 0x2d
 10264 20d9 17110000 		.4byte	.LASF316
 10265 20dd 03       		.byte	0x3
 10266 20de 9F03     		.2byte	0x39f
 10267 20e0 B8000000 		.4byte	0xb8
 10268 20e4 02       		.uleb128 0x2
 10269 20e5 91       		.byte	0x91
 10270 20e6 6F       		.sleb128 -17
 10271 20e7 2D       		.uleb128 0x2d
 10272 20e8 38080000 		.4byte	.LASF317
 10273 20ec 03       		.byte	0x3
 10274 20ed A003     		.2byte	0x3a0
 10275 20ef AA050000 		.4byte	0x5aa
 10276 20f3 03       		.uleb128 0x3
 10277 20f4 91       		.byte	0x91
 10278 20f5 FC7E     		.sleb128 -132
 10279 20f7 29       		.uleb128 0x29
 10280 20f8 74000000 		.4byte	.LBB9
 10281 20fc A2010000 		.4byte	.LBE9-.LBB9
 10282 2100 2D       		.uleb128 0x2d
 10283 2101 F8060000 		.4byte	.LASF170
 10284 2105 03       		.byte	0x3
 10285 2106 AC03     		.2byte	0x3ac
 10286 2108 EF000000 		.4byte	0xef
 10287 210c 02       		.uleb128 0x2
 10288 210d 91       		.byte	0x91
 10289 210e 5E       		.sleb128 -34
 10290 210f 00       		.byte	0
 10291 2110 00       		.byte	0
 10292 2111 31       		.uleb128 0x31
 10293 2112 AD070000 		.4byte	.LASF318
 10294 2116 03       		.byte	0x3
 10295 2117 CA03     		.2byte	0x3ca
 10296 2119 00000000 		.4byte	.LFB68
 10297 211d 94020000 		.4byte	.LFE68-.LFB68
 10298 2121 01       		.uleb128 0x1
 10299 2122 9C       		.byte	0x9c
 10300 2123 2B220000 		.4byte	0x222b
 10301 2127 2C       		.uleb128 0x2c
 10302 2128 9E020000 		.4byte	.LASF234
 10303 212c 03       		.byte	0x3
 10304 212d CA03     		.2byte	0x3ca
 10305 212f 2A140000 		.4byte	0x142a
 10306 2133 03       		.uleb128 0x3
 10307 2134 91       		.byte	0x91
 10308 2135 E47E     		.sleb128 -156
 10309 2137 2C       		.uleb128 0x2c
 10310 2138 39090000 		.4byte	.LASF294
 10311 213c 03       		.byte	0x3
 10312 213d CA03     		.2byte	0x3ca
 10313 213f 33060000 		.4byte	0x633
 10314 2143 03       		.uleb128 0x3
 10315 2144 91       		.byte	0x91
 10316 2145 E07E     		.sleb128 -160
 10317 2147 21       		.uleb128 0x21
 10318 2148 65787400 		.ascii	"ext\000"
ARM GAS  C:\Users\tmj32\AppData\Local\Temp\ccrrExWC.s 			page 223


 10319 214c 03       		.byte	0x3
 10320 214d CC03     		.2byte	0x3cc
 10321 214f C0140000 		.4byte	0x14c0
 10322 2153 02       		.uleb128 0x2
 10323 2154 91       		.byte	0x91
 10324 2155 60       		.sleb128 -32
 10325 2156 21       		.uleb128 0x21
 10326 2157 6900     		.ascii	"i\000"
 10327 2159 03       		.byte	0x3
 10328 215a CE03     		.2byte	0x3ce
 10329 215c CE000000 		.4byte	0xce
 10330 2160 02       		.uleb128 0x2
 10331 2161 91       		.byte	0x91
 10332 2162 6E       		.sleb128 -18
 10333 2163 2D       		.uleb128 0x2d
 10334 2164 8F040000 		.4byte	.LASF319
 10335 2168 03       		.byte	0x3
 10336 2169 CF03     		.2byte	0x3cf
 10337 216b 74030000 		.4byte	0x374
 10338 216f 02       		.uleb128 0x2
 10339 2170 91       		.byte	0x91
 10340 2171 40       		.sleb128 -64
 10341 2172 2D       		.uleb128 0x2d
 10342 2173 9E030000 		.4byte	.LASF320
 10343 2177 03       		.byte	0x3
 10344 2178 D003     		.2byte	0x3d0
 10345 217a 74030000 		.4byte	0x374
 10346 217e 03       		.uleb128 0x3
 10347 217f 91       		.byte	0x91
 10348 2180 B87F     		.sleb128 -72
 10349 2182 2D       		.uleb128 0x2d
 10350 2183 25040000 		.4byte	.LASF321
 10351 2187 03       		.byte	0x3
 10352 2188 D103     		.2byte	0x3d1
 10353 218a D5010000 		.4byte	0x1d5
 10354 218e 02       		.uleb128 0x2
 10355 218f 91       		.byte	0x91
 10356 2190 4F       		.sleb128 -49
 10357 2191 21       		.uleb128 0x21
 10358 2192 7700     		.ascii	"w\000"
 10359 2194 03       		.byte	0x3
 10360 2195 D203     		.2byte	0x3d2
 10361 2197 EF000000 		.4byte	0xef
 10362 219b 02       		.uleb128 0x2
 10363 219c 91       		.byte	0x91
 10364 219d 5E       		.sleb128 -34
 10365 219e 21       		.uleb128 0x21
 10366 219f 6800     		.ascii	"h\000"
 10367 21a1 03       		.byte	0x3
 10368 21a2 D303     		.2byte	0x3d3
 10369 21a4 EF000000 		.4byte	0xef
 10370 21a8 02       		.uleb128 0x2
 10371 21a9 91       		.byte	0x91
 10372 21aa 5C       		.sleb128 -36
 10373 21ab 2D       		.uleb128 0x2d
 10374 21ac DC020000 		.4byte	.LASF311
 10375 21b0 03       		.byte	0x3
ARM GAS  C:\Users\tmj32\AppData\Local\Temp\ccrrExWC.s 			page 224


 10376 21b1 D403     		.2byte	0x3d4
 10377 21b3 D9000000 		.4byte	0xd9
 10378 21b7 02       		.uleb128 0x2
 10379 21b8 91       		.byte	0x91
 10380 21b9 50       		.sleb128 -48
 10381 21ba 21       		.uleb128 0x21
 10382 21bb 73657200 		.ascii	"ser\000"
 10383 21bf 03       		.byte	0x3
 10384 21c0 D503     		.2byte	0x3d5
 10385 21c2 46150000 		.4byte	0x1546
 10386 21c6 02       		.uleb128 0x2
 10387 21c7 91       		.byte	0x91
 10388 21c8 68       		.sleb128 -24
 10389 21c9 2D       		.uleb128 0x2d
 10390 21ca 96010000 		.4byte	.LASF322
 10391 21ce 03       		.byte	0x3
 10392 21cf D603     		.2byte	0x3d6
 10393 21d1 AA050000 		.4byte	0x5aa
 10394 21d5 03       		.uleb128 0x3
 10395 21d6 91       		.byte	0x91
 10396 21d7 E87E     		.sleb128 -152
 10397 21d9 2D       		.uleb128 0x2d
 10398 21da C9040000 		.4byte	.LASF323
 10399 21de 03       		.byte	0x3
 10400 21df D703     		.2byte	0x3d7
 10401 21e1 EF000000 		.4byte	0xef
 10402 21e5 02       		.uleb128 0x2
 10403 21e6 91       		.byte	0x91
 10404 21e7 5A       		.sleb128 -38
 10405 21e8 2D       		.uleb128 0x2d
 10406 21e9 90010000 		.4byte	.LASF308
 10407 21ed 03       		.byte	0x3
 10408 21ee D803     		.2byte	0x3d8
 10409 21f0 EF000000 		.4byte	0xef
 10410 21f4 02       		.uleb128 0x2
 10411 21f5 91       		.byte	0x91
 10412 21f6 58       		.sleb128 -40
 10413 21f7 2D       		.uleb128 0x2d
 10414 21f8 D6020000 		.4byte	.LASF324
 10415 21fc 03       		.byte	0x3
 10416 21fd E103     		.2byte	0x3e1
 10417 21ff EF000000 		.4byte	0xef
 10418 2203 02       		.uleb128 0x2
 10419 2204 91       		.byte	0x91
 10420 2205 66       		.sleb128 -26
 10421 2206 2E       		.uleb128 0x2e
 10422 2207 18000000 		.4byte	.Ldebug_ranges0+0x18
 10423 220b 2D       		.uleb128 0x2d
 10424 220c F8060000 		.4byte	.LASF170
 10425 2210 03       		.byte	0x3
 10426 2211 EB03     		.2byte	0x3eb
 10427 2213 EF000000 		.4byte	0xef
 10428 2217 02       		.uleb128 0x2
 10429 2218 91       		.byte	0x91
 10430 2219 56       		.sleb128 -42
 10431 221a 2D       		.uleb128 0x2d
 10432 221b 75010000 		.4byte	.LASF313
ARM GAS  C:\Users\tmj32\AppData\Local\Temp\ccrrExWC.s 			page 225


 10433 221f 03       		.byte	0x3
 10434 2220 F703     		.2byte	0x3f7
 10435 2222 EF000000 		.4byte	0xef
 10436 2226 02       		.uleb128 0x2
 10437 2227 91       		.byte	0x91
 10438 2228 54       		.sleb128 -44
 10439 2229 00       		.byte	0
 10440 222a 00       		.byte	0
 10441 222b 31       		.uleb128 0x31
 10442 222c 46070000 		.4byte	.LASF325
 10443 2230 03       		.byte	0x3
 10444 2231 0804     		.2byte	0x408
 10445 2233 00000000 		.4byte	.LFB69
 10446 2237 4C020000 		.4byte	.LFE69-.LFB69
 10447 223b 01       		.uleb128 0x1
 10448 223c 9C       		.byte	0x9c
 10449 223d 37230000 		.4byte	0x2337
 10450 2241 2C       		.uleb128 0x2c
 10451 2242 9E020000 		.4byte	.LASF234
 10452 2246 03       		.byte	0x3
 10453 2247 0804     		.2byte	0x408
 10454 2249 2A140000 		.4byte	0x142a
 10455 224d 03       		.uleb128 0x3
 10456 224e 91       		.byte	0x91
 10457 224f FC7E     		.sleb128 -132
 10458 2251 2C       		.uleb128 0x2c
 10459 2252 39090000 		.4byte	.LASF294
 10460 2256 03       		.byte	0x3
 10461 2257 0804     		.2byte	0x408
 10462 2259 33060000 		.4byte	0x633
 10463 225d 03       		.uleb128 0x3
 10464 225e 91       		.byte	0x91
 10465 225f F87E     		.sleb128 -136
 10466 2261 21       		.uleb128 0x21
 10467 2262 65787400 		.ascii	"ext\000"
 10468 2266 03       		.byte	0x3
 10469 2267 0B04     		.2byte	0x40b
 10470 2269 C0140000 		.4byte	0x14c0
 10471 226d 02       		.uleb128 0x2
 10472 226e 91       		.byte	0x91
 10473 226f 6C       		.sleb128 -20
 10474 2270 21       		.uleb128 0x21
 10475 2271 7700     		.ascii	"w\000"
 10476 2273 03       		.byte	0x3
 10477 2274 0C04     		.2byte	0x40c
 10478 2276 EF000000 		.4byte	0xef
 10479 227a 02       		.uleb128 0x2
 10480 227b 91       		.byte	0x91
 10481 227c 6A       		.sleb128 -22
 10482 227d 21       		.uleb128 0x21
 10483 227e 6900     		.ascii	"i\000"
 10484 2280 03       		.byte	0x3
 10485 2281 1304     		.2byte	0x413
 10486 2283 CE000000 		.4byte	0xce
 10487 2287 02       		.uleb128 0x2
 10488 2288 91       		.byte	0x91
 10489 2289 76       		.sleb128 -10
ARM GAS  C:\Users\tmj32\AppData\Local\Temp\ccrrExWC.s 			page 226


 10490 228a 21       		.uleb128 0x21
 10491 228b 703100   		.ascii	"p1\000"
 10492 228e 03       		.byte	0x3
 10493 228f 1404     		.2byte	0x414
 10494 2291 34030000 		.4byte	0x334
 10495 2295 02       		.uleb128 0x2
 10496 2296 91       		.byte	0x91
 10497 2297 54       		.sleb128 -44
 10498 2298 21       		.uleb128 0x21
 10499 2299 703200   		.ascii	"p2\000"
 10500 229c 03       		.byte	0x3
 10501 229d 1504     		.2byte	0x415
 10502 229f 34030000 		.4byte	0x334
 10503 22a3 02       		.uleb128 0x2
 10504 22a4 91       		.byte	0x91
 10505 22a5 50       		.sleb128 -48
 10506 22a6 2D       		.uleb128 0x2d
 10507 22a7 75010000 		.4byte	.LASF313
 10508 22ab 03       		.byte	0x3
 10509 22ac 1604     		.2byte	0x416
 10510 22ae EF000000 		.4byte	0xef
 10511 22b2 02       		.uleb128 0x2
 10512 22b3 91       		.byte	0x91
 10513 22b4 5A       		.sleb128 -38
 10514 22b5 21       		.uleb128 0x21
 10515 22b6 6800     		.ascii	"h\000"
 10516 22b8 03       		.byte	0x3
 10517 22b9 1704     		.2byte	0x417
 10518 22bb EF000000 		.4byte	0xef
 10519 22bf 02       		.uleb128 0x2
 10520 22c0 91       		.byte	0x91
 10521 22c1 68       		.sleb128 -24
 10522 22c2 2D       		.uleb128 0x2d
 10523 22c3 90010000 		.4byte	.LASF308
 10524 22c7 03       		.byte	0x3
 10525 22c8 1804     		.2byte	0x418
 10526 22ca EF000000 		.4byte	0xef
 10527 22ce 02       		.uleb128 0x2
 10528 22cf 91       		.byte	0x91
 10529 22d0 66       		.sleb128 -26
 10530 22d1 2D       		.uleb128 0x2d
 10531 22d2 47110000 		.4byte	.LASF309
 10532 22d6 03       		.byte	0x3
 10533 22d7 1904     		.2byte	0x419
 10534 22d9 EF000000 		.4byte	0xef
 10535 22dd 02       		.uleb128 0x2
 10536 22de 91       		.byte	0x91
 10537 22df 64       		.sleb128 -28
 10538 22e0 2D       		.uleb128 0x2d
 10539 22e1 DC020000 		.4byte	.LASF311
 10540 22e5 03       		.byte	0x3
 10541 22e6 1A04     		.2byte	0x41a
 10542 22e8 D9000000 		.4byte	0xd9
 10543 22ec 02       		.uleb128 0x2
 10544 22ed 91       		.byte	0x91
 10545 22ee 5C       		.sleb128 -36
 10546 22ef 21       		.uleb128 0x21
ARM GAS  C:\Users\tmj32\AppData\Local\Temp\ccrrExWC.s 			page 227


 10547 22f0 73657200 		.ascii	"ser\000"
 10548 22f4 03       		.byte	0x3
 10549 22f5 1B04     		.2byte	0x41b
 10550 22f7 46150000 		.4byte	0x1546
 10551 22fb 02       		.uleb128 0x2
 10552 22fc 91       		.byte	0x91
 10553 22fd 70       		.sleb128 -16
 10554 22fe 2D       		.uleb128 0x2d
 10555 22ff D5120000 		.4byte	.LASF117
 10556 2303 03       		.byte	0x3
 10557 2304 1C04     		.2byte	0x41c
 10558 2306 EC020000 		.4byte	0x2ec
 10559 230a 02       		.uleb128 0x2
 10560 230b 91       		.byte	0x91
 10561 230c 63       		.sleb128 -29
 10562 230d 2D       		.uleb128 0x2d
 10563 230e 610B0000 		.4byte	.LASF246
 10564 2312 03       		.byte	0x3
 10565 2313 1D04     		.2byte	0x41d
 10566 2315 AA050000 		.4byte	0x5aa
 10567 2319 03       		.uleb128 0x3
 10568 231a 91       		.byte	0x91
 10569 231b 807F     		.sleb128 -128
 10570 231d 29       		.uleb128 0x29
 10571 231e 8A000000 		.4byte	.LBB12
 10572 2322 9E010000 		.4byte	.LBE12-.LBB12
 10573 2326 2D       		.uleb128 0x2d
 10574 2327 F8060000 		.4byte	.LASF170
 10575 232b 03       		.byte	0x3
 10576 232c 2504     		.2byte	0x425
 10577 232e EF000000 		.4byte	0xef
 10578 2332 02       		.uleb128 0x2
 10579 2333 91       		.byte	0x91
 10580 2334 60       		.sleb128 -32
 10581 2335 00       		.byte	0
 10582 2336 00       		.byte	0
 10583 2337 31       		.uleb128 0x31
 10584 2338 D00B0000 		.4byte	.LASF326
 10585 233c 03       		.byte	0x3
 10586 233d 4904     		.2byte	0x449
 10587 233f 00000000 		.4byte	.LFB70
 10588 2343 8C020000 		.4byte	.LFE70-.LFB70
 10589 2347 01       		.uleb128 0x1
 10590 2348 9C       		.byte	0x9c
 10591 2349 6C240000 		.4byte	0x246c
 10592 234d 2C       		.uleb128 0x2c
 10593 234e 9E020000 		.4byte	.LASF234
 10594 2352 03       		.byte	0x3
 10595 2353 4904     		.2byte	0x449
 10596 2355 2A140000 		.4byte	0x142a
 10597 2359 03       		.uleb128 0x3
 10598 235a 91       		.byte	0x91
 10599 235b EC7E     		.sleb128 -148
 10600 235d 2C       		.uleb128 0x2c
 10601 235e 39090000 		.4byte	.LASF294
 10602 2362 03       		.byte	0x3
 10603 2363 4904     		.2byte	0x449
ARM GAS  C:\Users\tmj32\AppData\Local\Temp\ccrrExWC.s 			page 228


 10604 2365 33060000 		.4byte	0x633
 10605 2369 03       		.uleb128 0x3
 10606 236a 91       		.byte	0x91
 10607 236b E87E     		.sleb128 -152
 10608 236d 21       		.uleb128 0x21
 10609 236e 65787400 		.ascii	"ext\000"
 10610 2372 03       		.byte	0x3
 10611 2373 4B04     		.2byte	0x44b
 10612 2375 C0140000 		.4byte	0x14c0
 10613 2379 02       		.uleb128 0x2
 10614 237a 91       		.byte	0x91
 10615 237b 6C       		.sleb128 -20
 10616 237c 21       		.uleb128 0x21
 10617 237d 6900     		.ascii	"i\000"
 10618 237f 03       		.byte	0x3
 10619 2380 4D04     		.2byte	0x44d
 10620 2382 CE000000 		.4byte	0xce
 10621 2386 02       		.uleb128 0x2
 10622 2387 91       		.byte	0x91
 10623 2388 76       		.sleb128 -10
 10624 2389 21       		.uleb128 0x21
 10625 238a 703100   		.ascii	"p1\000"
 10626 238d 03       		.byte	0x3
 10627 238e 4E04     		.2byte	0x44e
 10628 2390 34030000 		.4byte	0x334
 10629 2394 02       		.uleb128 0x2
 10630 2395 91       		.byte	0x91
 10631 2396 54       		.sleb128 -44
 10632 2397 21       		.uleb128 0x21
 10633 2398 703200   		.ascii	"p2\000"
 10634 239b 03       		.byte	0x3
 10635 239c 4F04     		.2byte	0x44f
 10636 239e 34030000 		.4byte	0x334
 10637 23a2 02       		.uleb128 0x2
 10638 23a3 91       		.byte	0x91
 10639 23a4 50       		.sleb128 -48
 10640 23a5 21       		.uleb128 0x21
 10641 23a6 7700     		.ascii	"w\000"
 10642 23a8 03       		.byte	0x3
 10643 23a9 5004     		.2byte	0x450
 10644 23ab EF000000 		.4byte	0xef
 10645 23af 02       		.uleb128 0x2
 10646 23b0 91       		.byte	0x91
 10647 23b1 6A       		.sleb128 -22
 10648 23b2 21       		.uleb128 0x21
 10649 23b3 6800     		.ascii	"h\000"
 10650 23b5 03       		.byte	0x3
 10651 23b6 5104     		.2byte	0x451
 10652 23b8 EF000000 		.4byte	0xef
 10653 23bc 02       		.uleb128 0x2
 10654 23bd 91       		.byte	0x91
 10655 23be 68       		.sleb128 -24
 10656 23bf 2D       		.uleb128 0x2d
 10657 23c0 90010000 		.4byte	.LASF308
 10658 23c4 03       		.byte	0x3
 10659 23c5 5204     		.2byte	0x452
 10660 23c7 EF000000 		.4byte	0xef
ARM GAS  C:\Users\tmj32\AppData\Local\Temp\ccrrExWC.s 			page 229


 10661 23cb 02       		.uleb128 0x2
 10662 23cc 91       		.byte	0x91
 10663 23cd 66       		.sleb128 -26
 10664 23ce 2D       		.uleb128 0x2d
 10665 23cf 47110000 		.4byte	.LASF309
 10666 23d3 03       		.byte	0x3
 10667 23d4 5304     		.2byte	0x453
 10668 23d6 EF000000 		.4byte	0xef
 10669 23da 02       		.uleb128 0x2
 10670 23db 91       		.byte	0x91
 10671 23dc 64       		.sleb128 -28
 10672 23dd 2D       		.uleb128 0x2d
 10673 23de DC020000 		.4byte	.LASF311
 10674 23e2 03       		.byte	0x3
 10675 23e3 5404     		.2byte	0x454
 10676 23e5 D9000000 		.4byte	0xd9
 10677 23e9 02       		.uleb128 0x2
 10678 23ea 91       		.byte	0x91
 10679 23eb 5C       		.sleb128 -36
 10680 23ec 2D       		.uleb128 0x2d
 10681 23ed 2E030000 		.4byte	.LASF312
 10682 23f1 03       		.byte	0x3
 10683 23f2 5504     		.2byte	0x455
 10684 23f4 EF000000 		.4byte	0xef
 10685 23f8 02       		.uleb128 0x2
 10686 23f9 91       		.byte	0x91
 10687 23fa 74       		.sleb128 -12
 10688 23fb 2D       		.uleb128 0x2d
 10689 23fc 75010000 		.4byte	.LASF313
 10690 2400 03       		.byte	0x3
 10691 2401 5604     		.2byte	0x456
 10692 2403 EF000000 		.4byte	0xef
 10693 2407 02       		.uleb128 0x2
 10694 2408 91       		.byte	0x91
 10695 2409 5A       		.sleb128 -38
 10696 240a 21       		.uleb128 0x21
 10697 240b 73657200 		.ascii	"ser\000"
 10698 240f 03       		.byte	0x3
 10699 2410 5704     		.2byte	0x457
 10700 2412 46150000 		.4byte	0x1546
 10701 2416 02       		.uleb128 0x2
 10702 2417 91       		.byte	0x91
 10703 2418 70       		.sleb128 -16
 10704 2419 2D       		.uleb128 0x2d
 10705 241a D5120000 		.4byte	.LASF117
 10706 241e 03       		.byte	0x3
 10707 241f 5804     		.2byte	0x458
 10708 2421 EC020000 		.4byte	0x2ec
 10709 2425 02       		.uleb128 0x2
 10710 2426 91       		.byte	0x91
 10711 2427 63       		.sleb128 -29
 10712 2428 2D       		.uleb128 0x2d
 10713 2429 610B0000 		.4byte	.LASF246
 10714 242d 03       		.byte	0x3
 10715 242e 5904     		.2byte	0x459
 10716 2430 AA050000 		.4byte	0x5aa
 10717 2434 03       		.uleb128 0x3
ARM GAS  C:\Users\tmj32\AppData\Local\Temp\ccrrExWC.s 			page 230


 10718 2435 91       		.byte	0x91
 10719 2436 807F     		.sleb128 -128
 10720 2438 29       		.uleb128 0x29
 10721 2439 64000000 		.4byte	.LBB13
 10722 243d FA010000 		.4byte	.LBE13-.LBB13
 10723 2441 2D       		.uleb128 0x2d
 10724 2442 F8060000 		.4byte	.LASF170
 10725 2446 03       		.byte	0x3
 10726 2447 5F04     		.2byte	0x45f
 10727 2449 EF000000 		.4byte	0xef
 10728 244d 02       		.uleb128 0x2
 10729 244e 91       		.byte	0x91
 10730 244f 60       		.sleb128 -32
 10731 2450 29       		.uleb128 0x29
 10732 2451 F4010000 		.4byte	.LBB14
 10733 2455 48000000 		.4byte	.LBE14-.LBB14
 10734 2459 2D       		.uleb128 0x2d
 10735 245a 660F0000 		.4byte	.LASF327
 10736 245e 03       		.byte	0x3
 10737 245f 7604     		.2byte	0x476
 10738 2461 6C240000 		.4byte	0x246c
 10739 2465 03       		.uleb128 0x3
 10740 2466 91       		.byte	0x91
 10741 2467 F47E     		.sleb128 -140
 10742 2469 00       		.byte	0
 10743 246a 00       		.byte	0
 10744 246b 00       		.byte	0
 10745 246c 32       		.uleb128 0x32
 10746 246d 34030000 		.4byte	0x334
 10747 2471 7C240000 		.4byte	0x247c
 10748 2475 33       		.uleb128 0x33
 10749 2476 F8020000 		.4byte	0x2f8
 10750 247a 02       		.byte	0x2
 10751 247b 00       		.byte	0
 10752 247c 1F       		.uleb128 0x1f
 10753 247d DB090000 		.4byte	.LASF328
 10754 2481 03       		.byte	0x3
 10755 2482 8B04     		.2byte	0x48b
 10756 2484 8A130000 		.4byte	0x138a
 10757 2488 00000000 		.4byte	.LFB71
 10758 248c 8A000000 		.4byte	.LFE71-.LFB71
 10759 2490 01       		.uleb128 0x1
 10760 2491 9C       		.byte	0x9c
 10761 2492 D1240000 		.4byte	0x24d1
 10762 2496 2C       		.uleb128 0x2c
 10763 2497 B10A0000 		.4byte	.LASF240
 10764 249b 03       		.byte	0x3
 10765 249c 8B04     		.2byte	0x48b
 10766 249e 0C030000 		.4byte	0x30c
 10767 24a2 02       		.uleb128 0x2
 10768 24a3 91       		.byte	0x91
 10769 24a4 60       		.sleb128 -32
 10770 24a5 2C       		.uleb128 0x2c
 10771 24a6 4A0F0000 		.4byte	.LASF329
 10772 24aa 03       		.byte	0x3
 10773 24ab 8B04     		.2byte	0x48b
 10774 24ad B8000000 		.4byte	0xb8
ARM GAS  C:\Users\tmj32\AppData\Local\Temp\ccrrExWC.s 			page 231


 10775 24b1 02       		.uleb128 0x2
 10776 24b2 91       		.byte	0x91
 10777 24b3 5F       		.sleb128 -33
 10778 24b4 2D       		.uleb128 0x2d
 10779 24b5 7D060000 		.4byte	.LASF330
 10780 24b9 03       		.byte	0x3
 10781 24ba 8D04     		.2byte	0x48d
 10782 24bc 8A130000 		.4byte	0x138a
 10783 24c0 02       		.uleb128 0x2
 10784 24c1 91       		.byte	0x91
 10785 24c2 68       		.sleb128 -24
 10786 24c3 21       		.uleb128 0x21
 10787 24c4 6A00     		.ascii	"j\000"
 10788 24c6 03       		.byte	0x3
 10789 24c7 8E04     		.2byte	0x48e
 10790 24c9 B8000000 		.4byte	0xb8
 10791 24cd 02       		.uleb128 0x2
 10792 24ce 91       		.byte	0x91
 10793 24cf 77       		.sleb128 -9
 10794 24d0 00       		.byte	0
 10795 24d1 31       		.uleb128 0x31
 10796 24d2 D10E0000 		.4byte	.LASF331
 10797 24d6 03       		.byte	0x3
 10798 24d7 A904     		.2byte	0x4a9
 10799 24d9 00000000 		.4byte	.LFB72
 10800 24dd FC000000 		.4byte	.LFE72-.LFB72
 10801 24e1 01       		.uleb128 0x1
 10802 24e2 9C       		.byte	0x9c
 10803 24e3 2E250000 		.4byte	0x252e
 10804 24e7 2C       		.uleb128 0x2c
 10805 24e8 7D060000 		.4byte	.LASF330
 10806 24ec 03       		.byte	0x3
 10807 24ed A904     		.2byte	0x4a9
 10808 24ef 2E250000 		.4byte	0x252e
 10809 24f3 02       		.uleb128 0x2
 10810 24f4 91       		.byte	0x91
 10811 24f5 6C       		.sleb128 -20
 10812 24f6 20       		.uleb128 0x20
 10813 24f7 62756600 		.ascii	"buf\000"
 10814 24fb 03       		.byte	0x3
 10815 24fc A904     		.2byte	0x4a9
 10816 24fe FF020000 		.4byte	0x2ff
 10817 2502 02       		.uleb128 0x2
 10818 2503 91       		.byte	0x91
 10819 2504 68       		.sleb128 -24
 10820 2505 2D       		.uleb128 0x2d
 10821 2506 470A0000 		.4byte	.LASF332
 10822 250a 03       		.byte	0x3
 10823 250b AB04     		.2byte	0x4ab
 10824 250d B8000000 		.4byte	0xb8
 10825 2511 02       		.uleb128 0x2
 10826 2512 91       		.byte	0x91
 10827 2513 77       		.sleb128 -9
 10828 2514 29       		.uleb128 0x29
 10829 2515 16000000 		.4byte	.LBB15
 10830 2519 66000000 		.4byte	.LBE15-.LBB15
 10831 251d 2D       		.uleb128 0x2d
ARM GAS  C:\Users\tmj32\AppData\Local\Temp\ccrrExWC.s 			page 232


 10832 251e BA020000 		.4byte	.LASF333
 10833 2522 03       		.byte	0x3
 10834 2523 AD04     		.2byte	0x4ad
 10835 2525 0C030000 		.4byte	0x30c
 10836 2529 02       		.uleb128 0x2
 10837 252a 91       		.byte	0x91
 10838 252b 70       		.sleb128 -16
 10839 252c 00       		.byte	0
 10840 252d 00       		.byte	0
 10841 252e 0D       		.uleb128 0xd
 10842 252f 04       		.byte	0x4
 10843 2530 8A130000 		.4byte	0x138a
 10844 2534 1F       		.uleb128 0x1f
 10845 2535 EF010000 		.4byte	.LASF334
 10846 2539 03       		.byte	0x3
 10847 253a E904     		.2byte	0x4e9
 10848 253c D5010000 		.4byte	0x1d5
 10849 2540 00000000 		.4byte	.LFB73
 10850 2544 40000000 		.4byte	.LFE73-.LFB73
 10851 2548 01       		.uleb128 0x1
 10852 2549 9C       		.byte	0x9c
 10853 254a 6D250000 		.4byte	0x256d
 10854 254e 2C       		.uleb128 0x2c
 10855 254f 160B0000 		.4byte	.LASF335
 10856 2553 03       		.byte	0x3
 10857 2554 E904     		.2byte	0x4e9
 10858 2556 B8000000 		.4byte	0xb8
 10859 255a 02       		.uleb128 0x2
 10860 255b 91       		.byte	0x91
 10861 255c 77       		.sleb128 -9
 10862 255d 2C       		.uleb128 0x2c
 10863 255e EE0D0000 		.4byte	.LASF336
 10864 2562 03       		.byte	0x3
 10865 2563 E904     		.2byte	0x4e9
 10866 2565 6D250000 		.4byte	0x256d
 10867 2569 02       		.uleb128 0x2
 10868 256a 91       		.byte	0x91
 10869 256b 70       		.sleb128 -16
 10870 256c 00       		.byte	0
 10871 256d 0D       		.uleb128 0xd
 10872 256e 04       		.byte	0x4
 10873 256f 660A0000 		.4byte	0xa66
 10874 2573 31       		.uleb128 0x31
 10875 2574 DB100000 		.4byte	.LASF337
 10876 2578 03       		.byte	0x3
 10877 2579 EE04     		.2byte	0x4ee
 10878 257b 00000000 		.4byte	.LFB74
 10879 257f 06040000 		.4byte	.LFE74-.LFB74
 10880 2583 01       		.uleb128 0x1
 10881 2584 9C       		.byte	0x9c
 10882 2585 F4260000 		.4byte	0x26f4
 10883 2589 2C       		.uleb128 0x2c
 10884 258a 9E020000 		.4byte	.LASF234
 10885 258e 03       		.byte	0x3
 10886 258f EE04     		.2byte	0x4ee
 10887 2591 2A140000 		.4byte	0x142a
 10888 2595 03       		.uleb128 0x3
ARM GAS  C:\Users\tmj32\AppData\Local\Temp\ccrrExWC.s 			page 233


 10889 2596 91       		.byte	0x91
 10890 2597 947F     		.sleb128 -108
 10891 2599 2C       		.uleb128 0x2c
 10892 259a 39090000 		.4byte	.LASF294
 10893 259e 03       		.byte	0x3
 10894 259f EE04     		.2byte	0x4ee
 10895 25a1 33060000 		.4byte	0x633
 10896 25a5 03       		.uleb128 0x3
 10897 25a6 91       		.byte	0x91
 10898 25a7 907F     		.sleb128 -112
 10899 25a9 2C       		.uleb128 0x2c
 10900 25aa 1D090000 		.4byte	.LASF338
 10901 25ae 03       		.byte	0x3
 10902 25af EE04     		.2byte	0x4ee
 10903 25b1 B8000000 		.4byte	0xb8
 10904 25b5 03       		.uleb128 0x3
 10905 25b6 91       		.byte	0x91
 10906 25b7 8F7F     		.sleb128 -113
 10907 25b9 21       		.uleb128 0x21
 10908 25ba 65787400 		.ascii	"ext\000"
 10909 25be 03       		.byte	0x3
 10910 25bf F004     		.2byte	0x4f0
 10911 25c1 C0140000 		.4byte	0x14c0
 10912 25c5 02       		.uleb128 0x2
 10913 25c6 91       		.byte	0x91
 10914 25c7 64       		.sleb128 -28
 10915 25c8 2D       		.uleb128 0x2d
 10916 25c9 69070000 		.4byte	.LASF189
 10917 25cd 03       		.byte	0x3
 10918 25ce F104     		.2byte	0x4f1
 10919 25d0 6D250000 		.4byte	0x256d
 10920 25d4 02       		.uleb128 0x2
 10921 25d5 91       		.byte	0x91
 10922 25d6 60       		.sleb128 -32
 10923 25d7 29       		.uleb128 0x29
 10924 25d8 3A000000 		.4byte	.LBB16
 10925 25dc C4030000 		.4byte	.LBE16-.LBB16
 10926 25e0 2D       		.uleb128 0x2d
 10927 25e1 610B0000 		.4byte	.LASF246
 10928 25e5 03       		.byte	0x3
 10929 25e6 F604     		.2byte	0x4f6
 10930 25e8 43090000 		.4byte	0x943
 10931 25ec 02       		.uleb128 0x2
 10932 25ed 91       		.byte	0x91
 10933 25ee 5C       		.sleb128 -36
 10934 25ef 2D       		.uleb128 0x2d
 10935 25f0 D5120000 		.4byte	.LASF117
 10936 25f4 03       		.byte	0x3
 10937 25f5 F704     		.2byte	0x4f7
 10938 25f7 EC020000 		.4byte	0x2ec
 10939 25fb 02       		.uleb128 0x2
 10940 25fc 91       		.byte	0x91
 10941 25fd 5B       		.sleb128 -37
 10942 25fe 21       		.uleb128 0x21
 10943 25ff 6900     		.ascii	"i\000"
 10944 2601 03       		.byte	0x3
 10945 2602 F904     		.2byte	0x4f9
ARM GAS  C:\Users\tmj32\AppData\Local\Temp\ccrrExWC.s 			page 234


 10946 2604 B8000000 		.4byte	0xb8
 10947 2608 02       		.uleb128 0x2
 10948 2609 91       		.byte	0x91
 10949 260a 6F       		.sleb128 -17
 10950 260b 2D       		.uleb128 0x2d
 10951 260c 0F0E0000 		.4byte	.LASF339
 10952 2610 03       		.byte	0x3
 10953 2611 FA04     		.2byte	0x4fa
 10954 2613 B8000000 		.4byte	0xb8
 10955 2617 02       		.uleb128 0x2
 10956 2618 91       		.byte	0x91
 10957 2619 52       		.sleb128 -46
 10958 261a 2D       		.uleb128 0x2d
 10959 261b 8E020000 		.4byte	.LASF340
 10960 261f 03       		.byte	0x3
 10961 2620 FB04     		.2byte	0x4fb
 10962 2622 B8000000 		.4byte	0xb8
 10963 2626 02       		.uleb128 0x2
 10964 2627 91       		.byte	0x91
 10965 2628 6E       		.sleb128 -18
 10966 2629 2D       		.uleb128 0x2d
 10967 262a 07080000 		.4byte	.LASF179
 10968 262e 03       		.byte	0x3
 10969 262f FC04     		.2byte	0x4fc
 10970 2631 AD000000 		.4byte	0xad
 10971 2635 02       		.uleb128 0x2
 10972 2636 91       		.byte	0x91
 10973 2637 6D       		.sleb128 -19
 10974 2638 2D       		.uleb128 0x2d
 10975 2639 16040000 		.4byte	.LASF180
 10976 263d 03       		.byte	0x3
 10977 263e FC04     		.2byte	0x4fc
 10978 2640 AD000000 		.4byte	0xad
 10979 2644 02       		.uleb128 0x2
 10980 2645 91       		.byte	0x91
 10981 2646 6C       		.sleb128 -20
 10982 2647 2D       		.uleb128 0x2d
 10983 2648 A7110000 		.4byte	.LASF341
 10984 264c 03       		.byte	0x3
 10985 264d FD04     		.2byte	0x4fd
 10986 264f B8000000 		.4byte	0xb8
 10987 2653 02       		.uleb128 0x2
 10988 2654 91       		.byte	0x91
 10989 2655 53       		.sleb128 -45
 10990 2656 21       		.uleb128 0x21
 10991 2657 703100   		.ascii	"p1\000"
 10992 265a 03       		.byte	0x3
 10993 265b FF04     		.2byte	0x4ff
 10994 265d 34030000 		.4byte	0x334
 10995 2661 02       		.uleb128 0x2
 10996 2662 91       		.byte	0x91
 10997 2663 4C       		.sleb128 -52
 10998 2664 21       		.uleb128 0x21
 10999 2665 703200   		.ascii	"p2\000"
 11000 2668 03       		.byte	0x3
 11001 2669 0005     		.2byte	0x500
 11002 266b 34030000 		.4byte	0x334
ARM GAS  C:\Users\tmj32\AppData\Local\Temp\ccrrExWC.s 			page 235


 11003 266f 02       		.uleb128 0x2
 11004 2670 91       		.byte	0x91
 11005 2671 48       		.sleb128 -56
 11006 2672 2D       		.uleb128 0x2d
 11007 2673 90010000 		.4byte	.LASF308
 11008 2677 03       		.byte	0x3
 11009 2678 0105     		.2byte	0x501
 11010 267a EF000000 		.4byte	0xef
 11011 267e 02       		.uleb128 0x2
 11012 267f 91       		.byte	0x91
 11013 2680 6A       		.sleb128 -22
 11014 2681 2D       		.uleb128 0x2d
 11015 2682 47100000 		.4byte	.LASF342
 11016 2686 03       		.byte	0x3
 11017 2687 0205     		.2byte	0x502
 11018 2689 8A130000 		.4byte	0x138a
 11019 268d 03       		.uleb128 0x3
 11020 268e 91       		.byte	0x91
 11021 268f BC7F     		.sleb128 -68
 11022 2691 2D       		.uleb128 0x2d
 11023 2692 47110000 		.4byte	.LASF309
 11024 2696 03       		.byte	0x3
 11025 2697 0305     		.2byte	0x503
 11026 2699 EF000000 		.4byte	0xef
 11027 269d 02       		.uleb128 0x2
 11028 269e 91       		.byte	0x91
 11029 269f 58       		.sleb128 -40
 11030 26a0 21       		.uleb128 0x21
 11031 26a1 6800     		.ascii	"h\000"
 11032 26a3 03       		.byte	0x3
 11033 26a4 0405     		.2byte	0x504
 11034 26a6 EF000000 		.4byte	0xef
 11035 26aa 02       		.uleb128 0x2
 11036 26ab 91       		.byte	0x91
 11037 26ac 56       		.sleb128 -42
 11038 26ad 21       		.uleb128 0x21
 11039 26ae 7700     		.ascii	"w\000"
 11040 26b0 03       		.byte	0x3
 11041 26b1 0505     		.2byte	0x505
 11042 26b3 EF000000 		.4byte	0xef
 11043 26b7 02       		.uleb128 0x2
 11044 26b8 91       		.byte	0x91
 11045 26b9 54       		.sleb128 -44
 11046 26ba 21       		.uleb128 0x21
 11047 26bb 62756600 		.ascii	"buf\000"
 11048 26bf 03       		.byte	0x3
 11049 26c0 0605     		.2byte	0x506
 11050 26c2 F4260000 		.4byte	0x26f4
 11051 26c6 03       		.uleb128 0x3
 11052 26c7 91       		.byte	0x91
 11053 26c8 A47F     		.sleb128 -92
 11054 26ca 29       		.uleb128 0x29
 11055 26cb D6020000 		.4byte	.LBB17
 11056 26cf 0E010000 		.4byte	.LBE17-.LBB17
 11057 26d3 2D       		.uleb128 0x2d
 11058 26d4 AC0A0000 		.4byte	.LASF343
 11059 26d8 03       		.byte	0x3
ARM GAS  C:\Users\tmj32\AppData\Local\Temp\ccrrExWC.s 			page 236


 11060 26d9 5705     		.2byte	0x557
 11061 26db 34030000 		.4byte	0x334
 11062 26df 03       		.uleb128 0x3
 11063 26e0 91       		.byte	0x91
 11064 26e1 A07F     		.sleb128 -96
 11065 26e3 21       		.uleb128 0x21
 11066 26e4 6100     		.ascii	"a\000"
 11067 26e6 03       		.byte	0x3
 11068 26e7 5C05     		.2byte	0x55c
 11069 26e9 74030000 		.4byte	0x374
 11070 26ed 03       		.uleb128 0x3
 11071 26ee 91       		.byte	0x91
 11072 26ef 987F     		.sleb128 -104
 11073 26f1 00       		.byte	0
 11074 26f2 00       		.byte	0
 11075 26f3 00       		.byte	0
 11076 26f4 32       		.uleb128 0x32
 11077 26f5 05030000 		.4byte	0x305
 11078 26f9 04270000 		.4byte	0x2704
 11079 26fd 33       		.uleb128 0x33
 11080 26fe F8020000 		.4byte	0x2f8
 11081 2702 14       		.byte	0x14
 11082 2703 00       		.byte	0
 11083 2704 31       		.uleb128 0x31
 11084 2705 D60F0000 		.4byte	.LASF344
 11085 2709 03       		.byte	0x3
 11086 270a 6E05     		.2byte	0x56e
 11087 270c 00000000 		.4byte	.LFB75
 11088 2710 14030000 		.4byte	.LFE75-.LFB75
 11089 2714 01       		.uleb128 0x1
 11090 2715 9C       		.byte	0x9c
 11091 2716 56280000 		.4byte	0x2856
 11092 271a 2C       		.uleb128 0x2c
 11093 271b 9E020000 		.4byte	.LASF234
 11094 271f 03       		.byte	0x3
 11095 2720 6E05     		.2byte	0x56e
 11096 2722 2A140000 		.4byte	0x142a
 11097 2726 03       		.uleb128 0x3
 11098 2727 91       		.byte	0x91
 11099 2728 9C7F     		.sleb128 -100
 11100 272a 2C       		.uleb128 0x2c
 11101 272b 39090000 		.4byte	.LASF294
 11102 272f 03       		.byte	0x3
 11103 2730 6E05     		.2byte	0x56e
 11104 2732 33060000 		.4byte	0x633
 11105 2736 03       		.uleb128 0x3
 11106 2737 91       		.byte	0x91
 11107 2738 987F     		.sleb128 -104
 11108 273a 21       		.uleb128 0x21
 11109 273b 65787400 		.ascii	"ext\000"
 11110 273f 03       		.byte	0x3
 11111 2740 7005     		.2byte	0x570
 11112 2742 C0140000 		.4byte	0x14c0
 11113 2746 02       		.uleb128 0x2
 11114 2747 91       		.byte	0x91
 11115 2748 68       		.sleb128 -24
 11116 2749 29       		.uleb128 0x29
ARM GAS  C:\Users\tmj32\AppData\Local\Temp\ccrrExWC.s 			page 237


 11117 274a 26000000 		.4byte	.LBB18
 11118 274e DE020000 		.4byte	.LBE18-.LBB18
 11119 2752 2D       		.uleb128 0x2d
 11120 2753 610B0000 		.4byte	.LASF246
 11121 2757 03       		.byte	0x3
 11122 2758 7405     		.2byte	0x574
 11123 275a 43090000 		.4byte	0x943
 11124 275e 02       		.uleb128 0x2
 11125 275f 91       		.byte	0x91
 11126 2760 64       		.sleb128 -28
 11127 2761 2D       		.uleb128 0x2d
 11128 2762 D5120000 		.4byte	.LASF117
 11129 2766 03       		.byte	0x3
 11130 2767 7505     		.2byte	0x575
 11131 2769 EC020000 		.4byte	0x2ec
 11132 276d 02       		.uleb128 0x2
 11133 276e 91       		.byte	0x91
 11134 276f 63       		.sleb128 -29
 11135 2770 21       		.uleb128 0x21
 11136 2771 6900     		.ascii	"i\000"
 11137 2773 03       		.byte	0x3
 11138 2774 7705     		.2byte	0x577
 11139 2776 B8000000 		.4byte	0xb8
 11140 277a 02       		.uleb128 0x2
 11141 277b 91       		.byte	0x91
 11142 277c 6F       		.sleb128 -17
 11143 277d 2D       		.uleb128 0x2d
 11144 277e 0F0E0000 		.4byte	.LASF339
 11145 2782 03       		.byte	0x3
 11146 2783 7805     		.2byte	0x578
 11147 2785 B8000000 		.4byte	0xb8
 11148 2789 02       		.uleb128 0x2
 11149 278a 91       		.byte	0x91
 11150 278b 59       		.sleb128 -39
 11151 278c 2D       		.uleb128 0x2d
 11152 278d 8E020000 		.4byte	.LASF340
 11153 2791 03       		.byte	0x3
 11154 2792 7905     		.2byte	0x579
 11155 2794 B8000000 		.4byte	0xb8
 11156 2798 02       		.uleb128 0x2
 11157 2799 91       		.byte	0x91
 11158 279a 6E       		.sleb128 -18
 11159 279b 2D       		.uleb128 0x2d
 11160 279c 07080000 		.4byte	.LASF179
 11161 27a0 03       		.byte	0x3
 11162 27a1 7A05     		.2byte	0x57a
 11163 27a3 B8000000 		.4byte	0xb8
 11164 27a7 02       		.uleb128 0x2
 11165 27a8 91       		.byte	0x91
 11166 27a9 6D       		.sleb128 -19
 11167 27aa 2D       		.uleb128 0x2d
 11168 27ab 16040000 		.4byte	.LASF180
 11169 27af 03       		.byte	0x3
 11170 27b0 7A05     		.2byte	0x57a
 11171 27b2 B8000000 		.4byte	0xb8
 11172 27b6 02       		.uleb128 0x2
 11173 27b7 91       		.byte	0x91
ARM GAS  C:\Users\tmj32\AppData\Local\Temp\ccrrExWC.s 			page 238


 11174 27b8 6C       		.sleb128 -20
 11175 27b9 2D       		.uleb128 0x2d
 11176 27ba 47100000 		.4byte	.LASF342
 11177 27be 03       		.byte	0x3
 11178 27bf 7B05     		.2byte	0x57b
 11179 27c1 8A130000 		.4byte	0x138a
 11180 27c5 02       		.uleb128 0x2
 11181 27c6 91       		.byte	0x91
 11182 27c7 4C       		.sleb128 -52
 11183 27c8 21       		.uleb128 0x21
 11184 27c9 703100   		.ascii	"p1\000"
 11185 27cc 03       		.byte	0x3
 11186 27cd 7C05     		.2byte	0x57c
 11187 27cf 34030000 		.4byte	0x334
 11188 27d3 02       		.uleb128 0x2
 11189 27d4 91       		.byte	0x91
 11190 27d5 48       		.sleb128 -56
 11191 27d6 21       		.uleb128 0x21
 11192 27d7 703200   		.ascii	"p2\000"
 11193 27da 03       		.byte	0x3
 11194 27db 7D05     		.2byte	0x57d
 11195 27dd 34030000 		.4byte	0x334
 11196 27e1 02       		.uleb128 0x2
 11197 27e2 91       		.byte	0x91
 11198 27e3 44       		.sleb128 -60
 11199 27e4 2D       		.uleb128 0x2d
 11200 27e5 90010000 		.4byte	.LASF308
 11201 27e9 03       		.byte	0x3
 11202 27ea 7E05     		.2byte	0x57e
 11203 27ec EF000000 		.4byte	0xef
 11204 27f0 02       		.uleb128 0x2
 11205 27f1 91       		.byte	0x91
 11206 27f2 60       		.sleb128 -32
 11207 27f3 2D       		.uleb128 0x2d
 11208 27f4 47110000 		.4byte	.LASF309
 11209 27f8 03       		.byte	0x3
 11210 27f9 7F05     		.2byte	0x57f
 11211 27fb EF000000 		.4byte	0xef
 11212 27ff 02       		.uleb128 0x2
 11213 2800 91       		.byte	0x91
 11214 2801 5E       		.sleb128 -34
 11215 2802 21       		.uleb128 0x21
 11216 2803 6800     		.ascii	"h\000"
 11217 2805 03       		.byte	0x3
 11218 2806 8005     		.2byte	0x580
 11219 2808 EF000000 		.4byte	0xef
 11220 280c 02       		.uleb128 0x2
 11221 280d 91       		.byte	0x91
 11222 280e 5C       		.sleb128 -36
 11223 280f 21       		.uleb128 0x21
 11224 2810 7700     		.ascii	"w\000"
 11225 2812 03       		.byte	0x3
 11226 2813 8105     		.2byte	0x581
 11227 2815 EF000000 		.4byte	0xef
 11228 2819 02       		.uleb128 0x2
 11229 281a 91       		.byte	0x91
 11230 281b 5A       		.sleb128 -38
ARM GAS  C:\Users\tmj32\AppData\Local\Temp\ccrrExWC.s 			page 239


 11231 281c 21       		.uleb128 0x21
 11232 281d 62756600 		.ascii	"buf\000"
 11233 2821 03       		.byte	0x3
 11234 2822 8205     		.2byte	0x582
 11235 2824 F4260000 		.4byte	0x26f4
 11236 2828 03       		.uleb128 0x3
 11237 2829 91       		.byte	0x91
 11238 282a AC7F     		.sleb128 -84
 11239 282c 29       		.uleb128 0x29
 11240 282d 1E020000 		.4byte	.LBB19
 11241 2831 CC000000 		.4byte	.LBE19-.LBB19
 11242 2835 2D       		.uleb128 0x2d
 11243 2836 AC0A0000 		.4byte	.LASF343
 11244 283a 03       		.byte	0x3
 11245 283b B505     		.2byte	0x5b5
 11246 283d 34030000 		.4byte	0x334
 11247 2841 03       		.uleb128 0x3
 11248 2842 91       		.byte	0x91
 11249 2843 A87F     		.sleb128 -88
 11250 2845 21       		.uleb128 0x21
 11251 2846 6100     		.ascii	"a\000"
 11252 2848 03       		.byte	0x3
 11253 2849 BA05     		.2byte	0x5ba
 11254 284b 74030000 		.4byte	0x374
 11255 284f 03       		.uleb128 0x3
 11256 2850 91       		.byte	0x91
 11257 2851 A07F     		.sleb128 -96
 11258 2853 00       		.byte	0
 11259 2854 00       		.byte	0
 11260 2855 00       		.byte	0
 11261 2856 31       		.uleb128 0x31
 11262 2857 02010000 		.4byte	.LASF345
 11263 285b 03       		.byte	0x3
 11264 285c C305     		.2byte	0x5c3
 11265 285e 00000000 		.4byte	.LFB76
 11266 2862 2E000000 		.4byte	.LFE76-.LFB76
 11267 2866 01       		.uleb128 0x1
 11268 2867 9C       		.byte	0x9c
 11269 2868 8B280000 		.4byte	0x288b
 11270 286c 2C       		.uleb128 0x2c
 11271 286d 9E020000 		.4byte	.LASF234
 11272 2871 03       		.byte	0x3
 11273 2872 C305     		.2byte	0x5c3
 11274 2874 2A140000 		.4byte	0x142a
 11275 2878 02       		.uleb128 0x2
 11276 2879 91       		.byte	0x91
 11277 287a 74       		.sleb128 -12
 11278 287b 2C       		.uleb128 0x2c
 11279 287c 39090000 		.4byte	.LASF294
 11280 2880 03       		.byte	0x3
 11281 2881 C305     		.2byte	0x5c3
 11282 2883 33060000 		.4byte	0x633
 11283 2887 02       		.uleb128 0x2
 11284 2888 91       		.byte	0x91
 11285 2889 70       		.sleb128 -16
 11286 288a 00       		.byte	0
 11287 288b 31       		.uleb128 0x31
ARM GAS  C:\Users\tmj32\AppData\Local\Temp\ccrrExWC.s 			page 240


 11288 288c D8110000 		.4byte	.LASF346
 11289 2890 03       		.byte	0x3
 11290 2891 CE05     		.2byte	0x5ce
 11291 2893 00000000 		.4byte	.LFB77
 11292 2897 20010000 		.4byte	.LFE77-.LFB77
 11293 289b 01       		.uleb128 0x1
 11294 289c 9C       		.byte	0x9c
 11295 289d 02290000 		.4byte	0x2902
 11296 28a1 2C       		.uleb128 0x2c
 11297 28a2 9E020000 		.4byte	.LASF234
 11298 28a6 03       		.byte	0x3
 11299 28a7 CE05     		.2byte	0x5ce
 11300 28a9 2A140000 		.4byte	0x142a
 11301 28ad 02       		.uleb128 0x2
 11302 28ae 91       		.byte	0x91
 11303 28af 64       		.sleb128 -28
 11304 28b0 20       		.uleb128 0x20
 11305 28b1 6900     		.ascii	"i\000"
 11306 28b3 03       		.byte	0x3
 11307 28b4 CE05     		.2byte	0x5ce
 11308 28b6 CE000000 		.4byte	0xce
 11309 28ba 02       		.uleb128 0x2
 11310 28bb 91       		.byte	0x91
 11311 28bc 62       		.sleb128 -30
 11312 28bd 21       		.uleb128 0x21
 11313 28be 65787400 		.ascii	"ext\000"
 11314 28c2 03       		.byte	0x3
 11315 28c3 D005     		.2byte	0x5d0
 11316 28c5 C0140000 		.4byte	0x14c0
 11317 28c9 02       		.uleb128 0x2
 11318 28ca 91       		.byte	0x91
 11319 28cb 74       		.sleb128 -12
 11320 28cc 21       		.uleb128 0x21
 11321 28cd 7700     		.ascii	"w\000"
 11322 28cf 03       		.byte	0x3
 11323 28d0 D205     		.2byte	0x5d2
 11324 28d2 EF000000 		.4byte	0xef
 11325 28d6 02       		.uleb128 0x2
 11326 28d7 91       		.byte	0x91
 11327 28d8 72       		.sleb128 -14
 11328 28d9 2D       		.uleb128 0x2d
 11329 28da 90010000 		.4byte	.LASF308
 11330 28de 03       		.byte	0x3
 11331 28df D305     		.2byte	0x5d3
 11332 28e1 EF000000 		.4byte	0xef
 11333 28e5 02       		.uleb128 0x2
 11334 28e6 91       		.byte	0x91
 11335 28e7 70       		.sleb128 -16
 11336 28e8 29       		.uleb128 0x29
 11337 28e9 2E000000 		.4byte	.LBB20
 11338 28ed EA000000 		.4byte	.LBE20-.LBB20
 11339 28f1 2D       		.uleb128 0x2d
 11340 28f2 FF0F0000 		.4byte	.LASF100
 11341 28f6 03       		.byte	0x3
 11342 28f7 D605     		.2byte	0x5d6
 11343 28f9 74030000 		.4byte	0x374
 11344 28fd 02       		.uleb128 0x2
ARM GAS  C:\Users\tmj32\AppData\Local\Temp\ccrrExWC.s 			page 241


 11345 28fe 91       		.byte	0x91
 11346 28ff 68       		.sleb128 -24
 11347 2900 00       		.byte	0
 11348 2901 00       		.byte	0
 11349 2902 31       		.uleb128 0x31
 11350 2903 70030000 		.4byte	.LASF347
 11351 2907 03       		.byte	0x3
 11352 2908 EB05     		.2byte	0x5eb
 11353 290a 00000000 		.4byte	.LFB78
 11354 290e 98000000 		.4byte	.LFE78-.LFB78
 11355 2912 01       		.uleb128 0x1
 11356 2913 9C       		.byte	0x9c
 11357 2914 6F290000 		.4byte	0x296f
 11358 2918 2C       		.uleb128 0x2c
 11359 2919 9E020000 		.4byte	.LASF234
 11360 291d 03       		.byte	0x3
 11361 291e EB05     		.2byte	0x5eb
 11362 2920 2A140000 		.4byte	0x142a
 11363 2924 02       		.uleb128 0x2
 11364 2925 91       		.byte	0x91
 11365 2926 64       		.sleb128 -28
 11366 2927 20       		.uleb128 0x20
 11367 2928 6900     		.ascii	"i\000"
 11368 292a 03       		.byte	0x3
 11369 292b EB05     		.2byte	0x5eb
 11370 292d CE000000 		.4byte	0xce
 11371 2931 02       		.uleb128 0x2
 11372 2932 91       		.byte	0x91
 11373 2933 62       		.sleb128 -30
 11374 2934 21       		.uleb128 0x21
 11375 2935 65787400 		.ascii	"ext\000"
 11376 2939 03       		.byte	0x3
 11377 293a ED05     		.2byte	0x5ed
 11378 293c C0140000 		.4byte	0x14c0
 11379 2940 02       		.uleb128 0x2
 11380 2941 91       		.byte	0x91
 11381 2942 74       		.sleb128 -12
 11382 2943 2D       		.uleb128 0x2d
 11383 2944 29070000 		.4byte	.LASF315
 11384 2948 03       		.byte	0x3
 11385 2949 EF05     		.2byte	0x5ef
 11386 294b 74030000 		.4byte	0x374
 11387 294f 02       		.uleb128 0x2
 11388 2950 91       		.byte	0x91
 11389 2951 68       		.sleb128 -24
 11390 2952 21       		.uleb128 0x21
 11391 2953 7700     		.ascii	"w\000"
 11392 2955 03       		.byte	0x3
 11393 2956 F005     		.2byte	0x5f0
 11394 2958 EF000000 		.4byte	0xef
 11395 295c 02       		.uleb128 0x2
 11396 295d 91       		.byte	0x91
 11397 295e 72       		.sleb128 -14
 11398 295f 2D       		.uleb128 0x2d
 11399 2960 90010000 		.4byte	.LASF308
 11400 2964 03       		.byte	0x3
 11401 2965 F105     		.2byte	0x5f1
ARM GAS  C:\Users\tmj32\AppData\Local\Temp\ccrrExWC.s 			page 242


 11402 2967 EF000000 		.4byte	0xef
 11403 296b 02       		.uleb128 0x2
 11404 296c 91       		.byte	0x91
 11405 296d 70       		.sleb128 -16
 11406 296e 00       		.byte	0
 11407 296f 31       		.uleb128 0x31
 11408 2970 D7040000 		.4byte	.LASF348
 11409 2974 03       		.byte	0x3
 11410 2975 0006     		.2byte	0x600
 11411 2977 00000000 		.4byte	.LFB79
 11412 297b AA000000 		.4byte	.LFE79-.LFB79
 11413 297f 01       		.uleb128 0x1
 11414 2980 9C       		.byte	0x9c
 11415 2981 FA290000 		.4byte	0x29fa
 11416 2985 2C       		.uleb128 0x2c
 11417 2986 9E020000 		.4byte	.LASF234
 11418 298a 03       		.byte	0x3
 11419 298b 0006     		.2byte	0x600
 11420 298d 2A140000 		.4byte	0x142a
 11421 2991 02       		.uleb128 0x2
 11422 2992 91       		.byte	0x91
 11423 2993 5C       		.sleb128 -36
 11424 2994 20       		.uleb128 0x20
 11425 2995 6900     		.ascii	"i\000"
 11426 2997 03       		.byte	0x3
 11427 2998 0006     		.2byte	0x600
 11428 299a CE000000 		.4byte	0xce
 11429 299e 02       		.uleb128 0x2
 11430 299f 91       		.byte	0x91
 11431 29a0 5A       		.sleb128 -38
 11432 29a1 21       		.uleb128 0x21
 11433 29a2 65787400 		.ascii	"ext\000"
 11434 29a6 03       		.byte	0x3
 11435 29a7 0206     		.2byte	0x602
 11436 29a9 C0140000 		.4byte	0x14c0
 11437 29ad 02       		.uleb128 0x2
 11438 29ae 91       		.byte	0x91
 11439 29af 74       		.sleb128 -12
 11440 29b0 2D       		.uleb128 0x2d
 11441 29b1 8F040000 		.4byte	.LASF319
 11442 29b5 03       		.byte	0x3
 11443 29b6 0406     		.2byte	0x604
 11444 29b8 74030000 		.4byte	0x374
 11445 29bc 02       		.uleb128 0x2
 11446 29bd 91       		.byte	0x91
 11447 29be 64       		.sleb128 -28
 11448 29bf 21       		.uleb128 0x21
 11449 29c0 7700     		.ascii	"w\000"
 11450 29c2 03       		.byte	0x3
 11451 29c3 0506     		.2byte	0x605
 11452 29c5 EF000000 		.4byte	0xef
 11453 29c9 02       		.uleb128 0x2
 11454 29ca 91       		.byte	0x91
 11455 29cb 72       		.sleb128 -14
 11456 29cc 2D       		.uleb128 0x2d
 11457 29cd C9040000 		.4byte	.LASF323
 11458 29d1 03       		.byte	0x3
ARM GAS  C:\Users\tmj32\AppData\Local\Temp\ccrrExWC.s 			page 243


 11459 29d2 0606     		.2byte	0x606
 11460 29d4 EF000000 		.4byte	0xef
 11461 29d8 02       		.uleb128 0x2
 11462 29d9 91       		.byte	0x91
 11463 29da 70       		.sleb128 -16
 11464 29db 2D       		.uleb128 0x2d
 11465 29dc 90010000 		.4byte	.LASF308
 11466 29e0 03       		.byte	0x3
 11467 29e1 0706     		.2byte	0x607
 11468 29e3 EF000000 		.4byte	0xef
 11469 29e7 02       		.uleb128 0x2
 11470 29e8 91       		.byte	0x91
 11471 29e9 6E       		.sleb128 -18
 11472 29ea 2D       		.uleb128 0x2d
 11473 29eb D6020000 		.4byte	.LASF324
 11474 29ef 03       		.byte	0x3
 11475 29f0 0906     		.2byte	0x609
 11476 29f2 EF000000 		.4byte	0xef
 11477 29f6 02       		.uleb128 0x2
 11478 29f7 91       		.byte	0x91
 11479 29f8 6C       		.sleb128 -20
 11480 29f9 00       		.byte	0
 11481 29fa 26       		.uleb128 0x26
 11482 29fb BE050000 		.4byte	.LASF349
 11483 29ff 03       		.byte	0x3
 11484 2a00 44       		.byte	0x44
 11485 2a01 B0070000 		.4byte	0x7b0
 11486 2a05 05       		.uleb128 0x5
 11487 2a06 03       		.byte	0x3
 11488 2a07 00000000 		.4byte	ancestor_design_f
 11489 2a0b 26       		.uleb128 0x26
 11490 2a0c E3060000 		.4byte	.LASF350
 11491 2a10 03       		.byte	0x3
 11492 2a11 45       		.byte	0x45
 11493 2a12 96080000 		.4byte	0x896
 11494 2a16 05       		.uleb128 0x5
 11495 2a17 03       		.byte	0x3
 11496 2a18 04000000 		.4byte	ancestor_signal
 11497 2a1c 34       		.uleb128 0x34
 11498 2a1d 650A0000 		.4byte	.LASF351
 11499 2a21 09       		.byte	0x9
 11500 2a22 0F01     		.2byte	0x10f
 11501 2a24 AA050000 		.4byte	0x5aa
 11502 2a28 34       		.uleb128 0x34
 11503 2a29 C10E0000 		.4byte	.LASF352
 11504 2a2d 09       		.byte	0x9
 11505 2a2e 1101     		.2byte	0x111
 11506 2a30 AA050000 		.4byte	0x5aa
 11507 2a34 00       		.byte	0
 11508              		.section	.debug_abbrev,"",%progbits
 11509              	.Ldebug_abbrev0:
 11510 0000 01       		.uleb128 0x1
 11511 0001 11       		.uleb128 0x11
 11512 0002 01       		.byte	0x1
 11513 0003 25       		.uleb128 0x25
 11514 0004 0E       		.uleb128 0xe
 11515 0005 13       		.uleb128 0x13
ARM GAS  C:\Users\tmj32\AppData\Local\Temp\ccrrExWC.s 			page 244


 11516 0006 0B       		.uleb128 0xb
 11517 0007 03       		.uleb128 0x3
 11518 0008 0E       		.uleb128 0xe
 11519 0009 1B       		.uleb128 0x1b
 11520 000a 0E       		.uleb128 0xe
 11521 000b 55       		.uleb128 0x55
 11522 000c 17       		.uleb128 0x17
 11523 000d 11       		.uleb128 0x11
 11524 000e 01       		.uleb128 0x1
 11525 000f 10       		.uleb128 0x10
 11526 0010 17       		.uleb128 0x17
 11527 0011 00       		.byte	0
 11528 0012 00       		.byte	0
 11529 0013 02       		.uleb128 0x2
 11530 0014 16       		.uleb128 0x16
 11531 0015 00       		.byte	0
 11532 0016 03       		.uleb128 0x3
 11533 0017 0E       		.uleb128 0xe
 11534 0018 3A       		.uleb128 0x3a
 11535 0019 0B       		.uleb128 0xb
 11536 001a 3B       		.uleb128 0x3b
 11537 001b 0B       		.uleb128 0xb
 11538 001c 49       		.uleb128 0x49
 11539 001d 13       		.uleb128 0x13
 11540 001e 00       		.byte	0
 11541 001f 00       		.byte	0
 11542 0020 03       		.uleb128 0x3
 11543 0021 24       		.uleb128 0x24
 11544 0022 00       		.byte	0
 11545 0023 0B       		.uleb128 0xb
 11546 0024 0B       		.uleb128 0xb
 11547 0025 3E       		.uleb128 0x3e
 11548 0026 0B       		.uleb128 0xb
 11549 0027 03       		.uleb128 0x3
 11550 0028 0E       		.uleb128 0xe
 11551 0029 00       		.byte	0
 11552 002a 00       		.byte	0
 11553 002b 04       		.uleb128 0x4
 11554 002c 24       		.uleb128 0x24
 11555 002d 00       		.byte	0
 11556 002e 0B       		.uleb128 0xb
 11557 002f 0B       		.uleb128 0xb
 11558 0030 3E       		.uleb128 0x3e
 11559 0031 0B       		.uleb128 0xb
 11560 0032 03       		.uleb128 0x3
 11561 0033 08       		.uleb128 0x8
 11562 0034 00       		.byte	0
 11563 0035 00       		.byte	0
 11564 0036 05       		.uleb128 0x5
 11565 0037 0F       		.uleb128 0xf
 11566 0038 00       		.byte	0
 11567 0039 0B       		.uleb128 0xb
 11568 003a 0B       		.uleb128 0xb
 11569 003b 00       		.byte	0
 11570 003c 00       		.byte	0
 11571 003d 06       		.uleb128 0x6
 11572 003e 13       		.uleb128 0x13
ARM GAS  C:\Users\tmj32\AppData\Local\Temp\ccrrExWC.s 			page 245


 11573 003f 01       		.byte	0x1
 11574 0040 0B       		.uleb128 0xb
 11575 0041 0B       		.uleb128 0xb
 11576 0042 3A       		.uleb128 0x3a
 11577 0043 0B       		.uleb128 0xb
 11578 0044 3B       		.uleb128 0x3b
 11579 0045 0B       		.uleb128 0xb
 11580 0046 01       		.uleb128 0x1
 11581 0047 13       		.uleb128 0x13
 11582 0048 00       		.byte	0
 11583 0049 00       		.byte	0
 11584 004a 07       		.uleb128 0x7
 11585 004b 0D       		.uleb128 0xd
 11586 004c 00       		.byte	0
 11587 004d 03       		.uleb128 0x3
 11588 004e 0E       		.uleb128 0xe
 11589 004f 3A       		.uleb128 0x3a
 11590 0050 0B       		.uleb128 0xb
 11591 0051 3B       		.uleb128 0x3b
 11592 0052 0B       		.uleb128 0xb
 11593 0053 49       		.uleb128 0x49
 11594 0054 13       		.uleb128 0x13
 11595 0055 38       		.uleb128 0x38
 11596 0056 0B       		.uleb128 0xb
 11597 0057 00       		.byte	0
 11598 0058 00       		.byte	0
 11599 0059 08       		.uleb128 0x8
 11600 005a 0D       		.uleb128 0xd
 11601 005b 00       		.byte	0
 11602 005c 03       		.uleb128 0x3
 11603 005d 08       		.uleb128 0x8
 11604 005e 3A       		.uleb128 0x3a
 11605 005f 0B       		.uleb128 0xb
 11606 0060 3B       		.uleb128 0x3b
 11607 0061 0B       		.uleb128 0xb
 11608 0062 49       		.uleb128 0x49
 11609 0063 13       		.uleb128 0x13
 11610 0064 38       		.uleb128 0x38
 11611 0065 0B       		.uleb128 0xb
 11612 0066 00       		.byte	0
 11613 0067 00       		.byte	0
 11614 0068 09       		.uleb128 0x9
 11615 0069 13       		.uleb128 0x13
 11616 006a 01       		.byte	0x1
 11617 006b 03       		.uleb128 0x3
 11618 006c 0E       		.uleb128 0xe
 11619 006d 0B       		.uleb128 0xb
 11620 006e 0B       		.uleb128 0xb
 11621 006f 3A       		.uleb128 0x3a
 11622 0070 0B       		.uleb128 0xb
 11623 0071 3B       		.uleb128 0x3b
 11624 0072 0B       		.uleb128 0xb
 11625 0073 01       		.uleb128 0x1
 11626 0074 13       		.uleb128 0x13
 11627 0075 00       		.byte	0
 11628 0076 00       		.byte	0
 11629 0077 0A       		.uleb128 0xa
ARM GAS  C:\Users\tmj32\AppData\Local\Temp\ccrrExWC.s 			page 246


 11630 0078 0D       		.uleb128 0xd
 11631 0079 00       		.byte	0
 11632 007a 03       		.uleb128 0x3
 11633 007b 0E       		.uleb128 0xe
 11634 007c 3A       		.uleb128 0x3a
 11635 007d 0B       		.uleb128 0xb
 11636 007e 3B       		.uleb128 0x3b
 11637 007f 0B       		.uleb128 0xb
 11638 0080 49       		.uleb128 0x49
 11639 0081 13       		.uleb128 0x13
 11640 0082 0B       		.uleb128 0xb
 11641 0083 0B       		.uleb128 0xb
 11642 0084 0D       		.uleb128 0xd
 11643 0085 0B       		.uleb128 0xb
 11644 0086 0C       		.uleb128 0xc
 11645 0087 0B       		.uleb128 0xb
 11646 0088 38       		.uleb128 0x38
 11647 0089 0B       		.uleb128 0xb
 11648 008a 00       		.byte	0
 11649 008b 00       		.byte	0
 11650 008c 0B       		.uleb128 0xb
 11651 008d 15       		.uleb128 0x15
 11652 008e 01       		.byte	0x1
 11653 008f 27       		.uleb128 0x27
 11654 0090 19       		.uleb128 0x19
 11655 0091 49       		.uleb128 0x49
 11656 0092 13       		.uleb128 0x13
 11657 0093 01       		.uleb128 0x1
 11658 0094 13       		.uleb128 0x13
 11659 0095 00       		.byte	0
 11660 0096 00       		.byte	0
 11661 0097 0C       		.uleb128 0xc
 11662 0098 05       		.uleb128 0x5
 11663 0099 00       		.byte	0
 11664 009a 49       		.uleb128 0x49
 11665 009b 13       		.uleb128 0x13
 11666 009c 00       		.byte	0
 11667 009d 00       		.byte	0
 11668 009e 0D       		.uleb128 0xd
 11669 009f 0F       		.uleb128 0xf
 11670 00a0 00       		.byte	0
 11671 00a1 0B       		.uleb128 0xb
 11672 00a2 0B       		.uleb128 0xb
 11673 00a3 49       		.uleb128 0x49
 11674 00a4 13       		.uleb128 0x13
 11675 00a5 00       		.byte	0
 11676 00a6 00       		.byte	0
 11677 00a7 0E       		.uleb128 0xe
 11678 00a8 26       		.uleb128 0x26
 11679 00a9 00       		.byte	0
 11680 00aa 49       		.uleb128 0x49
 11681 00ab 13       		.uleb128 0x13
 11682 00ac 00       		.byte	0
 11683 00ad 00       		.byte	0
 11684 00ae 0F       		.uleb128 0xf
 11685 00af 04       		.uleb128 0x4
 11686 00b0 01       		.byte	0x1
ARM GAS  C:\Users\tmj32\AppData\Local\Temp\ccrrExWC.s 			page 247


 11687 00b1 0B       		.uleb128 0xb
 11688 00b2 0B       		.uleb128 0xb
 11689 00b3 49       		.uleb128 0x49
 11690 00b4 13       		.uleb128 0x13
 11691 00b5 3A       		.uleb128 0x3a
 11692 00b6 0B       		.uleb128 0xb
 11693 00b7 3B       		.uleb128 0x3b
 11694 00b8 0B       		.uleb128 0xb
 11695 00b9 01       		.uleb128 0x1
 11696 00ba 13       		.uleb128 0x13
 11697 00bb 00       		.byte	0
 11698 00bc 00       		.byte	0
 11699 00bd 10       		.uleb128 0x10
 11700 00be 28       		.uleb128 0x28
 11701 00bf 00       		.byte	0
 11702 00c0 03       		.uleb128 0x3
 11703 00c1 0E       		.uleb128 0xe
 11704 00c2 1C       		.uleb128 0x1c
 11705 00c3 0B       		.uleb128 0xb
 11706 00c4 00       		.byte	0
 11707 00c5 00       		.byte	0
 11708 00c6 11       		.uleb128 0x11
 11709 00c7 17       		.uleb128 0x17
 11710 00c8 01       		.byte	0x1
 11711 00c9 0B       		.uleb128 0xb
 11712 00ca 0B       		.uleb128 0xb
 11713 00cb 3A       		.uleb128 0x3a
 11714 00cc 0B       		.uleb128 0xb
 11715 00cd 3B       		.uleb128 0x3b
 11716 00ce 0B       		.uleb128 0xb
 11717 00cf 01       		.uleb128 0x1
 11718 00d0 13       		.uleb128 0x13
 11719 00d1 00       		.byte	0
 11720 00d2 00       		.byte	0
 11721 00d3 12       		.uleb128 0x12
 11722 00d4 0D       		.uleb128 0xd
 11723 00d5 00       		.byte	0
 11724 00d6 03       		.uleb128 0x3
 11725 00d7 08       		.uleb128 0x8
 11726 00d8 3A       		.uleb128 0x3a
 11727 00d9 0B       		.uleb128 0xb
 11728 00da 3B       		.uleb128 0x3b
 11729 00db 0B       		.uleb128 0xb
 11730 00dc 49       		.uleb128 0x49
 11731 00dd 13       		.uleb128 0x13
 11732 00de 00       		.byte	0
 11733 00df 00       		.byte	0
 11734 00e0 13       		.uleb128 0x13
 11735 00e1 0D       		.uleb128 0xd
 11736 00e2 00       		.byte	0
 11737 00e3 03       		.uleb128 0x3
 11738 00e4 0E       		.uleb128 0xe
 11739 00e5 3A       		.uleb128 0x3a
 11740 00e6 0B       		.uleb128 0xb
 11741 00e7 3B       		.uleb128 0x3b
 11742 00e8 0B       		.uleb128 0xb
 11743 00e9 49       		.uleb128 0x49
ARM GAS  C:\Users\tmj32\AppData\Local\Temp\ccrrExWC.s 			page 248


 11744 00ea 13       		.uleb128 0x13
 11745 00eb 00       		.byte	0
 11746 00ec 00       		.byte	0
 11747 00ed 14       		.uleb128 0x14
 11748 00ee 16       		.uleb128 0x16
 11749 00ef 00       		.byte	0
 11750 00f0 03       		.uleb128 0x3
 11751 00f1 0E       		.uleb128 0xe
 11752 00f2 3A       		.uleb128 0x3a
 11753 00f3 0B       		.uleb128 0xb
 11754 00f4 3B       		.uleb128 0x3b
 11755 00f5 05       		.uleb128 0x5
 11756 00f6 49       		.uleb128 0x49
 11757 00f7 13       		.uleb128 0x13
 11758 00f8 00       		.byte	0
 11759 00f9 00       		.byte	0
 11760 00fa 15       		.uleb128 0x15
 11761 00fb 0D       		.uleb128 0xd
 11762 00fc 00       		.byte	0
 11763 00fd 03       		.uleb128 0x3
 11764 00fe 08       		.uleb128 0x8
 11765 00ff 3A       		.uleb128 0x3a
 11766 0100 0B       		.uleb128 0xb
 11767 0101 3B       		.uleb128 0x3b
 11768 0102 0B       		.uleb128 0xb
 11769 0103 49       		.uleb128 0x49
 11770 0104 13       		.uleb128 0x13
 11771 0105 0B       		.uleb128 0xb
 11772 0106 0B       		.uleb128 0xb
 11773 0107 0D       		.uleb128 0xd
 11774 0108 0B       		.uleb128 0xb
 11775 0109 0C       		.uleb128 0xc
 11776 010a 0B       		.uleb128 0xb
 11777 010b 38       		.uleb128 0x38
 11778 010c 0B       		.uleb128 0xb
 11779 010d 00       		.byte	0
 11780 010e 00       		.byte	0
 11781 010f 16       		.uleb128 0x16
 11782 0110 15       		.uleb128 0x15
 11783 0111 01       		.byte	0x1
 11784 0112 27       		.uleb128 0x27
 11785 0113 19       		.uleb128 0x19
 11786 0114 01       		.uleb128 0x1
 11787 0115 13       		.uleb128 0x13
 11788 0116 00       		.byte	0
 11789 0117 00       		.byte	0
 11790 0118 17       		.uleb128 0x17
 11791 0119 0D       		.uleb128 0xd
 11792 011a 00       		.byte	0
 11793 011b 03       		.uleb128 0x3
 11794 011c 08       		.uleb128 0x8
 11795 011d 3A       		.uleb128 0x3a
 11796 011e 0B       		.uleb128 0xb
 11797 011f 3B       		.uleb128 0x3b
 11798 0120 05       		.uleb128 0x5
 11799 0121 49       		.uleb128 0x49
 11800 0122 13       		.uleb128 0x13
ARM GAS  C:\Users\tmj32\AppData\Local\Temp\ccrrExWC.s 			page 249


 11801 0123 38       		.uleb128 0x38
 11802 0124 0B       		.uleb128 0xb
 11803 0125 00       		.byte	0
 11804 0126 00       		.byte	0
 11805 0127 18       		.uleb128 0x18
 11806 0128 0D       		.uleb128 0xd
 11807 0129 00       		.byte	0
 11808 012a 03       		.uleb128 0x3
 11809 012b 0E       		.uleb128 0xe
 11810 012c 3A       		.uleb128 0x3a
 11811 012d 0B       		.uleb128 0xb
 11812 012e 3B       		.uleb128 0x3b
 11813 012f 05       		.uleb128 0x5
 11814 0130 49       		.uleb128 0x49
 11815 0131 13       		.uleb128 0x13
 11816 0132 38       		.uleb128 0x38
 11817 0133 0B       		.uleb128 0xb
 11818 0134 00       		.byte	0
 11819 0135 00       		.byte	0
 11820 0136 19       		.uleb128 0x19
 11821 0137 13       		.uleb128 0x13
 11822 0138 01       		.byte	0x1
 11823 0139 0B       		.uleb128 0xb
 11824 013a 0B       		.uleb128 0xb
 11825 013b 3A       		.uleb128 0x3a
 11826 013c 0B       		.uleb128 0xb
 11827 013d 3B       		.uleb128 0x3b
 11828 013e 05       		.uleb128 0x5
 11829 013f 01       		.uleb128 0x1
 11830 0140 13       		.uleb128 0x13
 11831 0141 00       		.byte	0
 11832 0142 00       		.byte	0
 11833 0143 1A       		.uleb128 0x1a
 11834 0144 13       		.uleb128 0x13
 11835 0145 01       		.byte	0x1
 11836 0146 0B       		.uleb128 0xb
 11837 0147 05       		.uleb128 0x5
 11838 0148 3A       		.uleb128 0x3a
 11839 0149 0B       		.uleb128 0xb
 11840 014a 3B       		.uleb128 0x3b
 11841 014b 0B       		.uleb128 0xb
 11842 014c 01       		.uleb128 0x1
 11843 014d 13       		.uleb128 0x13
 11844 014e 00       		.byte	0
 11845 014f 00       		.byte	0
 11846 0150 1B       		.uleb128 0x1b
 11847 0151 0D       		.uleb128 0xd
 11848 0152 00       		.byte	0
 11849 0153 03       		.uleb128 0x3
 11850 0154 0E       		.uleb128 0xe
 11851 0155 3A       		.uleb128 0x3a
 11852 0156 0B       		.uleb128 0xb
 11853 0157 3B       		.uleb128 0x3b
 11854 0158 0B       		.uleb128 0xb
 11855 0159 49       		.uleb128 0x49
 11856 015a 13       		.uleb128 0x13
 11857 015b 38       		.uleb128 0x38
ARM GAS  C:\Users\tmj32\AppData\Local\Temp\ccrrExWC.s 			page 250


 11858 015c 05       		.uleb128 0x5
 11859 015d 00       		.byte	0
 11860 015e 00       		.byte	0
 11861 015f 1C       		.uleb128 0x1c
 11862 0160 0D       		.uleb128 0xd
 11863 0161 00       		.byte	0
 11864 0162 03       		.uleb128 0x3
 11865 0163 08       		.uleb128 0x8
 11866 0164 3A       		.uleb128 0x3a
 11867 0165 0B       		.uleb128 0xb
 11868 0166 3B       		.uleb128 0x3b
 11869 0167 0B       		.uleb128 0xb
 11870 0168 49       		.uleb128 0x49
 11871 0169 13       		.uleb128 0x13
 11872 016a 38       		.uleb128 0x38
 11873 016b 05       		.uleb128 0x5
 11874 016c 00       		.byte	0
 11875 016d 00       		.byte	0
 11876 016e 1D       		.uleb128 0x1d
 11877 016f 0D       		.uleb128 0xd
 11878 0170 00       		.byte	0
 11879 0171 03       		.uleb128 0x3
 11880 0172 0E       		.uleb128 0xe
 11881 0173 3A       		.uleb128 0x3a
 11882 0174 0B       		.uleb128 0xb
 11883 0175 3B       		.uleb128 0x3b
 11884 0176 05       		.uleb128 0x5
 11885 0177 49       		.uleb128 0x49
 11886 0178 13       		.uleb128 0x13
 11887 0179 38       		.uleb128 0x38
 11888 017a 05       		.uleb128 0x5
 11889 017b 00       		.byte	0
 11890 017c 00       		.byte	0
 11891 017d 1E       		.uleb128 0x1e
 11892 017e 0D       		.uleb128 0xd
 11893 017f 00       		.byte	0
 11894 0180 03       		.uleb128 0x3
 11895 0181 08       		.uleb128 0x8
 11896 0182 3A       		.uleb128 0x3a
 11897 0183 0B       		.uleb128 0xb
 11898 0184 3B       		.uleb128 0x3b
 11899 0185 05       		.uleb128 0x5
 11900 0186 49       		.uleb128 0x49
 11901 0187 13       		.uleb128 0x13
 11902 0188 38       		.uleb128 0x38
 11903 0189 05       		.uleb128 0x5
 11904 018a 00       		.byte	0
 11905 018b 00       		.byte	0
 11906 018c 1F       		.uleb128 0x1f
 11907 018d 2E       		.uleb128 0x2e
 11908 018e 01       		.byte	0x1
 11909 018f 03       		.uleb128 0x3
 11910 0190 0E       		.uleb128 0xe
 11911 0191 3A       		.uleb128 0x3a
 11912 0192 0B       		.uleb128 0xb
 11913 0193 3B       		.uleb128 0x3b
 11914 0194 05       		.uleb128 0x5
ARM GAS  C:\Users\tmj32\AppData\Local\Temp\ccrrExWC.s 			page 251


 11915 0195 27       		.uleb128 0x27
 11916 0196 19       		.uleb128 0x19
 11917 0197 49       		.uleb128 0x49
 11918 0198 13       		.uleb128 0x13
 11919 0199 11       		.uleb128 0x11
 11920 019a 01       		.uleb128 0x1
 11921 019b 12       		.uleb128 0x12
 11922 019c 06       		.uleb128 0x6
 11923 019d 40       		.uleb128 0x40
 11924 019e 18       		.uleb128 0x18
 11925 019f 9742     		.uleb128 0x2117
 11926 01a1 19       		.uleb128 0x19
 11927 01a2 01       		.uleb128 0x1
 11928 01a3 13       		.uleb128 0x13
 11929 01a4 00       		.byte	0
 11930 01a5 00       		.byte	0
 11931 01a6 20       		.uleb128 0x20
 11932 01a7 05       		.uleb128 0x5
 11933 01a8 00       		.byte	0
 11934 01a9 03       		.uleb128 0x3
 11935 01aa 08       		.uleb128 0x8
 11936 01ab 3A       		.uleb128 0x3a
 11937 01ac 0B       		.uleb128 0xb
 11938 01ad 3B       		.uleb128 0x3b
 11939 01ae 05       		.uleb128 0x5
 11940 01af 49       		.uleb128 0x49
 11941 01b0 13       		.uleb128 0x13
 11942 01b1 02       		.uleb128 0x2
 11943 01b2 18       		.uleb128 0x18
 11944 01b3 00       		.byte	0
 11945 01b4 00       		.byte	0
 11946 01b5 21       		.uleb128 0x21
 11947 01b6 34       		.uleb128 0x34
 11948 01b7 00       		.byte	0
 11949 01b8 03       		.uleb128 0x3
 11950 01b9 08       		.uleb128 0x8
 11951 01ba 3A       		.uleb128 0x3a
 11952 01bb 0B       		.uleb128 0xb
 11953 01bc 3B       		.uleb128 0x3b
 11954 01bd 05       		.uleb128 0x5
 11955 01be 49       		.uleb128 0x49
 11956 01bf 13       		.uleb128 0x13
 11957 01c0 02       		.uleb128 0x2
 11958 01c1 18       		.uleb128 0x18
 11959 01c2 00       		.byte	0
 11960 01c3 00       		.byte	0
 11961 01c4 22       		.uleb128 0x22
 11962 01c5 2E       		.uleb128 0x2e
 11963 01c6 01       		.byte	0x1
 11964 01c7 03       		.uleb128 0x3
 11965 01c8 0E       		.uleb128 0xe
 11966 01c9 3A       		.uleb128 0x3a
 11967 01ca 0B       		.uleb128 0xb
 11968 01cb 3B       		.uleb128 0x3b
 11969 01cc 0B       		.uleb128 0xb
 11970 01cd 27       		.uleb128 0x27
 11971 01ce 19       		.uleb128 0x19
ARM GAS  C:\Users\tmj32\AppData\Local\Temp\ccrrExWC.s 			page 252


 11972 01cf 11       		.uleb128 0x11
 11973 01d0 01       		.uleb128 0x1
 11974 01d1 12       		.uleb128 0x12
 11975 01d2 06       		.uleb128 0x6
 11976 01d3 40       		.uleb128 0x40
 11977 01d4 18       		.uleb128 0x18
 11978 01d5 9642     		.uleb128 0x2116
 11979 01d7 19       		.uleb128 0x19
 11980 01d8 01       		.uleb128 0x1
 11981 01d9 13       		.uleb128 0x13
 11982 01da 00       		.byte	0
 11983 01db 00       		.byte	0
 11984 01dc 23       		.uleb128 0x23
 11985 01dd 05       		.uleb128 0x5
 11986 01de 00       		.byte	0
 11987 01df 03       		.uleb128 0x3
 11988 01e0 0E       		.uleb128 0xe
 11989 01e1 3A       		.uleb128 0x3a
 11990 01e2 0B       		.uleb128 0xb
 11991 01e3 3B       		.uleb128 0x3b
 11992 01e4 0B       		.uleb128 0xb
 11993 01e5 49       		.uleb128 0x49
 11994 01e6 13       		.uleb128 0x13
 11995 01e7 02       		.uleb128 0x2
 11996 01e8 18       		.uleb128 0x18
 11997 01e9 00       		.byte	0
 11998 01ea 00       		.byte	0
 11999 01eb 24       		.uleb128 0x24
 12000 01ec 2E       		.uleb128 0x2e
 12001 01ed 01       		.byte	0x1
 12002 01ee 3F       		.uleb128 0x3f
 12003 01ef 19       		.uleb128 0x19
 12004 01f0 03       		.uleb128 0x3
 12005 01f1 0E       		.uleb128 0xe
 12006 01f2 3A       		.uleb128 0x3a
 12007 01f3 0B       		.uleb128 0xb
 12008 01f4 3B       		.uleb128 0x3b
 12009 01f5 0B       		.uleb128 0xb
 12010 01f6 27       		.uleb128 0x27
 12011 01f7 19       		.uleb128 0x19
 12012 01f8 49       		.uleb128 0x49
 12013 01f9 13       		.uleb128 0x13
 12014 01fa 11       		.uleb128 0x11
 12015 01fb 01       		.uleb128 0x1
 12016 01fc 12       		.uleb128 0x12
 12017 01fd 06       		.uleb128 0x6
 12018 01fe 40       		.uleb128 0x40
 12019 01ff 18       		.uleb128 0x18
 12020 0200 9642     		.uleb128 0x2116
 12021 0202 19       		.uleb128 0x19
 12022 0203 01       		.uleb128 0x1
 12023 0204 13       		.uleb128 0x13
 12024 0205 00       		.byte	0
 12025 0206 00       		.byte	0
 12026 0207 25       		.uleb128 0x25
 12027 0208 05       		.uleb128 0x5
 12028 0209 00       		.byte	0
ARM GAS  C:\Users\tmj32\AppData\Local\Temp\ccrrExWC.s 			page 253


 12029 020a 03       		.uleb128 0x3
 12030 020b 08       		.uleb128 0x8
 12031 020c 3A       		.uleb128 0x3a
 12032 020d 0B       		.uleb128 0xb
 12033 020e 3B       		.uleb128 0x3b
 12034 020f 0B       		.uleb128 0xb
 12035 0210 49       		.uleb128 0x49
 12036 0211 13       		.uleb128 0x13
 12037 0212 02       		.uleb128 0x2
 12038 0213 18       		.uleb128 0x18
 12039 0214 00       		.byte	0
 12040 0215 00       		.byte	0
 12041 0216 26       		.uleb128 0x26
 12042 0217 34       		.uleb128 0x34
 12043 0218 00       		.byte	0
 12044 0219 03       		.uleb128 0x3
 12045 021a 0E       		.uleb128 0xe
 12046 021b 3A       		.uleb128 0x3a
 12047 021c 0B       		.uleb128 0xb
 12048 021d 3B       		.uleb128 0x3b
 12049 021e 0B       		.uleb128 0xb
 12050 021f 49       		.uleb128 0x49
 12051 0220 13       		.uleb128 0x13
 12052 0221 02       		.uleb128 0x2
 12053 0222 18       		.uleb128 0x18
 12054 0223 00       		.byte	0
 12055 0224 00       		.byte	0
 12056 0225 27       		.uleb128 0x27
 12057 0226 34       		.uleb128 0x34
 12058 0227 00       		.byte	0
 12059 0228 03       		.uleb128 0x3
 12060 0229 08       		.uleb128 0x8
 12061 022a 3A       		.uleb128 0x3a
 12062 022b 0B       		.uleb128 0xb
 12063 022c 3B       		.uleb128 0x3b
 12064 022d 0B       		.uleb128 0xb
 12065 022e 49       		.uleb128 0x49
 12066 022f 13       		.uleb128 0x13
 12067 0230 02       		.uleb128 0x2
 12068 0231 18       		.uleb128 0x18
 12069 0232 00       		.byte	0
 12070 0233 00       		.byte	0
 12071 0234 28       		.uleb128 0x28
 12072 0235 0B       		.uleb128 0xb
 12073 0236 01       		.byte	0x1
 12074 0237 11       		.uleb128 0x11
 12075 0238 01       		.uleb128 0x1
 12076 0239 12       		.uleb128 0x12
 12077 023a 06       		.uleb128 0x6
 12078 023b 01       		.uleb128 0x1
 12079 023c 13       		.uleb128 0x13
 12080 023d 00       		.byte	0
 12081 023e 00       		.byte	0
 12082 023f 29       		.uleb128 0x29
 12083 0240 0B       		.uleb128 0xb
 12084 0241 01       		.byte	0x1
 12085 0242 11       		.uleb128 0x11
ARM GAS  C:\Users\tmj32\AppData\Local\Temp\ccrrExWC.s 			page 254


 12086 0243 01       		.uleb128 0x1
 12087 0244 12       		.uleb128 0x12
 12088 0245 06       		.uleb128 0x6
 12089 0246 00       		.byte	0
 12090 0247 00       		.byte	0
 12091 0248 2A       		.uleb128 0x2a
 12092 0249 2E       		.uleb128 0x2e
 12093 024a 01       		.byte	0x1
 12094 024b 3F       		.uleb128 0x3f
 12095 024c 19       		.uleb128 0x19
 12096 024d 03       		.uleb128 0x3
 12097 024e 0E       		.uleb128 0xe
 12098 024f 3A       		.uleb128 0x3a
 12099 0250 0B       		.uleb128 0xb
 12100 0251 3B       		.uleb128 0x3b
 12101 0252 0B       		.uleb128 0xb
 12102 0253 27       		.uleb128 0x27
 12103 0254 19       		.uleb128 0x19
 12104 0255 11       		.uleb128 0x11
 12105 0256 01       		.uleb128 0x1
 12106 0257 12       		.uleb128 0x12
 12107 0258 06       		.uleb128 0x6
 12108 0259 40       		.uleb128 0x40
 12109 025a 18       		.uleb128 0x18
 12110 025b 9642     		.uleb128 0x2116
 12111 025d 19       		.uleb128 0x19
 12112 025e 01       		.uleb128 0x1
 12113 025f 13       		.uleb128 0x13
 12114 0260 00       		.byte	0
 12115 0261 00       		.byte	0
 12116 0262 2B       		.uleb128 0x2b
 12117 0263 2E       		.uleb128 0x2e
 12118 0264 01       		.byte	0x1
 12119 0265 3F       		.uleb128 0x3f
 12120 0266 19       		.uleb128 0x19
 12121 0267 03       		.uleb128 0x3
 12122 0268 0E       		.uleb128 0xe
 12123 0269 3A       		.uleb128 0x3a
 12124 026a 0B       		.uleb128 0xb
 12125 026b 3B       		.uleb128 0x3b
 12126 026c 05       		.uleb128 0x5
 12127 026d 27       		.uleb128 0x27
 12128 026e 19       		.uleb128 0x19
 12129 026f 11       		.uleb128 0x11
 12130 0270 01       		.uleb128 0x1
 12131 0271 12       		.uleb128 0x12
 12132 0272 06       		.uleb128 0x6
 12133 0273 40       		.uleb128 0x40
 12134 0274 18       		.uleb128 0x18
 12135 0275 9642     		.uleb128 0x2116
 12136 0277 19       		.uleb128 0x19
 12137 0278 01       		.uleb128 0x1
 12138 0279 13       		.uleb128 0x13
 12139 027a 00       		.byte	0
 12140 027b 00       		.byte	0
 12141 027c 2C       		.uleb128 0x2c
 12142 027d 05       		.uleb128 0x5
ARM GAS  C:\Users\tmj32\AppData\Local\Temp\ccrrExWC.s 			page 255


 12143 027e 00       		.byte	0
 12144 027f 03       		.uleb128 0x3
 12145 0280 0E       		.uleb128 0xe
 12146 0281 3A       		.uleb128 0x3a
 12147 0282 0B       		.uleb128 0xb
 12148 0283 3B       		.uleb128 0x3b
 12149 0284 05       		.uleb128 0x5
 12150 0285 49       		.uleb128 0x49
 12151 0286 13       		.uleb128 0x13
 12152 0287 02       		.uleb128 0x2
 12153 0288 18       		.uleb128 0x18
 12154 0289 00       		.byte	0
 12155 028a 00       		.byte	0
 12156 028b 2D       		.uleb128 0x2d
 12157 028c 34       		.uleb128 0x34
 12158 028d 00       		.byte	0
 12159 028e 03       		.uleb128 0x3
 12160 028f 0E       		.uleb128 0xe
 12161 0290 3A       		.uleb128 0x3a
 12162 0291 0B       		.uleb128 0xb
 12163 0292 3B       		.uleb128 0x3b
 12164 0293 05       		.uleb128 0x5
 12165 0294 49       		.uleb128 0x49
 12166 0295 13       		.uleb128 0x13
 12167 0296 02       		.uleb128 0x2
 12168 0297 18       		.uleb128 0x18
 12169 0298 00       		.byte	0
 12170 0299 00       		.byte	0
 12171 029a 2E       		.uleb128 0x2e
 12172 029b 0B       		.uleb128 0xb
 12173 029c 01       		.byte	0x1
 12174 029d 55       		.uleb128 0x55
 12175 029e 17       		.uleb128 0x17
 12176 029f 00       		.byte	0
 12177 02a0 00       		.byte	0
 12178 02a1 2F       		.uleb128 0x2f
 12179 02a2 2E       		.uleb128 0x2e
 12180 02a3 01       		.byte	0x1
 12181 02a4 3F       		.uleb128 0x3f
 12182 02a5 19       		.uleb128 0x19
 12183 02a6 03       		.uleb128 0x3
 12184 02a7 0E       		.uleb128 0xe
 12185 02a8 3A       		.uleb128 0x3a
 12186 02a9 0B       		.uleb128 0xb
 12187 02aa 3B       		.uleb128 0x3b
 12188 02ab 05       		.uleb128 0x5
 12189 02ac 27       		.uleb128 0x27
 12190 02ad 19       		.uleb128 0x19
 12191 02ae 49       		.uleb128 0x49
 12192 02af 13       		.uleb128 0x13
 12193 02b0 11       		.uleb128 0x11
 12194 02b1 01       		.uleb128 0x1
 12195 02b2 12       		.uleb128 0x12
 12196 02b3 06       		.uleb128 0x6
 12197 02b4 40       		.uleb128 0x40
 12198 02b5 18       		.uleb128 0x18
 12199 02b6 9642     		.uleb128 0x2116
ARM GAS  C:\Users\tmj32\AppData\Local\Temp\ccrrExWC.s 			page 256


 12200 02b8 19       		.uleb128 0x19
 12201 02b9 01       		.uleb128 0x1
 12202 02ba 13       		.uleb128 0x13
 12203 02bb 00       		.byte	0
 12204 02bc 00       		.byte	0
 12205 02bd 30       		.uleb128 0x30
 12206 02be 2E       		.uleb128 0x2e
 12207 02bf 01       		.byte	0x1
 12208 02c0 03       		.uleb128 0x3
 12209 02c1 0E       		.uleb128 0xe
 12210 02c2 3A       		.uleb128 0x3a
 12211 02c3 0B       		.uleb128 0xb
 12212 02c4 3B       		.uleb128 0x3b
 12213 02c5 05       		.uleb128 0x5
 12214 02c6 27       		.uleb128 0x27
 12215 02c7 19       		.uleb128 0x19
 12216 02c8 49       		.uleb128 0x49
 12217 02c9 13       		.uleb128 0x13
 12218 02ca 11       		.uleb128 0x11
 12219 02cb 01       		.uleb128 0x1
 12220 02cc 12       		.uleb128 0x12
 12221 02cd 06       		.uleb128 0x6
 12222 02ce 40       		.uleb128 0x40
 12223 02cf 18       		.uleb128 0x18
 12224 02d0 9642     		.uleb128 0x2116
 12225 02d2 19       		.uleb128 0x19
 12226 02d3 01       		.uleb128 0x1
 12227 02d4 13       		.uleb128 0x13
 12228 02d5 00       		.byte	0
 12229 02d6 00       		.byte	0
 12230 02d7 31       		.uleb128 0x31
 12231 02d8 2E       		.uleb128 0x2e
 12232 02d9 01       		.byte	0x1
 12233 02da 03       		.uleb128 0x3
 12234 02db 0E       		.uleb128 0xe
 12235 02dc 3A       		.uleb128 0x3a
 12236 02dd 0B       		.uleb128 0xb
 12237 02de 3B       		.uleb128 0x3b
 12238 02df 05       		.uleb128 0x5
 12239 02e0 27       		.uleb128 0x27
 12240 02e1 19       		.uleb128 0x19
 12241 02e2 11       		.uleb128 0x11
 12242 02e3 01       		.uleb128 0x1
 12243 02e4 12       		.uleb128 0x12
 12244 02e5 06       		.uleb128 0x6
 12245 02e6 40       		.uleb128 0x40
 12246 02e7 18       		.uleb128 0x18
 12247 02e8 9642     		.uleb128 0x2116
 12248 02ea 19       		.uleb128 0x19
 12249 02eb 01       		.uleb128 0x1
 12250 02ec 13       		.uleb128 0x13
 12251 02ed 00       		.byte	0
 12252 02ee 00       		.byte	0
 12253 02ef 32       		.uleb128 0x32
 12254 02f0 01       		.uleb128 0x1
 12255 02f1 01       		.byte	0x1
 12256 02f2 49       		.uleb128 0x49
ARM GAS  C:\Users\tmj32\AppData\Local\Temp\ccrrExWC.s 			page 257


 12257 02f3 13       		.uleb128 0x13
 12258 02f4 01       		.uleb128 0x1
 12259 02f5 13       		.uleb128 0x13
 12260 02f6 00       		.byte	0
 12261 02f7 00       		.byte	0
 12262 02f8 33       		.uleb128 0x33
 12263 02f9 21       		.uleb128 0x21
 12264 02fa 00       		.byte	0
 12265 02fb 49       		.uleb128 0x49
 12266 02fc 13       		.uleb128 0x13
 12267 02fd 2F       		.uleb128 0x2f
 12268 02fe 0B       		.uleb128 0xb
 12269 02ff 00       		.byte	0
 12270 0300 00       		.byte	0
 12271 0301 34       		.uleb128 0x34
 12272 0302 34       		.uleb128 0x34
 12273 0303 00       		.byte	0
 12274 0304 03       		.uleb128 0x3
 12275 0305 0E       		.uleb128 0xe
 12276 0306 3A       		.uleb128 0x3a
 12277 0307 0B       		.uleb128 0xb
 12278 0308 3B       		.uleb128 0x3b
 12279 0309 05       		.uleb128 0x5
 12280 030a 49       		.uleb128 0x49
 12281 030b 13       		.uleb128 0x13
 12282 030c 3F       		.uleb128 0x3f
 12283 030d 19       		.uleb128 0x19
 12284 030e 3C       		.uleb128 0x3c
 12285 030f 19       		.uleb128 0x19
 12286 0310 00       		.byte	0
 12287 0311 00       		.byte	0
 12288 0312 00       		.byte	0
 12289              		.section	.debug_aranges,"",%progbits
 12290 0000 8C010000 		.4byte	0x18c
 12291 0004 0200     		.2byte	0x2
 12292 0006 00000000 		.4byte	.Ldebug_info0
 12293 000a 04       		.byte	0x4
 12294 000b 00       		.byte	0
 12295 000c 0000     		.2byte	0
 12296 000e 0000     		.2byte	0
 12297 0010 00000000 		.4byte	.LFB5
 12298 0014 A4000000 		.4byte	.LFE5-.LFB5
 12299 0018 00000000 		.4byte	.LFB33
 12300 001c 1E000000 		.4byte	.LFE33-.LFB33
 12301 0020 00000000 		.4byte	.LFB35
 12302 0024 08020000 		.4byte	.LFE35-.LFB35
 12303 0028 00000000 		.4byte	.LFB36
 12304 002c B2000000 		.4byte	.LFE36-.LFB36
 12305 0030 00000000 		.4byte	.LFB37
 12306 0034 60000000 		.4byte	.LFE37-.LFB37
 12307 0038 00000000 		.4byte	.LFB38
 12308 003c 48000000 		.4byte	.LFE38-.LFB38
 12309 0040 00000000 		.4byte	.LFB39
 12310 0044 50000000 		.4byte	.LFE39-.LFB39
 12311 0048 00000000 		.4byte	.LFB40
 12312 004c 34000000 		.4byte	.LFE40-.LFB40
 12313 0050 00000000 		.4byte	.LFB41
ARM GAS  C:\Users\tmj32\AppData\Local\Temp\ccrrExWC.s 			page 258


 12314 0054 98010000 		.4byte	.LFE41-.LFB41
 12315 0058 00000000 		.4byte	.LFB42
 12316 005c 38000000 		.4byte	.LFE42-.LFB42
 12317 0060 00000000 		.4byte	.LFB43
 12318 0064 38000000 		.4byte	.LFE43-.LFB43
 12319 0068 00000000 		.4byte	.LFB44
 12320 006c 38000000 		.4byte	.LFE44-.LFB44
 12321 0070 00000000 		.4byte	.LFB45
 12322 0074 4E000000 		.4byte	.LFE45-.LFB45
 12323 0078 00000000 		.4byte	.LFB46
 12324 007c 3A000000 		.4byte	.LFE46-.LFB46
 12325 0080 00000000 		.4byte	.LFB47
 12326 0084 12010000 		.4byte	.LFE47-.LFB47
 12327 0088 00000000 		.4byte	.LFB48
 12328 008c 4E000000 		.4byte	.LFE48-.LFB48
 12329 0090 00000000 		.4byte	.LFB49
 12330 0094 30000000 		.4byte	.LFE49-.LFB49
 12331 0098 00000000 		.4byte	.LFB50
 12332 009c 2C000000 		.4byte	.LFE50-.LFB50
 12333 00a0 00000000 		.4byte	.LFB51
 12334 00a4 30000000 		.4byte	.LFE51-.LFB51
 12335 00a8 00000000 		.4byte	.LFB52
 12336 00ac 3C000000 		.4byte	.LFE52-.LFB52
 12337 00b0 00000000 		.4byte	.LFB53
 12338 00b4 38000000 		.4byte	.LFE53-.LFB53
 12339 00b8 00000000 		.4byte	.LFB54
 12340 00bc 3C000000 		.4byte	.LFE54-.LFB54
 12341 00c0 00000000 		.4byte	.LFB55
 12342 00c4 28000000 		.4byte	.LFE55-.LFB55
 12343 00c8 00000000 		.4byte	.LFB56
 12344 00cc 1C000000 		.4byte	.LFE56-.LFB56
 12345 00d0 00000000 		.4byte	.LFB57
 12346 00d4 1C000000 		.4byte	.LFE57-.LFB57
 12347 00d8 00000000 		.4byte	.LFB58
 12348 00dc 1E000000 		.4byte	.LFE58-.LFB58
 12349 00e0 00000000 		.4byte	.LFB59
 12350 00e4 1E000000 		.4byte	.LFE59-.LFB59
 12351 00e8 00000000 		.4byte	.LFB60
 12352 00ec 1E000000 		.4byte	.LFE60-.LFB60
 12353 00f0 00000000 		.4byte	.LFB61
 12354 00f4 16000000 		.4byte	.LFE61-.LFB61
 12355 00f8 00000000 		.4byte	.LFB62
 12356 00fc 1C000000 		.4byte	.LFE62-.LFB62
 12357 0100 00000000 		.4byte	.LFB63
 12358 0104 14010000 		.4byte	.LFE63-.LFB63
 12359 0108 00000000 		.4byte	.LFB64
 12360 010c 9C000000 		.4byte	.LFE64-.LFB64
 12361 0110 00000000 		.4byte	.LFB65
 12362 0114 B0010000 		.4byte	.LFE65-.LFB65
 12363 0118 00000000 		.4byte	.LFB66
 12364 011c 40020000 		.4byte	.LFE66-.LFB66
 12365 0120 00000000 		.4byte	.LFB67
 12366 0124 40020000 		.4byte	.LFE67-.LFB67
 12367 0128 00000000 		.4byte	.LFB68
 12368 012c 94020000 		.4byte	.LFE68-.LFB68
 12369 0130 00000000 		.4byte	.LFB69
 12370 0134 4C020000 		.4byte	.LFE69-.LFB69
ARM GAS  C:\Users\tmj32\AppData\Local\Temp\ccrrExWC.s 			page 259


 12371 0138 00000000 		.4byte	.LFB70
 12372 013c 8C020000 		.4byte	.LFE70-.LFB70
 12373 0140 00000000 		.4byte	.LFB71
 12374 0144 8A000000 		.4byte	.LFE71-.LFB71
 12375 0148 00000000 		.4byte	.LFB72
 12376 014c FC000000 		.4byte	.LFE72-.LFB72
 12377 0150 00000000 		.4byte	.LFB73
 12378 0154 40000000 		.4byte	.LFE73-.LFB73
 12379 0158 00000000 		.4byte	.LFB74
 12380 015c 06040000 		.4byte	.LFE74-.LFB74
 12381 0160 00000000 		.4byte	.LFB75
 12382 0164 14030000 		.4byte	.LFE75-.LFB75
 12383 0168 00000000 		.4byte	.LFB76
 12384 016c 2E000000 		.4byte	.LFE76-.LFB76
 12385 0170 00000000 		.4byte	.LFB77
 12386 0174 20010000 		.4byte	.LFE77-.LFB77
 12387 0178 00000000 		.4byte	.LFB78
 12388 017c 98000000 		.4byte	.LFE78-.LFB78
 12389 0180 00000000 		.4byte	.LFB79
 12390 0184 AA000000 		.4byte	.LFE79-.LFB79
 12391 0188 00000000 		.4byte	0
 12392 018c 00000000 		.4byte	0
 12393              		.section	.debug_ranges,"",%progbits
 12394              	.Ldebug_ranges0:
 12395 0000 4A000000 		.4byte	.LBB4
 12396 0004 14010000 		.4byte	.LBE4
 12397 0008 8C010000 		.4byte	.LBB5
 12398 000c 90010000 		.4byte	.LBE5
 12399 0010 00000000 		.4byte	0
 12400 0014 00000000 		.4byte	0
 12401 0018 D0000000 		.4byte	.LBB10
 12402 001c 4A020000 		.4byte	.LBE10
 12403 0020 68020000 		.4byte	.LBB11
 12404 0024 6A020000 		.4byte	.LBE11
 12405 0028 00000000 		.4byte	0
 12406 002c 00000000 		.4byte	0
 12407 0030 00000000 		.4byte	.LFB5
 12408 0034 A4000000 		.4byte	.LFE5
 12409 0038 00000000 		.4byte	.LFB33
 12410 003c 1E000000 		.4byte	.LFE33
 12411 0040 00000000 		.4byte	.LFB35
 12412 0044 08020000 		.4byte	.LFE35
 12413 0048 00000000 		.4byte	.LFB36
 12414 004c B2000000 		.4byte	.LFE36
 12415 0050 00000000 		.4byte	.LFB37
 12416 0054 60000000 		.4byte	.LFE37
 12417 0058 00000000 		.4byte	.LFB38
 12418 005c 48000000 		.4byte	.LFE38
 12419 0060 00000000 		.4byte	.LFB39
 12420 0064 50000000 		.4byte	.LFE39
 12421 0068 00000000 		.4byte	.LFB40
 12422 006c 34000000 		.4byte	.LFE40
 12423 0070 00000000 		.4byte	.LFB41
 12424 0074 98010000 		.4byte	.LFE41
 12425 0078 00000000 		.4byte	.LFB42
 12426 007c 38000000 		.4byte	.LFE42
 12427 0080 00000000 		.4byte	.LFB43
ARM GAS  C:\Users\tmj32\AppData\Local\Temp\ccrrExWC.s 			page 260


 12428 0084 38000000 		.4byte	.LFE43
 12429 0088 00000000 		.4byte	.LFB44
 12430 008c 38000000 		.4byte	.LFE44
 12431 0090 00000000 		.4byte	.LFB45
 12432 0094 4E000000 		.4byte	.LFE45
 12433 0098 00000000 		.4byte	.LFB46
 12434 009c 3A000000 		.4byte	.LFE46
 12435 00a0 00000000 		.4byte	.LFB47
 12436 00a4 12010000 		.4byte	.LFE47
 12437 00a8 00000000 		.4byte	.LFB48
 12438 00ac 4E000000 		.4byte	.LFE48
 12439 00b0 00000000 		.4byte	.LFB49
 12440 00b4 30000000 		.4byte	.LFE49
 12441 00b8 00000000 		.4byte	.LFB50
 12442 00bc 2C000000 		.4byte	.LFE50
 12443 00c0 00000000 		.4byte	.LFB51
 12444 00c4 30000000 		.4byte	.LFE51
 12445 00c8 00000000 		.4byte	.LFB52
 12446 00cc 3C000000 		.4byte	.LFE52
 12447 00d0 00000000 		.4byte	.LFB53
 12448 00d4 38000000 		.4byte	.LFE53
 12449 00d8 00000000 		.4byte	.LFB54
 12450 00dc 3C000000 		.4byte	.LFE54
 12451 00e0 00000000 		.4byte	.LFB55
 12452 00e4 28000000 		.4byte	.LFE55
 12453 00e8 00000000 		.4byte	.LFB56
 12454 00ec 1C000000 		.4byte	.LFE56
 12455 00f0 00000000 		.4byte	.LFB57
 12456 00f4 1C000000 		.4byte	.LFE57
 12457 00f8 00000000 		.4byte	.LFB58
 12458 00fc 1E000000 		.4byte	.LFE58
 12459 0100 00000000 		.4byte	.LFB59
 12460 0104 1E000000 		.4byte	.LFE59
 12461 0108 00000000 		.4byte	.LFB60
 12462 010c 1E000000 		.4byte	.LFE60
 12463 0110 00000000 		.4byte	.LFB61
 12464 0114 16000000 		.4byte	.LFE61
 12465 0118 00000000 		.4byte	.LFB62
 12466 011c 1C000000 		.4byte	.LFE62
 12467 0120 00000000 		.4byte	.LFB63
 12468 0124 14010000 		.4byte	.LFE63
 12469 0128 00000000 		.4byte	.LFB64
 12470 012c 9C000000 		.4byte	.LFE64
 12471 0130 00000000 		.4byte	.LFB65
 12472 0134 B0010000 		.4byte	.LFE65
 12473 0138 00000000 		.4byte	.LFB66
 12474 013c 40020000 		.4byte	.LFE66
 12475 0140 00000000 		.4byte	.LFB67
 12476 0144 40020000 		.4byte	.LFE67
 12477 0148 00000000 		.4byte	.LFB68
 12478 014c 94020000 		.4byte	.LFE68
 12479 0150 00000000 		.4byte	.LFB69
 12480 0154 4C020000 		.4byte	.LFE69
 12481 0158 00000000 		.4byte	.LFB70
 12482 015c 8C020000 		.4byte	.LFE70
 12483 0160 00000000 		.4byte	.LFB71
 12484 0164 8A000000 		.4byte	.LFE71
ARM GAS  C:\Users\tmj32\AppData\Local\Temp\ccrrExWC.s 			page 261


 12485 0168 00000000 		.4byte	.LFB72
 12486 016c FC000000 		.4byte	.LFE72
 12487 0170 00000000 		.4byte	.LFB73
 12488 0174 40000000 		.4byte	.LFE73
 12489 0178 00000000 		.4byte	.LFB74
 12490 017c 06040000 		.4byte	.LFE74
 12491 0180 00000000 		.4byte	.LFB75
 12492 0184 14030000 		.4byte	.LFE75
 12493 0188 00000000 		.4byte	.LFB76
 12494 018c 2E000000 		.4byte	.LFE76
 12495 0190 00000000 		.4byte	.LFB77
 12496 0194 20010000 		.4byte	.LFE77
 12497 0198 00000000 		.4byte	.LFB78
 12498 019c 98000000 		.4byte	.LFE78
 12499 01a0 00000000 		.4byte	.LFB79
 12500 01a4 AA000000 		.4byte	.LFE79
 12501 01a8 00000000 		.4byte	0
 12502 01ac 00000000 		.4byte	0
 12503              		.section	.debug_line,"",%progbits
 12504              	.Ldebug_line0:
 12505 0000 120D0000 		.section	.debug_str,"MS",%progbits,1
 12505      02005903 
 12505      00000201 
 12505      FB0E0D00 
 12505      01010101 
 12506              	.LASF173:
 12507 0000 4C565F43 		.ascii	"LV_CHART_AXIS_DRAW_LAST_TICK\000"
 12507      48415254 
 12507      5F415849 
 12507      535F4452 
 12507      41575F4C 
 12508              	.LASF15:
 12509 001d 696E7438 		.ascii	"int8_t\000"
 12509      5F7400
 12510              	.LASF91:
 12511 0024 6C765F6C 		.ascii	"lv_ll_node_t\000"
 12511      6C5F6E6F 
 12511      64655F74 
 12511      00
 12512              	.LASF23:
 12513 0031 6164765F 		.ascii	"adv_w\000"
 12513      7700
 12514              	.LASF214:
 12515 0037 68656164 		.ascii	"header_pr\000"
 12515      65725F70 
 12515      7200
 12516              	.LASF55:
 12517 0041 73697A65 		.ascii	"sizetype\000"
 12517      74797065 
 12517      00
 12518              	.LASF265:
 12519 004a 6C765F63 		.ascii	"lv_chart_set_type\000"
 12519      68617274 
 12519      5F736574 
 12519      5F747970 
 12519      6500
 12520              	.LASF174:
ARM GAS  C:\Users\tmj32\AppData\Local\Temp\ccrrExWC.s 			page 262


 12521 005c 4C565F43 		.ascii	"LV_CHART_AXIS_INVERSE_LABELS_ORDER\000"
 12521      48415254 
 12521      5F415849 
 12521      535F494E 
 12521      56455253 
 12522              	.LASF304:
 12523 007f 6C765F63 		.ascii	"lv_chart_draw_div\000"
 12523      68617274 
 12523      5F647261 
 12523      775F6469 
 12523      7600
 12524              	.LASF299:
 12525 0091 6C765F63 		.ascii	"lv_chart_signal\000"
 12525      68617274 
 12525      5F736967 
 12525      6E616C00 
 12526              	.LASF52:
 12527 00a1 6C765F63 		.ascii	"lv_color32_t\000"
 12527      6F6C6F72 
 12527      33325F74 
 12527      00
 12528              	.LASF172:
 12529 00ae 4C565F43 		.ascii	"LV_CHART_AXIS_SKIP_LAST_TICK\000"
 12529      48415254 
 12529      5F415849 
 12529      535F534B 
 12529      49505F4C 
 12530              	.LASF224:
 12531 00cb 63656C6C 		.ascii	"cell\000"
 12531      00
 12532              	.LASF94:
 12533 00d0 7461696C 		.ascii	"tail\000"
 12533      00
 12534              	.LASF131:
 12535 00d5 4C565F53 		.ascii	"LV_SIGNAL_STYLE_CHG\000"
 12535      49474E41 
 12535      4C5F5354 
 12535      594C455F 
 12535      43484700 
 12536              	.LASF54:
 12537 00e9 6C765F6F 		.ascii	"lv_opa_t\000"
 12537      70615F74 
 12537      00
 12538              	.LASF19:
 12539 00f2 696E7433 		.ascii	"int32_t\000"
 12539      325F7400 
 12540              	.LASF79:
 12541 00fa 696E7465 		.ascii	"intense\000"
 12541      6E736500 
 12542              	.LASF345:
 12543 0102 6C765F63 		.ascii	"lv_chart_draw_axes\000"
 12543      68617274 
 12543      5F647261 
 12543      775F6178 
 12543      657300
 12544              	.LASF275:
 12545 0115 795F6172 		.ascii	"y_array\000"
ARM GAS  C:\Users\tmj32\AppData\Local\Temp\ccrrExWC.s 			page 263


 12545      72617900 
 12546              	.LASF57:
 12547 011d 6C765F70 		.ascii	"lv_point_t\000"
 12547      6F696E74 
 12547      5F7400
 12548              	.LASF231:
 12549 0128 6C6D6574 		.ascii	"lmeter\000"
 12549      657200
 12550              	.LASF139:
 12551 012f 4C565F53 		.ascii	"LV_SIGNAL_LONG_PRESS\000"
 12551      49474E41 
 12551      4C5F4C4F 
 12551      4E475F50 
 12551      52455353 
 12552              	.LASF71:
 12553 0144 72616469 		.ascii	"radius\000"
 12553      757300
 12554              	.LASF156:
 12555 014b 6C765F72 		.ascii	"lv_reailgn_t\000"
 12555      6561696C 
 12555      676E5F74 
 12555      00
 12556              	.LASF31:
 12557 0158 6C696E65 		.ascii	"line_height\000"
 12557      5F686569 
 12557      67687400 
 12558              	.LASF106:
 12559 0164 636C6963 		.ascii	"click\000"
 12559      6B00
 12560              	.LASF149:
 12561 016a 6C765F61 		.ascii	"lv_align_t\000"
 12561      6C69676E 
 12561      5F7400
 12562              	.LASF313:
 12563 0175 705F6163 		.ascii	"p_act\000"
 12563      7400
 12564              	.LASF141:
 12565 017b 4C565F53 		.ascii	"LV_SIGNAL_DRAG_BEGIN\000"
 12565      49474E41 
 12565      4C5F4452 
 12565      41475F42 
 12565      4547494E 
 12566              	.LASF308:
 12567 0190 785F6F66 		.ascii	"x_ofs\000"
 12567      7300
 12568              	.LASF322:
 12569 0196 72656374 		.ascii	"rects\000"
 12569      7300
 12570              	.LASF216:
 12571 019c 68696768 		.ascii	"highlighted_days\000"
 12571      6C696768 
 12571      7465645F 
 12571      64617973 
 12571      00
 12572              	.LASF278:
 12573 01ad 6C765F63 		.ascii	"lv_chart_set_x_tick_length\000"
 12573      68617274 
ARM GAS  C:\Users\tmj32\AppData\Local\Temp\ccrrExWC.s 			page 264


 12573      5F736574 
 12573      5F785F74 
 12573      69636B5F 
 12574              	.LASF300:
 12575 01c8 7369676E 		.ascii	"sign\000"
 12575      00
 12576              	.LASF125:
 12577 01cd 6C765F65 		.ascii	"lv_event_t\000"
 12577      76656E74 
 12577      5F7400
 12578              	.LASF286:
 12579 01d8 6C765F63 		.ascii	"lv_chart_get_point_cnt\000"
 12579      68617274 
 12579      5F676574 
 12579      5F706F69 
 12579      6E745F63 
 12580              	.LASF334:
 12581 01ef 6C765F63 		.ascii	"lv_chart_is_tick_with_label\000"
 12581      68617274 
 12581      5F69735F 
 12581      7469636B 
 12581      5F776974 
 12582              	.LASF88:
 12583 020b 4C565F52 		.ascii	"LV_RES_INV\000"
 12583      45535F49 
 12583      4E5600
 12584              	.LASF254:
 12585 0216 6E65775F 		.ascii	"new_chart\000"
 12585      63686172 
 12585      7400
 12586              	.LASF264:
 12587 0220 6C765F63 		.ascii	"lv_chart_set_range\000"
 12587      68617274 
 12587      5F736574 
 12587      5F72616E 
 12587      676500
 12588              	.LASF135:
 12589 0233 4C565F53 		.ascii	"LV_SIGNAL_PRESSED\000"
 12589      49474E41 
 12589      4C5F5052 
 12589      45535345 
 12589      4400
 12590              	.LASF64:
 12591 0245 74797065 		.ascii	"type\000"
 12591      00
 12592              	.LASF261:
 12593 024a 6C765F63 		.ascii	"lv_chart_set_div_line_count\000"
 12593      68617274 
 12593      5F736574 
 12593      5F646976 
 12593      5F6C696E 
 12594              	.LASF287:
 12595 0266 6C765F63 		.ascii	"lv_chart_get_series_opa\000"
 12595      68617274 
 12595      5F676574 
 12595      5F736572 
 12595      6965735F 
ARM GAS  C:\Users\tmj32\AppData\Local\Temp\ccrrExWC.s 			page 265


 12596              	.LASF207:
 12597 027e 6C696768 		.ascii	"light\000"
 12597      7400
 12598              	.LASF227:
 12599 0284 636F6E74 		.ascii	"cont\000"
 12599      00
 12600              	.LASF205:
 12601 0289 7072696D 		.ascii	"prim\000"
 12601      00
 12602              	.LASF340:
 12603 028e 6E756D5F 		.ascii	"num_scale_ticks\000"
 12603      7363616C 
 12603      655F7469 
 12603      636B7300 
 12604              	.LASF234:
 12605 029e 63686172 		.ascii	"chart\000"
 12605      7400
 12606              	.LASF193:
 12607 02a4 75706461 		.ascii	"update_mode\000"
 12607      74655F6D 
 12607      6F646500 
 12608              	.LASF1:
 12609 02b0 5F5F7569 		.ascii	"__uint8_t\000"
 12609      6E74385F 
 12609      7400
 12610              	.LASF333:
 12611 02ba 6C616265 		.ascii	"label_start\000"
 12611      6C5F7374 
 12611      61727400 
 12612              	.LASF50:
 12613 02c6 616C7068 		.ascii	"alpha\000"
 12613      6100
 12614              	.LASF188:
 12615 02cc 706F696E 		.ascii	"point_cnt\000"
 12615      745F636E 
 12615      7400
 12616              	.LASF324:
 12617 02d6 785F6163 		.ascii	"x_act\000"
 12617      7400
 12618              	.LASF311:
 12619 02dc 795F746D 		.ascii	"y_tmp\000"
 12619      7000
 12620              	.LASF256:
 12621 02e2 6C765F63 		.ascii	"lv_chart_create\000"
 12621      68617274 
 12621      5F637265 
 12621      61746500 
 12622              	.LASF110:
 12623 02f2 68696464 		.ascii	"hidden\000"
 12623      656E00
 12624              	.LASF165:
 12625 02f9 6C765F63 		.ascii	"lv_chart_type_t\000"
 12625      68617274 
 12625      5F747970 
 12625      655F7400 
 12626              	.LASF9:
 12627 0309 6C6F6E67 		.ascii	"long int\000"
ARM GAS  C:\Users\tmj32\AppData\Local\Temp\ccrrExWC.s 			page 266


 12627      20696E74 
 12627      00
 12628              	.LASF163:
 12629 0312 4C565F43 		.ascii	"LV_CHART_TYPE_VERTICAL_LINE\000"
 12629      48415254 
 12629      5F545950 
 12629      455F5645 
 12629      52544943 
 12630              	.LASF312:
 12631 032e 705F7072 		.ascii	"p_prev\000"
 12631      657600
 12632              	.LASF166:
 12633 0335 4C565F43 		.ascii	"LV_CHART_UPDATE_MODE_SHIFT\000"
 12633      48415254 
 12633      5F555044 
 12633      4154455F 
 12633      4D4F4445 
 12634              	.LASF244:
 12635 0350 74696C65 		.ascii	"tileview\000"
 12635      76696577 
 12635      00
 12636              	.LASF202:
 12637 0359 4C565F54 		.ascii	"LV_TXT_FLAG_RIGHT\000"
 12637      58545F46 
 12637      4C41475F 
 12637      52494748 
 12637      5400
 12638              	.LASF93:
 12639 036b 68656164 		.ascii	"head\000"
 12639      00
 12640              	.LASF347:
 12641 0370 6C765F63 		.ascii	"lv_chart_inv_points\000"
 12641      68617274 
 12641      5F696E76 
 12641      5F706F69 
 12641      6E747300 
 12642              	.LASF270:
 12643 0384 6C765F63 		.ascii	"lv_chart_set_series_width\000"
 12643      68617274 
 12643      5F736574 
 12643      5F736572 
 12643      6965735F 
 12644              	.LASF320:
 12645 039e 636F6C5F 		.ascii	"col_mask\000"
 12645      6D61736B 
 12645      00
 12646              	.LASF236:
 12647 03a7 62746E6D 		.ascii	"btnm\000"
 12647      00
 12648              	.LASF199:
 12649 03ac 4C565F54 		.ascii	"LV_TXT_FLAG_RECOLOR\000"
 12649      58545F46 
 12649      4C41475F 
 12649      5245434F 
 12649      4C4F5200 
 12650              	.LASF2:
 12651 03c0 7369676E 		.ascii	"signed char\000"
ARM GAS  C:\Users\tmj32\AppData\Local\Temp\ccrrExWC.s 			page 267


 12651      65642063 
 12651      68617200 
 12652              	.LASF16:
 12653 03cc 75696E74 		.ascii	"uint8_t\000"
 12653      385F7400 
 12654              	.LASF281:
 12655 03d4 6C765F63 		.ascii	"lv_chart_set_x_tick_texts\000"
 12655      68617274 
 12655      5F736574 
 12655      5F785F74 
 12655      69636B5F 
 12656              	.LASF167:
 12657 03ee 4C565F43 		.ascii	"LV_CHART_UPDATE_MODE_CIRCULAR\000"
 12657      48415254 
 12657      5F555044 
 12657      4154455F 
 12657      4D4F4445 
 12658              	.LASF219:
 12659 040c 746F6461 		.ascii	"today_box\000"
 12659      795F626F 
 12659      7800
 12660              	.LASF180:
 12661 0416 6D696E6F 		.ascii	"minor_tick_len\000"
 12661      725F7469 
 12661      636B5F6C 
 12661      656E00
 12662              	.LASF321:
 12663 0425 6D61736B 		.ascii	"mask_ret\000"
 12663      5F726574 
 12663      00
 12664              	.LASF204:
 12665 042e 74676C5F 		.ascii	"tgl_pr\000"
 12665      707200
 12666              	.LASF258:
 12667 0435 705F746D 		.ascii	"p_tmp\000"
 12667      7000
 12668              	.LASF171:
 12669 043b 6C765F63 		.ascii	"lv_chart_series_t\000"
 12669      68617274 
 12669      5F736572 
 12669      6965735F 
 12669      7400
 12670              	.LASF30:
 12671 044d 6765745F 		.ascii	"get_glyph_bitmap\000"
 12671      676C7970 
 12671      685F6269 
 12671      746D6170 
 12671      00
 12672              	.LASF220:
 12673 045e 7363726C 		.ascii	"scrl\000"
 12673      00
 12674              	.LASF48:
 12675 0463 626C7565 		.ascii	"blue\000"
 12675      00
 12676              	.LASF140:
 12677 0468 4C565F53 		.ascii	"LV_SIGNAL_LONG_PRESS_REP\000"
 12677      49474E41 
ARM GAS  C:\Users\tmj32\AppData\Local\Temp\ccrrExWC.s 			page 268


 12677      4C5F4C4F 
 12677      4E475F50 
 12677      52455353 
 12678              	.LASF3:
 12679 0481 756E7369 		.ascii	"unsigned char\000"
 12679      676E6564 
 12679      20636861 
 12679      7200
 12680              	.LASF319:
 12681 048f 636F6C5F 		.ascii	"col_a\000"
 12681      6100
 12682              	.LASF133:
 12683 0495 4C565F53 		.ascii	"LV_SIGNAL_REFR_EXT_DRAW_PAD\000"
 12683      49474E41 
 12683      4C5F5245 
 12683      46525F45 
 12683      58545F44 
 12684              	.LASF113:
 12685 04b1 64726167 		.ascii	"drag_dir\000"
 12685      5F646972 
 12685      00
 12686              	.LASF195:
 12687 04ba 6C765F63 		.ascii	"lv_chart_ext_t\000"
 12687      68617274 
 12687      5F657874 
 12687      5F7400
 12688              	.LASF323:
 12689 04c9 636F6C5F 		.ascii	"col_w\000"
 12689      7700
 12690              	.LASF212:
 12691 04cf 6B6E6F62 		.ascii	"knob_on\000"
 12691      5F6F6E00 
 12692              	.LASF348:
 12693 04d7 6C765F63 		.ascii	"lv_chart_inv_cols\000"
 12693      68617274 
 12693      5F696E76 
 12693      5F636F6C 
 12693      7300
 12694              	.LASF26:
 12695 04e9 6F66735F 		.ascii	"ofs_x\000"
 12695      7800
 12696              	.LASF27:
 12697 04ef 6F66735F 		.ascii	"ofs_y\000"
 12697      7900
 12698              	.LASF213:
 12699 04f5 68656164 		.ascii	"header\000"
 12699      657200
 12700              	.LASF262:
 12701 04fc 68646976 		.ascii	"hdiv\000"
 12701      00
 12702              	.LASF33:
 12703 0501 5F426F6F 		.ascii	"_Bool\000"
 12703      6C00
 12704              	.LASF148:
 12705 0507 6C765F73 		.ascii	"lv_signal_cb_t\000"
 12705      69676E61 
 12705      6C5F6362 
ARM GAS  C:\Users\tmj32\AppData\Local\Temp\ccrrExWC.s 			page 269


 12705      5F7400
 12706              	.LASF245:
 12707 0516 7461626C 		.ascii	"table\000"
 12707      6500
 12708              	.LASF56:
 12709 051c 63686172 		.ascii	"char\000"
 12709      00
 12710              	.LASF121:
 12711 0521 4C565F44 		.ascii	"LV_DESIGN_DRAW_POST\000"
 12711      45534947 
 12711      4E5F4452 
 12711      41575F50 
 12711      4F535400 
 12712              	.LASF83:
 12713 0535 626F6479 		.ascii	"body\000"
 12713      00
 12714              	.LASF152:
 12715 053a 796F6673 		.ascii	"yofs\000"
 12715      00
 12716              	.LASF6:
 12717 053f 5F5F7569 		.ascii	"__uint16_t\000"
 12717      6E743136 
 12717      5F7400
 12718              	.LASF218:
 12719 054a 7765656B 		.ascii	"week_box\000"
 12719      5F626F78 
 12719      00
 12720              	.LASF252:
 12721 0553 6C765F63 		.ascii	"lv_chart_label_iterator_t\000"
 12721      68617274 
 12721      5F6C6162 
 12721      656C5F69 
 12721      74657261 
 12722              	.LASF186:
 12723 056d 68646976 		.ascii	"hdiv_cnt\000"
 12723      5F636E74 
 12723      00
 12724              	.LASF122:
 12725 0576 4C565F44 		.ascii	"LV_DESIGN_COVER_CHK\000"
 12725      45534947 
 12725      4E5F434F 
 12725      5645525F 
 12725      43484B00 
 12726              	.LASF277:
 12727 058a 6C765F63 		.ascii	"lv_chart_set_update_mode\000"
 12727      68617274 
 12727      5F736574 
 12727      5F757064 
 12727      6174655F 
 12728              	.LASF103:
 12729 05a3 64657369 		.ascii	"design_cb\000"
 12729      676E5F63 
 12729      6200
 12730              	.LASF198:
 12731 05ad 4C565F54 		.ascii	"LV_TXT_FLAG_NONE\000"
 12731      58545F46 
 12731      4C41475F 
ARM GAS  C:\Users\tmj32\AppData\Local\Temp\ccrrExWC.s 			page 270


 12731      4E4F4E45 
 12731      00
 12732              	.LASF349:
 12733 05be 616E6365 		.ascii	"ancestor_design_f\000"
 12733      73746F72 
 12733      5F646573 
 12733      69676E5F 
 12733      6600
 12734              	.LASF126:
 12735 05d0 6C765F65 		.ascii	"lv_event_cb_t\000"
 12735      76656E74 
 12735      5F63625F 
 12735      7400
 12736              	.LASF144:
 12737 05de 4C565F53 		.ascii	"LV_SIGNAL_DEFOCUS\000"
 12737      49474E41 
 12737      4C5F4445 
 12737      464F4355 
 12737      5300
 12738              	.LASF241:
 12739 05f0 64646C69 		.ascii	"ddlist\000"
 12739      737400
 12740              	.LASF84:
 12741 05f7 74657874 		.ascii	"text\000"
 12741      00
 12742              	.LASF191:
 12743 05fc 7365636F 		.ascii	"secondary_y_axis\000"
 12743      6E646172 
 12743      795F795F 
 12743      61786973 
 12743      00
 12744              	.LASF283:
 12745 060d 6C765F63 		.ascii	"lv_chart_set_secondary_y_tick_texts\000"
 12745      68617274 
 12745      5F736574 
 12745      5F736563 
 12745      6F6E6461 
 12746              	.LASF85:
 12747 0631 696D6167 		.ascii	"image\000"
 12747      6500
 12748              	.LASF81:
 12749 0637 726F756E 		.ascii	"rounded\000"
 12749      64656400 
 12750              	.LASF108:
 12751 063f 64726167 		.ascii	"drag_throw\000"
 12751      5F746872 
 12751      6F7700
 12752              	.LASF217:
 12753 064a 696E6163 		.ascii	"inactive_days\000"
 12753      74697665 
 12753      5F646179 
 12753      7300
 12754              	.LASF96:
 12755 0658 6C765F62 		.ascii	"lv_bidi_dir_t\000"
 12755      6964695F 
 12755      6469725F 
 12755      7400
ARM GAS  C:\Users\tmj32\AppData\Local\Temp\ccrrExWC.s 			page 271


 12756              	.LASF118:
 12757 0666 6578745F 		.ascii	"ext_draw_pad\000"
 12757      64726177 
 12757      5F706164 
 12757      00
 12758              	.LASF58:
 12759 0673 6C765F61 		.ascii	"lv_area_t\000"
 12759      7265615F 
 12759      7400
 12760              	.LASF330:
 12761 067d 69746572 		.ascii	"iterator\000"
 12761      61746F72 
 12761      00
 12762              	.LASF293:
 12763 0686 6C765F63 		.ascii	"lv_chart_design\000"
 12763      68617274 
 12763      5F646573 
 12763      69676E00 
 12764              	.LASF201:
 12765 0696 4C565F54 		.ascii	"LV_TXT_FLAG_CENTER\000"
 12765      58545F46 
 12765      4C41475F 
 12765      43454E54 
 12765      455200
 12766              	.LASF66:
 12767 06a9 6C656674 		.ascii	"left\000"
 12767      00
 12768              	.LASF247:
 12769 06ae 6C765F74 		.ascii	"lv_theme_t\000"
 12769      68656D65 
 12769      5F7400
 12770              	.LASF178:
 12771 06b9 6E756D5F 		.ascii	"num_tick_marks\000"
 12771      7469636B 
 12771      5F6D6172 
 12771      6B7300
 12772              	.LASF119:
 12773 06c8 7265616C 		.ascii	"realign\000"
 12773      69676E00 
 12774              	.LASF134:
 12775 06d0 4C565F53 		.ascii	"LV_SIGNAL_GET_TYPE\000"
 12775      49474E41 
 12775      4C5F4745 
 12775      545F5459 
 12775      504500
 12776              	.LASF350:
 12777 06e3 616E6365 		.ascii	"ancestor_signal\000"
 12777      73746F72 
 12777      5F736967 
 12777      6E616C00 
 12778              	.LASF221:
 12779 06f3 61726561 		.ascii	"area\000"
 12779      00
 12780              	.LASF170:
 12781 06f8 73746172 		.ascii	"start_point\000"
 12781      745F706F 
 12781      696E7400 
ARM GAS  C:\Users\tmj32\AppData\Local\Temp\ccrrExWC.s 			page 272


 12782              	.LASF257:
 12783 0704 6C765F63 		.ascii	"lv_chart_add_series\000"
 12783      68617274 
 12783      5F616464 
 12783      5F736572 
 12783      69657300 
 12784              	.LASF87:
 12785 0718 6C765F73 		.ascii	"lv_style_t\000"
 12785      74796C65 
 12785      5F7400
 12786              	.LASF68:
 12787 0723 696E6E65 		.ascii	"inner\000"
 12787      7200
 12788              	.LASF315:
 12789 0729 6369725F 		.ascii	"cir_a\000"
 12789      6100
 12790              	.LASF11:
 12791 072f 6C6F6E67 		.ascii	"long unsigned int\000"
 12791      20756E73 
 12791      69676E65 
 12791      6420696E 
 12791      7400
 12792              	.LASF206:
 12793 0741 68696E74 		.ascii	"hint\000"
 12793      00
 12794              	.LASF325:
 12795 0746 6C765F63 		.ascii	"lv_chart_draw_vertical_lines\000"
 12795      68617274 
 12795      5F647261 
 12795      775F7665 
 12795      72746963 
 12796              	.LASF301:
 12797 0763 70617261 		.ascii	"param\000"
 12797      6D00
 12798              	.LASF189:
 12799 0769 795F6178 		.ascii	"y_axis\000"
 12799      697300
 12800              	.LASF86:
 12801 0770 6C696E65 		.ascii	"line\000"
 12801      00
 12802              	.LASF143:
 12803 0775 4C565F53 		.ascii	"LV_SIGNAL_FOCUS\000"
 12803      49474E41 
 12803      4C5F464F 
 12803      43555300 
 12804              	.LASF36:
 12805 0785 4C565F4F 		.ascii	"LV_OPA_0\000"
 12805      50415F30 
 12805      00
 12806              	.LASF230:
 12807 078e 736C6964 		.ascii	"slider\000"
 12807      657200
 12808              	.LASF200:
 12809 0795 4C565F54 		.ascii	"LV_TXT_FLAG_EXPAND\000"
 12809      58545F46 
 12809      4C41475F 
 12809      45585041 
ARM GAS  C:\Users\tmj32\AppData\Local\Temp\ccrrExWC.s 			page 273


 12809      4E4400
 12810              	.LASF253:
 12811 07a8 636F7079 		.ascii	"copy\000"
 12811      00
 12812              	.LASF318:
 12813 07ad 6C765F63 		.ascii	"lv_chart_draw_cols\000"
 12813      68617274 
 12813      5F647261 
 12813      775F636F 
 12813      6C7300
 12814              	.LASF292:
 12815 07c0 6C765F63 		.ascii	"lv_color_mix\000"
 12815      6F6C6F72 
 12815      5F6D6978 
 12815      00
 12816              	.LASF146:
 12817 07cd 4C565F53 		.ascii	"LV_SIGNAL_GET_EDITABLE\000"
 12817      49474E41 
 12817      4C5F4745 
 12817      545F4544 
 12817      49544142 
 12818              	.LASF222:
 12819 07e4 6F6E656C 		.ascii	"oneline\000"
 12819      696E6500 
 12820              	.LASF279:
 12821 07ec 6C765F63 		.ascii	"lv_chart_set_y_tick_length\000"
 12821      68617274 
 12821      5F736574 
 12821      5F795F74 
 12821      69636B5F 
 12822              	.LASF179:
 12823 0807 6D616A6F 		.ascii	"major_tick_len\000"
 12823      725F7469 
 12823      636B5F6C 
 12823      656E00
 12824              	.LASF10:
 12825 0816 5F5F7569 		.ascii	"__uint32_t\000"
 12825      6E743332 
 12825      5F7400
 12826              	.LASF101:
 12827 0821 6576656E 		.ascii	"event_cb\000"
 12827      745F6362 
 12827      00
 12828              	.LASF67:
 12829 082a 72696768 		.ascii	"right\000"
 12829      7400
 12830              	.LASF105:
 12831 0830 7374796C 		.ascii	"style_p\000"
 12831      655F7000 
 12832              	.LASF317:
 12833 0838 7374796C 		.ascii	"style_point\000"
 12833      655F706F 
 12833      696E7400 
 12834              	.LASF12:
 12835 0844 6C6F6E67 		.ascii	"long long int\000"
 12835      206C6F6E 
 12835      6720696E 
ARM GAS  C:\Users\tmj32\AppData\Local\Temp\ccrrExWC.s 			page 274


 12835      7400
 12836              	.LASF355:
 12837 0852 433A5C55 		.ascii	"C:\\Users\\tmj32\\Documents\\TCNJ\\Senior_Project\\"
 12837      73657273 
 12837      5C746D6A 
 12837      33325C44 
 12837      6F63756D 
 12838 087f 4F736369 		.ascii	"Oscilloscope_Senior_Project\\tcom_engineering\\embe"
 12838      6C6C6F73 
 12838      636F7065 
 12838      5F53656E 
 12838      696F725F 
 12839 08b0 645F7377 		.ascii	"d_sw\\tcom_app\\tcom_app_psoc6_lvgl6\\tcom_displ_te"
 12839      5C74636F 
 12839      6D5F6170 
 12839      705C7463 
 12839      6F6D5F61 
 12840 08e0 73745F70 		.ascii	"st_psoc6.cydsn\000"
 12840      736F6336 
 12840      2E637964 
 12840      736E00
 12841              	.LASF62:
 12842 08ef 77696474 		.ascii	"width\000"
 12842      6800
 12843              	.LASF145:
 12844 08f5 4C565F53 		.ascii	"LV_SIGNAL_CONTROL\000"
 12844      49474E41 
 12844      4C5F434F 
 12844      4E54524F 
 12844      4C00
 12845              	.LASF65:
 12846 0907 626F7474 		.ascii	"bottom\000"
 12846      6F6D00
 12847              	.LASF99:
 12848 090e 6368696C 		.ascii	"child_ll\000"
 12848      645F6C6C 
 12848      00
 12849              	.LASF209:
 12850 0917 696E6469 		.ascii	"indic\000"
 12850      6300
 12851              	.LASF338:
 12852 091d 77686963 		.ascii	"which_axis\000"
 12852      685F6178 
 12852      697300
 12853              	.LASF116:
 12854 0928 70726F74 		.ascii	"protect\000"
 12854      65637400 
 12855              	.LASF255:
 12856 0930 6578745F 		.ascii	"ext_copy\000"
 12856      636F7079 
 12856      00
 12857              	.LASF294:
 12858 0939 6D61736B 		.ascii	"mask\000"
 12858      00
 12859              	.LASF243:
 12860 093e 74616276 		.ascii	"tabview\000"
 12860      69657700 
ARM GAS  C:\Users\tmj32\AppData\Local\Temp\ccrrExWC.s 			page 275


 12861              	.LASF112:
 12862 0946 70617265 		.ascii	"parent_event\000"
 12862      6E745F65 
 12862      76656E74 
 12862      00
 12863              	.LASF127:
 12864 0953 4C565F53 		.ascii	"LV_SIGNAL_CLEANUP\000"
 12864      49474E41 
 12864      4C5F434C 
 12864      45414E55 
 12864      5000
 12865              	.LASF153:
 12866 0965 616C6967 		.ascii	"align\000"
 12866      6E00
 12867              	.LASF35:
 12868 096b 4C565F4F 		.ascii	"LV_OPA_TRANSP\000"
 12868      50415F54 
 12868      52414E53 
 12868      5000
 12869              	.LASF82:
 12870 0979 676C6173 		.ascii	"glass\000"
 12870      7300
 12871              	.LASF307:
 12872 097f 6469765F 		.ascii	"div_i_start\000"
 12872      695F7374 
 12872      61727400 
 12873              	.LASF290:
 12874 098b 6C765F63 		.ascii	"lv_chart_refresh\000"
 12874      68617274 
 12874      5F726566 
 12874      72657368 
 12874      00
 12875              	.LASF14:
 12876 099c 756E7369 		.ascii	"unsigned int\000"
 12876      676E6564 
 12876      20696E74 
 12876      00
 12877              	.LASF306:
 12878 09a9 6469765F 		.ascii	"div_i_end\000"
 12878      695F656E 
 12878      6400
 12879              	.LASF128:
 12880 09b3 4C565F53 		.ascii	"LV_SIGNAL_CHILD_CHG\000"
 12880      49474E41 
 12880      4C5F4348 
 12880      494C445F 
 12880      43484700 
 12881              	.LASF284:
 12882 09c7 6C765F63 		.ascii	"lv_chart_set_margin\000"
 12882      68617274 
 12882      5F736574 
 12882      5F6D6172 
 12882      67696E00 
 12883              	.LASF328:
 12884 09db 6C765F63 		.ascii	"lv_chart_create_label_iter\000"
 12884      68617274 
 12884      5F637265 
ARM GAS  C:\Users\tmj32\AppData\Local\Temp\ccrrExWC.s 			page 276


 12884      6174655F 
 12884      6C616265 
 12885              	.LASF314:
 12886 09f6 6C765F63 		.ascii	"lv_chart_draw_points\000"
 12886      68617274 
 12886      5F647261 
 12886      775F706F 
 12886      696E7473 
 12887              	.LASF260:
 12888 0a0b 6C765F63 		.ascii	"lv_chart_clear_serie\000"
 12888      68617274 
 12888      5F636C65 
 12888      61725F73 
 12888      65726965 
 12889              	.LASF237:
 12890 0a20 6D626F78 		.ascii	"mbox\000"
 12890      00
 12891              	.LASF203:
 12892 0a25 74676C5F 		.ascii	"tgl_rel\000"
 12892      72656C00 
 12893              	.LASF288:
 12894 0a2d 6C765F63 		.ascii	"lv_chart_get_series_width\000"
 12894      68617274 
 12894      5F676574 
 12894      5F736572 
 12894      6965735F 
 12895              	.LASF332:
 12896 0a47 6C616265 		.ascii	"label_len\000"
 12896      6C5F6C65 
 12896      6E00
 12897              	.LASF194:
 12898 0a51 73657269 		.ascii	"series\000"
 12898      657300
 12899              	.LASF154:
 12900 0a58 6175746F 		.ascii	"auto_realign\000"
 12900      5F726561 
 12900      6C69676E 
 12900      00
 12901              	.LASF351:
 12902 0a65 6C765F73 		.ascii	"lv_style_plain\000"
 12902      74796C65 
 12902      5F706C61 
 12902      696E00
 12903              	.LASF192:
 12904 0a74 6D617267 		.ascii	"margin\000"
 12904      696E00
 12905              	.LASF298:
 12906 0a7b 756E696F 		.ascii	"union_ok\000"
 12906      6E5F6F6B 
 12906      00
 12907              	.LASF120:
 12908 0a84 4C565F44 		.ascii	"LV_DESIGN_DRAW_MAIN\000"
 12908      45534947 
 12908      4E5F4452 
 12908      41575F4D 
 12908      41494E00 
 12909              	.LASF28:
ARM GAS  C:\Users\tmj32\AppData\Local\Temp\ccrrExWC.s 			page 277


 12910 0a98 6C765F66 		.ascii	"lv_font_glyph_dsc_t\000"
 12910      6F6E745F 
 12910      676C7970 
 12910      685F6473 
 12910      635F7400 
 12911              	.LASF343:
 12912 0aac 73697A65 		.ascii	"size\000"
 12912      00
 12913              	.LASF240:
 12914 0ab1 6C697374 		.ascii	"list\000"
 12914      00
 12915              	.LASF70:
 12916 0ab6 67726164 		.ascii	"grad_color\000"
 12916      5F636F6C 
 12916      6F7200
 12917              	.LASF238:
 12918 0ac1 70616765 		.ascii	"page\000"
 12918      00
 12919              	.LASF211:
 12920 0ac6 6B6E6F62 		.ascii	"knob_off\000"
 12920      5F6F6666 
 12920      00
 12921              	.LASF232:
 12922 0acf 67617567 		.ascii	"gauge\000"
 12922      6500
 12923              	.LASF136:
 12924 0ad5 4C565F53 		.ascii	"LV_SIGNAL_PRESSING\000"
 12924      49474E41 
 12924      4C5F5052 
 12924      45535349 
 12924      4E4700
 12925              	.LASF46:
 12926 0ae8 4C565F4F 		.ascii	"LV_OPA_100\000"
 12926      50415F31 
 12926      303000
 12927              	.LASF176:
 12928 0af3 6C697374 		.ascii	"list_of_values\000"
 12928      5F6F665F 
 12928      76616C75 
 12928      657300
 12929              	.LASF272:
 12930 0b02 6461726B 		.ascii	"dark_eff\000"
 12930      5F656666 
 12930      00
 12931              	.LASF268:
 12932 0b0b 6E65775F 		.ascii	"new_points\000"
 12932      706F696E 
 12932      747300
 12933              	.LASF335:
 12934 0b16 7469636B 		.ascii	"tick_num\000"
 12934      5F6E756D 
 12934      00
 12935              	.LASF282:
 12936 0b1f 6C765F63 		.ascii	"lv_chart_set_y_tick_texts\000"
 12936      68617274 
 12936      5F736574 
 12936      5F795F74 
ARM GAS  C:\Users\tmj32\AppData\Local\Temp\ccrrExWC.s 			page 278


 12936      69636B5F 
 12937              	.LASF90:
 12938 0b39 6C765F72 		.ascii	"lv_res_t\000"
 12938      65735F74 
 12938      00
 12939              	.LASF263:
 12940 0b42 76646976 		.ascii	"vdiv\000"
 12940      00
 12941              	.LASF22:
 12942 0b47 6C6F6E67 		.ascii	"long double\000"
 12942      20646F75 
 12942      626C6500 
 12943              	.LASF157:
 12944 0b53 6C765F64 		.ascii	"lv_drag_dir_t\000"
 12944      7261675F 
 12944      6469725F 
 12944      7400
 12945              	.LASF246:
 12946 0b61 7374796C 		.ascii	"style\000"
 12946      6500
 12947              	.LASF104:
 12948 0b67 6578745F 		.ascii	"ext_attr\000"
 12948      61747472 
 12948      00
 12949              	.LASF235:
 12950 0b70 63616C65 		.ascii	"calendar\000"
 12950      6E646172 
 12950      00
 12951              	.LASF123:
 12952 0b79 6C765F64 		.ascii	"lv_design_mode_t\000"
 12952      65736967 
 12952      6E5F6D6F 
 12952      64655F74 
 12952      00
 12953              	.LASF80:
 12954 0b8a 73756270 		.ascii	"subpx\000"
 12954      7800
 12955              	.LASF47:
 12956 0b90 4C565F4F 		.ascii	"LV_OPA_COVER\000"
 12956      50415F43 
 12956      4F564552 
 12956      00
 12957              	.LASF137:
 12958 0b9d 4C565F53 		.ascii	"LV_SIGNAL_PRESS_LOST\000"
 12958      49474E41 
 12958      4C5F5052 
 12958      4553535F 
 12958      4C4F5354 
 12959              	.LASF250:
 12960 0bb2 6974656D 		.ascii	"items_left\000"
 12960      735F6C65 
 12960      667400
 12961              	.LASF142:
 12962 0bbd 4C565F53 		.ascii	"LV_SIGNAL_DRAG_END\000"
 12962      49474E41 
 12962      4C5F4452 
 12962      41475F45 
ARM GAS  C:\Users\tmj32\AppData\Local\Temp\ccrrExWC.s 			page 279


 12962      4E4400
 12963              	.LASF326:
 12964 0bd0 6C765F63 		.ascii	"lv_chart_draw_areas\000"
 12964      68617274 
 12964      5F647261 
 12964      775F6172 
 12964      65617300 
 12965              	.LASF130:
 12966 0be4 4C565F53 		.ascii	"LV_SIGNAL_PARENT_SIZE_CHG\000"
 12966      49474E41 
 12966      4C5F5041 
 12966      52454E54 
 12966      5F53495A 
 12967              	.LASF138:
 12968 0bfe 4C565F53 		.ascii	"LV_SIGNAL_RELEASED\000"
 12968      49474E41 
 12968      4C5F5245 
 12968      4C454153 
 12968      454400
 12969              	.LASF69:
 12970 0c11 6D61696E 		.ascii	"main_color\000"
 12970      5F636F6C 
 12970      6F7200
 12971              	.LASF0:
 12972 0c1c 5F5F696E 		.ascii	"__int8_t\000"
 12972      74385F74 
 12972      00
 12973              	.LASF147:
 12974 0c25 6C765F73 		.ascii	"lv_signal_t\000"
 12974      69676E61 
 12974      6C5F7400 
 12975              	.LASF302:
 12976 0c31 64617461 		.ascii	"datal\000"
 12976      6C00
 12977              	.LASF13:
 12978 0c37 6C6F6E67 		.ascii	"long long unsigned int\000"
 12978      206C6F6E 
 12978      6720756E 
 12978      7369676E 
 12978      65642069 
 12979              	.LASF267:
 12980 0c4e 706F696E 		.ascii	"point_cnt_old\000"
 12980      745F636E 
 12980      745F6F6C 
 12980      6400
 12981              	.LASF162:
 12982 0c5c 4C565F43 		.ascii	"LV_CHART_TYPE_POINT\000"
 12982      48415254 
 12982      5F545950 
 12982      455F504F 
 12982      494E5400 
 12983              	.LASF164:
 12984 0c70 4C565F43 		.ascii	"LV_CHART_TYPE_AREA\000"
 12984      48415254 
 12984      5F545950 
 12984      455F4152 
 12984      454100
ARM GAS  C:\Users\tmj32\AppData\Local\Temp\ccrrExWC.s 			page 280


 12985              	.LASF18:
 12986 0c83 75696E74 		.ascii	"uint16_t\000"
 12986      31365F74 
 12986      00
 12987              	.LASF89:
 12988 0c8c 4C565F52 		.ascii	"LV_RES_OK\000"
 12988      45535F4F 
 12988      4B00
 12989              	.LASF53:
 12990 0c96 6C765F63 		.ascii	"lv_color_t\000"
 12990      6F6C6F72 
 12990      5F7400
 12991              	.LASF269:
 12992 0ca1 6C765F63 		.ascii	"lv_chart_set_series_opa\000"
 12992      68617274 
 12992      5F736574 
 12992      5F736572 
 12992      6965735F 
 12993              	.LASF183:
 12994 0cb9 73657269 		.ascii	"series_ll\000"
 12994      65735F6C 
 12994      6C00
 12995              	.LASF185:
 12996 0cc3 796D6178 		.ascii	"ymax\000"
 12996      00
 12997              	.LASF289:
 12998 0cc8 6C765F63 		.ascii	"lv_chart_get_series_darking\000"
 12998      68617274 
 12998      5F676574 
 12998      5F736572 
 12998      6965735F 
 12999              	.LASF181:
 13000 0ce4 6C765F63 		.ascii	"lv_chart_axis_cfg_t\000"
 13000      68617274 
 13000      5F617869 
 13000      735F6366 
 13000      675F7400 
 13001              	.LASF175:
 13002 0cf8 6C765F63 		.ascii	"lv_chart_axis_options_t\000"
 13002      68617274 
 13002      5F617869 
 13002      735F6F70 
 13002      74696F6E 
 13003              	.LASF233:
 13004 0d10 7072656C 		.ascii	"preload\000"
 13004      6F616400 
 13005              	.LASF37:
 13006 0d18 4C565F4F 		.ascii	"LV_OPA_10\000"
 13006      50415F31 
 13006      3000
 13007              	.LASF160:
 13008 0d22 4C565F43 		.ascii	"LV_CHART_TYPE_LINE\000"
 13008      48415254 
 13008      5F545950 
 13008      455F4C49 
 13008      4E4500
 13009              	.LASF353:
ARM GAS  C:\Users\tmj32\AppData\Local\Temp\ccrrExWC.s 			page 281


 13010 0d35 474E5520 		.ascii	"GNU C11 5.4.1 20160609 (release) [ARM/embedded-5-br"
 13010      43313120 
 13010      352E342E 
 13010      31203230 
 13010      31363036 
 13011 0d68 616E6368 		.ascii	"anch revision 237715] -mcpu=cortex-m4 -mfloat-abi=s"
 13011      20726576 
 13011      6973696F 
 13011      6E203233 
 13011      37373135 
 13012 0d9b 6F667466 		.ascii	"oftfp -mfpu=fpv4-sp-d16 -mthumb -g -O0 -ffunction-s"
 13012      70202D6D 
 13012      6670753D 
 13012      66707634 
 13012      2D73702D 
 13013 0dce 65637469 		.ascii	"ections -ffat-lto-objects\000"
 13013      6F6E7320 
 13013      2D666661 
 13013      742D6C74 
 13013      6F2D6F62 
 13014              	.LASF208:
 13015 0de8 6465636F 		.ascii	"decor\000"
 13015      7200
 13016              	.LASF336:
 13017 0dee 61786973 		.ascii	"axis\000"
 13017      00
 13018              	.LASF228:
 13019 0df3 696D6762 		.ascii	"imgbtn\000"
 13019      746E00
 13020              	.LASF4:
 13021 0dfa 5F5F696E 		.ascii	"__int16_t\000"
 13021      7431365F 
 13021      7400
 13022              	.LASF226:
 13023 0e04 70616E65 		.ascii	"panel\000"
 13023      6C00
 13024              	.LASF51:
 13025 0e0a 66756C6C 		.ascii	"full\000"
 13025      00
 13026              	.LASF339:
 13027 0e0f 6E756D5F 		.ascii	"num_of_labels\000"
 13027      6F665F6C 
 13027      6162656C 
 13027      7300
 13028              	.LASF38:
 13029 0e1d 4C565F4F 		.ascii	"LV_OPA_20\000"
 13029      50415F32 
 13029      3000
 13030              	.LASF61:
 13031 0e27 636F6C6F 		.ascii	"color\000"
 13031      7200
 13032              	.LASF354:
 13033 0e2d 2E2E5C2E 		.ascii	"..\\..\\..\\lvgl\\version_6.1.2\\lvgl\\src\\lv_objx"
 13033      2E5C2E2E 
 13033      5C6C7667 
 13033      6C5C7665 
 13033      7273696F 
ARM GAS  C:\Users\tmj32\AppData\Local\Temp\ccrrExWC.s 			page 282


 13034 0e59 5C6C765F 		.ascii	"\\lv_chart.c\000"
 13034      63686172 
 13034      742E6300 
 13035              	.LASF266:
 13036 0e65 6C765F63 		.ascii	"lv_chart_set_point_count\000"
 13036      68617274 
 13036      5F736574 
 13036      5F706F69 
 13036      6E745F63 
 13037              	.LASF78:
 13038 0e7e 6C696E65 		.ascii	"line_space\000"
 13038      5F737061 
 13038      636500
 13039              	.LASF151:
 13040 0e89 786F6673 		.ascii	"xofs\000"
 13040      00
 13041              	.LASF158:
 13042 0e8e 6C765F6F 		.ascii	"lv_obj_t\000"
 13042      626A5F74 
 13042      00
 13043              	.LASF196:
 13044 0e97 4C565F43 		.ascii	"LV_CHART_STYLE_MAIN\000"
 13044      48415254 
 13044      5F535459 
 13044      4C455F4D 
 13044      41494E00 
 13045              	.LASF60:
 13046 0eab 6C765F73 		.ascii	"lv_shadow_type_t\000"
 13046      6861646F 
 13046      775F7479 
 13046      70655F74 
 13046      00
 13047              	.LASF107:
 13048 0ebc 64726167 		.ascii	"drag\000"
 13048      00
 13049              	.LASF352:
 13050 0ec1 6C765F73 		.ascii	"lv_style_pretty\000"
 13050      74796C65 
 13050      5F707265 
 13050      74747900 
 13051              	.LASF331:
 13052 0ed1 6C765F63 		.ascii	"lv_chart_get_next_label\000"
 13052      68617274 
 13052      5F676574 
 13052      5F6E6578 
 13052      745F6C61 
 13053              	.LASF251:
 13054 0ee9 69735F72 		.ascii	"is_reverse_iter\000"
 13054      65766572 
 13054      73655F69 
 13054      74657200 
 13055              	.LASF197:
 13056 0ef9 6C765F63 		.ascii	"lv_chart_style_t\000"
 13056      68617274 
 13056      5F737479 
 13056      6C655F74 
 13056      00
ARM GAS  C:\Users\tmj32\AppData\Local\Temp\ccrrExWC.s 			page 283


 13057              	.LASF274:
 13058 0f0a 6C765F63 		.ascii	"lv_chart_set_points\000"
 13058      68617274 
 13058      5F736574 
 13058      5F706F69 
 13058      6E747300 
 13059              	.LASF259:
 13060 0f1e 73657269 		.ascii	"serie\000"
 13060      6500
 13061              	.LASF98:
 13062 0f24 5F6C765F 		.ascii	"_lv_obj_t\000"
 13062      6F626A5F 
 13062      7400
 13063              	.LASF76:
 13064 0f2e 666F6E74 		.ascii	"font\000"
 13064      00
 13065              	.LASF77:
 13066 0f33 6C657474 		.ascii	"letter_space\000"
 13066      65725F73 
 13066      70616365 
 13066      00
 13067              	.LASF39:
 13068 0f40 4C565F4F 		.ascii	"LV_OPA_30\000"
 13068      50415F33 
 13068      3000
 13069              	.LASF329:
 13070 0f4a 69746572 		.ascii	"iterator_dir\000"
 13070      61746F72 
 13070      5F646972 
 13070      00
 13071              	.LASF114:
 13072 0f57 62617365 		.ascii	"base_dir\000"
 13072      5F646972 
 13072      00
 13073              	.LASF25:
 13074 0f60 626F785F 		.ascii	"box_h\000"
 13074      6800
 13075              	.LASF327:
 13076 0f66 74726961 		.ascii	"triangle_points\000"
 13076      6E676C65 
 13076      5F706F69 
 13076      6E747300 
 13077              	.LASF150:
 13078 0f76 62617365 		.ascii	"base\000"
 13078      00
 13079              	.LASF190:
 13080 0f7b 785F6178 		.ascii	"x_axis\000"
 13080      697300
 13081              	.LASF24:
 13082 0f82 626F785F 		.ascii	"box_w\000"
 13082      7700
 13083              	.LASF5:
 13084 0f88 73686F72 		.ascii	"short int\000"
 13084      7420696E 
 13084      7400
 13085              	.LASF32:
 13086 0f92 62617365 		.ascii	"base_line\000"
ARM GAS  C:\Users\tmj32\AppData\Local\Temp\ccrrExWC.s 			page 284


 13086      5F6C696E 
 13086      6500
 13087              	.LASF95:
 13088 0f9c 6C765F6C 		.ascii	"lv_ll_t\000"
 13088      6C5F7400 
 13089              	.LASF295:
 13090 0fa4 6D6F6465 		.ascii	"mode\000"
 13090      00
 13091              	.LASF310:
 13092 0fa9 6C765F63 		.ascii	"lv_chart_draw_lines\000"
 13092      68617274 
 13092      5F647261 
 13092      775F6C69 
 13092      6E657300 
 13093              	.LASF169:
 13094 0fbd 706F696E 		.ascii	"points\000"
 13094      747300
 13095              	.LASF40:
 13096 0fc4 4C565F4F 		.ascii	"LV_OPA_40\000"
 13096      50415F34 
 13096      3000
 13097              	.LASF17:
 13098 0fce 696E7431 		.ascii	"int16_t\000"
 13098      365F7400 
 13099              	.LASF344:
 13100 0fd6 6C765F63 		.ascii	"lv_chart_draw_x_ticks\000"
 13100      68617274 
 13100      5F647261 
 13100      775F785F 
 13100      7469636B 
 13101              	.LASF129:
 13102 0fec 4C565F53 		.ascii	"LV_SIGNAL_CORD_CHG\000"
 13102      49474E41 
 13102      4C5F434F 
 13102      52445F43 
 13102      484700
 13103              	.LASF100:
 13104 0fff 636F6F72 		.ascii	"coords\000"
 13104      647300
 13105              	.LASF239:
 13106 1006 7370696E 		.ascii	"spinbox\000"
 13106      626F7800 
 13107              	.LASF280:
 13108 100e 6C765F63 		.ascii	"lv_chart_set_secondary_y_tick_length\000"
 13108      68617274 
 13108      5F736574 
 13108      5F736563 
 13108      6F6E6461 
 13109              	.LASF291:
 13110 1033 6C765F63 		.ascii	"lv_chart_get_margin\000"
 13110      68617274 
 13110      5F676574 
 13110      5F6D6172 
 13110      67696E00 
 13111              	.LASF342:
 13112 1047 69746572 		.ascii	"iter\000"
 13112      00
ARM GAS  C:\Users\tmj32\AppData\Local\Temp\ccrrExWC.s 			page 285


 13113              	.LASF187:
 13114 104c 76646976 		.ascii	"vdiv_cnt\000"
 13114      5F636E74 
 13114      00
 13115              	.LASF111:
 13116 1055 6F70615F 		.ascii	"opa_scale_en\000"
 13116      7363616C 
 13116      655F656E 
 13116      00
 13117              	.LASF215:
 13118 1062 6461795F 		.ascii	"day_names\000"
 13118      6E616D65 
 13118      7300
 13119              	.LASF73:
 13120 106c 73686164 		.ascii	"shadow\000"
 13120      6F7700
 13121              	.LASF41:
 13122 1073 4C565F4F 		.ascii	"LV_OPA_50\000"
 13122      50415F35 
 13122      3000
 13123              	.LASF276:
 13124 107d 6C765F63 		.ascii	"lv_chart_set_next\000"
 13124      68617274 
 13124      5F736574 
 13124      5F6E6578 
 13124      7400
 13125              	.LASF248:
 13126 108f 6C697374 		.ascii	"list_start\000"
 13126      5F737461 
 13126      727400
 13127              	.LASF109:
 13128 109a 64726167 		.ascii	"drag_parent\000"
 13128      5F706172 
 13128      656E7400 
 13129              	.LASF273:
 13130 10a6 6C765F63 		.ascii	"lv_chart_init_points\000"
 13130      68617274 
 13130      5F696E69 
 13130      745F706F 
 13130      696E7473 
 13131              	.LASF296:
 13132 10bb 6D61736B 		.ascii	"mask_tmp\000"
 13132      5F746D70 
 13132      00
 13133              	.LASF132:
 13134 10c4 4C565F53 		.ascii	"LV_SIGNAL_BASE_DIR_CHG\000"
 13134      49474E41 
 13134      4C5F4241 
 13134      53455F44 
 13134      49525F43 
 13135              	.LASF337:
 13136 10db 6C765F63 		.ascii	"lv_chart_draw_y_ticks\000"
 13136      68617274 
 13136      5F647261 
 13136      775F795F 
 13136      7469636B 
 13137              	.LASF249:
ARM GAS  C:\Users\tmj32\AppData\Local\Temp\ccrrExWC.s 			page 286


 13138 10f1 63757272 		.ascii	"current_pos\000"
 13138      656E745F 
 13138      706F7300 
 13139              	.LASF225:
 13140 10fd 636F6E74 		.ascii	"content\000"
 13140      656E7400 
 13141              	.LASF74:
 13142 1105 70616464 		.ascii	"padding\000"
 13142      696E6700 
 13143              	.LASF102:
 13144 110d 7369676E 		.ascii	"signal_cb\000"
 13144      616C5F63 
 13144      6200
 13145              	.LASF316:
 13146 1117 73657269 		.ascii	"series_cnt\000"
 13146      65735F63 
 13146      6E7400
 13147              	.LASF42:
 13148 1122 4C565F4F 		.ascii	"LV_OPA_60\000"
 13148      50415F36 
 13148      3000
 13149              	.LASF285:
 13150 112c 6C765F63 		.ascii	"lv_chart_get_type\000"
 13150      68617274 
 13150      5F676574 
 13150      5F747970 
 13150      6500
 13151              	.LASF20:
 13152 113e 75696E74 		.ascii	"uint32_t\000"
 13152      33325F74 
 13152      00
 13153              	.LASF309:
 13154 1147 795F6F66 		.ascii	"y_ofs\000"
 13154      7300
 13155              	.LASF161:
 13156 114d 4C565F43 		.ascii	"LV_CHART_TYPE_COLUMN\000"
 13156      48415254 
 13156      5F545950 
 13156      455F434F 
 13156      4C554D4E 
 13157              	.LASF305:
 13158 1162 6469765F 		.ascii	"div_i\000"
 13158      6900
 13159              	.LASF303:
 13160 1168 6C765F63 		.ascii	"lv_chart_set_style\000"
 13160      68617274 
 13160      5F736574 
 13160      5F737479 
 13160      6C6500
 13161              	.LASF297:
 13162 117b 61646A75 		.ascii	"adjusted_mask\000"
 13162      73746564 
 13162      5F6D6173 
 13162      6B00
 13163              	.LASF182:
 13164 1189 6461726B 		.ascii	"dark\000"
 13164      00
ARM GAS  C:\Users\tmj32\AppData\Local\Temp\ccrrExWC.s 			page 287


 13165              	.LASF49:
 13166 118e 67726565 		.ascii	"green\000"
 13166      6E00
 13167              	.LASF34:
 13168 1194 6C765F66 		.ascii	"lv_font_t\000"
 13168      6F6E745F 
 13168      7400
 13169              	.LASF115:
 13170 119e 72657365 		.ascii	"reserved\000"
 13170      72766564 
 13170      00
 13171              	.LASF341:
 13172 11a7 69746572 		.ascii	"iter_dir\000"
 13172      5F646972 
 13172      00
 13173              	.LASF43:
 13174 11b0 4C565F4F 		.ascii	"LV_OPA_70\000"
 13174      50415F37 
 13174      3000
 13175              	.LASF7:
 13176 11ba 73686F72 		.ascii	"short unsigned int\000"
 13176      7420756E 
 13176      7369676E 
 13176      65642069 
 13176      6E7400
 13177              	.LASF21:
 13178 11cd 6C765F63 		.ascii	"lv_coord_t\000"
 13178      6F6F7264 
 13178      5F7400
 13179              	.LASF346:
 13180 11d8 6C765F63 		.ascii	"lv_chart_inv_lines\000"
 13180      68617274 
 13180      5F696E76 
 13180      5F6C696E 
 13180      657300
 13181              	.LASF271:
 13182 11eb 6C765F63 		.ascii	"lv_chart_set_series_darking\000"
 13182      68617274 
 13182      5F736574 
 13182      5F736572 
 13182      6965735F 
 13183              	.LASF72:
 13184 1207 626F7264 		.ascii	"border\000"
 13184      657200
 13185              	.LASF229:
 13186 120e 6C616265 		.ascii	"label\000"
 13186      6C00
 13187              	.LASF29:
 13188 1214 6765745F 		.ascii	"get_glyph_dsc\000"
 13188      676C7970 
 13188      685F6473 
 13188      6300
 13189              	.LASF8:
 13190 1222 5F5F696E 		.ascii	"__int32_t\000"
 13190      7433325F 
 13190      7400
 13191              	.LASF159:
ARM GAS  C:\Users\tmj32\AppData\Local\Temp\ccrrExWC.s 			page 288


 13192 122c 4C565F43 		.ascii	"LV_CHART_TYPE_NONE\000"
 13192      48415254 
 13192      5F545950 
 13192      455F4E4F 
 13192      4E4500
 13193              	.LASF59:
 13194 123f 6C765F62 		.ascii	"lv_border_part_t\000"
 13194      6F726465 
 13194      725F7061 
 13194      72745F74 
 13194      00
 13195              	.LASF177:
 13196 1250 6F707469 		.ascii	"options\000"
 13196      6F6E7300 
 13197              	.LASF44:
 13198 1258 4C565F4F 		.ascii	"LV_OPA_80\000"
 13198      50415F38 
 13198      3000
 13199              	.LASF168:
 13200 1262 6C765F63 		.ascii	"lv_chart_update_mode_t\000"
 13200      68617274 
 13200      5F757064 
 13200      6174655F 
 13200      6D6F6465 
 13201              	.LASF155:
 13202 1279 6F726967 		.ascii	"origo_align\000"
 13202      6F5F616C 
 13202      69676E00 
 13203              	.LASF210:
 13204 1285 6B6E6F62 		.ascii	"knob\000"
 13204      00
 13205              	.LASF184:
 13206 128a 796D696E 		.ascii	"ymin\000"
 13206      00
 13207              	.LASF75:
 13208 128f 73656C5F 		.ascii	"sel_color\000"
 13208      636F6C6F 
 13208      7200
 13209              	.LASF97:
 13210 1299 5F6C765F 		.ascii	"_lv_font_struct\000"
 13210      666F6E74 
 13210      5F737472 
 13210      75637400 
 13211              	.LASF63:
 13212 12a9 70617274 		.ascii	"part\000"
 13212      00
 13213              	.LASF92:
 13214 12ae 6E5F7369 		.ascii	"n_size\000"
 13214      7A6500
 13215              	.LASF223:
 13216 12b5 63757273 		.ascii	"cursor\000"
 13216      6F7200
 13217              	.LASF124:
 13218 12bc 6C765F64 		.ascii	"lv_design_cb_t\000"
 13218      65736967 
 13218      6E5F6362 
 13218      5F7400
ARM GAS  C:\Users\tmj32\AppData\Local\Temp\ccrrExWC.s 			page 289


 13219              	.LASF45:
 13220 12cb 4C565F4F 		.ascii	"LV_OPA_90\000"
 13220      50415F39 
 13220      3000
 13221              	.LASF117:
 13222 12d5 6F70615F 		.ascii	"opa_scale\000"
 13222      7363616C 
 13222      6500
 13223              	.LASF242:
 13224 12df 726F6C6C 		.ascii	"roller\000"
 13224      657200
 13225              		.ident	"GCC: (GNU Tools for ARM Embedded Processors) 5.4.1 20160609 (release) [ARM/embedded-5-bran
