ARM GAS  C:\Users\tmj32\AppData\Local\Temp\ccH9iEPr.s 			page 1


   1              		.syntax unified
   2              		.cpu cortex-m4
   3              		.eabi_attribute 27, 1
   4              		.fpu fpv4-sp-d16
   5              		.eabi_attribute 20, 1
   6              		.eabi_attribute 21, 1
   7              		.eabi_attribute 23, 3
   8              		.eabi_attribute 24, 1
   9              		.eabi_attribute 25, 1
  10              		.eabi_attribute 26, 1
  11              		.eabi_attribute 30, 6
  12              		.eabi_attribute 34, 1
  13              		.eabi_attribute 18, 4
  14              		.thumb
  15              		.syntax unified
  16              		.file	"lv_cb.c"
  17              		.text
  18              	.Ltext0:
  19              		.cfi_sections	.debug_frame
  20              		.section	.text.lv_font_get_line_height,"ax",%progbits
  21              		.align	2
  22              		.thumb
  23              		.thumb_func
  24              		.type	lv_font_get_line_height, %function
  25              	lv_font_get_line_height:
  26              	.LFB0:
  27              		.file 1 "..\\..\\..\\lvgl\\version_6.1.2\\lvgl\\src\\lv_objx\\../lv_core/../lv_font/lv_font.h"
   1:..\..\..\lvgl\version_6.1.2\lvgl\src\lv_objx\../lv_core/../lv_font/lv_font.h **** /**
   2:..\..\..\lvgl\version_6.1.2\lvgl\src\lv_objx\../lv_core/../lv_font/lv_font.h ****  * @file lv_font.h
   3:..\..\..\lvgl\version_6.1.2\lvgl\src\lv_objx\../lv_core/../lv_font/lv_font.h ****  *
   4:..\..\..\lvgl\version_6.1.2\lvgl\src\lv_objx\../lv_core/../lv_font/lv_font.h ****  */
   5:..\..\..\lvgl\version_6.1.2\lvgl\src\lv_objx\../lv_core/../lv_font/lv_font.h **** 
   6:..\..\..\lvgl\version_6.1.2\lvgl\src\lv_objx\../lv_core/../lv_font/lv_font.h **** #ifndef LV_FONT_H
   7:..\..\..\lvgl\version_6.1.2\lvgl\src\lv_objx\../lv_core/../lv_font/lv_font.h **** #define LV_FONT_H
   8:..\..\..\lvgl\version_6.1.2\lvgl\src\lv_objx\../lv_core/../lv_font/lv_font.h **** 
   9:..\..\..\lvgl\version_6.1.2\lvgl\src\lv_objx\../lv_core/../lv_font/lv_font.h **** #ifdef __cplusplus
  10:..\..\..\lvgl\version_6.1.2\lvgl\src\lv_objx\../lv_core/../lv_font/lv_font.h **** extern "C" {
  11:..\..\..\lvgl\version_6.1.2\lvgl\src\lv_objx\../lv_core/../lv_font/lv_font.h **** #endif
  12:..\..\..\lvgl\version_6.1.2\lvgl\src\lv_objx\../lv_core/../lv_font/lv_font.h **** 
  13:..\..\..\lvgl\version_6.1.2\lvgl\src\lv_objx\../lv_core/../lv_font/lv_font.h **** /*********************
  14:..\..\..\lvgl\version_6.1.2\lvgl\src\lv_objx\../lv_core/../lv_font/lv_font.h ****  *      INCLUDES
  15:..\..\..\lvgl\version_6.1.2\lvgl\src\lv_objx\../lv_core/../lv_font/lv_font.h ****  *********************/
  16:..\..\..\lvgl\version_6.1.2\lvgl\src\lv_objx\../lv_core/../lv_font/lv_font.h **** #ifdef LV_CONF_INCLUDE_SIMPLE
  17:..\..\..\lvgl\version_6.1.2\lvgl\src\lv_objx\../lv_core/../lv_font/lv_font.h **** #include "lv_conf.h"
  18:..\..\..\lvgl\version_6.1.2\lvgl\src\lv_objx\../lv_core/../lv_font/lv_font.h **** #else
  19:..\..\..\lvgl\version_6.1.2\lvgl\src\lv_objx\../lv_core/../lv_font/lv_font.h **** #include "../../../lv_conf.h"
  20:..\..\..\lvgl\version_6.1.2\lvgl\src\lv_objx\../lv_core/../lv_font/lv_font.h **** #endif
  21:..\..\..\lvgl\version_6.1.2\lvgl\src\lv_objx\../lv_core/../lv_font/lv_font.h **** 
  22:..\..\..\lvgl\version_6.1.2\lvgl\src\lv_objx\../lv_core/../lv_font/lv_font.h **** #include <stdint.h>
  23:..\..\..\lvgl\version_6.1.2\lvgl\src\lv_objx\../lv_core/../lv_font/lv_font.h **** #include <stddef.h>
  24:..\..\..\lvgl\version_6.1.2\lvgl\src\lv_objx\../lv_core/../lv_font/lv_font.h **** #include <stdbool.h>
  25:..\..\..\lvgl\version_6.1.2\lvgl\src\lv_objx\../lv_core/../lv_font/lv_font.h **** 
  26:..\..\..\lvgl\version_6.1.2\lvgl\src\lv_objx\../lv_core/../lv_font/lv_font.h **** #include "lv_symbol_def.h"
  27:..\..\..\lvgl\version_6.1.2\lvgl\src\lv_objx\../lv_core/../lv_font/lv_font.h **** 
  28:..\..\..\lvgl\version_6.1.2\lvgl\src\lv_objx\../lv_core/../lv_font/lv_font.h **** /*********************
  29:..\..\..\lvgl\version_6.1.2\lvgl\src\lv_objx\../lv_core/../lv_font/lv_font.h ****  *      DEFINES
  30:..\..\..\lvgl\version_6.1.2\lvgl\src\lv_objx\../lv_core/../lv_font/lv_font.h ****  *********************/
ARM GAS  C:\Users\tmj32\AppData\Local\Temp\ccH9iEPr.s 			page 2


  31:..\..\..\lvgl\version_6.1.2\lvgl\src\lv_objx\../lv_core/../lv_font/lv_font.h **** /*Number of fractional digits in the advanced width (`adv_w`) field of `lv_font_glyph_dsc_t`*/
  32:..\..\..\lvgl\version_6.1.2\lvgl\src\lv_objx\../lv_core/../lv_font/lv_font.h **** #define LV_FONT_WIDTH_FRACT_DIGIT       4
  33:..\..\..\lvgl\version_6.1.2\lvgl\src\lv_objx\../lv_core/../lv_font/lv_font.h **** 
  34:..\..\..\lvgl\version_6.1.2\lvgl\src\lv_objx\../lv_core/../lv_font/lv_font.h **** #define LV_FONT_KERN_POSITIVE        0
  35:..\..\..\lvgl\version_6.1.2\lvgl\src\lv_objx\../lv_core/../lv_font/lv_font.h **** #define LV_FONT_KERN_NEGATIVE        1
  36:..\..\..\lvgl\version_6.1.2\lvgl\src\lv_objx\../lv_core/../lv_font/lv_font.h **** 
  37:..\..\..\lvgl\version_6.1.2\lvgl\src\lv_objx\../lv_core/../lv_font/lv_font.h **** /**********************
  38:..\..\..\lvgl\version_6.1.2\lvgl\src\lv_objx\../lv_core/../lv_font/lv_font.h ****  *      TYPEDEFS
  39:..\..\..\lvgl\version_6.1.2\lvgl\src\lv_objx\../lv_core/../lv_font/lv_font.h ****  **********************/
  40:..\..\..\lvgl\version_6.1.2\lvgl\src\lv_objx\../lv_core/../lv_font/lv_font.h **** 
  41:..\..\..\lvgl\version_6.1.2\lvgl\src\lv_objx\../lv_core/../lv_font/lv_font.h **** /*------------------
  42:..\..\..\lvgl\version_6.1.2\lvgl\src\lv_objx\../lv_core/../lv_font/lv_font.h ****  * General types
  43:..\..\..\lvgl\version_6.1.2\lvgl\src\lv_objx\../lv_core/../lv_font/lv_font.h ****  *-----------------*/
  44:..\..\..\lvgl\version_6.1.2\lvgl\src\lv_objx\../lv_core/../lv_font/lv_font.h **** 
  45:..\..\..\lvgl\version_6.1.2\lvgl\src\lv_objx\../lv_core/../lv_font/lv_font.h **** /** Describes the properties of a glyph. */
  46:..\..\..\lvgl\version_6.1.2\lvgl\src\lv_objx\../lv_core/../lv_font/lv_font.h **** typedef struct
  47:..\..\..\lvgl\version_6.1.2\lvgl\src\lv_objx\../lv_core/../lv_font/lv_font.h **** {
  48:..\..\..\lvgl\version_6.1.2\lvgl\src\lv_objx\../lv_core/../lv_font/lv_font.h ****     uint16_t adv_w; /**< The glyph needs this space. Draw the next glyph after this width. 8 bit in
  49:..\..\..\lvgl\version_6.1.2\lvgl\src\lv_objx\../lv_core/../lv_font/lv_font.h ****     uint8_t box_w;  /**< Width of the glyph's bounding box*/
  50:..\..\..\lvgl\version_6.1.2\lvgl\src\lv_objx\../lv_core/../lv_font/lv_font.h ****     uint8_t box_h;  /**< Height of the glyph's bounding box*/
  51:..\..\..\lvgl\version_6.1.2\lvgl\src\lv_objx\../lv_core/../lv_font/lv_font.h ****     int8_t ofs_x;   /**< x offset of the bounding box*/
  52:..\..\..\lvgl\version_6.1.2\lvgl\src\lv_objx\../lv_core/../lv_font/lv_font.h ****     int8_t ofs_y;  /**< y offset of the bounding box*/
  53:..\..\..\lvgl\version_6.1.2\lvgl\src\lv_objx\../lv_core/../lv_font/lv_font.h ****     uint8_t bpp;   /**< Bit-per-pixel: 1, 2, 4, 8*/
  54:..\..\..\lvgl\version_6.1.2\lvgl\src\lv_objx\../lv_core/../lv_font/lv_font.h **** }lv_font_glyph_dsc_t;
  55:..\..\..\lvgl\version_6.1.2\lvgl\src\lv_objx\../lv_core/../lv_font/lv_font.h **** 
  56:..\..\..\lvgl\version_6.1.2\lvgl\src\lv_objx\../lv_core/../lv_font/lv_font.h **** 
  57:..\..\..\lvgl\version_6.1.2\lvgl\src\lv_objx\../lv_core/../lv_font/lv_font.h **** /** The bitmaps might be upscaled by 3 to achieve subpixel rendering. */
  58:..\..\..\lvgl\version_6.1.2\lvgl\src\lv_objx\../lv_core/../lv_font/lv_font.h **** enum {
  59:..\..\..\lvgl\version_6.1.2\lvgl\src\lv_objx\../lv_core/../lv_font/lv_font.h ****     LV_FONT_SUBPX_NONE,
  60:..\..\..\lvgl\version_6.1.2\lvgl\src\lv_objx\../lv_core/../lv_font/lv_font.h ****     LV_FONT_SUBPX_HOR,
  61:..\..\..\lvgl\version_6.1.2\lvgl\src\lv_objx\../lv_core/../lv_font/lv_font.h ****     LV_FONT_SUBPX_VER,
  62:..\..\..\lvgl\version_6.1.2\lvgl\src\lv_objx\../lv_core/../lv_font/lv_font.h ****     LV_FONT_SUBPX_BOTH,
  63:..\..\..\lvgl\version_6.1.2\lvgl\src\lv_objx\../lv_core/../lv_font/lv_font.h **** };
  64:..\..\..\lvgl\version_6.1.2\lvgl\src\lv_objx\../lv_core/../lv_font/lv_font.h **** 
  65:..\..\..\lvgl\version_6.1.2\lvgl\src\lv_objx\../lv_core/../lv_font/lv_font.h **** typedef uint8_t lv_font_subpx_t;
  66:..\..\..\lvgl\version_6.1.2\lvgl\src\lv_objx\../lv_core/../lv_font/lv_font.h **** 
  67:..\..\..\lvgl\version_6.1.2\lvgl\src\lv_objx\../lv_core/../lv_font/lv_font.h **** /** Describe the properties of a font*/
  68:..\..\..\lvgl\version_6.1.2\lvgl\src\lv_objx\../lv_core/../lv_font/lv_font.h **** typedef struct _lv_font_struct
  69:..\..\..\lvgl\version_6.1.2\lvgl\src\lv_objx\../lv_core/../lv_font/lv_font.h **** {
  70:..\..\..\lvgl\version_6.1.2\lvgl\src\lv_objx\../lv_core/../lv_font/lv_font.h ****     /** Get a glyph's  descriptor from a font*/
  71:..\..\..\lvgl\version_6.1.2\lvgl\src\lv_objx\../lv_core/../lv_font/lv_font.h ****     bool (*get_glyph_dsc)(const struct _lv_font_struct *, lv_font_glyph_dsc_t *, uint32_t letter, u
  72:..\..\..\lvgl\version_6.1.2\lvgl\src\lv_objx\../lv_core/../lv_font/lv_font.h **** 
  73:..\..\..\lvgl\version_6.1.2\lvgl\src\lv_objx\../lv_core/../lv_font/lv_font.h ****     /** Get a glyph's bitmap from a font*/
  74:..\..\..\lvgl\version_6.1.2\lvgl\src\lv_objx\../lv_core/../lv_font/lv_font.h ****     const uint8_t * (*get_glyph_bitmap)(const struct _lv_font_struct *, uint32_t);
  75:..\..\..\lvgl\version_6.1.2\lvgl\src\lv_objx\../lv_core/../lv_font/lv_font.h **** 
  76:..\..\..\lvgl\version_6.1.2\lvgl\src\lv_objx\../lv_core/../lv_font/lv_font.h ****     /*Pointer to the font in a font pack (must have the same line height)*/
  77:..\..\..\lvgl\version_6.1.2\lvgl\src\lv_objx\../lv_core/../lv_font/lv_font.h ****     uint8_t line_height;      /**< The real line height where any text fits*/
  78:..\..\..\lvgl\version_6.1.2\lvgl\src\lv_objx\../lv_core/../lv_font/lv_font.h ****     int8_t base_line;        /**< Base line measured from the top of the line_height*/
  79:..\..\..\lvgl\version_6.1.2\lvgl\src\lv_objx\../lv_core/../lv_font/lv_font.h ****     uint8_t subpx  :2;        /**< An element of `lv_font_subpx_t`*/
  80:..\..\..\lvgl\version_6.1.2\lvgl\src\lv_objx\../lv_core/../lv_font/lv_font.h ****     void * dsc;               /**< Store implementation specific or run_time data or caching here*/
  81:..\..\..\lvgl\version_6.1.2\lvgl\src\lv_objx\../lv_core/../lv_font/lv_font.h **** #if LV_USE_USER_DATA
  82:..\..\..\lvgl\version_6.1.2\lvgl\src\lv_objx\../lv_core/../lv_font/lv_font.h ****     lv_font_user_data_t user_data; /**< Custom user data for font. */
  83:..\..\..\lvgl\version_6.1.2\lvgl\src\lv_objx\../lv_core/../lv_font/lv_font.h **** #endif
  84:..\..\..\lvgl\version_6.1.2\lvgl\src\lv_objx\../lv_core/../lv_font/lv_font.h **** 
  85:..\..\..\lvgl\version_6.1.2\lvgl\src\lv_objx\../lv_core/../lv_font/lv_font.h **** 
  86:..\..\..\lvgl\version_6.1.2\lvgl\src\lv_objx\../lv_core/../lv_font/lv_font.h **** } lv_font_t;
  87:..\..\..\lvgl\version_6.1.2\lvgl\src\lv_objx\../lv_core/../lv_font/lv_font.h **** 
ARM GAS  C:\Users\tmj32\AppData\Local\Temp\ccH9iEPr.s 			page 3


  88:..\..\..\lvgl\version_6.1.2\lvgl\src\lv_objx\../lv_core/../lv_font/lv_font.h **** /**********************
  89:..\..\..\lvgl\version_6.1.2\lvgl\src\lv_objx\../lv_core/../lv_font/lv_font.h ****  * GLOBAL PROTOTYPES
  90:..\..\..\lvgl\version_6.1.2\lvgl\src\lv_objx\../lv_core/../lv_font/lv_font.h ****  **********************/
  91:..\..\..\lvgl\version_6.1.2\lvgl\src\lv_objx\../lv_core/../lv_font/lv_font.h **** 
  92:..\..\..\lvgl\version_6.1.2\lvgl\src\lv_objx\../lv_core/../lv_font/lv_font.h **** /**
  93:..\..\..\lvgl\version_6.1.2\lvgl\src\lv_objx\../lv_core/../lv_font/lv_font.h ****  * Return with the bitmap of a font.
  94:..\..\..\lvgl\version_6.1.2\lvgl\src\lv_objx\../lv_core/../lv_font/lv_font.h ****  * @param font_p pointer to a font
  95:..\..\..\lvgl\version_6.1.2\lvgl\src\lv_objx\../lv_core/../lv_font/lv_font.h ****  * @param letter an UNICODE character code
  96:..\..\..\lvgl\version_6.1.2\lvgl\src\lv_objx\../lv_core/../lv_font/lv_font.h ****  * @return  pointer to the bitmap of the letter
  97:..\..\..\lvgl\version_6.1.2\lvgl\src\lv_objx\../lv_core/../lv_font/lv_font.h ****  */
  98:..\..\..\lvgl\version_6.1.2\lvgl\src\lv_objx\../lv_core/../lv_font/lv_font.h **** const uint8_t * lv_font_get_glyph_bitmap(const lv_font_t * font_p, uint32_t letter);
  99:..\..\..\lvgl\version_6.1.2\lvgl\src\lv_objx\../lv_core/../lv_font/lv_font.h **** 
 100:..\..\..\lvgl\version_6.1.2\lvgl\src\lv_objx\../lv_core/../lv_font/lv_font.h **** /**
 101:..\..\..\lvgl\version_6.1.2\lvgl\src\lv_objx\../lv_core/../lv_font/lv_font.h ****  * Get the descriptor of a glyph
 102:..\..\..\lvgl\version_6.1.2\lvgl\src\lv_objx\../lv_core/../lv_font/lv_font.h ****  * @param font_p pointer to font
 103:..\..\..\lvgl\version_6.1.2\lvgl\src\lv_objx\../lv_core/../lv_font/lv_font.h ****  * @param dsc_out store the result descriptor here
 104:..\..\..\lvgl\version_6.1.2\lvgl\src\lv_objx\../lv_core/../lv_font/lv_font.h ****  * @param letter an UNICODE letter code
 105:..\..\..\lvgl\version_6.1.2\lvgl\src\lv_objx\../lv_core/../lv_font/lv_font.h ****  * @return true: descriptor is successfully loaded into `dsc_out`.
 106:..\..\..\lvgl\version_6.1.2\lvgl\src\lv_objx\../lv_core/../lv_font/lv_font.h ****  *         false: the letter was not found, no data is loaded to `dsc_out`
 107:..\..\..\lvgl\version_6.1.2\lvgl\src\lv_objx\../lv_core/../lv_font/lv_font.h ****  */
 108:..\..\..\lvgl\version_6.1.2\lvgl\src\lv_objx\../lv_core/../lv_font/lv_font.h **** bool lv_font_get_glyph_dsc(const lv_font_t * font_p, lv_font_glyph_dsc_t * dsc_out, uint32_t letter
 109:..\..\..\lvgl\version_6.1.2\lvgl\src\lv_objx\../lv_core/../lv_font/lv_font.h **** 
 110:..\..\..\lvgl\version_6.1.2\lvgl\src\lv_objx\../lv_core/../lv_font/lv_font.h **** /**
 111:..\..\..\lvgl\version_6.1.2\lvgl\src\lv_objx\../lv_core/../lv_font/lv_font.h ****  * Get the width of a glyph with kerning
 112:..\..\..\lvgl\version_6.1.2\lvgl\src\lv_objx\../lv_core/../lv_font/lv_font.h ****  * @param font pointer to a font
 113:..\..\..\lvgl\version_6.1.2\lvgl\src\lv_objx\../lv_core/../lv_font/lv_font.h ****  * @param letter an UNICODE letter
 114:..\..\..\lvgl\version_6.1.2\lvgl\src\lv_objx\../lv_core/../lv_font/lv_font.h ****  * @param letter_next the next letter after `letter`. Used for kerning
 115:..\..\..\lvgl\version_6.1.2\lvgl\src\lv_objx\../lv_core/../lv_font/lv_font.h ****  * @return the width of the glyph
 116:..\..\..\lvgl\version_6.1.2\lvgl\src\lv_objx\../lv_core/../lv_font/lv_font.h ****  */
 117:..\..\..\lvgl\version_6.1.2\lvgl\src\lv_objx\../lv_core/../lv_font/lv_font.h **** uint16_t lv_font_get_glyph_width(const lv_font_t * font, uint32_t letter, uint32_t letter_next);
 118:..\..\..\lvgl\version_6.1.2\lvgl\src\lv_objx\../lv_core/../lv_font/lv_font.h **** 
 119:..\..\..\lvgl\version_6.1.2\lvgl\src\lv_objx\../lv_core/../lv_font/lv_font.h **** /**
 120:..\..\..\lvgl\version_6.1.2\lvgl\src\lv_objx\../lv_core/../lv_font/lv_font.h ****  * Get the line height of a font. All characters fit into this height
 121:..\..\..\lvgl\version_6.1.2\lvgl\src\lv_objx\../lv_core/../lv_font/lv_font.h ****  * @param font_p pointer to a font
 122:..\..\..\lvgl\version_6.1.2\lvgl\src\lv_objx\../lv_core/../lv_font/lv_font.h ****  * @return the height of a font
 123:..\..\..\lvgl\version_6.1.2\lvgl\src\lv_objx\../lv_core/../lv_font/lv_font.h ****  */
 124:..\..\..\lvgl\version_6.1.2\lvgl\src\lv_objx\../lv_core/../lv_font/lv_font.h **** static inline uint8_t lv_font_get_line_height(const lv_font_t * font_p)
 125:..\..\..\lvgl\version_6.1.2\lvgl\src\lv_objx\../lv_core/../lv_font/lv_font.h **** {
  28              		.loc 1 125 0
  29              		.cfi_startproc
  30              		@ args = 0, pretend = 0, frame = 8
  31              		@ frame_needed = 1, uses_anonymous_args = 0
  32              		@ link register save eliminated.
  33 0000 80B4     		push	{r7}
  34              		.cfi_def_cfa_offset 4
  35              		.cfi_offset 7, -4
  36 0002 83B0     		sub	sp, sp, #12
  37              		.cfi_def_cfa_offset 16
  38 0004 00AF     		add	r7, sp, #0
  39              		.cfi_def_cfa_register 7
  40 0006 7860     		str	r0, [r7, #4]
 126:..\..\..\lvgl\version_6.1.2\lvgl\src\lv_objx\../lv_core/../lv_font/lv_font.h ****     return font_p->line_height;
  41              		.loc 1 126 0
  42 0008 7B68     		ldr	r3, [r7, #4]
  43 000a 1B7A     		ldrb	r3, [r3, #8]	@ zero_extendqisi2
 127:..\..\..\lvgl\version_6.1.2\lvgl\src\lv_objx\../lv_core/../lv_font/lv_font.h **** }
  44              		.loc 1 127 0
ARM GAS  C:\Users\tmj32\AppData\Local\Temp\ccH9iEPr.s 			page 4


  45 000c 1846     		mov	r0, r3
  46 000e 0C37     		adds	r7, r7, #12
  47              		.cfi_def_cfa_offset 4
  48 0010 BD46     		mov	sp, r7
  49              		.cfi_def_cfa_register 13
  50              		@ sp needed
  51 0012 5DF8047B 		ldr	r7, [sp], #4
  52              		.cfi_restore 7
  53              		.cfi_def_cfa_offset 0
  54 0016 7047     		bx	lr
  55              		.cfi_endproc
  56              	.LFE0:
  57              		.size	lv_font_get_line_height, .-lv_font_get_line_height
  58              		.section	.text.lv_cont_set_fit,"ax",%progbits
  59              		.align	2
  60              		.thumb
  61              		.thumb_func
  62              		.type	lv_cont_set_fit, %function
  63              	lv_cont_set_fit:
  64              	.LFB32:
  65              		.file 2 "..\\..\\..\\lvgl\\version_6.1.2\\lvgl\\src\\lv_objx\\lv_cont.h"
   1:..\..\..\lvgl\version_6.1.2\lvgl\src\lv_objx/lv_cont.h **** /**
   2:..\..\..\lvgl\version_6.1.2\lvgl\src\lv_objx/lv_cont.h ****  * @file lv_cont.h
   3:..\..\..\lvgl\version_6.1.2\lvgl\src\lv_objx/lv_cont.h ****  *
   4:..\..\..\lvgl\version_6.1.2\lvgl\src\lv_objx/lv_cont.h ****  */
   5:..\..\..\lvgl\version_6.1.2\lvgl\src\lv_objx/lv_cont.h **** 
   6:..\..\..\lvgl\version_6.1.2\lvgl\src\lv_objx/lv_cont.h **** #ifndef LV_CONT_H
   7:..\..\..\lvgl\version_6.1.2\lvgl\src\lv_objx/lv_cont.h **** #define LV_CONT_H
   8:..\..\..\lvgl\version_6.1.2\lvgl\src\lv_objx/lv_cont.h **** 
   9:..\..\..\lvgl\version_6.1.2\lvgl\src\lv_objx/lv_cont.h **** #ifdef __cplusplus
  10:..\..\..\lvgl\version_6.1.2\lvgl\src\lv_objx/lv_cont.h **** extern "C" {
  11:..\..\..\lvgl\version_6.1.2\lvgl\src\lv_objx/lv_cont.h **** #endif
  12:..\..\..\lvgl\version_6.1.2\lvgl\src\lv_objx/lv_cont.h **** 
  13:..\..\..\lvgl\version_6.1.2\lvgl\src\lv_objx/lv_cont.h **** /*********************
  14:..\..\..\lvgl\version_6.1.2\lvgl\src\lv_objx/lv_cont.h ****  *      INCLUDES
  15:..\..\..\lvgl\version_6.1.2\lvgl\src\lv_objx/lv_cont.h ****  *********************/
  16:..\..\..\lvgl\version_6.1.2\lvgl\src\lv_objx/lv_cont.h **** #ifdef LV_CONF_INCLUDE_SIMPLE
  17:..\..\..\lvgl\version_6.1.2\lvgl\src\lv_objx/lv_cont.h **** #include "lv_conf.h"
  18:..\..\..\lvgl\version_6.1.2\lvgl\src\lv_objx/lv_cont.h **** #else
  19:..\..\..\lvgl\version_6.1.2\lvgl\src\lv_objx/lv_cont.h **** #include "../../../lv_conf.h"
  20:..\..\..\lvgl\version_6.1.2\lvgl\src\lv_objx/lv_cont.h **** #endif
  21:..\..\..\lvgl\version_6.1.2\lvgl\src\lv_objx/lv_cont.h **** 
  22:..\..\..\lvgl\version_6.1.2\lvgl\src\lv_objx/lv_cont.h **** #if LV_USE_CONT != 0
  23:..\..\..\lvgl\version_6.1.2\lvgl\src\lv_objx/lv_cont.h **** 
  24:..\..\..\lvgl\version_6.1.2\lvgl\src\lv_objx/lv_cont.h **** #include "../lv_core/lv_obj.h"
  25:..\..\..\lvgl\version_6.1.2\lvgl\src\lv_objx/lv_cont.h **** 
  26:..\..\..\lvgl\version_6.1.2\lvgl\src\lv_objx/lv_cont.h **** /*********************
  27:..\..\..\lvgl\version_6.1.2\lvgl\src\lv_objx/lv_cont.h ****  *      DEFINES
  28:..\..\..\lvgl\version_6.1.2\lvgl\src\lv_objx/lv_cont.h ****  *********************/
  29:..\..\..\lvgl\version_6.1.2\lvgl\src\lv_objx/lv_cont.h **** 
  30:..\..\..\lvgl\version_6.1.2\lvgl\src\lv_objx/lv_cont.h **** /**********************
  31:..\..\..\lvgl\version_6.1.2\lvgl\src\lv_objx/lv_cont.h ****  *      TYPEDEFS
  32:..\..\..\lvgl\version_6.1.2\lvgl\src\lv_objx/lv_cont.h ****  **********************/
  33:..\..\..\lvgl\version_6.1.2\lvgl\src\lv_objx/lv_cont.h **** 
  34:..\..\..\lvgl\version_6.1.2\lvgl\src\lv_objx/lv_cont.h **** /** Container layout options*/
  35:..\..\..\lvgl\version_6.1.2\lvgl\src\lv_objx/lv_cont.h **** enum {
  36:..\..\..\lvgl\version_6.1.2\lvgl\src\lv_objx/lv_cont.h ****     LV_LAYOUT_OFF = 0, /**< No layout */
ARM GAS  C:\Users\tmj32\AppData\Local\Temp\ccH9iEPr.s 			page 5


  37:..\..\..\lvgl\version_6.1.2\lvgl\src\lv_objx/lv_cont.h ****     LV_LAYOUT_CENTER, /**< Center objects */
  38:..\..\..\lvgl\version_6.1.2\lvgl\src\lv_objx/lv_cont.h ****     LV_LAYOUT_COL_L,  /**< Column left align*/
  39:..\..\..\lvgl\version_6.1.2\lvgl\src\lv_objx/lv_cont.h ****     LV_LAYOUT_COL_M,  /**< Column middle align*/
  40:..\..\..\lvgl\version_6.1.2\lvgl\src\lv_objx/lv_cont.h ****     LV_LAYOUT_COL_R,  /**< Column right align*/
  41:..\..\..\lvgl\version_6.1.2\lvgl\src\lv_objx/lv_cont.h ****     LV_LAYOUT_ROW_T,  /**< Row top align*/
  42:..\..\..\lvgl\version_6.1.2\lvgl\src\lv_objx/lv_cont.h ****     LV_LAYOUT_ROW_M,  /**< Row middle align*/
  43:..\..\..\lvgl\version_6.1.2\lvgl\src\lv_objx/lv_cont.h ****     LV_LAYOUT_ROW_B,  /**< Row bottom align*/
  44:..\..\..\lvgl\version_6.1.2\lvgl\src\lv_objx/lv_cont.h ****     LV_LAYOUT_PRETTY, /**< Put as many object as possible in row and begin a new row*/
  45:..\..\..\lvgl\version_6.1.2\lvgl\src\lv_objx/lv_cont.h ****     LV_LAYOUT_GRID,   /**< Align same-sized object into a grid*/
  46:..\..\..\lvgl\version_6.1.2\lvgl\src\lv_objx/lv_cont.h ****     _LV_LAYOUT_NUM
  47:..\..\..\lvgl\version_6.1.2\lvgl\src\lv_objx/lv_cont.h **** };
  48:..\..\..\lvgl\version_6.1.2\lvgl\src\lv_objx/lv_cont.h **** typedef uint8_t lv_layout_t;
  49:..\..\..\lvgl\version_6.1.2\lvgl\src\lv_objx/lv_cont.h **** 
  50:..\..\..\lvgl\version_6.1.2\lvgl\src\lv_objx/lv_cont.h **** /**
  51:..\..\..\lvgl\version_6.1.2\lvgl\src\lv_objx/lv_cont.h ****  * How to resize the container around the children.
  52:..\..\..\lvgl\version_6.1.2\lvgl\src\lv_objx/lv_cont.h ****  */
  53:..\..\..\lvgl\version_6.1.2\lvgl\src\lv_objx/lv_cont.h **** enum {
  54:..\..\..\lvgl\version_6.1.2\lvgl\src\lv_objx/lv_cont.h ****     LV_FIT_NONE,  /**< Do not change the size automatically*/
  55:..\..\..\lvgl\version_6.1.2\lvgl\src\lv_objx/lv_cont.h ****     LV_FIT_TIGHT, /**< Shrink wrap around the children */
  56:..\..\..\lvgl\version_6.1.2\lvgl\src\lv_objx/lv_cont.h ****     LV_FIT_FLOOD, /**< Align the size to the parent's edge*/
  57:..\..\..\lvgl\version_6.1.2\lvgl\src\lv_objx/lv_cont.h ****     LV_FIT_FILL,  /**< Align the size to the parent's edge first but if there is an object out of i
  58:..\..\..\lvgl\version_6.1.2\lvgl\src\lv_objx/lv_cont.h ****                      then get larger */
  59:..\..\..\lvgl\version_6.1.2\lvgl\src\lv_objx/lv_cont.h ****     _LV_FIT_NUM
  60:..\..\..\lvgl\version_6.1.2\lvgl\src\lv_objx/lv_cont.h **** };
  61:..\..\..\lvgl\version_6.1.2\lvgl\src\lv_objx/lv_cont.h **** typedef uint8_t lv_fit_t;
  62:..\..\..\lvgl\version_6.1.2\lvgl\src\lv_objx/lv_cont.h **** 
  63:..\..\..\lvgl\version_6.1.2\lvgl\src\lv_objx/lv_cont.h **** typedef struct
  64:..\..\..\lvgl\version_6.1.2\lvgl\src\lv_objx/lv_cont.h **** {
  65:..\..\..\lvgl\version_6.1.2\lvgl\src\lv_objx/lv_cont.h ****     /*Inherited from 'base_obj' so no inherited ext. */ /*Ext. of ancestor*/
  66:..\..\..\lvgl\version_6.1.2\lvgl\src\lv_objx/lv_cont.h ****     /*New data for this type */
  67:..\..\..\lvgl\version_6.1.2\lvgl\src\lv_objx/lv_cont.h ****     uint8_t layout : 4;     /*A layout from 'lv_layout_t' enum*/
  68:..\..\..\lvgl\version_6.1.2\lvgl\src\lv_objx/lv_cont.h ****     uint8_t fit_left : 2;   /*A fit type from `lv_fit_t` enum */
  69:..\..\..\lvgl\version_6.1.2\lvgl\src\lv_objx/lv_cont.h ****     uint8_t fit_right : 2;  /*A fit type from `lv_fit_t` enum */
  70:..\..\..\lvgl\version_6.1.2\lvgl\src\lv_objx/lv_cont.h ****     uint8_t fit_top : 2;    /*A fit type from `lv_fit_t` enum */
  71:..\..\..\lvgl\version_6.1.2\lvgl\src\lv_objx/lv_cont.h ****     uint8_t fit_bottom : 2; /*A fit type from `lv_fit_t` enum */
  72:..\..\..\lvgl\version_6.1.2\lvgl\src\lv_objx/lv_cont.h **** } lv_cont_ext_t;
  73:..\..\..\lvgl\version_6.1.2\lvgl\src\lv_objx/lv_cont.h **** 
  74:..\..\..\lvgl\version_6.1.2\lvgl\src\lv_objx/lv_cont.h **** /*Styles*/
  75:..\..\..\lvgl\version_6.1.2\lvgl\src\lv_objx/lv_cont.h **** enum {
  76:..\..\..\lvgl\version_6.1.2\lvgl\src\lv_objx/lv_cont.h ****     LV_CONT_STYLE_MAIN,
  77:..\..\..\lvgl\version_6.1.2\lvgl\src\lv_objx/lv_cont.h **** };
  78:..\..\..\lvgl\version_6.1.2\lvgl\src\lv_objx/lv_cont.h **** typedef uint8_t lv_cont_style_t;
  79:..\..\..\lvgl\version_6.1.2\lvgl\src\lv_objx/lv_cont.h **** 
  80:..\..\..\lvgl\version_6.1.2\lvgl\src\lv_objx/lv_cont.h **** /**********************
  81:..\..\..\lvgl\version_6.1.2\lvgl\src\lv_objx/lv_cont.h ****  * GLOBAL PROTOTYPES
  82:..\..\..\lvgl\version_6.1.2\lvgl\src\lv_objx/lv_cont.h ****  **********************/
  83:..\..\..\lvgl\version_6.1.2\lvgl\src\lv_objx/lv_cont.h **** 
  84:..\..\..\lvgl\version_6.1.2\lvgl\src\lv_objx/lv_cont.h **** /**
  85:..\..\..\lvgl\version_6.1.2\lvgl\src\lv_objx/lv_cont.h ****  * Create a container objects
  86:..\..\..\lvgl\version_6.1.2\lvgl\src\lv_objx/lv_cont.h ****  * @param par pointer to an object, it will be the parent of the new container
  87:..\..\..\lvgl\version_6.1.2\lvgl\src\lv_objx/lv_cont.h ****  * @param copy pointer to a container object, if not NULL then the new object will be copied from i
  88:..\..\..\lvgl\version_6.1.2\lvgl\src\lv_objx/lv_cont.h ****  * @return pointer to the created container
  89:..\..\..\lvgl\version_6.1.2\lvgl\src\lv_objx/lv_cont.h ****  */
  90:..\..\..\lvgl\version_6.1.2\lvgl\src\lv_objx/lv_cont.h **** lv_obj_t * lv_cont_create(lv_obj_t * par, const lv_obj_t * copy);
  91:..\..\..\lvgl\version_6.1.2\lvgl\src\lv_objx/lv_cont.h **** 
  92:..\..\..\lvgl\version_6.1.2\lvgl\src\lv_objx/lv_cont.h **** /*=====================
  93:..\..\..\lvgl\version_6.1.2\lvgl\src\lv_objx/lv_cont.h ****  * Setter functions
ARM GAS  C:\Users\tmj32\AppData\Local\Temp\ccH9iEPr.s 			page 6


  94:..\..\..\lvgl\version_6.1.2\lvgl\src\lv_objx/lv_cont.h ****  *====================*/
  95:..\..\..\lvgl\version_6.1.2\lvgl\src\lv_objx/lv_cont.h **** 
  96:..\..\..\lvgl\version_6.1.2\lvgl\src\lv_objx/lv_cont.h **** /**
  97:..\..\..\lvgl\version_6.1.2\lvgl\src\lv_objx/lv_cont.h ****  * Set a layout on a container
  98:..\..\..\lvgl\version_6.1.2\lvgl\src\lv_objx/lv_cont.h ****  * @param cont pointer to a container object
  99:..\..\..\lvgl\version_6.1.2\lvgl\src\lv_objx/lv_cont.h ****  * @param layout a layout from 'lv_cont_layout_t'
 100:..\..\..\lvgl\version_6.1.2\lvgl\src\lv_objx/lv_cont.h ****  */
 101:..\..\..\lvgl\version_6.1.2\lvgl\src\lv_objx/lv_cont.h **** void lv_cont_set_layout(lv_obj_t * cont, lv_layout_t layout);
 102:..\..\..\lvgl\version_6.1.2\lvgl\src\lv_objx/lv_cont.h **** 
 103:..\..\..\lvgl\version_6.1.2\lvgl\src\lv_objx/lv_cont.h **** /**
 104:..\..\..\lvgl\version_6.1.2\lvgl\src\lv_objx/lv_cont.h ****  * Set the fit policy in all 4 directions separately.
 105:..\..\..\lvgl\version_6.1.2\lvgl\src\lv_objx/lv_cont.h ****  * It tell how to change the container's size automatically.
 106:..\..\..\lvgl\version_6.1.2\lvgl\src\lv_objx/lv_cont.h ****  * @param cont pointer to a container object
 107:..\..\..\lvgl\version_6.1.2\lvgl\src\lv_objx/lv_cont.h ****  * @param left left fit policy from `lv_fit_t`
 108:..\..\..\lvgl\version_6.1.2\lvgl\src\lv_objx/lv_cont.h ****  * @param right right fit policy from `lv_fit_t`
 109:..\..\..\lvgl\version_6.1.2\lvgl\src\lv_objx/lv_cont.h ****  * @param top top fit policy from `lv_fit_t`
 110:..\..\..\lvgl\version_6.1.2\lvgl\src\lv_objx/lv_cont.h ****  * @param bottom bottom fit policy from `lv_fit_t`
 111:..\..\..\lvgl\version_6.1.2\lvgl\src\lv_objx/lv_cont.h ****  */
 112:..\..\..\lvgl\version_6.1.2\lvgl\src\lv_objx/lv_cont.h **** void lv_cont_set_fit4(lv_obj_t * cont, lv_fit_t left, lv_fit_t right, lv_fit_t top, lv_fit_t bottom
 113:..\..\..\lvgl\version_6.1.2\lvgl\src\lv_objx/lv_cont.h **** 
 114:..\..\..\lvgl\version_6.1.2\lvgl\src\lv_objx/lv_cont.h **** /**
 115:..\..\..\lvgl\version_6.1.2\lvgl\src\lv_objx/lv_cont.h ****  * Set the fit policy horizontally and vertically separately.
 116:..\..\..\lvgl\version_6.1.2\lvgl\src\lv_objx/lv_cont.h ****  * It tells how to change the container's size automatically.
 117:..\..\..\lvgl\version_6.1.2\lvgl\src\lv_objx/lv_cont.h ****  * @param cont pointer to a container object
 118:..\..\..\lvgl\version_6.1.2\lvgl\src\lv_objx/lv_cont.h ****  * @param hor horizontal fit policy from `lv_fit_t`
 119:..\..\..\lvgl\version_6.1.2\lvgl\src\lv_objx/lv_cont.h ****  * @param ver vertical fit policy from `lv_fit_t`
 120:..\..\..\lvgl\version_6.1.2\lvgl\src\lv_objx/lv_cont.h ****  */
 121:..\..\..\lvgl\version_6.1.2\lvgl\src\lv_objx/lv_cont.h **** static inline void lv_cont_set_fit2(lv_obj_t * cont, lv_fit_t hor, lv_fit_t ver)
 122:..\..\..\lvgl\version_6.1.2\lvgl\src\lv_objx/lv_cont.h **** {
 123:..\..\..\lvgl\version_6.1.2\lvgl\src\lv_objx/lv_cont.h ****     lv_cont_set_fit4(cont, hor, hor, ver, ver);
 124:..\..\..\lvgl\version_6.1.2\lvgl\src\lv_objx/lv_cont.h **** }
 125:..\..\..\lvgl\version_6.1.2\lvgl\src\lv_objx/lv_cont.h **** 
 126:..\..\..\lvgl\version_6.1.2\lvgl\src\lv_objx/lv_cont.h **** /**
 127:..\..\..\lvgl\version_6.1.2\lvgl\src\lv_objx/lv_cont.h ****  * Set the fit policy in all 4 direction at once.
 128:..\..\..\lvgl\version_6.1.2\lvgl\src\lv_objx/lv_cont.h ****  * It tells how to change the container's size automatically.
 129:..\..\..\lvgl\version_6.1.2\lvgl\src\lv_objx/lv_cont.h ****  * @param cont pointer to a container object
 130:..\..\..\lvgl\version_6.1.2\lvgl\src\lv_objx/lv_cont.h ****  * @param fit fit policy from `lv_fit_t`
 131:..\..\..\lvgl\version_6.1.2\lvgl\src\lv_objx/lv_cont.h ****  */
 132:..\..\..\lvgl\version_6.1.2\lvgl\src\lv_objx/lv_cont.h **** static inline void lv_cont_set_fit(lv_obj_t * cont, lv_fit_t fit)
 133:..\..\..\lvgl\version_6.1.2\lvgl\src\lv_objx/lv_cont.h **** {
  66              		.loc 2 133 0
  67              		.cfi_startproc
  68              		@ args = 0, pretend = 0, frame = 8
  69              		@ frame_needed = 1, uses_anonymous_args = 0
  70 0000 80B5     		push	{r7, lr}
  71              		.cfi_def_cfa_offset 8
  72              		.cfi_offset 7, -8
  73              		.cfi_offset 14, -4
  74 0002 84B0     		sub	sp, sp, #16
  75              		.cfi_def_cfa_offset 24
  76 0004 02AF     		add	r7, sp, #8
  77              		.cfi_def_cfa 7, 16
  78 0006 7860     		str	r0, [r7, #4]
  79 0008 0B46     		mov	r3, r1
  80 000a FB70     		strb	r3, [r7, #3]
 134:..\..\..\lvgl\version_6.1.2\lvgl\src\lv_objx/lv_cont.h ****     lv_cont_set_fit4(cont, fit, fit, fit, fit);
  81              		.loc 2 134 0
ARM GAS  C:\Users\tmj32\AppData\Local\Temp\ccH9iEPr.s 			page 7


  82 000c F878     		ldrb	r0, [r7, #3]	@ zero_extendqisi2
  83 000e FA78     		ldrb	r2, [r7, #3]	@ zero_extendqisi2
  84 0010 F978     		ldrb	r1, [r7, #3]	@ zero_extendqisi2
  85 0012 FB78     		ldrb	r3, [r7, #3]	@ zero_extendqisi2
  86 0014 0093     		str	r3, [sp]
  87 0016 0346     		mov	r3, r0
  88 0018 7868     		ldr	r0, [r7, #4]
  89 001a FFF7FEFF 		bl	lv_cont_set_fit4
 135:..\..\..\lvgl\version_6.1.2\lvgl\src\lv_objx/lv_cont.h **** }
  90              		.loc 2 135 0
  91 001e 00BF     		nop
  92 0020 0837     		adds	r7, r7, #8
  93              		.cfi_def_cfa_offset 8
  94 0022 BD46     		mov	sp, r7
  95              		.cfi_def_cfa_register 13
  96              		@ sp needed
  97 0024 80BD     		pop	{r7, pc}
  98              		.cfi_endproc
  99              	.LFE32:
 100              		.size	lv_cont_set_fit, .-lv_cont_set_fit
 101 0026 00BF     		.section	.text.lv_btn_set_layout,"ax",%progbits
 102              		.align	2
 103              		.thumb
 104              		.thumb_func
 105              		.type	lv_btn_set_layout, %function
 106              	lv_btn_set_layout:
 107              	.LFB35:
 108              		.file 3 "..\\..\\..\\lvgl\\version_6.1.2\\lvgl\\src\\lv_objx\\lv_btn.h"
   1:..\..\..\lvgl\version_6.1.2\lvgl\src\lv_objx/lv_btn.h **** /**
   2:..\..\..\lvgl\version_6.1.2\lvgl\src\lv_objx/lv_btn.h ****  * @file lv_btn.h
   3:..\..\..\lvgl\version_6.1.2\lvgl\src\lv_objx/lv_btn.h ****  *
   4:..\..\..\lvgl\version_6.1.2\lvgl\src\lv_objx/lv_btn.h ****  */
   5:..\..\..\lvgl\version_6.1.2\lvgl\src\lv_objx/lv_btn.h **** 
   6:..\..\..\lvgl\version_6.1.2\lvgl\src\lv_objx/lv_btn.h **** #ifndef LV_BTN_H
   7:..\..\..\lvgl\version_6.1.2\lvgl\src\lv_objx/lv_btn.h **** #define LV_BTN_H
   8:..\..\..\lvgl\version_6.1.2\lvgl\src\lv_objx/lv_btn.h **** 
   9:..\..\..\lvgl\version_6.1.2\lvgl\src\lv_objx/lv_btn.h **** #ifdef __cplusplus
  10:..\..\..\lvgl\version_6.1.2\lvgl\src\lv_objx/lv_btn.h **** extern "C" {
  11:..\..\..\lvgl\version_6.1.2\lvgl\src\lv_objx/lv_btn.h **** #endif
  12:..\..\..\lvgl\version_6.1.2\lvgl\src\lv_objx/lv_btn.h **** 
  13:..\..\..\lvgl\version_6.1.2\lvgl\src\lv_objx/lv_btn.h **** /*********************
  14:..\..\..\lvgl\version_6.1.2\lvgl\src\lv_objx/lv_btn.h ****  *      INCLUDES
  15:..\..\..\lvgl\version_6.1.2\lvgl\src\lv_objx/lv_btn.h ****  *********************/
  16:..\..\..\lvgl\version_6.1.2\lvgl\src\lv_objx/lv_btn.h **** #ifdef LV_CONF_INCLUDE_SIMPLE
  17:..\..\..\lvgl\version_6.1.2\lvgl\src\lv_objx/lv_btn.h **** #include "lv_conf.h"
  18:..\..\..\lvgl\version_6.1.2\lvgl\src\lv_objx/lv_btn.h **** #else
  19:..\..\..\lvgl\version_6.1.2\lvgl\src\lv_objx/lv_btn.h **** #include "../../../lv_conf.h"
  20:..\..\..\lvgl\version_6.1.2\lvgl\src\lv_objx/lv_btn.h **** #endif
  21:..\..\..\lvgl\version_6.1.2\lvgl\src\lv_objx/lv_btn.h **** 
  22:..\..\..\lvgl\version_6.1.2\lvgl\src\lv_objx/lv_btn.h **** #if LV_USE_BTN != 0
  23:..\..\..\lvgl\version_6.1.2\lvgl\src\lv_objx/lv_btn.h **** 
  24:..\..\..\lvgl\version_6.1.2\lvgl\src\lv_objx/lv_btn.h **** /*Testing of dependencies*/
  25:..\..\..\lvgl\version_6.1.2\lvgl\src\lv_objx/lv_btn.h **** #if LV_USE_CONT == 0
  26:..\..\..\lvgl\version_6.1.2\lvgl\src\lv_objx/lv_btn.h **** #error "lv_btn: lv_cont is required. Enable it in lv_conf.h (LV_USE_CONT  1) "
  27:..\..\..\lvgl\version_6.1.2\lvgl\src\lv_objx/lv_btn.h **** #endif
  28:..\..\..\lvgl\version_6.1.2\lvgl\src\lv_objx/lv_btn.h **** 
  29:..\..\..\lvgl\version_6.1.2\lvgl\src\lv_objx/lv_btn.h **** #include "lv_cont.h"
ARM GAS  C:\Users\tmj32\AppData\Local\Temp\ccH9iEPr.s 			page 8


  30:..\..\..\lvgl\version_6.1.2\lvgl\src\lv_objx/lv_btn.h **** #include "../lv_core/lv_indev.h"
  31:..\..\..\lvgl\version_6.1.2\lvgl\src\lv_objx/lv_btn.h **** 
  32:..\..\..\lvgl\version_6.1.2\lvgl\src\lv_objx/lv_btn.h **** /*********************
  33:..\..\..\lvgl\version_6.1.2\lvgl\src\lv_objx/lv_btn.h ****  *      DEFINES
  34:..\..\..\lvgl\version_6.1.2\lvgl\src\lv_objx/lv_btn.h ****  *********************/
  35:..\..\..\lvgl\version_6.1.2\lvgl\src\lv_objx/lv_btn.h **** 
  36:..\..\..\lvgl\version_6.1.2\lvgl\src\lv_objx/lv_btn.h **** /**********************
  37:..\..\..\lvgl\version_6.1.2\lvgl\src\lv_objx/lv_btn.h ****  *      TYPEDEFS
  38:..\..\..\lvgl\version_6.1.2\lvgl\src\lv_objx/lv_btn.h ****  **********************/
  39:..\..\..\lvgl\version_6.1.2\lvgl\src\lv_objx/lv_btn.h **** 
  40:..\..\..\lvgl\version_6.1.2\lvgl\src\lv_objx/lv_btn.h **** /** Possible states of a button.
  41:..\..\..\lvgl\version_6.1.2\lvgl\src\lv_objx/lv_btn.h ****  * It can be used not only by buttons but other button-like objects too*/
  42:..\..\..\lvgl\version_6.1.2\lvgl\src\lv_objx/lv_btn.h **** enum {
  43:..\..\..\lvgl\version_6.1.2\lvgl\src\lv_objx/lv_btn.h ****     /**Released*/
  44:..\..\..\lvgl\version_6.1.2\lvgl\src\lv_objx/lv_btn.h ****     LV_BTN_STATE_REL,
  45:..\..\..\lvgl\version_6.1.2\lvgl\src\lv_objx/lv_btn.h **** 
  46:..\..\..\lvgl\version_6.1.2\lvgl\src\lv_objx/lv_btn.h ****     /**Pressed*/
  47:..\..\..\lvgl\version_6.1.2\lvgl\src\lv_objx/lv_btn.h ****     LV_BTN_STATE_PR,
  48:..\..\..\lvgl\version_6.1.2\lvgl\src\lv_objx/lv_btn.h **** 
  49:..\..\..\lvgl\version_6.1.2\lvgl\src\lv_objx/lv_btn.h ****     /**Toggled released*/
  50:..\..\..\lvgl\version_6.1.2\lvgl\src\lv_objx/lv_btn.h ****     LV_BTN_STATE_TGL_REL,
  51:..\..\..\lvgl\version_6.1.2\lvgl\src\lv_objx/lv_btn.h **** 
  52:..\..\..\lvgl\version_6.1.2\lvgl\src\lv_objx/lv_btn.h ****     /**Toggled pressed*/
  53:..\..\..\lvgl\version_6.1.2\lvgl\src\lv_objx/lv_btn.h ****     LV_BTN_STATE_TGL_PR,
  54:..\..\..\lvgl\version_6.1.2\lvgl\src\lv_objx/lv_btn.h **** 
  55:..\..\..\lvgl\version_6.1.2\lvgl\src\lv_objx/lv_btn.h ****     /**Inactive*/
  56:..\..\..\lvgl\version_6.1.2\lvgl\src\lv_objx/lv_btn.h ****     LV_BTN_STATE_INA,
  57:..\..\..\lvgl\version_6.1.2\lvgl\src\lv_objx/lv_btn.h **** 
  58:..\..\..\lvgl\version_6.1.2\lvgl\src\lv_objx/lv_btn.h ****     /**Number of states*/
  59:..\..\..\lvgl\version_6.1.2\lvgl\src\lv_objx/lv_btn.h ****     _LV_BTN_STATE_NUM,
  60:..\..\..\lvgl\version_6.1.2\lvgl\src\lv_objx/lv_btn.h **** };
  61:..\..\..\lvgl\version_6.1.2\lvgl\src\lv_objx/lv_btn.h **** typedef uint8_t lv_btn_state_t;
  62:..\..\..\lvgl\version_6.1.2\lvgl\src\lv_objx/lv_btn.h **** 
  63:..\..\..\lvgl\version_6.1.2\lvgl\src\lv_objx/lv_btn.h **** /** Extended data of button*/
  64:..\..\..\lvgl\version_6.1.2\lvgl\src\lv_objx/lv_btn.h **** typedef struct
  65:..\..\..\lvgl\version_6.1.2\lvgl\src\lv_objx/lv_btn.h **** {
  66:..\..\..\lvgl\version_6.1.2\lvgl\src\lv_objx/lv_btn.h ****     /** Ext. of ancestor*/
  67:..\..\..\lvgl\version_6.1.2\lvgl\src\lv_objx/lv_btn.h ****     lv_cont_ext_t cont;
  68:..\..\..\lvgl\version_6.1.2\lvgl\src\lv_objx/lv_btn.h **** 
  69:..\..\..\lvgl\version_6.1.2\lvgl\src\lv_objx/lv_btn.h ****     /*New data for this type */
  70:..\..\..\lvgl\version_6.1.2\lvgl\src\lv_objx/lv_btn.h **** 
  71:..\..\..\lvgl\version_6.1.2\lvgl\src\lv_objx/lv_btn.h ****     /**Styles in each state*/
  72:..\..\..\lvgl\version_6.1.2\lvgl\src\lv_objx/lv_btn.h ****     const lv_style_t * styles[_LV_BTN_STATE_NUM];
  73:..\..\..\lvgl\version_6.1.2\lvgl\src\lv_objx/lv_btn.h **** #if LV_BTN_INK_EFFECT
  74:..\..\..\lvgl\version_6.1.2\lvgl\src\lv_objx/lv_btn.h ****     /** [ms] Time of ink fill effect (0: disable ink effect)*/
  75:..\..\..\lvgl\version_6.1.2\lvgl\src\lv_objx/lv_btn.h ****     uint16_t ink_in_time;
  76:..\..\..\lvgl\version_6.1.2\lvgl\src\lv_objx/lv_btn.h **** 
  77:..\..\..\lvgl\version_6.1.2\lvgl\src\lv_objx/lv_btn.h ****     /** [ms] Wait before the ink disappears */
  78:..\..\..\lvgl\version_6.1.2\lvgl\src\lv_objx/lv_btn.h ****     uint16_t ink_wait_time;
  79:..\..\..\lvgl\version_6.1.2\lvgl\src\lv_objx/lv_btn.h **** 
  80:..\..\..\lvgl\version_6.1.2\lvgl\src\lv_objx/lv_btn.h ****     /** [ms] Time of ink disappearing*/
  81:..\..\..\lvgl\version_6.1.2\lvgl\src\lv_objx/lv_btn.h ****     uint16_t ink_out_time;
  82:..\..\..\lvgl\version_6.1.2\lvgl\src\lv_objx/lv_btn.h **** #endif
  83:..\..\..\lvgl\version_6.1.2\lvgl\src\lv_objx/lv_btn.h **** 
  84:..\..\..\lvgl\version_6.1.2\lvgl\src\lv_objx/lv_btn.h ****     /** Current state of the button from 'lv_btn_state_t' enum*/
  85:..\..\..\lvgl\version_6.1.2\lvgl\src\lv_objx/lv_btn.h ****     lv_btn_state_t state : 3;
  86:..\..\..\lvgl\version_6.1.2\lvgl\src\lv_objx/lv_btn.h **** 
ARM GAS  C:\Users\tmj32\AppData\Local\Temp\ccH9iEPr.s 			page 9


  87:..\..\..\lvgl\version_6.1.2\lvgl\src\lv_objx/lv_btn.h ****     /** 1: Toggle enabled*/
  88:..\..\..\lvgl\version_6.1.2\lvgl\src\lv_objx/lv_btn.h ****     uint8_t toggle : 1;
  89:..\..\..\lvgl\version_6.1.2\lvgl\src\lv_objx/lv_btn.h **** } lv_btn_ext_t;
  90:..\..\..\lvgl\version_6.1.2\lvgl\src\lv_objx/lv_btn.h **** 
  91:..\..\..\lvgl\version_6.1.2\lvgl\src\lv_objx/lv_btn.h **** /**Styles*/
  92:..\..\..\lvgl\version_6.1.2\lvgl\src\lv_objx/lv_btn.h **** enum {
  93:..\..\..\lvgl\version_6.1.2\lvgl\src\lv_objx/lv_btn.h ****     /** Release style */
  94:..\..\..\lvgl\version_6.1.2\lvgl\src\lv_objx/lv_btn.h ****     LV_BTN_STYLE_REL,
  95:..\..\..\lvgl\version_6.1.2\lvgl\src\lv_objx/lv_btn.h **** 
  96:..\..\..\lvgl\version_6.1.2\lvgl\src\lv_objx/lv_btn.h ****     /**Pressed style*/
  97:..\..\..\lvgl\version_6.1.2\lvgl\src\lv_objx/lv_btn.h ****     LV_BTN_STYLE_PR,
  98:..\..\..\lvgl\version_6.1.2\lvgl\src\lv_objx/lv_btn.h **** 
  99:..\..\..\lvgl\version_6.1.2\lvgl\src\lv_objx/lv_btn.h ****     /** Toggle released style*/
 100:..\..\..\lvgl\version_6.1.2\lvgl\src\lv_objx/lv_btn.h ****     LV_BTN_STYLE_TGL_REL,
 101:..\..\..\lvgl\version_6.1.2\lvgl\src\lv_objx/lv_btn.h **** 
 102:..\..\..\lvgl\version_6.1.2\lvgl\src\lv_objx/lv_btn.h ****     /** Toggle pressed style */
 103:..\..\..\lvgl\version_6.1.2\lvgl\src\lv_objx/lv_btn.h ****     LV_BTN_STYLE_TGL_PR,
 104:..\..\..\lvgl\version_6.1.2\lvgl\src\lv_objx/lv_btn.h **** 
 105:..\..\..\lvgl\version_6.1.2\lvgl\src\lv_objx/lv_btn.h ****     /** Inactive style*/
 106:..\..\..\lvgl\version_6.1.2\lvgl\src\lv_objx/lv_btn.h ****     LV_BTN_STYLE_INA,
 107:..\..\..\lvgl\version_6.1.2\lvgl\src\lv_objx/lv_btn.h **** };
 108:..\..\..\lvgl\version_6.1.2\lvgl\src\lv_objx/lv_btn.h **** typedef uint8_t lv_btn_style_t;
 109:..\..\..\lvgl\version_6.1.2\lvgl\src\lv_objx/lv_btn.h **** 
 110:..\..\..\lvgl\version_6.1.2\lvgl\src\lv_objx/lv_btn.h **** /**********************
 111:..\..\..\lvgl\version_6.1.2\lvgl\src\lv_objx/lv_btn.h ****  * GLOBAL PROTOTYPES
 112:..\..\..\lvgl\version_6.1.2\lvgl\src\lv_objx/lv_btn.h ****  **********************/
 113:..\..\..\lvgl\version_6.1.2\lvgl\src\lv_objx/lv_btn.h **** 
 114:..\..\..\lvgl\version_6.1.2\lvgl\src\lv_objx/lv_btn.h **** /**
 115:..\..\..\lvgl\version_6.1.2\lvgl\src\lv_objx/lv_btn.h ****  * Create a button object
 116:..\..\..\lvgl\version_6.1.2\lvgl\src\lv_objx/lv_btn.h ****  * @param par pointer to an object, it will be the parent of the new button
 117:..\..\..\lvgl\version_6.1.2\lvgl\src\lv_objx/lv_btn.h ****  * @param copy pointer to a button object, if not NULL then the new object will be copied from it
 118:..\..\..\lvgl\version_6.1.2\lvgl\src\lv_objx/lv_btn.h ****  * @return pointer to the created button
 119:..\..\..\lvgl\version_6.1.2\lvgl\src\lv_objx/lv_btn.h ****  */
 120:..\..\..\lvgl\version_6.1.2\lvgl\src\lv_objx/lv_btn.h **** lv_obj_t * lv_btn_create(lv_obj_t * par, const lv_obj_t * copy);
 121:..\..\..\lvgl\version_6.1.2\lvgl\src\lv_objx/lv_btn.h **** 
 122:..\..\..\lvgl\version_6.1.2\lvgl\src\lv_objx/lv_btn.h **** /*=====================
 123:..\..\..\lvgl\version_6.1.2\lvgl\src\lv_objx/lv_btn.h ****  * Setter functions
 124:..\..\..\lvgl\version_6.1.2\lvgl\src\lv_objx/lv_btn.h ****  *====================*/
 125:..\..\..\lvgl\version_6.1.2\lvgl\src\lv_objx/lv_btn.h **** 
 126:..\..\..\lvgl\version_6.1.2\lvgl\src\lv_objx/lv_btn.h **** /**
 127:..\..\..\lvgl\version_6.1.2\lvgl\src\lv_objx/lv_btn.h ****  * Enable the toggled states. On release the button will change from/to toggled state.
 128:..\..\..\lvgl\version_6.1.2\lvgl\src\lv_objx/lv_btn.h ****  * @param btn pointer to a button object
 129:..\..\..\lvgl\version_6.1.2\lvgl\src\lv_objx/lv_btn.h ****  * @param tgl true: enable toggled states, false: disable
 130:..\..\..\lvgl\version_6.1.2\lvgl\src\lv_objx/lv_btn.h ****  */
 131:..\..\..\lvgl\version_6.1.2\lvgl\src\lv_objx/lv_btn.h **** void lv_btn_set_toggle(lv_obj_t * btn, bool tgl);
 132:..\..\..\lvgl\version_6.1.2\lvgl\src\lv_objx/lv_btn.h **** 
 133:..\..\..\lvgl\version_6.1.2\lvgl\src\lv_objx/lv_btn.h **** /**
 134:..\..\..\lvgl\version_6.1.2\lvgl\src\lv_objx/lv_btn.h ****  * Set the state of the button
 135:..\..\..\lvgl\version_6.1.2\lvgl\src\lv_objx/lv_btn.h ****  * @param btn pointer to a button object
 136:..\..\..\lvgl\version_6.1.2\lvgl\src\lv_objx/lv_btn.h ****  * @param state the new state of the button (from lv_btn_state_t enum)
 137:..\..\..\lvgl\version_6.1.2\lvgl\src\lv_objx/lv_btn.h ****  */
 138:..\..\..\lvgl\version_6.1.2\lvgl\src\lv_objx/lv_btn.h **** void lv_btn_set_state(lv_obj_t * btn, lv_btn_state_t state);
 139:..\..\..\lvgl\version_6.1.2\lvgl\src\lv_objx/lv_btn.h **** 
 140:..\..\..\lvgl\version_6.1.2\lvgl\src\lv_objx/lv_btn.h **** /**
 141:..\..\..\lvgl\version_6.1.2\lvgl\src\lv_objx/lv_btn.h ****  * Toggle the state of the button (ON->OFF, OFF->ON)
 142:..\..\..\lvgl\version_6.1.2\lvgl\src\lv_objx/lv_btn.h ****  * @param btn pointer to a button object
 143:..\..\..\lvgl\version_6.1.2\lvgl\src\lv_objx/lv_btn.h ****  */
ARM GAS  C:\Users\tmj32\AppData\Local\Temp\ccH9iEPr.s 			page 10


 144:..\..\..\lvgl\version_6.1.2\lvgl\src\lv_objx/lv_btn.h **** void lv_btn_toggle(lv_obj_t * btn);
 145:..\..\..\lvgl\version_6.1.2\lvgl\src\lv_objx/lv_btn.h **** 
 146:..\..\..\lvgl\version_6.1.2\lvgl\src\lv_objx/lv_btn.h **** /**
 147:..\..\..\lvgl\version_6.1.2\lvgl\src\lv_objx/lv_btn.h ****  * Set the layout on a button
 148:..\..\..\lvgl\version_6.1.2\lvgl\src\lv_objx/lv_btn.h ****  * @param btn pointer to a button object
 149:..\..\..\lvgl\version_6.1.2\lvgl\src\lv_objx/lv_btn.h ****  * @param layout a layout from 'lv_cont_layout_t'
 150:..\..\..\lvgl\version_6.1.2\lvgl\src\lv_objx/lv_btn.h ****  */
 151:..\..\..\lvgl\version_6.1.2\lvgl\src\lv_objx/lv_btn.h **** static inline void lv_btn_set_layout(lv_obj_t * btn, lv_layout_t layout)
 152:..\..\..\lvgl\version_6.1.2\lvgl\src\lv_objx/lv_btn.h **** {
 109              		.loc 3 152 0
 110              		.cfi_startproc
 111              		@ args = 0, pretend = 0, frame = 8
 112              		@ frame_needed = 1, uses_anonymous_args = 0
 113 0000 80B5     		push	{r7, lr}
 114              		.cfi_def_cfa_offset 8
 115              		.cfi_offset 7, -8
 116              		.cfi_offset 14, -4
 117 0002 82B0     		sub	sp, sp, #8
 118              		.cfi_def_cfa_offset 16
 119 0004 00AF     		add	r7, sp, #0
 120              		.cfi_def_cfa_register 7
 121 0006 7860     		str	r0, [r7, #4]
 122 0008 0B46     		mov	r3, r1
 123 000a FB70     		strb	r3, [r7, #3]
 153:..\..\..\lvgl\version_6.1.2\lvgl\src\lv_objx/lv_btn.h ****     lv_cont_set_layout(btn, layout);
 124              		.loc 3 153 0
 125 000c FB78     		ldrb	r3, [r7, #3]	@ zero_extendqisi2
 126 000e 1946     		mov	r1, r3
 127 0010 7868     		ldr	r0, [r7, #4]
 128 0012 FFF7FEFF 		bl	lv_cont_set_layout
 154:..\..\..\lvgl\version_6.1.2\lvgl\src\lv_objx/lv_btn.h **** }
 129              		.loc 3 154 0
 130 0016 00BF     		nop
 131 0018 0837     		adds	r7, r7, #8
 132              		.cfi_def_cfa_offset 8
 133 001a BD46     		mov	sp, r7
 134              		.cfi_def_cfa_register 13
 135              		@ sp needed
 136 001c 80BD     		pop	{r7, pc}
 137              		.cfi_endproc
 138              	.LFE35:
 139              		.size	lv_btn_set_layout, .-lv_btn_set_layout
 140 001e 00BF     		.section	.text.lv_btn_set_fit,"ax",%progbits
 141              		.align	2
 142              		.thumb
 143              		.thumb_func
 144              		.type	lv_btn_set_fit, %function
 145              	lv_btn_set_fit:
 146              	.LFB38:
 155:..\..\..\lvgl\version_6.1.2\lvgl\src\lv_objx/lv_btn.h **** 
 156:..\..\..\lvgl\version_6.1.2\lvgl\src\lv_objx/lv_btn.h **** /**
 157:..\..\..\lvgl\version_6.1.2\lvgl\src\lv_objx/lv_btn.h ****  * Set the fit policy in all 4 directions separately.
 158:..\..\..\lvgl\version_6.1.2\lvgl\src\lv_objx/lv_btn.h ****  * It tells how to change the button size automatically.
 159:..\..\..\lvgl\version_6.1.2\lvgl\src\lv_objx/lv_btn.h ****  * @param btn pointer to a button object
 160:..\..\..\lvgl\version_6.1.2\lvgl\src\lv_objx/lv_btn.h ****  * @param left left fit policy from `lv_fit_t`
 161:..\..\..\lvgl\version_6.1.2\lvgl\src\lv_objx/lv_btn.h ****  * @param right right fit policy from `lv_fit_t`
 162:..\..\..\lvgl\version_6.1.2\lvgl\src\lv_objx/lv_btn.h ****  * @param top top fit policy from `lv_fit_t`
ARM GAS  C:\Users\tmj32\AppData\Local\Temp\ccH9iEPr.s 			page 11


 163:..\..\..\lvgl\version_6.1.2\lvgl\src\lv_objx/lv_btn.h ****  * @param bottom bottom fit policy from `lv_fit_t`
 164:..\..\..\lvgl\version_6.1.2\lvgl\src\lv_objx/lv_btn.h ****  */
 165:..\..\..\lvgl\version_6.1.2\lvgl\src\lv_objx/lv_btn.h **** static inline void lv_btn_set_fit4(lv_obj_t * btn, lv_fit_t left, lv_fit_t right, lv_fit_t top, lv_
 166:..\..\..\lvgl\version_6.1.2\lvgl\src\lv_objx/lv_btn.h **** {
 167:..\..\..\lvgl\version_6.1.2\lvgl\src\lv_objx/lv_btn.h ****     lv_cont_set_fit4(btn, left, right, top, bottom);
 168:..\..\..\lvgl\version_6.1.2\lvgl\src\lv_objx/lv_btn.h **** }
 169:..\..\..\lvgl\version_6.1.2\lvgl\src\lv_objx/lv_btn.h **** 
 170:..\..\..\lvgl\version_6.1.2\lvgl\src\lv_objx/lv_btn.h **** /**
 171:..\..\..\lvgl\version_6.1.2\lvgl\src\lv_objx/lv_btn.h ****  * Set the fit policy horizontally and vertically separately.
 172:..\..\..\lvgl\version_6.1.2\lvgl\src\lv_objx/lv_btn.h ****  * It tells how to change the button size automatically.
 173:..\..\..\lvgl\version_6.1.2\lvgl\src\lv_objx/lv_btn.h ****  * @param btn pointer to a button object
 174:..\..\..\lvgl\version_6.1.2\lvgl\src\lv_objx/lv_btn.h ****  * @param hor horizontal fit policy from `lv_fit_t`
 175:..\..\..\lvgl\version_6.1.2\lvgl\src\lv_objx/lv_btn.h ****  * @param ver vertical fit policy from `lv_fit_t`
 176:..\..\..\lvgl\version_6.1.2\lvgl\src\lv_objx/lv_btn.h ****  */
 177:..\..\..\lvgl\version_6.1.2\lvgl\src\lv_objx/lv_btn.h **** static inline void lv_btn_set_fit2(lv_obj_t * btn, lv_fit_t hor, lv_fit_t ver)
 178:..\..\..\lvgl\version_6.1.2\lvgl\src\lv_objx/lv_btn.h **** {
 179:..\..\..\lvgl\version_6.1.2\lvgl\src\lv_objx/lv_btn.h ****     lv_cont_set_fit2(btn, hor, ver);
 180:..\..\..\lvgl\version_6.1.2\lvgl\src\lv_objx/lv_btn.h **** }
 181:..\..\..\lvgl\version_6.1.2\lvgl\src\lv_objx/lv_btn.h **** 
 182:..\..\..\lvgl\version_6.1.2\lvgl\src\lv_objx/lv_btn.h **** /**
 183:..\..\..\lvgl\version_6.1.2\lvgl\src\lv_objx/lv_btn.h ****  * Set the fit policy in all 4 direction at once.
 184:..\..\..\lvgl\version_6.1.2\lvgl\src\lv_objx/lv_btn.h ****  * It tells how to change the button size automatically.
 185:..\..\..\lvgl\version_6.1.2\lvgl\src\lv_objx/lv_btn.h ****  * @param btn pointer to a button object
 186:..\..\..\lvgl\version_6.1.2\lvgl\src\lv_objx/lv_btn.h ****  * @param fit fit policy from `lv_fit_t`
 187:..\..\..\lvgl\version_6.1.2\lvgl\src\lv_objx/lv_btn.h ****  */
 188:..\..\..\lvgl\version_6.1.2\lvgl\src\lv_objx/lv_btn.h **** static inline void lv_btn_set_fit(lv_obj_t * btn, lv_fit_t fit)
 189:..\..\..\lvgl\version_6.1.2\lvgl\src\lv_objx/lv_btn.h **** {
 147              		.loc 3 189 0
 148              		.cfi_startproc
 149              		@ args = 0, pretend = 0, frame = 8
 150              		@ frame_needed = 1, uses_anonymous_args = 0
 151 0000 80B5     		push	{r7, lr}
 152              		.cfi_def_cfa_offset 8
 153              		.cfi_offset 7, -8
 154              		.cfi_offset 14, -4
 155 0002 82B0     		sub	sp, sp, #8
 156              		.cfi_def_cfa_offset 16
 157 0004 00AF     		add	r7, sp, #0
 158              		.cfi_def_cfa_register 7
 159 0006 7860     		str	r0, [r7, #4]
 160 0008 0B46     		mov	r3, r1
 161 000a FB70     		strb	r3, [r7, #3]
 190:..\..\..\lvgl\version_6.1.2\lvgl\src\lv_objx/lv_btn.h ****     lv_cont_set_fit(btn, fit);
 162              		.loc 3 190 0
 163 000c FB78     		ldrb	r3, [r7, #3]	@ zero_extendqisi2
 164 000e 1946     		mov	r1, r3
 165 0010 7868     		ldr	r0, [r7, #4]
 166 0012 FFF7FEFF 		bl	lv_cont_set_fit
 191:..\..\..\lvgl\version_6.1.2\lvgl\src\lv_objx/lv_btn.h **** }
 167              		.loc 3 191 0
 168 0016 00BF     		nop
 169 0018 0837     		adds	r7, r7, #8
 170              		.cfi_def_cfa_offset 8
 171 001a BD46     		mov	sp, r7
 172              		.cfi_def_cfa_register 13
 173              		@ sp needed
 174 001c 80BD     		pop	{r7, pc}
ARM GAS  C:\Users\tmj32\AppData\Local\Temp\ccH9iEPr.s 			page 12


 175              		.cfi_endproc
 176              	.LFE38:
 177              		.size	lv_btn_set_fit, .-lv_btn_set_fit
 178 001e 00BF     		.section	.text.lv_label_get_style,"ax",%progbits
 179              		.align	2
 180              		.thumb
 181              		.thumb_func
 182              		.type	lv_label_get_style, %function
 183              	lv_label_get_style:
 184              	.LFB45:
 185              		.file 4 "..\\..\\..\\lvgl\\version_6.1.2\\lvgl\\src\\lv_objx\\lv_label.h"
   1:..\..\..\lvgl\version_6.1.2\lvgl\src\lv_objx/lv_label.h **** /**
   2:..\..\..\lvgl\version_6.1.2\lvgl\src\lv_objx/lv_label.h ****  * @file lv_rect.h
   3:..\..\..\lvgl\version_6.1.2\lvgl\src\lv_objx/lv_label.h ****  *
   4:..\..\..\lvgl\version_6.1.2\lvgl\src\lv_objx/lv_label.h ****  */
   5:..\..\..\lvgl\version_6.1.2\lvgl\src\lv_objx/lv_label.h **** 
   6:..\..\..\lvgl\version_6.1.2\lvgl\src\lv_objx/lv_label.h **** #ifndef LV_LABEL_H
   7:..\..\..\lvgl\version_6.1.2\lvgl\src\lv_objx/lv_label.h **** #define LV_LABEL_H
   8:..\..\..\lvgl\version_6.1.2\lvgl\src\lv_objx/lv_label.h **** 
   9:..\..\..\lvgl\version_6.1.2\lvgl\src\lv_objx/lv_label.h **** #ifdef __cplusplus
  10:..\..\..\lvgl\version_6.1.2\lvgl\src\lv_objx/lv_label.h **** extern "C" {
  11:..\..\..\lvgl\version_6.1.2\lvgl\src\lv_objx/lv_label.h **** #endif
  12:..\..\..\lvgl\version_6.1.2\lvgl\src\lv_objx/lv_label.h **** 
  13:..\..\..\lvgl\version_6.1.2\lvgl\src\lv_objx/lv_label.h **** /*********************
  14:..\..\..\lvgl\version_6.1.2\lvgl\src\lv_objx/lv_label.h ****  *      INCLUDES
  15:..\..\..\lvgl\version_6.1.2\lvgl\src\lv_objx/lv_label.h ****  *********************/
  16:..\..\..\lvgl\version_6.1.2\lvgl\src\lv_objx/lv_label.h **** #ifdef LV_CONF_INCLUDE_SIMPLE
  17:..\..\..\lvgl\version_6.1.2\lvgl\src\lv_objx/lv_label.h **** #include "lv_conf.h"
  18:..\..\..\lvgl\version_6.1.2\lvgl\src\lv_objx/lv_label.h **** #else
  19:..\..\..\lvgl\version_6.1.2\lvgl\src\lv_objx/lv_label.h **** #include "../../../lv_conf.h"
  20:..\..\..\lvgl\version_6.1.2\lvgl\src\lv_objx/lv_label.h **** #endif
  21:..\..\..\lvgl\version_6.1.2\lvgl\src\lv_objx/lv_label.h **** 
  22:..\..\..\lvgl\version_6.1.2\lvgl\src\lv_objx/lv_label.h **** #if LV_USE_LABEL != 0
  23:..\..\..\lvgl\version_6.1.2\lvgl\src\lv_objx/lv_label.h **** 
  24:..\..\..\lvgl\version_6.1.2\lvgl\src\lv_objx/lv_label.h **** #include <stdarg.h>
  25:..\..\..\lvgl\version_6.1.2\lvgl\src\lv_objx/lv_label.h **** #include "../lv_core/lv_obj.h"
  26:..\..\..\lvgl\version_6.1.2\lvgl\src\lv_objx/lv_label.h **** #include "../lv_font/lv_font.h"
  27:..\..\..\lvgl\version_6.1.2\lvgl\src\lv_objx/lv_label.h **** #include "../lv_font/lv_symbol_def.h"
  28:..\..\..\lvgl\version_6.1.2\lvgl\src\lv_objx/lv_label.h **** #include "../lv_misc/lv_txt.h"
  29:..\..\..\lvgl\version_6.1.2\lvgl\src\lv_objx/lv_label.h **** #include "../lv_draw/lv_draw.h"
  30:..\..\..\lvgl\version_6.1.2\lvgl\src\lv_objx/lv_label.h **** 
  31:..\..\..\lvgl\version_6.1.2\lvgl\src\lv_objx/lv_label.h **** /*********************
  32:..\..\..\lvgl\version_6.1.2\lvgl\src\lv_objx/lv_label.h ****  *      DEFINES
  33:..\..\..\lvgl\version_6.1.2\lvgl\src\lv_objx/lv_label.h ****  *********************/
  34:..\..\..\lvgl\version_6.1.2\lvgl\src\lv_objx/lv_label.h **** #define LV_LABEL_DOT_NUM 3
  35:..\..\..\lvgl\version_6.1.2\lvgl\src\lv_objx/lv_label.h **** #define LV_LABEL_POS_LAST 0xFFFF
  36:..\..\..\lvgl\version_6.1.2\lvgl\src\lv_objx/lv_label.h **** #define LV_LABEL_TEXT_SEL_OFF LV_DRAW_LABEL_NO_TXT_SEL
  37:..\..\..\lvgl\version_6.1.2\lvgl\src\lv_objx/lv_label.h **** 
  38:..\..\..\lvgl\version_6.1.2\lvgl\src\lv_objx/lv_label.h **** LV_EXPORT_CONST_INT(LV_LABEL_DOT_NUM);
  39:..\..\..\lvgl\version_6.1.2\lvgl\src\lv_objx/lv_label.h **** LV_EXPORT_CONST_INT(LV_LABEL_POS_LAST);
  40:..\..\..\lvgl\version_6.1.2\lvgl\src\lv_objx/lv_label.h **** LV_EXPORT_CONST_INT(LV_LABEL_TEXT_SEL_OFF);
  41:..\..\..\lvgl\version_6.1.2\lvgl\src\lv_objx/lv_label.h **** 
  42:..\..\..\lvgl\version_6.1.2\lvgl\src\lv_objx/lv_label.h **** /**********************
  43:..\..\..\lvgl\version_6.1.2\lvgl\src\lv_objx/lv_label.h ****  *      TYPEDEFS
  44:..\..\..\lvgl\version_6.1.2\lvgl\src\lv_objx/lv_label.h ****  **********************/
  45:..\..\..\lvgl\version_6.1.2\lvgl\src\lv_objx/lv_label.h **** 
  46:..\..\..\lvgl\version_6.1.2\lvgl\src\lv_objx/lv_label.h **** /** Long mode behaviors. Used in 'lv_label_ext_t' */
ARM GAS  C:\Users\tmj32\AppData\Local\Temp\ccH9iEPr.s 			page 13


  47:..\..\..\lvgl\version_6.1.2\lvgl\src\lv_objx/lv_label.h **** enum {
  48:..\..\..\lvgl\version_6.1.2\lvgl\src\lv_objx/lv_label.h ****     LV_LABEL_LONG_EXPAND,    /**< Expand the object size to the text size*/
  49:..\..\..\lvgl\version_6.1.2\lvgl\src\lv_objx/lv_label.h ****     LV_LABEL_LONG_BREAK,     /**< Keep the object width, break the too long lines and expand the ob
  50:..\..\..\lvgl\version_6.1.2\lvgl\src\lv_objx/lv_label.h ****                                 height*/
  51:..\..\..\lvgl\version_6.1.2\lvgl\src\lv_objx/lv_label.h ****     LV_LABEL_LONG_DOT,       /**< Keep the size and write dots at the end if the text is too long*/
  52:..\..\..\lvgl\version_6.1.2\lvgl\src\lv_objx/lv_label.h ****     LV_LABEL_LONG_SROLL,      /**< Keep the size and roll the text back and forth*/
  53:..\..\..\lvgl\version_6.1.2\lvgl\src\lv_objx/lv_label.h ****     LV_LABEL_LONG_SROLL_CIRC, /**< Keep the size and roll the text circularly*/
  54:..\..\..\lvgl\version_6.1.2\lvgl\src\lv_objx/lv_label.h ****     LV_LABEL_LONG_CROP,      /**< Keep the size and crop the text out of it*/
  55:..\..\..\lvgl\version_6.1.2\lvgl\src\lv_objx/lv_label.h **** };
  56:..\..\..\lvgl\version_6.1.2\lvgl\src\lv_objx/lv_label.h **** typedef uint8_t lv_label_long_mode_t;
  57:..\..\..\lvgl\version_6.1.2\lvgl\src\lv_objx/lv_label.h **** 
  58:..\..\..\lvgl\version_6.1.2\lvgl\src\lv_objx/lv_label.h **** /** Label align policy*/
  59:..\..\..\lvgl\version_6.1.2\lvgl\src\lv_objx/lv_label.h **** enum {
  60:..\..\..\lvgl\version_6.1.2\lvgl\src\lv_objx/lv_label.h ****     LV_LABEL_ALIGN_LEFT, /**< Align text to left */
  61:..\..\..\lvgl\version_6.1.2\lvgl\src\lv_objx/lv_label.h ****     LV_LABEL_ALIGN_CENTER, /**< Align text to center */
  62:..\..\..\lvgl\version_6.1.2\lvgl\src\lv_objx/lv_label.h ****     LV_LABEL_ALIGN_RIGHT, /**< Align text to right */
  63:..\..\..\lvgl\version_6.1.2\lvgl\src\lv_objx/lv_label.h ****     LV_LABEL_ALIGN_AUTO, /**< Use LEFT or RIGHT depending on the direction of the text (LTR/RTL)*/
  64:..\..\..\lvgl\version_6.1.2\lvgl\src\lv_objx/lv_label.h **** };
  65:..\..\..\lvgl\version_6.1.2\lvgl\src\lv_objx/lv_label.h **** typedef uint8_t lv_label_align_t;
  66:..\..\..\lvgl\version_6.1.2\lvgl\src\lv_objx/lv_label.h **** 
  67:..\..\..\lvgl\version_6.1.2\lvgl\src\lv_objx/lv_label.h **** /** Data of label*/
  68:..\..\..\lvgl\version_6.1.2\lvgl\src\lv_objx/lv_label.h **** typedef struct
  69:..\..\..\lvgl\version_6.1.2\lvgl\src\lv_objx/lv_label.h **** {
  70:..\..\..\lvgl\version_6.1.2\lvgl\src\lv_objx/lv_label.h ****     /*Inherited from 'base_obj' so no inherited ext.*/ /*Ext. of ancestor*/
  71:..\..\..\lvgl\version_6.1.2\lvgl\src\lv_objx/lv_label.h ****     /*New data for this type */
  72:..\..\..\lvgl\version_6.1.2\lvgl\src\lv_objx/lv_label.h ****     char * text;        /*Text of the label*/
  73:..\..\..\lvgl\version_6.1.2\lvgl\src\lv_objx/lv_label.h **** 
  74:..\..\..\lvgl\version_6.1.2\lvgl\src\lv_objx/lv_label.h ****     union
  75:..\..\..\lvgl\version_6.1.2\lvgl\src\lv_objx/lv_label.h ****     {
  76:..\..\..\lvgl\version_6.1.2\lvgl\src\lv_objx/lv_label.h ****         char * tmp_ptr; /* Pointer to the allocated memory containing the character which are repla
  77:..\..\..\lvgl\version_6.1.2\lvgl\src\lv_objx/lv_label.h ****                            by the library)*/
  78:..\..\..\lvgl\version_6.1.2\lvgl\src\lv_objx/lv_label.h ****         char tmp[LV_LABEL_DOT_NUM + 1]; /* Directly store the characters if <=4 characters */
  79:..\..\..\lvgl\version_6.1.2\lvgl\src\lv_objx/lv_label.h ****     } dot;
  80:..\..\..\lvgl\version_6.1.2\lvgl\src\lv_objx/lv_label.h ****     uint16_t dot_end;  /*The text end position in dot mode (Handled by the library)*/
  81:..\..\..\lvgl\version_6.1.2\lvgl\src\lv_objx/lv_label.h ****     lv_point_t offset; /*Text draw position offset*/
  82:..\..\..\lvgl\version_6.1.2\lvgl\src\lv_objx/lv_label.h **** #if LV_LABEL_LONG_TXT_HINT
  83:..\..\..\lvgl\version_6.1.2\lvgl\src\lv_objx/lv_label.h ****     lv_draw_label_hint_t hint; /*Used to buffer info about large text*/
  84:..\..\..\lvgl\version_6.1.2\lvgl\src\lv_objx/lv_label.h **** #endif
  85:..\..\..\lvgl\version_6.1.2\lvgl\src\lv_objx/lv_label.h **** 
  86:..\..\..\lvgl\version_6.1.2\lvgl\src\lv_objx/lv_label.h **** #if LV_USE_ANIMATION
  87:..\..\..\lvgl\version_6.1.2\lvgl\src\lv_objx/lv_label.h ****     uint16_t anim_speed; /*Speed of scroll and roll animation in px/sec unit*/
  88:..\..\..\lvgl\version_6.1.2\lvgl\src\lv_objx/lv_label.h **** #endif
  89:..\..\..\lvgl\version_6.1.2\lvgl\src\lv_objx/lv_label.h **** 
  90:..\..\..\lvgl\version_6.1.2\lvgl\src\lv_objx/lv_label.h **** #if LV_LABEL_TEXT_SEL
  91:..\..\..\lvgl\version_6.1.2\lvgl\src\lv_objx/lv_label.h ****     uint16_t txt_sel_start; /*Left-most selection character*/
  92:..\..\..\lvgl\version_6.1.2\lvgl\src\lv_objx/lv_label.h ****     uint16_t txt_sel_end;   /*Right-most selection character*/
  93:..\..\..\lvgl\version_6.1.2\lvgl\src\lv_objx/lv_label.h **** #endif
  94:..\..\..\lvgl\version_6.1.2\lvgl\src\lv_objx/lv_label.h **** 
  95:..\..\..\lvgl\version_6.1.2\lvgl\src\lv_objx/lv_label.h ****     lv_label_long_mode_t long_mode : 3; /*Determinate what to do with the long texts*/
  96:..\..\..\lvgl\version_6.1.2\lvgl\src\lv_objx/lv_label.h ****     uint8_t static_txt : 1;             /*Flag to indicate the text is static*/
  97:..\..\..\lvgl\version_6.1.2\lvgl\src\lv_objx/lv_label.h ****     uint8_t align : 2;                  /*Align type from 'lv_label_align_t'*/
  98:..\..\..\lvgl\version_6.1.2\lvgl\src\lv_objx/lv_label.h ****     uint8_t recolor : 1;                /*Enable in-line letter re-coloring*/
  99:..\..\..\lvgl\version_6.1.2\lvgl\src\lv_objx/lv_label.h ****     uint8_t expand : 1;                 /*Ignore real width (used by the library with LV_LABEL_LONG
 100:..\..\..\lvgl\version_6.1.2\lvgl\src\lv_objx/lv_label.h ****     uint8_t body_draw : 1;              /*Draw background body*/
 101:..\..\..\lvgl\version_6.1.2\lvgl\src\lv_objx/lv_label.h ****     uint8_t dot_tmp_alloc : 1; /*True if dot_tmp has been allocated. False if dot_tmp directly hold
 102:..\..\..\lvgl\version_6.1.2\lvgl\src\lv_objx/lv_label.h ****                                   characters */
 103:..\..\..\lvgl\version_6.1.2\lvgl\src\lv_objx/lv_label.h **** } lv_label_ext_t;
ARM GAS  C:\Users\tmj32\AppData\Local\Temp\ccH9iEPr.s 			page 14


 104:..\..\..\lvgl\version_6.1.2\lvgl\src\lv_objx/lv_label.h **** 
 105:..\..\..\lvgl\version_6.1.2\lvgl\src\lv_objx/lv_label.h **** /** Label styles*/
 106:..\..\..\lvgl\version_6.1.2\lvgl\src\lv_objx/lv_label.h **** enum {
 107:..\..\..\lvgl\version_6.1.2\lvgl\src\lv_objx/lv_label.h ****     LV_LABEL_STYLE_MAIN,
 108:..\..\..\lvgl\version_6.1.2\lvgl\src\lv_objx/lv_label.h **** };
 109:..\..\..\lvgl\version_6.1.2\lvgl\src\lv_objx/lv_label.h **** typedef uint8_t lv_label_style_t;
 110:..\..\..\lvgl\version_6.1.2\lvgl\src\lv_objx/lv_label.h **** 
 111:..\..\..\lvgl\version_6.1.2\lvgl\src\lv_objx/lv_label.h **** /**********************
 112:..\..\..\lvgl\version_6.1.2\lvgl\src\lv_objx/lv_label.h ****  * GLOBAL PROTOTYPES
 113:..\..\..\lvgl\version_6.1.2\lvgl\src\lv_objx/lv_label.h ****  **********************/
 114:..\..\..\lvgl\version_6.1.2\lvgl\src\lv_objx/lv_label.h **** 
 115:..\..\..\lvgl\version_6.1.2\lvgl\src\lv_objx/lv_label.h **** /**
 116:..\..\..\lvgl\version_6.1.2\lvgl\src\lv_objx/lv_label.h ****  * Create a label objects
 117:..\..\..\lvgl\version_6.1.2\lvgl\src\lv_objx/lv_label.h ****  * @param par pointer to an object, it will be the parent of the new label
 118:..\..\..\lvgl\version_6.1.2\lvgl\src\lv_objx/lv_label.h ****  * @param copy pointer to a button object, if not NULL then the new object will be copied from it
 119:..\..\..\lvgl\version_6.1.2\lvgl\src\lv_objx/lv_label.h ****  * @return pointer to the created button
 120:..\..\..\lvgl\version_6.1.2\lvgl\src\lv_objx/lv_label.h ****  */
 121:..\..\..\lvgl\version_6.1.2\lvgl\src\lv_objx/lv_label.h **** lv_obj_t * lv_label_create(lv_obj_t * par, const lv_obj_t * copy);
 122:..\..\..\lvgl\version_6.1.2\lvgl\src\lv_objx/lv_label.h **** 
 123:..\..\..\lvgl\version_6.1.2\lvgl\src\lv_objx/lv_label.h **** /*=====================
 124:..\..\..\lvgl\version_6.1.2\lvgl\src\lv_objx/lv_label.h ****  * Setter functions
 125:..\..\..\lvgl\version_6.1.2\lvgl\src\lv_objx/lv_label.h ****  *====================*/
 126:..\..\..\lvgl\version_6.1.2\lvgl\src\lv_objx/lv_label.h **** 
 127:..\..\..\lvgl\version_6.1.2\lvgl\src\lv_objx/lv_label.h **** /**
 128:..\..\..\lvgl\version_6.1.2\lvgl\src\lv_objx/lv_label.h ****  * Set a new text for a label. Memory will be allocated to store the text by the label.
 129:..\..\..\lvgl\version_6.1.2\lvgl\src\lv_objx/lv_label.h ****  * @param label pointer to a label object
 130:..\..\..\lvgl\version_6.1.2\lvgl\src\lv_objx/lv_label.h ****  * @param text '\0' terminated character string. NULL to refresh with the current text.
 131:..\..\..\lvgl\version_6.1.2\lvgl\src\lv_objx/lv_label.h ****  */
 132:..\..\..\lvgl\version_6.1.2\lvgl\src\lv_objx/lv_label.h **** void lv_label_set_text(lv_obj_t * label, const char * text);
 133:..\..\..\lvgl\version_6.1.2\lvgl\src\lv_objx/lv_label.h **** 
 134:..\..\..\lvgl\version_6.1.2\lvgl\src\lv_objx/lv_label.h **** /**
 135:..\..\..\lvgl\version_6.1.2\lvgl\src\lv_objx/lv_label.h ****  * Set a new formatted text for a label. Memory will be allocated to store the text by the label.
 136:..\..\..\lvgl\version_6.1.2\lvgl\src\lv_objx/lv_label.h ****  * @param label pointer to a label object
 137:..\..\..\lvgl\version_6.1.2\lvgl\src\lv_objx/lv_label.h ****  * @param fmt `printf`-like format
 138:..\..\..\lvgl\version_6.1.2\lvgl\src\lv_objx/lv_label.h ****  */
 139:..\..\..\lvgl\version_6.1.2\lvgl\src\lv_objx/lv_label.h **** void lv_label_set_text_fmt(lv_obj_t * label, const char * fmt, ...);
 140:..\..\..\lvgl\version_6.1.2\lvgl\src\lv_objx/lv_label.h **** 
 141:..\..\..\lvgl\version_6.1.2\lvgl\src\lv_objx/lv_label.h **** /**
 142:..\..\..\lvgl\version_6.1.2\lvgl\src\lv_objx/lv_label.h ****  * Set a new text for a label from a character array. The array don't has to be '\0' terminated.
 143:..\..\..\lvgl\version_6.1.2\lvgl\src\lv_objx/lv_label.h ****  * Memory will be allocated to store the array by the label.
 144:..\..\..\lvgl\version_6.1.2\lvgl\src\lv_objx/lv_label.h ****  * @param label pointer to a label object
 145:..\..\..\lvgl\version_6.1.2\lvgl\src\lv_objx/lv_label.h ****  * @param array array of characters or NULL to refresh the label
 146:..\..\..\lvgl\version_6.1.2\lvgl\src\lv_objx/lv_label.h ****  * @param size the size of 'array' in bytes
 147:..\..\..\lvgl\version_6.1.2\lvgl\src\lv_objx/lv_label.h ****  */
 148:..\..\..\lvgl\version_6.1.2\lvgl\src\lv_objx/lv_label.h **** void lv_label_set_array_text(lv_obj_t * label, const char * array, uint16_t size);
 149:..\..\..\lvgl\version_6.1.2\lvgl\src\lv_objx/lv_label.h **** 
 150:..\..\..\lvgl\version_6.1.2\lvgl\src\lv_objx/lv_label.h **** /**
 151:..\..\..\lvgl\version_6.1.2\lvgl\src\lv_objx/lv_label.h ****  * Set a static text. It will not be saved by the label so the 'text' variable
 152:..\..\..\lvgl\version_6.1.2\lvgl\src\lv_objx/lv_label.h ****  * has to be 'alive' while the label exist.
 153:..\..\..\lvgl\version_6.1.2\lvgl\src\lv_objx/lv_label.h ****  * @param label pointer to a label object
 154:..\..\..\lvgl\version_6.1.2\lvgl\src\lv_objx/lv_label.h ****  * @param text pointer to a text. NULL to refresh with the current text.
 155:..\..\..\lvgl\version_6.1.2\lvgl\src\lv_objx/lv_label.h ****  */
 156:..\..\..\lvgl\version_6.1.2\lvgl\src\lv_objx/lv_label.h **** void lv_label_set_static_text(lv_obj_t * label, const char * text);
 157:..\..\..\lvgl\version_6.1.2\lvgl\src\lv_objx/lv_label.h **** 
 158:..\..\..\lvgl\version_6.1.2\lvgl\src\lv_objx/lv_label.h **** /**
 159:..\..\..\lvgl\version_6.1.2\lvgl\src\lv_objx/lv_label.h ****  * Set the behavior of the label with longer text then the object size
 160:..\..\..\lvgl\version_6.1.2\lvgl\src\lv_objx/lv_label.h ****  * @param label pointer to a label object
ARM GAS  C:\Users\tmj32\AppData\Local\Temp\ccH9iEPr.s 			page 15


 161:..\..\..\lvgl\version_6.1.2\lvgl\src\lv_objx/lv_label.h ****  * @param long_mode the new mode from 'lv_label_long_mode' enum.
 162:..\..\..\lvgl\version_6.1.2\lvgl\src\lv_objx/lv_label.h ****  *                  In LV_LONG_BREAK/LONG/ROLL the size of the label should be set AFTER this
 163:..\..\..\lvgl\version_6.1.2\lvgl\src\lv_objx/lv_label.h ****  * function
 164:..\..\..\lvgl\version_6.1.2\lvgl\src\lv_objx/lv_label.h ****  */
 165:..\..\..\lvgl\version_6.1.2\lvgl\src\lv_objx/lv_label.h **** void lv_label_set_long_mode(lv_obj_t * label, lv_label_long_mode_t long_mode);
 166:..\..\..\lvgl\version_6.1.2\lvgl\src\lv_objx/lv_label.h **** 
 167:..\..\..\lvgl\version_6.1.2\lvgl\src\lv_objx/lv_label.h **** /**
 168:..\..\..\lvgl\version_6.1.2\lvgl\src\lv_objx/lv_label.h ****  * Set the align of the label (left or center)
 169:..\..\..\lvgl\version_6.1.2\lvgl\src\lv_objx/lv_label.h ****  * @param label pointer to a label object
 170:..\..\..\lvgl\version_6.1.2\lvgl\src\lv_objx/lv_label.h ****  * @param align 'LV_LABEL_ALIGN_LEFT' or 'LV_LABEL_ALIGN_LEFT'
 171:..\..\..\lvgl\version_6.1.2\lvgl\src\lv_objx/lv_label.h ****  */
 172:..\..\..\lvgl\version_6.1.2\lvgl\src\lv_objx/lv_label.h **** void lv_label_set_align(lv_obj_t * label, lv_label_align_t align);
 173:..\..\..\lvgl\version_6.1.2\lvgl\src\lv_objx/lv_label.h **** 
 174:..\..\..\lvgl\version_6.1.2\lvgl\src\lv_objx/lv_label.h **** /**
 175:..\..\..\lvgl\version_6.1.2\lvgl\src\lv_objx/lv_label.h ****  * Enable the recoloring by in-line commands
 176:..\..\..\lvgl\version_6.1.2\lvgl\src\lv_objx/lv_label.h ****  * @param label pointer to a label object
 177:..\..\..\lvgl\version_6.1.2\lvgl\src\lv_objx/lv_label.h ****  * @param en true: enable recoloring, false: disable
 178:..\..\..\lvgl\version_6.1.2\lvgl\src\lv_objx/lv_label.h ****  */
 179:..\..\..\lvgl\version_6.1.2\lvgl\src\lv_objx/lv_label.h **** void lv_label_set_recolor(lv_obj_t * label, bool en);
 180:..\..\..\lvgl\version_6.1.2\lvgl\src\lv_objx/lv_label.h **** 
 181:..\..\..\lvgl\version_6.1.2\lvgl\src\lv_objx/lv_label.h **** /**
 182:..\..\..\lvgl\version_6.1.2\lvgl\src\lv_objx/lv_label.h ****  * Set the label to draw (or not draw) background specified in its style's body
 183:..\..\..\lvgl\version_6.1.2\lvgl\src\lv_objx/lv_label.h ****  * @param label pointer to a label object
 184:..\..\..\lvgl\version_6.1.2\lvgl\src\lv_objx/lv_label.h ****  * @param en true: draw body; false: don't draw body
 185:..\..\..\lvgl\version_6.1.2\lvgl\src\lv_objx/lv_label.h ****  */
 186:..\..\..\lvgl\version_6.1.2\lvgl\src\lv_objx/lv_label.h **** void lv_label_set_body_draw(lv_obj_t * label, bool en);
 187:..\..\..\lvgl\version_6.1.2\lvgl\src\lv_objx/lv_label.h **** 
 188:..\..\..\lvgl\version_6.1.2\lvgl\src\lv_objx/lv_label.h **** /**
 189:..\..\..\lvgl\version_6.1.2\lvgl\src\lv_objx/lv_label.h ****  * Set the label's animation speed in LV_LABEL_LONG_SROLL/SCROLL_CIRC modes
 190:..\..\..\lvgl\version_6.1.2\lvgl\src\lv_objx/lv_label.h ****  * @param label pointer to a label object
 191:..\..\..\lvgl\version_6.1.2\lvgl\src\lv_objx/lv_label.h ****  * @param anim_speed speed of animation in px/sec unit
 192:..\..\..\lvgl\version_6.1.2\lvgl\src\lv_objx/lv_label.h ****  */
 193:..\..\..\lvgl\version_6.1.2\lvgl\src\lv_objx/lv_label.h **** void lv_label_set_anim_speed(lv_obj_t * label, uint16_t anim_speed);
 194:..\..\..\lvgl\version_6.1.2\lvgl\src\lv_objx/lv_label.h **** 
 195:..\..\..\lvgl\version_6.1.2\lvgl\src\lv_objx/lv_label.h **** /**
 196:..\..\..\lvgl\version_6.1.2\lvgl\src\lv_objx/lv_label.h ****  * Set the style of an label
 197:..\..\..\lvgl\version_6.1.2\lvgl\src\lv_objx/lv_label.h ****  * @param label pointer to an label object
 198:..\..\..\lvgl\version_6.1.2\lvgl\src\lv_objx/lv_label.h ****  * @param type which style should be get (can be only `LV_LABEL_STYLE_MAIN`)
 199:..\..\..\lvgl\version_6.1.2\lvgl\src\lv_objx/lv_label.h ****  * @param style pointer to a style
 200:..\..\..\lvgl\version_6.1.2\lvgl\src\lv_objx/lv_label.h ****  */
 201:..\..\..\lvgl\version_6.1.2\lvgl\src\lv_objx/lv_label.h **** static inline void lv_label_set_style(lv_obj_t * label, lv_label_style_t type, const lv_style_t * s
 202:..\..\..\lvgl\version_6.1.2\lvgl\src\lv_objx/lv_label.h **** {
 203:..\..\..\lvgl\version_6.1.2\lvgl\src\lv_objx/lv_label.h ****     (void)type; /*Unused*/
 204:..\..\..\lvgl\version_6.1.2\lvgl\src\lv_objx/lv_label.h ****     lv_obj_set_style(label, style);
 205:..\..\..\lvgl\version_6.1.2\lvgl\src\lv_objx/lv_label.h **** }
 206:..\..\..\lvgl\version_6.1.2\lvgl\src\lv_objx/lv_label.h **** 
 207:..\..\..\lvgl\version_6.1.2\lvgl\src\lv_objx/lv_label.h **** /**
 208:..\..\..\lvgl\version_6.1.2\lvgl\src\lv_objx/lv_label.h ****  * @brief Set the selection start index.
 209:..\..\..\lvgl\version_6.1.2\lvgl\src\lv_objx/lv_label.h ****  * @param label pointer to a label object.
 210:..\..\..\lvgl\version_6.1.2\lvgl\src\lv_objx/lv_label.h ****  * @param index index to set. `LV_LABEL_TXT_SEL_OFF` to select nothing.
 211:..\..\..\lvgl\version_6.1.2\lvgl\src\lv_objx/lv_label.h ****  */
 212:..\..\..\lvgl\version_6.1.2\lvgl\src\lv_objx/lv_label.h **** void lv_label_set_text_sel_start(lv_obj_t * label, uint16_t index);
 213:..\..\..\lvgl\version_6.1.2\lvgl\src\lv_objx/lv_label.h **** 
 214:..\..\..\lvgl\version_6.1.2\lvgl\src\lv_objx/lv_label.h **** /**
 215:..\..\..\lvgl\version_6.1.2\lvgl\src\lv_objx/lv_label.h ****  * @brief Set the selection end index.
 216:..\..\..\lvgl\version_6.1.2\lvgl\src\lv_objx/lv_label.h ****  * @param label pointer to a label object.
 217:..\..\..\lvgl\version_6.1.2\lvgl\src\lv_objx/lv_label.h ****  * @param index index to set. `LV_LABEL_TXT_SEL_OFF` to select nothing.
ARM GAS  C:\Users\tmj32\AppData\Local\Temp\ccH9iEPr.s 			page 16


 218:..\..\..\lvgl\version_6.1.2\lvgl\src\lv_objx/lv_label.h ****  */
 219:..\..\..\lvgl\version_6.1.2\lvgl\src\lv_objx/lv_label.h **** void lv_label_set_text_sel_end(lv_obj_t * label, uint16_t index);
 220:..\..\..\lvgl\version_6.1.2\lvgl\src\lv_objx/lv_label.h **** 
 221:..\..\..\lvgl\version_6.1.2\lvgl\src\lv_objx/lv_label.h **** /*=====================
 222:..\..\..\lvgl\version_6.1.2\lvgl\src\lv_objx/lv_label.h ****  * Getter functions
 223:..\..\..\lvgl\version_6.1.2\lvgl\src\lv_objx/lv_label.h ****  *====================*/
 224:..\..\..\lvgl\version_6.1.2\lvgl\src\lv_objx/lv_label.h **** 
 225:..\..\..\lvgl\version_6.1.2\lvgl\src\lv_objx/lv_label.h **** /**
 226:..\..\..\lvgl\version_6.1.2\lvgl\src\lv_objx/lv_label.h ****  * Get the text of a label
 227:..\..\..\lvgl\version_6.1.2\lvgl\src\lv_objx/lv_label.h ****  * @param label pointer to a label object
 228:..\..\..\lvgl\version_6.1.2\lvgl\src\lv_objx/lv_label.h ****  * @return the text of the label
 229:..\..\..\lvgl\version_6.1.2\lvgl\src\lv_objx/lv_label.h ****  */
 230:..\..\..\lvgl\version_6.1.2\lvgl\src\lv_objx/lv_label.h **** char * lv_label_get_text(const lv_obj_t * label);
 231:..\..\..\lvgl\version_6.1.2\lvgl\src\lv_objx/lv_label.h **** 
 232:..\..\..\lvgl\version_6.1.2\lvgl\src\lv_objx/lv_label.h **** /**
 233:..\..\..\lvgl\version_6.1.2\lvgl\src\lv_objx/lv_label.h ****  * Get the long mode of a label
 234:..\..\..\lvgl\version_6.1.2\lvgl\src\lv_objx/lv_label.h ****  * @param label pointer to a label object
 235:..\..\..\lvgl\version_6.1.2\lvgl\src\lv_objx/lv_label.h ****  * @return the long mode
 236:..\..\..\lvgl\version_6.1.2\lvgl\src\lv_objx/lv_label.h ****  */
 237:..\..\..\lvgl\version_6.1.2\lvgl\src\lv_objx/lv_label.h **** lv_label_long_mode_t lv_label_get_long_mode(const lv_obj_t * label);
 238:..\..\..\lvgl\version_6.1.2\lvgl\src\lv_objx/lv_label.h **** 
 239:..\..\..\lvgl\version_6.1.2\lvgl\src\lv_objx/lv_label.h **** /**
 240:..\..\..\lvgl\version_6.1.2\lvgl\src\lv_objx/lv_label.h ****  * Get the align attribute
 241:..\..\..\lvgl\version_6.1.2\lvgl\src\lv_objx/lv_label.h ****  * @param label pointer to a label object
 242:..\..\..\lvgl\version_6.1.2\lvgl\src\lv_objx/lv_label.h ****  * @return LV_LABEL_ALIGN_LEFT or LV_LABEL_ALIGN_CENTER
 243:..\..\..\lvgl\version_6.1.2\lvgl\src\lv_objx/lv_label.h ****  */
 244:..\..\..\lvgl\version_6.1.2\lvgl\src\lv_objx/lv_label.h **** lv_label_align_t lv_label_get_align(const lv_obj_t * label);
 245:..\..\..\lvgl\version_6.1.2\lvgl\src\lv_objx/lv_label.h **** 
 246:..\..\..\lvgl\version_6.1.2\lvgl\src\lv_objx/lv_label.h **** /**
 247:..\..\..\lvgl\version_6.1.2\lvgl\src\lv_objx/lv_label.h ****  * Get the recoloring attribute
 248:..\..\..\lvgl\version_6.1.2\lvgl\src\lv_objx/lv_label.h ****  * @param label pointer to a label object
 249:..\..\..\lvgl\version_6.1.2\lvgl\src\lv_objx/lv_label.h ****  * @return true: recoloring is enabled, false: disable
 250:..\..\..\lvgl\version_6.1.2\lvgl\src\lv_objx/lv_label.h ****  */
 251:..\..\..\lvgl\version_6.1.2\lvgl\src\lv_objx/lv_label.h **** bool lv_label_get_recolor(const lv_obj_t * label);
 252:..\..\..\lvgl\version_6.1.2\lvgl\src\lv_objx/lv_label.h **** 
 253:..\..\..\lvgl\version_6.1.2\lvgl\src\lv_objx/lv_label.h **** /**
 254:..\..\..\lvgl\version_6.1.2\lvgl\src\lv_objx/lv_label.h ****  * Get the body draw attribute
 255:..\..\..\lvgl\version_6.1.2\lvgl\src\lv_objx/lv_label.h ****  * @param label pointer to a label object
 256:..\..\..\lvgl\version_6.1.2\lvgl\src\lv_objx/lv_label.h ****  * @return true: draw body; false: don't draw body
 257:..\..\..\lvgl\version_6.1.2\lvgl\src\lv_objx/lv_label.h ****  */
 258:..\..\..\lvgl\version_6.1.2\lvgl\src\lv_objx/lv_label.h **** bool lv_label_get_body_draw(const lv_obj_t * label);
 259:..\..\..\lvgl\version_6.1.2\lvgl\src\lv_objx/lv_label.h **** 
 260:..\..\..\lvgl\version_6.1.2\lvgl\src\lv_objx/lv_label.h **** /**
 261:..\..\..\lvgl\version_6.1.2\lvgl\src\lv_objx/lv_label.h ****  * Get the label's animation speed in LV_LABEL_LONG_ROLL and SCROLL modes
 262:..\..\..\lvgl\version_6.1.2\lvgl\src\lv_objx/lv_label.h ****  * @param label pointer to a label object
 263:..\..\..\lvgl\version_6.1.2\lvgl\src\lv_objx/lv_label.h ****  * @return speed of animation in px/sec unit
 264:..\..\..\lvgl\version_6.1.2\lvgl\src\lv_objx/lv_label.h ****  */
 265:..\..\..\lvgl\version_6.1.2\lvgl\src\lv_objx/lv_label.h **** uint16_t lv_label_get_anim_speed(const lv_obj_t * label);
 266:..\..\..\lvgl\version_6.1.2\lvgl\src\lv_objx/lv_label.h **** 
 267:..\..\..\lvgl\version_6.1.2\lvgl\src\lv_objx/lv_label.h **** /**
 268:..\..\..\lvgl\version_6.1.2\lvgl\src\lv_objx/lv_label.h ****  * Get the relative x and y coordinates of a letter
 269:..\..\..\lvgl\version_6.1.2\lvgl\src\lv_objx/lv_label.h ****  * @param label pointer to a label object
 270:..\..\..\lvgl\version_6.1.2\lvgl\src\lv_objx/lv_label.h ****  * @param index index of the letter [0 ... text length]. Expressed in character index, not byte
 271:..\..\..\lvgl\version_6.1.2\lvgl\src\lv_objx/lv_label.h ****  * index (different in UTF-8)
 272:..\..\..\lvgl\version_6.1.2\lvgl\src\lv_objx/lv_label.h ****  * @param pos store the result here (E.g. index = 0 gives 0;0 coordinates)
 273:..\..\..\lvgl\version_6.1.2\lvgl\src\lv_objx/lv_label.h ****  */
 274:..\..\..\lvgl\version_6.1.2\lvgl\src\lv_objx/lv_label.h **** void lv_label_get_letter_pos(const lv_obj_t * label, uint16_t index, lv_point_t * pos);
ARM GAS  C:\Users\tmj32\AppData\Local\Temp\ccH9iEPr.s 			page 17


 275:..\..\..\lvgl\version_6.1.2\lvgl\src\lv_objx/lv_label.h **** 
 276:..\..\..\lvgl\version_6.1.2\lvgl\src\lv_objx/lv_label.h **** /**
 277:..\..\..\lvgl\version_6.1.2\lvgl\src\lv_objx/lv_label.h ****  * Get the index of letter on a relative point of a label
 278:..\..\..\lvgl\version_6.1.2\lvgl\src\lv_objx/lv_label.h ****  * @param label pointer to label object
 279:..\..\..\lvgl\version_6.1.2\lvgl\src\lv_objx/lv_label.h ****  * @param pos pointer to point with coordinates on a the label
 280:..\..\..\lvgl\version_6.1.2\lvgl\src\lv_objx/lv_label.h ****  * @return the index of the letter on the 'pos_p' point (E.g. on 0;0 is the 0. letter)
 281:..\..\..\lvgl\version_6.1.2\lvgl\src\lv_objx/lv_label.h ****  * Expressed in character index and not byte index (different in UTF-8)
 282:..\..\..\lvgl\version_6.1.2\lvgl\src\lv_objx/lv_label.h ****  */
 283:..\..\..\lvgl\version_6.1.2\lvgl\src\lv_objx/lv_label.h **** uint16_t lv_label_get_letter_on(const lv_obj_t * label, lv_point_t * pos);
 284:..\..\..\lvgl\version_6.1.2\lvgl\src\lv_objx/lv_label.h **** 
 285:..\..\..\lvgl\version_6.1.2\lvgl\src\lv_objx/lv_label.h **** /**
 286:..\..\..\lvgl\version_6.1.2\lvgl\src\lv_objx/lv_label.h ****  * Check if a character is drawn under a point.
 287:..\..\..\lvgl\version_6.1.2\lvgl\src\lv_objx/lv_label.h ****  * @param label Label object
 288:..\..\..\lvgl\version_6.1.2\lvgl\src\lv_objx/lv_label.h ****  * @param pos Point to check for characte under
 289:..\..\..\lvgl\version_6.1.2\lvgl\src\lv_objx/lv_label.h ****  * @return whether a character is drawn under the point
 290:..\..\..\lvgl\version_6.1.2\lvgl\src\lv_objx/lv_label.h ****  */
 291:..\..\..\lvgl\version_6.1.2\lvgl\src\lv_objx/lv_label.h **** bool lv_label_is_char_under_pos(const lv_obj_t * label, lv_point_t * pos);
 292:..\..\..\lvgl\version_6.1.2\lvgl\src\lv_objx/lv_label.h **** 
 293:..\..\..\lvgl\version_6.1.2\lvgl\src\lv_objx/lv_label.h **** /**
 294:..\..\..\lvgl\version_6.1.2\lvgl\src\lv_objx/lv_label.h ****  * Get the style of an label object
 295:..\..\..\lvgl\version_6.1.2\lvgl\src\lv_objx/lv_label.h ****  * @param label pointer to an label object
 296:..\..\..\lvgl\version_6.1.2\lvgl\src\lv_objx/lv_label.h ****  * @param type which style should be get (can be only `LV_LABEL_STYLE_MAIN`)
 297:..\..\..\lvgl\version_6.1.2\lvgl\src\lv_objx/lv_label.h ****  * @return pointer to the label's style
 298:..\..\..\lvgl\version_6.1.2\lvgl\src\lv_objx/lv_label.h ****  */
 299:..\..\..\lvgl\version_6.1.2\lvgl\src\lv_objx/lv_label.h **** static inline const lv_style_t * lv_label_get_style(const lv_obj_t * label, lv_label_style_t type)
 300:..\..\..\lvgl\version_6.1.2\lvgl\src\lv_objx/lv_label.h **** {
 186              		.loc 4 300 0
 187              		.cfi_startproc
 188              		@ args = 0, pretend = 0, frame = 8
 189              		@ frame_needed = 1, uses_anonymous_args = 0
 190 0000 80B5     		push	{r7, lr}
 191              		.cfi_def_cfa_offset 8
 192              		.cfi_offset 7, -8
 193              		.cfi_offset 14, -4
 194 0002 82B0     		sub	sp, sp, #8
 195              		.cfi_def_cfa_offset 16
 196 0004 00AF     		add	r7, sp, #0
 197              		.cfi_def_cfa_register 7
 198 0006 7860     		str	r0, [r7, #4]
 199 0008 0B46     		mov	r3, r1
 200 000a FB70     		strb	r3, [r7, #3]
 301:..\..\..\lvgl\version_6.1.2\lvgl\src\lv_objx/lv_label.h ****     (void)type; /*Unused*/
 302:..\..\..\lvgl\version_6.1.2\lvgl\src\lv_objx/lv_label.h ****     return lv_obj_get_style(label);
 201              		.loc 4 302 0
 202 000c 7868     		ldr	r0, [r7, #4]
 203 000e FFF7FEFF 		bl	lv_obj_get_style
 204 0012 0346     		mov	r3, r0
 303:..\..\..\lvgl\version_6.1.2\lvgl\src\lv_objx/lv_label.h **** }
 205              		.loc 4 303 0
 206 0014 1846     		mov	r0, r3
 207 0016 0837     		adds	r7, r7, #8
 208              		.cfi_def_cfa_offset 8
 209 0018 BD46     		mov	sp, r7
 210              		.cfi_def_cfa_register 13
 211              		@ sp needed
 212 001a 80BD     		pop	{r7, pc}
 213              		.cfi_endproc
ARM GAS  C:\Users\tmj32\AppData\Local\Temp\ccH9iEPr.s 			page 18


 214              	.LFE45:
 215              		.size	lv_label_get_style, .-lv_label_get_style
 216              		.bss
 217              		.align	2
 218              	ancestor_bg_design:
 219 0000 00000000 		.space	4
 220              		.align	2
 221              	ancestor_bullet_design:
 222 0004 00000000 		.space	4
 223              		.align	2
 224              	ancestor_signal:
 225 0008 00000000 		.space	4
 226              		.section	.rodata
 227              		.align	2
 228              	.LC0:
 229 0000 43686563 		.ascii	"Check box\000"
 229      6B20626F 
 229      7800
 230              		.section	.text.lv_cb_create,"ax",%progbits
 231              		.align	2
 232              		.global	lv_cb_create
 233              		.thumb
 234              		.thumb_func
 235              		.type	lv_cb_create, %function
 236              	lv_cb_create:
 237              	.LFB50:
 238              		.file 5 "..\\..\\..\\lvgl\\version_6.1.2\\lvgl\\src\\lv_objx\\lv_cb.c"
   1:..\..\..\lvgl\version_6.1.2\lvgl\src\lv_objx/lv_cb.c **** /**
   2:..\..\..\lvgl\version_6.1.2\lvgl\src\lv_objx/lv_cb.c ****  * @file lv_cb.c
   3:..\..\..\lvgl\version_6.1.2\lvgl\src\lv_objx/lv_cb.c ****  *
   4:..\..\..\lvgl\version_6.1.2\lvgl\src\lv_objx/lv_cb.c ****  */
   5:..\..\..\lvgl\version_6.1.2\lvgl\src\lv_objx/lv_cb.c **** 
   6:..\..\..\lvgl\version_6.1.2\lvgl\src\lv_objx/lv_cb.c **** /*********************
   7:..\..\..\lvgl\version_6.1.2\lvgl\src\lv_objx/lv_cb.c ****  *      INCLUDES
   8:..\..\..\lvgl\version_6.1.2\lvgl\src\lv_objx/lv_cb.c ****  *********************/
   9:..\..\..\lvgl\version_6.1.2\lvgl\src\lv_objx/lv_cb.c **** #include "lv_cb.h"
  10:..\..\..\lvgl\version_6.1.2\lvgl\src\lv_objx/lv_cb.c **** #if LV_USE_CB != 0
  11:..\..\..\lvgl\version_6.1.2\lvgl\src\lv_objx/lv_cb.c **** 
  12:..\..\..\lvgl\version_6.1.2\lvgl\src\lv_objx/lv_cb.c **** #include "../lv_core/lv_debug.h"
  13:..\..\..\lvgl\version_6.1.2\lvgl\src\lv_objx/lv_cb.c **** #include "../lv_core/lv_group.h"
  14:..\..\..\lvgl\version_6.1.2\lvgl\src\lv_objx/lv_cb.c **** #include "../lv_themes/lv_theme.h"
  15:..\..\..\lvgl\version_6.1.2\lvgl\src\lv_objx/lv_cb.c **** 
  16:..\..\..\lvgl\version_6.1.2\lvgl\src\lv_objx/lv_cb.c **** /*********************
  17:..\..\..\lvgl\version_6.1.2\lvgl\src\lv_objx/lv_cb.c ****  *      DEFINES
  18:..\..\..\lvgl\version_6.1.2\lvgl\src\lv_objx/lv_cb.c ****  *********************/
  19:..\..\..\lvgl\version_6.1.2\lvgl\src\lv_objx/lv_cb.c **** #define LV_OBJX_NAME "lv_cb"
  20:..\..\..\lvgl\version_6.1.2\lvgl\src\lv_objx/lv_cb.c **** 
  21:..\..\..\lvgl\version_6.1.2\lvgl\src\lv_objx/lv_cb.c **** /**********************
  22:..\..\..\lvgl\version_6.1.2\lvgl\src\lv_objx/lv_cb.c ****  *      TYPEDEFS
  23:..\..\..\lvgl\version_6.1.2\lvgl\src\lv_objx/lv_cb.c ****  **********************/
  24:..\..\..\lvgl\version_6.1.2\lvgl\src\lv_objx/lv_cb.c **** 
  25:..\..\..\lvgl\version_6.1.2\lvgl\src\lv_objx/lv_cb.c **** /**********************
  26:..\..\..\lvgl\version_6.1.2\lvgl\src\lv_objx/lv_cb.c ****  *  STATIC PROTOTYPES
  27:..\..\..\lvgl\version_6.1.2\lvgl\src\lv_objx/lv_cb.c ****  **********************/
  28:..\..\..\lvgl\version_6.1.2\lvgl\src\lv_objx/lv_cb.c **** static bool lv_cb_design(lv_obj_t * cb, const lv_area_t * mask, lv_design_mode_t mode);
  29:..\..\..\lvgl\version_6.1.2\lvgl\src\lv_objx/lv_cb.c **** static bool lv_bullet_design(lv_obj_t * bullet, const lv_area_t * mask, lv_design_mode_t mode);
  30:..\..\..\lvgl\version_6.1.2\lvgl\src\lv_objx/lv_cb.c **** static lv_res_t lv_cb_signal(lv_obj_t * cb, lv_signal_t sign, void * param);
ARM GAS  C:\Users\tmj32\AppData\Local\Temp\ccH9iEPr.s 			page 19


  31:..\..\..\lvgl\version_6.1.2\lvgl\src\lv_objx/lv_cb.c **** 
  32:..\..\..\lvgl\version_6.1.2\lvgl\src\lv_objx/lv_cb.c **** /**********************
  33:..\..\..\lvgl\version_6.1.2\lvgl\src\lv_objx/lv_cb.c ****  *  STATIC VARIABLES
  34:..\..\..\lvgl\version_6.1.2\lvgl\src\lv_objx/lv_cb.c ****  **********************/
  35:..\..\..\lvgl\version_6.1.2\lvgl\src\lv_objx/lv_cb.c **** static lv_design_cb_t ancestor_bg_design;
  36:..\..\..\lvgl\version_6.1.2\lvgl\src\lv_objx/lv_cb.c **** static lv_design_cb_t ancestor_bullet_design;
  37:..\..\..\lvgl\version_6.1.2\lvgl\src\lv_objx/lv_cb.c **** static lv_signal_cb_t ancestor_signal;
  38:..\..\..\lvgl\version_6.1.2\lvgl\src\lv_objx/lv_cb.c **** 
  39:..\..\..\lvgl\version_6.1.2\lvgl\src\lv_objx/lv_cb.c **** /**********************
  40:..\..\..\lvgl\version_6.1.2\lvgl\src\lv_objx/lv_cb.c ****  *      MACROS
  41:..\..\..\lvgl\version_6.1.2\lvgl\src\lv_objx/lv_cb.c ****  **********************/
  42:..\..\..\lvgl\version_6.1.2\lvgl\src\lv_objx/lv_cb.c **** 
  43:..\..\..\lvgl\version_6.1.2\lvgl\src\lv_objx/lv_cb.c **** /**********************
  44:..\..\..\lvgl\version_6.1.2\lvgl\src\lv_objx/lv_cb.c ****  *   GLOBAL FUNCTIONS
  45:..\..\..\lvgl\version_6.1.2\lvgl\src\lv_objx/lv_cb.c ****  **********************/
  46:..\..\..\lvgl\version_6.1.2\lvgl\src\lv_objx/lv_cb.c **** 
  47:..\..\..\lvgl\version_6.1.2\lvgl\src\lv_objx/lv_cb.c **** /**
  48:..\..\..\lvgl\version_6.1.2\lvgl\src\lv_objx/lv_cb.c ****  * Create a check box objects
  49:..\..\..\lvgl\version_6.1.2\lvgl\src\lv_objx/lv_cb.c ****  * @param par pointer to an object, it will be the parent of the new check box
  50:..\..\..\lvgl\version_6.1.2\lvgl\src\lv_objx/lv_cb.c ****  * @param copy pointer to a check box object, if not NULL then the new object will be copied from i
  51:..\..\..\lvgl\version_6.1.2\lvgl\src\lv_objx/lv_cb.c ****  * @return pointer to the created check box
  52:..\..\..\lvgl\version_6.1.2\lvgl\src\lv_objx/lv_cb.c ****  */
  53:..\..\..\lvgl\version_6.1.2\lvgl\src\lv_objx/lv_cb.c **** lv_obj_t * lv_cb_create(lv_obj_t * par, const lv_obj_t * copy)
  54:..\..\..\lvgl\version_6.1.2\lvgl\src\lv_objx/lv_cb.c **** {
 239              		.loc 5 54 0
 240              		.cfi_startproc
 241              		@ args = 0, pretend = 0, frame = 24
 242              		@ frame_needed = 1, uses_anonymous_args = 0
 243 0000 80B5     		push	{r7, lr}
 244              		.cfi_def_cfa_offset 8
 245              		.cfi_offset 7, -8
 246              		.cfi_offset 14, -4
 247 0002 86B0     		sub	sp, sp, #24
 248              		.cfi_def_cfa_offset 32
 249 0004 00AF     		add	r7, sp, #0
 250              		.cfi_def_cfa_register 7
 251 0006 7860     		str	r0, [r7, #4]
 252 0008 3960     		str	r1, [r7]
  55:..\..\..\lvgl\version_6.1.2\lvgl\src\lv_objx/lv_cb.c **** 
  56:..\..\..\lvgl\version_6.1.2\lvgl\src\lv_objx/lv_cb.c ****     LV_LOG_TRACE("check box create started");
  57:..\..\..\lvgl\version_6.1.2\lvgl\src\lv_objx/lv_cb.c **** 
  58:..\..\..\lvgl\version_6.1.2\lvgl\src\lv_objx/lv_cb.c ****     /*Create the ancestor basic object*/
  59:..\..\..\lvgl\version_6.1.2\lvgl\src\lv_objx/lv_cb.c ****     lv_obj_t * new_cb = lv_btn_create(par, copy);
 253              		.loc 5 59 0
 254 000a 3968     		ldr	r1, [r7]
 255 000c 7868     		ldr	r0, [r7, #4]
 256 000e FFF7FEFF 		bl	lv_btn_create
 257 0012 7861     		str	r0, [r7, #20]
  60:..\..\..\lvgl\version_6.1.2\lvgl\src\lv_objx/lv_cb.c ****     LV_ASSERT_MEM(new_cb);
  61:..\..\..\lvgl\version_6.1.2\lvgl\src\lv_objx/lv_cb.c ****     if(new_cb == NULL) return NULL;
 258              		.loc 5 61 0
 259 0014 7B69     		ldr	r3, [r7, #20]
 260 0016 002B     		cmp	r3, #0
 261 0018 01D1     		bne	.L9
 262              		.loc 5 61 0 is_stmt 0 discriminator 1
 263 001a 0023     		movs	r3, #0
 264 001c C4E0     		b	.L10
ARM GAS  C:\Users\tmj32\AppData\Local\Temp\ccH9iEPr.s 			page 20


 265              	.L9:
  62:..\..\..\lvgl\version_6.1.2\lvgl\src\lv_objx/lv_cb.c **** 
  63:..\..\..\lvgl\version_6.1.2\lvgl\src\lv_objx/lv_cb.c ****     if(ancestor_signal == NULL) ancestor_signal = lv_obj_get_signal_cb(new_cb);
 266              		.loc 5 63 0 is_stmt 1
 267 001e 644B     		ldr	r3, .L19
 268 0020 1B68     		ldr	r3, [r3]
 269 0022 002B     		cmp	r3, #0
 270 0024 05D1     		bne	.L11
 271              		.loc 5 63 0 is_stmt 0 discriminator 1
 272 0026 7869     		ldr	r0, [r7, #20]
 273 0028 FFF7FEFF 		bl	lv_obj_get_signal_cb
 274 002c 0246     		mov	r2, r0
 275 002e 604B     		ldr	r3, .L19
 276 0030 1A60     		str	r2, [r3]
 277              	.L11:
  64:..\..\..\lvgl\version_6.1.2\lvgl\src\lv_objx/lv_cb.c ****     if(ancestor_bg_design == NULL) ancestor_bg_design = lv_obj_get_design_cb(new_cb);
 278              		.loc 5 64 0 is_stmt 1
 279 0032 604B     		ldr	r3, .L19+4
 280 0034 1B68     		ldr	r3, [r3]
 281 0036 002B     		cmp	r3, #0
 282 0038 05D1     		bne	.L12
 283              		.loc 5 64 0 is_stmt 0 discriminator 1
 284 003a 7869     		ldr	r0, [r7, #20]
 285 003c FFF7FEFF 		bl	lv_obj_get_design_cb
 286 0040 0246     		mov	r2, r0
 287 0042 5C4B     		ldr	r3, .L19+4
 288 0044 1A60     		str	r2, [r3]
 289              	.L12:
  65:..\..\..\lvgl\version_6.1.2\lvgl\src\lv_objx/lv_cb.c **** 
  66:..\..\..\lvgl\version_6.1.2\lvgl\src\lv_objx/lv_cb.c ****     lv_cb_ext_t * ext = lv_obj_allocate_ext_attr(new_cb, sizeof(lv_cb_ext_t));
 290              		.loc 5 66 0 is_stmt 1
 291 0046 2421     		movs	r1, #36
 292 0048 7869     		ldr	r0, [r7, #20]
 293 004a FFF7FEFF 		bl	lv_obj_allocate_ext_attr
 294 004e 3861     		str	r0, [r7, #16]
  67:..\..\..\lvgl\version_6.1.2\lvgl\src\lv_objx/lv_cb.c ****     LV_ASSERT_MEM(ext);
  68:..\..\..\lvgl\version_6.1.2\lvgl\src\lv_objx/lv_cb.c ****     if(ext == NULL) return NULL;
 295              		.loc 5 68 0
 296 0050 3B69     		ldr	r3, [r7, #16]
 297 0052 002B     		cmp	r3, #0
 298 0054 01D1     		bne	.L13
 299              		.loc 5 68 0 is_stmt 0 discriminator 1
 300 0056 0023     		movs	r3, #0
 301 0058 A6E0     		b	.L10
 302              	.L13:
  69:..\..\..\lvgl\version_6.1.2\lvgl\src\lv_objx/lv_cb.c **** 
  70:..\..\..\lvgl\version_6.1.2\lvgl\src\lv_objx/lv_cb.c ****     ext->bullet = NULL;
 303              		.loc 5 70 0 is_stmt 1
 304 005a 3B69     		ldr	r3, [r7, #16]
 305 005c 0022     		movs	r2, #0
 306 005e DA61     		str	r2, [r3, #28]
  71:..\..\..\lvgl\version_6.1.2\lvgl\src\lv_objx/lv_cb.c ****     ext->label  = NULL;
 307              		.loc 5 71 0
 308 0060 3B69     		ldr	r3, [r7, #16]
 309 0062 0022     		movs	r2, #0
 310 0064 1A62     		str	r2, [r3, #32]
  72:..\..\..\lvgl\version_6.1.2\lvgl\src\lv_objx/lv_cb.c **** 
ARM GAS  C:\Users\tmj32\AppData\Local\Temp\ccH9iEPr.s 			page 21


  73:..\..\..\lvgl\version_6.1.2\lvgl\src\lv_objx/lv_cb.c ****     lv_obj_set_signal_cb(new_cb, lv_cb_signal);
 311              		.loc 5 73 0
 312 0066 5449     		ldr	r1, .L19+8
 313 0068 7869     		ldr	r0, [r7, #20]
 314 006a FFF7FEFF 		bl	lv_obj_set_signal_cb
  74:..\..\..\lvgl\version_6.1.2\lvgl\src\lv_objx/lv_cb.c ****     lv_obj_set_design_cb(new_cb, lv_cb_design);
 315              		.loc 5 74 0
 316 006e 5349     		ldr	r1, .L19+12
 317 0070 7869     		ldr	r0, [r7, #20]
 318 0072 FFF7FEFF 		bl	lv_obj_set_design_cb
  75:..\..\..\lvgl\version_6.1.2\lvgl\src\lv_objx/lv_cb.c **** 
  76:..\..\..\lvgl\version_6.1.2\lvgl\src\lv_objx/lv_cb.c ****     /*Init the new checkbox object*/
  77:..\..\..\lvgl\version_6.1.2\lvgl\src\lv_objx/lv_cb.c ****     if(copy == NULL) {
 319              		.loc 5 77 0
 320 0076 3B68     		ldr	r3, [r7]
 321 0078 002B     		cmp	r3, #0
 322 007a 75D1     		bne	.L14
 323              	.LBB2:
  78:..\..\..\lvgl\version_6.1.2\lvgl\src\lv_objx/lv_cb.c ****         ext->bullet = lv_btn_create(new_cb, NULL);
 324              		.loc 5 78 0
 325 007c 0021     		movs	r1, #0
 326 007e 7869     		ldr	r0, [r7, #20]
 327 0080 FFF7FEFF 		bl	lv_btn_create
 328 0084 0246     		mov	r2, r0
 329 0086 3B69     		ldr	r3, [r7, #16]
 330 0088 DA61     		str	r2, [r3, #28]
  79:..\..\..\lvgl\version_6.1.2\lvgl\src\lv_objx/lv_cb.c ****         if(ancestor_bullet_design == NULL) ancestor_bullet_design = lv_obj_get_design_cb(ext->bulle
 331              		.loc 5 79 0
 332 008a 4D4B     		ldr	r3, .L19+16
 333 008c 1B68     		ldr	r3, [r3]
 334 008e 002B     		cmp	r3, #0
 335 0090 07D1     		bne	.L15
 336              		.loc 5 79 0 is_stmt 0 discriminator 1
 337 0092 3B69     		ldr	r3, [r7, #16]
 338 0094 DB69     		ldr	r3, [r3, #28]
 339 0096 1846     		mov	r0, r3
 340 0098 FFF7FEFF 		bl	lv_obj_get_design_cb
 341 009c 0246     		mov	r2, r0
 342 009e 484B     		ldr	r3, .L19+16
 343 00a0 1A60     		str	r2, [r3]
 344              	.L15:
  80:..\..\..\lvgl\version_6.1.2\lvgl\src\lv_objx/lv_cb.c ****         lv_obj_set_click(ext->bullet, false);
 345              		.loc 5 80 0 is_stmt 1
 346 00a2 3B69     		ldr	r3, [r7, #16]
 347 00a4 DB69     		ldr	r3, [r3, #28]
 348 00a6 0021     		movs	r1, #0
 349 00a8 1846     		mov	r0, r3
 350 00aa FFF7FEFF 		bl	lv_obj_set_click
  81:..\..\..\lvgl\version_6.1.2\lvgl\src\lv_objx/lv_cb.c **** 
  82:..\..\..\lvgl\version_6.1.2\lvgl\src\lv_objx/lv_cb.c ****         ext->label = lv_label_create(new_cb, NULL);
 351              		.loc 5 82 0
 352 00ae 0021     		movs	r1, #0
 353 00b0 7869     		ldr	r0, [r7, #20]
 354 00b2 FFF7FEFF 		bl	lv_label_create
 355 00b6 0246     		mov	r2, r0
 356 00b8 3B69     		ldr	r3, [r7, #16]
 357 00ba 1A62     		str	r2, [r3, #32]
ARM GAS  C:\Users\tmj32\AppData\Local\Temp\ccH9iEPr.s 			page 22


  83:..\..\..\lvgl\version_6.1.2\lvgl\src\lv_objx/lv_cb.c **** 
  84:..\..\..\lvgl\version_6.1.2\lvgl\src\lv_objx/lv_cb.c ****         lv_cb_set_text(new_cb, "Check box");
 358              		.loc 5 84 0
 359 00bc 4149     		ldr	r1, .L19+20
 360 00be 7869     		ldr	r0, [r7, #20]
 361 00c0 FFF7FEFF 		bl	lv_cb_set_text
  85:..\..\..\lvgl\version_6.1.2\lvgl\src\lv_objx/lv_cb.c ****         lv_btn_set_layout(new_cb, LV_LAYOUT_ROW_M);
 362              		.loc 5 85 0
 363 00c4 0621     		movs	r1, #6
 364 00c6 7869     		ldr	r0, [r7, #20]
 365 00c8 FFF7FEFF 		bl	lv_btn_set_layout
  86:..\..\..\lvgl\version_6.1.2\lvgl\src\lv_objx/lv_cb.c ****         lv_btn_set_fit(new_cb, LV_FIT_TIGHT);
 366              		.loc 5 86 0
 367 00cc 0121     		movs	r1, #1
 368 00ce 7869     		ldr	r0, [r7, #20]
 369 00d0 FFF7FEFF 		bl	lv_btn_set_fit
  87:..\..\..\lvgl\version_6.1.2\lvgl\src\lv_objx/lv_cb.c ****         lv_btn_set_toggle(new_cb, true);
 370              		.loc 5 87 0
 371 00d4 0121     		movs	r1, #1
 372 00d6 7869     		ldr	r0, [r7, #20]
 373 00d8 FFF7FEFF 		bl	lv_btn_set_toggle
  88:..\..\..\lvgl\version_6.1.2\lvgl\src\lv_objx/lv_cb.c ****         lv_obj_set_protect(new_cb, LV_PROTECT_PRESS_LOST);
 374              		.loc 5 88 0
 375 00dc 1021     		movs	r1, #16
 376 00de 7869     		ldr	r0, [r7, #20]
 377 00e0 FFF7FEFF 		bl	lv_obj_set_protect
  89:..\..\..\lvgl\version_6.1.2\lvgl\src\lv_objx/lv_cb.c **** 
  90:..\..\..\lvgl\version_6.1.2\lvgl\src\lv_objx/lv_cb.c ****         /*Set the default styles*/
  91:..\..\..\lvgl\version_6.1.2\lvgl\src\lv_objx/lv_cb.c ****         lv_theme_t * th = lv_theme_get_current();
 378              		.loc 5 91 0
 379 00e4 FFF7FEFF 		bl	lv_theme_get_current
 380 00e8 F860     		str	r0, [r7, #12]
  92:..\..\..\lvgl\version_6.1.2\lvgl\src\lv_objx/lv_cb.c ****         if(th) {
 381              		.loc 5 92 0
 382 00ea FB68     		ldr	r3, [r7, #12]
 383 00ec 002B     		cmp	r3, #0
 384 00ee 30D0     		beq	.L16
  93:..\..\..\lvgl\version_6.1.2\lvgl\src\lv_objx/lv_cb.c ****             lv_cb_set_style(new_cb, LV_CB_STYLE_BG, th->style.cb.bg);
 385              		.loc 5 93 0
 386 00f0 FB68     		ldr	r3, [r7, #12]
 387 00f2 D3F8AC30 		ldr	r3, [r3, #172]
 388 00f6 1A46     		mov	r2, r3
 389 00f8 0021     		movs	r1, #0
 390 00fa 7869     		ldr	r0, [r7, #20]
 391 00fc FFF7FEFF 		bl	lv_cb_set_style
  94:..\..\..\lvgl\version_6.1.2\lvgl\src\lv_objx/lv_cb.c ****             lv_cb_set_style(new_cb, LV_CB_STYLE_BOX_REL, th->style.cb.box.rel);
 392              		.loc 5 94 0
 393 0100 FB68     		ldr	r3, [r7, #12]
 394 0102 D3F8B030 		ldr	r3, [r3, #176]
 395 0106 1A46     		mov	r2, r3
 396 0108 0121     		movs	r1, #1
 397 010a 7869     		ldr	r0, [r7, #20]
 398 010c FFF7FEFF 		bl	lv_cb_set_style
  95:..\..\..\lvgl\version_6.1.2\lvgl\src\lv_objx/lv_cb.c ****             lv_cb_set_style(new_cb, LV_CB_STYLE_BOX_PR, th->style.cb.box.pr);
 399              		.loc 5 95 0
 400 0110 FB68     		ldr	r3, [r7, #12]
 401 0112 D3F8B430 		ldr	r3, [r3, #180]
ARM GAS  C:\Users\tmj32\AppData\Local\Temp\ccH9iEPr.s 			page 23


 402 0116 1A46     		mov	r2, r3
 403 0118 0221     		movs	r1, #2
 404 011a 7869     		ldr	r0, [r7, #20]
 405 011c FFF7FEFF 		bl	lv_cb_set_style
  96:..\..\..\lvgl\version_6.1.2\lvgl\src\lv_objx/lv_cb.c ****             lv_cb_set_style(new_cb, LV_CB_STYLE_BOX_TGL_REL, th->style.cb.box.tgl_rel);
 406              		.loc 5 96 0
 407 0120 FB68     		ldr	r3, [r7, #12]
 408 0122 D3F8B830 		ldr	r3, [r3, #184]
 409 0126 1A46     		mov	r2, r3
 410 0128 0321     		movs	r1, #3
 411 012a 7869     		ldr	r0, [r7, #20]
 412 012c FFF7FEFF 		bl	lv_cb_set_style
  97:..\..\..\lvgl\version_6.1.2\lvgl\src\lv_objx/lv_cb.c ****             lv_cb_set_style(new_cb, LV_CB_STYLE_BOX_TGL_PR, th->style.cb.box.tgl_pr);
 413              		.loc 5 97 0
 414 0130 FB68     		ldr	r3, [r7, #12]
 415 0132 D3F8BC30 		ldr	r3, [r3, #188]
 416 0136 1A46     		mov	r2, r3
 417 0138 0421     		movs	r1, #4
 418 013a 7869     		ldr	r0, [r7, #20]
 419 013c FFF7FEFF 		bl	lv_cb_set_style
  98:..\..\..\lvgl\version_6.1.2\lvgl\src\lv_objx/lv_cb.c ****             lv_cb_set_style(new_cb, LV_CB_STYLE_BOX_INA, th->style.cb.box.ina);
 420              		.loc 5 98 0
 421 0140 FB68     		ldr	r3, [r7, #12]
 422 0142 D3F8C030 		ldr	r3, [r3, #192]
 423 0146 1A46     		mov	r2, r3
 424 0148 0521     		movs	r1, #5
 425 014a 7869     		ldr	r0, [r7, #20]
 426 014c FFF7FEFF 		bl	lv_cb_set_style
 427 0150 23E0     		b	.L18
 428              	.L16:
  99:..\..\..\lvgl\version_6.1.2\lvgl\src\lv_objx/lv_cb.c ****         } else {
 100:..\..\..\lvgl\version_6.1.2\lvgl\src\lv_objx/lv_cb.c ****             lv_cb_set_style(new_cb, LV_CB_STYLE_BG, &lv_style_transp);
 429              		.loc 5 100 0
 430 0152 1D4A     		ldr	r2, .L19+24
 431 0154 0021     		movs	r1, #0
 432 0156 7869     		ldr	r0, [r7, #20]
 433 0158 FFF7FEFF 		bl	lv_cb_set_style
 101:..\..\..\lvgl\version_6.1.2\lvgl\src\lv_objx/lv_cb.c ****             lv_cb_set_style(new_cb, LV_CB_STYLE_BOX_REL, &lv_style_pretty);
 434              		.loc 5 101 0
 435 015c 1B4A     		ldr	r2, .L19+28
 436 015e 0121     		movs	r1, #1
 437 0160 7869     		ldr	r0, [r7, #20]
 438 0162 FFF7FEFF 		bl	lv_cb_set_style
 439 0166 18E0     		b	.L18
 440              	.L14:
 441              	.LBE2:
 442              	.LBB3:
 102:..\..\..\lvgl\version_6.1.2\lvgl\src\lv_objx/lv_cb.c ****         }
 103:..\..\..\lvgl\version_6.1.2\lvgl\src\lv_objx/lv_cb.c ****     } else {
 104:..\..\..\lvgl\version_6.1.2\lvgl\src\lv_objx/lv_cb.c ****         lv_cb_ext_t * copy_ext = lv_obj_get_ext_attr(copy);
 443              		.loc 5 104 0
 444 0168 3868     		ldr	r0, [r7]
 445 016a FFF7FEFF 		bl	lv_obj_get_ext_attr
 446 016e B860     		str	r0, [r7, #8]
 105:..\..\..\lvgl\version_6.1.2\lvgl\src\lv_objx/lv_cb.c ****         ext->bullet            = lv_btn_create(new_cb, copy_ext->bullet);
 447              		.loc 5 105 0
 448 0170 BB68     		ldr	r3, [r7, #8]
ARM GAS  C:\Users\tmj32\AppData\Local\Temp\ccH9iEPr.s 			page 24


 449 0172 DB69     		ldr	r3, [r3, #28]
 450 0174 1946     		mov	r1, r3
 451 0176 7869     		ldr	r0, [r7, #20]
 452 0178 FFF7FEFF 		bl	lv_btn_create
 453 017c 0246     		mov	r2, r0
 454 017e 3B69     		ldr	r3, [r7, #16]
 455 0180 DA61     		str	r2, [r3, #28]
 106:..\..\..\lvgl\version_6.1.2\lvgl\src\lv_objx/lv_cb.c ****         ext->label             = lv_label_create(new_cb, copy_ext->label);
 456              		.loc 5 106 0
 457 0182 BB68     		ldr	r3, [r7, #8]
 458 0184 1B6A     		ldr	r3, [r3, #32]
 459 0186 1946     		mov	r1, r3
 460 0188 7869     		ldr	r0, [r7, #20]
 461 018a FFF7FEFF 		bl	lv_label_create
 462 018e 0246     		mov	r2, r0
 463 0190 3B69     		ldr	r3, [r7, #16]
 464 0192 1A62     		str	r2, [r3, #32]
 107:..\..\..\lvgl\version_6.1.2\lvgl\src\lv_objx/lv_cb.c **** 
 108:..\..\..\lvgl\version_6.1.2\lvgl\src\lv_objx/lv_cb.c ****         /*Refresh the style with new signal function*/
 109:..\..\..\lvgl\version_6.1.2\lvgl\src\lv_objx/lv_cb.c ****         lv_obj_refresh_style(new_cb);
 465              		.loc 5 109 0
 466 0194 7869     		ldr	r0, [r7, #20]
 467 0196 FFF7FEFF 		bl	lv_obj_refresh_style
 468              	.L18:
 469              	.LBE3:
 110:..\..\..\lvgl\version_6.1.2\lvgl\src\lv_objx/lv_cb.c ****     }
 111:..\..\..\lvgl\version_6.1.2\lvgl\src\lv_objx/lv_cb.c **** 
 112:..\..\..\lvgl\version_6.1.2\lvgl\src\lv_objx/lv_cb.c ****     lv_obj_set_design_cb(ext->bullet, lv_bullet_design);
 470              		.loc 5 112 0
 471 019a 3B69     		ldr	r3, [r7, #16]
 472 019c DB69     		ldr	r3, [r3, #28]
 473 019e 0C49     		ldr	r1, .L19+32
 474 01a0 1846     		mov	r0, r3
 475 01a2 FFF7FEFF 		bl	lv_obj_set_design_cb
 113:..\..\..\lvgl\version_6.1.2\lvgl\src\lv_objx/lv_cb.c **** 
 114:..\..\..\lvgl\version_6.1.2\lvgl\src\lv_objx/lv_cb.c ****     LV_LOG_INFO("check box created");
 115:..\..\..\lvgl\version_6.1.2\lvgl\src\lv_objx/lv_cb.c **** 
 116:..\..\..\lvgl\version_6.1.2\lvgl\src\lv_objx/lv_cb.c ****     return new_cb;
 476              		.loc 5 116 0
 477 01a6 7B69     		ldr	r3, [r7, #20]
 478              	.L10:
 117:..\..\..\lvgl\version_6.1.2\lvgl\src\lv_objx/lv_cb.c **** }
 479              		.loc 5 117 0
 480 01a8 1846     		mov	r0, r3
 481 01aa 1837     		adds	r7, r7, #24
 482              		.cfi_def_cfa_offset 8
 483 01ac BD46     		mov	sp, r7
 484              		.cfi_def_cfa_register 13
 485              		@ sp needed
 486 01ae 80BD     		pop	{r7, pc}
 487              	.L20:
 488              		.align	2
 489              	.L19:
 490 01b0 08000000 		.word	ancestor_signal
 491 01b4 00000000 		.word	ancestor_bg_design
 492 01b8 00000000 		.word	lv_cb_signal
 493 01bc 00000000 		.word	lv_cb_design
ARM GAS  C:\Users\tmj32\AppData\Local\Temp\ccH9iEPr.s 			page 25


 494 01c0 04000000 		.word	ancestor_bullet_design
 495 01c4 00000000 		.word	.LC0
 496 01c8 00000000 		.word	lv_style_transp
 497 01cc 00000000 		.word	lv_style_pretty
 498 01d0 00000000 		.word	lv_bullet_design
 499              		.cfi_endproc
 500              	.LFE50:
 501              		.size	lv_cb_create, .-lv_cb_create
 502              		.section	.text.lv_cb_set_text,"ax",%progbits
 503              		.align	2
 504              		.global	lv_cb_set_text
 505              		.thumb
 506              		.thumb_func
 507              		.type	lv_cb_set_text, %function
 508              	lv_cb_set_text:
 509              	.LFB51:
 118:..\..\..\lvgl\version_6.1.2\lvgl\src\lv_objx/lv_cb.c **** 
 119:..\..\..\lvgl\version_6.1.2\lvgl\src\lv_objx/lv_cb.c **** /*=====================
 120:..\..\..\lvgl\version_6.1.2\lvgl\src\lv_objx/lv_cb.c ****  * Setter functions
 121:..\..\..\lvgl\version_6.1.2\lvgl\src\lv_objx/lv_cb.c ****  *====================*/
 122:..\..\..\lvgl\version_6.1.2\lvgl\src\lv_objx/lv_cb.c **** 
 123:..\..\..\lvgl\version_6.1.2\lvgl\src\lv_objx/lv_cb.c **** /**
 124:..\..\..\lvgl\version_6.1.2\lvgl\src\lv_objx/lv_cb.c ****  * Set the text of a check box. `txt` will be copied and may be deallocated
 125:..\..\..\lvgl\version_6.1.2\lvgl\src\lv_objx/lv_cb.c ****  * after this function returns.
 126:..\..\..\lvgl\version_6.1.2\lvgl\src\lv_objx/lv_cb.c ****  * @param cb pointer to a check box
 127:..\..\..\lvgl\version_6.1.2\lvgl\src\lv_objx/lv_cb.c ****  * @param txt the text of the check box. NULL to refresh with the current text.
 128:..\..\..\lvgl\version_6.1.2\lvgl\src\lv_objx/lv_cb.c ****  */
 129:..\..\..\lvgl\version_6.1.2\lvgl\src\lv_objx/lv_cb.c **** void lv_cb_set_text(lv_obj_t * cb, const char * txt)
 130:..\..\..\lvgl\version_6.1.2\lvgl\src\lv_objx/lv_cb.c **** {
 510              		.loc 5 130 0
 511              		.cfi_startproc
 512              		@ args = 0, pretend = 0, frame = 16
 513              		@ frame_needed = 1, uses_anonymous_args = 0
 514 0000 80B5     		push	{r7, lr}
 515              		.cfi_def_cfa_offset 8
 516              		.cfi_offset 7, -8
 517              		.cfi_offset 14, -4
 518 0002 84B0     		sub	sp, sp, #16
 519              		.cfi_def_cfa_offset 24
 520 0004 00AF     		add	r7, sp, #0
 521              		.cfi_def_cfa_register 7
 522 0006 7860     		str	r0, [r7, #4]
 523 0008 3960     		str	r1, [r7]
 131:..\..\..\lvgl\version_6.1.2\lvgl\src\lv_objx/lv_cb.c ****     LV_ASSERT_OBJ(cb, LV_OBJX_NAME);
 132:..\..\..\lvgl\version_6.1.2\lvgl\src\lv_objx/lv_cb.c **** 
 133:..\..\..\lvgl\version_6.1.2\lvgl\src\lv_objx/lv_cb.c ****     lv_cb_ext_t * ext = lv_obj_get_ext_attr(cb);
 524              		.loc 5 133 0
 525 000a 7868     		ldr	r0, [r7, #4]
 526 000c FFF7FEFF 		bl	lv_obj_get_ext_attr
 527 0010 F860     		str	r0, [r7, #12]
 134:..\..\..\lvgl\version_6.1.2\lvgl\src\lv_objx/lv_cb.c ****     lv_label_set_text(ext->label, txt);
 528              		.loc 5 134 0
 529 0012 FB68     		ldr	r3, [r7, #12]
 530 0014 1B6A     		ldr	r3, [r3, #32]
 531 0016 3968     		ldr	r1, [r7]
 532 0018 1846     		mov	r0, r3
 533 001a FFF7FEFF 		bl	lv_label_set_text
ARM GAS  C:\Users\tmj32\AppData\Local\Temp\ccH9iEPr.s 			page 26


 135:..\..\..\lvgl\version_6.1.2\lvgl\src\lv_objx/lv_cb.c **** }
 534              		.loc 5 135 0
 535 001e 00BF     		nop
 536 0020 1037     		adds	r7, r7, #16
 537              		.cfi_def_cfa_offset 8
 538 0022 BD46     		mov	sp, r7
 539              		.cfi_def_cfa_register 13
 540              		@ sp needed
 541 0024 80BD     		pop	{r7, pc}
 542              		.cfi_endproc
 543              	.LFE51:
 544              		.size	lv_cb_set_text, .-lv_cb_set_text
 545 0026 00BF     		.section	.text.lv_cb_set_static_text,"ax",%progbits
 546              		.align	2
 547              		.global	lv_cb_set_static_text
 548              		.thumb
 549              		.thumb_func
 550              		.type	lv_cb_set_static_text, %function
 551              	lv_cb_set_static_text:
 552              	.LFB52:
 136:..\..\..\lvgl\version_6.1.2\lvgl\src\lv_objx/lv_cb.c **** 
 137:..\..\..\lvgl\version_6.1.2\lvgl\src\lv_objx/lv_cb.c **** /**
 138:..\..\..\lvgl\version_6.1.2\lvgl\src\lv_objx/lv_cb.c ****  * Set the text of a check box. `txt` must not be deallocated during the life
 139:..\..\..\lvgl\version_6.1.2\lvgl\src\lv_objx/lv_cb.c ****  * of this checkbox.
 140:..\..\..\lvgl\version_6.1.2\lvgl\src\lv_objx/lv_cb.c ****  * @param cb pointer to a check box
 141:..\..\..\lvgl\version_6.1.2\lvgl\src\lv_objx/lv_cb.c ****  * @param txt the text of the check box. NULL to refresh with the current text.
 142:..\..\..\lvgl\version_6.1.2\lvgl\src\lv_objx/lv_cb.c ****  */
 143:..\..\..\lvgl\version_6.1.2\lvgl\src\lv_objx/lv_cb.c **** void lv_cb_set_static_text(lv_obj_t * cb, const char * txt)
 144:..\..\..\lvgl\version_6.1.2\lvgl\src\lv_objx/lv_cb.c **** {
 553              		.loc 5 144 0
 554              		.cfi_startproc
 555              		@ args = 0, pretend = 0, frame = 16
 556              		@ frame_needed = 1, uses_anonymous_args = 0
 557 0000 80B5     		push	{r7, lr}
 558              		.cfi_def_cfa_offset 8
 559              		.cfi_offset 7, -8
 560              		.cfi_offset 14, -4
 561 0002 84B0     		sub	sp, sp, #16
 562              		.cfi_def_cfa_offset 24
 563 0004 00AF     		add	r7, sp, #0
 564              		.cfi_def_cfa_register 7
 565 0006 7860     		str	r0, [r7, #4]
 566 0008 3960     		str	r1, [r7]
 145:..\..\..\lvgl\version_6.1.2\lvgl\src\lv_objx/lv_cb.c ****     LV_ASSERT_OBJ(cb, LV_OBJX_NAME);
 146:..\..\..\lvgl\version_6.1.2\lvgl\src\lv_objx/lv_cb.c **** 
 147:..\..\..\lvgl\version_6.1.2\lvgl\src\lv_objx/lv_cb.c ****     lv_cb_ext_t * ext = lv_obj_get_ext_attr(cb);
 567              		.loc 5 147 0
 568 000a 7868     		ldr	r0, [r7, #4]
 569 000c FFF7FEFF 		bl	lv_obj_get_ext_attr
 570 0010 F860     		str	r0, [r7, #12]
 148:..\..\..\lvgl\version_6.1.2\lvgl\src\lv_objx/lv_cb.c ****     lv_label_set_static_text(ext->label, txt);
 571              		.loc 5 148 0
 572 0012 FB68     		ldr	r3, [r7, #12]
 573 0014 1B6A     		ldr	r3, [r3, #32]
 574 0016 3968     		ldr	r1, [r7]
 575 0018 1846     		mov	r0, r3
 576 001a FFF7FEFF 		bl	lv_label_set_static_text
ARM GAS  C:\Users\tmj32\AppData\Local\Temp\ccH9iEPr.s 			page 27


 149:..\..\..\lvgl\version_6.1.2\lvgl\src\lv_objx/lv_cb.c **** }
 577              		.loc 5 149 0
 578 001e 00BF     		nop
 579 0020 1037     		adds	r7, r7, #16
 580              		.cfi_def_cfa_offset 8
 581 0022 BD46     		mov	sp, r7
 582              		.cfi_def_cfa_register 13
 583              		@ sp needed
 584 0024 80BD     		pop	{r7, pc}
 585              		.cfi_endproc
 586              	.LFE52:
 587              		.size	lv_cb_set_static_text, .-lv_cb_set_static_text
 588 0026 00BF     		.section	.text.lv_cb_set_style,"ax",%progbits
 589              		.align	2
 590              		.global	lv_cb_set_style
 591              		.thumb
 592              		.thumb_func
 593              		.type	lv_cb_set_style, %function
 594              	lv_cb_set_style:
 595              	.LFB53:
 150:..\..\..\lvgl\version_6.1.2\lvgl\src\lv_objx/lv_cb.c **** 
 151:..\..\..\lvgl\version_6.1.2\lvgl\src\lv_objx/lv_cb.c **** /**
 152:..\..\..\lvgl\version_6.1.2\lvgl\src\lv_objx/lv_cb.c ****  * Set a style of a check box
 153:..\..\..\lvgl\version_6.1.2\lvgl\src\lv_objx/lv_cb.c ****  * @param cb pointer to check box object
 154:..\..\..\lvgl\version_6.1.2\lvgl\src\lv_objx/lv_cb.c ****  * @param type which style should be set
 155:..\..\..\lvgl\version_6.1.2\lvgl\src\lv_objx/lv_cb.c ****  * @param style pointer to a style
 156:..\..\..\lvgl\version_6.1.2\lvgl\src\lv_objx/lv_cb.c ****  *  */
 157:..\..\..\lvgl\version_6.1.2\lvgl\src\lv_objx/lv_cb.c **** void lv_cb_set_style(lv_obj_t * cb, lv_cb_style_t type, const lv_style_t * style)
 158:..\..\..\lvgl\version_6.1.2\lvgl\src\lv_objx/lv_cb.c **** {
 596              		.loc 5 158 0
 597              		.cfi_startproc
 598              		@ args = 0, pretend = 0, frame = 24
 599              		@ frame_needed = 1, uses_anonymous_args = 0
 600 0000 80B5     		push	{r7, lr}
 601              		.cfi_def_cfa_offset 8
 602              		.cfi_offset 7, -8
 603              		.cfi_offset 14, -4
 604 0002 86B0     		sub	sp, sp, #24
 605              		.cfi_def_cfa_offset 32
 606 0004 00AF     		add	r7, sp, #0
 607              		.cfi_def_cfa_register 7
 608 0006 F860     		str	r0, [r7, #12]
 609 0008 0B46     		mov	r3, r1
 610 000a 7A60     		str	r2, [r7, #4]
 611 000c FB72     		strb	r3, [r7, #11]
 159:..\..\..\lvgl\version_6.1.2\lvgl\src\lv_objx/lv_cb.c ****     LV_ASSERT_OBJ(cb, LV_OBJX_NAME);
 160:..\..\..\lvgl\version_6.1.2\lvgl\src\lv_objx/lv_cb.c **** 
 161:..\..\..\lvgl\version_6.1.2\lvgl\src\lv_objx/lv_cb.c ****     lv_cb_ext_t * ext = lv_obj_get_ext_attr(cb);
 612              		.loc 5 161 0
 613 000e F868     		ldr	r0, [r7, #12]
 614 0010 FFF7FEFF 		bl	lv_obj_get_ext_attr
 615 0014 7861     		str	r0, [r7, #20]
 162:..\..\..\lvgl\version_6.1.2\lvgl\src\lv_objx/lv_cb.c **** 
 163:..\..\..\lvgl\version_6.1.2\lvgl\src\lv_objx/lv_cb.c ****     switch(type) {
 616              		.loc 5 163 0
 617 0016 FB7A     		ldrb	r3, [r7, #11]	@ zero_extendqisi2
 618 0018 052B     		cmp	r3, #5
ARM GAS  C:\Users\tmj32\AppData\Local\Temp\ccH9iEPr.s 			page 28


 619 001a 51D8     		bhi	.L32
 620 001c 01A2     		adr	r2, .L26
 621 001e 52F823F0 		ldr	pc, [r2, r3, lsl #2]
 622 0022 00BF     		.p2align 2
 623              	.L26:
 624 0024 3D000000 		.word	.L25+1
 625 0028 71000000 		.word	.L27+1
 626 002c 81000000 		.word	.L28+1
 627 0030 91000000 		.word	.L29+1
 628 0034 A1000000 		.word	.L30+1
 629 0038 B1000000 		.word	.L31+1
 630              		.p2align 1
 631              	.L25:
 164:..\..\..\lvgl\version_6.1.2\lvgl\src\lv_objx/lv_cb.c ****         case LV_CB_STYLE_BG:
 165:..\..\..\lvgl\version_6.1.2\lvgl\src\lv_objx/lv_cb.c ****             lv_btn_set_style(cb, LV_BTN_STYLE_REL, style);
 632              		.loc 5 165 0
 633 003c 7A68     		ldr	r2, [r7, #4]
 634 003e 0021     		movs	r1, #0
 635 0040 F868     		ldr	r0, [r7, #12]
 636 0042 FFF7FEFF 		bl	lv_btn_set_style
 166:..\..\..\lvgl\version_6.1.2\lvgl\src\lv_objx/lv_cb.c ****             lv_btn_set_style(cb, LV_BTN_STYLE_PR, style);
 637              		.loc 5 166 0
 638 0046 7A68     		ldr	r2, [r7, #4]
 639 0048 0121     		movs	r1, #1
 640 004a F868     		ldr	r0, [r7, #12]
 641 004c FFF7FEFF 		bl	lv_btn_set_style
 167:..\..\..\lvgl\version_6.1.2\lvgl\src\lv_objx/lv_cb.c ****             lv_btn_set_style(cb, LV_BTN_STYLE_TGL_REL, style);
 642              		.loc 5 167 0
 643 0050 7A68     		ldr	r2, [r7, #4]
 644 0052 0221     		movs	r1, #2
 645 0054 F868     		ldr	r0, [r7, #12]
 646 0056 FFF7FEFF 		bl	lv_btn_set_style
 168:..\..\..\lvgl\version_6.1.2\lvgl\src\lv_objx/lv_cb.c ****             lv_btn_set_style(cb, LV_BTN_STYLE_TGL_PR, style);
 647              		.loc 5 168 0
 648 005a 7A68     		ldr	r2, [r7, #4]
 649 005c 0321     		movs	r1, #3
 650 005e F868     		ldr	r0, [r7, #12]
 651 0060 FFF7FEFF 		bl	lv_btn_set_style
 169:..\..\..\lvgl\version_6.1.2\lvgl\src\lv_objx/lv_cb.c ****             lv_btn_set_style(cb, LV_BTN_STYLE_INA, style);
 652              		.loc 5 169 0
 653 0064 7A68     		ldr	r2, [r7, #4]
 654 0066 0421     		movs	r1, #4
 655 0068 F868     		ldr	r0, [r7, #12]
 656 006a FFF7FEFF 		bl	lv_btn_set_style
 170:..\..\..\lvgl\version_6.1.2\lvgl\src\lv_objx/lv_cb.c ****             break;
 657              		.loc 5 170 0
 658 006e 27E0     		b	.L24
 659              	.L27:
 171:..\..\..\lvgl\version_6.1.2\lvgl\src\lv_objx/lv_cb.c ****         case LV_CB_STYLE_BOX_REL: lv_btn_set_style(ext->bullet, LV_BTN_STYLE_REL, style); break;
 660              		.loc 5 171 0
 661 0070 7B69     		ldr	r3, [r7, #20]
 662 0072 DB69     		ldr	r3, [r3, #28]
 663 0074 7A68     		ldr	r2, [r7, #4]
 664 0076 0021     		movs	r1, #0
 665 0078 1846     		mov	r0, r3
 666 007a FFF7FEFF 		bl	lv_btn_set_style
 667 007e 1FE0     		b	.L24
ARM GAS  C:\Users\tmj32\AppData\Local\Temp\ccH9iEPr.s 			page 29


 668              	.L28:
 172:..\..\..\lvgl\version_6.1.2\lvgl\src\lv_objx/lv_cb.c ****         case LV_CB_STYLE_BOX_PR: lv_btn_set_style(ext->bullet, LV_BTN_STYLE_PR, style); break;
 669              		.loc 5 172 0
 670 0080 7B69     		ldr	r3, [r7, #20]
 671 0082 DB69     		ldr	r3, [r3, #28]
 672 0084 7A68     		ldr	r2, [r7, #4]
 673 0086 0121     		movs	r1, #1
 674 0088 1846     		mov	r0, r3
 675 008a FFF7FEFF 		bl	lv_btn_set_style
 676 008e 17E0     		b	.L24
 677              	.L29:
 173:..\..\..\lvgl\version_6.1.2\lvgl\src\lv_objx/lv_cb.c ****         case LV_CB_STYLE_BOX_TGL_REL: lv_btn_set_style(ext->bullet, LV_BTN_STYLE_TGL_REL, style); b
 678              		.loc 5 173 0
 679 0090 7B69     		ldr	r3, [r7, #20]
 680 0092 DB69     		ldr	r3, [r3, #28]
 681 0094 7A68     		ldr	r2, [r7, #4]
 682 0096 0221     		movs	r1, #2
 683 0098 1846     		mov	r0, r3
 684 009a FFF7FEFF 		bl	lv_btn_set_style
 685 009e 0FE0     		b	.L24
 686              	.L30:
 174:..\..\..\lvgl\version_6.1.2\lvgl\src\lv_objx/lv_cb.c ****         case LV_CB_STYLE_BOX_TGL_PR: lv_btn_set_style(ext->bullet, LV_BTN_STYLE_TGL_PR, style); bre
 687              		.loc 5 174 0
 688 00a0 7B69     		ldr	r3, [r7, #20]
 689 00a2 DB69     		ldr	r3, [r3, #28]
 690 00a4 7A68     		ldr	r2, [r7, #4]
 691 00a6 0321     		movs	r1, #3
 692 00a8 1846     		mov	r0, r3
 693 00aa FFF7FEFF 		bl	lv_btn_set_style
 694 00ae 07E0     		b	.L24
 695              	.L31:
 175:..\..\..\lvgl\version_6.1.2\lvgl\src\lv_objx/lv_cb.c ****         case LV_CB_STYLE_BOX_INA: lv_btn_set_style(ext->bullet, LV_BTN_STYLE_INA, style); break;
 696              		.loc 5 175 0
 697 00b0 7B69     		ldr	r3, [r7, #20]
 698 00b2 DB69     		ldr	r3, [r3, #28]
 699 00b4 7A68     		ldr	r2, [r7, #4]
 700 00b6 0421     		movs	r1, #4
 701 00b8 1846     		mov	r0, r3
 702 00ba FFF7FEFF 		bl	lv_btn_set_style
 703 00be 00BF     		nop
 704              	.L24:
 705              	.L32:
 176:..\..\..\lvgl\version_6.1.2\lvgl\src\lv_objx/lv_cb.c ****     }
 177:..\..\..\lvgl\version_6.1.2\lvgl\src\lv_objx/lv_cb.c **** }
 706              		.loc 5 177 0
 707 00c0 00BF     		nop
 708 00c2 1837     		adds	r7, r7, #24
 709              		.cfi_def_cfa_offset 8
 710 00c4 BD46     		mov	sp, r7
 711              		.cfi_def_cfa_register 13
 712              		@ sp needed
 713 00c6 80BD     		pop	{r7, pc}
 714              		.cfi_endproc
 715              	.LFE53:
 716              		.size	lv_cb_set_style, .-lv_cb_set_style
 717              		.section	.text.lv_cb_get_text,"ax",%progbits
 718              		.align	2
ARM GAS  C:\Users\tmj32\AppData\Local\Temp\ccH9iEPr.s 			page 30


 719              		.global	lv_cb_get_text
 720              		.thumb
 721              		.thumb_func
 722              		.type	lv_cb_get_text, %function
 723              	lv_cb_get_text:
 724              	.LFB54:
 178:..\..\..\lvgl\version_6.1.2\lvgl\src\lv_objx/lv_cb.c **** 
 179:..\..\..\lvgl\version_6.1.2\lvgl\src\lv_objx/lv_cb.c **** /*=====================
 180:..\..\..\lvgl\version_6.1.2\lvgl\src\lv_objx/lv_cb.c ****  * Getter functions
 181:..\..\..\lvgl\version_6.1.2\lvgl\src\lv_objx/lv_cb.c ****  *====================*/
 182:..\..\..\lvgl\version_6.1.2\lvgl\src\lv_objx/lv_cb.c **** 
 183:..\..\..\lvgl\version_6.1.2\lvgl\src\lv_objx/lv_cb.c **** /**
 184:..\..\..\lvgl\version_6.1.2\lvgl\src\lv_objx/lv_cb.c ****  * Get the text of a check box
 185:..\..\..\lvgl\version_6.1.2\lvgl\src\lv_objx/lv_cb.c ****  * @param cb pointer to check box object
 186:..\..\..\lvgl\version_6.1.2\lvgl\src\lv_objx/lv_cb.c ****  * @return pointer to the text of the check box
 187:..\..\..\lvgl\version_6.1.2\lvgl\src\lv_objx/lv_cb.c ****  */
 188:..\..\..\lvgl\version_6.1.2\lvgl\src\lv_objx/lv_cb.c **** const char * lv_cb_get_text(const lv_obj_t * cb)
 189:..\..\..\lvgl\version_6.1.2\lvgl\src\lv_objx/lv_cb.c **** {
 725              		.loc 5 189 0
 726              		.cfi_startproc
 727              		@ args = 0, pretend = 0, frame = 16
 728              		@ frame_needed = 1, uses_anonymous_args = 0
 729 0000 80B5     		push	{r7, lr}
 730              		.cfi_def_cfa_offset 8
 731              		.cfi_offset 7, -8
 732              		.cfi_offset 14, -4
 733 0002 84B0     		sub	sp, sp, #16
 734              		.cfi_def_cfa_offset 24
 735 0004 00AF     		add	r7, sp, #0
 736              		.cfi_def_cfa_register 7
 737 0006 7860     		str	r0, [r7, #4]
 190:..\..\..\lvgl\version_6.1.2\lvgl\src\lv_objx/lv_cb.c ****     LV_ASSERT_OBJ(cb, LV_OBJX_NAME);
 191:..\..\..\lvgl\version_6.1.2\lvgl\src\lv_objx/lv_cb.c **** 
 192:..\..\..\lvgl\version_6.1.2\lvgl\src\lv_objx/lv_cb.c ****     lv_cb_ext_t * ext = lv_obj_get_ext_attr(cb);
 738              		.loc 5 192 0
 739 0008 7868     		ldr	r0, [r7, #4]
 740 000a FFF7FEFF 		bl	lv_obj_get_ext_attr
 741 000e F860     		str	r0, [r7, #12]
 193:..\..\..\lvgl\version_6.1.2\lvgl\src\lv_objx/lv_cb.c ****     return lv_label_get_text(ext->label);
 742              		.loc 5 193 0
 743 0010 FB68     		ldr	r3, [r7, #12]
 744 0012 1B6A     		ldr	r3, [r3, #32]
 745 0014 1846     		mov	r0, r3
 746 0016 FFF7FEFF 		bl	lv_label_get_text
 747 001a 0346     		mov	r3, r0
 194:..\..\..\lvgl\version_6.1.2\lvgl\src\lv_objx/lv_cb.c **** }
 748              		.loc 5 194 0
 749 001c 1846     		mov	r0, r3
 750 001e 1037     		adds	r7, r7, #16
 751              		.cfi_def_cfa_offset 8
 752 0020 BD46     		mov	sp, r7
 753              		.cfi_def_cfa_register 13
 754              		@ sp needed
 755 0022 80BD     		pop	{r7, pc}
 756              		.cfi_endproc
 757              	.LFE54:
 758              		.size	lv_cb_get_text, .-lv_cb_get_text
ARM GAS  C:\Users\tmj32\AppData\Local\Temp\ccH9iEPr.s 			page 31


 759              		.section	.text.lv_cb_get_style,"ax",%progbits
 760              		.align	2
 761              		.global	lv_cb_get_style
 762              		.thumb
 763              		.thumb_func
 764              		.type	lv_cb_get_style, %function
 765              	lv_cb_get_style:
 766              	.LFB55:
 195:..\..\..\lvgl\version_6.1.2\lvgl\src\lv_objx/lv_cb.c **** 
 196:..\..\..\lvgl\version_6.1.2\lvgl\src\lv_objx/lv_cb.c **** /**
 197:..\..\..\lvgl\version_6.1.2\lvgl\src\lv_objx/lv_cb.c ****  * Get a style of a button
 198:..\..\..\lvgl\version_6.1.2\lvgl\src\lv_objx/lv_cb.c ****  * @param cb pointer to check box object
 199:..\..\..\lvgl\version_6.1.2\lvgl\src\lv_objx/lv_cb.c ****  * @param type which style should be get
 200:..\..\..\lvgl\version_6.1.2\lvgl\src\lv_objx/lv_cb.c ****  * @return style pointer to the style
 201:..\..\..\lvgl\version_6.1.2\lvgl\src\lv_objx/lv_cb.c ****  *  */
 202:..\..\..\lvgl\version_6.1.2\lvgl\src\lv_objx/lv_cb.c **** const lv_style_t * lv_cb_get_style(const lv_obj_t * cb, lv_cb_style_t type)
 203:..\..\..\lvgl\version_6.1.2\lvgl\src\lv_objx/lv_cb.c **** {
 767              		.loc 5 203 0
 768              		.cfi_startproc
 769              		@ args = 0, pretend = 0, frame = 16
 770              		@ frame_needed = 1, uses_anonymous_args = 0
 771 0000 80B5     		push	{r7, lr}
 772              		.cfi_def_cfa_offset 8
 773              		.cfi_offset 7, -8
 774              		.cfi_offset 14, -4
 775 0002 84B0     		sub	sp, sp, #16
 776              		.cfi_def_cfa_offset 24
 777 0004 00AF     		add	r7, sp, #0
 778              		.cfi_def_cfa_register 7
 779 0006 7860     		str	r0, [r7, #4]
 780 0008 0B46     		mov	r3, r1
 781 000a FB70     		strb	r3, [r7, #3]
 204:..\..\..\lvgl\version_6.1.2\lvgl\src\lv_objx/lv_cb.c ****     LV_ASSERT_OBJ(cb, LV_OBJX_NAME);
 205:..\..\..\lvgl\version_6.1.2\lvgl\src\lv_objx/lv_cb.c **** 
 206:..\..\..\lvgl\version_6.1.2\lvgl\src\lv_objx/lv_cb.c ****     const lv_style_t * style = NULL;
 782              		.loc 5 206 0
 783 000c 0023     		movs	r3, #0
 784 000e FB60     		str	r3, [r7, #12]
 207:..\..\..\lvgl\version_6.1.2\lvgl\src\lv_objx/lv_cb.c ****     lv_cb_ext_t * ext        = lv_obj_get_ext_attr(cb);
 785              		.loc 5 207 0
 786 0010 7868     		ldr	r0, [r7, #4]
 787 0012 FFF7FEFF 		bl	lv_obj_get_ext_attr
 788 0016 B860     		str	r0, [r7, #8]
 208:..\..\..\lvgl\version_6.1.2\lvgl\src\lv_objx/lv_cb.c **** 
 209:..\..\..\lvgl\version_6.1.2\lvgl\src\lv_objx/lv_cb.c ****     switch(type) {
 789              		.loc 5 209 0
 790 0018 FB78     		ldrb	r3, [r7, #3]	@ zero_extendqisi2
 791 001a 052B     		cmp	r3, #5
 792 001c 3CD8     		bhi	.L36
 793 001e 01A2     		adr	r2, .L38
 794 0020 52F823F0 		ldr	pc, [r2, r3, lsl #2]
 795              		.p2align 2
 796              	.L38:
 797 0024 3D000000 		.word	.L37+1
 798 0028 49000000 		.word	.L39+1
 799 002c 59000000 		.word	.L40+1
 800 0030 69000000 		.word	.L41+1
ARM GAS  C:\Users\tmj32\AppData\Local\Temp\ccH9iEPr.s 			page 32


 801 0034 79000000 		.word	.L42+1
 802 0038 89000000 		.word	.L43+1
 803              		.p2align 1
 804              	.L37:
 210:..\..\..\lvgl\version_6.1.2\lvgl\src\lv_objx/lv_cb.c ****         case LV_CB_STYLE_BG: style = lv_btn_get_style(cb, LV_BTN_STYLE_REL); break;
 805              		.loc 5 210 0
 806 003c 0021     		movs	r1, #0
 807 003e 7868     		ldr	r0, [r7, #4]
 808 0040 FFF7FEFF 		bl	lv_btn_get_style
 809 0044 F860     		str	r0, [r7, #12]
 810 0046 2AE0     		b	.L44
 811              	.L39:
 211:..\..\..\lvgl\version_6.1.2\lvgl\src\lv_objx/lv_cb.c ****         case LV_CB_STYLE_BOX_REL: style = lv_btn_get_style(ext->bullet, LV_BTN_STYLE_REL); break;
 812              		.loc 5 211 0
 813 0048 BB68     		ldr	r3, [r7, #8]
 814 004a DB69     		ldr	r3, [r3, #28]
 815 004c 0021     		movs	r1, #0
 816 004e 1846     		mov	r0, r3
 817 0050 FFF7FEFF 		bl	lv_btn_get_style
 818 0054 F860     		str	r0, [r7, #12]
 819 0056 22E0     		b	.L44
 820              	.L40:
 212:..\..\..\lvgl\version_6.1.2\lvgl\src\lv_objx/lv_cb.c ****         case LV_CB_STYLE_BOX_PR: style = lv_btn_get_style(ext->bullet, LV_BTN_STYLE_PR); break;
 821              		.loc 5 212 0
 822 0058 BB68     		ldr	r3, [r7, #8]
 823 005a DB69     		ldr	r3, [r3, #28]
 824 005c 0121     		movs	r1, #1
 825 005e 1846     		mov	r0, r3
 826 0060 FFF7FEFF 		bl	lv_btn_get_style
 827 0064 F860     		str	r0, [r7, #12]
 828 0066 1AE0     		b	.L44
 829              	.L41:
 213:..\..\..\lvgl\version_6.1.2\lvgl\src\lv_objx/lv_cb.c ****         case LV_CB_STYLE_BOX_TGL_REL: style = lv_btn_get_style(ext->bullet, LV_BTN_STYLE_TGL_REL); 
 830              		.loc 5 213 0
 831 0068 BB68     		ldr	r3, [r7, #8]
 832 006a DB69     		ldr	r3, [r3, #28]
 833 006c 0221     		movs	r1, #2
 834 006e 1846     		mov	r0, r3
 835 0070 FFF7FEFF 		bl	lv_btn_get_style
 836 0074 F860     		str	r0, [r7, #12]
 837 0076 12E0     		b	.L44
 838              	.L42:
 214:..\..\..\lvgl\version_6.1.2\lvgl\src\lv_objx/lv_cb.c ****         case LV_CB_STYLE_BOX_TGL_PR: style = lv_btn_get_style(ext->bullet, LV_BTN_STYLE_TGL_PR); br
 839              		.loc 5 214 0
 840 0078 BB68     		ldr	r3, [r7, #8]
 841 007a DB69     		ldr	r3, [r3, #28]
 842 007c 0321     		movs	r1, #3
 843 007e 1846     		mov	r0, r3
 844 0080 FFF7FEFF 		bl	lv_btn_get_style
 845 0084 F860     		str	r0, [r7, #12]
 846 0086 0AE0     		b	.L44
 847              	.L43:
 215:..\..\..\lvgl\version_6.1.2\lvgl\src\lv_objx/lv_cb.c ****         case LV_CB_STYLE_BOX_INA: style = lv_btn_get_style(ext->bullet, LV_BTN_STYLE_INA); break;
 848              		.loc 5 215 0
 849 0088 BB68     		ldr	r3, [r7, #8]
 850 008a DB69     		ldr	r3, [r3, #28]
 851 008c 0421     		movs	r1, #4
ARM GAS  C:\Users\tmj32\AppData\Local\Temp\ccH9iEPr.s 			page 33


 852 008e 1846     		mov	r0, r3
 853 0090 FFF7FEFF 		bl	lv_btn_get_style
 854 0094 F860     		str	r0, [r7, #12]
 855 0096 02E0     		b	.L44
 856              	.L36:
 216:..\..\..\lvgl\version_6.1.2\lvgl\src\lv_objx/lv_cb.c ****         default: style = NULL; break;
 857              		.loc 5 216 0
 858 0098 0023     		movs	r3, #0
 859 009a FB60     		str	r3, [r7, #12]
 860 009c 00BF     		nop
 861              	.L44:
 217:..\..\..\lvgl\version_6.1.2\lvgl\src\lv_objx/lv_cb.c ****     }
 218:..\..\..\lvgl\version_6.1.2\lvgl\src\lv_objx/lv_cb.c **** 
 219:..\..\..\lvgl\version_6.1.2\lvgl\src\lv_objx/lv_cb.c ****     return style;
 862              		.loc 5 219 0
 863 009e FB68     		ldr	r3, [r7, #12]
 220:..\..\..\lvgl\version_6.1.2\lvgl\src\lv_objx/lv_cb.c **** }
 864              		.loc 5 220 0
 865 00a0 1846     		mov	r0, r3
 866 00a2 1037     		adds	r7, r7, #16
 867              		.cfi_def_cfa_offset 8
 868 00a4 BD46     		mov	sp, r7
 869              		.cfi_def_cfa_register 13
 870              		@ sp needed
 871 00a6 80BD     		pop	{r7, pc}
 872              		.cfi_endproc
 873              	.LFE55:
 874              		.size	lv_cb_get_style, .-lv_cb_get_style
 875              		.section	.text.lv_cb_design,"ax",%progbits
 876              		.align	2
 877              		.thumb
 878              		.thumb_func
 879              		.type	lv_cb_design, %function
 880              	lv_cb_design:
 881              	.LFB56:
 221:..\..\..\lvgl\version_6.1.2\lvgl\src\lv_objx/lv_cb.c **** 
 222:..\..\..\lvgl\version_6.1.2\lvgl\src\lv_objx/lv_cb.c **** /**********************
 223:..\..\..\lvgl\version_6.1.2\lvgl\src\lv_objx/lv_cb.c ****  *   STATIC FUNCTIONS
 224:..\..\..\lvgl\version_6.1.2\lvgl\src\lv_objx/lv_cb.c ****  **********************/
 225:..\..\..\lvgl\version_6.1.2\lvgl\src\lv_objx/lv_cb.c **** 
 226:..\..\..\lvgl\version_6.1.2\lvgl\src\lv_objx/lv_cb.c **** /**
 227:..\..\..\lvgl\version_6.1.2\lvgl\src\lv_objx/lv_cb.c ****  * Handle the drawing related tasks of the check boxes
 228:..\..\..\lvgl\version_6.1.2\lvgl\src\lv_objx/lv_cb.c ****  * @param cb pointer to an object
 229:..\..\..\lvgl\version_6.1.2\lvgl\src\lv_objx/lv_cb.c ****  * @param mask the object will be drawn only in this area
 230:..\..\..\lvgl\version_6.1.2\lvgl\src\lv_objx/lv_cb.c ****  * @param mode LV_DESIGN_COVER_CHK: only check if the object fully covers the 'mask_p' area
 231:..\..\..\lvgl\version_6.1.2\lvgl\src\lv_objx/lv_cb.c ****  *                                  (return 'true' if yes)
 232:..\..\..\lvgl\version_6.1.2\lvgl\src\lv_objx/lv_cb.c ****  *             LV_DESIGN_DRAW: draw the object (always return 'true')
 233:..\..\..\lvgl\version_6.1.2\lvgl\src\lv_objx/lv_cb.c ****  *             LV_DESIGN_DRAW_POST: drawing after every children are drawn
 234:..\..\..\lvgl\version_6.1.2\lvgl\src\lv_objx/lv_cb.c ****  * @param return true/false, depends on 'mode'
 235:..\..\..\lvgl\version_6.1.2\lvgl\src\lv_objx/lv_cb.c ****  */
 236:..\..\..\lvgl\version_6.1.2\lvgl\src\lv_objx/lv_cb.c **** static bool lv_cb_design(lv_obj_t * cb, const lv_area_t * mask, lv_design_mode_t mode)
 237:..\..\..\lvgl\version_6.1.2\lvgl\src\lv_objx/lv_cb.c **** {
 882              		.loc 5 237 0
 883              		.cfi_startproc
 884              		@ args = 0, pretend = 0, frame = 32
 885              		@ frame_needed = 1, uses_anonymous_args = 0
 886 0000 80B5     		push	{r7, lr}
ARM GAS  C:\Users\tmj32\AppData\Local\Temp\ccH9iEPr.s 			page 34


 887              		.cfi_def_cfa_offset 8
 888              		.cfi_offset 7, -8
 889              		.cfi_offset 14, -4
 890 0002 88B0     		sub	sp, sp, #32
 891              		.cfi_def_cfa_offset 40
 892 0004 00AF     		add	r7, sp, #0
 893              		.cfi_def_cfa_register 7
 894 0006 F860     		str	r0, [r7, #12]
 895 0008 B960     		str	r1, [r7, #8]
 896 000a 1346     		mov	r3, r2
 897 000c FB71     		strb	r3, [r7, #7]
 238:..\..\..\lvgl\version_6.1.2\lvgl\src\lv_objx/lv_cb.c ****     bool result = true;
 898              		.loc 5 238 0
 899 000e 0123     		movs	r3, #1
 900 0010 FB77     		strb	r3, [r7, #31]
 239:..\..\..\lvgl\version_6.1.2\lvgl\src\lv_objx/lv_cb.c **** 
 240:..\..\..\lvgl\version_6.1.2\lvgl\src\lv_objx/lv_cb.c ****     if(mode == LV_DESIGN_COVER_CHK) {
 901              		.loc 5 240 0
 902 0012 FB79     		ldrb	r3, [r7, #7]	@ zero_extendqisi2
 903 0014 022B     		cmp	r3, #2
 904 0016 08D1     		bne	.L47
 241:..\..\..\lvgl\version_6.1.2\lvgl\src\lv_objx/lv_cb.c ****         /*Return false if the object is not covers the mask_p area*/
 242:..\..\..\lvgl\version_6.1.2\lvgl\src\lv_objx/lv_cb.c ****         result = ancestor_bg_design(cb, mask, mode);
 905              		.loc 5 242 0
 906 0018 1C4B     		ldr	r3, .L52
 907 001a 1B68     		ldr	r3, [r3]
 908 001c FA79     		ldrb	r2, [r7, #7]	@ zero_extendqisi2
 909 001e B968     		ldr	r1, [r7, #8]
 910 0020 F868     		ldr	r0, [r7, #12]
 911 0022 9847     		blx	r3
 912 0024 0346     		mov	r3, r0
 913 0026 FB77     		strb	r3, [r7, #31]
 914 0028 2AE0     		b	.L48
 915              	.L47:
 243:..\..\..\lvgl\version_6.1.2\lvgl\src\lv_objx/lv_cb.c ****     } else if(mode == LV_DESIGN_DRAW_MAIN || mode == LV_DESIGN_DRAW_POST) {
 916              		.loc 5 243 0
 917 002a FB79     		ldrb	r3, [r7, #7]	@ zero_extendqisi2
 918 002c 002B     		cmp	r3, #0
 919 002e 02D0     		beq	.L49
 920              		.loc 5 243 0 is_stmt 0 discriminator 1
 921 0030 FB79     		ldrb	r3, [r7, #7]	@ zero_extendqisi2
 922 0032 012B     		cmp	r3, #1
 923 0034 1CD1     		bne	.L50
 924              	.L49:
 925              	.LBB4:
 244:..\..\..\lvgl\version_6.1.2\lvgl\src\lv_objx/lv_cb.c ****         lv_cb_ext_t * cb_ext      = lv_obj_get_ext_attr(cb);
 926              		.loc 5 244 0 is_stmt 1
 927 0036 F868     		ldr	r0, [r7, #12]
 928 0038 FFF7FEFF 		bl	lv_obj_get_ext_attr
 929 003c B861     		str	r0, [r7, #24]
 245:..\..\..\lvgl\version_6.1.2\lvgl\src\lv_objx/lv_cb.c ****         lv_btn_ext_t * bullet_ext = lv_obj_get_ext_attr(cb_ext->bullet);
 930              		.loc 5 245 0
 931 003e BB69     		ldr	r3, [r7, #24]
 932 0040 DB69     		ldr	r3, [r3, #28]
 933 0042 1846     		mov	r0, r3
 934 0044 FFF7FEFF 		bl	lv_obj_get_ext_attr
 935 0048 7861     		str	r0, [r7, #20]
ARM GAS  C:\Users\tmj32\AppData\Local\Temp\ccH9iEPr.s 			page 35


 246:..\..\..\lvgl\version_6.1.2\lvgl\src\lv_objx/lv_cb.c **** 
 247:..\..\..\lvgl\version_6.1.2\lvgl\src\lv_objx/lv_cb.c ****         /*Be sure the state of the bullet is the same as the parent button*/
 248:..\..\..\lvgl\version_6.1.2\lvgl\src\lv_objx/lv_cb.c ****         bullet_ext->state = cb_ext->bg_btn.state;
 936              		.loc 5 248 0
 937 004a BB69     		ldr	r3, [r7, #24]
 938 004c 1B7E     		ldrb	r3, [r3, #24]
 939 004e C3F30203 		ubfx	r3, r3, #0, #3
 940 0052 D9B2     		uxtb	r1, r3
 941 0054 7A69     		ldr	r2, [r7, #20]
 942 0056 137E     		ldrb	r3, [r2, #24]
 943 0058 61F30203 		bfi	r3, r1, #0, #3
 944 005c 1376     		strb	r3, [r2, #24]
 249:..\..\..\lvgl\version_6.1.2\lvgl\src\lv_objx/lv_cb.c **** 
 250:..\..\..\lvgl\version_6.1.2\lvgl\src\lv_objx/lv_cb.c ****         result = ancestor_bg_design(cb, mask, mode);
 945              		.loc 5 250 0
 946 005e 0B4B     		ldr	r3, .L52
 947 0060 1B68     		ldr	r3, [r3]
 948 0062 FA79     		ldrb	r2, [r7, #7]	@ zero_extendqisi2
 949 0064 B968     		ldr	r1, [r7, #8]
 950 0066 F868     		ldr	r0, [r7, #12]
 951 0068 9847     		blx	r3
 952 006a 0346     		mov	r3, r0
 953 006c FB77     		strb	r3, [r7, #31]
 954              	.LBE4:
 243:..\..\..\lvgl\version_6.1.2\lvgl\src\lv_objx/lv_cb.c ****         lv_cb_ext_t * cb_ext      = lv_obj_get_ext_attr(cb);
 955              		.loc 5 243 0
 956 006e 07E0     		b	.L48
 957              	.L50:
 251:..\..\..\lvgl\version_6.1.2\lvgl\src\lv_objx/lv_cb.c **** 
 252:..\..\..\lvgl\version_6.1.2\lvgl\src\lv_objx/lv_cb.c ****     } else {
 253:..\..\..\lvgl\version_6.1.2\lvgl\src\lv_objx/lv_cb.c ****         result = ancestor_bg_design(cb, mask, mode);
 958              		.loc 5 253 0
 959 0070 064B     		ldr	r3, .L52
 960 0072 1B68     		ldr	r3, [r3]
 961 0074 FA79     		ldrb	r2, [r7, #7]	@ zero_extendqisi2
 962 0076 B968     		ldr	r1, [r7, #8]
 963 0078 F868     		ldr	r0, [r7, #12]
 964 007a 9847     		blx	r3
 965 007c 0346     		mov	r3, r0
 966 007e FB77     		strb	r3, [r7, #31]
 967              	.L48:
 254:..\..\..\lvgl\version_6.1.2\lvgl\src\lv_objx/lv_cb.c ****     }
 255:..\..\..\lvgl\version_6.1.2\lvgl\src\lv_objx/lv_cb.c **** 
 256:..\..\..\lvgl\version_6.1.2\lvgl\src\lv_objx/lv_cb.c ****     return result;
 968              		.loc 5 256 0
 969 0080 FB7F     		ldrb	r3, [r7, #31]	@ zero_extendqisi2
 257:..\..\..\lvgl\version_6.1.2\lvgl\src\lv_objx/lv_cb.c **** }
 970              		.loc 5 257 0
 971 0082 1846     		mov	r0, r3
 972 0084 2037     		adds	r7, r7, #32
 973              		.cfi_def_cfa_offset 8
 974 0086 BD46     		mov	sp, r7
 975              		.cfi_def_cfa_register 13
 976              		@ sp needed
 977 0088 80BD     		pop	{r7, pc}
 978              	.L53:
 979 008a 00BF     		.align	2
ARM GAS  C:\Users\tmj32\AppData\Local\Temp\ccH9iEPr.s 			page 36


 980              	.L52:
 981 008c 00000000 		.word	ancestor_bg_design
 982              		.cfi_endproc
 983              	.LFE56:
 984              		.size	lv_cb_design, .-lv_cb_design
 985              		.section	.text.lv_bullet_design,"ax",%progbits
 986              		.align	2
 987              		.thumb
 988              		.thumb_func
 989              		.type	lv_bullet_design, %function
 990              	lv_bullet_design:
 991              	.LFB57:
 258:..\..\..\lvgl\version_6.1.2\lvgl\src\lv_objx/lv_cb.c **** 
 259:..\..\..\lvgl\version_6.1.2\lvgl\src\lv_objx/lv_cb.c **** /**
 260:..\..\..\lvgl\version_6.1.2\lvgl\src\lv_objx/lv_cb.c ****  * Handle the drawing related tasks of the check boxes
 261:..\..\..\lvgl\version_6.1.2\lvgl\src\lv_objx/lv_cb.c ****  * @param bullet pointer to an object
 262:..\..\..\lvgl\version_6.1.2\lvgl\src\lv_objx/lv_cb.c ****  * @param mask the object will be drawn only in this area
 263:..\..\..\lvgl\version_6.1.2\lvgl\src\lv_objx/lv_cb.c ****  * @param mode LV_DESIGN_COVER_CHK: only check if the object fully covers the 'mask_p' area
 264:..\..\..\lvgl\version_6.1.2\lvgl\src\lv_objx/lv_cb.c ****  *                                  (return 'true' if yes)
 265:..\..\..\lvgl\version_6.1.2\lvgl\src\lv_objx/lv_cb.c ****  *             LV_DESIGN_DRAW: draw the object (always return 'true')
 266:..\..\..\lvgl\version_6.1.2\lvgl\src\lv_objx/lv_cb.c ****  *             LV_DESIGN_DRAW_POST: drawing after every children are drawn
 267:..\..\..\lvgl\version_6.1.2\lvgl\src\lv_objx/lv_cb.c ****  * @param return true/false, depends on 'mode'
 268:..\..\..\lvgl\version_6.1.2\lvgl\src\lv_objx/lv_cb.c ****  */
 269:..\..\..\lvgl\version_6.1.2\lvgl\src\lv_objx/lv_cb.c **** static bool lv_bullet_design(lv_obj_t * bullet, const lv_area_t * mask, lv_design_mode_t mode)
 270:..\..\..\lvgl\version_6.1.2\lvgl\src\lv_objx/lv_cb.c **** {
 992              		.loc 5 270 0
 993              		.cfi_startproc
 994              		@ args = 0, pretend = 0, frame = 16
 995              		@ frame_needed = 1, uses_anonymous_args = 0
 996 0000 80B5     		push	{r7, lr}
 997              		.cfi_def_cfa_offset 8
 998              		.cfi_offset 7, -8
 999              		.cfi_offset 14, -4
 1000 0002 84B0     		sub	sp, sp, #16
 1001              		.cfi_def_cfa_offset 24
 1002 0004 00AF     		add	r7, sp, #0
 1003              		.cfi_def_cfa_register 7
 1004 0006 F860     		str	r0, [r7, #12]
 1005 0008 B960     		str	r1, [r7, #8]
 1006 000a 1346     		mov	r3, r2
 1007 000c FB71     		strb	r3, [r7, #7]
 271:..\..\..\lvgl\version_6.1.2\lvgl\src\lv_objx/lv_cb.c ****     if(mode == LV_DESIGN_COVER_CHK) {
 1008              		.loc 5 271 0
 1009 000e FB79     		ldrb	r3, [r7, #7]	@ zero_extendqisi2
 1010 0010 022B     		cmp	r3, #2
 1011 0012 07D1     		bne	.L55
 272:..\..\..\lvgl\version_6.1.2\lvgl\src\lv_objx/lv_cb.c ****         return ancestor_bullet_design(bullet, mask, mode);
 1012              		.loc 5 272 0
 1013 0014 0F4B     		ldr	r3, .L59
 1014 0016 1B68     		ldr	r3, [r3]
 1015 0018 FA79     		ldrb	r2, [r7, #7]	@ zero_extendqisi2
 1016 001a B968     		ldr	r1, [r7, #8]
 1017 001c F868     		ldr	r0, [r7, #12]
 1018 001e 9847     		blx	r3
 1019 0020 0346     		mov	r3, r0
 1020 0022 13E0     		b	.L56
 1021              	.L55:
ARM GAS  C:\Users\tmj32\AppData\Local\Temp\ccH9iEPr.s 			page 37


 273:..\..\..\lvgl\version_6.1.2\lvgl\src\lv_objx/lv_cb.c ****     } else if(mode == LV_DESIGN_DRAW_MAIN) {
 1022              		.loc 5 273 0
 1023 0024 FB79     		ldrb	r3, [r7, #7]	@ zero_extendqisi2
 1024 0026 002B     		cmp	r3, #0
 1025 0028 06D1     		bne	.L57
 274:..\..\..\lvgl\version_6.1.2\lvgl\src\lv_objx/lv_cb.c **** #if LV_USE_GROUP
 275:..\..\..\lvgl\version_6.1.2\lvgl\src\lv_objx/lv_cb.c ****         /* If the check box is the active in a group and
 276:..\..\..\lvgl\version_6.1.2\lvgl\src\lv_objx/lv_cb.c ****          * the background is not visible (transparent)
 277:..\..\..\lvgl\version_6.1.2\lvgl\src\lv_objx/lv_cb.c ****          * then activate the style of the bullet*/
 278:..\..\..\lvgl\version_6.1.2\lvgl\src\lv_objx/lv_cb.c ****         const lv_style_t * style_ori  = lv_obj_get_style(bullet);
 279:..\..\..\lvgl\version_6.1.2\lvgl\src\lv_objx/lv_cb.c ****         lv_obj_t * bg                 = lv_obj_get_parent(bullet);
 280:..\..\..\lvgl\version_6.1.2\lvgl\src\lv_objx/lv_cb.c ****         const lv_style_t * style_page = lv_obj_get_style(bg);
 281:..\..\..\lvgl\version_6.1.2\lvgl\src\lv_objx/lv_cb.c ****         lv_group_t * g                = lv_obj_get_group(bg);
 282:..\..\..\lvgl\version_6.1.2\lvgl\src\lv_objx/lv_cb.c ****         if(style_page->body.opa == LV_OPA_TRANSP) { /*Is the Background visible?*/
 283:..\..\..\lvgl\version_6.1.2\lvgl\src\lv_objx/lv_cb.c ****             if(lv_group_get_focused(g) == bg) {
 284:..\..\..\lvgl\version_6.1.2\lvgl\src\lv_objx/lv_cb.c ****                 lv_style_t * style_mod;
 285:..\..\..\lvgl\version_6.1.2\lvgl\src\lv_objx/lv_cb.c ****                 style_mod       = lv_group_mod_style(g, style_ori);
 286:..\..\..\lvgl\version_6.1.2\lvgl\src\lv_objx/lv_cb.c ****                 bullet->style_p = style_mod; /*Temporally change the style to the activated */
 287:..\..\..\lvgl\version_6.1.2\lvgl\src\lv_objx/lv_cb.c ****             }
 288:..\..\..\lvgl\version_6.1.2\lvgl\src\lv_objx/lv_cb.c ****         }
 289:..\..\..\lvgl\version_6.1.2\lvgl\src\lv_objx/lv_cb.c **** #endif
 290:..\..\..\lvgl\version_6.1.2\lvgl\src\lv_objx/lv_cb.c ****         ancestor_bullet_design(bullet, mask, mode);
 1026              		.loc 5 290 0
 1027 002a 0A4B     		ldr	r3, .L59
 1028 002c 1B68     		ldr	r3, [r3]
 1029 002e FA79     		ldrb	r2, [r7, #7]	@ zero_extendqisi2
 1030 0030 B968     		ldr	r1, [r7, #8]
 1031 0032 F868     		ldr	r0, [r7, #12]
 1032 0034 9847     		blx	r3
 1033 0036 08E0     		b	.L58
 1034              	.L57:
 291:..\..\..\lvgl\version_6.1.2\lvgl\src\lv_objx/lv_cb.c **** 
 292:..\..\..\lvgl\version_6.1.2\lvgl\src\lv_objx/lv_cb.c **** #if LV_USE_GROUP
 293:..\..\..\lvgl\version_6.1.2\lvgl\src\lv_objx/lv_cb.c ****         bullet->style_p = style_ori; /*Revert the style*/
 294:..\..\..\lvgl\version_6.1.2\lvgl\src\lv_objx/lv_cb.c **** #endif
 295:..\..\..\lvgl\version_6.1.2\lvgl\src\lv_objx/lv_cb.c ****     } else if(mode == LV_DESIGN_DRAW_POST) {
 1035              		.loc 5 295 0
 1036 0038 FB79     		ldrb	r3, [r7, #7]	@ zero_extendqisi2
 1037 003a 012B     		cmp	r3, #1
 1038 003c 05D1     		bne	.L58
 296:..\..\..\lvgl\version_6.1.2\lvgl\src\lv_objx/lv_cb.c ****         ancestor_bullet_design(bullet, mask, mode);
 1039              		.loc 5 296 0
 1040 003e 054B     		ldr	r3, .L59
 1041 0040 1B68     		ldr	r3, [r3]
 1042 0042 FA79     		ldrb	r2, [r7, #7]	@ zero_extendqisi2
 1043 0044 B968     		ldr	r1, [r7, #8]
 1044 0046 F868     		ldr	r0, [r7, #12]
 1045 0048 9847     		blx	r3
 1046              	.L58:
 297:..\..\..\lvgl\version_6.1.2\lvgl\src\lv_objx/lv_cb.c ****     }
 298:..\..\..\lvgl\version_6.1.2\lvgl\src\lv_objx/lv_cb.c **** 
 299:..\..\..\lvgl\version_6.1.2\lvgl\src\lv_objx/lv_cb.c ****     return true;
 1047              		.loc 5 299 0
 1048 004a 0123     		movs	r3, #1
 1049              	.L56:
 300:..\..\..\lvgl\version_6.1.2\lvgl\src\lv_objx/lv_cb.c **** }
 1050              		.loc 5 300 0
ARM GAS  C:\Users\tmj32\AppData\Local\Temp\ccH9iEPr.s 			page 38


 1051 004c 1846     		mov	r0, r3
 1052 004e 1037     		adds	r7, r7, #16
 1053              		.cfi_def_cfa_offset 8
 1054 0050 BD46     		mov	sp, r7
 1055              		.cfi_def_cfa_register 13
 1056              		@ sp needed
 1057 0052 80BD     		pop	{r7, pc}
 1058              	.L60:
 1059              		.align	2
 1060              	.L59:
 1061 0054 04000000 		.word	ancestor_bullet_design
 1062              		.cfi_endproc
 1063              	.LFE57:
 1064              		.size	lv_bullet_design, .-lv_bullet_design
 1065              		.section	.rodata
 1066 000a 0000     		.align	2
 1067              	.LC1:
 1068 000c 6C765F63 		.ascii	"lv_cb\000"
 1068      6200
 1069              		.section	.text.lv_cb_signal,"ax",%progbits
 1070              		.align	2
 1071              		.thumb
 1072              		.thumb_func
 1073              		.type	lv_cb_signal, %function
 1074              	lv_cb_signal:
 1075              	.LFB58:
 301:..\..\..\lvgl\version_6.1.2\lvgl\src\lv_objx/lv_cb.c **** 
 302:..\..\..\lvgl\version_6.1.2\lvgl\src\lv_objx/lv_cb.c **** /**
 303:..\..\..\lvgl\version_6.1.2\lvgl\src\lv_objx/lv_cb.c ****  * Signal function of the check box
 304:..\..\..\lvgl\version_6.1.2\lvgl\src\lv_objx/lv_cb.c ****  * @param cb pointer to a check box object
 305:..\..\..\lvgl\version_6.1.2\lvgl\src\lv_objx/lv_cb.c ****  * @param sign a signal type from lv_signal_t enum
 306:..\..\..\lvgl\version_6.1.2\lvgl\src\lv_objx/lv_cb.c ****  * @param param pointer to a signal specific variable
 307:..\..\..\lvgl\version_6.1.2\lvgl\src\lv_objx/lv_cb.c ****  * @return LV_RES_OK: the object is not deleted in the function; LV_RES_INV: the object is deleted
 308:..\..\..\lvgl\version_6.1.2\lvgl\src\lv_objx/lv_cb.c ****  */
 309:..\..\..\lvgl\version_6.1.2\lvgl\src\lv_objx/lv_cb.c **** static lv_res_t lv_cb_signal(lv_obj_t * cb, lv_signal_t sign, void * param)
 310:..\..\..\lvgl\version_6.1.2\lvgl\src\lv_objx/lv_cb.c **** {
 1076              		.loc 5 310 0
 1077              		.cfi_startproc
 1078              		@ args = 0, pretend = 0, frame = 32
 1079              		@ frame_needed = 1, uses_anonymous_args = 0
 1080 0000 B0B5     		push	{r4, r5, r7, lr}
 1081              		.cfi_def_cfa_offset 16
 1082              		.cfi_offset 4, -16
 1083              		.cfi_offset 5, -12
 1084              		.cfi_offset 7, -8
 1085              		.cfi_offset 14, -4
 1086 0002 88B0     		sub	sp, sp, #32
 1087              		.cfi_def_cfa_offset 48
 1088 0004 00AF     		add	r7, sp, #0
 1089              		.cfi_def_cfa_register 7
 1090 0006 F860     		str	r0, [r7, #12]
 1091 0008 0B46     		mov	r3, r1
 1092 000a 7A60     		str	r2, [r7, #4]
 1093 000c FB72     		strb	r3, [r7, #11]
 311:..\..\..\lvgl\version_6.1.2\lvgl\src\lv_objx/lv_cb.c ****     lv_res_t res;
 312:..\..\..\lvgl\version_6.1.2\lvgl\src\lv_objx/lv_cb.c **** 
 313:..\..\..\lvgl\version_6.1.2\lvgl\src\lv_objx/lv_cb.c ****     /* Include the ancient signal function */
ARM GAS  C:\Users\tmj32\AppData\Local\Temp\ccH9iEPr.s 			page 39


 314:..\..\..\lvgl\version_6.1.2\lvgl\src\lv_objx/lv_cb.c ****     res = ancestor_signal(cb, sign, param);
 1094              		.loc 5 314 0
 1095 000e 3C4B     		ldr	r3, .L70
 1096 0010 1B68     		ldr	r3, [r3]
 1097 0012 F97A     		ldrb	r1, [r7, #11]	@ zero_extendqisi2
 1098 0014 7A68     		ldr	r2, [r7, #4]
 1099 0016 F868     		ldr	r0, [r7, #12]
 1100 0018 9847     		blx	r3
 1101 001a 0346     		mov	r3, r0
 1102 001c FB77     		strb	r3, [r7, #31]
 315:..\..\..\lvgl\version_6.1.2\lvgl\src\lv_objx/lv_cb.c ****     if(res != LV_RES_OK) return res;
 1103              		.loc 5 315 0
 1104 001e FB7F     		ldrb	r3, [r7, #31]	@ zero_extendqisi2
 1105 0020 012B     		cmp	r3, #1
 1106 0022 01D0     		beq	.L62
 1107              		.loc 5 315 0 is_stmt 0 discriminator 1
 1108 0024 FB7F     		ldrb	r3, [r7, #31]	@ zero_extendqisi2
 1109 0026 67E0     		b	.L63
 1110              	.L62:
 316:..\..\..\lvgl\version_6.1.2\lvgl\src\lv_objx/lv_cb.c ****     if(sign == LV_SIGNAL_GET_TYPE) return lv_obj_handle_get_type_signal(param, LV_OBJX_NAME);
 1111              		.loc 5 316 0 is_stmt 1
 1112 0028 FB7A     		ldrb	r3, [r7, #11]	@ zero_extendqisi2
 1113 002a 072B     		cmp	r3, #7
 1114 002c 05D1     		bne	.L64
 1115              		.loc 5 316 0 is_stmt 0 discriminator 1
 1116 002e 3549     		ldr	r1, .L70+4
 1117 0030 7868     		ldr	r0, [r7, #4]
 1118 0032 FFF7FEFF 		bl	lv_obj_handle_get_type_signal
 1119 0036 0346     		mov	r3, r0
 1120 0038 5EE0     		b	.L63
 1121              	.L64:
 317:..\..\..\lvgl\version_6.1.2\lvgl\src\lv_objx/lv_cb.c **** 
 318:..\..\..\lvgl\version_6.1.2\lvgl\src\lv_objx/lv_cb.c ****     lv_cb_ext_t * ext = lv_obj_get_ext_attr(cb);
 1122              		.loc 5 318 0 is_stmt 1
 1123 003a F868     		ldr	r0, [r7, #12]
 1124 003c FFF7FEFF 		bl	lv_obj_get_ext_attr
 1125 0040 B861     		str	r0, [r7, #24]
 319:..\..\..\lvgl\version_6.1.2\lvgl\src\lv_objx/lv_cb.c **** 
 320:..\..\..\lvgl\version_6.1.2\lvgl\src\lv_objx/lv_cb.c ****     if(sign == LV_SIGNAL_STYLE_CHG) {
 1126              		.loc 5 320 0
 1127 0042 FB7A     		ldrb	r3, [r7, #11]	@ zero_extendqisi2
 1128 0044 042B     		cmp	r3, #4
 1129 0046 26D1     		bne	.L65
 1130              	.LBB5:
 321:..\..\..\lvgl\version_6.1.2\lvgl\src\lv_objx/lv_cb.c ****         const lv_style_t * label_style = lv_label_get_style(ext->label, LV_LABEL_STYLE_MAIN);
 1131              		.loc 5 321 0
 1132 0048 BB69     		ldr	r3, [r7, #24]
 1133 004a 1B6A     		ldr	r3, [r3, #32]
 1134 004c 0021     		movs	r1, #0
 1135 004e 1846     		mov	r0, r3
 1136 0050 FFF7FEFF 		bl	lv_label_get_style
 1137 0054 7861     		str	r0, [r7, #20]
 322:..\..\..\lvgl\version_6.1.2\lvgl\src\lv_objx/lv_cb.c ****         lv_obj_set_size(ext->bullet, lv_font_get_line_height(label_style->text.font),
 1138              		.loc 5 322 0
 1139 0056 BB69     		ldr	r3, [r7, #24]
 1140 0058 DC69     		ldr	r4, [r3, #28]
 1141 005a 7B69     		ldr	r3, [r7, #20]
ARM GAS  C:\Users\tmj32\AppData\Local\Temp\ccH9iEPr.s 			page 40


 1142 005c 5B6B     		ldr	r3, [r3, #52]
 1143 005e 1846     		mov	r0, r3
 1144 0060 FFF7FEFF 		bl	lv_font_get_line_height
 1145 0064 0346     		mov	r3, r0
 1146 0066 1DB2     		sxth	r5, r3
 323:..\..\..\lvgl\version_6.1.2\lvgl\src\lv_objx/lv_cb.c ****                         lv_font_get_line_height(label_style->text.font));
 1147              		.loc 5 323 0
 1148 0068 7B69     		ldr	r3, [r7, #20]
 1149 006a 5B6B     		ldr	r3, [r3, #52]
 1150 006c 1846     		mov	r0, r3
 1151 006e FFF7FEFF 		bl	lv_font_get_line_height
 1152 0072 0346     		mov	r3, r0
 322:..\..\..\lvgl\version_6.1.2\lvgl\src\lv_objx/lv_cb.c ****         lv_obj_set_size(ext->bullet, lv_font_get_line_height(label_style->text.font),
 1153              		.loc 5 322 0
 1154 0074 1BB2     		sxth	r3, r3
 1155 0076 1A46     		mov	r2, r3
 1156 0078 2946     		mov	r1, r5
 1157 007a 2046     		mov	r0, r4
 1158 007c FFF7FEFF 		bl	lv_obj_set_size
 324:..\..\..\lvgl\version_6.1.2\lvgl\src\lv_objx/lv_cb.c ****         lv_btn_set_state(ext->bullet, lv_btn_get_state(cb));
 1159              		.loc 5 324 0
 1160 0080 BB69     		ldr	r3, [r7, #24]
 1161 0082 DC69     		ldr	r4, [r3, #28]
 1162 0084 F868     		ldr	r0, [r7, #12]
 1163 0086 FFF7FEFF 		bl	lv_btn_get_state
 1164 008a 0346     		mov	r3, r0
 1165 008c 1946     		mov	r1, r3
 1166 008e 2046     		mov	r0, r4
 1167 0090 FFF7FEFF 		bl	lv_btn_set_state
 1168              	.LBE5:
 1169 0094 2FE0     		b	.L66
 1170              	.L65:
 325:..\..\..\lvgl\version_6.1.2\lvgl\src\lv_objx/lv_cb.c ****     } else if(sign == LV_SIGNAL_PRESSED || sign == LV_SIGNAL_RELEASED || sign == LV_SIGNAL_PRESS_LO
 1171              		.loc 5 325 0
 1172 0096 FB7A     		ldrb	r3, [r7, #11]	@ zero_extendqisi2
 1173 0098 082B     		cmp	r3, #8
 1174 009a 05D0     		beq	.L67
 1175              		.loc 5 325 0 is_stmt 0 discriminator 1
 1176 009c FB7A     		ldrb	r3, [r7, #11]	@ zero_extendqisi2
 1177 009e 0B2B     		cmp	r3, #11
 1178 00a0 02D0     		beq	.L67
 1179              		.loc 5 325 0 discriminator 2
 1180 00a2 FB7A     		ldrb	r3, [r7, #11]	@ zero_extendqisi2
 1181 00a4 0A2B     		cmp	r3, #10
 1182 00a6 0AD1     		bne	.L68
 1183              	.L67:
 326:..\..\..\lvgl\version_6.1.2\lvgl\src\lv_objx/lv_cb.c ****         lv_btn_set_state(ext->bullet, lv_btn_get_state(cb));
 1184              		.loc 5 326 0 is_stmt 1
 1185 00a8 BB69     		ldr	r3, [r7, #24]
 1186 00aa DC69     		ldr	r4, [r3, #28]
 1187 00ac F868     		ldr	r0, [r7, #12]
 1188 00ae FFF7FEFF 		bl	lv_btn_get_state
 1189 00b2 0346     		mov	r3, r0
 1190 00b4 1946     		mov	r1, r3
 1191 00b6 2046     		mov	r0, r4
 1192 00b8 FFF7FEFF 		bl	lv_btn_set_state
 1193 00bc 1BE0     		b	.L66
ARM GAS  C:\Users\tmj32\AppData\Local\Temp\ccH9iEPr.s 			page 41


 1194              	.L68:
 327:..\..\..\lvgl\version_6.1.2\lvgl\src\lv_objx/lv_cb.c ****     } else if(sign == LV_SIGNAL_CONTROL) {
 1195              		.loc 5 327 0
 1196 00be FB7A     		ldrb	r3, [r7, #11]	@ zero_extendqisi2
 1197 00c0 122B     		cmp	r3, #18
 1198 00c2 18D1     		bne	.L66
 1199              	.LBB6:
 328:..\..\..\lvgl\version_6.1.2\lvgl\src\lv_objx/lv_cb.c ****         char c = *((char *)param);
 1200              		.loc 5 328 0
 1201 00c4 7B68     		ldr	r3, [r7, #4]
 1202 00c6 1B78     		ldrb	r3, [r3]
 1203 00c8 FB74     		strb	r3, [r7, #19]
 329:..\..\..\lvgl\version_6.1.2\lvgl\src\lv_objx/lv_cb.c ****         if(c == LV_KEY_RIGHT || c == LV_KEY_DOWN || c == LV_KEY_LEFT || c == LV_KEY_UP) {
 1204              		.loc 5 329 0
 1205 00ca FB7C     		ldrb	r3, [r7, #19]	@ zero_extendqisi2
 1206 00cc 132B     		cmp	r3, #19
 1207 00ce 08D0     		beq	.L69
 1208              		.loc 5 329 0 is_stmt 0 discriminator 1
 1209 00d0 FB7C     		ldrb	r3, [r7, #19]	@ zero_extendqisi2
 1210 00d2 122B     		cmp	r3, #18
 1211 00d4 05D0     		beq	.L69
 1212              		.loc 5 329 0 discriminator 2
 1213 00d6 FB7C     		ldrb	r3, [r7, #19]	@ zero_extendqisi2
 1214 00d8 142B     		cmp	r3, #20
 1215 00da 02D0     		beq	.L69
 1216              		.loc 5 329 0 discriminator 3
 1217 00dc FB7C     		ldrb	r3, [r7, #19]	@ zero_extendqisi2
 1218 00de 112B     		cmp	r3, #17
 1219 00e0 09D1     		bne	.L66
 1220              	.L69:
 330:..\..\..\lvgl\version_6.1.2\lvgl\src\lv_objx/lv_cb.c ****             /*Follow the backgrounds state with the bullet*/
 331:..\..\..\lvgl\version_6.1.2\lvgl\src\lv_objx/lv_cb.c ****             lv_btn_set_state(ext->bullet, lv_btn_get_state(cb));
 1221              		.loc 5 331 0 is_stmt 1
 1222 00e2 BB69     		ldr	r3, [r7, #24]
 1223 00e4 DC69     		ldr	r4, [r3, #28]
 1224 00e6 F868     		ldr	r0, [r7, #12]
 1225 00e8 FFF7FEFF 		bl	lv_btn_get_state
 1226 00ec 0346     		mov	r3, r0
 1227 00ee 1946     		mov	r1, r3
 1228 00f0 2046     		mov	r0, r4
 1229 00f2 FFF7FEFF 		bl	lv_btn_set_state
 1230              	.L66:
 1231              	.LBE6:
 332:..\..\..\lvgl\version_6.1.2\lvgl\src\lv_objx/lv_cb.c ****         }
 333:..\..\..\lvgl\version_6.1.2\lvgl\src\lv_objx/lv_cb.c ****     }
 334:..\..\..\lvgl\version_6.1.2\lvgl\src\lv_objx/lv_cb.c **** 
 335:..\..\..\lvgl\version_6.1.2\lvgl\src\lv_objx/lv_cb.c ****     return res;
 1232              		.loc 5 335 0
 1233 00f6 FB7F     		ldrb	r3, [r7, #31]	@ zero_extendqisi2
 1234              	.L63:
 336:..\..\..\lvgl\version_6.1.2\lvgl\src\lv_objx/lv_cb.c **** }
 1235              		.loc 5 336 0
 1236 00f8 1846     		mov	r0, r3
 1237 00fa 2037     		adds	r7, r7, #32
 1238              		.cfi_def_cfa_offset 16
 1239 00fc BD46     		mov	sp, r7
 1240              		.cfi_def_cfa_register 13
ARM GAS  C:\Users\tmj32\AppData\Local\Temp\ccH9iEPr.s 			page 42


 1241              		@ sp needed
 1242 00fe B0BD     		pop	{r4, r5, r7, pc}
 1243              	.L71:
 1244              		.align	2
 1245              	.L70:
 1246 0100 08000000 		.word	ancestor_signal
 1247 0104 0C000000 		.word	.LC1
 1248              		.cfi_endproc
 1249              	.LFE58:
 1250              		.size	lv_cb_signal, .-lv_cb_signal
 1251              		.text
 1252              	.Letext0:
 1253              		.file 6 "c:\\program files (x86)\\cypress\\psoc creator\\4.3\\psoc creator\\import\\gnu\\arm\\5.4.
 1254              		.file 7 "c:\\program files (x86)\\cypress\\psoc creator\\4.3\\psoc creator\\import\\gnu\\arm\\5.4.
 1255              		.file 8 "..\\..\\..\\lvgl\\version_6.1.2\\lvgl\\src\\lv_objx\\../../../lv_conf.h"
 1256              		.file 9 "..\\..\\..\\lvgl\\version_6.1.2\\lvgl\\src\\lv_objx\\../lv_core/../lv_misc/lv_color.h"
 1257              		.file 10 "..\\..\\..\\lvgl\\version_6.1.2\\lvgl\\src\\lv_objx\\../lv_core/../lv_misc/lv_area.h"
 1258              		.file 11 "..\\..\\..\\lvgl\\version_6.1.2\\lvgl\\src\\lv_objx\\../lv_core/lv_style.h"
 1259              		.file 12 "..\\..\\..\\lvgl\\version_6.1.2\\lvgl\\src\\lv_objx\\../lv_core/../lv_misc/lv_types.h"
 1260              		.file 13 "..\\..\\..\\lvgl\\version_6.1.2\\lvgl\\src\\lv_objx\\../lv_core/../lv_misc/lv_ll.h"
 1261              		.file 14 "..\\..\\..\\lvgl\\version_6.1.2\\lvgl\\src\\lv_objx\\../lv_core/../lv_misc/lv_bidi.h"
 1262              		.file 15 "..\\..\\..\\lvgl\\version_6.1.2\\lvgl\\src\\lv_objx\\../lv_core/lv_obj.h"
 1263              		.file 16 "..\\..\\..\\lvgl\\version_6.1.2\\lvgl\\src\\lv_objx\\../lv_core/../lv_core/lv_group.h"
 1264              		.file 17 "..\\..\\..\\lvgl\\version_6.1.2\\lvgl\\src\\lv_objx\\lv_cb.h"
 1265              		.file 18 "..\\..\\..\\lvgl\\version_6.1.2\\lvgl\\src\\lv_objx\\../lv_themes/lv_theme.h"