ARM GAS  C:\Users\tmj32\AppData\Local\Temp\ccjZRJ0y.s 			page 1


   1              		.syntax unified
   2              		.cpu cortex-m4
   3              		.eabi_attribute 27, 1
   4              		.fpu fpv4-sp-d16
   5              		.eabi_attribute 20, 1
   6              		.eabi_attribute 21, 1
   7              		.eabi_attribute 23, 3
   8              		.eabi_attribute 24, 1
   9              		.eabi_attribute 25, 1
  10              		.eabi_attribute 26, 1
  11              		.eabi_attribute 30, 6
  12              		.eabi_attribute 34, 1
  13              		.eabi_attribute 18, 4
  14              		.thumb
  15              		.syntax unified
  16              		.file	"lv_circ.c"
  17              		.text
  18              	.Ltext0:
  19              		.cfi_sections	.debug_frame
  20              		.section	.text.lv_circ_init,"ax",%progbits
  21              		.align	2
  22              		.global	lv_circ_init
  23              		.thumb
  24              		.thumb_func
  25              		.type	lv_circ_init, %function
  26              	lv_circ_init:
  27              	.LFB3:
  28              		.file 1 "..\\..\\..\\lvgl\\version_6.1.2\\lvgl\\src\\lv_misc\\lv_circ.c"
   1:..\..\..\lvgl\version_6.1.2\lvgl\src\lv_misc/lv_circ.c **** /**
   2:..\..\..\lvgl\version_6.1.2\lvgl\src\lv_misc/lv_circ.c ****  * @file lv_circ.c
   3:..\..\..\lvgl\version_6.1.2\lvgl\src\lv_misc/lv_circ.c ****  * Circle drawing algorithm (with Bresenham)
   4:..\..\..\lvgl\version_6.1.2\lvgl\src\lv_misc/lv_circ.c ****  * Only a 1/8 circle is calculated. Use CIRC_OCT1_X, CIRC_OCT1_Y macros to get
   5:..\..\..\lvgl\version_6.1.2\lvgl\src\lv_misc/lv_circ.c ****  * the other octets.
   6:..\..\..\lvgl\version_6.1.2\lvgl\src\lv_misc/lv_circ.c ****  */
   7:..\..\..\lvgl\version_6.1.2\lvgl\src\lv_misc/lv_circ.c **** 
   8:..\..\..\lvgl\version_6.1.2\lvgl\src\lv_misc/lv_circ.c **** /*********************
   9:..\..\..\lvgl\version_6.1.2\lvgl\src\lv_misc/lv_circ.c ****  *      INCLUDES
  10:..\..\..\lvgl\version_6.1.2\lvgl\src\lv_misc/lv_circ.c ****  *********************/
  11:..\..\..\lvgl\version_6.1.2\lvgl\src\lv_misc/lv_circ.c **** #include "lv_circ.h"
  12:..\..\..\lvgl\version_6.1.2\lvgl\src\lv_misc/lv_circ.c **** 
  13:..\..\..\lvgl\version_6.1.2\lvgl\src\lv_misc/lv_circ.c **** /*********************
  14:..\..\..\lvgl\version_6.1.2\lvgl\src\lv_misc/lv_circ.c ****  *      DEFINES
  15:..\..\..\lvgl\version_6.1.2\lvgl\src\lv_misc/lv_circ.c ****  *********************/
  16:..\..\..\lvgl\version_6.1.2\lvgl\src\lv_misc/lv_circ.c **** 
  17:..\..\..\lvgl\version_6.1.2\lvgl\src\lv_misc/lv_circ.c **** /**********************
  18:..\..\..\lvgl\version_6.1.2\lvgl\src\lv_misc/lv_circ.c ****  *      TYPEDEFS
  19:..\..\..\lvgl\version_6.1.2\lvgl\src\lv_misc/lv_circ.c ****  **********************/
  20:..\..\..\lvgl\version_6.1.2\lvgl\src\lv_misc/lv_circ.c **** 
  21:..\..\..\lvgl\version_6.1.2\lvgl\src\lv_misc/lv_circ.c **** /**********************
  22:..\..\..\lvgl\version_6.1.2\lvgl\src\lv_misc/lv_circ.c ****  *  STATIC PROTOTYPES
  23:..\..\..\lvgl\version_6.1.2\lvgl\src\lv_misc/lv_circ.c ****  **********************/
  24:..\..\..\lvgl\version_6.1.2\lvgl\src\lv_misc/lv_circ.c **** 
  25:..\..\..\lvgl\version_6.1.2\lvgl\src\lv_misc/lv_circ.c **** /**********************
  26:..\..\..\lvgl\version_6.1.2\lvgl\src\lv_misc/lv_circ.c ****  *  STATIC VARIABLES
  27:..\..\..\lvgl\version_6.1.2\lvgl\src\lv_misc/lv_circ.c ****  **********************/
  28:..\..\..\lvgl\version_6.1.2\lvgl\src\lv_misc/lv_circ.c **** 
  29:..\..\..\lvgl\version_6.1.2\lvgl\src\lv_misc/lv_circ.c **** /**********************
ARM GAS  C:\Users\tmj32\AppData\Local\Temp\ccjZRJ0y.s 			page 2


  30:..\..\..\lvgl\version_6.1.2\lvgl\src\lv_misc/lv_circ.c ****  *      MACROS
  31:..\..\..\lvgl\version_6.1.2\lvgl\src\lv_misc/lv_circ.c ****  **********************/
  32:..\..\..\lvgl\version_6.1.2\lvgl\src\lv_misc/lv_circ.c **** 
  33:..\..\..\lvgl\version_6.1.2\lvgl\src\lv_misc/lv_circ.c **** /**********************
  34:..\..\..\lvgl\version_6.1.2\lvgl\src\lv_misc/lv_circ.c ****  *   GLOBAL FUNCTIONS
  35:..\..\..\lvgl\version_6.1.2\lvgl\src\lv_misc/lv_circ.c ****  **********************/
  36:..\..\..\lvgl\version_6.1.2\lvgl\src\lv_misc/lv_circ.c **** 
  37:..\..\..\lvgl\version_6.1.2\lvgl\src\lv_misc/lv_circ.c **** /**
  38:..\..\..\lvgl\version_6.1.2\lvgl\src\lv_misc/lv_circ.c ****  * Initialize the circle drawing
  39:..\..\..\lvgl\version_6.1.2\lvgl\src\lv_misc/lv_circ.c ****  * @param c pointer to a point. The coordinates will be calculated here
  40:..\..\..\lvgl\version_6.1.2\lvgl\src\lv_misc/lv_circ.c ****  * @param tmp point to a variable. It will store temporary data
  41:..\..\..\lvgl\version_6.1.2\lvgl\src\lv_misc/lv_circ.c ****  * @param radius radius of the circle
  42:..\..\..\lvgl\version_6.1.2\lvgl\src\lv_misc/lv_circ.c ****  */
  43:..\..\..\lvgl\version_6.1.2\lvgl\src\lv_misc/lv_circ.c **** void lv_circ_init(lv_point_t * c, lv_coord_t * tmp, lv_coord_t radius)
  44:..\..\..\lvgl\version_6.1.2\lvgl\src\lv_misc/lv_circ.c **** {
  29              		.loc 1 44 0
  30              		.cfi_startproc
  31              		@ args = 0, pretend = 0, frame = 16
  32              		@ frame_needed = 1, uses_anonymous_args = 0
  33              		@ link register save eliminated.
  34 0000 80B4     		push	{r7}
  35              		.cfi_def_cfa_offset 4
  36              		.cfi_offset 7, -4
  37 0002 85B0     		sub	sp, sp, #20
  38              		.cfi_def_cfa_offset 24
  39 0004 00AF     		add	r7, sp, #0
  40              		.cfi_def_cfa_register 7
  41 0006 F860     		str	r0, [r7, #12]
  42 0008 B960     		str	r1, [r7, #8]
  43 000a 1346     		mov	r3, r2
  44 000c FB80     		strh	r3, [r7, #6]	@ movhi
  45:..\..\..\lvgl\version_6.1.2\lvgl\src\lv_misc/lv_circ.c ****     c->x = radius;
  45              		.loc 1 45 0
  46 000e FB68     		ldr	r3, [r7, #12]
  47 0010 FA88     		ldrh	r2, [r7, #6]	@ movhi
  48 0012 1A80     		strh	r2, [r3]	@ movhi
  46:..\..\..\lvgl\version_6.1.2\lvgl\src\lv_misc/lv_circ.c ****     c->y = 0;
  49              		.loc 1 46 0
  50 0014 FB68     		ldr	r3, [r7, #12]
  51 0016 0022     		movs	r2, #0
  52 0018 5A80     		strh	r2, [r3, #2]	@ movhi
  47:..\..\..\lvgl\version_6.1.2\lvgl\src\lv_misc/lv_circ.c ****     *tmp = 1 - radius;
  53              		.loc 1 47 0
  54 001a FB88     		ldrh	r3, [r7, #6]
  55 001c C3F10103 		rsb	r3, r3, #1
  56 0020 9BB2     		uxth	r3, r3
  57 0022 1AB2     		sxth	r2, r3
  58 0024 BB68     		ldr	r3, [r7, #8]
  59 0026 1A80     		strh	r2, [r3]	@ movhi
  48:..\..\..\lvgl\version_6.1.2\lvgl\src\lv_misc/lv_circ.c **** }
  60              		.loc 1 48 0
  61 0028 00BF     		nop
  62 002a 1437     		adds	r7, r7, #20
  63              		.cfi_def_cfa_offset 4
  64 002c BD46     		mov	sp, r7
  65              		.cfi_def_cfa_register 13
  66              		@ sp needed
ARM GAS  C:\Users\tmj32\AppData\Local\Temp\ccjZRJ0y.s 			page 3


  67 002e 5DF8047B 		ldr	r7, [sp], #4
  68              		.cfi_restore 7
  69              		.cfi_def_cfa_offset 0
  70 0032 7047     		bx	lr
  71              		.cfi_endproc
  72              	.LFE3:
  73              		.size	lv_circ_init, .-lv_circ_init
  74              		.section	.text.lv_circ_cont,"ax",%progbits
  75              		.align	2
  76              		.global	lv_circ_cont
  77              		.thumb
  78              		.thumb_func
  79              		.type	lv_circ_cont, %function
  80              	lv_circ_cont:
  81              	.LFB4:
  49:..\..\..\lvgl\version_6.1.2\lvgl\src\lv_misc/lv_circ.c **** 
  50:..\..\..\lvgl\version_6.1.2\lvgl\src\lv_misc/lv_circ.c **** /**
  51:..\..\..\lvgl\version_6.1.2\lvgl\src\lv_misc/lv_circ.c ****  * Test the circle drawing is ready or not
  52:..\..\..\lvgl\version_6.1.2\lvgl\src\lv_misc/lv_circ.c ****  * @param c same as in circ_init
  53:..\..\..\lvgl\version_6.1.2\lvgl\src\lv_misc/lv_circ.c ****  * @return true if the circle is not ready yet
  54:..\..\..\lvgl\version_6.1.2\lvgl\src\lv_misc/lv_circ.c ****  */
  55:..\..\..\lvgl\version_6.1.2\lvgl\src\lv_misc/lv_circ.c **** bool lv_circ_cont(lv_point_t * c)
  56:..\..\..\lvgl\version_6.1.2\lvgl\src\lv_misc/lv_circ.c **** {
  82              		.loc 1 56 0
  83              		.cfi_startproc
  84              		@ args = 0, pretend = 0, frame = 8
  85              		@ frame_needed = 1, uses_anonymous_args = 0
  86              		@ link register save eliminated.
  87 0000 80B4     		push	{r7}
  88              		.cfi_def_cfa_offset 4
  89              		.cfi_offset 7, -4
  90 0002 83B0     		sub	sp, sp, #12
  91              		.cfi_def_cfa_offset 16
  92 0004 00AF     		add	r7, sp, #0
  93              		.cfi_def_cfa_register 7
  94 0006 7860     		str	r0, [r7, #4]
  57:..\..\..\lvgl\version_6.1.2\lvgl\src\lv_misc/lv_circ.c ****     return c->y <= c->x ? true : false;
  95              		.loc 1 57 0
  96 0008 7B68     		ldr	r3, [r7, #4]
  97 000a B3F90220 		ldrsh	r2, [r3, #2]
  98 000e 7B68     		ldr	r3, [r7, #4]
  99 0010 B3F90030 		ldrsh	r3, [r3]
 100 0014 9A42     		cmp	r2, r3
 101 0016 D4BF     		ite	le
 102 0018 0123     		movle	r3, #1
 103 001a 0023     		movgt	r3, #0
 104 001c DBB2     		uxtb	r3, r3
  58:..\..\..\lvgl\version_6.1.2\lvgl\src\lv_misc/lv_circ.c **** }
 105              		.loc 1 58 0
 106 001e 1846     		mov	r0, r3
 107 0020 0C37     		adds	r7, r7, #12
 108              		.cfi_def_cfa_offset 4
 109 0022 BD46     		mov	sp, r7
 110              		.cfi_def_cfa_register 13
 111              		@ sp needed
 112 0024 5DF8047B 		ldr	r7, [sp], #4
 113              		.cfi_restore 7
ARM GAS  C:\Users\tmj32\AppData\Local\Temp\ccjZRJ0y.s 			page 4


 114              		.cfi_def_cfa_offset 0
 115 0028 7047     		bx	lr
 116              		.cfi_endproc
 117              	.LFE4:
 118              		.size	lv_circ_cont, .-lv_circ_cont
 119 002a 00BF     		.section	.text.lv_circ_next,"ax",%progbits
 120              		.align	2
 121              		.global	lv_circ_next
 122              		.thumb
 123              		.thumb_func
 124              		.type	lv_circ_next, %function
 125              	lv_circ_next:
 126              	.LFB5:
  59:..\..\..\lvgl\version_6.1.2\lvgl\src\lv_misc/lv_circ.c **** 
  60:..\..\..\lvgl\version_6.1.2\lvgl\src\lv_misc/lv_circ.c **** /**
  61:..\..\..\lvgl\version_6.1.2\lvgl\src\lv_misc/lv_circ.c ****  * Get the next point from the circle
  62:..\..\..\lvgl\version_6.1.2\lvgl\src\lv_misc/lv_circ.c ****  * @param c same as in circ_init. The next point stored here.
  63:..\..\..\lvgl\version_6.1.2\lvgl\src\lv_misc/lv_circ.c ****  * @param tmp same as in circ_init.
  64:..\..\..\lvgl\version_6.1.2\lvgl\src\lv_misc/lv_circ.c ****  */
  65:..\..\..\lvgl\version_6.1.2\lvgl\src\lv_misc/lv_circ.c **** void lv_circ_next(lv_point_t * c, lv_coord_t * tmp)
  66:..\..\..\lvgl\version_6.1.2\lvgl\src\lv_misc/lv_circ.c **** {
 127              		.loc 1 66 0
 128              		.cfi_startproc
 129              		@ args = 0, pretend = 0, frame = 8
 130              		@ frame_needed = 1, uses_anonymous_args = 0
 131              		@ link register save eliminated.
 132 0000 80B4     		push	{r7}
 133              		.cfi_def_cfa_offset 4
 134              		.cfi_offset 7, -4
 135 0002 83B0     		sub	sp, sp, #12
 136              		.cfi_def_cfa_offset 16
 137 0004 00AF     		add	r7, sp, #0
 138              		.cfi_def_cfa_register 7
 139 0006 7860     		str	r0, [r7, #4]
 140 0008 3960     		str	r1, [r7]
  67:..\..\..\lvgl\version_6.1.2\lvgl\src\lv_misc/lv_circ.c ****     c->y++;
 141              		.loc 1 67 0
 142 000a 7B68     		ldr	r3, [r7, #4]
 143 000c B3F90230 		ldrsh	r3, [r3, #2]
 144 0010 9BB2     		uxth	r3, r3
 145 0012 0133     		adds	r3, r3, #1
 146 0014 9BB2     		uxth	r3, r3
 147 0016 1AB2     		sxth	r2, r3
 148 0018 7B68     		ldr	r3, [r7, #4]
 149 001a 5A80     		strh	r2, [r3, #2]	@ movhi
  68:..\..\..\lvgl\version_6.1.2\lvgl\src\lv_misc/lv_circ.c **** 
  69:..\..\..\lvgl\version_6.1.2\lvgl\src\lv_misc/lv_circ.c ****     if(*tmp <= 0) {
 150              		.loc 1 69 0
 151 001c 3B68     		ldr	r3, [r7]
 152 001e B3F90030 		ldrsh	r3, [r3]
 153 0022 002B     		cmp	r3, #0
 154 0024 11DC     		bgt	.L5
  70:..\..\..\lvgl\version_6.1.2\lvgl\src\lv_misc/lv_circ.c ****         (*tmp) += 2 * c->y + 1; /*Change in decision criterion for y -> y+1*/
 155              		.loc 1 70 0
 156 0026 3B68     		ldr	r3, [r7]
 157 0028 B3F90030 		ldrsh	r3, [r3]
 158 002c 9AB2     		uxth	r2, r3
ARM GAS  C:\Users\tmj32\AppData\Local\Temp\ccjZRJ0y.s 			page 5


 159 002e 7B68     		ldr	r3, [r7, #4]
 160 0030 B3F90230 		ldrsh	r3, [r3, #2]
 161 0034 9BB2     		uxth	r3, r3
 162 0036 5B00     		lsls	r3, r3, #1
 163 0038 9BB2     		uxth	r3, r3
 164 003a 1344     		add	r3, r3, r2
 165 003c 9BB2     		uxth	r3, r3
 166 003e 0133     		adds	r3, r3, #1
 167 0040 9BB2     		uxth	r3, r3
 168 0042 1AB2     		sxth	r2, r3
 169 0044 3B68     		ldr	r3, [r7]
 170 0046 1A80     		strh	r2, [r3]	@ movhi
  71:..\..\..\lvgl\version_6.1.2\lvgl\src\lv_misc/lv_circ.c ****     } else {
  72:..\..\..\lvgl\version_6.1.2\lvgl\src\lv_misc/lv_circ.c ****         c->x--;
  73:..\..\..\lvgl\version_6.1.2\lvgl\src\lv_misc/lv_circ.c ****         (*tmp) += 2 * (c->y - c->x) + 1; /*Change for y -> y+1, x -> x-1*/
  74:..\..\..\lvgl\version_6.1.2\lvgl\src\lv_misc/lv_circ.c ****     }
  75:..\..\..\lvgl\version_6.1.2\lvgl\src\lv_misc/lv_circ.c **** }
 171              		.loc 1 75 0
 172 0048 1EE0     		b	.L7
 173              	.L5:
  72:..\..\..\lvgl\version_6.1.2\lvgl\src\lv_misc/lv_circ.c ****         (*tmp) += 2 * (c->y - c->x) + 1; /*Change for y -> y+1, x -> x-1*/
 174              		.loc 1 72 0
 175 004a 7B68     		ldr	r3, [r7, #4]
 176 004c B3F90030 		ldrsh	r3, [r3]
 177 0050 9BB2     		uxth	r3, r3
 178 0052 013B     		subs	r3, r3, #1
 179 0054 9BB2     		uxth	r3, r3
 180 0056 1AB2     		sxth	r2, r3
 181 0058 7B68     		ldr	r3, [r7, #4]
 182 005a 1A80     		strh	r2, [r3]	@ movhi
  73:..\..\..\lvgl\version_6.1.2\lvgl\src\lv_misc/lv_circ.c ****     }
 183              		.loc 1 73 0
 184 005c 3B68     		ldr	r3, [r7]
 185 005e B3F90030 		ldrsh	r3, [r3]
 186 0062 9AB2     		uxth	r2, r3
 187 0064 7B68     		ldr	r3, [r7, #4]
 188 0066 B3F90230 		ldrsh	r3, [r3, #2]
 189 006a 1946     		mov	r1, r3
 190 006c 7B68     		ldr	r3, [r7, #4]
 191 006e B3F90030 		ldrsh	r3, [r3]
 192 0072 CB1A     		subs	r3, r1, r3
 193 0074 9BB2     		uxth	r3, r3
 194 0076 5B00     		lsls	r3, r3, #1
 195 0078 9BB2     		uxth	r3, r3
 196 007a 1344     		add	r3, r3, r2
 197 007c 9BB2     		uxth	r3, r3
 198 007e 0133     		adds	r3, r3, #1
 199 0080 9BB2     		uxth	r3, r3
 200 0082 1AB2     		sxth	r2, r3
 201 0084 3B68     		ldr	r3, [r7]
 202 0086 1A80     		strh	r2, [r3]	@ movhi
 203              	.L7:
 204              		.loc 1 75 0
 205 0088 00BF     		nop
 206 008a 0C37     		adds	r7, r7, #12
 207              		.cfi_def_cfa_offset 4
 208 008c BD46     		mov	sp, r7
ARM GAS  C:\Users\tmj32\AppData\Local\Temp\ccjZRJ0y.s 			page 6


 209              		.cfi_def_cfa_register 13
 210              		@ sp needed
 211 008e 5DF8047B 		ldr	r7, [sp], #4
 212              		.cfi_restore 7
 213              		.cfi_def_cfa_offset 0
 214 0092 7047     		bx	lr
 215              		.cfi_endproc
 216              	.LFE5:
 217              		.size	lv_circ_next, .-lv_circ_next
 218              		.text
 219              	.Letext0:
 220              		.file 2 "c:\\program files (x86)\\cypress\\psoc creator\\4.3\\psoc creator\\import\\gnu\\arm\\5.4.
 221              		.file 3 "c:\\program files (x86)\\cypress\\psoc creator\\4.3\\psoc creator\\import\\gnu\\arm\\5.4.
 222              		.file 4 "..\\..\\..\\lvgl\\version_6.1.2\\lvgl\\src\\lv_misc\\../../../lv_conf.h"
 223              		.file 5 "..\\..\\..\\lvgl\\version_6.1.2\\lvgl\\src\\lv_misc\\lv_area.h"