ARM GAS  C:\Users\tmj32\AppData\Local\Temp\ccrrExWC.s 			page 1


   1              		.syntax unified
   2              		.cpu cortex-m4
   3              		.eabi_attribute 27, 1
   4              		.fpu fpv4-sp-d16
   5              		.eabi_attribute 20, 1
   6              		.eabi_attribute 21, 1
   7              		.eabi_attribute 23, 3
   8              		.eabi_attribute 24, 1
   9              		.eabi_attribute 25, 1
  10              		.eabi_attribute 26, 1
  11              		.eabi_attribute 30, 6
  12              		.eabi_attribute 34, 1
  13              		.eabi_attribute 18, 4
  14              		.thumb
  15              		.syntax unified
  16              		.file	"lv_chart.c"
  17              		.text
  18              	.Ltext0:
  19              		.cfi_sections	.debug_frame
  20              		.section	.text.lv_color_mix,"ax",%progbits
  21              		.align	2
  22              		.thumb
  23              		.thumb_func
  24              		.type	lv_color_mix, %function
  25              	lv_color_mix:
  26              	.LFB5:
  27              		.file 1 "..\\..\\..\\lvgl\\version_6.1.2\\lvgl\\src\\lv_objx\\../lv_core/../lv_misc/lv_color.h"
   1:..\..\..\lvgl\version_6.1.2\lvgl\src\lv_objx\../lv_core/../lv_misc/lv_color.h **** /**
   2:..\..\..\lvgl\version_6.1.2\lvgl\src\lv_objx\../lv_core/../lv_misc/lv_color.h ****  * @file lv_color.h
   3:..\..\..\lvgl\version_6.1.2\lvgl\src\lv_objx\../lv_core/../lv_misc/lv_color.h ****  *
   4:..\..\..\lvgl\version_6.1.2\lvgl\src\lv_objx\../lv_core/../lv_misc/lv_color.h ****  */
   5:..\..\..\lvgl\version_6.1.2\lvgl\src\lv_objx\../lv_core/../lv_misc/lv_color.h **** 
   6:..\..\..\lvgl\version_6.1.2\lvgl\src\lv_objx\../lv_core/../lv_misc/lv_color.h **** #ifndef LV_COLOR_H
   7:..\..\..\lvgl\version_6.1.2\lvgl\src\lv_objx\../lv_core/../lv_misc/lv_color.h **** #define LV_COLOR_H
   8:..\..\..\lvgl\version_6.1.2\lvgl\src\lv_objx\../lv_core/../lv_misc/lv_color.h **** 
   9:..\..\..\lvgl\version_6.1.2\lvgl\src\lv_objx\../lv_core/../lv_misc/lv_color.h **** #ifdef __cplusplus
  10:..\..\..\lvgl\version_6.1.2\lvgl\src\lv_objx\../lv_core/../lv_misc/lv_color.h **** extern "C" {
  11:..\..\..\lvgl\version_6.1.2\lvgl\src\lv_objx\../lv_core/../lv_misc/lv_color.h **** #endif
  12:..\..\..\lvgl\version_6.1.2\lvgl\src\lv_objx\../lv_core/../lv_misc/lv_color.h **** 
  13:..\..\..\lvgl\version_6.1.2\lvgl\src\lv_objx\../lv_core/../lv_misc/lv_color.h **** /*********************
  14:..\..\..\lvgl\version_6.1.2\lvgl\src\lv_objx\../lv_core/../lv_misc/lv_color.h ****  *      INCLUDES
  15:..\..\..\lvgl\version_6.1.2\lvgl\src\lv_objx\../lv_core/../lv_misc/lv_color.h ****  *********************/
  16:..\..\..\lvgl\version_6.1.2\lvgl\src\lv_objx\../lv_core/../lv_misc/lv_color.h **** #ifdef LV_CONF_INCLUDE_SIMPLE
  17:..\..\..\lvgl\version_6.1.2\lvgl\src\lv_objx\../lv_core/../lv_misc/lv_color.h **** #include "lv_conf.h"
  18:..\..\..\lvgl\version_6.1.2\lvgl\src\lv_objx\../lv_core/../lv_misc/lv_color.h **** #else
  19:..\..\..\lvgl\version_6.1.2\lvgl\src\lv_objx\../lv_core/../lv_misc/lv_color.h **** #include "../../../lv_conf.h"
  20:..\..\..\lvgl\version_6.1.2\lvgl\src\lv_objx\../lv_core/../lv_misc/lv_color.h **** #endif
  21:..\..\..\lvgl\version_6.1.2\lvgl\src\lv_objx\../lv_core/../lv_misc/lv_color.h **** 
  22:..\..\..\lvgl\version_6.1.2\lvgl\src\lv_objx\../lv_core/../lv_misc/lv_color.h **** /*Error checking*/
  23:..\..\..\lvgl\version_6.1.2\lvgl\src\lv_objx\../lv_core/../lv_misc/lv_color.h **** #if LV_COLOR_DEPTH == 24
  24:..\..\..\lvgl\version_6.1.2\lvgl\src\lv_objx\../lv_core/../lv_misc/lv_color.h **** #error "LV_COLOR_DEPTH  24 is deprecated. Use LV_COLOR_DEPTH  32 instead (lv_conf.h)"
  25:..\..\..\lvgl\version_6.1.2\lvgl\src\lv_objx\../lv_core/../lv_misc/lv_color.h **** #endif
  26:..\..\..\lvgl\version_6.1.2\lvgl\src\lv_objx\../lv_core/../lv_misc/lv_color.h **** 
  27:..\..\..\lvgl\version_6.1.2\lvgl\src\lv_objx\../lv_core/../lv_misc/lv_color.h **** #if LV_COLOR_DEPTH != 32 && LV_COLOR_SCREEN_TRANSP != 0
  28:..\..\..\lvgl\version_6.1.2\lvgl\src\lv_objx\../lv_core/../lv_misc/lv_color.h **** #error "LV_COLOR_SCREEN_TRANSP requires LV_COLOR_DEPTH == 32. Set it in lv_conf.h"
  29:..\..\..\lvgl\version_6.1.2\lvgl\src\lv_objx\../lv_core/../lv_misc/lv_color.h **** #endif
  30:..\..\..\lvgl\version_6.1.2\lvgl\src\lv_objx\../lv_core/../lv_misc/lv_color.h **** 
ARM GAS  C:\Users\tmj32\AppData\Local\Temp\ccrrExWC.s 			page 2


  31:..\..\..\lvgl\version_6.1.2\lvgl\src\lv_objx\../lv_core/../lv_misc/lv_color.h **** #if LV_COLOR_DEPTH != 16 && LV_COLOR_16_SWAP != 0
  32:..\..\..\lvgl\version_6.1.2\lvgl\src\lv_objx\../lv_core/../lv_misc/lv_color.h **** #error "LV_COLOR_16_SWAP requires LV_COLOR_DEPTH == 16. Set it in lv_conf.h"
  33:..\..\..\lvgl\version_6.1.2\lvgl\src\lv_objx\../lv_core/../lv_misc/lv_color.h **** #endif
  34:..\..\..\lvgl\version_6.1.2\lvgl\src\lv_objx\../lv_core/../lv_misc/lv_color.h **** 
  35:..\..\..\lvgl\version_6.1.2\lvgl\src\lv_objx\../lv_core/../lv_misc/lv_color.h **** #include <stdint.h>
  36:..\..\..\lvgl\version_6.1.2\lvgl\src\lv_objx\../lv_core/../lv_misc/lv_color.h **** 
  37:..\..\..\lvgl\version_6.1.2\lvgl\src\lv_objx\../lv_core/../lv_misc/lv_color.h **** /*********************
  38:..\..\..\lvgl\version_6.1.2\lvgl\src\lv_objx\../lv_core/../lv_misc/lv_color.h ****  *      DEFINES
  39:..\..\..\lvgl\version_6.1.2\lvgl\src\lv_objx\../lv_core/../lv_misc/lv_color.h ****  *********************/
  40:..\..\..\lvgl\version_6.1.2\lvgl\src\lv_objx\../lv_core/../lv_misc/lv_color.h **** #define LV_COLOR_WHITE LV_COLOR_MAKE(0xFF, 0xFF, 0xFF)
  41:..\..\..\lvgl\version_6.1.2\lvgl\src\lv_objx\../lv_core/../lv_misc/lv_color.h **** #define LV_COLOR_SILVER LV_COLOR_MAKE(0xC0, 0xC0, 0xC0)
  42:..\..\..\lvgl\version_6.1.2\lvgl\src\lv_objx\../lv_core/../lv_misc/lv_color.h **** #define LV_COLOR_GRAY LV_COLOR_MAKE(0x80, 0x80, 0x80)
  43:..\..\..\lvgl\version_6.1.2\lvgl\src\lv_objx\../lv_core/../lv_misc/lv_color.h **** #define LV_COLOR_BLACK LV_COLOR_MAKE(0x00, 0x00, 0x00)
  44:..\..\..\lvgl\version_6.1.2\lvgl\src\lv_objx\../lv_core/../lv_misc/lv_color.h **** #define LV_COLOR_RED LV_COLOR_MAKE(0xFF, 0x00, 0x00)
  45:..\..\..\lvgl\version_6.1.2\lvgl\src\lv_objx\../lv_core/../lv_misc/lv_color.h **** #define LV_COLOR_MAROON LV_COLOR_MAKE(0x80, 0x00, 0x00)
  46:..\..\..\lvgl\version_6.1.2\lvgl\src\lv_objx\../lv_core/../lv_misc/lv_color.h **** #define LV_COLOR_YELLOW LV_COLOR_MAKE(0xFF, 0xFF, 0x00)
  47:..\..\..\lvgl\version_6.1.2\lvgl\src\lv_objx\../lv_core/../lv_misc/lv_color.h **** #define LV_COLOR_OLIVE LV_COLOR_MAKE(0x80, 0x80, 0x00)
  48:..\..\..\lvgl\version_6.1.2\lvgl\src\lv_objx\../lv_core/../lv_misc/lv_color.h **** #define LV_COLOR_LIME LV_COLOR_MAKE(0x00, 0xFF, 0x00)
  49:..\..\..\lvgl\version_6.1.2\lvgl\src\lv_objx\../lv_core/../lv_misc/lv_color.h **** #define LV_COLOR_GREEN LV_COLOR_MAKE(0x00, 0x80, 0x00)
  50:..\..\..\lvgl\version_6.1.2\lvgl\src\lv_objx\../lv_core/../lv_misc/lv_color.h **** #define LV_COLOR_CYAN LV_COLOR_MAKE(0x00, 0xFF, 0xFF)
  51:..\..\..\lvgl\version_6.1.2\lvgl\src\lv_objx\../lv_core/../lv_misc/lv_color.h **** #define LV_COLOR_AQUA LV_COLOR_CYAN
  52:..\..\..\lvgl\version_6.1.2\lvgl\src\lv_objx\../lv_core/../lv_misc/lv_color.h **** #define LV_COLOR_TEAL LV_COLOR_MAKE(0x00, 0x80, 0x80)
  53:..\..\..\lvgl\version_6.1.2\lvgl\src\lv_objx\../lv_core/../lv_misc/lv_color.h **** #define LV_COLOR_BLUE LV_COLOR_MAKE(0x00, 0x00, 0xFF)
  54:..\..\..\lvgl\version_6.1.2\lvgl\src\lv_objx\../lv_core/../lv_misc/lv_color.h **** #define LV_COLOR_NAVY LV_COLOR_MAKE(0x00, 0x00, 0x80)
  55:..\..\..\lvgl\version_6.1.2\lvgl\src\lv_objx\../lv_core/../lv_misc/lv_color.h **** #define LV_COLOR_MAGENTA LV_COLOR_MAKE(0xFF, 0x00, 0xFF)
  56:..\..\..\lvgl\version_6.1.2\lvgl\src\lv_objx\../lv_core/../lv_misc/lv_color.h **** #define LV_COLOR_PURPLE LV_COLOR_MAKE(0x80, 0x00, 0x80)
  57:..\..\..\lvgl\version_6.1.2\lvgl\src\lv_objx\../lv_core/../lv_misc/lv_color.h **** #define LV_COLOR_ORANGE LV_COLOR_MAKE(0xFF, 0xA5, 0x00)
  58:..\..\..\lvgl\version_6.1.2\lvgl\src\lv_objx\../lv_core/../lv_misc/lv_color.h **** 
  59:..\..\..\lvgl\version_6.1.2\lvgl\src\lv_objx\../lv_core/../lv_misc/lv_color.h **** /**
  60:..\..\..\lvgl\version_6.1.2\lvgl\src\lv_objx\../lv_core/../lv_misc/lv_color.h ****  * Opacity percentages.
  61:..\..\..\lvgl\version_6.1.2\lvgl\src\lv_objx\../lv_core/../lv_misc/lv_color.h ****  */
  62:..\..\..\lvgl\version_6.1.2\lvgl\src\lv_objx\../lv_core/../lv_misc/lv_color.h **** enum {
  63:..\..\..\lvgl\version_6.1.2\lvgl\src\lv_objx\../lv_core/../lv_misc/lv_color.h ****     LV_OPA_TRANSP = 0,
  64:..\..\..\lvgl\version_6.1.2\lvgl\src\lv_objx\../lv_core/../lv_misc/lv_color.h ****     LV_OPA_0      = 0,
  65:..\..\..\lvgl\version_6.1.2\lvgl\src\lv_objx\../lv_core/../lv_misc/lv_color.h ****     LV_OPA_10     = 25,
  66:..\..\..\lvgl\version_6.1.2\lvgl\src\lv_objx\../lv_core/../lv_misc/lv_color.h ****     LV_OPA_20     = 51,
  67:..\..\..\lvgl\version_6.1.2\lvgl\src\lv_objx\../lv_core/../lv_misc/lv_color.h ****     LV_OPA_30     = 76,
  68:..\..\..\lvgl\version_6.1.2\lvgl\src\lv_objx\../lv_core/../lv_misc/lv_color.h ****     LV_OPA_40     = 102,
  69:..\..\..\lvgl\version_6.1.2\lvgl\src\lv_objx\../lv_core/../lv_misc/lv_color.h ****     LV_OPA_50     = 127,
  70:..\..\..\lvgl\version_6.1.2\lvgl\src\lv_objx\../lv_core/../lv_misc/lv_color.h ****     LV_OPA_60     = 153,
  71:..\..\..\lvgl\version_6.1.2\lvgl\src\lv_objx\../lv_core/../lv_misc/lv_color.h ****     LV_OPA_70     = 178,
  72:..\..\..\lvgl\version_6.1.2\lvgl\src\lv_objx\../lv_core/../lv_misc/lv_color.h ****     LV_OPA_80     = 204,
  73:..\..\..\lvgl\version_6.1.2\lvgl\src\lv_objx\../lv_core/../lv_misc/lv_color.h ****     LV_OPA_90     = 229,
  74:..\..\..\lvgl\version_6.1.2\lvgl\src\lv_objx\../lv_core/../lv_misc/lv_color.h ****     LV_OPA_100    = 255,
  75:..\..\..\lvgl\version_6.1.2\lvgl\src\lv_objx\../lv_core/../lv_misc/lv_color.h ****     LV_OPA_COVER  = 255,
  76:..\..\..\lvgl\version_6.1.2\lvgl\src\lv_objx\../lv_core/../lv_misc/lv_color.h **** };
  77:..\..\..\lvgl\version_6.1.2\lvgl\src\lv_objx\../lv_core/../lv_misc/lv_color.h **** 
  78:..\..\..\lvgl\version_6.1.2\lvgl\src\lv_objx\../lv_core/../lv_misc/lv_color.h **** #define LV_OPA_MIN 16  /*Opacities below this will be transparent*/
  79:..\..\..\lvgl\version_6.1.2\lvgl\src\lv_objx\../lv_core/../lv_misc/lv_color.h **** #define LV_OPA_MAX 251 /*Opacities above this will fully cover*/
  80:..\..\..\lvgl\version_6.1.2\lvgl\src\lv_objx\../lv_core/../lv_misc/lv_color.h **** 
  81:..\..\..\lvgl\version_6.1.2\lvgl\src\lv_objx\../lv_core/../lv_misc/lv_color.h **** #if LV_COLOR_DEPTH == 1
  82:..\..\..\lvgl\version_6.1.2\lvgl\src\lv_objx\../lv_core/../lv_misc/lv_color.h **** #define LV_COLOR_SIZE 8
  83:..\..\..\lvgl\version_6.1.2\lvgl\src\lv_objx\../lv_core/../lv_misc/lv_color.h **** #elif LV_COLOR_DEPTH == 8
  84:..\..\..\lvgl\version_6.1.2\lvgl\src\lv_objx\../lv_core/../lv_misc/lv_color.h **** #define LV_COLOR_SIZE 8
  85:..\..\..\lvgl\version_6.1.2\lvgl\src\lv_objx\../lv_core/../lv_misc/lv_color.h **** #elif LV_COLOR_DEPTH == 16
  86:..\..\..\lvgl\version_6.1.2\lvgl\src\lv_objx\../lv_core/../lv_misc/lv_color.h **** #define LV_COLOR_SIZE 16
  87:..\..\..\lvgl\version_6.1.2\lvgl\src\lv_objx\../lv_core/../lv_misc/lv_color.h **** #elif LV_COLOR_DEPTH == 32
ARM GAS  C:\Users\tmj32\AppData\Local\Temp\ccrrExWC.s 			page 3


  88:..\..\..\lvgl\version_6.1.2\lvgl\src\lv_objx\../lv_core/../lv_misc/lv_color.h **** #define LV_COLOR_SIZE 32
  89:..\..\..\lvgl\version_6.1.2\lvgl\src\lv_objx\../lv_core/../lv_misc/lv_color.h **** #else
  90:..\..\..\lvgl\version_6.1.2\lvgl\src\lv_objx\../lv_core/../lv_misc/lv_color.h **** #error "Invalid LV_COLOR_DEPTH in lv_conf.h! Set it to 1, 8, 16 or 32!"
  91:..\..\..\lvgl\version_6.1.2\lvgl\src\lv_objx\../lv_core/../lv_misc/lv_color.h **** #endif
  92:..\..\..\lvgl\version_6.1.2\lvgl\src\lv_objx\../lv_core/../lv_misc/lv_color.h **** 
  93:..\..\..\lvgl\version_6.1.2\lvgl\src\lv_objx\../lv_core/../lv_misc/lv_color.h **** /*---------------------------------------
  94:..\..\..\lvgl\version_6.1.2\lvgl\src\lv_objx\../lv_core/../lv_misc/lv_color.h ****  * Macros for all existing  color depths
  95:..\..\..\lvgl\version_6.1.2\lvgl\src\lv_objx\../lv_core/../lv_misc/lv_color.h ****  * to set/get values of the color channels
  96:..\..\..\lvgl\version_6.1.2\lvgl\src\lv_objx\../lv_core/../lv_misc/lv_color.h ****  *------------------------------------------*/
  97:..\..\..\lvgl\version_6.1.2\lvgl\src\lv_objx\../lv_core/../lv_misc/lv_color.h **** # define LV_COLOR_SET_R1(c, v) (c).ch.red = (uint8_t)((v) & 0x1);
  98:..\..\..\lvgl\version_6.1.2\lvgl\src\lv_objx\../lv_core/../lv_misc/lv_color.h **** # define LV_COLOR_SET_G1(c, v) (c).ch.green = (uint8_t)((v) & 0x1);
  99:..\..\..\lvgl\version_6.1.2\lvgl\src\lv_objx\../lv_core/../lv_misc/lv_color.h **** # define LV_COLOR_SET_B1(c, v) (c).ch.blue = (uint8_t)((v) & 0x1);
 100:..\..\..\lvgl\version_6.1.2\lvgl\src\lv_objx\../lv_core/../lv_misc/lv_color.h **** # define LV_COLOR_SET_A1(c, v)
 101:..\..\..\lvgl\version_6.1.2\lvgl\src\lv_objx\../lv_core/../lv_misc/lv_color.h **** 
 102:..\..\..\lvgl\version_6.1.2\lvgl\src\lv_objx\../lv_core/../lv_misc/lv_color.h **** # define LV_COLOR_GET_R1(c) (c).ch.red
 103:..\..\..\lvgl\version_6.1.2\lvgl\src\lv_objx\../lv_core/../lv_misc/lv_color.h **** # define LV_COLOR_GET_G1(c) (c).ch.green
 104:..\..\..\lvgl\version_6.1.2\lvgl\src\lv_objx\../lv_core/../lv_misc/lv_color.h **** # define LV_COLOR_GET_B1(c) (c).ch.blue
 105:..\..\..\lvgl\version_6.1.2\lvgl\src\lv_objx\../lv_core/../lv_misc/lv_color.h **** # define LV_COLOR_GET_A1(c) 1
 106:..\..\..\lvgl\version_6.1.2\lvgl\src\lv_objx\../lv_core/../lv_misc/lv_color.h **** 
 107:..\..\..\lvgl\version_6.1.2\lvgl\src\lv_objx\../lv_core/../lv_misc/lv_color.h **** # define LV_COLOR_SET_R8(c, v) (c).ch.red = (uint8_t)(v) & 0x7U;
 108:..\..\..\lvgl\version_6.1.2\lvgl\src\lv_objx\../lv_core/../lv_misc/lv_color.h **** # define LV_COLOR_SET_G8(c, v) (c).ch.green = (uint8_t)(v) & 0x7U;
 109:..\..\..\lvgl\version_6.1.2\lvgl\src\lv_objx\../lv_core/../lv_misc/lv_color.h **** # define LV_COLOR_SET_B8(c, v) (c).ch.blue = (uint8_t)(v) & 0x3U;
 110:..\..\..\lvgl\version_6.1.2\lvgl\src\lv_objx\../lv_core/../lv_misc/lv_color.h **** # define LV_COLOR_SET_A8(c, v) do {} while(0)
 111:..\..\..\lvgl\version_6.1.2\lvgl\src\lv_objx\../lv_core/../lv_misc/lv_color.h **** 
 112:..\..\..\lvgl\version_6.1.2\lvgl\src\lv_objx\../lv_core/../lv_misc/lv_color.h **** # define LV_COLOR_GET_R8(c) (c).ch.red
 113:..\..\..\lvgl\version_6.1.2\lvgl\src\lv_objx\../lv_core/../lv_misc/lv_color.h **** # define LV_COLOR_GET_G8(c) (c).ch.green
 114:..\..\..\lvgl\version_6.1.2\lvgl\src\lv_objx\../lv_core/../lv_misc/lv_color.h **** # define LV_COLOR_GET_B8(c) (c).ch.blue
 115:..\..\..\lvgl\version_6.1.2\lvgl\src\lv_objx\../lv_core/../lv_misc/lv_color.h **** # define LV_COLOR_GET_A8(c) 0xFF
 116:..\..\..\lvgl\version_6.1.2\lvgl\src\lv_objx\../lv_core/../lv_misc/lv_color.h **** 
 117:..\..\..\lvgl\version_6.1.2\lvgl\src\lv_objx\../lv_core/../lv_misc/lv_color.h **** # define LV_COLOR_SET_R16(c, v) (c).ch.red = (uint8_t)(v) & 0x1FU;
 118:..\..\..\lvgl\version_6.1.2\lvgl\src\lv_objx\../lv_core/../lv_misc/lv_color.h **** # define LV_COLOR_SET_G16(c, v) (c).ch.green = (uint8_t)(v) & 0x3FU;
 119:..\..\..\lvgl\version_6.1.2\lvgl\src\lv_objx\../lv_core/../lv_misc/lv_color.h **** # define LV_COLOR_SET_G16_SWAP(c, v) {(c).ch.green_h = (uint8_t)(((v) >> 3) & 0x7); (c).ch.green_l 
 120:..\..\..\lvgl\version_6.1.2\lvgl\src\lv_objx\../lv_core/../lv_misc/lv_color.h **** # define LV_COLOR_SET_B16(c, v) (c).ch.blue = (uint8_t)(v) & 0x1FU;
 121:..\..\..\lvgl\version_6.1.2\lvgl\src\lv_objx\../lv_core/../lv_misc/lv_color.h **** # define LV_COLOR_SET_A16(c, v) do {} while(0)
 122:..\..\..\lvgl\version_6.1.2\lvgl\src\lv_objx\../lv_core/../lv_misc/lv_color.h **** 
 123:..\..\..\lvgl\version_6.1.2\lvgl\src\lv_objx\../lv_core/../lv_misc/lv_color.h **** # define LV_COLOR_GET_R16(c) (c).ch.red
 124:..\..\..\lvgl\version_6.1.2\lvgl\src\lv_objx\../lv_core/../lv_misc/lv_color.h **** # define LV_COLOR_GET_G16(c) (c).ch.green
 125:..\..\..\lvgl\version_6.1.2\lvgl\src\lv_objx\../lv_core/../lv_misc/lv_color.h **** # define LV_COLOR_GET_G16_SWAP(c) (((c).ch.green_h << 3) + (c).ch.green_l)
 126:..\..\..\lvgl\version_6.1.2\lvgl\src\lv_objx\../lv_core/../lv_misc/lv_color.h **** # define LV_COLOR_GET_B16(c) (c).ch.blue
 127:..\..\..\lvgl\version_6.1.2\lvgl\src\lv_objx\../lv_core/../lv_misc/lv_color.h **** # define LV_COLOR_GET_A16(c) 0xFF
 128:..\..\..\lvgl\version_6.1.2\lvgl\src\lv_objx\../lv_core/../lv_misc/lv_color.h **** 
 129:..\..\..\lvgl\version_6.1.2\lvgl\src\lv_objx\../lv_core/../lv_misc/lv_color.h **** # define LV_COLOR_SET_R32(c, v) (c).ch.red = (uint32_t)((v) & 0xFF);
 130:..\..\..\lvgl\version_6.1.2\lvgl\src\lv_objx\../lv_core/../lv_misc/lv_color.h **** # define LV_COLOR_SET_G32(c, v) (c).ch.green = (uint32_t)((v) & 0xFF);
 131:..\..\..\lvgl\version_6.1.2\lvgl\src\lv_objx\../lv_core/../lv_misc/lv_color.h **** # define LV_COLOR_SET_B32(c, v) (c).ch.blue = (uint32_t)((v) & 0xFF);
 132:..\..\..\lvgl\version_6.1.2\lvgl\src\lv_objx\../lv_core/../lv_misc/lv_color.h **** # define LV_COLOR_SET_A32(c, v) (c).ch.alpha = (uint32_t)((v) & 0xFF);
 133:..\..\..\lvgl\version_6.1.2\lvgl\src\lv_objx\../lv_core/../lv_misc/lv_color.h **** 
 134:..\..\..\lvgl\version_6.1.2\lvgl\src\lv_objx\../lv_core/../lv_misc/lv_color.h **** # define LV_COLOR_GET_R32(c) (c).ch.red
 135:..\..\..\lvgl\version_6.1.2\lvgl\src\lv_objx\../lv_core/../lv_misc/lv_color.h **** # define LV_COLOR_GET_G32(c) (c).ch.green
 136:..\..\..\lvgl\version_6.1.2\lvgl\src\lv_objx\../lv_core/../lv_misc/lv_color.h **** # define LV_COLOR_GET_B32(c) (c).ch.blue
 137:..\..\..\lvgl\version_6.1.2\lvgl\src\lv_objx\../lv_core/../lv_misc/lv_color.h **** # define LV_COLOR_GET_A32(c) (c).ch.alpha
 138:..\..\..\lvgl\version_6.1.2\lvgl\src\lv_objx\../lv_core/../lv_misc/lv_color.h **** 
 139:..\..\..\lvgl\version_6.1.2\lvgl\src\lv_objx\../lv_core/../lv_misc/lv_color.h **** 
 140:..\..\..\lvgl\version_6.1.2\lvgl\src\lv_objx\../lv_core/../lv_misc/lv_color.h **** /*---------------------------------------
 141:..\..\..\lvgl\version_6.1.2\lvgl\src\lv_objx\../lv_core/../lv_misc/lv_color.h ****  * Macros for the current color depth
 142:..\..\..\lvgl\version_6.1.2\lvgl\src\lv_objx\../lv_core/../lv_misc/lv_color.h ****  * to set/get values of the color channels
 143:..\..\..\lvgl\version_6.1.2\lvgl\src\lv_objx\../lv_core/../lv_misc/lv_color.h ****  *------------------------------------------*/
 144:..\..\..\lvgl\version_6.1.2\lvgl\src\lv_objx\../lv_core/../lv_misc/lv_color.h **** #if LV_COLOR_DEPTH == 1
ARM GAS  C:\Users\tmj32\AppData\Local\Temp\ccrrExWC.s 			page 4


 145:..\..\..\lvgl\version_6.1.2\lvgl\src\lv_objx\../lv_core/../lv_misc/lv_color.h **** # define LV_COLOR_SET_R(c, v) LV_COLOR_SET_R1(c,v)
 146:..\..\..\lvgl\version_6.1.2\lvgl\src\lv_objx\../lv_core/../lv_misc/lv_color.h **** # define LV_COLOR_SET_G(c, v) LV_COLOR_SET_G1(c,v)
 147:..\..\..\lvgl\version_6.1.2\lvgl\src\lv_objx\../lv_core/../lv_misc/lv_color.h **** # define LV_COLOR_SET_B(c, v) LV_COLOR_SET_B1(c,v)
 148:..\..\..\lvgl\version_6.1.2\lvgl\src\lv_objx\../lv_core/../lv_misc/lv_color.h **** # define LV_COLOR_SET_A(c, v) LV_COLOR_SET_A1(c,v)
 149:..\..\..\lvgl\version_6.1.2\lvgl\src\lv_objx\../lv_core/../lv_misc/lv_color.h **** 
 150:..\..\..\lvgl\version_6.1.2\lvgl\src\lv_objx\../lv_core/../lv_misc/lv_color.h **** # define LV_COLOR_GET_R(c) LV_COLOR_GET_R1(c)
 151:..\..\..\lvgl\version_6.1.2\lvgl\src\lv_objx\../lv_core/../lv_misc/lv_color.h **** # define LV_COLOR_GET_G(c) LV_COLOR_GET_G1(c)
 152:..\..\..\lvgl\version_6.1.2\lvgl\src\lv_objx\../lv_core/../lv_misc/lv_color.h **** # define LV_COLOR_GET_B(c) LV_COLOR_GET_B1(c)
 153:..\..\..\lvgl\version_6.1.2\lvgl\src\lv_objx\../lv_core/../lv_misc/lv_color.h **** # define LV_COLOR_GET_A(c) LV_COLOR_GET_A1(c)
 154:..\..\..\lvgl\version_6.1.2\lvgl\src\lv_objx\../lv_core/../lv_misc/lv_color.h **** 
 155:..\..\..\lvgl\version_6.1.2\lvgl\src\lv_objx\../lv_core/../lv_misc/lv_color.h **** #elif LV_COLOR_DEPTH == 8
 156:..\..\..\lvgl\version_6.1.2\lvgl\src\lv_objx\../lv_core/../lv_misc/lv_color.h **** # define LV_COLOR_SET_R(c, v) LV_COLOR_SET_R8(c,v)
 157:..\..\..\lvgl\version_6.1.2\lvgl\src\lv_objx\../lv_core/../lv_misc/lv_color.h **** # define LV_COLOR_SET_G(c, v) LV_COLOR_SET_G8(c,v)
 158:..\..\..\lvgl\version_6.1.2\lvgl\src\lv_objx\../lv_core/../lv_misc/lv_color.h **** # define LV_COLOR_SET_B(c, v) LV_COLOR_SET_B8(c,v)
 159:..\..\..\lvgl\version_6.1.2\lvgl\src\lv_objx\../lv_core/../lv_misc/lv_color.h **** # define LV_COLOR_SET_A(c, v) LV_COLOR_SET_A8(c,v)
 160:..\..\..\lvgl\version_6.1.2\lvgl\src\lv_objx\../lv_core/../lv_misc/lv_color.h **** 
 161:..\..\..\lvgl\version_6.1.2\lvgl\src\lv_objx\../lv_core/../lv_misc/lv_color.h **** # define LV_COLOR_GET_R(c) LV_COLOR_GET_R8(c)
 162:..\..\..\lvgl\version_6.1.2\lvgl\src\lv_objx\../lv_core/../lv_misc/lv_color.h **** # define LV_COLOR_GET_G(c) LV_COLOR_GET_G8(c)
 163:..\..\..\lvgl\version_6.1.2\lvgl\src\lv_objx\../lv_core/../lv_misc/lv_color.h **** # define LV_COLOR_GET_B(c) LV_COLOR_GET_B8(c)
 164:..\..\..\lvgl\version_6.1.2\lvgl\src\lv_objx\../lv_core/../lv_misc/lv_color.h **** # define LV_COLOR_GET_A(c) LV_COLOR_GET_A8(c)
 165:..\..\..\lvgl\version_6.1.2\lvgl\src\lv_objx\../lv_core/../lv_misc/lv_color.h **** 
 166:..\..\..\lvgl\version_6.1.2\lvgl\src\lv_objx\../lv_core/../lv_misc/lv_color.h **** #elif LV_COLOR_DEPTH == 16
 167:..\..\..\lvgl\version_6.1.2\lvgl\src\lv_objx\../lv_core/../lv_misc/lv_color.h **** # define LV_COLOR_SET_R(c, v) LV_COLOR_SET_R16(c,v)
 168:..\..\..\lvgl\version_6.1.2\lvgl\src\lv_objx\../lv_core/../lv_misc/lv_color.h **** # if LV_COLOR_16_SWAP == 0
 169:..\..\..\lvgl\version_6.1.2\lvgl\src\lv_objx\../lv_core/../lv_misc/lv_color.h **** #   define LV_COLOR_SET_G(c, v) LV_COLOR_SET_G16(c,v)
 170:..\..\..\lvgl\version_6.1.2\lvgl\src\lv_objx\../lv_core/../lv_misc/lv_color.h **** # else
 171:..\..\..\lvgl\version_6.1.2\lvgl\src\lv_objx\../lv_core/../lv_misc/lv_color.h **** #   define LV_COLOR_SET_G(c, v) LV_COLOR_SET_G16_SWAP(c,v)
 172:..\..\..\lvgl\version_6.1.2\lvgl\src\lv_objx\../lv_core/../lv_misc/lv_color.h **** # endif
 173:..\..\..\lvgl\version_6.1.2\lvgl\src\lv_objx\../lv_core/../lv_misc/lv_color.h **** # define LV_COLOR_SET_B(c, v) LV_COLOR_SET_B16(c,v)
 174:..\..\..\lvgl\version_6.1.2\lvgl\src\lv_objx\../lv_core/../lv_misc/lv_color.h **** # define LV_COLOR_SET_A(c, v) LV_COLOR_SET_A16(c,v)
 175:..\..\..\lvgl\version_6.1.2\lvgl\src\lv_objx\../lv_core/../lv_misc/lv_color.h **** 
 176:..\..\..\lvgl\version_6.1.2\lvgl\src\lv_objx\../lv_core/../lv_misc/lv_color.h **** # define LV_COLOR_GET_R(c) LV_COLOR_GET_R16(c)
 177:..\..\..\lvgl\version_6.1.2\lvgl\src\lv_objx\../lv_core/../lv_misc/lv_color.h **** # if LV_COLOR_16_SWAP == 0
 178:..\..\..\lvgl\version_6.1.2\lvgl\src\lv_objx\../lv_core/../lv_misc/lv_color.h **** #   define LV_COLOR_GET_G(c) LV_COLOR_GET_G16(c)
 179:..\..\..\lvgl\version_6.1.2\lvgl\src\lv_objx\../lv_core/../lv_misc/lv_color.h **** # else
 180:..\..\..\lvgl\version_6.1.2\lvgl\src\lv_objx\../lv_core/../lv_misc/lv_color.h **** #   define LV_COLOR_GET_G(c) LV_COLOR_GET_G16_SWAP(c)
 181:..\..\..\lvgl\version_6.1.2\lvgl\src\lv_objx\../lv_core/../lv_misc/lv_color.h **** # endif
 182:..\..\..\lvgl\version_6.1.2\lvgl\src\lv_objx\../lv_core/../lv_misc/lv_color.h **** # define LV_COLOR_GET_B(c)   LV_COLOR_GET_B16(c)
 183:..\..\..\lvgl\version_6.1.2\lvgl\src\lv_objx\../lv_core/../lv_misc/lv_color.h **** # define LV_COLOR_GET_A(c)   LV_COLOR_GET_A16(c)
 184:..\..\..\lvgl\version_6.1.2\lvgl\src\lv_objx\../lv_core/../lv_misc/lv_color.h **** 
 185:..\..\..\lvgl\version_6.1.2\lvgl\src\lv_objx\../lv_core/../lv_misc/lv_color.h **** #elif LV_COLOR_DEPTH == 32
 186:..\..\..\lvgl\version_6.1.2\lvgl\src\lv_objx\../lv_core/../lv_misc/lv_color.h **** # define LV_COLOR_SET_R(c, v) LV_COLOR_SET_R32(c,v)
 187:..\..\..\lvgl\version_6.1.2\lvgl\src\lv_objx\../lv_core/../lv_misc/lv_color.h **** # define LV_COLOR_SET_G(c, v) LV_COLOR_SET_G32(c,v)
 188:..\..\..\lvgl\version_6.1.2\lvgl\src\lv_objx\../lv_core/../lv_misc/lv_color.h **** # define LV_COLOR_SET_B(c, v) LV_COLOR_SET_B32(c,v)
 189:..\..\..\lvgl\version_6.1.2\lvgl\src\lv_objx\../lv_core/../lv_misc/lv_color.h **** # define LV_COLOR_SET_A(c, v) LV_COLOR_SET_A32(c,v)
 190:..\..\..\lvgl\version_6.1.2\lvgl\src\lv_objx\../lv_core/../lv_misc/lv_color.h **** 
 191:..\..\..\lvgl\version_6.1.2\lvgl\src\lv_objx\../lv_core/../lv_misc/lv_color.h **** # define LV_COLOR_GET_R(c) LV_COLOR_GET_R32(c)
 192:..\..\..\lvgl\version_6.1.2\lvgl\src\lv_objx\../lv_core/../lv_misc/lv_color.h **** # define LV_COLOR_GET_G(c) LV_COLOR_GET_G32(c)
 193:..\..\..\lvgl\version_6.1.2\lvgl\src\lv_objx\../lv_core/../lv_misc/lv_color.h **** # define LV_COLOR_GET_B(c) LV_COLOR_GET_B32(c)
 194:..\..\..\lvgl\version_6.1.2\lvgl\src\lv_objx\../lv_core/../lv_misc/lv_color.h **** # define LV_COLOR_GET_A(c) LV_COLOR_GET_A32(c)
 195:..\..\..\lvgl\version_6.1.2\lvgl\src\lv_objx\../lv_core/../lv_misc/lv_color.h **** #endif
 196:..\..\..\lvgl\version_6.1.2\lvgl\src\lv_objx\../lv_core/../lv_misc/lv_color.h **** 
 197:..\..\..\lvgl\version_6.1.2\lvgl\src\lv_objx\../lv_core/../lv_misc/lv_color.h **** /**********************
 198:..\..\..\lvgl\version_6.1.2\lvgl\src\lv_objx\../lv_core/../lv_misc/lv_color.h ****  *      TYPEDEFS
 199:..\..\..\lvgl\version_6.1.2\lvgl\src\lv_objx\../lv_core/../lv_misc/lv_color.h ****  **********************/
 200:..\..\..\lvgl\version_6.1.2\lvgl\src\lv_objx\../lv_core/../lv_misc/lv_color.h **** 
 201:..\..\..\lvgl\version_6.1.2\lvgl\src\lv_objx\../lv_core/../lv_misc/lv_color.h **** typedef union
ARM GAS  C:\Users\tmj32\AppData\Local\Temp\ccrrExWC.s 			page 5


 202:..\..\..\lvgl\version_6.1.2\lvgl\src\lv_objx\../lv_core/../lv_misc/lv_color.h **** {
 203:..\..\..\lvgl\version_6.1.2\lvgl\src\lv_objx\../lv_core/../lv_misc/lv_color.h ****     struct
 204:..\..\..\lvgl\version_6.1.2\lvgl\src\lv_objx\../lv_core/../lv_misc/lv_color.h ****     {
 205:..\..\..\lvgl\version_6.1.2\lvgl\src\lv_objx\../lv_core/../lv_misc/lv_color.h ****         uint8_t blue : 1;
 206:..\..\..\lvgl\version_6.1.2\lvgl\src\lv_objx\../lv_core/../lv_misc/lv_color.h ****         uint8_t green : 1;
 207:..\..\..\lvgl\version_6.1.2\lvgl\src\lv_objx\../lv_core/../lv_misc/lv_color.h ****         uint8_t red : 1;
 208:..\..\..\lvgl\version_6.1.2\lvgl\src\lv_objx\../lv_core/../lv_misc/lv_color.h ****     } ch;
 209:..\..\..\lvgl\version_6.1.2\lvgl\src\lv_objx\../lv_core/../lv_misc/lv_color.h ****     uint8_t full;
 210:..\..\..\lvgl\version_6.1.2\lvgl\src\lv_objx\../lv_core/../lv_misc/lv_color.h **** } lv_color1_t;
 211:..\..\..\lvgl\version_6.1.2\lvgl\src\lv_objx\../lv_core/../lv_misc/lv_color.h **** 
 212:..\..\..\lvgl\version_6.1.2\lvgl\src\lv_objx\../lv_core/../lv_misc/lv_color.h **** typedef union
 213:..\..\..\lvgl\version_6.1.2\lvgl\src\lv_objx\../lv_core/../lv_misc/lv_color.h **** {
 214:..\..\..\lvgl\version_6.1.2\lvgl\src\lv_objx\../lv_core/../lv_misc/lv_color.h ****     struct
 215:..\..\..\lvgl\version_6.1.2\lvgl\src\lv_objx\../lv_core/../lv_misc/lv_color.h ****     {
 216:..\..\..\lvgl\version_6.1.2\lvgl\src\lv_objx\../lv_core/../lv_misc/lv_color.h ****         uint8_t blue : 2;
 217:..\..\..\lvgl\version_6.1.2\lvgl\src\lv_objx\../lv_core/../lv_misc/lv_color.h ****         uint8_t green : 3;
 218:..\..\..\lvgl\version_6.1.2\lvgl\src\lv_objx\../lv_core/../lv_misc/lv_color.h ****         uint8_t red : 3;
 219:..\..\..\lvgl\version_6.1.2\lvgl\src\lv_objx\../lv_core/../lv_misc/lv_color.h ****     } ch;
 220:..\..\..\lvgl\version_6.1.2\lvgl\src\lv_objx\../lv_core/../lv_misc/lv_color.h ****     uint8_t full;
 221:..\..\..\lvgl\version_6.1.2\lvgl\src\lv_objx\../lv_core/../lv_misc/lv_color.h **** } lv_color8_t;
 222:..\..\..\lvgl\version_6.1.2\lvgl\src\lv_objx\../lv_core/../lv_misc/lv_color.h **** 
 223:..\..\..\lvgl\version_6.1.2\lvgl\src\lv_objx\../lv_core/../lv_misc/lv_color.h **** typedef union
 224:..\..\..\lvgl\version_6.1.2\lvgl\src\lv_objx\../lv_core/../lv_misc/lv_color.h **** {
 225:..\..\..\lvgl\version_6.1.2\lvgl\src\lv_objx\../lv_core/../lv_misc/lv_color.h ****     struct
 226:..\..\..\lvgl\version_6.1.2\lvgl\src\lv_objx\../lv_core/../lv_misc/lv_color.h ****     {
 227:..\..\..\lvgl\version_6.1.2\lvgl\src\lv_objx\../lv_core/../lv_misc/lv_color.h **** #if LV_COLOR_16_SWAP == 0
 228:..\..\..\lvgl\version_6.1.2\lvgl\src\lv_objx\../lv_core/../lv_misc/lv_color.h ****         uint16_t blue : 5;
 229:..\..\..\lvgl\version_6.1.2\lvgl\src\lv_objx\../lv_core/../lv_misc/lv_color.h ****         uint16_t green : 6;
 230:..\..\..\lvgl\version_6.1.2\lvgl\src\lv_objx\../lv_core/../lv_misc/lv_color.h ****         uint16_t red : 5;
 231:..\..\..\lvgl\version_6.1.2\lvgl\src\lv_objx\../lv_core/../lv_misc/lv_color.h **** #else
 232:..\..\..\lvgl\version_6.1.2\lvgl\src\lv_objx\../lv_core/../lv_misc/lv_color.h ****         uint16_t green_h : 3;
 233:..\..\..\lvgl\version_6.1.2\lvgl\src\lv_objx\../lv_core/../lv_misc/lv_color.h ****         uint16_t red : 5;
 234:..\..\..\lvgl\version_6.1.2\lvgl\src\lv_objx\../lv_core/../lv_misc/lv_color.h ****         uint16_t blue : 5;
 235:..\..\..\lvgl\version_6.1.2\lvgl\src\lv_objx\../lv_core/../lv_misc/lv_color.h ****         uint16_t green_l : 3;
 236:..\..\..\lvgl\version_6.1.2\lvgl\src\lv_objx\../lv_core/../lv_misc/lv_color.h **** #endif
 237:..\..\..\lvgl\version_6.1.2\lvgl\src\lv_objx\../lv_core/../lv_misc/lv_color.h ****     } ch;
 238:..\..\..\lvgl\version_6.1.2\lvgl\src\lv_objx\../lv_core/../lv_misc/lv_color.h ****     uint16_t full;
 239:..\..\..\lvgl\version_6.1.2\lvgl\src\lv_objx\../lv_core/../lv_misc/lv_color.h **** } lv_color16_t;
 240:..\..\..\lvgl\version_6.1.2\lvgl\src\lv_objx\../lv_core/../lv_misc/lv_color.h **** 
 241:..\..\..\lvgl\version_6.1.2\lvgl\src\lv_objx\../lv_core/../lv_misc/lv_color.h **** typedef union
 242:..\..\..\lvgl\version_6.1.2\lvgl\src\lv_objx\../lv_core/../lv_misc/lv_color.h **** {
 243:..\..\..\lvgl\version_6.1.2\lvgl\src\lv_objx\../lv_core/../lv_misc/lv_color.h ****     struct
 244:..\..\..\lvgl\version_6.1.2\lvgl\src\lv_objx\../lv_core/../lv_misc/lv_color.h ****     {
 245:..\..\..\lvgl\version_6.1.2\lvgl\src\lv_objx\../lv_core/../lv_misc/lv_color.h ****         uint8_t blue;
 246:..\..\..\lvgl\version_6.1.2\lvgl\src\lv_objx\../lv_core/../lv_misc/lv_color.h ****         uint8_t green;
 247:..\..\..\lvgl\version_6.1.2\lvgl\src\lv_objx\../lv_core/../lv_misc/lv_color.h ****         uint8_t red;
 248:..\..\..\lvgl\version_6.1.2\lvgl\src\lv_objx\../lv_core/../lv_misc/lv_color.h ****         uint8_t alpha;
 249:..\..\..\lvgl\version_6.1.2\lvgl\src\lv_objx\../lv_core/../lv_misc/lv_color.h ****     } ch;
 250:..\..\..\lvgl\version_6.1.2\lvgl\src\lv_objx\../lv_core/../lv_misc/lv_color.h ****     uint32_t full;
 251:..\..\..\lvgl\version_6.1.2\lvgl\src\lv_objx\../lv_core/../lv_misc/lv_color.h **** } lv_color32_t;
 252:..\..\..\lvgl\version_6.1.2\lvgl\src\lv_objx\../lv_core/../lv_misc/lv_color.h **** 
 253:..\..\..\lvgl\version_6.1.2\lvgl\src\lv_objx\../lv_core/../lv_misc/lv_color.h **** #if LV_COLOR_DEPTH == 1
 254:..\..\..\lvgl\version_6.1.2\lvgl\src\lv_objx\../lv_core/../lv_misc/lv_color.h **** typedef uint8_t lv_color_int_t;
 255:..\..\..\lvgl\version_6.1.2\lvgl\src\lv_objx\../lv_core/../lv_misc/lv_color.h **** typedef lv_color1_t lv_color_t;
 256:..\..\..\lvgl\version_6.1.2\lvgl\src\lv_objx\../lv_core/../lv_misc/lv_color.h **** #elif LV_COLOR_DEPTH == 8
 257:..\..\..\lvgl\version_6.1.2\lvgl\src\lv_objx\../lv_core/../lv_misc/lv_color.h **** typedef uint8_t lv_color_int_t;
 258:..\..\..\lvgl\version_6.1.2\lvgl\src\lv_objx\../lv_core/../lv_misc/lv_color.h **** typedef lv_color8_t lv_color_t;
ARM GAS  C:\Users\tmj32\AppData\Local\Temp\ccrrExWC.s 			page 6


 259:..\..\..\lvgl\version_6.1.2\lvgl\src\lv_objx\../lv_core/../lv_misc/lv_color.h **** #elif LV_COLOR_DEPTH == 16
 260:..\..\..\lvgl\version_6.1.2\lvgl\src\lv_objx\../lv_core/../lv_misc/lv_color.h **** typedef uint16_t lv_color_int_t;
 261:..\..\..\lvgl\version_6.1.2\lvgl\src\lv_objx\../lv_core/../lv_misc/lv_color.h **** typedef lv_color16_t lv_color_t;
 262:..\..\..\lvgl\version_6.1.2\lvgl\src\lv_objx\../lv_core/../lv_misc/lv_color.h **** #elif LV_COLOR_DEPTH == 32
 263:..\..\..\lvgl\version_6.1.2\lvgl\src\lv_objx\../lv_core/../lv_misc/lv_color.h **** typedef uint32_t lv_color_int_t;
 264:..\..\..\lvgl\version_6.1.2\lvgl\src\lv_objx\../lv_core/../lv_misc/lv_color.h **** typedef lv_color32_t lv_color_t;
 265:..\..\..\lvgl\version_6.1.2\lvgl\src\lv_objx\../lv_core/../lv_misc/lv_color.h **** #else
 266:..\..\..\lvgl\version_6.1.2\lvgl\src\lv_objx\../lv_core/../lv_misc/lv_color.h **** #error "Invalid LV_COLOR_DEPTH in lv_conf.h! Set it to 1, 8, 16 or 32!"
 267:..\..\..\lvgl\version_6.1.2\lvgl\src\lv_objx\../lv_core/../lv_misc/lv_color.h **** #endif
 268:..\..\..\lvgl\version_6.1.2\lvgl\src\lv_objx\../lv_core/../lv_misc/lv_color.h **** 
 269:..\..\..\lvgl\version_6.1.2\lvgl\src\lv_objx\../lv_core/../lv_misc/lv_color.h **** typedef uint8_t lv_opa_t;
 270:..\..\..\lvgl\version_6.1.2\lvgl\src\lv_objx\../lv_core/../lv_misc/lv_color.h **** 
 271:..\..\..\lvgl\version_6.1.2\lvgl\src\lv_objx\../lv_core/../lv_misc/lv_color.h **** typedef struct
 272:..\..\..\lvgl\version_6.1.2\lvgl\src\lv_objx\../lv_core/../lv_misc/lv_color.h **** {
 273:..\..\..\lvgl\version_6.1.2\lvgl\src\lv_objx\../lv_core/../lv_misc/lv_color.h ****     uint16_t h;
 274:..\..\..\lvgl\version_6.1.2\lvgl\src\lv_objx\../lv_core/../lv_misc/lv_color.h ****     uint8_t s;
 275:..\..\..\lvgl\version_6.1.2\lvgl\src\lv_objx\../lv_core/../lv_misc/lv_color.h ****     uint8_t v;
 276:..\..\..\lvgl\version_6.1.2\lvgl\src\lv_objx\../lv_core/../lv_misc/lv_color.h **** } lv_color_hsv_t;
 277:..\..\..\lvgl\version_6.1.2\lvgl\src\lv_objx\../lv_core/../lv_misc/lv_color.h **** 
 278:..\..\..\lvgl\version_6.1.2\lvgl\src\lv_objx\../lv_core/../lv_misc/lv_color.h **** /**********************
 279:..\..\..\lvgl\version_6.1.2\lvgl\src\lv_objx\../lv_core/../lv_misc/lv_color.h ****  * GLOBAL PROTOTYPES
 280:..\..\..\lvgl\version_6.1.2\lvgl\src\lv_objx\../lv_core/../lv_misc/lv_color.h ****  **********************/
 281:..\..\..\lvgl\version_6.1.2\lvgl\src\lv_objx\../lv_core/../lv_misc/lv_color.h **** 
 282:..\..\..\lvgl\version_6.1.2\lvgl\src\lv_objx\../lv_core/../lv_misc/lv_color.h **** /*In color conversations:
 283:..\..\..\lvgl\version_6.1.2\lvgl\src\lv_objx\../lv_core/../lv_misc/lv_color.h ****  * - When converting to bigger color type the LSB weight of 1 LSB is calculated
 284:..\..\..\lvgl\version_6.1.2\lvgl\src\lv_objx\../lv_core/../lv_misc/lv_color.h ****  *   E.g. 16 bit Red has 5 bits
 285:..\..\..\lvgl\version_6.1.2\lvgl\src\lv_objx\../lv_core/../lv_misc/lv_color.h ****  *         8 bit Red has 2 bits
 286:..\..\..\lvgl\version_6.1.2\lvgl\src\lv_objx\../lv_core/../lv_misc/lv_color.h ****  *        ----------------------
 287:..\..\..\lvgl\version_6.1.2\lvgl\src\lv_objx\../lv_core/../lv_misc/lv_color.h ****  *        8 bit red LSB = (2^5 - 1) / (2^2 - 1) = 31 / 3 = 10
 288:..\..\..\lvgl\version_6.1.2\lvgl\src\lv_objx\../lv_core/../lv_misc/lv_color.h ****  *
 289:..\..\..\lvgl\version_6.1.2\lvgl\src\lv_objx\../lv_core/../lv_misc/lv_color.h ****  * - When calculating to smaller color type simply shift out the LSBs
 290:..\..\..\lvgl\version_6.1.2\lvgl\src\lv_objx\../lv_core/../lv_misc/lv_color.h ****  *   E.g.  8 bit Red has 2 bits
 291:..\..\..\lvgl\version_6.1.2\lvgl\src\lv_objx\../lv_core/../lv_misc/lv_color.h ****  *        16 bit Red has 5 bits
 292:..\..\..\lvgl\version_6.1.2\lvgl\src\lv_objx\../lv_core/../lv_misc/lv_color.h ****  *        ----------------------
 293:..\..\..\lvgl\version_6.1.2\lvgl\src\lv_objx\../lv_core/../lv_misc/lv_color.h ****  *         Shift right with 5 - 3 = 2
 294:..\..\..\lvgl\version_6.1.2\lvgl\src\lv_objx\../lv_core/../lv_misc/lv_color.h ****  */
 295:..\..\..\lvgl\version_6.1.2\lvgl\src\lv_objx\../lv_core/../lv_misc/lv_color.h **** 
 296:..\..\..\lvgl\version_6.1.2\lvgl\src\lv_objx\../lv_core/../lv_misc/lv_color.h **** static inline uint8_t lv_color_to1(lv_color_t color)
 297:..\..\..\lvgl\version_6.1.2\lvgl\src\lv_objx\../lv_core/../lv_misc/lv_color.h **** {
 298:..\..\..\lvgl\version_6.1.2\lvgl\src\lv_objx\../lv_core/../lv_misc/lv_color.h **** #if LV_COLOR_DEPTH == 1
 299:..\..\..\lvgl\version_6.1.2\lvgl\src\lv_objx\../lv_core/../lv_misc/lv_color.h ****     return color.full;
 300:..\..\..\lvgl\version_6.1.2\lvgl\src\lv_objx\../lv_core/../lv_misc/lv_color.h **** #elif LV_COLOR_DEPTH == 8
 301:..\..\..\lvgl\version_6.1.2\lvgl\src\lv_objx\../lv_core/../lv_misc/lv_color.h ****     if((LV_COLOR_GET_R(color) & 0x4) || (LV_COLOR_GET_G(color) & 0x4) || (LV_COLOR_GET_B(color) & 0
 302:..\..\..\lvgl\version_6.1.2\lvgl\src\lv_objx\../lv_core/../lv_misc/lv_color.h ****         return 1;
 303:..\..\..\lvgl\version_6.1.2\lvgl\src\lv_objx\../lv_core/../lv_misc/lv_color.h ****     } else {
 304:..\..\..\lvgl\version_6.1.2\lvgl\src\lv_objx\../lv_core/../lv_misc/lv_color.h ****         return 0;
 305:..\..\..\lvgl\version_6.1.2\lvgl\src\lv_objx\../lv_core/../lv_misc/lv_color.h ****     }
 306:..\..\..\lvgl\version_6.1.2\lvgl\src\lv_objx\../lv_core/../lv_misc/lv_color.h **** #elif LV_COLOR_DEPTH == 16
 307:..\..\..\lvgl\version_6.1.2\lvgl\src\lv_objx\../lv_core/../lv_misc/lv_color.h ****     if((LV_COLOR_GET_R(color) & 0x10) || (LV_COLOR_GET_G(color) & 0x20) || (LV_COLOR_GET_B(color) &
 308:..\..\..\lvgl\version_6.1.2\lvgl\src\lv_objx\../lv_core/../lv_misc/lv_color.h ****         return 1;
 309:..\..\..\lvgl\version_6.1.2\lvgl\src\lv_objx\../lv_core/../lv_misc/lv_color.h ****     } else {
 310:..\..\..\lvgl\version_6.1.2\lvgl\src\lv_objx\../lv_core/../lv_misc/lv_color.h ****         return 0;
 311:..\..\..\lvgl\version_6.1.2\lvgl\src\lv_objx\../lv_core/../lv_misc/lv_color.h ****     }
 312:..\..\..\lvgl\version_6.1.2\lvgl\src\lv_objx\../lv_core/../lv_misc/lv_color.h **** #elif LV_COLOR_DEPTH == 32
 313:..\..\..\lvgl\version_6.1.2\lvgl\src\lv_objx\../lv_core/../lv_misc/lv_color.h ****     if((LV_COLOR_GET_R(color) & 0x80) || (LV_COLOR_GET_G(color) & 0x80) || (LV_COLOR_GET_B(color) &
 314:..\..\..\lvgl\version_6.1.2\lvgl\src\lv_objx\../lv_core/../lv_misc/lv_color.h ****         return 1;
 315:..\..\..\lvgl\version_6.1.2\lvgl\src\lv_objx\../lv_core/../lv_misc/lv_color.h ****     } else {
ARM GAS  C:\Users\tmj32\AppData\Local\Temp\ccrrExWC.s 			page 7


 316:..\..\..\lvgl\version_6.1.2\lvgl\src\lv_objx\../lv_core/../lv_misc/lv_color.h ****         return 0;
 317:..\..\..\lvgl\version_6.1.2\lvgl\src\lv_objx\../lv_core/../lv_misc/lv_color.h ****     }
 318:..\..\..\lvgl\version_6.1.2\lvgl\src\lv_objx\../lv_core/../lv_misc/lv_color.h **** #endif
 319:..\..\..\lvgl\version_6.1.2\lvgl\src\lv_objx\../lv_core/../lv_misc/lv_color.h **** }
 320:..\..\..\lvgl\version_6.1.2\lvgl\src\lv_objx\../lv_core/../lv_misc/lv_color.h **** 
 321:..\..\..\lvgl\version_6.1.2\lvgl\src\lv_objx\../lv_core/../lv_misc/lv_color.h **** static inline uint8_t lv_color_to8(lv_color_t color)
 322:..\..\..\lvgl\version_6.1.2\lvgl\src\lv_objx\../lv_core/../lv_misc/lv_color.h **** {
 323:..\..\..\lvgl\version_6.1.2\lvgl\src\lv_objx\../lv_core/../lv_misc/lv_color.h **** #if LV_COLOR_DEPTH == 1
 324:..\..\..\lvgl\version_6.1.2\lvgl\src\lv_objx\../lv_core/../lv_misc/lv_color.h ****     if(color.full == 0)
 325:..\..\..\lvgl\version_6.1.2\lvgl\src\lv_objx\../lv_core/../lv_misc/lv_color.h ****         return 0;
 326:..\..\..\lvgl\version_6.1.2\lvgl\src\lv_objx\../lv_core/../lv_misc/lv_color.h ****     else
 327:..\..\..\lvgl\version_6.1.2\lvgl\src\lv_objx\../lv_core/../lv_misc/lv_color.h ****         return 0xFF;
 328:..\..\..\lvgl\version_6.1.2\lvgl\src\lv_objx\../lv_core/../lv_misc/lv_color.h **** #elif LV_COLOR_DEPTH == 8
 329:..\..\..\lvgl\version_6.1.2\lvgl\src\lv_objx\../lv_core/../lv_misc/lv_color.h ****     return color.full;
 330:..\..\..\lvgl\version_6.1.2\lvgl\src\lv_objx\../lv_core/../lv_misc/lv_color.h **** #elif LV_COLOR_DEPTH == 16
 331:..\..\..\lvgl\version_6.1.2\lvgl\src\lv_objx\../lv_core/../lv_misc/lv_color.h ****     lv_color8_t ret;
 332:..\..\..\lvgl\version_6.1.2\lvgl\src\lv_objx\../lv_core/../lv_misc/lv_color.h ****     LV_COLOR_SET_R8(ret, LV_COLOR_GET_R(color) >> 2);   /* 5 - 3  = 2*/
 333:..\..\..\lvgl\version_6.1.2\lvgl\src\lv_objx\../lv_core/../lv_misc/lv_color.h ****     LV_COLOR_SET_G8(ret, LV_COLOR_GET_G(color) >> 3); /* 6 - 3  = 3*/
 334:..\..\..\lvgl\version_6.1.2\lvgl\src\lv_objx\../lv_core/../lv_misc/lv_color.h ****     LV_COLOR_SET_B8(ret, LV_COLOR_GET_B(color) >> 3);  /* 5 - 2  = 3*/
 335:..\..\..\lvgl\version_6.1.2\lvgl\src\lv_objx\../lv_core/../lv_misc/lv_color.h ****     return ret.full;
 336:..\..\..\lvgl\version_6.1.2\lvgl\src\lv_objx\../lv_core/../lv_misc/lv_color.h **** #elif LV_COLOR_DEPTH == 32
 337:..\..\..\lvgl\version_6.1.2\lvgl\src\lv_objx\../lv_core/../lv_misc/lv_color.h ****     lv_color8_t ret;
 338:..\..\..\lvgl\version_6.1.2\lvgl\src\lv_objx\../lv_core/../lv_misc/lv_color.h ****     LV_COLOR_SET_R8(ret, LV_COLOR_GET_R(color) >> 5);   /* 8 - 3  = 5*/
 339:..\..\..\lvgl\version_6.1.2\lvgl\src\lv_objx\../lv_core/../lv_misc/lv_color.h ****     LV_COLOR_SET_G8(ret, LV_COLOR_GET_G(color) >> 5); /* 8 - 3  = 5*/
 340:..\..\..\lvgl\version_6.1.2\lvgl\src\lv_objx\../lv_core/../lv_misc/lv_color.h ****     LV_COLOR_SET_B8(ret, LV_COLOR_GET_B(color) >> 6);  /* 8 - 2  = 6*/
 341:..\..\..\lvgl\version_6.1.2\lvgl\src\lv_objx\../lv_core/../lv_misc/lv_color.h ****     return ret.full;
 342:..\..\..\lvgl\version_6.1.2\lvgl\src\lv_objx\../lv_core/../lv_misc/lv_color.h **** #endif
 343:..\..\..\lvgl\version_6.1.2\lvgl\src\lv_objx\../lv_core/../lv_misc/lv_color.h **** }
 344:..\..\..\lvgl\version_6.1.2\lvgl\src\lv_objx\../lv_core/../lv_misc/lv_color.h **** 
 345:..\..\..\lvgl\version_6.1.2\lvgl\src\lv_objx\../lv_core/../lv_misc/lv_color.h **** static inline uint16_t lv_color_to16(lv_color_t color)
 346:..\..\..\lvgl\version_6.1.2\lvgl\src\lv_objx\../lv_core/../lv_misc/lv_color.h **** {
 347:..\..\..\lvgl\version_6.1.2\lvgl\src\lv_objx\../lv_core/../lv_misc/lv_color.h **** #if LV_COLOR_DEPTH == 1
 348:..\..\..\lvgl\version_6.1.2\lvgl\src\lv_objx\../lv_core/../lv_misc/lv_color.h ****     if(color.full == 0)
 349:..\..\..\lvgl\version_6.1.2\lvgl\src\lv_objx\../lv_core/../lv_misc/lv_color.h ****         return 0;
 350:..\..\..\lvgl\version_6.1.2\lvgl\src\lv_objx\../lv_core/../lv_misc/lv_color.h ****     else
 351:..\..\..\lvgl\version_6.1.2\lvgl\src\lv_objx\../lv_core/../lv_misc/lv_color.h ****         return 0xFFFF;
 352:..\..\..\lvgl\version_6.1.2\lvgl\src\lv_objx\../lv_core/../lv_misc/lv_color.h **** #elif LV_COLOR_DEPTH == 8
 353:..\..\..\lvgl\version_6.1.2\lvgl\src\lv_objx\../lv_core/../lv_misc/lv_color.h ****     lv_color16_t ret;
 354:..\..\..\lvgl\version_6.1.2\lvgl\src\lv_objx\../lv_core/../lv_misc/lv_color.h ****     LV_COLOR_SET_R16(ret, LV_COLOR_GET_R(color) * 4);     /*(2^5 - 1)/(2^3 - 1) = 31/7 = 4*/
 355:..\..\..\lvgl\version_6.1.2\lvgl\src\lv_objx\../lv_core/../lv_misc/lv_color.h **** #if LV_COLOR_16_SWAP == 0
 356:..\..\..\lvgl\version_6.1.2\lvgl\src\lv_objx\../lv_core/../lv_misc/lv_color.h ****     LV_COLOR_SET_G16(ret,  LV_COLOR_GET_G(color) * 9); /*(2^6 - 1)/(2^3 - 1) = 63/7 = 9*/
 357:..\..\..\lvgl\version_6.1.2\lvgl\src\lv_objx\../lv_core/../lv_misc/lv_color.h **** #else
 358:..\..\..\lvgl\version_6.1.2\lvgl\src\lv_objx\../lv_core/../lv_misc/lv_color.h ****     LV_COLOR_SET_G16_SWAP(ret, (LV_COLOR_GET_G(color) * 9)); /*(2^6 - 1)/(2^3 - 1) = 63/7 = 9*/
 359:..\..\..\lvgl\version_6.1.2\lvgl\src\lv_objx\../lv_core/../lv_misc/lv_color.h **** #endif
 360:..\..\..\lvgl\version_6.1.2\lvgl\src\lv_objx\../lv_core/../lv_misc/lv_color.h ****     LV_COLOR_SET_B16(ret, LV_COLOR_GET_B(color) * 10);  /*(2^5 - 1)/(2^2 - 1) = 31/3 = 10*/
 361:..\..\..\lvgl\version_6.1.2\lvgl\src\lv_objx\../lv_core/../lv_misc/lv_color.h ****     return ret.full;
 362:..\..\..\lvgl\version_6.1.2\lvgl\src\lv_objx\../lv_core/../lv_misc/lv_color.h **** #elif LV_COLOR_DEPTH == 16
 363:..\..\..\lvgl\version_6.1.2\lvgl\src\lv_objx\../lv_core/../lv_misc/lv_color.h ****     return color.full;
 364:..\..\..\lvgl\version_6.1.2\lvgl\src\lv_objx\../lv_core/../lv_misc/lv_color.h **** #elif LV_COLOR_DEPTH == 32
 365:..\..\..\lvgl\version_6.1.2\lvgl\src\lv_objx\../lv_core/../lv_misc/lv_color.h ****     lv_color16_t ret;
 366:..\..\..\lvgl\version_6.1.2\lvgl\src\lv_objx\../lv_core/../lv_misc/lv_color.h ****     LV_COLOR_SET_R16(ret, LV_COLOR_GET_R(color) >> 3);   /* 8 - 5  = 3*/
 367:..\..\..\lvgl\version_6.1.2\lvgl\src\lv_objx\../lv_core/../lv_misc/lv_color.h **** 
 368:..\..\..\lvgl\version_6.1.2\lvgl\src\lv_objx\../lv_core/../lv_misc/lv_color.h **** #if LV_COLOR_16_SWAP == 0
 369:..\..\..\lvgl\version_6.1.2\lvgl\src\lv_objx\../lv_core/../lv_misc/lv_color.h ****     LV_COLOR_SET_G16(ret, LV_COLOR_GET_G(color) >> 2); /* 8 - 6  = 2*/
 370:..\..\..\lvgl\version_6.1.2\lvgl\src\lv_objx\../lv_core/../lv_misc/lv_color.h **** #else
 371:..\..\..\lvgl\version_6.1.2\lvgl\src\lv_objx\../lv_core/../lv_misc/lv_color.h ****     LV_COLOR_SET_G16_SWAP(ret, ret.ch.green_h = (LV_COLOR_GET_G(color) >> 2); /*(2^6 - 1)/(2^3 - 1)
 372:..\..\..\lvgl\version_6.1.2\lvgl\src\lv_objx\../lv_core/../lv_misc/lv_color.h **** #endif
ARM GAS  C:\Users\tmj32\AppData\Local\Temp\ccrrExWC.s 			page 8


 373:..\..\..\lvgl\version_6.1.2\lvgl\src\lv_objx\../lv_core/../lv_misc/lv_color.h ****     LV_COLOR_SET_B16(ret, LV_COLOR_GET_B(color) >> 3);  /* 8 - 5  = 3*/
 374:..\..\..\lvgl\version_6.1.2\lvgl\src\lv_objx\../lv_core/../lv_misc/lv_color.h ****     return ret.full;
 375:..\..\..\lvgl\version_6.1.2\lvgl\src\lv_objx\../lv_core/../lv_misc/lv_color.h **** #endif                         
 376:..\..\..\lvgl\version_6.1.2\lvgl\src\lv_objx\../lv_core/../lv_misc/lv_color.h **** }
 377:..\..\..\lvgl\version_6.1.2\lvgl\src\lv_objx\../lv_core/../lv_misc/lv_color.h **** 
 378:..\..\..\lvgl\version_6.1.2\lvgl\src\lv_objx\../lv_core/../lv_misc/lv_color.h **** static inline uint32_t lv_color_to32(lv_color_t color)
 379:..\..\..\lvgl\version_6.1.2\lvgl\src\lv_objx\../lv_core/../lv_misc/lv_color.h **** {
 380:..\..\..\lvgl\version_6.1.2\lvgl\src\lv_objx\../lv_core/../lv_misc/lv_color.h **** #if LV_COLOR_DEPTH == 1
 381:..\..\..\lvgl\version_6.1.2\lvgl\src\lv_objx\../lv_core/../lv_misc/lv_color.h ****     if(color.full == 0)
 382:..\..\..\lvgl\version_6.1.2\lvgl\src\lv_objx\../lv_core/../lv_misc/lv_color.h ****         return 0;
 383:..\..\..\lvgl\version_6.1.2\lvgl\src\lv_objx\../lv_core/../lv_misc/lv_color.h ****     else
 384:..\..\..\lvgl\version_6.1.2\lvgl\src\lv_objx\../lv_core/../lv_misc/lv_color.h ****         return 0xFFFFFFFF;
 385:..\..\..\lvgl\version_6.1.2\lvgl\src\lv_objx\../lv_core/../lv_misc/lv_color.h **** #elif LV_COLOR_DEPTH == 8
 386:..\..\..\lvgl\version_6.1.2\lvgl\src\lv_objx\../lv_core/../lv_misc/lv_color.h ****     lv_color32_t ret;
 387:..\..\..\lvgl\version_6.1.2\lvgl\src\lv_objx\../lv_core/../lv_misc/lv_color.h ****     LV_COLOR_SET_R32(ret, LV_COLOR_GET_R(color) * 36);     /*(2^8 - 1)/(2^3 - 1) = 255/7 = 36*/
 388:..\..\..\lvgl\version_6.1.2\lvgl\src\lv_objx\../lv_core/../lv_misc/lv_color.h ****     LV_COLOR_SET_G32(ret, LV_COLOR_GET_G(color) * 36); /*(2^8 - 1)/(2^3 - 1) = 255/7 = 36*/
 389:..\..\..\lvgl\version_6.1.2\lvgl\src\lv_objx\../lv_core/../lv_misc/lv_color.h ****     LV_COLOR_SET_B32(ret, LV_COLOR_GET_B(color) * 85);   /*(2^8 - 1)/(2^2 - 1) = 255/3 = 85*/
 390:..\..\..\lvgl\version_6.1.2\lvgl\src\lv_objx\../lv_core/../lv_misc/lv_color.h ****     LV_COLOR_SET_A32(ret, 0xFF);
 391:..\..\..\lvgl\version_6.1.2\lvgl\src\lv_objx\../lv_core/../lv_misc/lv_color.h ****     return ret.full;
 392:..\..\..\lvgl\version_6.1.2\lvgl\src\lv_objx\../lv_core/../lv_misc/lv_color.h **** #elif LV_COLOR_DEPTH == 16
 393:..\..\..\lvgl\version_6.1.2\lvgl\src\lv_objx\../lv_core/../lv_misc/lv_color.h ****     /**
 394:..\..\..\lvgl\version_6.1.2\lvgl\src\lv_objx\../lv_core/../lv_misc/lv_color.h ****      * The floating point math for conversion is:
 395:..\..\..\lvgl\version_6.1.2\lvgl\src\lv_objx\../lv_core/../lv_misc/lv_color.h ****      *  valueto = valuefrom * ( (2^bitsto - 1) / (float)(2^bitsfrom - 1) )
 396:..\..\..\lvgl\version_6.1.2\lvgl\src\lv_objx\../lv_core/../lv_misc/lv_color.h ****      * The faster integer math for conversion is:
 397:..\..\..\lvgl\version_6.1.2\lvgl\src\lv_objx\../lv_core/../lv_misc/lv_color.h ****      *  valueto = ( valuefrom * multiplier + adder ) >> divisor
 398:..\..\..\lvgl\version_6.1.2\lvgl\src\lv_objx\../lv_core/../lv_misc/lv_color.h ****      *   multiplier = FLOOR( ( (2^bitsto - 1) << divisor ) / (float)(2^bitsfrom - 1) )
 399:..\..\..\lvgl\version_6.1.2\lvgl\src\lv_objx\../lv_core/../lv_misc/lv_color.h ****      * 
 400:..\..\..\lvgl\version_6.1.2\lvgl\src\lv_objx\../lv_core/../lv_misc/lv_color.h ****      * Find the first divisor where ( adder >> divisor ) <= 0
 401:..\..\..\lvgl\version_6.1.2\lvgl\src\lv_objx\../lv_core/../lv_misc/lv_color.h ****      * 
 402:..\..\..\lvgl\version_6.1.2\lvgl\src\lv_objx\../lv_core/../lv_misc/lv_color.h ****      * 5-bit to 8-bit: ( 31 * multiplier + adder ) >> divisor = 255
 403:..\..\..\lvgl\version_6.1.2\lvgl\src\lv_objx\../lv_core/../lv_misc/lv_color.h ****      * divisor  multiplier  adder  min (0)  max (31)
 404:..\..\..\lvgl\version_6.1.2\lvgl\src\lv_objx\../lv_core/../lv_misc/lv_color.h ****      *       0           8      7        7       255
 405:..\..\..\lvgl\version_6.1.2\lvgl\src\lv_objx\../lv_core/../lv_misc/lv_color.h ****      *       1          16     14        7       255
 406:..\..\..\lvgl\version_6.1.2\lvgl\src\lv_objx\../lv_core/../lv_misc/lv_color.h ****      *       2          32     28        7       255
 407:..\..\..\lvgl\version_6.1.2\lvgl\src\lv_objx\../lv_core/../lv_misc/lv_color.h ****      *       3          65     25        3       255
 408:..\..\..\lvgl\version_6.1.2\lvgl\src\lv_objx\../lv_core/../lv_misc/lv_color.h ****      *       4         131     19        1       255
 409:..\..\..\lvgl\version_6.1.2\lvgl\src\lv_objx\../lv_core/../lv_misc/lv_color.h ****      *       5         263      7        0       255
 410:..\..\..\lvgl\version_6.1.2\lvgl\src\lv_objx\../lv_core/../lv_misc/lv_color.h ****      * 
 411:..\..\..\lvgl\version_6.1.2\lvgl\src\lv_objx\../lv_core/../lv_misc/lv_color.h ****      * 6-bit to 8-bit: 255 = ( 63 * multiplier + adder ) >> divisor
 412:..\..\..\lvgl\version_6.1.2\lvgl\src\lv_objx\../lv_core/../lv_misc/lv_color.h ****      * divisor  multiplier  adder  min (0)  max (63)
 413:..\..\..\lvgl\version_6.1.2\lvgl\src\lv_objx\../lv_core/../lv_misc/lv_color.h ****      *       0           4      3        3       255
 414:..\..\..\lvgl\version_6.1.2\lvgl\src\lv_objx\../lv_core/../lv_misc/lv_color.h ****      *       1           8      6        3       255
 415:..\..\..\lvgl\version_6.1.2\lvgl\src\lv_objx\../lv_core/../lv_misc/lv_color.h ****      *       2          16     12        3       255
 416:..\..\..\lvgl\version_6.1.2\lvgl\src\lv_objx\../lv_core/../lv_misc/lv_color.h ****      *       3          32     24        3       255
 417:..\..\..\lvgl\version_6.1.2\lvgl\src\lv_objx\../lv_core/../lv_misc/lv_color.h ****      *       4          64     48        3       255
 418:..\..\..\lvgl\version_6.1.2\lvgl\src\lv_objx\../lv_core/../lv_misc/lv_color.h ****      *       5         129     33        1       255
 419:..\..\..\lvgl\version_6.1.2\lvgl\src\lv_objx\../lv_core/../lv_misc/lv_color.h ****      *       6         259      3        0       255
 420:..\..\..\lvgl\version_6.1.2\lvgl\src\lv_objx\../lv_core/../lv_misc/lv_color.h ****      */
 421:..\..\..\lvgl\version_6.1.2\lvgl\src\lv_objx\../lv_core/../lv_misc/lv_color.h ****     lv_color32_t ret;
 422:..\..\..\lvgl\version_6.1.2\lvgl\src\lv_objx\../lv_core/../lv_misc/lv_color.h ****     LV_COLOR_SET_R32(ret, (LV_COLOR_GET_R(color) * 263 + 7 ) >> 5);
 423:..\..\..\lvgl\version_6.1.2\lvgl\src\lv_objx\../lv_core/../lv_misc/lv_color.h ****     LV_COLOR_SET_G32(ret, (LV_COLOR_GET_G(color) * 259 + 3 ) >> 6);
 424:..\..\..\lvgl\version_6.1.2\lvgl\src\lv_objx\../lv_core/../lv_misc/lv_color.h ****     LV_COLOR_SET_B32(ret, (LV_COLOR_GET_B(color) * 263 + 7 ) >> 5);
 425:..\..\..\lvgl\version_6.1.2\lvgl\src\lv_objx\../lv_core/../lv_misc/lv_color.h ****     LV_COLOR_SET_A32(ret, 0xFF);
 426:..\..\..\lvgl\version_6.1.2\lvgl\src\lv_objx\../lv_core/../lv_misc/lv_color.h ****     return ret.full;
 427:..\..\..\lvgl\version_6.1.2\lvgl\src\lv_objx\../lv_core/../lv_misc/lv_color.h **** #elif LV_COLOR_DEPTH == 32
 428:..\..\..\lvgl\version_6.1.2\lvgl\src\lv_objx\../lv_core/../lv_misc/lv_color.h ****     return color.full;
 429:..\..\..\lvgl\version_6.1.2\lvgl\src\lv_objx\../lv_core/../lv_misc/lv_color.h **** #endif
ARM GAS  C:\Users\tmj32\AppData\Local\Temp\ccrrExWC.s 			page 9


 430:..\..\..\lvgl\version_6.1.2\lvgl\src\lv_objx\../lv_core/../lv_misc/lv_color.h **** }
 431:..\..\..\lvgl\version_6.1.2\lvgl\src\lv_objx\../lv_core/../lv_misc/lv_color.h **** 
 432:..\..\..\lvgl\version_6.1.2\lvgl\src\lv_objx\../lv_core/../lv_misc/lv_color.h **** static inline lv_color_t lv_color_mix(lv_color_t c1, lv_color_t c2, uint8_t mix)
 433:..\..\..\lvgl\version_6.1.2\lvgl\src\lv_objx\../lv_core/../lv_misc/lv_color.h **** {
  28              		.loc 1 433 0
  29              		.cfi_startproc
  30              		@ args = 0, pretend = 0, frame = 24
  31              		@ frame_needed = 1, uses_anonymous_args = 0
  32              		@ link register save eliminated.
  33 0000 80B4     		push	{r7}
  34              		.cfi_def_cfa_offset 4
  35              		.cfi_offset 7, -4
  36 0002 87B0     		sub	sp, sp, #28
  37              		.cfi_def_cfa_offset 32
  38 0004 00AF     		add	r7, sp, #0
  39              		.cfi_def_cfa_register 7
  40 0006 F860     		str	r0, [r7, #12]
  41 0008 B960     		str	r1, [r7, #8]
  42 000a 1346     		mov	r3, r2
  43 000c FB71     		strb	r3, [r7, #7]
 434:..\..\..\lvgl\version_6.1.2\lvgl\src\lv_objx\../lv_core/../lv_misc/lv_color.h ****     lv_color_t ret;
 435:..\..\..\lvgl\version_6.1.2\lvgl\src\lv_objx\../lv_core/../lv_misc/lv_color.h **** #if LV_COLOR_DEPTH != 1
 436:..\..\..\lvgl\version_6.1.2\lvgl\src\lv_objx\../lv_core/../lv_misc/lv_color.h ****     /*LV_COLOR_DEPTH == 8, 16 or 32*/
 437:..\..\..\lvgl\version_6.1.2\lvgl\src\lv_objx\../lv_core/../lv_misc/lv_color.h ****     LV_COLOR_SET_R(ret, (uint16_t)((uint16_t) LV_COLOR_GET_R(c1) * mix + LV_COLOR_GET_R(c2) * (255 
  44              		.loc 1 437 0
  45 000e BB7B     		ldrb	r3, [r7, #14]	@ zero_extendqisi2
  46 0010 9AB2     		uxth	r2, r3
  47 0012 FB79     		ldrb	r3, [r7, #7]	@ zero_extendqisi2
  48 0014 9BB2     		uxth	r3, r3
  49 0016 12FB03F3 		smulbb	r3, r2, r3
  50 001a 9AB2     		uxth	r2, r3
  51 001c BB7A     		ldrb	r3, [r7, #10]	@ zero_extendqisi2
  52 001e 99B2     		uxth	r1, r3
  53 0020 FB79     		ldrb	r3, [r7, #7]	@ zero_extendqisi2
  54 0022 C3F1FF03 		rsb	r3, r3, #255
  55 0026 9BB2     		uxth	r3, r3
  56 0028 11FB03F3 		smulbb	r3, r1, r3
  57 002c 9BB2     		uxth	r3, r3
  58 002e 1344     		add	r3, r3, r2
  59 0030 9BB2     		uxth	r3, r3
  60 0032 1B0A     		lsrs	r3, r3, #8
  61 0034 9BB2     		uxth	r3, r3
  62 0036 DBB2     		uxtb	r3, r3
  63 0038 BB75     		strb	r3, [r7, #22]
 438:..\..\..\lvgl\version_6.1.2\lvgl\src\lv_objx\../lv_core/../lv_misc/lv_color.h ****     LV_COLOR_SET_G(ret, (uint16_t)((uint16_t) LV_COLOR_GET_G(c1) * mix + LV_COLOR_GET_G(c2) * (255 
  64              		.loc 1 438 0
  65 003a 7B7B     		ldrb	r3, [r7, #13]	@ zero_extendqisi2
  66 003c 9AB2     		uxth	r2, r3
  67 003e FB79     		ldrb	r3, [r7, #7]	@ zero_extendqisi2
  68 0040 9BB2     		uxth	r3, r3
  69 0042 12FB03F3 		smulbb	r3, r2, r3
  70 0046 9AB2     		uxth	r2, r3
  71 0048 7B7A     		ldrb	r3, [r7, #9]	@ zero_extendqisi2
  72 004a 99B2     		uxth	r1, r3
  73 004c FB79     		ldrb	r3, [r7, #7]	@ zero_extendqisi2
  74 004e C3F1FF03 		rsb	r3, r3, #255
  75 0052 9BB2     		uxth	r3, r3
ARM GAS  C:\Users\tmj32\AppData\Local\Temp\ccrrExWC.s 			page 10


  76 0054 11FB03F3 		smulbb	r3, r1, r3
  77 0058 9BB2     		uxth	r3, r3
  78 005a 1344     		add	r3, r3, r2
  79 005c 9BB2     		uxth	r3, r3
  80 005e 1B0A     		lsrs	r3, r3, #8
  81 0060 9BB2     		uxth	r3, r3
  82 0062 DBB2     		uxtb	r3, r3
  83 0064 7B75     		strb	r3, [r7, #21]
 439:..\..\..\lvgl\version_6.1.2\lvgl\src\lv_objx\../lv_core/../lv_misc/lv_color.h ****     LV_COLOR_SET_B(ret, (uint16_t)((uint16_t) LV_COLOR_GET_B(c1) * mix + LV_COLOR_GET_B(c2) * (255 
  84              		.loc 1 439 0
  85 0066 3B7B     		ldrb	r3, [r7, #12]	@ zero_extendqisi2
  86 0068 9AB2     		uxth	r2, r3
  87 006a FB79     		ldrb	r3, [r7, #7]	@ zero_extendqisi2
  88 006c 9BB2     		uxth	r3, r3
  89 006e 12FB03F3 		smulbb	r3, r2, r3
  90 0072 9AB2     		uxth	r2, r3
  91 0074 3B7A     		ldrb	r3, [r7, #8]	@ zero_extendqisi2
  92 0076 99B2     		uxth	r1, r3
  93 0078 FB79     		ldrb	r3, [r7, #7]	@ zero_extendqisi2
  94 007a C3F1FF03 		rsb	r3, r3, #255
  95 007e 9BB2     		uxth	r3, r3
  96 0080 11FB03F3 		smulbb	r3, r1, r3
  97 0084 9BB2     		uxth	r3, r3
  98 0086 1344     		add	r3, r3, r2
  99 0088 9BB2     		uxth	r3, r3
 100 008a 1B0A     		lsrs	r3, r3, #8
 101 008c 9BB2     		uxth	r3, r3
 102 008e DBB2     		uxtb	r3, r3
 103 0090 3B75     		strb	r3, [r7, #20]
 440:..\..\..\lvgl\version_6.1.2\lvgl\src\lv_objx\../lv_core/../lv_misc/lv_color.h ****     LV_COLOR_SET_A(ret, 0xFF);
 104              		.loc 1 440 0
 105 0092 FF23     		movs	r3, #255
 106 0094 FB75     		strb	r3, [r7, #23]
 441:..\..\..\lvgl\version_6.1.2\lvgl\src\lv_objx\../lv_core/../lv_misc/lv_color.h **** #else
 442:..\..\..\lvgl\version_6.1.2\lvgl\src\lv_objx\../lv_core/../lv_misc/lv_color.h ****     /*LV_COLOR_DEPTH == 1*/
 443:..\..\..\lvgl\version_6.1.2\lvgl\src\lv_objx\../lv_core/../lv_misc/lv_color.h ****     ret.full = mix > LV_OPA_50 ? c1.full : c2.full;
 444:..\..\..\lvgl\version_6.1.2\lvgl\src\lv_objx\../lv_core/../lv_misc/lv_color.h **** #endif
 445:..\..\..\lvgl\version_6.1.2\lvgl\src\lv_objx\../lv_core/../lv_misc/lv_color.h **** 
 446:..\..\..\lvgl\version_6.1.2\lvgl\src\lv_objx\../lv_core/../lv_misc/lv_color.h ****     return ret;
 107              		.loc 1 446 0
 108 0096 7B69     		ldr	r3, [r7, #20]
 447:..\..\..\lvgl\version_6.1.2\lvgl\src\lv_objx\../lv_core/../lv_misc/lv_color.h **** }
 109              		.loc 1 447 0
 110 0098 1846     		mov	r0, r3
 111 009a 1C37     		adds	r7, r7, #28
 112              		.cfi_def_cfa_offset 4
 113 009c BD46     		mov	sp, r7
 114              		.cfi_def_cfa_register 13
 115              		@ sp needed
 116 009e 5DF8047B 		ldr	r7, [sp], #4
 117              		.cfi_restore 7
 118              		.cfi_def_cfa_offset 0
 119 00a2 7047     		bx	lr
 120              		.cfi_endproc
 121              	.LFE5:
 122              		.size	lv_color_mix, .-lv_color_mix
 123              		.section	.text.lv_chart_set_style,"ax",%progbits
ARM GAS  C:\Users\tmj32\AppData\Local\Temp\ccrrExWC.s 			page 11


 124              		.align	2
 125              		.thumb
 126              		.thumb_func
 127              		.type	lv_chart_set_style, %function
 128              	lv_chart_set_style:
 129              	.LFB33:
 130              		.file 2 "..\\..\\..\\lvgl\\version_6.1.2\\lvgl\\src\\lv_objx\\lv_chart.h"
   1:..\..\..\lvgl\version_6.1.2\lvgl\src\lv_objx/lv_chart.h **** /**
   2:..\..\..\lvgl\version_6.1.2\lvgl\src\lv_objx/lv_chart.h ****  * @file lv_chart.h
   3:..\..\..\lvgl\version_6.1.2\lvgl\src\lv_objx/lv_chart.h ****  *
   4:..\..\..\lvgl\version_6.1.2\lvgl\src\lv_objx/lv_chart.h ****  */
   5:..\..\..\lvgl\version_6.1.2\lvgl\src\lv_objx/lv_chart.h **** 
   6:..\..\..\lvgl\version_6.1.2\lvgl\src\lv_objx/lv_chart.h **** #ifndef LV_CHART_H
   7:..\..\..\lvgl\version_6.1.2\lvgl\src\lv_objx/lv_chart.h **** #define LV_CHART_H
   8:..\..\..\lvgl\version_6.1.2\lvgl\src\lv_objx/lv_chart.h **** 
   9:..\..\..\lvgl\version_6.1.2\lvgl\src\lv_objx/lv_chart.h **** #ifdef __cplusplus
  10:..\..\..\lvgl\version_6.1.2\lvgl\src\lv_objx/lv_chart.h **** extern "C" {
  11:..\..\..\lvgl\version_6.1.2\lvgl\src\lv_objx/lv_chart.h **** #endif
  12:..\..\..\lvgl\version_6.1.2\lvgl\src\lv_objx/lv_chart.h **** 
  13:..\..\..\lvgl\version_6.1.2\lvgl\src\lv_objx/lv_chart.h **** /*********************
  14:..\..\..\lvgl\version_6.1.2\lvgl\src\lv_objx/lv_chart.h ****  *      INCLUDES
  15:..\..\..\lvgl\version_6.1.2\lvgl\src\lv_objx/lv_chart.h ****  *********************/
  16:..\..\..\lvgl\version_6.1.2\lvgl\src\lv_objx/lv_chart.h **** #ifdef LV_CONF_INCLUDE_SIMPLE
  17:..\..\..\lvgl\version_6.1.2\lvgl\src\lv_objx/lv_chart.h **** #include "lv_conf.h"
  18:..\..\..\lvgl\version_6.1.2\lvgl\src\lv_objx/lv_chart.h **** #else
  19:..\..\..\lvgl\version_6.1.2\lvgl\src\lv_objx/lv_chart.h **** #include "../../../lv_conf.h"
  20:..\..\..\lvgl\version_6.1.2\lvgl\src\lv_objx/lv_chart.h **** #endif
  21:..\..\..\lvgl\version_6.1.2\lvgl\src\lv_objx/lv_chart.h **** 
  22:..\..\..\lvgl\version_6.1.2\lvgl\src\lv_objx/lv_chart.h **** #if LV_USE_CHART != 0
  23:..\..\..\lvgl\version_6.1.2\lvgl\src\lv_objx/lv_chart.h **** 
  24:..\..\..\lvgl\version_6.1.2\lvgl\src\lv_objx/lv_chart.h **** #include "../lv_core/lv_obj.h"
  25:..\..\..\lvgl\version_6.1.2\lvgl\src\lv_objx/lv_chart.h **** #include "lv_line.h"
  26:..\..\..\lvgl\version_6.1.2\lvgl\src\lv_objx/lv_chart.h **** 
  27:..\..\..\lvgl\version_6.1.2\lvgl\src\lv_objx/lv_chart.h **** /*********************
  28:..\..\..\lvgl\version_6.1.2\lvgl\src\lv_objx/lv_chart.h ****  *      DEFINES
  29:..\..\..\lvgl\version_6.1.2\lvgl\src\lv_objx/lv_chart.h ****  *********************/
  30:..\..\..\lvgl\version_6.1.2\lvgl\src\lv_objx/lv_chart.h **** 
  31:..\..\..\lvgl\version_6.1.2\lvgl\src\lv_objx/lv_chart.h **** /**Default value of points. Can be used to not draw a point*/
  32:..\..\..\lvgl\version_6.1.2\lvgl\src\lv_objx/lv_chart.h **** #define LV_CHART_POINT_DEF (LV_COORD_MIN)
  33:..\..\..\lvgl\version_6.1.2\lvgl\src\lv_objx/lv_chart.h **** 
  34:..\..\..\lvgl\version_6.1.2\lvgl\src\lv_objx/lv_chart.h **** /**Automatically calculate the tick length*/
  35:..\..\..\lvgl\version_6.1.2\lvgl\src\lv_objx/lv_chart.h **** #define LV_CHART_TICK_LENGTH_AUTO 255
  36:..\..\..\lvgl\version_6.1.2\lvgl\src\lv_objx/lv_chart.h **** 
  37:..\..\..\lvgl\version_6.1.2\lvgl\src\lv_objx/lv_chart.h **** LV_EXPORT_CONST_INT(LV_CHART_POINT_DEF);
  38:..\..\..\lvgl\version_6.1.2\lvgl\src\lv_objx/lv_chart.h **** LV_EXPORT_CONST_INT(LV_CHART_TICK_LENGTH_AUTO);
  39:..\..\..\lvgl\version_6.1.2\lvgl\src\lv_objx/lv_chart.h **** 
  40:..\..\..\lvgl\version_6.1.2\lvgl\src\lv_objx/lv_chart.h **** /**********************
  41:..\..\..\lvgl\version_6.1.2\lvgl\src\lv_objx/lv_chart.h ****  *      TYPEDEFS
  42:..\..\..\lvgl\version_6.1.2\lvgl\src\lv_objx/lv_chart.h ****  **********************/
  43:..\..\..\lvgl\version_6.1.2\lvgl\src\lv_objx/lv_chart.h **** 
  44:..\..\..\lvgl\version_6.1.2\lvgl\src\lv_objx/lv_chart.h **** /** Chart types*/
  45:..\..\..\lvgl\version_6.1.2\lvgl\src\lv_objx/lv_chart.h **** enum {
  46:..\..\..\lvgl\version_6.1.2\lvgl\src\lv_objx/lv_chart.h ****     LV_CHART_TYPE_NONE           = 0x00, /**< Don't draw the series*/
  47:..\..\..\lvgl\version_6.1.2\lvgl\src\lv_objx/lv_chart.h ****     LV_CHART_TYPE_LINE          = 0x01, /**< Connect the points with lines*/
  48:..\..\..\lvgl\version_6.1.2\lvgl\src\lv_objx/lv_chart.h ****     LV_CHART_TYPE_COLUMN        = 0x02, /**< Draw columns*/
  49:..\..\..\lvgl\version_6.1.2\lvgl\src\lv_objx/lv_chart.h ****     LV_CHART_TYPE_POINT         = 0x04, /**< Draw circles on the points*/
  50:..\..\..\lvgl\version_6.1.2\lvgl\src\lv_objx/lv_chart.h ****     LV_CHART_TYPE_VERTICAL_LINE = 0x08, /**< Draw vertical lines on points (useful when chart width
ARM GAS  C:\Users\tmj32\AppData\Local\Temp\ccrrExWC.s 			page 12


  51:..\..\..\lvgl\version_6.1.2\lvgl\src\lv_objx/lv_chart.h ****     LV_CHART_TYPE_AREA          = 0x10, /**< Draw area chart*/
  52:..\..\..\lvgl\version_6.1.2\lvgl\src\lv_objx/lv_chart.h **** };
  53:..\..\..\lvgl\version_6.1.2\lvgl\src\lv_objx/lv_chart.h **** typedef uint8_t lv_chart_type_t;
  54:..\..\..\lvgl\version_6.1.2\lvgl\src\lv_objx/lv_chart.h **** 
  55:..\..\..\lvgl\version_6.1.2\lvgl\src\lv_objx/lv_chart.h **** /** Chart update mode for `lv_chart_set_next`*/
  56:..\..\..\lvgl\version_6.1.2\lvgl\src\lv_objx/lv_chart.h **** enum {
  57:..\..\..\lvgl\version_6.1.2\lvgl\src\lv_objx/lv_chart.h ****     LV_CHART_UPDATE_MODE_SHIFT,     /**< Shift old data to the left and add the new one o the right
  58:..\..\..\lvgl\version_6.1.2\lvgl\src\lv_objx/lv_chart.h ****     LV_CHART_UPDATE_MODE_CIRCULAR,  /**< Add the new data in a circular way*/
  59:..\..\..\lvgl\version_6.1.2\lvgl\src\lv_objx/lv_chart.h **** };
  60:..\..\..\lvgl\version_6.1.2\lvgl\src\lv_objx/lv_chart.h **** typedef uint8_t lv_chart_update_mode_t;
  61:..\..\..\lvgl\version_6.1.2\lvgl\src\lv_objx/lv_chart.h **** 
  62:..\..\..\lvgl\version_6.1.2\lvgl\src\lv_objx/lv_chart.h **** typedef struct
  63:..\..\..\lvgl\version_6.1.2\lvgl\src\lv_objx/lv_chart.h **** {
  64:..\..\..\lvgl\version_6.1.2\lvgl\src\lv_objx/lv_chart.h ****     lv_coord_t * points;
  65:..\..\..\lvgl\version_6.1.2\lvgl\src\lv_objx/lv_chart.h ****     lv_color_t color;
  66:..\..\..\lvgl\version_6.1.2\lvgl\src\lv_objx/lv_chart.h ****     uint16_t start_point;
  67:..\..\..\lvgl\version_6.1.2\lvgl\src\lv_objx/lv_chart.h **** } lv_chart_series_t;
  68:..\..\..\lvgl\version_6.1.2\lvgl\src\lv_objx/lv_chart.h **** 
  69:..\..\..\lvgl\version_6.1.2\lvgl\src\lv_objx/lv_chart.h **** /** Data of axis */
  70:..\..\..\lvgl\version_6.1.2\lvgl\src\lv_objx/lv_chart.h **** enum {
  71:..\..\..\lvgl\version_6.1.2\lvgl\src\lv_objx/lv_chart.h ****     LV_CHART_AXIS_SKIP_LAST_TICK = 0x00,            /**< don't draw the last tick */
  72:..\..\..\lvgl\version_6.1.2\lvgl\src\lv_objx/lv_chart.h ****     LV_CHART_AXIS_DRAW_LAST_TICK = 0x01,            /**< draw the last tick */
  73:..\..\..\lvgl\version_6.1.2\lvgl\src\lv_objx/lv_chart.h ****     LV_CHART_AXIS_INVERSE_LABELS_ORDER = 0x02       /**< draw tick labels in an inversed order*/
  74:..\..\..\lvgl\version_6.1.2\lvgl\src\lv_objx/lv_chart.h **** };
  75:..\..\..\lvgl\version_6.1.2\lvgl\src\lv_objx/lv_chart.h **** typedef uint8_t lv_chart_axis_options_t;
  76:..\..\..\lvgl\version_6.1.2\lvgl\src\lv_objx/lv_chart.h **** 
  77:..\..\..\lvgl\version_6.1.2\lvgl\src\lv_objx/lv_chart.h **** typedef struct
  78:..\..\..\lvgl\version_6.1.2\lvgl\src\lv_objx/lv_chart.h **** {
  79:..\..\..\lvgl\version_6.1.2\lvgl\src\lv_objx/lv_chart.h ****     const char * list_of_values;
  80:..\..\..\lvgl\version_6.1.2\lvgl\src\lv_objx/lv_chart.h ****     lv_chart_axis_options_t options;
  81:..\..\..\lvgl\version_6.1.2\lvgl\src\lv_objx/lv_chart.h ****     uint8_t num_tick_marks;
  82:..\..\..\lvgl\version_6.1.2\lvgl\src\lv_objx/lv_chart.h ****     uint8_t major_tick_len;
  83:..\..\..\lvgl\version_6.1.2\lvgl\src\lv_objx/lv_chart.h ****     uint8_t minor_tick_len;
  84:..\..\..\lvgl\version_6.1.2\lvgl\src\lv_objx/lv_chart.h **** } lv_chart_axis_cfg_t;
  85:..\..\..\lvgl\version_6.1.2\lvgl\src\lv_objx/lv_chart.h **** 
  86:..\..\..\lvgl\version_6.1.2\lvgl\src\lv_objx/lv_chart.h **** /*Data of chart */
  87:..\..\..\lvgl\version_6.1.2\lvgl\src\lv_objx/lv_chart.h **** typedef struct
  88:..\..\..\lvgl\version_6.1.2\lvgl\src\lv_objx/lv_chart.h **** {
  89:..\..\..\lvgl\version_6.1.2\lvgl\src\lv_objx/lv_chart.h ****     /*No inherited ext*/ /*Ext. of ancestor*/
  90:..\..\..\lvgl\version_6.1.2\lvgl\src\lv_objx/lv_chart.h ****     /*New data for this type */
  91:..\..\..\lvgl\version_6.1.2\lvgl\src\lv_objx/lv_chart.h ****     lv_ll_t series_ll;    /*Linked list for the data line pointers (stores lv_chart_dl_t)*/
  92:..\..\..\lvgl\version_6.1.2\lvgl\src\lv_objx/lv_chart.h ****     lv_coord_t ymin;      /*y min value (used to scale the data)*/
  93:..\..\..\lvgl\version_6.1.2\lvgl\src\lv_objx/lv_chart.h ****     lv_coord_t ymax;      /*y max value (used to scale the data)*/
  94:..\..\..\lvgl\version_6.1.2\lvgl\src\lv_objx/lv_chart.h ****     uint8_t hdiv_cnt;     /*Number of horizontal division lines*/
  95:..\..\..\lvgl\version_6.1.2\lvgl\src\lv_objx/lv_chart.h ****     uint8_t vdiv_cnt;     /*Number of vertical division lines*/
  96:..\..\..\lvgl\version_6.1.2\lvgl\src\lv_objx/lv_chart.h ****     uint16_t point_cnt;   /*Point number in a data line*/
  97:..\..\..\lvgl\version_6.1.2\lvgl\src\lv_objx/lv_chart.h ****     lv_chart_type_t type; /*Line, column or point chart (from 'lv_chart_type_t')*/
  98:..\..\..\lvgl\version_6.1.2\lvgl\src\lv_objx/lv_chart.h ****     lv_chart_axis_cfg_t y_axis;
  99:..\..\..\lvgl\version_6.1.2\lvgl\src\lv_objx/lv_chart.h ****     lv_chart_axis_cfg_t x_axis;
 100:..\..\..\lvgl\version_6.1.2\lvgl\src\lv_objx/lv_chart.h ****     lv_chart_axis_cfg_t secondary_y_axis;
 101:..\..\..\lvgl\version_6.1.2\lvgl\src\lv_objx/lv_chart.h ****     uint16_t margin;
 102:..\..\..\lvgl\version_6.1.2\lvgl\src\lv_objx/lv_chart.h ****     uint8_t update_mode : 1;
 103:..\..\..\lvgl\version_6.1.2\lvgl\src\lv_objx/lv_chart.h ****     struct
 104:..\..\..\lvgl\version_6.1.2\lvgl\src\lv_objx/lv_chart.h ****     {
 105:..\..\..\lvgl\version_6.1.2\lvgl\src\lv_objx/lv_chart.h ****         lv_coord_t width; /*Line width or point radius*/
 106:..\..\..\lvgl\version_6.1.2\lvgl\src\lv_objx/lv_chart.h ****         uint8_t num;      /*Number of data lines in dl_ll*/
 107:..\..\..\lvgl\version_6.1.2\lvgl\src\lv_objx/lv_chart.h ****         lv_opa_t opa;     /*Opacity of data lines*/
ARM GAS  C:\Users\tmj32\AppData\Local\Temp\ccrrExWC.s 			page 13


 108:..\..\..\lvgl\version_6.1.2\lvgl\src\lv_objx/lv_chart.h ****         lv_opa_t dark;    /*Dark level of the point/column bottoms*/
 109:..\..\..\lvgl\version_6.1.2\lvgl\src\lv_objx/lv_chart.h ****     } series;
 110:..\..\..\lvgl\version_6.1.2\lvgl\src\lv_objx/lv_chart.h **** } lv_chart_ext_t;
 111:..\..\..\lvgl\version_6.1.2\lvgl\src\lv_objx/lv_chart.h **** 
 112:..\..\..\lvgl\version_6.1.2\lvgl\src\lv_objx/lv_chart.h **** enum {
 113:..\..\..\lvgl\version_6.1.2\lvgl\src\lv_objx/lv_chart.h ****     LV_CHART_STYLE_MAIN,
 114:..\..\..\lvgl\version_6.1.2\lvgl\src\lv_objx/lv_chart.h **** };
 115:..\..\..\lvgl\version_6.1.2\lvgl\src\lv_objx/lv_chart.h **** typedef uint8_t lv_chart_style_t;
 116:..\..\..\lvgl\version_6.1.2\lvgl\src\lv_objx/lv_chart.h **** 
 117:..\..\..\lvgl\version_6.1.2\lvgl\src\lv_objx/lv_chart.h **** /**********************
 118:..\..\..\lvgl\version_6.1.2\lvgl\src\lv_objx/lv_chart.h ****  * GLOBAL PROTOTYPES
 119:..\..\..\lvgl\version_6.1.2\lvgl\src\lv_objx/lv_chart.h ****  **********************/
 120:..\..\..\lvgl\version_6.1.2\lvgl\src\lv_objx/lv_chart.h **** 
 121:..\..\..\lvgl\version_6.1.2\lvgl\src\lv_objx/lv_chart.h **** /**
 122:..\..\..\lvgl\version_6.1.2\lvgl\src\lv_objx/lv_chart.h ****  * Create a chart background objects
 123:..\..\..\lvgl\version_6.1.2\lvgl\src\lv_objx/lv_chart.h ****  * @param par pointer to an object, it will be the parent of the new chart background
 124:..\..\..\lvgl\version_6.1.2\lvgl\src\lv_objx/lv_chart.h ****  * @param copy pointer to a chart background object, if not NULL then the new object will be copied
 125:..\..\..\lvgl\version_6.1.2\lvgl\src\lv_objx/lv_chart.h ****  * from it
 126:..\..\..\lvgl\version_6.1.2\lvgl\src\lv_objx/lv_chart.h ****  * @return pointer to the created chart background
 127:..\..\..\lvgl\version_6.1.2\lvgl\src\lv_objx/lv_chart.h ****  */
 128:..\..\..\lvgl\version_6.1.2\lvgl\src\lv_objx/lv_chart.h **** lv_obj_t * lv_chart_create(lv_obj_t * par, const lv_obj_t * copy);
 129:..\..\..\lvgl\version_6.1.2\lvgl\src\lv_objx/lv_chart.h **** 
 130:..\..\..\lvgl\version_6.1.2\lvgl\src\lv_objx/lv_chart.h **** /*======================
 131:..\..\..\lvgl\version_6.1.2\lvgl\src\lv_objx/lv_chart.h ****  * Add/remove functions
 132:..\..\..\lvgl\version_6.1.2\lvgl\src\lv_objx/lv_chart.h ****  *=====================*/
 133:..\..\..\lvgl\version_6.1.2\lvgl\src\lv_objx/lv_chart.h **** 
 134:..\..\..\lvgl\version_6.1.2\lvgl\src\lv_objx/lv_chart.h **** /**
 135:..\..\..\lvgl\version_6.1.2\lvgl\src\lv_objx/lv_chart.h ****  * Allocate and add a data series to the chart
 136:..\..\..\lvgl\version_6.1.2\lvgl\src\lv_objx/lv_chart.h ****  * @param chart pointer to a chart object
 137:..\..\..\lvgl\version_6.1.2\lvgl\src\lv_objx/lv_chart.h ****  * @param color color of the data series
 138:..\..\..\lvgl\version_6.1.2\lvgl\src\lv_objx/lv_chart.h ****  * @return pointer to the allocated data series
 139:..\..\..\lvgl\version_6.1.2\lvgl\src\lv_objx/lv_chart.h ****  */
 140:..\..\..\lvgl\version_6.1.2\lvgl\src\lv_objx/lv_chart.h **** lv_chart_series_t * lv_chart_add_series(lv_obj_t * chart, lv_color_t color);
 141:..\..\..\lvgl\version_6.1.2\lvgl\src\lv_objx/lv_chart.h **** 
 142:..\..\..\lvgl\version_6.1.2\lvgl\src\lv_objx/lv_chart.h **** /**
 143:..\..\..\lvgl\version_6.1.2\lvgl\src\lv_objx/lv_chart.h ****  * Clear the point of a serie
 144:..\..\..\lvgl\version_6.1.2\lvgl\src\lv_objx/lv_chart.h ****  * @param chart pointer to a chart object
 145:..\..\..\lvgl\version_6.1.2\lvgl\src\lv_objx/lv_chart.h ****  * @param serie pointer to the chart's serie to clear
 146:..\..\..\lvgl\version_6.1.2\lvgl\src\lv_objx/lv_chart.h ****  */
 147:..\..\..\lvgl\version_6.1.2\lvgl\src\lv_objx/lv_chart.h **** void lv_chart_clear_serie(lv_obj_t * chart, lv_chart_series_t * serie);
 148:..\..\..\lvgl\version_6.1.2\lvgl\src\lv_objx/lv_chart.h **** 
 149:..\..\..\lvgl\version_6.1.2\lvgl\src\lv_objx/lv_chart.h **** /*=====================
 150:..\..\..\lvgl\version_6.1.2\lvgl\src\lv_objx/lv_chart.h ****  * Setter functions
 151:..\..\..\lvgl\version_6.1.2\lvgl\src\lv_objx/lv_chart.h ****  *====================*/
 152:..\..\..\lvgl\version_6.1.2\lvgl\src\lv_objx/lv_chart.h **** 
 153:..\..\..\lvgl\version_6.1.2\lvgl\src\lv_objx/lv_chart.h **** /**
 154:..\..\..\lvgl\version_6.1.2\lvgl\src\lv_objx/lv_chart.h ****  * Set the number of horizontal and vertical division lines
 155:..\..\..\lvgl\version_6.1.2\lvgl\src\lv_objx/lv_chart.h ****  * @param chart pointer to a graph background object
 156:..\..\..\lvgl\version_6.1.2\lvgl\src\lv_objx/lv_chart.h ****  * @param hdiv number of horizontal division lines
 157:..\..\..\lvgl\version_6.1.2\lvgl\src\lv_objx/lv_chart.h ****  * @param vdiv number of vertical division lines
 158:..\..\..\lvgl\version_6.1.2\lvgl\src\lv_objx/lv_chart.h ****  */
 159:..\..\..\lvgl\version_6.1.2\lvgl\src\lv_objx/lv_chart.h **** void lv_chart_set_div_line_count(lv_obj_t * chart, uint8_t hdiv, uint8_t vdiv);
 160:..\..\..\lvgl\version_6.1.2\lvgl\src\lv_objx/lv_chart.h **** 
 161:..\..\..\lvgl\version_6.1.2\lvgl\src\lv_objx/lv_chart.h **** /**
 162:..\..\..\lvgl\version_6.1.2\lvgl\src\lv_objx/lv_chart.h ****  * Set the minimal and maximal y values
 163:..\..\..\lvgl\version_6.1.2\lvgl\src\lv_objx/lv_chart.h ****  * @param chart pointer to a graph background object
 164:..\..\..\lvgl\version_6.1.2\lvgl\src\lv_objx/lv_chart.h ****  * @param ymin y minimum value
ARM GAS  C:\Users\tmj32\AppData\Local\Temp\ccrrExWC.s 			page 14


 165:..\..\..\lvgl\version_6.1.2\lvgl\src\lv_objx/lv_chart.h ****  * @param ymax y maximum value
 166:..\..\..\lvgl\version_6.1.2\lvgl\src\lv_objx/lv_chart.h ****  */
 167:..\..\..\lvgl\version_6.1.2\lvgl\src\lv_objx/lv_chart.h **** void lv_chart_set_range(lv_obj_t * chart, lv_coord_t ymin, lv_coord_t ymax);
 168:..\..\..\lvgl\version_6.1.2\lvgl\src\lv_objx/lv_chart.h **** 
 169:..\..\..\lvgl\version_6.1.2\lvgl\src\lv_objx/lv_chart.h **** /**
 170:..\..\..\lvgl\version_6.1.2\lvgl\src\lv_objx/lv_chart.h ****  * Set a new type for a chart
 171:..\..\..\lvgl\version_6.1.2\lvgl\src\lv_objx/lv_chart.h ****  * @param chart pointer to a chart object
 172:..\..\..\lvgl\version_6.1.2\lvgl\src\lv_objx/lv_chart.h ****  * @param type new type of the chart (from 'lv_chart_type_t' enum)
 173:..\..\..\lvgl\version_6.1.2\lvgl\src\lv_objx/lv_chart.h ****  */
 174:..\..\..\lvgl\version_6.1.2\lvgl\src\lv_objx/lv_chart.h **** void lv_chart_set_type(lv_obj_t * chart, lv_chart_type_t type);
 175:..\..\..\lvgl\version_6.1.2\lvgl\src\lv_objx/lv_chart.h **** 
 176:..\..\..\lvgl\version_6.1.2\lvgl\src\lv_objx/lv_chart.h **** /**
 177:..\..\..\lvgl\version_6.1.2\lvgl\src\lv_objx/lv_chart.h ****  * Set the number of points on a data line on a chart
 178:..\..\..\lvgl\version_6.1.2\lvgl\src\lv_objx/lv_chart.h ****  * @param chart pointer r to chart object
 179:..\..\..\lvgl\version_6.1.2\lvgl\src\lv_objx/lv_chart.h ****  * @param point_cnt new number of points on the data lines
 180:..\..\..\lvgl\version_6.1.2\lvgl\src\lv_objx/lv_chart.h ****  */
 181:..\..\..\lvgl\version_6.1.2\lvgl\src\lv_objx/lv_chart.h **** void lv_chart_set_point_count(lv_obj_t * chart, uint16_t point_cnt);
 182:..\..\..\lvgl\version_6.1.2\lvgl\src\lv_objx/lv_chart.h **** 
 183:..\..\..\lvgl\version_6.1.2\lvgl\src\lv_objx/lv_chart.h **** /**
 184:..\..\..\lvgl\version_6.1.2\lvgl\src\lv_objx/lv_chart.h ****  * Set the opacity of the data series
 185:..\..\..\lvgl\version_6.1.2\lvgl\src\lv_objx/lv_chart.h ****  * @param chart pointer to a chart object
 186:..\..\..\lvgl\version_6.1.2\lvgl\src\lv_objx/lv_chart.h ****  * @param opa opacity of the data series
 187:..\..\..\lvgl\version_6.1.2\lvgl\src\lv_objx/lv_chart.h ****  */
 188:..\..\..\lvgl\version_6.1.2\lvgl\src\lv_objx/lv_chart.h **** void lv_chart_set_series_opa(lv_obj_t * chart, lv_opa_t opa);
 189:..\..\..\lvgl\version_6.1.2\lvgl\src\lv_objx/lv_chart.h **** 
 190:..\..\..\lvgl\version_6.1.2\lvgl\src\lv_objx/lv_chart.h **** /**
 191:..\..\..\lvgl\version_6.1.2\lvgl\src\lv_objx/lv_chart.h ****  * Set the line width or point radius of the data series
 192:..\..\..\lvgl\version_6.1.2\lvgl\src\lv_objx/lv_chart.h ****  * @param chart pointer to a chart object
 193:..\..\..\lvgl\version_6.1.2\lvgl\src\lv_objx/lv_chart.h ****  * @param width the new width
 194:..\..\..\lvgl\version_6.1.2\lvgl\src\lv_objx/lv_chart.h ****  */
 195:..\..\..\lvgl\version_6.1.2\lvgl\src\lv_objx/lv_chart.h **** void lv_chart_set_series_width(lv_obj_t * chart, lv_coord_t width);
 196:..\..\..\lvgl\version_6.1.2\lvgl\src\lv_objx/lv_chart.h **** 
 197:..\..\..\lvgl\version_6.1.2\lvgl\src\lv_objx/lv_chart.h **** /**
 198:..\..\..\lvgl\version_6.1.2\lvgl\src\lv_objx/lv_chart.h ****  * Set the dark effect on the bottom of the points or columns
 199:..\..\..\lvgl\version_6.1.2\lvgl\src\lv_objx/lv_chart.h ****  * @param chart pointer to a chart object
 200:..\..\..\lvgl\version_6.1.2\lvgl\src\lv_objx/lv_chart.h ****  * @param dark_eff dark effect level (LV_OPA_TRANSP to turn off)
 201:..\..\..\lvgl\version_6.1.2\lvgl\src\lv_objx/lv_chart.h ****  */
 202:..\..\..\lvgl\version_6.1.2\lvgl\src\lv_objx/lv_chart.h **** void lv_chart_set_series_darking(lv_obj_t * chart, lv_opa_t dark_eff);
 203:..\..\..\lvgl\version_6.1.2\lvgl\src\lv_objx/lv_chart.h **** 
 204:..\..\..\lvgl\version_6.1.2\lvgl\src\lv_objx/lv_chart.h **** /**
 205:..\..\..\lvgl\version_6.1.2\lvgl\src\lv_objx/lv_chart.h ****  * Initialize all data points with a value
 206:..\..\..\lvgl\version_6.1.2\lvgl\src\lv_objx/lv_chart.h ****  * @param chart pointer to chart object
 207:..\..\..\lvgl\version_6.1.2\lvgl\src\lv_objx/lv_chart.h ****  * @param ser pointer to a data series on 'chart'
 208:..\..\..\lvgl\version_6.1.2\lvgl\src\lv_objx/lv_chart.h ****  * @param y the new value  for all points
 209:..\..\..\lvgl\version_6.1.2\lvgl\src\lv_objx/lv_chart.h ****  */
 210:..\..\..\lvgl\version_6.1.2\lvgl\src\lv_objx/lv_chart.h **** void lv_chart_init_points(lv_obj_t * chart, lv_chart_series_t * ser, lv_coord_t y);
 211:..\..\..\lvgl\version_6.1.2\lvgl\src\lv_objx/lv_chart.h **** 
 212:..\..\..\lvgl\version_6.1.2\lvgl\src\lv_objx/lv_chart.h **** /**
 213:..\..\..\lvgl\version_6.1.2\lvgl\src\lv_objx/lv_chart.h ****  * Set the value of points from an array
 214:..\..\..\lvgl\version_6.1.2\lvgl\src\lv_objx/lv_chart.h ****  * @param chart pointer to chart object
 215:..\..\..\lvgl\version_6.1.2\lvgl\src\lv_objx/lv_chart.h ****  * @param ser pointer to a data series on 'chart'
 216:..\..\..\lvgl\version_6.1.2\lvgl\src\lv_objx/lv_chart.h ****  * @param y_array array of 'lv_coord_t' points (with 'points count' elements )
 217:..\..\..\lvgl\version_6.1.2\lvgl\src\lv_objx/lv_chart.h ****  */
 218:..\..\..\lvgl\version_6.1.2\lvgl\src\lv_objx/lv_chart.h **** void lv_chart_set_points(lv_obj_t * chart, lv_chart_series_t * ser, lv_coord_t y_array[]);
 219:..\..\..\lvgl\version_6.1.2\lvgl\src\lv_objx/lv_chart.h **** 
 220:..\..\..\lvgl\version_6.1.2\lvgl\src\lv_objx/lv_chart.h **** /**
 221:..\..\..\lvgl\version_6.1.2\lvgl\src\lv_objx/lv_chart.h ****  * Shift all data right and set the most right data on a data line
ARM GAS  C:\Users\tmj32\AppData\Local\Temp\ccrrExWC.s 			page 15


 222:..\..\..\lvgl\version_6.1.2\lvgl\src\lv_objx/lv_chart.h ****  * @param chart pointer to chart object
 223:..\..\..\lvgl\version_6.1.2\lvgl\src\lv_objx/lv_chart.h ****  * @param ser pointer to a data series on 'chart'
 224:..\..\..\lvgl\version_6.1.2\lvgl\src\lv_objx/lv_chart.h ****  * @param y the new value of the most right data
 225:..\..\..\lvgl\version_6.1.2\lvgl\src\lv_objx/lv_chart.h ****  */
 226:..\..\..\lvgl\version_6.1.2\lvgl\src\lv_objx/lv_chart.h **** void lv_chart_set_next(lv_obj_t * chart, lv_chart_series_t * ser, lv_coord_t y);
 227:..\..\..\lvgl\version_6.1.2\lvgl\src\lv_objx/lv_chart.h **** 
 228:..\..\..\lvgl\version_6.1.2\lvgl\src\lv_objx/lv_chart.h **** /**
 229:..\..\..\lvgl\version_6.1.2\lvgl\src\lv_objx/lv_chart.h ****  * Set update mode of the chart object.
 230:..\..\..\lvgl\version_6.1.2\lvgl\src\lv_objx/lv_chart.h ****  * @param chart pointer to a chart object
 231:..\..\..\lvgl\version_6.1.2\lvgl\src\lv_objx/lv_chart.h ****  * @param update mode
 232:..\..\..\lvgl\version_6.1.2\lvgl\src\lv_objx/lv_chart.h ****  */
 233:..\..\..\lvgl\version_6.1.2\lvgl\src\lv_objx/lv_chart.h **** void lv_chart_set_update_mode(lv_obj_t * chart, lv_chart_update_mode_t update_mode);
 234:..\..\..\lvgl\version_6.1.2\lvgl\src\lv_objx/lv_chart.h **** 
 235:..\..\..\lvgl\version_6.1.2\lvgl\src\lv_objx/lv_chart.h **** /**
 236:..\..\..\lvgl\version_6.1.2\lvgl\src\lv_objx/lv_chart.h ****  * Set the style of a chart
 237:..\..\..\lvgl\version_6.1.2\lvgl\src\lv_objx/lv_chart.h ****  * @param chart pointer to a chart object
 238:..\..\..\lvgl\version_6.1.2\lvgl\src\lv_objx/lv_chart.h ****  * @param type which style should be set (can be only `LV_CHART_STYLE_MAIN`)
 239:..\..\..\lvgl\version_6.1.2\lvgl\src\lv_objx/lv_chart.h ****  * @param style pointer to a style
 240:..\..\..\lvgl\version_6.1.2\lvgl\src\lv_objx/lv_chart.h ****  */
 241:..\..\..\lvgl\version_6.1.2\lvgl\src\lv_objx/lv_chart.h **** static inline void lv_chart_set_style(lv_obj_t * chart, lv_chart_style_t type, const lv_style_t * s
 242:..\..\..\lvgl\version_6.1.2\lvgl\src\lv_objx/lv_chart.h **** {
 131              		.loc 2 242 0
 132              		.cfi_startproc
 133              		@ args = 0, pretend = 0, frame = 16
 134              		@ frame_needed = 1, uses_anonymous_args = 0
 135 0000 80B5     		push	{r7, lr}
 136              		.cfi_def_cfa_offset 8
 137              		.cfi_offset 7, -8
 138              		.cfi_offset 14, -4
 139 0002 84B0     		sub	sp, sp, #16
 140              		.cfi_def_cfa_offset 24
 141 0004 00AF     		add	r7, sp, #0
 142              		.cfi_def_cfa_register 7
 143 0006 F860     		str	r0, [r7, #12]
 144 0008 0B46     		mov	r3, r1
 145 000a 7A60     		str	r2, [r7, #4]
 146 000c FB72     		strb	r3, [r7, #11]
 243:..\..\..\lvgl\version_6.1.2\lvgl\src\lv_objx/lv_chart.h ****     (void)type; /*Unused*/
 244:..\..\..\lvgl\version_6.1.2\lvgl\src\lv_objx/lv_chart.h ****     lv_obj_set_style(chart, style);
 147              		.loc 2 244 0
 148 000e 7968     		ldr	r1, [r7, #4]
 149 0010 F868     		ldr	r0, [r7, #12]
 150 0012 FFF7FEFF 		bl	lv_obj_set_style
 245:..\..\..\lvgl\version_6.1.2\lvgl\src\lv_objx/lv_chart.h **** }
 151              		.loc 2 245 0
 152 0016 00BF     		nop
 153 0018 1037     		adds	r7, r7, #16
 154              		.cfi_def_cfa_offset 8
 155 001a BD46     		mov	sp, r7
 156              		.cfi_def_cfa_register 13
 157              		@ sp needed
 158 001c 80BD     		pop	{r7, pc}
 159              		.cfi_endproc
 160              	.LFE33:
 161              		.size	lv_chart_set_style, .-lv_chart_set_style
 162 001e 00BF     		.bss
 163              		.align	2
ARM GAS  C:\Users\tmj32\AppData\Local\Temp\ccrrExWC.s 			page 16


 164              	ancestor_design_f:
 165 0000 00000000 		.space	4
 166              		.align	2
 167              	ancestor_signal:
 168 0004 00000000 		.space	4
 169              		.section	.text.lv_chart_create,"ax",%progbits
 170              		.align	2
 171              		.global	lv_chart_create
 172              		.thumb
 173              		.thumb_func
 174              		.type	lv_chart_create, %function
 175              	lv_chart_create:
 176              	.LFB35:
 177              		.file 3 "..\\..\\..\\lvgl\\version_6.1.2\\lvgl\\src\\lv_objx\\lv_chart.c"
   1:..\..\..\lvgl\version_6.1.2\lvgl\src\lv_objx/lv_chart.c **** /**
   2:..\..\..\lvgl\version_6.1.2\lvgl\src\lv_objx/lv_chart.c ****  * @file lv_chart.c
   3:..\..\..\lvgl\version_6.1.2\lvgl\src\lv_objx/lv_chart.c ****  *
   4:..\..\..\lvgl\version_6.1.2\lvgl\src\lv_objx/lv_chart.c ****  */
   5:..\..\..\lvgl\version_6.1.2\lvgl\src\lv_objx/lv_chart.c **** 
   6:..\..\..\lvgl\version_6.1.2\lvgl\src\lv_objx/lv_chart.c **** /*********************
   7:..\..\..\lvgl\version_6.1.2\lvgl\src\lv_objx/lv_chart.c ****  *      INCLUDES
   8:..\..\..\lvgl\version_6.1.2\lvgl\src\lv_objx/lv_chart.c ****  *********************/
   9:..\..\..\lvgl\version_6.1.2\lvgl\src\lv_objx/lv_chart.c **** #include "lv_chart.h"
  10:..\..\..\lvgl\version_6.1.2\lvgl\src\lv_objx/lv_chart.c **** #if LV_USE_CHART != 0
  11:..\..\..\lvgl\version_6.1.2\lvgl\src\lv_objx/lv_chart.c **** 
  12:..\..\..\lvgl\version_6.1.2\lvgl\src\lv_objx/lv_chart.c **** #include "../lv_core/lv_debug.h"
  13:..\..\..\lvgl\version_6.1.2\lvgl\src\lv_objx/lv_chart.c **** #include "../lv_core/lv_refr.h"
  14:..\..\..\lvgl\version_6.1.2\lvgl\src\lv_objx/lv_chart.c **** #include "../lv_draw/lv_draw.h"
  15:..\..\..\lvgl\version_6.1.2\lvgl\src\lv_objx/lv_chart.c **** #include "../lv_themes/lv_theme.h"
  16:..\..\..\lvgl\version_6.1.2\lvgl\src\lv_objx/lv_chart.c **** 
  17:..\..\..\lvgl\version_6.1.2\lvgl\src\lv_objx/lv_chart.c **** /*********************
  18:..\..\..\lvgl\version_6.1.2\lvgl\src\lv_objx/lv_chart.c ****  *      DEFINES
  19:..\..\..\lvgl\version_6.1.2\lvgl\src\lv_objx/lv_chart.c ****  *********************/
  20:..\..\..\lvgl\version_6.1.2\lvgl\src\lv_objx/lv_chart.c **** #define LV_OBJX_NAME "lv_chart"
  21:..\..\..\lvgl\version_6.1.2\lvgl\src\lv_objx/lv_chart.c **** 
  22:..\..\..\lvgl\version_6.1.2\lvgl\src\lv_objx/lv_chart.c **** #define LV_CHART_YMIN_DEF 0
  23:..\..\..\lvgl\version_6.1.2\lvgl\src\lv_objx/lv_chart.c **** #define LV_CHART_YMAX_DEF 100
  24:..\..\..\lvgl\version_6.1.2\lvgl\src\lv_objx/lv_chart.c **** #define LV_CHART_HDIV_DEF 3
  25:..\..\..\lvgl\version_6.1.2\lvgl\src\lv_objx/lv_chart.c **** #define LV_CHART_VDIV_DEF 5
  26:..\..\..\lvgl\version_6.1.2\lvgl\src\lv_objx/lv_chart.c **** #define LV_CHART_PNUM_DEF 10
  27:..\..\..\lvgl\version_6.1.2\lvgl\src\lv_objx/lv_chart.c **** #define LV_CHART_AXIS_TO_LABEL_DISTANCE 4
  28:..\..\..\lvgl\version_6.1.2\lvgl\src\lv_objx/lv_chart.c **** #define LV_CHART_AXIS_MAJOR_TICK_LEN_COE 1 / 15
  29:..\..\..\lvgl\version_6.1.2\lvgl\src\lv_objx/lv_chart.c **** #define LV_CHART_AXIS_MINOR_TICK_LEN_COE 2 / 3
  30:..\..\..\lvgl\version_6.1.2\lvgl\src\lv_objx/lv_chart.c **** #define LV_CHART_AXIS_PRIMARY_Y 1
  31:..\..\..\lvgl\version_6.1.2\lvgl\src\lv_objx/lv_chart.c **** #define LV_CHART_AXIS_SECONDARY_Y 0
  32:..\..\..\lvgl\version_6.1.2\lvgl\src\lv_objx/lv_chart.c **** #define LV_CHART_LABEL_ITERATOR_FORWARD 1
  33:..\..\..\lvgl\version_6.1.2\lvgl\src\lv_objx/lv_chart.c **** #define LV_CHART_LABEL_ITERATOR_REVERSE 0
  34:..\..\..\lvgl\version_6.1.2\lvgl\src\lv_objx/lv_chart.c **** 
  35:..\..\..\lvgl\version_6.1.2\lvgl\src\lv_objx/lv_chart.c **** /**********************
  36:..\..\..\lvgl\version_6.1.2\lvgl\src\lv_objx/lv_chart.c ****  *      TYPEDEFS
  37:..\..\..\lvgl\version_6.1.2\lvgl\src\lv_objx/lv_chart.c ****  **********************/
  38:..\..\..\lvgl\version_6.1.2\lvgl\src\lv_objx/lv_chart.c **** 
  39:..\..\..\lvgl\version_6.1.2\lvgl\src\lv_objx/lv_chart.c **** typedef struct {
  40:..\..\..\lvgl\version_6.1.2\lvgl\src\lv_objx/lv_chart.c ****     const char * list_start;
  41:..\..\..\lvgl\version_6.1.2\lvgl\src\lv_objx/lv_chart.c ****     const char * current_pos;
  42:..\..\..\lvgl\version_6.1.2\lvgl\src\lv_objx/lv_chart.c ****     uint8_t items_left;
  43:..\..\..\lvgl\version_6.1.2\lvgl\src\lv_objx/lv_chart.c ****     uint8_t is_reverse_iter;
ARM GAS  C:\Users\tmj32\AppData\Local\Temp\ccrrExWC.s 			page 17


  44:..\..\..\lvgl\version_6.1.2\lvgl\src\lv_objx/lv_chart.c **** } lv_chart_label_iterator_t;
  45:..\..\..\lvgl\version_6.1.2\lvgl\src\lv_objx/lv_chart.c **** 
  46:..\..\..\lvgl\version_6.1.2\lvgl\src\lv_objx/lv_chart.c **** /**********************
  47:..\..\..\lvgl\version_6.1.2\lvgl\src\lv_objx/lv_chart.c ****  *  STATIC PROTOTYPES
  48:..\..\..\lvgl\version_6.1.2\lvgl\src\lv_objx/lv_chart.c ****  **********************/
  49:..\..\..\lvgl\version_6.1.2\lvgl\src\lv_objx/lv_chart.c **** static bool lv_chart_design(lv_obj_t * chart, const lv_area_t * mask, lv_design_mode_t mode);
  50:..\..\..\lvgl\version_6.1.2\lvgl\src\lv_objx/lv_chart.c **** static lv_res_t lv_chart_signal(lv_obj_t * chart, lv_signal_t sign, void * param);
  51:..\..\..\lvgl\version_6.1.2\lvgl\src\lv_objx/lv_chart.c **** static void lv_chart_draw_div(lv_obj_t * chart, const lv_area_t * mask);
  52:..\..\..\lvgl\version_6.1.2\lvgl\src\lv_objx/lv_chart.c **** static void lv_chart_draw_lines(lv_obj_t * chart, const lv_area_t * mask);
  53:..\..\..\lvgl\version_6.1.2\lvgl\src\lv_objx/lv_chart.c **** static void lv_chart_draw_points(lv_obj_t * chart, const lv_area_t * mask);
  54:..\..\..\lvgl\version_6.1.2\lvgl\src\lv_objx/lv_chart.c **** static void lv_chart_draw_cols(lv_obj_t * chart, const lv_area_t * mask);
  55:..\..\..\lvgl\version_6.1.2\lvgl\src\lv_objx/lv_chart.c **** static void lv_chart_draw_vertical_lines(lv_obj_t * chart, const lv_area_t * mask);
  56:..\..\..\lvgl\version_6.1.2\lvgl\src\lv_objx/lv_chart.c **** static void lv_chart_draw_areas(lv_obj_t * chart, const lv_area_t * mask);
  57:..\..\..\lvgl\version_6.1.2\lvgl\src\lv_objx/lv_chart.c **** static void lv_chart_draw_axes(lv_obj_t * chart, const lv_area_t * mask);
  58:..\..\..\lvgl\version_6.1.2\lvgl\src\lv_objx/lv_chart.c **** static void lv_chart_inv_lines(lv_obj_t * chart, uint16_t i);
  59:..\..\..\lvgl\version_6.1.2\lvgl\src\lv_objx/lv_chart.c **** static void lv_chart_inv_points(lv_obj_t * chart, uint16_t i);
  60:..\..\..\lvgl\version_6.1.2\lvgl\src\lv_objx/lv_chart.c **** static void lv_chart_inv_cols(lv_obj_t * chart, uint16_t i);
  61:..\..\..\lvgl\version_6.1.2\lvgl\src\lv_objx/lv_chart.c **** static void lv_chart_get_next_label(lv_chart_label_iterator_t * iterator, char * buf);
  62:..\..\..\lvgl\version_6.1.2\lvgl\src\lv_objx/lv_chart.c **** static inline bool lv_chart_is_tick_with_label(uint8_t tick_num, lv_chart_axis_cfg_t * axis);
  63:..\..\..\lvgl\version_6.1.2\lvgl\src\lv_objx/lv_chart.c **** static lv_chart_label_iterator_t lv_chart_create_label_iter(const char * list, uint8_t iterator_dir
  64:..\..\..\lvgl\version_6.1.2\lvgl\src\lv_objx/lv_chart.c **** 
  65:..\..\..\lvgl\version_6.1.2\lvgl\src\lv_objx/lv_chart.c **** /**********************
  66:..\..\..\lvgl\version_6.1.2\lvgl\src\lv_objx/lv_chart.c ****  *  STATIC VARIABLES
  67:..\..\..\lvgl\version_6.1.2\lvgl\src\lv_objx/lv_chart.c ****  **********************/
  68:..\..\..\lvgl\version_6.1.2\lvgl\src\lv_objx/lv_chart.c **** static lv_design_cb_t ancestor_design_f;
  69:..\..\..\lvgl\version_6.1.2\lvgl\src\lv_objx/lv_chart.c **** static lv_signal_cb_t ancestor_signal;
  70:..\..\..\lvgl\version_6.1.2\lvgl\src\lv_objx/lv_chart.c **** 
  71:..\..\..\lvgl\version_6.1.2\lvgl\src\lv_objx/lv_chart.c **** /**********************
  72:..\..\..\lvgl\version_6.1.2\lvgl\src\lv_objx/lv_chart.c ****  *      MACROS
  73:..\..\..\lvgl\version_6.1.2\lvgl\src\lv_objx/lv_chart.c ****  **********************/
  74:..\..\..\lvgl\version_6.1.2\lvgl\src\lv_objx/lv_chart.c **** 
  75:..\..\..\lvgl\version_6.1.2\lvgl\src\lv_objx/lv_chart.c **** /**********************
  76:..\..\..\lvgl\version_6.1.2\lvgl\src\lv_objx/lv_chart.c ****  *   GLOBAL FUNCTIONS
  77:..\..\..\lvgl\version_6.1.2\lvgl\src\lv_objx/lv_chart.c ****  **********************/
  78:..\..\..\lvgl\version_6.1.2\lvgl\src\lv_objx/lv_chart.c **** 
  79:..\..\..\lvgl\version_6.1.2\lvgl\src\lv_objx/lv_chart.c **** /**
  80:..\..\..\lvgl\version_6.1.2\lvgl\src\lv_objx/lv_chart.c ****  * Create a chart background objects
  81:..\..\..\lvgl\version_6.1.2\lvgl\src\lv_objx/lv_chart.c ****  * @param par pointer to an object, it will be the parent of the new chart background
  82:..\..\..\lvgl\version_6.1.2\lvgl\src\lv_objx/lv_chart.c ****  * @param copy pointer to a chart background object, if not NULL then the new object will be copied
  83:..\..\..\lvgl\version_6.1.2\lvgl\src\lv_objx/lv_chart.c ****  * from it
  84:..\..\..\lvgl\version_6.1.2\lvgl\src\lv_objx/lv_chart.c ****  * @return pointer to the created chart background
  85:..\..\..\lvgl\version_6.1.2\lvgl\src\lv_objx/lv_chart.c ****  */
  86:..\..\..\lvgl\version_6.1.2\lvgl\src\lv_objx/lv_chart.c **** lv_obj_t * lv_chart_create(lv_obj_t * par, const lv_obj_t * copy)
  87:..\..\..\lvgl\version_6.1.2\lvgl\src\lv_objx/lv_chart.c **** {
 178              		.loc 3 87 0
 179              		.cfi_startproc
 180              		@ args = 0, pretend = 0, frame = 24
 181              		@ frame_needed = 1, uses_anonymous_args = 0
 182 0000 80B5     		push	{r7, lr}
 183              		.cfi_def_cfa_offset 8
 184              		.cfi_offset 7, -8
 185              		.cfi_offset 14, -4
 186 0002 86B0     		sub	sp, sp, #24
 187              		.cfi_def_cfa_offset 32
 188 0004 00AF     		add	r7, sp, #0
 189              		.cfi_def_cfa_register 7
 190 0006 7860     		str	r0, [r7, #4]
ARM GAS  C:\Users\tmj32\AppData\Local\Temp\ccrrExWC.s 			page 18


 191 0008 3960     		str	r1, [r7]
  88:..\..\..\lvgl\version_6.1.2\lvgl\src\lv_objx/lv_chart.c ****     LV_LOG_TRACE("chart create started");
  89:..\..\..\lvgl\version_6.1.2\lvgl\src\lv_objx/lv_chart.c **** 
  90:..\..\..\lvgl\version_6.1.2\lvgl\src\lv_objx/lv_chart.c ****     /*Create the ancestor basic object*/
  91:..\..\..\lvgl\version_6.1.2\lvgl\src\lv_objx/lv_chart.c ****     lv_obj_t * new_chart = lv_obj_create(par, copy);
 192              		.loc 3 91 0
 193 000a 3968     		ldr	r1, [r7]
 194 000c 7868     		ldr	r0, [r7, #4]
 195 000e FFF7FEFF 		bl	lv_obj_create
 196 0012 7861     		str	r0, [r7, #20]
  92:..\..\..\lvgl\version_6.1.2\lvgl\src\lv_objx/lv_chart.c ****     LV_ASSERT_MEM(new_chart);
  93:..\..\..\lvgl\version_6.1.2\lvgl\src\lv_objx/lv_chart.c ****     if(new_chart == NULL) return NULL;
 197              		.loc 3 93 0
 198 0014 7B69     		ldr	r3, [r7, #20]
 199 0016 002B     		cmp	r3, #0
 200 0018 01D1     		bne	.L5
 201              		.loc 3 93 0 is_stmt 0 discriminator 1
 202 001a 0023     		movs	r3, #0
 203 001c E6E0     		b	.L6
 204              	.L5:
  94:..\..\..\lvgl\version_6.1.2\lvgl\src\lv_objx/lv_chart.c **** 
  95:..\..\..\lvgl\version_6.1.2\lvgl\src\lv_objx/lv_chart.c ****     /*Allocate the object type specific extended data*/
  96:..\..\..\lvgl\version_6.1.2\lvgl\src\lv_objx/lv_chart.c ****     lv_chart_ext_t * ext = lv_obj_allocate_ext_attr(new_chart, sizeof(lv_chart_ext_t));
 205              		.loc 3 96 0 is_stmt 1
 206 001e 3C21     		movs	r1, #60
 207 0020 7869     		ldr	r0, [r7, #20]
 208 0022 FFF7FEFF 		bl	lv_obj_allocate_ext_attr
 209 0026 3861     		str	r0, [r7, #16]
  97:..\..\..\lvgl\version_6.1.2\lvgl\src\lv_objx/lv_chart.c ****     LV_ASSERT_MEM(ext);
  98:..\..\..\lvgl\version_6.1.2\lvgl\src\lv_objx/lv_chart.c ****     if(ext == NULL) return NULL;
 210              		.loc 3 98 0
 211 0028 3B69     		ldr	r3, [r7, #16]
 212 002a 002B     		cmp	r3, #0
 213 002c 01D1     		bne	.L7
 214              		.loc 3 98 0 is_stmt 0 discriminator 1
 215 002e 0023     		movs	r3, #0
 216 0030 DCE0     		b	.L6
 217              	.L7:
  99:..\..\..\lvgl\version_6.1.2\lvgl\src\lv_objx/lv_chart.c **** 
 100:..\..\..\lvgl\version_6.1.2\lvgl\src\lv_objx/lv_chart.c ****     lv_ll_init(&ext->series_ll, sizeof(lv_chart_series_t));
 218              		.loc 3 100 0 is_stmt 1
 219 0032 3B69     		ldr	r3, [r7, #16]
 220 0034 0C21     		movs	r1, #12
 221 0036 1846     		mov	r0, r3
 222 0038 FFF7FEFF 		bl	lv_ll_init
 101:..\..\..\lvgl\version_6.1.2\lvgl\src\lv_objx/lv_chart.c **** 
 102:..\..\..\lvgl\version_6.1.2\lvgl\src\lv_objx/lv_chart.c ****     ext->series.num            = 0;
 223              		.loc 3 102 0
 224 003c 3B69     		ldr	r3, [r7, #16]
 225 003e 0022     		movs	r2, #0
 226 0040 83F83620 		strb	r2, [r3, #54]
 103:..\..\..\lvgl\version_6.1.2\lvgl\src\lv_objx/lv_chart.c ****     ext->ymin                  = LV_CHART_YMIN_DEF;
 227              		.loc 3 103 0
 228 0044 3B69     		ldr	r3, [r7, #16]
 229 0046 0022     		movs	r2, #0
 230 0048 9A81     		strh	r2, [r3, #12]	@ movhi
 104:..\..\..\lvgl\version_6.1.2\lvgl\src\lv_objx/lv_chart.c ****     ext->ymax                  = LV_CHART_YMAX_DEF;
ARM GAS  C:\Users\tmj32\AppData\Local\Temp\ccrrExWC.s 			page 19


 231              		.loc 3 104 0
 232 004a 3B69     		ldr	r3, [r7, #16]
 233 004c 6422     		movs	r2, #100
 234 004e DA81     		strh	r2, [r3, #14]	@ movhi
 105:..\..\..\lvgl\version_6.1.2\lvgl\src\lv_objx/lv_chart.c ****     ext->hdiv_cnt              = LV_CHART_HDIV_DEF;
 235              		.loc 3 105 0
 236 0050 3B69     		ldr	r3, [r7, #16]
 237 0052 0322     		movs	r2, #3
 238 0054 1A74     		strb	r2, [r3, #16]
 106:..\..\..\lvgl\version_6.1.2\lvgl\src\lv_objx/lv_chart.c ****     ext->vdiv_cnt              = LV_CHART_VDIV_DEF;
 239              		.loc 3 106 0
 240 0056 3B69     		ldr	r3, [r7, #16]
 241 0058 0522     		movs	r2, #5
 242 005a 5A74     		strb	r2, [r3, #17]
 107:..\..\..\lvgl\version_6.1.2\lvgl\src\lv_objx/lv_chart.c ****     ext->point_cnt             = LV_CHART_PNUM_DEF;
 243              		.loc 3 107 0
 244 005c 3B69     		ldr	r3, [r7, #16]
 245 005e 0A22     		movs	r2, #10
 246 0060 5A82     		strh	r2, [r3, #18]	@ movhi
 108:..\..\..\lvgl\version_6.1.2\lvgl\src\lv_objx/lv_chart.c ****     ext->type                  = LV_CHART_TYPE_LINE;
 247              		.loc 3 108 0
 248 0062 3B69     		ldr	r3, [r7, #16]
 249 0064 0122     		movs	r2, #1
 250 0066 1A75     		strb	r2, [r3, #20]
 109:..\..\..\lvgl\version_6.1.2\lvgl\src\lv_objx/lv_chart.c ****     ext->update_mode           = LV_CHART_UPDATE_MODE_SHIFT;
 251              		.loc 3 109 0
 252 0068 3A69     		ldr	r2, [r7, #16]
 253 006a 92F83230 		ldrb	r3, [r2, #50]
 254 006e 6FF30003 		bfc	r3, #0, #1
 255 0072 82F83230 		strb	r3, [r2, #50]
 110:..\..\..\lvgl\version_6.1.2\lvgl\src\lv_objx/lv_chart.c ****     ext->series.opa            = LV_OPA_COVER;
 256              		.loc 3 110 0
 257 0076 3B69     		ldr	r3, [r7, #16]
 258 0078 FF22     		movs	r2, #255
 259 007a 83F83720 		strb	r2, [r3, #55]
 111:..\..\..\lvgl\version_6.1.2\lvgl\src\lv_objx/lv_chart.c ****     ext->series.dark           = LV_OPA_50;
 260              		.loc 3 111 0
 261 007e 3B69     		ldr	r3, [r7, #16]
 262 0080 7F22     		movs	r2, #127
 263 0082 83F83820 		strb	r2, [r3, #56]
 112:..\..\..\lvgl\version_6.1.2\lvgl\src\lv_objx/lv_chart.c ****     ext->series.width          = 2;
 264              		.loc 3 112 0
 265 0086 3B69     		ldr	r3, [r7, #16]
 266 0088 0222     		movs	r2, #2
 267 008a 9A86     		strh	r2, [r3, #52]	@ movhi
 113:..\..\..\lvgl\version_6.1.2\lvgl\src\lv_objx/lv_chart.c ****     ext->margin                = 0;
 268              		.loc 3 113 0
 269 008c 3B69     		ldr	r3, [r7, #16]
 270 008e 0022     		movs	r2, #0
 271 0090 1A86     		strh	r2, [r3, #48]	@ movhi
 114:..\..\..\lvgl\version_6.1.2\lvgl\src\lv_objx/lv_chart.c ****     memset(&ext->x_axis, 0, sizeof(ext->x_axis));
 272              		.loc 3 114 0
 273 0092 3B69     		ldr	r3, [r7, #16]
 274 0094 2033     		adds	r3, r3, #32
 275 0096 0822     		movs	r2, #8
 276 0098 0021     		movs	r1, #0
 277 009a 1846     		mov	r0, r3
ARM GAS  C:\Users\tmj32\AppData\Local\Temp\ccrrExWC.s 			page 20


 278 009c FFF7FEFF 		bl	memset
 115:..\..\..\lvgl\version_6.1.2\lvgl\src\lv_objx/lv_chart.c ****     memset(&ext->y_axis, 0, sizeof(ext->y_axis));
 279              		.loc 3 115 0
 280 00a0 3B69     		ldr	r3, [r7, #16]
 281 00a2 1833     		adds	r3, r3, #24
 282 00a4 0822     		movs	r2, #8
 283 00a6 0021     		movs	r1, #0
 284 00a8 1846     		mov	r0, r3
 285 00aa FFF7FEFF 		bl	memset
 116:..\..\..\lvgl\version_6.1.2\lvgl\src\lv_objx/lv_chart.c ****     memset(&ext->secondary_y_axis, 0, sizeof(ext->secondary_y_axis));
 286              		.loc 3 116 0
 287 00ae 3B69     		ldr	r3, [r7, #16]
 288 00b0 2833     		adds	r3, r3, #40
 289 00b2 0822     		movs	r2, #8
 290 00b4 0021     		movs	r1, #0
 291 00b6 1846     		mov	r0, r3
 292 00b8 FFF7FEFF 		bl	memset
 117:..\..\..\lvgl\version_6.1.2\lvgl\src\lv_objx/lv_chart.c ****     ext->x_axis.major_tick_len = LV_CHART_TICK_LENGTH_AUTO;
 293              		.loc 3 117 0
 294 00bc 3B69     		ldr	r3, [r7, #16]
 295 00be FF22     		movs	r2, #255
 296 00c0 83F82620 		strb	r2, [r3, #38]
 118:..\..\..\lvgl\version_6.1.2\lvgl\src\lv_objx/lv_chart.c ****     ext->x_axis.minor_tick_len = LV_CHART_TICK_LENGTH_AUTO;
 297              		.loc 3 118 0
 298 00c4 3B69     		ldr	r3, [r7, #16]
 299 00c6 FF22     		movs	r2, #255
 300 00c8 83F82720 		strb	r2, [r3, #39]
 119:..\..\..\lvgl\version_6.1.2\lvgl\src\lv_objx/lv_chart.c ****     ext->y_axis.major_tick_len = LV_CHART_TICK_LENGTH_AUTO;
 301              		.loc 3 119 0
 302 00cc 3B69     		ldr	r3, [r7, #16]
 303 00ce FF22     		movs	r2, #255
 304 00d0 9A77     		strb	r2, [r3, #30]
 120:..\..\..\lvgl\version_6.1.2\lvgl\src\lv_objx/lv_chart.c ****     ext->y_axis.minor_tick_len = LV_CHART_TICK_LENGTH_AUTO;
 305              		.loc 3 120 0
 306 00d2 3B69     		ldr	r3, [r7, #16]
 307 00d4 FF22     		movs	r2, #255
 308 00d6 DA77     		strb	r2, [r3, #31]
 121:..\..\..\lvgl\version_6.1.2\lvgl\src\lv_objx/lv_chart.c ****     ext->secondary_y_axis.major_tick_len = LV_CHART_TICK_LENGTH_AUTO;
 309              		.loc 3 121 0
 310 00d8 3B69     		ldr	r3, [r7, #16]
 311 00da FF22     		movs	r2, #255
 312 00dc 83F82E20 		strb	r2, [r3, #46]
 122:..\..\..\lvgl\version_6.1.2\lvgl\src\lv_objx/lv_chart.c ****     ext->secondary_y_axis.minor_tick_len = LV_CHART_TICK_LENGTH_AUTO;
 313              		.loc 3 122 0
 314 00e0 3B69     		ldr	r3, [r7, #16]
 315 00e2 FF22     		movs	r2, #255
 316 00e4 83F82F20 		strb	r2, [r3, #47]
 123:..\..\..\lvgl\version_6.1.2\lvgl\src\lv_objx/lv_chart.c **** 
 124:..\..\..\lvgl\version_6.1.2\lvgl\src\lv_objx/lv_chart.c ****     if(ancestor_design_f == NULL) ancestor_design_f = lv_obj_get_design_cb(new_chart);
 317              		.loc 3 124 0
 318 00e8 424B     		ldr	r3, .L14
 319 00ea 1B68     		ldr	r3, [r3]
 320 00ec 002B     		cmp	r3, #0
 321 00ee 05D1     		bne	.L8
 322              		.loc 3 124 0 is_stmt 0 discriminator 1
 323 00f0 7869     		ldr	r0, [r7, #20]
 324 00f2 FFF7FEFF 		bl	lv_obj_get_design_cb
ARM GAS  C:\Users\tmj32\AppData\Local\Temp\ccrrExWC.s 			page 21


 325 00f6 0246     		mov	r2, r0
 326 00f8 3E4B     		ldr	r3, .L14
 327 00fa 1A60     		str	r2, [r3]
 328              	.L8:
 125:..\..\..\lvgl\version_6.1.2\lvgl\src\lv_objx/lv_chart.c ****     if(ancestor_signal == NULL) ancestor_signal = lv_obj_get_signal_cb(new_chart);
 329              		.loc 3 125 0 is_stmt 1
 330 00fc 3E4B     		ldr	r3, .L14+4
 331 00fe 1B68     		ldr	r3, [r3]
 332 0100 002B     		cmp	r3, #0
 333 0102 05D1     		bne	.L9
 334              		.loc 3 125 0 is_stmt 0 discriminator 1
 335 0104 7869     		ldr	r0, [r7, #20]
 336 0106 FFF7FEFF 		bl	lv_obj_get_signal_cb
 337 010a 0246     		mov	r2, r0
 338 010c 3A4B     		ldr	r3, .L14+4
 339 010e 1A60     		str	r2, [r3]
 340              	.L9:
 126:..\..\..\lvgl\version_6.1.2\lvgl\src\lv_objx/lv_chart.c **** 
 127:..\..\..\lvgl\version_6.1.2\lvgl\src\lv_objx/lv_chart.c ****     lv_obj_set_signal_cb(new_chart, lv_chart_signal);
 341              		.loc 3 127 0 is_stmt 1
 342 0110 3A49     		ldr	r1, .L14+8
 343 0112 7869     		ldr	r0, [r7, #20]
 344 0114 FFF7FEFF 		bl	lv_obj_set_signal_cb
 128:..\..\..\lvgl\version_6.1.2\lvgl\src\lv_objx/lv_chart.c ****     lv_obj_set_design_cb(new_chart, lv_chart_design);
 345              		.loc 3 128 0
 346 0118 3949     		ldr	r1, .L14+12
 347 011a 7869     		ldr	r0, [r7, #20]
 348 011c FFF7FEFF 		bl	lv_obj_set_design_cb
 129:..\..\..\lvgl\version_6.1.2\lvgl\src\lv_objx/lv_chart.c **** 
 130:..\..\..\lvgl\version_6.1.2\lvgl\src\lv_objx/lv_chart.c ****     /*Init the new chart background object*/
 131:..\..\..\lvgl\version_6.1.2\lvgl\src\lv_objx/lv_chart.c ****     if(copy == NULL) {
 349              		.loc 3 131 0
 350 0120 3B68     		ldr	r3, [r7]
 351 0122 002B     		cmp	r3, #0
 352 0124 1BD1     		bne	.L10
 353              	.LBB2:
 132:..\..\..\lvgl\version_6.1.2\lvgl\src\lv_objx/lv_chart.c ****         lv_obj_set_size(new_chart, LV_DPI * 3, LV_DPI * 2);
 354              		.loc 3 132 0
 355 0126 4FF49672 		mov	r2, #300
 356 012a 4FF4E171 		mov	r1, #450
 357 012e 7869     		ldr	r0, [r7, #20]
 358 0130 FFF7FEFF 		bl	lv_obj_set_size
 133:..\..\..\lvgl\version_6.1.2\lvgl\src\lv_objx/lv_chart.c **** 
 134:..\..\..\lvgl\version_6.1.2\lvgl\src\lv_objx/lv_chart.c ****         /*Set the default styles*/
 135:..\..\..\lvgl\version_6.1.2\lvgl\src\lv_objx/lv_chart.c ****         lv_theme_t * th = lv_theme_get_current();
 359              		.loc 3 135 0
 360 0134 FFF7FEFF 		bl	lv_theme_get_current
 361 0138 F860     		str	r0, [r7, #12]
 136:..\..\..\lvgl\version_6.1.2\lvgl\src\lv_objx/lv_chart.c ****         if(th) {
 362              		.loc 3 136 0
 363 013a FB68     		ldr	r3, [r7, #12]
 364 013c 002B     		cmp	r3, #0
 365 013e 08D0     		beq	.L11
 137:..\..\..\lvgl\version_6.1.2\lvgl\src\lv_objx/lv_chart.c ****             lv_chart_set_style(new_chart, LV_CHART_STYLE_MAIN, th->style.chart);
 366              		.loc 3 137 0
 367 0140 FB68     		ldr	r3, [r7, #12]
 368 0142 D3F88830 		ldr	r3, [r3, #136]
ARM GAS  C:\Users\tmj32\AppData\Local\Temp\ccrrExWC.s 			page 22


 369 0146 1A46     		mov	r2, r3
 370 0148 0021     		movs	r1, #0
 371 014a 7869     		ldr	r0, [r7, #20]
 372 014c FFF7FEFF 		bl	lv_chart_set_style
 373 0150 4BE0     		b	.L13
 374              	.L11:
 138:..\..\..\lvgl\version_6.1.2\lvgl\src\lv_objx/lv_chart.c ****         } else {
 139:..\..\..\lvgl\version_6.1.2\lvgl\src\lv_objx/lv_chart.c ****             lv_chart_set_style(new_chart, LV_CHART_STYLE_MAIN, &lv_style_pretty);
 375              		.loc 3 139 0
 376 0152 2C4A     		ldr	r2, .L14+16
 377 0154 0021     		movs	r1, #0
 378 0156 7869     		ldr	r0, [r7, #20]
 379 0158 FFF7FEFF 		bl	lv_chart_set_style
 380 015c 45E0     		b	.L13
 381              	.L10:
 382              	.LBE2:
 383              	.LBB3:
 140:..\..\..\lvgl\version_6.1.2\lvgl\src\lv_objx/lv_chart.c ****         }
 141:..\..\..\lvgl\version_6.1.2\lvgl\src\lv_objx/lv_chart.c **** 
 142:..\..\..\lvgl\version_6.1.2\lvgl\src\lv_objx/lv_chart.c ****     } else {
 143:..\..\..\lvgl\version_6.1.2\lvgl\src\lv_objx/lv_chart.c ****         lv_chart_ext_t * ext_copy = lv_obj_get_ext_attr(copy);
 384              		.loc 3 143 0
 385 015e 3868     		ldr	r0, [r7]
 386 0160 FFF7FEFF 		bl	lv_obj_get_ext_attr
 387 0164 B860     		str	r0, [r7, #8]
 144:..\..\..\lvgl\version_6.1.2\lvgl\src\lv_objx/lv_chart.c **** 
 145:..\..\..\lvgl\version_6.1.2\lvgl\src\lv_objx/lv_chart.c ****         ext->type       = ext_copy->type;
 388              		.loc 3 145 0
 389 0166 BB68     		ldr	r3, [r7, #8]
 390 0168 1A7D     		ldrb	r2, [r3, #20]	@ zero_extendqisi2
 391 016a 3B69     		ldr	r3, [r7, #16]
 392 016c 1A75     		strb	r2, [r3, #20]
 146:..\..\..\lvgl\version_6.1.2\lvgl\src\lv_objx/lv_chart.c ****         ext->ymin       = ext_copy->ymin;
 393              		.loc 3 146 0
 394 016e BB68     		ldr	r3, [r7, #8]
 395 0170 B3F90C20 		ldrsh	r2, [r3, #12]
 396 0174 3B69     		ldr	r3, [r7, #16]
 397 0176 9A81     		strh	r2, [r3, #12]	@ movhi
 147:..\..\..\lvgl\version_6.1.2\lvgl\src\lv_objx/lv_chart.c ****         ext->ymax       = ext_copy->ymax;
 398              		.loc 3 147 0
 399 0178 BB68     		ldr	r3, [r7, #8]
 400 017a B3F90E20 		ldrsh	r2, [r3, #14]
 401 017e 3B69     		ldr	r3, [r7, #16]
 402 0180 DA81     		strh	r2, [r3, #14]	@ movhi
 148:..\..\..\lvgl\version_6.1.2\lvgl\src\lv_objx/lv_chart.c ****         ext->hdiv_cnt   = ext_copy->hdiv_cnt;
 403              		.loc 3 148 0
 404 0182 BB68     		ldr	r3, [r7, #8]
 405 0184 1A7C     		ldrb	r2, [r3, #16]	@ zero_extendqisi2
 406 0186 3B69     		ldr	r3, [r7, #16]
 407 0188 1A74     		strb	r2, [r3, #16]
 149:..\..\..\lvgl\version_6.1.2\lvgl\src\lv_objx/lv_chart.c ****         ext->vdiv_cnt   = ext_copy->vdiv_cnt;
 408              		.loc 3 149 0
 409 018a BB68     		ldr	r3, [r7, #8]
 410 018c 5A7C     		ldrb	r2, [r3, #17]	@ zero_extendqisi2
 411 018e 3B69     		ldr	r3, [r7, #16]
 412 0190 5A74     		strb	r2, [r3, #17]
 150:..\..\..\lvgl\version_6.1.2\lvgl\src\lv_objx/lv_chart.c ****         ext->point_cnt  = ext_copy->point_cnt;
ARM GAS  C:\Users\tmj32\AppData\Local\Temp\ccrrExWC.s 			page 23


 413              		.loc 3 150 0
 414 0192 BB68     		ldr	r3, [r7, #8]
 415 0194 5A8A     		ldrh	r2, [r3, #18]
 416 0196 3B69     		ldr	r3, [r7, #16]
 417 0198 5A82     		strh	r2, [r3, #18]	@ movhi
 151:..\..\..\lvgl\version_6.1.2\lvgl\src\lv_objx/lv_chart.c ****         ext->series.opa = ext_copy->series.opa;
 418              		.loc 3 151 0
 419 019a BB68     		ldr	r3, [r7, #8]
 420 019c 93F83720 		ldrb	r2, [r3, #55]	@ zero_extendqisi2
 421 01a0 3B69     		ldr	r3, [r7, #16]
 422 01a2 83F83720 		strb	r2, [r3, #55]
 152:..\..\..\lvgl\version_6.1.2\lvgl\src\lv_objx/lv_chart.c ****         ext->margin     = ext_copy->margin;
 423              		.loc 3 152 0
 424 01a6 BB68     		ldr	r3, [r7, #8]
 425 01a8 1A8E     		ldrh	r2, [r3, #48]
 426 01aa 3B69     		ldr	r3, [r7, #16]
 427 01ac 1A86     		strh	r2, [r3, #48]	@ movhi
 153:..\..\..\lvgl\version_6.1.2\lvgl\src\lv_objx/lv_chart.c ****         memcpy(&ext->x_axis, &ext_copy->x_axis, sizeof(lv_chart_axis_cfg_t));
 428              		.loc 3 153 0
 429 01ae 3B69     		ldr	r3, [r7, #16]
 430 01b0 03F12000 		add	r0, r3, #32
 431 01b4 BB68     		ldr	r3, [r7, #8]
 432 01b6 2033     		adds	r3, r3, #32
 433 01b8 0822     		movs	r2, #8
 434 01ba 1946     		mov	r1, r3
 435 01bc FFF7FEFF 		bl	memcpy
 154:..\..\..\lvgl\version_6.1.2\lvgl\src\lv_objx/lv_chart.c ****         memcpy(&ext->y_axis, &ext_copy->y_axis, sizeof(lv_chart_axis_cfg_t));
 436              		.loc 3 154 0
 437 01c0 3B69     		ldr	r3, [r7, #16]
 438 01c2 03F11800 		add	r0, r3, #24
 439 01c6 BB68     		ldr	r3, [r7, #8]
 440 01c8 1833     		adds	r3, r3, #24
 441 01ca 0822     		movs	r2, #8
 442 01cc 1946     		mov	r1, r3
 443 01ce FFF7FEFF 		bl	memcpy
 155:..\..\..\lvgl\version_6.1.2\lvgl\src\lv_objx/lv_chart.c ****         memcpy(&ext->secondary_y_axis, &ext_copy->secondary_y_axis, sizeof(lv_chart_axis_cfg_t));
 444              		.loc 3 155 0
 445 01d2 3B69     		ldr	r3, [r7, #16]
 446 01d4 03F12800 		add	r0, r3, #40
 447 01d8 BB68     		ldr	r3, [r7, #8]
 448 01da 2833     		adds	r3, r3, #40
 449 01dc 0822     		movs	r2, #8
 450 01de 1946     		mov	r1, r3
 451 01e0 FFF7FEFF 		bl	memcpy
 156:..\..\..\lvgl\version_6.1.2\lvgl\src\lv_objx/lv_chart.c **** 
 157:..\..\..\lvgl\version_6.1.2\lvgl\src\lv_objx/lv_chart.c ****         /*Refresh the style with new signal function*/
 158:..\..\..\lvgl\version_6.1.2\lvgl\src\lv_objx/lv_chart.c ****         lv_obj_refresh_style(new_chart);
 452              		.loc 3 158 0
 453 01e4 7869     		ldr	r0, [r7, #20]
 454 01e6 FFF7FEFF 		bl	lv_obj_refresh_style
 455              	.L13:
 456              	.LBE3:
 159:..\..\..\lvgl\version_6.1.2\lvgl\src\lv_objx/lv_chart.c ****     }
 160:..\..\..\lvgl\version_6.1.2\lvgl\src\lv_objx/lv_chart.c **** 
 161:..\..\..\lvgl\version_6.1.2\lvgl\src\lv_objx/lv_chart.c ****     LV_LOG_INFO("chart created");
 162:..\..\..\lvgl\version_6.1.2\lvgl\src\lv_objx/lv_chart.c **** 
 163:..\..\..\lvgl\version_6.1.2\lvgl\src\lv_objx/lv_chart.c ****     return new_chart;
ARM GAS  C:\Users\tmj32\AppData\Local\Temp\ccrrExWC.s 			page 24


 457              		.loc 3 163 0
 458 01ea 7B69     		ldr	r3, [r7, #20]
 459              	.L6:
 164:..\..\..\lvgl\version_6.1.2\lvgl\src\lv_objx/lv_chart.c **** }
 460              		.loc 3 164 0
 461 01ec 1846     		mov	r0, r3
 462 01ee 1837     		adds	r7, r7, #24
 463              		.cfi_def_cfa_offset 8
 464 01f0 BD46     		mov	sp, r7
 465              		.cfi_def_cfa_register 13
 466              		@ sp needed
 467 01f2 80BD     		pop	{r7, pc}
 468              	.L15:
 469              		.align	2
 470              	.L14:
 471 01f4 00000000 		.word	ancestor_design_f
 472 01f8 04000000 		.word	ancestor_signal
 473 01fc 00000000 		.word	lv_chart_signal
 474 0200 00000000 		.word	lv_chart_design
 475 0204 00000000 		.word	lv_style_pretty
 476              		.cfi_endproc
 477              	.LFE35:
 478              		.size	lv_chart_create, .-lv_chart_create
 479              		.section	.text.lv_chart_add_series,"ax",%progbits
 480              		.align	2
 481              		.global	lv_chart_add_series
 482              		.thumb
 483              		.thumb_func
 484              		.type	lv_chart_add_series, %function
 485              	lv_chart_add_series:
 486              	.LFB36:
 165:..\..\..\lvgl\version_6.1.2\lvgl\src\lv_objx/lv_chart.c **** 
 166:..\..\..\lvgl\version_6.1.2\lvgl\src\lv_objx/lv_chart.c **** /*======================
 167:..\..\..\lvgl\version_6.1.2\lvgl\src\lv_objx/lv_chart.c ****  * Add/remove functions
 168:..\..\..\lvgl\version_6.1.2\lvgl\src\lv_objx/lv_chart.c ****  *=====================*/
 169:..\..\..\lvgl\version_6.1.2\lvgl\src\lv_objx/lv_chart.c **** 
 170:..\..\..\lvgl\version_6.1.2\lvgl\src\lv_objx/lv_chart.c **** /**
 171:..\..\..\lvgl\version_6.1.2\lvgl\src\lv_objx/lv_chart.c ****  * Allocate and add a data series to the chart
 172:..\..\..\lvgl\version_6.1.2\lvgl\src\lv_objx/lv_chart.c ****  * @param chart pointer to a chart object
 173:..\..\..\lvgl\version_6.1.2\lvgl\src\lv_objx/lv_chart.c ****  * @param color color of the data series
 174:..\..\..\lvgl\version_6.1.2\lvgl\src\lv_objx/lv_chart.c ****  * @return pointer to the allocated data series
 175:..\..\..\lvgl\version_6.1.2\lvgl\src\lv_objx/lv_chart.c ****  */
 176:..\..\..\lvgl\version_6.1.2\lvgl\src\lv_objx/lv_chart.c **** lv_chart_series_t * lv_chart_add_series(lv_obj_t * chart, lv_color_t color)
 177:..\..\..\lvgl\version_6.1.2\lvgl\src\lv_objx/lv_chart.c **** {
 487              		.loc 3 177 0
 488              		.cfi_startproc
 489              		@ args = 0, pretend = 0, frame = 32
 490              		@ frame_needed = 1, uses_anonymous_args = 0
 491 0000 80B5     		push	{r7, lr}
 492              		.cfi_def_cfa_offset 8
 493              		.cfi_offset 7, -8
 494              		.cfi_offset 14, -4
 495 0002 88B0     		sub	sp, sp, #32
 496              		.cfi_def_cfa_offset 40
 497 0004 00AF     		add	r7, sp, #0
 498              		.cfi_def_cfa_register 7
 499 0006 7860     		str	r0, [r7, #4]
ARM GAS  C:\Users\tmj32\AppData\Local\Temp\ccrrExWC.s 			page 25


 500 0008 3960     		str	r1, [r7]
 178:..\..\..\lvgl\version_6.1.2\lvgl\src\lv_objx/lv_chart.c ****     LV_ASSERT_OBJ(chart, LV_OBJX_NAME);
 179:..\..\..\lvgl\version_6.1.2\lvgl\src\lv_objx/lv_chart.c **** 
 180:..\..\..\lvgl\version_6.1.2\lvgl\src\lv_objx/lv_chart.c ****     lv_chart_ext_t * ext    = lv_obj_get_ext_attr(chart);
 501              		.loc 3 180 0
 502 000a 7868     		ldr	r0, [r7, #4]
 503 000c FFF7FEFF 		bl	lv_obj_get_ext_attr
 504 0010 7861     		str	r0, [r7, #20]
 181:..\..\..\lvgl\version_6.1.2\lvgl\src\lv_objx/lv_chart.c ****     lv_chart_series_t * ser = lv_ll_ins_head(&ext->series_ll);
 505              		.loc 3 181 0
 506 0012 7B69     		ldr	r3, [r7, #20]
 507 0014 1846     		mov	r0, r3
 508 0016 FFF7FEFF 		bl	lv_ll_ins_head
 509 001a 3861     		str	r0, [r7, #16]
 182:..\..\..\lvgl\version_6.1.2\lvgl\src\lv_objx/lv_chart.c ****     LV_ASSERT_MEM(ser);
 183:..\..\..\lvgl\version_6.1.2\lvgl\src\lv_objx/lv_chart.c ****     if(ser == NULL) return NULL;
 510              		.loc 3 183 0
 511 001c 3B69     		ldr	r3, [r7, #16]
 512 001e 002B     		cmp	r3, #0
 513 0020 01D1     		bne	.L17
 514              		.loc 3 183 0 is_stmt 0 discriminator 1
 515 0022 0023     		movs	r3, #0
 516 0024 41E0     		b	.L18
 517              	.L17:
 184:..\..\..\lvgl\version_6.1.2\lvgl\src\lv_objx/lv_chart.c **** 
 185:..\..\..\lvgl\version_6.1.2\lvgl\src\lv_objx/lv_chart.c ****     lv_coord_t def = LV_CHART_POINT_DEF;
 518              		.loc 3 185 0 is_stmt 1
 519 0026 48F2E833 		movw	r3, #33768
 520 002a FB81     		strh	r3, [r7, #14]	@ movhi
 186:..\..\..\lvgl\version_6.1.2\lvgl\src\lv_objx/lv_chart.c **** 
 187:..\..\..\lvgl\version_6.1.2\lvgl\src\lv_objx/lv_chart.c ****     if(ser == NULL) return NULL;
 521              		.loc 3 187 0
 522 002c 3B69     		ldr	r3, [r7, #16]
 523 002e 002B     		cmp	r3, #0
 524 0030 01D1     		bne	.L19
 525              		.loc 3 187 0 is_stmt 0 discriminator 1
 526 0032 0023     		movs	r3, #0
 527 0034 39E0     		b	.L18
 528              	.L19:
 188:..\..\..\lvgl\version_6.1.2\lvgl\src\lv_objx/lv_chart.c **** 
 189:..\..\..\lvgl\version_6.1.2\lvgl\src\lv_objx/lv_chart.c ****     ser->color  = color;
 529              		.loc 3 189 0 is_stmt 1
 530 0036 3B69     		ldr	r3, [r7, #16]
 531 0038 3A68     		ldr	r2, [r7]
 532 003a 5A60     		str	r2, [r3, #4]
 190:..\..\..\lvgl\version_6.1.2\lvgl\src\lv_objx/lv_chart.c ****     ser->points = lv_mem_alloc(sizeof(lv_coord_t) * ext->point_cnt);
 533              		.loc 3 190 0
 534 003c 7B69     		ldr	r3, [r7, #20]
 535 003e 5B8A     		ldrh	r3, [r3, #18]
 536 0040 5B00     		lsls	r3, r3, #1
 537 0042 1846     		mov	r0, r3
 538 0044 FFF7FEFF 		bl	lv_mem_alloc
 539 0048 0246     		mov	r2, r0
 540 004a 3B69     		ldr	r3, [r7, #16]
 541 004c 1A60     		str	r2, [r3]
 191:..\..\..\lvgl\version_6.1.2\lvgl\src\lv_objx/lv_chart.c ****     LV_ASSERT_MEM(ser->points);
 192:..\..\..\lvgl\version_6.1.2\lvgl\src\lv_objx/lv_chart.c ****     if(ser->points == NULL) {
ARM GAS  C:\Users\tmj32\AppData\Local\Temp\ccrrExWC.s 			page 26


 542              		.loc 3 192 0
 543 004e 3B69     		ldr	r3, [r7, #16]
 544 0050 1B68     		ldr	r3, [r3]
 545 0052 002B     		cmp	r3, #0
 546 0054 09D1     		bne	.L20
 193:..\..\..\lvgl\version_6.1.2\lvgl\src\lv_objx/lv_chart.c ****         lv_ll_rem(&ext->series_ll, ser);
 547              		.loc 3 193 0
 548 0056 7B69     		ldr	r3, [r7, #20]
 549 0058 3969     		ldr	r1, [r7, #16]
 550 005a 1846     		mov	r0, r3
 551 005c FFF7FEFF 		bl	lv_ll_rem
 194:..\..\..\lvgl\version_6.1.2\lvgl\src\lv_objx/lv_chart.c ****         lv_mem_free(ser);
 552              		.loc 3 194 0
 553 0060 3869     		ldr	r0, [r7, #16]
 554 0062 FFF7FEFF 		bl	lv_mem_free
 195:..\..\..\lvgl\version_6.1.2\lvgl\src\lv_objx/lv_chart.c ****         return NULL;
 555              		.loc 3 195 0
 556 0066 0023     		movs	r3, #0
 557 0068 1FE0     		b	.L18
 558              	.L20:
 196:..\..\..\lvgl\version_6.1.2\lvgl\src\lv_objx/lv_chart.c ****     }
 197:..\..\..\lvgl\version_6.1.2\lvgl\src\lv_objx/lv_chart.c **** 
 198:..\..\..\lvgl\version_6.1.2\lvgl\src\lv_objx/lv_chart.c ****     ser->start_point = 0;
 559              		.loc 3 198 0
 560 006a 3B69     		ldr	r3, [r7, #16]
 561 006c 0022     		movs	r2, #0
 562 006e 1A81     		strh	r2, [r3, #8]	@ movhi
 199:..\..\..\lvgl\version_6.1.2\lvgl\src\lv_objx/lv_chart.c **** 
 200:..\..\..\lvgl\version_6.1.2\lvgl\src\lv_objx/lv_chart.c ****     uint16_t i;
 201:..\..\..\lvgl\version_6.1.2\lvgl\src\lv_objx/lv_chart.c ****     lv_coord_t * p_tmp = ser->points;
 563              		.loc 3 201 0
 564 0070 3B69     		ldr	r3, [r7, #16]
 565 0072 1B68     		ldr	r3, [r3]
 566 0074 BB61     		str	r3, [r7, #24]
 202:..\..\..\lvgl\version_6.1.2\lvgl\src\lv_objx/lv_chart.c ****     for(i = 0; i < ext->point_cnt; i++) {
 567              		.loc 3 202 0
 568 0076 0023     		movs	r3, #0
 569 0078 FB83     		strh	r3, [r7, #30]	@ movhi
 570 007a 08E0     		b	.L21
 571              	.L22:
 203:..\..\..\lvgl\version_6.1.2\lvgl\src\lv_objx/lv_chart.c ****         *p_tmp = def;
 572              		.loc 3 203 0 discriminator 3
 573 007c BB69     		ldr	r3, [r7, #24]
 574 007e FA89     		ldrh	r2, [r7, #14]	@ movhi
 575 0080 1A80     		strh	r2, [r3]	@ movhi
 204:..\..\..\lvgl\version_6.1.2\lvgl\src\lv_objx/lv_chart.c ****         p_tmp++;
 576              		.loc 3 204 0 discriminator 3
 577 0082 BB69     		ldr	r3, [r7, #24]
 578 0084 0233     		adds	r3, r3, #2
 579 0086 BB61     		str	r3, [r7, #24]
 202:..\..\..\lvgl\version_6.1.2\lvgl\src\lv_objx/lv_chart.c ****     for(i = 0; i < ext->point_cnt; i++) {
 580              		.loc 3 202 0 discriminator 3
 581 0088 FB8B     		ldrh	r3, [r7, #30]
 582 008a 0133     		adds	r3, r3, #1
 583 008c FB83     		strh	r3, [r7, #30]	@ movhi
 584              	.L21:
 202:..\..\..\lvgl\version_6.1.2\lvgl\src\lv_objx/lv_chart.c ****     for(i = 0; i < ext->point_cnt; i++) {
ARM GAS  C:\Users\tmj32\AppData\Local\Temp\ccrrExWC.s 			page 27


 585              		.loc 3 202 0 is_stmt 0 discriminator 1
 586 008e 7B69     		ldr	r3, [r7, #20]
 587 0090 5B8A     		ldrh	r3, [r3, #18]
 588 0092 FA8B     		ldrh	r2, [r7, #30]
 589 0094 9A42     		cmp	r2, r3
 590 0096 F1D3     		bcc	.L22
 205:..\..\..\lvgl\version_6.1.2\lvgl\src\lv_objx/lv_chart.c ****     }
 206:..\..\..\lvgl\version_6.1.2\lvgl\src\lv_objx/lv_chart.c **** 
 207:..\..\..\lvgl\version_6.1.2\lvgl\src\lv_objx/lv_chart.c ****     ext->series.num++;
 591              		.loc 3 207 0 is_stmt 1
 592 0098 7B69     		ldr	r3, [r7, #20]
 593 009a 93F83630 		ldrb	r3, [r3, #54]	@ zero_extendqisi2
 594 009e 0133     		adds	r3, r3, #1
 595 00a0 DAB2     		uxtb	r2, r3
 596 00a2 7B69     		ldr	r3, [r7, #20]
 597 00a4 83F83620 		strb	r2, [r3, #54]
 208:..\..\..\lvgl\version_6.1.2\lvgl\src\lv_objx/lv_chart.c **** 
 209:..\..\..\lvgl\version_6.1.2\lvgl\src\lv_objx/lv_chart.c ****     return ser;
 598              		.loc 3 209 0
 599 00a8 3B69     		ldr	r3, [r7, #16]
 600              	.L18:
 210:..\..\..\lvgl\version_6.1.2\lvgl\src\lv_objx/lv_chart.c **** }
 601              		.loc 3 210 0
 602 00aa 1846     		mov	r0, r3
 603 00ac 2037     		adds	r7, r7, #32
 604              		.cfi_def_cfa_offset 8
 605 00ae BD46     		mov	sp, r7
 606              		.cfi_def_cfa_register 13
 607              		@ sp needed
 608 00b0 80BD     		pop	{r7, pc}
 609              		.cfi_endproc
 610              	.LFE36:
 611              		.size	lv_chart_add_series, .-lv_chart_add_series
 612 00b2 00BF     		.section	.text.lv_chart_clear_serie,"ax",%progbits
 613              		.align	2
 614              		.global	lv_chart_clear_serie
 615              		.thumb
 616              		.thumb_func
 617              		.type	lv_chart_clear_serie, %function
 618              	lv_chart_clear_serie:
 619              	.LFB37:
 211:..\..\..\lvgl\version_6.1.2\lvgl\src\lv_objx/lv_chart.c **** 
 212:..\..\..\lvgl\version_6.1.2\lvgl\src\lv_objx/lv_chart.c **** /**
 213:..\..\..\lvgl\version_6.1.2\lvgl\src\lv_objx/lv_chart.c ****  * Clear the point of a serie
 214:..\..\..\lvgl\version_6.1.2\lvgl\src\lv_objx/lv_chart.c ****  * @param chart pointer to a chart object
 215:..\..\..\lvgl\version_6.1.2\lvgl\src\lv_objx/lv_chart.c ****  * @param serie pointer to the chart's serie to clear
 216:..\..\..\lvgl\version_6.1.2\lvgl\src\lv_objx/lv_chart.c ****  */
 217:..\..\..\lvgl\version_6.1.2\lvgl\src\lv_objx/lv_chart.c **** void lv_chart_clear_serie(lv_obj_t * chart, lv_chart_series_t * serie)
 218:..\..\..\lvgl\version_6.1.2\lvgl\src\lv_objx/lv_chart.c **** {
 620              		.loc 3 218 0
 621              		.cfi_startproc
 622              		@ args = 0, pretend = 0, frame = 16
 623              		@ frame_needed = 1, uses_anonymous_args = 0
 624 0000 80B5     		push	{r7, lr}
 625              		.cfi_def_cfa_offset 8
 626              		.cfi_offset 7, -8
 627              		.cfi_offset 14, -4
ARM GAS  C:\Users\tmj32\AppData\Local\Temp\ccrrExWC.s 			page 28


 628 0002 84B0     		sub	sp, sp, #16
 629              		.cfi_def_cfa_offset 24
 630 0004 00AF     		add	r7, sp, #0
 631              		.cfi_def_cfa_register 7
 632 0006 7860     		str	r0, [r7, #4]
 633 0008 3960     		str	r1, [r7]
 219:..\..\..\lvgl\version_6.1.2\lvgl\src\lv_objx/lv_chart.c ****     LV_ASSERT_OBJ(chart, LV_OBJX_NAME);
 220:..\..\..\lvgl\version_6.1.2\lvgl\src\lv_objx/lv_chart.c ****     LV_ASSERT_NULL(serie);
 221:..\..\..\lvgl\version_6.1.2\lvgl\src\lv_objx/lv_chart.c **** 
 222:..\..\..\lvgl\version_6.1.2\lvgl\src\lv_objx/lv_chart.c ****     if(chart == NULL || serie == NULL) return;
 634              		.loc 3 222 0
 635 000a 7B68     		ldr	r3, [r7, #4]
 636 000c 002B     		cmp	r3, #0
 637 000e 21D0     		beq	.L30
 638              		.loc 3 222 0 is_stmt 0 discriminator 1
 639 0010 3B68     		ldr	r3, [r7]
 640 0012 002B     		cmp	r3, #0
 641 0014 1ED0     		beq	.L30
 223:..\..\..\lvgl\version_6.1.2\lvgl\src\lv_objx/lv_chart.c ****     lv_chart_ext_t * ext = lv_obj_get_ext_attr(chart);
 642              		.loc 3 223 0 is_stmt 1
 643 0016 7868     		ldr	r0, [r7, #4]
 644 0018 FFF7FEFF 		bl	lv_obj_get_ext_attr
 645 001c B860     		str	r0, [r7, #8]
 224:..\..\..\lvgl\version_6.1.2\lvgl\src\lv_objx/lv_chart.c ****     if(ext == NULL) return;
 646              		.loc 3 224 0
 647 001e BB68     		ldr	r3, [r7, #8]
 648 0020 002B     		cmp	r3, #0
 649 0022 19D0     		beq	.L31
 225:..\..\..\lvgl\version_6.1.2\lvgl\src\lv_objx/lv_chart.c **** 
 226:..\..\..\lvgl\version_6.1.2\lvgl\src\lv_objx/lv_chart.c ****     uint32_t i;
 227:..\..\..\lvgl\version_6.1.2\lvgl\src\lv_objx/lv_chart.c ****     for(i = 0; i < ext->point_cnt; i++) {
 650              		.loc 3 227 0
 651 0024 0023     		movs	r3, #0
 652 0026 FB60     		str	r3, [r7, #12]
 653 0028 0AE0     		b	.L28
 654              	.L29:
 228:..\..\..\lvgl\version_6.1.2\lvgl\src\lv_objx/lv_chart.c ****         serie->points[i] = LV_CHART_POINT_DEF;
 655              		.loc 3 228 0 discriminator 3
 656 002a 3B68     		ldr	r3, [r7]
 657 002c 1A68     		ldr	r2, [r3]
 658 002e FB68     		ldr	r3, [r7, #12]
 659 0030 5B00     		lsls	r3, r3, #1
 660 0032 1344     		add	r3, r3, r2
 661 0034 48F2E832 		movw	r2, #33768
 662 0038 1A80     		strh	r2, [r3]	@ movhi
 227:..\..\..\lvgl\version_6.1.2\lvgl\src\lv_objx/lv_chart.c ****         serie->points[i] = LV_CHART_POINT_DEF;
 663              		.loc 3 227 0 discriminator 3
 664 003a FB68     		ldr	r3, [r7, #12]
 665 003c 0133     		adds	r3, r3, #1
 666 003e FB60     		str	r3, [r7, #12]
 667              	.L28:
 227:..\..\..\lvgl\version_6.1.2\lvgl\src\lv_objx/lv_chart.c ****         serie->points[i] = LV_CHART_POINT_DEF;
 668              		.loc 3 227 0 is_stmt 0 discriminator 1
 669 0040 BB68     		ldr	r3, [r7, #8]
 670 0042 5B8A     		ldrh	r3, [r3, #18]
 671 0044 1A46     		mov	r2, r3
 672 0046 FB68     		ldr	r3, [r7, #12]
ARM GAS  C:\Users\tmj32\AppData\Local\Temp\ccrrExWC.s 			page 29


 673 0048 9A42     		cmp	r2, r3
 674 004a EED8     		bhi	.L29
 229:..\..\..\lvgl\version_6.1.2\lvgl\src\lv_objx/lv_chart.c ****     }
 230:..\..\..\lvgl\version_6.1.2\lvgl\src\lv_objx/lv_chart.c **** 
 231:..\..\..\lvgl\version_6.1.2\lvgl\src\lv_objx/lv_chart.c ****     serie->start_point = 0;
 675              		.loc 3 231 0 is_stmt 1
 676 004c 3B68     		ldr	r3, [r7]
 677 004e 0022     		movs	r2, #0
 678 0050 1A81     		strh	r2, [r3, #8]	@ movhi
 679 0052 02E0     		b	.L23
 680              	.L30:
 222:..\..\..\lvgl\version_6.1.2\lvgl\src\lv_objx/lv_chart.c ****     lv_chart_ext_t * ext = lv_obj_get_ext_attr(chart);
 681              		.loc 3 222 0
 682 0054 00BF     		nop
 683 0056 00E0     		b	.L23
 684              	.L31:
 224:..\..\..\lvgl\version_6.1.2\lvgl\src\lv_objx/lv_chart.c **** 
 685              		.loc 3 224 0
 686 0058 00BF     		nop
 687              	.L23:
 232:..\..\..\lvgl\version_6.1.2\lvgl\src\lv_objx/lv_chart.c **** }
 688              		.loc 3 232 0
 689 005a 1037     		adds	r7, r7, #16
 690              		.cfi_def_cfa_offset 8
 691 005c BD46     		mov	sp, r7
 692              		.cfi_def_cfa_register 13
 693              		@ sp needed
 694 005e 80BD     		pop	{r7, pc}
 695              		.cfi_endproc
 696              	.LFE37:
 697              		.size	lv_chart_clear_serie, .-lv_chart_clear_serie
 698              		.section	.text.lv_chart_set_div_line_count,"ax",%progbits
 699              		.align	2
 700              		.global	lv_chart_set_div_line_count
 701              		.thumb
 702              		.thumb_func
 703              		.type	lv_chart_set_div_line_count, %function
 704              	lv_chart_set_div_line_count:
 705              	.LFB38:
 233:..\..\..\lvgl\version_6.1.2\lvgl\src\lv_objx/lv_chart.c **** 
 234:..\..\..\lvgl\version_6.1.2\lvgl\src\lv_objx/lv_chart.c **** /*=====================
 235:..\..\..\lvgl\version_6.1.2\lvgl\src\lv_objx/lv_chart.c ****  * Setter functions
 236:..\..\..\lvgl\version_6.1.2\lvgl\src\lv_objx/lv_chart.c ****  *====================*/
 237:..\..\..\lvgl\version_6.1.2\lvgl\src\lv_objx/lv_chart.c **** 
 238:..\..\..\lvgl\version_6.1.2\lvgl\src\lv_objx/lv_chart.c **** /**
 239:..\..\..\lvgl\version_6.1.2\lvgl\src\lv_objx/lv_chart.c ****  * Set the number of horizontal and vertical division lines
 240:..\..\..\lvgl\version_6.1.2\lvgl\src\lv_objx/lv_chart.c ****  * @param chart pointer to a graph background object
 241:..\..\..\lvgl\version_6.1.2\lvgl\src\lv_objx/lv_chart.c ****  * @param hdiv number of horizontal division lines
 242:..\..\..\lvgl\version_6.1.2\lvgl\src\lv_objx/lv_chart.c ****  * @param vdiv number of vertical division lines
 243:..\..\..\lvgl\version_6.1.2\lvgl\src\lv_objx/lv_chart.c ****  */
 244:..\..\..\lvgl\version_6.1.2\lvgl\src\lv_objx/lv_chart.c **** void lv_chart_set_div_line_count(lv_obj_t * chart, uint8_t hdiv, uint8_t vdiv)
 245:..\..\..\lvgl\version_6.1.2\lvgl\src\lv_objx/lv_chart.c **** {
 706              		.loc 3 245 0
 707              		.cfi_startproc
 708              		@ args = 0, pretend = 0, frame = 16
 709              		@ frame_needed = 1, uses_anonymous_args = 0
 710 0000 80B5     		push	{r7, lr}
ARM GAS  C:\Users\tmj32\AppData\Local\Temp\ccrrExWC.s 			page 30


 711              		.cfi_def_cfa_offset 8
 712              		.cfi_offset 7, -8
 713              		.cfi_offset 14, -4
 714 0002 84B0     		sub	sp, sp, #16
 715              		.cfi_def_cfa_offset 24
 716 0004 00AF     		add	r7, sp, #0
 717              		.cfi_def_cfa_register 7
 718 0006 7860     		str	r0, [r7, #4]
 719 0008 0B46     		mov	r3, r1
 720 000a FB70     		strb	r3, [r7, #3]
 721 000c 1346     		mov	r3, r2
 722 000e BB70     		strb	r3, [r7, #2]
 246:..\..\..\lvgl\version_6.1.2\lvgl\src\lv_objx/lv_chart.c ****     LV_ASSERT_OBJ(chart, LV_OBJX_NAME);
 247:..\..\..\lvgl\version_6.1.2\lvgl\src\lv_objx/lv_chart.c **** 
 248:..\..\..\lvgl\version_6.1.2\lvgl\src\lv_objx/lv_chart.c ****     lv_chart_ext_t * ext = lv_obj_get_ext_attr(chart);
 723              		.loc 3 248 0
 724 0010 7868     		ldr	r0, [r7, #4]
 725 0012 FFF7FEFF 		bl	lv_obj_get_ext_attr
 726 0016 F860     		str	r0, [r7, #12]
 249:..\..\..\lvgl\version_6.1.2\lvgl\src\lv_objx/lv_chart.c ****     if(ext->hdiv_cnt == hdiv && ext->vdiv_cnt == vdiv) return;
 727              		.loc 3 249 0
 728 0018 FB68     		ldr	r3, [r7, #12]
 729 001a 1B7C     		ldrb	r3, [r3, #16]	@ zero_extendqisi2
 730 001c FA78     		ldrb	r2, [r7, #3]	@ zero_extendqisi2
 731 001e 9A42     		cmp	r2, r3
 732 0020 04D1     		bne	.L33
 733              		.loc 3 249 0 is_stmt 0 discriminator 1
 734 0022 FB68     		ldr	r3, [r7, #12]
 735 0024 5B7C     		ldrb	r3, [r3, #17]	@ zero_extendqisi2
 736 0026 BA78     		ldrb	r2, [r7, #2]	@ zero_extendqisi2
 737 0028 9A42     		cmp	r2, r3
 738 002a 09D0     		beq	.L35
 739              	.L33:
 250:..\..\..\lvgl\version_6.1.2\lvgl\src\lv_objx/lv_chart.c **** 
 251:..\..\..\lvgl\version_6.1.2\lvgl\src\lv_objx/lv_chart.c ****     ext->hdiv_cnt = hdiv;
 740              		.loc 3 251 0 is_stmt 1
 741 002c FB68     		ldr	r3, [r7, #12]
 742 002e FA78     		ldrb	r2, [r7, #3]
 743 0030 1A74     		strb	r2, [r3, #16]
 252:..\..\..\lvgl\version_6.1.2\lvgl\src\lv_objx/lv_chart.c ****     ext->vdiv_cnt = vdiv;
 744              		.loc 3 252 0
 745 0032 FB68     		ldr	r3, [r7, #12]
 746 0034 BA78     		ldrb	r2, [r7, #2]
 747 0036 5A74     		strb	r2, [r3, #17]
 253:..\..\..\lvgl\version_6.1.2\lvgl\src\lv_objx/lv_chart.c **** 
 254:..\..\..\lvgl\version_6.1.2\lvgl\src\lv_objx/lv_chart.c ****     lv_obj_invalidate(chart);
 748              		.loc 3 254 0
 749 0038 7868     		ldr	r0, [r7, #4]
 750 003a FFF7FEFF 		bl	lv_obj_invalidate
 751 003e 00E0     		b	.L32
 752              	.L35:
 249:..\..\..\lvgl\version_6.1.2\lvgl\src\lv_objx/lv_chart.c **** 
 753              		.loc 3 249 0
 754 0040 00BF     		nop
 755              	.L32:
 255:..\..\..\lvgl\version_6.1.2\lvgl\src\lv_objx/lv_chart.c **** }
 756              		.loc 3 255 0
ARM GAS  C:\Users\tmj32\AppData\Local\Temp\ccrrExWC.s 			page 31


 757 0042 1037     		adds	r7, r7, #16
 758              		.cfi_def_cfa_offset 8
 759 0044 BD46     		mov	sp, r7
 760              		.cfi_def_cfa_register 13
 761              		@ sp needed
 762 0046 80BD     		pop	{r7, pc}
 763              		.cfi_endproc
 764              	.LFE38:
 765              		.size	lv_chart_set_div_line_count, .-lv_chart_set_div_line_count
 766              		.section	.text.lv_chart_set_range,"ax",%progbits
 767              		.align	2
 768              		.global	lv_chart_set_range
 769              		.thumb
 770              		.thumb_func
 771              		.type	lv_chart_set_range, %function
 772              	lv_chart_set_range:
 773              	.LFB39:
 256:..\..\..\lvgl\version_6.1.2\lvgl\src\lv_objx/lv_chart.c **** 
 257:..\..\..\lvgl\version_6.1.2\lvgl\src\lv_objx/lv_chart.c **** /**
 258:..\..\..\lvgl\version_6.1.2\lvgl\src\lv_objx/lv_chart.c ****  * Set the minimal and maximal y values
 259:..\..\..\lvgl\version_6.1.2\lvgl\src\lv_objx/lv_chart.c ****  * @param chart pointer to a graph background object
 260:..\..\..\lvgl\version_6.1.2\lvgl\src\lv_objx/lv_chart.c ****  * @param ymin y minimum value
 261:..\..\..\lvgl\version_6.1.2\lvgl\src\lv_objx/lv_chart.c ****  * @param ymax y maximum value
 262:..\..\..\lvgl\version_6.1.2\lvgl\src\lv_objx/lv_chart.c ****  */
 263:..\..\..\lvgl\version_6.1.2\lvgl\src\lv_objx/lv_chart.c **** void lv_chart_set_range(lv_obj_t * chart, lv_coord_t ymin, lv_coord_t ymax)
 264:..\..\..\lvgl\version_6.1.2\lvgl\src\lv_objx/lv_chart.c **** {
 774              		.loc 3 264 0
 775              		.cfi_startproc
 776              		@ args = 0, pretend = 0, frame = 16
 777              		@ frame_needed = 1, uses_anonymous_args = 0
 778 0000 80B5     		push	{r7, lr}
 779              		.cfi_def_cfa_offset 8
 780              		.cfi_offset 7, -8
 781              		.cfi_offset 14, -4
 782 0002 84B0     		sub	sp, sp, #16
 783              		.cfi_def_cfa_offset 24
 784 0004 00AF     		add	r7, sp, #0
 785              		.cfi_def_cfa_register 7
 786 0006 7860     		str	r0, [r7, #4]
 787 0008 0B46     		mov	r3, r1
 788 000a 7B80     		strh	r3, [r7, #2]	@ movhi
 789 000c 1346     		mov	r3, r2	@ movhi
 790 000e 3B80     		strh	r3, [r7]	@ movhi
 265:..\..\..\lvgl\version_6.1.2\lvgl\src\lv_objx/lv_chart.c ****     LV_ASSERT_OBJ(chart, LV_OBJX_NAME);
 266:..\..\..\lvgl\version_6.1.2\lvgl\src\lv_objx/lv_chart.c **** 
 267:..\..\..\lvgl\version_6.1.2\lvgl\src\lv_objx/lv_chart.c ****     lv_chart_ext_t * ext = lv_obj_get_ext_attr(chart);
 791              		.loc 3 267 0
 792 0010 7868     		ldr	r0, [r7, #4]
 793 0012 FFF7FEFF 		bl	lv_obj_get_ext_attr
 794 0016 F860     		str	r0, [r7, #12]
 268:..\..\..\lvgl\version_6.1.2\lvgl\src\lv_objx/lv_chart.c ****     if(ext->ymin == ymin && ext->ymax == ymax) return;
 795              		.loc 3 268 0
 796 0018 FB68     		ldr	r3, [r7, #12]
 797 001a B3F90C30 		ldrsh	r3, [r3, #12]
 798 001e B7F90220 		ldrsh	r2, [r7, #2]
 799 0022 9A42     		cmp	r2, r3
 800 0024 06D1     		bne	.L37
ARM GAS  C:\Users\tmj32\AppData\Local\Temp\ccrrExWC.s 			page 32


 801              		.loc 3 268 0 is_stmt 0 discriminator 1
 802 0026 FB68     		ldr	r3, [r7, #12]
 803 0028 B3F90E30 		ldrsh	r3, [r3, #14]
 804 002c B7F90020 		ldrsh	r2, [r7]
 805 0030 9A42     		cmp	r2, r3
 806 0032 09D0     		beq	.L39
 807              	.L37:
 269:..\..\..\lvgl\version_6.1.2\lvgl\src\lv_objx/lv_chart.c **** 
 270:..\..\..\lvgl\version_6.1.2\lvgl\src\lv_objx/lv_chart.c ****     ext->ymin = ymin;
 808              		.loc 3 270 0 is_stmt 1
 809 0034 FB68     		ldr	r3, [r7, #12]
 810 0036 7A88     		ldrh	r2, [r7, #2]	@ movhi
 811 0038 9A81     		strh	r2, [r3, #12]	@ movhi
 271:..\..\..\lvgl\version_6.1.2\lvgl\src\lv_objx/lv_chart.c ****     ext->ymax = ymax;
 812              		.loc 3 271 0
 813 003a FB68     		ldr	r3, [r7, #12]
 814 003c 3A88     		ldrh	r2, [r7]	@ movhi
 815 003e DA81     		strh	r2, [r3, #14]	@ movhi
 272:..\..\..\lvgl\version_6.1.2\lvgl\src\lv_objx/lv_chart.c **** 
 273:..\..\..\lvgl\version_6.1.2\lvgl\src\lv_objx/lv_chart.c ****     lv_chart_refresh(chart);
 816              		.loc 3 273 0
 817 0040 7868     		ldr	r0, [r7, #4]
 818 0042 FFF7FEFF 		bl	lv_chart_refresh
 819 0046 00E0     		b	.L36
 820              	.L39:
 268:..\..\..\lvgl\version_6.1.2\lvgl\src\lv_objx/lv_chart.c **** 
 821              		.loc 3 268 0
 822 0048 00BF     		nop
 823              	.L36:
 274:..\..\..\lvgl\version_6.1.2\lvgl\src\lv_objx/lv_chart.c **** }
 824              		.loc 3 274 0
 825 004a 1037     		adds	r7, r7, #16
 826              		.cfi_def_cfa_offset 8
 827 004c BD46     		mov	sp, r7
 828              		.cfi_def_cfa_register 13
 829              		@ sp needed
 830 004e 80BD     		pop	{r7, pc}
 831              		.cfi_endproc
 832              	.LFE39:
 833              		.size	lv_chart_set_range, .-lv_chart_set_range
 834              		.section	.text.lv_chart_set_type,"ax",%progbits
 835              		.align	2
 836              		.global	lv_chart_set_type
 837              		.thumb
 838              		.thumb_func
 839              		.type	lv_chart_set_type, %function
 840              	lv_chart_set_type:
 841              	.LFB40:
 275:..\..\..\lvgl\version_6.1.2\lvgl\src\lv_objx/lv_chart.c **** 
 276:..\..\..\lvgl\version_6.1.2\lvgl\src\lv_objx/lv_chart.c **** /**
 277:..\..\..\lvgl\version_6.1.2\lvgl\src\lv_objx/lv_chart.c ****  * Set a new type for a chart
 278:..\..\..\lvgl\version_6.1.2\lvgl\src\lv_objx/lv_chart.c ****  * @param chart pointer to a chart object
 279:..\..\..\lvgl\version_6.1.2\lvgl\src\lv_objx/lv_chart.c ****  * @param type new type of the chart (from 'lv_chart_type_t' enum)
 280:..\..\..\lvgl\version_6.1.2\lvgl\src\lv_objx/lv_chart.c ****  */
 281:..\..\..\lvgl\version_6.1.2\lvgl\src\lv_objx/lv_chart.c **** void lv_chart_set_type(lv_obj_t * chart, lv_chart_type_t type)
 282:..\..\..\lvgl\version_6.1.2\lvgl\src\lv_objx/lv_chart.c **** {
 842              		.loc 3 282 0
ARM GAS  C:\Users\tmj32\AppData\Local\Temp\ccrrExWC.s 			page 33


 843              		.cfi_startproc
 844              		@ args = 0, pretend = 0, frame = 16
 845              		@ frame_needed = 1, uses_anonymous_args = 0
 846 0000 80B5     		push	{r7, lr}
 847              		.cfi_def_cfa_offset 8
 848              		.cfi_offset 7, -8
 849              		.cfi_offset 14, -4
 850 0002 84B0     		sub	sp, sp, #16
 851              		.cfi_def_cfa_offset 24
 852 0004 00AF     		add	r7, sp, #0
 853              		.cfi_def_cfa_register 7
 854 0006 7860     		str	r0, [r7, #4]
 855 0008 0B46     		mov	r3, r1
 856 000a FB70     		strb	r3, [r7, #3]
 283:..\..\..\lvgl\version_6.1.2\lvgl\src\lv_objx/lv_chart.c ****     LV_ASSERT_OBJ(chart, LV_OBJX_NAME);
 284:..\..\..\lvgl\version_6.1.2\lvgl\src\lv_objx/lv_chart.c **** 
 285:..\..\..\lvgl\version_6.1.2\lvgl\src\lv_objx/lv_chart.c ****     lv_chart_ext_t * ext = lv_obj_get_ext_attr(chart);
 857              		.loc 3 285 0
 858 000c 7868     		ldr	r0, [r7, #4]
 859 000e FFF7FEFF 		bl	lv_obj_get_ext_attr
 860 0012 F860     		str	r0, [r7, #12]
 286:..\..\..\lvgl\version_6.1.2\lvgl\src\lv_objx/lv_chart.c ****     if(ext->type == type) return;
 861              		.loc 3 286 0
 862 0014 FB68     		ldr	r3, [r7, #12]
 863 0016 1B7D     		ldrb	r3, [r3, #20]	@ zero_extendqisi2
 864 0018 FA78     		ldrb	r2, [r7, #3]	@ zero_extendqisi2
 865 001a 9A42     		cmp	r2, r3
 866 001c 06D0     		beq	.L43
 287:..\..\..\lvgl\version_6.1.2\lvgl\src\lv_objx/lv_chart.c **** 
 288:..\..\..\lvgl\version_6.1.2\lvgl\src\lv_objx/lv_chart.c ****     ext->type = type;
 867              		.loc 3 288 0
 868 001e FB68     		ldr	r3, [r7, #12]
 869 0020 FA78     		ldrb	r2, [r7, #3]
 870 0022 1A75     		strb	r2, [r3, #20]
 289:..\..\..\lvgl\version_6.1.2\lvgl\src\lv_objx/lv_chart.c **** 
 290:..\..\..\lvgl\version_6.1.2\lvgl\src\lv_objx/lv_chart.c ****     lv_chart_refresh(chart);
 871              		.loc 3 290 0
 872 0024 7868     		ldr	r0, [r7, #4]
 873 0026 FFF7FEFF 		bl	lv_chart_refresh
 874 002a 00E0     		b	.L40
 875              	.L43:
 286:..\..\..\lvgl\version_6.1.2\lvgl\src\lv_objx/lv_chart.c **** 
 876              		.loc 3 286 0
 877 002c 00BF     		nop
 878              	.L40:
 291:..\..\..\lvgl\version_6.1.2\lvgl\src\lv_objx/lv_chart.c **** }
 879              		.loc 3 291 0
 880 002e 1037     		adds	r7, r7, #16
 881              		.cfi_def_cfa_offset 8
 882 0030 BD46     		mov	sp, r7
 883              		.cfi_def_cfa_register 13
 884              		@ sp needed
 885 0032 80BD     		pop	{r7, pc}
 886              		.cfi_endproc
 887              	.LFE40:
 888              		.size	lv_chart_set_type, .-lv_chart_set_type
 889              		.section	.text.lv_chart_set_point_count,"ax",%progbits
ARM GAS  C:\Users\tmj32\AppData\Local\Temp\ccrrExWC.s 			page 34


 890              		.align	2
 891              		.global	lv_chart_set_point_count
 892              		.thumb
 893              		.thumb_func
 894              		.type	lv_chart_set_point_count, %function
 895              	lv_chart_set_point_count:
 896              	.LFB41:
 292:..\..\..\lvgl\version_6.1.2\lvgl\src\lv_objx/lv_chart.c **** 
 293:..\..\..\lvgl\version_6.1.2\lvgl\src\lv_objx/lv_chart.c **** /**
 294:..\..\..\lvgl\version_6.1.2\lvgl\src\lv_objx/lv_chart.c ****  * Set the number of points on a data line on a chart
 295:..\..\..\lvgl\version_6.1.2\lvgl\src\lv_objx/lv_chart.c ****  * @param chart pointer r to chart object
 296:..\..\..\lvgl\version_6.1.2\lvgl\src\lv_objx/lv_chart.c ****  * @param point_cnt new number of points on the data lines
 297:..\..\..\lvgl\version_6.1.2\lvgl\src\lv_objx/lv_chart.c ****  */
 298:..\..\..\lvgl\version_6.1.2\lvgl\src\lv_objx/lv_chart.c **** void lv_chart_set_point_count(lv_obj_t * chart, uint16_t point_cnt)
 299:..\..\..\lvgl\version_6.1.2\lvgl\src\lv_objx/lv_chart.c **** {
 897              		.loc 3 299 0
 898              		.cfi_startproc
 899              		@ args = 0, pretend = 0, frame = 32
 900              		@ frame_needed = 1, uses_anonymous_args = 0
 901 0000 90B5     		push	{r4, r7, lr}
 902              		.cfi_def_cfa_offset 12
 903              		.cfi_offset 4, -12
 904              		.cfi_offset 7, -8
 905              		.cfi_offset 14, -4
 906 0002 89B0     		sub	sp, sp, #36
 907              		.cfi_def_cfa_offset 48
 908 0004 00AF     		add	r7, sp, #0
 909              		.cfi_def_cfa_register 7
 910 0006 7860     		str	r0, [r7, #4]
 911 0008 0B46     		mov	r3, r1
 912 000a 7B80     		strh	r3, [r7, #2]	@ movhi
 300:..\..\..\lvgl\version_6.1.2\lvgl\src\lv_objx/lv_chart.c ****     LV_ASSERT_OBJ(chart, LV_OBJX_NAME);
 301:..\..\..\lvgl\version_6.1.2\lvgl\src\lv_objx/lv_chart.c **** 
 302:..\..\..\lvgl\version_6.1.2\lvgl\src\lv_objx/lv_chart.c ****     lv_chart_ext_t * ext = lv_obj_get_ext_attr(chart);
 913              		.loc 3 302 0
 914 000c 7868     		ldr	r0, [r7, #4]
 915 000e FFF7FEFF 		bl	lv_obj_get_ext_attr
 916 0012 7861     		str	r0, [r7, #20]
 303:..\..\..\lvgl\version_6.1.2\lvgl\src\lv_objx/lv_chart.c ****     if(ext->point_cnt == point_cnt) return;
 917              		.loc 3 303 0
 918 0014 7B69     		ldr	r3, [r7, #20]
 919 0016 5B8A     		ldrh	r3, [r3, #18]
 920 0018 7A88     		ldrh	r2, [r7, #2]
 921 001a 9A42     		cmp	r2, r3
 922 001c 00F0B480 		beq	.L64
 304:..\..\..\lvgl\version_6.1.2\lvgl\src\lv_objx/lv_chart.c **** 
 305:..\..\..\lvgl\version_6.1.2\lvgl\src\lv_objx/lv_chart.c ****     lv_chart_series_t * ser;
 306:..\..\..\lvgl\version_6.1.2\lvgl\src\lv_objx/lv_chart.c ****     uint16_t point_cnt_old = ext->point_cnt;
 923              		.loc 3 306 0
 924 0020 7B69     		ldr	r3, [r7, #20]
 925 0022 5B8A     		ldrh	r3, [r3, #18]	@ movhi
 926 0024 7B82     		strh	r3, [r7, #18]	@ movhi
 307:..\..\..\lvgl\version_6.1.2\lvgl\src\lv_objx/lv_chart.c ****     uint16_t i;
 308:..\..\..\lvgl\version_6.1.2\lvgl\src\lv_objx/lv_chart.c ****     lv_coord_t def = LV_CHART_POINT_DEF;
 927              		.loc 3 308 0
 928 0026 48F2E833 		movw	r3, #33768
 929 002a 3B82     		strh	r3, [r7, #16]	@ movhi
ARM GAS  C:\Users\tmj32\AppData\Local\Temp\ccrrExWC.s 			page 35


 309:..\..\..\lvgl\version_6.1.2\lvgl\src\lv_objx/lv_chart.c **** 
 310:..\..\..\lvgl\version_6.1.2\lvgl\src\lv_objx/lv_chart.c ****     if(point_cnt < 1) point_cnt = 1;
 930              		.loc 3 310 0
 931 002c 7B88     		ldrh	r3, [r7, #2]
 932 002e 002B     		cmp	r3, #0
 933 0030 01D1     		bne	.L47
 934              		.loc 3 310 0 is_stmt 0 discriminator 1
 935 0032 0123     		movs	r3, #1
 936 0034 7B80     		strh	r3, [r7, #2]	@ movhi
 937              	.L47:
 311:..\..\..\lvgl\version_6.1.2\lvgl\src\lv_objx/lv_chart.c **** 
 312:..\..\..\lvgl\version_6.1.2\lvgl\src\lv_objx/lv_chart.c ****     LV_LL_READ_BACK(ext->series_ll, ser)
 938              		.loc 3 312 0 is_stmt 1
 939 0036 7B69     		ldr	r3, [r7, #20]
 940 0038 1846     		mov	r0, r3
 941 003a FFF7FEFF 		bl	lv_ll_get_tail
 942 003e F861     		str	r0, [r7, #28]
 943 0040 97E0     		b	.L48
 944              	.L63:
 313:..\..\..\lvgl\version_6.1.2\lvgl\src\lv_objx/lv_chart.c ****     {
 314:..\..\..\lvgl\version_6.1.2\lvgl\src\lv_objx/lv_chart.c ****         if(ser->start_point != 0) {
 945              		.loc 3 314 0
 946 0042 FB69     		ldr	r3, [r7, #28]
 947 0044 1B89     		ldrh	r3, [r3, #8]
 948 0046 002B     		cmp	r3, #0
 949 0048 65D0     		beq	.L49
 950              	.LBB4:
 315:..\..\..\lvgl\version_6.1.2\lvgl\src\lv_objx/lv_chart.c ****             lv_coord_t * new_points = lv_mem_alloc(sizeof(lv_coord_t) * point_cnt);
 951              		.loc 3 315 0
 952 004a 7B88     		ldrh	r3, [r7, #2]
 953 004c 5B00     		lsls	r3, r3, #1
 954 004e 1846     		mov	r0, r3
 955 0050 FFF7FEFF 		bl	lv_mem_alloc
 956 0054 F860     		str	r0, [r7, #12]
 316:..\..\..\lvgl\version_6.1.2\lvgl\src\lv_objx/lv_chart.c ****             LV_ASSERT_MEM(new_points);
 317:..\..\..\lvgl\version_6.1.2\lvgl\src\lv_objx/lv_chart.c ****             if(new_points == NULL) return;
 957              		.loc 3 317 0
 958 0056 FB68     		ldr	r3, [r7, #12]
 959 0058 002B     		cmp	r3, #0
 960 005a 00F09780 		beq	.L65
 318:..\..\..\lvgl\version_6.1.2\lvgl\src\lv_objx/lv_chart.c **** 
 319:..\..\..\lvgl\version_6.1.2\lvgl\src\lv_objx/lv_chart.c ****             if(point_cnt >= point_cnt_old) {
 961              		.loc 3 319 0
 962 005e 7A88     		ldrh	r2, [r7, #2]
 963 0060 7B8A     		ldrh	r3, [r7, #18]
 964 0062 9A42     		cmp	r2, r3
 965 0064 2FD3     		bcc	.L51
 320:..\..\..\lvgl\version_6.1.2\lvgl\src\lv_objx/lv_chart.c ****                 for(i = 0; i < point_cnt_old; i++) {
 966              		.loc 3 320 0
 967 0066 0023     		movs	r3, #0
 968 0068 7B83     		strh	r3, [r7, #26]	@ movhi
 969 006a 17E0     		b	.L52
 970              	.L53:
 321:..\..\..\lvgl\version_6.1.2\lvgl\src\lv_objx/lv_chart.c ****                     new_points[i] =
 971              		.loc 3 321 0 discriminator 3
 972 006c 7B8B     		ldrh	r3, [r7, #26]
 973 006e 5B00     		lsls	r3, r3, #1
ARM GAS  C:\Users\tmj32\AppData\Local\Temp\ccrrExWC.s 			page 36


 974 0070 FA68     		ldr	r2, [r7, #12]
 975 0072 D118     		adds	r1, r2, r3
 322:..\..\..\lvgl\version_6.1.2\lvgl\src\lv_objx/lv_chart.c ****                         ser->points[(i + ser->start_point) % point_cnt_old]; /*Copy old contents to
 976              		.loc 3 322 0 discriminator 3
 977 0074 FB69     		ldr	r3, [r7, #28]
 978 0076 1868     		ldr	r0, [r3]
 979 0078 7B8B     		ldrh	r3, [r7, #26]
 980 007a FA69     		ldr	r2, [r7, #28]
 981 007c 1289     		ldrh	r2, [r2, #8]
 982 007e 1344     		add	r3, r3, r2
 983 0080 7A8A     		ldrh	r2, [r7, #18]
 984 0082 93FBF2F4 		sdiv	r4, r3, r2
 985 0086 02FB04F2 		mul	r2, r2, r4
 986 008a 9B1A     		subs	r3, r3, r2
 987 008c 5B00     		lsls	r3, r3, #1
 988 008e 0344     		add	r3, r3, r0
 989 0090 B3F90030 		ldrsh	r3, [r3]
 321:..\..\..\lvgl\version_6.1.2\lvgl\src\lv_objx/lv_chart.c ****                     new_points[i] =
 990              		.loc 3 321 0 discriminator 3
 991 0094 0B80     		strh	r3, [r1]	@ movhi
 320:..\..\..\lvgl\version_6.1.2\lvgl\src\lv_objx/lv_chart.c ****                 for(i = 0; i < point_cnt_old; i++) {
 992              		.loc 3 320 0 discriminator 3
 993 0096 7B8B     		ldrh	r3, [r7, #26]
 994 0098 0133     		adds	r3, r3, #1
 995 009a 7B83     		strh	r3, [r7, #26]	@ movhi
 996              	.L52:
 320:..\..\..\lvgl\version_6.1.2\lvgl\src\lv_objx/lv_chart.c ****                 for(i = 0; i < point_cnt_old; i++) {
 997              		.loc 3 320 0 is_stmt 0 discriminator 1
 998 009c 7A8B     		ldrh	r2, [r7, #26]
 999 009e 7B8A     		ldrh	r3, [r7, #18]
 1000 00a0 9A42     		cmp	r2, r3
 1001 00a2 E3D3     		bcc	.L53
 323:..\..\..\lvgl\version_6.1.2\lvgl\src\lv_objx/lv_chart.c ****                 }
 324:..\..\..\lvgl\version_6.1.2\lvgl\src\lv_objx/lv_chart.c ****                 for(i = point_cnt_old; i < point_cnt; i++) {
 1002              		.loc 3 324 0 is_stmt 1
 1003 00a4 7B8A     		ldrh	r3, [r7, #18]	@ movhi
 1004 00a6 7B83     		strh	r3, [r7, #26]	@ movhi
 1005 00a8 08E0     		b	.L54
 1006              	.L55:
 325:..\..\..\lvgl\version_6.1.2\lvgl\src\lv_objx/lv_chart.c ****                     new_points[i] = def; /*Fill up the rest with default value*/
 1007              		.loc 3 325 0 discriminator 3
 1008 00aa 7B8B     		ldrh	r3, [r7, #26]
 1009 00ac 5B00     		lsls	r3, r3, #1
 1010 00ae FA68     		ldr	r2, [r7, #12]
 1011 00b0 1344     		add	r3, r3, r2
 1012 00b2 3A8A     		ldrh	r2, [r7, #16]	@ movhi
 1013 00b4 1A80     		strh	r2, [r3]	@ movhi
 324:..\..\..\lvgl\version_6.1.2\lvgl\src\lv_objx/lv_chart.c ****                     new_points[i] = def; /*Fill up the rest with default value*/
 1014              		.loc 3 324 0 discriminator 3
 1015 00b6 7B8B     		ldrh	r3, [r7, #26]
 1016 00b8 0133     		adds	r3, r3, #1
 1017 00ba 7B83     		strh	r3, [r7, #26]	@ movhi
 1018              	.L54:
 324:..\..\..\lvgl\version_6.1.2\lvgl\src\lv_objx/lv_chart.c ****                     new_points[i] = def; /*Fill up the rest with default value*/
 1019              		.loc 3 324 0 is_stmt 0 discriminator 1
 1020 00bc 7A8B     		ldrh	r2, [r7, #26]
 1021 00be 7B88     		ldrh	r3, [r7, #2]
ARM GAS  C:\Users\tmj32\AppData\Local\Temp\ccrrExWC.s 			page 37


 1022 00c0 9A42     		cmp	r2, r3
 1023 00c2 F2D3     		bcc	.L55
 1024 00c4 1EE0     		b	.L56
 1025              	.L51:
 326:..\..\..\lvgl\version_6.1.2\lvgl\src\lv_objx/lv_chart.c ****                 }
 327:..\..\..\lvgl\version_6.1.2\lvgl\src\lv_objx/lv_chart.c ****             } else {
 328:..\..\..\lvgl\version_6.1.2\lvgl\src\lv_objx/lv_chart.c ****                 for(i = 0; i < point_cnt; i++) {
 1026              		.loc 3 328 0 is_stmt 1
 1027 00c6 0023     		movs	r3, #0
 1028 00c8 7B83     		strh	r3, [r7, #26]	@ movhi
 1029 00ca 17E0     		b	.L57
 1030              	.L58:
 329:..\..\..\lvgl\version_6.1.2\lvgl\src\lv_objx/lv_chart.c ****                     new_points[i] =
 1031              		.loc 3 329 0 discriminator 3
 1032 00cc 7B8B     		ldrh	r3, [r7, #26]
 1033 00ce 5B00     		lsls	r3, r3, #1
 1034 00d0 FA68     		ldr	r2, [r7, #12]
 1035 00d2 D118     		adds	r1, r2, r3
 330:..\..\..\lvgl\version_6.1.2\lvgl\src\lv_objx/lv_chart.c ****                         ser->points[(i + ser->start_point) % point_cnt_old]; /*Copy old contents to
 1036              		.loc 3 330 0 discriminator 3
 1037 00d4 FB69     		ldr	r3, [r7, #28]
 1038 00d6 1868     		ldr	r0, [r3]
 1039 00d8 7B8B     		ldrh	r3, [r7, #26]
 1040 00da FA69     		ldr	r2, [r7, #28]
 1041 00dc 1289     		ldrh	r2, [r2, #8]
 1042 00de 1344     		add	r3, r3, r2
 1043 00e0 7A8A     		ldrh	r2, [r7, #18]
 1044 00e2 93FBF2F4 		sdiv	r4, r3, r2
 1045 00e6 02FB04F2 		mul	r2, r2, r4
 1046 00ea 9B1A     		subs	r3, r3, r2
 1047 00ec 5B00     		lsls	r3, r3, #1
 1048 00ee 0344     		add	r3, r3, r0
 1049 00f0 B3F90030 		ldrsh	r3, [r3]
 329:..\..\..\lvgl\version_6.1.2\lvgl\src\lv_objx/lv_chart.c ****                     new_points[i] =
 1050              		.loc 3 329 0 discriminator 3
 1051 00f4 0B80     		strh	r3, [r1]	@ movhi
 328:..\..\..\lvgl\version_6.1.2\lvgl\src\lv_objx/lv_chart.c ****                     new_points[i] =
 1052              		.loc 3 328 0 discriminator 3
 1053 00f6 7B8B     		ldrh	r3, [r7, #26]
 1054 00f8 0133     		adds	r3, r3, #1
 1055 00fa 7B83     		strh	r3, [r7, #26]	@ movhi
 1056              	.L57:
 328:..\..\..\lvgl\version_6.1.2\lvgl\src\lv_objx/lv_chart.c ****                     new_points[i] =
 1057              		.loc 3 328 0 is_stmt 0 discriminator 1
 1058 00fc 7A8B     		ldrh	r2, [r7, #26]
 1059 00fe 7B88     		ldrh	r3, [r7, #2]
 1060 0100 9A42     		cmp	r2, r3
 1061 0102 E3D3     		bcc	.L58
 1062              	.L56:
 331:..\..\..\lvgl\version_6.1.2\lvgl\src\lv_objx/lv_chart.c ****                 }
 332:..\..\..\lvgl\version_6.1.2\lvgl\src\lv_objx/lv_chart.c ****             }
 333:..\..\..\lvgl\version_6.1.2\lvgl\src\lv_objx/lv_chart.c **** 
 334:..\..\..\lvgl\version_6.1.2\lvgl\src\lv_objx/lv_chart.c ****             /*Switch over pointer from old to new*/
 335:..\..\..\lvgl\version_6.1.2\lvgl\src\lv_objx/lv_chart.c ****             lv_mem_free(ser->points);
 1063              		.loc 3 335 0 is_stmt 1
 1064 0104 FB69     		ldr	r3, [r7, #28]
 1065 0106 1B68     		ldr	r3, [r3]
ARM GAS  C:\Users\tmj32\AppData\Local\Temp\ccrrExWC.s 			page 38


 1066 0108 1846     		mov	r0, r3
 1067 010a FFF7FEFF 		bl	lv_mem_free
 336:..\..\..\lvgl\version_6.1.2\lvgl\src\lv_objx/lv_chart.c ****             ser->points = new_points;
 1068              		.loc 3 336 0
 1069 010e FB69     		ldr	r3, [r7, #28]
 1070 0110 FA68     		ldr	r2, [r7, #12]
 1071 0112 1A60     		str	r2, [r3]
 1072              	.LBE4:
 1073 0114 24E0     		b	.L59
 1074              	.L49:
 337:..\..\..\lvgl\version_6.1.2\lvgl\src\lv_objx/lv_chart.c ****         } else {
 338:..\..\..\lvgl\version_6.1.2\lvgl\src\lv_objx/lv_chart.c ****             ser->points = lv_mem_realloc(ser->points, sizeof(lv_coord_t) * point_cnt);
 1075              		.loc 3 338 0
 1076 0116 FB69     		ldr	r3, [r7, #28]
 1077 0118 1A68     		ldr	r2, [r3]
 1078 011a 7B88     		ldrh	r3, [r7, #2]
 1079 011c 5B00     		lsls	r3, r3, #1
 1080 011e 1946     		mov	r1, r3
 1081 0120 1046     		mov	r0, r2
 1082 0122 FFF7FEFF 		bl	lv_mem_realloc
 1083 0126 0246     		mov	r2, r0
 1084 0128 FB69     		ldr	r3, [r7, #28]
 1085 012a 1A60     		str	r2, [r3]
 339:..\..\..\lvgl\version_6.1.2\lvgl\src\lv_objx/lv_chart.c ****             LV_ASSERT_MEM(ser->points);
 340:..\..\..\lvgl\version_6.1.2\lvgl\src\lv_objx/lv_chart.c ****             if(ser->points == NULL) return;
 1086              		.loc 3 340 0
 1087 012c FB69     		ldr	r3, [r7, #28]
 1088 012e 1B68     		ldr	r3, [r3]
 1089 0130 002B     		cmp	r3, #0
 1090 0132 2DD0     		beq	.L66
 341:..\..\..\lvgl\version_6.1.2\lvgl\src\lv_objx/lv_chart.c ****             /*Initialize the new points*/
 342:..\..\..\lvgl\version_6.1.2\lvgl\src\lv_objx/lv_chart.c ****             if(point_cnt > point_cnt_old) {
 1091              		.loc 3 342 0
 1092 0134 7A88     		ldrh	r2, [r7, #2]
 1093 0136 7B8A     		ldrh	r3, [r7, #18]
 1094 0138 9A42     		cmp	r2, r3
 1095 013a 11D9     		bls	.L59
 343:..\..\..\lvgl\version_6.1.2\lvgl\src\lv_objx/lv_chart.c ****                 for(i = point_cnt_old - 1; i < point_cnt; i++) {
 1096              		.loc 3 343 0
 1097 013c 7B8A     		ldrh	r3, [r7, #18]	@ movhi
 1098 013e 013B     		subs	r3, r3, #1
 1099 0140 7B83     		strh	r3, [r7, #26]	@ movhi
 1100 0142 09E0     		b	.L61
 1101              	.L62:
 344:..\..\..\lvgl\version_6.1.2\lvgl\src\lv_objx/lv_chart.c ****                     ser->points[i] = def;
 1102              		.loc 3 344 0 discriminator 3
 1103 0144 FB69     		ldr	r3, [r7, #28]
 1104 0146 1A68     		ldr	r2, [r3]
 1105 0148 7B8B     		ldrh	r3, [r7, #26]
 1106 014a 5B00     		lsls	r3, r3, #1
 1107 014c 1344     		add	r3, r3, r2
 1108 014e 3A8A     		ldrh	r2, [r7, #16]	@ movhi
 1109 0150 1A80     		strh	r2, [r3]	@ movhi
 343:..\..\..\lvgl\version_6.1.2\lvgl\src\lv_objx/lv_chart.c ****                 for(i = point_cnt_old - 1; i < point_cnt; i++) {
 1110              		.loc 3 343 0 discriminator 3
 1111 0152 7B8B     		ldrh	r3, [r7, #26]
 1112 0154 0133     		adds	r3, r3, #1
ARM GAS  C:\Users\tmj32\AppData\Local\Temp\ccrrExWC.s 			page 39


 1113 0156 7B83     		strh	r3, [r7, #26]	@ movhi
 1114              	.L61:
 343:..\..\..\lvgl\version_6.1.2\lvgl\src\lv_objx/lv_chart.c ****                 for(i = point_cnt_old - 1; i < point_cnt; i++) {
 1115              		.loc 3 343 0 is_stmt 0 discriminator 1
 1116 0158 7A8B     		ldrh	r2, [r7, #26]
 1117 015a 7B88     		ldrh	r3, [r7, #2]
 1118 015c 9A42     		cmp	r2, r3
 1119 015e F1D3     		bcc	.L62
 1120              	.L59:
 345:..\..\..\lvgl\version_6.1.2\lvgl\src\lv_objx/lv_chart.c ****                 }
 346:..\..\..\lvgl\version_6.1.2\lvgl\src\lv_objx/lv_chart.c ****             }
 347:..\..\..\lvgl\version_6.1.2\lvgl\src\lv_objx/lv_chart.c ****         }
 348:..\..\..\lvgl\version_6.1.2\lvgl\src\lv_objx/lv_chart.c **** 
 349:..\..\..\lvgl\version_6.1.2\lvgl\src\lv_objx/lv_chart.c ****         ser->start_point = 0;
 1121              		.loc 3 349 0 is_stmt 1 discriminator 2
 1122 0160 FB69     		ldr	r3, [r7, #28]
 1123 0162 0022     		movs	r2, #0
 1124 0164 1A81     		strh	r2, [r3, #8]	@ movhi
 312:..\..\..\lvgl\version_6.1.2\lvgl\src\lv_objx/lv_chart.c ****     {
 1125              		.loc 3 312 0 discriminator 2
 1126 0166 7B69     		ldr	r3, [r7, #20]
 1127 0168 F969     		ldr	r1, [r7, #28]
 1128 016a 1846     		mov	r0, r3
 1129 016c FFF7FEFF 		bl	lv_ll_get_prev
 1130 0170 F861     		str	r0, [r7, #28]
 1131              	.L48:
 312:..\..\..\lvgl\version_6.1.2\lvgl\src\lv_objx/lv_chart.c ****     {
 1132              		.loc 3 312 0 is_stmt 0 discriminator 1
 1133 0172 FB69     		ldr	r3, [r7, #28]
 1134 0174 002B     		cmp	r3, #0
 1135 0176 7FF464AF 		bne	.L63
 350:..\..\..\lvgl\version_6.1.2\lvgl\src\lv_objx/lv_chart.c ****     }
 351:..\..\..\lvgl\version_6.1.2\lvgl\src\lv_objx/lv_chart.c **** 
 352:..\..\..\lvgl\version_6.1.2\lvgl\src\lv_objx/lv_chart.c ****     ext->point_cnt = point_cnt;
 1136              		.loc 3 352 0 is_stmt 1
 1137 017a 7B69     		ldr	r3, [r7, #20]
 1138 017c 7A88     		ldrh	r2, [r7, #2]	@ movhi
 1139 017e 5A82     		strh	r2, [r3, #18]	@ movhi
 353:..\..\..\lvgl\version_6.1.2\lvgl\src\lv_objx/lv_chart.c **** 
 354:..\..\..\lvgl\version_6.1.2\lvgl\src\lv_objx/lv_chart.c ****     lv_chart_refresh(chart);
 1140              		.loc 3 354 0
 1141 0180 7868     		ldr	r0, [r7, #4]
 1142 0182 FFF7FEFF 		bl	lv_chart_refresh
 1143 0186 04E0     		b	.L44
 1144              	.L64:
 303:..\..\..\lvgl\version_6.1.2\lvgl\src\lv_objx/lv_chart.c **** 
 1145              		.loc 3 303 0
 1146 0188 00BF     		nop
 1147 018a 02E0     		b	.L44
 1148              	.L65:
 1149              	.LBB5:
 317:..\..\..\lvgl\version_6.1.2\lvgl\src\lv_objx/lv_chart.c **** 
 1150              		.loc 3 317 0
 1151 018c 00BF     		nop
 1152 018e 00E0     		b	.L44
 1153              	.L66:
 1154              	.LBE5:
ARM GAS  C:\Users\tmj32\AppData\Local\Temp\ccrrExWC.s 			page 40


 340:..\..\..\lvgl\version_6.1.2\lvgl\src\lv_objx/lv_chart.c ****             /*Initialize the new points*/
 1155              		.loc 3 340 0
 1156 0190 00BF     		nop
 1157              	.L44:
 355:..\..\..\lvgl\version_6.1.2\lvgl\src\lv_objx/lv_chart.c **** }
 1158              		.loc 3 355 0
 1159 0192 2437     		adds	r7, r7, #36
 1160              		.cfi_def_cfa_offset 12
 1161 0194 BD46     		mov	sp, r7
 1162              		.cfi_def_cfa_register 13
 1163              		@ sp needed
 1164 0196 90BD     		pop	{r4, r7, pc}
 1165              		.cfi_endproc
 1166              	.LFE41:
 1167              		.size	lv_chart_set_point_count, .-lv_chart_set_point_count
 1168              		.section	.text.lv_chart_set_series_opa,"ax",%progbits
 1169              		.align	2
 1170              		.global	lv_chart_set_series_opa
 1171              		.thumb
 1172              		.thumb_func
 1173              		.type	lv_chart_set_series_opa, %function
 1174              	lv_chart_set_series_opa:
 1175              	.LFB42:
 356:..\..\..\lvgl\version_6.1.2\lvgl\src\lv_objx/lv_chart.c **** 
 357:..\..\..\lvgl\version_6.1.2\lvgl\src\lv_objx/lv_chart.c **** /**
 358:..\..\..\lvgl\version_6.1.2\lvgl\src\lv_objx/lv_chart.c ****  * Set the opacity of the data series
 359:..\..\..\lvgl\version_6.1.2\lvgl\src\lv_objx/lv_chart.c ****  * @param chart pointer to a chart object
 360:..\..\..\lvgl\version_6.1.2\lvgl\src\lv_objx/lv_chart.c ****  * @param opa opacity of the data series
 361:..\..\..\lvgl\version_6.1.2\lvgl\src\lv_objx/lv_chart.c ****  */
 362:..\..\..\lvgl\version_6.1.2\lvgl\src\lv_objx/lv_chart.c **** void lv_chart_set_series_opa(lv_obj_t * chart, lv_opa_t opa)
 363:..\..\..\lvgl\version_6.1.2\lvgl\src\lv_objx/lv_chart.c **** {
 1176              		.loc 3 363 0
 1177              		.cfi_startproc
 1178              		@ args = 0, pretend = 0, frame = 16
 1179              		@ frame_needed = 1, uses_anonymous_args = 0
 1180 0000 80B5     		push	{r7, lr}
 1181              		.cfi_def_cfa_offset 8
 1182              		.cfi_offset 7, -8
 1183              		.cfi_offset 14, -4
 1184 0002 84B0     		sub	sp, sp, #16
 1185              		.cfi_def_cfa_offset 24
 1186 0004 00AF     		add	r7, sp, #0
 1187              		.cfi_def_cfa_register 7
 1188 0006 7860     		str	r0, [r7, #4]
 1189 0008 0B46     		mov	r3, r1
 1190 000a FB70     		strb	r3, [r7, #3]
 364:..\..\..\lvgl\version_6.1.2\lvgl\src\lv_objx/lv_chart.c ****     LV_ASSERT_OBJ(chart, LV_OBJX_NAME);
 365:..\..\..\lvgl\version_6.1.2\lvgl\src\lv_objx/lv_chart.c **** 
 366:..\..\..\lvgl\version_6.1.2\lvgl\src\lv_objx/lv_chart.c ****     lv_chart_ext_t * ext = lv_obj_get_ext_attr(chart);
 1191              		.loc 3 366 0
 1192 000c 7868     		ldr	r0, [r7, #4]
 1193 000e FFF7FEFF 		bl	lv_obj_get_ext_attr
 1194 0012 F860     		str	r0, [r7, #12]
 367:..\..\..\lvgl\version_6.1.2\lvgl\src\lv_objx/lv_chart.c ****     if(ext->series.opa == opa) return;
 1195              		.loc 3 367 0
 1196 0014 FB68     		ldr	r3, [r7, #12]
 1197 0016 93F83730 		ldrb	r3, [r3, #55]	@ zero_extendqisi2
ARM GAS  C:\Users\tmj32\AppData\Local\Temp\ccrrExWC.s 			page 41


 1198 001a FA78     		ldrb	r2, [r7, #3]	@ zero_extendqisi2
 1199 001c 9A42     		cmp	r2, r3
 1200 001e 07D0     		beq	.L70
 368:..\..\..\lvgl\version_6.1.2\lvgl\src\lv_objx/lv_chart.c **** 
 369:..\..\..\lvgl\version_6.1.2\lvgl\src\lv_objx/lv_chart.c ****     ext->series.opa = opa;
 1201              		.loc 3 369 0
 1202 0020 FB68     		ldr	r3, [r7, #12]
 1203 0022 FA78     		ldrb	r2, [r7, #3]
 1204 0024 83F83720 		strb	r2, [r3, #55]
 370:..\..\..\lvgl\version_6.1.2\lvgl\src\lv_objx/lv_chart.c ****     lv_obj_invalidate(chart);
 1205              		.loc 3 370 0
 1206 0028 7868     		ldr	r0, [r7, #4]
 1207 002a FFF7FEFF 		bl	lv_obj_invalidate
 1208 002e 00E0     		b	.L67
 1209              	.L70:
 367:..\..\..\lvgl\version_6.1.2\lvgl\src\lv_objx/lv_chart.c ****     if(ext->series.opa == opa) return;
 1210              		.loc 3 367 0
 1211 0030 00BF     		nop
 1212              	.L67:
 371:..\..\..\lvgl\version_6.1.2\lvgl\src\lv_objx/lv_chart.c **** }
 1213              		.loc 3 371 0
 1214 0032 1037     		adds	r7, r7, #16
 1215              		.cfi_def_cfa_offset 8
 1216 0034 BD46     		mov	sp, r7
 1217              		.cfi_def_cfa_register 13
 1218              		@ sp needed
 1219 0036 80BD     		pop	{r7, pc}
 1220              		.cfi_endproc
 1221              	.LFE42:
 1222              		.size	lv_chart_set_series_opa, .-lv_chart_set_series_opa
 1223              		.section	.text.lv_chart_set_series_width,"ax",%progbits
 1224              		.align	2
 1225              		.global	lv_chart_set_series_width
 1226              		.thumb
 1227              		.thumb_func
 1228              		.type	lv_chart_set_series_width, %function
 1229              	lv_chart_set_series_width:
 1230              	.LFB43:
 372:..\..\..\lvgl\version_6.1.2\lvgl\src\lv_objx/lv_chart.c **** 
 373:..\..\..\lvgl\version_6.1.2\lvgl\src\lv_objx/lv_chart.c **** /**
 374:..\..\..\lvgl\version_6.1.2\lvgl\src\lv_objx/lv_chart.c ****  * Set the line width or point radius of the data series
 375:..\..\..\lvgl\version_6.1.2\lvgl\src\lv_objx/lv_chart.c ****  * @param chart pointer to a chart object
 376:..\..\..\lvgl\version_6.1.2\lvgl\src\lv_objx/lv_chart.c ****  * @param width the new width
 377:..\..\..\lvgl\version_6.1.2\lvgl\src\lv_objx/lv_chart.c ****  */
 378:..\..\..\lvgl\version_6.1.2\lvgl\src\lv_objx/lv_chart.c **** void lv_chart_set_series_width(lv_obj_t * chart, lv_coord_t width)
 379:..\..\..\lvgl\version_6.1.2\lvgl\src\lv_objx/lv_chart.c **** {
 1231              		.loc 3 379 0
 1232              		.cfi_startproc
 1233              		@ args = 0, pretend = 0, frame = 16
 1234              		@ frame_needed = 1, uses_anonymous_args = 0
 1235 0000 80B5     		push	{r7, lr}
 1236              		.cfi_def_cfa_offset 8
 1237              		.cfi_offset 7, -8
 1238              		.cfi_offset 14, -4
 1239 0002 84B0     		sub	sp, sp, #16
 1240              		.cfi_def_cfa_offset 24
 1241 0004 00AF     		add	r7, sp, #0
ARM GAS  C:\Users\tmj32\AppData\Local\Temp\ccrrExWC.s 			page 42


 1242              		.cfi_def_cfa_register 7
 1243 0006 7860     		str	r0, [r7, #4]
 1244 0008 0B46     		mov	r3, r1
 1245 000a 7B80     		strh	r3, [r7, #2]	@ movhi
 380:..\..\..\lvgl\version_6.1.2\lvgl\src\lv_objx/lv_chart.c ****     LV_ASSERT_OBJ(chart, LV_OBJX_NAME);
 381:..\..\..\lvgl\version_6.1.2\lvgl\src\lv_objx/lv_chart.c **** 
 382:..\..\..\lvgl\version_6.1.2\lvgl\src\lv_objx/lv_chart.c ****     lv_chart_ext_t * ext = lv_obj_get_ext_attr(chart);
 1246              		.loc 3 382 0
 1247 000c 7868     		ldr	r0, [r7, #4]
 1248 000e FFF7FEFF 		bl	lv_obj_get_ext_attr
 1249 0012 F860     		str	r0, [r7, #12]
 383:..\..\..\lvgl\version_6.1.2\lvgl\src\lv_objx/lv_chart.c ****     if(ext->series.width == width) return;
 1250              		.loc 3 383 0
 1251 0014 FB68     		ldr	r3, [r7, #12]
 1252 0016 B3F93430 		ldrsh	r3, [r3, #52]
 1253 001a B7F90220 		ldrsh	r2, [r7, #2]
 1254 001e 9A42     		cmp	r2, r3
 1255 0020 06D0     		beq	.L74
 384:..\..\..\lvgl\version_6.1.2\lvgl\src\lv_objx/lv_chart.c **** 
 385:..\..\..\lvgl\version_6.1.2\lvgl\src\lv_objx/lv_chart.c ****     ext->series.width = width;
 1256              		.loc 3 385 0
 1257 0022 FB68     		ldr	r3, [r7, #12]
 1258 0024 7A88     		ldrh	r2, [r7, #2]	@ movhi
 1259 0026 9A86     		strh	r2, [r3, #52]	@ movhi
 386:..\..\..\lvgl\version_6.1.2\lvgl\src\lv_objx/lv_chart.c ****     lv_obj_invalidate(chart);
 1260              		.loc 3 386 0
 1261 0028 7868     		ldr	r0, [r7, #4]
 1262 002a FFF7FEFF 		bl	lv_obj_invalidate
 1263 002e 00E0     		b	.L71
 1264              	.L74:
 383:..\..\..\lvgl\version_6.1.2\lvgl\src\lv_objx/lv_chart.c ****     if(ext->series.width == width) return;
 1265              		.loc 3 383 0
 1266 0030 00BF     		nop
 1267              	.L71:
 387:..\..\..\lvgl\version_6.1.2\lvgl\src\lv_objx/lv_chart.c **** }
 1268              		.loc 3 387 0
 1269 0032 1037     		adds	r7, r7, #16
 1270              		.cfi_def_cfa_offset 8
 1271 0034 BD46     		mov	sp, r7
 1272              		.cfi_def_cfa_register 13
 1273              		@ sp needed
 1274 0036 80BD     		pop	{r7, pc}
 1275              		.cfi_endproc
 1276              	.LFE43:
 1277              		.size	lv_chart_set_series_width, .-lv_chart_set_series_width
 1278              		.section	.text.lv_chart_set_series_darking,"ax",%progbits
 1279              		.align	2
 1280              		.global	lv_chart_set_series_darking
 1281              		.thumb
 1282              		.thumb_func
 1283              		.type	lv_chart_set_series_darking, %function
 1284              	lv_chart_set_series_darking:
 1285              	.LFB44:
 388:..\..\..\lvgl\version_6.1.2\lvgl\src\lv_objx/lv_chart.c **** /**
 389:..\..\..\lvgl\version_6.1.2\lvgl\src\lv_objx/lv_chart.c ****  * Set the dark effect on the bottom of the points or columns
 390:..\..\..\lvgl\version_6.1.2\lvgl\src\lv_objx/lv_chart.c ****  * @param chart pointer to a chart object
 391:..\..\..\lvgl\version_6.1.2\lvgl\src\lv_objx/lv_chart.c ****  * @param dark_eff dark effect level (LV_OPA_TRANSP to turn off)
ARM GAS  C:\Users\tmj32\AppData\Local\Temp\ccrrExWC.s 			page 43


 392:..\..\..\lvgl\version_6.1.2\lvgl\src\lv_objx/lv_chart.c ****  */
 393:..\..\..\lvgl\version_6.1.2\lvgl\src\lv_objx/lv_chart.c **** void lv_chart_set_series_darking(lv_obj_t * chart, lv_opa_t dark_eff)
 394:..\..\..\lvgl\version_6.1.2\lvgl\src\lv_objx/lv_chart.c **** {
 1286              		.loc 3 394 0
 1287              		.cfi_startproc
 1288              		@ args = 0, pretend = 0, frame = 16
 1289              		@ frame_needed = 1, uses_anonymous_args = 0
 1290 0000 80B5     		push	{r7, lr}
 1291              		.cfi_def_cfa_offset 8
 1292              		.cfi_offset 7, -8
 1293              		.cfi_offset 14, -4
 1294 0002 84B0     		sub	sp, sp, #16
 1295              		.cfi_def_cfa_offset 24
 1296 0004 00AF     		add	r7, sp, #0
 1297              		.cfi_def_cfa_register 7
 1298 0006 7860     		str	r0, [r7, #4]
 1299 0008 0B46     		mov	r3, r1
 1300 000a FB70     		strb	r3, [r7, #3]
 395:..\..\..\lvgl\version_6.1.2\lvgl\src\lv_objx/lv_chart.c ****     LV_ASSERT_OBJ(chart, LV_OBJX_NAME);
 396:..\..\..\lvgl\version_6.1.2\lvgl\src\lv_objx/lv_chart.c **** 
 397:..\..\..\lvgl\version_6.1.2\lvgl\src\lv_objx/lv_chart.c ****     lv_chart_ext_t * ext = lv_obj_get_ext_attr(chart);
 1301              		.loc 3 397 0
 1302 000c 7868     		ldr	r0, [r7, #4]
 1303 000e FFF7FEFF 		bl	lv_obj_get_ext_attr
 1304 0012 F860     		str	r0, [r7, #12]
 398:..\..\..\lvgl\version_6.1.2\lvgl\src\lv_objx/lv_chart.c ****     if(ext->series.dark == dark_eff) return;
 1305              		.loc 3 398 0
 1306 0014 FB68     		ldr	r3, [r7, #12]
 1307 0016 93F83830 		ldrb	r3, [r3, #56]	@ zero_extendqisi2
 1308 001a FA78     		ldrb	r2, [r7, #3]	@ zero_extendqisi2
 1309 001c 9A42     		cmp	r2, r3
 1310 001e 07D0     		beq	.L78
 399:..\..\..\lvgl\version_6.1.2\lvgl\src\lv_objx/lv_chart.c **** 
 400:..\..\..\lvgl\version_6.1.2\lvgl\src\lv_objx/lv_chart.c ****     ext->series.dark = dark_eff;
 1311              		.loc 3 400 0
 1312 0020 FB68     		ldr	r3, [r7, #12]
 1313 0022 FA78     		ldrb	r2, [r7, #3]
 1314 0024 83F83820 		strb	r2, [r3, #56]
 401:..\..\..\lvgl\version_6.1.2\lvgl\src\lv_objx/lv_chart.c ****     lv_obj_invalidate(chart);
 1315              		.loc 3 401 0
 1316 0028 7868     		ldr	r0, [r7, #4]
 1317 002a FFF7FEFF 		bl	lv_obj_invalidate
 1318 002e 00E0     		b	.L75
 1319              	.L78:
 398:..\..\..\lvgl\version_6.1.2\lvgl\src\lv_objx/lv_chart.c ****     if(ext->series.dark == dark_eff) return;
 1320              		.loc 3 398 0
 1321 0030 00BF     		nop
 1322              	.L75:
 402:..\..\..\lvgl\version_6.1.2\lvgl\src\lv_objx/lv_chart.c **** }
 1323              		.loc 3 402 0
 1324 0032 1037     		adds	r7, r7, #16
 1325              		.cfi_def_cfa_offset 8
 1326 0034 BD46     		mov	sp, r7
 1327              		.cfi_def_cfa_register 13
 1328              		@ sp needed
 1329 0036 80BD     		pop	{r7, pc}
 1330              		.cfi_endproc
ARM GAS  C:\Users\tmj32\AppData\Local\Temp\ccrrExWC.s 			page 44


 1331              	.LFE44:
 1332              		.size	lv_chart_set_series_darking, .-lv_chart_set_series_darking
 1333              		.section	.text.lv_chart_init_points,"ax",%progbits
 1334              		.align	2
 1335              		.global	lv_chart_init_points
 1336              		.thumb
 1337              		.thumb_func
 1338              		.type	lv_chart_init_points, %function
 1339              	lv_chart_init_points:
 1340              	.LFB45:
 403:..\..\..\lvgl\version_6.1.2\lvgl\src\lv_objx/lv_chart.c **** 
 404:..\..\..\lvgl\version_6.1.2\lvgl\src\lv_objx/lv_chart.c **** /**
 405:..\..\..\lvgl\version_6.1.2\lvgl\src\lv_objx/lv_chart.c ****  * Initialize all data points with a value
 406:..\..\..\lvgl\version_6.1.2\lvgl\src\lv_objx/lv_chart.c ****  * @param chart pointer to chart object
 407:..\..\..\lvgl\version_6.1.2\lvgl\src\lv_objx/lv_chart.c ****  * @param ser pointer to a data series on 'chart'
 408:..\..\..\lvgl\version_6.1.2\lvgl\src\lv_objx/lv_chart.c ****  * @param y the new value  for all points
 409:..\..\..\lvgl\version_6.1.2\lvgl\src\lv_objx/lv_chart.c ****  */
 410:..\..\..\lvgl\version_6.1.2\lvgl\src\lv_objx/lv_chart.c **** void lv_chart_init_points(lv_obj_t * chart, lv_chart_series_t * ser, lv_coord_t y)
 411:..\..\..\lvgl\version_6.1.2\lvgl\src\lv_objx/lv_chart.c **** {
 1341              		.loc 3 411 0
 1342              		.cfi_startproc
 1343              		@ args = 0, pretend = 0, frame = 24
 1344              		@ frame_needed = 1, uses_anonymous_args = 0
 1345 0000 80B5     		push	{r7, lr}
 1346              		.cfi_def_cfa_offset 8
 1347              		.cfi_offset 7, -8
 1348              		.cfi_offset 14, -4
 1349 0002 86B0     		sub	sp, sp, #24
 1350              		.cfi_def_cfa_offset 32
 1351 0004 00AF     		add	r7, sp, #0
 1352              		.cfi_def_cfa_register 7
 1353 0006 F860     		str	r0, [r7, #12]
 1354 0008 B960     		str	r1, [r7, #8]
 1355 000a 1346     		mov	r3, r2
 1356 000c FB80     		strh	r3, [r7, #6]	@ movhi
 412:..\..\..\lvgl\version_6.1.2\lvgl\src\lv_objx/lv_chart.c ****     LV_ASSERT_OBJ(chart, LV_OBJX_NAME);
 413:..\..\..\lvgl\version_6.1.2\lvgl\src\lv_objx/lv_chart.c ****     LV_ASSERT_NULL(ser);
 414:..\..\..\lvgl\version_6.1.2\lvgl\src\lv_objx/lv_chart.c **** 
 415:..\..\..\lvgl\version_6.1.2\lvgl\src\lv_objx/lv_chart.c ****     lv_chart_ext_t * ext = lv_obj_get_ext_attr(chart);
 1357              		.loc 3 415 0
 1358 000e F868     		ldr	r0, [r7, #12]
 1359 0010 FFF7FEFF 		bl	lv_obj_get_ext_attr
 1360 0014 3861     		str	r0, [r7, #16]
 416:..\..\..\lvgl\version_6.1.2\lvgl\src\lv_objx/lv_chart.c ****     uint16_t i;
 417:..\..\..\lvgl\version_6.1.2\lvgl\src\lv_objx/lv_chart.c ****     for(i = 0; i < ext->point_cnt; i++) {
 1361              		.loc 3 417 0
 1362 0016 0023     		movs	r3, #0
 1363 0018 FB82     		strh	r3, [r7, #22]	@ movhi
 1364 001a 09E0     		b	.L80
 1365              	.L81:
 418:..\..\..\lvgl\version_6.1.2\lvgl\src\lv_objx/lv_chart.c ****         ser->points[i] = y;
 1366              		.loc 3 418 0 discriminator 3
 1367 001c BB68     		ldr	r3, [r7, #8]
 1368 001e 1A68     		ldr	r2, [r3]
 1369 0020 FB8A     		ldrh	r3, [r7, #22]
 1370 0022 5B00     		lsls	r3, r3, #1
 1371 0024 1344     		add	r3, r3, r2
ARM GAS  C:\Users\tmj32\AppData\Local\Temp\ccrrExWC.s 			page 45


 1372 0026 FA88     		ldrh	r2, [r7, #6]	@ movhi
 1373 0028 1A80     		strh	r2, [r3]	@ movhi
 417:..\..\..\lvgl\version_6.1.2\lvgl\src\lv_objx/lv_chart.c ****         ser->points[i] = y;
 1374              		.loc 3 417 0 discriminator 3
 1375 002a FB8A     		ldrh	r3, [r7, #22]
 1376 002c 0133     		adds	r3, r3, #1
 1377 002e FB82     		strh	r3, [r7, #22]	@ movhi
 1378              	.L80:
 417:..\..\..\lvgl\version_6.1.2\lvgl\src\lv_objx/lv_chart.c ****         ser->points[i] = y;
 1379              		.loc 3 417 0 is_stmt 0 discriminator 1
 1380 0030 3B69     		ldr	r3, [r7, #16]
 1381 0032 5B8A     		ldrh	r3, [r3, #18]
 1382 0034 FA8A     		ldrh	r2, [r7, #22]
 1383 0036 9A42     		cmp	r2, r3
 1384 0038 F0D3     		bcc	.L81
 419:..\..\..\lvgl\version_6.1.2\lvgl\src\lv_objx/lv_chart.c ****     }
 420:..\..\..\lvgl\version_6.1.2\lvgl\src\lv_objx/lv_chart.c ****     ser->start_point = 0;
 1385              		.loc 3 420 0 is_stmt 1
 1386 003a BB68     		ldr	r3, [r7, #8]
 1387 003c 0022     		movs	r2, #0
 1388 003e 1A81     		strh	r2, [r3, #8]	@ movhi
 421:..\..\..\lvgl\version_6.1.2\lvgl\src\lv_objx/lv_chart.c ****     lv_chart_refresh(chart);
 1389              		.loc 3 421 0
 1390 0040 F868     		ldr	r0, [r7, #12]
 1391 0042 FFF7FEFF 		bl	lv_chart_refresh
 422:..\..\..\lvgl\version_6.1.2\lvgl\src\lv_objx/lv_chart.c **** }
 1392              		.loc 3 422 0
 1393 0046 00BF     		nop
 1394 0048 1837     		adds	r7, r7, #24
 1395              		.cfi_def_cfa_offset 8
 1396 004a BD46     		mov	sp, r7
 1397              		.cfi_def_cfa_register 13
 1398              		@ sp needed
 1399 004c 80BD     		pop	{r7, pc}
 1400              		.cfi_endproc
 1401              	.LFE45:
 1402              		.size	lv_chart_init_points, .-lv_chart_init_points
 1403 004e 00BF     		.section	.text.lv_chart_set_points,"ax",%progbits
 1404              		.align	2
 1405              		.global	lv_chart_set_points
 1406              		.thumb
 1407              		.thumb_func
 1408              		.type	lv_chart_set_points, %function
 1409              	lv_chart_set_points:
 1410              	.LFB46:
 423:..\..\..\lvgl\version_6.1.2\lvgl\src\lv_objx/lv_chart.c **** 
 424:..\..\..\lvgl\version_6.1.2\lvgl\src\lv_objx/lv_chart.c **** /**
 425:..\..\..\lvgl\version_6.1.2\lvgl\src\lv_objx/lv_chart.c ****  * Set the value of points from an array
 426:..\..\..\lvgl\version_6.1.2\lvgl\src\lv_objx/lv_chart.c ****  * @param chart pointer to chart object
 427:..\..\..\lvgl\version_6.1.2\lvgl\src\lv_objx/lv_chart.c ****  * @param ser pointer to a data series on 'chart'
 428:..\..\..\lvgl\version_6.1.2\lvgl\src\lv_objx/lv_chart.c ****  * @param y_array array of 'lv_coord_t' points (with 'points count' elements )
 429:..\..\..\lvgl\version_6.1.2\lvgl\src\lv_objx/lv_chart.c ****  */
 430:..\..\..\lvgl\version_6.1.2\lvgl\src\lv_objx/lv_chart.c **** void lv_chart_set_points(lv_obj_t * chart, lv_chart_series_t * ser, lv_coord_t y_array[])
 431:..\..\..\lvgl\version_6.1.2\lvgl\src\lv_objx/lv_chart.c **** {
 1411              		.loc 3 431 0
 1412              		.cfi_startproc
 1413              		@ args = 0, pretend = 0, frame = 24
ARM GAS  C:\Users\tmj32\AppData\Local\Temp\ccrrExWC.s 			page 46


 1414              		@ frame_needed = 1, uses_anonymous_args = 0
 1415 0000 80B5     		push	{r7, lr}
 1416              		.cfi_def_cfa_offset 8
 1417              		.cfi_offset 7, -8
 1418              		.cfi_offset 14, -4
 1419 0002 86B0     		sub	sp, sp, #24
 1420              		.cfi_def_cfa_offset 32
 1421 0004 00AF     		add	r7, sp, #0
 1422              		.cfi_def_cfa_register 7
 1423 0006 F860     		str	r0, [r7, #12]
 1424 0008 B960     		str	r1, [r7, #8]
 1425 000a 7A60     		str	r2, [r7, #4]
 432:..\..\..\lvgl\version_6.1.2\lvgl\src\lv_objx/lv_chart.c ****     LV_ASSERT_OBJ(chart, LV_OBJX_NAME);
 433:..\..\..\lvgl\version_6.1.2\lvgl\src\lv_objx/lv_chart.c ****     LV_ASSERT_NULL(ser);
 434:..\..\..\lvgl\version_6.1.2\lvgl\src\lv_objx/lv_chart.c **** 
 435:..\..\..\lvgl\version_6.1.2\lvgl\src\lv_objx/lv_chart.c ****     lv_chart_ext_t * ext = lv_obj_get_ext_attr(chart);
 1426              		.loc 3 435 0
 1427 000c F868     		ldr	r0, [r7, #12]
 1428 000e FFF7FEFF 		bl	lv_obj_get_ext_attr
 1429 0012 7861     		str	r0, [r7, #20]
 436:..\..\..\lvgl\version_6.1.2\lvgl\src\lv_objx/lv_chart.c ****     memcpy(ser->points, y_array, ext->point_cnt * (sizeof(lv_coord_t)));
 1430              		.loc 3 436 0
 1431 0014 BB68     		ldr	r3, [r7, #8]
 1432 0016 1868     		ldr	r0, [r3]
 1433 0018 7B69     		ldr	r3, [r7, #20]
 1434 001a 5B8A     		ldrh	r3, [r3, #18]
 1435 001c 5B00     		lsls	r3, r3, #1
 1436 001e 1A46     		mov	r2, r3
 1437 0020 7968     		ldr	r1, [r7, #4]
 1438 0022 FFF7FEFF 		bl	memcpy
 437:..\..\..\lvgl\version_6.1.2\lvgl\src\lv_objx/lv_chart.c ****     ser->start_point = 0;
 1439              		.loc 3 437 0
 1440 0026 BB68     		ldr	r3, [r7, #8]
 1441 0028 0022     		movs	r2, #0
 1442 002a 1A81     		strh	r2, [r3, #8]	@ movhi
 438:..\..\..\lvgl\version_6.1.2\lvgl\src\lv_objx/lv_chart.c ****     lv_chart_refresh(chart);
 1443              		.loc 3 438 0
 1444 002c F868     		ldr	r0, [r7, #12]
 1445 002e FFF7FEFF 		bl	lv_chart_refresh
 439:..\..\..\lvgl\version_6.1.2\lvgl\src\lv_objx/lv_chart.c **** }
 1446              		.loc 3 439 0
 1447 0032 00BF     		nop
 1448 0034 1837     		adds	r7, r7, #24
 1449              		.cfi_def_cfa_offset 8
 1450 0036 BD46     		mov	sp, r7
 1451              		.cfi_def_cfa_register 13
 1452              		@ sp needed
 1453 0038 80BD     		pop	{r7, pc}
 1454              		.cfi_endproc
 1455              	.LFE46:
 1456              		.size	lv_chart_set_points, .-lv_chart_set_points
 1457 003a 00BF     		.section	.text.lv_chart_set_next,"ax",%progbits
 1458              		.align	2
 1459              		.global	lv_chart_set_next
 1460              		.thumb
 1461              		.thumb_func
 1462              		.type	lv_chart_set_next, %function
ARM GAS  C:\Users\tmj32\AppData\Local\Temp\ccrrExWC.s 			page 47


 1463              	lv_chart_set_next:
 1464              	.LFB47:
 440:..\..\..\lvgl\version_6.1.2\lvgl\src\lv_objx/lv_chart.c **** 
 441:..\..\..\lvgl\version_6.1.2\lvgl\src\lv_objx/lv_chart.c **** /**
 442:..\..\..\lvgl\version_6.1.2\lvgl\src\lv_objx/lv_chart.c ****  * Shift all data left and set the rightmost data on a data line
 443:..\..\..\lvgl\version_6.1.2\lvgl\src\lv_objx/lv_chart.c ****  * @param chart pointer to chart object
 444:..\..\..\lvgl\version_6.1.2\lvgl\src\lv_objx/lv_chart.c ****  * @param ser pointer to a data series on 'chart'
 445:..\..\..\lvgl\version_6.1.2\lvgl\src\lv_objx/lv_chart.c ****  * @param y the new value of the rightmost data
 446:..\..\..\lvgl\version_6.1.2\lvgl\src\lv_objx/lv_chart.c ****  */
 447:..\..\..\lvgl\version_6.1.2\lvgl\src\lv_objx/lv_chart.c **** void lv_chart_set_next(lv_obj_t * chart, lv_chart_series_t * ser, lv_coord_t y)
 448:..\..\..\lvgl\version_6.1.2\lvgl\src\lv_objx/lv_chart.c **** {
 1465              		.loc 3 448 0
 1466              		.cfi_startproc
 1467              		@ args = 0, pretend = 0, frame = 24
 1468              		@ frame_needed = 1, uses_anonymous_args = 0
 1469 0000 80B5     		push	{r7, lr}
 1470              		.cfi_def_cfa_offset 8
 1471              		.cfi_offset 7, -8
 1472              		.cfi_offset 14, -4
 1473 0002 86B0     		sub	sp, sp, #24
 1474              		.cfi_def_cfa_offset 32
 1475 0004 00AF     		add	r7, sp, #0
 1476              		.cfi_def_cfa_register 7
 1477 0006 F860     		str	r0, [r7, #12]
 1478 0008 B960     		str	r1, [r7, #8]
 1479 000a 1346     		mov	r3, r2
 1480 000c FB80     		strh	r3, [r7, #6]	@ movhi
 449:..\..\..\lvgl\version_6.1.2\lvgl\src\lv_objx/lv_chart.c ****     LV_ASSERT_OBJ(chart, LV_OBJX_NAME);
 450:..\..\..\lvgl\version_6.1.2\lvgl\src\lv_objx/lv_chart.c ****     LV_ASSERT_NULL(ser);
 451:..\..\..\lvgl\version_6.1.2\lvgl\src\lv_objx/lv_chart.c **** 
 452:..\..\..\lvgl\version_6.1.2\lvgl\src\lv_objx/lv_chart.c ****     lv_chart_ext_t * ext = lv_obj_get_ext_attr(chart);
 1481              		.loc 3 452 0
 1482 000e F868     		ldr	r0, [r7, #12]
 1483 0010 FFF7FEFF 		bl	lv_obj_get_ext_attr
 1484 0014 7861     		str	r0, [r7, #20]
 453:..\..\..\lvgl\version_6.1.2\lvgl\src\lv_objx/lv_chart.c ****     if(ext->update_mode == LV_CHART_UPDATE_MODE_SHIFT) {
 1485              		.loc 3 453 0
 1486 0016 7B69     		ldr	r3, [r7, #20]
 1487 0018 93F83230 		ldrb	r3, [r3, #50]	@ zero_extendqisi2
 1488 001c 03F00103 		and	r3, r3, #1
 1489 0020 DBB2     		uxtb	r3, r3
 1490 0022 002B     		cmp	r3, #0
 1491 0024 18D1     		bne	.L84
 454:..\..\..\lvgl\version_6.1.2\lvgl\src\lv_objx/lv_chart.c ****         ser->points[ser->start_point] =
 1492              		.loc 3 454 0
 1493 0026 BB68     		ldr	r3, [r7, #8]
 1494 0028 1A68     		ldr	r2, [r3]
 1495 002a BB68     		ldr	r3, [r7, #8]
 1496 002c 1B89     		ldrh	r3, [r3, #8]
 1497 002e 5B00     		lsls	r3, r3, #1
 1498 0030 1344     		add	r3, r3, r2
 1499 0032 FA88     		ldrh	r2, [r7, #6]	@ movhi
 1500 0034 1A80     		strh	r2, [r3]	@ movhi
 455:..\..\..\lvgl\version_6.1.2\lvgl\src\lv_objx/lv_chart.c ****             y; /*This was the place of the former left most value, after shifting it is the rightmo
 456:..\..\..\lvgl\version_6.1.2\lvgl\src\lv_objx/lv_chart.c ****         ser->start_point = (ser->start_point + 1) % ext->point_cnt;
 1501              		.loc 3 456 0
 1502 0036 BB68     		ldr	r3, [r7, #8]
ARM GAS  C:\Users\tmj32\AppData\Local\Temp\ccrrExWC.s 			page 48


 1503 0038 1B89     		ldrh	r3, [r3, #8]
 1504 003a 0133     		adds	r3, r3, #1
 1505 003c 7A69     		ldr	r2, [r7, #20]
 1506 003e 528A     		ldrh	r2, [r2, #18]
 1507 0040 93FBF2F1 		sdiv	r1, r3, r2
 1508 0044 02FB01F2 		mul	r2, r2, r1
 1509 0048 9B1A     		subs	r3, r3, r2
 1510 004a 9AB2     		uxth	r2, r3
 1511 004c BB68     		ldr	r3, [r7, #8]
 1512 004e 1A81     		strh	r2, [r3, #8]	@ movhi
 457:..\..\..\lvgl\version_6.1.2\lvgl\src\lv_objx/lv_chart.c ****         lv_chart_refresh(chart);
 1513              		.loc 3 457 0
 1514 0050 F868     		ldr	r0, [r7, #12]
 1515 0052 FFF7FEFF 		bl	lv_chart_refresh
 458:..\..\..\lvgl\version_6.1.2\lvgl\src\lv_objx/lv_chart.c ****     } else if(ext->update_mode == LV_CHART_UPDATE_MODE_CIRCULAR) {
 459:..\..\..\lvgl\version_6.1.2\lvgl\src\lv_objx/lv_chart.c ****         ser->points[ser->start_point] = y;
 460:..\..\..\lvgl\version_6.1.2\lvgl\src\lv_objx/lv_chart.c **** 
 461:..\..\..\lvgl\version_6.1.2\lvgl\src\lv_objx/lv_chart.c ****         if(ext->type & LV_CHART_TYPE_LINE) lv_chart_inv_lines(chart, ser->start_point);
 462:..\..\..\lvgl\version_6.1.2\lvgl\src\lv_objx/lv_chart.c ****         if(ext->type & LV_CHART_TYPE_COLUMN) lv_chart_inv_cols(chart, ser->start_point);
 463:..\..\..\lvgl\version_6.1.2\lvgl\src\lv_objx/lv_chart.c ****         if(ext->type & LV_CHART_TYPE_POINT) lv_chart_inv_points(chart, ser->start_point);
 464:..\..\..\lvgl\version_6.1.2\lvgl\src\lv_objx/lv_chart.c ****         if(ext->type & LV_CHART_TYPE_VERTICAL_LINE) lv_chart_inv_lines(chart, ser->start_point);
 465:..\..\..\lvgl\version_6.1.2\lvgl\src\lv_objx/lv_chart.c ****         if(ext->type & LV_CHART_TYPE_AREA) lv_chart_inv_lines(chart, ser->start_point);
 466:..\..\..\lvgl\version_6.1.2\lvgl\src\lv_objx/lv_chart.c **** 
 467:..\..\..\lvgl\version_6.1.2\lvgl\src\lv_objx/lv_chart.c ****         ser->start_point = (ser->start_point + 1) % ext->point_cnt; /*update the x for next incomin
 468:..\..\..\lvgl\version_6.1.2\lvgl\src\lv_objx/lv_chart.c ****     }
 469:..\..\..\lvgl\version_6.1.2\lvgl\src\lv_objx/lv_chart.c **** }
 1516              		.loc 3 469 0
 1517 0056 58E0     		b	.L91
 1518              	.L84:
 458:..\..\..\lvgl\version_6.1.2\lvgl\src\lv_objx/lv_chart.c ****     } else if(ext->update_mode == LV_CHART_UPDATE_MODE_CIRCULAR) {
 1519              		.loc 3 458 0
 1520 0058 7B69     		ldr	r3, [r7, #20]
 1521 005a 93F83230 		ldrb	r3, [r3, #50]	@ zero_extendqisi2
 1522 005e 03F00103 		and	r3, r3, #1
 1523 0062 DBB2     		uxtb	r3, r3
 1524 0064 002B     		cmp	r3, #0
 1525 0066 50D0     		beq	.L91
 459:..\..\..\lvgl\version_6.1.2\lvgl\src\lv_objx/lv_chart.c **** 
 1526              		.loc 3 459 0
 1527 0068 BB68     		ldr	r3, [r7, #8]
 1528 006a 1A68     		ldr	r2, [r3]
 1529 006c BB68     		ldr	r3, [r7, #8]
 1530 006e 1B89     		ldrh	r3, [r3, #8]
 1531 0070 5B00     		lsls	r3, r3, #1
 1532 0072 1344     		add	r3, r3, r2
 1533 0074 FA88     		ldrh	r2, [r7, #6]	@ movhi
 1534 0076 1A80     		strh	r2, [r3]	@ movhi
 461:..\..\..\lvgl\version_6.1.2\lvgl\src\lv_objx/lv_chart.c ****         if(ext->type & LV_CHART_TYPE_COLUMN) lv_chart_inv_cols(chart, ser->start_point);
 1535              		.loc 3 461 0
 1536 0078 7B69     		ldr	r3, [r7, #20]
 1537 007a 1B7D     		ldrb	r3, [r3, #20]	@ zero_extendqisi2
 1538 007c 03F00103 		and	r3, r3, #1
 1539 0080 002B     		cmp	r3, #0
 1540 0082 05D0     		beq	.L86
 461:..\..\..\lvgl\version_6.1.2\lvgl\src\lv_objx/lv_chart.c ****         if(ext->type & LV_CHART_TYPE_COLUMN) lv_chart_inv_cols(chart, ser->start_point);
 1541              		.loc 3 461 0 is_stmt 0 discriminator 1
 1542 0084 BB68     		ldr	r3, [r7, #8]
ARM GAS  C:\Users\tmj32\AppData\Local\Temp\ccrrExWC.s 			page 49


 1543 0086 1B89     		ldrh	r3, [r3, #8]
 1544 0088 1946     		mov	r1, r3
 1545 008a F868     		ldr	r0, [r7, #12]
 1546 008c FFF7FEFF 		bl	lv_chart_inv_lines
 1547              	.L86:
 462:..\..\..\lvgl\version_6.1.2\lvgl\src\lv_objx/lv_chart.c ****         if(ext->type & LV_CHART_TYPE_POINT) lv_chart_inv_points(chart, ser->start_point);
 1548              		.loc 3 462 0 is_stmt 1
 1549 0090 7B69     		ldr	r3, [r7, #20]
 1550 0092 1B7D     		ldrb	r3, [r3, #20]	@ zero_extendqisi2
 1551 0094 03F00203 		and	r3, r3, #2
 1552 0098 002B     		cmp	r3, #0
 1553 009a 05D0     		beq	.L87
 462:..\..\..\lvgl\version_6.1.2\lvgl\src\lv_objx/lv_chart.c ****         if(ext->type & LV_CHART_TYPE_POINT) lv_chart_inv_points(chart, ser->start_point);
 1554              		.loc 3 462 0 is_stmt 0 discriminator 1
 1555 009c BB68     		ldr	r3, [r7, #8]
 1556 009e 1B89     		ldrh	r3, [r3, #8]
 1557 00a0 1946     		mov	r1, r3
 1558 00a2 F868     		ldr	r0, [r7, #12]
 1559 00a4 FFF7FEFF 		bl	lv_chart_inv_cols
 1560              	.L87:
 463:..\..\..\lvgl\version_6.1.2\lvgl\src\lv_objx/lv_chart.c ****         if(ext->type & LV_CHART_TYPE_VERTICAL_LINE) lv_chart_inv_lines(chart, ser->start_point);
 1561              		.loc 3 463 0 is_stmt 1
 1562 00a8 7B69     		ldr	r3, [r7, #20]
 1563 00aa 1B7D     		ldrb	r3, [r3, #20]	@ zero_extendqisi2
 1564 00ac 03F00403 		and	r3, r3, #4
 1565 00b0 002B     		cmp	r3, #0
 1566 00b2 05D0     		beq	.L88
 463:..\..\..\lvgl\version_6.1.2\lvgl\src\lv_objx/lv_chart.c ****         if(ext->type & LV_CHART_TYPE_VERTICAL_LINE) lv_chart_inv_lines(chart, ser->start_point);
 1567              		.loc 3 463 0 is_stmt 0 discriminator 1
 1568 00b4 BB68     		ldr	r3, [r7, #8]
 1569 00b6 1B89     		ldrh	r3, [r3, #8]
 1570 00b8 1946     		mov	r1, r3
 1571 00ba F868     		ldr	r0, [r7, #12]
 1572 00bc FFF7FEFF 		bl	lv_chart_inv_points
 1573              	.L88:
 464:..\..\..\lvgl\version_6.1.2\lvgl\src\lv_objx/lv_chart.c ****         if(ext->type & LV_CHART_TYPE_AREA) lv_chart_inv_lines(chart, ser->start_point);
 1574              		.loc 3 464 0 is_stmt 1
 1575 00c0 7B69     		ldr	r3, [r7, #20]
 1576 00c2 1B7D     		ldrb	r3, [r3, #20]	@ zero_extendqisi2
 1577 00c4 03F00803 		and	r3, r3, #8
 1578 00c8 002B     		cmp	r3, #0
 1579 00ca 05D0     		beq	.L89
 464:..\..\..\lvgl\version_6.1.2\lvgl\src\lv_objx/lv_chart.c ****         if(ext->type & LV_CHART_TYPE_AREA) lv_chart_inv_lines(chart, ser->start_point);
 1580              		.loc 3 464 0 is_stmt 0 discriminator 1
 1581 00cc BB68     		ldr	r3, [r7, #8]
 1582 00ce 1B89     		ldrh	r3, [r3, #8]
 1583 00d0 1946     		mov	r1, r3
 1584 00d2 F868     		ldr	r0, [r7, #12]
 1585 00d4 FFF7FEFF 		bl	lv_chart_inv_lines
 1586              	.L89:
 465:..\..\..\lvgl\version_6.1.2\lvgl\src\lv_objx/lv_chart.c **** 
 1587              		.loc 3 465 0 is_stmt 1
 1588 00d8 7B69     		ldr	r3, [r7, #20]
 1589 00da 1B7D     		ldrb	r3, [r3, #20]	@ zero_extendqisi2
 1590 00dc 03F01003 		and	r3, r3, #16
 1591 00e0 002B     		cmp	r3, #0
 1592 00e2 05D0     		beq	.L90
ARM GAS  C:\Users\tmj32\AppData\Local\Temp\ccrrExWC.s 			page 50


 465:..\..\..\lvgl\version_6.1.2\lvgl\src\lv_objx/lv_chart.c **** 
 1593              		.loc 3 465 0 is_stmt 0 discriminator 1
 1594 00e4 BB68     		ldr	r3, [r7, #8]
 1595 00e6 1B89     		ldrh	r3, [r3, #8]
 1596 00e8 1946     		mov	r1, r3
 1597 00ea F868     		ldr	r0, [r7, #12]
 1598 00ec FFF7FEFF 		bl	lv_chart_inv_lines
 1599              	.L90:
 467:..\..\..\lvgl\version_6.1.2\lvgl\src\lv_objx/lv_chart.c ****     }
 1600              		.loc 3 467 0 is_stmt 1
 1601 00f0 BB68     		ldr	r3, [r7, #8]
 1602 00f2 1B89     		ldrh	r3, [r3, #8]
 1603 00f4 0133     		adds	r3, r3, #1
 1604 00f6 7A69     		ldr	r2, [r7, #20]
 1605 00f8 528A     		ldrh	r2, [r2, #18]
 1606 00fa 93FBF2F1 		sdiv	r1, r3, r2
 1607 00fe 02FB01F2 		mul	r2, r2, r1
 1608 0102 9B1A     		subs	r3, r3, r2
 1609 0104 9AB2     		uxth	r2, r3
 1610 0106 BB68     		ldr	r3, [r7, #8]
 1611 0108 1A81     		strh	r2, [r3, #8]	@ movhi
 1612              	.L91:
 1613              		.loc 3 469 0
 1614 010a 00BF     		nop
 1615 010c 1837     		adds	r7, r7, #24
 1616              		.cfi_def_cfa_offset 8
 1617 010e BD46     		mov	sp, r7
 1618              		.cfi_def_cfa_register 13
 1619              		@ sp needed
 1620 0110 80BD     		pop	{r7, pc}
 1621              		.cfi_endproc
 1622              	.LFE47:
 1623              		.size	lv_chart_set_next, .-lv_chart_set_next
 1624 0112 00BF     		.section	.text.lv_chart_set_update_mode,"ax",%progbits
 1625              		.align	2
 1626              		.global	lv_chart_set_update_mode
 1627              		.thumb
 1628              		.thumb_func
 1629              		.type	lv_chart_set_update_mode, %function
 1630              	lv_chart_set_update_mode:
 1631              	.LFB48:
 470:..\..\..\lvgl\version_6.1.2\lvgl\src\lv_objx/lv_chart.c **** 
 471:..\..\..\lvgl\version_6.1.2\lvgl\src\lv_objx/lv_chart.c **** /**
 472:..\..\..\lvgl\version_6.1.2\lvgl\src\lv_objx/lv_chart.c ****  * Set update mode of the chart object.
 473:..\..\..\lvgl\version_6.1.2\lvgl\src\lv_objx/lv_chart.c ****  * @param chart pointer to a chart object
 474:..\..\..\lvgl\version_6.1.2\lvgl\src\lv_objx/lv_chart.c ****  * @param update mode
 475:..\..\..\lvgl\version_6.1.2\lvgl\src\lv_objx/lv_chart.c ****  */
 476:..\..\..\lvgl\version_6.1.2\lvgl\src\lv_objx/lv_chart.c **** void lv_chart_set_update_mode(lv_obj_t * chart, lv_chart_update_mode_t update_mode)
 477:..\..\..\lvgl\version_6.1.2\lvgl\src\lv_objx/lv_chart.c **** {
 1632              		.loc 3 477 0
 1633              		.cfi_startproc
 1634              		@ args = 0, pretend = 0, frame = 16
 1635              		@ frame_needed = 1, uses_anonymous_args = 0
 1636 0000 80B5     		push	{r7, lr}
 1637              		.cfi_def_cfa_offset 8
 1638              		.cfi_offset 7, -8
 1639              		.cfi_offset 14, -4
ARM GAS  C:\Users\tmj32\AppData\Local\Temp\ccrrExWC.s 			page 51


 1640 0002 84B0     		sub	sp, sp, #16
 1641              		.cfi_def_cfa_offset 24
 1642 0004 00AF     		add	r7, sp, #0
 1643              		.cfi_def_cfa_register 7
 1644 0006 7860     		str	r0, [r7, #4]
 1645 0008 0B46     		mov	r3, r1
 1646 000a FB70     		strb	r3, [r7, #3]
 478:..\..\..\lvgl\version_6.1.2\lvgl\src\lv_objx/lv_chart.c ****     LV_ASSERT_OBJ(chart, LV_OBJX_NAME);
 479:..\..\..\lvgl\version_6.1.2\lvgl\src\lv_objx/lv_chart.c **** 
 480:..\..\..\lvgl\version_6.1.2\lvgl\src\lv_objx/lv_chart.c ****     lv_chart_ext_t * ext = lv_obj_get_ext_attr(chart);
 1647              		.loc 3 480 0
 1648 000c 7868     		ldr	r0, [r7, #4]
 1649 000e FFF7FEFF 		bl	lv_obj_get_ext_attr
 1650 0012 F860     		str	r0, [r7, #12]
 481:..\..\..\lvgl\version_6.1.2\lvgl\src\lv_objx/lv_chart.c ****     if(ext->update_mode == update_mode) return;
 1651              		.loc 3 481 0
 1652 0014 FB68     		ldr	r3, [r7, #12]
 1653 0016 93F83230 		ldrb	r3, [r3, #50]
 1654 001a C3F30003 		ubfx	r3, r3, #0, #1
 1655 001e DBB2     		uxtb	r3, r3
 1656 0020 1A46     		mov	r2, r3
 1657 0022 FB78     		ldrb	r3, [r7, #3]	@ zero_extendqisi2
 1658 0024 9A42     		cmp	r2, r3
 1659 0026 0ED0     		beq	.L95
 482:..\..\..\lvgl\version_6.1.2\lvgl\src\lv_objx/lv_chart.c **** 
 483:..\..\..\lvgl\version_6.1.2\lvgl\src\lv_objx/lv_chart.c ****     ext->update_mode = update_mode;
 1660              		.loc 3 483 0
 1661 0028 FB78     		ldrb	r3, [r7, #3]
 1662 002a 03F00103 		and	r3, r3, #1
 1663 002e D9B2     		uxtb	r1, r3
 1664 0030 FA68     		ldr	r2, [r7, #12]
 1665 0032 92F83230 		ldrb	r3, [r2, #50]
 1666 0036 61F30003 		bfi	r3, r1, #0, #1
 1667 003a 82F83230 		strb	r3, [r2, #50]
 484:..\..\..\lvgl\version_6.1.2\lvgl\src\lv_objx/lv_chart.c ****     lv_obj_invalidate(chart);
 1668              		.loc 3 484 0
 1669 003e 7868     		ldr	r0, [r7, #4]
 1670 0040 FFF7FEFF 		bl	lv_obj_invalidate
 1671 0044 00E0     		b	.L92
 1672              	.L95:
 481:..\..\..\lvgl\version_6.1.2\lvgl\src\lv_objx/lv_chart.c ****     if(ext->update_mode == update_mode) return;
 1673              		.loc 3 481 0
 1674 0046 00BF     		nop
 1675              	.L92:
 485:..\..\..\lvgl\version_6.1.2\lvgl\src\lv_objx/lv_chart.c **** }
 1676              		.loc 3 485 0
 1677 0048 1037     		adds	r7, r7, #16
 1678              		.cfi_def_cfa_offset 8
 1679 004a BD46     		mov	sp, r7
 1680              		.cfi_def_cfa_register 13
 1681              		@ sp needed
 1682 004c 80BD     		pop	{r7, pc}
 1683              		.cfi_endproc
 1684              	.LFE48:
 1685              		.size	lv_chart_set_update_mode, .-lv_chart_set_update_mode
 1686 004e 00BF     		.section	.text.lv_chart_set_x_tick_length,"ax",%progbits
 1687              		.align	2
ARM GAS  C:\Users\tmj32\AppData\Local\Temp\ccrrExWC.s 			page 52


 1688              		.global	lv_chart_set_x_tick_length
 1689              		.thumb
 1690              		.thumb_func
 1691              		.type	lv_chart_set_x_tick_length, %function
 1692              	lv_chart_set_x_tick_length:
 1693              	.LFB49:
 486:..\..\..\lvgl\version_6.1.2\lvgl\src\lv_objx/lv_chart.c **** 
 487:..\..\..\lvgl\version_6.1.2\lvgl\src\lv_objx/lv_chart.c **** /**
 488:..\..\..\lvgl\version_6.1.2\lvgl\src\lv_objx/lv_chart.c ****  * Set the length of the tick marks on the x axis
 489:..\..\..\lvgl\version_6.1.2\lvgl\src\lv_objx/lv_chart.c ****  * @param chart pointer to the chart
 490:..\..\..\lvgl\version_6.1.2\lvgl\src\lv_objx/lv_chart.c ****  * @param major_tick_len the length of the major tick or `LV_CHART_TICK_LENGTH_AUTO` to set automat
 491:..\..\..\lvgl\version_6.1.2\lvgl\src\lv_objx/lv_chart.c ****  *                       (where labels are added)
 492:..\..\..\lvgl\version_6.1.2\lvgl\src\lv_objx/lv_chart.c ****  * @param minor_tick_len the length of the minor tick, `LV_CHART_TICK_LENGTH_AUTO` to set automatic
 493:..\..\..\lvgl\version_6.1.2\lvgl\src\lv_objx/lv_chart.c ****  *                       (where no labels are added)
 494:..\..\..\lvgl\version_6.1.2\lvgl\src\lv_objx/lv_chart.c ****  */
 495:..\..\..\lvgl\version_6.1.2\lvgl\src\lv_objx/lv_chart.c **** void lv_chart_set_x_tick_length(lv_obj_t * chart, uint8_t major_tick_len, uint8_t minor_tick_len)
 496:..\..\..\lvgl\version_6.1.2\lvgl\src\lv_objx/lv_chart.c **** {
 1694              		.loc 3 496 0
 1695              		.cfi_startproc
 1696              		@ args = 0, pretend = 0, frame = 16
 1697              		@ frame_needed = 1, uses_anonymous_args = 0
 1698 0000 80B5     		push	{r7, lr}
 1699              		.cfi_def_cfa_offset 8
 1700              		.cfi_offset 7, -8
 1701              		.cfi_offset 14, -4
 1702 0002 84B0     		sub	sp, sp, #16
 1703              		.cfi_def_cfa_offset 24
 1704 0004 00AF     		add	r7, sp, #0
 1705              		.cfi_def_cfa_register 7
 1706 0006 7860     		str	r0, [r7, #4]
 1707 0008 0B46     		mov	r3, r1
 1708 000a FB70     		strb	r3, [r7, #3]
 1709 000c 1346     		mov	r3, r2
 1710 000e BB70     		strb	r3, [r7, #2]
 497:..\..\..\lvgl\version_6.1.2\lvgl\src\lv_objx/lv_chart.c ****     LV_ASSERT_OBJ(chart, LV_OBJX_NAME);
 498:..\..\..\lvgl\version_6.1.2\lvgl\src\lv_objx/lv_chart.c **** 
 499:..\..\..\lvgl\version_6.1.2\lvgl\src\lv_objx/lv_chart.c ****     lv_chart_ext_t * ext       = lv_obj_get_ext_attr(chart);
 1711              		.loc 3 499 0
 1712 0010 7868     		ldr	r0, [r7, #4]
 1713 0012 FFF7FEFF 		bl	lv_obj_get_ext_attr
 1714 0016 F860     		str	r0, [r7, #12]
 500:..\..\..\lvgl\version_6.1.2\lvgl\src\lv_objx/lv_chart.c ****     ext->x_axis.major_tick_len = major_tick_len;
 1715              		.loc 3 500 0
 1716 0018 FB68     		ldr	r3, [r7, #12]
 1717 001a FA78     		ldrb	r2, [r7, #3]
 1718 001c 83F82620 		strb	r2, [r3, #38]
 501:..\..\..\lvgl\version_6.1.2\lvgl\src\lv_objx/lv_chart.c ****     ext->x_axis.minor_tick_len = minor_tick_len;
 1719              		.loc 3 501 0
 1720 0020 FB68     		ldr	r3, [r7, #12]
 1721 0022 BA78     		ldrb	r2, [r7, #2]
 1722 0024 83F82720 		strb	r2, [r3, #39]
 502:..\..\..\lvgl\version_6.1.2\lvgl\src\lv_objx/lv_chart.c **** }
 1723              		.loc 3 502 0
 1724 0028 00BF     		nop
 1725 002a 1037     		adds	r7, r7, #16
 1726              		.cfi_def_cfa_offset 8
 1727 002c BD46     		mov	sp, r7
ARM GAS  C:\Users\tmj32\AppData\Local\Temp\ccrrExWC.s 			page 53


 1728              		.cfi_def_cfa_register 13
 1729              		@ sp needed
 1730 002e 80BD     		pop	{r7, pc}
 1731              		.cfi_endproc
 1732              	.LFE49:
 1733              		.size	lv_chart_set_x_tick_length, .-lv_chart_set_x_tick_length
 1734              		.section	.text.lv_chart_set_y_tick_length,"ax",%progbits
 1735              		.align	2
 1736              		.global	lv_chart_set_y_tick_length
 1737              		.thumb
 1738              		.thumb_func
 1739              		.type	lv_chart_set_y_tick_length, %function
 1740              	lv_chart_set_y_tick_length:
 1741              	.LFB50:
 503:..\..\..\lvgl\version_6.1.2\lvgl\src\lv_objx/lv_chart.c **** 
 504:..\..\..\lvgl\version_6.1.2\lvgl\src\lv_objx/lv_chart.c **** /**
 505:..\..\..\lvgl\version_6.1.2\lvgl\src\lv_objx/lv_chart.c ****  * Set the length of the tick marks on the y axis
 506:..\..\..\lvgl\version_6.1.2\lvgl\src\lv_objx/lv_chart.c ****  * @param chart pointer to the chart
 507:..\..\..\lvgl\version_6.1.2\lvgl\src\lv_objx/lv_chart.c ****  * @param major_tick_len the length of the major tick or `LV_CHART_TICK_LENGTH_AUTO` to set automat
 508:..\..\..\lvgl\version_6.1.2\lvgl\src\lv_objx/lv_chart.c ****  *                       (where labels are added)
 509:..\..\..\lvgl\version_6.1.2\lvgl\src\lv_objx/lv_chart.c ****  * @param minor_tick_len the length of the minor tick, `LV_CHART_TICK_LENGTH_AUTO` to set automatic
 510:..\..\..\lvgl\version_6.1.2\lvgl\src\lv_objx/lv_chart.c ****  *                       (where no labels are added)
 511:..\..\..\lvgl\version_6.1.2\lvgl\src\lv_objx/lv_chart.c ****  */
 512:..\..\..\lvgl\version_6.1.2\lvgl\src\lv_objx/lv_chart.c **** void lv_chart_set_y_tick_length(lv_obj_t * chart, uint8_t major_tick_len, uint8_t minor_tick_len)
 513:..\..\..\lvgl\version_6.1.2\lvgl\src\lv_objx/lv_chart.c **** {
 1742              		.loc 3 513 0
 1743              		.cfi_startproc
 1744              		@ args = 0, pretend = 0, frame = 16
 1745              		@ frame_needed = 1, uses_anonymous_args = 0
 1746 0000 80B5     		push	{r7, lr}
 1747              		.cfi_def_cfa_offset 8
 1748              		.cfi_offset 7, -8
 1749              		.cfi_offset 14, -4
 1750 0002 84B0     		sub	sp, sp, #16
 1751              		.cfi_def_cfa_offset 24
 1752 0004 00AF     		add	r7, sp, #0
 1753              		.cfi_def_cfa_register 7
 1754 0006 7860     		str	r0, [r7, #4]
 1755 0008 0B46     		mov	r3, r1
 1756 000a FB70     		strb	r3, [r7, #3]
 1757 000c 1346     		mov	r3, r2
 1758 000e BB70     		strb	r3, [r7, #2]
 514:..\..\..\lvgl\version_6.1.2\lvgl\src\lv_objx/lv_chart.c ****     LV_ASSERT_OBJ(chart, LV_OBJX_NAME);
 515:..\..\..\lvgl\version_6.1.2\lvgl\src\lv_objx/lv_chart.c **** 
 516:..\..\..\lvgl\version_6.1.2\lvgl\src\lv_objx/lv_chart.c ****     lv_chart_ext_t * ext       = lv_obj_get_ext_attr(chart);
 1759              		.loc 3 516 0
 1760 0010 7868     		ldr	r0, [r7, #4]
 1761 0012 FFF7FEFF 		bl	lv_obj_get_ext_attr
 1762 0016 F860     		str	r0, [r7, #12]
 517:..\..\..\lvgl\version_6.1.2\lvgl\src\lv_objx/lv_chart.c ****     ext->y_axis.major_tick_len = major_tick_len;
 1763              		.loc 3 517 0
 1764 0018 FB68     		ldr	r3, [r7, #12]
 1765 001a FA78     		ldrb	r2, [r7, #3]
 1766 001c 9A77     		strb	r2, [r3, #30]
 518:..\..\..\lvgl\version_6.1.2\lvgl\src\lv_objx/lv_chart.c ****     ext->y_axis.minor_tick_len = minor_tick_len;
 1767              		.loc 3 518 0
 1768 001e FB68     		ldr	r3, [r7, #12]
ARM GAS  C:\Users\tmj32\AppData\Local\Temp\ccrrExWC.s 			page 54


 1769 0020 BA78     		ldrb	r2, [r7, #2]
 1770 0022 DA77     		strb	r2, [r3, #31]
 519:..\..\..\lvgl\version_6.1.2\lvgl\src\lv_objx/lv_chart.c **** }
 1771              		.loc 3 519 0
 1772 0024 00BF     		nop
 1773 0026 1037     		adds	r7, r7, #16
 1774              		.cfi_def_cfa_offset 8
 1775 0028 BD46     		mov	sp, r7
 1776              		.cfi_def_cfa_register 13
 1777              		@ sp needed
 1778 002a 80BD     		pop	{r7, pc}
 1779              		.cfi_endproc
 1780              	.LFE50:
 1781              		.size	lv_chart_set_y_tick_length, .-lv_chart_set_y_tick_length
 1782              		.section	.text.lv_chart_set_secondary_y_tick_length,"ax",%progbits
 1783              		.align	2
 1784              		.global	lv_chart_set_secondary_y_tick_length
 1785              		.thumb
 1786              		.thumb_func
 1787              		.type	lv_chart_set_secondary_y_tick_length, %function
 1788              	lv_chart_set_secondary_y_tick_length:
 1789              	.LFB51:
 520:..\..\..\lvgl\version_6.1.2\lvgl\src\lv_objx/lv_chart.c **** 
 521:..\..\..\lvgl\version_6.1.2\lvgl\src\lv_objx/lv_chart.c **** /**
 522:..\..\..\lvgl\version_6.1.2\lvgl\src\lv_objx/lv_chart.c ****  * Set the length of the tick marks on the secondary y axis
 523:..\..\..\lvgl\version_6.1.2\lvgl\src\lv_objx/lv_chart.c ****  * @param chart pointer to the chart
 524:..\..\..\lvgl\version_6.1.2\lvgl\src\lv_objx/lv_chart.c ****  * @param major_tick_len the length of the major tick or `LV_CHART_TICK_LENGTH_AUTO` to set automat
 525:..\..\..\lvgl\version_6.1.2\lvgl\src\lv_objx/lv_chart.c ****  *                       (where labels are added)
 526:..\..\..\lvgl\version_6.1.2\lvgl\src\lv_objx/lv_chart.c ****  * @param minor_tick_len the length of the minor tick, `LV_CHART_TICK_LENGTH_AUTO` to set automatic
 527:..\..\..\lvgl\version_6.1.2\lvgl\src\lv_objx/lv_chart.c ****  *                       (where no labels are added)
 528:..\..\..\lvgl\version_6.1.2\lvgl\src\lv_objx/lv_chart.c ****  */
 529:..\..\..\lvgl\version_6.1.2\lvgl\src\lv_objx/lv_chart.c **** void lv_chart_set_secondary_y_tick_length(lv_obj_t * chart, uint8_t major_tick_len, uint8_t minor_t
 530:..\..\..\lvgl\version_6.1.2\lvgl\src\lv_objx/lv_chart.c **** {
 1790              		.loc 3 530 0
 1791              		.cfi_startproc
 1792              		@ args = 0, pretend = 0, frame = 16
 1793              		@ frame_needed = 1, uses_anonymous_args = 0
 1794 0000 80B5     		push	{r7, lr}
 1795              		.cfi_def_cfa_offset 8
 1796              		.cfi_offset 7, -8
 1797              		.cfi_offset 14, -4
 1798 0002 84B0     		sub	sp, sp, #16
 1799              		.cfi_def_cfa_offset 24
 1800 0004 00AF     		add	r7, sp, #0
 1801              		.cfi_def_cfa_register 7
 1802 0006 7860     		str	r0, [r7, #4]
 1803 0008 0B46     		mov	r3, r1
 1804 000a FB70     		strb	r3, [r7, #3]
 1805 000c 1346     		mov	r3, r2
 1806 000e BB70     		strb	r3, [r7, #2]
 531:..\..\..\lvgl\version_6.1.2\lvgl\src\lv_objx/lv_chart.c ****     LV_ASSERT_OBJ(chart, LV_OBJX_NAME);
 532:..\..\..\lvgl\version_6.1.2\lvgl\src\lv_objx/lv_chart.c **** 
 533:..\..\..\lvgl\version_6.1.2\lvgl\src\lv_objx/lv_chart.c ****     lv_chart_ext_t * ext       = lv_obj_get_ext_attr(chart);
 1807              		.loc 3 533 0
 1808 0010 7868     		ldr	r0, [r7, #4]
 1809 0012 FFF7FEFF 		bl	lv_obj_get_ext_attr
 1810 0016 F860     		str	r0, [r7, #12]
ARM GAS  C:\Users\tmj32\AppData\Local\Temp\ccrrExWC.s 			page 55


 534:..\..\..\lvgl\version_6.1.2\lvgl\src\lv_objx/lv_chart.c ****     ext->secondary_y_axis.major_tick_len = major_tick_len;
 1811              		.loc 3 534 0
 1812 0018 FB68     		ldr	r3, [r7, #12]
 1813 001a FA78     		ldrb	r2, [r7, #3]
 1814 001c 83F82E20 		strb	r2, [r3, #46]
 535:..\..\..\lvgl\version_6.1.2\lvgl\src\lv_objx/lv_chart.c ****     ext->secondary_y_axis.minor_tick_len = minor_tick_len;
 1815              		.loc 3 535 0
 1816 0020 FB68     		ldr	r3, [r7, #12]
 1817 0022 BA78     		ldrb	r2, [r7, #2]
 1818 0024 83F82F20 		strb	r2, [r3, #47]
 536:..\..\..\lvgl\version_6.1.2\lvgl\src\lv_objx/lv_chart.c **** }
 1819              		.loc 3 536 0
 1820 0028 00BF     		nop
 1821 002a 1037     		adds	r7, r7, #16
 1822              		.cfi_def_cfa_offset 8
 1823 002c BD46     		mov	sp, r7
 1824              		.cfi_def_cfa_register 13
 1825              		@ sp needed
 1826 002e 80BD     		pop	{r7, pc}
 1827              		.cfi_endproc
 1828              	.LFE51:
 1829              		.size	lv_chart_set_secondary_y_tick_length, .-lv_chart_set_secondary_y_tick_length
 1830              		.section	.text.lv_chart_set_x_tick_texts,"ax",%progbits
 1831              		.align	2
 1832              		.global	lv_chart_set_x_tick_texts
 1833              		.thumb
 1834              		.thumb_func
 1835              		.type	lv_chart_set_x_tick_texts, %function
 1836              	lv_chart_set_x_tick_texts:
 1837              	.LFB52:
 537:..\..\..\lvgl\version_6.1.2\lvgl\src\lv_objx/lv_chart.c **** 
 538:..\..\..\lvgl\version_6.1.2\lvgl\src\lv_objx/lv_chart.c **** /**
 539:..\..\..\lvgl\version_6.1.2\lvgl\src\lv_objx/lv_chart.c ****  * Set the x-axis tick count and labels of a chart
 540:..\..\..\lvgl\version_6.1.2\lvgl\src\lv_objx/lv_chart.c ****  * @param chart 			pointer to a chart object
 541:..\..\..\lvgl\version_6.1.2\lvgl\src\lv_objx/lv_chart.c ****  * @param list_of_values 	list of string values, terminated with \n, except the last
 542:..\..\..\lvgl\version_6.1.2\lvgl\src\lv_objx/lv_chart.c ****  * @param num_tick_marks 	if list_of_values is NULL: total number of ticks per axis
 543:..\..\..\lvgl\version_6.1.2\lvgl\src\lv_objx/lv_chart.c ****  * 							else number of ticks between two value labels
 544:..\..\..\lvgl\version_6.1.2\lvgl\src\lv_objx/lv_chart.c ****  * @param options			extra options
 545:..\..\..\lvgl\version_6.1.2\lvgl\src\lv_objx/lv_chart.c ****  */
 546:..\..\..\lvgl\version_6.1.2\lvgl\src\lv_objx/lv_chart.c **** void lv_chart_set_x_tick_texts(lv_obj_t * chart, const char * list_of_values, uint8_t num_tick_mark
 547:..\..\..\lvgl\version_6.1.2\lvgl\src\lv_objx/lv_chart.c ****                                lv_chart_axis_options_t options)
 548:..\..\..\lvgl\version_6.1.2\lvgl\src\lv_objx/lv_chart.c **** {
 1838              		.loc 3 548 0
 1839              		.cfi_startproc
 1840              		@ args = 0, pretend = 0, frame = 24
 1841              		@ frame_needed = 1, uses_anonymous_args = 0
 1842 0000 80B5     		push	{r7, lr}
 1843              		.cfi_def_cfa_offset 8
 1844              		.cfi_offset 7, -8
 1845              		.cfi_offset 14, -4
 1846 0002 86B0     		sub	sp, sp, #24
 1847              		.cfi_def_cfa_offset 32
 1848 0004 00AF     		add	r7, sp, #0
 1849              		.cfi_def_cfa_register 7
 1850 0006 F860     		str	r0, [r7, #12]
 1851 0008 B960     		str	r1, [r7, #8]
 1852 000a 1146     		mov	r1, r2
ARM GAS  C:\Users\tmj32\AppData\Local\Temp\ccrrExWC.s 			page 56


 1853 000c 1A46     		mov	r2, r3
 1854 000e 0B46     		mov	r3, r1
 1855 0010 FB71     		strb	r3, [r7, #7]
 1856 0012 1346     		mov	r3, r2
 1857 0014 BB71     		strb	r3, [r7, #6]
 549:..\..\..\lvgl\version_6.1.2\lvgl\src\lv_objx/lv_chart.c ****     LV_ASSERT_OBJ(chart, LV_OBJX_NAME);
 550:..\..\..\lvgl\version_6.1.2\lvgl\src\lv_objx/lv_chart.c ****     LV_ASSERT_NULL(list_of_values);
 551:..\..\..\lvgl\version_6.1.2\lvgl\src\lv_objx/lv_chart.c **** 
 552:..\..\..\lvgl\version_6.1.2\lvgl\src\lv_objx/lv_chart.c ****     lv_chart_ext_t * ext       = lv_obj_get_ext_attr(chart);
 1858              		.loc 3 552 0
 1859 0016 F868     		ldr	r0, [r7, #12]
 1860 0018 FFF7FEFF 		bl	lv_obj_get_ext_attr
 1861 001c 7861     		str	r0, [r7, #20]
 553:..\..\..\lvgl\version_6.1.2\lvgl\src\lv_objx/lv_chart.c ****     ext->x_axis.num_tick_marks = num_tick_marks;
 1862              		.loc 3 553 0
 1863 001e 7B69     		ldr	r3, [r7, #20]
 1864 0020 FA79     		ldrb	r2, [r7, #7]
 1865 0022 83F82520 		strb	r2, [r3, #37]
 554:..\..\..\lvgl\version_6.1.2\lvgl\src\lv_objx/lv_chart.c ****     ext->x_axis.list_of_values = list_of_values;
 1866              		.loc 3 554 0
 1867 0026 7B69     		ldr	r3, [r7, #20]
 1868 0028 BA68     		ldr	r2, [r7, #8]
 1869 002a 1A62     		str	r2, [r3, #32]
 555:..\..\..\lvgl\version_6.1.2\lvgl\src\lv_objx/lv_chart.c ****     ext->x_axis.options        = options;
 1870              		.loc 3 555 0
 1871 002c 7B69     		ldr	r3, [r7, #20]
 1872 002e BA79     		ldrb	r2, [r7, #6]
 1873 0030 83F82420 		strb	r2, [r3, #36]
 556:..\..\..\lvgl\version_6.1.2\lvgl\src\lv_objx/lv_chart.c **** }
 1874              		.loc 3 556 0
 1875 0034 00BF     		nop
 1876 0036 1837     		adds	r7, r7, #24
 1877              		.cfi_def_cfa_offset 8
 1878 0038 BD46     		mov	sp, r7
 1879              		.cfi_def_cfa_register 13
 1880              		@ sp needed
 1881 003a 80BD     		pop	{r7, pc}
 1882              		.cfi_endproc
 1883              	.LFE52:
 1884              		.size	lv_chart_set_x_tick_texts, .-lv_chart_set_x_tick_texts
 1885              		.section	.text.lv_chart_set_y_tick_texts,"ax",%progbits
 1886              		.align	2
 1887              		.global	lv_chart_set_y_tick_texts
 1888              		.thumb
 1889              		.thumb_func
 1890              		.type	lv_chart_set_y_tick_texts, %function
 1891              	lv_chart_set_y_tick_texts:
 1892              	.LFB53:
 557:..\..\..\lvgl\version_6.1.2\lvgl\src\lv_objx/lv_chart.c **** 
 558:..\..\..\lvgl\version_6.1.2\lvgl\src\lv_objx/lv_chart.c **** /**
 559:..\..\..\lvgl\version_6.1.2\lvgl\src\lv_objx/lv_chart.c ****  * Set the y-axis tick count and labels of a chart
 560:..\..\..\lvgl\version_6.1.2\lvgl\src\lv_objx/lv_chart.c ****  * @param chart             pointer to a chart object
 561:..\..\..\lvgl\version_6.1.2\lvgl\src\lv_objx/lv_chart.c ****  * @param list_of_values    list of string values, terminated with \n, except the last
 562:..\..\..\lvgl\version_6.1.2\lvgl\src\lv_objx/lv_chart.c ****  * @param num_tick_marks    if list_of_values is NULL: total number of ticks per axis
 563:..\..\..\lvgl\version_6.1.2\lvgl\src\lv_objx/lv_chart.c ****  *                          else number of ticks between two value labels
 564:..\..\..\lvgl\version_6.1.2\lvgl\src\lv_objx/lv_chart.c ****  * @param options           extra options
 565:..\..\..\lvgl\version_6.1.2\lvgl\src\lv_objx/lv_chart.c ****  */
ARM GAS  C:\Users\tmj32\AppData\Local\Temp\ccrrExWC.s 			page 57


 566:..\..\..\lvgl\version_6.1.2\lvgl\src\lv_objx/lv_chart.c **** void lv_chart_set_y_tick_texts(lv_obj_t * chart, const char * list_of_values, uint8_t num_tick_mark
 567:..\..\..\lvgl\version_6.1.2\lvgl\src\lv_objx/lv_chart.c ****                                lv_chart_axis_options_t options)
 568:..\..\..\lvgl\version_6.1.2\lvgl\src\lv_objx/lv_chart.c **** {
 1893              		.loc 3 568 0
 1894              		.cfi_startproc
 1895              		@ args = 0, pretend = 0, frame = 24
 1896              		@ frame_needed = 1, uses_anonymous_args = 0
 1897 0000 80B5     		push	{r7, lr}
 1898              		.cfi_def_cfa_offset 8
 1899              		.cfi_offset 7, -8
 1900              		.cfi_offset 14, -4
 1901 0002 86B0     		sub	sp, sp, #24
 1902              		.cfi_def_cfa_offset 32
 1903 0004 00AF     		add	r7, sp, #0
 1904              		.cfi_def_cfa_register 7
 1905 0006 F860     		str	r0, [r7, #12]
 1906 0008 B960     		str	r1, [r7, #8]
 1907 000a 1146     		mov	r1, r2
 1908 000c 1A46     		mov	r2, r3
 1909 000e 0B46     		mov	r3, r1
 1910 0010 FB71     		strb	r3, [r7, #7]
 1911 0012 1346     		mov	r3, r2
 1912 0014 BB71     		strb	r3, [r7, #6]
 569:..\..\..\lvgl\version_6.1.2\lvgl\src\lv_objx/lv_chart.c ****     LV_ASSERT_OBJ(chart, LV_OBJX_NAME);
 570:..\..\..\lvgl\version_6.1.2\lvgl\src\lv_objx/lv_chart.c ****     LV_ASSERT_NULL(list_of_values);
 571:..\..\..\lvgl\version_6.1.2\lvgl\src\lv_objx/lv_chart.c **** 
 572:..\..\..\lvgl\version_6.1.2\lvgl\src\lv_objx/lv_chart.c ****     lv_chart_ext_t * ext       = lv_obj_get_ext_attr(chart);
 1913              		.loc 3 572 0
 1914 0016 F868     		ldr	r0, [r7, #12]
 1915 0018 FFF7FEFF 		bl	lv_obj_get_ext_attr
 1916 001c 7861     		str	r0, [r7, #20]
 573:..\..\..\lvgl\version_6.1.2\lvgl\src\lv_objx/lv_chart.c ****     ext->y_axis.num_tick_marks = num_tick_marks;
 1917              		.loc 3 573 0
 1918 001e 7B69     		ldr	r3, [r7, #20]
 1919 0020 FA79     		ldrb	r2, [r7, #7]
 1920 0022 5A77     		strb	r2, [r3, #29]
 574:..\..\..\lvgl\version_6.1.2\lvgl\src\lv_objx/lv_chart.c ****     ext->y_axis.list_of_values = list_of_values;
 1921              		.loc 3 574 0
 1922 0024 7B69     		ldr	r3, [r7, #20]
 1923 0026 BA68     		ldr	r2, [r7, #8]
 1924 0028 9A61     		str	r2, [r3, #24]
 575:..\..\..\lvgl\version_6.1.2\lvgl\src\lv_objx/lv_chart.c ****     ext->y_axis.options        = options;
 1925              		.loc 3 575 0
 1926 002a 7B69     		ldr	r3, [r7, #20]
 1927 002c BA79     		ldrb	r2, [r7, #6]
 1928 002e 1A77     		strb	r2, [r3, #28]
 576:..\..\..\lvgl\version_6.1.2\lvgl\src\lv_objx/lv_chart.c **** }
 1929              		.loc 3 576 0
 1930 0030 00BF     		nop
 1931 0032 1837     		adds	r7, r7, #24
 1932              		.cfi_def_cfa_offset 8
 1933 0034 BD46     		mov	sp, r7
 1934              		.cfi_def_cfa_register 13
 1935              		@ sp needed
 1936 0036 80BD     		pop	{r7, pc}
 1937              		.cfi_endproc
 1938              	.LFE53:
ARM GAS  C:\Users\tmj32\AppData\Local\Temp\ccrrExWC.s 			page 58


 1939              		.size	lv_chart_set_y_tick_texts, .-lv_chart_set_y_tick_texts
 1940              		.section	.text.lv_chart_set_secondary_y_tick_texts,"ax",%progbits
 1941              		.align	2
 1942              		.global	lv_chart_set_secondary_y_tick_texts
 1943              		.thumb
 1944              		.thumb_func
 1945              		.type	lv_chart_set_secondary_y_tick_texts, %function
 1946              	lv_chart_set_secondary_y_tick_texts:
 1947              	.LFB54:
 577:..\..\..\lvgl\version_6.1.2\lvgl\src\lv_objx/lv_chart.c **** 
 578:..\..\..\lvgl\version_6.1.2\lvgl\src\lv_objx/lv_chart.c **** /**
 579:..\..\..\lvgl\version_6.1.2\lvgl\src\lv_objx/lv_chart.c ****  * Set the secondary y-axis tick count and labels of a chart
 580:..\..\..\lvgl\version_6.1.2\lvgl\src\lv_objx/lv_chart.c ****  * @param chart             pointer to a chart object
 581:..\..\..\lvgl\version_6.1.2\lvgl\src\lv_objx/lv_chart.c ****  * @param list_of_values    list of string values, terminated with \n, except the last
 582:..\..\..\lvgl\version_6.1.2\lvgl\src\lv_objx/lv_chart.c ****  * @param num_tick_marks    if list_of_values is NULL: total number of ticks per axis
 583:..\..\..\lvgl\version_6.1.2\lvgl\src\lv_objx/lv_chart.c ****  *                          else number of ticks between two value labels
 584:..\..\..\lvgl\version_6.1.2\lvgl\src\lv_objx/lv_chart.c ****  * @param options           extra options
 585:..\..\..\lvgl\version_6.1.2\lvgl\src\lv_objx/lv_chart.c ****  */
 586:..\..\..\lvgl\version_6.1.2\lvgl\src\lv_objx/lv_chart.c **** void lv_chart_set_secondary_y_tick_texts(lv_obj_t * chart, const char * list_of_values, uint8_t num
 587:..\..\..\lvgl\version_6.1.2\lvgl\src\lv_objx/lv_chart.c ****                                         lv_chart_axis_options_t options)
 588:..\..\..\lvgl\version_6.1.2\lvgl\src\lv_objx/lv_chart.c **** {
 1948              		.loc 3 588 0
 1949              		.cfi_startproc
 1950              		@ args = 0, pretend = 0, frame = 24
 1951              		@ frame_needed = 1, uses_anonymous_args = 0
 1952 0000 80B5     		push	{r7, lr}
 1953              		.cfi_def_cfa_offset 8
 1954              		.cfi_offset 7, -8
 1955              		.cfi_offset 14, -4
 1956 0002 86B0     		sub	sp, sp, #24
 1957              		.cfi_def_cfa_offset 32
 1958 0004 00AF     		add	r7, sp, #0
 1959              		.cfi_def_cfa_register 7
 1960 0006 F860     		str	r0, [r7, #12]
 1961 0008 B960     		str	r1, [r7, #8]
 1962 000a 1146     		mov	r1, r2
 1963 000c 1A46     		mov	r2, r3
 1964 000e 0B46     		mov	r3, r1
 1965 0010 FB71     		strb	r3, [r7, #7]
 1966 0012 1346     		mov	r3, r2
 1967 0014 BB71     		strb	r3, [r7, #6]
 589:..\..\..\lvgl\version_6.1.2\lvgl\src\lv_objx/lv_chart.c ****     LV_ASSERT_OBJ(chart, LV_OBJX_NAME);
 590:..\..\..\lvgl\version_6.1.2\lvgl\src\lv_objx/lv_chart.c ****     LV_ASSERT_NULL(list_of_values);
 591:..\..\..\lvgl\version_6.1.2\lvgl\src\lv_objx/lv_chart.c **** 
 592:..\..\..\lvgl\version_6.1.2\lvgl\src\lv_objx/lv_chart.c ****     lv_chart_ext_t * ext       = lv_obj_get_ext_attr(chart);
 1968              		.loc 3 592 0
 1969 0016 F868     		ldr	r0, [r7, #12]
 1970 0018 FFF7FEFF 		bl	lv_obj_get_ext_attr
 1971 001c 7861     		str	r0, [r7, #20]
 593:..\..\..\lvgl\version_6.1.2\lvgl\src\lv_objx/lv_chart.c ****     ext->secondary_y_axis.num_tick_marks = num_tick_marks;
 1972              		.loc 3 593 0
 1973 001e 7B69     		ldr	r3, [r7, #20]
 1974 0020 FA79     		ldrb	r2, [r7, #7]
 1975 0022 83F82D20 		strb	r2, [r3, #45]
 594:..\..\..\lvgl\version_6.1.2\lvgl\src\lv_objx/lv_chart.c ****     ext->secondary_y_axis.list_of_values = list_of_values;
 1976              		.loc 3 594 0
 1977 0026 7B69     		ldr	r3, [r7, #20]
ARM GAS  C:\Users\tmj32\AppData\Local\Temp\ccrrExWC.s 			page 59


 1978 0028 BA68     		ldr	r2, [r7, #8]
 1979 002a 9A62     		str	r2, [r3, #40]
 595:..\..\..\lvgl\version_6.1.2\lvgl\src\lv_objx/lv_chart.c ****     ext->secondary_y_axis.options        = options;
 1980              		.loc 3 595 0
 1981 002c 7B69     		ldr	r3, [r7, #20]
 1982 002e BA79     		ldrb	r2, [r7, #6]
 1983 0030 83F82C20 		strb	r2, [r3, #44]
 596:..\..\..\lvgl\version_6.1.2\lvgl\src\lv_objx/lv_chart.c **** }
 1984              		.loc 3 596 0
 1985 0034 00BF     		nop
 1986 0036 1837     		adds	r7, r7, #24
 1987              		.cfi_def_cfa_offset 8
 1988 0038 BD46     		mov	sp, r7
 1989              		.cfi_def_cfa_register 13
 1990              		@ sp needed
 1991 003a 80BD     		pop	{r7, pc}
 1992              		.cfi_endproc
 1993              	.LFE54:
 1994              		.size	lv_chart_set_secondary_y_tick_texts, .-lv_chart_set_secondary_y_tick_texts
 1995              		.section	.text.lv_chart_set_margin,"ax",%progbits
 1996              		.align	2
 1997              		.global	lv_chart_set_margin
 1998              		.thumb
 1999              		.thumb_func
 2000              		.type	lv_chart_set_margin, %function
 2001              	lv_chart_set_margin:
 2002              	.LFB55:
 597:..\..\..\lvgl\version_6.1.2\lvgl\src\lv_objx/lv_chart.c **** 
 598:..\..\..\lvgl\version_6.1.2\lvgl\src\lv_objx/lv_chart.c **** /**
 599:..\..\..\lvgl\version_6.1.2\lvgl\src\lv_objx/lv_chart.c ****  * Set the margin around the chart, used for axes value and ticks
 600:..\..\..\lvgl\version_6.1.2\lvgl\src\lv_objx/lv_chart.c ****  * @param chart     pointer to an chart object
 601:..\..\..\lvgl\version_6.1.2\lvgl\src\lv_objx/lv_chart.c ****  * @param margin    value of the margin [px]
 602:..\..\..\lvgl\version_6.1.2\lvgl\src\lv_objx/lv_chart.c ****  */
 603:..\..\..\lvgl\version_6.1.2\lvgl\src\lv_objx/lv_chart.c **** void lv_chart_set_margin(lv_obj_t * chart, uint16_t margin)
 604:..\..\..\lvgl\version_6.1.2\lvgl\src\lv_objx/lv_chart.c **** {
 2003              		.loc 3 604 0
 2004              		.cfi_startproc
 2005              		@ args = 0, pretend = 0, frame = 16
 2006              		@ frame_needed = 1, uses_anonymous_args = 0
 2007 0000 80B5     		push	{r7, lr}
 2008              		.cfi_def_cfa_offset 8
 2009              		.cfi_offset 7, -8
 2010              		.cfi_offset 14, -4
 2011 0002 84B0     		sub	sp, sp, #16
 2012              		.cfi_def_cfa_offset 24
 2013 0004 00AF     		add	r7, sp, #0
 2014              		.cfi_def_cfa_register 7
 2015 0006 7860     		str	r0, [r7, #4]
 2016 0008 0B46     		mov	r3, r1
 2017 000a 7B80     		strh	r3, [r7, #2]	@ movhi
 605:..\..\..\lvgl\version_6.1.2\lvgl\src\lv_objx/lv_chart.c ****     LV_ASSERT_OBJ(chart, LV_OBJX_NAME);
 606:..\..\..\lvgl\version_6.1.2\lvgl\src\lv_objx/lv_chart.c **** 
 607:..\..\..\lvgl\version_6.1.2\lvgl\src\lv_objx/lv_chart.c ****     lv_chart_ext_t * ext = lv_obj_get_ext_attr(chart);
 2018              		.loc 3 607 0
 2019 000c 7868     		ldr	r0, [r7, #4]
 2020 000e FFF7FEFF 		bl	lv_obj_get_ext_attr
 2021 0012 F860     		str	r0, [r7, #12]
ARM GAS  C:\Users\tmj32\AppData\Local\Temp\ccrrExWC.s 			page 60


 608:..\..\..\lvgl\version_6.1.2\lvgl\src\lv_objx/lv_chart.c ****     ext->margin          = margin;
 2022              		.loc 3 608 0
 2023 0014 FB68     		ldr	r3, [r7, #12]
 2024 0016 7A88     		ldrh	r2, [r7, #2]	@ movhi
 2025 0018 1A86     		strh	r2, [r3, #48]	@ movhi
 609:..\..\..\lvgl\version_6.1.2\lvgl\src\lv_objx/lv_chart.c ****     lv_obj_refresh_ext_draw_pad(chart);
 2026              		.loc 3 609 0
 2027 001a 7868     		ldr	r0, [r7, #4]
 2028 001c FFF7FEFF 		bl	lv_obj_refresh_ext_draw_pad
 610:..\..\..\lvgl\version_6.1.2\lvgl\src\lv_objx/lv_chart.c **** }
 2029              		.loc 3 610 0
 2030 0020 00BF     		nop
 2031 0022 1037     		adds	r7, r7, #16
 2032              		.cfi_def_cfa_offset 8
 2033 0024 BD46     		mov	sp, r7
 2034              		.cfi_def_cfa_register 13
 2035              		@ sp needed
 2036 0026 80BD     		pop	{r7, pc}
 2037              		.cfi_endproc
 2038              	.LFE55:
 2039              		.size	lv_chart_set_margin, .-lv_chart_set_margin
 2040              		.section	.text.lv_chart_get_type,"ax",%progbits
 2041              		.align	2
 2042              		.global	lv_chart_get_type
 2043              		.thumb
 2044              		.thumb_func
 2045              		.type	lv_chart_get_type, %function
 2046              	lv_chart_get_type:
 2047              	.LFB56:
 611:..\..\..\lvgl\version_6.1.2\lvgl\src\lv_objx/lv_chart.c **** 
 612:..\..\..\lvgl\version_6.1.2\lvgl\src\lv_objx/lv_chart.c **** /*=====================
 613:..\..\..\lvgl\version_6.1.2\lvgl\src\lv_objx/lv_chart.c ****  * Getter functions
 614:..\..\..\lvgl\version_6.1.2\lvgl\src\lv_objx/lv_chart.c ****  *====================*/
 615:..\..\..\lvgl\version_6.1.2\lvgl\src\lv_objx/lv_chart.c **** 
 616:..\..\..\lvgl\version_6.1.2\lvgl\src\lv_objx/lv_chart.c **** /**
 617:..\..\..\lvgl\version_6.1.2\lvgl\src\lv_objx/lv_chart.c ****  * Get the type of a chart
 618:..\..\..\lvgl\version_6.1.2\lvgl\src\lv_objx/lv_chart.c ****  * @param chart pointer to chart object
 619:..\..\..\lvgl\version_6.1.2\lvgl\src\lv_objx/lv_chart.c ****  * @return type of the chart (from 'lv_chart_t' enum)
 620:..\..\..\lvgl\version_6.1.2\lvgl\src\lv_objx/lv_chart.c ****  */
 621:..\..\..\lvgl\version_6.1.2\lvgl\src\lv_objx/lv_chart.c **** lv_chart_type_t lv_chart_get_type(const lv_obj_t * chart)
 622:..\..\..\lvgl\version_6.1.2\lvgl\src\lv_objx/lv_chart.c **** {
 2048              		.loc 3 622 0
 2049              		.cfi_startproc
 2050              		@ args = 0, pretend = 0, frame = 16
 2051              		@ frame_needed = 1, uses_anonymous_args = 0
 2052 0000 80B5     		push	{r7, lr}
 2053              		.cfi_def_cfa_offset 8
 2054              		.cfi_offset 7, -8
 2055              		.cfi_offset 14, -4
 2056 0002 84B0     		sub	sp, sp, #16
 2057              		.cfi_def_cfa_offset 24
 2058 0004 00AF     		add	r7, sp, #0
 2059              		.cfi_def_cfa_register 7
 2060 0006 7860     		str	r0, [r7, #4]
 623:..\..\..\lvgl\version_6.1.2\lvgl\src\lv_objx/lv_chart.c ****     LV_ASSERT_OBJ(chart, LV_OBJX_NAME);
 624:..\..\..\lvgl\version_6.1.2\lvgl\src\lv_objx/lv_chart.c **** 
 625:..\..\..\lvgl\version_6.1.2\lvgl\src\lv_objx/lv_chart.c ****     lv_chart_ext_t * ext = lv_obj_get_ext_attr(chart);
ARM GAS  C:\Users\tmj32\AppData\Local\Temp\ccrrExWC.s 			page 61


 2061              		.loc 3 625 0
 2062 0008 7868     		ldr	r0, [r7, #4]
 2063 000a FFF7FEFF 		bl	lv_obj_get_ext_attr
 2064 000e F860     		str	r0, [r7, #12]
 626:..\..\..\lvgl\version_6.1.2\lvgl\src\lv_objx/lv_chart.c ****     return ext->type;
 2065              		.loc 3 626 0
 2066 0010 FB68     		ldr	r3, [r7, #12]
 2067 0012 1B7D     		ldrb	r3, [r3, #20]	@ zero_extendqisi2
 627:..\..\..\lvgl\version_6.1.2\lvgl\src\lv_objx/lv_chart.c **** }
 2068              		.loc 3 627 0
 2069 0014 1846     		mov	r0, r3
 2070 0016 1037     		adds	r7, r7, #16
 2071              		.cfi_def_cfa_offset 8
 2072 0018 BD46     		mov	sp, r7
 2073              		.cfi_def_cfa_register 13
 2074              		@ sp needed
 2075 001a 80BD     		pop	{r7, pc}
 2076              		.cfi_endproc
 2077              	.LFE56:
 2078              		.size	lv_chart_get_type, .-lv_chart_get_type
 2079              		.section	.text.lv_chart_get_point_cnt,"ax",%progbits
 2080              		.align	2
 2081              		.global	lv_chart_get_point_cnt
 2082              		.thumb
 2083              		.thumb_func
 2084              		.type	lv_chart_get_point_cnt, %function
 2085              	lv_chart_get_point_cnt:
 2086              	.LFB57:
 628:..\..\..\lvgl\version_6.1.2\lvgl\src\lv_objx/lv_chart.c **** 
 629:..\..\..\lvgl\version_6.1.2\lvgl\src\lv_objx/lv_chart.c **** /**
 630:..\..\..\lvgl\version_6.1.2\lvgl\src\lv_objx/lv_chart.c ****  * Get the data point number per data line on chart
 631:..\..\..\lvgl\version_6.1.2\lvgl\src\lv_objx/lv_chart.c ****  * @param chart pointer to chart object
 632:..\..\..\lvgl\version_6.1.2\lvgl\src\lv_objx/lv_chart.c ****  * @return point number on each data line
 633:..\..\..\lvgl\version_6.1.2\lvgl\src\lv_objx/lv_chart.c ****  */
 634:..\..\..\lvgl\version_6.1.2\lvgl\src\lv_objx/lv_chart.c **** uint16_t lv_chart_get_point_cnt(const lv_obj_t * chart)
 635:..\..\..\lvgl\version_6.1.2\lvgl\src\lv_objx/lv_chart.c **** {
 2087              		.loc 3 635 0
 2088              		.cfi_startproc
 2089              		@ args = 0, pretend = 0, frame = 16
 2090              		@ frame_needed = 1, uses_anonymous_args = 0
 2091 0000 80B5     		push	{r7, lr}
 2092              		.cfi_def_cfa_offset 8
 2093              		.cfi_offset 7, -8
 2094              		.cfi_offset 14, -4
 2095 0002 84B0     		sub	sp, sp, #16
 2096              		.cfi_def_cfa_offset 24
 2097 0004 00AF     		add	r7, sp, #0
 2098              		.cfi_def_cfa_register 7
 2099 0006 7860     		str	r0, [r7, #4]
 636:..\..\..\lvgl\version_6.1.2\lvgl\src\lv_objx/lv_chart.c ****     LV_ASSERT_OBJ(chart, LV_OBJX_NAME);
 637:..\..\..\lvgl\version_6.1.2\lvgl\src\lv_objx/lv_chart.c **** 
 638:..\..\..\lvgl\version_6.1.2\lvgl\src\lv_objx/lv_chart.c ****     lv_chart_ext_t * ext = lv_obj_get_ext_attr(chart);
 2100              		.loc 3 638 0
 2101 0008 7868     		ldr	r0, [r7, #4]
 2102 000a FFF7FEFF 		bl	lv_obj_get_ext_attr
 2103 000e F860     		str	r0, [r7, #12]
 639:..\..\..\lvgl\version_6.1.2\lvgl\src\lv_objx/lv_chart.c ****     return ext->point_cnt;
ARM GAS  C:\Users\tmj32\AppData\Local\Temp\ccrrExWC.s 			page 62


 2104              		.loc 3 639 0
 2105 0010 FB68     		ldr	r3, [r7, #12]
 2106 0012 5B8A     		ldrh	r3, [r3, #18]
 640:..\..\..\lvgl\version_6.1.2\lvgl\src\lv_objx/lv_chart.c **** }
 2107              		.loc 3 640 0
 2108 0014 1846     		mov	r0, r3
 2109 0016 1037     		adds	r7, r7, #16
 2110              		.cfi_def_cfa_offset 8
 2111 0018 BD46     		mov	sp, r7
 2112              		.cfi_def_cfa_register 13
 2113              		@ sp needed
 2114 001a 80BD     		pop	{r7, pc}
 2115              		.cfi_endproc
 2116              	.LFE57:
 2117              		.size	lv_chart_get_point_cnt, .-lv_chart_get_point_cnt
 2118              		.section	.text.lv_chart_get_series_opa,"ax",%progbits
 2119              		.align	2
 2120              		.global	lv_chart_get_series_opa
 2121              		.thumb
 2122              		.thumb_func
 2123              		.type	lv_chart_get_series_opa, %function
 2124              	lv_chart_get_series_opa:
 2125              	.LFB58:
 641:..\..\..\lvgl\version_6.1.2\lvgl\src\lv_objx/lv_chart.c **** 
 642:..\..\..\lvgl\version_6.1.2\lvgl\src\lv_objx/lv_chart.c **** /**
 643:..\..\..\lvgl\version_6.1.2\lvgl\src\lv_objx/lv_chart.c ****  * Get the opacity of the data series
 644:..\..\..\lvgl\version_6.1.2\lvgl\src\lv_objx/lv_chart.c ****  * @param chart pointer to chart object
 645:..\..\..\lvgl\version_6.1.2\lvgl\src\lv_objx/lv_chart.c ****  * @return the opacity of the data series
 646:..\..\..\lvgl\version_6.1.2\lvgl\src\lv_objx/lv_chart.c ****  */
 647:..\..\..\lvgl\version_6.1.2\lvgl\src\lv_objx/lv_chart.c **** lv_opa_t lv_chart_get_series_opa(const lv_obj_t * chart)
 648:..\..\..\lvgl\version_6.1.2\lvgl\src\lv_objx/lv_chart.c **** {
 2126              		.loc 3 648 0
 2127              		.cfi_startproc
 2128              		@ args = 0, pretend = 0, frame = 16
 2129              		@ frame_needed = 1, uses_anonymous_args = 0
 2130 0000 80B5     		push	{r7, lr}
 2131              		.cfi_def_cfa_offset 8
 2132              		.cfi_offset 7, -8
 2133              		.cfi_offset 14, -4
 2134 0002 84B0     		sub	sp, sp, #16
 2135              		.cfi_def_cfa_offset 24
 2136 0004 00AF     		add	r7, sp, #0
 2137              		.cfi_def_cfa_register 7
 2138 0006 7860     		str	r0, [r7, #4]
 649:..\..\..\lvgl\version_6.1.2\lvgl\src\lv_objx/lv_chart.c ****     LV_ASSERT_OBJ(chart, LV_OBJX_NAME);
 650:..\..\..\lvgl\version_6.1.2\lvgl\src\lv_objx/lv_chart.c **** 
 651:..\..\..\lvgl\version_6.1.2\lvgl\src\lv_objx/lv_chart.c ****     lv_chart_ext_t * ext = lv_obj_get_ext_attr(chart);
 2139              		.loc 3 651 0
 2140 0008 7868     		ldr	r0, [r7, #4]
 2141 000a FFF7FEFF 		bl	lv_obj_get_ext_attr
 2142 000e F860     		str	r0, [r7, #12]
 652:..\..\..\lvgl\version_6.1.2\lvgl\src\lv_objx/lv_chart.c ****     return ext->series.opa;
 2143              		.loc 3 652 0
 2144 0010 FB68     		ldr	r3, [r7, #12]
 2145 0012 93F83730 		ldrb	r3, [r3, #55]	@ zero_extendqisi2
 653:..\..\..\lvgl\version_6.1.2\lvgl\src\lv_objx/lv_chart.c **** }
 2146              		.loc 3 653 0
ARM GAS  C:\Users\tmj32\AppData\Local\Temp\ccrrExWC.s 			page 63


 2147 0016 1846     		mov	r0, r3
 2148 0018 1037     		adds	r7, r7, #16
 2149              		.cfi_def_cfa_offset 8
 2150 001a BD46     		mov	sp, r7
 2151              		.cfi_def_cfa_register 13
 2152              		@ sp needed
 2153 001c 80BD     		pop	{r7, pc}
 2154              		.cfi_endproc
 2155              	.LFE58:
 2156              		.size	lv_chart_get_series_opa, .-lv_chart_get_series_opa
 2157 001e 00BF     		.section	.text.lv_chart_get_series_width,"ax",%progbits
 2158              		.align	2
 2159              		.global	lv_chart_get_series_width
 2160              		.thumb
 2161              		.thumb_func
 2162              		.type	lv_chart_get_series_width, %function
 2163              	lv_chart_get_series_width:
 2164              	.LFB59:
 654:..\..\..\lvgl\version_6.1.2\lvgl\src\lv_objx/lv_chart.c **** 
 655:..\..\..\lvgl\version_6.1.2\lvgl\src\lv_objx/lv_chart.c **** /**
 656:..\..\..\lvgl\version_6.1.2\lvgl\src\lv_objx/lv_chart.c ****  * Get the data series width
 657:..\..\..\lvgl\version_6.1.2\lvgl\src\lv_objx/lv_chart.c ****  * @param chart pointer to chart object
 658:..\..\..\lvgl\version_6.1.2\lvgl\src\lv_objx/lv_chart.c ****  * @return the width the data series (lines or points)
 659:..\..\..\lvgl\version_6.1.2\lvgl\src\lv_objx/lv_chart.c ****  */
 660:..\..\..\lvgl\version_6.1.2\lvgl\src\lv_objx/lv_chart.c **** lv_coord_t lv_chart_get_series_width(const lv_obj_t * chart)
 661:..\..\..\lvgl\version_6.1.2\lvgl\src\lv_objx/lv_chart.c **** {
 2165              		.loc 3 661 0
 2166              		.cfi_startproc
 2167              		@ args = 0, pretend = 0, frame = 16
 2168              		@ frame_needed = 1, uses_anonymous_args = 0
 2169 0000 80B5     		push	{r7, lr}
 2170              		.cfi_def_cfa_offset 8
 2171              		.cfi_offset 7, -8
 2172              		.cfi_offset 14, -4
 2173 0002 84B0     		sub	sp, sp, #16
 2174              		.cfi_def_cfa_offset 24
 2175 0004 00AF     		add	r7, sp, #0
 2176              		.cfi_def_cfa_register 7
 2177 0006 7860     		str	r0, [r7, #4]
 662:..\..\..\lvgl\version_6.1.2\lvgl\src\lv_objx/lv_chart.c ****     LV_ASSERT_OBJ(chart, LV_OBJX_NAME);
 663:..\..\..\lvgl\version_6.1.2\lvgl\src\lv_objx/lv_chart.c **** 
 664:..\..\..\lvgl\version_6.1.2\lvgl\src\lv_objx/lv_chart.c ****     lv_chart_ext_t * ext = lv_obj_get_ext_attr(chart);
 2178              		.loc 3 664 0
 2179 0008 7868     		ldr	r0, [r7, #4]
 2180 000a FFF7FEFF 		bl	lv_obj_get_ext_attr
 2181 000e F860     		str	r0, [r7, #12]
 665:..\..\..\lvgl\version_6.1.2\lvgl\src\lv_objx/lv_chart.c ****     return ext->series.width;
 2182              		.loc 3 665 0
 2183 0010 FB68     		ldr	r3, [r7, #12]
 2184 0012 B3F93430 		ldrsh	r3, [r3, #52]
 666:..\..\..\lvgl\version_6.1.2\lvgl\src\lv_objx/lv_chart.c **** }
 2185              		.loc 3 666 0
 2186 0016 1846     		mov	r0, r3
 2187 0018 1037     		adds	r7, r7, #16
 2188              		.cfi_def_cfa_offset 8
 2189 001a BD46     		mov	sp, r7
 2190              		.cfi_def_cfa_register 13
ARM GAS  C:\Users\tmj32\AppData\Local\Temp\ccrrExWC.s 			page 64


 2191              		@ sp needed
 2192 001c 80BD     		pop	{r7, pc}
 2193              		.cfi_endproc
 2194              	.LFE59:
 2195              		.size	lv_chart_get_series_width, .-lv_chart_get_series_width
 2196 001e 00BF     		.section	.text.lv_chart_get_series_darking,"ax",%progbits
 2197              		.align	2
 2198              		.global	lv_chart_get_series_darking
 2199              		.thumb
 2200              		.thumb_func
 2201              		.type	lv_chart_get_series_darking, %function
 2202              	lv_chart_get_series_darking:
 2203              	.LFB60:
 667:..\..\..\lvgl\version_6.1.2\lvgl\src\lv_objx/lv_chart.c **** 
 668:..\..\..\lvgl\version_6.1.2\lvgl\src\lv_objx/lv_chart.c **** /**
 669:..\..\..\lvgl\version_6.1.2\lvgl\src\lv_objx/lv_chart.c ****  * Get the dark effect level on the bottom of the points or columns
 670:..\..\..\lvgl\version_6.1.2\lvgl\src\lv_objx/lv_chart.c ****  * @param chart pointer to chart object
 671:..\..\..\lvgl\version_6.1.2\lvgl\src\lv_objx/lv_chart.c ****  * @return dark effect level (LV_OPA_TRANSP to turn off)
 672:..\..\..\lvgl\version_6.1.2\lvgl\src\lv_objx/lv_chart.c ****  */
 673:..\..\..\lvgl\version_6.1.2\lvgl\src\lv_objx/lv_chart.c **** lv_opa_t lv_chart_get_series_darking(const lv_obj_t * chart)
 674:..\..\..\lvgl\version_6.1.2\lvgl\src\lv_objx/lv_chart.c **** {
 2204              		.loc 3 674 0
 2205              		.cfi_startproc
 2206              		@ args = 0, pretend = 0, frame = 16
 2207              		@ frame_needed = 1, uses_anonymous_args = 0
 2208 0000 80B5     		push	{r7, lr}
 2209              		.cfi_def_cfa_offset 8
 2210              		.cfi_offset 7, -8
 2211              		.cfi_offset 14, -4
 2212 0002 84B0     		sub	sp, sp, #16
 2213              		.cfi_def_cfa_offset 24
 2214 0004 00AF     		add	r7, sp, #0
 2215              		.cfi_def_cfa_register 7
 2216 0006 7860     		str	r0, [r7, #4]
 675:..\..\..\lvgl\version_6.1.2\lvgl\src\lv_objx/lv_chart.c ****     LV_ASSERT_OBJ(chart, LV_OBJX_NAME);
 676:..\..\..\lvgl\version_6.1.2\lvgl\src\lv_objx/lv_chart.c **** 
 677:..\..\..\lvgl\version_6.1.2\lvgl\src\lv_objx/lv_chart.c ****     lv_chart_ext_t * ext = lv_obj_get_ext_attr(chart);
 2217              		.loc 3 677 0
 2218 0008 7868     		ldr	r0, [r7, #4]
 2219 000a FFF7FEFF 		bl	lv_obj_get_ext_attr
 2220 000e F860     		str	r0, [r7, #12]
 678:..\..\..\lvgl\version_6.1.2\lvgl\src\lv_objx/lv_chart.c ****     return ext->series.dark;
 2221              		.loc 3 678 0
 2222 0010 FB68     		ldr	r3, [r7, #12]
 2223 0012 93F83830 		ldrb	r3, [r3, #56]	@ zero_extendqisi2
 679:..\..\..\lvgl\version_6.1.2\lvgl\src\lv_objx/lv_chart.c **** }
 2224              		.loc 3 679 0
 2225 0016 1846     		mov	r0, r3
 2226 0018 1037     		adds	r7, r7, #16
 2227              		.cfi_def_cfa_offset 8
 2228 001a BD46     		mov	sp, r7
 2229              		.cfi_def_cfa_register 13
 2230              		@ sp needed
 2231 001c 80BD     		pop	{r7, pc}
 2232              		.cfi_endproc
 2233              	.LFE60:
 2234              		.size	lv_chart_get_series_darking, .-lv_chart_get_series_darking
ARM GAS  C:\Users\tmj32\AppData\Local\Temp\ccrrExWC.s 			page 65


 2235 001e 00BF     		.section	.text.lv_chart_refresh,"ax",%progbits
 2236              		.align	2
 2237              		.global	lv_chart_refresh
 2238              		.thumb
 2239              		.thumb_func
 2240              		.type	lv_chart_refresh, %function
 2241              	lv_chart_refresh:
 2242              	.LFB61:
 680:..\..\..\lvgl\version_6.1.2\lvgl\src\lv_objx/lv_chart.c **** 
 681:..\..\..\lvgl\version_6.1.2\lvgl\src\lv_objx/lv_chart.c **** /*=====================
 682:..\..\..\lvgl\version_6.1.2\lvgl\src\lv_objx/lv_chart.c ****  * Other functions
 683:..\..\..\lvgl\version_6.1.2\lvgl\src\lv_objx/lv_chart.c ****  *====================*/
 684:..\..\..\lvgl\version_6.1.2\lvgl\src\lv_objx/lv_chart.c **** 
 685:..\..\..\lvgl\version_6.1.2\lvgl\src\lv_objx/lv_chart.c **** /**
 686:..\..\..\lvgl\version_6.1.2\lvgl\src\lv_objx/lv_chart.c ****  * Refresh a chart if its data line has changed
 687:..\..\..\lvgl\version_6.1.2\lvgl\src\lv_objx/lv_chart.c ****  * @param chart pointer to chart object
 688:..\..\..\lvgl\version_6.1.2\lvgl\src\lv_objx/lv_chart.c ****  */
 689:..\..\..\lvgl\version_6.1.2\lvgl\src\lv_objx/lv_chart.c **** void lv_chart_refresh(lv_obj_t * chart)
 690:..\..\..\lvgl\version_6.1.2\lvgl\src\lv_objx/lv_chart.c **** {
 2243              		.loc 3 690 0
 2244              		.cfi_startproc
 2245              		@ args = 0, pretend = 0, frame = 8
 2246              		@ frame_needed = 1, uses_anonymous_args = 0
 2247 0000 80B5     		push	{r7, lr}
 2248              		.cfi_def_cfa_offset 8
 2249              		.cfi_offset 7, -8
 2250              		.cfi_offset 14, -4
 2251 0002 82B0     		sub	sp, sp, #8
 2252              		.cfi_def_cfa_offset 16
 2253 0004 00AF     		add	r7, sp, #0
 2254              		.cfi_def_cfa_register 7
 2255 0006 7860     		str	r0, [r7, #4]
 691:..\..\..\lvgl\version_6.1.2\lvgl\src\lv_objx/lv_chart.c ****     LV_ASSERT_OBJ(chart, LV_OBJX_NAME);
 692:..\..\..\lvgl\version_6.1.2\lvgl\src\lv_objx/lv_chart.c **** 
 693:..\..\..\lvgl\version_6.1.2\lvgl\src\lv_objx/lv_chart.c ****     lv_obj_invalidate(chart);
 2256              		.loc 3 693 0
 2257 0008 7868     		ldr	r0, [r7, #4]
 2258 000a FFF7FEFF 		bl	lv_obj_invalidate
 694:..\..\..\lvgl\version_6.1.2\lvgl\src\lv_objx/lv_chart.c **** }
 2259              		.loc 3 694 0
 2260 000e 00BF     		nop
 2261 0010 0837     		adds	r7, r7, #8
 2262              		.cfi_def_cfa_offset 8
 2263 0012 BD46     		mov	sp, r7
 2264              		.cfi_def_cfa_register 13
 2265              		@ sp needed
 2266 0014 80BD     		pop	{r7, pc}
 2267              		.cfi_endproc
 2268              	.LFE61:
 2269              		.size	lv_chart_refresh, .-lv_chart_refresh
 2270 0016 00BF     		.section	.text.lv_chart_get_margin,"ax",%progbits
 2271              		.align	2
 2272              		.global	lv_chart_get_margin
 2273              		.thumb
 2274              		.thumb_func
 2275              		.type	lv_chart_get_margin, %function
 2276              	lv_chart_get_margin:
ARM GAS  C:\Users\tmj32\AppData\Local\Temp\ccrrExWC.s 			page 66


 2277              	.LFB62:
 695:..\..\..\lvgl\version_6.1.2\lvgl\src\lv_objx/lv_chart.c **** 
 696:..\..\..\lvgl\version_6.1.2\lvgl\src\lv_objx/lv_chart.c **** /**
 697:..\..\..\lvgl\version_6.1.2\lvgl\src\lv_objx/lv_chart.c ****  * Get the margin around the chart, used for axes value and labels
 698:..\..\..\lvgl\version_6.1.2\lvgl\src\lv_objx/lv_chart.c ****  * @param chart pointer to an chart object
 699:..\..\..\lvgl\version_6.1.2\lvgl\src\lv_objx/lv_chart.c ****  * @param return value of the margin
 700:..\..\..\lvgl\version_6.1.2\lvgl\src\lv_objx/lv_chart.c ****  */
 701:..\..\..\lvgl\version_6.1.2\lvgl\src\lv_objx/lv_chart.c **** uint16_t lv_chart_get_margin(lv_obj_t * chart)
 702:..\..\..\lvgl\version_6.1.2\lvgl\src\lv_objx/lv_chart.c **** {
 2278              		.loc 3 702 0
 2279              		.cfi_startproc
 2280              		@ args = 0, pretend = 0, frame = 16
 2281              		@ frame_needed = 1, uses_anonymous_args = 0
 2282 0000 80B5     		push	{r7, lr}
 2283              		.cfi_def_cfa_offset 8
 2284              		.cfi_offset 7, -8
 2285              		.cfi_offset 14, -4
 2286 0002 84B0     		sub	sp, sp, #16
 2287              		.cfi_def_cfa_offset 24
 2288 0004 00AF     		add	r7, sp, #0
 2289              		.cfi_def_cfa_register 7
 2290 0006 7860     		str	r0, [r7, #4]
 703:..\..\..\lvgl\version_6.1.2\lvgl\src\lv_objx/lv_chart.c ****     LV_ASSERT_OBJ(chart, LV_OBJX_NAME);
 704:..\..\..\lvgl\version_6.1.2\lvgl\src\lv_objx/lv_chart.c **** 
 705:..\..\..\lvgl\version_6.1.2\lvgl\src\lv_objx/lv_chart.c ****     lv_chart_ext_t * ext = lv_obj_get_ext_attr(chart);
 2291              		.loc 3 705 0
 2292 0008 7868     		ldr	r0, [r7, #4]
 2293 000a FFF7FEFF 		bl	lv_obj_get_ext_attr
 2294 000e F860     		str	r0, [r7, #12]
 706:..\..\..\lvgl\version_6.1.2\lvgl\src\lv_objx/lv_chart.c ****     return ext->margin;
 2295              		.loc 3 706 0
 2296 0010 FB68     		ldr	r3, [r7, #12]
 2297 0012 1B8E     		ldrh	r3, [r3, #48]
 707:..\..\..\lvgl\version_6.1.2\lvgl\src\lv_objx/lv_chart.c **** }
 2298              		.loc 3 707 0
 2299 0014 1846     		mov	r0, r3
 2300 0016 1037     		adds	r7, r7, #16
 2301              		.cfi_def_cfa_offset 8
 2302 0018 BD46     		mov	sp, r7
 2303              		.cfi_def_cfa_register 13
 2304              		@ sp needed
 2305 001a 80BD     		pop	{r7, pc}
 2306              		.cfi_endproc
 2307              	.LFE62:
 2308              		.size	lv_chart_get_margin, .-lv_chart_get_margin
 2309              		.section	.text.lv_chart_design,"ax",%progbits
 2310              		.align	2
 2311              		.thumb
 2312              		.thumb_func
 2313              		.type	lv_chart_design, %function
 2314              	lv_chart_design:
 2315              	.LFB63:
 708:..\..\..\lvgl\version_6.1.2\lvgl\src\lv_objx/lv_chart.c **** 
 709:..\..\..\lvgl\version_6.1.2\lvgl\src\lv_objx/lv_chart.c **** /**********************
 710:..\..\..\lvgl\version_6.1.2\lvgl\src\lv_objx/lv_chart.c ****  *   STATIC FUNCTIONS
 711:..\..\..\lvgl\version_6.1.2\lvgl\src\lv_objx/lv_chart.c ****  **********************/
 712:..\..\..\lvgl\version_6.1.2\lvgl\src\lv_objx/lv_chart.c **** 
ARM GAS  C:\Users\tmj32\AppData\Local\Temp\ccrrExWC.s 			page 67


 713:..\..\..\lvgl\version_6.1.2\lvgl\src\lv_objx/lv_chart.c **** /**
 714:..\..\..\lvgl\version_6.1.2\lvgl\src\lv_objx/lv_chart.c ****  * Handle the drawing related tasks of the chart backgrounds
 715:..\..\..\lvgl\version_6.1.2\lvgl\src\lv_objx/lv_chart.c ****  * @param chart pointer to an object
 716:..\..\..\lvgl\version_6.1.2\lvgl\src\lv_objx/lv_chart.c ****  * @param mask the object will be drawn only in this area
 717:..\..\..\lvgl\version_6.1.2\lvgl\src\lv_objx/lv_chart.c ****  * @param mode LV_DESIGN_COVER_CHK: only check if the object fully covers the 'mask_p' area
 718:..\..\..\lvgl\version_6.1.2\lvgl\src\lv_objx/lv_chart.c ****  *                                  (return 'true' if yes)
 719:..\..\..\lvgl\version_6.1.2\lvgl\src\lv_objx/lv_chart.c ****  *             LV_DESIGN_DRAW: draw the object (always return 'true')
 720:..\..\..\lvgl\version_6.1.2\lvgl\src\lv_objx/lv_chart.c ****  *             LV_DESIGN_DRAW_POST: drawing after every children are drawn
 721:..\..\..\lvgl\version_6.1.2\lvgl\src\lv_objx/lv_chart.c ****  * @param return true/false, depends on 'mode'
 722:..\..\..\lvgl\version_6.1.2\lvgl\src\lv_objx/lv_chart.c ****  */
 723:..\..\..\lvgl\version_6.1.2\lvgl\src\lv_objx/lv_chart.c **** static bool lv_chart_design(lv_obj_t * chart, const lv_area_t * mask, lv_design_mode_t mode)
 724:..\..\..\lvgl\version_6.1.2\lvgl\src\lv_objx/lv_chart.c **** {
 2316              		.loc 3 724 0
 2317              		.cfi_startproc
 2318              		@ args = 0, pretend = 0, frame = 40
 2319              		@ frame_needed = 1, uses_anonymous_args = 0
 2320 0000 B0B5     		push	{r4, r5, r7, lr}
 2321              		.cfi_def_cfa_offset 16
 2322              		.cfi_offset 4, -16
 2323              		.cfi_offset 5, -12
 2324              		.cfi_offset 7, -8
 2325              		.cfi_offset 14, -4
 2326 0002 8AB0     		sub	sp, sp, #40
 2327              		.cfi_def_cfa_offset 56
 2328 0004 00AF     		add	r7, sp, #0
 2329              		.cfi_def_cfa_register 7
 2330 0006 F860     		str	r0, [r7, #12]
 2331 0008 B960     		str	r1, [r7, #8]
 2332 000a 1346     		mov	r3, r2
 2333 000c FB71     		strb	r3, [r7, #7]
 725:..\..\..\lvgl\version_6.1.2\lvgl\src\lv_objx/lv_chart.c ****     if(mode == LV_DESIGN_COVER_CHK) {
 2334              		.loc 3 725 0
 2335 000e FB79     		ldrb	r3, [r7, #7]	@ zero_extendqisi2
 2336 0010 022B     		cmp	r3, #2
 2337 0012 07D1     		bne	.L117
 726:..\..\..\lvgl\version_6.1.2\lvgl\src\lv_objx/lv_chart.c ****         /*Return false if the object is not covers the mask_p area*/
 727:..\..\..\lvgl\version_6.1.2\lvgl\src\lv_objx/lv_chart.c ****         return ancestor_design_f(chart, mask, mode);
 2338              		.loc 3 727 0
