ARM GAS  C:\Users\tmj32\AppData\Local\Temp\cc0vWRpX.s 			page 1


   1              		.syntax unified
   2              		.cpu cortex-m4
   3              		.eabi_attribute 27, 1
   4              		.fpu fpv4-sp-d16
   5              		.eabi_attribute 20, 1
   6              		.eabi_attribute 21, 1
   7              		.eabi_attribute 23, 3
   8              		.eabi_attribute 24, 1
   9              		.eabi_attribute 25, 1
  10              		.eabi_attribute 26, 1
  11              		.eabi_attribute 30, 6
  12              		.eabi_attribute 34, 1
  13              		.eabi_attribute 18, 4
  14              		.thumb
  15              		.syntax unified
  16              		.file	"lv_calendar.c"
  17              		.text
  18              	.Ltext0:
  19              		.cfi_sections	.debug_frame
  20              		.section	.text.lv_font_get_line_height,"ax",%progbits
  21              		.align	2
  22              		.thumb
  23              		.thumb_func
  24              		.type	lv_font_get_line_height, %function
  25              	lv_font_get_line_height:
  26              	.LFB0:
  27              		.file 1 "..\\..\\..\\lvgl\\version_6.1.2\\lvgl\\src\\lv_objx\\../lv_core/../lv_font/lv_font.h"
   1:..\..\..\lvgl\version_6.1.2\lvgl\src\lv_objx\../lv_core/../lv_font/lv_font.h **** /**
   2:..\..\..\lvgl\version_6.1.2\lvgl\src\lv_objx\../lv_core/../lv_font/lv_font.h ****  * @file lv_font.h
   3:..\..\..\lvgl\version_6.1.2\lvgl\src\lv_objx\../lv_core/../lv_font/lv_font.h ****  *
   4:..\..\..\lvgl\version_6.1.2\lvgl\src\lv_objx\../lv_core/../lv_font/lv_font.h ****  */
   5:..\..\..\lvgl\version_6.1.2\lvgl\src\lv_objx\../lv_core/../lv_font/lv_font.h **** 
   6:..\..\..\lvgl\version_6.1.2\lvgl\src\lv_objx\../lv_core/../lv_font/lv_font.h **** #ifndef LV_FONT_H
   7:..\..\..\lvgl\version_6.1.2\lvgl\src\lv_objx\../lv_core/../lv_font/lv_font.h **** #define LV_FONT_H
   8:..\..\..\lvgl\version_6.1.2\lvgl\src\lv_objx\../lv_core/../lv_font/lv_font.h **** 
   9:..\..\..\lvgl\version_6.1.2\lvgl\src\lv_objx\../lv_core/../lv_font/lv_font.h **** #ifdef __cplusplus
  10:..\..\..\lvgl\version_6.1.2\lvgl\src\lv_objx\../lv_core/../lv_font/lv_font.h **** extern "C" {
  11:..\..\..\lvgl\version_6.1.2\lvgl\src\lv_objx\../lv_core/../lv_font/lv_font.h **** #endif
  12:..\..\..\lvgl\version_6.1.2\lvgl\src\lv_objx\../lv_core/../lv_font/lv_font.h **** 
  13:..\..\..\lvgl\version_6.1.2\lvgl\src\lv_objx\../lv_core/../lv_font/lv_font.h **** /*********************
  14:..\..\..\lvgl\version_6.1.2\lvgl\src\lv_objx\../lv_core/../lv_font/lv_font.h ****  *      INCLUDES
  15:..\..\..\lvgl\version_6.1.2\lvgl\src\lv_objx\../lv_core/../lv_font/lv_font.h ****  *********************/
  16:..\..\..\lvgl\version_6.1.2\lvgl\src\lv_objx\../lv_core/../lv_font/lv_font.h **** #ifdef LV_CONF_INCLUDE_SIMPLE
  17:..\..\..\lvgl\version_6.1.2\lvgl\src\lv_objx\../lv_core/../lv_font/lv_font.h **** #include "lv_conf.h"
  18:..\..\..\lvgl\version_6.1.2\lvgl\src\lv_objx\../lv_core/../lv_font/lv_font.h **** #else
  19:..\..\..\lvgl\version_6.1.2\lvgl\src\lv_objx\../lv_core/../lv_font/lv_font.h **** #include "../../../lv_conf.h"
  20:..\..\..\lvgl\version_6.1.2\lvgl\src\lv_objx\../lv_core/../lv_font/lv_font.h **** #endif
  21:..\..\..\lvgl\version_6.1.2\lvgl\src\lv_objx\../lv_core/../lv_font/lv_font.h **** 
  22:..\..\..\lvgl\version_6.1.2\lvgl\src\lv_objx\../lv_core/../lv_font/lv_font.h **** #include <stdint.h>
  23:..\..\..\lvgl\version_6.1.2\lvgl\src\lv_objx\../lv_core/../lv_font/lv_font.h **** #include <stddef.h>
  24:..\..\..\lvgl\version_6.1.2\lvgl\src\lv_objx\../lv_core/../lv_font/lv_font.h **** #include <stdbool.h>
  25:..\..\..\lvgl\version_6.1.2\lvgl\src\lv_objx\../lv_core/../lv_font/lv_font.h **** 
  26:..\..\..\lvgl\version_6.1.2\lvgl\src\lv_objx\../lv_core/../lv_font/lv_font.h **** #include "lv_symbol_def.h"
  27:..\..\..\lvgl\version_6.1.2\lvgl\src\lv_objx\../lv_core/../lv_font/lv_font.h **** 
  28:..\..\..\lvgl\version_6.1.2\lvgl\src\lv_objx\../lv_core/../lv_font/lv_font.h **** /*********************
  29:..\..\..\lvgl\version_6.1.2\lvgl\src\lv_objx\../lv_core/../lv_font/lv_font.h ****  *      DEFINES
  30:..\..\..\lvgl\version_6.1.2\lvgl\src\lv_objx\../lv_core/../lv_font/lv_font.h ****  *********************/
ARM GAS  C:\Users\tmj32\AppData\Local\Temp\cc0vWRpX.s 			page 2


  31:..\..\..\lvgl\version_6.1.2\lvgl\src\lv_objx\../lv_core/../lv_font/lv_font.h **** /*Number of fractional digits in the advanced width (`adv_w`) field of `lv_font_glyph_dsc_t`*/
  32:..\..\..\lvgl\version_6.1.2\lvgl\src\lv_objx\../lv_core/../lv_font/lv_font.h **** #define LV_FONT_WIDTH_FRACT_DIGIT       4
  33:..\..\..\lvgl\version_6.1.2\lvgl\src\lv_objx\../lv_core/../lv_font/lv_font.h **** 
  34:..\..\..\lvgl\version_6.1.2\lvgl\src\lv_objx\../lv_core/../lv_font/lv_font.h **** #define LV_FONT_KERN_POSITIVE        0
  35:..\..\..\lvgl\version_6.1.2\lvgl\src\lv_objx\../lv_core/../lv_font/lv_font.h **** #define LV_FONT_KERN_NEGATIVE        1
  36:..\..\..\lvgl\version_6.1.2\lvgl\src\lv_objx\../lv_core/../lv_font/lv_font.h **** 
  37:..\..\..\lvgl\version_6.1.2\lvgl\src\lv_objx\../lv_core/../lv_font/lv_font.h **** /**********************
  38:..\..\..\lvgl\version_6.1.2\lvgl\src\lv_objx\../lv_core/../lv_font/lv_font.h ****  *      TYPEDEFS
  39:..\..\..\lvgl\version_6.1.2\lvgl\src\lv_objx\../lv_core/../lv_font/lv_font.h ****  **********************/
  40:..\..\..\lvgl\version_6.1.2\lvgl\src\lv_objx\../lv_core/../lv_font/lv_font.h **** 
  41:..\..\..\lvgl\version_6.1.2\lvgl\src\lv_objx\../lv_core/../lv_font/lv_font.h **** /*------------------
  42:..\..\..\lvgl\version_6.1.2\lvgl\src\lv_objx\../lv_core/../lv_font/lv_font.h ****  * General types
  43:..\..\..\lvgl\version_6.1.2\lvgl\src\lv_objx\../lv_core/../lv_font/lv_font.h ****  *-----------------*/
  44:..\..\..\lvgl\version_6.1.2\lvgl\src\lv_objx\../lv_core/../lv_font/lv_font.h **** 
  45:..\..\..\lvgl\version_6.1.2\lvgl\src\lv_objx\../lv_core/../lv_font/lv_font.h **** /** Describes the properties of a glyph. */
  46:..\..\..\lvgl\version_6.1.2\lvgl\src\lv_objx\../lv_core/../lv_font/lv_font.h **** typedef struct
  47:..\..\..\lvgl\version_6.1.2\lvgl\src\lv_objx\../lv_core/../lv_font/lv_font.h **** {
  48:..\..\..\lvgl\version_6.1.2\lvgl\src\lv_objx\../lv_core/../lv_font/lv_font.h ****     uint16_t adv_w; /**< The glyph needs this space. Draw the next glyph after this width. 8 bit in
  49:..\..\..\lvgl\version_6.1.2\lvgl\src\lv_objx\../lv_core/../lv_font/lv_font.h ****     uint8_t box_w;  /**< Width of the glyph's bounding box*/
  50:..\..\..\lvgl\version_6.1.2\lvgl\src\lv_objx\../lv_core/../lv_font/lv_font.h ****     uint8_t box_h;  /**< Height of the glyph's bounding box*/
  51:..\..\..\lvgl\version_6.1.2\lvgl\src\lv_objx\../lv_core/../lv_font/lv_font.h ****     int8_t ofs_x;   /**< x offset of the bounding box*/
  52:..\..\..\lvgl\version_6.1.2\lvgl\src\lv_objx\../lv_core/../lv_font/lv_font.h ****     int8_t ofs_y;  /**< y offset of the bounding box*/
  53:..\..\..\lvgl\version_6.1.2\lvgl\src\lv_objx\../lv_core/../lv_font/lv_font.h ****     uint8_t bpp;   /**< Bit-per-pixel: 1, 2, 4, 8*/
  54:..\..\..\lvgl\version_6.1.2\lvgl\src\lv_objx\../lv_core/../lv_font/lv_font.h **** }lv_font_glyph_dsc_t;
  55:..\..\..\lvgl\version_6.1.2\lvgl\src\lv_objx\../lv_core/../lv_font/lv_font.h **** 
  56:..\..\..\lvgl\version_6.1.2\lvgl\src\lv_objx\../lv_core/../lv_font/lv_font.h **** 
  57:..\..\..\lvgl\version_6.1.2\lvgl\src\lv_objx\../lv_core/../lv_font/lv_font.h **** /** The bitmaps might be upscaled by 3 to achieve subpixel rendering. */
  58:..\..\..\lvgl\version_6.1.2\lvgl\src\lv_objx\../lv_core/../lv_font/lv_font.h **** enum {
  59:..\..\..\lvgl\version_6.1.2\lvgl\src\lv_objx\../lv_core/../lv_font/lv_font.h ****     LV_FONT_SUBPX_NONE,
  60:..\..\..\lvgl\version_6.1.2\lvgl\src\lv_objx\../lv_core/../lv_font/lv_font.h ****     LV_FONT_SUBPX_HOR,
  61:..\..\..\lvgl\version_6.1.2\lvgl\src\lv_objx\../lv_core/../lv_font/lv_font.h ****     LV_FONT_SUBPX_VER,
  62:..\..\..\lvgl\version_6.1.2\lvgl\src\lv_objx\../lv_core/../lv_font/lv_font.h ****     LV_FONT_SUBPX_BOTH,
  63:..\..\..\lvgl\version_6.1.2\lvgl\src\lv_objx\../lv_core/../lv_font/lv_font.h **** };
  64:..\..\..\lvgl\version_6.1.2\lvgl\src\lv_objx\../lv_core/../lv_font/lv_font.h **** 
  65:..\..\..\lvgl\version_6.1.2\lvgl\src\lv_objx\../lv_core/../lv_font/lv_font.h **** typedef uint8_t lv_font_subpx_t;
  66:..\..\..\lvgl\version_6.1.2\lvgl\src\lv_objx\../lv_core/../lv_font/lv_font.h **** 
  67:..\..\..\lvgl\version_6.1.2\lvgl\src\lv_objx\../lv_core/../lv_font/lv_font.h **** /** Describe the properties of a font*/
  68:..\..\..\lvgl\version_6.1.2\lvgl\src\lv_objx\../lv_core/../lv_font/lv_font.h **** typedef struct _lv_font_struct
  69:..\..\..\lvgl\version_6.1.2\lvgl\src\lv_objx\../lv_core/../lv_font/lv_font.h **** {
  70:..\..\..\lvgl\version_6.1.2\lvgl\src\lv_objx\../lv_core/../lv_font/lv_font.h ****     /** Get a glyph's  descriptor from a font*/
  71:..\..\..\lvgl\version_6.1.2\lvgl\src\lv_objx\../lv_core/../lv_font/lv_font.h ****     bool (*get_glyph_dsc)(const struct _lv_font_struct *, lv_font_glyph_dsc_t *, uint32_t letter, u
  72:..\..\..\lvgl\version_6.1.2\lvgl\src\lv_objx\../lv_core/../lv_font/lv_font.h **** 
  73:..\..\..\lvgl\version_6.1.2\lvgl\src\lv_objx\../lv_core/../lv_font/lv_font.h ****     /** Get a glyph's bitmap from a font*/
  74:..\..\..\lvgl\version_6.1.2\lvgl\src\lv_objx\../lv_core/../lv_font/lv_font.h ****     const uint8_t * (*get_glyph_bitmap)(const struct _lv_font_struct *, uint32_t);
  75:..\..\..\lvgl\version_6.1.2\lvgl\src\lv_objx\../lv_core/../lv_font/lv_font.h **** 
  76:..\..\..\lvgl\version_6.1.2\lvgl\src\lv_objx\../lv_core/../lv_font/lv_font.h ****     /*Pointer to the font in a font pack (must have the same line height)*/
  77:..\..\..\lvgl\version_6.1.2\lvgl\src\lv_objx\../lv_core/../lv_font/lv_font.h ****     uint8_t line_height;      /**< The real line height where any text fits*/
  78:..\..\..\lvgl\version_6.1.2\lvgl\src\lv_objx\../lv_core/../lv_font/lv_font.h ****     int8_t base_line;        /**< Base line measured from the top of the line_height*/
  79:..\..\..\lvgl\version_6.1.2\lvgl\src\lv_objx\../lv_core/../lv_font/lv_font.h ****     uint8_t subpx  :2;        /**< An element of `lv_font_subpx_t`*/
  80:..\..\..\lvgl\version_6.1.2\lvgl\src\lv_objx\../lv_core/../lv_font/lv_font.h ****     void * dsc;               /**< Store implementation specific or run_time data or caching here*/
  81:..\..\..\lvgl\version_6.1.2\lvgl\src\lv_objx\../lv_core/../lv_font/lv_font.h **** #if LV_USE_USER_DATA
  82:..\..\..\lvgl\version_6.1.2\lvgl\src\lv_objx\../lv_core/../lv_font/lv_font.h ****     lv_font_user_data_t user_data; /**< Custom user data for font. */
  83:..\..\..\lvgl\version_6.1.2\lvgl\src\lv_objx\../lv_core/../lv_font/lv_font.h **** #endif
  84:..\..\..\lvgl\version_6.1.2\lvgl\src\lv_objx\../lv_core/../lv_font/lv_font.h **** 
  85:..\..\..\lvgl\version_6.1.2\lvgl\src\lv_objx\../lv_core/../lv_font/lv_font.h **** 
  86:..\..\..\lvgl\version_6.1.2\lvgl\src\lv_objx\../lv_core/../lv_font/lv_font.h **** } lv_font_t;
  87:..\..\..\lvgl\version_6.1.2\lvgl\src\lv_objx\../lv_core/../lv_font/lv_font.h **** 
ARM GAS  C:\Users\tmj32\AppData\Local\Temp\cc0vWRpX.s 			page 3


  88:..\..\..\lvgl\version_6.1.2\lvgl\src\lv_objx\../lv_core/../lv_font/lv_font.h **** /**********************
  89:..\..\..\lvgl\version_6.1.2\lvgl\src\lv_objx\../lv_core/../lv_font/lv_font.h ****  * GLOBAL PROTOTYPES
  90:..\..\..\lvgl\version_6.1.2\lvgl\src\lv_objx\../lv_core/../lv_font/lv_font.h ****  **********************/
  91:..\..\..\lvgl\version_6.1.2\lvgl\src\lv_objx\../lv_core/../lv_font/lv_font.h **** 
  92:..\..\..\lvgl\version_6.1.2\lvgl\src\lv_objx\../lv_core/../lv_font/lv_font.h **** /**
  93:..\..\..\lvgl\version_6.1.2\lvgl\src\lv_objx\../lv_core/../lv_font/lv_font.h ****  * Return with the bitmap of a font.
  94:..\..\..\lvgl\version_6.1.2\lvgl\src\lv_objx\../lv_core/../lv_font/lv_font.h ****  * @param font_p pointer to a font
  95:..\..\..\lvgl\version_6.1.2\lvgl\src\lv_objx\../lv_core/../lv_font/lv_font.h ****  * @param letter an UNICODE character code
  96:..\..\..\lvgl\version_6.1.2\lvgl\src\lv_objx\../lv_core/../lv_font/lv_font.h ****  * @return  pointer to the bitmap of the letter
  97:..\..\..\lvgl\version_6.1.2\lvgl\src\lv_objx\../lv_core/../lv_font/lv_font.h ****  */
  98:..\..\..\lvgl\version_6.1.2\lvgl\src\lv_objx\../lv_core/../lv_font/lv_font.h **** const uint8_t * lv_font_get_glyph_bitmap(const lv_font_t * font_p, uint32_t letter);
  99:..\..\..\lvgl\version_6.1.2\lvgl\src\lv_objx\../lv_core/../lv_font/lv_font.h **** 
 100:..\..\..\lvgl\version_6.1.2\lvgl\src\lv_objx\../lv_core/../lv_font/lv_font.h **** /**
 101:..\..\..\lvgl\version_6.1.2\lvgl\src\lv_objx\../lv_core/../lv_font/lv_font.h ****  * Get the descriptor of a glyph
 102:..\..\..\lvgl\version_6.1.2\lvgl\src\lv_objx\../lv_core/../lv_font/lv_font.h ****  * @param font_p pointer to font
 103:..\..\..\lvgl\version_6.1.2\lvgl\src\lv_objx\../lv_core/../lv_font/lv_font.h ****  * @param dsc_out store the result descriptor here
 104:..\..\..\lvgl\version_6.1.2\lvgl\src\lv_objx\../lv_core/../lv_font/lv_font.h ****  * @param letter an UNICODE letter code
 105:..\..\..\lvgl\version_6.1.2\lvgl\src\lv_objx\../lv_core/../lv_font/lv_font.h ****  * @return true: descriptor is successfully loaded into `dsc_out`.
 106:..\..\..\lvgl\version_6.1.2\lvgl\src\lv_objx\../lv_core/../lv_font/lv_font.h ****  *         false: the letter was not found, no data is loaded to `dsc_out`
 107:..\..\..\lvgl\version_6.1.2\lvgl\src\lv_objx\../lv_core/../lv_font/lv_font.h ****  */
 108:..\..\..\lvgl\version_6.1.2\lvgl\src\lv_objx\../lv_core/../lv_font/lv_font.h **** bool lv_font_get_glyph_dsc(const lv_font_t * font_p, lv_font_glyph_dsc_t * dsc_out, uint32_t letter
 109:..\..\..\lvgl\version_6.1.2\lvgl\src\lv_objx\../lv_core/../lv_font/lv_font.h **** 
 110:..\..\..\lvgl\version_6.1.2\lvgl\src\lv_objx\../lv_core/../lv_font/lv_font.h **** /**
 111:..\..\..\lvgl\version_6.1.2\lvgl\src\lv_objx\../lv_core/../lv_font/lv_font.h ****  * Get the width of a glyph with kerning
 112:..\..\..\lvgl\version_6.1.2\lvgl\src\lv_objx\../lv_core/../lv_font/lv_font.h ****  * @param font pointer to a font
 113:..\..\..\lvgl\version_6.1.2\lvgl\src\lv_objx\../lv_core/../lv_font/lv_font.h ****  * @param letter an UNICODE letter
 114:..\..\..\lvgl\version_6.1.2\lvgl\src\lv_objx\../lv_core/../lv_font/lv_font.h ****  * @param letter_next the next letter after `letter`. Used for kerning
 115:..\..\..\lvgl\version_6.1.2\lvgl\src\lv_objx\../lv_core/../lv_font/lv_font.h ****  * @return the width of the glyph
 116:..\..\..\lvgl\version_6.1.2\lvgl\src\lv_objx\../lv_core/../lv_font/lv_font.h ****  */
 117:..\..\..\lvgl\version_6.1.2\lvgl\src\lv_objx\../lv_core/../lv_font/lv_font.h **** uint16_t lv_font_get_glyph_width(const lv_font_t * font, uint32_t letter, uint32_t letter_next);
 118:..\..\..\lvgl\version_6.1.2\lvgl\src\lv_objx\../lv_core/../lv_font/lv_font.h **** 
 119:..\..\..\lvgl\version_6.1.2\lvgl\src\lv_objx\../lv_core/../lv_font/lv_font.h **** /**
 120:..\..\..\lvgl\version_6.1.2\lvgl\src\lv_objx\../lv_core/../lv_font/lv_font.h ****  * Get the line height of a font. All characters fit into this height
 121:..\..\..\lvgl\version_6.1.2\lvgl\src\lv_objx\../lv_core/../lv_font/lv_font.h ****  * @param font_p pointer to a font
 122:..\..\..\lvgl\version_6.1.2\lvgl\src\lv_objx\../lv_core/../lv_font/lv_font.h ****  * @return the height of a font
 123:..\..\..\lvgl\version_6.1.2\lvgl\src\lv_objx\../lv_core/../lv_font/lv_font.h ****  */
 124:..\..\..\lvgl\version_6.1.2\lvgl\src\lv_objx\../lv_core/../lv_font/lv_font.h **** static inline uint8_t lv_font_get_line_height(const lv_font_t * font_p)
 125:..\..\..\lvgl\version_6.1.2\lvgl\src\lv_objx\../lv_core/../lv_font/lv_font.h **** {
  28              		.loc 1 125 0
  29              		.cfi_startproc
  30              		@ args = 0, pretend = 0, frame = 8
  31              		@ frame_needed = 1, uses_anonymous_args = 0
  32              		@ link register save eliminated.
  33 0000 80B4     		push	{r7}
  34              		.cfi_def_cfa_offset 4
  35              		.cfi_offset 7, -4
  36 0002 83B0     		sub	sp, sp, #12
  37              		.cfi_def_cfa_offset 16
  38 0004 00AF     		add	r7, sp, #0
  39              		.cfi_def_cfa_register 7
  40 0006 7860     		str	r0, [r7, #4]
 126:..\..\..\lvgl\version_6.1.2\lvgl\src\lv_objx\../lv_core/../lv_font/lv_font.h ****     return font_p->line_height;
  41              		.loc 1 126 0
  42 0008 7B68     		ldr	r3, [r7, #4]
  43 000a 1B7A     		ldrb	r3, [r3, #8]	@ zero_extendqisi2
 127:..\..\..\lvgl\version_6.1.2\lvgl\src\lv_objx\../lv_core/../lv_font/lv_font.h **** }
  44              		.loc 1 127 0
ARM GAS  C:\Users\tmj32\AppData\Local\Temp\cc0vWRpX.s 			page 4


  45 000c 1846     		mov	r0, r3
  46 000e 0C37     		adds	r7, r7, #12
  47              		.cfi_def_cfa_offset 4
  48 0010 BD46     		mov	sp, r7
  49              		.cfi_def_cfa_register 13
  50              		@ sp needed
  51 0012 5DF8047B 		ldr	r7, [sp], #4
  52              		.cfi_restore 7
  53              		.cfi_def_cfa_offset 0
  54 0016 7047     		bx	lr
  55              		.cfi_endproc
  56              	.LFE0:
  57              		.size	lv_font_get_line_height, .-lv_font_get_line_height
  58              		.section	.text.lv_area_copy,"ax",%progbits
  59              		.align	2
  60              		.thumb
  61              		.thumb_func
  62              		.type	lv_area_copy, %function
  63              	lv_area_copy:
  64              	.LFB10:
  65              		.file 2 "..\\..\\..\\lvgl\\version_6.1.2\\lvgl\\src\\lv_objx\\../lv_core/../lv_misc/lv_area.h"
   1:..\..\..\lvgl\version_6.1.2\lvgl\src\lv_objx\../lv_core/../lv_misc/lv_area.h **** /**
   2:..\..\..\lvgl\version_6.1.2\lvgl\src\lv_objx\../lv_core/../lv_misc/lv_area.h ****  * @file lv_area.h
   3:..\..\..\lvgl\version_6.1.2\lvgl\src\lv_objx\../lv_core/../lv_misc/lv_area.h ****  *
   4:..\..\..\lvgl\version_6.1.2\lvgl\src\lv_objx\../lv_core/../lv_misc/lv_area.h ****  */
   5:..\..\..\lvgl\version_6.1.2\lvgl\src\lv_objx\../lv_core/../lv_misc/lv_area.h **** 
   6:..\..\..\lvgl\version_6.1.2\lvgl\src\lv_objx\../lv_core/../lv_misc/lv_area.h **** #ifndef LV_AREA_H
   7:..\..\..\lvgl\version_6.1.2\lvgl\src\lv_objx\../lv_core/../lv_misc/lv_area.h **** #define LV_AREA_H
   8:..\..\..\lvgl\version_6.1.2\lvgl\src\lv_objx\../lv_core/../lv_misc/lv_area.h **** 
   9:..\..\..\lvgl\version_6.1.2\lvgl\src\lv_objx\../lv_core/../lv_misc/lv_area.h **** #ifdef __cplusplus
  10:..\..\..\lvgl\version_6.1.2\lvgl\src\lv_objx\../lv_core/../lv_misc/lv_area.h **** extern "C" {
  11:..\..\..\lvgl\version_6.1.2\lvgl\src\lv_objx\../lv_core/../lv_misc/lv_area.h **** #endif
  12:..\..\..\lvgl\version_6.1.2\lvgl\src\lv_objx\../lv_core/../lv_misc/lv_area.h **** 
  13:..\..\..\lvgl\version_6.1.2\lvgl\src\lv_objx\../lv_core/../lv_misc/lv_area.h **** /*********************
  14:..\..\..\lvgl\version_6.1.2\lvgl\src\lv_objx\../lv_core/../lv_misc/lv_area.h ****  *      INCLUDES
  15:..\..\..\lvgl\version_6.1.2\lvgl\src\lv_objx\../lv_core/../lv_misc/lv_area.h ****  *********************/
  16:..\..\..\lvgl\version_6.1.2\lvgl\src\lv_objx\../lv_core/../lv_misc/lv_area.h **** #include <string.h>
  17:..\..\..\lvgl\version_6.1.2\lvgl\src\lv_objx\../lv_core/../lv_misc/lv_area.h **** #include <stdbool.h>
  18:..\..\..\lvgl\version_6.1.2\lvgl\src\lv_objx\../lv_core/../lv_misc/lv_area.h **** #include <stdint.h>
  19:..\..\..\lvgl\version_6.1.2\lvgl\src\lv_objx\../lv_core/../lv_misc/lv_area.h **** #ifdef LV_CONF_INCLUDE_SIMPLE
  20:..\..\..\lvgl\version_6.1.2\lvgl\src\lv_objx\../lv_core/../lv_misc/lv_area.h **** #include "lv_conf.h"
  21:..\..\..\lvgl\version_6.1.2\lvgl\src\lv_objx\../lv_core/../lv_misc/lv_area.h **** #else
  22:..\..\..\lvgl\version_6.1.2\lvgl\src\lv_objx\../lv_core/../lv_misc/lv_area.h **** #include "../../../lv_conf.h"
  23:..\..\..\lvgl\version_6.1.2\lvgl\src\lv_objx\../lv_core/../lv_misc/lv_area.h **** #endif
  24:..\..\..\lvgl\version_6.1.2\lvgl\src\lv_objx\../lv_core/../lv_misc/lv_area.h **** 
  25:..\..\..\lvgl\version_6.1.2\lvgl\src\lv_objx\../lv_core/../lv_misc/lv_area.h **** /*********************
  26:..\..\..\lvgl\version_6.1.2\lvgl\src\lv_objx\../lv_core/../lv_misc/lv_area.h ****  *      DEFINES
  27:..\..\..\lvgl\version_6.1.2\lvgl\src\lv_objx\../lv_core/../lv_misc/lv_area.h ****  *********************/
  28:..\..\..\lvgl\version_6.1.2\lvgl\src\lv_objx\../lv_core/../lv_misc/lv_area.h **** /*To avoid overflow don't let the max ranges (reduce with 1000) */
  29:..\..\..\lvgl\version_6.1.2\lvgl\src\lv_objx\../lv_core/../lv_misc/lv_area.h **** #define LV_COORD_MAX ((lv_coord_t)((uint32_t)((uint32_t)1 << (8 * sizeof(lv_coord_t) - 1)) - 1000))
  30:..\..\..\lvgl\version_6.1.2\lvgl\src\lv_objx\../lv_core/../lv_misc/lv_area.h **** #define LV_COORD_MIN (-LV_COORD_MAX)
  31:..\..\..\lvgl\version_6.1.2\lvgl\src\lv_objx\../lv_core/../lv_misc/lv_area.h **** 
  32:..\..\..\lvgl\version_6.1.2\lvgl\src\lv_objx\../lv_core/../lv_misc/lv_area.h **** LV_EXPORT_CONST_INT(LV_COORD_MAX);
  33:..\..\..\lvgl\version_6.1.2\lvgl\src\lv_objx\../lv_core/../lv_misc/lv_area.h **** LV_EXPORT_CONST_INT(LV_COORD_MIN);
  34:..\..\..\lvgl\version_6.1.2\lvgl\src\lv_objx\../lv_core/../lv_misc/lv_area.h **** 
  35:..\..\..\lvgl\version_6.1.2\lvgl\src\lv_objx\../lv_core/../lv_misc/lv_area.h **** /**********************
  36:..\..\..\lvgl\version_6.1.2\lvgl\src\lv_objx\../lv_core/../lv_misc/lv_area.h ****  *      TYPEDEFS
ARM GAS  C:\Users\tmj32\AppData\Local\Temp\cc0vWRpX.s 			page 5


  37:..\..\..\lvgl\version_6.1.2\lvgl\src\lv_objx\../lv_core/../lv_misc/lv_area.h ****  **********************/
  38:..\..\..\lvgl\version_6.1.2\lvgl\src\lv_objx\../lv_core/../lv_misc/lv_area.h **** 
  39:..\..\..\lvgl\version_6.1.2\lvgl\src\lv_objx\../lv_core/../lv_misc/lv_area.h **** /**
  40:..\..\..\lvgl\version_6.1.2\lvgl\src\lv_objx\../lv_core/../lv_misc/lv_area.h ****  * Represents a point on the screen.
  41:..\..\..\lvgl\version_6.1.2\lvgl\src\lv_objx\../lv_core/../lv_misc/lv_area.h ****  */
  42:..\..\..\lvgl\version_6.1.2\lvgl\src\lv_objx\../lv_core/../lv_misc/lv_area.h **** typedef struct
  43:..\..\..\lvgl\version_6.1.2\lvgl\src\lv_objx\../lv_core/../lv_misc/lv_area.h **** {
  44:..\..\..\lvgl\version_6.1.2\lvgl\src\lv_objx\../lv_core/../lv_misc/lv_area.h ****     lv_coord_t x;
  45:..\..\..\lvgl\version_6.1.2\lvgl\src\lv_objx\../lv_core/../lv_misc/lv_area.h ****     lv_coord_t y;
  46:..\..\..\lvgl\version_6.1.2\lvgl\src\lv_objx\../lv_core/../lv_misc/lv_area.h **** } lv_point_t;
  47:..\..\..\lvgl\version_6.1.2\lvgl\src\lv_objx\../lv_core/../lv_misc/lv_area.h **** 
  48:..\..\..\lvgl\version_6.1.2\lvgl\src\lv_objx\../lv_core/../lv_misc/lv_area.h **** /** Represents an area of the screen. */
  49:..\..\..\lvgl\version_6.1.2\lvgl\src\lv_objx\../lv_core/../lv_misc/lv_area.h **** typedef struct
  50:..\..\..\lvgl\version_6.1.2\lvgl\src\lv_objx\../lv_core/../lv_misc/lv_area.h **** {
  51:..\..\..\lvgl\version_6.1.2\lvgl\src\lv_objx\../lv_core/../lv_misc/lv_area.h ****     lv_coord_t x1;
  52:..\..\..\lvgl\version_6.1.2\lvgl\src\lv_objx\../lv_core/../lv_misc/lv_area.h ****     lv_coord_t y1;
  53:..\..\..\lvgl\version_6.1.2\lvgl\src\lv_objx\../lv_core/../lv_misc/lv_area.h ****     lv_coord_t x2;
  54:..\..\..\lvgl\version_6.1.2\lvgl\src\lv_objx\../lv_core/../lv_misc/lv_area.h ****     lv_coord_t y2;
  55:..\..\..\lvgl\version_6.1.2\lvgl\src\lv_objx\../lv_core/../lv_misc/lv_area.h **** } lv_area_t;
  56:..\..\..\lvgl\version_6.1.2\lvgl\src\lv_objx\../lv_core/../lv_misc/lv_area.h **** 
  57:..\..\..\lvgl\version_6.1.2\lvgl\src\lv_objx\../lv_core/../lv_misc/lv_area.h **** /**********************
  58:..\..\..\lvgl\version_6.1.2\lvgl\src\lv_objx\../lv_core/../lv_misc/lv_area.h ****  * GLOBAL PROTOTYPES
  59:..\..\..\lvgl\version_6.1.2\lvgl\src\lv_objx\../lv_core/../lv_misc/lv_area.h ****  **********************/
  60:..\..\..\lvgl\version_6.1.2\lvgl\src\lv_objx\../lv_core/../lv_misc/lv_area.h **** 
  61:..\..\..\lvgl\version_6.1.2\lvgl\src\lv_objx\../lv_core/../lv_misc/lv_area.h **** /**
  62:..\..\..\lvgl\version_6.1.2\lvgl\src\lv_objx\../lv_core/../lv_misc/lv_area.h ****  * Initialize an area
  63:..\..\..\lvgl\version_6.1.2\lvgl\src\lv_objx\../lv_core/../lv_misc/lv_area.h ****  * @param area_p pointer to an area
  64:..\..\..\lvgl\version_6.1.2\lvgl\src\lv_objx\../lv_core/../lv_misc/lv_area.h ****  * @param x1 left coordinate of the area
  65:..\..\..\lvgl\version_6.1.2\lvgl\src\lv_objx\../lv_core/../lv_misc/lv_area.h ****  * @param y1 top coordinate of the area
  66:..\..\..\lvgl\version_6.1.2\lvgl\src\lv_objx\../lv_core/../lv_misc/lv_area.h ****  * @param x2 right coordinate of the area
  67:..\..\..\lvgl\version_6.1.2\lvgl\src\lv_objx\../lv_core/../lv_misc/lv_area.h ****  * @param y2 bottom coordinate of the area
  68:..\..\..\lvgl\version_6.1.2\lvgl\src\lv_objx\../lv_core/../lv_misc/lv_area.h ****  */
  69:..\..\..\lvgl\version_6.1.2\lvgl\src\lv_objx\../lv_core/../lv_misc/lv_area.h **** void lv_area_set(lv_area_t * area_p, lv_coord_t x1, lv_coord_t y1, lv_coord_t x2, lv_coord_t y2);
  70:..\..\..\lvgl\version_6.1.2\lvgl\src\lv_objx\../lv_core/../lv_misc/lv_area.h **** 
  71:..\..\..\lvgl\version_6.1.2\lvgl\src\lv_objx\../lv_core/../lv_misc/lv_area.h **** /**
  72:..\..\..\lvgl\version_6.1.2\lvgl\src\lv_objx\../lv_core/../lv_misc/lv_area.h ****  * Copy an area
  73:..\..\..\lvgl\version_6.1.2\lvgl\src\lv_objx\../lv_core/../lv_misc/lv_area.h ****  * @param dest pointer to the destination area
  74:..\..\..\lvgl\version_6.1.2\lvgl\src\lv_objx\../lv_core/../lv_misc/lv_area.h ****  * @param src pointer to the source area
  75:..\..\..\lvgl\version_6.1.2\lvgl\src\lv_objx\../lv_core/../lv_misc/lv_area.h ****  */
  76:..\..\..\lvgl\version_6.1.2\lvgl\src\lv_objx\../lv_core/../lv_misc/lv_area.h **** inline static void lv_area_copy(lv_area_t * dest, const lv_area_t * src)
  77:..\..\..\lvgl\version_6.1.2\lvgl\src\lv_objx\../lv_core/../lv_misc/lv_area.h **** {
  66              		.loc 2 77 0
  67              		.cfi_startproc
  68              		@ args = 0, pretend = 0, frame = 8
  69              		@ frame_needed = 1, uses_anonymous_args = 0
  70 0000 80B5     		push	{r7, lr}
  71              		.cfi_def_cfa_offset 8
  72              		.cfi_offset 7, -8
  73              		.cfi_offset 14, -4
  74 0002 82B0     		sub	sp, sp, #8
  75              		.cfi_def_cfa_offset 16
  76 0004 00AF     		add	r7, sp, #0
  77              		.cfi_def_cfa_register 7
  78 0006 7860     		str	r0, [r7, #4]
  79 0008 3960     		str	r1, [r7]
  78:..\..\..\lvgl\version_6.1.2\lvgl\src\lv_objx\../lv_core/../lv_misc/lv_area.h ****     memcpy(dest, src, sizeof(lv_area_t));
  80              		.loc 2 78 0
ARM GAS  C:\Users\tmj32\AppData\Local\Temp\cc0vWRpX.s 			page 6


  81 000a 0822     		movs	r2, #8
  82 000c 3968     		ldr	r1, [r7]
  83 000e 7868     		ldr	r0, [r7, #4]
  84 0010 FFF7FEFF 		bl	memcpy
  79:..\..\..\lvgl\version_6.1.2\lvgl\src\lv_objx\../lv_core/../lv_misc/lv_area.h **** }
  85              		.loc 2 79 0
  86 0014 00BF     		nop
  87 0016 0837     		adds	r7, r7, #8
  88              		.cfi_def_cfa_offset 8
  89 0018 BD46     		mov	sp, r7
  90              		.cfi_def_cfa_register 13
  91              		@ sp needed
  92 001a 80BD     		pop	{r7, pc}
  93              		.cfi_endproc
  94              	.LFE10:
  95              		.size	lv_area_copy, .-lv_area_copy
  96              		.section	.text.lv_area_get_width,"ax",%progbits
  97              		.align	2
  98              		.thumb
  99              		.thumb_func
 100              		.type	lv_area_get_width, %function
 101              	lv_area_get_width:
 102              	.LFB11:
  80:..\..\..\lvgl\version_6.1.2\lvgl\src\lv_objx\../lv_core/../lv_misc/lv_area.h **** 
  81:..\..\..\lvgl\version_6.1.2\lvgl\src\lv_objx\../lv_core/../lv_misc/lv_area.h **** /**
  82:..\..\..\lvgl\version_6.1.2\lvgl\src\lv_objx\../lv_core/../lv_misc/lv_area.h ****  * Get the width of an area
  83:..\..\..\lvgl\version_6.1.2\lvgl\src\lv_objx\../lv_core/../lv_misc/lv_area.h ****  * @param area_p pointer to an area
  84:..\..\..\lvgl\version_6.1.2\lvgl\src\lv_objx\../lv_core/../lv_misc/lv_area.h ****  * @return the width of the area (if x1 == x2 -> width = 1)
  85:..\..\..\lvgl\version_6.1.2\lvgl\src\lv_objx\../lv_core/../lv_misc/lv_area.h ****  */
  86:..\..\..\lvgl\version_6.1.2\lvgl\src\lv_objx\../lv_core/../lv_misc/lv_area.h **** static inline lv_coord_t lv_area_get_width(const lv_area_t * area_p)
  87:..\..\..\lvgl\version_6.1.2\lvgl\src\lv_objx\../lv_core/../lv_misc/lv_area.h **** {
 103              		.loc 2 87 0
 104              		.cfi_startproc
 105              		@ args = 0, pretend = 0, frame = 8
 106              		@ frame_needed = 1, uses_anonymous_args = 0
 107              		@ link register save eliminated.
 108 0000 80B4     		push	{r7}
 109              		.cfi_def_cfa_offset 4
 110              		.cfi_offset 7, -4
 111 0002 83B0     		sub	sp, sp, #12
 112              		.cfi_def_cfa_offset 16
 113 0004 00AF     		add	r7, sp, #0
 114              		.cfi_def_cfa_register 7
 115 0006 7860     		str	r0, [r7, #4]
  88:..\..\..\lvgl\version_6.1.2\lvgl\src\lv_objx\../lv_core/../lv_misc/lv_area.h ****     return (lv_coord_t)(area_p->x2 - area_p->x1 + 1);
 116              		.loc 2 88 0
 117 0008 7B68     		ldr	r3, [r7, #4]
 118 000a B3F90430 		ldrsh	r3, [r3, #4]
 119 000e 9AB2     		uxth	r2, r3
 120 0010 7B68     		ldr	r3, [r7, #4]
 121 0012 B3F90030 		ldrsh	r3, [r3]
 122 0016 9BB2     		uxth	r3, r3
 123 0018 D31A     		subs	r3, r2, r3
 124 001a 9BB2     		uxth	r3, r3
 125 001c 0133     		adds	r3, r3, #1
 126 001e 9BB2     		uxth	r3, r3
 127 0020 1BB2     		sxth	r3, r3
ARM GAS  C:\Users\tmj32\AppData\Local\Temp\cc0vWRpX.s 			page 7


  89:..\..\..\lvgl\version_6.1.2\lvgl\src\lv_objx\../lv_core/../lv_misc/lv_area.h **** }
 128              		.loc 2 89 0
 129 0022 1846     		mov	r0, r3
 130 0024 0C37     		adds	r7, r7, #12
 131              		.cfi_def_cfa_offset 4
 132 0026 BD46     		mov	sp, r7
 133              		.cfi_def_cfa_register 13
 134              		@ sp needed
 135 0028 5DF8047B 		ldr	r7, [sp], #4
 136              		.cfi_restore 7
 137              		.cfi_def_cfa_offset 0
 138 002c 7047     		bx	lr
 139              		.cfi_endproc
 140              	.LFE11:
 141              		.size	lv_area_get_width, .-lv_area_get_width
 142 002e 00BF     		.bss
 143              		.align	2
 144              	ancestor_signal:
 145 0000 00000000 		.space	4
 146              		.align	2
 147              	ancestor_design:
 148 0004 00000000 		.space	4
 149              		.section	.rodata
 150              		.align	2
 151              	.LC0:
 152 0000 537500   		.ascii	"Su\000"
 153 0003 00       		.align	2
 154              	.LC1:
 155 0004 4D6F00   		.ascii	"Mo\000"
 156 0007 00       		.align	2
 157              	.LC2:
 158 0008 547500   		.ascii	"Tu\000"
 159 000b 00       		.align	2
 160              	.LC3:
 161 000c 576500   		.ascii	"We\000"
 162 000f 00       		.align	2
 163              	.LC4:
 164 0010 546800   		.ascii	"Th\000"
 165 0013 00       		.align	2
 166              	.LC5:
 167 0014 467200   		.ascii	"Fr\000"
 168 0017 00       		.align	2
 169              	.LC6:
 170 0018 536100   		.ascii	"Sa\000"
 171              		.data
 172              		.align	2
 173              		.type	day_name, %object
 174              		.size	day_name, 28
 175              	day_name:
 176 0000 00000000 		.word	.LC0
 177 0004 04000000 		.word	.LC1
 178 0008 08000000 		.word	.LC2
 179 000c 0C000000 		.word	.LC3
 180 0010 10000000 		.word	.LC4
 181 0014 14000000 		.word	.LC5
 182 0018 18000000 		.word	.LC6
 183              		.section	.rodata
ARM GAS  C:\Users\tmj32\AppData\Local\Temp\cc0vWRpX.s 			page 8


 184 001b 00       		.align	2
 185              	.LC7:
 186 001c 4A616E75 		.ascii	"January\000"
 186      61727900 
 187              		.align	2
 188              	.LC8:
 189 0024 46656272 		.ascii	"February\000"
 189      75617279 
 189      00
 190 002d 000000   		.align	2
 191              	.LC9:
 192 0030 4D617263 		.ascii	"March\000"
 192      6800
 193 0036 0000     		.align	2
 194              	.LC10:
 195 0038 41707269 		.ascii	"April\000"
 195      6C00
 196 003e 0000     		.align	2
 197              	.LC11:
 198 0040 4D617900 		.ascii	"May\000"
 199              		.align	2
 200              	.LC12:
 201 0044 4A756E65 		.ascii	"June\000"
 201      00
 202 0049 000000   		.align	2
 203              	.LC13:
 204 004c 4A756C79 		.ascii	"July\000"
 204      00
 205 0051 000000   		.align	2
 206              	.LC14:
 207 0054 41756775 		.ascii	"August\000"
 207      737400
 208 005b 00       		.align	2
 209              	.LC15:
 210 005c 53657074 		.ascii	"September\000"
 210      656D6265 
 210      7200
 211 0066 0000     		.align	2
 212              	.LC16:
 213 0068 4F63746F 		.ascii	"October\000"
 213      62657200 
 214              		.align	2
 215              	.LC17:
 216 0070 4E6F7665 		.ascii	"November\000"
 216      6D626572 
 216      00
 217 0079 000000   		.align	2
 218              	.LC18:
 219 007c 44656365 		.ascii	"December\000"
 219      6D626572 
 219      00
 220              		.data
 221              		.align	2
 222              		.type	month_name, %object
 223              		.size	month_name, 48
 224              	month_name:
 225 001c 1C000000 		.word	.LC7
ARM GAS  C:\Users\tmj32\AppData\Local\Temp\cc0vWRpX.s 			page 9


 226 0020 24000000 		.word	.LC8
 227 0024 30000000 		.word	.LC9
 228 0028 38000000 		.word	.LC10
 229 002c 40000000 		.word	.LC11
 230 0030 44000000 		.word	.LC12
 231 0034 4C000000 		.word	.LC13
 232 0038 54000000 		.word	.LC14
 233 003c 5C000000 		.word	.LC15
 234 0040 68000000 		.word	.LC16
 235 0044 70000000 		.word	.LC17
 236 0048 7C000000 		.word	.LC18
 237              		.section	.text.lv_calendar_create,"ax",%progbits
 238              		.align	2
 239              		.global	lv_calendar_create
 240              		.thumb
 241              		.thumb_func
 242              		.type	lv_calendar_create, %function
 243              	lv_calendar_create:
 244              	.LFB31:
 245              		.file 3 "..\\..\\..\\lvgl\\version_6.1.2\\lvgl\\src\\lv_objx\\lv_calendar.c"
   1:..\..\..\lvgl\version_6.1.2\lvgl\src\lv_objx/lv_calendar.c **** /**
   2:..\..\..\lvgl\version_6.1.2\lvgl\src\lv_objx/lv_calendar.c ****  * @file lv_calendar.c
   3:..\..\..\lvgl\version_6.1.2\lvgl\src\lv_objx/lv_calendar.c ****  *
   4:..\..\..\lvgl\version_6.1.2\lvgl\src\lv_objx/lv_calendar.c ****  */
   5:..\..\..\lvgl\version_6.1.2\lvgl\src\lv_objx/lv_calendar.c **** 
   6:..\..\..\lvgl\version_6.1.2\lvgl\src\lv_objx/lv_calendar.c **** /*********************
   7:..\..\..\lvgl\version_6.1.2\lvgl\src\lv_objx/lv_calendar.c ****  *      INCLUDES
   8:..\..\..\lvgl\version_6.1.2\lvgl\src\lv_objx/lv_calendar.c ****  *********************/
   9:..\..\..\lvgl\version_6.1.2\lvgl\src\lv_objx/lv_calendar.c **** #include "lv_calendar.h"
  10:..\..\..\lvgl\version_6.1.2\lvgl\src\lv_objx/lv_calendar.c **** #if LV_USE_CALENDAR != 0
  11:..\..\..\lvgl\version_6.1.2\lvgl\src\lv_objx/lv_calendar.c **** 
  12:..\..\..\lvgl\version_6.1.2\lvgl\src\lv_objx/lv_calendar.c **** #include "../lv_core/lv_debug.h"
  13:..\..\..\lvgl\version_6.1.2\lvgl\src\lv_objx/lv_calendar.c **** #include "../lv_draw/lv_draw.h"
  14:..\..\..\lvgl\version_6.1.2\lvgl\src\lv_objx/lv_calendar.c **** #include "../lv_hal/lv_hal_indev.h"
  15:..\..\..\lvgl\version_6.1.2\lvgl\src\lv_objx/lv_calendar.c **** #include "../lv_misc/lv_utils.h"
  16:..\..\..\lvgl\version_6.1.2\lvgl\src\lv_objx/lv_calendar.c **** #include "../lv_core/lv_indev.h"
  17:..\..\..\lvgl\version_6.1.2\lvgl\src\lv_objx/lv_calendar.c **** #include "../lv_themes/lv_theme.h"
  18:..\..\..\lvgl\version_6.1.2\lvgl\src\lv_objx/lv_calendar.c **** #include <string.h>
  19:..\..\..\lvgl\version_6.1.2\lvgl\src\lv_objx/lv_calendar.c **** 
  20:..\..\..\lvgl\version_6.1.2\lvgl\src\lv_objx/lv_calendar.c **** /*********************
  21:..\..\..\lvgl\version_6.1.2\lvgl\src\lv_objx/lv_calendar.c ****  *      DEFINES
  22:..\..\..\lvgl\version_6.1.2\lvgl\src\lv_objx/lv_calendar.c ****  *********************/
  23:..\..\..\lvgl\version_6.1.2\lvgl\src\lv_objx/lv_calendar.c **** #define LV_OBJX_NAME "lv_calendar"
  24:..\..\..\lvgl\version_6.1.2\lvgl\src\lv_objx/lv_calendar.c **** 
  25:..\..\..\lvgl\version_6.1.2\lvgl\src\lv_objx/lv_calendar.c **** /**********************
  26:..\..\..\lvgl\version_6.1.2\lvgl\src\lv_objx/lv_calendar.c ****  *      TYPEDEFS
  27:..\..\..\lvgl\version_6.1.2\lvgl\src\lv_objx/lv_calendar.c ****  **********************/
  28:..\..\..\lvgl\version_6.1.2\lvgl\src\lv_objx/lv_calendar.c **** enum {
  29:..\..\..\lvgl\version_6.1.2\lvgl\src\lv_objx/lv_calendar.c ****     DAY_DRAW_PREV_MONTH,
  30:..\..\..\lvgl\version_6.1.2\lvgl\src\lv_objx/lv_calendar.c ****     DAY_DRAW_ACT_MONTH,
  31:..\..\..\lvgl\version_6.1.2\lvgl\src\lv_objx/lv_calendar.c ****     DAY_DRAW_NEXT_MONTH,
  32:..\..\..\lvgl\version_6.1.2\lvgl\src\lv_objx/lv_calendar.c **** };
  33:..\..\..\lvgl\version_6.1.2\lvgl\src\lv_objx/lv_calendar.c **** typedef uint8_t day_draw_state_t;
  34:..\..\..\lvgl\version_6.1.2\lvgl\src\lv_objx/lv_calendar.c **** 
  35:..\..\..\lvgl\version_6.1.2\lvgl\src\lv_objx/lv_calendar.c **** /**********************
  36:..\..\..\lvgl\version_6.1.2\lvgl\src\lv_objx/lv_calendar.c ****  *  STATIC PROTOTYPES
  37:..\..\..\lvgl\version_6.1.2\lvgl\src\lv_objx/lv_calendar.c ****  **********************/
ARM GAS  C:\Users\tmj32\AppData\Local\Temp\cc0vWRpX.s 			page 10


  38:..\..\..\lvgl\version_6.1.2\lvgl\src\lv_objx/lv_calendar.c **** static bool lv_calendar_design(lv_obj_t * calendar, const lv_area_t * mask, lv_design_mode_t mode);
  39:..\..\..\lvgl\version_6.1.2\lvgl\src\lv_objx/lv_calendar.c **** static lv_res_t lv_calendar_signal(lv_obj_t * calendar, lv_signal_t sign, void * param);
  40:..\..\..\lvgl\version_6.1.2\lvgl\src\lv_objx/lv_calendar.c **** static bool calculate_touched_day(lv_obj_t * calendar, const lv_point_t * touched_point);
  41:..\..\..\lvgl\version_6.1.2\lvgl\src\lv_objx/lv_calendar.c **** static lv_coord_t get_header_height(lv_obj_t * calendar);
  42:..\..\..\lvgl\version_6.1.2\lvgl\src\lv_objx/lv_calendar.c **** static lv_coord_t get_day_names_height(lv_obj_t * calendar);
  43:..\..\..\lvgl\version_6.1.2\lvgl\src\lv_objx/lv_calendar.c **** static void draw_header(lv_obj_t * calendar, const lv_area_t * mask);
  44:..\..\..\lvgl\version_6.1.2\lvgl\src\lv_objx/lv_calendar.c **** static void draw_day_names(lv_obj_t * calendar, const lv_area_t * mask);
  45:..\..\..\lvgl\version_6.1.2\lvgl\src\lv_objx/lv_calendar.c **** static void draw_days(lv_obj_t * calendar, const lv_area_t * mask);
  46:..\..\..\lvgl\version_6.1.2\lvgl\src\lv_objx/lv_calendar.c **** static uint8_t get_day_of_week(uint32_t year, uint32_t month, uint32_t day);
  47:..\..\..\lvgl\version_6.1.2\lvgl\src\lv_objx/lv_calendar.c **** static bool is_highlighted(lv_obj_t * calendar, int32_t year, int32_t month, int32_t day);
  48:..\..\..\lvgl\version_6.1.2\lvgl\src\lv_objx/lv_calendar.c **** static const char * get_day_name(lv_obj_t * calendar, uint8_t day);
  49:..\..\..\lvgl\version_6.1.2\lvgl\src\lv_objx/lv_calendar.c **** static const char * get_month_name(lv_obj_t * calendar, int32_t month);
  50:..\..\..\lvgl\version_6.1.2\lvgl\src\lv_objx/lv_calendar.c **** static uint8_t get_month_length(int32_t year, int32_t month);
  51:..\..\..\lvgl\version_6.1.2\lvgl\src\lv_objx/lv_calendar.c **** static uint8_t is_leap_year(uint32_t year);
  52:..\..\..\lvgl\version_6.1.2\lvgl\src\lv_objx/lv_calendar.c **** 
  53:..\..\..\lvgl\version_6.1.2\lvgl\src\lv_objx/lv_calendar.c **** /**********************
  54:..\..\..\lvgl\version_6.1.2\lvgl\src\lv_objx/lv_calendar.c ****  *  STATIC VARIABLES
  55:..\..\..\lvgl\version_6.1.2\lvgl\src\lv_objx/lv_calendar.c ****  **********************/
  56:..\..\..\lvgl\version_6.1.2\lvgl\src\lv_objx/lv_calendar.c **** static lv_signal_cb_t ancestor_signal;
  57:..\..\..\lvgl\version_6.1.2\lvgl\src\lv_objx/lv_calendar.c **** static lv_design_cb_t ancestor_design;
  58:..\..\..\lvgl\version_6.1.2\lvgl\src\lv_objx/lv_calendar.c **** static const char * day_name[7]    = {"Su", "Mo", "Tu", "We", "Th", "Fr", "Sa"};
  59:..\..\..\lvgl\version_6.1.2\lvgl\src\lv_objx/lv_calendar.c **** static const char * month_name[12] = {"January", "February", "March",     "April",   "May",      "J
  60:..\..\..\lvgl\version_6.1.2\lvgl\src\lv_objx/lv_calendar.c ****                                       "July",    "August",   "September", "October", "November", "D
  61:..\..\..\lvgl\version_6.1.2\lvgl\src\lv_objx/lv_calendar.c **** 
  62:..\..\..\lvgl\version_6.1.2\lvgl\src\lv_objx/lv_calendar.c **** /**********************
  63:..\..\..\lvgl\version_6.1.2\lvgl\src\lv_objx/lv_calendar.c ****  *      MACROS
  64:..\..\..\lvgl\version_6.1.2\lvgl\src\lv_objx/lv_calendar.c ****  **********************/
  65:..\..\..\lvgl\version_6.1.2\lvgl\src\lv_objx/lv_calendar.c **** 
  66:..\..\..\lvgl\version_6.1.2\lvgl\src\lv_objx/lv_calendar.c **** /**********************
  67:..\..\..\lvgl\version_6.1.2\lvgl\src\lv_objx/lv_calendar.c ****  *   GLOBAL FUNCTIONS
  68:..\..\..\lvgl\version_6.1.2\lvgl\src\lv_objx/lv_calendar.c ****  **********************/
  69:..\..\..\lvgl\version_6.1.2\lvgl\src\lv_objx/lv_calendar.c **** 
  70:..\..\..\lvgl\version_6.1.2\lvgl\src\lv_objx/lv_calendar.c **** /**
  71:..\..\..\lvgl\version_6.1.2\lvgl\src\lv_objx/lv_calendar.c ****  * Create a calendar object
  72:..\..\..\lvgl\version_6.1.2\lvgl\src\lv_objx/lv_calendar.c ****  * @param par pointer to an object, it will be the parent of the new calendar
  73:..\..\..\lvgl\version_6.1.2\lvgl\src\lv_objx/lv_calendar.c ****  * @param copy pointer to a calendar object, if not NULL then the new object will be copied from it
  74:..\..\..\lvgl\version_6.1.2\lvgl\src\lv_objx/lv_calendar.c ****  * @return pointer to the created calendar
  75:..\..\..\lvgl\version_6.1.2\lvgl\src\lv_objx/lv_calendar.c ****  */
  76:..\..\..\lvgl\version_6.1.2\lvgl\src\lv_objx/lv_calendar.c **** lv_obj_t * lv_calendar_create(lv_obj_t * par, const lv_obj_t * copy)
  77:..\..\..\lvgl\version_6.1.2\lvgl\src\lv_objx/lv_calendar.c **** {
 246              		.loc 3 77 0
 247              		.cfi_startproc
 248              		@ args = 0, pretend = 0, frame = 24
 249              		@ frame_needed = 1, uses_anonymous_args = 0
 250 0000 80B5     		push	{r7, lr}
 251              		.cfi_def_cfa_offset 8
 252              		.cfi_offset 7, -8
 253              		.cfi_offset 14, -4
 254 0002 86B0     		sub	sp, sp, #24
 255              		.cfi_def_cfa_offset 32
 256 0004 00AF     		add	r7, sp, #0
 257              		.cfi_def_cfa_register 7
 258 0006 7860     		str	r0, [r7, #4]
 259 0008 3960     		str	r1, [r7]
  78:..\..\..\lvgl\version_6.1.2\lvgl\src\lv_objx/lv_calendar.c ****     LV_LOG_TRACE("calendar create started");
  79:..\..\..\lvgl\version_6.1.2\lvgl\src\lv_objx/lv_calendar.c **** 
  80:..\..\..\lvgl\version_6.1.2\lvgl\src\lv_objx/lv_calendar.c ****     /*Create the ancestor of calendar*/
ARM GAS  C:\Users\tmj32\AppData\Local\Temp\cc0vWRpX.s 			page 11


  81:..\..\..\lvgl\version_6.1.2\lvgl\src\lv_objx/lv_calendar.c ****     lv_obj_t * new_calendar = lv_obj_create(par, copy);
 260              		.loc 3 81 0
 261 000a 3968     		ldr	r1, [r7]
 262 000c 7868     		ldr	r0, [r7, #4]
 263 000e FFF7FEFF 		bl	lv_obj_create
 264 0012 7861     		str	r0, [r7, #20]
  82:..\..\..\lvgl\version_6.1.2\lvgl\src\lv_objx/lv_calendar.c ****     LV_ASSERT_MEM(new_calendar);
  83:..\..\..\lvgl\version_6.1.2\lvgl\src\lv_objx/lv_calendar.c ****     if(new_calendar == NULL) return NULL;
 265              		.loc 3 83 0
 266 0014 7B69     		ldr	r3, [r7, #20]
 267 0016 002B     		cmp	r3, #0
 268 0018 01D1     		bne	.L7
 269              		.loc 3 83 0 is_stmt 0 discriminator 1
 270 001a 0023     		movs	r3, #0
 271 001c 40E1     		b	.L8
 272              	.L7:
  84:..\..\..\lvgl\version_6.1.2\lvgl\src\lv_objx/lv_calendar.c **** 
  85:..\..\..\lvgl\version_6.1.2\lvgl\src\lv_objx/lv_calendar.c ****     /*Allocate the calendar type specific extended data*/
  86:..\..\..\lvgl\version_6.1.2\lvgl\src\lv_objx/lv_calendar.c ****     lv_calendar_ext_t * ext = lv_obj_allocate_ext_attr(new_calendar, sizeof(lv_calendar_ext_t));
 273              		.loc 3 86 0 is_stmt 1
 274 001e 3821     		movs	r1, #56
 275 0020 7869     		ldr	r0, [r7, #20]
 276 0022 FFF7FEFF 		bl	lv_obj_allocate_ext_attr
 277 0026 3861     		str	r0, [r7, #16]
  87:..\..\..\lvgl\version_6.1.2\lvgl\src\lv_objx/lv_calendar.c ****     LV_ASSERT_MEM(ext);
  88:..\..\..\lvgl\version_6.1.2\lvgl\src\lv_objx/lv_calendar.c ****     if(ext == NULL) return NULL;
 278              		.loc 3 88 0
 279 0028 3B69     		ldr	r3, [r7, #16]
 280 002a 002B     		cmp	r3, #0
 281 002c 01D1     		bne	.L9
 282              		.loc 3 88 0 is_stmt 0 discriminator 1
 283 002e 0023     		movs	r3, #0
 284 0030 36E1     		b	.L8
 285              	.L9:
  89:..\..\..\lvgl\version_6.1.2\lvgl\src\lv_objx/lv_calendar.c ****     if(ancestor_signal == NULL) ancestor_signal = lv_obj_get_signal_cb(new_calendar);
 286              		.loc 3 89 0 is_stmt 1
 287 0032 9D4B     		ldr	r3, .L16
 288 0034 1B68     		ldr	r3, [r3]
 289 0036 002B     		cmp	r3, #0
 290 0038 05D1     		bne	.L10
 291              		.loc 3 89 0 is_stmt 0 discriminator 1
 292 003a 7869     		ldr	r0, [r7, #20]
 293 003c FFF7FEFF 		bl	lv_obj_get_signal_cb
 294 0040 0246     		mov	r2, r0
 295 0042 994B     		ldr	r3, .L16
 296 0044 1A60     		str	r2, [r3]
 297              	.L10:
  90:..\..\..\lvgl\version_6.1.2\lvgl\src\lv_objx/lv_calendar.c ****     if(ancestor_design == NULL) ancestor_design = lv_obj_get_design_cb(new_calendar);
 298              		.loc 3 90 0 is_stmt 1
 299 0046 994B     		ldr	r3, .L16+4
 300 0048 1B68     		ldr	r3, [r3]
 301 004a 002B     		cmp	r3, #0
 302 004c 05D1     		bne	.L11
 303              		.loc 3 90 0 is_stmt 0 discriminator 1
 304 004e 7869     		ldr	r0, [r7, #20]
 305 0050 FFF7FEFF 		bl	lv_obj_get_design_cb
 306 0054 0246     		mov	r2, r0
ARM GAS  C:\Users\tmj32\AppData\Local\Temp\cc0vWRpX.s 			page 12


 307 0056 954B     		ldr	r3, .L16+4
 308 0058 1A60     		str	r2, [r3]
 309              	.L11:
  91:..\..\..\lvgl\version_6.1.2\lvgl\src\lv_objx/lv_calendar.c **** 
  92:..\..\..\lvgl\version_6.1.2\lvgl\src\lv_objx/lv_calendar.c ****     /*Initialize the allocated 'ext' */
  93:..\..\..\lvgl\version_6.1.2\lvgl\src\lv_objx/lv_calendar.c ****     ext->today.year  = 2018;
 310              		.loc 3 93 0 is_stmt 1
 311 005a 3B69     		ldr	r3, [r7, #16]
 312 005c 40F2E272 		movw	r2, #2018
 313 0060 1A80     		strh	r2, [r3]	@ movhi
  94:..\..\..\lvgl\version_6.1.2\lvgl\src\lv_objx/lv_calendar.c ****     ext->today.month = 1;
 314              		.loc 3 94 0
 315 0062 3B69     		ldr	r3, [r7, #16]
 316 0064 0122     		movs	r2, #1
 317 0066 9A70     		strb	r2, [r3, #2]
  95:..\..\..\lvgl\version_6.1.2\lvgl\src\lv_objx/lv_calendar.c ****     ext->today.day   = 1;
 318              		.loc 3 95 0
 319 0068 3B69     		ldr	r3, [r7, #16]
 320 006a 0122     		movs	r2, #1
 321 006c DA70     		strb	r2, [r3, #3]
  96:..\..\..\lvgl\version_6.1.2\lvgl\src\lv_objx/lv_calendar.c **** 
  97:..\..\..\lvgl\version_6.1.2\lvgl\src\lv_objx/lv_calendar.c ****     ext->showed_date.year  = 2018;
 322              		.loc 3 97 0
 323 006e 3B69     		ldr	r3, [r7, #16]
 324 0070 40F2E272 		movw	r2, #2018
 325 0074 9A80     		strh	r2, [r3, #4]	@ movhi
  98:..\..\..\lvgl\version_6.1.2\lvgl\src\lv_objx/lv_calendar.c ****     ext->showed_date.month = 1;
 326              		.loc 3 98 0
 327 0076 3B69     		ldr	r3, [r7, #16]
 328 0078 0122     		movs	r2, #1
 329 007a 9A71     		strb	r2, [r3, #6]
  99:..\..\..\lvgl\version_6.1.2\lvgl\src\lv_objx/lv_calendar.c ****     ext->showed_date.day   = 1;
 330              		.loc 3 99 0
 331 007c 3B69     		ldr	r3, [r7, #16]
 332 007e 0122     		movs	r2, #1
 333 0080 DA71     		strb	r2, [r3, #7]
 100:..\..\..\lvgl\version_6.1.2\lvgl\src\lv_objx/lv_calendar.c **** 
 101:..\..\..\lvgl\version_6.1.2\lvgl\src\lv_objx/lv_calendar.c ****     ext->pressed_date.year  = 0;
 334              		.loc 3 101 0
 335 0082 3B69     		ldr	r3, [r7, #16]
 336 0084 0022     		movs	r2, #0
 337 0086 1A82     		strh	r2, [r3, #16]	@ movhi
 102:..\..\..\lvgl\version_6.1.2\lvgl\src\lv_objx/lv_calendar.c ****     ext->pressed_date.month = 0;
 338              		.loc 3 102 0
 339 0088 3B69     		ldr	r3, [r7, #16]
 340 008a 0022     		movs	r2, #0
 341 008c 9A74     		strb	r2, [r3, #18]
 103:..\..\..\lvgl\version_6.1.2\lvgl\src\lv_objx/lv_calendar.c ****     ext->pressed_date.day   = 0;
 342              		.loc 3 103 0
 343 008e 3B69     		ldr	r3, [r7, #16]
 344 0090 0022     		movs	r2, #0
 345 0092 DA74     		strb	r2, [r3, #19]
 104:..\..\..\lvgl\version_6.1.2\lvgl\src\lv_objx/lv_calendar.c **** 
 105:..\..\..\lvgl\version_6.1.2\lvgl\src\lv_objx/lv_calendar.c ****     ext->highlighted_dates      = NULL;
 346              		.loc 3 105 0
 347 0094 3B69     		ldr	r3, [r7, #16]
 348 0096 0022     		movs	r2, #0
ARM GAS  C:\Users\tmj32\AppData\Local\Temp\cc0vWRpX.s 			page 13


 349 0098 9A60     		str	r2, [r3, #8]
 106:..\..\..\lvgl\version_6.1.2\lvgl\src\lv_objx/lv_calendar.c ****     ext->highlighted_dates_num  = 0;
 350              		.loc 3 106 0
 351 009a 3B69     		ldr	r3, [r7, #16]
 352 009c 0022     		movs	r2, #0
 353 009e DA81     		strh	r2, [r3, #14]	@ movhi
 107:..\..\..\lvgl\version_6.1.2\lvgl\src\lv_objx/lv_calendar.c ****     ext->day_names              = NULL;
 354              		.loc 3 107 0
 355 00a0 3B69     		ldr	r3, [r7, #16]
 356 00a2 0022     		movs	r2, #0
 357 00a4 5A61     		str	r2, [r3, #20]
 108:..\..\..\lvgl\version_6.1.2\lvgl\src\lv_objx/lv_calendar.c ****     ext->month_names            = NULL;
 358              		.loc 3 108 0
 359 00a6 3B69     		ldr	r3, [r7, #16]
 360 00a8 0022     		movs	r2, #0
 361 00aa 9A61     		str	r2, [r3, #24]
 109:..\..\..\lvgl\version_6.1.2\lvgl\src\lv_objx/lv_calendar.c ****     ext->style_header           = &lv_style_plain_color;
 362              		.loc 3 109 0
 363 00ac 3B69     		ldr	r3, [r7, #16]
 364 00ae 804A     		ldr	r2, .L16+8
 365 00b0 DA61     		str	r2, [r3, #28]
 110:..\..\..\lvgl\version_6.1.2\lvgl\src\lv_objx/lv_calendar.c ****     ext->style_header_pr        = &lv_style_pretty_color;
 366              		.loc 3 110 0
 367 00b2 3B69     		ldr	r3, [r7, #16]
 368 00b4 7F4A     		ldr	r2, .L16+12
 369 00b6 1A62     		str	r2, [r3, #32]
 111:..\..\..\lvgl\version_6.1.2\lvgl\src\lv_objx/lv_calendar.c ****     ext->style_highlighted_days = &lv_style_plain_color;
 370              		.loc 3 111 0
 371 00b8 3B69     		ldr	r3, [r7, #16]
 372 00ba 7D4A     		ldr	r2, .L16+8
 373 00bc 9A62     		str	r2, [r3, #40]
 112:..\..\..\lvgl\version_6.1.2\lvgl\src\lv_objx/lv_calendar.c ****     ext->style_inactive_days    = &lv_style_btn_ina;
 374              		.loc 3 112 0
 375 00be 3B69     		ldr	r3, [r7, #16]
 376 00c0 7D4A     		ldr	r2, .L16+16
 377 00c2 DA62     		str	r2, [r3, #44]
 113:..\..\..\lvgl\version_6.1.2\lvgl\src\lv_objx/lv_calendar.c ****     ext->style_week_box         = &lv_style_plain_color;
 378              		.loc 3 113 0
 379 00c4 3B69     		ldr	r3, [r7, #16]
 380 00c6 7A4A     		ldr	r2, .L16+8
 381 00c8 1A63     		str	r2, [r3, #48]
 114:..\..\..\lvgl\version_6.1.2\lvgl\src\lv_objx/lv_calendar.c ****     ext->style_today_box        = &lv_style_pretty_color;
 382              		.loc 3 114 0
 383 00ca 3B69     		ldr	r3, [r7, #16]
 384 00cc 794A     		ldr	r2, .L16+12
 385 00ce 5A63     		str	r2, [r3, #52]
 115:..\..\..\lvgl\version_6.1.2\lvgl\src\lv_objx/lv_calendar.c ****     ext->style_day_names        = &lv_style_pretty;
 386              		.loc 3 115 0
 387 00d0 3B69     		ldr	r3, [r7, #16]
 388 00d2 7A4A     		ldr	r2, .L16+20
 389 00d4 5A62     		str	r2, [r3, #36]
 116:..\..\..\lvgl\version_6.1.2\lvgl\src\lv_objx/lv_calendar.c **** 
 117:..\..\..\lvgl\version_6.1.2\lvgl\src\lv_objx/lv_calendar.c ****     /*The signal and design functions are not copied so set them here*/
 118:..\..\..\lvgl\version_6.1.2\lvgl\src\lv_objx/lv_calendar.c ****     lv_obj_set_signal_cb(new_calendar, lv_calendar_signal);
 390              		.loc 3 118 0
 391 00d6 7A49     		ldr	r1, .L16+24
 392 00d8 7869     		ldr	r0, [r7, #20]
ARM GAS  C:\Users\tmj32\AppData\Local\Temp\cc0vWRpX.s 			page 14


 393 00da FFF7FEFF 		bl	lv_obj_set_signal_cb
 119:..\..\..\lvgl\version_6.1.2\lvgl\src\lv_objx/lv_calendar.c ****     lv_obj_set_design_cb(new_calendar, lv_calendar_design);
 394              		.loc 3 119 0
 395 00de 7949     		ldr	r1, .L16+28
 396 00e0 7869     		ldr	r0, [r7, #20]
 397 00e2 FFF7FEFF 		bl	lv_obj_set_design_cb
 120:..\..\..\lvgl\version_6.1.2\lvgl\src\lv_objx/lv_calendar.c **** 
 121:..\..\..\lvgl\version_6.1.2\lvgl\src\lv_objx/lv_calendar.c ****     /*Init the new calendar calendar*/
 122:..\..\..\lvgl\version_6.1.2\lvgl\src\lv_objx/lv_calendar.c ****     if(copy == NULL) {
 398              		.loc 3 122 0
 399 00e6 3B68     		ldr	r3, [r7]
 400 00e8 002B     		cmp	r3, #0
 401 00ea 40F08980 		bne	.L12
 402              	.LBB2:
 123:..\..\..\lvgl\version_6.1.2\lvgl\src\lv_objx/lv_calendar.c ****         lv_obj_set_size(new_calendar, LV_DPI * 2, LV_DPI * 2);
 403              		.loc 3 123 0
 404 00ee 4FF49672 		mov	r2, #300
 405 00f2 4FF49671 		mov	r1, #300
 406 00f6 7869     		ldr	r0, [r7, #20]
 407 00f8 FFF7FEFF 		bl	lv_obj_set_size
 124:..\..\..\lvgl\version_6.1.2\lvgl\src\lv_objx/lv_calendar.c ****         lv_obj_set_style(new_calendar, &lv_style_pretty);
 408              		.loc 3 124 0
 409 00fc 6F49     		ldr	r1, .L16+20
 410 00fe 7869     		ldr	r0, [r7, #20]
 411 0100 FFF7FEFF 		bl	lv_obj_set_style
 125:..\..\..\lvgl\version_6.1.2\lvgl\src\lv_objx/lv_calendar.c **** 
 126:..\..\..\lvgl\version_6.1.2\lvgl\src\lv_objx/lv_calendar.c ****         lv_theme_t * th = lv_theme_get_current();
 412              		.loc 3 126 0
 413 0104 FFF7FEFF 		bl	lv_theme_get_current
 414 0108 F860     		str	r0, [r7, #12]
 127:..\..\..\lvgl\version_6.1.2\lvgl\src\lv_objx/lv_calendar.c ****         if(th) {
 415              		.loc 3 127 0
 416 010a FB68     		ldr	r3, [r7, #12]
 417 010c 002B     		cmp	r3, #0
 418 010e 40D0     		beq	.L13
 128:..\..\..\lvgl\version_6.1.2\lvgl\src\lv_objx/lv_calendar.c ****             lv_calendar_set_style(new_calendar, LV_CALENDAR_STYLE_BG, th->style.calendar.bg);
 419              		.loc 3 128 0
 420 0110 FB68     		ldr	r3, [r7, #12]
 421 0112 D3F88C30 		ldr	r3, [r3, #140]
 422 0116 1A46     		mov	r2, r3
 423 0118 0021     		movs	r1, #0
 424 011a 7869     		ldr	r0, [r7, #20]
 425 011c FFF7FEFF 		bl	lv_calendar_set_style
 129:..\..\..\lvgl\version_6.1.2\lvgl\src\lv_objx/lv_calendar.c ****             lv_calendar_set_style(new_calendar, LV_CALENDAR_STYLE_HEADER, th->style.calendar.header
 426              		.loc 3 129 0
 427 0120 FB68     		ldr	r3, [r7, #12]
 428 0122 D3F89030 		ldr	r3, [r3, #144]
 429 0126 1A46     		mov	r2, r3
 430 0128 0121     		movs	r1, #1
 431 012a 7869     		ldr	r0, [r7, #20]
 432 012c FFF7FEFF 		bl	lv_calendar_set_style
 130:..\..\..\lvgl\version_6.1.2\lvgl\src\lv_objx/lv_calendar.c ****             lv_calendar_set_style(new_calendar, LV_CALENDAR_STYLE_HEADER_PR, th->style.calendar.hea
 433              		.loc 3 130 0
 434 0130 FB68     		ldr	r3, [r7, #12]
 435 0132 D3F89430 		ldr	r3, [r3, #148]
 436 0136 1A46     		mov	r2, r3
 437 0138 0221     		movs	r1, #2
ARM GAS  C:\Users\tmj32\AppData\Local\Temp\cc0vWRpX.s 			page 15


 438 013a 7869     		ldr	r0, [r7, #20]
 439 013c FFF7FEFF 		bl	lv_calendar_set_style
 131:..\..\..\lvgl\version_6.1.2\lvgl\src\lv_objx/lv_calendar.c ****             lv_calendar_set_style(new_calendar, LV_CALENDAR_STYLE_DAY_NAMES, th->style.calendar.day
 440              		.loc 3 131 0
 441 0140 FB68     		ldr	r3, [r7, #12]
 442 0142 D3F89830 		ldr	r3, [r3, #152]
 443 0146 1A46     		mov	r2, r3
 444 0148 0321     		movs	r1, #3
 445 014a 7869     		ldr	r0, [r7, #20]
 446 014c FFF7FEFF 		bl	lv_calendar_set_style
 132:..\..\..\lvgl\version_6.1.2\lvgl\src\lv_objx/lv_calendar.c ****             lv_calendar_set_style(new_calendar, LV_CALENDAR_STYLE_WEEK_BOX, th->style.calendar.week
 447              		.loc 3 132 0
 448 0150 FB68     		ldr	r3, [r7, #12]
 449 0152 D3F8A430 		ldr	r3, [r3, #164]
 450 0156 1A46     		mov	r2, r3
 451 0158 0621     		movs	r1, #6
 452 015a 7869     		ldr	r0, [r7, #20]
 453 015c FFF7FEFF 		bl	lv_calendar_set_style
 133:..\..\..\lvgl\version_6.1.2\lvgl\src\lv_objx/lv_calendar.c ****             lv_calendar_set_style(new_calendar, LV_CALENDAR_STYLE_TODAY_BOX, th->style.calendar.tod
 454              		.loc 3 133 0
 455 0160 FB68     		ldr	r3, [r7, #12]
 456 0162 D3F8A830 		ldr	r3, [r3, #168]
 457 0166 1A46     		mov	r2, r3
 458 0168 0721     		movs	r1, #7
 459 016a 7869     		ldr	r0, [r7, #20]
 460 016c FFF7FEFF 		bl	lv_calendar_set_style
 134:..\..\..\lvgl\version_6.1.2\lvgl\src\lv_objx/lv_calendar.c ****             lv_calendar_set_style(new_calendar, LV_CALENDAR_STYLE_HIGHLIGHTED_DAYS,
 135:..\..\..\lvgl\version_6.1.2\lvgl\src\lv_objx/lv_calendar.c ****                                   th->style.calendar.highlighted_days);
 461              		.loc 3 135 0
 462 0170 FB68     		ldr	r3, [r7, #12]
 463 0172 D3F89C30 		ldr	r3, [r3, #156]
 134:..\..\..\lvgl\version_6.1.2\lvgl\src\lv_objx/lv_calendar.c ****             lv_calendar_set_style(new_calendar, LV_CALENDAR_STYLE_HIGHLIGHTED_DAYS,
 464              		.loc 3 134 0
 465 0176 1A46     		mov	r2, r3
 466 0178 0421     		movs	r1, #4
 467 017a 7869     		ldr	r0, [r7, #20]
 468 017c FFF7FEFF 		bl	lv_calendar_set_style
 136:..\..\..\lvgl\version_6.1.2\lvgl\src\lv_objx/lv_calendar.c ****             lv_calendar_set_style(new_calendar, LV_CALENDAR_STYLE_INACTIVE_DAYS, th->style.calendar
 469              		.loc 3 136 0
 470 0180 FB68     		ldr	r3, [r7, #12]
 471 0182 D3F8A030 		ldr	r3, [r3, #160]
 472 0186 1A46     		mov	r2, r3
 473 0188 0521     		movs	r1, #5
 474 018a 7869     		ldr	r0, [r7, #20]
 475 018c FFF7FEFF 		bl	lv_calendar_set_style
 476 0190 85E0     		b	.L15
 477              	.L13:
 137:..\..\..\lvgl\version_6.1.2\lvgl\src\lv_objx/lv_calendar.c ****         } else {
 138:..\..\..\lvgl\version_6.1.2\lvgl\src\lv_objx/lv_calendar.c ****             lv_calendar_set_style(new_calendar, LV_CALENDAR_STYLE_BG, &lv_style_pretty);
 478              		.loc 3 138 0
 479 0192 4A4A     		ldr	r2, .L16+20
 480 0194 0021     		movs	r1, #0
 481 0196 7869     		ldr	r0, [r7, #20]
 482 0198 FFF7FEFF 		bl	lv_calendar_set_style
 139:..\..\..\lvgl\version_6.1.2\lvgl\src\lv_objx/lv_calendar.c ****             lv_calendar_set_style(new_calendar, LV_CALENDAR_STYLE_HEADER, ext->style_header);
 483              		.loc 3 139 0
 484 019c 3B69     		ldr	r3, [r7, #16]
ARM GAS  C:\Users\tmj32\AppData\Local\Temp\cc0vWRpX.s 			page 16


 485 019e DB69     		ldr	r3, [r3, #28]
 486 01a0 1A46     		mov	r2, r3
 487 01a2 0121     		movs	r1, #1
 488 01a4 7869     		ldr	r0, [r7, #20]
 489 01a6 FFF7FEFF 		bl	lv_calendar_set_style
 140:..\..\..\lvgl\version_6.1.2\lvgl\src\lv_objx/lv_calendar.c ****             lv_calendar_set_style(new_calendar, LV_CALENDAR_STYLE_HEADER_PR, ext->style_header_pr);
 490              		.loc 3 140 0
 491 01aa 3B69     		ldr	r3, [r7, #16]
 492 01ac 1B6A     		ldr	r3, [r3, #32]
 493 01ae 1A46     		mov	r2, r3
 494 01b0 0221     		movs	r1, #2
 495 01b2 7869     		ldr	r0, [r7, #20]
 496 01b4 FFF7FEFF 		bl	lv_calendar_set_style
 141:..\..\..\lvgl\version_6.1.2\lvgl\src\lv_objx/lv_calendar.c ****             lv_calendar_set_style(new_calendar, LV_CALENDAR_STYLE_DAY_NAMES, ext->style_day_names);
 497              		.loc 3 141 0
 498 01b8 3B69     		ldr	r3, [r7, #16]
 499 01ba 5B6A     		ldr	r3, [r3, #36]
 500 01bc 1A46     		mov	r2, r3
 501 01be 0321     		movs	r1, #3
 502 01c0 7869     		ldr	r0, [r7, #20]
 503 01c2 FFF7FEFF 		bl	lv_calendar_set_style
 142:..\..\..\lvgl\version_6.1.2\lvgl\src\lv_objx/lv_calendar.c ****             lv_calendar_set_style(new_calendar, LV_CALENDAR_STYLE_WEEK_BOX, ext->style_week_box);
 504              		.loc 3 142 0
 505 01c6 3B69     		ldr	r3, [r7, #16]
 506 01c8 1B6B     		ldr	r3, [r3, #48]
 507 01ca 1A46     		mov	r2, r3
 508 01cc 0621     		movs	r1, #6
 509 01ce 7869     		ldr	r0, [r7, #20]
 510 01d0 FFF7FEFF 		bl	lv_calendar_set_style
 143:..\..\..\lvgl\version_6.1.2\lvgl\src\lv_objx/lv_calendar.c ****             lv_calendar_set_style(new_calendar, LV_CALENDAR_STYLE_TODAY_BOX, ext->style_today_box);
 511              		.loc 3 143 0
 512 01d4 3B69     		ldr	r3, [r7, #16]
 513 01d6 5B6B     		ldr	r3, [r3, #52]
 514 01d8 1A46     		mov	r2, r3
 515 01da 0721     		movs	r1, #7
 516 01dc 7869     		ldr	r0, [r7, #20]
 517 01de FFF7FEFF 		bl	lv_calendar_set_style
 144:..\..\..\lvgl\version_6.1.2\lvgl\src\lv_objx/lv_calendar.c ****             lv_calendar_set_style(new_calendar, LV_CALENDAR_STYLE_HIGHLIGHTED_DAYS, ext->style_high
 518              		.loc 3 144 0
 519 01e2 3B69     		ldr	r3, [r7, #16]
 520 01e4 9B6A     		ldr	r3, [r3, #40]
 521 01e6 1A46     		mov	r2, r3
 522 01e8 0421     		movs	r1, #4
 523 01ea 7869     		ldr	r0, [r7, #20]
 524 01ec FFF7FEFF 		bl	lv_calendar_set_style
 145:..\..\..\lvgl\version_6.1.2\lvgl\src\lv_objx/lv_calendar.c ****             lv_calendar_set_style(new_calendar, LV_CALENDAR_STYLE_INACTIVE_DAYS, ext->style_inactiv
 525              		.loc 3 145 0
 526 01f0 3B69     		ldr	r3, [r7, #16]
 527 01f2 DB6A     		ldr	r3, [r3, #44]
 528 01f4 1A46     		mov	r2, r3
 529 01f6 0521     		movs	r1, #5
 530 01f8 7869     		ldr	r0, [r7, #20]
 531 01fa FFF7FEFF 		bl	lv_calendar_set_style
 532 01fe 4EE0     		b	.L15
 533              	.L12:
 534              	.LBE2:
 535              	.LBB3:
ARM GAS  C:\Users\tmj32\AppData\Local\Temp\cc0vWRpX.s 			page 17


 146:..\..\..\lvgl\version_6.1.2\lvgl\src\lv_objx/lv_calendar.c ****         }
 147:..\..\..\lvgl\version_6.1.2\lvgl\src\lv_objx/lv_calendar.c ****     }
 148:..\..\..\lvgl\version_6.1.2\lvgl\src\lv_objx/lv_calendar.c ****     /*Copy an existing calendar*/
 149:..\..\..\lvgl\version_6.1.2\lvgl\src\lv_objx/lv_calendar.c ****     else {
 150:..\..\..\lvgl\version_6.1.2\lvgl\src\lv_objx/lv_calendar.c ****         lv_calendar_ext_t * copy_ext = lv_obj_get_ext_attr(copy);
 536              		.loc 3 150 0
 537 0200 3868     		ldr	r0, [r7]
 538 0202 FFF7FEFF 		bl	lv_obj_get_ext_attr
 539 0206 B860     		str	r0, [r7, #8]
 151:..\..\..\lvgl\version_6.1.2\lvgl\src\lv_objx/lv_calendar.c ****         ext->today.year              = copy_ext->today.year;
 540              		.loc 3 151 0
 541 0208 BB68     		ldr	r3, [r7, #8]
 542 020a 1A88     		ldrh	r2, [r3]
 543 020c 3B69     		ldr	r3, [r7, #16]
 544 020e 1A80     		strh	r2, [r3]	@ movhi
 152:..\..\..\lvgl\version_6.1.2\lvgl\src\lv_objx/lv_calendar.c ****         ext->today.month             = copy_ext->today.month;
 545              		.loc 3 152 0
 546 0210 BB68     		ldr	r3, [r7, #8]
 547 0212 93F90220 		ldrsb	r2, [r3, #2]
 548 0216 3B69     		ldr	r3, [r7, #16]
 549 0218 9A70     		strb	r2, [r3, #2]
 153:..\..\..\lvgl\version_6.1.2\lvgl\src\lv_objx/lv_calendar.c ****         ext->today.day               = copy_ext->today.day;
 550              		.loc 3 153 0
 551 021a BB68     		ldr	r3, [r7, #8]
 552 021c 93F90320 		ldrsb	r2, [r3, #3]
 553 0220 3B69     		ldr	r3, [r7, #16]
 554 0222 DA70     		strb	r2, [r3, #3]
 154:..\..\..\lvgl\version_6.1.2\lvgl\src\lv_objx/lv_calendar.c **** 
 155:..\..\..\lvgl\version_6.1.2\lvgl\src\lv_objx/lv_calendar.c ****         ext->showed_date.year  = copy_ext->showed_date.year;
 555              		.loc 3 155 0
 556 0224 BB68     		ldr	r3, [r7, #8]
 557 0226 9A88     		ldrh	r2, [r3, #4]
 558 0228 3B69     		ldr	r3, [r7, #16]
 559 022a 9A80     		strh	r2, [r3, #4]	@ movhi
 156:..\..\..\lvgl\version_6.1.2\lvgl\src\lv_objx/lv_calendar.c ****         ext->showed_date.month = copy_ext->showed_date.month;
 560              		.loc 3 156 0
 561 022c BB68     		ldr	r3, [r7, #8]
 562 022e 93F90620 		ldrsb	r2, [r3, #6]
 563 0232 3B69     		ldr	r3, [r7, #16]
 564 0234 9A71     		strb	r2, [r3, #6]
 157:..\..\..\lvgl\version_6.1.2\lvgl\src\lv_objx/lv_calendar.c ****         ext->showed_date.day   = copy_ext->showed_date.day;
 565              		.loc 3 157 0
 566 0236 BB68     		ldr	r3, [r7, #8]
 567 0238 93F90720 		ldrsb	r2, [r3, #7]
 568 023c 3B69     		ldr	r3, [r7, #16]
 569 023e DA71     		strb	r2, [r3, #7]
 158:..\..\..\lvgl\version_6.1.2\lvgl\src\lv_objx/lv_calendar.c **** 
 159:..\..\..\lvgl\version_6.1.2\lvgl\src\lv_objx/lv_calendar.c ****         ext->highlighted_dates     = copy_ext->highlighted_dates;
 570              		.loc 3 159 0
 571 0240 BB68     		ldr	r3, [r7, #8]
 572 0242 9A68     		ldr	r2, [r3, #8]
 573 0244 3B69     		ldr	r3, [r7, #16]
 574 0246 9A60     		str	r2, [r3, #8]
 160:..\..\..\lvgl\version_6.1.2\lvgl\src\lv_objx/lv_calendar.c ****         ext->highlighted_dates_num = copy_ext->highlighted_dates_num;
 575              		.loc 3 160 0
 576 0248 BB68     		ldr	r3, [r7, #8]
 577 024a DA89     		ldrh	r2, [r3, #14]
ARM GAS  C:\Users\tmj32\AppData\Local\Temp\cc0vWRpX.s 			page 18


 578 024c 3B69     		ldr	r3, [r7, #16]
 579 024e DA81     		strh	r2, [r3, #14]	@ movhi
 161:..\..\..\lvgl\version_6.1.2\lvgl\src\lv_objx/lv_calendar.c ****         ext->day_names             = copy_ext->day_names;
 580              		.loc 3 161 0
 581 0250 BB68     		ldr	r3, [r7, #8]
 582 0252 5A69     		ldr	r2, [r3, #20]
 583 0254 3B69     		ldr	r3, [r7, #16]
 584 0256 5A61     		str	r2, [r3, #20]
 162:..\..\..\lvgl\version_6.1.2\lvgl\src\lv_objx/lv_calendar.c **** 
 163:..\..\..\lvgl\version_6.1.2\lvgl\src\lv_objx/lv_calendar.c ****         ext->month_names            = copy_ext->month_names;
 585              		.loc 3 163 0
 586 0258 BB68     		ldr	r3, [r7, #8]
 587 025a 9A69     		ldr	r2, [r3, #24]
 588 025c 3B69     		ldr	r3, [r7, #16]
 589 025e 9A61     		str	r2, [r3, #24]
 164:..\..\..\lvgl\version_6.1.2\lvgl\src\lv_objx/lv_calendar.c ****         ext->style_header           = copy_ext->style_header;
 590              		.loc 3 164 0
 591 0260 BB68     		ldr	r3, [r7, #8]
 592 0262 DA69     		ldr	r2, [r3, #28]
 593 0264 3B69     		ldr	r3, [r7, #16]
 594 0266 DA61     		str	r2, [r3, #28]
 165:..\..\..\lvgl\version_6.1.2\lvgl\src\lv_objx/lv_calendar.c ****         ext->style_header_pr        = copy_ext->style_header_pr;
 595              		.loc 3 165 0
 596 0268 BB68     		ldr	r3, [r7, #8]
 597 026a 1A6A     		ldr	r2, [r3, #32]
 598 026c 3B69     		ldr	r3, [r7, #16]
 599 026e 1A62     		str	r2, [r3, #32]
 166:..\..\..\lvgl\version_6.1.2\lvgl\src\lv_objx/lv_calendar.c ****         ext->style_highlighted_days = copy_ext->style_highlighted_days;
 600              		.loc 3 166 0
 601 0270 BB68     		ldr	r3, [r7, #8]
 602 0272 9A6A     		ldr	r2, [r3, #40]
 603 0274 3B69     		ldr	r3, [r7, #16]
 604 0276 9A62     		str	r2, [r3, #40]
 167:..\..\..\lvgl\version_6.1.2\lvgl\src\lv_objx/lv_calendar.c ****         ext->style_inactive_days    = copy_ext->style_inactive_days;
 605              		.loc 3 167 0
 606 0278 BB68     		ldr	r3, [r7, #8]
 607 027a DA6A     		ldr	r2, [r3, #44]
 608 027c 3B69     		ldr	r3, [r7, #16]
 609 027e DA62     		str	r2, [r3, #44]
 168:..\..\..\lvgl\version_6.1.2\lvgl\src\lv_objx/lv_calendar.c ****         ext->style_week_box         = copy_ext->style_week_box;
 610              		.loc 3 168 0
 611 0280 BB68     		ldr	r3, [r7, #8]
 612 0282 1A6B     		ldr	r2, [r3, #48]
 613 0284 3B69     		ldr	r3, [r7, #16]
 614 0286 1A63     		str	r2, [r3, #48]
 169:..\..\..\lvgl\version_6.1.2\lvgl\src\lv_objx/lv_calendar.c ****         ext->style_today_box        = copy_ext->style_today_box;
 615              		.loc 3 169 0
 616 0288 BB68     		ldr	r3, [r7, #8]
 617 028a 5A6B     		ldr	r2, [r3, #52]
 618 028c 3B69     		ldr	r3, [r7, #16]
 619 028e 5A63     		str	r2, [r3, #52]
 170:..\..\..\lvgl\version_6.1.2\lvgl\src\lv_objx/lv_calendar.c ****         ext->style_day_names        = copy_ext->style_day_names;
 620              		.loc 3 170 0
 621 0290 BB68     		ldr	r3, [r7, #8]
 622 0292 5A6A     		ldr	r2, [r3, #36]
 623 0294 3B69     		ldr	r3, [r7, #16]
 624 0296 5A62     		str	r2, [r3, #36]
ARM GAS  C:\Users\tmj32\AppData\Local\Temp\cc0vWRpX.s 			page 19


 171:..\..\..\lvgl\version_6.1.2\lvgl\src\lv_objx/lv_calendar.c ****         /*Refresh the style with new signal function*/
 172:..\..\..\lvgl\version_6.1.2\lvgl\src\lv_objx/lv_calendar.c ****         lv_obj_refresh_style(new_calendar);
 625              		.loc 3 172 0
 626 0298 7869     		ldr	r0, [r7, #20]
 627 029a FFF7FEFF 		bl	lv_obj_refresh_style
 628              	.L15:
 629              	.LBE3:
 173:..\..\..\lvgl\version_6.1.2\lvgl\src\lv_objx/lv_calendar.c ****     }
 174:..\..\..\lvgl\version_6.1.2\lvgl\src\lv_objx/lv_calendar.c **** 
 175:..\..\..\lvgl\version_6.1.2\lvgl\src\lv_objx/lv_calendar.c ****     LV_LOG_INFO("calendar created");
 176:..\..\..\lvgl\version_6.1.2\lvgl\src\lv_objx/lv_calendar.c **** 
 177:..\..\..\lvgl\version_6.1.2\lvgl\src\lv_objx/lv_calendar.c ****     return new_calendar;
 630              		.loc 3 177 0
 631 029e 7B69     		ldr	r3, [r7, #20]
 632              	.L8:
 178:..\..\..\lvgl\version_6.1.2\lvgl\src\lv_objx/lv_calendar.c **** }
 633              		.loc 3 178 0
 634 02a0 1846     		mov	r0, r3
 635 02a2 1837     		adds	r7, r7, #24
 636              		.cfi_def_cfa_offset 8
 637 02a4 BD46     		mov	sp, r7
 638              		.cfi_def_cfa_register 13
 639              		@ sp needed
 640 02a6 80BD     		pop	{r7, pc}
 641              	.L17:
 642              		.align	2
 643              	.L16:
 644 02a8 00000000 		.word	ancestor_signal
 645 02ac 04000000 		.word	ancestor_design
 646 02b0 00000000 		.word	lv_style_plain_color
 647 02b4 00000000 		.word	lv_style_pretty_color
 648 02b8 00000000 		.word	lv_style_btn_ina
 649 02bc 00000000 		.word	lv_style_pretty
 650 02c0 00000000 		.word	lv_calendar_signal
 651 02c4 00000000 		.word	lv_calendar_design
 652              		.cfi_endproc
 653              	.LFE31:
 654              		.size	lv_calendar_create, .-lv_calendar_create
 655              		.section	.text.lv_calendar_set_today_date,"ax",%progbits
 656              		.align	2
 657              		.global	lv_calendar_set_today_date
 658              		.thumb
 659              		.thumb_func
 660              		.type	lv_calendar_set_today_date, %function
 661              	lv_calendar_set_today_date:
 662              	.LFB32:
 179:..\..\..\lvgl\version_6.1.2\lvgl\src\lv_objx/lv_calendar.c **** 
 180:..\..\..\lvgl\version_6.1.2\lvgl\src\lv_objx/lv_calendar.c **** /*======================
 181:..\..\..\lvgl\version_6.1.2\lvgl\src\lv_objx/lv_calendar.c ****  * Add/remove functions
 182:..\..\..\lvgl\version_6.1.2\lvgl\src\lv_objx/lv_calendar.c ****  *=====================*/
 183:..\..\..\lvgl\version_6.1.2\lvgl\src\lv_objx/lv_calendar.c **** 
 184:..\..\..\lvgl\version_6.1.2\lvgl\src\lv_objx/lv_calendar.c **** /*
 185:..\..\..\lvgl\version_6.1.2\lvgl\src\lv_objx/lv_calendar.c ****  * New object specific "add" or "remove" functions come here
 186:..\..\..\lvgl\version_6.1.2\lvgl\src\lv_objx/lv_calendar.c ****  */
 187:..\..\..\lvgl\version_6.1.2\lvgl\src\lv_objx/lv_calendar.c **** 
 188:..\..\..\lvgl\version_6.1.2\lvgl\src\lv_objx/lv_calendar.c **** /*=====================
 189:..\..\..\lvgl\version_6.1.2\lvgl\src\lv_objx/lv_calendar.c ****  * Setter functions
ARM GAS  C:\Users\tmj32\AppData\Local\Temp\cc0vWRpX.s 			page 20


 190:..\..\..\lvgl\version_6.1.2\lvgl\src\lv_objx/lv_calendar.c ****  *====================*/
 191:..\..\..\lvgl\version_6.1.2\lvgl\src\lv_objx/lv_calendar.c **** 
 192:..\..\..\lvgl\version_6.1.2\lvgl\src\lv_objx/lv_calendar.c **** /**
 193:..\..\..\lvgl\version_6.1.2\lvgl\src\lv_objx/lv_calendar.c ****  * Set the today's date
 194:..\..\..\lvgl\version_6.1.2\lvgl\src\lv_objx/lv_calendar.c ****  * @param calendar pointer to a calendar object
 195:..\..\..\lvgl\version_6.1.2\lvgl\src\lv_objx/lv_calendar.c ****  * @param today pointer to an `lv_calendar_date_t` variable containing the date of today. The value
 196:..\..\..\lvgl\version_6.1.2\lvgl\src\lv_objx/lv_calendar.c ****  * will be saved it can be local variable too.
 197:..\..\..\lvgl\version_6.1.2\lvgl\src\lv_objx/lv_calendar.c ****  */
 198:..\..\..\lvgl\version_6.1.2\lvgl\src\lv_objx/lv_calendar.c **** void lv_calendar_set_today_date(lv_obj_t * calendar, lv_calendar_date_t * today)
 199:..\..\..\lvgl\version_6.1.2\lvgl\src\lv_objx/lv_calendar.c **** {
 663              		.loc 3 199 0
 664              		.cfi_startproc
 665              		@ args = 0, pretend = 0, frame = 16
 666              		@ frame_needed = 1, uses_anonymous_args = 0
 667 0000 80B5     		push	{r7, lr}
 668              		.cfi_def_cfa_offset 8
 669              		.cfi_offset 7, -8
 670              		.cfi_offset 14, -4
 671 0002 84B0     		sub	sp, sp, #16
 672              		.cfi_def_cfa_offset 24
 673 0004 00AF     		add	r7, sp, #0
 674              		.cfi_def_cfa_register 7
 675 0006 7860     		str	r0, [r7, #4]
 676 0008 3960     		str	r1, [r7]
 200:..\..\..\lvgl\version_6.1.2\lvgl\src\lv_objx/lv_calendar.c ****     LV_ASSERT_OBJ(calendar, LV_OBJX_NAME);
 201:..\..\..\lvgl\version_6.1.2\lvgl\src\lv_objx/lv_calendar.c ****     LV_ASSERT_NULL(today);
 202:..\..\..\lvgl\version_6.1.2\lvgl\src\lv_objx/lv_calendar.c **** 
 203:..\..\..\lvgl\version_6.1.2\lvgl\src\lv_objx/lv_calendar.c ****     lv_calendar_ext_t * ext = lv_obj_get_ext_attr(calendar);
 677              		.loc 3 203 0
 678 000a 7868     		ldr	r0, [r7, #4]
 679 000c FFF7FEFF 		bl	lv_obj_get_ext_attr
 680 0010 F860     		str	r0, [r7, #12]
 204:..\..\..\lvgl\version_6.1.2\lvgl\src\lv_objx/lv_calendar.c ****     ext->today.year         = today->year;
 681              		.loc 3 204 0
 682 0012 3B68     		ldr	r3, [r7]
 683 0014 1A88     		ldrh	r2, [r3]
 684 0016 FB68     		ldr	r3, [r7, #12]
 685 0018 1A80     		strh	r2, [r3]	@ movhi
 205:..\..\..\lvgl\version_6.1.2\lvgl\src\lv_objx/lv_calendar.c ****     ext->today.month        = today->month;
 686              		.loc 3 205 0
 687 001a 3B68     		ldr	r3, [r7]
 688 001c 93F90220 		ldrsb	r2, [r3, #2]
 689 0020 FB68     		ldr	r3, [r7, #12]
 690 0022 9A70     		strb	r2, [r3, #2]
 206:..\..\..\lvgl\version_6.1.2\lvgl\src\lv_objx/lv_calendar.c ****     ext->today.day          = today->day;
 691              		.loc 3 206 0
 692 0024 3B68     		ldr	r3, [r7]
 693 0026 93F90320 		ldrsb	r2, [r3, #3]
 694 002a FB68     		ldr	r3, [r7, #12]
 695 002c DA70     		strb	r2, [r3, #3]
 207:..\..\..\lvgl\version_6.1.2\lvgl\src\lv_objx/lv_calendar.c **** 
 208:..\..\..\lvgl\version_6.1.2\lvgl\src\lv_objx/lv_calendar.c ****     lv_obj_invalidate(calendar);
 696              		.loc 3 208 0
 697 002e 7868     		ldr	r0, [r7, #4]
 698 0030 FFF7FEFF 		bl	lv_obj_invalidate
 209:..\..\..\lvgl\version_6.1.2\lvgl\src\lv_objx/lv_calendar.c **** }
 699              		.loc 3 209 0
ARM GAS  C:\Users\tmj32\AppData\Local\Temp\cc0vWRpX.s 			page 21


 700 0034 00BF     		nop
 701 0036 1037     		adds	r7, r7, #16
 702              		.cfi_def_cfa_offset 8
 703 0038 BD46     		mov	sp, r7
 704              		.cfi_def_cfa_register 13
 705              		@ sp needed
 706 003a 80BD     		pop	{r7, pc}
 707              		.cfi_endproc
 708              	.LFE32:
 709              		.size	lv_calendar_set_today_date, .-lv_calendar_set_today_date
 710              		.section	.text.lv_calendar_set_showed_date,"ax",%progbits
 711              		.align	2
 712              		.global	lv_calendar_set_showed_date
 713              		.thumb
 714              		.thumb_func
 715              		.type	lv_calendar_set_showed_date, %function
 716              	lv_calendar_set_showed_date:
 717              	.LFB33:
 210:..\..\..\lvgl\version_6.1.2\lvgl\src\lv_objx/lv_calendar.c **** 
 211:..\..\..\lvgl\version_6.1.2\lvgl\src\lv_objx/lv_calendar.c **** /**
 212:..\..\..\lvgl\version_6.1.2\lvgl\src\lv_objx/lv_calendar.c ****  * Set the currently showed
 213:..\..\..\lvgl\version_6.1.2\lvgl\src\lv_objx/lv_calendar.c ****  * @param calendar pointer to a calendar object
 214:..\..\..\lvgl\version_6.1.2\lvgl\src\lv_objx/lv_calendar.c ****  * @param showed pointer to an `lv_calendar_date_t` variable containing the date to show. The value
 215:..\..\..\lvgl\version_6.1.2\lvgl\src\lv_objx/lv_calendar.c ****  * will be saved it can be local variable too.
 216:..\..\..\lvgl\version_6.1.2\lvgl\src\lv_objx/lv_calendar.c ****  */
 217:..\..\..\lvgl\version_6.1.2\lvgl\src\lv_objx/lv_calendar.c **** void lv_calendar_set_showed_date(lv_obj_t * calendar, lv_calendar_date_t * showed)
 218:..\..\..\lvgl\version_6.1.2\lvgl\src\lv_objx/lv_calendar.c **** {
 718              		.loc 3 218 0
 719              		.cfi_startproc
 720              		@ args = 0, pretend = 0, frame = 16
 721              		@ frame_needed = 1, uses_anonymous_args = 0
 722 0000 80B5     		push	{r7, lr}
 723              		.cfi_def_cfa_offset 8
 724              		.cfi_offset 7, -8
 725              		.cfi_offset 14, -4
 726 0002 84B0     		sub	sp, sp, #16
 727              		.cfi_def_cfa_offset 24
 728 0004 00AF     		add	r7, sp, #0
 729              		.cfi_def_cfa_register 7
 730 0006 7860     		str	r0, [r7, #4]
 731 0008 3960     		str	r1, [r7]
 219:..\..\..\lvgl\version_6.1.2\lvgl\src\lv_objx/lv_calendar.c ****     LV_ASSERT_OBJ(calendar, LV_OBJX_NAME);
 220:..\..\..\lvgl\version_6.1.2\lvgl\src\lv_objx/lv_calendar.c ****     LV_ASSERT_NULL(showed);
 221:..\..\..\lvgl\version_6.1.2\lvgl\src\lv_objx/lv_calendar.c **** 
 222:..\..\..\lvgl\version_6.1.2\lvgl\src\lv_objx/lv_calendar.c ****     lv_calendar_ext_t * ext = lv_obj_get_ext_attr(calendar);
 732              		.loc 3 222 0
 733 000a 7868     		ldr	r0, [r7, #4]
 734 000c FFF7FEFF 		bl	lv_obj_get_ext_attr
 735 0010 F860     		str	r0, [r7, #12]
 223:..\..\..\lvgl\version_6.1.2\lvgl\src\lv_objx/lv_calendar.c ****     ext->showed_date.year   = showed->year;
 736              		.loc 3 223 0
 737 0012 3B68     		ldr	r3, [r7]
 738 0014 1A88     		ldrh	r2, [r3]
 739 0016 FB68     		ldr	r3, [r7, #12]
 740 0018 9A80     		strh	r2, [r3, #4]	@ movhi
 224:..\..\..\lvgl\version_6.1.2\lvgl\src\lv_objx/lv_calendar.c ****     ext->showed_date.month  = showed->month;
 741              		.loc 3 224 0
ARM GAS  C:\Users\tmj32\AppData\Local\Temp\cc0vWRpX.s 			page 22


 742 001a 3B68     		ldr	r3, [r7]
 743 001c 93F90220 		ldrsb	r2, [r3, #2]
 744 0020 FB68     		ldr	r3, [r7, #12]
 745 0022 9A71     		strb	r2, [r3, #6]
 225:..\..\..\lvgl\version_6.1.2\lvgl\src\lv_objx/lv_calendar.c ****     ext->showed_date.day    = showed->day;
 746              		.loc 3 225 0
 747 0024 3B68     		ldr	r3, [r7]
 748 0026 93F90320 		ldrsb	r2, [r3, #3]
 749 002a FB68     		ldr	r3, [r7, #12]
 750 002c DA71     		strb	r2, [r3, #7]
 226:..\..\..\lvgl\version_6.1.2\lvgl\src\lv_objx/lv_calendar.c **** 
 227:..\..\..\lvgl\version_6.1.2\lvgl\src\lv_objx/lv_calendar.c ****     lv_obj_invalidate(calendar);
 751              		.loc 3 227 0
 752 002e 7868     		ldr	r0, [r7, #4]
 753 0030 FFF7FEFF 		bl	lv_obj_invalidate
 228:..\..\..\lvgl\version_6.1.2\lvgl\src\lv_objx/lv_calendar.c **** }
 754              		.loc 3 228 0
 755 0034 00BF     		nop
 756 0036 1037     		adds	r7, r7, #16
 757              		.cfi_def_cfa_offset 8
 758 0038 BD46     		mov	sp, r7
 759              		.cfi_def_cfa_register 13
 760              		@ sp needed
 761 003a 80BD     		pop	{r7, pc}
 762              		.cfi_endproc
 763              	.LFE33:
 764              		.size	lv_calendar_set_showed_date, .-lv_calendar_set_showed_date
 765              		.section	.text.lv_calendar_set_highlighted_dates,"ax",%progbits
 766              		.align	2
 767              		.global	lv_calendar_set_highlighted_dates
 768              		.thumb
 769              		.thumb_func
 770              		.type	lv_calendar_set_highlighted_dates, %function
 771              	lv_calendar_set_highlighted_dates:
 772              	.LFB34:
 229:..\..\..\lvgl\version_6.1.2\lvgl\src\lv_objx/lv_calendar.c **** 
 230:..\..\..\lvgl\version_6.1.2\lvgl\src\lv_objx/lv_calendar.c **** /**
 231:..\..\..\lvgl\version_6.1.2\lvgl\src\lv_objx/lv_calendar.c ****  * Set the the highlighted dates
 232:..\..\..\lvgl\version_6.1.2\lvgl\src\lv_objx/lv_calendar.c ****  * @param calendar pointer to a calendar object
 233:..\..\..\lvgl\version_6.1.2\lvgl\src\lv_objx/lv_calendar.c ****  * @param highlighted pointer to an `lv_calendar_date_t` array containing the dates. ONLY A POINTER
 234:..\..\..\lvgl\version_6.1.2\lvgl\src\lv_objx/lv_calendar.c ****  * WILL BE SAVED! CAN'T BE LOCAL ARRAY.
 235:..\..\..\lvgl\version_6.1.2\lvgl\src\lv_objx/lv_calendar.c ****  * @param date_num number of dates in the array
 236:..\..\..\lvgl\version_6.1.2\lvgl\src\lv_objx/lv_calendar.c ****  */
 237:..\..\..\lvgl\version_6.1.2\lvgl\src\lv_objx/lv_calendar.c **** void lv_calendar_set_highlighted_dates(lv_obj_t * calendar, lv_calendar_date_t highlighted[], uint1
 238:..\..\..\lvgl\version_6.1.2\lvgl\src\lv_objx/lv_calendar.c **** {
 773              		.loc 3 238 0
 774              		.cfi_startproc
 775              		@ args = 0, pretend = 0, frame = 24
 776              		@ frame_needed = 1, uses_anonymous_args = 0
 777 0000 80B5     		push	{r7, lr}
 778              		.cfi_def_cfa_offset 8
 779              		.cfi_offset 7, -8
 780              		.cfi_offset 14, -4
 781 0002 86B0     		sub	sp, sp, #24
 782              		.cfi_def_cfa_offset 32
 783 0004 00AF     		add	r7, sp, #0
 784              		.cfi_def_cfa_register 7
ARM GAS  C:\Users\tmj32\AppData\Local\Temp\cc0vWRpX.s 			page 23


 785 0006 F860     		str	r0, [r7, #12]
 786 0008 B960     		str	r1, [r7, #8]
 787 000a 1346     		mov	r3, r2
 788 000c FB80     		strh	r3, [r7, #6]	@ movhi
 239:..\..\..\lvgl\version_6.1.2\lvgl\src\lv_objx/lv_calendar.c ****     LV_ASSERT_OBJ(calendar, LV_OBJX_NAME);
 240:..\..\..\lvgl\version_6.1.2\lvgl\src\lv_objx/lv_calendar.c ****     LV_ASSERT_NULL(highlighted);
 241:..\..\..\lvgl\version_6.1.2\lvgl\src\lv_objx/lv_calendar.c **** 
 242:..\..\..\lvgl\version_6.1.2\lvgl\src\lv_objx/lv_calendar.c ****     lv_calendar_ext_t * ext    = lv_obj_get_ext_attr(calendar);
 789              		.loc 3 242 0
 790 000e F868     		ldr	r0, [r7, #12]
 791 0010 FFF7FEFF 		bl	lv_obj_get_ext_attr
 792 0014 7861     		str	r0, [r7, #20]
 243:..\..\..\lvgl\version_6.1.2\lvgl\src\lv_objx/lv_calendar.c ****     ext->highlighted_dates     = highlighted;
 793              		.loc 3 243 0
 794 0016 7B69     		ldr	r3, [r7, #20]
 795 0018 BA68     		ldr	r2, [r7, #8]
 796 001a 9A60     		str	r2, [r3, #8]
 244:..\..\..\lvgl\version_6.1.2\lvgl\src\lv_objx/lv_calendar.c ****     ext->highlighted_dates_num = date_num;
 797              		.loc 3 244 0
 798 001c 7B69     		ldr	r3, [r7, #20]
 799 001e FA88     		ldrh	r2, [r7, #6]	@ movhi
 800 0020 DA81     		strh	r2, [r3, #14]	@ movhi
 245:..\..\..\lvgl\version_6.1.2\lvgl\src\lv_objx/lv_calendar.c **** 
 246:..\..\..\lvgl\version_6.1.2\lvgl\src\lv_objx/lv_calendar.c ****     lv_obj_invalidate(calendar);
 801              		.loc 3 246 0
 802 0022 F868     		ldr	r0, [r7, #12]
 803 0024 FFF7FEFF 		bl	lv_obj_invalidate
 247:..\..\..\lvgl\version_6.1.2\lvgl\src\lv_objx/lv_calendar.c **** }
 804              		.loc 3 247 0
 805 0028 00BF     		nop
 806 002a 1837     		adds	r7, r7, #24
 807              		.cfi_def_cfa_offset 8
 808 002c BD46     		mov	sp, r7
 809              		.cfi_def_cfa_register 13
 810              		@ sp needed
 811 002e 80BD     		pop	{r7, pc}
 812              		.cfi_endproc
 813              	.LFE34:
 814              		.size	lv_calendar_set_highlighted_dates, .-lv_calendar_set_highlighted_dates
 815              		.section	.text.lv_calendar_set_day_names,"ax",%progbits
 816              		.align	2
 817              		.global	lv_calendar_set_day_names
 818              		.thumb
 819              		.thumb_func
 820              		.type	lv_calendar_set_day_names, %function
 821              	lv_calendar_set_day_names:
 822              	.LFB35:
 248:..\..\..\lvgl\version_6.1.2\lvgl\src\lv_objx/lv_calendar.c **** 
 249:..\..\..\lvgl\version_6.1.2\lvgl\src\lv_objx/lv_calendar.c **** /**
 250:..\..\..\lvgl\version_6.1.2\lvgl\src\lv_objx/lv_calendar.c ****  * Set the name of the days
 251:..\..\..\lvgl\version_6.1.2\lvgl\src\lv_objx/lv_calendar.c ****  * @param calendar pointer to a calendar object
 252:..\..\..\lvgl\version_6.1.2\lvgl\src\lv_objx/lv_calendar.c ****  * @param day_names pointer to an array with the names. E.g. `const char * days[7] = {"Sun", "Mon",
 253:..\..\..\lvgl\version_6.1.2\lvgl\src\lv_objx/lv_calendar.c ****  * ...}` Only the pointer will be saved so this variable can't be local which will be destroyed
 254:..\..\..\lvgl\version_6.1.2\lvgl\src\lv_objx/lv_calendar.c ****  * later.
 255:..\..\..\lvgl\version_6.1.2\lvgl\src\lv_objx/lv_calendar.c ****  */
 256:..\..\..\lvgl\version_6.1.2\lvgl\src\lv_objx/lv_calendar.c **** void lv_calendar_set_day_names(lv_obj_t * calendar, const char ** day_names)
 257:..\..\..\lvgl\version_6.1.2\lvgl\src\lv_objx/lv_calendar.c **** {
ARM GAS  C:\Users\tmj32\AppData\Local\Temp\cc0vWRpX.s 			page 24


 823              		.loc 3 257 0
 824              		.cfi_startproc
 825              		@ args = 0, pretend = 0, frame = 16
 826              		@ frame_needed = 1, uses_anonymous_args = 0
 827 0000 80B5     		push	{r7, lr}
 828              		.cfi_def_cfa_offset 8
 829              		.cfi_offset 7, -8
 830              		.cfi_offset 14, -4
 831 0002 84B0     		sub	sp, sp, #16
 832              		.cfi_def_cfa_offset 24
 833 0004 00AF     		add	r7, sp, #0
 834              		.cfi_def_cfa_register 7
 835 0006 7860     		str	r0, [r7, #4]
 836 0008 3960     		str	r1, [r7]
 258:..\..\..\lvgl\version_6.1.2\lvgl\src\lv_objx/lv_calendar.c ****     LV_ASSERT_OBJ(calendar, LV_OBJX_NAME);
 259:..\..\..\lvgl\version_6.1.2\lvgl\src\lv_objx/lv_calendar.c ****     LV_ASSERT_NULL(day_names);
 260:..\..\..\lvgl\version_6.1.2\lvgl\src\lv_objx/lv_calendar.c **** 
 261:..\..\..\lvgl\version_6.1.2\lvgl\src\lv_objx/lv_calendar.c ****     lv_calendar_ext_t * ext = lv_obj_get_ext_attr(calendar);
 837              		.loc 3 261 0
 838 000a 7868     		ldr	r0, [r7, #4]
 839 000c FFF7FEFF 		bl	lv_obj_get_ext_attr
 840 0010 F860     		str	r0, [r7, #12]
 262:..\..\..\lvgl\version_6.1.2\lvgl\src\lv_objx/lv_calendar.c ****     ext->day_names          = day_names;
 841              		.loc 3 262 0
 842 0012 FB68     		ldr	r3, [r7, #12]
 843 0014 3A68     		ldr	r2, [r7]
 844 0016 5A61     		str	r2, [r3, #20]
 263:..\..\..\lvgl\version_6.1.2\lvgl\src\lv_objx/lv_calendar.c ****     lv_obj_invalidate(calendar);
 845              		.loc 3 263 0
 846 0018 7868     		ldr	r0, [r7, #4]
 847 001a FFF7FEFF 		bl	lv_obj_invalidate
 264:..\..\..\lvgl\version_6.1.2\lvgl\src\lv_objx/lv_calendar.c **** }
 848              		.loc 3 264 0
 849 001e 00BF     		nop
 850 0020 1037     		adds	r7, r7, #16
 851              		.cfi_def_cfa_offset 8
 852 0022 BD46     		mov	sp, r7
 853              		.cfi_def_cfa_register 13
 854              		@ sp needed
 855 0024 80BD     		pop	{r7, pc}
 856              		.cfi_endproc
 857              	.LFE35:
 858              		.size	lv_calendar_set_day_names, .-lv_calendar_set_day_names
 859 0026 00BF     		.section	.text.lv_calendar_set_month_names,"ax",%progbits
 860              		.align	2
 861              		.global	lv_calendar_set_month_names
 862              		.thumb
 863              		.thumb_func
 864              		.type	lv_calendar_set_month_names, %function
 865              	lv_calendar_set_month_names:
 866              	.LFB36:
 265:..\..\..\lvgl\version_6.1.2\lvgl\src\lv_objx/lv_calendar.c **** 
 266:..\..\..\lvgl\version_6.1.2\lvgl\src\lv_objx/lv_calendar.c **** /**
 267:..\..\..\lvgl\version_6.1.2\lvgl\src\lv_objx/lv_calendar.c ****  * Set the name of the month
 268:..\..\..\lvgl\version_6.1.2\lvgl\src\lv_objx/lv_calendar.c ****  * @param calendar pointer to a calendar object
 269:..\..\..\lvgl\version_6.1.2\lvgl\src\lv_objx/lv_calendar.c ****  * @param month_names pointer to an array with the names. E.g. `const char * days[12] = {"Jan", "Fe
 270:..\..\..\lvgl\version_6.1.2\lvgl\src\lv_objx/lv_calendar.c ****  * ...}` Only the pointer will be saved so this variable can't be local which will be destroyed
ARM GAS  C:\Users\tmj32\AppData\Local\Temp\cc0vWRpX.s 			page 25


 271:..\..\..\lvgl\version_6.1.2\lvgl\src\lv_objx/lv_calendar.c ****  * later.
 272:..\..\..\lvgl\version_6.1.2\lvgl\src\lv_objx/lv_calendar.c ****  */
 273:..\..\..\lvgl\version_6.1.2\lvgl\src\lv_objx/lv_calendar.c **** void lv_calendar_set_month_names(lv_obj_t * calendar, const char ** month_names)
 274:..\..\..\lvgl\version_6.1.2\lvgl\src\lv_objx/lv_calendar.c **** {
 867              		.loc 3 274 0
 868              		.cfi_startproc
 869              		@ args = 0, pretend = 0, frame = 16
 870              		@ frame_needed = 1, uses_anonymous_args = 0
 871 0000 80B5     		push	{r7, lr}
 872              		.cfi_def_cfa_offset 8
 873              		.cfi_offset 7, -8
 874              		.cfi_offset 14, -4
 875 0002 84B0     		sub	sp, sp, #16
 876              		.cfi_def_cfa_offset 24
 877 0004 00AF     		add	r7, sp, #0
 878              		.cfi_def_cfa_register 7
 879 0006 7860     		str	r0, [r7, #4]
 880 0008 3960     		str	r1, [r7]
 275:..\..\..\lvgl\version_6.1.2\lvgl\src\lv_objx/lv_calendar.c ****     LV_ASSERT_OBJ(calendar, LV_OBJX_NAME);
 276:..\..\..\lvgl\version_6.1.2\lvgl\src\lv_objx/lv_calendar.c ****     LV_ASSERT_NULL(month_names);
 277:..\..\..\lvgl\version_6.1.2\lvgl\src\lv_objx/lv_calendar.c **** 
 278:..\..\..\lvgl\version_6.1.2\lvgl\src\lv_objx/lv_calendar.c ****     lv_calendar_ext_t * ext = lv_obj_get_ext_attr(calendar);
 881              		.loc 3 278 0
 882 000a 7868     		ldr	r0, [r7, #4]
 883 000c FFF7FEFF 		bl	lv_obj_get_ext_attr
 884 0010 F860     		str	r0, [r7, #12]
 279:..\..\..\lvgl\version_6.1.2\lvgl\src\lv_objx/lv_calendar.c ****     ext->month_names        = month_names;
 885              		.loc 3 279 0
 886 0012 FB68     		ldr	r3, [r7, #12]
 887 0014 3A68     		ldr	r2, [r7]
 888 0016 9A61     		str	r2, [r3, #24]
 280:..\..\..\lvgl\version_6.1.2\lvgl\src\lv_objx/lv_calendar.c ****     lv_obj_invalidate(calendar);
 889              		.loc 3 280 0
 890 0018 7868     		ldr	r0, [r7, #4]
 891 001a FFF7FEFF 		bl	lv_obj_invalidate
 281:..\..\..\lvgl\version_6.1.2\lvgl\src\lv_objx/lv_calendar.c **** }
 892              		.loc 3 281 0
 893 001e 00BF     		nop
 894 0020 1037     		adds	r7, r7, #16
 895              		.cfi_def_cfa_offset 8
 896 0022 BD46     		mov	sp, r7
 897              		.cfi_def_cfa_register 13
 898              		@ sp needed
 899 0024 80BD     		pop	{r7, pc}
 900              		.cfi_endproc
 901              	.LFE36:
 902              		.size	lv_calendar_set_month_names, .-lv_calendar_set_month_names
 903 0026 00BF     		.section	.text.lv_calendar_set_style,"ax",%progbits
 904              		.align	2
 905              		.global	lv_calendar_set_style
 906              		.thumb
 907              		.thumb_func
 908              		.type	lv_calendar_set_style, %function
 909              	lv_calendar_set_style:
 910              	.LFB37:
 282:..\..\..\lvgl\version_6.1.2\lvgl\src\lv_objx/lv_calendar.c **** 
 283:..\..\..\lvgl\version_6.1.2\lvgl\src\lv_objx/lv_calendar.c **** /**
ARM GAS  C:\Users\tmj32\AppData\Local\Temp\cc0vWRpX.s 			page 26


 284:..\..\..\lvgl\version_6.1.2\lvgl\src\lv_objx/lv_calendar.c ****  * Set a style of a calendar.
 285:..\..\..\lvgl\version_6.1.2\lvgl\src\lv_objx/lv_calendar.c ****  * @param calendar pointer to calendar object
 286:..\..\..\lvgl\version_6.1.2\lvgl\src\lv_objx/lv_calendar.c ****  * @param type which style should be set
 287:..\..\..\lvgl\version_6.1.2\lvgl\src\lv_objx/lv_calendar.c ****  * @param style pointer to a style
 288:..\..\..\lvgl\version_6.1.2\lvgl\src\lv_objx/lv_calendar.c ****  *  */
 289:..\..\..\lvgl\version_6.1.2\lvgl\src\lv_objx/lv_calendar.c **** void lv_calendar_set_style(lv_obj_t * calendar, lv_calendar_style_t type, const lv_style_t * style)
 290:..\..\..\lvgl\version_6.1.2\lvgl\src\lv_objx/lv_calendar.c **** {
 911              		.loc 3 290 0
 912              		.cfi_startproc
 913              		@ args = 0, pretend = 0, frame = 24
 914              		@ frame_needed = 1, uses_anonymous_args = 0
 915 0000 80B5     		push	{r7, lr}
 916              		.cfi_def_cfa_offset 8
 917              		.cfi_offset 7, -8
 918              		.cfi_offset 14, -4
 919 0002 86B0     		sub	sp, sp, #24
 920              		.cfi_def_cfa_offset 32
 921 0004 00AF     		add	r7, sp, #0
 922              		.cfi_def_cfa_register 7
 923 0006 F860     		str	r0, [r7, #12]
 924 0008 0B46     		mov	r3, r1
 925 000a 7A60     		str	r2, [r7, #4]
 926 000c FB72     		strb	r3, [r7, #11]
 291:..\..\..\lvgl\version_6.1.2\lvgl\src\lv_objx/lv_calendar.c ****     LV_ASSERT_OBJ(calendar, LV_OBJX_NAME);
 292:..\..\..\lvgl\version_6.1.2\lvgl\src\lv_objx/lv_calendar.c **** 
 293:..\..\..\lvgl\version_6.1.2\lvgl\src\lv_objx/lv_calendar.c ****     lv_calendar_ext_t * ext = lv_obj_get_ext_attr(calendar);
 927              		.loc 3 293 0
 928 000e F868     		ldr	r0, [r7, #12]
 929 0010 FFF7FEFF 		bl	lv_obj_get_ext_attr
 930 0014 7861     		str	r0, [r7, #20]
 294:..\..\..\lvgl\version_6.1.2\lvgl\src\lv_objx/lv_calendar.c **** 
 295:..\..\..\lvgl\version_6.1.2\lvgl\src\lv_objx/lv_calendar.c ****     switch(type) {
 931              		.loc 3 295 0
 932 0016 FB7A     		ldrb	r3, [r7, #11]	@ zero_extendqisi2
 933 0018 072B     		cmp	r3, #7
 934 001a 34D8     		bhi	.L24
 935 001c 01A2     		adr	r2, .L26
 936 001e 52F823F0 		ldr	pc, [r2, r3, lsl #2]
 937 0022 00BF     		.p2align 2
 938              	.L26:
 939 0024 45000000 		.word	.L25+1
 940 0028 57000000 		.word	.L27+1
 941 002c 5F000000 		.word	.L28+1
 942 0030 4F000000 		.word	.L29+1
 943 0034 67000000 		.word	.L30+1
 944 0038 6F000000 		.word	.L31+1
 945 003c 7F000000 		.word	.L32+1
 946 0040 77000000 		.word	.L33+1
 947              		.p2align 1
 948              	.L25:
 296:..\..\..\lvgl\version_6.1.2\lvgl\src\lv_objx/lv_calendar.c ****         case LV_CALENDAR_STYLE_BG: lv_obj_set_style(calendar, style); break;
 949              		.loc 3 296 0
 950 0044 7968     		ldr	r1, [r7, #4]
 951 0046 F868     		ldr	r0, [r7, #12]
 952 0048 FFF7FEFF 		bl	lv_obj_set_style
 953 004c 1BE0     		b	.L24
 954              	.L29:
ARM GAS  C:\Users\tmj32\AppData\Local\Temp\cc0vWRpX.s 			page 27


 297:..\..\..\lvgl\version_6.1.2\lvgl\src\lv_objx/lv_calendar.c ****         case LV_CALENDAR_STYLE_DAY_NAMES: ext->style_day_names = style; break;
 955              		.loc 3 297 0
 956 004e 7B69     		ldr	r3, [r7, #20]
 957 0050 7A68     		ldr	r2, [r7, #4]
 958 0052 5A62     		str	r2, [r3, #36]
 959 0054 17E0     		b	.L24
 960              	.L27:
 298:..\..\..\lvgl\version_6.1.2\lvgl\src\lv_objx/lv_calendar.c ****         case LV_CALENDAR_STYLE_HEADER: ext->style_header = style; break;
 961              		.loc 3 298 0
 962 0056 7B69     		ldr	r3, [r7, #20]
 963 0058 7A68     		ldr	r2, [r7, #4]
 964 005a DA61     		str	r2, [r3, #28]
 965 005c 13E0     		b	.L24
 966              	.L28:
 299:..\..\..\lvgl\version_6.1.2\lvgl\src\lv_objx/lv_calendar.c ****         case LV_CALENDAR_STYLE_HEADER_PR: ext->style_header_pr = style; break;
 967              		.loc 3 299 0
 968 005e 7B69     		ldr	r3, [r7, #20]
 969 0060 7A68     		ldr	r2, [r7, #4]
 970 0062 1A62     		str	r2, [r3, #32]
 971 0064 0FE0     		b	.L24
 972              	.L30:
 300:..\..\..\lvgl\version_6.1.2\lvgl\src\lv_objx/lv_calendar.c ****         case LV_CALENDAR_STYLE_HIGHLIGHTED_DAYS: ext->style_highlighted_days = style; break;
 973              		.loc 3 300 0
 974 0066 7B69     		ldr	r3, [r7, #20]
 975 0068 7A68     		ldr	r2, [r7, #4]
 976 006a 9A62     		str	r2, [r3, #40]
 977 006c 0BE0     		b	.L24
 978              	.L31:
 301:..\..\..\lvgl\version_6.1.2\lvgl\src\lv_objx/lv_calendar.c ****         case LV_CALENDAR_STYLE_INACTIVE_DAYS: ext->style_inactive_days = style; break;
 979              		.loc 3 301 0
 980 006e 7B69     		ldr	r3, [r7, #20]
 981 0070 7A68     		ldr	r2, [r7, #4]
 982 0072 DA62     		str	r2, [r3, #44]
 983 0074 07E0     		b	.L24
 984              	.L33:
 302:..\..\..\lvgl\version_6.1.2\lvgl\src\lv_objx/lv_calendar.c ****         case LV_CALENDAR_STYLE_TODAY_BOX: ext->style_today_box = style; break;
 985              		.loc 3 302 0
 986 0076 7B69     		ldr	r3, [r7, #20]
 987 0078 7A68     		ldr	r2, [r7, #4]
 988 007a 5A63     		str	r2, [r3, #52]
 989 007c 03E0     		b	.L24
 990              	.L32:
 303:..\..\..\lvgl\version_6.1.2\lvgl\src\lv_objx/lv_calendar.c ****         case LV_CALENDAR_STYLE_WEEK_BOX: ext->style_week_box = style; break;
 991              		.loc 3 303 0
 992 007e 7B69     		ldr	r3, [r7, #20]
 993 0080 7A68     		ldr	r2, [r7, #4]
 994 0082 1A63     		str	r2, [r3, #48]
 995 0084 00BF     		nop
 996              	.L24:
 304:..\..\..\lvgl\version_6.1.2\lvgl\src\lv_objx/lv_calendar.c ****     }
 305:..\..\..\lvgl\version_6.1.2\lvgl\src\lv_objx/lv_calendar.c **** 
 306:..\..\..\lvgl\version_6.1.2\lvgl\src\lv_objx/lv_calendar.c ****     lv_obj_invalidate(calendar);
 997              		.loc 3 306 0
 998 0086 F868     		ldr	r0, [r7, #12]
 999 0088 FFF7FEFF 		bl	lv_obj_invalidate
 307:..\..\..\lvgl\version_6.1.2\lvgl\src\lv_objx/lv_calendar.c **** }
 1000              		.loc 3 307 0
ARM GAS  C:\Users\tmj32\AppData\Local\Temp\cc0vWRpX.s 			page 28


 1001 008c 00BF     		nop
 1002 008e 1837     		adds	r7, r7, #24
 1003              		.cfi_def_cfa_offset 8
 1004 0090 BD46     		mov	sp, r7
 1005              		.cfi_def_cfa_register 13
 1006              		@ sp needed
 1007 0092 80BD     		pop	{r7, pc}
 1008              		.cfi_endproc
 1009              	.LFE37:
 1010              		.size	lv_calendar_set_style, .-lv_calendar_set_style
 1011              		.section	.text.lv_calendar_get_today_date,"ax",%progbits
 1012              		.align	2
 1013              		.global	lv_calendar_get_today_date
 1014              		.thumb
 1015              		.thumb_func
 1016              		.type	lv_calendar_get_today_date, %function
 1017              	lv_calendar_get_today_date:
 1018              	.LFB38:
 308:..\..\..\lvgl\version_6.1.2\lvgl\src\lv_objx/lv_calendar.c **** 
 309:..\..\..\lvgl\version_6.1.2\lvgl\src\lv_objx/lv_calendar.c **** /*=====================
 310:..\..\..\lvgl\version_6.1.2\lvgl\src\lv_objx/lv_calendar.c ****  * Getter functions
 311:..\..\..\lvgl\version_6.1.2\lvgl\src\lv_objx/lv_calendar.c ****  *====================*/
 312:..\..\..\lvgl\version_6.1.2\lvgl\src\lv_objx/lv_calendar.c **** 
 313:..\..\..\lvgl\version_6.1.2\lvgl\src\lv_objx/lv_calendar.c **** /**
 314:..\..\..\lvgl\version_6.1.2\lvgl\src\lv_objx/lv_calendar.c ****  * Get the today's date
 315:..\..\..\lvgl\version_6.1.2\lvgl\src\lv_objx/lv_calendar.c ****  * @param calendar pointer to a calendar object
 316:..\..\..\lvgl\version_6.1.2\lvgl\src\lv_objx/lv_calendar.c ****  * @return return pointer to an `lv_calendar_date_t` variable containing the date of today.
 317:..\..\..\lvgl\version_6.1.2\lvgl\src\lv_objx/lv_calendar.c ****  */
 318:..\..\..\lvgl\version_6.1.2\lvgl\src\lv_objx/lv_calendar.c **** lv_calendar_date_t * lv_calendar_get_today_date(const lv_obj_t * calendar)
 319:..\..\..\lvgl\version_6.1.2\lvgl\src\lv_objx/lv_calendar.c **** {
 1019              		.loc 3 319 0
 1020              		.cfi_startproc
 1021              		@ args = 0, pretend = 0, frame = 16
 1022              		@ frame_needed = 1, uses_anonymous_args = 0
 1023 0000 80B5     		push	{r7, lr}
 1024              		.cfi_def_cfa_offset 8
 1025              		.cfi_offset 7, -8
 1026              		.cfi_offset 14, -4
 1027 0002 84B0     		sub	sp, sp, #16
 1028              		.cfi_def_cfa_offset 24
 1029 0004 00AF     		add	r7, sp, #0
 1030              		.cfi_def_cfa_register 7
 1031 0006 7860     		str	r0, [r7, #4]
 320:..\..\..\lvgl\version_6.1.2\lvgl\src\lv_objx/lv_calendar.c ****     LV_ASSERT_OBJ(calendar, LV_OBJX_NAME);
 321:..\..\..\lvgl\version_6.1.2\lvgl\src\lv_objx/lv_calendar.c **** 
 322:..\..\..\lvgl\version_6.1.2\lvgl\src\lv_objx/lv_calendar.c ****     lv_calendar_ext_t * ext = lv_obj_get_ext_attr(calendar);
 1032              		.loc 3 322 0
 1033 0008 7868     		ldr	r0, [r7, #4]
 1034 000a FFF7FEFF 		bl	lv_obj_get_ext_attr
 1035 000e F860     		str	r0, [r7, #12]
 323:..\..\..\lvgl\version_6.1.2\lvgl\src\lv_objx/lv_calendar.c ****     return &ext->today;
 1036              		.loc 3 323 0
 1037 0010 FB68     		ldr	r3, [r7, #12]
 324:..\..\..\lvgl\version_6.1.2\lvgl\src\lv_objx/lv_calendar.c **** }
 1038              		.loc 3 324 0
 1039 0012 1846     		mov	r0, r3
 1040 0014 1037     		adds	r7, r7, #16
ARM GAS  C:\Users\tmj32\AppData\Local\Temp\cc0vWRpX.s 			page 29


 1041              		.cfi_def_cfa_offset 8
 1042 0016 BD46     		mov	sp, r7
 1043              		.cfi_def_cfa_register 13
 1044              		@ sp needed
 1045 0018 80BD     		pop	{r7, pc}
 1046              		.cfi_endproc
 1047              	.LFE38:
 1048              		.size	lv_calendar_get_today_date, .-lv_calendar_get_today_date
 1049 001a 00BF     		.section	.text.lv_calendar_get_showed_date,"ax",%progbits
 1050              		.align	2
 1051              		.global	lv_calendar_get_showed_date
 1052              		.thumb
 1053              		.thumb_func
 1054              		.type	lv_calendar_get_showed_date, %function
 1055              	lv_calendar_get_showed_date:
 1056              	.LFB39:
 325:..\..\..\lvgl\version_6.1.2\lvgl\src\lv_objx/lv_calendar.c **** 
 326:..\..\..\lvgl\version_6.1.2\lvgl\src\lv_objx/lv_calendar.c **** /**
 327:..\..\..\lvgl\version_6.1.2\lvgl\src\lv_objx/lv_calendar.c ****  * Get the currently showed
 328:..\..\..\lvgl\version_6.1.2\lvgl\src\lv_objx/lv_calendar.c ****  * @param calendar pointer to a calendar object
 329:..\..\..\lvgl\version_6.1.2\lvgl\src\lv_objx/lv_calendar.c ****  * @return pointer to an `lv_calendar_date_t` variable containing the date is being shown.
 330:..\..\..\lvgl\version_6.1.2\lvgl\src\lv_objx/lv_calendar.c ****  */
 331:..\..\..\lvgl\version_6.1.2\lvgl\src\lv_objx/lv_calendar.c **** lv_calendar_date_t * lv_calendar_get_showed_date(const lv_obj_t * calendar)
 332:..\..\..\lvgl\version_6.1.2\lvgl\src\lv_objx/lv_calendar.c **** {
 1057              		.loc 3 332 0
 1058              		.cfi_startproc
 1059              		@ args = 0, pretend = 0, frame = 16
 1060              		@ frame_needed = 1, uses_anonymous_args = 0
 1061 0000 80B5     		push	{r7, lr}
 1062              		.cfi_def_cfa_offset 8
 1063              		.cfi_offset 7, -8
 1064              		.cfi_offset 14, -4
 1065 0002 84B0     		sub	sp, sp, #16
 1066              		.cfi_def_cfa_offset 24
 1067 0004 00AF     		add	r7, sp, #0
 1068              		.cfi_def_cfa_register 7
 1069 0006 7860     		str	r0, [r7, #4]
 333:..\..\..\lvgl\version_6.1.2\lvgl\src\lv_objx/lv_calendar.c ****     LV_ASSERT_OBJ(calendar, LV_OBJX_NAME);
 334:..\..\..\lvgl\version_6.1.2\lvgl\src\lv_objx/lv_calendar.c **** 
 335:..\..\..\lvgl\version_6.1.2\lvgl\src\lv_objx/lv_calendar.c ****     lv_calendar_ext_t * ext = lv_obj_get_ext_attr(calendar);
 1070              		.loc 3 335 0
 1071 0008 7868     		ldr	r0, [r7, #4]
 1072 000a FFF7FEFF 		bl	lv_obj_get_ext_attr
 1073 000e F860     		str	r0, [r7, #12]
 336:..\..\..\lvgl\version_6.1.2\lvgl\src\lv_objx/lv_calendar.c ****     return &ext->showed_date;
 1074              		.loc 3 336 0
 1075 0010 FB68     		ldr	r3, [r7, #12]
 1076 0012 0433     		adds	r3, r3, #4
 337:..\..\..\lvgl\version_6.1.2\lvgl\src\lv_objx/lv_calendar.c **** }
 1077              		.loc 3 337 0
 1078 0014 1846     		mov	r0, r3
 1079 0016 1037     		adds	r7, r7, #16
 1080              		.cfi_def_cfa_offset 8
 1081 0018 BD46     		mov	sp, r7
 1082              		.cfi_def_cfa_register 13
 1083              		@ sp needed
 1084 001a 80BD     		pop	{r7, pc}
ARM GAS  C:\Users\tmj32\AppData\Local\Temp\cc0vWRpX.s 			page 30


 1085              		.cfi_endproc
 1086              	.LFE39:
 1087              		.size	lv_calendar_get_showed_date, .-lv_calendar_get_showed_date
 1088              		.section	.text.lv_calendar_get_pressed_date,"ax",%progbits
 1089              		.align	2
 1090              		.global	lv_calendar_get_pressed_date
 1091              		.thumb
 1092              		.thumb_func
 1093              		.type	lv_calendar_get_pressed_date, %function
 1094              	lv_calendar_get_pressed_date:
 1095              	.LFB40:
 338:..\..\..\lvgl\version_6.1.2\lvgl\src\lv_objx/lv_calendar.c **** 
 339:..\..\..\lvgl\version_6.1.2\lvgl\src\lv_objx/lv_calendar.c **** /**
 340:..\..\..\lvgl\version_6.1.2\lvgl\src\lv_objx/lv_calendar.c ****  * Get the the pressed date.
 341:..\..\..\lvgl\version_6.1.2\lvgl\src\lv_objx/lv_calendar.c ****  * @param calendar pointer to a calendar object
 342:..\..\..\lvgl\version_6.1.2\lvgl\src\lv_objx/lv_calendar.c ****  * @return pointer to an `lv_calendar_date_t` variable containing the pressed date.
 343:..\..\..\lvgl\version_6.1.2\lvgl\src\lv_objx/lv_calendar.c ****  * `NULL` if not date pressed (e.g. the header)
 344:..\..\..\lvgl\version_6.1.2\lvgl\src\lv_objx/lv_calendar.c ****  */
 345:..\..\..\lvgl\version_6.1.2\lvgl\src\lv_objx/lv_calendar.c **** lv_calendar_date_t * lv_calendar_get_pressed_date(const lv_obj_t * calendar)
 346:..\..\..\lvgl\version_6.1.2\lvgl\src\lv_objx/lv_calendar.c **** {
 1096              		.loc 3 346 0
 1097              		.cfi_startproc
 1098              		@ args = 0, pretend = 0, frame = 16
 1099              		@ frame_needed = 1, uses_anonymous_args = 0
 1100 0000 80B5     		push	{r7, lr}
 1101              		.cfi_def_cfa_offset 8
 1102              		.cfi_offset 7, -8
 1103              		.cfi_offset 14, -4
 1104 0002 84B0     		sub	sp, sp, #16
 1105              		.cfi_def_cfa_offset 24
 1106 0004 00AF     		add	r7, sp, #0
 1107              		.cfi_def_cfa_register 7
 1108 0006 7860     		str	r0, [r7, #4]
 347:..\..\..\lvgl\version_6.1.2\lvgl\src\lv_objx/lv_calendar.c ****     LV_ASSERT_OBJ(calendar, LV_OBJX_NAME);
 348:..\..\..\lvgl\version_6.1.2\lvgl\src\lv_objx/lv_calendar.c **** 
 349:..\..\..\lvgl\version_6.1.2\lvgl\src\lv_objx/lv_calendar.c ****     lv_calendar_ext_t * ext = lv_obj_get_ext_attr(calendar);
 1109              		.loc 3 349 0
 1110 0008 7868     		ldr	r0, [r7, #4]
 1111 000a FFF7FEFF 		bl	lv_obj_get_ext_attr
 1112 000e F860     		str	r0, [r7, #12]
 350:..\..\..\lvgl\version_6.1.2\lvgl\src\lv_objx/lv_calendar.c ****     return ext->pressed_date.year != 0 ? &ext->pressed_date : NULL;
 1113              		.loc 3 350 0
 1114 0010 FB68     		ldr	r3, [r7, #12]
 1115 0012 1B8A     		ldrh	r3, [r3, #16]
 1116 0014 002B     		cmp	r3, #0
 1117 0016 02D0     		beq	.L39
 1118              		.loc 3 350 0 is_stmt 0 discriminator 1
 1119 0018 FB68     		ldr	r3, [r7, #12]
 1120 001a 1033     		adds	r3, r3, #16
 1121 001c 00E0     		b	.L41
 1122              	.L39:
 1123              		.loc 3 350 0 discriminator 2
 1124 001e 0023     		movs	r3, #0
 1125              	.L41:
 351:..\..\..\lvgl\version_6.1.2\lvgl\src\lv_objx/lv_calendar.c **** }
 1126              		.loc 3 351 0 is_stmt 1 discriminator 5
 1127 0020 1846     		mov	r0, r3
ARM GAS  C:\Users\tmj32\AppData\Local\Temp\cc0vWRpX.s 			page 31


 1128 0022 1037     		adds	r7, r7, #16
 1129              		.cfi_def_cfa_offset 8
 1130 0024 BD46     		mov	sp, r7
 1131              		.cfi_def_cfa_register 13
 1132              		@ sp needed
 1133 0026 80BD     		pop	{r7, pc}
 1134              		.cfi_endproc
 1135              	.LFE40:
 1136              		.size	lv_calendar_get_pressed_date, .-lv_calendar_get_pressed_date
 1137              		.section	.text.lv_calendar_get_highlighted_dates,"ax",%progbits
 1138              		.align	2
 1139              		.global	lv_calendar_get_highlighted_dates
 1140              		.thumb
 1141              		.thumb_func
 1142              		.type	lv_calendar_get_highlighted_dates, %function
 1143              	lv_calendar_get_highlighted_dates:
 1144              	.LFB41:
 352:..\..\..\lvgl\version_6.1.2\lvgl\src\lv_objx/lv_calendar.c **** 
 353:..\..\..\lvgl\version_6.1.2\lvgl\src\lv_objx/lv_calendar.c **** /**
 354:..\..\..\lvgl\version_6.1.2\lvgl\src\lv_objx/lv_calendar.c ****  * Get the the highlighted dates
 355:..\..\..\lvgl\version_6.1.2\lvgl\src\lv_objx/lv_calendar.c ****  * @param calendar pointer to a calendar object
 356:..\..\..\lvgl\version_6.1.2\lvgl\src\lv_objx/lv_calendar.c ****  * @return pointer to an `lv_calendar_date_t` array containing the dates.
 357:..\..\..\lvgl\version_6.1.2\lvgl\src\lv_objx/lv_calendar.c ****  */
 358:..\..\..\lvgl\version_6.1.2\lvgl\src\lv_objx/lv_calendar.c **** lv_calendar_date_t * lv_calendar_get_highlighted_dates(const lv_obj_t * calendar)
 359:..\..\..\lvgl\version_6.1.2\lvgl\src\lv_objx/lv_calendar.c **** {
 1145              		.loc 3 359 0
 1146              		.cfi_startproc
 1147              		@ args = 0, pretend = 0, frame = 16
 1148              		@ frame_needed = 1, uses_anonymous_args = 0
 1149 0000 80B5     		push	{r7, lr}
 1150              		.cfi_def_cfa_offset 8
 1151              		.cfi_offset 7, -8
 1152              		.cfi_offset 14, -4
 1153 0002 84B0     		sub	sp, sp, #16
 1154              		.cfi_def_cfa_offset 24
 1155 0004 00AF     		add	r7, sp, #0
 1156              		.cfi_def_cfa_register 7
 1157 0006 7860     		str	r0, [r7, #4]
 360:..\..\..\lvgl\version_6.1.2\lvgl\src\lv_objx/lv_calendar.c ****     LV_ASSERT_OBJ(calendar, LV_OBJX_NAME);
 361:..\..\..\lvgl\version_6.1.2\lvgl\src\lv_objx/lv_calendar.c **** 
 362:..\..\..\lvgl\version_6.1.2\lvgl\src\lv_objx/lv_calendar.c ****     lv_calendar_ext_t * ext = lv_obj_get_ext_attr(calendar);
 1158              		.loc 3 362 0
 1159 0008 7868     		ldr	r0, [r7, #4]
 1160 000a FFF7FEFF 		bl	lv_obj_get_ext_attr
 1161 000e F860     		str	r0, [r7, #12]
 363:..\..\..\lvgl\version_6.1.2\lvgl\src\lv_objx/lv_calendar.c ****     return ext->highlighted_dates;
 1162              		.loc 3 363 0
 1163 0010 FB68     		ldr	r3, [r7, #12]
 1164 0012 9B68     		ldr	r3, [r3, #8]
 364:..\..\..\lvgl\version_6.1.2\lvgl\src\lv_objx/lv_calendar.c **** }
 1165              		.loc 3 364 0
 1166 0014 1846     		mov	r0, r3
 1167 0016 1037     		adds	r7, r7, #16
 1168              		.cfi_def_cfa_offset 8
 1169 0018 BD46     		mov	sp, r7
 1170              		.cfi_def_cfa_register 13
 1171              		@ sp needed
ARM GAS  C:\Users\tmj32\AppData\Local\Temp\cc0vWRpX.s 			page 32


 1172 001a 80BD     		pop	{r7, pc}
 1173              		.cfi_endproc
 1174              	.LFE41:
 1175              		.size	lv_calendar_get_highlighted_dates, .-lv_calendar_get_highlighted_dates
 1176              		.section	.text.lv_calendar_get_highlighted_dates_num,"ax",%progbits
 1177              		.align	2
 1178              		.global	lv_calendar_get_highlighted_dates_num
 1179              		.thumb
 1180              		.thumb_func
 1181              		.type	lv_calendar_get_highlighted_dates_num, %function
 1182              	lv_calendar_get_highlighted_dates_num:
 1183              	.LFB42:
 365:..\..\..\lvgl\version_6.1.2\lvgl\src\lv_objx/lv_calendar.c **** 
 366:..\..\..\lvgl\version_6.1.2\lvgl\src\lv_objx/lv_calendar.c **** /**
 367:..\..\..\lvgl\version_6.1.2\lvgl\src\lv_objx/lv_calendar.c ****  * Get the number of the highlighted dates
 368:..\..\..\lvgl\version_6.1.2\lvgl\src\lv_objx/lv_calendar.c ****  * @param calendar pointer to a calendar object
 369:..\..\..\lvgl\version_6.1.2\lvgl\src\lv_objx/lv_calendar.c ****  * @return number of highlighted days
 370:..\..\..\lvgl\version_6.1.2\lvgl\src\lv_objx/lv_calendar.c ****  */
 371:..\..\..\lvgl\version_6.1.2\lvgl\src\lv_objx/lv_calendar.c **** uint16_t lv_calendar_get_highlighted_dates_num(const lv_obj_t * calendar)
 372:..\..\..\lvgl\version_6.1.2\lvgl\src\lv_objx/lv_calendar.c **** {
 1184              		.loc 3 372 0
 1185              		.cfi_startproc
 1186              		@ args = 0, pretend = 0, frame = 16
 1187              		@ frame_needed = 1, uses_anonymous_args = 0
 1188 0000 80B5     		push	{r7, lr}
 1189              		.cfi_def_cfa_offset 8
 1190              		.cfi_offset 7, -8
 1191              		.cfi_offset 14, -4
 1192 0002 84B0     		sub	sp, sp, #16
 1193              		.cfi_def_cfa_offset 24
 1194 0004 00AF     		add	r7, sp, #0
 1195              		.cfi_def_cfa_register 7
 1196 0006 7860     		str	r0, [r7, #4]
 373:..\..\..\lvgl\version_6.1.2\lvgl\src\lv_objx/lv_calendar.c ****     LV_ASSERT_OBJ(calendar, LV_OBJX_NAME);
 374:..\..\..\lvgl\version_6.1.2\lvgl\src\lv_objx/lv_calendar.c **** 
 375:..\..\..\lvgl\version_6.1.2\lvgl\src\lv_objx/lv_calendar.c ****     lv_calendar_ext_t * ext = lv_obj_get_ext_attr(calendar);
 1197              		.loc 3 375 0
 1198 0008 7868     		ldr	r0, [r7, #4]
 1199 000a FFF7FEFF 		bl	lv_obj_get_ext_attr
 1200 000e F860     		str	r0, [r7, #12]
 376:..\..\..\lvgl\version_6.1.2\lvgl\src\lv_objx/lv_calendar.c ****     return ext->highlighted_dates_num;
 1201              		.loc 3 376 0
 1202 0010 FB68     		ldr	r3, [r7, #12]
 1203 0012 DB89     		ldrh	r3, [r3, #14]
 377:..\..\..\lvgl\version_6.1.2\lvgl\src\lv_objx/lv_calendar.c **** }
 1204              		.loc 3 377 0
 1205 0014 1846     		mov	r0, r3
 1206 0016 1037     		adds	r7, r7, #16
 1207              		.cfi_def_cfa_offset 8
 1208 0018 BD46     		mov	sp, r7
 1209              		.cfi_def_cfa_register 13
 1210              		@ sp needed
 1211 001a 80BD     		pop	{r7, pc}
 1212              		.cfi_endproc
 1213              	.LFE42:
 1214              		.size	lv_calendar_get_highlighted_dates_num, .-lv_calendar_get_highlighted_dates_num
 1215              		.section	.text.lv_calendar_get_day_names,"ax",%progbits
ARM GAS  C:\Users\tmj32\AppData\Local\Temp\cc0vWRpX.s 			page 33


 1216              		.align	2
 1217              		.global	lv_calendar_get_day_names
 1218              		.thumb
 1219              		.thumb_func
 1220              		.type	lv_calendar_get_day_names, %function
 1221              	lv_calendar_get_day_names:
 1222              	.LFB43:
 378:..\..\..\lvgl\version_6.1.2\lvgl\src\lv_objx/lv_calendar.c **** 
 379:..\..\..\lvgl\version_6.1.2\lvgl\src\lv_objx/lv_calendar.c **** /**
 380:..\..\..\lvgl\version_6.1.2\lvgl\src\lv_objx/lv_calendar.c ****  * Get the name of the days
 381:..\..\..\lvgl\version_6.1.2\lvgl\src\lv_objx/lv_calendar.c ****  * @param calendar pointer to a calendar object
 382:..\..\..\lvgl\version_6.1.2\lvgl\src\lv_objx/lv_calendar.c ****  * @return pointer to the array of day names
 383:..\..\..\lvgl\version_6.1.2\lvgl\src\lv_objx/lv_calendar.c ****  */
 384:..\..\..\lvgl\version_6.1.2\lvgl\src\lv_objx/lv_calendar.c **** const char ** lv_calendar_get_day_names(const lv_obj_t * calendar)
 385:..\..\..\lvgl\version_6.1.2\lvgl\src\lv_objx/lv_calendar.c **** {
 1223              		.loc 3 385 0
 1224              		.cfi_startproc
 1225              		@ args = 0, pretend = 0, frame = 16
 1226              		@ frame_needed = 1, uses_anonymous_args = 0
 1227 0000 80B5     		push	{r7, lr}
 1228              		.cfi_def_cfa_offset 8
 1229              		.cfi_offset 7, -8
 1230              		.cfi_offset 14, -4
 1231 0002 84B0     		sub	sp, sp, #16
 1232              		.cfi_def_cfa_offset 24
 1233 0004 00AF     		add	r7, sp, #0
 1234              		.cfi_def_cfa_register 7
 1235 0006 7860     		str	r0, [r7, #4]
 386:..\..\..\lvgl\version_6.1.2\lvgl\src\lv_objx/lv_calendar.c ****     LV_ASSERT_OBJ(calendar, LV_OBJX_NAME);
 387:..\..\..\lvgl\version_6.1.2\lvgl\src\lv_objx/lv_calendar.c **** 
 388:..\..\..\lvgl\version_6.1.2\lvgl\src\lv_objx/lv_calendar.c ****     lv_calendar_ext_t * ext = lv_obj_get_ext_attr(calendar);
 1236              		.loc 3 388 0
 1237 0008 7868     		ldr	r0, [r7, #4]
 1238 000a FFF7FEFF 		bl	lv_obj_get_ext_attr
 1239 000e F860     		str	r0, [r7, #12]
 389:..\..\..\lvgl\version_6.1.2\lvgl\src\lv_objx/lv_calendar.c ****     return ext->day_names;
 1240              		.loc 3 389 0
 1241 0010 FB68     		ldr	r3, [r7, #12]
 1242 0012 5B69     		ldr	r3, [r3, #20]
 390:..\..\..\lvgl\version_6.1.2\lvgl\src\lv_objx/lv_calendar.c **** }
 1243              		.loc 3 390 0
 1244 0014 1846     		mov	r0, r3
 1245 0016 1037     		adds	r7, r7, #16
 1246              		.cfi_def_cfa_offset 8
 1247 0018 BD46     		mov	sp, r7
 1248              		.cfi_def_cfa_register 13
 1249              		@ sp needed
 1250 001a 80BD     		pop	{r7, pc}
 1251              		.cfi_endproc
 1252              	.LFE43:
 1253              		.size	lv_calendar_get_day_names, .-lv_calendar_get_day_names
 1254              		.section	.text.lv_calendar_get_month_names,"ax",%progbits
 1255              		.align	2
 1256              		.global	lv_calendar_get_month_names
 1257              		.thumb
 1258              		.thumb_func
 1259              		.type	lv_calendar_get_month_names, %function
ARM GAS  C:\Users\tmj32\AppData\Local\Temp\cc0vWRpX.s 			page 34


 1260              	lv_calendar_get_month_names:
 1261              	.LFB44:
 391:..\..\..\lvgl\version_6.1.2\lvgl\src\lv_objx/lv_calendar.c **** 
 392:..\..\..\lvgl\version_6.1.2\lvgl\src\lv_objx/lv_calendar.c **** /**
 393:..\..\..\lvgl\version_6.1.2\lvgl\src\lv_objx/lv_calendar.c ****  * Get the name of the month
 394:..\..\..\lvgl\version_6.1.2\lvgl\src\lv_objx/lv_calendar.c ****  * @param calendar pointer to a calendar object
 395:..\..\..\lvgl\version_6.1.2\lvgl\src\lv_objx/lv_calendar.c ****  * @return pointer to the array of month names
 396:..\..\..\lvgl\version_6.1.2\lvgl\src\lv_objx/lv_calendar.c ****  */
 397:..\..\..\lvgl\version_6.1.2\lvgl\src\lv_objx/lv_calendar.c **** const char ** lv_calendar_get_month_names(const lv_obj_t * calendar)
 398:..\..\..\lvgl\version_6.1.2\lvgl\src\lv_objx/lv_calendar.c **** {
 1262              		.loc 3 398 0
 1263              		.cfi_startproc
 1264              		@ args = 0, pretend = 0, frame = 16
 1265              		@ frame_needed = 1, uses_anonymous_args = 0
 1266 0000 80B5     		push	{r7, lr}
 1267              		.cfi_def_cfa_offset 8
 1268              		.cfi_offset 7, -8
 1269              		.cfi_offset 14, -4
 1270 0002 84B0     		sub	sp, sp, #16
 1271              		.cfi_def_cfa_offset 24
 1272 0004 00AF     		add	r7, sp, #0
 1273              		.cfi_def_cfa_register 7
 1274 0006 7860     		str	r0, [r7, #4]
 399:..\..\..\lvgl\version_6.1.2\lvgl\src\lv_objx/lv_calendar.c ****     LV_ASSERT_OBJ(calendar, LV_OBJX_NAME);
 400:..\..\..\lvgl\version_6.1.2\lvgl\src\lv_objx/lv_calendar.c **** 
 401:..\..\..\lvgl\version_6.1.2\lvgl\src\lv_objx/lv_calendar.c ****     lv_calendar_ext_t * ext = lv_obj_get_ext_attr(calendar);
 1275              		.loc 3 401 0
 1276 0008 7868     		ldr	r0, [r7, #4]
 1277 000a FFF7FEFF 		bl	lv_obj_get_ext_attr
 1278 000e F860     		str	r0, [r7, #12]
 402:..\..\..\lvgl\version_6.1.2\lvgl\src\lv_objx/lv_calendar.c ****     return ext->month_names;
 1279              		.loc 3 402 0
 1280 0010 FB68     		ldr	r3, [r7, #12]
 1281 0012 9B69     		ldr	r3, [r3, #24]
 403:..\..\..\lvgl\version_6.1.2\lvgl\src\lv_objx/lv_calendar.c **** }
 1282              		.loc 3 403 0
 1283 0014 1846     		mov	r0, r3
 1284 0016 1037     		adds	r7, r7, #16
 1285              		.cfi_def_cfa_offset 8
 1286 0018 BD46     		mov	sp, r7
 1287              		.cfi_def_cfa_register 13
 1288              		@ sp needed
 1289 001a 80BD     		pop	{r7, pc}
 1290              		.cfi_endproc
 1291              	.LFE44:
 1292              		.size	lv_calendar_get_month_names, .-lv_calendar_get_month_names
 1293              		.section	.text.lv_calendar_get_style,"ax",%progbits
 1294              		.align	2
 1295              		.global	lv_calendar_get_style
 1296              		.thumb
 1297              		.thumb_func
 1298              		.type	lv_calendar_get_style, %function
 1299              	lv_calendar_get_style:
 1300              	.LFB45:
 404:..\..\..\lvgl\version_6.1.2\lvgl\src\lv_objx/lv_calendar.c **** 
 405:..\..\..\lvgl\version_6.1.2\lvgl\src\lv_objx/lv_calendar.c **** /**
 406:..\..\..\lvgl\version_6.1.2\lvgl\src\lv_objx/lv_calendar.c ****  * Get style of a calendar.
ARM GAS  C:\Users\tmj32\AppData\Local\Temp\cc0vWRpX.s 			page 35


 407:..\..\..\lvgl\version_6.1.2\lvgl\src\lv_objx/lv_calendar.c ****  * @param calendar pointer to calendar object
 408:..\..\..\lvgl\version_6.1.2\lvgl\src\lv_objx/lv_calendar.c ****  * @param type which style should be get
 409:..\..\..\lvgl\version_6.1.2\lvgl\src\lv_objx/lv_calendar.c ****  * @return style pointer to the style
 410:..\..\..\lvgl\version_6.1.2\lvgl\src\lv_objx/lv_calendar.c ****  *  */
 411:..\..\..\lvgl\version_6.1.2\lvgl\src\lv_objx/lv_calendar.c **** const lv_style_t * lv_calendar_get_style(const lv_obj_t * calendar, lv_calendar_style_t type)
 412:..\..\..\lvgl\version_6.1.2\lvgl\src\lv_objx/lv_calendar.c **** {
 1301              		.loc 3 412 0
 1302              		.cfi_startproc
 1303              		@ args = 0, pretend = 0, frame = 16
 1304              		@ frame_needed = 1, uses_anonymous_args = 0
 1305 0000 80B5     		push	{r7, lr}
 1306              		.cfi_def_cfa_offset 8
 1307              		.cfi_offset 7, -8
 1308              		.cfi_offset 14, -4
 1309 0002 84B0     		sub	sp, sp, #16
 1310              		.cfi_def_cfa_offset 24
 1311 0004 00AF     		add	r7, sp, #0
 1312              		.cfi_def_cfa_register 7
 1313 0006 7860     		str	r0, [r7, #4]
 1314 0008 0B46     		mov	r3, r1
 1315 000a FB70     		strb	r3, [r7, #3]
 413:..\..\..\lvgl\version_6.1.2\lvgl\src\lv_objx/lv_calendar.c ****     LV_ASSERT_OBJ(calendar, LV_OBJX_NAME);
 414:..\..\..\lvgl\version_6.1.2\lvgl\src\lv_objx/lv_calendar.c **** 
 415:..\..\..\lvgl\version_6.1.2\lvgl\src\lv_objx/lv_calendar.c ****     const lv_style_t * style = NULL;
 1316              		.loc 3 415 0
 1317 000c 0023     		movs	r3, #0
 1318 000e FB60     		str	r3, [r7, #12]
 416:..\..\..\lvgl\version_6.1.2\lvgl\src\lv_objx/lv_calendar.c ****     lv_calendar_ext_t * ext  = lv_obj_get_ext_attr(calendar);
 1319              		.loc 3 416 0
 1320 0010 7868     		ldr	r0, [r7, #4]
 1321 0012 FFF7FEFF 		bl	lv_obj_get_ext_attr
 1322 0016 B860     		str	r0, [r7, #8]
 417:..\..\..\lvgl\version_6.1.2\lvgl\src\lv_objx/lv_calendar.c **** 
 418:..\..\..\lvgl\version_6.1.2\lvgl\src\lv_objx/lv_calendar.c ****     switch(type) {
 1323              		.loc 3 418 0
 1324 0018 FB78     		ldrb	r3, [r7, #3]	@ zero_extendqisi2
 1325 001a 072B     		cmp	r3, #7
 1326 001c 33D8     		bhi	.L51
 1327 001e 01A2     		adr	r2, .L53
 1328 0020 52F823F0 		ldr	pc, [r2, r3, lsl #2]
 1329              		.p2align 2
 1330              	.L53:
 1331 0024 45000000 		.word	.L52+1
 1332 0028 4F000000 		.word	.L54+1
 1333 002c 57000000 		.word	.L55+1
 1334 0030 5F000000 		.word	.L56+1
 1335 0034 67000000 		.word	.L57+1
 1336 0038 6F000000 		.word	.L58+1
 1337 003c 77000000 		.word	.L59+1
 1338 0040 7F000000 		.word	.L60+1
 1339              		.p2align 1
 1340              	.L52:
 419:..\..\..\lvgl\version_6.1.2\lvgl\src\lv_objx/lv_calendar.c ****         case LV_CALENDAR_STYLE_BG: style = lv_obj_get_style(calendar); break;
 1341              		.loc 3 419 0
 1342 0044 7868     		ldr	r0, [r7, #4]
 1343 0046 FFF7FEFF 		bl	lv_obj_get_style
 1344 004a F860     		str	r0, [r7, #12]
ARM GAS  C:\Users\tmj32\AppData\Local\Temp\cc0vWRpX.s 			page 36


 1345 004c 1EE0     		b	.L61
 1346              	.L54:
 420:..\..\..\lvgl\version_6.1.2\lvgl\src\lv_objx/lv_calendar.c ****         case LV_CALENDAR_STYLE_HEADER: style = ext->style_header; break;
 1347              		.loc 3 420 0
 1348 004e BB68     		ldr	r3, [r7, #8]
 1349 0050 DB69     		ldr	r3, [r3, #28]
 1350 0052 FB60     		str	r3, [r7, #12]
 1351 0054 1AE0     		b	.L61
 1352              	.L55:
 421:..\..\..\lvgl\version_6.1.2\lvgl\src\lv_objx/lv_calendar.c ****         case LV_CALENDAR_STYLE_HEADER_PR: style = ext->style_header_pr; break;
 1353              		.loc 3 421 0
 1354 0056 BB68     		ldr	r3, [r7, #8]
 1355 0058 1B6A     		ldr	r3, [r3, #32]
 1356 005a FB60     		str	r3, [r7, #12]
 1357 005c 16E0     		b	.L61
 1358              	.L56:
 422:..\..\..\lvgl\version_6.1.2\lvgl\src\lv_objx/lv_calendar.c ****         case LV_CALENDAR_STYLE_DAY_NAMES: style = ext->style_day_names; break;
 1359              		.loc 3 422 0
 1360 005e BB68     		ldr	r3, [r7, #8]
 1361 0060 5B6A     		ldr	r3, [r3, #36]
 1362 0062 FB60     		str	r3, [r7, #12]
 1363 0064 12E0     		b	.L61
 1364              	.L57:
 423:..\..\..\lvgl\version_6.1.2\lvgl\src\lv_objx/lv_calendar.c ****         case LV_CALENDAR_STYLE_HIGHLIGHTED_DAYS: style = ext->style_highlighted_days; break;
 1365              		.loc 3 423 0
 1366 0066 BB68     		ldr	r3, [r7, #8]
 1367 0068 9B6A     		ldr	r3, [r3, #40]
 1368 006a FB60     		str	r3, [r7, #12]
 1369 006c 0EE0     		b	.L61
 1370              	.L58:
 424:..\..\..\lvgl\version_6.1.2\lvgl\src\lv_objx/lv_calendar.c ****         case LV_CALENDAR_STYLE_INACTIVE_DAYS: style = ext->style_inactive_days; break;
 1371              		.loc 3 424 0
 1372 006e BB68     		ldr	r3, [r7, #8]
 1373 0070 DB6A     		ldr	r3, [r3, #44]
 1374 0072 FB60     		str	r3, [r7, #12]
 1375 0074 0AE0     		b	.L61
 1376              	.L59:
 425:..\..\..\lvgl\version_6.1.2\lvgl\src\lv_objx/lv_calendar.c ****         case LV_CALENDAR_STYLE_WEEK_BOX: style = ext->style_week_box; break;
 1377              		.loc 3 425 0
 1378 0076 BB68     		ldr	r3, [r7, #8]
 1379 0078 1B6B     		ldr	r3, [r3, #48]
 1380 007a FB60     		str	r3, [r7, #12]
 1381 007c 06E0     		b	.L61
 1382              	.L60:
 426:..\..\..\lvgl\version_6.1.2\lvgl\src\lv_objx/lv_calendar.c ****         case LV_CALENDAR_STYLE_TODAY_BOX: style = ext->style_today_box; break;
 1383              		.loc 3 426 0
 1384 007e BB68     		ldr	r3, [r7, #8]
 1385 0080 5B6B     		ldr	r3, [r3, #52]
 1386 0082 FB60     		str	r3, [r7, #12]
 1387 0084 02E0     		b	.L61
 1388              	.L51:
 427:..\..\..\lvgl\version_6.1.2\lvgl\src\lv_objx/lv_calendar.c ****         default: style = NULL; break;
 1389              		.loc 3 427 0
 1390 0086 0023     		movs	r3, #0
 1391 0088 FB60     		str	r3, [r7, #12]
 1392 008a 00BF     		nop
 1393              	.L61:
ARM GAS  C:\Users\tmj32\AppData\Local\Temp\cc0vWRpX.s 			page 37


 428:..\..\..\lvgl\version_6.1.2\lvgl\src\lv_objx/lv_calendar.c ****     }
 429:..\..\..\lvgl\version_6.1.2\lvgl\src\lv_objx/lv_calendar.c **** 
 430:..\..\..\lvgl\version_6.1.2\lvgl\src\lv_objx/lv_calendar.c ****     return style;
 1394              		.loc 3 430 0
 1395 008c FB68     		ldr	r3, [r7, #12]
 431:..\..\..\lvgl\version_6.1.2\lvgl\src\lv_objx/lv_calendar.c **** }
 1396              		.loc 3 431 0
 1397 008e 1846     		mov	r0, r3
 1398 0090 1037     		adds	r7, r7, #16
 1399              		.cfi_def_cfa_offset 8
 1400 0092 BD46     		mov	sp, r7
 1401              		.cfi_def_cfa_register 13
 1402              		@ sp needed
 1403 0094 80BD     		pop	{r7, pc}
 1404              		.cfi_endproc
 1405              	.LFE45:
 1406              		.size	lv_calendar_get_style, .-lv_calendar_get_style
 1407 0096 00BF     		.section	.text.lv_calendar_design,"ax",%progbits
 1408              		.align	2
 1409              		.thumb
 1410              		.thumb_func
 1411              		.type	lv_calendar_design, %function
 1412              	lv_calendar_design:
 1413              	.LFB46:
 432:..\..\..\lvgl\version_6.1.2\lvgl\src\lv_objx/lv_calendar.c **** 
 433:..\..\..\lvgl\version_6.1.2\lvgl\src\lv_objx/lv_calendar.c **** /*=====================
 434:..\..\..\lvgl\version_6.1.2\lvgl\src\lv_objx/lv_calendar.c ****  * Other functions
 435:..\..\..\lvgl\version_6.1.2\lvgl\src\lv_objx/lv_calendar.c ****  *====================*/
 436:..\..\..\lvgl\version_6.1.2\lvgl\src\lv_objx/lv_calendar.c **** 
 437:..\..\..\lvgl\version_6.1.2\lvgl\src\lv_objx/lv_calendar.c **** /*
 438:..\..\..\lvgl\version_6.1.2\lvgl\src\lv_objx/lv_calendar.c ****  * New object specific "other" functions come here
 439:..\..\..\lvgl\version_6.1.2\lvgl\src\lv_objx/lv_calendar.c ****  */
 440:..\..\..\lvgl\version_6.1.2\lvgl\src\lv_objx/lv_calendar.c **** 
 441:..\..\..\lvgl\version_6.1.2\lvgl\src\lv_objx/lv_calendar.c **** /**********************
 442:..\..\..\lvgl\version_6.1.2\lvgl\src\lv_objx/lv_calendar.c ****  *   STATIC FUNCTIONS
 443:..\..\..\lvgl\version_6.1.2\lvgl\src\lv_objx/lv_calendar.c ****  **********************/
 444:..\..\..\lvgl\version_6.1.2\lvgl\src\lv_objx/lv_calendar.c **** 
 445:..\..\..\lvgl\version_6.1.2\lvgl\src\lv_objx/lv_calendar.c **** /**
 446:..\..\..\lvgl\version_6.1.2\lvgl\src\lv_objx/lv_calendar.c ****  * Handle the drawing related tasks of the calendars
 447:..\..\..\lvgl\version_6.1.2\lvgl\src\lv_objx/lv_calendar.c ****  * @param calendar pointer to an object
 448:..\..\..\lvgl\version_6.1.2\lvgl\src\lv_objx/lv_calendar.c ****  * @param mask the object will be drawn only in this area
 449:..\..\..\lvgl\version_6.1.2\lvgl\src\lv_objx/lv_calendar.c ****  * @param mode LV_DESIGN_COVER_CHK: only check if the object fully covers the 'mask_p' area
 450:..\..\..\lvgl\version_6.1.2\lvgl\src\lv_objx/lv_calendar.c ****  *                                  (return 'true' if yes)
 451:..\..\..\lvgl\version_6.1.2\lvgl\src\lv_objx/lv_calendar.c ****  *             LV_DESIGN_DRAW: draw the object (always return 'true')
 452:..\..\..\lvgl\version_6.1.2\lvgl\src\lv_objx/lv_calendar.c ****  *             LV_DESIGN_DRAW_POST: drawing after every children are drawn
 453:..\..\..\lvgl\version_6.1.2\lvgl\src\lv_objx/lv_calendar.c ****  * @param return true/false, depends on 'mode'
 454:..\..\..\lvgl\version_6.1.2\lvgl\src\lv_objx/lv_calendar.c ****  */
 455:..\..\..\lvgl\version_6.1.2\lvgl\src\lv_objx/lv_calendar.c **** static bool lv_calendar_design(lv_obj_t * calendar, const lv_area_t * mask, lv_design_mode_t mode)
 456:..\..\..\lvgl\version_6.1.2\lvgl\src\lv_objx/lv_calendar.c **** {
 1414              		.loc 3 456 0
 1415              		.cfi_startproc
 1416              		@ args = 0, pretend = 0, frame = 24
 1417              		@ frame_needed = 1, uses_anonymous_args = 0
 1418 0000 90B5     		push	{r4, r7, lr}
 1419              		.cfi_def_cfa_offset 12
 1420              		.cfi_offset 4, -12
 1421              		.cfi_offset 7, -8
ARM GAS  C:\Users\tmj32\AppData\Local\Temp\cc0vWRpX.s 			page 38


 1422              		.cfi_offset 14, -4
 1423 0002 87B0     		sub	sp, sp, #28
 1424              		.cfi_def_cfa_offset 40
 1425 0004 00AF     		add	r7, sp, #0
 1426              		.cfi_def_cfa_register 7
 1427 0006 F860     		str	r0, [r7, #12]
 1428 0008 B960     		str	r1, [r7, #8]
 1429 000a 1346     		mov	r3, r2
 1430 000c FB71     		strb	r3, [r7, #7]
 457:..\..\..\lvgl\version_6.1.2\lvgl\src\lv_objx/lv_calendar.c ****     /*Return false if the object is not covers the mask_p area*/
 458:..\..\..\lvgl\version_6.1.2\lvgl\src\lv_objx/lv_calendar.c ****     if(mode == LV_DESIGN_COVER_CHK) {
 1431              		.loc 3 458 0
 1432 000e FB79     		ldrb	r3, [r7, #7]	@ zero_extendqisi2
 1433 0010 022B     		cmp	r3, #2
 1434 0012 07D1     		bne	.L64
 459:..\..\..\lvgl\version_6.1.2\lvgl\src\lv_objx/lv_calendar.c ****         return ancestor_design(calendar, mask, mode);
 1435              		.loc 3 459 0
 1436 0014 164B     		ldr	r3, .L67
 1437 0016 1B68     		ldr	r3, [r3]
 1438 0018 FA79     		ldrb	r2, [r7, #7]	@ zero_extendqisi2
 1439 001a B968     		ldr	r1, [r7, #8]
 1440 001c F868     		ldr	r0, [r7, #12]
 1441 001e 9847     		blx	r3
 1442 0020 0346     		mov	r3, r0
 1443 0022 21E0     		b	.L65
 1444              	.L64:
 460:..\..\..\lvgl\version_6.1.2\lvgl\src\lv_objx/lv_calendar.c ****     }
 461:..\..\..\lvgl\version_6.1.2\lvgl\src\lv_objx/lv_calendar.c ****     /*Draw the object*/
 462:..\..\..\lvgl\version_6.1.2\lvgl\src\lv_objx/lv_calendar.c ****     else if(mode == LV_DESIGN_DRAW_MAIN) {
 1445              		.loc 3 462 0
 1446 0024 FB79     		ldrb	r3, [r7, #7]	@ zero_extendqisi2
 1447 0026 002B     		cmp	r3, #0
 1448 0028 1DD1     		bne	.L66
 1449              	.LBB4:
 463:..\..\..\lvgl\version_6.1.2\lvgl\src\lv_objx/lv_calendar.c ****         lv_opa_t opa_scale = lv_obj_get_opa_scale(calendar);
 1450              		.loc 3 463 0
 1451 002a F868     		ldr	r0, [r7, #12]
 1452 002c FFF7FEFF 		bl	lv_obj_get_opa_scale
 1453 0030 0346     		mov	r3, r0
 1454 0032 FB75     		strb	r3, [r7, #23]
 464:..\..\..\lvgl\version_6.1.2\lvgl\src\lv_objx/lv_calendar.c ****         lv_draw_rect(&calendar->coords, mask, lv_calendar_get_style(calendar, LV_CALENDAR_STYLE_BG)
 1455              		.loc 3 464 0
 1456 0034 FB68     		ldr	r3, [r7, #12]
 1457 0036 03F11004 		add	r4, r3, #16
 1458 003a 0021     		movs	r1, #0
 1459 003c F868     		ldr	r0, [r7, #12]
 1460 003e FFF7FEFF 		bl	lv_calendar_get_style
 1461 0042 0246     		mov	r2, r0
 1462 0044 FB7D     		ldrb	r3, [r7, #23]	@ zero_extendqisi2
 1463 0046 B968     		ldr	r1, [r7, #8]
 1464 0048 2046     		mov	r0, r4
 1465 004a FFF7FEFF 		bl	lv_draw_rect
 465:..\..\..\lvgl\version_6.1.2\lvgl\src\lv_objx/lv_calendar.c **** 
 466:..\..\..\lvgl\version_6.1.2\lvgl\src\lv_objx/lv_calendar.c ****         draw_header(calendar, mask);
 1466              		.loc 3 466 0
 1467 004e B968     		ldr	r1, [r7, #8]
 1468 0050 F868     		ldr	r0, [r7, #12]
ARM GAS  C:\Users\tmj32\AppData\Local\Temp\cc0vWRpX.s 			page 39


 1469 0052 FFF7FEFF 		bl	draw_header
 467:..\..\..\lvgl\version_6.1.2\lvgl\src\lv_objx/lv_calendar.c ****         draw_day_names(calendar, mask);
 1470              		.loc 3 467 0
 1471 0056 B968     		ldr	r1, [r7, #8]
 1472 0058 F868     		ldr	r0, [r7, #12]
 1473 005a FFF7FEFF 		bl	draw_day_names
 468:..\..\..\lvgl\version_6.1.2\lvgl\src\lv_objx/lv_calendar.c ****         draw_days(calendar, mask);
 1474              		.loc 3 468 0
 1475 005e B968     		ldr	r1, [r7, #8]
 1476 0060 F868     		ldr	r0, [r7, #12]
 1477 0062 FFF7FEFF 		bl	draw_days
 1478              	.L66:
 1479              	.LBE4:
 469:..\..\..\lvgl\version_6.1.2\lvgl\src\lv_objx/lv_calendar.c **** 
 470:..\..\..\lvgl\version_6.1.2\lvgl\src\lv_objx/lv_calendar.c ****     }
 471:..\..\..\lvgl\version_6.1.2\lvgl\src\lv_objx/lv_calendar.c ****     /*Post draw when the children are drawn*/
 472:..\..\..\lvgl\version_6.1.2\lvgl\src\lv_objx/lv_calendar.c ****     else if(mode == LV_DESIGN_DRAW_POST) {
 473:..\..\..\lvgl\version_6.1.2\lvgl\src\lv_objx/lv_calendar.c ****     }
 474:..\..\..\lvgl\version_6.1.2\lvgl\src\lv_objx/lv_calendar.c **** 
 475:..\..\..\lvgl\version_6.1.2\lvgl\src\lv_objx/lv_calendar.c ****     return true;
 1480              		.loc 3 475 0
 1481 0066 0123     		movs	r3, #1
 1482              	.L65:
 476:..\..\..\lvgl\version_6.1.2\lvgl\src\lv_objx/lv_calendar.c **** }
 1483              		.loc 3 476 0
 1484 0068 1846     		mov	r0, r3
 1485 006a 1C37     		adds	r7, r7, #28
 1486              		.cfi_def_cfa_offset 12
 1487 006c BD46     		mov	sp, r7
 1488              		.cfi_def_cfa_register 13
 1489              		@ sp needed
 1490 006e 90BD     		pop	{r4, r7, pc}
 1491              	.L68:
 1492              		.align	2
 1493              	.L67:
 1494 0070 04000000 		.word	ancestor_design
 1495              		.cfi_endproc
 1496              	.LFE46:
 1497              		.size	lv_calendar_design, .-lv_calendar_design
 1498              		.section	.rodata
 1499 0085 000000   		.align	2
 1500              	.LC19:
 1501 0088 6C765F63 		.ascii	"lv_calendar\000"
 1501      616C656E 
 1501      64617200 
 1502              		.section	.text.lv_calendar_signal,"ax",%progbits
 1503              		.align	2
 1504              		.thumb
 1505              		.thumb_func
 1506              		.type	lv_calendar_signal, %function
 1507              	lv_calendar_signal:
 1508              	.LFB47:
 477:..\..\..\lvgl\version_6.1.2\lvgl\src\lv_objx/lv_calendar.c **** 
 478:..\..\..\lvgl\version_6.1.2\lvgl\src\lv_objx/lv_calendar.c **** /**
 479:..\..\..\lvgl\version_6.1.2\lvgl\src\lv_objx/lv_calendar.c ****  * Signal function of the calendar
 480:..\..\..\lvgl\version_6.1.2\lvgl\src\lv_objx/lv_calendar.c ****  * @param calendar pointer to a calendar object
 481:..\..\..\lvgl\version_6.1.2\lvgl\src\lv_objx/lv_calendar.c ****  * @param sign a signal type from lv_signal_t enum
ARM GAS  C:\Users\tmj32\AppData\Local\Temp\cc0vWRpX.s 			page 40


 482:..\..\..\lvgl\version_6.1.2\lvgl\src\lv_objx/lv_calendar.c ****  * @param param pointer to a signal specific variable
 483:..\..\..\lvgl\version_6.1.2\lvgl\src\lv_objx/lv_calendar.c ****  * @return LV_RES_OK: the object is not deleted in the function; LV_RES_INV: the object is deleted
 484:..\..\..\lvgl\version_6.1.2\lvgl\src\lv_objx/lv_calendar.c ****  */
 485:..\..\..\lvgl\version_6.1.2\lvgl\src\lv_objx/lv_calendar.c **** static lv_res_t lv_calendar_signal(lv_obj_t * calendar, lv_signal_t sign, void * param)
 486:..\..\..\lvgl\version_6.1.2\lvgl\src\lv_objx/lv_calendar.c **** {
 1509              		.loc 3 486 0
 1510              		.cfi_startproc
 1511              		@ args = 0, pretend = 0, frame = 56
 1512              		@ frame_needed = 1, uses_anonymous_args = 0
 1513 0000 B0B5     		push	{r4, r5, r7, lr}
 1514              		.cfi_def_cfa_offset 16
 1515              		.cfi_offset 4, -16
 1516              		.cfi_offset 5, -12
 1517              		.cfi_offset 7, -8
 1518              		.cfi_offset 14, -4
 1519 0002 8EB0     		sub	sp, sp, #56
 1520              		.cfi_def_cfa_offset 72
 1521 0004 00AF     		add	r7, sp, #0
 1522              		.cfi_def_cfa_register 7
 1523 0006 F860     		str	r0, [r7, #12]
 1524 0008 0B46     		mov	r3, r1
 1525 000a 7A60     		str	r2, [r7, #4]
 1526 000c FB72     		strb	r3, [r7, #11]
 487:..\..\..\lvgl\version_6.1.2\lvgl\src\lv_objx/lv_calendar.c ****     lv_res_t res;
 488:..\..\..\lvgl\version_6.1.2\lvgl\src\lv_objx/lv_calendar.c **** 
 489:..\..\..\lvgl\version_6.1.2\lvgl\src\lv_objx/lv_calendar.c ****     /* Include the ancient signal function */
 490:..\..\..\lvgl\version_6.1.2\lvgl\src\lv_objx/lv_calendar.c ****     res = ancestor_signal(calendar, sign, param);
 1527              		.loc 3 490 0
 1528 000e AF4B     		ldr	r3, .L100
 1529 0010 1B68     		ldr	r3, [r3]
 1530 0012 F97A     		ldrb	r1, [r7, #11]	@ zero_extendqisi2
 1531 0014 7A68     		ldr	r2, [r7, #4]
 1532 0016 F868     		ldr	r0, [r7, #12]
 1533 0018 9847     		blx	r3
 1534 001a 0346     		mov	r3, r0
 1535 001c 87F83730 		strb	r3, [r7, #55]
 491:..\..\..\lvgl\version_6.1.2\lvgl\src\lv_objx/lv_calendar.c ****     if(res != LV_RES_OK) return res;
 1536              		.loc 3 491 0
 1537 0020 97F83730 		ldrb	r3, [r7, #55]	@ zero_extendqisi2
 1538 0024 012B     		cmp	r3, #1
 1539 0026 02D0     		beq	.L70
 1540              		.loc 3 491 0 is_stmt 0 discriminator 1
 1541 0028 97F83730 		ldrb	r3, [r7, #55]	@ zero_extendqisi2
 1542 002c 60E1     		b	.L71
 1543              	.L70:
 492:..\..\..\lvgl\version_6.1.2\lvgl\src\lv_objx/lv_calendar.c ****     if(sign == LV_SIGNAL_GET_TYPE) return lv_obj_handle_get_type_signal(param, LV_OBJX_NAME);
 1544              		.loc 3 492 0 is_stmt 1
 1545 002e FB7A     		ldrb	r3, [r7, #11]	@ zero_extendqisi2
 1546 0030 072B     		cmp	r3, #7
 1547 0032 05D1     		bne	.L72
 1548              		.loc 3 492 0 is_stmt 0 discriminator 1
 1549 0034 A649     		ldr	r1, .L100+4
 1550 0036 7868     		ldr	r0, [r7, #4]
 1551 0038 FFF7FEFF 		bl	lv_obj_handle_get_type_signal
 1552 003c 0346     		mov	r3, r0
 1553 003e 57E1     		b	.L71
 1554              	.L72:
ARM GAS  C:\Users\tmj32\AppData\Local\Temp\cc0vWRpX.s 			page 41


 493:..\..\..\lvgl\version_6.1.2\lvgl\src\lv_objx/lv_calendar.c **** 
 494:..\..\..\lvgl\version_6.1.2\lvgl\src\lv_objx/lv_calendar.c ****     if(sign == LV_SIGNAL_CLEANUP) {
 1555              		.loc 3 494 0 is_stmt 1
 1556 0040 FB7A     		ldrb	r3, [r7, #11]	@ zero_extendqisi2
 1557 0042 002B     		cmp	r3, #0
 1558 0044 00F05281 		beq	.L73
 495:..\..\..\lvgl\version_6.1.2\lvgl\src\lv_objx/lv_calendar.c ****         /*Nothing to cleanup. (No dynamically allocated memory in 'ext')*/
 496:..\..\..\lvgl\version_6.1.2\lvgl\src\lv_objx/lv_calendar.c ****     } else if(sign == LV_SIGNAL_PRESSING) {
 1559              		.loc 3 496 0
 1560 0048 FB7A     		ldrb	r3, [r7, #11]	@ zero_extendqisi2
 1561 004a 092B     		cmp	r3, #9
 1562 004c 40F08C80 		bne	.L74
 1563              	.LBB5:
 497:..\..\..\lvgl\version_6.1.2\lvgl\src\lv_objx/lv_calendar.c ****         lv_calendar_ext_t * ext = lv_obj_get_ext_attr(calendar);
 1564              		.loc 3 497 0
 1565 0050 F868     		ldr	r0, [r7, #12]
 1566 0052 FFF7FEFF 		bl	lv_obj_get_ext_attr
 1567 0056 3862     		str	r0, [r7, #32]
 498:..\..\..\lvgl\version_6.1.2\lvgl\src\lv_objx/lv_calendar.c ****         lv_area_t header_area;
 499:..\..\..\lvgl\version_6.1.2\lvgl\src\lv_objx/lv_calendar.c ****         lv_area_copy(&header_area, &calendar->coords);
 1568              		.loc 3 499 0
 1569 0058 FB68     		ldr	r3, [r7, #12]
 1570 005a 03F11002 		add	r2, r3, #16
 1571 005e 07F11403 		add	r3, r7, #20
 1572 0062 1146     		mov	r1, r2
 1573 0064 1846     		mov	r0, r3
 1574 0066 FFF7FEFF 		bl	lv_area_copy
 500:..\..\..\lvgl\version_6.1.2\lvgl\src\lv_objx/lv_calendar.c ****         header_area.y2 = header_area.y1 + get_header_height(calendar);
 1575              		.loc 3 500 0
 1576 006a B7F91630 		ldrsh	r3, [r7, #22]
 1577 006e 9CB2     		uxth	r4, r3
 1578 0070 F868     		ldr	r0, [r7, #12]
 1579 0072 FFF7FEFF 		bl	get_header_height
 1580 0076 0346     		mov	r3, r0
 1581 0078 9BB2     		uxth	r3, r3
 1582 007a 2344     		add	r3, r3, r4
 1583 007c 9BB2     		uxth	r3, r3
 1584 007e 1BB2     		sxth	r3, r3
 1585 0080 7B83     		strh	r3, [r7, #26]	@ movhi
 501:..\..\..\lvgl\version_6.1.2\lvgl\src\lv_objx/lv_calendar.c **** 
 502:..\..\..\lvgl\version_6.1.2\lvgl\src\lv_objx/lv_calendar.c ****         lv_indev_t * indev = lv_indev_get_act();
 1586              		.loc 3 502 0
 1587 0082 FFF7FEFF 		bl	lv_indev_get_act
 1588 0086 F861     		str	r0, [r7, #28]
 503:..\..\..\lvgl\version_6.1.2\lvgl\src\lv_objx/lv_calendar.c ****         lv_point_t p;
 504:..\..\..\lvgl\version_6.1.2\lvgl\src\lv_objx/lv_calendar.c ****         lv_indev_get_point(indev, &p);
 1589              		.loc 3 504 0
 1590 0088 07F11003 		add	r3, r7, #16
 1591 008c 1946     		mov	r1, r3
 1592 008e F869     		ldr	r0, [r7, #28]
 1593 0090 FFF7FEFF 		bl	lv_indev_get_point
 505:..\..\..\lvgl\version_6.1.2\lvgl\src\lv_objx/lv_calendar.c **** 
 506:..\..\..\lvgl\version_6.1.2\lvgl\src\lv_objx/lv_calendar.c ****         /*If the header is pressed mark an arrow as pressed*/
 507:..\..\..\lvgl\version_6.1.2\lvgl\src\lv_objx/lv_calendar.c ****         if(lv_area_is_point_on(&header_area, &p)) {
 1594              		.loc 3 507 0
 1595 0094 07F11002 		add	r2, r7, #16
 1596 0098 07F11403 		add	r3, r7, #20
ARM GAS  C:\Users\tmj32\AppData\Local\Temp\cc0vWRpX.s 			page 42


 1597 009c 1146     		mov	r1, r2
 1598 009e 1846     		mov	r0, r3
 1599 00a0 FFF7FEFF 		bl	lv_area_is_point_on
 1600 00a4 0346     		mov	r3, r0
 1601 00a6 002B     		cmp	r3, #0
 1602 00a8 34D0     		beq	.L75
 508:..\..\..\lvgl\version_6.1.2\lvgl\src\lv_objx/lv_calendar.c ****             if(p.x < header_area.x1 + lv_area_get_width(&header_area) / 2) {
 1603              		.loc 3 508 0
 1604 00aa B7F91030 		ldrsh	r3, [r7, #16]
 1605 00ae 1C46     		mov	r4, r3
 1606 00b0 B7F91430 		ldrsh	r3, [r7, #20]
 1607 00b4 1D46     		mov	r5, r3
 1608 00b6 07F11403 		add	r3, r7, #20
 1609 00ba 1846     		mov	r0, r3
 1610 00bc FFF7FEFF 		bl	lv_area_get_width
 1611 00c0 0346     		mov	r3, r0
 1612 00c2 DA0F     		lsrs	r2, r3, #31
 1613 00c4 1344     		add	r3, r3, r2
 1614 00c6 5B10     		asrs	r3, r3, #1
 1615 00c8 1BB2     		sxth	r3, r3
 1616 00ca 2B44     		add	r3, r3, r5
 1617 00cc 9C42     		cmp	r4, r3
 1618 00ce 0CDA     		bge	.L76
 509:..\..\..\lvgl\version_6.1.2\lvgl\src\lv_objx/lv_calendar.c ****                 if(ext->btn_pressing != -1) lv_obj_invalidate(calendar);
 1619              		.loc 3 509 0
 1620 00d0 3B6A     		ldr	r3, [r7, #32]
 1621 00d2 93F90C30 		ldrsb	r3, [r3, #12]
 1622 00d6 B3F1FF3F 		cmp	r3, #-1
 1623 00da 02D0     		beq	.L77
 1624              		.loc 3 509 0 is_stmt 0 discriminator 1
 1625 00dc F868     		ldr	r0, [r7, #12]
 1626 00de FFF7FEFF 		bl	lv_obj_invalidate
 1627              	.L77:
 510:..\..\..\lvgl\version_6.1.2\lvgl\src\lv_objx/lv_calendar.c ****                 ext->btn_pressing = -1;
 1628              		.loc 3 510 0 is_stmt 1
 1629 00e2 3B6A     		ldr	r3, [r7, #32]
 1630 00e4 FF22     		movs	r2, #255
 1631 00e6 1A73     		strb	r2, [r3, #12]
 1632 00e8 0AE0     		b	.L78
 1633              	.L76:
 511:..\..\..\lvgl\version_6.1.2\lvgl\src\lv_objx/lv_calendar.c ****             } else {
 512:..\..\..\lvgl\version_6.1.2\lvgl\src\lv_objx/lv_calendar.c ****                 if(ext->btn_pressing != 1) lv_obj_invalidate(calendar);
 1634              		.loc 3 512 0
 1635 00ea 3B6A     		ldr	r3, [r7, #32]
 1636 00ec 93F90C30 		ldrsb	r3, [r3, #12]
 1637 00f0 012B     		cmp	r3, #1
 1638 00f2 02D0     		beq	.L79
 1639              		.loc 3 512 0 is_stmt 0 discriminator 1
 1640 00f4 F868     		ldr	r0, [r7, #12]
 1641 00f6 FFF7FEFF 		bl	lv_obj_invalidate
 1642              	.L79:
 513:..\..\..\lvgl\version_6.1.2\lvgl\src\lv_objx/lv_calendar.c ****                 ext->btn_pressing = 1;
 1643              		.loc 3 513 0 is_stmt 1
 1644 00fa 3B6A     		ldr	r3, [r7, #32]
 1645 00fc 0122     		movs	r2, #1
 1646 00fe 1A73     		strb	r2, [r3, #12]
 1647              	.L78:
ARM GAS  C:\Users\tmj32\AppData\Local\Temp\cc0vWRpX.s 			page 43


 514:..\..\..\lvgl\version_6.1.2\lvgl\src\lv_objx/lv_calendar.c ****             }
 515:..\..\..\lvgl\version_6.1.2\lvgl\src\lv_objx/lv_calendar.c **** 
 516:..\..\..\lvgl\version_6.1.2\lvgl\src\lv_objx/lv_calendar.c ****             ext->pressed_date.year  = 0;
 1648              		.loc 3 516 0
 1649 0100 3B6A     		ldr	r3, [r7, #32]
 1650 0102 0022     		movs	r2, #0
 1651 0104 1A82     		strh	r2, [r3, #16]	@ movhi
 517:..\..\..\lvgl\version_6.1.2\lvgl\src\lv_objx/lv_calendar.c ****             ext->pressed_date.month = 0;
 1652              		.loc 3 517 0
 1653 0106 3B6A     		ldr	r3, [r7, #32]
 1654 0108 0022     		movs	r2, #0
 1655 010a 9A74     		strb	r2, [r3, #18]
 518:..\..\..\lvgl\version_6.1.2\lvgl\src\lv_objx/lv_calendar.c ****             ext->pressed_date.day   = 0;
 1656              		.loc 3 518 0
 1657 010c 3B6A     		ldr	r3, [r7, #32]
 1658 010e 0022     		movs	r2, #0
 1659 0110 DA74     		strb	r2, [r3, #19]
 1660 0112 EBE0     		b	.L73
 1661              	.L75:
 519:..\..\..\lvgl\version_6.1.2\lvgl\src\lv_objx/lv_calendar.c ****         }
 520:..\..\..\lvgl\version_6.1.2\lvgl\src\lv_objx/lv_calendar.c ****         /*If a day is pressed save it*/
 521:..\..\..\lvgl\version_6.1.2\lvgl\src\lv_objx/lv_calendar.c ****         else if(calculate_touched_day(calendar, &p)) {
 1662              		.loc 3 521 0
 1663 0114 07F11003 		add	r3, r7, #16
 1664 0118 1946     		mov	r1, r3
 1665 011a F868     		ldr	r0, [r7, #12]
 1666 011c FFF7FEFF 		bl	calculate_touched_day
 1667 0120 0346     		mov	r3, r0
 1668 0122 002B     		cmp	r3, #0
 1669 0124 0BD0     		beq	.L81
 522:..\..\..\lvgl\version_6.1.2\lvgl\src\lv_objx/lv_calendar.c ****             if(ext->btn_pressing != 0) lv_obj_invalidate(calendar);
 1670              		.loc 3 522 0
 1671 0126 3B6A     		ldr	r3, [r7, #32]
 1672 0128 93F90C30 		ldrsb	r3, [r3, #12]
 1673 012c 002B     		cmp	r3, #0
 1674 012e 02D0     		beq	.L82
 1675              		.loc 3 522 0 is_stmt 0 discriminator 1
 1676 0130 F868     		ldr	r0, [r7, #12]
 1677 0132 FFF7FEFF 		bl	lv_obj_invalidate
 1678              	.L82:
 523:..\..\..\lvgl\version_6.1.2\lvgl\src\lv_objx/lv_calendar.c ****             ext->btn_pressing = 0;
 1679              		.loc 3 523 0 is_stmt 1
 1680 0136 3B6A     		ldr	r3, [r7, #32]
 1681 0138 0022     		movs	r2, #0
 1682 013a 1A73     		strb	r2, [r3, #12]
 1683 013c D6E0     		b	.L73
 1684              	.L81:
 524:..\..\..\lvgl\version_6.1.2\lvgl\src\lv_objx/lv_calendar.c ****         }
 525:..\..\..\lvgl\version_6.1.2\lvgl\src\lv_objx/lv_calendar.c ****         /*ELse set a deafault state*/
 526:..\..\..\lvgl\version_6.1.2\lvgl\src\lv_objx/lv_calendar.c ****         else {
 527:..\..\..\lvgl\version_6.1.2\lvgl\src\lv_objx/lv_calendar.c ****             if(ext->btn_pressing != 0) lv_obj_invalidate(calendar);
 1685              		.loc 3 527 0
 1686 013e 3B6A     		ldr	r3, [r7, #32]
 1687 0140 93F90C30 		ldrsb	r3, [r3, #12]
 1688 0144 002B     		cmp	r3, #0
 1689 0146 02D0     		beq	.L83
 1690              		.loc 3 527 0 is_stmt 0 discriminator 1
ARM GAS  C:\Users\tmj32\AppData\Local\Temp\cc0vWRpX.s 			page 44


 1691 0148 F868     		ldr	r0, [r7, #12]
 1692 014a FFF7FEFF 		bl	lv_obj_invalidate
 1693              	.L83:
 528:..\..\..\lvgl\version_6.1.2\lvgl\src\lv_objx/lv_calendar.c ****             ext->btn_pressing       = 0;
 1694              		.loc 3 528 0 is_stmt 1
 1695 014e 3B6A     		ldr	r3, [r7, #32]
 1696 0150 0022     		movs	r2, #0
 1697 0152 1A73     		strb	r2, [r3, #12]
 529:..\..\..\lvgl\version_6.1.2\lvgl\src\lv_objx/lv_calendar.c ****             ext->pressed_date.year  = 0;
 1698              		.loc 3 529 0
 1699 0154 3B6A     		ldr	r3, [r7, #32]
 1700 0156 0022     		movs	r2, #0
 1701 0158 1A82     		strh	r2, [r3, #16]	@ movhi
 530:..\..\..\lvgl\version_6.1.2\lvgl\src\lv_objx/lv_calendar.c ****             ext->pressed_date.month = 0;
 1702              		.loc 3 530 0
 1703 015a 3B6A     		ldr	r3, [r7, #32]
 1704 015c 0022     		movs	r2, #0
 1705 015e 9A74     		strb	r2, [r3, #18]
 531:..\..\..\lvgl\version_6.1.2\lvgl\src\lv_objx/lv_calendar.c ****             ext->pressed_date.day   = 0;
 1706              		.loc 3 531 0
 1707 0160 3B6A     		ldr	r3, [r7, #32]
 1708 0162 0022     		movs	r2, #0
 1709 0164 DA74     		strb	r2, [r3, #19]
 1710 0166 C1E0     		b	.L73
 1711              	.L74:
 1712              	.LBE5:
 532:..\..\..\lvgl\version_6.1.2\lvgl\src\lv_objx/lv_calendar.c ****         }
 533:..\..\..\lvgl\version_6.1.2\lvgl\src\lv_objx/lv_calendar.c ****     } else if(sign == LV_SIGNAL_PRESS_LOST) {
 1713              		.loc 3 533 0
 1714 0168 FB7A     		ldrb	r3, [r7, #11]	@ zero_extendqisi2
 1715 016a 0A2B     		cmp	r3, #10
 1716 016c 0AD1     		bne	.L84
 1717              	.LBB6:
 534:..\..\..\lvgl\version_6.1.2\lvgl\src\lv_objx/lv_calendar.c ****         lv_calendar_ext_t * ext = lv_obj_get_ext_attr(calendar);
 1718              		.loc 3 534 0
 1719 016e F868     		ldr	r0, [r7, #12]
 1720 0170 FFF7FEFF 		bl	lv_obj_get_ext_attr
 1721 0174 7862     		str	r0, [r7, #36]
 535:..\..\..\lvgl\version_6.1.2\lvgl\src\lv_objx/lv_calendar.c ****         ext->btn_pressing       = 0;
 1722              		.loc 3 535 0
 1723 0176 7B6A     		ldr	r3, [r7, #36]
 1724 0178 0022     		movs	r2, #0
 1725 017a 1A73     		strb	r2, [r3, #12]
 536:..\..\..\lvgl\version_6.1.2\lvgl\src\lv_objx/lv_calendar.c ****         lv_obj_invalidate(calendar);
 1726              		.loc 3 536 0
 1727 017c F868     		ldr	r0, [r7, #12]
 1728 017e FFF7FEFF 		bl	lv_obj_invalidate
 1729              	.LBE6:
 1730 0182 B3E0     		b	.L73
 1731              	.L84:
 537:..\..\..\lvgl\version_6.1.2\lvgl\src\lv_objx/lv_calendar.c **** 
 538:..\..\..\lvgl\version_6.1.2\lvgl\src\lv_objx/lv_calendar.c ****     } else if(sign == LV_SIGNAL_RELEASED) {
 1732              		.loc 3 538 0
 1733 0184 FB7A     		ldrb	r3, [r7, #11]	@ zero_extendqisi2
 1734 0186 0B2B     		cmp	r3, #11
 1735 0188 59D1     		bne	.L85
 1736              	.LBB7:
ARM GAS  C:\Users\tmj32\AppData\Local\Temp\cc0vWRpX.s 			page 45


 539:..\..\..\lvgl\version_6.1.2\lvgl\src\lv_objx/lv_calendar.c ****         lv_calendar_ext_t * ext = lv_obj_get_ext_attr(calendar);
 1737              		.loc 3 539 0
 1738 018a F868     		ldr	r0, [r7, #12]
 1739 018c FFF7FEFF 		bl	lv_obj_get_ext_attr
 1740 0190 3863     		str	r0, [r7, #48]
 540:..\..\..\lvgl\version_6.1.2\lvgl\src\lv_objx/lv_calendar.c ****         if(ext->btn_pressing < 0) {
 1741              		.loc 3 540 0
 1742 0192 3B6B     		ldr	r3, [r7, #48]
 1743 0194 93F90C30 		ldrsb	r3, [r3, #12]
 1744 0198 002B     		cmp	r3, #0
 1745 019a 18DA     		bge	.L86
 541:..\..\..\lvgl\version_6.1.2\lvgl\src\lv_objx/lv_calendar.c ****             if(ext->showed_date.month <= 1) {
 1746              		.loc 3 541 0
 1747 019c 3B6B     		ldr	r3, [r7, #48]
 1748 019e 93F90630 		ldrsb	r3, [r3, #6]
 1749 01a2 012B     		cmp	r3, #1
 1750 01a4 09DC     		bgt	.L87
 542:..\..\..\lvgl\version_6.1.2\lvgl\src\lv_objx/lv_calendar.c ****                 ext->showed_date.month = 12;
 1751              		.loc 3 542 0
 1752 01a6 3B6B     		ldr	r3, [r7, #48]
 1753 01a8 0C22     		movs	r2, #12
 1754 01aa 9A71     		strb	r2, [r3, #6]
 543:..\..\..\lvgl\version_6.1.2\lvgl\src\lv_objx/lv_calendar.c ****                 ext->showed_date.year--;
 1755              		.loc 3 543 0
 1756 01ac 3B6B     		ldr	r3, [r7, #48]
 1757 01ae 9B88     		ldrh	r3, [r3, #4]
 1758 01b0 013B     		subs	r3, r3, #1
 1759 01b2 9AB2     		uxth	r2, r3
 1760 01b4 3B6B     		ldr	r3, [r7, #48]
 1761 01b6 9A80     		strh	r2, [r3, #4]	@ movhi
 1762 01b8 3AE0     		b	.L89
 1763              	.L87:
 544:..\..\..\lvgl\version_6.1.2\lvgl\src\lv_objx/lv_calendar.c ****             } else {
 545:..\..\..\lvgl\version_6.1.2\lvgl\src\lv_objx/lv_calendar.c ****                 ext->showed_date.month--;
 1764              		.loc 3 545 0
 1765 01ba 3B6B     		ldr	r3, [r7, #48]
 1766 01bc 93F90630 		ldrsb	r3, [r3, #6]
 1767 01c0 DBB2     		uxtb	r3, r3
 1768 01c2 013B     		subs	r3, r3, #1
 1769 01c4 DBB2     		uxtb	r3, r3
 1770 01c6 5AB2     		sxtb	r2, r3
 1771 01c8 3B6B     		ldr	r3, [r7, #48]
 1772 01ca 9A71     		strb	r2, [r3, #6]
 1773 01cc 30E0     		b	.L89
 1774              	.L86:
 546:..\..\..\lvgl\version_6.1.2\lvgl\src\lv_objx/lv_calendar.c ****             }
 547:..\..\..\lvgl\version_6.1.2\lvgl\src\lv_objx/lv_calendar.c ****         } else if(ext->btn_pressing > 0) {
 1775              		.loc 3 547 0
 1776 01ce 3B6B     		ldr	r3, [r7, #48]
 1777 01d0 93F90C30 		ldrsb	r3, [r3, #12]
 1778 01d4 002B     		cmp	r3, #0
 1779 01d6 18DD     		ble	.L90
 548:..\..\..\lvgl\version_6.1.2\lvgl\src\lv_objx/lv_calendar.c ****             if(ext->showed_date.month >= 12) {
 1780              		.loc 3 548 0
 1781 01d8 3B6B     		ldr	r3, [r7, #48]
 1782 01da 93F90630 		ldrsb	r3, [r3, #6]
 1783 01de 0B2B     		cmp	r3, #11
ARM GAS  C:\Users\tmj32\AppData\Local\Temp\cc0vWRpX.s 			page 46


 1784 01e0 09DD     		ble	.L91
 549:..\..\..\lvgl\version_6.1.2\lvgl\src\lv_objx/lv_calendar.c ****                 ext->showed_date.month = 1;
 1785              		.loc 3 549 0
 1786 01e2 3B6B     		ldr	r3, [r7, #48]
 1787 01e4 0122     		movs	r2, #1
 1788 01e6 9A71     		strb	r2, [r3, #6]
 550:..\..\..\lvgl\version_6.1.2\lvgl\src\lv_objx/lv_calendar.c ****                 ext->showed_date.year++;
 1789              		.loc 3 550 0
 1790 01e8 3B6B     		ldr	r3, [r7, #48]
 1791 01ea 9B88     		ldrh	r3, [r3, #4]
 1792 01ec 0133     		adds	r3, r3, #1
 1793 01ee 9AB2     		uxth	r2, r3
 1794 01f0 3B6B     		ldr	r3, [r7, #48]
 1795 01f2 9A80     		strh	r2, [r3, #4]	@ movhi
 1796 01f4 1CE0     		b	.L89
 1797              	.L91:
 551:..\..\..\lvgl\version_6.1.2\lvgl\src\lv_objx/lv_calendar.c ****             } else {
 552:..\..\..\lvgl\version_6.1.2\lvgl\src\lv_objx/lv_calendar.c ****                 ext->showed_date.month++;
 1798              		.loc 3 552 0
 1799 01f6 3B6B     		ldr	r3, [r7, #48]
 1800 01f8 93F90630 		ldrsb	r3, [r3, #6]
 1801 01fc DBB2     		uxtb	r3, r3
 1802 01fe 0133     		adds	r3, r3, #1
 1803 0200 DBB2     		uxtb	r3, r3
 1804 0202 5AB2     		sxtb	r2, r3
 1805 0204 3B6B     		ldr	r3, [r7, #48]
 1806 0206 9A71     		strb	r2, [r3, #6]
 1807 0208 12E0     		b	.L89
 1808              	.L90:
 553:..\..\..\lvgl\version_6.1.2\lvgl\src\lv_objx/lv_calendar.c ****             }
 554:..\..\..\lvgl\version_6.1.2\lvgl\src\lv_objx/lv_calendar.c ****         } else if(ext->pressed_date.year != 0) {
 1809              		.loc 3 554 0
 1810 020a 3B6B     		ldr	r3, [r7, #48]
 1811 020c 1B8A     		ldrh	r3, [r3, #16]
 1812 020e 002B     		cmp	r3, #0
 1813 0210 0ED0     		beq	.L89
 555:..\..\..\lvgl\version_6.1.2\lvgl\src\lv_objx/lv_calendar.c ****             res = lv_event_send(calendar, LV_EVENT_VALUE_CHANGED, NULL);
 1814              		.loc 3 555 0
 1815 0212 0022     		movs	r2, #0
 1816 0214 0E21     		movs	r1, #14
 1817 0216 F868     		ldr	r0, [r7, #12]
 1818 0218 FFF7FEFF 		bl	lv_event_send
 1819 021c 0346     		mov	r3, r0
 1820 021e 87F83730 		strb	r3, [r7, #55]
 556:..\..\..\lvgl\version_6.1.2\lvgl\src\lv_objx/lv_calendar.c ****             if(res != LV_RES_OK) return res;
 1821              		.loc 3 556 0
 1822 0222 97F83730 		ldrb	r3, [r7, #55]	@ zero_extendqisi2
 1823 0226 012B     		cmp	r3, #1
 1824 0228 02D0     		beq	.L89
 1825              		.loc 3 556 0 is_stmt 0 discriminator 1
 1826 022a 97F83730 		ldrb	r3, [r7, #55]	@ zero_extendqisi2
 1827 022e 5FE0     		b	.L71
 1828              	.L89:
 557:..\..\..\lvgl\version_6.1.2\lvgl\src\lv_objx/lv_calendar.c ****         }
 558:..\..\..\lvgl\version_6.1.2\lvgl\src\lv_objx/lv_calendar.c **** 
 559:..\..\..\lvgl\version_6.1.2\lvgl\src\lv_objx/lv_calendar.c ****         ext->btn_pressing = 0;
 1829              		.loc 3 559 0 is_stmt 1
ARM GAS  C:\Users\tmj32\AppData\Local\Temp\cc0vWRpX.s 			page 47


 1830 0230 3B6B     		ldr	r3, [r7, #48]
 1831 0232 0022     		movs	r2, #0
 1832 0234 1A73     		strb	r2, [r3, #12]
 560:..\..\..\lvgl\version_6.1.2\lvgl\src\lv_objx/lv_calendar.c ****         lv_obj_invalidate(calendar);
 1833              		.loc 3 560 0
 1834 0236 F868     		ldr	r0, [r7, #12]
 1835 0238 FFF7FEFF 		bl	lv_obj_invalidate
 1836              	.LBE7:
 1837 023c 56E0     		b	.L73
 1838              	.L85:
 561:..\..\..\lvgl\version_6.1.2\lvgl\src\lv_objx/lv_calendar.c ****     } else if(sign == LV_SIGNAL_CONTROL) {
 1839              		.loc 3 561 0
 1840 023e FB7A     		ldrb	r3, [r7, #11]	@ zero_extendqisi2
 1841 0240 122B     		cmp	r3, #18
 1842 0242 53D1     		bne	.L73
 1843              	.LBB8:
 562:..\..\..\lvgl\version_6.1.2\lvgl\src\lv_objx/lv_calendar.c ****         uint8_t c               = *((uint8_t *)param);
 1844              		.loc 3 562 0
 1845 0244 7B68     		ldr	r3, [r7, #4]
 1846 0246 1B78     		ldrb	r3, [r3]
 1847 0248 87F82F30 		strb	r3, [r7, #47]
 563:..\..\..\lvgl\version_6.1.2\lvgl\src\lv_objx/lv_calendar.c ****         lv_calendar_ext_t * ext = lv_obj_get_ext_attr(calendar);
 1848              		.loc 3 563 0
 1849 024c F868     		ldr	r0, [r7, #12]
 1850 024e FFF7FEFF 		bl	lv_obj_get_ext_attr
 1851 0252 B862     		str	r0, [r7, #40]
 564:..\..\..\lvgl\version_6.1.2\lvgl\src\lv_objx/lv_calendar.c ****         if(c == LV_KEY_RIGHT || c == LV_KEY_UP) {
 1852              		.loc 3 564 0
 1853 0254 97F82F30 		ldrb	r3, [r7, #47]	@ zero_extendqisi2
 1854 0258 132B     		cmp	r3, #19
 1855 025a 03D0     		beq	.L93
 1856              		.loc 3 564 0 is_stmt 0 discriminator 1
 1857 025c 97F82F30 		ldrb	r3, [r7, #47]	@ zero_extendqisi2
 1858 0260 112B     		cmp	r3, #17
 1859 0262 1BD1     		bne	.L94
 1860              	.L93:
 565:..\..\..\lvgl\version_6.1.2\lvgl\src\lv_objx/lv_calendar.c ****             if(ext->showed_date.month >= 12) {
 1861              		.loc 3 565 0 is_stmt 1
 1862 0264 BB6A     		ldr	r3, [r7, #40]
 1863 0266 93F90630 		ldrsb	r3, [r3, #6]
 1864 026a 0B2B     		cmp	r3, #11
 1865 026c 09DD     		ble	.L95
 566:..\..\..\lvgl\version_6.1.2\lvgl\src\lv_objx/lv_calendar.c ****                 ext->showed_date.month = 1;
 1866              		.loc 3 566 0
 1867 026e BB6A     		ldr	r3, [r7, #40]
 1868 0270 0122     		movs	r2, #1
 1869 0272 9A71     		strb	r2, [r3, #6]
 567:..\..\..\lvgl\version_6.1.2\lvgl\src\lv_objx/lv_calendar.c ****                 ext->showed_date.year++;
 1870              		.loc 3 567 0
 1871 0274 BB6A     		ldr	r3, [r7, #40]
 1872 0276 9B88     		ldrh	r3, [r3, #4]
 1873 0278 0133     		adds	r3, r3, #1
 1874 027a 9AB2     		uxth	r2, r3
 1875 027c BB6A     		ldr	r3, [r7, #40]
 1876 027e 9A80     		strh	r2, [r3, #4]	@ movhi
 1877 0280 08E0     		b	.L96
 1878              	.L95:
ARM GAS  C:\Users\tmj32\AppData\Local\Temp\cc0vWRpX.s 			page 48


 568:..\..\..\lvgl\version_6.1.2\lvgl\src\lv_objx/lv_calendar.c ****             } else {
 569:..\..\..\lvgl\version_6.1.2\lvgl\src\lv_objx/lv_calendar.c ****                 ext->showed_date.month++;
 1879              		.loc 3 569 0
 1880 0282 BB6A     		ldr	r3, [r7, #40]
 1881 0284 93F90630 		ldrsb	r3, [r3, #6]
 1882 0288 DBB2     		uxtb	r3, r3
 1883 028a 0133     		adds	r3, r3, #1
 1884 028c DBB2     		uxtb	r3, r3
 1885 028e 5AB2     		sxtb	r2, r3
 1886 0290 BB6A     		ldr	r3, [r7, #40]
 1887 0292 9A71     		strb	r2, [r3, #6]
 1888              	.L96:
 570:..\..\..\lvgl\version_6.1.2\lvgl\src\lv_objx/lv_calendar.c ****             }
 571:..\..\..\lvgl\version_6.1.2\lvgl\src\lv_objx/lv_calendar.c ****             lv_obj_invalidate(calendar);
 1889              		.loc 3 571 0
 1890 0294 F868     		ldr	r0, [r7, #12]
 1891 0296 FFF7FEFF 		bl	lv_obj_invalidate
 1892 029a 27E0     		b	.L73
 1893              	.L94:
 572:..\..\..\lvgl\version_6.1.2\lvgl\src\lv_objx/lv_calendar.c ****         } else if(c == LV_KEY_LEFT || c == LV_KEY_DOWN) {
 1894              		.loc 3 572 0
 1895 029c 97F82F30 		ldrb	r3, [r7, #47]	@ zero_extendqisi2
 1896 02a0 142B     		cmp	r3, #20
 1897 02a2 03D0     		beq	.L97
 1898              		.loc 3 572 0 is_stmt 0 discriminator 1
 1899 02a4 97F82F30 		ldrb	r3, [r7, #47]	@ zero_extendqisi2
 1900 02a8 122B     		cmp	r3, #18
 1901 02aa 1FD1     		bne	.L73
 1902              	.L97:
 573:..\..\..\lvgl\version_6.1.2\lvgl\src\lv_objx/lv_calendar.c ****             if(ext->showed_date.month <= 1) {
 1903              		.loc 3 573 0 is_stmt 1
 1904 02ac BB6A     		ldr	r3, [r7, #40]
 1905 02ae 93F90630 		ldrsb	r3, [r3, #6]
 1906 02b2 012B     		cmp	r3, #1
 1907 02b4 0EDC     		bgt	.L98
 574:..\..\..\lvgl\version_6.1.2\lvgl\src\lv_objx/lv_calendar.c ****                 ext->showed_date.month = 12;
 1908              		.loc 3 574 0
 1909 02b6 BB6A     		ldr	r3, [r7, #40]
 1910 02b8 0C22     		movs	r2, #12
 1911 02ba 9A71     		strb	r2, [r3, #6]
 575:..\..\..\lvgl\version_6.1.2\lvgl\src\lv_objx/lv_calendar.c ****                 ext->showed_date.year--;
 1912              		.loc 3 575 0
 1913 02bc BB6A     		ldr	r3, [r7, #40]
 1914 02be 9B88     		ldrh	r3, [r3, #4]
 1915 02c0 013B     		subs	r3, r3, #1
 1916 02c2 9AB2     		uxth	r2, r3
 1917 02c4 BB6A     		ldr	r3, [r7, #40]
 1918 02c6 9A80     		strh	r2, [r3, #4]	@ movhi
 1919 02c8 0DE0     		b	.L99
 1920              	.L101:
 1921 02ca 00BF     		.align	2
 1922              	.L100:
 1923 02cc 00000000 		.word	ancestor_signal
 1924 02d0 88000000 		.word	.LC19
 1925              	.L98:
 576:..\..\..\lvgl\version_6.1.2\lvgl\src\lv_objx/lv_calendar.c ****             } else {
 577:..\..\..\lvgl\version_6.1.2\lvgl\src\lv_objx/lv_calendar.c ****                 ext->showed_date.month--;
ARM GAS  C:\Users\tmj32\AppData\Local\Temp\cc0vWRpX.s 			page 49


 1926              		.loc 3 577 0
 1927 02d4 BB6A     		ldr	r3, [r7, #40]
 1928 02d6 93F90630 		ldrsb	r3, [r3, #6]
 1929 02da DBB2     		uxtb	r3, r3
 1930 02dc 013B     		subs	r3, r3, #1
 1931 02de DBB2     		uxtb	r3, r3
 1932 02e0 5AB2     		sxtb	r2, r3
 1933 02e2 BB6A     		ldr	r3, [r7, #40]
 1934 02e4 9A71     		strb	r2, [r3, #6]
 1935              	.L99:
 578:..\..\..\lvgl\version_6.1.2\lvgl\src\lv_objx/lv_calendar.c ****             }
 579:..\..\..\lvgl\version_6.1.2\lvgl\src\lv_objx/lv_calendar.c ****             lv_obj_invalidate(calendar);
 1936              		.loc 3 579 0
 1937 02e6 F868     		ldr	r0, [r7, #12]
 1938 02e8 FFF7FEFF 		bl	lv_obj_invalidate
 1939              	.L73:
 1940              	.LBE8:
 580:..\..\..\lvgl\version_6.1.2\lvgl\src\lv_objx/lv_calendar.c ****         }
 581:..\..\..\lvgl\version_6.1.2\lvgl\src\lv_objx/lv_calendar.c ****     }
 582:..\..\..\lvgl\version_6.1.2\lvgl\src\lv_objx/lv_calendar.c **** 
 583:..\..\..\lvgl\version_6.1.2\lvgl\src\lv_objx/lv_calendar.c ****     return res;
 1941              		.loc 3 583 0
 1942 02ec 97F83730 		ldrb	r3, [r7, #55]	@ zero_extendqisi2
 1943              	.L71:
 584:..\..\..\lvgl\version_6.1.2\lvgl\src\lv_objx/lv_calendar.c **** }
 1944              		.loc 3 584 0
 1945 02f0 1846     		mov	r0, r3
 1946 02f2 3837     		adds	r7, r7, #56
 1947              		.cfi_def_cfa_offset 16
 1948 02f4 BD46     		mov	sp, r7
 1949              		.cfi_def_cfa_register 13
 1950              		@ sp needed
 1951 02f6 B0BD     		pop	{r4, r5, r7, pc}
 1952              		.cfi_endproc
 1953              	.LFE47:
 1954              		.size	lv_calendar_signal, .-lv_calendar_signal
 1955              		.section	.text.calculate_touched_day,"ax",%progbits
 1956              		.align	2
 1957              		.thumb
 1958              		.thumb_func
 1959              		.type	calculate_touched_day, %function
 1960              	calculate_touched_day:
 1961              	.LFB48:
 585:..\..\..\lvgl\version_6.1.2\lvgl\src\lv_objx/lv_calendar.c **** 
 586:..\..\..\lvgl\version_6.1.2\lvgl\src\lv_objx/lv_calendar.c **** /**
 587:..\..\..\lvgl\version_6.1.2\lvgl\src\lv_objx/lv_calendar.c ****  * It will check if the days part of calendar is touched
 588:..\..\..\lvgl\version_6.1.2\lvgl\src\lv_objx/lv_calendar.c ****  * and if it is, it will calculate the day and put it in pressed_date of calendar object.
 589:..\..\..\lvgl\version_6.1.2\lvgl\src\lv_objx/lv_calendar.c ****  * @param calendar pointer to a calendar object
 590:..\..\..\lvgl\version_6.1.2\lvgl\src\lv_objx/lv_calendar.c ****  * @param pointer to a point
 591:..\..\..\lvgl\version_6.1.2\lvgl\src\lv_objx/lv_calendar.c ****  * @return true: days part of calendar is touched and its related date is put in pressed date
 592:..\..\..\lvgl\version_6.1.2\lvgl\src\lv_objx/lv_calendar.c ****  * false: the point is out of days part area.
 593:..\..\..\lvgl\version_6.1.2\lvgl\src\lv_objx/lv_calendar.c ****  */
 594:..\..\..\lvgl\version_6.1.2\lvgl\src\lv_objx/lv_calendar.c **** static bool calculate_touched_day(lv_obj_t * calendar, const lv_point_t * touched_point)
 595:..\..\..\lvgl\version_6.1.2\lvgl\src\lv_objx/lv_calendar.c **** {
 1962              		.loc 3 595 0
 1963              		.cfi_startproc
 1964              		@ args = 0, pretend = 0, frame = 40
ARM GAS  C:\Users\tmj32\AppData\Local\Temp\cc0vWRpX.s 			page 50


 1965              		@ frame_needed = 1, uses_anonymous_args = 0
 1966 0000 B0B5     		push	{r4, r5, r7, lr}
 1967              		.cfi_def_cfa_offset 16
 1968              		.cfi_offset 4, -16
 1969              		.cfi_offset 5, -12
 1970              		.cfi_offset 7, -8
 1971              		.cfi_offset 14, -4
 1972 0002 8AB0     		sub	sp, sp, #40
 1973              		.cfi_def_cfa_offset 56
 1974 0004 00AF     		add	r7, sp, #0
 1975              		.cfi_def_cfa_register 7
 1976 0006 7860     		str	r0, [r7, #4]
 1977 0008 3960     		str	r1, [r7]
 596:..\..\..\lvgl\version_6.1.2\lvgl\src\lv_objx/lv_calendar.c ****     lv_area_t days_area;
 597:..\..\..\lvgl\version_6.1.2\lvgl\src\lv_objx/lv_calendar.c ****     lv_area_copy(&days_area, &calendar->coords);
 1978              		.loc 3 597 0
 1979 000a 7B68     		ldr	r3, [r7, #4]
 1980 000c 03F11002 		add	r2, r3, #16
 1981 0010 07F10C03 		add	r3, r7, #12
 1982 0014 1146     		mov	r1, r2
 1983 0016 1846     		mov	r0, r3
 1984 0018 FFF7FEFF 		bl	lv_area_copy
 598:..\..\..\lvgl\version_6.1.2\lvgl\src\lv_objx/lv_calendar.c ****     const lv_style_t * style_bg = lv_calendar_get_style(calendar, LV_CALENDAR_STYLE_BG);
 1985              		.loc 3 598 0
 1986 001c 0021     		movs	r1, #0
 1987 001e 7868     		ldr	r0, [r7, #4]
 1988 0020 FFF7FEFF 		bl	lv_calendar_get_style
 1989 0024 3862     		str	r0, [r7, #32]
 599:..\..\..\lvgl\version_6.1.2\lvgl\src\lv_objx/lv_calendar.c ****     days_area.x1 += style_bg->body.padding.left;
 1990              		.loc 3 599 0
 1991 0026 B7F90C30 		ldrsh	r3, [r7, #12]
 1992 002a 9AB2     		uxth	r2, r3
 1993 002c 3B6A     		ldr	r3, [r7, #32]
 1994 002e B3F92430 		ldrsh	r3, [r3, #36]
 1995 0032 9BB2     		uxth	r3, r3
 1996 0034 1344     		add	r3, r3, r2
 1997 0036 9BB2     		uxth	r3, r3
 1998 0038 1BB2     		sxth	r3, r3
 1999 003a BB81     		strh	r3, [r7, #12]	@ movhi
 600:..\..\..\lvgl\version_6.1.2\lvgl\src\lv_objx/lv_calendar.c ****     days_area.x2 -= style_bg->body.padding.right;
 2000              		.loc 3 600 0
 2001 003c B7F91030 		ldrsh	r3, [r7, #16]
 2002 0040 9AB2     		uxth	r2, r3
 2003 0042 3B6A     		ldr	r3, [r7, #32]
 2004 0044 B3F92630 		ldrsh	r3, [r3, #38]
 2005 0048 9BB2     		uxth	r3, r3
 2006 004a D31A     		subs	r3, r2, r3
 2007 004c 9BB2     		uxth	r3, r3
 2008 004e 1BB2     		sxth	r3, r3
 2009 0050 3B82     		strh	r3, [r7, #16]	@ movhi
 601:..\..\..\lvgl\version_6.1.2\lvgl\src\lv_objx/lv_calendar.c ****     days_area.y1 =
 602:..\..\..\lvgl\version_6.1.2\lvgl\src\lv_objx/lv_calendar.c ****         calendar->coords.y1 + get_header_height(calendar) + get_day_names_height(calendar) - style_
 2010              		.loc 3 602 0
 2011 0052 7B68     		ldr	r3, [r7, #4]
 2012 0054 B3F91230 		ldrsh	r3, [r3, #18]
 601:..\..\..\lvgl\version_6.1.2\lvgl\src\lv_objx/lv_calendar.c ****     days_area.y1 =
 2013              		.loc 3 601 0
ARM GAS  C:\Users\tmj32\AppData\Local\Temp\cc0vWRpX.s 			page 51


 2014 0058 9CB2     		uxth	r4, r3
 2015              		.loc 3 602 0
 2016 005a 7868     		ldr	r0, [r7, #4]
 2017 005c FFF7FEFF 		bl	get_header_height
 2018 0060 0346     		mov	r3, r0
 601:..\..\..\lvgl\version_6.1.2\lvgl\src\lv_objx/lv_calendar.c ****     days_area.y1 =
 2019              		.loc 3 601 0
 2020 0062 9BB2     		uxth	r3, r3
 2021 0064 2344     		add	r3, r3, r4
 2022 0066 9CB2     		uxth	r4, r3
 2023              		.loc 3 602 0
 2024 0068 7868     		ldr	r0, [r7, #4]
 2025 006a FFF7FEFF 		bl	get_day_names_height
 2026 006e 0346     		mov	r3, r0
 601:..\..\..\lvgl\version_6.1.2\lvgl\src\lv_objx/lv_calendar.c ****     days_area.y1 =
 2027              		.loc 3 601 0
 2028 0070 9BB2     		uxth	r3, r3
 2029 0072 2344     		add	r3, r3, r4
 2030 0074 9AB2     		uxth	r2, r3
 2031              		.loc 3 602 0
 2032 0076 3B6A     		ldr	r3, [r7, #32]
 2033 0078 B3F92030 		ldrsh	r3, [r3, #32]
 601:..\..\..\lvgl\version_6.1.2\lvgl\src\lv_objx/lv_calendar.c ****     days_area.y1 =
 2034              		.loc 3 601 0
 2035 007c 9BB2     		uxth	r3, r3
 2036 007e D31A     		subs	r3, r2, r3
 2037 0080 9BB2     		uxth	r3, r3
 2038 0082 1BB2     		sxth	r3, r3
 2039 0084 FB81     		strh	r3, [r7, #14]	@ movhi
 603:..\..\..\lvgl\version_6.1.2\lvgl\src\lv_objx/lv_calendar.c **** 
 604:..\..\..\lvgl\version_6.1.2\lvgl\src\lv_objx/lv_calendar.c ****     if(lv_area_is_point_on(&days_area, touched_point)) {
 2040              		.loc 3 604 0
 2041 0086 07F10C03 		add	r3, r7, #12
 2042 008a 3968     		ldr	r1, [r7]
 2043 008c 1846     		mov	r0, r3
 2044 008e FFF7FEFF 		bl	lv_area_is_point_on
 2045 0092 0346     		mov	r3, r0
 2046 0094 002B     		cmp	r3, #0
 2047 0096 00F02A81 		beq	.L103
 2048              	.LBB9:
 605:..\..\..\lvgl\version_6.1.2\lvgl\src\lv_objx/lv_calendar.c ****         lv_coord_t w  = (days_area.x2 - days_area.x1 + 1) / 7;
 2049              		.loc 3 605 0
 2050 009a B7F91030 		ldrsh	r3, [r7, #16]
 2051 009e 1A46     		mov	r2, r3
 2052 00a0 B7F90C30 		ldrsh	r3, [r7, #12]
 2053 00a4 D31A     		subs	r3, r2, r3
 2054 00a6 0133     		adds	r3, r3, #1
 2055 00a8 934A     		ldr	r2, .L115
 2056 00aa 82FB0312 		smull	r1, r2, r2, r3
 2057 00ae 1A44     		add	r2, r2, r3
 2058 00b0 9210     		asrs	r2, r2, #2
 2059 00b2 DB17     		asrs	r3, r3, #31
 2060 00b4 D31A     		subs	r3, r2, r3
 2061 00b6 FB83     		strh	r3, [r7, #30]	@ movhi
 606:..\..\..\lvgl\version_6.1.2\lvgl\src\lv_objx/lv_calendar.c ****         lv_coord_t h  = (days_area.y2 - days_area.y1 + 1) / 6;
 2062              		.loc 3 606 0
 2063 00b8 B7F91230 		ldrsh	r3, [r7, #18]
ARM GAS  C:\Users\tmj32\AppData\Local\Temp\cc0vWRpX.s 			page 52


 2064 00bc 1A46     		mov	r2, r3
 2065 00be B7F90E30 		ldrsh	r3, [r7, #14]
 2066 00c2 D31A     		subs	r3, r2, r3
 2067 00c4 0133     		adds	r3, r3, #1
 2068 00c6 8D4A     		ldr	r2, .L115+4
 2069 00c8 82FB0312 		smull	r1, r2, r2, r3
 2070 00cc DB17     		asrs	r3, r3, #31
 2071 00ce D31A     		subs	r3, r2, r3
 2072 00d0 BB83     		strh	r3, [r7, #28]	@ movhi
 607:..\..\..\lvgl\version_6.1.2\lvgl\src\lv_objx/lv_calendar.c ****         uint8_t x_pos = 0;
 2073              		.loc 3 607 0
 2074 00d2 0023     		movs	r3, #0
 2075 00d4 87F82730 		strb	r3, [r7, #39]
 608:..\..\..\lvgl\version_6.1.2\lvgl\src\lv_objx/lv_calendar.c ****         x_pos         = (touched_point->x - days_area.x1) / w;
 2076              		.loc 3 608 0
 2077 00d8 3B68     		ldr	r3, [r7]
 2078 00da B3F90030 		ldrsh	r3, [r3]
 2079 00de 1A46     		mov	r2, r3
 2080 00e0 B7F90C30 		ldrsh	r3, [r7, #12]
 2081 00e4 D21A     		subs	r2, r2, r3
 2082 00e6 B7F91E30 		ldrsh	r3, [r7, #30]
 2083 00ea 92FBF3F3 		sdiv	r3, r2, r3
 2084 00ee 87F82730 		strb	r3, [r7, #39]
 609:..\..\..\lvgl\version_6.1.2\lvgl\src\lv_objx/lv_calendar.c ****         if(x_pos > 6) x_pos = 6;
 2085              		.loc 3 609 0
 2086 00f2 97F82730 		ldrb	r3, [r7, #39]	@ zero_extendqisi2
 2087 00f6 062B     		cmp	r3, #6
 2088 00f8 02D9     		bls	.L104
 2089              		.loc 3 609 0 is_stmt 0 discriminator 1
 2090 00fa 0623     		movs	r3, #6
 2091 00fc 87F82730 		strb	r3, [r7, #39]
 2092              	.L104:
 610:..\..\..\lvgl\version_6.1.2\lvgl\src\lv_objx/lv_calendar.c ****         uint8_t y_pos = 0;
 2093              		.loc 3 610 0 is_stmt 1
 2094 0100 0023     		movs	r3, #0
 2095 0102 87F82630 		strb	r3, [r7, #38]
 611:..\..\..\lvgl\version_6.1.2\lvgl\src\lv_objx/lv_calendar.c ****         y_pos         = (touched_point->y - days_area.y1) / h;
 2096              		.loc 3 611 0
 2097 0106 3B68     		ldr	r3, [r7]
 2098 0108 B3F90230 		ldrsh	r3, [r3, #2]
 2099 010c 1A46     		mov	r2, r3
 2100 010e B7F90E30 		ldrsh	r3, [r7, #14]
 2101 0112 D21A     		subs	r2, r2, r3
 2102 0114 B7F91C30 		ldrsh	r3, [r7, #28]
 2103 0118 92FBF3F3 		sdiv	r3, r2, r3
 2104 011c 87F82630 		strb	r3, [r7, #38]
 612:..\..\..\lvgl\version_6.1.2\lvgl\src\lv_objx/lv_calendar.c ****         if(y_pos > 5) y_pos = 5;
 2105              		.loc 3 612 0
 2106 0120 97F82630 		ldrb	r3, [r7, #38]	@ zero_extendqisi2
 2107 0124 052B     		cmp	r3, #5
 2108 0126 02D9     		bls	.L105
 2109              		.loc 3 612 0 is_stmt 0 discriminator 1
 2110 0128 0523     		movs	r3, #5
 2111 012a 87F82630 		strb	r3, [r7, #38]
 2112              	.L105:
 613:..\..\..\lvgl\version_6.1.2\lvgl\src\lv_objx/lv_calendar.c **** 
 614:..\..\..\lvgl\version_6.1.2\lvgl\src\lv_objx/lv_calendar.c ****         uint8_t i_pos           = 0;
ARM GAS  C:\Users\tmj32\AppData\Local\Temp\cc0vWRpX.s 			page 53


 2113              		.loc 3 614 0 is_stmt 1
 2114 012e 0023     		movs	r3, #0
 2115 0130 FB76     		strb	r3, [r7, #27]
 615:..\..\..\lvgl\version_6.1.2\lvgl\src\lv_objx/lv_calendar.c ****         i_pos                   = (y_pos * 7) + x_pos;
 2116              		.loc 3 615 0
 2117 0132 97F82630 		ldrb	r3, [r7, #38]
 2118 0136 1A46     		mov	r2, r3
 2119 0138 D200     		lsls	r2, r2, #3
 2120 013a D31A     		subs	r3, r2, r3
 2121 013c DAB2     		uxtb	r2, r3
 2122 013e 97F82730 		ldrb	r3, [r7, #39]
 2123 0142 1344     		add	r3, r3, r2
 2124 0144 FB76     		strb	r3, [r7, #27]
 616:..\..\..\lvgl\version_6.1.2\lvgl\src\lv_objx/lv_calendar.c ****         lv_calendar_ext_t * ext = lv_obj_get_ext_attr(calendar);
 2125              		.loc 3 616 0
 2126 0146 7868     		ldr	r0, [r7, #4]
 2127 0148 FFF7FEFF 		bl	lv_obj_get_ext_attr
 2128 014c 7861     		str	r0, [r7, #20]
 617:..\..\..\lvgl\version_6.1.2\lvgl\src\lv_objx/lv_calendar.c ****         if(i_pos < get_day_of_week(ext->showed_date.year, ext->showed_date.month, 1)) {
 2129              		.loc 3 617 0
 2130 014e 7B69     		ldr	r3, [r7, #20]
 2131 0150 9B88     		ldrh	r3, [r3, #4]
 2132 0152 1846     		mov	r0, r3
 2133 0154 7B69     		ldr	r3, [r7, #20]
 2134 0156 93F90630 		ldrsb	r3, [r3, #6]
 2135 015a 0122     		movs	r2, #1
 2136 015c 1946     		mov	r1, r3
 2137 015e FFF7FEFF 		bl	get_day_of_week
 2138 0162 0346     		mov	r3, r0
 2139 0164 1A46     		mov	r2, r3
 2140 0166 FB7E     		ldrb	r3, [r7, #27]	@ zero_extendqisi2
 2141 0168 9342     		cmp	r3, r2
 2142 016a 40D2     		bcs	.L106
 618:..\..\..\lvgl\version_6.1.2\lvgl\src\lv_objx/lv_calendar.c ****             ext->pressed_date.year  = ext->showed_date.year - (ext->showed_date.month == 1 ? 1 : 0)
 2143              		.loc 3 618 0
 2144 016c 7B69     		ldr	r3, [r7, #20]
 2145 016e 9A88     		ldrh	r2, [r3, #4]
 2146 0170 7B69     		ldr	r3, [r7, #20]
 2147 0172 93F90630 		ldrsb	r3, [r3, #6]
 2148 0176 012B     		cmp	r3, #1
 2149 0178 0CBF     		ite	eq
 2150 017a 0123     		moveq	r3, #1
 2151 017c 0023     		movne	r3, #0
 2152 017e DBB2     		uxtb	r3, r3
 2153 0180 9BB2     		uxth	r3, r3
 2154 0182 D31A     		subs	r3, r2, r3
 2155 0184 9AB2     		uxth	r2, r3
 2156 0186 7B69     		ldr	r3, [r7, #20]
 2157 0188 1A82     		strh	r2, [r3, #16]	@ movhi
 619:..\..\..\lvgl\version_6.1.2\lvgl\src\lv_objx/lv_calendar.c ****             ext->pressed_date.month = ext->showed_date.month == 1 ? 12 : (ext->showed_date.month - 
 2158              		.loc 3 619 0
 2159 018a 7B69     		ldr	r3, [r7, #20]
 2160 018c 93F90630 		ldrsb	r3, [r3, #6]
 2161 0190 012B     		cmp	r3, #1
 2162 0192 07D0     		beq	.L107
 2163              		.loc 3 619 0 is_stmt 0 discriminator 1
 2164 0194 7B69     		ldr	r3, [r7, #20]
ARM GAS  C:\Users\tmj32\AppData\Local\Temp\cc0vWRpX.s 			page 54


 2165 0196 93F90630 		ldrsb	r3, [r3, #6]
 2166 019a DBB2     		uxtb	r3, r3
 2167 019c 013B     		subs	r3, r3, #1
 2168 019e DBB2     		uxtb	r3, r3
 2169 01a0 5AB2     		sxtb	r2, r3
 2170 01a2 00E0     		b	.L108
 2171              	.L107:
 2172              		.loc 3 619 0 discriminator 2
 2173 01a4 0C22     		movs	r2, #12
 2174              	.L108:
 2175              		.loc 3 619 0 discriminator 4
 2176 01a6 7B69     		ldr	r3, [r7, #20]
 2177 01a8 9A74     		strb	r2, [r3, #18]
 620:..\..\..\lvgl\version_6.1.2\lvgl\src\lv_objx/lv_calendar.c ****             ext->pressed_date.day   = get_month_length(ext->pressed_date.year, ext->pressed_date.mo
 2178              		.loc 3 620 0 is_stmt 1 discriminator 4
 2179 01aa 7B69     		ldr	r3, [r7, #20]
 2180 01ac 1B8A     		ldrh	r3, [r3, #16]
 2181 01ae 1A46     		mov	r2, r3
 2182 01b0 7B69     		ldr	r3, [r7, #20]
 2183 01b2 93F91230 		ldrsb	r3, [r3, #18]
 2184 01b6 1946     		mov	r1, r3
 2185 01b8 1046     		mov	r0, r2
 2186 01ba FFF7FEFF 		bl	get_month_length
 2187 01be 0346     		mov	r3, r0
 2188 01c0 1C46     		mov	r4, r3
 621:..\..\..\lvgl\version_6.1.2\lvgl\src\lv_objx/lv_calendar.c ****                                     get_day_of_week(ext->showed_date.year, ext->showed_date.month, 
 2189              		.loc 3 621 0 discriminator 4
 2190 01c2 7B69     		ldr	r3, [r7, #20]
 2191 01c4 9B88     		ldrh	r3, [r3, #4]
 2192 01c6 1846     		mov	r0, r3
 2193 01c8 7B69     		ldr	r3, [r7, #20]
 2194 01ca 93F90630 		ldrsb	r3, [r3, #6]
 2195 01ce 0122     		movs	r2, #1
 2196 01d0 1946     		mov	r1, r3
 2197 01d2 FFF7FEFF 		bl	get_day_of_week
 2198 01d6 0346     		mov	r3, r0
 620:..\..\..\lvgl\version_6.1.2\lvgl\src\lv_objx/lv_calendar.c ****             ext->pressed_date.day   = get_month_length(ext->pressed_date.year, ext->pressed_date.mo
 2199              		.loc 3 620 0 discriminator 4
 2200 01d8 E31A     		subs	r3, r4, r3
 2201 01da DAB2     		uxtb	r2, r3
 2202 01dc FB7E     		ldrb	r3, [r7, #27]
 2203 01de 1344     		add	r3, r3, r2
 2204 01e0 DBB2     		uxtb	r3, r3
 2205 01e2 0133     		adds	r3, r3, #1
 2206 01e4 DBB2     		uxtb	r3, r3
 2207 01e6 5AB2     		sxtb	r2, r3
 2208 01e8 7B69     		ldr	r3, [r7, #20]
 2209 01ea DA74     		strb	r2, [r3, #19]
 2210 01ec 7DE0     		b	.L109
 2211              	.L106:
 622:..\..\..\lvgl\version_6.1.2\lvgl\src\lv_objx/lv_calendar.c ****         } else if(i_pos < (get_day_of_week(ext->showed_date.year, ext->showed_date.month, 1) +
 2212              		.loc 3 622 0
 2213 01ee FC7E     		ldrb	r4, [r7, #27]	@ zero_extendqisi2
 2214 01f0 7B69     		ldr	r3, [r7, #20]
 2215 01f2 9B88     		ldrh	r3, [r3, #4]
 2216 01f4 1846     		mov	r0, r3
 2217 01f6 7B69     		ldr	r3, [r7, #20]
ARM GAS  C:\Users\tmj32\AppData\Local\Temp\cc0vWRpX.s 			page 55


 2218 01f8 93F90630 		ldrsb	r3, [r3, #6]
 2219 01fc 0122     		movs	r2, #1
 2220 01fe 1946     		mov	r1, r3
 2221 0200 FFF7FEFF 		bl	get_day_of_week
 2222 0204 0346     		mov	r3, r0
 2223 0206 1D46     		mov	r5, r3
 623:..\..\..\lvgl\version_6.1.2\lvgl\src\lv_objx/lv_calendar.c ****                            get_month_length(ext->showed_date.year, ext->showed_date.month))) {
 2224              		.loc 3 623 0
 2225 0208 7B69     		ldr	r3, [r7, #20]
 2226 020a 9B88     		ldrh	r3, [r3, #4]
 2227 020c 1A46     		mov	r2, r3
 2228 020e 7B69     		ldr	r3, [r7, #20]
 2229 0210 93F90630 		ldrsb	r3, [r3, #6]
 2230 0214 1946     		mov	r1, r3
 2231 0216 1046     		mov	r0, r2
 2232 0218 FFF7FEFF 		bl	get_month_length
 2233 021c 0346     		mov	r3, r0
 622:..\..\..\lvgl\version_6.1.2\lvgl\src\lv_objx/lv_calendar.c ****         } else if(i_pos < (get_day_of_week(ext->showed_date.year, ext->showed_date.month, 1) +
 2234              		.loc 3 622 0
 2235 021e 2B44     		add	r3, r3, r5
 2236 0220 9C42     		cmp	r4, r3
 2237 0222 1DDA     		bge	.L110
 624:..\..\..\lvgl\version_6.1.2\lvgl\src\lv_objx/lv_calendar.c ****             ext->pressed_date.year  = ext->showed_date.year;
 2238              		.loc 3 624 0
 2239 0224 7B69     		ldr	r3, [r7, #20]
 2240 0226 9A88     		ldrh	r2, [r3, #4]
 2241 0228 7B69     		ldr	r3, [r7, #20]
 2242 022a 1A82     		strh	r2, [r3, #16]	@ movhi
 625:..\..\..\lvgl\version_6.1.2\lvgl\src\lv_objx/lv_calendar.c ****             ext->pressed_date.month = ext->showed_date.month;
 2243              		.loc 3 625 0
 2244 022c 7B69     		ldr	r3, [r7, #20]
 2245 022e 93F90620 		ldrsb	r2, [r3, #6]
 2246 0232 7B69     		ldr	r3, [r7, #20]
 2247 0234 9A74     		strb	r2, [r3, #18]
 626:..\..\..\lvgl\version_6.1.2\lvgl\src\lv_objx/lv_calendar.c ****             ext->pressed_date.day   = i_pos + 1 - get_day_of_week(ext->showed_date.year, ext->showe
 2248              		.loc 3 626 0
 2249 0236 7B69     		ldr	r3, [r7, #20]
 2250 0238 9B88     		ldrh	r3, [r3, #4]
 2251 023a 1846     		mov	r0, r3
 2252 023c 7B69     		ldr	r3, [r7, #20]
 2253 023e 93F90630 		ldrsb	r3, [r3, #6]
 2254 0242 0122     		movs	r2, #1
 2255 0244 1946     		mov	r1, r3
 2256 0246 FFF7FEFF 		bl	get_day_of_week
 2257 024a 0346     		mov	r3, r0
 2258 024c 1A46     		mov	r2, r3
 2259 024e FB7E     		ldrb	r3, [r7, #27]
 2260 0250 9B1A     		subs	r3, r3, r2
 2261 0252 DBB2     		uxtb	r3, r3
 2262 0254 0133     		adds	r3, r3, #1
 2263 0256 DBB2     		uxtb	r3, r3
 2264 0258 5AB2     		sxtb	r2, r3
 2265 025a 7B69     		ldr	r3, [r7, #20]
 2266 025c DA74     		strb	r2, [r3, #19]
 2267 025e 44E0     		b	.L109
 2268              	.L110:
 627:..\..\..\lvgl\version_6.1.2\lvgl\src\lv_objx/lv_calendar.c ****         } else if(i_pos < 42) {
ARM GAS  C:\Users\tmj32\AppData\Local\Temp\cc0vWRpX.s 			page 56


 2269              		.loc 3 627 0
 2270 0260 FB7E     		ldrb	r3, [r7, #27]	@ zero_extendqisi2
 2271 0262 292B     		cmp	r3, #41
 2272 0264 41D8     		bhi	.L109
 628:..\..\..\lvgl\version_6.1.2\lvgl\src\lv_objx/lv_calendar.c ****             ext->pressed_date.year  = ext->showed_date.year + (ext->showed_date.month == 12 ? 1 : 0
 2273              		.loc 3 628 0
 2274 0266 7B69     		ldr	r3, [r7, #20]
 2275 0268 9A88     		ldrh	r2, [r3, #4]
 2276 026a 7B69     		ldr	r3, [r7, #20]
 2277 026c 93F90630 		ldrsb	r3, [r3, #6]
 2278 0270 0C2B     		cmp	r3, #12
 2279 0272 0CBF     		ite	eq
 2280 0274 0123     		moveq	r3, #1
 2281 0276 0023     		movne	r3, #0
 2282 0278 DBB2     		uxtb	r3, r3
 2283 027a 9BB2     		uxth	r3, r3
 2284 027c 1344     		add	r3, r3, r2
 2285 027e 9AB2     		uxth	r2, r3
 2286 0280 7B69     		ldr	r3, [r7, #20]
 2287 0282 1A82     		strh	r2, [r3, #16]	@ movhi
 629:..\..\..\lvgl\version_6.1.2\lvgl\src\lv_objx/lv_calendar.c ****             ext->pressed_date.month = ext->showed_date.month == 12 ? 1 : (ext->showed_date.month + 
 2288              		.loc 3 629 0
 2289 0284 7B69     		ldr	r3, [r7, #20]
 2290 0286 93F90630 		ldrsb	r3, [r3, #6]
 2291 028a 0C2B     		cmp	r3, #12
 2292 028c 07D0     		beq	.L111
 2293              		.loc 3 629 0 is_stmt 0 discriminator 1
 2294 028e 7B69     		ldr	r3, [r7, #20]
 2295 0290 93F90630 		ldrsb	r3, [r3, #6]
 2296 0294 DBB2     		uxtb	r3, r3
 2297 0296 0133     		adds	r3, r3, #1
 2298 0298 DBB2     		uxtb	r3, r3
 2299 029a 5AB2     		sxtb	r2, r3
 2300 029c 00E0     		b	.L112
 2301              	.L111:
 2302              		.loc 3 629 0 discriminator 2
 2303 029e 0122     		movs	r2, #1
 2304              	.L112:
 2305              		.loc 3 629 0 discriminator 4
 2306 02a0 7B69     		ldr	r3, [r7, #20]
 2307 02a2 9A74     		strb	r2, [r3, #18]
 630:..\..\..\lvgl\version_6.1.2\lvgl\src\lv_objx/lv_calendar.c ****             ext->pressed_date.day   = i_pos + 1 - get_day_of_week(ext->showed_date.year, ext->showe
 2308              		.loc 3 630 0 is_stmt 1 discriminator 4
 2309 02a4 7B69     		ldr	r3, [r7, #20]
 2310 02a6 9B88     		ldrh	r3, [r3, #4]
 2311 02a8 1846     		mov	r0, r3
 2312 02aa 7B69     		ldr	r3, [r7, #20]
 2313 02ac 93F90630 		ldrsb	r3, [r3, #6]
 2314 02b0 0122     		movs	r2, #1
 2315 02b2 1946     		mov	r1, r3
 2316 02b4 FFF7FEFF 		bl	get_day_of_week
 2317 02b8 0346     		mov	r3, r0
 2318 02ba 1A46     		mov	r2, r3
 2319 02bc FB7E     		ldrb	r3, [r7, #27]
 2320 02be 9B1A     		subs	r3, r3, r2
 2321 02c0 DCB2     		uxtb	r4, r3
 631:..\..\..\lvgl\version_6.1.2\lvgl\src\lv_objx/lv_calendar.c ****                                     get_month_length(ext->showed_date.year, ext->showed_date.month)
ARM GAS  C:\Users\tmj32\AppData\Local\Temp\cc0vWRpX.s 			page 57


 2322              		.loc 3 631 0 discriminator 4
 2323 02c2 7B69     		ldr	r3, [r7, #20]
 2324 02c4 9B88     		ldrh	r3, [r3, #4]
 2325 02c6 1A46     		mov	r2, r3
 2326 02c8 7B69     		ldr	r3, [r7, #20]
 2327 02ca 93F90630 		ldrsb	r3, [r3, #6]
 2328 02ce 1946     		mov	r1, r3
 2329 02d0 1046     		mov	r0, r2
 2330 02d2 FFF7FEFF 		bl	get_month_length
 2331 02d6 0346     		mov	r3, r0
 630:..\..\..\lvgl\version_6.1.2\lvgl\src\lv_objx/lv_calendar.c ****             ext->pressed_date.day   = i_pos + 1 - get_day_of_week(ext->showed_date.year, ext->showe
 2332              		.loc 3 630 0 discriminator 4
 2333 02d8 5B42     		negs	r3, r3
 2334 02da DBB2     		uxtb	r3, r3
 2335 02dc 2344     		add	r3, r3, r4
 2336 02de DBB2     		uxtb	r3, r3
 2337 02e0 0133     		adds	r3, r3, #1
 2338 02e2 DBB2     		uxtb	r3, r3
 2339 02e4 5AB2     		sxtb	r2, r3
 2340 02e6 7B69     		ldr	r3, [r7, #20]
 2341 02e8 DA74     		strb	r2, [r3, #19]
 2342              	.L109:
 632:..\..\..\lvgl\version_6.1.2\lvgl\src\lv_objx/lv_calendar.c ****         }
 633:..\..\..\lvgl\version_6.1.2\lvgl\src\lv_objx/lv_calendar.c ****         return true;
 2343              		.loc 3 633 0
 2344 02ea 0123     		movs	r3, #1
 2345 02ec 00E0     		b	.L114
 2346              	.L103:
 2347              	.LBE9:
 634:..\..\..\lvgl\version_6.1.2\lvgl\src\lv_objx/lv_calendar.c ****     } else {
 635:..\..\..\lvgl\version_6.1.2\lvgl\src\lv_objx/lv_calendar.c ****         return false;
 2348              		.loc 3 635 0
 2349 02ee 0023     		movs	r3, #0
 2350              	.L114:
 636:..\..\..\lvgl\version_6.1.2\lvgl\src\lv_objx/lv_calendar.c ****     }
 637:..\..\..\lvgl\version_6.1.2\lvgl\src\lv_objx/lv_calendar.c **** }
 2351              		.loc 3 637 0 discriminator 1
 2352 02f0 1846     		mov	r0, r3
 2353 02f2 2837     		adds	r7, r7, #40
 2354              		.cfi_def_cfa_offset 16
 2355 02f4 BD46     		mov	sp, r7
 2356              		.cfi_def_cfa_register 13
 2357              		@ sp needed
 2358 02f6 B0BD     		pop	{r4, r5, r7, pc}
 2359              	.L116:
 2360              		.align	2
 2361              	.L115:
 2362 02f8 93244992 		.word	-1840700269
 2363 02fc ABAAAA2A 		.word	715827883
 2364              		.cfi_endproc
 2365              	.LFE48:
 2366              		.size	calculate_touched_day, .-calculate_touched_day
 2367              		.section	.text.get_header_height,"ax",%progbits
 2368              		.align	2
 2369              		.thumb
 2370              		.thumb_func
 2371              		.type	get_header_height, %function
ARM GAS  C:\Users\tmj32\AppData\Local\Temp\cc0vWRpX.s 			page 58


 2372              	get_header_height:
 2373              	.LFB49:
 638:..\..\..\lvgl\version_6.1.2\lvgl\src\lv_objx/lv_calendar.c **** 
 639:..\..\..\lvgl\version_6.1.2\lvgl\src\lv_objx/lv_calendar.c **** /**
 640:..\..\..\lvgl\version_6.1.2\lvgl\src\lv_objx/lv_calendar.c ****  * Get the height of a calendar's header based on it's style
 641:..\..\..\lvgl\version_6.1.2\lvgl\src\lv_objx/lv_calendar.c ****  * @param calendar point to a calendar
 642:..\..\..\lvgl\version_6.1.2\lvgl\src\lv_objx/lv_calendar.c ****  * @return the header's height
 643:..\..\..\lvgl\version_6.1.2\lvgl\src\lv_objx/lv_calendar.c ****  */
 644:..\..\..\lvgl\version_6.1.2\lvgl\src\lv_objx/lv_calendar.c **** static lv_coord_t get_header_height(lv_obj_t * calendar)
 645:..\..\..\lvgl\version_6.1.2\lvgl\src\lv_objx/lv_calendar.c **** {
 2374              		.loc 3 645 0
 2375              		.cfi_startproc
 2376              		@ args = 0, pretend = 0, frame = 16
 2377              		@ frame_needed = 1, uses_anonymous_args = 0
 2378 0000 80B5     		push	{r7, lr}
 2379              		.cfi_def_cfa_offset 8
 2380              		.cfi_offset 7, -8
 2381              		.cfi_offset 14, -4
 2382 0002 84B0     		sub	sp, sp, #16
 2383              		.cfi_def_cfa_offset 24
 2384 0004 00AF     		add	r7, sp, #0
 2385              		.cfi_def_cfa_register 7
 2386 0006 7860     		str	r0, [r7, #4]
 646:..\..\..\lvgl\version_6.1.2\lvgl\src\lv_objx/lv_calendar.c ****     lv_calendar_ext_t * ext = lv_obj_get_ext_attr(calendar);
 2387              		.loc 3 646 0
 2388 0008 7868     		ldr	r0, [r7, #4]
 2389 000a FFF7FEFF 		bl	lv_obj_get_ext_attr
 2390 000e F860     		str	r0, [r7, #12]
 647:..\..\..\lvgl\version_6.1.2\lvgl\src\lv_objx/lv_calendar.c **** 
 648:..\..\..\lvgl\version_6.1.2\lvgl\src\lv_objx/lv_calendar.c ****     return lv_font_get_line_height(ext->style_header->text.font) + ext->style_header->body.padding.
 2391              		.loc 3 648 0
 2392 0010 FB68     		ldr	r3, [r7, #12]
 2393 0012 DB69     		ldr	r3, [r3, #28]
 2394 0014 5B6B     		ldr	r3, [r3, #52]
 2395 0016 1846     		mov	r0, r3
 2396 0018 FFF7FEFF 		bl	lv_font_get_line_height
 2397 001c 0346     		mov	r3, r0
 2398 001e 9AB2     		uxth	r2, r3
 2399 0020 FB68     		ldr	r3, [r7, #12]
 2400 0022 DB69     		ldr	r3, [r3, #28]
 2401 0024 B3F92030 		ldrsh	r3, [r3, #32]
 2402 0028 9BB2     		uxth	r3, r3
 2403 002a 1344     		add	r3, r3, r2
 2404 002c 9AB2     		uxth	r2, r3
 649:..\..\..\lvgl\version_6.1.2\lvgl\src\lv_objx/lv_calendar.c ****            ext->style_header->body.padding.bottom;
 2405              		.loc 3 649 0
 2406 002e FB68     		ldr	r3, [r7, #12]
 2407 0030 DB69     		ldr	r3, [r3, #28]
 2408 0032 B3F92230 		ldrsh	r3, [r3, #34]
 648:..\..\..\lvgl\version_6.1.2\lvgl\src\lv_objx/lv_calendar.c ****            ext->style_header->body.padding.bottom;
 2409              		.loc 3 648 0
 2410 0036 9BB2     		uxth	r3, r3
 2411 0038 1344     		add	r3, r3, r2
 2412 003a 9BB2     		uxth	r3, r3
 2413 003c 1BB2     		sxth	r3, r3
 650:..\..\..\lvgl\version_6.1.2\lvgl\src\lv_objx/lv_calendar.c **** }
 2414              		.loc 3 650 0
ARM GAS  C:\Users\tmj32\AppData\Local\Temp\cc0vWRpX.s 			page 59


 2415 003e 1846     		mov	r0, r3
 2416 0040 1037     		adds	r7, r7, #16
 2417              		.cfi_def_cfa_offset 8
 2418 0042 BD46     		mov	sp, r7
 2419              		.cfi_def_cfa_register 13
 2420              		@ sp needed
 2421 0044 80BD     		pop	{r7, pc}
 2422              		.cfi_endproc
 2423              	.LFE49:
 2424              		.size	get_header_height, .-get_header_height
 2425 0046 00BF     		.section	.text.get_day_names_height,"ax",%progbits
 2426              		.align	2
 2427              		.thumb
 2428              		.thumb_func
 2429              		.type	get_day_names_height, %function
 2430              	get_day_names_height:
 2431              	.LFB50:
 651:..\..\..\lvgl\version_6.1.2\lvgl\src\lv_objx/lv_calendar.c **** 
 652:..\..\..\lvgl\version_6.1.2\lvgl\src\lv_objx/lv_calendar.c **** /**
 653:..\..\..\lvgl\version_6.1.2\lvgl\src\lv_objx/lv_calendar.c ****  * Get the height of a calendar's day_names based on it's style
 654:..\..\..\lvgl\version_6.1.2\lvgl\src\lv_objx/lv_calendar.c ****  * @param calendar point to a calendar
 655:..\..\..\lvgl\version_6.1.2\lvgl\src\lv_objx/lv_calendar.c ****  * @return the day_names's height
 656:..\..\..\lvgl\version_6.1.2\lvgl\src\lv_objx/lv_calendar.c ****  */
 657:..\..\..\lvgl\version_6.1.2\lvgl\src\lv_objx/lv_calendar.c **** static lv_coord_t get_day_names_height(lv_obj_t * calendar)
 658:..\..\..\lvgl\version_6.1.2\lvgl\src\lv_objx/lv_calendar.c **** {
 2432              		.loc 3 658 0
 2433              		.cfi_startproc
 2434              		@ args = 0, pretend = 0, frame = 16
 2435              		@ frame_needed = 1, uses_anonymous_args = 0
 2436 0000 80B5     		push	{r7, lr}
 2437              		.cfi_def_cfa_offset 8
 2438              		.cfi_offset 7, -8
 2439              		.cfi_offset 14, -4
 2440 0002 84B0     		sub	sp, sp, #16
 2441              		.cfi_def_cfa_offset 24
 2442 0004 00AF     		add	r7, sp, #0
 2443              		.cfi_def_cfa_register 7
 2444 0006 7860     		str	r0, [r7, #4]
 659:..\..\..\lvgl\version_6.1.2\lvgl\src\lv_objx/lv_calendar.c ****     lv_calendar_ext_t * ext = lv_obj_get_ext_attr(calendar);
 2445              		.loc 3 659 0
 2446 0008 7868     		ldr	r0, [r7, #4]
 2447 000a FFF7FEFF 		bl	lv_obj_get_ext_attr
 2448 000e F860     		str	r0, [r7, #12]
 660:..\..\..\lvgl\version_6.1.2\lvgl\src\lv_objx/lv_calendar.c **** 
 661:..\..\..\lvgl\version_6.1.2\lvgl\src\lv_objx/lv_calendar.c ****     return lv_font_get_line_height(ext->style_day_names->text.font) + ext->style_day_names->body.pa
 2449              		.loc 3 661 0
 2450 0010 FB68     		ldr	r3, [r7, #12]
 2451 0012 5B6A     		ldr	r3, [r3, #36]
 2452 0014 5B6B     		ldr	r3, [r3, #52]
 2453 0016 1846     		mov	r0, r3
 2454 0018 FFF7FEFF 		bl	lv_font_get_line_height
 2455 001c 0346     		mov	r3, r0
 2456 001e 9AB2     		uxth	r2, r3
 2457 0020 FB68     		ldr	r3, [r7, #12]
 2458 0022 5B6A     		ldr	r3, [r3, #36]
 2459 0024 B3F92030 		ldrsh	r3, [r3, #32]
 2460 0028 9BB2     		uxth	r3, r3
ARM GAS  C:\Users\tmj32\AppData\Local\Temp\cc0vWRpX.s 			page 60


 2461 002a 1344     		add	r3, r3, r2
 2462 002c 9AB2     		uxth	r2, r3
 662:..\..\..\lvgl\version_6.1.2\lvgl\src\lv_objx/lv_calendar.c ****            ext->style_day_names->body.padding.bottom;
 2463              		.loc 3 662 0
 2464 002e FB68     		ldr	r3, [r7, #12]
 2465 0030 5B6A     		ldr	r3, [r3, #36]
 2466 0032 B3F92230 		ldrsh	r3, [r3, #34]
 661:..\..\..\lvgl\version_6.1.2\lvgl\src\lv_objx/lv_calendar.c ****            ext->style_day_names->body.padding.bottom;
 2467              		.loc 3 661 0
 2468 0036 9BB2     		uxth	r3, r3
 2469 0038 1344     		add	r3, r3, r2
 2470 003a 9BB2     		uxth	r3, r3
 2471 003c 1BB2     		sxth	r3, r3
 663:..\..\..\lvgl\version_6.1.2\lvgl\src\lv_objx/lv_calendar.c **** }
 2472              		.loc 3 663 0
 2473 003e 1846     		mov	r0, r3
 2474 0040 1037     		adds	r7, r7, #16
 2475              		.cfi_def_cfa_offset 8
 2476 0042 BD46     		mov	sp, r7
 2477              		.cfi_def_cfa_register 13
 2478              		@ sp needed
 2479 0044 80BD     		pop	{r7, pc}
 2480              		.cfi_endproc
 2481              	.LFE50:
 2482              		.size	get_day_names_height, .-get_day_names_height
 2483 0046 00BF     		.section	.rodata
 2484              		.align	2
 2485              	.LC20:
 2486 0094 EF819300 		.ascii	"\357\201\223\000"
 2487              		.align	2
 2488              	.LC21:
 2489 0098 EF819400 		.ascii	"\357\201\224\000"
 2490              		.section	.text.draw_header,"ax",%progbits
 2491              		.align	2
 2492              		.thumb
 2493              		.thumb_func
 2494              		.type	draw_header, %function
 2495              	draw_header:
 2496              	.LFB51:
 664:..\..\..\lvgl\version_6.1.2\lvgl\src\lv_objx/lv_calendar.c **** 
 665:..\..\..\lvgl\version_6.1.2\lvgl\src\lv_objx/lv_calendar.c **** /**
 666:..\..\..\lvgl\version_6.1.2\lvgl\src\lv_objx/lv_calendar.c ****  * Draw the calendar header with month name and arrows
 667:..\..\..\lvgl\version_6.1.2\lvgl\src\lv_objx/lv_calendar.c ****  * @param calendar point to a calendar
 668:..\..\..\lvgl\version_6.1.2\lvgl\src\lv_objx/lv_calendar.c ****  * @param mask a mask for drawing
 669:..\..\..\lvgl\version_6.1.2\lvgl\src\lv_objx/lv_calendar.c ****  */
 670:..\..\..\lvgl\version_6.1.2\lvgl\src\lv_objx/lv_calendar.c **** static void draw_header(lv_obj_t * calendar, const lv_area_t * mask)
 671:..\..\..\lvgl\version_6.1.2\lvgl\src\lv_objx/lv_calendar.c **** {
 2497              		.loc 3 671 0
 2498              		.cfi_startproc
 2499              		@ args = 0, pretend = 0, frame = 96
 2500              		@ frame_needed = 1, uses_anonymous_args = 0
 2501 0000 90B5     		push	{r4, r7, lr}
 2502              		.cfi_def_cfa_offset 12
 2503              		.cfi_offset 4, -12
 2504              		.cfi_offset 7, -8
 2505              		.cfi_offset 14, -4
 2506 0002 9FB0     		sub	sp, sp, #124
ARM GAS  C:\Users\tmj32\AppData\Local\Temp\cc0vWRpX.s 			page 61


 2507              		.cfi_def_cfa_offset 136
 2508 0004 06AF     		add	r7, sp, #24
 2509              		.cfi_def_cfa 7, 112
 2510 0006 7860     		str	r0, [r7, #4]
 2511 0008 3960     		str	r1, [r7]
 672:..\..\..\lvgl\version_6.1.2\lvgl\src\lv_objx/lv_calendar.c ****     lv_calendar_ext_t * ext = lv_obj_get_ext_attr(calendar);
 2512              		.loc 3 672 0
 2513 000a 7868     		ldr	r0, [r7, #4]
 2514 000c FFF7FEFF 		bl	lv_obj_get_ext_attr
 2515 0010 F865     		str	r0, [r7, #92]
 673:..\..\..\lvgl\version_6.1.2\lvgl\src\lv_objx/lv_calendar.c **** 
 674:..\..\..\lvgl\version_6.1.2\lvgl\src\lv_objx/lv_calendar.c ****     lv_bidi_dir_t bidi_dir = lv_obj_get_base_dir(calendar);
 2516              		.loc 3 674 0
 2517 0012 7868     		ldr	r0, [r7, #4]
 2518 0014 FFF7FEFF 		bl	lv_obj_get_base_dir
 2519 0018 0346     		mov	r3, r0
 2520 001a 87F85B30 		strb	r3, [r7, #91]
 675:..\..\..\lvgl\version_6.1.2\lvgl\src\lv_objx/lv_calendar.c **** 
 676:..\..\..\lvgl\version_6.1.2\lvgl\src\lv_objx/lv_calendar.c ****     lv_opa_t opa_scale      = lv_obj_get_opa_scale(calendar);
 2521              		.loc 3 676 0
 2522 001e 7868     		ldr	r0, [r7, #4]
 2523 0020 FFF7FEFF 		bl	lv_obj_get_opa_scale
 2524 0024 0346     		mov	r3, r0
 2525 0026 87F85A30 		strb	r3, [r7, #90]
 677:..\..\..\lvgl\version_6.1.2\lvgl\src\lv_objx/lv_calendar.c **** 
 678:..\..\..\lvgl\version_6.1.2\lvgl\src\lv_objx/lv_calendar.c ****     lv_area_t header_area;
 679:..\..\..\lvgl\version_6.1.2\lvgl\src\lv_objx/lv_calendar.c ****     header_area.x1 = calendar->coords.x1;
 2526              		.loc 3 679 0
 2527 002a 7B68     		ldr	r3, [r7, #4]
 2528 002c B3F91030 		ldrsh	r3, [r3, #16]
 2529 0030 A7F84C30 		strh	r3, [r7, #76]	@ movhi
 680:..\..\..\lvgl\version_6.1.2\lvgl\src\lv_objx/lv_calendar.c ****     header_area.x2 = calendar->coords.x2;
 2530              		.loc 3 680 0
 2531 0034 7B68     		ldr	r3, [r7, #4]
 2532 0036 B3F91430 		ldrsh	r3, [r3, #20]
 2533 003a A7F85030 		strh	r3, [r7, #80]	@ movhi
 681:..\..\..\lvgl\version_6.1.2\lvgl\src\lv_objx/lv_calendar.c ****     header_area.y1 = calendar->coords.y1;
 2534              		.loc 3 681 0
 2535 003e 7B68     		ldr	r3, [r7, #4]
 2536 0040 B3F91230 		ldrsh	r3, [r3, #18]
 2537 0044 A7F84E30 		strh	r3, [r7, #78]	@ movhi
 682:..\..\..\lvgl\version_6.1.2\lvgl\src\lv_objx/lv_calendar.c ****     header_area.y2 = calendar->coords.y1 + get_header_height(calendar);
 2538              		.loc 3 682 0
 2539 0048 7B68     		ldr	r3, [r7, #4]
 2540 004a B3F91230 		ldrsh	r3, [r3, #18]
 2541 004e 9CB2     		uxth	r4, r3
 2542 0050 7868     		ldr	r0, [r7, #4]
 2543 0052 FFF7FEFF 		bl	get_header_height
 2544 0056 0346     		mov	r3, r0
 2545 0058 9BB2     		uxth	r3, r3
 2546 005a 2344     		add	r3, r3, r4
 2547 005c 9BB2     		uxth	r3, r3
 2548 005e 1BB2     		sxth	r3, r3
 2549 0060 A7F85230 		strh	r3, [r7, #82]	@ movhi
 683:..\..\..\lvgl\version_6.1.2\lvgl\src\lv_objx/lv_calendar.c **** 
 684:..\..\..\lvgl\version_6.1.2\lvgl\src\lv_objx/lv_calendar.c ****     lv_draw_rect(&header_area, mask, ext->style_header, opa_scale);
 2550              		.loc 3 684 0
ARM GAS  C:\Users\tmj32\AppData\Local\Temp\cc0vWRpX.s 			page 62


 2551 0064 FB6D     		ldr	r3, [r7, #92]
 2552 0066 DA69     		ldr	r2, [r3, #28]
 2553 0068 97F85A30 		ldrb	r3, [r7, #90]	@ zero_extendqisi2
 2554 006c 07F14C00 		add	r0, r7, #76
 2555 0070 3968     		ldr	r1, [r7]
 2556 0072 FFF7FEFF 		bl	lv_draw_rect
 685:..\..\..\lvgl\version_6.1.2\lvgl\src\lv_objx/lv_calendar.c **** 
 686:..\..\..\lvgl\version_6.1.2\lvgl\src\lv_objx/lv_calendar.c ****     /*Add the year + month name*/
 687:..\..\..\lvgl\version_6.1.2\lvgl\src\lv_objx/lv_calendar.c ****     char txt_buf[64];
 688:..\..\..\lvgl\version_6.1.2\lvgl\src\lv_objx/lv_calendar.c ****     lv_utils_num_to_str(ext->showed_date.year, txt_buf);
 2557              		.loc 3 688 0
 2558 0076 FB6D     		ldr	r3, [r7, #92]
 2559 0078 9B88     		ldrh	r3, [r3, #4]
 2560 007a 1A46     		mov	r2, r3
 2561 007c 07F10C03 		add	r3, r7, #12
 2562 0080 1946     		mov	r1, r3
 2563 0082 1046     		mov	r0, r2
 2564 0084 FFF7FEFF 		bl	lv_utils_num_to_str
 689:..\..\..\lvgl\version_6.1.2\lvgl\src\lv_objx/lv_calendar.c ****     txt_buf[4] = ' ';
 2565              		.loc 3 689 0
 2566 0088 2023     		movs	r3, #32
 2567 008a 3B74     		strb	r3, [r7, #16]
 690:..\..\..\lvgl\version_6.1.2\lvgl\src\lv_objx/lv_calendar.c ****     txt_buf[5] = '\0';
 2568              		.loc 3 690 0
 2569 008c 0023     		movs	r3, #0
 2570 008e 7B74     		strb	r3, [r7, #17]
 691:..\..\..\lvgl\version_6.1.2\lvgl\src\lv_objx/lv_calendar.c ****     strcpy(&txt_buf[5], get_month_name(calendar, ext->showed_date.month));
 2571              		.loc 3 691 0
 2572 0090 FB6D     		ldr	r3, [r7, #92]
 2573 0092 93F90630 		ldrsb	r3, [r3, #6]
 2574 0096 1946     		mov	r1, r3
 2575 0098 7868     		ldr	r0, [r7, #4]
 2576 009a FFF7FEFF 		bl	get_month_name
 2577 009e 0246     		mov	r2, r0
 2578 00a0 07F10C03 		add	r3, r7, #12
 2579 00a4 0533     		adds	r3, r3, #5
 2580 00a6 1146     		mov	r1, r2
 2581 00a8 1846     		mov	r0, r3
 2582 00aa FFF7FEFF 		bl	strcpy
 692:..\..\..\lvgl\version_6.1.2\lvgl\src\lv_objx/lv_calendar.c ****     header_area.y1 += ext->style_header->body.padding.top;
 2583              		.loc 3 692 0
 2584 00ae B7F94E30 		ldrsh	r3, [r7, #78]
 2585 00b2 9AB2     		uxth	r2, r3
 2586 00b4 FB6D     		ldr	r3, [r7, #92]
 2587 00b6 DB69     		ldr	r3, [r3, #28]
 2588 00b8 B3F92030 		ldrsh	r3, [r3, #32]
 2589 00bc 9BB2     		uxth	r3, r3
 2590 00be 1344     		add	r3, r3, r2
 2591 00c0 9BB2     		uxth	r3, r3
 2592 00c2 1BB2     		sxth	r3, r3
 2593 00c4 A7F84E30 		strh	r3, [r7, #78]	@ movhi
 693:..\..\..\lvgl\version_6.1.2\lvgl\src\lv_objx/lv_calendar.c ****     lv_draw_label(&header_area, mask, ext->style_header, opa_scale, txt_buf, LV_TXT_FLAG_CENTER, NU
 2594              		.loc 3 693 0
 2595 00c8 FB6D     		ldr	r3, [r7, #92]
 2596 00ca DA69     		ldr	r2, [r3, #28]
 2597 00cc 97F85A10 		ldrb	r1, [r7, #90]	@ zero_extendqisi2
 2598 00d0 07F14C00 		add	r0, r7, #76
ARM GAS  C:\Users\tmj32\AppData\Local\Temp\cc0vWRpX.s 			page 63


 2599 00d4 97F85B30 		ldrb	r3, [r7, #91]	@ zero_extendqisi2
 2600 00d8 0593     		str	r3, [sp, #20]
 2601 00da 0023     		movs	r3, #0
 2602 00dc 0493     		str	r3, [sp, #16]
 2603 00de 0023     		movs	r3, #0
 2604 00e0 0393     		str	r3, [sp, #12]
 2605 00e2 0023     		movs	r3, #0
 2606 00e4 0293     		str	r3, [sp, #8]
 2607 00e6 0423     		movs	r3, #4
 2608 00e8 0193     		str	r3, [sp, #4]
 2609 00ea 07F10C03 		add	r3, r7, #12
 2610 00ee 0093     		str	r3, [sp]
 2611 00f0 0B46     		mov	r3, r1
 2612 00f2 3968     		ldr	r1, [r7]
 2613 00f4 FFF7FEFF 		bl	lv_draw_label
 694:..\..\..\lvgl\version_6.1.2\lvgl\src\lv_objx/lv_calendar.c **** 
 695:..\..\..\lvgl\version_6.1.2\lvgl\src\lv_objx/lv_calendar.c ****     /*Add the left arrow*/
 696:..\..\..\lvgl\version_6.1.2\lvgl\src\lv_objx/lv_calendar.c ****     const lv_style_t * arrow_style = ext->btn_pressing < 0 ? ext->style_header_pr : ext->style_head
 2614              		.loc 3 696 0
 2615 00f8 FB6D     		ldr	r3, [r7, #92]
 2616 00fa 93F90C30 		ldrsb	r3, [r3, #12]
 2617 00fe 002B     		cmp	r3, #0
 2618 0100 02DA     		bge	.L122
 2619              		.loc 3 696 0 is_stmt 0 discriminator 1
 2620 0102 FB6D     		ldr	r3, [r7, #92]
 2621 0104 1B6A     		ldr	r3, [r3, #32]
 2622 0106 01E0     		b	.L123
 2623              	.L122:
 2624              		.loc 3 696 0 discriminator 2
 2625 0108 FB6D     		ldr	r3, [r7, #92]
 2626 010a DB69     		ldr	r3, [r3, #28]
 2627              	.L123:
 2628              		.loc 3 696 0 discriminator 4
 2629 010c 7B65     		str	r3, [r7, #84]
 697:..\..\..\lvgl\version_6.1.2\lvgl\src\lv_objx/lv_calendar.c ****     header_area.x1 += ext->style_header->body.padding.left;
 2630              		.loc 3 697 0 is_stmt 1 discriminator 4
 2631 010e B7F94C30 		ldrsh	r3, [r7, #76]
 2632 0112 9AB2     		uxth	r2, r3
 2633 0114 FB6D     		ldr	r3, [r7, #92]
 2634 0116 DB69     		ldr	r3, [r3, #28]
 2635 0118 B3F92430 		ldrsh	r3, [r3, #36]
 2636 011c 9BB2     		uxth	r3, r3
 2637 011e 1344     		add	r3, r3, r2
 2638 0120 9BB2     		uxth	r3, r3
 2639 0122 1BB2     		sxth	r3, r3
 2640 0124 A7F84C30 		strh	r3, [r7, #76]	@ movhi
 698:..\..\..\lvgl\version_6.1.2\lvgl\src\lv_objx/lv_calendar.c ****     lv_draw_label(&header_area, mask, arrow_style, opa_scale, LV_SYMBOL_LEFT, LV_TXT_FLAG_NONE, NUL
 2641              		.loc 3 698 0 discriminator 4
 2642 0128 97F85A20 		ldrb	r2, [r7, #90]	@ zero_extendqisi2
 2643 012c 07F14C00 		add	r0, r7, #76
 2644 0130 97F85B30 		ldrb	r3, [r7, #91]	@ zero_extendqisi2
 2645 0134 0593     		str	r3, [sp, #20]
 2646 0136 0023     		movs	r3, #0
 2647 0138 0493     		str	r3, [sp, #16]
 2648 013a 0023     		movs	r3, #0
 2649 013c 0393     		str	r3, [sp, #12]
 2650 013e 0023     		movs	r3, #0
ARM GAS  C:\Users\tmj32\AppData\Local\Temp\cc0vWRpX.s 			page 64


 2651 0140 0293     		str	r3, [sp, #8]
 2652 0142 0023     		movs	r3, #0
 2653 0144 0193     		str	r3, [sp, #4]
 2654 0146 244B     		ldr	r3, .L126
 2655 0148 0093     		str	r3, [sp]
 2656 014a 1346     		mov	r3, r2
 2657 014c 7A6D     		ldr	r2, [r7, #84]
 2658 014e 3968     		ldr	r1, [r7]
 2659 0150 FFF7FEFF 		bl	lv_draw_label
 699:..\..\..\lvgl\version_6.1.2\lvgl\src\lv_objx/lv_calendar.c **** 
 700:..\..\..\lvgl\version_6.1.2\lvgl\src\lv_objx/lv_calendar.c ****     /*Add the right arrow*/
 701:..\..\..\lvgl\version_6.1.2\lvgl\src\lv_objx/lv_calendar.c ****     arrow_style    = ext->btn_pressing > 0 ? ext->style_header_pr : ext->style_header;
 2660              		.loc 3 701 0 discriminator 4
 2661 0154 FB6D     		ldr	r3, [r7, #92]
 2662 0156 93F90C30 		ldrsb	r3, [r3, #12]
 2663 015a 002B     		cmp	r3, #0
 2664 015c 02DD     		ble	.L124
 2665              		.loc 3 701 0 is_stmt 0 discriminator 1
 2666 015e FB6D     		ldr	r3, [r7, #92]
 2667 0160 1B6A     		ldr	r3, [r3, #32]
 2668 0162 01E0     		b	.L125
 2669              	.L124:
 2670              		.loc 3 701 0 discriminator 2
 2671 0164 FB6D     		ldr	r3, [r7, #92]
 2672 0166 DB69     		ldr	r3, [r3, #28]
 2673              	.L125:
 2674              		.loc 3 701 0 discriminator 4
 2675 0168 7B65     		str	r3, [r7, #84]
 702:..\..\..\lvgl\version_6.1.2\lvgl\src\lv_objx/lv_calendar.c ****     header_area.x1 = header_area.x2 - ext->style_header->body.padding.right -
 2676              		.loc 3 702 0 is_stmt 1 discriminator 4
 2677 016a B7F95030 		ldrsh	r3, [r7, #80]
 2678 016e 9AB2     		uxth	r2, r3
 2679 0170 FB6D     		ldr	r3, [r7, #92]
 2680 0172 DB69     		ldr	r3, [r3, #28]
 2681 0174 B3F92630 		ldrsh	r3, [r3, #38]
 2682 0178 9BB2     		uxth	r3, r3
 2683 017a D31A     		subs	r3, r2, r3
 2684 017c 9CB2     		uxth	r4, r3
 703:..\..\..\lvgl\version_6.1.2\lvgl\src\lv_objx/lv_calendar.c ****                      lv_txt_get_width(LV_SYMBOL_RIGHT, (uint16_t)strlen(LV_SYMBOL_RIGHT), arrow_sty
 2685              		.loc 3 703 0 discriminator 4
 2686 017e 7B6D     		ldr	r3, [r7, #84]
 2687 0180 5A6B     		ldr	r2, [r3, #52]
 2688 0182 7B6D     		ldr	r3, [r7, #84]
 2689 0184 B3F93A10 		ldrsh	r1, [r3, #58]
 2690 0188 0023     		movs	r3, #0
 2691 018a 0093     		str	r3, [sp]
 2692 018c 0B46     		mov	r3, r1
 2693 018e 0321     		movs	r1, #3
 2694 0190 1248     		ldr	r0, .L126+4
 2695 0192 FFF7FEFF 		bl	lv_txt_get_width
 2696 0196 0346     		mov	r3, r0
 702:..\..\..\lvgl\version_6.1.2\lvgl\src\lv_objx/lv_calendar.c ****     header_area.x1 = header_area.x2 - ext->style_header->body.padding.right -
 2697              		.loc 3 702 0 discriminator 4
 2698 0198 9BB2     		uxth	r3, r3
 2699 019a E31A     		subs	r3, r4, r3
 2700 019c 9BB2     		uxth	r3, r3
 2701 019e 1BB2     		sxth	r3, r3
ARM GAS  C:\Users\tmj32\AppData\Local\Temp\cc0vWRpX.s 			page 65


 2702 01a0 A7F84C30 		strh	r3, [r7, #76]	@ movhi
 704:..\..\..\lvgl\version_6.1.2\lvgl\src\lv_objx/lv_calendar.c ****                                       arrow_style->text.line_space, LV_TXT_FLAG_NONE);
 705:..\..\..\lvgl\version_6.1.2\lvgl\src\lv_objx/lv_calendar.c ****     lv_draw_label(&header_area, mask, arrow_style, opa_scale, LV_SYMBOL_RIGHT, LV_TXT_FLAG_NONE, NU
 2703              		.loc 3 705 0 discriminator 4
 2704 01a4 97F85A20 		ldrb	r2, [r7, #90]	@ zero_extendqisi2
 2705 01a8 07F14C00 		add	r0, r7, #76
 2706 01ac 97F85B30 		ldrb	r3, [r7, #91]	@ zero_extendqisi2
 2707 01b0 0593     		str	r3, [sp, #20]
 2708 01b2 0023     		movs	r3, #0
 2709 01b4 0493     		str	r3, [sp, #16]
 2710 01b6 0023     		movs	r3, #0
 2711 01b8 0393     		str	r3, [sp, #12]
 2712 01ba 0023     		movs	r3, #0
 2713 01bc 0293     		str	r3, [sp, #8]
 2714 01be 0023     		movs	r3, #0
 2715 01c0 0193     		str	r3, [sp, #4]
 2716 01c2 064B     		ldr	r3, .L126+4
 2717 01c4 0093     		str	r3, [sp]
 2718 01c6 1346     		mov	r3, r2
 2719 01c8 7A6D     		ldr	r2, [r7, #84]
 2720 01ca 3968     		ldr	r1, [r7]
 2721 01cc FFF7FEFF 		bl	lv_draw_label
 706:..\..\..\lvgl\version_6.1.2\lvgl\src\lv_objx/lv_calendar.c **** }
 2722              		.loc 3 706 0 discriminator 4
 2723 01d0 00BF     		nop
 2724 01d2 6437     		adds	r7, r7, #100
 2725              		.cfi_def_cfa_offset 12
 2726 01d4 BD46     		mov	sp, r7
 2727              		.cfi_def_cfa_register 13
 2728              		@ sp needed
 2729 01d6 90BD     		pop	{r4, r7, pc}
 2730              	.L127:
 2731              		.align	2
 2732              	.L126:
 2733 01d8 94000000 		.word	.LC20
 2734 01dc 98000000 		.word	.LC21
 2735              		.cfi_endproc
 2736              	.LFE51:
 2737              		.size	draw_header, .-draw_header
 2738              		.section	.text.draw_day_names,"ax",%progbits
 2739              		.align	2
 2740              		.thumb
 2741              		.thumb_func
 2742              		.type	draw_day_names, %function
 2743              	draw_day_names:
 2744              	.LFB52:
 707:..\..\..\lvgl\version_6.1.2\lvgl\src\lv_objx/lv_calendar.c **** 
 708:..\..\..\lvgl\version_6.1.2\lvgl\src\lv_objx/lv_calendar.c **** /**
 709:..\..\..\lvgl\version_6.1.2\lvgl\src\lv_objx/lv_calendar.c ****  * Draw the day's name below the header
 710:..\..\..\lvgl\version_6.1.2\lvgl\src\lv_objx/lv_calendar.c ****  * @param calendar point to a calendar
 711:..\..\..\lvgl\version_6.1.2\lvgl\src\lv_objx/lv_calendar.c ****  * @param mask a mask for drawing
 712:..\..\..\lvgl\version_6.1.2\lvgl\src\lv_objx/lv_calendar.c ****  */
 713:..\..\..\lvgl\version_6.1.2\lvgl\src\lv_objx/lv_calendar.c **** static void draw_day_names(lv_obj_t * calendar, const lv_area_t * mask)
 714:..\..\..\lvgl\version_6.1.2\lvgl\src\lv_objx/lv_calendar.c **** {
 2745              		.loc 3 714 0
 2746              		.cfi_startproc
 2747              		@ args = 0, pretend = 0, frame = 32
ARM GAS  C:\Users\tmj32\AppData\Local\Temp\cc0vWRpX.s 			page 66


 2748              		@ frame_needed = 1, uses_anonymous_args = 0
 2749 0000 90B5     		push	{r4, r7, lr}
 2750              		.cfi_def_cfa_offset 12
 2751              		.cfi_offset 4, -12
 2752              		.cfi_offset 7, -8
 2753              		.cfi_offset 14, -4
 2754 0002 8FB0     		sub	sp, sp, #60
 2755              		.cfi_def_cfa_offset 72
 2756 0004 06AF     		add	r7, sp, #24
 2757              		.cfi_def_cfa 7, 48
 2758 0006 7860     		str	r0, [r7, #4]
 2759 0008 3960     		str	r1, [r7]
 715:..\..\..\lvgl\version_6.1.2\lvgl\src\lv_objx/lv_calendar.c ****     lv_calendar_ext_t * ext = lv_obj_get_ext_attr(calendar);
 2760              		.loc 3 715 0
 2761 000a 7868     		ldr	r0, [r7, #4]
 2762 000c FFF7FEFF 		bl	lv_obj_get_ext_attr
 2763 0010 B861     		str	r0, [r7, #24]
 716:..\..\..\lvgl\version_6.1.2\lvgl\src\lv_objx/lv_calendar.c ****     lv_bidi_dir_t bidi_dir = lv_obj_get_base_dir(calendar);
 2764              		.loc 3 716 0
 2765 0012 7868     		ldr	r0, [r7, #4]
 2766 0014 FFF7FEFF 		bl	lv_obj_get_base_dir
 2767 0018 0346     		mov	r3, r0
 2768 001a FB75     		strb	r3, [r7, #23]
 717:..\..\..\lvgl\version_6.1.2\lvgl\src\lv_objx/lv_calendar.c ****     lv_opa_t opa_scale      = lv_obj_get_opa_scale(calendar);
 2769              		.loc 3 717 0
 2770 001c 7868     		ldr	r0, [r7, #4]
 2771 001e FFF7FEFF 		bl	lv_obj_get_opa_scale
 2772 0022 0346     		mov	r3, r0
 2773 0024 BB75     		strb	r3, [r7, #22]
 718:..\..\..\lvgl\version_6.1.2\lvgl\src\lv_objx/lv_calendar.c **** 
 719:..\..\..\lvgl\version_6.1.2\lvgl\src\lv_objx/lv_calendar.c ****     lv_coord_t l_pad = ext->style_day_names->body.padding.left;
 2774              		.loc 3 719 0
 2775 0026 BB69     		ldr	r3, [r7, #24]
 2776 0028 5B6A     		ldr	r3, [r3, #36]
 2777 002a 9B8C     		ldrh	r3, [r3, #36]	@ movhi
 2778 002c BB82     		strh	r3, [r7, #20]	@ movhi
 720:..\..\..\lvgl\version_6.1.2\lvgl\src\lv_objx/lv_calendar.c ****     lv_coord_t w =
 721:..\..\..\lvgl\version_6.1.2\lvgl\src\lv_objx/lv_calendar.c ****         lv_obj_get_width(calendar) - ext->style_day_names->body.padding.left - ext->style_day_names
 2779              		.loc 3 721 0
 2780 002e 7868     		ldr	r0, [r7, #4]
 2781 0030 FFF7FEFF 		bl	lv_obj_get_width
 2782 0034 0346     		mov	r3, r0
 720:..\..\..\lvgl\version_6.1.2\lvgl\src\lv_objx/lv_calendar.c ****     lv_coord_t w =
 2783              		.loc 3 720 0
 2784 0036 9AB2     		uxth	r2, r3
 2785              		.loc 3 721 0
 2786 0038 BB69     		ldr	r3, [r7, #24]
 2787 003a 5B6A     		ldr	r3, [r3, #36]
 2788 003c B3F92430 		ldrsh	r3, [r3, #36]
 720:..\..\..\lvgl\version_6.1.2\lvgl\src\lv_objx/lv_calendar.c ****     lv_coord_t w =
 2789              		.loc 3 720 0
 2790 0040 9BB2     		uxth	r3, r3
 2791 0042 D31A     		subs	r3, r2, r3
 2792 0044 9AB2     		uxth	r2, r3
 2793              		.loc 3 721 0
 2794 0046 BB69     		ldr	r3, [r7, #24]
 2795 0048 5B6A     		ldr	r3, [r3, #36]
ARM GAS  C:\Users\tmj32\AppData\Local\Temp\cc0vWRpX.s 			page 67


 2796 004a B3F92630 		ldrsh	r3, [r3, #38]
 720:..\..\..\lvgl\version_6.1.2\lvgl\src\lv_objx/lv_calendar.c ****     lv_coord_t w =
 2797              		.loc 3 720 0
 2798 004e 9BB2     		uxth	r3, r3
 2799 0050 D31A     		subs	r3, r2, r3
 2800 0052 9BB2     		uxth	r3, r3
 2801 0054 7B82     		strh	r3, [r7, #18]	@ movhi
 722:..\..\..\lvgl\version_6.1.2\lvgl\src\lv_objx/lv_calendar.c ****     lv_coord_t box_w = w / 7;
 2802              		.loc 3 722 0
 2803 0056 B7F91230 		ldrsh	r3, [r7, #18]
 2804 005a 3B4A     		ldr	r2, .L131
 2805 005c 82FB0312 		smull	r1, r2, r2, r3
 2806 0060 1A44     		add	r2, r2, r3
 2807 0062 9210     		asrs	r2, r2, #2
 2808 0064 DB17     		asrs	r3, r3, #31
 2809 0066 D31A     		subs	r3, r2, r3
 2810 0068 3B82     		strh	r3, [r7, #16]	@ movhi
 723:..\..\..\lvgl\version_6.1.2\lvgl\src\lv_objx/lv_calendar.c ****     lv_area_t label_area;
 724:..\..\..\lvgl\version_6.1.2\lvgl\src\lv_objx/lv_calendar.c ****     label_area.y1 = calendar->coords.y1 + get_header_height(calendar) + ext->style_day_names->body.
 2811              		.loc 3 724 0
 2812 006a 7B68     		ldr	r3, [r7, #4]
 2813 006c B3F91230 		ldrsh	r3, [r3, #18]
 2814 0070 9CB2     		uxth	r4, r3
 2815 0072 7868     		ldr	r0, [r7, #4]
 2816 0074 FFF7FEFF 		bl	get_header_height
 2817 0078 0346     		mov	r3, r0
 2818 007a 9BB2     		uxth	r3, r3
 2819 007c 2344     		add	r3, r3, r4
 2820 007e 9AB2     		uxth	r2, r3
 2821 0080 BB69     		ldr	r3, [r7, #24]
 2822 0082 5B6A     		ldr	r3, [r3, #36]
 2823 0084 B3F92030 		ldrsh	r3, [r3, #32]
 2824 0088 9BB2     		uxth	r3, r3
 2825 008a 1344     		add	r3, r3, r2
 2826 008c 9BB2     		uxth	r3, r3
 2827 008e 1BB2     		sxth	r3, r3
 2828 0090 7B81     		strh	r3, [r7, #10]	@ movhi
 725:..\..\..\lvgl\version_6.1.2\lvgl\src\lv_objx/lv_calendar.c ****     label_area.y2 = label_area.y1 + lv_font_get_line_height(ext->style_day_names->text.font);
 2829              		.loc 3 725 0
 2830 0092 B7F90A30 		ldrsh	r3, [r7, #10]
 2831 0096 9CB2     		uxth	r4, r3
 2832 0098 BB69     		ldr	r3, [r7, #24]
 2833 009a 5B6A     		ldr	r3, [r3, #36]
 2834 009c 5B6B     		ldr	r3, [r3, #52]
 2835 009e 1846     		mov	r0, r3
 2836 00a0 FFF7FEFF 		bl	lv_font_get_line_height
 2837 00a4 0346     		mov	r3, r0
 2838 00a6 9BB2     		uxth	r3, r3
 2839 00a8 2344     		add	r3, r3, r4
 2840 00aa 9BB2     		uxth	r3, r3
 2841 00ac 1BB2     		sxth	r3, r3
 2842 00ae FB81     		strh	r3, [r7, #14]	@ movhi
 726:..\..\..\lvgl\version_6.1.2\lvgl\src\lv_objx/lv_calendar.c ****     uint32_t i;
 727:..\..\..\lvgl\version_6.1.2\lvgl\src\lv_objx/lv_calendar.c ****     for(i = 0; i < 7; i++) {
 2843              		.loc 3 727 0
 2844 00b0 0023     		movs	r3, #0
 2845 00b2 FB61     		str	r3, [r7, #28]
ARM GAS  C:\Users\tmj32\AppData\Local\Temp\cc0vWRpX.s 			page 68


 2846 00b4 40E0     		b	.L129
 2847              	.L130:
 728:..\..\..\lvgl\version_6.1.2\lvgl\src\lv_objx/lv_calendar.c ****         label_area.x1 = calendar->coords.x1 + (w * i) / 7 + l_pad;
 2848              		.loc 3 728 0 discriminator 3
 2849 00b6 7B68     		ldr	r3, [r7, #4]
 2850 00b8 B3F91030 		ldrsh	r3, [r3, #16]
 2851 00bc 99B2     		uxth	r1, r3
 2852 00be B7F91230 		ldrsh	r3, [r7, #18]
 2853 00c2 FA69     		ldr	r2, [r7, #28]
 2854 00c4 02FB03F2 		mul	r2, r2, r3
 2855 00c8 204B     		ldr	r3, .L131+4
 2856 00ca A3FB0203 		umull	r0, r3, r3, r2
 2857 00ce D21A     		subs	r2, r2, r3
 2858 00d0 5208     		lsrs	r2, r2, #1
 2859 00d2 1344     		add	r3, r3, r2
 2860 00d4 9B08     		lsrs	r3, r3, #2
 2861 00d6 9BB2     		uxth	r3, r3
 2862 00d8 0B44     		add	r3, r3, r1
 2863 00da 9AB2     		uxth	r2, r3
 2864 00dc BB8A     		ldrh	r3, [r7, #20]
 2865 00de 1344     		add	r3, r3, r2
 2866 00e0 9BB2     		uxth	r3, r3
 2867 00e2 1BB2     		sxth	r3, r3
 2868 00e4 3B81     		strh	r3, [r7, #8]	@ movhi
 729:..\..\..\lvgl\version_6.1.2\lvgl\src\lv_objx/lv_calendar.c ****         label_area.x2 = label_area.x1 + box_w - 1;
 2869              		.loc 3 729 0 discriminator 3
 2870 00e6 B7F90830 		ldrsh	r3, [r7, #8]
 2871 00ea 9AB2     		uxth	r2, r3
 2872 00ec 3B8A     		ldrh	r3, [r7, #16]
 2873 00ee 1344     		add	r3, r3, r2
 2874 00f0 9BB2     		uxth	r3, r3
 2875 00f2 013B     		subs	r3, r3, #1
 2876 00f4 9BB2     		uxth	r3, r3
 2877 00f6 1BB2     		sxth	r3, r3
 2878 00f8 BB81     		strh	r3, [r7, #12]	@ movhi
 730:..\..\..\lvgl\version_6.1.2\lvgl\src\lv_objx/lv_calendar.c ****         lv_draw_label(&label_area, mask, ext->style_day_names, opa_scale, get_day_name(calendar, i)
 2879              		.loc 3 730 0 discriminator 3
 2880 00fa BB69     		ldr	r3, [r7, #24]
 2881 00fc 5C6A     		ldr	r4, [r3, #36]
 2882 00fe FB69     		ldr	r3, [r7, #28]
 2883 0100 DBB2     		uxtb	r3, r3
 2884 0102 1946     		mov	r1, r3
 2885 0104 7868     		ldr	r0, [r7, #4]
 2886 0106 FFF7FEFF 		bl	get_day_name
 2887 010a 0146     		mov	r1, r0
 2888 010c BA7D     		ldrb	r2, [r7, #22]	@ zero_extendqisi2
 2889 010e 07F10800 		add	r0, r7, #8
 2890 0112 FB7D     		ldrb	r3, [r7, #23]	@ zero_extendqisi2
 2891 0114 0593     		str	r3, [sp, #20]
 2892 0116 0023     		movs	r3, #0
 2893 0118 0493     		str	r3, [sp, #16]
 2894 011a 0023     		movs	r3, #0
 2895 011c 0393     		str	r3, [sp, #12]
 2896 011e 0023     		movs	r3, #0
 2897 0120 0293     		str	r3, [sp, #8]
 2898 0122 0423     		movs	r3, #4
 2899 0124 0193     		str	r3, [sp, #4]
ARM GAS  C:\Users\tmj32\AppData\Local\Temp\cc0vWRpX.s 			page 69


 2900 0126 0091     		str	r1, [sp]
 2901 0128 1346     		mov	r3, r2
 2902 012a 2246     		mov	r2, r4
 2903 012c 3968     		ldr	r1, [r7]
 2904 012e FFF7FEFF 		bl	lv_draw_label
 727:..\..\..\lvgl\version_6.1.2\lvgl\src\lv_objx/lv_calendar.c ****         label_area.x1 = calendar->coords.x1 + (w * i) / 7 + l_pad;
 2905              		.loc 3 727 0 discriminator 3
 2906 0132 FB69     		ldr	r3, [r7, #28]
 2907 0134 0133     		adds	r3, r3, #1
 2908 0136 FB61     		str	r3, [r7, #28]
 2909              	.L129:
 727:..\..\..\lvgl\version_6.1.2\lvgl\src\lv_objx/lv_calendar.c ****         label_area.x1 = calendar->coords.x1 + (w * i) / 7 + l_pad;
 2910              		.loc 3 727 0 is_stmt 0 discriminator 1
 2911 0138 FB69     		ldr	r3, [r7, #28]
 2912 013a 062B     		cmp	r3, #6
 2913 013c BBD9     		bls	.L130
 731:..\..\..\lvgl\version_6.1.2\lvgl\src\lv_objx/lv_calendar.c ****                       NULL, NULL, NULL, bidi_dir);
 732:..\..\..\lvgl\version_6.1.2\lvgl\src\lv_objx/lv_calendar.c ****     }
 733:..\..\..\lvgl\version_6.1.2\lvgl\src\lv_objx/lv_calendar.c **** }
 2914              		.loc 3 733 0 is_stmt 1
 2915 013e 00BF     		nop
 2916 0140 2437     		adds	r7, r7, #36
 2917              		.cfi_def_cfa_offset 12
 2918 0142 BD46     		mov	sp, r7
 2919              		.cfi_def_cfa_register 13
 2920              		@ sp needed
 2921 0144 90BD     		pop	{r4, r7, pc}
 2922              	.L132:
 2923 0146 00BF     		.align	2
 2924              	.L131:
 2925 0148 93244992 		.word	-1840700269
 2926 014c 25499224 		.word	613566757
 2927              		.cfi_endproc
 2928              	.LFE52:
 2929              		.size	draw_day_names, .-draw_day_names
 2930              		.section	.text.draw_days,"ax",%progbits
 2931              		.align	2
 2932              		.thumb
 2933              		.thumb_func
 2934              		.type	draw_days, %function
 2935              	draw_days:
 2936              	.LFB53:
 734:..\..\..\lvgl\version_6.1.2\lvgl\src\lv_objx/lv_calendar.c **** 
 735:..\..\..\lvgl\version_6.1.2\lvgl\src\lv_objx/lv_calendar.c **** /**
 736:..\..\..\lvgl\version_6.1.2\lvgl\src\lv_objx/lv_calendar.c ****  * Draw the date numbers in a matrix
 737:..\..\..\lvgl\version_6.1.2\lvgl\src\lv_objx/lv_calendar.c ****  * @param calendar point to a calendar
 738:..\..\..\lvgl\version_6.1.2\lvgl\src\lv_objx/lv_calendar.c ****  * @param mask a mask for drawing
 739:..\..\..\lvgl\version_6.1.2\lvgl\src\lv_objx/lv_calendar.c ****  */
 740:..\..\..\lvgl\version_6.1.2\lvgl\src\lv_objx/lv_calendar.c **** static void draw_days(lv_obj_t * calendar, const lv_area_t * mask)
 741:..\..\..\lvgl\version_6.1.2\lvgl\src\lv_objx/lv_calendar.c **** {
 2937              		.loc 3 741 0
 2938              		.cfi_startproc
 2939              		@ args = 0, pretend = 0, frame = 88
 2940              		@ frame_needed = 1, uses_anonymous_args = 0
 2941 0000 90B5     		push	{r4, r7, lr}
 2942              		.cfi_def_cfa_offset 12
 2943              		.cfi_offset 4, -12
ARM GAS  C:\Users\tmj32\AppData\Local\Temp\cc0vWRpX.s 			page 70


 2944              		.cfi_offset 7, -8
 2945              		.cfi_offset 14, -4
 2946 0002 9DB0     		sub	sp, sp, #116
 2947              		.cfi_def_cfa_offset 128
 2948 0004 06AF     		add	r7, sp, #24
 2949              		.cfi_def_cfa 7, 104
 2950 0006 7860     		str	r0, [r7, #4]
 2951 0008 3960     		str	r1, [r7]
 742:..\..\..\lvgl\version_6.1.2\lvgl\src\lv_objx/lv_calendar.c ****     lv_calendar_ext_t * ext     = lv_obj_get_ext_attr(calendar);
 2952              		.loc 3 742 0
 2953 000a 7868     		ldr	r0, [r7, #4]
 2954 000c FFF7FEFF 		bl	lv_obj_get_ext_attr
 2955 0010 F863     		str	r0, [r7, #60]
 743:..\..\..\lvgl\version_6.1.2\lvgl\src\lv_objx/lv_calendar.c ****     lv_bidi_dir_t bidi_dir = lv_obj_get_base_dir(calendar);
 2956              		.loc 3 743 0
 2957 0012 7868     		ldr	r0, [r7, #4]
 2958 0014 FFF7FEFF 		bl	lv_obj_get_base_dir
 2959 0018 0346     		mov	r3, r0
 2960 001a 87F83B30 		strb	r3, [r7, #59]
 744:..\..\..\lvgl\version_6.1.2\lvgl\src\lv_objx/lv_calendar.c ****     const lv_style_t * style_bg = lv_calendar_get_style(calendar, LV_CALENDAR_STYLE_BG);
 2961              		.loc 3 744 0
 2962 001e 0021     		movs	r1, #0
 2963 0020 7868     		ldr	r0, [r7, #4]
 2964 0022 FFF7FEFF 		bl	lv_calendar_get_style
 2965 0026 7863     		str	r0, [r7, #52]
 745:..\..\..\lvgl\version_6.1.2\lvgl\src\lv_objx/lv_calendar.c ****     lv_area_t label_area;
 746:..\..\..\lvgl\version_6.1.2\lvgl\src\lv_objx/lv_calendar.c ****     lv_opa_t opa_scale = lv_obj_get_opa_scale(calendar);
 2966              		.loc 3 746 0
 2967 0028 7868     		ldr	r0, [r7, #4]
 2968 002a FFF7FEFF 		bl	lv_obj_get_opa_scale
 2969 002e 0346     		mov	r3, r0
 2970 0030 87F83330 		strb	r3, [r7, #51]
 747:..\..\..\lvgl\version_6.1.2\lvgl\src\lv_objx/lv_calendar.c ****     label_area.y1      = calendar->coords.y1 + get_header_height(calendar) + ext->style_day_names->
 2971              		.loc 3 747 0
 2972 0034 7B68     		ldr	r3, [r7, #4]
 2973 0036 B3F91230 		ldrsh	r3, [r3, #18]
 2974 003a 9CB2     		uxth	r4, r3
 2975 003c 7868     		ldr	r0, [r7, #4]
 2976 003e FFF7FEFF 		bl	get_header_height
 2977 0042 0346     		mov	r3, r0
 2978 0044 9BB2     		uxth	r3, r3
 2979 0046 2344     		add	r3, r3, r4
 2980 0048 9AB2     		uxth	r2, r3
 2981 004a FB6B     		ldr	r3, [r7, #60]
 2982 004c 5B6A     		ldr	r3, [r3, #36]
 2983 004e B3F92030 		ldrsh	r3, [r3, #32]
 2984 0052 9BB2     		uxth	r3, r3
 2985 0054 1344     		add	r3, r3, r2
 2986 0056 9CB2     		uxth	r4, r3
 748:..\..\..\lvgl\version_6.1.2\lvgl\src\lv_objx/lv_calendar.c ****                     lv_font_get_line_height(ext->style_day_names->text.font) +
 2987              		.loc 3 748 0
 2988 0058 FB6B     		ldr	r3, [r7, #60]
 2989 005a 5B6A     		ldr	r3, [r3, #36]
 2990 005c 5B6B     		ldr	r3, [r3, #52]
 2991 005e 1846     		mov	r0, r3
 2992 0060 FFF7FEFF 		bl	lv_font_get_line_height
 2993 0064 0346     		mov	r3, r0
ARM GAS  C:\Users\tmj32\AppData\Local\Temp\cc0vWRpX.s 			page 71


 747:..\..\..\lvgl\version_6.1.2\lvgl\src\lv_objx/lv_calendar.c ****     label_area.y1      = calendar->coords.y1 + get_header_height(calendar) + ext->style_day_names->
 2994              		.loc 3 747 0
 2995 0066 9BB2     		uxth	r3, r3
 2996 0068 2344     		add	r3, r3, r4
 2997 006a 9AB2     		uxth	r2, r3
 749:..\..\..\lvgl\version_6.1.2\lvgl\src\lv_objx/lv_calendar.c ****                     ext->style_day_names->body.padding.bottom;
 2998              		.loc 3 749 0
 2999 006c FB6B     		ldr	r3, [r7, #60]
 3000 006e 5B6A     		ldr	r3, [r3, #36]
 3001 0070 B3F92230 		ldrsh	r3, [r3, #34]
 747:..\..\..\lvgl\version_6.1.2\lvgl\src\lv_objx/lv_calendar.c ****     label_area.y1      = calendar->coords.y1 + get_header_height(calendar) + ext->style_day_names->
 3002              		.loc 3 747 0
 3003 0074 9BB2     		uxth	r3, r3
 3004 0076 1344     		add	r3, r3, r2
 3005 0078 9BB2     		uxth	r3, r3
 3006 007a 1BB2     		sxth	r3, r3
 3007 007c 7B84     		strh	r3, [r7, #34]	@ movhi
 750:..\..\..\lvgl\version_6.1.2\lvgl\src\lv_objx/lv_calendar.c ****     label_area.y2 = label_area.y1 + lv_font_get_line_height(style_bg->text.font);
 3008              		.loc 3 750 0
 3009 007e B7F92230 		ldrsh	r3, [r7, #34]
 3010 0082 9CB2     		uxth	r4, r3
 3011 0084 7B6B     		ldr	r3, [r7, #52]
 3012 0086 5B6B     		ldr	r3, [r3, #52]
 3013 0088 1846     		mov	r0, r3
 3014 008a FFF7FEFF 		bl	lv_font_get_line_height
 3015 008e 0346     		mov	r3, r0
 3016 0090 9BB2     		uxth	r3, r3
 3017 0092 2344     		add	r3, r3, r4
 3018 0094 9BB2     		uxth	r3, r3
 3019 0096 1BB2     		sxth	r3, r3
 3020 0098 FB84     		strh	r3, [r7, #38]	@ movhi
 751:..\..\..\lvgl\version_6.1.2\lvgl\src\lv_objx/lv_calendar.c **** 
 752:..\..\..\lvgl\version_6.1.2\lvgl\src\lv_objx/lv_calendar.c ****     lv_coord_t w          = lv_obj_get_width(calendar) - style_bg->body.padding.left - style_bg->bo
 3021              		.loc 3 752 0
 3022 009a 7868     		ldr	r0, [r7, #4]
 3023 009c FFF7FEFF 		bl	lv_obj_get_width
 3024 00a0 0346     		mov	r3, r0
 3025 00a2 9AB2     		uxth	r2, r3
 3026 00a4 7B6B     		ldr	r3, [r7, #52]
 3027 00a6 B3F92430 		ldrsh	r3, [r3, #36]
 3028 00aa 9BB2     		uxth	r3, r3
 3029 00ac D31A     		subs	r3, r2, r3
 3030 00ae 9AB2     		uxth	r2, r3
 3031 00b0 7B6B     		ldr	r3, [r7, #52]
 3032 00b2 B3F92630 		ldrsh	r3, [r3, #38]
 3033 00b6 9BB2     		uxth	r3, r3
 3034 00b8 D31A     		subs	r3, r2, r3
 3035 00ba 9BB2     		uxth	r3, r3
 3036 00bc 3B86     		strh	r3, [r7, #48]	@ movhi
 753:..\..\..\lvgl\version_6.1.2\lvgl\src\lv_objx/lv_calendar.c ****     lv_coord_t h          = calendar->coords.y2 - label_area.y1 - style_bg->body.padding.bottom;
 3037              		.loc 3 753 0
 3038 00be 7B68     		ldr	r3, [r7, #4]
 3039 00c0 B3F91630 		ldrsh	r3, [r3, #22]
 3040 00c4 9AB2     		uxth	r2, r3
 3041 00c6 B7F92230 		ldrsh	r3, [r7, #34]
 3042 00ca 9BB2     		uxth	r3, r3
 3043 00cc D31A     		subs	r3, r2, r3
ARM GAS  C:\Users\tmj32\AppData\Local\Temp\cc0vWRpX.s 			page 72


 3044 00ce 9AB2     		uxth	r2, r3
 3045 00d0 7B6B     		ldr	r3, [r7, #52]
 3046 00d2 B3F92230 		ldrsh	r3, [r3, #34]
 3047 00d6 9BB2     		uxth	r3, r3
 3048 00d8 D31A     		subs	r3, r2, r3
 3049 00da 9BB2     		uxth	r3, r3
 3050 00dc FB85     		strh	r3, [r7, #46]	@ movhi
 754:..\..\..\lvgl\version_6.1.2\lvgl\src\lv_objx/lv_calendar.c ****     lv_coord_t box_w      = w / 7;
 3051              		.loc 3 754 0
 3052 00de B7F93030 		ldrsh	r3, [r7, #48]
 3053 00e2 784A     		ldr	r2, .L158
 3054 00e4 82FB0312 		smull	r1, r2, r2, r3
 3055 00e8 1A44     		add	r2, r2, r3
 3056 00ea 9210     		asrs	r2, r2, #2
 3057 00ec DB17     		asrs	r3, r3, #31
 3058 00ee D31A     		subs	r3, r2, r3
 3059 00f0 BB85     		strh	r3, [r7, #44]	@ movhi
 755:..\..\..\lvgl\version_6.1.2\lvgl\src\lv_objx/lv_calendar.c ****     lv_coord_t vert_space = (h - (6 * lv_font_get_line_height(style_bg->text.font))) / 5;
 3060              		.loc 3 755 0
 3061 00f2 B7F92E40 		ldrsh	r4, [r7, #46]
 3062 00f6 7B6B     		ldr	r3, [r7, #52]
 3063 00f8 5B6B     		ldr	r3, [r3, #52]
 3064 00fa 1846     		mov	r0, r3
 3065 00fc FFF7FEFF 		bl	lv_font_get_line_height
 3066 0100 0346     		mov	r3, r0
 3067 0102 1A46     		mov	r2, r3
 3068 0104 1346     		mov	r3, r2
 3069 0106 9200     		lsls	r2, r2, #2
 3070 0108 9B1A     		subs	r3, r3, r2
 3071 010a 5B00     		lsls	r3, r3, #1
 3072 010c 2344     		add	r3, r3, r4
 3073 010e 6E4A     		ldr	r2, .L158+4
 3074 0110 82FB0312 		smull	r1, r2, r2, r3
 3075 0114 5210     		asrs	r2, r2, #1
 3076 0116 DB17     		asrs	r3, r3, #31
 3077 0118 D31A     		subs	r3, r2, r3
 3078 011a 7B85     		strh	r3, [r7, #42]	@ movhi
 756:..\..\..\lvgl\version_6.1.2\lvgl\src\lv_objx/lv_calendar.c **** 
 757:..\..\..\lvgl\version_6.1.2\lvgl\src\lv_objx/lv_calendar.c ****     uint32_t week;
 758:..\..\..\lvgl\version_6.1.2\lvgl\src\lv_objx/lv_calendar.c ****     uint8_t day_cnt;
 759:..\..\..\lvgl\version_6.1.2\lvgl\src\lv_objx/lv_calendar.c ****     uint8_t month_start_day = get_day_of_week(ext->showed_date.year, ext->showed_date.month, 1);
 3079              		.loc 3 759 0
 3080 011c FB6B     		ldr	r3, [r7, #60]
 3081 011e 9B88     		ldrh	r3, [r3, #4]
 3082 0120 1846     		mov	r0, r3
 3083 0122 FB6B     		ldr	r3, [r7, #60]
 3084 0124 93F90630 		ldrsb	r3, [r3, #6]
 3085 0128 0122     		movs	r2, #1
 3086 012a 1946     		mov	r1, r3
 3087 012c FFF7FEFF 		bl	get_day_of_week
 3088 0130 0346     		mov	r3, r0
 3089 0132 87F82930 		strb	r3, [r7, #41]
 760:..\..\..\lvgl\version_6.1.2\lvgl\src\lv_objx/lv_calendar.c ****     day_draw_state_t draw_state; /*true: Not the prev. or next month is drawn*/
 761:..\..\..\lvgl\version_6.1.2\lvgl\src\lv_objx/lv_calendar.c ****     const lv_style_t * act_style;
 762:..\..\..\lvgl\version_6.1.2\lvgl\src\lv_objx/lv_calendar.c **** 
 763:..\..\..\lvgl\version_6.1.2\lvgl\src\lv_objx/lv_calendar.c ****     /*If starting with the first day of the week then the previous month is not visible*/
 764:..\..\..\lvgl\version_6.1.2\lvgl\src\lv_objx/lv_calendar.c ****     if(month_start_day == 0) {
ARM GAS  C:\Users\tmj32\AppData\Local\Temp\cc0vWRpX.s 			page 73


 3090              		.loc 3 764 0
 3091 0136 97F82930 		ldrb	r3, [r7, #41]	@ zero_extendqisi2
 3092 013a 002B     		cmp	r3, #0
 3093 013c 08D1     		bne	.L134
 765:..\..\..\lvgl\version_6.1.2\lvgl\src\lv_objx/lv_calendar.c ****         day_cnt    = 1;
 3094              		.loc 3 765 0
 3095 013e 0123     		movs	r3, #1
 3096 0140 87F85330 		strb	r3, [r7, #83]
 766:..\..\..\lvgl\version_6.1.2\lvgl\src\lv_objx/lv_calendar.c ****         draw_state = DAY_DRAW_ACT_MONTH;
 3097              		.loc 3 766 0
 3098 0144 0123     		movs	r3, #1
 3099 0146 87F85230 		strb	r3, [r7, #82]
 767:..\..\..\lvgl\version_6.1.2\lvgl\src\lv_objx/lv_calendar.c ****         act_style  = style_bg;
 3100              		.loc 3 767 0
 3101 014a 7B6B     		ldr	r3, [r7, #52]
 3102 014c FB64     		str	r3, [r7, #76]
 3103 014e 1CE0     		b	.L135
 3104              	.L134:
 768:..\..\..\lvgl\version_6.1.2\lvgl\src\lv_objx/lv_calendar.c ****     } else {
 769:..\..\..\lvgl\version_6.1.2\lvgl\src\lv_objx/lv_calendar.c ****         draw_state = DAY_DRAW_PREV_MONTH;
 3105              		.loc 3 769 0
 3106 0150 0023     		movs	r3, #0
 3107 0152 87F85230 		strb	r3, [r7, #82]
 770:..\..\..\lvgl\version_6.1.2\lvgl\src\lv_objx/lv_calendar.c ****         day_cnt = get_month_length(ext->showed_date.year, ext->showed_date.month - 1); /*Length of 
 3108              		.loc 3 770 0
 3109 0156 FB6B     		ldr	r3, [r7, #60]
 3110 0158 9B88     		ldrh	r3, [r3, #4]
 3111 015a 1A46     		mov	r2, r3
 3112 015c FB6B     		ldr	r3, [r7, #60]
 3113 015e 93F90630 		ldrsb	r3, [r3, #6]
 3114 0162 013B     		subs	r3, r3, #1
 3115 0164 1946     		mov	r1, r3
 3116 0166 1046     		mov	r0, r2
 3117 0168 FFF7FEFF 		bl	get_month_length
 3118 016c 0346     		mov	r3, r0
 3119 016e 87F85330 		strb	r3, [r7, #83]
 771:..\..\..\lvgl\version_6.1.2\lvgl\src\lv_objx/lv_calendar.c ****         day_cnt -= month_start_day - 1; /*First visible number of the previous month*/
 3120              		.loc 3 771 0
 3121 0172 97F85320 		ldrb	r2, [r7, #83]
 3122 0176 97F82930 		ldrb	r3, [r7, #41]
 3123 017a D31A     		subs	r3, r2, r3
 3124 017c DBB2     		uxtb	r3, r3
 3125 017e 0133     		adds	r3, r3, #1
 3126 0180 87F85330 		strb	r3, [r7, #83]
 772:..\..\..\lvgl\version_6.1.2\lvgl\src\lv_objx/lv_calendar.c ****         act_style = ext->style_inactive_days;
 3127              		.loc 3 772 0
 3128 0184 FB6B     		ldr	r3, [r7, #60]
 3129 0186 DB6A     		ldr	r3, [r3, #44]
 3130 0188 FB64     		str	r3, [r7, #76]
 3131              	.L135:
 773:..\..\..\lvgl\version_6.1.2\lvgl\src\lv_objx/lv_calendar.c ****     }
 774:..\..\..\lvgl\version_6.1.2\lvgl\src\lv_objx/lv_calendar.c **** 
 775:..\..\..\lvgl\version_6.1.2\lvgl\src\lv_objx/lv_calendar.c ****     bool month_of_today_shown = false;
 3132              		.loc 3 775 0
 3133 018a 0023     		movs	r3, #0
 3134 018c 87F84B30 		strb	r3, [r7, #75]
 776:..\..\..\lvgl\version_6.1.2\lvgl\src\lv_objx/lv_calendar.c ****     if(ext->showed_date.year == ext->today.year && ext->showed_date.month == ext->today.month) {
ARM GAS  C:\Users\tmj32\AppData\Local\Temp\cc0vWRpX.s 			page 74


 3135              		.loc 3 776 0
 3136 0190 FB6B     		ldr	r3, [r7, #60]
 3137 0192 9A88     		ldrh	r2, [r3, #4]
 3138 0194 FB6B     		ldr	r3, [r7, #60]
 3139 0196 1B88     		ldrh	r3, [r3]
 3140 0198 9A42     		cmp	r2, r3
 3141 019a 0AD1     		bne	.L136
 3142              		.loc 3 776 0 is_stmt 0 discriminator 1
 3143 019c FB6B     		ldr	r3, [r7, #60]
 3144 019e 93F90620 		ldrsb	r2, [r3, #6]
 3145 01a2 FB6B     		ldr	r3, [r7, #60]
 3146 01a4 93F90230 		ldrsb	r3, [r3, #2]
 3147 01a8 9A42     		cmp	r2, r3
 3148 01aa 02D1     		bne	.L136
 777:..\..\..\lvgl\version_6.1.2\lvgl\src\lv_objx/lv_calendar.c ****         month_of_today_shown = true;
 3149              		.loc 3 777 0 is_stmt 1
 3150 01ac 0123     		movs	r3, #1
 3151 01ae 87F84B30 		strb	r3, [r7, #75]
 3152              	.L136:
 778:..\..\..\lvgl\version_6.1.2\lvgl\src\lv_objx/lv_calendar.c ****     }
 779:..\..\..\lvgl\version_6.1.2\lvgl\src\lv_objx/lv_calendar.c **** 
 780:..\..\..\lvgl\version_6.1.2\lvgl\src\lv_objx/lv_calendar.c ****     char buf[3];
 781:..\..\..\lvgl\version_6.1.2\lvgl\src\lv_objx/lv_calendar.c ****     bool in_week_box = false;
 3153              		.loc 3 781 0
 3154 01b2 0023     		movs	r3, #0
 3155 01b4 87F84A30 		strb	r3, [r7, #74]
 782:..\..\..\lvgl\version_6.1.2\lvgl\src\lv_objx/lv_calendar.c **** 
 783:..\..\..\lvgl\version_6.1.2\lvgl\src\lv_objx/lv_calendar.c ****     /*Draw 6 weeks*/
 784:..\..\..\lvgl\version_6.1.2\lvgl\src\lv_objx/lv_calendar.c ****     for(week = 0; week < 6; week++) {
 3156              		.loc 3 784 0
 3157 01b8 0023     		movs	r3, #0
 3158 01ba 7B65     		str	r3, [r7, #84]
 3159 01bc EEE1     		b	.L137
 3160              	.L157:
 3161              	.LBB10:
 785:..\..\..\lvgl\version_6.1.2\lvgl\src\lv_objx/lv_calendar.c **** 
 786:..\..\..\lvgl\version_6.1.2\lvgl\src\lv_objx/lv_calendar.c ****         /*Draw the "week box"*/
 787:..\..\..\lvgl\version_6.1.2\lvgl\src\lv_objx/lv_calendar.c ****         if(month_of_today_shown &&
 3162              		.loc 3 787 0
 3163 01be 97F84B30 		ldrb	r3, [r7, #75]	@ zero_extendqisi2
 3164 01c2 002B     		cmp	r3, #0
 3165 01c4 78D0     		beq	.L138
 3166              		.loc 3 787 0 is_stmt 0 discriminator 1
 3167 01c6 97F85230 		ldrb	r3, [r7, #82]	@ zero_extendqisi2
 3168 01ca 012B     		cmp	r3, #1
 3169 01cc 10D1     		bne	.L139
 788:..\..\..\lvgl\version_6.1.2\lvgl\src\lv_objx/lv_calendar.c ****            ((draw_state == DAY_DRAW_ACT_MONTH && ext->today.day >= day_cnt && ext->today.day < day_
 3170              		.loc 3 788 0 is_stmt 1
 3171 01ce FB6B     		ldr	r3, [r7, #60]
 3172 01d0 93F90330 		ldrsb	r3, [r3, #3]
 3173 01d4 1A46     		mov	r2, r3
 3174 01d6 97F85330 		ldrb	r3, [r7, #83]	@ zero_extendqisi2
 3175 01da 9A42     		cmp	r2, r3
 3176 01dc 08DB     		blt	.L139
 3177              		.loc 3 788 0 is_stmt 0 discriminator 1
 3178 01de FB6B     		ldr	r3, [r7, #60]
 3179 01e0 93F90330 		ldrsb	r3, [r3, #3]
ARM GAS  C:\Users\tmj32\AppData\Local\Temp\cc0vWRpX.s 			page 75


 3180 01e4 1A46     		mov	r2, r3
 3181 01e6 97F85330 		ldrb	r3, [r7, #83]	@ zero_extendqisi2
 3182 01ea 0733     		adds	r3, r3, #7
 3183 01ec 9A42     		cmp	r2, r3
 3184 01ee 10DB     		blt	.L140
 3185              	.L139:
 3186              		.loc 3 788 0 discriminator 3
 3187 01f0 97F85230 		ldrb	r3, [r7, #82]	@ zero_extendqisi2
 3188 01f4 002B     		cmp	r3, #0
 3189 01f6 5FD1     		bne	.L138
 789:..\..\..\lvgl\version_6.1.2\lvgl\src\lv_objx/lv_calendar.c ****             (draw_state == DAY_DRAW_PREV_MONTH && ext->today.day <= 7 - month_start_day && week == 
 3190              		.loc 3 789 0 is_stmt 1
 3191 01f8 FB6B     		ldr	r3, [r7, #60]
 3192 01fa 93F90330 		ldrsb	r3, [r3, #3]
 3193 01fe 1A46     		mov	r2, r3
 3194 0200 97F82930 		ldrb	r3, [r7, #41]	@ zero_extendqisi2
 3195 0204 C3F10703 		rsb	r3, r3, #7
 3196 0208 9A42     		cmp	r2, r3
 3197 020a 55DC     		bgt	.L138
 3198              		.loc 3 789 0 is_stmt 0 discriminator 1
 3199 020c 7B6D     		ldr	r3, [r7, #84]
 3200 020e 002B     		cmp	r3, #0
 3201 0210 52D1     		bne	.L138
 3202              	.L140:
 3203              	.LBB11:
 790:..\..\..\lvgl\version_6.1.2\lvgl\src\lv_objx/lv_calendar.c ****             lv_area_t week_box_area;
 791:..\..\..\lvgl\version_6.1.2\lvgl\src\lv_objx/lv_calendar.c ****             lv_area_copy(&week_box_area, &label_area); /*'label_area' is already set for this row*/
 3204              		.loc 3 791 0 is_stmt 1
 3205 0212 07F12002 		add	r2, r7, #32
 3206 0216 07F11403 		add	r3, r7, #20
 3207 021a 1146     		mov	r1, r2
 3208 021c 1846     		mov	r0, r3
 3209 021e FFF7FEFF 		bl	lv_area_copy
 792:..\..\..\lvgl\version_6.1.2\lvgl\src\lv_objx/lv_calendar.c ****             week_box_area.x1 =
 793:..\..\..\lvgl\version_6.1.2\lvgl\src\lv_objx/lv_calendar.c ****                 calendar->coords.x1 + style_bg->body.padding.left - ext->style_week_box->body.paddi
 3210              		.loc 3 793 0
 3211 0222 7B68     		ldr	r3, [r7, #4]
 3212 0224 B3F91030 		ldrsh	r3, [r3, #16]
 792:..\..\..\lvgl\version_6.1.2\lvgl\src\lv_objx/lv_calendar.c ****             week_box_area.x1 =
 3213              		.loc 3 792 0
 3214 0228 9AB2     		uxth	r2, r3
 3215              		.loc 3 793 0
 3216 022a 7B6B     		ldr	r3, [r7, #52]
 3217 022c B3F92430 		ldrsh	r3, [r3, #36]
 792:..\..\..\lvgl\version_6.1.2\lvgl\src\lv_objx/lv_calendar.c ****             week_box_area.x1 =
 3218              		.loc 3 792 0
 3219 0230 9BB2     		uxth	r3, r3
 3220 0232 1344     		add	r3, r3, r2
 3221 0234 9AB2     		uxth	r2, r3
 3222              		.loc 3 793 0
 3223 0236 FB6B     		ldr	r3, [r7, #60]
 3224 0238 1B6B     		ldr	r3, [r3, #48]
 3225 023a B3F92430 		ldrsh	r3, [r3, #36]
 792:..\..\..\lvgl\version_6.1.2\lvgl\src\lv_objx/lv_calendar.c ****             week_box_area.x1 =
 3226              		.loc 3 792 0
 3227 023e 9BB2     		uxth	r3, r3
 3228 0240 D31A     		subs	r3, r2, r3
ARM GAS  C:\Users\tmj32\AppData\Local\Temp\cc0vWRpX.s 			page 76


 3229 0242 9BB2     		uxth	r3, r3
 3230 0244 1BB2     		sxth	r3, r3
 3231 0246 BB82     		strh	r3, [r7, #20]	@ movhi
 794:..\..\..\lvgl\version_6.1.2\lvgl\src\lv_objx/lv_calendar.c ****             week_box_area.x2 =
 795:..\..\..\lvgl\version_6.1.2\lvgl\src\lv_objx/lv_calendar.c ****                 calendar->coords.x2 - style_bg->body.padding.right + ext->style_week_box->body.padd
 3232              		.loc 3 795 0
 3233 0248 7B68     		ldr	r3, [r7, #4]
 3234 024a B3F91430 		ldrsh	r3, [r3, #20]
 794:..\..\..\lvgl\version_6.1.2\lvgl\src\lv_objx/lv_calendar.c ****             week_box_area.x2 =
 3235              		.loc 3 794 0
 3236 024e 9AB2     		uxth	r2, r3
 3237              		.loc 3 795 0
 3238 0250 7B6B     		ldr	r3, [r7, #52]
 3239 0252 B3F92630 		ldrsh	r3, [r3, #38]
 794:..\..\..\lvgl\version_6.1.2\lvgl\src\lv_objx/lv_calendar.c ****             week_box_area.x2 =
 3240              		.loc 3 794 0
 3241 0256 9BB2     		uxth	r3, r3
 3242 0258 D31A     		subs	r3, r2, r3
 3243 025a 9AB2     		uxth	r2, r3
 3244              		.loc 3 795 0
 3245 025c FB6B     		ldr	r3, [r7, #60]
 3246 025e 1B6B     		ldr	r3, [r3, #48]
 3247 0260 B3F92630 		ldrsh	r3, [r3, #38]
 794:..\..\..\lvgl\version_6.1.2\lvgl\src\lv_objx/lv_calendar.c ****             week_box_area.x2 =
 3248              		.loc 3 794 0
 3249 0264 9BB2     		uxth	r3, r3
 3250 0266 1344     		add	r3, r3, r2
 3251 0268 9BB2     		uxth	r3, r3
 3252 026a 1BB2     		sxth	r3, r3
 3253 026c 3B83     		strh	r3, [r7, #24]	@ movhi
 796:..\..\..\lvgl\version_6.1.2\lvgl\src\lv_objx/lv_calendar.c **** 
 797:..\..\..\lvgl\version_6.1.2\lvgl\src\lv_objx/lv_calendar.c ****             week_box_area.y1 -= ext->style_week_box->body.padding.top;
 3254              		.loc 3 797 0
 3255 026e B7F91630 		ldrsh	r3, [r7, #22]
 3256 0272 9AB2     		uxth	r2, r3
 3257 0274 FB6B     		ldr	r3, [r7, #60]
 3258 0276 1B6B     		ldr	r3, [r3, #48]
 3259 0278 B3F92030 		ldrsh	r3, [r3, #32]
 3260 027c 9BB2     		uxth	r3, r3
 3261 027e D31A     		subs	r3, r2, r3
 3262 0280 9BB2     		uxth	r3, r3
 3263 0282 1BB2     		sxth	r3, r3
 3264 0284 FB82     		strh	r3, [r7, #22]	@ movhi
 798:..\..\..\lvgl\version_6.1.2\lvgl\src\lv_objx/lv_calendar.c ****             week_box_area.y2 += ext->style_week_box->body.padding.bottom;
 3265              		.loc 3 798 0
 3266 0286 B7F91A30 		ldrsh	r3, [r7, #26]
 3267 028a 9AB2     		uxth	r2, r3
 3268 028c FB6B     		ldr	r3, [r7, #60]
 3269 028e 1B6B     		ldr	r3, [r3, #48]
 3270 0290 B3F92230 		ldrsh	r3, [r3, #34]
 3271 0294 9BB2     		uxth	r3, r3
 3272 0296 1344     		add	r3, r3, r2
 3273 0298 9BB2     		uxth	r3, r3
 3274 029a 1BB2     		sxth	r3, r3
 3275 029c 7B83     		strh	r3, [r7, #26]	@ movhi
 799:..\..\..\lvgl\version_6.1.2\lvgl\src\lv_objx/lv_calendar.c ****             lv_draw_rect(&week_box_area, mask, ext->style_week_box, opa_scale);
 3276              		.loc 3 799 0
ARM GAS  C:\Users\tmj32\AppData\Local\Temp\cc0vWRpX.s 			page 77


 3277 029e FB6B     		ldr	r3, [r7, #60]
 3278 02a0 1A6B     		ldr	r2, [r3, #48]
 3279 02a2 97F83330 		ldrb	r3, [r7, #51]	@ zero_extendqisi2
 3280 02a6 07F11400 		add	r0, r7, #20
 3281 02aa 3968     		ldr	r1, [r7]
 3282 02ac FFF7FEFF 		bl	lv_draw_rect
 800:..\..\..\lvgl\version_6.1.2\lvgl\src\lv_objx/lv_calendar.c **** 
 801:..\..\..\lvgl\version_6.1.2\lvgl\src\lv_objx/lv_calendar.c ****             in_week_box = true;
 3283              		.loc 3 801 0
 3284 02b0 0123     		movs	r3, #1
 3285 02b2 87F84A30 		strb	r3, [r7, #74]
 3286              	.LBE11:
 789:..\..\..\lvgl\version_6.1.2\lvgl\src\lv_objx/lv_calendar.c ****             lv_area_t week_box_area;
 3287              		.loc 3 789 0
 3288 02b6 02E0     		b	.L141
 3289              	.L138:
 802:..\..\..\lvgl\version_6.1.2\lvgl\src\lv_objx/lv_calendar.c ****         } else {
 803:..\..\..\lvgl\version_6.1.2\lvgl\src\lv_objx/lv_calendar.c ****             in_week_box = false;
 3290              		.loc 3 803 0
 3291 02b8 0023     		movs	r3, #0
 3292 02ba 87F84A30 		strb	r3, [r7, #74]
 3293              	.L141:
 804:..\..\..\lvgl\version_6.1.2\lvgl\src\lv_objx/lv_calendar.c ****         }
 805:..\..\..\lvgl\version_6.1.2\lvgl\src\lv_objx/lv_calendar.c **** 
 806:..\..\..\lvgl\version_6.1.2\lvgl\src\lv_objx/lv_calendar.c ****         /*Draw the 7 days of a week*/
 807:..\..\..\lvgl\version_6.1.2\lvgl\src\lv_objx/lv_calendar.c ****         uint32_t day;
 808:..\..\..\lvgl\version_6.1.2\lvgl\src\lv_objx/lv_calendar.c ****         for(day = 0; day < 7; day++) {
 3294              		.loc 3 808 0
 3295 02be 0023     		movs	r3, #0
 3296 02c0 7B64     		str	r3, [r7, #68]
 3297 02c2 42E1     		b	.L142
 3298              	.L159:
 3299              		.align	2
 3300              	.L158:
 3301 02c4 93244992 		.word	-1840700269
 3302 02c8 67666666 		.word	1717986919
 3303              	.L156:
 3304              	.LBB12:
 809:..\..\..\lvgl\version_6.1.2\lvgl\src\lv_objx/lv_calendar.c ****             /*The previous month is over*/
 810:..\..\..\lvgl\version_6.1.2\lvgl\src\lv_objx/lv_calendar.c ****             if(draw_state == DAY_DRAW_PREV_MONTH && day == month_start_day) {
 3305              		.loc 3 810 0
 3306 02cc 97F85230 		ldrb	r3, [r7, #82]	@ zero_extendqisi2
 3307 02d0 002B     		cmp	r3, #0
 3308 02d2 0CD1     		bne	.L143
 3309              		.loc 3 810 0 is_stmt 0 discriminator 1
 3310 02d4 97F82920 		ldrb	r2, [r7, #41]	@ zero_extendqisi2
 3311 02d8 7B6C     		ldr	r3, [r7, #68]
 3312 02da 9A42     		cmp	r2, r3
 3313 02dc 07D1     		bne	.L143
 811:..\..\..\lvgl\version_6.1.2\lvgl\src\lv_objx/lv_calendar.c ****                 draw_state = DAY_DRAW_ACT_MONTH;
 3314              		.loc 3 811 0 is_stmt 1
 3315 02de 0123     		movs	r3, #1
 3316 02e0 87F85230 		strb	r3, [r7, #82]
 812:..\..\..\lvgl\version_6.1.2\lvgl\src\lv_objx/lv_calendar.c ****                 day_cnt    = 1;
 3317              		.loc 3 812 0
 3318 02e4 0123     		movs	r3, #1
 3319 02e6 87F85330 		strb	r3, [r7, #83]
ARM GAS  C:\Users\tmj32\AppData\Local\Temp\cc0vWRpX.s 			page 78


 813:..\..\..\lvgl\version_6.1.2\lvgl\src\lv_objx/lv_calendar.c ****                 act_style  = style_bg;
 3320              		.loc 3 813 0
 3321 02ea 7B6B     		ldr	r3, [r7, #52]
 3322 02ec FB64     		str	r3, [r7, #76]
 3323              	.L143:
 814:..\..\..\lvgl\version_6.1.2\lvgl\src\lv_objx/lv_calendar.c ****             }
 815:..\..\..\lvgl\version_6.1.2\lvgl\src\lv_objx/lv_calendar.c ****             /*The current month is over*/
 816:..\..\..\lvgl\version_6.1.2\lvgl\src\lv_objx/lv_calendar.c ****             if(draw_state == DAY_DRAW_ACT_MONTH &&
 3324              		.loc 3 816 0
 3325 02ee 97F85230 		ldrb	r3, [r7, #82]	@ zero_extendqisi2
 3326 02f2 012B     		cmp	r3, #1
 3327 02f4 18D1     		bne	.L144
 817:..\..\..\lvgl\version_6.1.2\lvgl\src\lv_objx/lv_calendar.c ****                day_cnt > get_month_length(ext->showed_date.year, ext->showed_date.month)) {
 3328              		.loc 3 817 0 discriminator 1
 3329 02f6 FB6B     		ldr	r3, [r7, #60]
 3330 02f8 9B88     		ldrh	r3, [r3, #4]
 3331 02fa 1A46     		mov	r2, r3
 3332 02fc FB6B     		ldr	r3, [r7, #60]
 3333 02fe 93F90630 		ldrsb	r3, [r3, #6]
 3334 0302 1946     		mov	r1, r3
 3335 0304 1046     		mov	r0, r2
 3336 0306 FFF7FEFF 		bl	get_month_length
 3337 030a 0346     		mov	r3, r0
 3338 030c 1A46     		mov	r2, r3
 816:..\..\..\lvgl\version_6.1.2\lvgl\src\lv_objx/lv_calendar.c ****                day_cnt > get_month_length(ext->showed_date.year, ext->showed_date.month)) {
 3339              		.loc 3 816 0 discriminator 1
 3340 030e 97F85330 		ldrb	r3, [r7, #83]	@ zero_extendqisi2
 3341 0312 9342     		cmp	r3, r2
 3342 0314 08D9     		bls	.L144
 818:..\..\..\lvgl\version_6.1.2\lvgl\src\lv_objx/lv_calendar.c ****                 draw_state = DAY_DRAW_NEXT_MONTH;
 3343              		.loc 3 818 0
 3344 0316 0223     		movs	r3, #2
 3345 0318 87F85230 		strb	r3, [r7, #82]
 819:..\..\..\lvgl\version_6.1.2\lvgl\src\lv_objx/lv_calendar.c ****                 day_cnt    = 1;
 3346              		.loc 3 819 0
 3347 031c 0123     		movs	r3, #1
 3348 031e 87F85330 		strb	r3, [r7, #83]
 820:..\..\..\lvgl\version_6.1.2\lvgl\src\lv_objx/lv_calendar.c ****                 act_style  = ext->style_inactive_days;
 3349              		.loc 3 820 0
 3350 0322 FB6B     		ldr	r3, [r7, #60]
 3351 0324 DB6A     		ldr	r3, [r3, #44]
 3352 0326 FB64     		str	r3, [r7, #76]
 3353              	.L144:
 821:..\..\..\lvgl\version_6.1.2\lvgl\src\lv_objx/lv_calendar.c ****             }
 822:..\..\..\lvgl\version_6.1.2\lvgl\src\lv_objx/lv_calendar.c **** 
 823:..\..\..\lvgl\version_6.1.2\lvgl\src\lv_objx/lv_calendar.c ****             label_area.x1 =
 824:..\..\..\lvgl\version_6.1.2\lvgl\src\lv_objx/lv_calendar.c ****                 calendar->coords.x1 + (w * day) / 7 + style_bg->body.padding.left;
 3354              		.loc 3 824 0
 3355 0328 7B68     		ldr	r3, [r7, #4]
 3356 032a B3F91030 		ldrsh	r3, [r3, #16]
 823:..\..\..\lvgl\version_6.1.2\lvgl\src\lv_objx/lv_calendar.c ****                 calendar->coords.x1 + (w * day) / 7 + style_bg->body.padding.left;
 3357              		.loc 3 823 0
 3358 032e 99B2     		uxth	r1, r3
 3359              		.loc 3 824 0
 3360 0330 B7F93030 		ldrsh	r3, [r7, #48]
 3361 0334 7A6C     		ldr	r2, [r7, #68]
 3362 0336 02FB03F2 		mul	r2, r2, r3
ARM GAS  C:\Users\tmj32\AppData\Local\Temp\cc0vWRpX.s 			page 79


 3363 033a 9C4B     		ldr	r3, .L160
 3364 033c A3FB0203 		umull	r0, r3, r3, r2
 3365 0340 D21A     		subs	r2, r2, r3
 3366 0342 5208     		lsrs	r2, r2, #1
 3367 0344 1344     		add	r3, r3, r2
 3368 0346 9B08     		lsrs	r3, r3, #2
 823:..\..\..\lvgl\version_6.1.2\lvgl\src\lv_objx/lv_calendar.c ****                 calendar->coords.x1 + (w * day) / 7 + style_bg->body.padding.left;
 3369              		.loc 3 823 0
 3370 0348 9BB2     		uxth	r3, r3
 3371 034a 0B44     		add	r3, r3, r1
 3372 034c 9AB2     		uxth	r2, r3
 3373              		.loc 3 824 0
 3374 034e 7B6B     		ldr	r3, [r7, #52]
 3375 0350 B3F92430 		ldrsh	r3, [r3, #36]
 823:..\..\..\lvgl\version_6.1.2\lvgl\src\lv_objx/lv_calendar.c ****                 calendar->coords.x1 + (w * day) / 7 + style_bg->body.padding.left;
 3376              		.loc 3 823 0
 3377 0354 9BB2     		uxth	r3, r3
 3378 0356 1344     		add	r3, r3, r2
 3379 0358 9BB2     		uxth	r3, r3
 3380 035a 1BB2     		sxth	r3, r3
 3381 035c 3B84     		strh	r3, [r7, #32]	@ movhi
 825:..\..\..\lvgl\version_6.1.2\lvgl\src\lv_objx/lv_calendar.c ****             label_area.x2 = label_area.x1 + box_w - 1;
 3382              		.loc 3 825 0
 3383 035e B7F92030 		ldrsh	r3, [r7, #32]
 3384 0362 9AB2     		uxth	r2, r3
 3385 0364 BB8D     		ldrh	r3, [r7, #44]
 3386 0366 1344     		add	r3, r3, r2
 3387 0368 9BB2     		uxth	r3, r3
 3388 036a 013B     		subs	r3, r3, #1
 3389 036c 9BB2     		uxth	r3, r3
 3390 036e 1BB2     		sxth	r3, r3
 3391 0370 BB84     		strh	r3, [r7, #36]	@ movhi
 826:..\..\..\lvgl\version_6.1.2\lvgl\src\lv_objx/lv_calendar.c **** 
 827:..\..\..\lvgl\version_6.1.2\lvgl\src\lv_objx/lv_calendar.c ****             /*Draw the "today box"*/
 828:..\..\..\lvgl\version_6.1.2\lvgl\src\lv_objx/lv_calendar.c ****             if(draw_state == DAY_DRAW_ACT_MONTH && month_of_today_shown && ext->today.day == day_cn
 3392              		.loc 3 828 0
 3393 0372 97F85230 		ldrb	r3, [r7, #82]	@ zero_extendqisi2
 3394 0376 012B     		cmp	r3, #1
 3395 0378 3AD1     		bne	.L145
 3396              		.loc 3 828 0 is_stmt 0 discriminator 1
 3397 037a 97F84B30 		ldrb	r3, [r7, #75]	@ zero_extendqisi2
 3398 037e 002B     		cmp	r3, #0
 3399 0380 36D0     		beq	.L145
 3400              		.loc 3 828 0 discriminator 2
 3401 0382 FB6B     		ldr	r3, [r7, #60]
 3402 0384 93F90330 		ldrsb	r3, [r3, #3]
 3403 0388 1A46     		mov	r2, r3
 3404 038a 97F85330 		ldrb	r3, [r7, #83]	@ zero_extendqisi2
 3405 038e 9A42     		cmp	r2, r3
 3406 0390 2ED1     		bne	.L145
 3407              	.LBB13:
 829:..\..\..\lvgl\version_6.1.2\lvgl\src\lv_objx/lv_calendar.c ****                 lv_area_t today_box_area;
 830:..\..\..\lvgl\version_6.1.2\lvgl\src\lv_objx/lv_calendar.c ****                 lv_area_copy(&today_box_area, &label_area);
 3408              		.loc 3 830 0 is_stmt 1
 3409 0392 07F12002 		add	r2, r7, #32
 3410 0396 07F10C03 		add	r3, r7, #12
 3411 039a 1146     		mov	r1, r2
ARM GAS  C:\Users\tmj32\AppData\Local\Temp\cc0vWRpX.s 			page 80


 3412 039c 1846     		mov	r0, r3
 3413 039e FFF7FEFF 		bl	lv_area_copy
 831:..\..\..\lvgl\version_6.1.2\lvgl\src\lv_objx/lv_calendar.c ****                 today_box_area.x1 = label_area.x1;
 3414              		.loc 3 831 0
 3415 03a2 B7F92030 		ldrsh	r3, [r7, #32]
 3416 03a6 BB81     		strh	r3, [r7, #12]	@ movhi
 832:..\..\..\lvgl\version_6.1.2\lvgl\src\lv_objx/lv_calendar.c ****                 today_box_area.x2 = label_area.x2;
 3417              		.loc 3 832 0
 3418 03a8 B7F92430 		ldrsh	r3, [r7, #36]
 3419 03ac 3B82     		strh	r3, [r7, #16]	@ movhi
 833:..\..\..\lvgl\version_6.1.2\lvgl\src\lv_objx/lv_calendar.c **** 
 834:..\..\..\lvgl\version_6.1.2\lvgl\src\lv_objx/lv_calendar.c ****                 today_box_area.y1 = label_area.y1 - ext->style_today_box->body.padding.top;
 3420              		.loc 3 834 0
 3421 03ae B7F92230 		ldrsh	r3, [r7, #34]
 3422 03b2 9AB2     		uxth	r2, r3
 3423 03b4 FB6B     		ldr	r3, [r7, #60]
 3424 03b6 5B6B     		ldr	r3, [r3, #52]
 3425 03b8 B3F92030 		ldrsh	r3, [r3, #32]
 3426 03bc 9BB2     		uxth	r3, r3
 3427 03be D31A     		subs	r3, r2, r3
 3428 03c0 9BB2     		uxth	r3, r3
 3429 03c2 1BB2     		sxth	r3, r3
 3430 03c4 FB81     		strh	r3, [r7, #14]	@ movhi
 835:..\..\..\lvgl\version_6.1.2\lvgl\src\lv_objx/lv_calendar.c ****                 today_box_area.y2 = label_area.y2 + ext->style_today_box->body.padding.bottom;
 3431              		.loc 3 835 0
 3432 03c6 B7F92630 		ldrsh	r3, [r7, #38]
 3433 03ca 9AB2     		uxth	r2, r3
 3434 03cc FB6B     		ldr	r3, [r7, #60]
 3435 03ce 5B6B     		ldr	r3, [r3, #52]
 3436 03d0 B3F92230 		ldrsh	r3, [r3, #34]
 3437 03d4 9BB2     		uxth	r3, r3
 3438 03d6 1344     		add	r3, r3, r2
 3439 03d8 9BB2     		uxth	r3, r3
 3440 03da 1BB2     		sxth	r3, r3
 3441 03dc 7B82     		strh	r3, [r7, #18]	@ movhi
 836:..\..\..\lvgl\version_6.1.2\lvgl\src\lv_objx/lv_calendar.c ****                 lv_draw_rect(&today_box_area, mask, ext->style_today_box, opa_scale);
 3442              		.loc 3 836 0
 3443 03de FB6B     		ldr	r3, [r7, #60]
 3444 03e0 5A6B     		ldr	r2, [r3, #52]
 3445 03e2 97F83330 		ldrb	r3, [r7, #51]	@ zero_extendqisi2
 3446 03e6 07F10C00 		add	r0, r7, #12
 3447 03ea 3968     		ldr	r1, [r7]
 3448 03ec FFF7FEFF 		bl	lv_draw_rect
 3449              	.L145:
 3450              	.LBE13:
 837:..\..\..\lvgl\version_6.1.2\lvgl\src\lv_objx/lv_calendar.c ****             }
 838:..\..\..\lvgl\version_6.1.2\lvgl\src\lv_objx/lv_calendar.c **** 
 839:..\..\..\lvgl\version_6.1.2\lvgl\src\lv_objx/lv_calendar.c ****             /*Get the final style : highlighted/week box/today box/normal*/
 840:..\..\..\lvgl\version_6.1.2\lvgl\src\lv_objx/lv_calendar.c ****             const lv_style_t * final_style;
 841:..\..\..\lvgl\version_6.1.2\lvgl\src\lv_objx/lv_calendar.c ****             if(draw_state == DAY_DRAW_PREV_MONTH &&
 3451              		.loc 3 841 0
 3452 03f0 97F85230 		ldrb	r3, [r7, #82]	@ zero_extendqisi2
 3453 03f4 002B     		cmp	r3, #0
 3454 03f6 22D1     		bne	.L146
 842:..\..\..\lvgl\version_6.1.2\lvgl\src\lv_objx/lv_calendar.c ****                is_highlighted(calendar, ext->showed_date.year - (ext->showed_date.month == 1 ? 1 : 
 3455              		.loc 3 842 0
 3456 03f8 FB6B     		ldr	r3, [r7, #60]
ARM GAS  C:\Users\tmj32\AppData\Local\Temp\cc0vWRpX.s 			page 81


 3457 03fa 9B88     		ldrh	r3, [r3, #4]
 3458 03fc 1A46     		mov	r2, r3
 3459 03fe FB6B     		ldr	r3, [r7, #60]
 3460 0400 93F90630 		ldrsb	r3, [r3, #6]
 3461 0404 012B     		cmp	r3, #1
 3462 0406 0CBF     		ite	eq
 3463 0408 0123     		moveq	r3, #1
 3464 040a 0023     		movne	r3, #0
 3465 040c DBB2     		uxtb	r3, r3
 3466 040e D11A     		subs	r1, r2, r3
 843:..\..\..\lvgl\version_6.1.2\lvgl\src\lv_objx/lv_calendar.c ****                               ext->showed_date.month == 1 ? 12 : ext->showed_date.month - 1, day_cn
 3467              		.loc 3 843 0
 3468 0410 FB6B     		ldr	r3, [r7, #60]
 3469 0412 93F90630 		ldrsb	r3, [r3, #6]
 842:..\..\..\lvgl\version_6.1.2\lvgl\src\lv_objx/lv_calendar.c ****                is_highlighted(calendar, ext->showed_date.year - (ext->showed_date.month == 1 ? 1 : 
 3470              		.loc 3 842 0
 3471 0416 012B     		cmp	r3, #1
 3472 0418 04D0     		beq	.L147
 3473              		.loc 3 843 0 discriminator 1
 3474 041a FB6B     		ldr	r3, [r7, #60]
 3475 041c 93F90630 		ldrsb	r3, [r3, #6]
 842:..\..\..\lvgl\version_6.1.2\lvgl\src\lv_objx/lv_calendar.c ****                is_highlighted(calendar, ext->showed_date.year - (ext->showed_date.month == 1 ? 1 : 
 3476              		.loc 3 842 0 discriminator 1
 3477 0420 5A1E     		subs	r2, r3, #1
 3478 0422 00E0     		b	.L148
 3479              	.L147:
 842:..\..\..\lvgl\version_6.1.2\lvgl\src\lv_objx/lv_calendar.c ****                is_highlighted(calendar, ext->showed_date.year - (ext->showed_date.month == 1 ? 1 : 
 3480              		.loc 3 842 0 is_stmt 0 discriminator 2
 3481 0424 0C22     		movs	r2, #12
 3482              	.L148:
 842:..\..\..\lvgl\version_6.1.2\lvgl\src\lv_objx/lv_calendar.c ****                is_highlighted(calendar, ext->showed_date.year - (ext->showed_date.month == 1 ? 1 : 
 3483              		.loc 3 842 0 discriminator 4
 3484 0426 97F85330 		ldrb	r3, [r7, #83]	@ zero_extendqisi2
 3485 042a 7868     		ldr	r0, [r7, #4]
 3486 042c FFF7FEFF 		bl	is_highlighted
 3487 0430 0346     		mov	r3, r0
 841:..\..\..\lvgl\version_6.1.2\lvgl\src\lv_objx/lv_calendar.c ****                is_highlighted(calendar, ext->showed_date.year - (ext->showed_date.month == 1 ? 1 : 
 3488              		.loc 3 841 0 is_stmt 1 discriminator 4
 3489 0432 002B     		cmp	r3, #0
 3490 0434 03D0     		beq	.L146
 844:..\..\..\lvgl\version_6.1.2\lvgl\src\lv_objx/lv_calendar.c ****                 final_style = ext->style_highlighted_days;
 3491              		.loc 3 844 0
 3492 0436 FB6B     		ldr	r3, [r7, #60]
 3493 0438 9B6A     		ldr	r3, [r3, #40]
 3494 043a 3B64     		str	r3, [r7, #64]
 3495 043c 5EE0     		b	.L149
 3496              	.L146:
 845:..\..\..\lvgl\version_6.1.2\lvgl\src\lv_objx/lv_calendar.c ****             } else if(draw_state == DAY_DRAW_ACT_MONTH &&
 3497              		.loc 3 845 0
 3498 043e 97F85230 		ldrb	r3, [r7, #82]	@ zero_extendqisi2
 3499 0442 012B     		cmp	r3, #1
 3500 0444 12D1     		bne	.L150
 846:..\..\..\lvgl\version_6.1.2\lvgl\src\lv_objx/lv_calendar.c ****                       is_highlighted(calendar, ext->showed_date.year, ext->showed_date.month, day_c
 3501              		.loc 3 846 0 discriminator 1
 3502 0446 FB6B     		ldr	r3, [r7, #60]
 3503 0448 9B88     		ldrh	r3, [r3, #4]
 3504 044a 1946     		mov	r1, r3
ARM GAS  C:\Users\tmj32\AppData\Local\Temp\cc0vWRpX.s 			page 82


 3505 044c FB6B     		ldr	r3, [r7, #60]
 3506 044e 93F90630 		ldrsb	r3, [r3, #6]
 3507 0452 1A46     		mov	r2, r3
 3508 0454 97F85330 		ldrb	r3, [r7, #83]	@ zero_extendqisi2
 3509 0458 7868     		ldr	r0, [r7, #4]
 3510 045a FFF7FEFF 		bl	is_highlighted
 3511 045e 0346     		mov	r3, r0
 845:..\..\..\lvgl\version_6.1.2\lvgl\src\lv_objx/lv_calendar.c ****             } else if(draw_state == DAY_DRAW_ACT_MONTH &&
 3512              		.loc 3 845 0 discriminator 1
 3513 0460 002B     		cmp	r3, #0
 3514 0462 03D0     		beq	.L150
 847:..\..\..\lvgl\version_6.1.2\lvgl\src\lv_objx/lv_calendar.c ****                 final_style = ext->style_highlighted_days;
 3515              		.loc 3 847 0
 3516 0464 FB6B     		ldr	r3, [r7, #60]
 3517 0466 9B6A     		ldr	r3, [r3, #40]
 3518 0468 3B64     		str	r3, [r7, #64]
 3519 046a 47E0     		b	.L149
 3520              	.L150:
 848:..\..\..\lvgl\version_6.1.2\lvgl\src\lv_objx/lv_calendar.c ****             } else if(draw_state == DAY_DRAW_NEXT_MONTH &&
 3521              		.loc 3 848 0
 3522 046c 97F85230 		ldrb	r3, [r7, #82]	@ zero_extendqisi2
 3523 0470 022B     		cmp	r3, #2
 3524 0472 22D1     		bne	.L151
 849:..\..\..\lvgl\version_6.1.2\lvgl\src\lv_objx/lv_calendar.c ****                       is_highlighted(calendar, ext->showed_date.year + (ext->showed_date.month == 1
 3525              		.loc 3 849 0
 3526 0474 FB6B     		ldr	r3, [r7, #60]
 3527 0476 9B88     		ldrh	r3, [r3, #4]
 3528 0478 1A46     		mov	r2, r3
 3529 047a FB6B     		ldr	r3, [r7, #60]
 3530 047c 93F90630 		ldrsb	r3, [r3, #6]
 3531 0480 0C2B     		cmp	r3, #12
 3532 0482 0CBF     		ite	eq
 3533 0484 0123     		moveq	r3, #1
 3534 0486 0023     		movne	r3, #0
 3535 0488 DBB2     		uxtb	r3, r3
 3536 048a D118     		adds	r1, r2, r3
 850:..\..\..\lvgl\version_6.1.2\lvgl\src\lv_objx/lv_calendar.c ****                                      ext->showed_date.month == 12 ? 1 : ext->showed_date.month + 1,
 3537              		.loc 3 850 0
 3538 048c FB6B     		ldr	r3, [r7, #60]
 3539 048e 93F90630 		ldrsb	r3, [r3, #6]
 849:..\..\..\lvgl\version_6.1.2\lvgl\src\lv_objx/lv_calendar.c ****                       is_highlighted(calendar, ext->showed_date.year + (ext->showed_date.month == 1
 3540              		.loc 3 849 0
 3541 0492 0C2B     		cmp	r3, #12
 3542 0494 04D0     		beq	.L152
 3543              		.loc 3 850 0 discriminator 1
 3544 0496 FB6B     		ldr	r3, [r7, #60]
 3545 0498 93F90630 		ldrsb	r3, [r3, #6]
 849:..\..\..\lvgl\version_6.1.2\lvgl\src\lv_objx/lv_calendar.c ****                       is_highlighted(calendar, ext->showed_date.year + (ext->showed_date.month == 1
 3546              		.loc 3 849 0 discriminator 1
 3547 049c 5A1C     		adds	r2, r3, #1
 3548 049e 00E0     		b	.L153
 3549              	.L152:
 849:..\..\..\lvgl\version_6.1.2\lvgl\src\lv_objx/lv_calendar.c ****                       is_highlighted(calendar, ext->showed_date.year + (ext->showed_date.month == 1
 3550              		.loc 3 849 0 is_stmt 0 discriminator 2
 3551 04a0 0122     		movs	r2, #1
 3552              	.L153:
 849:..\..\..\lvgl\version_6.1.2\lvgl\src\lv_objx/lv_calendar.c ****                       is_highlighted(calendar, ext->showed_date.year + (ext->showed_date.month == 1
ARM GAS  C:\Users\tmj32\AppData\Local\Temp\cc0vWRpX.s 			page 83


 3553              		.loc 3 849 0 discriminator 4
 3554 04a2 97F85330 		ldrb	r3, [r7, #83]	@ zero_extendqisi2
 3555 04a6 7868     		ldr	r0, [r7, #4]
 3556 04a8 FFF7FEFF 		bl	is_highlighted
 3557 04ac 0346     		mov	r3, r0
 848:..\..\..\lvgl\version_6.1.2\lvgl\src\lv_objx/lv_calendar.c ****             } else if(draw_state == DAY_DRAW_NEXT_MONTH &&
 3558              		.loc 3 848 0 is_stmt 1 discriminator 4
 3559 04ae 002B     		cmp	r3, #0
 3560 04b0 03D0     		beq	.L151
 851:..\..\..\lvgl\version_6.1.2\lvgl\src\lv_objx/lv_calendar.c ****                 final_style = ext->style_highlighted_days;
 3561              		.loc 3 851 0
 3562 04b2 FB6B     		ldr	r3, [r7, #60]
 3563 04b4 9B6A     		ldr	r3, [r3, #40]
 3564 04b6 3B64     		str	r3, [r7, #64]
 3565 04b8 20E0     		b	.L149
 3566              	.L151:
 852:..\..\..\lvgl\version_6.1.2\lvgl\src\lv_objx/lv_calendar.c ****             } else if(month_of_today_shown && day_cnt == ext->today.day && draw_state == DAY_DRAW_A
 3567              		.loc 3 852 0
 3568 04ba 97F84B30 		ldrb	r3, [r7, #75]	@ zero_extendqisi2
 3569 04be 002B     		cmp	r3, #0
 3570 04c0 0ED0     		beq	.L154
 3571              		.loc 3 852 0 is_stmt 0 discriminator 1
 3572 04c2 97F85330 		ldrb	r3, [r7, #83]	@ zero_extendqisi2
 3573 04c6 FA6B     		ldr	r2, [r7, #60]
 3574 04c8 92F90320 		ldrsb	r2, [r2, #3]
 3575 04cc 9342     		cmp	r3, r2
 3576 04ce 07D1     		bne	.L154
 3577              		.loc 3 852 0 discriminator 2
 3578 04d0 97F85230 		ldrb	r3, [r7, #82]	@ zero_extendqisi2
 3579 04d4 012B     		cmp	r3, #1
 3580 04d6 03D1     		bne	.L154
 853:..\..\..\lvgl\version_6.1.2\lvgl\src\lv_objx/lv_calendar.c ****                 final_style = ext->style_today_box;
 3581              		.loc 3 853 0 is_stmt 1
 3582 04d8 FB6B     		ldr	r3, [r7, #60]
 3583 04da 5B6B     		ldr	r3, [r3, #52]
 3584 04dc 3B64     		str	r3, [r7, #64]
 3585 04de 0DE0     		b	.L149
 3586              	.L154:
 854:..\..\..\lvgl\version_6.1.2\lvgl\src\lv_objx/lv_calendar.c ****             else if(in_week_box && draw_state == DAY_DRAW_ACT_MONTH)
 3587              		.loc 3 854 0
 3588 04e0 97F84A30 		ldrb	r3, [r7, #74]	@ zero_extendqisi2
 3589 04e4 002B     		cmp	r3, #0
 3590 04e6 07D0     		beq	.L155
 3591              		.loc 3 854 0 is_stmt 0 discriminator 1
 3592 04e8 97F85230 		ldrb	r3, [r7, #82]	@ zero_extendqisi2
 3593 04ec 012B     		cmp	r3, #1
 3594 04ee 03D1     		bne	.L155
 855:..\..\..\lvgl\version_6.1.2\lvgl\src\lv_objx/lv_calendar.c ****                 final_style = ext->style_week_box;
 3595              		.loc 3 855 0 is_stmt 1
 3596 04f0 FB6B     		ldr	r3, [r7, #60]
 3597 04f2 1B6B     		ldr	r3, [r3, #48]
 3598 04f4 3B64     		str	r3, [r7, #64]
 3599 04f6 01E0     		b	.L149
 3600              	.L155:
 856:..\..\..\lvgl\version_6.1.2\lvgl\src\lv_objx/lv_calendar.c ****             else
 857:..\..\..\lvgl\version_6.1.2\lvgl\src\lv_objx/lv_calendar.c ****                 final_style = act_style;
 3601              		.loc 3 857 0
ARM GAS  C:\Users\tmj32\AppData\Local\Temp\cc0vWRpX.s 			page 84


 3602 04f8 FB6C     		ldr	r3, [r7, #76]
 3603 04fa 3B64     		str	r3, [r7, #64]
 3604              	.L149:
 858:..\..\..\lvgl\version_6.1.2\lvgl\src\lv_objx/lv_calendar.c **** 
 859:..\..\..\lvgl\version_6.1.2\lvgl\src\lv_objx/lv_calendar.c ****             /*Write the day's number*/
 860:..\..\..\lvgl\version_6.1.2\lvgl\src\lv_objx/lv_calendar.c ****             lv_utils_num_to_str(day_cnt, buf);
 3605              		.loc 3 860 0 discriminator 2
 3606 04fc 97F85330 		ldrb	r3, [r7, #83]	@ zero_extendqisi2
 3607 0500 07F11C02 		add	r2, r7, #28
 3608 0504 1146     		mov	r1, r2
 3609 0506 1846     		mov	r0, r3
 3610 0508 FFF7FEFF 		bl	lv_utils_num_to_str
 861:..\..\..\lvgl\version_6.1.2\lvgl\src\lv_objx/lv_calendar.c ****             lv_draw_label(&label_area, mask, final_style, opa_scale, buf, LV_TXT_FLAG_CENTER, NULL,
 3611              		.loc 3 861 0 discriminator 2
 3612 050c 97F83320 		ldrb	r2, [r7, #51]	@ zero_extendqisi2
 3613 0510 07F12000 		add	r0, r7, #32
 3614 0514 97F83B30 		ldrb	r3, [r7, #59]	@ zero_extendqisi2
 3615 0518 0593     		str	r3, [sp, #20]
 3616 051a 0023     		movs	r3, #0
 3617 051c 0493     		str	r3, [sp, #16]
 3618 051e 0023     		movs	r3, #0
 3619 0520 0393     		str	r3, [sp, #12]
 3620 0522 0023     		movs	r3, #0
 3621 0524 0293     		str	r3, [sp, #8]
 3622 0526 0423     		movs	r3, #4
 3623 0528 0193     		str	r3, [sp, #4]
 3624 052a 07F11C03 		add	r3, r7, #28
 3625 052e 0093     		str	r3, [sp]
 3626 0530 1346     		mov	r3, r2
 3627 0532 3A6C     		ldr	r2, [r7, #64]
 3628 0534 3968     		ldr	r1, [r7]
 3629 0536 FFF7FEFF 		bl	lv_draw_label
 862:..\..\..\lvgl\version_6.1.2\lvgl\src\lv_objx/lv_calendar.c **** 
 863:..\..\..\lvgl\version_6.1.2\lvgl\src\lv_objx/lv_calendar.c ****             /*Go to the next day*/
 864:..\..\..\lvgl\version_6.1.2\lvgl\src\lv_objx/lv_calendar.c ****             day_cnt++;
 3630              		.loc 3 864 0 discriminator 2
 3631 053a 97F85330 		ldrb	r3, [r7, #83]	@ zero_extendqisi2
 3632 053e 0133     		adds	r3, r3, #1
 3633 0540 87F85330 		strb	r3, [r7, #83]
 3634              	.LBE12:
 808:..\..\..\lvgl\version_6.1.2\lvgl\src\lv_objx/lv_calendar.c ****             /*The previous month is over*/
 3635              		.loc 3 808 0 discriminator 2
 3636 0544 7B6C     		ldr	r3, [r7, #68]
 3637 0546 0133     		adds	r3, r3, #1
 3638 0548 7B64     		str	r3, [r7, #68]
 3639              	.L142:
 808:..\..\..\lvgl\version_6.1.2\lvgl\src\lv_objx/lv_calendar.c ****             /*The previous month is over*/
 3640              		.loc 3 808 0 is_stmt 0 discriminator 1
 3641 054a 7B6C     		ldr	r3, [r7, #68]
 3642 054c 062B     		cmp	r3, #6
 3643 054e 7FF6BDAE 		bls	.L156
 865:..\..\..\lvgl\version_6.1.2\lvgl\src\lv_objx/lv_calendar.c ****         }
 866:..\..\..\lvgl\version_6.1.2\lvgl\src\lv_objx/lv_calendar.c **** 
 867:..\..\..\lvgl\version_6.1.2\lvgl\src\lv_objx/lv_calendar.c ****         /*Got to the next weeks row*/
 868:..\..\..\lvgl\version_6.1.2\lvgl\src\lv_objx/lv_calendar.c ****         label_area.y1 += vert_space + lv_font_get_line_height(style_bg->text.font);
 3644              		.loc 3 868 0 is_stmt 1 discriminator 2
 3645 0552 B7F92A40 		ldrsh	r4, [r7, #42]
ARM GAS  C:\Users\tmj32\AppData\Local\Temp\cc0vWRpX.s 			page 85


 3646 0556 7B6B     		ldr	r3, [r7, #52]
 3647 0558 5B6B     		ldr	r3, [r3, #52]
 3648 055a 1846     		mov	r0, r3
 3649 055c FFF7FEFF 		bl	lv_font_get_line_height
 3650 0560 0346     		mov	r3, r0
 3651 0562 2344     		add	r3, r3, r4
 3652 0564 B7F92220 		ldrsh	r2, [r7, #34]
 3653 0568 92B2     		uxth	r2, r2
 3654 056a 9BB2     		uxth	r3, r3
 3655 056c 1344     		add	r3, r3, r2
 3656 056e 9BB2     		uxth	r3, r3
 3657 0570 1BB2     		sxth	r3, r3
 3658 0572 7B84     		strh	r3, [r7, #34]	@ movhi
 869:..\..\..\lvgl\version_6.1.2\lvgl\src\lv_objx/lv_calendar.c ****         label_area.y2 += vert_space + lv_font_get_line_height(style_bg->text.font);
 3659              		.loc 3 869 0 discriminator 2
 3660 0574 B7F92A40 		ldrsh	r4, [r7, #42]
 3661 0578 7B6B     		ldr	r3, [r7, #52]
 3662 057a 5B6B     		ldr	r3, [r3, #52]
 3663 057c 1846     		mov	r0, r3
 3664 057e FFF7FEFF 		bl	lv_font_get_line_height
 3665 0582 0346     		mov	r3, r0
 3666 0584 2344     		add	r3, r3, r4
 3667 0586 B7F92620 		ldrsh	r2, [r7, #38]
 3668 058a 92B2     		uxth	r2, r2
 3669 058c 9BB2     		uxth	r3, r3
 3670 058e 1344     		add	r3, r3, r2
 3671 0590 9BB2     		uxth	r3, r3
 3672 0592 1BB2     		sxth	r3, r3
 3673 0594 FB84     		strh	r3, [r7, #38]	@ movhi
 3674              	.LBE10:
 784:..\..\..\lvgl\version_6.1.2\lvgl\src\lv_objx/lv_calendar.c **** 
 3675              		.loc 3 784 0 discriminator 2
 3676 0596 7B6D     		ldr	r3, [r7, #84]
 3677 0598 0133     		adds	r3, r3, #1
 3678 059a 7B65     		str	r3, [r7, #84]
 3679              	.L137:
 784:..\..\..\lvgl\version_6.1.2\lvgl\src\lv_objx/lv_calendar.c **** 
 3680              		.loc 3 784 0 is_stmt 0 discriminator 1
 3681 059c 7B6D     		ldr	r3, [r7, #84]
 3682 059e 052B     		cmp	r3, #5
 3683 05a0 7FF60DAE 		bls	.L157
 870:..\..\..\lvgl\version_6.1.2\lvgl\src\lv_objx/lv_calendar.c ****     }
 871:..\..\..\lvgl\version_6.1.2\lvgl\src\lv_objx/lv_calendar.c **** }
 3684              		.loc 3 871 0 is_stmt 1
 3685 05a4 00BF     		nop
 3686 05a6 5C37     		adds	r7, r7, #92
 3687              		.cfi_def_cfa_offset 12
 3688 05a8 BD46     		mov	sp, r7
 3689              		.cfi_def_cfa_register 13
 3690              		@ sp needed
 3691 05aa 90BD     		pop	{r4, r7, pc}
 3692              	.L161:
 3693              		.align	2
 3694              	.L160:
 3695 05ac 25499224 		.word	613566757
 3696              		.cfi_endproc
 3697              	.LFE53:
ARM GAS  C:\Users\tmj32\AppData\Local\Temp\cc0vWRpX.s 			page 86


 3698              		.size	draw_days, .-draw_days
 3699              		.section	.text.is_highlighted,"ax",%progbits
 3700              		.align	2
 3701              		.thumb
 3702              		.thumb_func
 3703              		.type	is_highlighted, %function
 3704              	is_highlighted:
 3705              	.LFB54:
 872:..\..\..\lvgl\version_6.1.2\lvgl\src\lv_objx/lv_calendar.c **** 
 873:..\..\..\lvgl\version_6.1.2\lvgl\src\lv_objx/lv_calendar.c **** /**
 874:..\..\..\lvgl\version_6.1.2\lvgl\src\lv_objx/lv_calendar.c ****  * Check weather a date is highlighted or not
 875:..\..\..\lvgl\version_6.1.2\lvgl\src\lv_objx/lv_calendar.c ****  * @param calendar pointer to a calendar object
 876:..\..\..\lvgl\version_6.1.2\lvgl\src\lv_objx/lv_calendar.c ****  * @param year a year
 877:..\..\..\lvgl\version_6.1.2\lvgl\src\lv_objx/lv_calendar.c ****  * @param month a  month [1..12]
 878:..\..\..\lvgl\version_6.1.2\lvgl\src\lv_objx/lv_calendar.c ****  * @param day a day [1..31]
 879:..\..\..\lvgl\version_6.1.2\lvgl\src\lv_objx/lv_calendar.c ****  * @return true: highlighted
 880:..\..\..\lvgl\version_6.1.2\lvgl\src\lv_objx/lv_calendar.c ****  */
 881:..\..\..\lvgl\version_6.1.2\lvgl\src\lv_objx/lv_calendar.c **** static bool is_highlighted(lv_obj_t * calendar, int32_t year, int32_t month, int32_t day)
 882:..\..\..\lvgl\version_6.1.2\lvgl\src\lv_objx/lv_calendar.c **** {
 3706              		.loc 3 882 0
 3707              		.cfi_startproc
 3708              		@ args = 0, pretend = 0, frame = 24
 3709              		@ frame_needed = 1, uses_anonymous_args = 0
 3710 0000 80B5     		push	{r7, lr}
 3711              		.cfi_def_cfa_offset 8
 3712              		.cfi_offset 7, -8
 3713              		.cfi_offset 14, -4
 3714 0002 86B0     		sub	sp, sp, #24
 3715              		.cfi_def_cfa_offset 32
 3716 0004 00AF     		add	r7, sp, #0
 3717              		.cfi_def_cfa_register 7
 3718 0006 F860     		str	r0, [r7, #12]
 3719 0008 B960     		str	r1, [r7, #8]
 3720 000a 7A60     		str	r2, [r7, #4]
 3721 000c 3B60     		str	r3, [r7]
 883:..\..\..\lvgl\version_6.1.2\lvgl\src\lv_objx/lv_calendar.c ****     lv_calendar_ext_t * ext = lv_obj_get_ext_attr(calendar);
 3722              		.loc 3 883 0
 3723 000e F868     		ldr	r0, [r7, #12]
 3724 0010 FFF7FEFF 		bl	lv_obj_get_ext_attr
 3725 0014 3861     		str	r0, [r7, #16]
 884:..\..\..\lvgl\version_6.1.2\lvgl\src\lv_objx/lv_calendar.c **** 
 885:..\..\..\lvgl\version_6.1.2\lvgl\src\lv_objx/lv_calendar.c ****     if(ext->highlighted_dates == NULL || ext->highlighted_dates_num == 0) return false;
 3726              		.loc 3 885 0
 3727 0016 3B69     		ldr	r3, [r7, #16]
 3728 0018 9B68     		ldr	r3, [r3, #8]
 3729 001a 002B     		cmp	r3, #0
 3730 001c 03D0     		beq	.L163
 3731              		.loc 3 885 0 is_stmt 0 discriminator 2
 3732 001e 3B69     		ldr	r3, [r7, #16]
 3733 0020 DB89     		ldrh	r3, [r3, #14]
 3734 0022 002B     		cmp	r3, #0
 3735 0024 01D1     		bne	.L164
 3736              	.L163:
 3737              		.loc 3 885 0 discriminator 3
 3738 0026 0023     		movs	r3, #0
 3739 0028 2EE0     		b	.L165
 3740              	.L164:
ARM GAS  C:\Users\tmj32\AppData\Local\Temp\cc0vWRpX.s 			page 87


 886:..\..\..\lvgl\version_6.1.2\lvgl\src\lv_objx/lv_calendar.c **** 
 887:..\..\..\lvgl\version_6.1.2\lvgl\src\lv_objx/lv_calendar.c ****     uint32_t i;
 888:..\..\..\lvgl\version_6.1.2\lvgl\src\lv_objx/lv_calendar.c ****     for(i = 0; i < ext->highlighted_dates_num; i++) {
 3741              		.loc 3 888 0 is_stmt 1
 3742 002a 0023     		movs	r3, #0
 3743 002c 7B61     		str	r3, [r7, #20]
 3744 002e 24E0     		b	.L166
 3745              	.L168:
 889:..\..\..\lvgl\version_6.1.2\lvgl\src\lv_objx/lv_calendar.c ****         if(ext->highlighted_dates[i].year == year && ext->highlighted_dates[i].month == month &&
 3746              		.loc 3 889 0
 3747 0030 3B69     		ldr	r3, [r7, #16]
 3748 0032 9A68     		ldr	r2, [r3, #8]
 3749 0034 7B69     		ldr	r3, [r7, #20]
 3750 0036 9B00     		lsls	r3, r3, #2
 3751 0038 1344     		add	r3, r3, r2
 3752 003a 1B88     		ldrh	r3, [r3]
 3753 003c 1A46     		mov	r2, r3
 3754 003e BB68     		ldr	r3, [r7, #8]
 3755 0040 9A42     		cmp	r2, r3
 3756 0042 17D1     		bne	.L167
 3757              		.loc 3 889 0 is_stmt 0 discriminator 1
 3758 0044 3B69     		ldr	r3, [r7, #16]
 3759 0046 9A68     		ldr	r2, [r3, #8]
 3760 0048 7B69     		ldr	r3, [r7, #20]
 3761 004a 9B00     		lsls	r3, r3, #2
 3762 004c 1344     		add	r3, r3, r2
 3763 004e 93F90230 		ldrsb	r3, [r3, #2]
 3764 0052 1A46     		mov	r2, r3
 3765 0054 7B68     		ldr	r3, [r7, #4]
 3766 0056 9A42     		cmp	r2, r3
 3767 0058 0CD1     		bne	.L167
 890:..\..\..\lvgl\version_6.1.2\lvgl\src\lv_objx/lv_calendar.c ****            ext->highlighted_dates[i].day == day) {
 3768              		.loc 3 890 0 is_stmt 1 discriminator 2
 3769 005a 3B69     		ldr	r3, [r7, #16]
 3770 005c 9A68     		ldr	r2, [r3, #8]
 3771 005e 7B69     		ldr	r3, [r7, #20]
 3772 0060 9B00     		lsls	r3, r3, #2
 3773 0062 1344     		add	r3, r3, r2
 3774 0064 93F90330 		ldrsb	r3, [r3, #3]
 3775 0068 1A46     		mov	r2, r3
 889:..\..\..\lvgl\version_6.1.2\lvgl\src\lv_objx/lv_calendar.c ****         if(ext->highlighted_dates[i].year == year && ext->highlighted_dates[i].month == month &&
 3776              		.loc 3 889 0 discriminator 2
 3777 006a 3B68     		ldr	r3, [r7]
 3778 006c 9A42     		cmp	r2, r3
 3779 006e 01D1     		bne	.L167
 891:..\..\..\lvgl\version_6.1.2\lvgl\src\lv_objx/lv_calendar.c ****             return true;
 3780              		.loc 3 891 0
 3781 0070 0123     		movs	r3, #1
 3782 0072 09E0     		b	.L165
 3783              	.L167:
 888:..\..\..\lvgl\version_6.1.2\lvgl\src\lv_objx/lv_calendar.c ****         if(ext->highlighted_dates[i].year == year && ext->highlighted_dates[i].month == month &&
 3784              		.loc 3 888 0 discriminator 2
 3785 0074 7B69     		ldr	r3, [r7, #20]
 3786 0076 0133     		adds	r3, r3, #1
 3787 0078 7B61     		str	r3, [r7, #20]
 3788              	.L166:
 888:..\..\..\lvgl\version_6.1.2\lvgl\src\lv_objx/lv_calendar.c ****         if(ext->highlighted_dates[i].year == year && ext->highlighted_dates[i].month == month &&
ARM GAS  C:\Users\tmj32\AppData\Local\Temp\cc0vWRpX.s 			page 88


 3789              		.loc 3 888 0 is_stmt 0 discriminator 1
 3790 007a 3B69     		ldr	r3, [r7, #16]
 3791 007c DB89     		ldrh	r3, [r3, #14]
 3792 007e 1A46     		mov	r2, r3
 3793 0080 7B69     		ldr	r3, [r7, #20]
 3794 0082 9A42     		cmp	r2, r3
 3795 0084 D4D8     		bhi	.L168
 892:..\..\..\lvgl\version_6.1.2\lvgl\src\lv_objx/lv_calendar.c ****         }
 893:..\..\..\lvgl\version_6.1.2\lvgl\src\lv_objx/lv_calendar.c ****     }
 894:..\..\..\lvgl\version_6.1.2\lvgl\src\lv_objx/lv_calendar.c **** 
 895:..\..\..\lvgl\version_6.1.2\lvgl\src\lv_objx/lv_calendar.c ****     return false;
 3796              		.loc 3 895 0 is_stmt 1
 3797 0086 0023     		movs	r3, #0
 3798              	.L165:
 896:..\..\..\lvgl\version_6.1.2\lvgl\src\lv_objx/lv_calendar.c **** }
 3799              		.loc 3 896 0
 3800 0088 1846     		mov	r0, r3
 3801 008a 1837     		adds	r7, r7, #24
 3802              		.cfi_def_cfa_offset 8
 3803 008c BD46     		mov	sp, r7
 3804              		.cfi_def_cfa_register 13
 3805              		@ sp needed
 3806 008e 80BD     		pop	{r7, pc}
 3807              		.cfi_endproc
 3808              	.LFE54:
 3809              		.size	is_highlighted, .-is_highlighted
 3810              		.section	.text.get_day_name,"ax",%progbits
 3811              		.align	2
 3812              		.thumb
 3813              		.thumb_func
 3814              		.type	get_day_name, %function
 3815              	get_day_name:
 3816              	.LFB55:
 897:..\..\..\lvgl\version_6.1.2\lvgl\src\lv_objx/lv_calendar.c **** 
 898:..\..\..\lvgl\version_6.1.2\lvgl\src\lv_objx/lv_calendar.c **** /**
 899:..\..\..\lvgl\version_6.1.2\lvgl\src\lv_objx/lv_calendar.c ****  * Get the day name
 900:..\..\..\lvgl\version_6.1.2\lvgl\src\lv_objx/lv_calendar.c ****  * @param calendar pointer to a calendar object
 901:..\..\..\lvgl\version_6.1.2\lvgl\src\lv_objx/lv_calendar.c ****  * @param day a day in [0..6]
 902:..\..\..\lvgl\version_6.1.2\lvgl\src\lv_objx/lv_calendar.c ****  * @return
 903:..\..\..\lvgl\version_6.1.2\lvgl\src\lv_objx/lv_calendar.c ****  */
 904:..\..\..\lvgl\version_6.1.2\lvgl\src\lv_objx/lv_calendar.c **** static const char * get_day_name(lv_obj_t * calendar, uint8_t day)
 905:..\..\..\lvgl\version_6.1.2\lvgl\src\lv_objx/lv_calendar.c **** {
 3817              		.loc 3 905 0
 3818              		.cfi_startproc
 3819              		@ args = 0, pretend = 0, frame = 16
 3820              		@ frame_needed = 1, uses_anonymous_args = 0
 3821 0000 80B5     		push	{r7, lr}
 3822              		.cfi_def_cfa_offset 8
 3823              		.cfi_offset 7, -8
 3824              		.cfi_offset 14, -4
 3825 0002 84B0     		sub	sp, sp, #16
 3826              		.cfi_def_cfa_offset 24
 3827 0004 00AF     		add	r7, sp, #0
 3828              		.cfi_def_cfa_register 7
 3829 0006 7860     		str	r0, [r7, #4]
 3830 0008 0B46     		mov	r3, r1
 3831 000a FB70     		strb	r3, [r7, #3]
ARM GAS  C:\Users\tmj32\AppData\Local\Temp\cc0vWRpX.s 			page 89


 906:..\..\..\lvgl\version_6.1.2\lvgl\src\lv_objx/lv_calendar.c **** 
 907:..\..\..\lvgl\version_6.1.2\lvgl\src\lv_objx/lv_calendar.c ****     lv_calendar_ext_t * ext = lv_obj_get_ext_attr(calendar);
 3832              		.loc 3 907 0
 3833 000c 7868     		ldr	r0, [r7, #4]
 3834 000e FFF7FEFF 		bl	lv_obj_get_ext_attr
 3835 0012 F860     		str	r0, [r7, #12]
 908:..\..\..\lvgl\version_6.1.2\lvgl\src\lv_objx/lv_calendar.c ****     if(ext->day_names)
 3836              		.loc 3 908 0
 3837 0014 FB68     		ldr	r3, [r7, #12]
 3838 0016 5B69     		ldr	r3, [r3, #20]
 3839 0018 002B     		cmp	r3, #0
 3840 001a 06D0     		beq	.L170
 909:..\..\..\lvgl\version_6.1.2\lvgl\src\lv_objx/lv_calendar.c ****         return ext->day_names[day];
 3841              		.loc 3 909 0
 3842 001c FB68     		ldr	r3, [r7, #12]
 3843 001e 5A69     		ldr	r2, [r3, #20]
 3844 0020 FB78     		ldrb	r3, [r7, #3]	@ zero_extendqisi2
 3845 0022 9B00     		lsls	r3, r3, #2
 3846 0024 1344     		add	r3, r3, r2
 3847 0026 1B68     		ldr	r3, [r3]
 3848 0028 03E0     		b	.L171
 3849              	.L170:
 910:..\..\..\lvgl\version_6.1.2\lvgl\src\lv_objx/lv_calendar.c ****     else
 911:..\..\..\lvgl\version_6.1.2\lvgl\src\lv_objx/lv_calendar.c ****         return day_name[day];
 3850              		.loc 3 911 0
 3851 002a FB78     		ldrb	r3, [r7, #3]	@ zero_extendqisi2
 3852 002c 034A     		ldr	r2, .L172
 3853 002e 52F82330 		ldr	r3, [r2, r3, lsl #2]
 3854              	.L171:
 912:..\..\..\lvgl\version_6.1.2\lvgl\src\lv_objx/lv_calendar.c **** }
 3855              		.loc 3 912 0
 3856 0032 1846     		mov	r0, r3
 3857 0034 1037     		adds	r7, r7, #16
 3858              		.cfi_def_cfa_offset 8
 3859 0036 BD46     		mov	sp, r7
 3860              		.cfi_def_cfa_register 13
 3861              		@ sp needed
 3862 0038 80BD     		pop	{r7, pc}
 3863              	.L173:
 3864 003a 00BF     		.align	2
 3865              	.L172:
 3866 003c 00000000 		.word	day_name
 3867              		.cfi_endproc
 3868              	.LFE55:
 3869              		.size	get_day_name, .-get_day_name
 3870              		.section	.text.get_month_name,"ax",%progbits
 3871              		.align	2
 3872              		.thumb
 3873              		.thumb_func
 3874              		.type	get_month_name, %function
 3875              	get_month_name:
 3876              	.LFB56:
 913:..\..\..\lvgl\version_6.1.2\lvgl\src\lv_objx/lv_calendar.c **** 
 914:..\..\..\lvgl\version_6.1.2\lvgl\src\lv_objx/lv_calendar.c **** /**
 915:..\..\..\lvgl\version_6.1.2\lvgl\src\lv_objx/lv_calendar.c ****  * Get the month name
 916:..\..\..\lvgl\version_6.1.2\lvgl\src\lv_objx/lv_calendar.c ****  * @param calendar pointer to a calendar object
 917:..\..\..\lvgl\version_6.1.2\lvgl\src\lv_objx/lv_calendar.c ****  * @param month a month. The range is basically [1..12] but [-11..1] is also supported to handle
ARM GAS  C:\Users\tmj32\AppData\Local\Temp\cc0vWRpX.s 			page 90


 918:..\..\..\lvgl\version_6.1.2\lvgl\src\lv_objx/lv_calendar.c ****  * previous year
 919:..\..\..\lvgl\version_6.1.2\lvgl\src\lv_objx/lv_calendar.c ****  * @return
 920:..\..\..\lvgl\version_6.1.2\lvgl\src\lv_objx/lv_calendar.c ****  */
 921:..\..\..\lvgl\version_6.1.2\lvgl\src\lv_objx/lv_calendar.c **** static const char * get_month_name(lv_obj_t * calendar, int32_t month)
 922:..\..\..\lvgl\version_6.1.2\lvgl\src\lv_objx/lv_calendar.c **** {
 3877              		.loc 3 922 0
 3878              		.cfi_startproc
 3879              		@ args = 0, pretend = 0, frame = 16
 3880              		@ frame_needed = 1, uses_anonymous_args = 0
 3881 0000 80B5     		push	{r7, lr}
 3882              		.cfi_def_cfa_offset 8
 3883              		.cfi_offset 7, -8
 3884              		.cfi_offset 14, -4
 3885 0002 84B0     		sub	sp, sp, #16
 3886              		.cfi_def_cfa_offset 24
 3887 0004 00AF     		add	r7, sp, #0
 3888              		.cfi_def_cfa_register 7
 3889 0006 7860     		str	r0, [r7, #4]
 3890 0008 3960     		str	r1, [r7]
 923:..\..\..\lvgl\version_6.1.2\lvgl\src\lv_objx/lv_calendar.c ****     month--; /*Range of months id [1..12] but range of indexes is [0..11]*/
 3891              		.loc 3 923 0
 3892 000a 3B68     		ldr	r3, [r7]
 3893 000c 013B     		subs	r3, r3, #1
 3894 000e 3B60     		str	r3, [r7]
 924:..\..\..\lvgl\version_6.1.2\lvgl\src\lv_objx/lv_calendar.c ****     if(month < 0) month = 12 + month;
 3895              		.loc 3 924 0
 3896 0010 3B68     		ldr	r3, [r7]
 3897 0012 002B     		cmp	r3, #0
 3898 0014 02DA     		bge	.L175
 3899              		.loc 3 924 0 is_stmt 0 discriminator 1
 3900 0016 3B68     		ldr	r3, [r7]
 3901 0018 0C33     		adds	r3, r3, #12
 3902 001a 3B60     		str	r3, [r7]
 3903              	.L175:
 925:..\..\..\lvgl\version_6.1.2\lvgl\src\lv_objx/lv_calendar.c **** 
 926:..\..\..\lvgl\version_6.1.2\lvgl\src\lv_objx/lv_calendar.c ****     lv_calendar_ext_t * ext = lv_obj_get_ext_attr(calendar);
 3904              		.loc 3 926 0 is_stmt 1
 3905 001c 7868     		ldr	r0, [r7, #4]
 3906 001e FFF7FEFF 		bl	lv_obj_get_ext_attr
 3907 0022 F860     		str	r0, [r7, #12]
 927:..\..\..\lvgl\version_6.1.2\lvgl\src\lv_objx/lv_calendar.c ****     if(ext->month_names)
 3908              		.loc 3 927 0
 3909 0024 FB68     		ldr	r3, [r7, #12]
 3910 0026 9B69     		ldr	r3, [r3, #24]
 3911 0028 002B     		cmp	r3, #0
 3912 002a 06D0     		beq	.L176
 928:..\..\..\lvgl\version_6.1.2\lvgl\src\lv_objx/lv_calendar.c ****         return ext->month_names[month];
 3913              		.loc 3 928 0
 3914 002c FB68     		ldr	r3, [r7, #12]
 3915 002e 9A69     		ldr	r2, [r3, #24]
 3916 0030 3B68     		ldr	r3, [r7]
 3917 0032 9B00     		lsls	r3, r3, #2
 3918 0034 1344     		add	r3, r3, r2
 3919 0036 1B68     		ldr	r3, [r3]
 3920 0038 03E0     		b	.L177
 3921              	.L176:
 929:..\..\..\lvgl\version_6.1.2\lvgl\src\lv_objx/lv_calendar.c ****     else
ARM GAS  C:\Users\tmj32\AppData\Local\Temp\cc0vWRpX.s 			page 91


 930:..\..\..\lvgl\version_6.1.2\lvgl\src\lv_objx/lv_calendar.c ****         return month_name[month];
 3922              		.loc 3 930 0
 3923 003a 044A     		ldr	r2, .L178
 3924 003c 3B68     		ldr	r3, [r7]
 3925 003e 52F82330 		ldr	r3, [r2, r3, lsl #2]
 3926              	.L177:
 931:..\..\..\lvgl\version_6.1.2\lvgl\src\lv_objx/lv_calendar.c **** }
 3927              		.loc 3 931 0
 3928 0042 1846     		mov	r0, r3
 3929 0044 1037     		adds	r7, r7, #16
 3930              		.cfi_def_cfa_offset 8
 3931 0046 BD46     		mov	sp, r7
 3932              		.cfi_def_cfa_register 13
 3933              		@ sp needed
 3934 0048 80BD     		pop	{r7, pc}
 3935              	.L179:
 3936 004a 00BF     		.align	2
 3937              	.L178:
 3938 004c 1C000000 		.word	month_name
 3939              		.cfi_endproc
 3940              	.LFE56:
 3941              		.size	get_month_name, .-get_month_name
 3942              		.section	.text.get_month_length,"ax",%progbits
 3943              		.align	2
 3944              		.thumb
 3945              		.thumb_func
 3946              		.type	get_month_length, %function
 3947              	get_month_length:
 3948              	.LFB57:
 932:..\..\..\lvgl\version_6.1.2\lvgl\src\lv_objx/lv_calendar.c **** 
 933:..\..\..\lvgl\version_6.1.2\lvgl\src\lv_objx/lv_calendar.c **** /**
 934:..\..\..\lvgl\version_6.1.2\lvgl\src\lv_objx/lv_calendar.c ****  * Get the number of days in a month
 935:..\..\..\lvgl\version_6.1.2\lvgl\src\lv_objx/lv_calendar.c ****  * @param year a year
 936:..\..\..\lvgl\version_6.1.2\lvgl\src\lv_objx/lv_calendar.c ****  * @param month a month. The range is basically [1..12] but [-11..1] is also supported to handle
 937:..\..\..\lvgl\version_6.1.2\lvgl\src\lv_objx/lv_calendar.c ****  * previous year
 938:..\..\..\lvgl\version_6.1.2\lvgl\src\lv_objx/lv_calendar.c ****  * @return [28..31]
 939:..\..\..\lvgl\version_6.1.2\lvgl\src\lv_objx/lv_calendar.c ****  */
 940:..\..\..\lvgl\version_6.1.2\lvgl\src\lv_objx/lv_calendar.c **** static uint8_t get_month_length(int32_t year, int32_t month)
 941:..\..\..\lvgl\version_6.1.2\lvgl\src\lv_objx/lv_calendar.c **** {
 3949              		.loc 3 941 0
 3950              		.cfi_startproc
 3951              		@ args = 0, pretend = 0, frame = 8
 3952              		@ frame_needed = 1, uses_anonymous_args = 0
 3953 0000 80B5     		push	{r7, lr}
 3954              		.cfi_def_cfa_offset 8
 3955              		.cfi_offset 7, -8
 3956              		.cfi_offset 14, -4
 3957 0002 82B0     		sub	sp, sp, #8
 3958              		.cfi_def_cfa_offset 16
 3959 0004 00AF     		add	r7, sp, #0
 3960              		.cfi_def_cfa_register 7
 3961 0006 7860     		str	r0, [r7, #4]
 3962 0008 3960     		str	r1, [r7]
 942:..\..\..\lvgl\version_6.1.2\lvgl\src\lv_objx/lv_calendar.c ****     month--; /*Range of months id [1..12] but range of indexes is [0..11]*/
 3963              		.loc 3 942 0
 3964 000a 3B68     		ldr	r3, [r7]
 3965 000c 013B     		subs	r3, r3, #1
ARM GAS  C:\Users\tmj32\AppData\Local\Temp\cc0vWRpX.s 			page 92


 3966 000e 3B60     		str	r3, [r7]
 943:..\..\..\lvgl\version_6.1.2\lvgl\src\lv_objx/lv_calendar.c ****     if(month < 0) {
 3967              		.loc 3 943 0
 3968 0010 3B68     		ldr	r3, [r7]
 3969 0012 002B     		cmp	r3, #0
 3970 0014 05DA     		bge	.L181
 944:..\..\..\lvgl\version_6.1.2\lvgl\src\lv_objx/lv_calendar.c ****         year--;             /*Already in the previous year (won't be less then -12 to skip a whole 
 3971              		.loc 3 944 0
 3972 0016 7B68     		ldr	r3, [r7, #4]
 3973 0018 013B     		subs	r3, r3, #1
 3974 001a 7B60     		str	r3, [r7, #4]
 945:..\..\..\lvgl\version_6.1.2\lvgl\src\lv_objx/lv_calendar.c ****         month = 12 + month; /*`month` is negative, the result will be < 12*/
 3975              		.loc 3 945 0
 3976 001c 3B68     		ldr	r3, [r7]
 3977 001e 0C33     		adds	r3, r3, #12
 3978 0020 3B60     		str	r3, [r7]
 3979              	.L181:
 946:..\..\..\lvgl\version_6.1.2\lvgl\src\lv_objx/lv_calendar.c ****     }
 947:..\..\..\lvgl\version_6.1.2\lvgl\src\lv_objx/lv_calendar.c ****     if(month >= 12) {
 3980              		.loc 3 947 0
 3981 0022 3B68     		ldr	r3, [r7]
 3982 0024 0B2B     		cmp	r3, #11
 3983 0026 05DD     		ble	.L182
 948:..\..\..\lvgl\version_6.1.2\lvgl\src\lv_objx/lv_calendar.c ****         year++;
 3984              		.loc 3 948 0
 3985 0028 7B68     		ldr	r3, [r7, #4]
 3986 002a 0133     		adds	r3, r3, #1
 3987 002c 7B60     		str	r3, [r7, #4]
 949:..\..\..\lvgl\version_6.1.2\lvgl\src\lv_objx/lv_calendar.c ****         month -= 12;
 3988              		.loc 3 949 0
 3989 002e 3B68     		ldr	r3, [r7]
 3990 0030 0C3B     		subs	r3, r3, #12
 3991 0032 3B60     		str	r3, [r7]
 3992              	.L182:
 950:..\..\..\lvgl\version_6.1.2\lvgl\src\lv_objx/lv_calendar.c ****     }
 951:..\..\..\lvgl\version_6.1.2\lvgl\src\lv_objx/lv_calendar.c **** 
 952:..\..\..\lvgl\version_6.1.2\lvgl\src\lv_objx/lv_calendar.c ****     /*month == 1 is february*/
 953:..\..\..\lvgl\version_6.1.2\lvgl\src\lv_objx/lv_calendar.c ****     return (month == 1) ? (28 + is_leap_year(year)) : 31 - month % 7 % 2;
 3993              		.loc 3 953 0
 3994 0034 3B68     		ldr	r3, [r7]
 3995 0036 012B     		cmp	r3, #1
 3996 0038 07D1     		bne	.L183
 3997              		.loc 3 953 0 is_stmt 0 discriminator 1
 3998 003a 7B68     		ldr	r3, [r7, #4]
 3999 003c 1846     		mov	r0, r3
 4000 003e FFF7FEFF 		bl	is_leap_year
 4001 0042 0346     		mov	r3, r0
 4002 0044 1C33     		adds	r3, r3, #28
 4003 0046 DBB2     		uxtb	r3, r3
 4004 0048 17E0     		b	.L184
 4005              	.L183:
 4006              		.loc 3 953 0 discriminator 2
 4007 004a 3A68     		ldr	r2, [r7]
 4008 004c 0D4B     		ldr	r3, .L187
 4009 004e 83FB0213 		smull	r1, r3, r3, r2
 4010 0052 1344     		add	r3, r3, r2
 4011 0054 9910     		asrs	r1, r3, #2
ARM GAS  C:\Users\tmj32\AppData\Local\Temp\cc0vWRpX.s 			page 93


 4012 0056 D317     		asrs	r3, r2, #31
 4013 0058 C91A     		subs	r1, r1, r3
 4014 005a 0B46     		mov	r3, r1
 4015 005c DB00     		lsls	r3, r3, #3
 4016 005e 5B1A     		subs	r3, r3, r1
 4017 0060 D11A     		subs	r1, r2, r3
 4018 0062 094B     		ldr	r3, .L187+4
 4019 0064 0B40     		ands	r3, r3, r1
 4020 0066 002B     		cmp	r3, #0
 4021 0068 03DA     		bge	.L185
 4022 006a 013B     		subs	r3, r3, #1
 4023 006c 63F00103 		orn	r3, r3, #1
 4024 0070 0133     		adds	r3, r3, #1
 4025              	.L185:
 4026 0072 DBB2     		uxtb	r3, r3
 4027 0074 C3F11F03 		rsb	r3, r3, #31
 4028 0078 DBB2     		uxtb	r3, r3
 4029              	.L184:
 954:..\..\..\lvgl\version_6.1.2\lvgl\src\lv_objx/lv_calendar.c **** }
 4030              		.loc 3 954 0 is_stmt 1 discriminator 4
 4031 007a 1846     		mov	r0, r3
 4032 007c 0837     		adds	r7, r7, #8
 4033              		.cfi_def_cfa_offset 8
 4034 007e BD46     		mov	sp, r7
 4035              		.cfi_def_cfa_register 13
 4036              		@ sp needed
 4037 0080 80BD     		pop	{r7, pc}
 4038              	.L188:
 4039 0082 00BF     		.align	2
 4040              	.L187:
 4041 0084 93244992 		.word	-1840700269
 4042 0088 01000080 		.word	-2147483647
 4043              		.cfi_endproc
 4044              	.LFE57:
 4045              		.size	get_month_length, .-get_month_length
 4046              		.section	.text.is_leap_year,"ax",%progbits
 4047              		.align	2
 4048              		.thumb
 4049              		.thumb_func
 4050              		.type	is_leap_year, %function
 4051              	is_leap_year:
 4052              	.LFB58:
 955:..\..\..\lvgl\version_6.1.2\lvgl\src\lv_objx/lv_calendar.c **** 
 956:..\..\..\lvgl\version_6.1.2\lvgl\src\lv_objx/lv_calendar.c **** /**
 957:..\..\..\lvgl\version_6.1.2\lvgl\src\lv_objx/lv_calendar.c ****  * Tells whether a year is leap year or not
 958:..\..\..\lvgl\version_6.1.2\lvgl\src\lv_objx/lv_calendar.c ****  * @param year a year
 959:..\..\..\lvgl\version_6.1.2\lvgl\src\lv_objx/lv_calendar.c ****  * @return 0: not leap year; 1: leap year
 960:..\..\..\lvgl\version_6.1.2\lvgl\src\lv_objx/lv_calendar.c ****  */
 961:..\..\..\lvgl\version_6.1.2\lvgl\src\lv_objx/lv_calendar.c **** static uint8_t is_leap_year(uint32_t year)
 962:..\..\..\lvgl\version_6.1.2\lvgl\src\lv_objx/lv_calendar.c **** {
 4053              		.loc 3 962 0
 4054              		.cfi_startproc
 4055              		@ args = 0, pretend = 0, frame = 8
 4056              		@ frame_needed = 1, uses_anonymous_args = 0
 4057              		@ link register save eliminated.
 4058 0000 80B4     		push	{r7}
 4059              		.cfi_def_cfa_offset 4
ARM GAS  C:\Users\tmj32\AppData\Local\Temp\cc0vWRpX.s 			page 94


 4060              		.cfi_offset 7, -4
 4061 0002 83B0     		sub	sp, sp, #12
 4062              		.cfi_def_cfa_offset 16
 4063 0004 00AF     		add	r7, sp, #0
 4064              		.cfi_def_cfa_register 7
 4065 0006 7860     		str	r0, [r7, #4]
 963:..\..\..\lvgl\version_6.1.2\lvgl\src\lv_objx/lv_calendar.c ****     return (year % 4) || ((year % 100 == 0) && (year % 400)) ? 0 : 1;
 4066              		.loc 3 963 0
 4067 0008 7B68     		ldr	r3, [r7, #4]
 4068 000a 03F00303 		and	r3, r3, #3
 4069 000e 002B     		cmp	r3, #0
 4070 0010 18D1     		bne	.L190
 4071              		.loc 3 963 0 is_stmt 0 discriminator 1
 4072 0012 7A68     		ldr	r2, [r7, #4]
 4073 0014 0F4B     		ldr	r3, .L194
 4074 0016 A3FB0213 		umull	r1, r3, r3, r2
 4075 001a 5B09     		lsrs	r3, r3, #5
 4076 001c 6421     		movs	r1, #100
 4077 001e 01FB03F3 		mul	r3, r1, r3
 4078 0022 D31A     		subs	r3, r2, r3
 4079 0024 002B     		cmp	r3, #0
 4080 0026 0BD1     		bne	.L191
 4081              		.loc 3 963 0 discriminator 4
 4082 0028 7A68     		ldr	r2, [r7, #4]
 4083 002a 0A4B     		ldr	r3, .L194
 4084 002c A3FB0213 		umull	r1, r3, r3, r2
 4085 0030 DB09     		lsrs	r3, r3, #7
 4086 0032 4FF4C871 		mov	r1, #400
 4087 0036 01FB03F3 		mul	r3, r1, r3
 4088 003a D31A     		subs	r3, r2, r3
 4089 003c 002B     		cmp	r3, #0
 4090 003e 01D1     		bne	.L190
 4091              	.L191:
 4092              		.loc 3 963 0 discriminator 5
 4093 0040 0123     		movs	r3, #1
 4094 0042 00E0     		b	.L192
 4095              	.L190:
 4096              		.loc 3 963 0 discriminator 6
 4097 0044 0023     		movs	r3, #0
 4098              	.L192:
 4099              		.loc 3 963 0 discriminator 8
 4100 0046 DBB2     		uxtb	r3, r3
 964:..\..\..\lvgl\version_6.1.2\lvgl\src\lv_objx/lv_calendar.c **** }
 4101              		.loc 3 964 0 is_stmt 1 discriminator 8
 4102 0048 1846     		mov	r0, r3
 4103 004a 0C37     		adds	r7, r7, #12
 4104              		.cfi_def_cfa_offset 4
 4105 004c BD46     		mov	sp, r7
 4106              		.cfi_def_cfa_register 13
 4107              		@ sp needed
 4108 004e 5DF8047B 		ldr	r7, [sp], #4
 4109              		.cfi_restore 7
 4110              		.cfi_def_cfa_offset 0
 4111 0052 7047     		bx	lr
 4112              	.L195:
 4113              		.align	2
 4114              	.L194:
ARM GAS  C:\Users\tmj32\AppData\Local\Temp\cc0vWRpX.s 			page 95


 4115 0054 1F85EB51 		.word	1374389535
 4116              		.cfi_endproc
 4117              	.LFE58:
 4118              		.size	is_leap_year, .-is_leap_year
 4119              		.section	.text.get_day_of_week,"ax",%progbits
 4120              		.align	2
 4121              		.thumb
 4122              		.thumb_func
 4123              		.type	get_day_of_week, %function
 4124              	get_day_of_week:
 4125              	.LFB59:
 965:..\..\..\lvgl\version_6.1.2\lvgl\src\lv_objx/lv_calendar.c **** 
 966:..\..\..\lvgl\version_6.1.2\lvgl\src\lv_objx/lv_calendar.c **** /**
 967:..\..\..\lvgl\version_6.1.2\lvgl\src\lv_objx/lv_calendar.c ****  * Get the day of the week
 968:..\..\..\lvgl\version_6.1.2\lvgl\src\lv_objx/lv_calendar.c ****  * @param year a year
 969:..\..\..\lvgl\version_6.1.2\lvgl\src\lv_objx/lv_calendar.c ****  * @param month a  month
 970:..\..\..\lvgl\version_6.1.2\lvgl\src\lv_objx/lv_calendar.c ****  * @param day a day
 971:..\..\..\lvgl\version_6.1.2\lvgl\src\lv_objx/lv_calendar.c ****  * @return [0..6] which means [Sun..Sat]
 972:..\..\..\lvgl\version_6.1.2\lvgl\src\lv_objx/lv_calendar.c ****  */
 973:..\..\..\lvgl\version_6.1.2\lvgl\src\lv_objx/lv_calendar.c **** static uint8_t get_day_of_week(uint32_t year, uint32_t month, uint32_t day)
 974:..\..\..\lvgl\version_6.1.2\lvgl\src\lv_objx/lv_calendar.c **** {
 4126              		.loc 3 974 0
 4127              		.cfi_startproc
 4128              		@ args = 0, pretend = 0, frame = 32
 4129              		@ frame_needed = 1, uses_anonymous_args = 0
 4130              		@ link register save eliminated.
 4131 0000 90B4     		push	{r4, r7}
 4132              		.cfi_def_cfa_offset 8
 4133              		.cfi_offset 4, -8
 4134              		.cfi_offset 7, -4
 4135 0002 88B0     		sub	sp, sp, #32
 4136              		.cfi_def_cfa_offset 40
 4137 0004 00AF     		add	r7, sp, #0
 4138              		.cfi_def_cfa_register 7
 4139 0006 F860     		str	r0, [r7, #12]
 4140 0008 B960     		str	r1, [r7, #8]
 4141 000a 7A60     		str	r2, [r7, #4]
 975:..\..\..\lvgl\version_6.1.2\lvgl\src\lv_objx/lv_calendar.c ****     uint32_t a = month < 3 ? 1 : 0;
 4142              		.loc 3 975 0
 4143 000c BB68     		ldr	r3, [r7, #8]
 4144 000e 022B     		cmp	r3, #2
 4145 0010 94BF     		ite	ls
 4146 0012 0123     		movls	r3, #1
 4147 0014 0023     		movhi	r3, #0
 4148 0016 DBB2     		uxtb	r3, r3
 4149 0018 FB61     		str	r3, [r7, #28]
 976:..\..\..\lvgl\version_6.1.2\lvgl\src\lv_objx/lv_calendar.c ****     uint32_t b = year - a;
 4150              		.loc 3 976 0
 4151 001a FA68     		ldr	r2, [r7, #12]
 4152 001c FB69     		ldr	r3, [r7, #28]
 4153 001e D31A     		subs	r3, r2, r3
 4154 0020 BB61     		str	r3, [r7, #24]
 977:..\..\..\lvgl\version_6.1.2\lvgl\src\lv_objx/lv_calendar.c **** 
 978:..\..\..\lvgl\version_6.1.2\lvgl\src\lv_objx/lv_calendar.c ****     uint32_t day_of_week = (day + (31 * (month - 2 + 12 * a) / 12) + b + (b / 4) - (b / 100) + (b /
 4155              		.loc 3 978 0
 4156 0022 FA69     		ldr	r2, [r7, #28]
 4157 0024 1346     		mov	r3, r2
ARM GAS  C:\Users\tmj32\AppData\Local\Temp\cc0vWRpX.s 			page 96


 4158 0026 5B00     		lsls	r3, r3, #1
 4159 0028 1344     		add	r3, r3, r2
 4160 002a 9B00     		lsls	r3, r3, #2
 4161 002c 1A46     		mov	r2, r3
 4162 002e BB68     		ldr	r3, [r7, #8]
 4163 0030 1A44     		add	r2, r2, r3
 4164 0032 1346     		mov	r3, r2
 4165 0034 5B01     		lsls	r3, r3, #5
 4166 0036 9B1A     		subs	r3, r3, r2
 4167 0038 3E3B     		subs	r3, r3, #62
 4168 003a 154A     		ldr	r2, .L198
 4169 003c A2FB0323 		umull	r2, r3, r2, r3
 4170 0040 DA08     		lsrs	r2, r3, #3
 4171 0042 7B68     		ldr	r3, [r7, #4]
 4172 0044 1A44     		add	r2, r2, r3
 4173 0046 BB69     		ldr	r3, [r7, #24]
 4174 0048 1A44     		add	r2, r2, r3
 4175 004a BB69     		ldr	r3, [r7, #24]
 4176 004c 9B08     		lsrs	r3, r3, #2
 4177 004e 1A44     		add	r2, r2, r3
 4178 0050 BB69     		ldr	r3, [r7, #24]
 4179 0052 1049     		ldr	r1, .L198+4
 4180 0054 A1FB0313 		umull	r1, r3, r1, r3
 4181 0058 5B09     		lsrs	r3, r3, #5
 4182 005a D21A     		subs	r2, r2, r3
 4183 005c BB69     		ldr	r3, [r7, #24]
 4184 005e 0D49     		ldr	r1, .L198+4
 4185 0060 A1FB0313 		umull	r1, r3, r1, r3
 4186 0064 DB09     		lsrs	r3, r3, #7
 4187 0066 1A44     		add	r2, r2, r3
 4188 0068 0B4B     		ldr	r3, .L198+8
 4189 006a A2FB0334 		umull	r3, r4, r2, r3
 4190 006e 111B     		subs	r1, r2, r4
 4191 0070 4908     		lsrs	r1, r1, #1
 4192 0072 0B19     		adds	r3, r1, r4
 4193 0074 9908     		lsrs	r1, r3, #2
 4194 0076 0B46     		mov	r3, r1
 4195 0078 DB00     		lsls	r3, r3, #3
 4196 007a 5B1A     		subs	r3, r3, r1
 4197 007c D31A     		subs	r3, r2, r3
 4198 007e 7B61     		str	r3, [r7, #20]
 979:..\..\..\lvgl\version_6.1.2\lvgl\src\lv_objx/lv_calendar.c **** 
 980:..\..\..\lvgl\version_6.1.2\lvgl\src\lv_objx/lv_calendar.c ****     return day_of_week;
 4199              		.loc 3 980 0
 4200 0080 7B69     		ldr	r3, [r7, #20]
 4201 0082 DBB2     		uxtb	r3, r3
 981:..\..\..\lvgl\version_6.1.2\lvgl\src\lv_objx/lv_calendar.c **** }
 4202              		.loc 3 981 0
 4203 0084 1846     		mov	r0, r3
 4204 0086 2037     		adds	r7, r7, #32
 4205              		.cfi_def_cfa_offset 8
 4206 0088 BD46     		mov	sp, r7
 4207              		.cfi_def_cfa_register 13
 4208              		@ sp needed
 4209 008a 90BC     		pop	{r4, r7}
 4210              		.cfi_restore 7
 4211              		.cfi_restore 4
ARM GAS  C:\Users\tmj32\AppData\Local\Temp\cc0vWRpX.s 			page 97


 4212              		.cfi_def_cfa_offset 0
 4213 008c 7047     		bx	lr
 4214              	.L199:
 4215 008e 00BF     		.align	2
 4216              	.L198:
 4217 0090 ABAAAAAA 		.word	-1431655765
 4218 0094 1F85EB51 		.word	1374389535
 4219 0098 25499224 		.word	613566757
 4220              		.cfi_endproc
 4221              	.LFE59:
 4222              		.size	get_day_of_week, .-get_day_of_week
 4223              		.text
 4224              	.Letext0:
 4225              		.file 4 "c:\\program files (x86)\\cypress\\psoc creator\\4.3\\psoc creator\\import\\gnu\\arm\\5.4.
 4226              		.file 5 "c:\\program files (x86)\\cypress\\psoc creator\\4.3\\psoc creator\\import\\gnu\\arm\\5.4.
 4227              		.file 6 "..\\..\\..\\lvgl\\version_6.1.2\\lvgl\\src\\lv_objx\\../../../lv_conf.h"
 4228              		.file 7 "..\\..\\..\\lvgl\\version_6.1.2\\lvgl\\src\\lv_objx\\../lv_core/../lv_misc/lv_color.h"
 4229              		.file 8 "..\\..\\..\\lvgl\\version_6.1.2\\lvgl\\src\\lv_objx\\../lv_core/lv_style.h"
 4230              		.file 9 "..\\..\\..\\lvgl\\version_6.1.2\\lvgl\\src\\lv_objx\\../lv_core/../lv_misc/lv_types.h"
 4231              		.file 10 "..\\..\\..\\lvgl\\version_6.1.2\\lvgl\\src\\lv_objx\\../lv_core/../lv_misc/lv_ll.h"
 4232              		.file 11 "..\\..\\..\\lvgl\\version_6.1.2\\lvgl\\src\\lv_objx\\../lv_core/../lv_misc/lv_bidi.h"
 4233              		.file 12 "..\\..\\..\\lvgl\\version_6.1.2\\lvgl\\src\\lv_objx\\../lv_core/../lv_hal/../lv_misc/lv_
 4234              		.file 13 "..\\..\\..\\lvgl\\version_6.1.2\\lvgl\\src\\lv_objx\\../lv_core/../lv_hal/lv_hal_disp.h"
 4235              		.file 14 "..\\..\\..\\lvgl\\version_6.1.2\\lvgl\\src\\lv_objx\\../lv_core/lv_obj.h"
 4236              		.file 15 "..\\..\\..\\lvgl\\version_6.1.2\\lvgl\\src\\lv_objx\\../lv_core/../lv_hal/lv_hal_indev.h
 4237              		.file 16 "..\\..\\..\\lvgl\\version_6.1.2\\lvgl\\src\\lv_objx\\lv_calendar.h"
 4238              		.file 17 "..\\..\\..\\lvgl\\version_6.1.2\\lvgl\\src\\lv_objx\\../lv_draw/../lv_misc/lv_txt.h"
 4239              		.file 18 "..\\..\\..\\lvgl\\version_6.1.2\\lvgl\\src\\lv_objx\\../lv_core/../lv_core/lv_group.h"
 4240              		.file 19 "..\\..\\..\\lvgl\\version_6.1.2\\lvgl\\src\\lv_objx\\../lv_themes/lv_theme.h"
 4241              		.section	.debug_info,"",%progbits
 4242              	.Ldebug_info0:
 4243 0000 69250000 		.4byte	0x2569
 4244 0004 0400     		.2byte	0x4
 4245 0006 00000000 		.4byte	.Ldebug_abbrev0
 4246 000a 04       		.byte	0x4
 4247 000b 01       		.uleb128 0x1
 4248 000c 3C100000 		.4byte	.LASF419
 4249 0010 0C       		.byte	0xc
 4250 0011 190F0000 		.4byte	.LASF420
 4251 0015 AA090000 		.4byte	.LASF421
 4252 0019 00000000 		.4byte	.Ldebug_ranges0+0
 4253 001d 00000000 		.4byte	0
 4254 0021 00000000 		.4byte	.Ldebug_line0
 4255 0025 02       		.uleb128 0x2
 4256 0026 610E0000 		.4byte	.LASF0
 4257 002a 04       		.byte	0x4
 4258 002b 1B       		.byte	0x1b
 4259 002c 30000000 		.4byte	0x30
 4260 0030 03       		.uleb128 0x3
 4261 0031 01       		.byte	0x1
 4262 0032 06       		.byte	0x6
 4263 0033 DB030000 		.4byte	.LASF2
 4264 0037 02       		.uleb128 0x2
 4265 0038 99020000 		.4byte	.LASF1
 4266 003c 04       		.byte	0x4
 4267 003d 1D       		.byte	0x1d
 4268 003e 42000000 		.4byte	0x42
ARM GAS  C:\Users\tmj32\AppData\Local\Temp\cc0vWRpX.s 			page 98


 4269 0042 03       		.uleb128 0x3
 4270 0043 01       		.byte	0x1
 4271 0044 08       		.byte	0x8
 4272 0045 86040000 		.4byte	.LASF3
 4273 0049 02       		.uleb128 0x2
 4274 004a 20110000 		.4byte	.LASF4
 4275 004e 04       		.byte	0x4
 4276 004f 29       		.byte	0x29
 4277 0050 54000000 		.4byte	0x54
 4278 0054 03       		.uleb128 0x3
 4279 0055 02       		.byte	0x2
 4280 0056 05       		.byte	0x5
 4281 0057 87120000 		.4byte	.LASF5
 4282 005b 02       		.uleb128 0x2
 4283 005c 90050000 		.4byte	.LASF6
 4284 0060 04       		.byte	0x4
 4285 0061 2B       		.byte	0x2b
 4286 0062 66000000 		.4byte	0x66
 4287 0066 03       		.uleb128 0x3
 4288 0067 02       		.byte	0x2
 4289 0068 07       		.byte	0x7
 4290 0069 40140000 		.4byte	.LASF7
 4291 006d 02       		.uleb128 0x2
 4292 006e E4140000 		.4byte	.LASF8
 4293 0072 04       		.byte	0x4
 4294 0073 3F       		.byte	0x3f
 4295 0074 78000000 		.4byte	0x78
 4296 0078 03       		.uleb128 0x3
 4297 0079 04       		.byte	0x4
 4298 007a 05       		.byte	0x5
 4299 007b D7020000 		.4byte	.LASF9
 4300 007f 02       		.uleb128 0x2
 4301 0080 7A090000 		.4byte	.LASF10
 4302 0084 04       		.byte	0x4
 4303 0085 41       		.byte	0x41
 4304 0086 8A000000 		.4byte	0x8a
 4305 008a 03       		.uleb128 0x3
 4306 008b 04       		.byte	0x4
 4307 008c 07       		.byte	0x7
 4308 008d 3C080000 		.4byte	.LASF11
 4309 0091 03       		.uleb128 0x3
 4310 0092 08       		.byte	0x8
 4311 0093 05       		.byte	0x5
 4312 0094 9C090000 		.4byte	.LASF12
 4313 0098 03       		.uleb128 0x3
 4314 0099 08       		.byte	0x8
 4315 009a 07       		.byte	0x7
 4316 009b E60E0000 		.4byte	.LASF13
 4317 009f 04       		.uleb128 0x4
 4318 00a0 04       		.byte	0x4
 4319 00a1 05       		.byte	0x5
 4320 00a2 696E7400 		.ascii	"int\000"
 4321 00a6 03       		.uleb128 0x3
 4322 00a7 04       		.byte	0x4
 4323 00a8 07       		.byte	0x7
 4324 00a9 540B0000 		.4byte	.LASF14
 4325 00ad 02       		.uleb128 0x2
ARM GAS  C:\Users\tmj32\AppData\Local\Temp\cc0vWRpX.s 			page 99


 4326 00ae 0D000000 		.4byte	.LASF15
 4327 00b2 05       		.byte	0x5
 4328 00b3 14       		.byte	0x14
 4329 00b4 25000000 		.4byte	0x25
 4330 00b8 02       		.uleb128 0x2
 4331 00b9 E7030000 		.4byte	.LASF16
 4332 00bd 05       		.byte	0x5
 4333 00be 18       		.byte	0x18
 4334 00bf 37000000 		.4byte	0x37
 4335 00c3 02       		.uleb128 0x2
 4336 00c4 CA120000 		.4byte	.LASF17
 4337 00c8 05       		.byte	0x5
 4338 00c9 20       		.byte	0x20
 4339 00ca 49000000 		.4byte	0x49
 4340 00ce 02       		.uleb128 0x2
 4341 00cf 540F0000 		.4byte	.LASF18
 4342 00d3 05       		.byte	0x5
 4343 00d4 24       		.byte	0x24
 4344 00d5 5B000000 		.4byte	0x5b
 4345 00d9 02       		.uleb128 0x2
 4346 00da E5000000 		.4byte	.LASF19
 4347 00de 05       		.byte	0x5
 4348 00df 2C       		.byte	0x2c
 4349 00e0 6D000000 		.4byte	0x6d
 4350 00e4 02       		.uleb128 0x2
 4351 00e5 04140000 		.4byte	.LASF20
 4352 00e9 05       		.byte	0x5
 4353 00ea 30       		.byte	0x30
 4354 00eb 7F000000 		.4byte	0x7f
 4355 00ef 02       		.uleb128 0x2
 4356 00f0 6F140000 		.4byte	.LASF21
 4357 00f4 06       		.byte	0x6
 4358 00f5 3C       		.byte	0x3c
 4359 00f6 C3000000 		.4byte	0xc3
 4360 00fa 05       		.uleb128 0x5
 4361 00fb 04       		.byte	0x4
 4362 00fc 03       		.uleb128 0x3
 4363 00fd 08       		.byte	0x8
 4364 00fe 04       		.byte	0x4
 4365 00ff 370D0000 		.4byte	.LASF22
 4366 0103 06       		.uleb128 0x6
 4367 0104 08       		.byte	0x8
 4368 0105 01       		.byte	0x1
 4369 0106 2E       		.byte	0x2e
 4370 0107 54010000 		.4byte	0x154
 4371 010b 07       		.uleb128 0x7
 4372 010c 32000000 		.4byte	.LASF23
 4373 0110 01       		.byte	0x1
 4374 0111 30       		.byte	0x30
 4375 0112 CE000000 		.4byte	0xce
 4376 0116 00       		.byte	0
 4377 0117 07       		.uleb128 0x7
 4378 0118 81120000 		.4byte	.LASF24
 4379 011c 01       		.byte	0x1
 4380 011d 31       		.byte	0x31
 4381 011e B8000000 		.4byte	0xb8
 4382 0122 02       		.byte	0x2
ARM GAS  C:\Users\tmj32\AppData\Local\Temp\cc0vWRpX.s 			page 100


 4383 0123 07       		.uleb128 0x7
 4384 0124 4E120000 		.4byte	.LASF25
 4385 0128 01       		.byte	0x1
 4386 0129 32       		.byte	0x32
 4387 012a B8000000 		.4byte	0xb8
 4388 012e 03       		.byte	0x3
 4389 012f 07       		.uleb128 0x7
 4390 0130 E5040000 		.4byte	.LASF26
 4391 0134 01       		.byte	0x1
 4392 0135 33       		.byte	0x33
 4393 0136 AD000000 		.4byte	0xad
 4394 013a 04       		.byte	0x4
 4395 013b 07       		.uleb128 0x7
 4396 013c EB040000 		.4byte	.LASF27
 4397 0140 01       		.byte	0x1
 4398 0141 34       		.byte	0x34
 4399 0142 AD000000 		.4byte	0xad
 4400 0146 05       		.byte	0x5
 4401 0147 08       		.uleb128 0x8
 4402 0148 62707000 		.ascii	"bpp\000"
 4403 014c 01       		.byte	0x1
 4404 014d 35       		.byte	0x35
 4405 014e B8000000 		.4byte	0xb8
 4406 0152 06       		.byte	0x6
 4407 0153 00       		.byte	0
 4408 0154 02       		.uleb128 0x2
 4409 0155 050C0000 		.4byte	.LASF28
 4410 0159 01       		.byte	0x1
 4411 015a 36       		.byte	0x36
 4412 015b 03010000 		.4byte	0x103
 4413 015f 09       		.uleb128 0x9
 4414 0160 86150000 		.4byte	.LASF85
 4415 0164 10       		.byte	0x10
 4416 0165 01       		.byte	0x1
 4417 0166 44       		.byte	0x44
 4418 0167 B7010000 		.4byte	0x1b7
 4419 016b 07       		.uleb128 0x7
 4420 016c D6140000 		.4byte	.LASF29
 4421 0170 01       		.byte	0x1
 4422 0171 47       		.byte	0x47
 4423 0172 ED010000 		.4byte	0x1ed
 4424 0176 00       		.byte	0
 4425 0177 07       		.uleb128 0x7
 4426 0178 20040000 		.4byte	.LASF30
 4427 017c 01       		.byte	0x1
 4428 017d 4A       		.byte	0x4a
 4429 017e 12020000 		.4byte	0x212
 4430 0182 04       		.byte	0x4
 4431 0183 07       		.uleb128 0x7
 4432 0184 4C010000 		.4byte	.LASF31
 4433 0188 01       		.byte	0x1
 4434 0189 4D       		.byte	0x4d
 4435 018a B8000000 		.4byte	0xb8
 4436 018e 08       		.byte	0x8
 4437 018f 07       		.uleb128 0x7
 4438 0190 91120000 		.4byte	.LASF32
 4439 0194 01       		.byte	0x1
ARM GAS  C:\Users\tmj32\AppData\Local\Temp\cc0vWRpX.s 			page 101


 4440 0195 4E       		.byte	0x4e
 4441 0196 AD000000 		.4byte	0xad
 4442 019a 09       		.byte	0x9
 4443 019b 0A       		.uleb128 0xa
 4444 019c 9D0D0000 		.4byte	.LASF67
 4445 01a0 01       		.byte	0x1
 4446 01a1 4F       		.byte	0x4f
 4447 01a2 B8000000 		.4byte	0xb8
 4448 01a6 01       		.byte	0x1
 4449 01a7 02       		.byte	0x2
 4450 01a8 06       		.byte	0x6
 4451 01a9 0A       		.byte	0xa
 4452 01aa 08       		.uleb128 0x8
 4453 01ab 64736300 		.ascii	"dsc\000"
 4454 01af 01       		.byte	0x1
 4455 01b0 50       		.byte	0x50
 4456 01b1 FA000000 		.4byte	0xfa
 4457 01b5 0C       		.byte	0xc
 4458 01b6 00       		.byte	0
 4459 01b7 0B       		.uleb128 0xb
 4460 01b8 D5010000 		.4byte	0x1d5
 4461 01bc D5010000 		.4byte	0x1d5
 4462 01c0 0C       		.uleb128 0xc
 4463 01c1 DC010000 		.4byte	0x1dc
 4464 01c5 0C       		.uleb128 0xc
 4465 01c6 E7010000 		.4byte	0x1e7
 4466 01ca 0C       		.uleb128 0xc
 4467 01cb E4000000 		.4byte	0xe4
 4468 01cf 0C       		.uleb128 0xc
 4469 01d0 E4000000 		.4byte	0xe4
 4470 01d4 00       		.byte	0
 4471 01d5 03       		.uleb128 0x3
 4472 01d6 01       		.byte	0x1
 4473 01d7 02       		.byte	0x2
 4474 01d8 09050000 		.4byte	.LASF33
 4475 01dc 0D       		.uleb128 0xd
 4476 01dd 04       		.byte	0x4
 4477 01de E2010000 		.4byte	0x1e2
 4478 01e2 0E       		.uleb128 0xe
 4479 01e3 5F010000 		.4byte	0x15f
 4480 01e7 0D       		.uleb128 0xd
 4481 01e8 04       		.byte	0x4
 4482 01e9 54010000 		.4byte	0x154
 4483 01ed 0D       		.uleb128 0xd
 4484 01ee 04       		.byte	0x4
 4485 01ef B7010000 		.4byte	0x1b7
 4486 01f3 0B       		.uleb128 0xb
 4487 01f4 07020000 		.4byte	0x207
 4488 01f8 07020000 		.4byte	0x207
 4489 01fc 0C       		.uleb128 0xc
 4490 01fd DC010000 		.4byte	0x1dc
 4491 0201 0C       		.uleb128 0xc
 4492 0202 E4000000 		.4byte	0xe4
 4493 0206 00       		.byte	0
 4494 0207 0D       		.uleb128 0xd
 4495 0208 04       		.byte	0x4
 4496 0209 0D020000 		.4byte	0x20d
ARM GAS  C:\Users\tmj32\AppData\Local\Temp\cc0vWRpX.s 			page 102


 4497 020d 0E       		.uleb128 0xe
 4498 020e B8000000 		.4byte	0xb8
 4499 0212 0D       		.uleb128 0xd
 4500 0213 04       		.byte	0x4
 4501 0214 F3010000 		.4byte	0x1f3
 4502 0218 02       		.uleb128 0x2
 4503 0219 18140000 		.4byte	.LASF34
 4504 021d 01       		.byte	0x1
 4505 021e 56       		.byte	0x56
 4506 021f 5F010000 		.4byte	0x15f
 4507 0223 06       		.uleb128 0x6
 4508 0224 04       		.byte	0x4
 4509 0225 07       		.byte	0x7
 4510 0226 F3       		.byte	0xf3
 4511 0227 5C020000 		.4byte	0x25c
 4512 022b 07       		.uleb128 0x7
 4513 022c 36040000 		.4byte	.LASF35
 4514 0230 07       		.byte	0x7
 4515 0231 F5       		.byte	0xf5
 4516 0232 B8000000 		.4byte	0xb8
 4517 0236 00       		.byte	0
 4518 0237 07       		.uleb128 0x7
 4519 0238 12140000 		.4byte	.LASF36
 4520 023c 07       		.byte	0x7
 4521 023d F6       		.byte	0xf6
 4522 023e B8000000 		.4byte	0xb8
 4523 0242 01       		.byte	0x1
 4524 0243 08       		.uleb128 0x8
 4525 0244 72656400 		.ascii	"red\000"
 4526 0248 07       		.byte	0x7
 4527 0249 F7       		.byte	0xf7
 4528 024a B8000000 		.4byte	0xb8
 4529 024e 02       		.byte	0x2
 4530 024f 07       		.uleb128 0x7
 4531 0250 A3020000 		.4byte	.LASF37
 4532 0254 07       		.byte	0x7
 4533 0255 F8       		.byte	0xf8
 4534 0256 B8000000 		.4byte	0xb8
 4535 025a 03       		.byte	0x3
 4536 025b 00       		.byte	0
 4537 025c 0F       		.uleb128 0xf
 4538 025d 04       		.byte	0x4
 4539 025e 07       		.byte	0x7
 4540 025f F1       		.byte	0xf1
 4541 0260 7A020000 		.4byte	0x27a
 4542 0264 10       		.uleb128 0x10
 4543 0265 636800   		.ascii	"ch\000"
 4544 0268 07       		.byte	0x7
 4545 0269 F9       		.byte	0xf9
 4546 026a 23020000 		.4byte	0x223
 4547 026e 11       		.uleb128 0x11
 4548 026f 95110000 		.4byte	.LASF38
 4549 0273 07       		.byte	0x7
 4550 0274 FA       		.byte	0xfa
 4551 0275 E4000000 		.4byte	0xe4
 4552 0279 00       		.byte	0
 4553 027a 02       		.uleb128 0x2
ARM GAS  C:\Users\tmj32\AppData\Local\Temp\cc0vWRpX.s 			page 103


 4554 027b 58000000 		.4byte	.LASF39
 4555 027f 07       		.byte	0x7
 4556 0280 FB       		.byte	0xfb
 4557 0281 5C020000 		.4byte	0x25c
 4558 0285 12       		.uleb128 0x12
 4559 0286 890F0000 		.4byte	.LASF40
 4560 028a 07       		.byte	0x7
 4561 028b 0801     		.2byte	0x108
 4562 028d 7A020000 		.4byte	0x27a
 4563 0291 12       		.uleb128 0x12
 4564 0292 DC000000 		.4byte	.LASF41
 4565 0296 07       		.byte	0x7
 4566 0297 0D01     		.2byte	0x10d
 4567 0299 B8000000 		.4byte	0xb8
 4568 029d 03       		.uleb128 0x3
 4569 029e 04       		.byte	0x4
 4570 029f 07       		.byte	0x7
 4571 02a0 42000000 		.4byte	.LASF42
 4572 02a4 03       		.uleb128 0x3
 4573 02a5 01       		.byte	0x1
 4574 02a6 08       		.byte	0x8
 4575 02a7 34050000 		.4byte	.LASF43
 4576 02ab 0D       		.uleb128 0xd
 4577 02ac 04       		.byte	0x4
 4578 02ad B1020000 		.4byte	0x2b1
 4579 02b1 0E       		.uleb128 0xe
 4580 02b2 A4020000 		.4byte	0x2a4
 4581 02b6 06       		.uleb128 0x6
 4582 02b7 04       		.byte	0x4
 4583 02b8 02       		.byte	0x2
 4584 02b9 2A       		.byte	0x2a
 4585 02ba D3020000 		.4byte	0x2d3
 4586 02be 08       		.uleb128 0x8
 4587 02bf 7800     		.ascii	"x\000"
 4588 02c1 02       		.byte	0x2
 4589 02c2 2C       		.byte	0x2c
 4590 02c3 EF000000 		.4byte	0xef
 4591 02c7 00       		.byte	0
 4592 02c8 08       		.uleb128 0x8
 4593 02c9 7900     		.ascii	"y\000"
 4594 02cb 02       		.byte	0x2
 4595 02cc 2D       		.byte	0x2d
 4596 02cd EF000000 		.4byte	0xef
 4597 02d1 02       		.byte	0x2
 4598 02d2 00       		.byte	0
 4599 02d3 02       		.uleb128 0x2
 4600 02d4 11010000 		.4byte	.LASF44
 4601 02d8 02       		.byte	0x2
 4602 02d9 2E       		.byte	0x2e
 4603 02da B6020000 		.4byte	0x2b6
 4604 02de 06       		.uleb128 0x6
 4605 02df 08       		.byte	0x8
 4606 02e0 02       		.byte	0x2
 4607 02e1 31       		.byte	0x31
 4608 02e2 13030000 		.4byte	0x313
 4609 02e6 08       		.uleb128 0x8
 4610 02e7 783100   		.ascii	"x1\000"
ARM GAS  C:\Users\tmj32\AppData\Local\Temp\cc0vWRpX.s 			page 104


 4611 02ea 02       		.byte	0x2
 4612 02eb 33       		.byte	0x33
 4613 02ec EF000000 		.4byte	0xef
 4614 02f0 00       		.byte	0
 4615 02f1 08       		.uleb128 0x8
 4616 02f2 793100   		.ascii	"y1\000"
 4617 02f5 02       		.byte	0x2
 4618 02f6 34       		.byte	0x34
 4619 02f7 EF000000 		.4byte	0xef
 4620 02fb 02       		.byte	0x2
 4621 02fc 08       		.uleb128 0x8
 4622 02fd 783200   		.ascii	"x2\000"
 4623 0300 02       		.byte	0x2
 4624 0301 35       		.byte	0x35
 4625 0302 EF000000 		.4byte	0xef
 4626 0306 04       		.byte	0x4
 4627 0307 08       		.uleb128 0x8
 4628 0308 793200   		.ascii	"y2\000"
 4629 030b 02       		.byte	0x2
 4630 030c 36       		.byte	0x36
 4631 030d EF000000 		.4byte	0xef
 4632 0311 06       		.byte	0x6
 4633 0312 00       		.byte	0
 4634 0313 02       		.uleb128 0x2
 4635 0314 DF060000 		.4byte	.LASF45
 4636 0318 02       		.byte	0x2
 4637 0319 37       		.byte	0x37
 4638 031a DE020000 		.4byte	0x2de
 4639 031e 02       		.uleb128 0x2
 4640 031f EE140000 		.4byte	.LASF46
 4641 0323 08       		.byte	0x8
 4642 0324 2C       		.byte	0x2c
 4643 0325 B8000000 		.4byte	0xb8
 4644 0329 02       		.uleb128 0x2
 4645 032a DA110000 		.4byte	.LASF47
 4646 032e 08       		.byte	0x8
 4647 032f 33       		.byte	0x33
 4648 0330 B8000000 		.4byte	0xb8
 4649 0334 06       		.uleb128 0x6
 4650 0335 08       		.byte	0x8
 4651 0336 08       		.byte	0x8
 4652 0337 48       		.byte	0x48
 4653 0338 6D030000 		.4byte	0x36d
 4654 033c 07       		.uleb128 0x7
 4655 033d 9A110000 		.4byte	.LASF48
 4656 0341 08       		.byte	0x8
 4657 0342 4A       		.byte	0x4a
 4658 0343 85020000 		.4byte	0x285
 4659 0347 00       		.byte	0
 4660 0348 07       		.uleb128 0x7
 4661 0349 790A0000 		.4byte	.LASF49
 4662 034d 08       		.byte	0x8
 4663 034e 4B       		.byte	0x4b
 4664 034f EF000000 		.4byte	0xef
 4665 0353 04       		.byte	0x4
 4666 0354 07       		.uleb128 0x7
 4667 0355 9C150000 		.4byte	.LASF50
ARM GAS  C:\Users\tmj32\AppData\Local\Temp\cc0vWRpX.s 			page 105


 4668 0359 08       		.byte	0x8
 4669 035a 4C       		.byte	0x4c
 4670 035b 1E030000 		.4byte	0x31e
 4671 035f 06       		.byte	0x6
 4672 0360 08       		.uleb128 0x8
 4673 0361 6F706100 		.ascii	"opa\000"
 4674 0365 08       		.byte	0x8
 4675 0366 4D       		.byte	0x4d
 4676 0367 91020000 		.4byte	0x291
 4677 036b 07       		.byte	0x7
 4678 036c 00       		.byte	0
 4679 036d 06       		.uleb128 0x6
 4680 036e 08       		.byte	0x8
 4681 036f 08       		.byte	0x8
 4682 0370 51       		.byte	0x51
 4683 0371 9A030000 		.4byte	0x39a
 4684 0375 07       		.uleb128 0x7
 4685 0376 9A110000 		.4byte	.LASF48
 4686 037a 08       		.byte	0x8
 4687 037b 53       		.byte	0x53
 4688 037c 85020000 		.4byte	0x285
 4689 0380 00       		.byte	0
 4690 0381 07       		.uleb128 0x7
 4691 0382 790A0000 		.4byte	.LASF49
 4692 0386 08       		.byte	0x8
 4693 0387 54       		.byte	0x54
 4694 0388 EF000000 		.4byte	0xef
 4695 038c 04       		.byte	0x4
 4696 038d 07       		.uleb128 0x7
 4697 038e FF010000 		.4byte	.LASF51
 4698 0392 08       		.byte	0x8
 4699 0393 55       		.byte	0x55
 4700 0394 29030000 		.4byte	0x329
 4701 0398 06       		.byte	0x6
 4702 0399 00       		.byte	0
 4703 039a 06       		.uleb128 0x6
 4704 039b 0A       		.byte	0xa
 4705 039c 08       		.byte	0x8
 4706 039d 58       		.byte	0x58
 4707 039e DF030000 		.4byte	0x3df
 4708 03a2 08       		.uleb128 0x8
 4709 03a3 746F7000 		.ascii	"top\000"
 4710 03a7 08       		.byte	0x8
 4711 03a8 5A       		.byte	0x5a
 4712 03a9 EF000000 		.4byte	0xef
 4713 03ad 00       		.byte	0
 4714 03ae 07       		.uleb128 0x7
 4715 03af 910A0000 		.4byte	.LASF52
 4716 03b3 08       		.byte	0x8
 4717 03b4 5B       		.byte	0x5b
 4718 03b5 EF000000 		.4byte	0xef
 4719 03b9 02       		.byte	0x2
 4720 03ba 07       		.uleb128 0x7
 4721 03bb 25070000 		.4byte	.LASF53
 4722 03bf 08       		.byte	0x8
 4723 03c0 5C       		.byte	0x5c
 4724 03c1 EF000000 		.4byte	0xef
ARM GAS  C:\Users\tmj32\AppData\Local\Temp\cc0vWRpX.s 			page 106


 4725 03c5 04       		.byte	0x4
 4726 03c6 07       		.uleb128 0x7
 4727 03c7 8E090000 		.4byte	.LASF54
 4728 03cb 08       		.byte	0x8
 4729 03cc 5D       		.byte	0x5d
 4730 03cd EF000000 		.4byte	0xef
 4731 03d1 06       		.byte	0x6
 4732 03d2 07       		.uleb128 0x7
 4733 03d3 0D080000 		.4byte	.LASF55
 4734 03d7 08       		.byte	0x8
 4735 03d8 5E       		.byte	0x5e
 4736 03d9 EF000000 		.4byte	0xef
 4737 03dd 08       		.byte	0x8
 4738 03de 00       		.byte	0
 4739 03df 06       		.uleb128 0x6
 4740 03e0 28       		.byte	0x28
 4741 03e1 08       		.byte	0x8
 4742 03e2 41       		.byte	0x41
 4743 03e3 3C040000 		.4byte	0x43c
 4744 03e7 07       		.uleb128 0x7
 4745 03e8 560E0000 		.4byte	.LASF56
 4746 03ec 08       		.byte	0x8
 4747 03ed 43       		.byte	0x43
 4748 03ee 85020000 		.4byte	0x285
 4749 03f2 00       		.byte	0
 4750 03f3 07       		.uleb128 0x7
 4751 03f4 300C0000 		.4byte	.LASF57
 4752 03f8 08       		.byte	0x8
 4753 03f9 44       		.byte	0x44
 4754 03fa 85020000 		.4byte	0x285
 4755 03fe 04       		.byte	0x4
 4756 03ff 07       		.uleb128 0x7
 4757 0400 38010000 		.4byte	.LASF58
 4758 0404 08       		.byte	0x8
 4759 0405 45       		.byte	0x45
 4760 0406 EF000000 		.4byte	0xef
 4761 040a 08       		.byte	0x8
 4762 040b 08       		.uleb128 0x8
 4763 040c 6F706100 		.ascii	"opa\000"
 4764 0410 08       		.byte	0x8
 4765 0411 46       		.byte	0x46
 4766 0412 91020000 		.4byte	0x291
 4767 0416 0A       		.byte	0xa
 4768 0417 07       		.uleb128 0x7
 4769 0418 C9140000 		.4byte	.LASF59
 4770 041c 08       		.byte	0x8
 4771 041d 4E       		.byte	0x4e
 4772 041e 34030000 		.4byte	0x334
 4773 0422 0C       		.byte	0xc
 4774 0423 07       		.uleb128 0x7
 4775 0424 2F130000 		.4byte	.LASF60
 4776 0428 08       		.byte	0x8
 4777 0429 56       		.byte	0x56
 4778 042a 6D030000 		.4byte	0x36d
 4779 042e 14       		.byte	0x14
 4780 042f 07       		.uleb128 0x7
 4781 0430 DE130000 		.4byte	.LASF61
ARM GAS  C:\Users\tmj32\AppData\Local\Temp\cc0vWRpX.s 			page 107


 4782 0434 08       		.byte	0x8
 4783 0435 5F       		.byte	0x5f
 4784 0436 9A030000 		.4byte	0x39a
 4785 043a 1C       		.byte	0x1c
 4786 043b 00       		.byte	0
 4787 043c 06       		.uleb128 0x6
 4788 043d 14       		.byte	0x14
 4789 043e 08       		.byte	0x8
 4790 043f 63       		.byte	0x63
 4791 0440 8D040000 		.4byte	0x48d
 4792 0444 07       		.uleb128 0x7
 4793 0445 9A110000 		.4byte	.LASF48
 4794 0449 08       		.byte	0x8
 4795 044a 65       		.byte	0x65
 4796 044b 85020000 		.4byte	0x285
 4797 044f 00       		.byte	0
 4798 0450 07       		.uleb128 0x7
 4799 0451 5F150000 		.4byte	.LASF62
 4800 0455 08       		.byte	0x8
 4801 0456 66       		.byte	0x66
 4802 0457 85020000 		.4byte	0x285
 4803 045b 04       		.byte	0x4
 4804 045c 07       		.uleb128 0x7
 4805 045d 0A120000 		.4byte	.LASF63
 4806 0461 08       		.byte	0x8
 4807 0462 67       		.byte	0x67
 4808 0463 8D040000 		.4byte	0x48d
 4809 0467 08       		.byte	0x8
 4810 0468 07       		.uleb128 0x7
 4811 0469 0F120000 		.4byte	.LASF64
 4812 046d 08       		.byte	0x8
 4813 046e 68       		.byte	0x68
 4814 046f EF000000 		.4byte	0xef
 4815 0473 0C       		.byte	0xc
 4816 0474 07       		.uleb128 0x7
 4817 0475 BB110000 		.4byte	.LASF65
 4818 0479 08       		.byte	0x8
 4819 047a 69       		.byte	0x69
 4820 047b EF000000 		.4byte	0xef
 4821 047f 0E       		.byte	0xe
 4822 0480 08       		.uleb128 0x8
 4823 0481 6F706100 		.ascii	"opa\000"
 4824 0485 08       		.byte	0x8
 4825 0486 6A       		.byte	0x6a
 4826 0487 91020000 		.4byte	0x291
 4827 048b 10       		.byte	0x10
 4828 048c 00       		.byte	0
 4829 048d 0D       		.uleb128 0xd
 4830 048e 04       		.byte	0x4
 4831 048f 93040000 		.4byte	0x493
 4832 0493 0E       		.uleb128 0xe
 4833 0494 18020000 		.4byte	0x218
 4834 0498 06       		.uleb128 0x6
 4835 0499 08       		.byte	0x8
 4836 049a 08       		.byte	0x8
 4837 049b 6E       		.byte	0x6e
 4838 049c C5040000 		.4byte	0x4c5
ARM GAS  C:\Users\tmj32\AppData\Local\Temp\cc0vWRpX.s 			page 108


 4839 04a0 07       		.uleb128 0x7
 4840 04a1 9A110000 		.4byte	.LASF48
 4841 04a5 08       		.byte	0x8
 4842 04a6 70       		.byte	0x70
 4843 04a7 85020000 		.4byte	0x285
 4844 04ab 00       		.byte	0
 4845 04ac 07       		.uleb128 0x7
 4846 04ad ED000000 		.4byte	.LASF66
 4847 04b1 08       		.byte	0x8
 4848 04b2 71       		.byte	0x71
 4849 04b3 91020000 		.4byte	0x291
 4850 04b7 04       		.byte	0x4
 4851 04b8 08       		.uleb128 0x8
 4852 04b9 6F706100 		.ascii	"opa\000"
 4853 04bd 08       		.byte	0x8
 4854 04be 72       		.byte	0x72
 4855 04bf 91020000 		.4byte	0x291
 4856 04c3 05       		.byte	0x5
 4857 04c4 00       		.byte	0
 4858 04c5 06       		.uleb128 0x6
 4859 04c6 08       		.byte	0x8
 4860 04c7 08       		.byte	0x8
 4861 04c8 76       		.byte	0x76
 4862 04c9 01050000 		.4byte	0x501
 4863 04cd 07       		.uleb128 0x7
 4864 04ce 9A110000 		.4byte	.LASF48
 4865 04d2 08       		.byte	0x8
 4866 04d3 78       		.byte	0x78
 4867 04d4 85020000 		.4byte	0x285
 4868 04d8 00       		.byte	0
 4869 04d9 07       		.uleb128 0x7
 4870 04da 790A0000 		.4byte	.LASF49
 4871 04de 08       		.byte	0x8
 4872 04df 79       		.byte	0x79
 4873 04e0 EF000000 		.4byte	0xef
 4874 04e4 04       		.byte	0x4
 4875 04e5 08       		.uleb128 0x8
 4876 04e6 6F706100 		.ascii	"opa\000"
 4877 04ea 08       		.byte	0x8
 4878 04eb 7A       		.byte	0x7a
 4879 04ec 91020000 		.4byte	0x291
 4880 04f0 06       		.byte	0x6
 4881 04f1 0A       		.uleb128 0xa
 4882 04f2 7F060000 		.4byte	.LASF68
 4883 04f6 08       		.byte	0x8
 4884 04f7 7B       		.byte	0x7b
 4885 04f8 B8000000 		.4byte	0xb8
 4886 04fc 01       		.byte	0x1
 4887 04fd 01       		.byte	0x1
 4888 04fe 07       		.byte	0x7
 4889 04ff 07       		.byte	0x7
 4890 0500 00       		.byte	0
 4891 0501 06       		.uleb128 0x6
 4892 0502 50       		.byte	0x50
 4893 0503 08       		.byte	0x8
 4894 0504 3C       		.byte	0x3c
 4895 0505 49050000 		.4byte	0x549
ARM GAS  C:\Users\tmj32\AppData\Local\Temp\cc0vWRpX.s 			page 109


 4896 0509 0A       		.uleb128 0xa
 4897 050a 1A0B0000 		.4byte	.LASF69
 4898 050e 08       		.byte	0x8
 4899 050f 3E       		.byte	0x3e
 4900 0510 B8000000 		.4byte	0xb8
 4901 0514 01       		.byte	0x1
 4902 0515 01       		.byte	0x1
 4903 0516 07       		.byte	0x7
 4904 0517 00       		.byte	0
 4905 0518 07       		.uleb128 0x7
 4906 0519 61050000 		.4byte	.LASF70
 4907 051d 08       		.byte	0x8
 4908 051e 60       		.byte	0x60
 4909 051f DF030000 		.4byte	0x3df
 4910 0523 04       		.byte	0x4
 4911 0524 07       		.uleb128 0x7
 4912 0525 37060000 		.4byte	.LASF71
 4913 0529 08       		.byte	0x8
 4914 052a 6B       		.byte	0x6b
 4915 052b 3C040000 		.4byte	0x43c
 4916 052f 2C       		.byte	0x2c
 4917 0530 07       		.uleb128 0x7
 4918 0531 6E060000 		.4byte	.LASF72
 4919 0535 08       		.byte	0x8
 4920 0536 73       		.byte	0x73
 4921 0537 98040000 		.4byte	0x498
 4922 053b 40       		.byte	0x40
 4923 053c 07       		.uleb128 0x7
 4924 053d 86080000 		.4byte	.LASF73
 4925 0541 08       		.byte	0x8
 4926 0542 7C       		.byte	0x7c
 4927 0543 C5040000 		.4byte	0x4c5
 4928 0547 48       		.byte	0x48
 4929 0548 00       		.byte	0
 4930 0549 02       		.uleb128 0x2
 4931 054a 02080000 		.4byte	.LASF74
 4932 054e 08       		.byte	0x8
 4933 054f 84       		.byte	0x84
 4934 0550 01050000 		.4byte	0x501
 4935 0554 0D       		.uleb128 0xd
 4936 0555 04       		.byte	0x4
 4937 0556 49050000 		.4byte	0x549
 4938 055a 13       		.uleb128 0x13
 4939 055b 01       		.byte	0x1
 4940 055c 42000000 		.4byte	0x42
 4941 0560 09       		.byte	0x9
 4942 0561 27       		.byte	0x27
 4943 0562 73050000 		.4byte	0x573
 4944 0566 14       		.uleb128 0x14
 4945 0567 E2010000 		.4byte	.LASF75
 4946 056b 00       		.byte	0
 4947 056c 14       		.uleb128 0x14
 4948 056d 5D0F0000 		.4byte	.LASF76
 4949 0571 01       		.byte	0x1
 4950 0572 00       		.byte	0
 4951 0573 02       		.uleb128 0x2
 4952 0574 260D0000 		.4byte	.LASF77
ARM GAS  C:\Users\tmj32\AppData\Local\Temp\cc0vWRpX.s 			page 110


 4953 0578 09       		.byte	0x9
 4954 0579 2C       		.byte	0x2c
 4955 057a B8000000 		.4byte	0xb8
 4956 057e 02       		.uleb128 0x2
 4957 057f 25000000 		.4byte	.LASF78
 4958 0583 0A       		.byte	0xa
 4959 0584 1E       		.byte	0x1e
 4960 0585 B8000000 		.4byte	0xb8
 4961 0589 06       		.uleb128 0x6
 4962 058a 0C       		.byte	0xc
 4963 058b 0A       		.byte	0xa
 4964 058c 21       		.byte	0x21
 4965 058d B6050000 		.4byte	0x5b6
 4966 0591 07       		.uleb128 0x7
 4967 0592 A1150000 		.4byte	.LASF79
 4968 0596 0A       		.byte	0xa
 4969 0597 23       		.byte	0x23
 4970 0598 E4000000 		.4byte	0xe4
 4971 059c 00       		.byte	0
 4972 059d 07       		.uleb128 0x7
 4973 059e 5E030000 		.4byte	.LASF80
 4974 05a2 0A       		.byte	0xa
 4975 05a3 24       		.byte	0x24
 4976 05a4 B6050000 		.4byte	0x5b6
 4977 05a8 04       		.byte	0x4
 4978 05a9 07       		.uleb128 0x7
 4979 05aa 95000000 		.4byte	.LASF81
 4980 05ae 0A       		.byte	0xa
 4981 05af 25       		.byte	0x25
 4982 05b0 B6050000 		.4byte	0x5b6
 4983 05b4 08       		.byte	0x8
 4984 05b5 00       		.byte	0
 4985 05b6 0D       		.uleb128 0xd
 4986 05b7 04       		.byte	0x4
 4987 05b8 7E050000 		.4byte	0x57e
 4988 05bc 02       		.uleb128 0x2
 4989 05bd A1120000 		.4byte	.LASF82
 4990 05c1 0A       		.byte	0xa
 4991 05c2 26       		.byte	0x26
 4992 05c3 89050000 		.4byte	0x589
 4993 05c7 02       		.uleb128 0x2
 4994 05c8 B0060000 		.4byte	.LASF83
 4995 05cc 0B       		.byte	0xb
 4996 05cd 30       		.byte	0x30
 4997 05ce B8000000 		.4byte	0xb8
 4998 05d2 02       		.uleb128 0x2
 4999 05d3 69150000 		.4byte	.LASF84
 5000 05d7 0C       		.byte	0xc
 5001 05d8 2B       		.byte	0x2b
 5002 05d9 DD050000 		.4byte	0x5dd
 5003 05dd 0D       		.uleb128 0xd
 5004 05de 04       		.byte	0x4
 5005 05df E3050000 		.4byte	0x5e3
 5006 05e3 15       		.uleb128 0x15
 5007 05e4 EE050000 		.4byte	0x5ee
 5008 05e8 0C       		.uleb128 0xc
 5009 05e9 EE050000 		.4byte	0x5ee
ARM GAS  C:\Users\tmj32\AppData\Local\Temp\cc0vWRpX.s 			page 111


 5010 05ed 00       		.byte	0
 5011 05ee 0D       		.uleb128 0xd
 5012 05ef 04       		.byte	0x4
 5013 05f0 F4050000 		.4byte	0x5f4
 5014 05f4 09       		.uleb128 0x9
 5015 05f5 85050000 		.4byte	.LASF86
 5016 05f9 14       		.byte	0x14
 5017 05fa 0C       		.byte	0xc
 5018 05fb 3E       		.byte	0x3e
 5019 05fc 4F060000 		.4byte	0x64f
 5020 0600 07       		.uleb128 0x7
 5021 0601 EF100000 		.4byte	.LASF87
 5022 0605 0C       		.byte	0xc
 5023 0606 40       		.byte	0x40
 5024 0607 E4000000 		.4byte	0xe4
 5025 060b 00       		.byte	0
 5026 060c 07       		.uleb128 0x7
 5027 060d 720F0000 		.4byte	.LASF88
 5028 0611 0C       		.byte	0xc
 5029 0612 41       		.byte	0x41
 5030 0613 E4000000 		.4byte	0xe4
 5031 0617 04       		.byte	0x4
 5032 0618 07       		.uleb128 0x7
 5033 0619 D5040000 		.4byte	.LASF89
 5034 061d 0C       		.byte	0xc
 5035 061e 42       		.byte	0x42
 5036 061f D2050000 		.4byte	0x5d2
 5037 0623 08       		.byte	0x8
 5038 0624 07       		.uleb128 0x7
 5039 0625 93140000 		.4byte	.LASF90
 5040 0629 0C       		.byte	0xc
 5041 062a 44       		.byte	0x44
 5042 062b FA000000 		.4byte	0xfa
 5043 062f 0C       		.byte	0xc
 5044 0630 0A       		.uleb128 0xa
 5045 0631 87020000 		.4byte	.LASF91
 5046 0635 0C       		.byte	0xc
 5047 0636 46       		.byte	0x46
 5048 0637 B8000000 		.4byte	0xb8
 5049 063b 01       		.byte	0x1
 5050 063c 03       		.byte	0x3
 5051 063d 05       		.byte	0x5
 5052 063e 10       		.byte	0x10
 5053 063f 0A       		.uleb128 0xa
 5054 0640 EC0B0000 		.4byte	.LASF92
 5055 0644 0C       		.byte	0xc
 5056 0645 47       		.byte	0x47
 5057 0646 B8000000 		.4byte	0xb8
 5058 064a 01       		.byte	0x1
 5059 064b 01       		.byte	0x1
 5060 064c 04       		.byte	0x4
 5061 064d 10       		.byte	0x10
 5062 064e 00       		.byte	0
 5063 064f 02       		.uleb128 0x2
 5064 0650 C20F0000 		.4byte	.LASF93
 5065 0654 0C       		.byte	0xc
 5066 0655 48       		.byte	0x48
ARM GAS  C:\Users\tmj32\AppData\Local\Temp\cc0vWRpX.s 			page 112


 5067 0656 F4050000 		.4byte	0x5f4
 5068 065a 06       		.uleb128 0x6
 5069 065b 1C       		.byte	0x1c
 5070 065c 0D       		.byte	0xd
 5071 065d 2F       		.byte	0x2f
 5072 065e AE060000 		.4byte	0x6ae
 5073 0662 07       		.uleb128 0x7
 5074 0663 AF0A0000 		.4byte	.LASF94
 5075 0667 0D       		.byte	0xd
 5076 0668 31       		.byte	0x31
 5077 0669 FA000000 		.4byte	0xfa
 5078 066d 00       		.byte	0
 5079 066e 07       		.uleb128 0x7
 5080 066f B40A0000 		.4byte	.LASF95
 5081 0673 0D       		.byte	0xd
 5082 0674 32       		.byte	0x32
 5083 0675 FA000000 		.4byte	0xfa
 5084 0679 04       		.byte	0x4
 5085 067a 07       		.uleb128 0x7
 5086 067b 2F0D0000 		.4byte	.LASF96
 5087 067f 0D       		.byte	0xd
 5088 0680 35       		.byte	0x35
 5089 0681 FA000000 		.4byte	0xfa
 5090 0685 08       		.byte	0x8
 5091 0686 07       		.uleb128 0x7
 5092 0687 B50E0000 		.4byte	.LASF97
 5093 068b 0D       		.byte	0xd
 5094 068c 36       		.byte	0x36
 5095 068d E4000000 		.4byte	0xe4
 5096 0691 0C       		.byte	0xc
 5097 0692 07       		.uleb128 0x7
 5098 0693 E2070000 		.4byte	.LASF98
 5099 0697 0D       		.byte	0xd
 5100 0698 37       		.byte	0x37
 5101 0699 13030000 		.4byte	0x313
 5102 069d 10       		.byte	0x10
 5103 069e 0A       		.uleb128 0xa
 5104 069f F5050000 		.4byte	.LASF99
 5105 06a3 0D       		.byte	0xd
 5106 06a4 38       		.byte	0x38
 5107 06a5 AE060000 		.4byte	0x6ae
 5108 06a9 04       		.byte	0x4
 5109 06aa 01       		.byte	0x1
 5110 06ab 1F       		.byte	0x1f
 5111 06ac 18       		.byte	0x18
 5112 06ad 00       		.byte	0
 5113 06ae 16       		.uleb128 0x16
 5114 06af E4000000 		.4byte	0xe4
 5115 06b3 02       		.uleb128 0x2
 5116 06b4 6C090000 		.4byte	.LASF100
 5117 06b8 0D       		.byte	0xd
 5118 06b9 39       		.byte	0x39
 5119 06ba 5A060000 		.4byte	0x65a
 5120 06be 09       		.uleb128 0x9
 5121 06bf FA080000 		.4byte	.LASF101
 5122 06c3 20       		.byte	0x20
 5123 06c4 0D       		.byte	0xd
ARM GAS  C:\Users\tmj32\AppData\Local\Temp\cc0vWRpX.s 			page 113


 5124 06c5 3E       		.byte	0x3e
 5125 06c6 3A070000 		.4byte	0x73a
 5126 06ca 07       		.uleb128 0x7
 5127 06cb EF030000 		.4byte	.LASF102
 5128 06cf 0D       		.byte	0xd
 5129 06d0 41       		.byte	0x41
 5130 06d1 EF000000 		.4byte	0xef
 5131 06d5 00       		.byte	0
 5132 06d6 07       		.uleb128 0x7
 5133 06d7 A9020000 		.4byte	.LASF103
 5134 06db 0D       		.byte	0xd
 5135 06dc 42       		.byte	0x42
 5136 06dd EF000000 		.4byte	0xef
 5137 06e1 02       		.byte	0x2
 5138 06e2 07       		.uleb128 0x7
 5139 06e3 E9060000 		.4byte	.LASF104
 5140 06e7 0D       		.byte	0xd
 5141 06e8 46       		.byte	0x46
 5142 06e9 3A070000 		.4byte	0x73a
 5143 06ed 04       		.byte	0x4
 5144 06ee 0A       		.uleb128 0xa
 5145 06ef EA020000 		.4byte	.LASF105
 5146 06f3 0D       		.byte	0xd
 5147 06f4 4B       		.byte	0x4b
 5148 06f5 E4000000 		.4byte	0xe4
 5149 06f9 04       		.byte	0x4
 5150 06fa 01       		.byte	0x1
 5151 06fb 1F       		.byte	0x1f
 5152 06fc 08       		.byte	0x8
 5153 06fd 07       		.uleb128 0x7
 5154 06fe 8A140000 		.4byte	.LASF106
 5155 0702 0D       		.byte	0xd
 5156 0703 55       		.byte	0x55
 5157 0704 6C070000 		.4byte	0x76c
 5158 0708 0C       		.byte	0xc
 5159 0709 07       		.uleb128 0x7
 5160 070a F6100000 		.4byte	.LASF107
 5161 070e 0D       		.byte	0xd
 5162 070f 59       		.byte	0x59
 5163 0710 88070000 		.4byte	0x788
 5164 0714 10       		.byte	0x10
 5165 0715 07       		.uleb128 0x7
 5166 0716 D1030000 		.4byte	.LASF108
 5167 071a 0D       		.byte	0xd
 5168 071b 5E       		.byte	0x5e
 5169 071c BD070000 		.4byte	0x7bd
 5170 0720 14       		.byte	0x14
 5171 0721 07       		.uleb128 0x7
 5172 0722 35140000 		.4byte	.LASF109
 5173 0726 0D       		.byte	0xd
 5174 0727 63       		.byte	0x63
 5175 0728 D8070000 		.4byte	0x7d8
 5176 072c 18       		.byte	0x18
 5177 072d 07       		.uleb128 0x7
 5178 072e 14000000 		.4byte	.LASF110
 5179 0732 0D       		.byte	0xd
 5180 0733 71       		.byte	0x71
ARM GAS  C:\Users\tmj32\AppData\Local\Temp\cc0vWRpX.s 			page 114


 5181 0734 85020000 		.4byte	0x285
 5182 0738 1C       		.byte	0x1c
 5183 0739 00       		.byte	0
 5184 073a 0D       		.uleb128 0xd
 5185 073b 04       		.byte	0x4
 5186 073c B3060000 		.4byte	0x6b3
 5187 0740 15       		.uleb128 0x15
 5188 0741 55070000 		.4byte	0x755
 5189 0745 0C       		.uleb128 0xc
 5190 0746 55070000 		.4byte	0x755
 5191 074a 0C       		.uleb128 0xc
 5192 074b 5B070000 		.4byte	0x75b
 5193 074f 0C       		.uleb128 0xc
 5194 0750 66070000 		.4byte	0x766
 5195 0754 00       		.byte	0
 5196 0755 0D       		.uleb128 0xd
 5197 0756 04       		.byte	0x4
 5198 0757 BE060000 		.4byte	0x6be
 5199 075b 0D       		.uleb128 0xd
 5200 075c 04       		.byte	0x4
 5201 075d 61070000 		.4byte	0x761
 5202 0761 0E       		.uleb128 0xe
 5203 0762 13030000 		.4byte	0x313
 5204 0766 0D       		.uleb128 0xd
 5205 0767 04       		.byte	0x4
 5206 0768 85020000 		.4byte	0x285
 5207 076c 0D       		.uleb128 0xd
 5208 076d 04       		.byte	0x4
 5209 076e 40070000 		.4byte	0x740
 5210 0772 15       		.uleb128 0x15
 5211 0773 82070000 		.4byte	0x782
 5212 0777 0C       		.uleb128 0xc
 5213 0778 55070000 		.4byte	0x755
 5214 077c 0C       		.uleb128 0xc
 5215 077d 82070000 		.4byte	0x782
 5216 0781 00       		.byte	0
 5217 0782 0D       		.uleb128 0xd
 5218 0783 04       		.byte	0x4
 5219 0784 13030000 		.4byte	0x313
 5220 0788 0D       		.uleb128 0xd
 5221 0789 04       		.byte	0x4
 5222 078a 72070000 		.4byte	0x772
 5223 078e 15       		.uleb128 0x15
 5224 078f B7070000 		.4byte	0x7b7
 5225 0793 0C       		.uleb128 0xc
 5226 0794 55070000 		.4byte	0x755
 5227 0798 0C       		.uleb128 0xc
 5228 0799 B7070000 		.4byte	0x7b7
 5229 079d 0C       		.uleb128 0xc
 5230 079e EF000000 		.4byte	0xef
 5231 07a2 0C       		.uleb128 0xc
 5232 07a3 EF000000 		.4byte	0xef
 5233 07a7 0C       		.uleb128 0xc
 5234 07a8 EF000000 		.4byte	0xef
 5235 07ac 0C       		.uleb128 0xc
 5236 07ad 85020000 		.4byte	0x285
 5237 07b1 0C       		.uleb128 0xc
ARM GAS  C:\Users\tmj32\AppData\Local\Temp\cc0vWRpX.s 			page 115


 5238 07b2 91020000 		.4byte	0x291
 5239 07b6 00       		.byte	0
 5240 07b7 0D       		.uleb128 0xd
 5241 07b8 04       		.byte	0x4
 5242 07b9 B8000000 		.4byte	0xb8
 5243 07bd 0D       		.uleb128 0xd
 5244 07be 04       		.byte	0x4
 5245 07bf 8E070000 		.4byte	0x78e
 5246 07c3 15       		.uleb128 0x15
 5247 07c4 D8070000 		.4byte	0x7d8
 5248 07c8 0C       		.uleb128 0xc
 5249 07c9 55070000 		.4byte	0x755
 5250 07cd 0C       		.uleb128 0xc
 5251 07ce E4000000 		.4byte	0xe4
 5252 07d2 0C       		.uleb128 0xc
 5253 07d3 E4000000 		.4byte	0xe4
 5254 07d7 00       		.byte	0
 5255 07d8 0D       		.uleb128 0xd
 5256 07d9 04       		.byte	0x4
 5257 07da C3070000 		.4byte	0x7c3
 5258 07de 02       		.uleb128 0x2
 5259 07df B8130000 		.4byte	.LASF111
 5260 07e3 0D       		.byte	0xd
 5261 07e4 77       		.byte	0x77
 5262 07e5 BE060000 		.4byte	0x6be
 5263 07e9 17       		.uleb128 0x17
 5264 07ea 600C0000 		.4byte	.LASF112
 5265 07ee 6401     		.2byte	0x164
 5266 07f0 0D       		.byte	0xd
 5267 07f1 7F       		.byte	0x7f
 5268 07f2 75080000 		.4byte	0x875
 5269 07f6 07       		.uleb128 0x7
 5270 07f7 1C120000 		.4byte	.LASF113
 5271 07fb 0D       		.byte	0xd
 5272 07fc 82       		.byte	0x82
 5273 07fd DE070000 		.4byte	0x7de
 5274 0801 00       		.byte	0
 5275 0802 07       		.uleb128 0x7
 5276 0803 E0020000 		.4byte	.LASF114
 5277 0807 0D       		.byte	0xd
 5278 0808 85       		.byte	0x85
 5279 0809 75080000 		.4byte	0x875
 5280 080d 20       		.byte	0x20
 5281 080e 07       		.uleb128 0x7
 5282 080f 8C020000 		.4byte	.LASF115
 5283 0813 0D       		.byte	0xd
 5284 0814 88       		.byte	0x88
 5285 0815 BC050000 		.4byte	0x5bc
 5286 0819 24       		.byte	0x24
 5287 081a 07       		.uleb128 0x7
 5288 081b D4000000 		.4byte	.LASF116
 5289 081f 0D       		.byte	0xd
 5290 0820 89       		.byte	0x89
 5291 0821 BD090000 		.4byte	0x9bd
 5292 0825 30       		.byte	0x30
 5293 0826 07       		.uleb128 0x7
 5294 0827 94040000 		.4byte	.LASF117
ARM GAS  C:\Users\tmj32\AppData\Local\Temp\cc0vWRpX.s 			page 116


 5295 082b 0D       		.byte	0xd
 5296 082c 8A       		.byte	0x8a
 5297 082d BD090000 		.4byte	0x9bd
 5298 0831 34       		.byte	0x34
 5299 0832 07       		.uleb128 0x7
 5300 0833 06130000 		.4byte	.LASF118
 5301 0837 0D       		.byte	0xd
 5302 0838 8B       		.byte	0x8b
 5303 0839 BD090000 		.4byte	0x9bd
 5304 083d 38       		.byte	0x38
 5305 083e 07       		.uleb128 0x7
 5306 083f D50B0000 		.4byte	.LASF119
 5307 0843 0D       		.byte	0xd
 5308 0844 8E       		.byte	0x8e
 5309 0845 C3090000 		.4byte	0x9c3
 5310 0849 3C       		.byte	0x3c
 5311 084a 18       		.uleb128 0x18
 5312 084b 24050000 		.4byte	.LASF120
 5313 084f 0D       		.byte	0xd
 5314 0850 8F       		.byte	0x8f
 5315 0851 D3090000 		.4byte	0x9d3
 5316 0855 3C01     		.2byte	0x13c
 5317 0857 19       		.uleb128 0x19
 5318 0858 9B120000 		.4byte	.LASF121
 5319 085c 0D       		.byte	0xd
 5320 085d 90       		.byte	0x90
 5321 085e E4000000 		.4byte	0xe4
 5322 0862 04       		.byte	0x4
 5323 0863 0A       		.byte	0xa
 5324 0864 16       		.byte	0x16
 5325 0865 5C01     		.2byte	0x15c
 5326 0867 18       		.uleb128 0x18
 5327 0868 C4020000 		.4byte	.LASF122
 5328 086c 0D       		.byte	0xd
 5329 086d 93       		.byte	0x93
 5330 086e E4000000 		.4byte	0xe4
 5331 0872 6001     		.2byte	0x160
 5332 0874 00       		.byte	0
 5333 0875 0D       		.uleb128 0xd
 5334 0876 04       		.byte	0x4
 5335 0877 4F060000 		.4byte	0x64f
 5336 087b 09       		.uleb128 0x9
 5337 087c 00120000 		.4byte	.LASF123
 5338 0880 40       		.byte	0x40
 5339 0881 0E       		.byte	0xe
 5340 0882 BB       		.byte	0xbb
 5341 0883 BD090000 		.4byte	0x9bd
 5342 0887 08       		.uleb128 0x8
 5343 0888 70617200 		.ascii	"par\000"
 5344 088c 0E       		.byte	0xe
 5345 088d BD       		.byte	0xbd
 5346 088e BD090000 		.4byte	0x9bd
 5347 0892 00       		.byte	0
 5348 0893 07       		.uleb128 0x7
 5349 0894 980A0000 		.4byte	.LASF124
 5350 0898 0E       		.byte	0xe
 5351 0899 BE       		.byte	0xbe
ARM GAS  C:\Users\tmj32\AppData\Local\Temp\cc0vWRpX.s 			page 117


 5352 089a BC050000 		.4byte	0x5bc
 5353 089e 04       		.byte	0x4
 5354 089f 07       		.uleb128 0x7
 5355 08a0 F9120000 		.4byte	.LASF125
 5356 08a4 0E       		.byte	0xe
 5357 08a5 C0       		.byte	0xc0
 5358 08a6 13030000 		.4byte	0x313
 5359 08aa 10       		.byte	0x10
 5360 08ab 07       		.uleb128 0x7
 5361 08ac 85090000 		.4byte	.LASF126
 5362 08b0 0E       		.byte	0xe
 5363 08b1 C2       		.byte	0xc2
 5364 08b2 A80D0000 		.4byte	0xda8
 5365 08b6 18       		.byte	0x18
 5366 08b7 07       		.uleb128 0x7
 5367 08b8 FA130000 		.4byte	.LASF127
 5368 08bc 0E       		.byte	0xe
 5369 08bd C3       		.byte	0xc3
 5370 08be 590E0000 		.4byte	0xe59
 5371 08c2 1C       		.byte	0x1c
 5372 08c3 07       		.uleb128 0x7
 5373 08c4 C5050000 		.4byte	.LASF128
 5374 08c8 0E       		.byte	0xe
 5375 08c9 C4       		.byte	0xc4
 5376 08ca EE0C0000 		.4byte	0xcee
 5377 08ce 20       		.byte	0x20
 5378 08cf 07       		.uleb128 0x7
 5379 08d0 5C0D0000 		.4byte	.LASF129
 5380 08d4 0E       		.byte	0xe
 5381 08d5 C6       		.byte	0xc6
 5382 08d6 FA000000 		.4byte	0xfa
 5383 08da 24       		.byte	0x24
 5384 08db 07       		.uleb128 0x7
 5385 08dc 94090000 		.4byte	.LASF130
 5386 08e0 0E       		.byte	0xe
 5387 08e1 C7       		.byte	0xc7
 5388 08e2 060F0000 		.4byte	0xf06
 5389 08e6 28       		.byte	0x28
 5390 08e7 0A       		.uleb128 0xa
 5391 08e8 61010000 		.4byte	.LASF131
 5392 08ec 0E       		.byte	0xe
 5393 08ed D7       		.byte	0xd7
 5394 08ee B8000000 		.4byte	0xb8
 5395 08f2 01       		.byte	0x1
 5396 08f3 01       		.byte	0x1
 5397 08f4 07       		.byte	0x7
 5398 08f5 2C       		.byte	0x2c
 5399 08f6 0A       		.uleb128 0xa
 5400 08f7 EB110000 		.4byte	.LASF132
 5401 08fb 0E       		.byte	0xe
 5402 08fc D8       		.byte	0xd8
 5403 08fd B8000000 		.4byte	0xb8
 5404 0901 01       		.byte	0x1
 5405 0902 01       		.byte	0x1
 5406 0903 06       		.byte	0x6
 5407 0904 2C       		.byte	0x2c
 5408 0905 0A       		.uleb128 0xa
ARM GAS  C:\Users\tmj32\AppData\Local\Temp\cc0vWRpX.s 			page 118


 5409 0906 87060000 		.4byte	.LASF133
 5410 090a 0E       		.byte	0xe
 5411 090b D9       		.byte	0xd9
 5412 090c B8000000 		.4byte	0xb8
 5413 0910 01       		.byte	0x1
 5414 0911 01       		.byte	0x1
 5415 0912 05       		.byte	0x5
 5416 0913 2C       		.byte	0x2c
 5417 0914 0A       		.uleb128 0xa
 5418 0915 7B130000 		.4byte	.LASF134
 5419 0919 0E       		.byte	0xe
 5420 091a DA       		.byte	0xda
 5421 091b B8000000 		.4byte	0xb8
 5422 091f 01       		.byte	0x1
 5423 0920 01       		.byte	0x1
 5424 0921 04       		.byte	0x4
 5425 0922 2C       		.byte	0x2c
 5426 0923 0A       		.uleb128 0xa
 5427 0924 BD020000 		.4byte	.LASF135
 5428 0928 0E       		.byte	0xe
 5429 0929 DB       		.byte	0xdb
 5430 092a B8000000 		.4byte	0xb8
 5431 092e 01       		.byte	0x1
 5432 092f 01       		.byte	0x1
 5433 0930 03       		.byte	0x3
 5434 0931 2C       		.byte	0x2c
 5435 0932 1A       		.uleb128 0x1a
 5436 0933 746F7000 		.ascii	"top\000"
 5437 0937 0E       		.byte	0xe
 5438 0938 DC       		.byte	0xdc
 5439 0939 B8000000 		.4byte	0xb8
 5440 093d 01       		.byte	0x1
 5441 093e 01       		.byte	0x1
 5442 093f 02       		.byte	0x2
 5443 0940 2C       		.byte	0x2c
 5444 0941 0A       		.uleb128 0xa
 5445 0942 18130000 		.4byte	.LASF136
 5446 0946 0E       		.byte	0xe
 5447 0947 DD       		.byte	0xdd
 5448 0948 B8000000 		.4byte	0xb8
 5449 094c 01       		.byte	0x1
 5450 094d 01       		.byte	0x1
 5451 094e 01       		.byte	0x1
 5452 094f 2C       		.byte	0x2c
 5453 0950 0A       		.uleb128 0xa
 5454 0951 D90A0000 		.4byte	.LASF137
 5455 0955 0E       		.byte	0xe
 5456 0956 DE       		.byte	0xde
 5457 0957 B8000000 		.4byte	0xb8
 5458 095b 01       		.byte	0x1
 5459 095c 01       		.byte	0x1
 5460 095d 00       		.byte	0
 5461 095e 2C       		.byte	0x2c
 5462 095f 0A       		.uleb128 0xa
 5463 0960 CC040000 		.4byte	.LASF138
 5464 0964 0E       		.byte	0xe
 5465 0965 DF       		.byte	0xdf
ARM GAS  C:\Users\tmj32\AppData\Local\Temp\cc0vWRpX.s 			page 119


 5466 0966 FB0E0000 		.4byte	0xefb
 5467 096a 01       		.byte	0x1
 5468 096b 02       		.byte	0x2
 5469 096c 06       		.byte	0x6
 5470 096d 2D       		.byte	0x2d
 5471 096e 0A       		.uleb128 0xa
 5472 096f 45120000 		.4byte	.LASF139
 5473 0973 0E       		.byte	0xe
 5474 0974 E0       		.byte	0xe0
 5475 0975 C7050000 		.4byte	0x5c7
 5476 0979 01       		.byte	0x1
 5477 097a 02       		.byte	0x2
 5478 097b 04       		.byte	0x4
 5479 097c 2D       		.byte	0x2d
 5480 097d 0A       		.uleb128 0xa
 5481 097e 22140000 		.4byte	.LASF140
 5482 0982 0E       		.byte	0xe
 5483 0983 E1       		.byte	0xe1
 5484 0984 B8000000 		.4byte	0xb8
 5485 0988 01       		.byte	0x1
 5486 0989 03       		.byte	0x3
 5487 098a 01       		.byte	0x1
 5488 098b 2D       		.byte	0x2d
 5489 098c 07       		.uleb128 0x7
 5490 098d A70A0000 		.4byte	.LASF141
 5491 0991 0E       		.byte	0xe
 5492 0992 E2       		.byte	0xe2
 5493 0993 B8000000 		.4byte	0xb8
 5494 0997 2E       		.byte	0x2e
 5495 0998 07       		.uleb128 0x7
 5496 0999 F1150000 		.4byte	.LASF142
 5497 099d 0E       		.byte	0xe
 5498 099e E4       		.byte	0xe4
 5499 099f 91020000 		.4byte	0x291
 5500 09a3 2F       		.byte	0x2f
 5501 09a4 07       		.uleb128 0x7
 5502 09a5 BE060000 		.4byte	.LASF143
 5503 09a9 0E       		.byte	0xe
 5504 09aa E6       		.byte	0xe6
 5505 09ab EF000000 		.4byte	0xef
 5506 09af 30       		.byte	0x30
 5507 09b0 07       		.uleb128 0x7
 5508 09b1 44070000 		.4byte	.LASF144
 5509 09b5 0E       		.byte	0xe
 5510 09b6 E9       		.byte	0xe9
 5511 09b7 F00E0000 		.4byte	0xef0
 5512 09bb 34       		.byte	0x34
 5513 09bc 00       		.byte	0
 5514 09bd 0D       		.uleb128 0xd
 5515 09be 04       		.byte	0x4
 5516 09bf 7B080000 		.4byte	0x87b
 5517 09c3 1B       		.uleb128 0x1b
 5518 09c4 13030000 		.4byte	0x313
 5519 09c8 D3090000 		.4byte	0x9d3
 5520 09cc 1C       		.uleb128 0x1c
 5521 09cd 9D020000 		.4byte	0x29d
 5522 09d1 1F       		.byte	0x1f
ARM GAS  C:\Users\tmj32\AppData\Local\Temp\cc0vWRpX.s 			page 120


 5523 09d2 00       		.byte	0
 5524 09d3 1B       		.uleb128 0x1b
 5525 09d4 B8000000 		.4byte	0xb8
 5526 09d8 E3090000 		.4byte	0x9e3
 5527 09dc 1C       		.uleb128 0x1c
 5528 09dd 9D020000 		.4byte	0x29d
 5529 09e1 1F       		.byte	0x1f
 5530 09e2 00       		.byte	0
 5531 09e3 02       		.uleb128 0x2
 5532 09e4 24090000 		.4byte	.LASF145
 5533 09e8 0F       		.byte	0xf
 5534 09e9 33       		.byte	0x33
 5535 09ea B8000000 		.4byte	0xb8
 5536 09ee 02       		.uleb128 0x2
 5537 09ef 92060000 		.4byte	.LASF146
 5538 09f3 0F       		.byte	0xf
 5539 09f4 37       		.byte	0x37
 5540 09f5 B8000000 		.4byte	0xb8
 5541 09f9 06       		.uleb128 0x6
 5542 09fa 10       		.byte	0x10
 5543 09fb 0F       		.byte	0xf
 5544 09fc 3A       		.byte	0x3a
 5545 09fd 3E0A0000 		.4byte	0xa3e
 5546 0a01 07       		.uleb128 0x7
 5547 0a02 93020000 		.4byte	.LASF147
 5548 0a06 0F       		.byte	0xf
 5549 0a07 3C       		.byte	0x3c
 5550 0a08 D3020000 		.4byte	0x2d3
 5551 0a0c 00       		.byte	0
 5552 0a0d 08       		.uleb128 0x8
 5553 0a0e 6B657900 		.ascii	"key\000"
 5554 0a12 0F       		.byte	0xf
 5555 0a13 3D       		.byte	0x3d
 5556 0a14 E4000000 		.4byte	0xe4
 5557 0a18 04       		.byte	0x4
 5558 0a19 07       		.uleb128 0x7
 5559 0a1a 39050000 		.4byte	.LASF148
 5560 0a1e 0F       		.byte	0xf
 5561 0a1f 3E       		.byte	0x3e
 5562 0a20 E4000000 		.4byte	0xe4
 5563 0a24 08       		.byte	0x8
 5564 0a25 07       		.uleb128 0x7
 5565 0a26 850B0000 		.4byte	.LASF149
 5566 0a2a 0F       		.byte	0xf
 5567 0a2b 3F       		.byte	0x3f
 5568 0a2c C3000000 		.4byte	0xc3
 5569 0a30 0C       		.byte	0xc
 5570 0a31 07       		.uleb128 0x7
 5571 0a32 CF010000 		.4byte	.LASF150
 5572 0a36 0F       		.byte	0xf
 5573 0a37 41       		.byte	0x41
 5574 0a38 EE090000 		.4byte	0x9ee
 5575 0a3c 0E       		.byte	0xe
 5576 0a3d 00       		.byte	0
 5577 0a3e 02       		.uleb128 0x2
 5578 0a3f 7A140000 		.4byte	.LASF151
 5579 0a43 0F       		.byte	0xf
ARM GAS  C:\Users\tmj32\AppData\Local\Temp\cc0vWRpX.s 			page 121


 5580 0a44 42       		.byte	0x42
 5581 0a45 F9090000 		.4byte	0x9f9
 5582 0a49 09       		.uleb128 0x9
 5583 0a4a 56020000 		.4byte	.LASF152
 5584 0a4e 1C       		.byte	0x1c
 5585 0a4f 0F       		.byte	0xf
 5586 0a50 45       		.byte	0x45
 5587 0a51 C20A0000 		.4byte	0xac2
 5588 0a55 07       		.uleb128 0x7
 5589 0a56 FF010000 		.4byte	.LASF51
 5590 0a5a 0F       		.byte	0xf
 5591 0a5b 49       		.byte	0x49
 5592 0a5c E3090000 		.4byte	0x9e3
 5593 0a60 00       		.byte	0
 5594 0a61 07       		.uleb128 0x7
 5595 0a62 63030000 		.4byte	.LASF153
 5596 0a66 0F       		.byte	0xf
 5597 0a67 4E       		.byte	0x4e
 5598 0a68 E20A0000 		.4byte	0xae2
 5599 0a6c 04       		.byte	0x4
 5600 0a6d 07       		.uleb128 0x7
 5601 0a6e DF0D0000 		.4byte	.LASF154
 5602 0a72 0F       		.byte	0xf
 5603 0a73 52       		.byte	0x52
 5604 0a74 F80A0000 		.4byte	0xaf8
 5605 0a78 08       		.byte	0x8
 5606 0a79 07       		.uleb128 0x7
 5607 0a7a 7B0B0000 		.4byte	.LASF155
 5608 0a7e 0F       		.byte	0xf
 5609 0a7f 59       		.byte	0x59
 5610 0a80 FE0A0000 		.4byte	0xafe
 5611 0a84 0C       		.byte	0xc
 5612 0a85 07       		.uleb128 0x7
 5613 0a86 B50D0000 		.4byte	.LASF156
 5614 0a8a 0F       		.byte	0xf
 5615 0a8b 5C       		.byte	0x5c
 5616 0a8c 75080000 		.4byte	0x875
 5617 0a90 10       		.byte	0x10
 5618 0a91 07       		.uleb128 0x7
 5619 0a92 AD130000 		.4byte	.LASF157
 5620 0a96 0F       		.byte	0xf
 5621 0a97 5F       		.byte	0x5f
 5622 0a98 B8000000 		.4byte	0xb8
 5623 0a9c 14       		.byte	0x14
 5624 0a9d 07       		.uleb128 0x7
 5625 0a9e 87060000 		.4byte	.LASF133
 5626 0aa2 0F       		.byte	0xf
 5627 0aa3 62       		.byte	0x62
 5628 0aa4 B8000000 		.4byte	0xb8
 5629 0aa8 15       		.byte	0x15
 5630 0aa9 07       		.uleb128 0x7
 5631 0aaa BA0E0000 		.4byte	.LASF158
 5632 0aae 0F       		.byte	0xf
 5633 0aaf 65       		.byte	0x65
 5634 0ab0 CE000000 		.4byte	0xce
 5635 0ab4 16       		.byte	0x16
 5636 0ab5 07       		.uleb128 0x7
ARM GAS  C:\Users\tmj32\AppData\Local\Temp\cc0vWRpX.s 			page 122


 5637 0ab6 CB060000 		.4byte	.LASF159
 5638 0aba 0F       		.byte	0xf
 5639 0abb 68       		.byte	0x68
 5640 0abc CE000000 		.4byte	0xce
 5641 0ac0 18       		.byte	0x18
 5642 0ac1 00       		.byte	0
 5643 0ac2 0B       		.uleb128 0xb
 5644 0ac3 D5010000 		.4byte	0x1d5
 5645 0ac7 D60A0000 		.4byte	0xad6
 5646 0acb 0C       		.uleb128 0xc
 5647 0acc D60A0000 		.4byte	0xad6
 5648 0ad0 0C       		.uleb128 0xc
 5649 0ad1 DC0A0000 		.4byte	0xadc
 5650 0ad5 00       		.byte	0
 5651 0ad6 0D       		.uleb128 0xd
 5652 0ad7 04       		.byte	0x4
 5653 0ad8 490A0000 		.4byte	0xa49
 5654 0adc 0D       		.uleb128 0xd
 5655 0add 04       		.byte	0x4
 5656 0ade 3E0A0000 		.4byte	0xa3e
 5657 0ae2 0D       		.uleb128 0xd
 5658 0ae3 04       		.byte	0x4
 5659 0ae4 C20A0000 		.4byte	0xac2
 5660 0ae8 15       		.uleb128 0x15
 5661 0ae9 F80A0000 		.4byte	0xaf8
 5662 0aed 0C       		.uleb128 0xc
 5663 0aee D60A0000 		.4byte	0xad6
 5664 0af2 0C       		.uleb128 0xc
 5665 0af3 B8000000 		.4byte	0xb8
 5666 0af7 00       		.byte	0
 5667 0af8 0D       		.uleb128 0xd
 5668 0af9 04       		.byte	0x4
 5669 0afa E80A0000 		.4byte	0xae8
 5670 0afe 0D       		.uleb128 0xd
 5671 0aff 04       		.byte	0x4
 5672 0b00 E9070000 		.4byte	0x7e9
 5673 0b04 02       		.uleb128 0x2
 5674 0b05 87130000 		.4byte	.LASF160
 5675 0b09 0F       		.byte	0xf
 5676 0b0a 69       		.byte	0x69
 5677 0b0b 490A0000 		.4byte	0xa49
 5678 0b0f 06       		.uleb128 0x6
 5679 0b10 24       		.byte	0x24
 5680 0b11 0F       		.byte	0xf
 5681 0b12 73       		.byte	0x73
 5682 0b13 960B0000 		.4byte	0xb96
 5683 0b17 07       		.uleb128 0x7
 5684 0b18 11090000 		.4byte	.LASF161
 5685 0b1c 0F       		.byte	0xf
 5686 0b1d 75       		.byte	0x75
 5687 0b1e D3020000 		.4byte	0x2d3
 5688 0b22 00       		.byte	0
 5689 0b23 07       		.uleb128 0x7
 5690 0b24 B90A0000 		.4byte	.LASF162
 5691 0b28 0F       		.byte	0xf
 5692 0b29 76       		.byte	0x76
 5693 0b2a D3020000 		.4byte	0x2d3
ARM GAS  C:\Users\tmj32\AppData\Local\Temp\cc0vWRpX.s 			page 123


 5694 0b2e 04       		.byte	0x4
 5695 0b2f 07       		.uleb128 0x7
 5696 0b30 570D0000 		.4byte	.LASF163
 5697 0b34 0F       		.byte	0xf
 5698 0b35 77       		.byte	0x77
 5699 0b36 D3020000 		.4byte	0x2d3
 5700 0b3a 08       		.byte	0x8
 5701 0b3b 07       		.uleb128 0x7
 5702 0b3c 650D0000 		.4byte	.LASF164
 5703 0b40 0F       		.byte	0xf
 5704 0b41 78       		.byte	0x78
 5705 0b42 D3020000 		.4byte	0x2d3
 5706 0b46 0C       		.byte	0xc
 5707 0b47 07       		.uleb128 0x7
 5708 0b48 66050000 		.4byte	.LASF165
 5709 0b4c 0F       		.byte	0xf
 5710 0b4d 79       		.byte	0x79
 5711 0b4e D3020000 		.4byte	0x2d3
 5712 0b52 10       		.byte	0x10
 5713 0b53 07       		.uleb128 0x7
 5714 0b54 C40A0000 		.4byte	.LASF166
 5715 0b58 0F       		.byte	0xf
 5716 0b59 7A       		.byte	0x7a
 5717 0b5a BD090000 		.4byte	0x9bd
 5718 0b5e 14       		.byte	0x14
 5719 0b5f 07       		.uleb128 0x7
 5720 0b60 1B090000 		.4byte	.LASF167
 5721 0b64 0F       		.byte	0xf
 5722 0b65 7B       		.byte	0x7b
 5723 0b66 BD090000 		.4byte	0x9bd
 5724 0b6a 18       		.byte	0x18
 5725 0b6b 07       		.uleb128 0x7
 5726 0b6c 8A030000 		.4byte	.LASF168
 5727 0b70 0F       		.byte	0xf
 5728 0b71 7D       		.byte	0x7d
 5729 0b72 BD090000 		.4byte	0x9bd
 5730 0b76 1C       		.byte	0x1c
 5731 0b77 0A       		.uleb128 0xa
 5732 0b78 AC110000 		.4byte	.LASF169
 5733 0b7c 0F       		.byte	0xf
 5734 0b7d 80       		.byte	0x80
 5735 0b7e B8000000 		.4byte	0xb8
 5736 0b82 01       		.byte	0x1
 5737 0b83 01       		.byte	0x1
 5738 0b84 07       		.byte	0x7
 5739 0b85 20       		.byte	0x20
 5740 0b86 0A       		.uleb128 0xa
 5741 0b87 45110000 		.4byte	.LASF170
 5742 0b8b 0F       		.byte	0xf
 5743 0b8c 81       		.byte	0x81
 5744 0b8d B8000000 		.4byte	0xb8
 5745 0b91 01       		.byte	0x1
 5746 0b92 01       		.byte	0x1
 5747 0b93 06       		.byte	0x6
 5748 0b94 20       		.byte	0x20
 5749 0b95 00       		.byte	0
 5750 0b96 06       		.uleb128 0x6
ARM GAS  C:\Users\tmj32\AppData\Local\Temp\cc0vWRpX.s 			page 124


 5751 0b97 08       		.byte	0x8
 5752 0b98 0F       		.byte	0xf
 5753 0b99 83       		.byte	0x83
 5754 0b9a B70B0000 		.4byte	0xbb7
 5755 0b9e 07       		.uleb128 0x7
 5756 0b9f F2020000 		.4byte	.LASF171
 5757 0ba3 0F       		.byte	0xf
 5758 0ba4 85       		.byte	0x85
 5759 0ba5 EE090000 		.4byte	0x9ee
 5760 0ba9 00       		.byte	0
 5761 0baa 07       		.uleb128 0x7
 5762 0bab F3070000 		.4byte	.LASF172
 5763 0baf 0F       		.byte	0xf
 5764 0bb0 86       		.byte	0x86
 5765 0bb1 E4000000 		.4byte	0xe4
 5766 0bb5 04       		.byte	0x4
 5767 0bb6 00       		.byte	0
 5768 0bb7 0F       		.uleb128 0xf
 5769 0bb8 24       		.byte	0x24
 5770 0bb9 0F       		.byte	0xf
 5771 0bba 71       		.byte	0x71
 5772 0bbb D60B0000 		.4byte	0xbd6
 5773 0bbf 11       		.uleb128 0x11
 5774 0bc0 52060000 		.4byte	.LASF173
 5775 0bc4 0F       		.byte	0xf
 5776 0bc5 82       		.byte	0x82
 5777 0bc6 0F0B0000 		.4byte	0xb0f
 5778 0bca 11       		.uleb128 0x11
 5779 0bcb C3120000 		.4byte	.LASF174
 5780 0bcf 0F       		.byte	0xf
 5781 0bd0 87       		.byte	0x87
 5782 0bd1 960B0000 		.4byte	0xb96
 5783 0bd5 00       		.byte	0
 5784 0bd6 09       		.uleb128 0x9
 5785 0bd7 6A0E0000 		.4byte	.LASF175
 5786 0bdb 34       		.byte	0x34
 5787 0bdc 0F       		.byte	0xf
 5788 0bdd 6E       		.byte	0x6e
 5789 0bde 4F0C0000 		.4byte	0xc4f
 5790 0be2 07       		.uleb128 0x7
 5791 0be3 CF010000 		.4byte	.LASF150
 5792 0be7 0F       		.byte	0xf
 5793 0be8 70       		.byte	0x70
 5794 0be9 EE090000 		.4byte	0x9ee
 5795 0bed 00       		.byte	0
 5796 0bee 07       		.uleb128 0x7
 5797 0bef 96150000 		.4byte	.LASF176
 5798 0bf3 0F       		.byte	0xf
 5799 0bf4 88       		.byte	0x88
 5800 0bf5 B70B0000 		.4byte	0xbb7
 5801 0bf9 04       		.byte	0x4
 5802 0bfa 07       		.uleb128 0x7
 5803 0bfb 7F0D0000 		.4byte	.LASF177
 5804 0bff 0F       		.byte	0xf
 5805 0c00 8A       		.byte	0x8a
 5806 0c01 E4000000 		.4byte	0xe4
 5807 0c05 28       		.byte	0x28
ARM GAS  C:\Users\tmj32\AppData\Local\Temp\cc0vWRpX.s 			page 125


 5808 0c06 07       		.uleb128 0x7
 5809 0c07 2A110000 		.4byte	.LASF178
 5810 0c0b 0F       		.byte	0xf
 5811 0c0c 8B       		.byte	0x8b
 5812 0c0d E4000000 		.4byte	0xe4
 5813 0c11 2C       		.byte	0x2c
 5814 0c12 0A       		.uleb128 0xa
 5815 0c13 21150000 		.4byte	.LASF179
 5816 0c17 0F       		.byte	0xf
 5817 0c18 8E       		.byte	0x8e
 5818 0c19 B8000000 		.4byte	0xb8
 5819 0c1d 01       		.byte	0x1
 5820 0c1e 01       		.byte	0x1
 5821 0c1f 07       		.byte	0x7
 5822 0c20 30       		.byte	0x30
 5823 0c21 0A       		.uleb128 0xa
 5824 0c22 B60F0000 		.4byte	.LASF180
 5825 0c26 0F       		.byte	0xf
 5826 0c27 8F       		.byte	0x8f
 5827 0c28 B8000000 		.4byte	0xb8
 5828 0c2c 01       		.byte	0x1
 5829 0c2d 01       		.byte	0x1
 5830 0c2e 06       		.byte	0x6
 5831 0c2f 30       		.byte	0x30
 5832 0c30 0A       		.uleb128 0xa
 5833 0c31 13080000 		.4byte	.LASF181
 5834 0c35 0F       		.byte	0xf
 5835 0c36 90       		.byte	0x90
 5836 0c37 B8000000 		.4byte	0xb8
 5837 0c3b 01       		.byte	0x1
 5838 0c3c 01       		.byte	0x1
 5839 0c3d 05       		.byte	0x5
 5840 0c3e 30       		.byte	0x30
 5841 0c3f 0A       		.uleb128 0xa
 5842 0c40 A9070000 		.4byte	.LASF182
 5843 0c44 0F       		.byte	0xf
 5844 0c45 91       		.byte	0x91
 5845 0c46 B8000000 		.4byte	0xb8
 5846 0c4a 01       		.byte	0x1
 5847 0c4b 01       		.byte	0x1
 5848 0c4c 04       		.byte	0x4
 5849 0c4d 30       		.byte	0x30
 5850 0c4e 00       		.byte	0
 5851 0c4f 02       		.uleb128 0x2
 5852 0c50 36130000 		.4byte	.LASF183
 5853 0c54 0F       		.byte	0xf
 5854 0c55 92       		.byte	0x92
 5855 0c56 D60B0000 		.4byte	0xbd6
 5856 0c5a 09       		.uleb128 0x9
 5857 0c5b B1020000 		.4byte	.LASF184
 5858 0c5f 5C       		.byte	0x5c
 5859 0c60 0F       		.byte	0xf
 5860 0c61 99       		.byte	0x99
 5861 0c62 A30C0000 		.4byte	0xca3
 5862 0c66 07       		.uleb128 0x7
 5863 0c67 1C120000 		.4byte	.LASF113
 5864 0c6b 0F       		.byte	0xf
ARM GAS  C:\Users\tmj32\AppData\Local\Temp\cc0vWRpX.s 			page 126


 5865 0c6c 9B       		.byte	0x9b
 5866 0c6d 040B0000 		.4byte	0xb04
 5867 0c71 00       		.byte	0
 5868 0c72 07       		.uleb128 0x7
 5869 0c73 B8050000 		.4byte	.LASF185
 5870 0c77 0F       		.byte	0xf
 5871 0c78 9C       		.byte	0x9c
 5872 0c79 4F0C0000 		.4byte	0xc4f
 5873 0c7d 1C       		.byte	0x1c
 5874 0c7e 07       		.uleb128 0x7
 5875 0c7f A8150000 		.4byte	.LASF186
 5876 0c83 0F       		.byte	0xf
 5877 0c84 9D       		.byte	0x9d
 5878 0c85 BD090000 		.4byte	0x9bd
 5879 0c89 50       		.byte	0x50
 5880 0c8a 07       		.uleb128 0x7
 5881 0c8b 06090000 		.4byte	.LASF187
 5882 0c8f 0F       		.byte	0xf
 5883 0c90 9E       		.byte	0x9e
 5884 0c91 A80C0000 		.4byte	0xca8
 5885 0c95 54       		.byte	0x54
 5886 0c96 07       		.uleb128 0x7
 5887 0c97 77070000 		.4byte	.LASF188
 5888 0c9b 0F       		.byte	0xf
 5889 0c9c 9F       		.byte	0x9f
 5890 0c9d AE0C0000 		.4byte	0xcae
 5891 0ca1 58       		.byte	0x58
 5892 0ca2 00       		.byte	0
 5893 0ca3 1D       		.uleb128 0x1d
 5894 0ca4 AF150000 		.4byte	.LASF422
 5895 0ca8 0D       		.uleb128 0xd
 5896 0ca9 04       		.byte	0x4
 5897 0caa A30C0000 		.4byte	0xca3
 5898 0cae 0D       		.uleb128 0xd
 5899 0caf 04       		.byte	0x4
 5900 0cb0 B40C0000 		.4byte	0xcb4
 5901 0cb4 0E       		.uleb128 0xe
 5902 0cb5 D3020000 		.4byte	0x2d3
 5903 0cb9 02       		.uleb128 0x2
 5904 0cba 6C070000 		.4byte	.LASF189
 5905 0cbe 0F       		.byte	0xf
 5906 0cbf A1       		.byte	0xa1
 5907 0cc0 5A0C0000 		.4byte	0xc5a
 5908 0cc4 13       		.uleb128 0x13
 5909 0cc5 01       		.byte	0x1
 5910 0cc6 42000000 		.4byte	0x42
 5911 0cca 0E       		.byte	0xe
 5912 0ccb 3D       		.byte	0x3d
 5913 0ccc E30C0000 		.4byte	0xce3
 5914 0cd0 14       		.uleb128 0x14
 5915 0cd1 F10B0000 		.4byte	.LASF190
 5916 0cd5 00       		.byte	0
 5917 0cd6 14       		.uleb128 0x14
 5918 0cd7 4D050000 		.4byte	.LASF191
 5919 0cdb 01       		.byte	0x1
 5920 0cdc 14       		.uleb128 0x14
 5921 0cdd A4050000 		.4byte	.LASF192
ARM GAS  C:\Users\tmj32\AppData\Local\Temp\cc0vWRpX.s 			page 127


 5922 0ce1 02       		.byte	0x2
 5923 0ce2 00       		.byte	0
 5924 0ce3 02       		.uleb128 0x2
 5925 0ce4 8C0D0000 		.4byte	.LASF193
 5926 0ce8 0E       		.byte	0xe
 5927 0ce9 42       		.byte	0x42
 5928 0cea B8000000 		.4byte	0xb8
 5929 0cee 02       		.uleb128 0x2
 5930 0cef CD150000 		.4byte	.LASF194
 5931 0cf3 0E       		.byte	0xe
 5932 0cf4 48       		.byte	0x48
 5933 0cf5 F90C0000 		.4byte	0xcf9
 5934 0cf9 0D       		.uleb128 0xd
 5935 0cfa 04       		.byte	0x4
 5936 0cfb FF0C0000 		.4byte	0xcff
 5937 0cff 0B       		.uleb128 0xb
 5938 0d00 D5010000 		.4byte	0x1d5
 5939 0d04 180D0000 		.4byte	0xd18
 5940 0d08 0C       		.uleb128 0xc
 5941 0d09 BD090000 		.4byte	0x9bd
 5942 0d0d 0C       		.uleb128 0xc
 5943 0d0e 5B070000 		.4byte	0x75b
 5944 0d12 0C       		.uleb128 0xc
 5945 0d13 E30C0000 		.4byte	0xce3
 5946 0d17 00       		.byte	0
 5947 0d18 13       		.uleb128 0x13
 5948 0d19 01       		.byte	0x1
 5949 0d1a 42000000 		.4byte	0x42
 5950 0d1e 0E       		.byte	0xe
 5951 0d1f 4A       		.byte	0x4a
 5952 0d20 9D0D0000 		.4byte	0xd9d
 5953 0d24 14       		.uleb128 0x14
 5954 0d25 FE0D0000 		.4byte	.LASF195
 5955 0d29 00       		.byte	0
 5956 0d2a 14       		.uleb128 0x14
 5957 0d2b 3B0C0000 		.4byte	.LASF196
 5958 0d2f 01       		.byte	0x1
 5959 0d30 14       		.uleb128 0x14
 5960 0d31 9D140000 		.4byte	.LASF197
 5961 0d35 02       		.byte	0x2
 5962 0d36 14       		.uleb128 0x14
 5963 0d37 A30C0000 		.4byte	.LASF198
 5964 0d3b 03       		.byte	0x3
 5965 0d3c 14       		.uleb128 0x14
 5966 0d3d 04020000 		.4byte	.LASF199
 5967 0d41 04       		.byte	0x4
 5968 0d42 14       		.uleb128 0x14
 5969 0d43 C00C0000 		.4byte	.LASF200
 5970 0d47 05       		.byte	0x5
 5971 0d48 14       		.uleb128 0x14
 5972 0d49 F0060000 		.4byte	.LASF201
 5973 0d4d 06       		.byte	0x6
 5974 0d4e 14       		.uleb128 0x14
 5975 0d4f BB150000 		.4byte	.LASF202
 5976 0d53 07       		.byte	0x7
 5977 0d54 14       		.uleb128 0x14
 5978 0d55 5A060000 		.4byte	.LASF203
ARM GAS  C:\Users\tmj32\AppData\Local\Temp\cc0vWRpX.s 			page 128


 5979 0d59 08       		.byte	0x8
 5980 0d5a 14       		.uleb128 0x14
 5981 0d5b A30D0000 		.4byte	.LASF204
 5982 0d5f 09       		.byte	0x9
 5983 0d60 14       		.uleb128 0x14
 5984 0d61 52070000 		.4byte	.LASF205
 5985 0d65 0A       		.byte	0xa
 5986 0d66 14       		.uleb128 0x14
 5987 0d67 53140000 		.4byte	.LASF206
 5988 0d6b 0B       		.byte	0xb
 5989 0d6c 14       		.uleb128 0x14
 5990 0d6d 1F060000 		.4byte	.LASF207
 5991 0d71 0C       		.byte	0xc
 5992 0d72 14       		.uleb128 0x14
 5993 0d73 46130000 		.4byte	.LASF208
 5994 0d77 0D       		.byte	0xd
 5995 0d78 14       		.uleb128 0x14
 5996 0d79 BE0B0000 		.4byte	.LASF209
 5997 0d7d 0E       		.byte	0xe
 5998 0d7e 14       		.uleb128 0x14
 5999 0d7f F5000000 		.4byte	.LASF210
 6000 0d83 0F       		.byte	0xf
 6001 0d84 14       		.uleb128 0x14
 6002 0d85 C9080000 		.4byte	.LASF211
 6003 0d89 10       		.byte	0x10
 6004 0d8a 14       		.uleb128 0x14
 6005 0d8b 35070000 		.4byte	.LASF212
 6006 0d8f 11       		.byte	0x11
 6007 0d90 14       		.uleb128 0x14
 6008 0d91 290E0000 		.4byte	.LASF213
 6009 0d95 12       		.byte	0x12
 6010 0d96 14       		.uleb128 0x14
 6011 0d97 2B0B0000 		.4byte	.LASF214
 6012 0d9b 13       		.byte	0x13
 6013 0d9c 00       		.byte	0
 6014 0d9d 02       		.uleb128 0x2
 6015 0d9e C4010000 		.4byte	.LASF215
 6016 0da2 0E       		.byte	0xe
 6017 0da3 61       		.byte	0x61
 6018 0da4 B8000000 		.4byte	0xb8
 6019 0da8 02       		.uleb128 0x2
 6020 0da9 2E150000 		.4byte	.LASF216
 6021 0dad 0E       		.byte	0xe
 6022 0dae 68       		.byte	0x68
 6023 0daf B30D0000 		.4byte	0xdb3
 6024 0db3 0D       		.uleb128 0xd
 6025 0db4 04       		.byte	0x4
 6026 0db5 B90D0000 		.4byte	0xdb9
 6027 0db9 15       		.uleb128 0x15
 6028 0dba C90D0000 		.4byte	0xdc9
 6029 0dbe 0C       		.uleb128 0xc
 6030 0dbf BD090000 		.4byte	0x9bd
 6031 0dc3 0C       		.uleb128 0xc
 6032 0dc4 9D0D0000 		.4byte	0xd9d
 6033 0dc8 00       		.byte	0
 6034 0dc9 13       		.uleb128 0x13
 6035 0dca 01       		.byte	0x1
ARM GAS  C:\Users\tmj32\AppData\Local\Temp\cc0vWRpX.s 			page 129


 6036 0dcb 42000000 		.4byte	0x42
 6037 0dcf 0E       		.byte	0xe
 6038 0dd0 6D       		.byte	0x6d
 6039 0dd1 4E0E0000 		.4byte	0xe4e
 6040 0dd5 14       		.uleb128 0x14
 6041 0dd6 E60A0000 		.4byte	.LASF217
 6042 0dda 00       		.byte	0
 6043 0ddb 14       		.uleb128 0x14
 6044 0ddc 670B0000 		.4byte	.LASF218
 6045 0de0 01       		.byte	0x1
 6046 0de1 14       		.uleb128 0x14
 6047 0de2 E6120000 		.4byte	.LASF219
 6048 0de6 02       		.byte	0x2
 6049 0de7 14       		.uleb128 0x14
 6050 0de8 0F0E0000 		.4byte	.LASF220
 6051 0dec 03       		.byte	0x3
 6052 0ded 14       		.uleb128 0x14
 6053 0dee C0000000 		.4byte	.LASF221
 6054 0df2 04       		.byte	0x4
 6055 0df3 14       		.uleb128 0x14
 6056 0df4 96130000 		.4byte	.LASF222
 6057 0df8 05       		.byte	0x5
 6058 0df9 14       		.uleb128 0x14
 6059 0dfa B0040000 		.4byte	.LASF223
 6060 0dfe 06       		.byte	0x6
 6061 0dff 14       		.uleb128 0x14
 6062 0e00 96070000 		.4byte	.LASF224
 6063 0e04 07       		.byte	0x7
 6064 0e05 14       		.uleb128 0x14
 6065 0e06 ED010000 		.4byte	.LASF225
 6066 0e0a 08       		.byte	0x8
 6067 0e0b 14       		.uleb128 0x14
 6068 0e0c 900C0000 		.4byte	.LASF226
 6069 0e10 09       		.byte	0x9
 6070 0e11 14       		.uleb128 0x14
 6071 0e12 BF0D0000 		.4byte	.LASF227
 6072 0e16 0A       		.byte	0xa
 6073 0e17 14       		.uleb128 0x14
 6074 0e18 390E0000 		.4byte	.LASF228
 6075 0e1c 0B       		.byte	0xb
 6076 0e1d 14       		.uleb128 0x14
 6077 0e1e 23010000 		.4byte	.LASF229
 6078 0e22 0C       		.byte	0xc
 6079 0e23 14       		.uleb128 0x14
 6080 0e24 58040000 		.4byte	.LASF230
 6081 0e28 0D       		.byte	0xd
 6082 0e29 14       		.uleb128 0x14
 6083 0e2a 72010000 		.4byte	.LASF231
 6084 0e2e 0E       		.byte	0xe
 6085 0e2f 14       		.uleb128 0x14
 6086 0e30 EB0D0000 		.4byte	.LASF232
 6087 0e34 0F       		.byte	0xf
 6088 0e35 14       		.uleb128 0x14
 6089 0e36 96080000 		.4byte	.LASF233
 6090 0e3a 10       		.byte	0x10
 6091 0e3b 14       		.uleb128 0x14
 6092 0e3c FE050000 		.4byte	.LASF234
ARM GAS  C:\Users\tmj32\AppData\Local\Temp\cc0vWRpX.s 			page 130


 6093 0e40 11       		.byte	0x11
 6094 0e41 14       		.uleb128 0x14
 6095 0e42 7F0A0000 		.4byte	.LASF235
 6096 0e46 12       		.byte	0x12
 6097 0e47 14       		.uleb128 0x14
 6098 0e48 40090000 		.4byte	.LASF236
 6099 0e4c 13       		.byte	0x13
 6100 0e4d 00       		.byte	0
 6101 0e4e 02       		.uleb128 0x2
 6102 0e4f A90E0000 		.4byte	.LASF237
 6103 0e53 0E       		.byte	0xe
 6104 0e54 88       		.byte	0x88
 6105 0e55 B8000000 		.4byte	0xb8
 6106 0e59 02       		.uleb128 0x2
 6107 0e5a 0F050000 		.4byte	.LASF238
 6108 0e5e 0E       		.byte	0xe
 6109 0e5f 8A       		.byte	0x8a
 6110 0e60 640E0000 		.4byte	0xe64
 6111 0e64 0D       		.uleb128 0xd
 6112 0e65 04       		.byte	0x4
 6113 0e66 6A0E0000 		.4byte	0xe6a
 6114 0e6a 0B       		.uleb128 0xb
 6115 0e6b 73050000 		.4byte	0x573
 6116 0e6f 830E0000 		.4byte	0xe83
 6117 0e73 0C       		.uleb128 0xc
 6118 0e74 BD090000 		.4byte	0x9bd
 6119 0e78 0C       		.uleb128 0xc
 6120 0e79 4E0E0000 		.4byte	0xe4e
 6121 0e7d 0C       		.uleb128 0xc
 6122 0e7e FA000000 		.4byte	0xfa
 6123 0e82 00       		.byte	0
 6124 0e83 02       		.uleb128 0x2
 6125 0e84 67010000 		.4byte	.LASF239
 6126 0e88 0E       		.byte	0xe
 6127 0e89 A4       		.byte	0xa4
 6128 0e8a B8000000 		.4byte	0xb8
 6129 0e8e 06       		.uleb128 0x6
 6130 0e8f 0C       		.byte	0xc
 6131 0e90 0E       		.byte	0xe
 6132 0e91 A7       		.byte	0xa7
 6133 0e92 E50E0000 		.4byte	0xee5
 6134 0e96 07       		.uleb128 0x7
 6135 0e97 7C120000 		.4byte	.LASF240
 6136 0e9b 0E       		.byte	0xe
 6137 0e9c A9       		.byte	0xa9
 6138 0e9d E50E0000 		.4byte	0xee5
 6139 0ea1 00       		.byte	0
 6140 0ea2 07       		.uleb128 0x7
 6141 0ea3 C6110000 		.4byte	.LASF241
 6142 0ea7 0E       		.byte	0xe
 6143 0ea8 AA       		.byte	0xaa
 6144 0ea9 EF000000 		.4byte	0xef
 6145 0ead 04       		.byte	0x4
 6146 0eae 07       		.uleb128 0x7
 6147 0eaf A40F0000 		.4byte	.LASF242
 6148 0eb3 0E       		.byte	0xe
 6149 0eb4 AB       		.byte	0xab
ARM GAS  C:\Users\tmj32\AppData\Local\Temp\cc0vWRpX.s 			page 131


 6150 0eb5 EF000000 		.4byte	0xef
 6151 0eb9 06       		.byte	0x6
 6152 0eba 07       		.uleb128 0x7
 6153 0ebb 140B0000 		.4byte	.LASF243
 6154 0ebf 0E       		.byte	0xe
 6155 0ec0 AC       		.byte	0xac
 6156 0ec1 830E0000 		.4byte	0xe83
 6157 0ec5 08       		.byte	0x8
 6158 0ec6 0A       		.uleb128 0xa
 6159 0ec7 DF0B0000 		.4byte	.LASF244
 6160 0ecb 0E       		.byte	0xe
 6161 0ecc AD       		.byte	0xad
 6162 0ecd B8000000 		.4byte	0xb8
 6163 0ed1 01       		.byte	0x1
 6164 0ed2 01       		.byte	0x1
 6165 0ed3 07       		.byte	0x7
 6166 0ed4 09       		.byte	0x9
 6167 0ed5 0A       		.uleb128 0xa
 6168 0ed6 44150000 		.4byte	.LASF245
 6169 0eda 0E       		.byte	0xe
 6170 0edb AE       		.byte	0xae
 6171 0edc B8000000 		.4byte	0xb8
 6172 0ee0 01       		.byte	0x1
 6173 0ee1 01       		.byte	0x1
 6174 0ee2 06       		.byte	0x6
 6175 0ee3 09       		.byte	0x9
 6176 0ee4 00       		.byte	0
 6177 0ee5 0D       		.uleb128 0xd
 6178 0ee6 04       		.byte	0x4
 6179 0ee7 EB0E0000 		.4byte	0xeeb
 6180 0eeb 0E       		.uleb128 0xe
 6181 0eec 7B080000 		.4byte	0x87b
 6182 0ef0 02       		.uleb128 0x2
 6183 0ef1 3F010000 		.4byte	.LASF246
 6184 0ef5 0E       		.byte	0xe
 6185 0ef6 B0       		.byte	0xb0
 6186 0ef7 8E0E0000 		.4byte	0xe8e
 6187 0efb 02       		.uleb128 0x2
 6188 0efc 430D0000 		.4byte	.LASF247
 6189 0f00 0E       		.byte	0xe
 6190 0f01 B9       		.byte	0xb9
 6191 0f02 B8000000 		.4byte	0xb8
 6192 0f06 0D       		.uleb128 0xd
 6193 0f07 04       		.byte	0x4
 6194 0f08 0C0F0000 		.4byte	0xf0c
 6195 0f0c 0E       		.uleb128 0xe
 6196 0f0d 49050000 		.4byte	0x549
 6197 0f11 02       		.uleb128 0x2
 6198 0f12 CB110000 		.4byte	.LASF248
 6199 0f16 0E       		.byte	0xe
 6200 0f17 F0       		.byte	0xf0
 6201 0f18 7B080000 		.4byte	0x87b
 6202 0f1c 06       		.uleb128 0x6
 6203 0f1d 04       		.byte	0x4
 6204 0f1e 10       		.byte	0x10
 6205 0f1f 25       		.byte	0x25
 6206 0f20 490F0000 		.4byte	0xf49
ARM GAS  C:\Users\tmj32\AppData\Local\Temp\cc0vWRpX.s 			page 132


 6207 0f24 07       		.uleb128 0x7
 6208 0f25 1A020000 		.4byte	.LASF249
 6209 0f29 10       		.byte	0x10
 6210 0f2a 27       		.byte	0x27
 6211 0f2b CE000000 		.4byte	0xce
 6212 0f2f 00       		.byte	0
 6213 0f30 07       		.uleb128 0x7
 6214 0f31 D4110000 		.4byte	.LASF250
 6215 0f35 10       		.byte	0x10
 6216 0f36 28       		.byte	0x28
 6217 0f37 AD000000 		.4byte	0xad
 6218 0f3b 02       		.byte	0x2
 6219 0f3c 08       		.uleb128 0x8
 6220 0f3d 64617900 		.ascii	"day\000"
 6221 0f41 10       		.byte	0x10
 6222 0f42 29       		.byte	0x29
 6223 0f43 AD000000 		.4byte	0xad
 6224 0f47 03       		.byte	0x3
 6225 0f48 00       		.byte	0
 6226 0f49 02       		.uleb128 0x2
 6227 0f4a F80C0000 		.4byte	.LASF251
 6228 0f4e 10       		.byte	0x10
 6229 0f4f 2A       		.byte	0x2a
 6230 0f50 1C0F0000 		.4byte	0xf1c
 6231 0f54 06       		.uleb128 0x6
 6232 0f55 38       		.byte	0x38
 6233 0f56 10       		.byte	0x10
 6234 0f57 2D       		.byte	0x2d
 6235 0f58 11100000 		.4byte	0x1011
 6236 0f5c 07       		.uleb128 0x7
 6237 0f5d 4C070000 		.4byte	.LASF252
 6238 0f61 10       		.byte	0x10
 6239 0f62 31       		.byte	0x31
 6240 0f63 490F0000 		.4byte	0xf49
 6241 0f67 00       		.byte	0
 6242 0f68 07       		.uleb128 0x7
 6243 0f69 34090000 		.4byte	.LASF253
 6244 0f6d 10       		.byte	0x10
 6245 0f6e 32       		.byte	0x32
 6246 0f6f 490F0000 		.4byte	0xf49
 6247 0f73 04       		.byte	0x4
 6248 0f74 07       		.uleb128 0x7
 6249 0f75 01110000 		.4byte	.LASF254
 6250 0f79 10       		.byte	0x10
 6251 0f7a 33       		.byte	0x33
 6252 0f7b 11100000 		.4byte	0x1011
 6253 0f7f 08       		.byte	0x8
 6254 0f80 07       		.uleb128 0x7
 6255 0f81 6B030000 		.4byte	.LASF255
 6256 0f85 10       		.byte	0x10
 6257 0f86 35       		.byte	0x35
 6258 0f87 AD000000 		.4byte	0xad
 6259 0f8b 0C       		.byte	0xc
 6260 0f8c 07       		.uleb128 0x7
 6261 0f8d 470A0000 		.4byte	.LASF256
 6262 0f91 10       		.byte	0x10
 6263 0f92 36       		.byte	0x36
ARM GAS  C:\Users\tmj32\AppData\Local\Temp\cc0vWRpX.s 			page 133


 6264 0f93 CE000000 		.4byte	0xce
 6265 0f97 0E       		.byte	0xe
 6266 0f98 07       		.uleb128 0x7
 6267 0f99 770C0000 		.4byte	.LASF257
 6268 0f9d 10       		.byte	0x10
 6269 0f9e 37       		.byte	0x37
 6270 0f9f 490F0000 		.4byte	0xf49
 6271 0fa3 10       		.byte	0x10
 6272 0fa4 07       		.uleb128 0x7
 6273 0fa5 25130000 		.4byte	.LASF258
 6274 0fa9 10       		.byte	0x10
 6275 0faa 38       		.byte	0x38
 6276 0fab 17100000 		.4byte	0x1017
 6277 0faf 14       		.byte	0x14
 6278 0fb0 07       		.uleb128 0x7
 6279 0fb1 7E030000 		.4byte	.LASF259
 6280 0fb5 10       		.byte	0x10
 6281 0fb6 39       		.byte	0x39
 6282 0fb7 17100000 		.4byte	0x1017
 6283 0fbb 18       		.byte	0x18
 6284 0fbc 07       		.uleb128 0x7
 6285 0fbd 00000000 		.4byte	.LASF260
 6286 0fc1 10       		.byte	0x10
 6287 0fc2 3C       		.byte	0x3c
 6288 0fc3 060F0000 		.4byte	0xf06
 6289 0fc7 1C       		.byte	0x1c
 6290 0fc8 07       		.uleb128 0x7
 6291 0fc9 9A000000 		.4byte	.LASF261
 6292 0fcd 10       		.byte	0x10
 6293 0fce 3D       		.byte	0x3d
 6294 0fcf 060F0000 		.4byte	0xf06
 6295 0fd3 20       		.byte	0x20
 6296 0fd4 07       		.uleb128 0x7
 6297 0fd5 6B130000 		.4byte	.LASF262
 6298 0fd9 10       		.byte	0x10
 6299 0fda 3E       		.byte	0x3e
 6300 0fdb 060F0000 		.4byte	0xf06
 6301 0fdf 24       		.byte	0x24
 6302 0fe0 07       		.uleb128 0x7
 6303 0fe1 FD020000 		.4byte	.LASF263
 6304 0fe5 10       		.byte	0x10
 6305 0fe6 3F       		.byte	0x3f
 6306 0fe7 060F0000 		.4byte	0xf06
 6307 0feb 28       		.byte	0x28
 6308 0fec 07       		.uleb128 0x7
 6309 0fed DA080000 		.4byte	.LASF264
 6310 0ff1 10       		.byte	0x10
 6311 0ff2 40       		.byte	0x40
 6312 0ff3 060F0000 		.4byte	0xf06
 6313 0ff7 2C       		.byte	0x2c
 6314 0ff8 07       		.uleb128 0x7
 6315 0ff9 4F030000 		.4byte	.LASF265
 6316 0ffd 10       		.byte	0x10
 6317 0ffe 41       		.byte	0x41
 6318 0fff 060F0000 		.4byte	0xf06
 6319 1003 30       		.byte	0x30
 6320 1004 07       		.uleb128 0x7
ARM GAS  C:\Users\tmj32\AppData\Local\Temp\cc0vWRpX.s 			page 134


 6321 1005 71040000 		.4byte	.LASF266
 6322 1009 10       		.byte	0x10
 6323 100a 42       		.byte	0x42
 6324 100b 060F0000 		.4byte	0xf06
 6325 100f 34       		.byte	0x34
 6326 1010 00       		.byte	0
 6327 1011 0D       		.uleb128 0xd
 6328 1012 04       		.byte	0x4
 6329 1013 490F0000 		.4byte	0xf49
 6330 1017 0D       		.uleb128 0xd
 6331 1018 04       		.byte	0x4
 6332 1019 AB020000 		.4byte	0x2ab
 6333 101d 02       		.uleb128 0x2
 6334 101e 9E040000 		.4byte	.LASF267
 6335 1022 10       		.byte	0x10
 6336 1023 43       		.byte	0x43
 6337 1024 540F0000 		.4byte	0xf54
 6338 1028 13       		.uleb128 0x13
 6339 1029 01       		.byte	0x1
 6340 102a 42000000 		.4byte	0x42
 6341 102e 10       		.byte	0x10
 6342 102f 46       		.byte	0x46
 6343 1030 65100000 		.4byte	0x1065
 6344 1034 14       		.uleb128 0x14
 6345 1035 DC150000 		.4byte	.LASF268
 6346 1039 00       		.byte	0
 6347 103a 14       		.uleb128 0x14
 6348 103b 23100000 		.4byte	.LASF269
 6349 103f 01       		.byte	0x1
 6350 1040 14       		.uleb128 0x14
 6351 1041 FD0E0000 		.4byte	.LASF270
 6352 1045 02       		.byte	0x2
 6353 1046 14       		.uleb128 0x14
 6354 1047 6B020000 		.4byte	.LASF271
 6355 104b 03       		.byte	0x3
 6356 104c 14       		.uleb128 0x14
 6357 104d 6D110000 		.4byte	.LASF272
 6358 1051 04       		.byte	0x4
 6359 1052 14       		.uleb128 0x14
 6360 1053 1C080000 		.4byte	.LASF273
 6361 1057 05       		.byte	0x5
 6362 1058 14       		.uleb128 0x14
 6363 1059 DD0C0000 		.4byte	.LASF274
 6364 105d 06       		.byte	0x6
 6365 105e 14       		.uleb128 0x14
 6366 105f CA0E0000 		.4byte	.LASF275
 6367 1063 07       		.byte	0x7
 6368 1064 00       		.byte	0
 6369 1065 02       		.uleb128 0x2
 6370 1066 E6130000 		.4byte	.LASF276
 6371 106a 10       		.byte	0x10
 6372 106b 50       		.byte	0x50
 6373 106c B8000000 		.4byte	0xb8
 6374 1070 13       		.uleb128 0x13
 6375 1071 01       		.byte	0x1
 6376 1072 42000000 		.4byte	0x42
 6377 1076 11       		.byte	0x11
ARM GAS  C:\Users\tmj32\AppData\Local\Temp\cc0vWRpX.s 			page 135


 6378 1077 2B       		.byte	0x2b
 6379 1078 9B100000 		.4byte	0x109b
 6380 107c 14       		.uleb128 0x14
 6381 107d CF050000 		.4byte	.LASF277
 6382 1081 00       		.byte	0
 6383 1082 14       		.uleb128 0x14
 6384 1083 A8030000 		.4byte	.LASF278
 6385 1087 01       		.byte	0x1
 6386 1088 14       		.uleb128 0x14
 6387 1089 B6080000 		.4byte	.LASF279
 6388 108d 02       		.byte	0x2
 6389 108e 14       		.uleb128 0x14
 6390 108f 12070000 		.4byte	.LASF280
 6391 1093 04       		.byte	0x4
 6392 1094 14       		.uleb128 0x14
 6393 1095 36030000 		.4byte	.LASF281
 6394 1099 08       		.byte	0x8
 6395 109a 00       		.byte	0
 6396 109b 13       		.uleb128 0x13
 6397 109c 01       		.byte	0x1
 6398 109d 42000000 		.4byte	0x42
 6399 10a1 12       		.byte	0x12
 6400 10a2 1E       		.byte	0x1e
 6401 10a3 F0100000 		.4byte	0x10f0
 6402 10a7 14       		.uleb128 0x14
 6403 10a8 55150000 		.4byte	.LASF282
 6404 10ac 11       		.byte	0x11
 6405 10ad 14       		.uleb128 0x14
 6406 10ae F20F0000 		.4byte	.LASF283
 6407 10b2 12       		.byte	0x12
 6408 10b3 14       		.uleb128 0x14
 6409 10b4 4B000000 		.4byte	.LASF284
 6410 10b8 13       		.byte	0x13
 6411 10b9 14       		.uleb128 0x14
 6412 10ba C5030000 		.4byte	.LASF285
 6413 10be 14       		.byte	0x14
 6414 10bf 14       		.uleb128 0x14
 6415 10c0 18100000 		.4byte	.LASF286
 6416 10c4 1B       		.byte	0x1b
 6417 10c5 14       		.uleb128 0x14
 6418 10c6 2B030000 		.4byte	.LASF287
 6419 10ca 7F       		.byte	0x7f
 6420 10cb 14       		.uleb128 0x14
 6421 10cc F1040000 		.4byte	.LASF288
 6422 10d0 08       		.byte	0x8
 6423 10d1 14       		.uleb128 0x14
 6424 10d2 D5010000 		.4byte	.LASF289
 6425 10d6 0A       		.byte	0xa
 6426 10d7 14       		.uleb128 0x14
 6427 10d8 840C0000 		.4byte	.LASF290
 6428 10dc 09       		.byte	0x9
 6429 10dd 14       		.uleb128 0x14
 6430 10de 70120000 		.4byte	.LASF291
 6431 10e2 0B       		.byte	0xb
 6432 10e3 14       		.uleb128 0x14
 6433 10e4 4E080000 		.4byte	.LASF292
 6434 10e8 02       		.byte	0x2
ARM GAS  C:\Users\tmj32\AppData\Local\Temp\cc0vWRpX.s 			page 136


 6435 10e9 14       		.uleb128 0x14
 6436 10ea D40D0000 		.4byte	.LASF293
 6437 10ee 03       		.byte	0x3
 6438 10ef 00       		.byte	0
 6439 10f0 06       		.uleb128 0x6
 6440 10f1 14       		.byte	0x14
 6441 10f2 13       		.byte	0x13
 6442 10f3 34       		.byte	0x34
 6443 10f4 34110000 		.4byte	0x1134
 6444 10f8 08       		.uleb128 0x8
 6445 10f9 72656C00 		.ascii	"rel\000"
 6446 10fd 13       		.byte	0x13
 6447 10fe 36       		.byte	0x36
 6448 10ff 54050000 		.4byte	0x554
 6449 1103 00       		.byte	0
 6450 1104 08       		.uleb128 0x8
 6451 1105 707200   		.ascii	"pr\000"
 6452 1108 13       		.byte	0x13
 6453 1109 37       		.byte	0x37
 6454 110a 54050000 		.4byte	0x554
 6455 110e 04       		.byte	0x4
 6456 110f 07       		.uleb128 0x7
 6457 1110 8E0B0000 		.4byte	.LASF294
 6458 1114 13       		.byte	0x13
 6459 1115 38       		.byte	0x38
 6460 1116 54050000 		.4byte	0x554
 6461 111a 08       		.byte	0x8
 6462 111b 07       		.uleb128 0x7
 6463 111c 14040000 		.4byte	.LASF295
 6464 1120 13       		.byte	0x13
 6465 1121 39       		.byte	0x39
 6466 1122 54050000 		.4byte	0x554
 6467 1126 0C       		.byte	0xc
 6468 1127 08       		.uleb128 0x8
 6469 1128 696E6100 		.ascii	"ina\000"
 6470 112c 13       		.byte	0x13
 6471 112d 3A       		.byte	0x3a
 6472 112e 54050000 		.4byte	0x554
 6473 1132 10       		.byte	0x10
 6474 1133 00       		.byte	0
 6475 1134 06       		.uleb128 0x6
 6476 1135 14       		.byte	0x14
 6477 1136 13       		.byte	0x13
 6478 1137 3F       		.byte	0x3f
 6479 1138 78110000 		.4byte	0x1178
 6480 113c 08       		.uleb128 0x8
 6481 113d 72656C00 		.ascii	"rel\000"
 6482 1141 13       		.byte	0x13
 6483 1142 41       		.byte	0x41
 6484 1143 54050000 		.4byte	0x554
 6485 1147 00       		.byte	0
 6486 1148 08       		.uleb128 0x8
 6487 1149 707200   		.ascii	"pr\000"
 6488 114c 13       		.byte	0x13
 6489 114d 42       		.byte	0x42
 6490 114e 54050000 		.4byte	0x554
 6491 1152 04       		.byte	0x4
ARM GAS  C:\Users\tmj32\AppData\Local\Temp\cc0vWRpX.s 			page 137


 6492 1153 07       		.uleb128 0x7
 6493 1154 8E0B0000 		.4byte	.LASF294
 6494 1158 13       		.byte	0x13
 6495 1159 43       		.byte	0x43
 6496 115a 54050000 		.4byte	0x554
 6497 115e 08       		.byte	0x8
 6498 115f 07       		.uleb128 0x7
 6499 1160 14040000 		.4byte	.LASF295
 6500 1164 13       		.byte	0x13
 6501 1165 44       		.byte	0x44
 6502 1166 54050000 		.4byte	0x554
 6503 116a 0C       		.byte	0xc
 6504 116b 08       		.uleb128 0x8
 6505 116c 696E6100 		.ascii	"ina\000"
 6506 1170 13       		.byte	0x13
 6507 1171 45       		.byte	0x45
 6508 1172 54050000 		.4byte	0x554
 6509 1176 10       		.byte	0x10
 6510 1177 00       		.byte	0
 6511 1178 06       		.uleb128 0x6
 6512 1179 0C       		.byte	0xc
 6513 117a 13       		.byte	0x13
 6514 117b 4A       		.byte	0x4a
 6515 117c A5110000 		.4byte	0x11a5
 6516 1180 07       		.uleb128 0x7
 6517 1181 81040000 		.4byte	.LASF296
 6518 1185 13       		.byte	0x13
 6519 1186 4C       		.byte	0x4c
 6520 1187 54050000 		.4byte	0x554
 6521 118b 00       		.byte	0
 6522 118c 08       		.uleb128 0x8
 6523 118d 73656300 		.ascii	"sec\000"
 6524 1191 13       		.byte	0x13
 6525 1192 4D       		.byte	0x4d
 6526 1193 54050000 		.4byte	0x554
 6527 1197 04       		.byte	0x4
 6528 1198 07       		.uleb128 0x7
 6529 1199 5A080000 		.4byte	.LASF297
 6530 119d 13       		.byte	0x13
 6531 119e 4E       		.byte	0x4e
 6532 119f 54050000 		.4byte	0x554
 6533 11a3 08       		.byte	0x8
 6534 11a4 00       		.byte	0
 6535 11a5 06       		.uleb128 0x6
 6536 11a6 08       		.byte	0x8
 6537 11a7 13       		.byte	0x13
 6538 11a8 53       		.byte	0x53
 6539 11a9 C6110000 		.4byte	0x11c6
 6540 11ad 07       		.uleb128 0x7
 6541 11ae 50020000 		.4byte	.LASF298
 6542 11b2 13       		.byte	0x13
 6543 11b3 55       		.byte	0x55
 6544 11b4 54050000 		.4byte	0x554
 6545 11b8 00       		.byte	0
 6546 11b9 07       		.uleb128 0x7
 6547 11ba 0D140000 		.4byte	.LASF299
 6548 11be 13       		.byte	0x13
ARM GAS  C:\Users\tmj32\AppData\Local\Temp\cc0vWRpX.s 			page 138


 6549 11bf 56       		.byte	0x56
 6550 11c0 54050000 		.4byte	0x554
 6551 11c4 04       		.byte	0x4
 6552 11c5 00       		.byte	0
 6553 11c6 06       		.uleb128 0x6
 6554 11c7 04       		.byte	0x4
 6555 11c8 13       		.byte	0x13
 6556 11c9 5B       		.byte	0x5b
 6557 11ca DB110000 		.4byte	0x11db
 6558 11ce 07       		.uleb128 0x7
 6559 11cf 13110000 		.4byte	.LASF300
 6560 11d3 13       		.byte	0x13
 6561 11d4 5D       		.byte	0x5d
 6562 11d5 54050000 		.4byte	0x554
 6563 11d9 00       		.byte	0
 6564 11da 00       		.byte	0
 6565 11db 06       		.uleb128 0x6
 6566 11dc 08       		.byte	0x8
 6567 11dd 13       		.byte	0x13
 6568 11de 66       		.byte	0x66
 6569 11df FB110000 		.4byte	0x11fb
 6570 11e3 08       		.uleb128 0x8
 6571 11e4 626700   		.ascii	"bg\000"
 6572 11e7 13       		.byte	0x13
 6573 11e8 68       		.byte	0x68
 6574 11e9 54050000 		.4byte	0x554
 6575 11ed 00       		.byte	0
 6576 11ee 07       		.uleb128 0x7
 6577 11ef A10A0000 		.4byte	.LASF301
 6578 11f3 13       		.byte	0x13
 6579 11f4 69       		.byte	0x69
 6580 11f5 54050000 		.4byte	0x554
 6581 11f9 04       		.byte	0x4
 6582 11fa 00       		.byte	0
 6583 11fb 06       		.uleb128 0x6
 6584 11fc 0C       		.byte	0xc
 6585 11fd 13       		.byte	0x13
 6586 11fe 6E       		.byte	0x6e
 6587 11ff 27120000 		.4byte	0x1227
 6588 1203 08       		.uleb128 0x8
 6589 1204 626700   		.ascii	"bg\000"
 6590 1207 13       		.byte	0x13
 6591 1208 70       		.byte	0x70
 6592 1209 54050000 		.4byte	0x554
 6593 120d 00       		.byte	0
 6594 120e 07       		.uleb128 0x7
 6595 120f A10A0000 		.4byte	.LASF301
 6596 1213 13       		.byte	0x13
 6597 1214 71       		.byte	0x71
 6598 1215 54050000 		.4byte	0x554
 6599 1219 04       		.byte	0x4
 6600 121a 07       		.uleb128 0x7
 6601 121b 50150000 		.4byte	.LASF302
 6602 121f 13       		.byte	0x13
 6603 1220 72       		.byte	0x72
 6604 1221 54050000 		.4byte	0x554
 6605 1225 08       		.byte	0x8
ARM GAS  C:\Users\tmj32\AppData\Local\Temp\cc0vWRpX.s 			page 139


 6606 1226 00       		.byte	0
 6607 1227 06       		.uleb128 0x6
 6608 1228 10       		.byte	0x10
 6609 1229 13       		.byte	0x13
 6610 122a 87       		.byte	0x87
 6611 122b 5F120000 		.4byte	0x125f
 6612 122f 08       		.uleb128 0x8
 6613 1230 626700   		.ascii	"bg\000"
 6614 1233 13       		.byte	0x13
 6615 1234 89       		.byte	0x89
 6616 1235 54050000 		.4byte	0x554
 6617 1239 00       		.byte	0
 6618 123a 07       		.uleb128 0x7
 6619 123b A10A0000 		.4byte	.LASF301
 6620 123f 13       		.byte	0x13
 6621 1240 8A       		.byte	0x8a
 6622 1241 54050000 		.4byte	0x554
 6623 1245 04       		.byte	0x4
 6624 1246 07       		.uleb128 0x7
 6625 1247 680C0000 		.4byte	.LASF303
 6626 124b 13       		.byte	0x13
 6627 124c 8B       		.byte	0x8b
 6628 124d 54050000 		.4byte	0x554
 6629 1251 08       		.byte	0x8
 6630 1252 07       		.uleb128 0x7
 6631 1253 DD040000 		.4byte	.LASF304
 6632 1257 13       		.byte	0x13
 6633 1258 8C       		.byte	0x8c
 6634 1259 54050000 		.4byte	0x554
 6635 125d 0C       		.byte	0xc
 6636 125e 00       		.byte	0
 6637 125f 06       		.uleb128 0x6
 6638 1260 20       		.byte	0x20
 6639 1261 13       		.byte	0x13
 6640 1262 95       		.byte	0x95
 6641 1263 C7120000 		.4byte	0x12c7
 6642 1267 08       		.uleb128 0x8
 6643 1268 626700   		.ascii	"bg\000"
 6644 126b 13       		.byte	0x13
 6645 126c 97       		.byte	0x97
 6646 126d 54050000 		.4byte	0x554
 6647 1271 00       		.byte	0
 6648 1272 07       		.uleb128 0x7
 6649 1273 02050000 		.4byte	.LASF305
 6650 1277 13       		.byte	0x13
 6651 1278 98       		.byte	0x98
 6652 1279 54050000 		.4byte	0x554
 6653 127d 04       		.byte	0x4
 6654 127e 07       		.uleb128 0x7
 6655 127f 38000000 		.4byte	.LASF306
 6656 1283 13       		.byte	0x13
 6657 1284 99       		.byte	0x99
 6658 1285 54050000 		.4byte	0x554
 6659 1289 08       		.byte	0x8
 6660 128a 07       		.uleb128 0x7
 6661 128b 25130000 		.4byte	.LASF258
 6662 128f 13       		.byte	0x13
ARM GAS  C:\Users\tmj32\AppData\Local\Temp\cc0vWRpX.s 			page 140


 6663 1290 9A       		.byte	0x9a
 6664 1291 54050000 		.4byte	0x554
 6665 1295 0C       		.byte	0xc
 6666 1296 07       		.uleb128 0x7
 6667 1297 87010000 		.4byte	.LASF307
 6668 129b 13       		.byte	0x13
 6669 129c 9B       		.byte	0x9b
 6670 129d 54050000 		.4byte	0x554
 6671 12a1 10       		.byte	0x10
 6672 12a2 07       		.uleb128 0x7
 6673 12a3 7B0F0000 		.4byte	.LASF308
 6674 12a7 13       		.byte	0x13
 6675 12a8 9C       		.byte	0x9c
 6676 12a9 54050000 		.4byte	0x554
 6677 12ad 14       		.byte	0x14
 6678 12ae 07       		.uleb128 0x7
 6679 12af 9B050000 		.4byte	.LASF309
 6680 12b3 13       		.byte	0x13
 6681 12b4 9D       		.byte	0x9d
 6682 12b5 54050000 		.4byte	0x554
 6683 12b9 18       		.byte	0x18
 6684 12ba 07       		.uleb128 0x7
 6685 12bb 0A040000 		.4byte	.LASF310
 6686 12bf 13       		.byte	0x13
 6687 12c0 9E       		.byte	0x9e
 6688 12c1 54050000 		.4byte	0x554
 6689 12c5 1C       		.byte	0x1c
 6690 12c6 00       		.byte	0
 6691 12c7 06       		.uleb128 0x6
 6692 12c8 14       		.byte	0x14
 6693 12c9 13       		.byte	0x13
 6694 12ca A6       		.byte	0xa6
 6695 12cb 0B130000 		.4byte	0x130b
 6696 12cf 08       		.uleb128 0x8
 6697 12d0 72656C00 		.ascii	"rel\000"
 6698 12d4 13       		.byte	0x13
 6699 12d5 A8       		.byte	0xa8
 6700 12d6 54050000 		.4byte	0x554
 6701 12da 00       		.byte	0
 6702 12db 08       		.uleb128 0x8
 6703 12dc 707200   		.ascii	"pr\000"
 6704 12df 13       		.byte	0x13
 6705 12e0 A9       		.byte	0xa9
 6706 12e1 54050000 		.4byte	0x554
 6707 12e5 04       		.byte	0x4
 6708 12e6 07       		.uleb128 0x7
 6709 12e7 8E0B0000 		.4byte	.LASF294
 6710 12eb 13       		.byte	0x13
 6711 12ec AA       		.byte	0xaa
 6712 12ed 54050000 		.4byte	0x554
 6713 12f1 08       		.byte	0x8
 6714 12f2 07       		.uleb128 0x7
 6715 12f3 14040000 		.4byte	.LASF295
 6716 12f7 13       		.byte	0x13
 6717 12f8 AB       		.byte	0xab
 6718 12f9 54050000 		.4byte	0x554
 6719 12fd 0C       		.byte	0xc
ARM GAS  C:\Users\tmj32\AppData\Local\Temp\cc0vWRpX.s 			page 141


 6720 12fe 08       		.uleb128 0x8
 6721 12ff 696E6100 		.ascii	"ina\000"
 6722 1303 13       		.byte	0x13
 6723 1304 AC       		.byte	0xac
 6724 1305 54050000 		.4byte	0x554
 6725 1309 10       		.byte	0x10
 6726 130a 00       		.byte	0
 6727 130b 06       		.uleb128 0x6
 6728 130c 18       		.byte	0x18
 6729 130d 13       		.byte	0x13
 6730 130e A3       		.byte	0xa3
 6731 130f 2B130000 		.4byte	0x132b
 6732 1313 08       		.uleb128 0x8
 6733 1314 626700   		.ascii	"bg\000"
 6734 1317 13       		.byte	0x13
 6735 1318 A5       		.byte	0xa5
 6736 1319 54050000 		.4byte	0x554
 6737 131d 00       		.byte	0
 6738 131e 08       		.uleb128 0x8
 6739 131f 626F7800 		.ascii	"box\000"
 6740 1323 13       		.byte	0x13
 6741 1324 AD       		.byte	0xad
 6742 1325 C7120000 		.4byte	0x12c7
 6743 1329 04       		.byte	0x4
 6744 132a 00       		.byte	0
 6745 132b 06       		.uleb128 0x6
 6746 132c 14       		.byte	0x14
 6747 132d 13       		.byte	0x13
 6748 132e B5       		.byte	0xb5
 6749 132f 6F130000 		.4byte	0x136f
 6750 1333 08       		.uleb128 0x8
 6751 1334 72656C00 		.ascii	"rel\000"
 6752 1338 13       		.byte	0x13
 6753 1339 B7       		.byte	0xb7
 6754 133a 54050000 		.4byte	0x554
 6755 133e 00       		.byte	0
 6756 133f 08       		.uleb128 0x8
 6757 1340 707200   		.ascii	"pr\000"
 6758 1343 13       		.byte	0x13
 6759 1344 B8       		.byte	0xb8
 6760 1345 54050000 		.4byte	0x554
 6761 1349 04       		.byte	0x4
 6762 134a 07       		.uleb128 0x7
 6763 134b 8E0B0000 		.4byte	.LASF294
 6764 134f 13       		.byte	0x13
 6765 1350 B9       		.byte	0xb9
 6766 1351 54050000 		.4byte	0x554
 6767 1355 08       		.byte	0x8
 6768 1356 07       		.uleb128 0x7
 6769 1357 14040000 		.4byte	.LASF295
 6770 135b 13       		.byte	0x13
 6771 135c BA       		.byte	0xba
 6772 135d 54050000 		.4byte	0x554
 6773 1361 0C       		.byte	0xc
 6774 1362 08       		.uleb128 0x8
 6775 1363 696E6100 		.ascii	"ina\000"
 6776 1367 13       		.byte	0x13
ARM GAS  C:\Users\tmj32\AppData\Local\Temp\cc0vWRpX.s 			page 142


 6777 1368 BB       		.byte	0xbb
 6778 1369 54050000 		.4byte	0x554
 6779 136d 10       		.byte	0x10
 6780 136e 00       		.byte	0
 6781 136f 06       		.uleb128 0x6
 6782 1370 18       		.byte	0x18
 6783 1371 13       		.byte	0x13
 6784 1372 B2       		.byte	0xb2
 6785 1373 8F130000 		.4byte	0x138f
 6786 1377 08       		.uleb128 0x8
 6787 1378 626700   		.ascii	"bg\000"
 6788 137b 13       		.byte	0x13
 6789 137c B4       		.byte	0xb4
 6790 137d 54050000 		.4byte	0x554
 6791 1381 00       		.byte	0
 6792 1382 08       		.uleb128 0x8
 6793 1383 62746E00 		.ascii	"btn\000"
 6794 1387 13       		.byte	0x13
 6795 1388 BC       		.byte	0xbc
 6796 1389 2B130000 		.4byte	0x132b
 6797 138d 04       		.byte	0x4
 6798 138e 00       		.byte	0
 6799 138f 06       		.uleb128 0x6
 6800 1390 14       		.byte	0x14
 6801 1391 13       		.byte	0x13
 6802 1392 C4       		.byte	0xc4
 6803 1393 D3130000 		.4byte	0x13d3
 6804 1397 08       		.uleb128 0x8
 6805 1398 72656C00 		.ascii	"rel\000"
 6806 139c 13       		.byte	0x13
 6807 139d C6       		.byte	0xc6
 6808 139e 54050000 		.4byte	0x554
 6809 13a2 00       		.byte	0
 6810 13a3 08       		.uleb128 0x8
 6811 13a4 707200   		.ascii	"pr\000"
 6812 13a7 13       		.byte	0x13
 6813 13a8 C7       		.byte	0xc7
 6814 13a9 54050000 		.4byte	0x554
 6815 13ad 04       		.byte	0x4
 6816 13ae 07       		.uleb128 0x7
 6817 13af 8E0B0000 		.4byte	.LASF294
 6818 13b3 13       		.byte	0x13
 6819 13b4 C8       		.byte	0xc8
 6820 13b5 54050000 		.4byte	0x554
 6821 13b9 08       		.byte	0x8
 6822 13ba 07       		.uleb128 0x7
 6823 13bb 14040000 		.4byte	.LASF295
 6824 13bf 13       		.byte	0x13
 6825 13c0 C9       		.byte	0xc9
 6826 13c1 54050000 		.4byte	0x554
 6827 13c5 0C       		.byte	0xc
 6828 13c6 08       		.uleb128 0x8
 6829 13c7 696E6100 		.ascii	"ina\000"
 6830 13cb 13       		.byte	0x13
 6831 13cc CA       		.byte	0xca
 6832 13cd 54050000 		.4byte	0x554
 6833 13d1 10       		.byte	0x10
ARM GAS  C:\Users\tmj32\AppData\Local\Temp\cc0vWRpX.s 			page 143


 6834 13d2 00       		.byte	0
 6835 13d3 06       		.uleb128 0x6
 6836 13d4 18       		.byte	0x18
 6837 13d5 13       		.byte	0x13
 6838 13d6 C1       		.byte	0xc1
 6839 13d7 F3130000 		.4byte	0x13f3
 6840 13db 08       		.uleb128 0x8
 6841 13dc 626700   		.ascii	"bg\000"
 6842 13df 13       		.byte	0x13
 6843 13e0 C3       		.byte	0xc3
 6844 13e1 54050000 		.4byte	0x554
 6845 13e5 00       		.byte	0
 6846 13e6 08       		.uleb128 0x8
 6847 13e7 62746E00 		.ascii	"btn\000"
 6848 13eb 13       		.byte	0x13
 6849 13ec CB       		.byte	0xcb
 6850 13ed 8F130000 		.4byte	0x138f
 6851 13f1 04       		.byte	0x4
 6852 13f2 00       		.byte	0
 6853 13f3 06       		.uleb128 0x6
 6854 13f4 0C       		.byte	0xc
 6855 13f5 13       		.byte	0x13
 6856 13f6 D3       		.byte	0xd3
 6857 13f7 1E140000 		.4byte	0x141e
 6858 13fb 08       		.uleb128 0x8
 6859 13fc 626700   		.ascii	"bg\000"
 6860 13ff 13       		.byte	0x13
 6861 1400 D5       		.byte	0xd5
 6862 1401 54050000 		.4byte	0x554
 6863 1405 00       		.byte	0
 6864 1406 08       		.uleb128 0x8
 6865 1407 72656C00 		.ascii	"rel\000"
 6866 140b 13       		.byte	0x13
 6867 140c D6       		.byte	0xd6
 6868 140d 54050000 		.4byte	0x554
 6869 1411 04       		.byte	0x4
 6870 1412 08       		.uleb128 0x8
 6871 1413 707200   		.ascii	"pr\000"
 6872 1416 13       		.byte	0x13
 6873 1417 D7       		.byte	0xd7
 6874 1418 54050000 		.4byte	0x554
 6875 141c 08       		.byte	0x8
 6876 141d 00       		.byte	0
 6877 141e 06       		.uleb128 0x6
 6878 141f 10       		.byte	0x10
 6879 1420 13       		.byte	0x13
 6880 1421 D0       		.byte	0xd0
 6881 1422 3E140000 		.4byte	0x143e
 6882 1426 08       		.uleb128 0x8
 6883 1427 626700   		.ascii	"bg\000"
 6884 142a 13       		.byte	0x13
 6885 142b D2       		.byte	0xd2
 6886 142c 54050000 		.4byte	0x554
 6887 1430 00       		.byte	0
 6888 1431 08       		.uleb128 0x8
 6889 1432 62746E00 		.ascii	"btn\000"
 6890 1436 13       		.byte	0x13
ARM GAS  C:\Users\tmj32\AppData\Local\Temp\cc0vWRpX.s 			page 144


 6891 1437 D8       		.byte	0xd8
 6892 1438 F3130000 		.4byte	0x13f3
 6893 143c 04       		.byte	0x4
 6894 143d 00       		.byte	0
 6895 143e 06       		.uleb128 0x6
 6896 143f 0C       		.byte	0xc
 6897 1440 13       		.byte	0x13
 6898 1441 DD       		.byte	0xdd
 6899 1442 69140000 		.4byte	0x1469
 6900 1446 08       		.uleb128 0x8
 6901 1447 626700   		.ascii	"bg\000"
 6902 144a 13       		.byte	0x13
 6903 144b DF       		.byte	0xdf
 6904 144c 54050000 		.4byte	0x554
 6905 1450 00       		.byte	0
 6906 1451 07       		.uleb128 0x7
 6907 1452 31040000 		.4byte	.LASF311
 6908 1456 13       		.byte	0x13
 6909 1457 E0       		.byte	0xe0
 6910 1458 54050000 		.4byte	0x554
 6911 145c 04       		.byte	0x4
 6912 145d 08       		.uleb128 0x8
 6913 145e 736200   		.ascii	"sb\000"
 6914 1461 13       		.byte	0x13
 6915 1462 E1       		.byte	0xe1
 6916 1463 54050000 		.4byte	0x554
 6917 1467 08       		.byte	0x8
 6918 1468 00       		.byte	0
 6919 1469 06       		.uleb128 0x6
 6920 146a 10       		.byte	0x10
 6921 146b 13       		.byte	0x13
 6922 146c E6       		.byte	0xe6
 6923 146d A1140000 		.4byte	0x14a1
 6924 1471 07       		.uleb128 0x7
 6925 1472 E2070000 		.4byte	.LASF98
 6926 1476 13       		.byte	0x13
 6927 1477 E8       		.byte	0xe8
 6928 1478 54050000 		.4byte	0x554
 6929 147c 00       		.byte	0
 6930 147d 07       		.uleb128 0x7
 6931 147e 57090000 		.4byte	.LASF312
 6932 1482 13       		.byte	0x13
 6933 1483 E9       		.byte	0xe9
 6934 1484 54050000 		.4byte	0x554
 6935 1488 04       		.byte	0x4
 6936 1489 07       		.uleb128 0x7
 6937 148a A8150000 		.4byte	.LASF186
 6938 148e 13       		.byte	0x13
 6939 148f EA       		.byte	0xea
 6940 1490 54050000 		.4byte	0x554
 6941 1494 08       		.byte	0x8
 6942 1495 08       		.uleb128 0x8
 6943 1496 736200   		.ascii	"sb\000"
 6944 1499 13       		.byte	0x13
 6945 149a EB       		.byte	0xeb
 6946 149b 54050000 		.4byte	0x554
 6947 149f 0C       		.byte	0xc
ARM GAS  C:\Users\tmj32\AppData\Local\Temp\cc0vWRpX.s 			page 145


 6948 14a0 00       		.byte	0
 6949 14a1 06       		.uleb128 0x6
 6950 14a2 0C       		.byte	0xc
 6951 14a3 13       		.byte	0x13
 6952 14a4 F0       		.byte	0xf0
 6953 14a5 CC140000 		.4byte	0x14cc
 6954 14a9 08       		.uleb128 0x8
 6955 14aa 626700   		.ascii	"bg\000"
 6956 14ad 13       		.byte	0x13
 6957 14ae F2       		.byte	0xf2
 6958 14af 54050000 		.4byte	0x554
 6959 14b3 00       		.byte	0
 6960 14b4 07       		.uleb128 0x7
 6961 14b5 A8150000 		.4byte	.LASF186
 6962 14b9 13       		.byte	0x13
 6963 14ba F3       		.byte	0xf3
 6964 14bb 54050000 		.4byte	0x554
 6965 14bf 04       		.byte	0x4
 6966 14c0 08       		.uleb128 0x8
 6967 14c1 736200   		.ascii	"sb\000"
 6968 14c4 13       		.byte	0x13
 6969 14c5 F4       		.byte	0xf4
 6970 14c6 54050000 		.4byte	0x554
 6971 14ca 08       		.byte	0x8
 6972 14cb 00       		.byte	0
 6973 14cc 06       		.uleb128 0x6
 6974 14cd 14       		.byte	0x14
 6975 14ce 13       		.byte	0x13
 6976 14cf FE       		.byte	0xfe
 6977 14d0 15150000 		.4byte	0x1515
 6978 14d4 1E       		.uleb128 0x1e
 6979 14d5 72656C00 		.ascii	"rel\000"
 6980 14d9 13       		.byte	0x13
 6981 14da 0001     		.2byte	0x100
 6982 14dc 54050000 		.4byte	0x554
 6983 14e0 00       		.byte	0
 6984 14e1 1E       		.uleb128 0x1e
 6985 14e2 707200   		.ascii	"pr\000"
 6986 14e5 13       		.byte	0x13
 6987 14e6 0101     		.2byte	0x101
 6988 14e8 54050000 		.4byte	0x554
 6989 14ec 04       		.byte	0x4
 6990 14ed 1F       		.uleb128 0x1f
 6991 14ee 8E0B0000 		.4byte	.LASF294
 6992 14f2 13       		.byte	0x13
 6993 14f3 0201     		.2byte	0x102
 6994 14f5 54050000 		.4byte	0x554
 6995 14f9 08       		.byte	0x8
 6996 14fa 1F       		.uleb128 0x1f
 6997 14fb 14040000 		.4byte	.LASF295
 6998 14ff 13       		.byte	0x13
 6999 1500 0301     		.2byte	0x103
 7000 1502 54050000 		.4byte	0x554
 7001 1506 0C       		.byte	0xc
 7002 1507 1E       		.uleb128 0x1e
 7003 1508 696E6100 		.ascii	"ina\000"
 7004 150c 13       		.byte	0x13
ARM GAS  C:\Users\tmj32\AppData\Local\Temp\cc0vWRpX.s 			page 146


 7005 150d 0401     		.2byte	0x104
 7006 150f 54050000 		.4byte	0x554
 7007 1513 10       		.byte	0x10
 7008 1514 00       		.byte	0
 7009 1515 06       		.uleb128 0x6
 7010 1516 20       		.byte	0x20
 7011 1517 13       		.byte	0x13
 7012 1518 F9       		.byte	0xf9
 7013 1519 4D150000 		.4byte	0x154d
 7014 151d 08       		.uleb128 0x8
 7015 151e 626700   		.ascii	"bg\000"
 7016 1521 13       		.byte	0x13
 7017 1522 FB       		.byte	0xfb
 7018 1523 54050000 		.4byte	0x554
 7019 1527 00       		.byte	0
 7020 1528 07       		.uleb128 0x7
 7021 1529 31040000 		.4byte	.LASF311
 7022 152d 13       		.byte	0x13
 7023 152e FC       		.byte	0xfc
 7024 152f 54050000 		.4byte	0x554
 7025 1533 04       		.byte	0x4
 7026 1534 08       		.uleb128 0x8
 7027 1535 736200   		.ascii	"sb\000"
 7028 1538 13       		.byte	0x13
 7029 1539 FD       		.byte	0xfd
 7030 153a 54050000 		.4byte	0x554
 7031 153e 08       		.byte	0x8
 7032 153f 1E       		.uleb128 0x1e
 7033 1540 62746E00 		.ascii	"btn\000"
 7034 1544 13       		.byte	0x13
 7035 1545 0501     		.2byte	0x105
 7036 1547 CC140000 		.4byte	0x14cc
 7037 154b 0C       		.byte	0xc
 7038 154c 00       		.byte	0
 7039 154d 20       		.uleb128 0x20
 7040 154e 0C       		.byte	0xc
 7041 154f 13       		.byte	0x13
 7042 1550 0A01     		.2byte	0x10a
 7043 1552 7C150000 		.4byte	0x157c
 7044 1556 1E       		.uleb128 0x1e
 7045 1557 626700   		.ascii	"bg\000"
 7046 155a 13       		.byte	0x13
 7047 155b 0C01     		.2byte	0x10c
 7048 155d 54050000 		.4byte	0x554
 7049 1561 00       		.byte	0
 7050 1562 1E       		.uleb128 0x1e
 7051 1563 73656C00 		.ascii	"sel\000"
 7052 1567 13       		.byte	0x13
 7053 1568 0D01     		.2byte	0x10d
 7054 156a 54050000 		.4byte	0x554
 7055 156e 04       		.byte	0x4
 7056 156f 1E       		.uleb128 0x1e
 7057 1570 736200   		.ascii	"sb\000"
 7058 1573 13       		.byte	0x13
 7059 1574 0E01     		.2byte	0x10e
 7060 1576 54050000 		.4byte	0x554
 7061 157a 08       		.byte	0x8
ARM GAS  C:\Users\tmj32\AppData\Local\Temp\cc0vWRpX.s 			page 147


 7062 157b 00       		.byte	0
 7063 157c 20       		.uleb128 0x20
 7064 157d 08       		.byte	0x8
 7065 157e 13       		.byte	0x13
 7066 157f 1301     		.2byte	0x113
 7067 1581 9F150000 		.4byte	0x159f
 7068 1585 1E       		.uleb128 0x1e
 7069 1586 626700   		.ascii	"bg\000"
 7070 1589 13       		.byte	0x13
 7071 158a 1501     		.2byte	0x115
 7072 158c 54050000 		.4byte	0x554
 7073 1590 00       		.byte	0
 7074 1591 1E       		.uleb128 0x1e
 7075 1592 73656C00 		.ascii	"sel\000"
 7076 1596 13       		.byte	0x13
 7077 1597 1601     		.2byte	0x116
 7078 1599 54050000 		.4byte	0x554
 7079 159d 04       		.byte	0x4
 7080 159e 00       		.byte	0
 7081 159f 20       		.uleb128 0x20
 7082 15a0 14       		.byte	0x14
 7083 15a1 13       		.byte	0x13
 7084 15a2 1F01     		.2byte	0x11f
 7085 15a4 E8150000 		.4byte	0x15e8
 7086 15a8 1E       		.uleb128 0x1e
 7087 15a9 626700   		.ascii	"bg\000"
 7088 15ac 13       		.byte	0x13
 7089 15ad 2101     		.2byte	0x121
 7090 15af 54050000 		.4byte	0x554
 7091 15b3 00       		.byte	0
 7092 15b4 1E       		.uleb128 0x1e
 7093 15b5 72656C00 		.ascii	"rel\000"
 7094 15b9 13       		.byte	0x13
 7095 15ba 2201     		.2byte	0x122
 7096 15bc 54050000 		.4byte	0x554
 7097 15c0 04       		.byte	0x4
 7098 15c1 1E       		.uleb128 0x1e
 7099 15c2 707200   		.ascii	"pr\000"
 7100 15c5 13       		.byte	0x13
 7101 15c6 2301     		.2byte	0x123
 7102 15c8 54050000 		.4byte	0x554
 7103 15cc 08       		.byte	0x8
 7104 15cd 1F       		.uleb128 0x1f
 7105 15ce 8E0B0000 		.4byte	.LASF294
 7106 15d2 13       		.byte	0x13
 7107 15d3 2401     		.2byte	0x124
 7108 15d5 54050000 		.4byte	0x554
 7109 15d9 0C       		.byte	0xc
 7110 15da 1F       		.uleb128 0x1f
 7111 15db 14040000 		.4byte	.LASF295
 7112 15df 13       		.byte	0x13
 7113 15e0 2501     		.2byte	0x125
 7114 15e2 54050000 		.4byte	0x554
 7115 15e6 10       		.byte	0x10
 7116 15e7 00       		.byte	0
 7117 15e8 20       		.uleb128 0x20
 7118 15e9 1C       		.byte	0x1c
ARM GAS  C:\Users\tmj32\AppData\Local\Temp\cc0vWRpX.s 			page 148


 7119 15ea 13       		.byte	0x13
 7120 15eb 1B01     		.2byte	0x11b
 7121 15ed 18160000 		.4byte	0x1618
 7122 15f1 1E       		.uleb128 0x1e
 7123 15f2 626700   		.ascii	"bg\000"
 7124 15f5 13       		.byte	0x13
 7125 15f6 1D01     		.2byte	0x11d
 7126 15f8 54050000 		.4byte	0x554
 7127 15fc 00       		.byte	0
 7128 15fd 1F       		.uleb128 0x1f
 7129 15fe A10A0000 		.4byte	.LASF301
 7130 1602 13       		.byte	0x13
 7131 1603 1E01     		.2byte	0x11e
 7132 1605 54050000 		.4byte	0x554
 7133 1609 04       		.byte	0x4
 7134 160a 1E       		.uleb128 0x1e
 7135 160b 62746E00 		.ascii	"btn\000"
 7136 160f 13       		.byte	0x13
 7137 1610 2601     		.2byte	0x126
 7138 1612 9F150000 		.4byte	0x159f
 7139 1616 08       		.byte	0x8
 7140 1617 00       		.byte	0
 7141 1618 20       		.uleb128 0x20
 7142 1619 0C       		.byte	0xc
 7143 161a 13       		.byte	0x13
 7144 161b 2B01     		.2byte	0x12b
 7145 161d 47160000 		.4byte	0x1647
 7146 1621 1E       		.uleb128 0x1e
 7147 1622 626700   		.ascii	"bg\000"
 7148 1625 13       		.byte	0x13
 7149 1626 2D01     		.2byte	0x12d
 7150 1628 54050000 		.4byte	0x554
 7151 162c 00       		.byte	0
 7152 162d 1F       		.uleb128 0x1f
 7153 162e 31040000 		.4byte	.LASF311
 7154 1632 13       		.byte	0x13
 7155 1633 2E01     		.2byte	0x12e
 7156 1635 54050000 		.4byte	0x554
 7157 1639 04       		.byte	0x4
 7158 163a 1E       		.uleb128 0x1e
 7159 163b 736200   		.ascii	"sb\000"
 7160 163e 13       		.byte	0x13
 7161 163f 2F01     		.2byte	0x12f
 7162 1641 54050000 		.4byte	0x554
 7163 1645 08       		.byte	0x8
 7164 1646 00       		.byte	0
 7165 1647 20       		.uleb128 0x20
 7166 1648 08       		.byte	0x8
 7167 1649 13       		.byte	0x13
 7168 164a 3401     		.2byte	0x134
 7169 164c 6A160000 		.4byte	0x166a
 7170 1650 1E       		.uleb128 0x1e
 7171 1651 626700   		.ascii	"bg\000"
 7172 1654 13       		.byte	0x13
 7173 1655 3601     		.2byte	0x136
 7174 1657 54050000 		.4byte	0x554
 7175 165b 00       		.byte	0
ARM GAS  C:\Users\tmj32\AppData\Local\Temp\cc0vWRpX.s 			page 149


 7176 165c 1F       		.uleb128 0x1f
 7177 165d 65000000 		.4byte	.LASF313
 7178 1661 13       		.byte	0x13
 7179 1662 3701     		.2byte	0x137
 7180 1664 54050000 		.4byte	0x554
 7181 1668 04       		.byte	0x4
 7182 1669 00       		.byte	0
 7183 166a 20       		.uleb128 0x20
 7184 166b 08       		.byte	0x8
 7185 166c 13       		.byte	0x13
 7186 166d 4201     		.2byte	0x142
 7187 166f 8D160000 		.4byte	0x168d
 7188 1673 1E       		.uleb128 0x1e
 7189 1674 72656C00 		.ascii	"rel\000"
 7190 1678 13       		.byte	0x13
 7191 1679 4401     		.2byte	0x144
 7192 167b 54050000 		.4byte	0x554
 7193 167f 00       		.byte	0
 7194 1680 1E       		.uleb128 0x1e
 7195 1681 707200   		.ascii	"pr\000"
 7196 1684 13       		.byte	0x13
 7197 1685 4501     		.2byte	0x145
 7198 1687 54050000 		.4byte	0x554
 7199 168b 04       		.byte	0x4
 7200 168c 00       		.byte	0
 7201 168d 20       		.uleb128 0x20
 7202 168e 18       		.byte	0x18
 7203 168f 13       		.byte	0x13
 7204 1690 3C01     		.2byte	0x13c
 7205 1692 D6160000 		.4byte	0x16d6
 7206 1696 1E       		.uleb128 0x1e
 7207 1697 626700   		.ascii	"bg\000"
 7208 169a 13       		.byte	0x13
 7209 169b 3E01     		.2byte	0x13e
 7210 169d 54050000 		.4byte	0x554
 7211 16a1 00       		.byte	0
 7212 16a2 1E       		.uleb128 0x1e
 7213 16a3 736200   		.ascii	"sb\000"
 7214 16a6 13       		.byte	0x13
 7215 16a7 3F01     		.2byte	0x13f
 7216 16a9 54050000 		.4byte	0x554
 7217 16ad 04       		.byte	0x4
 7218 16ae 1F       		.uleb128 0x1f
 7219 16af 02050000 		.4byte	.LASF305
 7220 16b3 13       		.byte	0x13
 7221 16b4 4001     		.2byte	0x140
 7222 16b6 54050000 		.4byte	0x554
 7223 16ba 08       		.byte	0x8
 7224 16bb 1F       		.uleb128 0x1f
 7225 16bc D6130000 		.4byte	.LASF314
 7226 16c0 13       		.byte	0x13
 7227 16c1 4101     		.2byte	0x141
 7228 16c3 54050000 		.4byte	0x554
 7229 16c7 0C       		.byte	0xc
 7230 16c8 1E       		.uleb128 0x1e
 7231 16c9 62746E00 		.ascii	"btn\000"
 7232 16cd 13       		.byte	0x13
ARM GAS  C:\Users\tmj32\AppData\Local\Temp\cc0vWRpX.s 			page 150


 7233 16ce 4601     		.2byte	0x146
 7234 16d0 6A160000 		.4byte	0x166a
 7235 16d4 10       		.byte	0x10
 7236 16d5 00       		.byte	0
 7237 16d6 21       		.uleb128 0x21
 7238 16d7 A801     		.2byte	0x1a8
 7239 16d9 13       		.byte	0x13
 7240 16da 29       		.byte	0x29
 7241 16db 78180000 		.4byte	0x1878
 7242 16df 08       		.uleb128 0x8
 7243 16e0 73637200 		.ascii	"scr\000"
 7244 16e4 13       		.byte	0x13
 7245 16e5 2B       		.byte	0x2b
 7246 16e6 54050000 		.4byte	0x554
 7247 16ea 00       		.byte	0
 7248 16eb 08       		.uleb128 0x8
 7249 16ec 626700   		.ascii	"bg\000"
 7250 16ef 13       		.byte	0x13
 7251 16f0 2C       		.byte	0x2c
 7252 16f1 54050000 		.4byte	0x554
 7253 16f5 04       		.byte	0x4
 7254 16f6 07       		.uleb128 0x7
 7255 16f7 3F110000 		.4byte	.LASF315
 7256 16fb 13       		.byte	0x13
 7257 16fc 2D       		.byte	0x2d
 7258 16fd 54050000 		.4byte	0x554
 7259 1701 08       		.byte	0x8
 7260 1702 07       		.uleb128 0x7
 7261 1703 66020000 		.4byte	.LASF316
 7262 1707 13       		.byte	0x13
 7263 1708 30       		.byte	0x30
 7264 1709 54050000 		.4byte	0x554
 7265 170d 0C       		.byte	0xc
 7266 170e 08       		.uleb128 0x8
 7267 170f 62746E00 		.ascii	"btn\000"
 7268 1713 13       		.byte	0x13
 7269 1714 3B       		.byte	0x3b
 7270 1715 F0100000 		.4byte	0x10f0
 7271 1719 10       		.byte	0x10
 7272 171a 07       		.uleb128 0x7
 7273 171b 19110000 		.4byte	.LASF317
 7274 171f 13       		.byte	0x13
 7275 1720 46       		.byte	0x46
 7276 1721 34110000 		.4byte	0x1134
 7277 1725 24       		.byte	0x24
 7278 1726 07       		.uleb128 0x7
 7279 1727 D0140000 		.4byte	.LASF318
 7280 172b 13       		.byte	0x13
 7281 172c 4F       		.byte	0x4f
 7282 172d 78110000 		.4byte	0x1178
 7283 1731 38       		.byte	0x38
 7284 1732 08       		.uleb128 0x8
 7285 1733 696D6700 		.ascii	"img\000"
 7286 1737 13       		.byte	0x13
 7287 1738 57       		.byte	0x57
 7288 1739 A5110000 		.4byte	0x11a5
 7289 173d 44       		.byte	0x44
ARM GAS  C:\Users\tmj32\AppData\Local\Temp\cc0vWRpX.s 			page 151


 7290 173e 07       		.uleb128 0x7
 7291 173f 86080000 		.4byte	.LASF73
 7292 1743 13       		.byte	0x13
 7293 1744 5E       		.byte	0x5e
 7294 1745 C6110000 		.4byte	0x11c6
 7295 1749 4C       		.byte	0x4c
 7296 174a 08       		.uleb128 0x8
 7297 174b 6C656400 		.ascii	"led\000"
 7298 174f 13       		.byte	0x13
 7299 1750 62       		.byte	0x62
 7300 1751 54050000 		.4byte	0x554
 7301 1755 50       		.byte	0x50
 7302 1756 08       		.uleb128 0x8
 7303 1757 62617200 		.ascii	"bar\000"
 7304 175b 13       		.byte	0x13
 7305 175c 6A       		.byte	0x6a
 7306 175d DB110000 		.4byte	0x11db
 7307 1761 54       		.byte	0x54
 7308 1762 07       		.uleb128 0x7
 7309 1763 AF080000 		.4byte	.LASF319
 7310 1767 13       		.byte	0x13
 7311 1768 73       		.byte	0x73
 7312 1769 FB110000 		.4byte	0x11fb
 7313 176d 5C       		.byte	0x5c
 7314 176e 07       		.uleb128 0x7
 7315 176f 1C010000 		.4byte	.LASF320
 7316 1773 13       		.byte	0x13
 7317 1774 77       		.byte	0x77
 7318 1775 54050000 		.4byte	0x554
 7319 1779 68       		.byte	0x68
 7320 177a 07       		.uleb128 0x7
 7321 177b 710C0000 		.4byte	.LASF321
 7322 177f 13       		.byte	0x13
 7323 1780 7B       		.byte	0x7b
 7324 1781 54050000 		.4byte	0x554
 7325 1785 6C       		.byte	0x6c
 7326 1786 08       		.uleb128 0x8
 7327 1787 61726300 		.ascii	"arc\000"
 7328 178b 13       		.byte	0x13
 7329 178c 7F       		.byte	0x7f
 7330 178d 54050000 		.4byte	0x554
 7331 1791 70       		.byte	0x70
 7332 1792 07       		.uleb128 0x7
 7333 1793 3C150000 		.4byte	.LASF322
 7334 1797 13       		.byte	0x13
 7335 1798 83       		.byte	0x83
 7336 1799 54050000 		.4byte	0x554
 7337 179d 74       		.byte	0x74
 7338 179e 08       		.uleb128 0x8
 7339 179f 737700   		.ascii	"sw\000"
 7340 17a2 13       		.byte	0x13
 7341 17a3 8D       		.byte	0x8d
 7342 17a4 27120000 		.4byte	0x1227
 7343 17a8 78       		.byte	0x78
 7344 17a9 07       		.uleb128 0x7
 7345 17aa 78030000 		.4byte	.LASF323
 7346 17ae 13       		.byte	0x13
ARM GAS  C:\Users\tmj32\AppData\Local\Temp\cc0vWRpX.s 			page 152


 7347 17af 91       		.byte	0x91
 7348 17b0 54050000 		.4byte	0x554
 7349 17b4 88       		.byte	0x88
 7350 17b5 07       		.uleb128 0x7
 7351 17b6 760D0000 		.4byte	.LASF324
 7352 17ba 13       		.byte	0x13
 7353 17bb 9F       		.byte	0x9f
 7354 17bc 5F120000 		.4byte	0x125f
 7355 17c0 8C       		.byte	0x8c
 7356 17c1 08       		.uleb128 0x8
 7357 17c2 636200   		.ascii	"cb\000"
 7358 17c5 13       		.byte	0x13
 7359 17c6 AE       		.byte	0xae
 7360 17c7 0B130000 		.4byte	0x130b
 7361 17cb AC       		.byte	0xac
 7362 17cc 07       		.uleb128 0x7
 7363 17cd 97030000 		.4byte	.LASF325
 7364 17d1 13       		.byte	0x13
 7365 17d2 BD       		.byte	0xbd
 7366 17d3 6F130000 		.4byte	0x136f
 7367 17d7 C4       		.byte	0xc4
 7368 17d8 08       		.uleb128 0x8
 7369 17d9 6B6200   		.ascii	"kb\000"
 7370 17dc 13       		.byte	0x13
 7371 17dd CC       		.byte	0xcc
 7372 17de D3130000 		.4byte	0x13d3
 7373 17e2 DC       		.byte	0xdc
 7374 17e3 07       		.uleb128 0x7
 7375 17e4 800B0000 		.4byte	.LASF326
 7376 17e8 13       		.byte	0x13
 7377 17e9 D9       		.byte	0xd9
 7378 17ea 1E140000 		.4byte	0x141e
 7379 17ee F4       		.byte	0xf4
 7380 17ef 18       		.uleb128 0x18
 7381 17f0 4D0C0000 		.4byte	.LASF327
 7382 17f4 13       		.byte	0x13
 7383 17f5 E2       		.byte	0xe2
 7384 17f6 3E140000 		.4byte	0x143e
 7385 17fa 0401     		.2byte	0x104
 7386 17fc 22       		.uleb128 0x22
 7387 17fd 746100   		.ascii	"ta\000"
 7388 1800 13       		.byte	0x13
 7389 1801 EC       		.byte	0xec
 7390 1802 69140000 		.4byte	0x1469
 7391 1806 1001     		.2byte	0x110
 7392 1808 18       		.uleb128 0x18
 7393 1809 10130000 		.4byte	.LASF328
 7394 180d 13       		.byte	0x13
 7395 180e F5       		.byte	0xf5
 7396 180f A1140000 		.4byte	0x14a1
 7397 1813 2001     		.2byte	0x120
 7398 1815 23       		.uleb128 0x23
 7399 1816 190C0000 		.4byte	.LASF329
 7400 181a 13       		.byte	0x13
 7401 181b 0601     		.2byte	0x106
 7402 181d 15150000 		.4byte	0x1515
 7403 1821 2C01     		.2byte	0x12c
ARM GAS  C:\Users\tmj32\AppData\Local\Temp\cc0vWRpX.s 			page 153


 7404 1823 23       		.uleb128 0x23
 7405 1824 30060000 		.4byte	.LASF330
 7406 1828 13       		.byte	0x13
 7407 1829 0F01     		.2byte	0x10f
 7408 182b 4D150000 		.4byte	0x154d
 7409 182f 4C01     		.2byte	0x14c
 7410 1831 23       		.uleb128 0x23
 7411 1832 FB150000 		.4byte	.LASF331
 7412 1836 13       		.byte	0x13
 7413 1837 1701     		.2byte	0x117
 7414 1839 7C150000 		.4byte	0x157c
 7415 183d 5801     		.2byte	0x158
 7416 183f 23       		.uleb128 0x23
 7417 1840 D10A0000 		.4byte	.LASF332
 7418 1844 13       		.byte	0x13
 7419 1845 2701     		.2byte	0x127
 7420 1847 E8150000 		.4byte	0x15e8
 7421 184b 6001     		.2byte	0x160
 7422 184d 23       		.uleb128 0x23
 7423 184e 22030000 		.4byte	.LASF333
 7424 1852 13       		.byte	0x13
 7425 1853 3001     		.2byte	0x130
 7426 1855 18160000 		.4byte	0x1618
 7427 1859 7C01     		.2byte	0x17c
 7428 185b 23       		.uleb128 0x23
 7429 185c 1E050000 		.4byte	.LASF334
 7430 1860 13       		.byte	0x13
 7431 1861 3801     		.2byte	0x138
 7432 1863 47160000 		.4byte	0x1647
 7433 1867 8801     		.2byte	0x188
 7434 1869 24       		.uleb128 0x24
 7435 186a 77696E00 		.ascii	"win\000"
 7436 186e 13       		.byte	0x13
 7437 186f 4701     		.2byte	0x147
 7438 1871 8D160000 		.4byte	0x168d
 7439 1875 9001     		.2byte	0x190
 7440 1877 00       		.byte	0
 7441 1878 21       		.uleb128 0x21
 7442 1879 A801     		.2byte	0x1a8
 7443 187b 13       		.byte	0x13
 7444 187c 27       		.byte	0x27
 7445 187d 8F180000 		.4byte	0x188f
 7446 1881 1F       		.uleb128 0x1f
 7447 1882 510D0000 		.4byte	.LASF335
 7448 1886 13       		.byte	0x13
 7449 1887 4901     		.2byte	0x149
 7450 1889 D6160000 		.4byte	0x16d6
 7451 188d 00       		.byte	0
 7452 188e 00       		.byte	0
 7453 188f 12       		.uleb128 0x12
 7454 1890 2A070000 		.4byte	.LASF336
 7455 1894 13       		.byte	0x13
 7456 1895 5401     		.2byte	0x154
 7457 1897 78180000 		.4byte	0x1878
 7458 189b 13       		.uleb128 0x13
 7459 189c 01       		.byte	0x1
 7460 189d 42000000 		.4byte	0x42
ARM GAS  C:\Users\tmj32\AppData\Local\Temp\cc0vWRpX.s 			page 154


 7461 18a1 03       		.byte	0x3
 7462 18a2 1C       		.byte	0x1c
 7463 18a3 BA180000 		.4byte	0x18ba
 7464 18a7 14       		.uleb128 0x14
 7465 18a8 82070000 		.4byte	.LASF337
 7466 18ac 00       		.byte	0
 7467 18ad 14       		.uleb128 0x14
 7468 18ae F7030000 		.4byte	.LASF338
 7469 18b2 01       		.byte	0x1
 7470 18b3 14       		.uleb128 0x14
 7471 18b4 D2120000 		.4byte	.LASF339
 7472 18b8 02       		.byte	0x2
 7473 18b9 00       		.byte	0
 7474 18ba 02       		.uleb128 0x2
 7475 18bb 01070000 		.4byte	.LASF340
 7476 18bf 03       		.byte	0x3
 7477 18c0 21       		.byte	0x21
 7478 18c1 B8000000 		.4byte	0xb8
 7479 18c5 25       		.uleb128 0x25
 7480 18c6 B1140000 		.4byte	.LASF343
 7481 18ca 01       		.byte	0x1
 7482 18cb 7C       		.byte	0x7c
 7483 18cc B8000000 		.4byte	0xb8
 7484 18d0 00000000 		.4byte	.LFB0
 7485 18d4 18000000 		.4byte	.LFE0-.LFB0
 7486 18d8 01       		.uleb128 0x1
 7487 18d9 9C       		.byte	0x9c
 7488 18da ED180000 		.4byte	0x18ed
 7489 18de 26       		.uleb128 0x26
 7490 18df C6130000 		.4byte	.LASF341
 7491 18e3 01       		.byte	0x1
 7492 18e4 7C       		.byte	0x7c
 7493 18e5 8D040000 		.4byte	0x48d
 7494 18e9 02       		.uleb128 0x2
 7495 18ea 91       		.byte	0x91
 7496 18eb 74       		.sleb128 -12
 7497 18ec 00       		.byte	0
 7498 18ed 27       		.uleb128 0x27
 7499 18ee 40050000 		.4byte	.LASF384
 7500 18f2 02       		.byte	0x2
 7501 18f3 4C       		.byte	0x4c
 7502 18f4 00000000 		.4byte	.LFB10
 7503 18f8 1C000000 		.4byte	.LFE10-.LFB10
 7504 18fc 01       		.uleb128 0x1
 7505 18fd 9C       		.byte	0x9c
 7506 18fe 1F190000 		.4byte	0x191f
 7507 1902 26       		.uleb128 0x26
 7508 1903 90110000 		.4byte	.LASF342
 7509 1907 02       		.byte	0x2
 7510 1908 4C       		.byte	0x4c
 7511 1909 82070000 		.4byte	0x782
 7512 190d 02       		.uleb128 0x2
 7513 190e 91       		.byte	0x91
 7514 190f 74       		.sleb128 -12
 7515 1910 28       		.uleb128 0x28
 7516 1911 73726300 		.ascii	"src\000"
 7517 1915 02       		.byte	0x2
ARM GAS  C:\Users\tmj32\AppData\Local\Temp\cc0vWRpX.s 			page 155


 7518 1916 4C       		.byte	0x4c
 7519 1917 5B070000 		.4byte	0x75b
 7520 191b 02       		.uleb128 0x2
 7521 191c 91       		.byte	0x91
 7522 191d 70       		.sleb128 -16
 7523 191e 00       		.byte	0
 7524 191f 25       		.uleb128 0x25
 7525 1920 59130000 		.4byte	.LASF344
 7526 1924 02       		.byte	0x2
 7527 1925 56       		.byte	0x56
 7528 1926 EF000000 		.4byte	0xef
 7529 192a 00000000 		.4byte	.LFB11
 7530 192e 2E000000 		.4byte	.LFE11-.LFB11
 7531 1932 01       		.uleb128 0x1
 7532 1933 9C       		.byte	0x9c
 7533 1934 47190000 		.4byte	0x1947
 7534 1938 26       		.uleb128 0x26
 7535 1939 48030000 		.4byte	.LASF345
 7536 193d 02       		.byte	0x2
 7537 193e 56       		.byte	0x56
 7538 193f 5B070000 		.4byte	0x75b
 7539 1943 02       		.uleb128 0x2
 7540 1944 91       		.byte	0x91
 7541 1945 74       		.sleb128 -12
 7542 1946 00       		.byte	0
 7543 1947 29       		.uleb128 0x29
 7544 1948 8A0E0000 		.4byte	.LASF358
 7545 194c 03       		.byte	0x3
 7546 194d 4C       		.byte	0x4c
 7547 194e CC190000 		.4byte	0x19cc
 7548 1952 00000000 		.4byte	.LFB31
 7549 1956 C8020000 		.4byte	.LFE31-.LFB31
 7550 195a 01       		.uleb128 0x1
 7551 195b 9C       		.byte	0x9c
 7552 195c CC190000 		.4byte	0x19cc
 7553 1960 28       		.uleb128 0x28
 7554 1961 70617200 		.ascii	"par\000"
 7555 1965 03       		.byte	0x3
 7556 1966 4C       		.byte	0x4c
 7557 1967 CC190000 		.4byte	0x19cc
 7558 196b 02       		.uleb128 0x2
 7559 196c 91       		.byte	0x91
 7560 196d 64       		.sleb128 -28
 7561 196e 26       		.uleb128 0x26
 7562 196f 0C090000 		.4byte	.LASF346
 7563 1973 03       		.byte	0x3
 7564 1974 4C       		.byte	0x4c
 7565 1975 D2190000 		.4byte	0x19d2
 7566 1979 02       		.uleb128 0x2
 7567 197a 91       		.byte	0x91
 7568 197b 60       		.sleb128 -32
 7569 197c 2A       		.uleb128 0x2a
 7570 197d A90F0000 		.4byte	.LASF347
 7571 1981 03       		.byte	0x3
 7572 1982 51       		.byte	0x51
 7573 1983 CC190000 		.4byte	0x19cc
 7574 1987 02       		.uleb128 0x2
ARM GAS  C:\Users\tmj32\AppData\Local\Temp\cc0vWRpX.s 			page 156


 7575 1988 91       		.byte	0x91
 7576 1989 74       		.sleb128 -12
 7577 198a 2B       		.uleb128 0x2b
 7578 198b 65787400 		.ascii	"ext\000"
 7579 198f 03       		.byte	0x3
 7580 1990 56       		.byte	0x56
 7581 1991 DD190000 		.4byte	0x19dd
 7582 1995 02       		.uleb128 0x2
 7583 1996 91       		.byte	0x91
 7584 1997 70       		.sleb128 -16
 7585 1998 2C       		.uleb128 0x2c
 7586 1999 EE000000 		.4byte	.LBB2
 7587 199d 12010000 		.4byte	.LBE2-.LBB2
 7588 19a1 B3190000 		.4byte	0x19b3
 7589 19a5 2B       		.uleb128 0x2b
 7590 19a6 746800   		.ascii	"th\000"
 7591 19a9 03       		.byte	0x3
 7592 19aa 7E       		.byte	0x7e
 7593 19ab E3190000 		.4byte	0x19e3
 7594 19af 02       		.uleb128 0x2
 7595 19b0 91       		.byte	0x91
 7596 19b1 6C       		.sleb128 -20
 7597 19b2 00       		.byte	0
 7598 19b3 2D       		.uleb128 0x2d
 7599 19b4 00020000 		.4byte	.LBB3
 7600 19b8 9E000000 		.4byte	.LBE3-.LBB3
 7601 19bc 2A       		.uleb128 0x2a
 7602 19bd CD130000 		.4byte	.LASF348
 7603 19c1 03       		.byte	0x3
 7604 19c2 96       		.byte	0x96
 7605 19c3 DD190000 		.4byte	0x19dd
 7606 19c7 02       		.uleb128 0x2
 7607 19c8 91       		.byte	0x91
 7608 19c9 68       		.sleb128 -24
 7609 19ca 00       		.byte	0
 7610 19cb 00       		.byte	0
 7611 19cc 0D       		.uleb128 0xd
 7612 19cd 04       		.byte	0x4
 7613 19ce 110F0000 		.4byte	0xf11
 7614 19d2 0D       		.uleb128 0xd
 7615 19d3 04       		.byte	0x4
 7616 19d4 D8190000 		.4byte	0x19d8
 7617 19d8 0E       		.uleb128 0xe
 7618 19d9 110F0000 		.4byte	0xf11
 7619 19dd 0D       		.uleb128 0xd
 7620 19de 04       		.byte	0x4
 7621 19df 1D100000 		.4byte	0x101d
 7622 19e3 0D       		.uleb128 0xd
 7623 19e4 04       		.byte	0x4
 7624 19e5 8F180000 		.4byte	0x188f
 7625 19e9 2E       		.uleb128 0x2e
 7626 19ea 0B0D0000 		.4byte	.LASF349
 7627 19ee 03       		.byte	0x3
 7628 19ef C6       		.byte	0xc6
 7629 19f0 00000000 		.4byte	.LFB32
 7630 19f4 3C000000 		.4byte	.LFE32-.LFB32
 7631 19f8 01       		.uleb128 0x1
ARM GAS  C:\Users\tmj32\AppData\Local\Temp\cc0vWRpX.s 			page 157


 7632 19f9 9C       		.byte	0x9c
 7633 19fa 291A0000 		.4byte	0x1a29
 7634 19fe 26       		.uleb128 0x26
 7635 19ff 760D0000 		.4byte	.LASF324
 7636 1a03 03       		.byte	0x3
 7637 1a04 C6       		.byte	0xc6
 7638 1a05 CC190000 		.4byte	0x19cc
 7639 1a09 02       		.uleb128 0x2
 7640 1a0a 91       		.byte	0x91
 7641 1a0b 6C       		.sleb128 -20
 7642 1a0c 26       		.uleb128 0x26
 7643 1a0d 4C070000 		.4byte	.LASF252
 7644 1a11 03       		.byte	0x3
 7645 1a12 C6       		.byte	0xc6
 7646 1a13 11100000 		.4byte	0x1011
 7647 1a17 02       		.uleb128 0x2
 7648 1a18 91       		.byte	0x91
 7649 1a19 68       		.sleb128 -24
 7650 1a1a 2B       		.uleb128 0x2b
 7651 1a1b 65787400 		.ascii	"ext\000"
 7652 1a1f 03       		.byte	0x3
 7653 1a20 CB       		.byte	0xcb
 7654 1a21 DD190000 		.4byte	0x19dd
 7655 1a25 02       		.uleb128 0x2
 7656 1a26 91       		.byte	0x91
 7657 1a27 74       		.sleb128 -12
 7658 1a28 00       		.byte	0
 7659 1a29 2E       		.uleb128 0x2e
 7660 1a2a 1F020000 		.4byte	.LASF350
 7661 1a2e 03       		.byte	0x3
 7662 1a2f D9       		.byte	0xd9
 7663 1a30 00000000 		.4byte	.LFB33
 7664 1a34 3C000000 		.4byte	.LFE33-.LFB33
 7665 1a38 01       		.uleb128 0x1
 7666 1a39 9C       		.byte	0x9c
 7667 1a3a 691A0000 		.4byte	0x1a69
 7668 1a3e 26       		.uleb128 0x26
 7669 1a3f 760D0000 		.4byte	.LASF324
 7670 1a43 03       		.byte	0x3
 7671 1a44 D9       		.byte	0xd9
 7672 1a45 CC190000 		.4byte	0x19cc
 7673 1a49 02       		.uleb128 0x2
 7674 1a4a 91       		.byte	0x91
 7675 1a4b 6C       		.sleb128 -20
 7676 1a4c 26       		.uleb128 0x26
 7677 1a4d 7F080000 		.4byte	.LASF351
 7678 1a51 03       		.byte	0x3
 7679 1a52 D9       		.byte	0xd9
 7680 1a53 11100000 		.4byte	0x1011
 7681 1a57 02       		.uleb128 0x2
 7682 1a58 91       		.byte	0x91
 7683 1a59 68       		.sleb128 -24
 7684 1a5a 2B       		.uleb128 0x2b
 7685 1a5b 65787400 		.ascii	"ext\000"
 7686 1a5f 03       		.byte	0x3
 7687 1a60 DE       		.byte	0xde
 7688 1a61 DD190000 		.4byte	0x19dd
ARM GAS  C:\Users\tmj32\AppData\Local\Temp\cc0vWRpX.s 			page 158


 7689 1a65 02       		.uleb128 0x2
 7690 1a66 91       		.byte	0x91
 7691 1a67 74       		.sleb128 -12
 7692 1a68 00       		.byte	0
 7693 1a69 2E       		.uleb128 0x2e
 7694 1a6a 23120000 		.4byte	.LASF352
 7695 1a6e 03       		.byte	0x3
 7696 1a6f ED       		.byte	0xed
 7697 1a70 00000000 		.4byte	.LFB34
 7698 1a74 30000000 		.4byte	.LFE34-.LFB34
 7699 1a78 01       		.uleb128 0x1
 7700 1a79 9C       		.byte	0x9c
 7701 1a7a B71A0000 		.4byte	0x1ab7
 7702 1a7e 26       		.uleb128 0x26
 7703 1a7f 760D0000 		.4byte	.LASF324
 7704 1a83 03       		.byte	0x3
 7705 1a84 ED       		.byte	0xed
 7706 1a85 CC190000 		.4byte	0x19cc
 7707 1a89 02       		.uleb128 0x2
 7708 1a8a 91       		.byte	0x91
 7709 1a8b 6C       		.sleb128 -20
 7710 1a8c 26       		.uleb128 0x26
 7711 1a8d EE080000 		.4byte	.LASF353
 7712 1a91 03       		.byte	0x3
 7713 1a92 ED       		.byte	0xed
 7714 1a93 11100000 		.4byte	0x1011
 7715 1a97 02       		.uleb128 0x2
 7716 1a98 91       		.byte	0x91
 7717 1a99 68       		.sleb128 -24
 7718 1a9a 26       		.uleb128 0x26
 7719 1a9b BC030000 		.4byte	.LASF354
 7720 1a9f 03       		.byte	0x3
 7721 1aa0 ED       		.byte	0xed
 7722 1aa1 CE000000 		.4byte	0xce
 7723 1aa5 02       		.uleb128 0x2
 7724 1aa6 91       		.byte	0x91
 7725 1aa7 66       		.sleb128 -26
 7726 1aa8 2B       		.uleb128 0x2b
 7727 1aa9 65787400 		.ascii	"ext\000"
 7728 1aad 03       		.byte	0x3
 7729 1aae F2       		.byte	0xf2
 7730 1aaf DD190000 		.4byte	0x19dd
 7731 1ab3 02       		.uleb128 0x2
 7732 1ab4 91       		.byte	0x91
 7733 1ab5 74       		.sleb128 -12
 7734 1ab6 00       		.byte	0
 7735 1ab7 2F       		.uleb128 0x2f
 7736 1ab8 FE0F0000 		.4byte	.LASF355
 7737 1abc 03       		.byte	0x3
 7738 1abd 0001     		.2byte	0x100
 7739 1abf 00000000 		.4byte	.LFB35
 7740 1ac3 26000000 		.4byte	.LFE35-.LFB35
 7741 1ac7 01       		.uleb128 0x1
 7742 1ac8 9C       		.byte	0x9c
 7743 1ac9 FB1A0000 		.4byte	0x1afb
 7744 1acd 30       		.uleb128 0x30
 7745 1ace 760D0000 		.4byte	.LASF324
ARM GAS  C:\Users\tmj32\AppData\Local\Temp\cc0vWRpX.s 			page 159


 7746 1ad2 03       		.byte	0x3
 7747 1ad3 0001     		.2byte	0x100
 7748 1ad5 CC190000 		.4byte	0x19cc
 7749 1ad9 02       		.uleb128 0x2
 7750 1ada 91       		.byte	0x91
 7751 1adb 6C       		.sleb128 -20
 7752 1adc 30       		.uleb128 0x30
 7753 1add 25130000 		.4byte	.LASF258
 7754 1ae1 03       		.byte	0x3
 7755 1ae2 0001     		.2byte	0x100
 7756 1ae4 17100000 		.4byte	0x1017
 7757 1ae8 02       		.uleb128 0x2
 7758 1ae9 91       		.byte	0x91
 7759 1aea 68       		.sleb128 -24
 7760 1aeb 31       		.uleb128 0x31
 7761 1aec 65787400 		.ascii	"ext\000"
 7762 1af0 03       		.byte	0x3
 7763 1af1 0501     		.2byte	0x105
 7764 1af3 DD190000 		.4byte	0x19dd
 7765 1af7 02       		.uleb128 0x2
 7766 1af8 91       		.byte	0x91
 7767 1af9 74       		.sleb128 -12
 7768 1afa 00       		.byte	0
 7769 1afb 2F       		.uleb128 0x2f
 7770 1afc 5D0A0000 		.4byte	.LASF356
 7771 1b00 03       		.byte	0x3
 7772 1b01 1101     		.2byte	0x111
 7773 1b03 00000000 		.4byte	.LFB36
 7774 1b07 26000000 		.4byte	.LFE36-.LFB36
 7775 1b0b 01       		.uleb128 0x1
 7776 1b0c 9C       		.byte	0x9c
 7777 1b0d 3F1B0000 		.4byte	0x1b3f
 7778 1b11 30       		.uleb128 0x30
 7779 1b12 760D0000 		.4byte	.LASF324
 7780 1b16 03       		.byte	0x3
 7781 1b17 1101     		.2byte	0x111
 7782 1b19 CC190000 		.4byte	0x19cc
 7783 1b1d 02       		.uleb128 0x2
 7784 1b1e 91       		.byte	0x91
 7785 1b1f 6C       		.sleb128 -20
 7786 1b20 30       		.uleb128 0x30
 7787 1b21 7E030000 		.4byte	.LASF259
 7788 1b25 03       		.byte	0x3
 7789 1b26 1101     		.2byte	0x111
 7790 1b28 17100000 		.4byte	0x1017
 7791 1b2c 02       		.uleb128 0x2
 7792 1b2d 91       		.byte	0x91
 7793 1b2e 68       		.sleb128 -24
 7794 1b2f 31       		.uleb128 0x31
 7795 1b30 65787400 		.ascii	"ext\000"
 7796 1b34 03       		.byte	0x3
 7797 1b35 1601     		.2byte	0x116
 7798 1b37 DD190000 		.4byte	0x19dd
 7799 1b3b 02       		.uleb128 0x2
 7800 1b3c 91       		.byte	0x91
 7801 1b3d 74       		.sleb128 -12
 7802 1b3e 00       		.byte	0
ARM GAS  C:\Users\tmj32\AppData\Local\Temp\cc0vWRpX.s 			page 160


 7803 1b3f 2F       		.uleb128 0x2f
 7804 1b40 CC0F0000 		.4byte	.LASF357
 7805 1b44 03       		.byte	0x3
 7806 1b45 2101     		.2byte	0x121
 7807 1b47 00000000 		.4byte	.LFB37
 7808 1b4b 94000000 		.4byte	.LFE37-.LFB37
 7809 1b4f 01       		.uleb128 0x1
 7810 1b50 9C       		.byte	0x9c
 7811 1b51 921B0000 		.4byte	0x1b92
 7812 1b55 30       		.uleb128 0x30
 7813 1b56 760D0000 		.4byte	.LASF324
 7814 1b5a 03       		.byte	0x3
 7815 1b5b 2101     		.2byte	0x121
 7816 1b5d CC190000 		.4byte	0x19cc
 7817 1b61 02       		.uleb128 0x2
 7818 1b62 91       		.byte	0x91
 7819 1b63 6C       		.sleb128 -20
 7820 1b64 30       		.uleb128 0x30
 7821 1b65 FF010000 		.4byte	.LASF51
 7822 1b69 03       		.byte	0x3
 7823 1b6a 2101     		.2byte	0x121
 7824 1b6c 65100000 		.4byte	0x1065
 7825 1b70 02       		.uleb128 0x2
 7826 1b71 91       		.byte	0x91
 7827 1b72 6B       		.sleb128 -21
 7828 1b73 30       		.uleb128 0x30
 7829 1b74 510D0000 		.4byte	.LASF335
 7830 1b78 03       		.byte	0x3
 7831 1b79 2101     		.2byte	0x121
 7832 1b7b 060F0000 		.4byte	0xf06
 7833 1b7f 02       		.uleb128 0x2
 7834 1b80 91       		.byte	0x91
 7835 1b81 64       		.sleb128 -28
 7836 1b82 31       		.uleb128 0x31
 7837 1b83 65787400 		.ascii	"ext\000"
 7838 1b87 03       		.byte	0x3
 7839 1b88 2501     		.2byte	0x125
 7840 1b8a DD190000 		.4byte	0x19dd
 7841 1b8e 02       		.uleb128 0x2
 7842 1b8f 91       		.byte	0x91
 7843 1b90 74       		.sleb128 -12
 7844 1b91 00       		.byte	0
 7845 1b92 32       		.uleb128 0x32
 7846 1b93 7A000000 		.4byte	.LASF359
 7847 1b97 03       		.byte	0x3
 7848 1b98 3E01     		.2byte	0x13e
 7849 1b9a 11100000 		.4byte	0x1011
 7850 1b9e 00000000 		.4byte	.LFB38
 7851 1ba2 1A000000 		.4byte	.LFE38-.LFB38
 7852 1ba6 01       		.uleb128 0x1
 7853 1ba7 9C       		.byte	0x9c
 7854 1ba8 CB1B0000 		.4byte	0x1bcb
 7855 1bac 30       		.uleb128 0x30
 7856 1bad 760D0000 		.4byte	.LASF324
 7857 1bb1 03       		.byte	0x3
 7858 1bb2 3E01     		.2byte	0x13e
 7859 1bb4 D2190000 		.4byte	0x19d2
ARM GAS  C:\Users\tmj32\AppData\Local\Temp\cc0vWRpX.s 			page 161


 7860 1bb8 02       		.uleb128 0x2
 7861 1bb9 91       		.byte	0x91
 7862 1bba 6C       		.sleb128 -20
 7863 1bbb 31       		.uleb128 0x31
 7864 1bbc 65787400 		.ascii	"ext\000"
 7865 1bc0 03       		.byte	0x3
 7866 1bc1 4201     		.2byte	0x142
 7867 1bc3 DD190000 		.4byte	0x19dd
 7868 1bc7 02       		.uleb128 0x2
 7869 1bc8 91       		.byte	0x91
 7870 1bc9 74       		.sleb128 -12
 7871 1bca 00       		.byte	0
 7872 1bcb 32       		.uleb128 0x32
 7873 1bcc F80A0000 		.4byte	.LASF360
 7874 1bd0 03       		.byte	0x3
 7875 1bd1 4B01     		.2byte	0x14b
 7876 1bd3 11100000 		.4byte	0x1011
 7877 1bd7 00000000 		.4byte	.LFB39
 7878 1bdb 1C000000 		.4byte	.LFE39-.LFB39
 7879 1bdf 01       		.uleb128 0x1
 7880 1be0 9C       		.byte	0x9c
 7881 1be1 041C0000 		.4byte	0x1c04
 7882 1be5 30       		.uleb128 0x30
 7883 1be6 760D0000 		.4byte	.LASF324
 7884 1bea 03       		.byte	0x3
 7885 1beb 4B01     		.2byte	0x14b
 7886 1bed D2190000 		.4byte	0x19d2
 7887 1bf1 02       		.uleb128 0x2
 7888 1bf2 91       		.byte	0x91
 7889 1bf3 6C       		.sleb128 -20
 7890 1bf4 31       		.uleb128 0x31
 7891 1bf5 65787400 		.ascii	"ext\000"
 7892 1bf9 03       		.byte	0x3
 7893 1bfa 4F01     		.2byte	0x14f
 7894 1bfc DD190000 		.4byte	0x19dd
 7895 1c00 02       		.uleb128 0x2
 7896 1c01 91       		.byte	0x91
 7897 1c02 74       		.sleb128 -12
 7898 1c03 00       		.byte	0
 7899 1c04 32       		.uleb128 0x32
 7900 1c05 3B040000 		.4byte	.LASF361
 7901 1c09 03       		.byte	0x3
 7902 1c0a 5901     		.2byte	0x159
 7903 1c0c 11100000 		.4byte	0x1011
 7904 1c10 00000000 		.4byte	.LFB40
 7905 1c14 28000000 		.4byte	.LFE40-.LFB40
 7906 1c18 01       		.uleb128 0x1
 7907 1c19 9C       		.byte	0x9c
 7908 1c1a 3D1C0000 		.4byte	0x1c3d
 7909 1c1e 30       		.uleb128 0x30
 7910 1c1f 760D0000 		.4byte	.LASF324
 7911 1c23 03       		.byte	0x3
 7912 1c24 5901     		.2byte	0x159
 7913 1c26 D2190000 		.4byte	0x19d2
 7914 1c2a 02       		.uleb128 0x2
 7915 1c2b 91       		.byte	0x91
 7916 1c2c 6C       		.sleb128 -20
ARM GAS  C:\Users\tmj32\AppData\Local\Temp\cc0vWRpX.s 			page 162


 7917 1c2d 31       		.uleb128 0x31
 7918 1c2e 65787400 		.ascii	"ext\000"
 7919 1c32 03       		.byte	0x3
 7920 1c33 5D01     		.2byte	0x15d
 7921 1c35 DD190000 		.4byte	0x19dd
 7922 1c39 02       		.uleb128 0x2
 7923 1c3a 91       		.byte	0x91
 7924 1c3b 74       		.sleb128 -12
 7925 1c3c 00       		.byte	0
 7926 1c3d 32       		.uleb128 0x32
 7927 1c3e FF140000 		.4byte	.LASF362
 7928 1c42 03       		.byte	0x3
 7929 1c43 6601     		.2byte	0x166
 7930 1c45 11100000 		.4byte	0x1011
 7931 1c49 00000000 		.4byte	.LFB41
 7932 1c4d 1C000000 		.4byte	.LFE41-.LFB41
 7933 1c51 01       		.uleb128 0x1
 7934 1c52 9C       		.byte	0x9c
 7935 1c53 761C0000 		.4byte	0x1c76
 7936 1c57 30       		.uleb128 0x30
 7937 1c58 760D0000 		.4byte	.LASF324
 7938 1c5c 03       		.byte	0x3
 7939 1c5d 6601     		.2byte	0x166
 7940 1c5f D2190000 		.4byte	0x19d2
 7941 1c63 02       		.uleb128 0x2
 7942 1c64 91       		.byte	0x91
 7943 1c65 6C       		.sleb128 -20
 7944 1c66 31       		.uleb128 0x31
 7945 1c67 65787400 		.ascii	"ext\000"
 7946 1c6b 03       		.byte	0x3
 7947 1c6c 6A01     		.2byte	0x16a
 7948 1c6e DD190000 		.4byte	0x19dd
 7949 1c72 02       		.uleb128 0x2
 7950 1c73 91       		.byte	0x91
 7951 1c74 74       		.sleb128 -12
 7952 1c75 00       		.byte	0
 7953 1c76 32       		.uleb128 0x32
 7954 1c77 BC070000 		.4byte	.LASF363
 7955 1c7b 03       		.byte	0x3
 7956 1c7c 7301     		.2byte	0x173
 7957 1c7e CE000000 		.4byte	0xce
 7958 1c82 00000000 		.4byte	.LFB42
 7959 1c86 1C000000 		.4byte	.LFE42-.LFB42
 7960 1c8a 01       		.uleb128 0x1
 7961 1c8b 9C       		.byte	0x9c
 7962 1c8c AF1C0000 		.4byte	0x1caf
 7963 1c90 30       		.uleb128 0x30
 7964 1c91 760D0000 		.4byte	.LASF324
 7965 1c95 03       		.byte	0x3
 7966 1c96 7301     		.2byte	0x173
 7967 1c98 D2190000 		.4byte	0x19d2
 7968 1c9c 02       		.uleb128 0x2
 7969 1c9d 91       		.byte	0x91
 7970 1c9e 6C       		.sleb128 -20
 7971 1c9f 31       		.uleb128 0x31
 7972 1ca0 65787400 		.ascii	"ext\000"
 7973 1ca4 03       		.byte	0x3
ARM GAS  C:\Users\tmj32\AppData\Local\Temp\cc0vWRpX.s 			page 163


 7974 1ca5 7701     		.2byte	0x177
 7975 1ca7 DD190000 		.4byte	0x19dd
 7976 1cab 02       		.uleb128 0x2
 7977 1cac 91       		.byte	0x91
 7978 1cad 74       		.sleb128 -12
 7979 1cae 00       		.byte	0
 7980 1caf 32       		.uleb128 0x32
 7981 1cb0 5F080000 		.4byte	.LASF364
 7982 1cb4 03       		.byte	0x3
 7983 1cb5 8001     		.2byte	0x180
 7984 1cb7 17100000 		.4byte	0x1017
 7985 1cbb 00000000 		.4byte	.LFB43
 7986 1cbf 1C000000 		.4byte	.LFE43-.LFB43
 7987 1cc3 01       		.uleb128 0x1
 7988 1cc4 9C       		.byte	0x9c
 7989 1cc5 E81C0000 		.4byte	0x1ce8
 7990 1cc9 30       		.uleb128 0x30
 7991 1cca 760D0000 		.4byte	.LASF324
 7992 1cce 03       		.byte	0x3
 7993 1ccf 8001     		.2byte	0x180
 7994 1cd1 D2190000 		.4byte	0x19d2
 7995 1cd5 02       		.uleb128 0x2
 7996 1cd6 91       		.byte	0x91
 7997 1cd7 6C       		.sleb128 -20
 7998 1cd8 31       		.uleb128 0x31
 7999 1cd9 65787400 		.ascii	"ext\000"
 8000 1cdd 03       		.byte	0x3
 8001 1cde 8401     		.2byte	0x184
 8002 1ce0 DD190000 		.4byte	0x19dd
 8003 1ce4 02       		.uleb128 0x2
 8004 1ce5 91       		.byte	0x91
 8005 1ce6 74       		.sleb128 -12
 8006 1ce7 00       		.byte	0
 8007 1ce8 32       		.uleb128 0x32
 8008 1ce9 54120000 		.4byte	.LASF365
 8009 1ced 03       		.byte	0x3
 8010 1cee 8D01     		.2byte	0x18d
 8011 1cf0 17100000 		.4byte	0x1017
 8012 1cf4 00000000 		.4byte	.LFB44
 8013 1cf8 1C000000 		.4byte	.LFE44-.LFB44
 8014 1cfc 01       		.uleb128 0x1
 8015 1cfd 9C       		.byte	0x9c
 8016 1cfe 211D0000 		.4byte	0x1d21
 8017 1d02 30       		.uleb128 0x30
 8018 1d03 760D0000 		.4byte	.LASF324
 8019 1d07 03       		.byte	0x3
 8020 1d08 8D01     		.2byte	0x18d
 8021 1d0a D2190000 		.4byte	0x19d2
 8022 1d0e 02       		.uleb128 0x2
 8023 1d0f 91       		.byte	0x91
 8024 1d10 6C       		.sleb128 -20
 8025 1d11 31       		.uleb128 0x31
 8026 1d12 65787400 		.ascii	"ext\000"
 8027 1d16 03       		.byte	0x3
 8028 1d17 9101     		.2byte	0x191
 8029 1d19 DD190000 		.4byte	0x19dd
 8030 1d1d 02       		.uleb128 0x2
ARM GAS  C:\Users\tmj32\AppData\Local\Temp\cc0vWRpX.s 			page 164


 8031 1d1e 91       		.byte	0x91
 8032 1d1f 74       		.sleb128 -12
 8033 1d20 00       		.byte	0
 8034 1d21 32       		.uleb128 0x32
 8035 1d22 98010000 		.4byte	.LASF366
 8036 1d26 03       		.byte	0x3
 8037 1d27 9B01     		.2byte	0x19b
 8038 1d29 060F0000 		.4byte	0xf06
 8039 1d2d 00000000 		.4byte	.LFB45
 8040 1d31 96000000 		.4byte	.LFE45-.LFB45
 8041 1d35 01       		.uleb128 0x1
 8042 1d36 9C       		.byte	0x9c
 8043 1d37 781D0000 		.4byte	0x1d78
 8044 1d3b 30       		.uleb128 0x30
 8045 1d3c 760D0000 		.4byte	.LASF324
 8046 1d40 03       		.byte	0x3
 8047 1d41 9B01     		.2byte	0x19b
 8048 1d43 D2190000 		.4byte	0x19d2
 8049 1d47 02       		.uleb128 0x2
 8050 1d48 91       		.byte	0x91
 8051 1d49 6C       		.sleb128 -20
 8052 1d4a 30       		.uleb128 0x30
 8053 1d4b FF010000 		.4byte	.LASF51
 8054 1d4f 03       		.byte	0x3
 8055 1d50 9B01     		.2byte	0x19b
 8056 1d52 65100000 		.4byte	0x1065
 8057 1d56 02       		.uleb128 0x2
 8058 1d57 91       		.byte	0x91
 8059 1d58 6B       		.sleb128 -21
 8060 1d59 33       		.uleb128 0x33
 8061 1d5a 510D0000 		.4byte	.LASF335
 8062 1d5e 03       		.byte	0x3
 8063 1d5f 9F01     		.2byte	0x19f
 8064 1d61 060F0000 		.4byte	0xf06
 8065 1d65 02       		.uleb128 0x2
 8066 1d66 91       		.byte	0x91
 8067 1d67 74       		.sleb128 -12
 8068 1d68 31       		.uleb128 0x31
 8069 1d69 65787400 		.ascii	"ext\000"
 8070 1d6d 03       		.byte	0x3
 8071 1d6e A001     		.2byte	0x1a0
 8072 1d70 DD190000 		.4byte	0x19dd
 8073 1d74 02       		.uleb128 0x2
 8074 1d75 91       		.byte	0x91
 8075 1d76 70       		.sleb128 -16
 8076 1d77 00       		.byte	0
 8077 1d78 34       		.uleb128 0x34
 8078 1d79 960B0000 		.4byte	.LASF367
 8079 1d7d 03       		.byte	0x3
 8080 1d7e C701     		.2byte	0x1c7
 8081 1d80 D5010000 		.4byte	0x1d5
 8082 1d84 00000000 		.4byte	.LFB46
 8083 1d88 74000000 		.4byte	.LFE46-.LFB46
 8084 1d8c 01       		.uleb128 0x1
 8085 1d8d 9C       		.byte	0x9c
 8086 1d8e D91D0000 		.4byte	0x1dd9
 8087 1d92 30       		.uleb128 0x30
ARM GAS  C:\Users\tmj32\AppData\Local\Temp\cc0vWRpX.s 			page 165


 8088 1d93 760D0000 		.4byte	.LASF324
 8089 1d97 03       		.byte	0x3
 8090 1d98 C701     		.2byte	0x1c7
 8091 1d9a CC190000 		.4byte	0x19cc
 8092 1d9e 02       		.uleb128 0x2
 8093 1d9f 91       		.byte	0x91
 8094 1da0 64       		.sleb128 -28
 8095 1da1 30       		.uleb128 0x30
 8096 1da2 CC0A0000 		.4byte	.LASF368
 8097 1da6 03       		.byte	0x3
 8098 1da7 C701     		.2byte	0x1c7
 8099 1da9 5B070000 		.4byte	0x75b
 8100 1dad 02       		.uleb128 0x2
 8101 1dae 91       		.byte	0x91
 8102 1daf 60       		.sleb128 -32
 8103 1db0 30       		.uleb128 0x30
 8104 1db1 BE120000 		.4byte	.LASF369
 8105 1db5 03       		.byte	0x3
 8106 1db6 C701     		.2byte	0x1c7
 8107 1db8 E30C0000 		.4byte	0xce3
 8108 1dbc 02       		.uleb128 0x2
 8109 1dbd 91       		.byte	0x91
 8110 1dbe 5F       		.sleb128 -33
 8111 1dbf 2D       		.uleb128 0x2d
 8112 1dc0 2A000000 		.4byte	.LBB4
 8113 1dc4 3C000000 		.4byte	.LBE4-.LBB4
 8114 1dc8 33       		.uleb128 0x33
 8115 1dc9 F1150000 		.4byte	.LASF142
 8116 1dcd 03       		.byte	0x3
 8117 1dce CF01     		.2byte	0x1cf
 8118 1dd0 91020000 		.4byte	0x291
 8119 1dd4 02       		.uleb128 0x2
 8120 1dd5 91       		.byte	0x91
 8121 1dd6 6F       		.sleb128 -17
 8122 1dd7 00       		.byte	0
 8123 1dd8 00       		.byte	0
 8124 1dd9 34       		.uleb128 0x34
 8125 1dda 410B0000 		.4byte	.LASF370
 8126 1dde 03       		.byte	0x3
 8127 1ddf E501     		.2byte	0x1e5
 8128 1de1 73050000 		.4byte	0x573
 8129 1de5 00000000 		.4byte	.LFB47
 8130 1de9 F8020000 		.4byte	.LFE47-.LFB47
 8131 1ded 01       		.uleb128 0x1
 8132 1dee 9C       		.byte	0x9c
 8133 1def D91E0000 		.4byte	0x1ed9
 8134 1df3 30       		.uleb128 0x30
 8135 1df4 760D0000 		.4byte	.LASF324
 8136 1df8 03       		.byte	0x3
 8137 1df9 E501     		.2byte	0x1e5
 8138 1dfb CC190000 		.4byte	0x19cc
 8139 1dff 02       		.uleb128 0x2
 8140 1e00 91       		.byte	0x91
 8141 1e01 44       		.sleb128 -60
 8142 1e02 30       		.uleb128 0x30
 8143 1e03 AE010000 		.4byte	.LASF371
 8144 1e07 03       		.byte	0x3
ARM GAS  C:\Users\tmj32\AppData\Local\Temp\cc0vWRpX.s 			page 166


 8145 1e08 E501     		.2byte	0x1e5
 8146 1e0a 4E0E0000 		.4byte	0xe4e
 8147 1e0e 02       		.uleb128 0x2
 8148 1e0f 91       		.byte	0x91
 8149 1e10 43       		.sleb128 -61
 8150 1e11 30       		.uleb128 0x30
 8151 1e12 79080000 		.4byte	.LASF372
 8152 1e16 03       		.byte	0x3
 8153 1e17 E501     		.2byte	0x1e5
 8154 1e19 FA000000 		.4byte	0xfa
 8155 1e1d 03       		.uleb128 0x3
 8156 1e1e 91       		.byte	0x91
 8157 1e1f BC7F     		.sleb128 -68
 8158 1e21 31       		.uleb128 0x31
 8159 1e22 72657300 		.ascii	"res\000"
 8160 1e26 03       		.byte	0x3
 8161 1e27 E701     		.2byte	0x1e7
 8162 1e29 73050000 		.4byte	0x573
 8163 1e2d 02       		.uleb128 0x2
 8164 1e2e 91       		.byte	0x91
 8165 1e2f 6F       		.sleb128 -17
 8166 1e30 2C       		.uleb128 0x2c
 8167 1e31 50000000 		.4byte	.LBB5
 8168 1e35 18010000 		.4byte	.LBE5-.LBB5
 8169 1e39 781E0000 		.4byte	0x1e78
 8170 1e3d 31       		.uleb128 0x31
 8171 1e3e 65787400 		.ascii	"ext\000"
 8172 1e42 03       		.byte	0x3
 8173 1e43 F101     		.2byte	0x1f1
 8174 1e45 DD190000 		.4byte	0x19dd
 8175 1e49 02       		.uleb128 0x2
 8176 1e4a 91       		.byte	0x91
 8177 1e4b 58       		.sleb128 -40
 8178 1e4c 33       		.uleb128 0x33
 8179 1e4d A0110000 		.4byte	.LASF373
 8180 1e51 03       		.byte	0x3
 8181 1e52 F201     		.2byte	0x1f2
 8182 1e54 13030000 		.4byte	0x313
 8183 1e58 02       		.uleb128 0x2
 8184 1e59 91       		.byte	0x91
 8185 1e5a 4C       		.sleb128 -52
 8186 1e5b 33       		.uleb128 0x33
 8187 1e5c 00130000 		.4byte	.LASF374
 8188 1e60 03       		.byte	0x3
 8189 1e61 F601     		.2byte	0x1f6
 8190 1e63 D91E0000 		.4byte	0x1ed9
 8191 1e67 02       		.uleb128 0x2
 8192 1e68 91       		.byte	0x91
 8193 1e69 54       		.sleb128 -44
 8194 1e6a 31       		.uleb128 0x31
 8195 1e6b 7000     		.ascii	"p\000"
 8196 1e6d 03       		.byte	0x3
 8197 1e6e F701     		.2byte	0x1f7
 8198 1e70 D3020000 		.4byte	0x2d3
 8199 1e74 02       		.uleb128 0x2
 8200 1e75 91       		.byte	0x91
 8201 1e76 48       		.sleb128 -56
ARM GAS  C:\Users\tmj32\AppData\Local\Temp\cc0vWRpX.s 			page 167


 8202 1e77 00       		.byte	0
 8203 1e78 2C       		.uleb128 0x2c
 8204 1e79 6E010000 		.4byte	.LBB6
 8205 1e7d 14000000 		.4byte	.LBE6-.LBB6
 8206 1e81 951E0000 		.4byte	0x1e95
 8207 1e85 31       		.uleb128 0x31
 8208 1e86 65787400 		.ascii	"ext\000"
 8209 1e8a 03       		.byte	0x3
 8210 1e8b 1602     		.2byte	0x216
 8211 1e8d DD190000 		.4byte	0x19dd
 8212 1e91 02       		.uleb128 0x2
 8213 1e92 91       		.byte	0x91
 8214 1e93 5C       		.sleb128 -36
 8215 1e94 00       		.byte	0
 8216 1e95 2C       		.uleb128 0x2c
 8217 1e96 8A010000 		.4byte	.LBB7
 8218 1e9a B2000000 		.4byte	.LBE7-.LBB7
 8219 1e9e B21E0000 		.4byte	0x1eb2
 8220 1ea2 31       		.uleb128 0x31
 8221 1ea3 65787400 		.ascii	"ext\000"
 8222 1ea7 03       		.byte	0x3
 8223 1ea8 1B02     		.2byte	0x21b
 8224 1eaa DD190000 		.4byte	0x19dd
 8225 1eae 02       		.uleb128 0x2
 8226 1eaf 91       		.byte	0x91
 8227 1eb0 68       		.sleb128 -24
 8228 1eb1 00       		.byte	0
 8229 1eb2 2D       		.uleb128 0x2d
 8230 1eb3 44020000 		.4byte	.LBB8
 8231 1eb7 A8000000 		.4byte	.LBE8-.LBB8
 8232 1ebb 31       		.uleb128 0x31
 8233 1ebc 6300     		.ascii	"c\000"
 8234 1ebe 03       		.byte	0x3
 8235 1ebf 3202     		.2byte	0x232
 8236 1ec1 B8000000 		.4byte	0xb8
 8237 1ec5 02       		.uleb128 0x2
 8238 1ec6 91       		.byte	0x91
 8239 1ec7 67       		.sleb128 -25
 8240 1ec8 31       		.uleb128 0x31
 8241 1ec9 65787400 		.ascii	"ext\000"
 8242 1ecd 03       		.byte	0x3
 8243 1ece 3302     		.2byte	0x233
 8244 1ed0 DD190000 		.4byte	0x19dd
 8245 1ed4 02       		.uleb128 0x2
 8246 1ed5 91       		.byte	0x91
 8247 1ed6 60       		.sleb128 -32
 8248 1ed7 00       		.byte	0
 8249 1ed8 00       		.byte	0
 8250 1ed9 0D       		.uleb128 0xd
 8251 1eda 04       		.byte	0x4
 8252 1edb B90C0000 		.4byte	0xcb9
 8253 1edf 34       		.uleb128 0x34
 8254 1ee0 3C060000 		.4byte	.LASF375
 8255 1ee4 03       		.byte	0x3
 8256 1ee5 5202     		.2byte	0x252
 8257 1ee7 D5010000 		.4byte	0x1d5
 8258 1eeb 00000000 		.4byte	.LFB48
ARM GAS  C:\Users\tmj32\AppData\Local\Temp\cc0vWRpX.s 			page 168


 8259 1eef 00030000 		.4byte	.LFE48-.LFB48
 8260 1ef3 01       		.uleb128 0x1
 8261 1ef4 9C       		.byte	0x9c
 8262 1ef5 961F0000 		.4byte	0x1f96
 8263 1ef9 30       		.uleb128 0x30
 8264 1efa 760D0000 		.4byte	.LASF324
 8265 1efe 03       		.byte	0x3
 8266 1eff 5202     		.2byte	0x252
 8267 1f01 CC190000 		.4byte	0x19cc
 8268 1f05 02       		.uleb128 0x2
 8269 1f06 91       		.byte	0x91
 8270 1f07 4C       		.sleb128 -52
 8271 1f08 30       		.uleb128 0x30
 8272 1f09 520C0000 		.4byte	.LASF376
 8273 1f0d 03       		.byte	0x3
 8274 1f0e 5202     		.2byte	0x252
 8275 1f10 AE0C0000 		.4byte	0xcae
 8276 1f14 02       		.uleb128 0x2
 8277 1f15 91       		.byte	0x91
 8278 1f16 48       		.sleb128 -56
 8279 1f17 33       		.uleb128 0x33
 8280 1f18 63110000 		.4byte	.LASF377
 8281 1f1c 03       		.byte	0x3
 8282 1f1d 5402     		.2byte	0x254
 8283 1f1f 13030000 		.4byte	0x313
 8284 1f23 02       		.uleb128 0x2
 8285 1f24 91       		.byte	0x91
 8286 1f25 54       		.sleb128 -44
 8287 1f26 33       		.uleb128 0x33
 8288 1f27 B50B0000 		.4byte	.LASF378
 8289 1f2b 03       		.byte	0x3
 8290 1f2c 5602     		.2byte	0x256
 8291 1f2e 060F0000 		.4byte	0xf06
 8292 1f32 02       		.uleb128 0x2
 8293 1f33 91       		.byte	0x91
 8294 1f34 68       		.sleb128 -24
 8295 1f35 2D       		.uleb128 0x2d
 8296 1f36 9A000000 		.4byte	.LBB9
 8297 1f3a 54020000 		.4byte	.LBE9-.LBB9
 8298 1f3e 31       		.uleb128 0x31
 8299 1f3f 7700     		.ascii	"w\000"
 8300 1f41 03       		.byte	0x3
 8301 1f42 5D02     		.2byte	0x25d
 8302 1f44 EF000000 		.4byte	0xef
 8303 1f48 02       		.uleb128 0x2
 8304 1f49 91       		.byte	0x91
 8305 1f4a 66       		.sleb128 -26
 8306 1f4b 31       		.uleb128 0x31
 8307 1f4c 6800     		.ascii	"h\000"
 8308 1f4e 03       		.byte	0x3
 8309 1f4f 5E02     		.2byte	0x25e
 8310 1f51 EF000000 		.4byte	0xef
 8311 1f55 02       		.uleb128 0x2
 8312 1f56 91       		.byte	0x91
 8313 1f57 64       		.sleb128 -28
 8314 1f58 33       		.uleb128 0x33
 8315 1f59 3B0B0000 		.4byte	.LASF379
ARM GAS  C:\Users\tmj32\AppData\Local\Temp\cc0vWRpX.s 			page 169


 8316 1f5d 03       		.byte	0x3
 8317 1f5e 5F02     		.2byte	0x25f
 8318 1f60 B8000000 		.4byte	0xb8
 8319 1f64 02       		.uleb128 0x2
 8320 1f65 91       		.byte	0x91
 8321 1f66 6F       		.sleb128 -17
 8322 1f67 33       		.uleb128 0x33
 8323 1f68 FC070000 		.4byte	.LASF380
 8324 1f6c 03       		.byte	0x3
 8325 1f6d 6202     		.2byte	0x262
 8326 1f6f B8000000 		.4byte	0xb8
 8327 1f73 02       		.uleb128 0x2
 8328 1f74 91       		.byte	0x91
 8329 1f75 6E       		.sleb128 -18
 8330 1f76 33       		.uleb128 0x33
 8331 1f77 610B0000 		.4byte	.LASF381
 8332 1f7b 03       		.byte	0x3
 8333 1f7c 6602     		.2byte	0x266
 8334 1f7e B8000000 		.4byte	0xb8
 8335 1f82 02       		.uleb128 0x2
 8336 1f83 91       		.byte	0x91
 8337 1f84 63       		.sleb128 -29
 8338 1f85 31       		.uleb128 0x31
 8339 1f86 65787400 		.ascii	"ext\000"
 8340 1f8a 03       		.byte	0x3
 8341 1f8b 6802     		.2byte	0x268
 8342 1f8d DD190000 		.4byte	0x19dd
 8343 1f91 02       		.uleb128 0x2
 8344 1f92 91       		.byte	0x91
 8345 1f93 5C       		.sleb128 -36
 8346 1f94 00       		.byte	0
 8347 1f95 00       		.byte	0
 8348 1f96 34       		.uleb128 0x34
 8349 1f97 1E0C0000 		.4byte	.LASF382
 8350 1f9b 03       		.byte	0x3
 8351 1f9c 8402     		.2byte	0x284
 8352 1f9e EF000000 		.4byte	0xef
 8353 1fa2 00000000 		.4byte	.LFB49
 8354 1fa6 46000000 		.4byte	.LFE49-.LFB49
 8355 1faa 01       		.uleb128 0x1
 8356 1fab 9C       		.byte	0x9c
 8357 1fac CF1F0000 		.4byte	0x1fcf
 8358 1fb0 30       		.uleb128 0x30
 8359 1fb1 760D0000 		.4byte	.LASF324
 8360 1fb5 03       		.byte	0x3
 8361 1fb6 8402     		.2byte	0x284
 8362 1fb8 CC190000 		.4byte	0x19cc
 8363 1fbc 02       		.uleb128 0x2
 8364 1fbd 91       		.byte	0x91
 8365 1fbe 6C       		.sleb128 -20
 8366 1fbf 31       		.uleb128 0x31
 8367 1fc0 65787400 		.ascii	"ext\000"
 8368 1fc4 03       		.byte	0x3
 8369 1fc5 8602     		.2byte	0x286
 8370 1fc7 DD190000 		.4byte	0x19dd
 8371 1fcb 02       		.uleb128 0x2
 8372 1fcc 91       		.byte	0x91
ARM GAS  C:\Users\tmj32\AppData\Local\Temp\cc0vWRpX.s 			page 170


 8373 1fcd 74       		.sleb128 -12
 8374 1fce 00       		.byte	0
 8375 1fcf 34       		.uleb128 0x34
 8376 1fd0 A9120000 		.4byte	.LASF383
 8377 1fd4 03       		.byte	0x3
 8378 1fd5 9102     		.2byte	0x291
 8379 1fd7 EF000000 		.4byte	0xef
 8380 1fdb 00000000 		.4byte	.LFB50
 8381 1fdf 46000000 		.4byte	.LFE50-.LFB50
 8382 1fe3 01       		.uleb128 0x1
 8383 1fe4 9C       		.byte	0x9c
 8384 1fe5 08200000 		.4byte	0x2008
 8385 1fe9 30       		.uleb128 0x30
 8386 1fea 760D0000 		.4byte	.LASF324
 8387 1fee 03       		.byte	0x3
 8388 1fef 9102     		.2byte	0x291
 8389 1ff1 CC190000 		.4byte	0x19cc
 8390 1ff5 02       		.uleb128 0x2
 8391 1ff6 91       		.byte	0x91
 8392 1ff7 6C       		.sleb128 -20
 8393 1ff8 31       		.uleb128 0x31
 8394 1ff9 65787400 		.ascii	"ext\000"
 8395 1ffd 03       		.byte	0x3
 8396 1ffe 9302     		.2byte	0x293
 8397 2000 DD190000 		.4byte	0x19dd
 8398 2004 02       		.uleb128 0x2
 8399 2005 91       		.byte	0x91
 8400 2006 74       		.sleb128 -12
 8401 2007 00       		.byte	0
 8402 2008 35       		.uleb128 0x35
 8403 2009 9C030000 		.4byte	.LASF385
 8404 200d 03       		.byte	0x3
 8405 200e 9E02     		.2byte	0x29e
 8406 2010 00000000 		.4byte	.LFB51
 8407 2014 E0010000 		.4byte	.LFE51-.LFB51
 8408 2018 01       		.uleb128 0x1
 8409 2019 9C       		.byte	0x9c
 8410 201a 9A200000 		.4byte	0x209a
 8411 201e 30       		.uleb128 0x30
 8412 201f 760D0000 		.4byte	.LASF324
 8413 2023 03       		.byte	0x3
 8414 2024 9E02     		.2byte	0x29e
 8415 2026 CC190000 		.4byte	0x19cc
 8416 202a 03       		.uleb128 0x3
 8417 202b 91       		.byte	0x91
 8418 202c 947F     		.sleb128 -108
 8419 202e 30       		.uleb128 0x30
 8420 202f CC0A0000 		.4byte	.LASF368
 8421 2033 03       		.byte	0x3
 8422 2034 9E02     		.2byte	0x29e
 8423 2036 5B070000 		.4byte	0x75b
 8424 203a 03       		.uleb128 0x3
 8425 203b 91       		.byte	0x91
 8426 203c 907F     		.sleb128 -112
 8427 203e 31       		.uleb128 0x31
 8428 203f 65787400 		.ascii	"ext\000"
 8429 2043 03       		.byte	0x3
ARM GAS  C:\Users\tmj32\AppData\Local\Temp\cc0vWRpX.s 			page 171


 8430 2044 A002     		.2byte	0x2a0
 8431 2046 DD190000 		.4byte	0x19dd
 8432 204a 02       		.uleb128 0x2
 8433 204b 91       		.byte	0x91
 8434 204c 6C       		.sleb128 -20
 8435 204d 33       		.uleb128 0x33
 8436 204e 58010000 		.4byte	.LASF386
 8437 2052 03       		.byte	0x3
 8438 2053 A202     		.2byte	0x2a2
 8439 2055 C7050000 		.4byte	0x5c7
 8440 2059 02       		.uleb128 0x2
 8441 205a 91       		.byte	0x91
 8442 205b 6B       		.sleb128 -21
 8443 205c 33       		.uleb128 0x33
 8444 205d F1150000 		.4byte	.LASF142
 8445 2061 03       		.byte	0x3
 8446 2062 A402     		.2byte	0x2a4
 8447 2064 91020000 		.4byte	0x291
 8448 2068 02       		.uleb128 0x2
 8449 2069 91       		.byte	0x91
 8450 206a 6A       		.sleb128 -22
 8451 206b 33       		.uleb128 0x33
 8452 206c A0110000 		.4byte	.LASF373
 8453 2070 03       		.byte	0x3
 8454 2071 A602     		.2byte	0x2a6
 8455 2073 13030000 		.4byte	0x313
 8456 2077 02       		.uleb128 0x2
 8457 2078 91       		.byte	0x91
 8458 2079 5C       		.sleb128 -36
 8459 207a 33       		.uleb128 0x33
 8460 207b 6E0D0000 		.4byte	.LASF387
 8461 207f 03       		.byte	0x3
 8462 2080 AF02     		.2byte	0x2af
 8463 2082 9A200000 		.4byte	0x209a
 8464 2086 03       		.uleb128 0x3
 8465 2087 91       		.byte	0x91
 8466 2088 9C7F     		.sleb128 -100
 8467 208a 33       		.uleb128 0x33
 8468 208b E7070000 		.4byte	.LASF388
 8469 208f 03       		.byte	0x3
 8470 2090 B802     		.2byte	0x2b8
 8471 2092 060F0000 		.4byte	0xf06
 8472 2096 02       		.uleb128 0x2
 8473 2097 91       		.byte	0x91
 8474 2098 64       		.sleb128 -28
 8475 2099 00       		.byte	0
 8476 209a 1B       		.uleb128 0x1b
 8477 209b A4020000 		.4byte	0x2a4
 8478 209f AA200000 		.4byte	0x20aa
 8479 20a3 1C       		.uleb128 0x1c
 8480 20a4 9D020000 		.4byte	0x29d
 8481 20a8 3F       		.byte	0x3f
 8482 20a9 00       		.byte	0
 8483 20aa 35       		.uleb128 0x35
 8484 20ab 7B0E0000 		.4byte	.LASF389
 8485 20af 03       		.byte	0x3
 8486 20b0 C902     		.2byte	0x2c9
ARM GAS  C:\Users\tmj32\AppData\Local\Temp\cc0vWRpX.s 			page 172


 8487 20b2 00000000 		.4byte	.LFB52
 8488 20b6 50010000 		.4byte	.LFE52-.LFB52
 8489 20ba 01       		.uleb128 0x1
 8490 20bb 9C       		.byte	0x9c
 8491 20bc 53210000 		.4byte	0x2153
 8492 20c0 30       		.uleb128 0x30
 8493 20c1 760D0000 		.4byte	.LASF324
 8494 20c5 03       		.byte	0x3
 8495 20c6 C902     		.2byte	0x2c9
 8496 20c8 CC190000 		.4byte	0x19cc
 8497 20cc 02       		.uleb128 0x2
 8498 20cd 91       		.byte	0x91
 8499 20ce 54       		.sleb128 -44
 8500 20cf 30       		.uleb128 0x30
 8501 20d0 CC0A0000 		.4byte	.LASF368
 8502 20d4 03       		.byte	0x3
 8503 20d5 C902     		.2byte	0x2c9
 8504 20d7 5B070000 		.4byte	0x75b
 8505 20db 02       		.uleb128 0x2
 8506 20dc 91       		.byte	0x91
 8507 20dd 50       		.sleb128 -48
 8508 20de 31       		.uleb128 0x31
 8509 20df 65787400 		.ascii	"ext\000"
 8510 20e3 03       		.byte	0x3
 8511 20e4 CB02     		.2byte	0x2cb
 8512 20e6 DD190000 		.4byte	0x19dd
 8513 20ea 02       		.uleb128 0x2
 8514 20eb 91       		.byte	0x91
 8515 20ec 68       		.sleb128 -24
 8516 20ed 33       		.uleb128 0x33
 8517 20ee 58010000 		.4byte	.LASF386
 8518 20f2 03       		.byte	0x3
 8519 20f3 CC02     		.2byte	0x2cc
 8520 20f5 C7050000 		.4byte	0x5c7
 8521 20f9 02       		.uleb128 0x2
 8522 20fa 91       		.byte	0x91
 8523 20fb 67       		.sleb128 -25
 8524 20fc 33       		.uleb128 0x33
 8525 20fd F1150000 		.4byte	.LASF142
 8526 2101 03       		.byte	0x3
 8527 2102 CD02     		.2byte	0x2cd
 8528 2104 91020000 		.4byte	0x291
 8529 2108 02       		.uleb128 0x2
 8530 2109 91       		.byte	0x91
 8531 210a 66       		.sleb128 -26
 8532 210b 33       		.uleb128 0x33
 8533 210c BA0C0000 		.4byte	.LASF390
 8534 2110 03       		.byte	0x3
 8535 2111 CF02     		.2byte	0x2cf
 8536 2113 EF000000 		.4byte	0xef
 8537 2117 02       		.uleb128 0x2
 8538 2118 91       		.byte	0x91
 8539 2119 64       		.sleb128 -28
 8540 211a 31       		.uleb128 0x31
 8541 211b 7700     		.ascii	"w\000"
 8542 211d 03       		.byte	0x3
 8543 211e D002     		.2byte	0x2d0
ARM GAS  C:\Users\tmj32\AppData\Local\Temp\cc0vWRpX.s 			page 173


 8544 2120 EF000000 		.4byte	0xef
 8545 2124 02       		.uleb128 0x2
 8546 2125 91       		.byte	0x91
 8547 2126 62       		.sleb128 -30
 8548 2127 33       		.uleb128 0x33
 8549 2128 81120000 		.4byte	.LASF24
 8550 212c 03       		.byte	0x3
 8551 212d D202     		.2byte	0x2d2
 8552 212f EF000000 		.4byte	0xef
 8553 2133 02       		.uleb128 0x2
 8554 2134 91       		.byte	0x91
 8555 2135 60       		.sleb128 -32
 8556 2136 33       		.uleb128 0x33
 8557 2137 74060000 		.4byte	.LASF391
 8558 213b 03       		.byte	0x3
 8559 213c D302     		.2byte	0x2d3
 8560 213e 13030000 		.4byte	0x313
 8561 2142 02       		.uleb128 0x2
 8562 2143 91       		.byte	0x91
 8563 2144 58       		.sleb128 -40
 8564 2145 31       		.uleb128 0x31
 8565 2146 6900     		.ascii	"i\000"
 8566 2148 03       		.byte	0x3
 8567 2149 D602     		.2byte	0x2d6
 8568 214b E4000000 		.4byte	0xe4
 8569 214f 02       		.uleb128 0x2
 8570 2150 91       		.byte	0x91
 8571 2151 6C       		.sleb128 -20
 8572 2152 00       		.byte	0
 8573 2153 35       		.uleb128 0x35
 8574 2154 2B140000 		.4byte	.LASF392
 8575 2158 03       		.byte	0x3
 8576 2159 E402     		.2byte	0x2e4
 8577 215b 00000000 		.4byte	.LFB53
 8578 215f B0050000 		.4byte	.LFE53-.LFB53
 8579 2163 01       		.uleb128 0x1
 8580 2164 9C       		.byte	0x9c
 8581 2165 F1220000 		.4byte	0x22f1
 8582 2169 30       		.uleb128 0x30
 8583 216a 760D0000 		.4byte	.LASF324
 8584 216e 03       		.byte	0x3
 8585 216f E402     		.2byte	0x2e4
 8586 2171 CC190000 		.4byte	0x19cc
 8587 2175 03       		.uleb128 0x3
 8588 2176 91       		.byte	0x91
 8589 2177 9C7F     		.sleb128 -100
 8590 2179 30       		.uleb128 0x30
 8591 217a CC0A0000 		.4byte	.LASF368
 8592 217e 03       		.byte	0x3
 8593 217f E402     		.2byte	0x2e4
 8594 2181 5B070000 		.4byte	0x75b
 8595 2185 03       		.uleb128 0x3
 8596 2186 91       		.byte	0x91
 8597 2187 987F     		.sleb128 -104
 8598 2189 31       		.uleb128 0x31
 8599 218a 65787400 		.ascii	"ext\000"
 8600 218e 03       		.byte	0x3
ARM GAS  C:\Users\tmj32\AppData\Local\Temp\cc0vWRpX.s 			page 174


 8601 218f E602     		.2byte	0x2e6
 8602 2191 DD190000 		.4byte	0x19dd
 8603 2195 02       		.uleb128 0x2
 8604 2196 91       		.byte	0x91
 8605 2197 54       		.sleb128 -44
 8606 2198 33       		.uleb128 0x33
 8607 2199 58010000 		.4byte	.LASF386
 8608 219d 03       		.byte	0x3
 8609 219e E702     		.2byte	0x2e7
 8610 21a0 C7050000 		.4byte	0x5c7
 8611 21a4 02       		.uleb128 0x2
 8612 21a5 91       		.byte	0x91
 8613 21a6 53       		.sleb128 -45
 8614 21a7 33       		.uleb128 0x33
 8615 21a8 B50B0000 		.4byte	.LASF378
 8616 21ac 03       		.byte	0x3
 8617 21ad E802     		.2byte	0x2e8
 8618 21af 060F0000 		.4byte	0xf06
 8619 21b3 02       		.uleb128 0x2
 8620 21b4 91       		.byte	0x91
 8621 21b5 4C       		.sleb128 -52
 8622 21b6 33       		.uleb128 0x33
 8623 21b7 74060000 		.4byte	.LASF391
 8624 21bb 03       		.byte	0x3
 8625 21bc E902     		.2byte	0x2e9
 8626 21be 13030000 		.4byte	0x313
 8627 21c2 03       		.uleb128 0x3
 8628 21c3 91       		.byte	0x91
 8629 21c4 B87F     		.sleb128 -72
 8630 21c6 33       		.uleb128 0x33
 8631 21c7 F1150000 		.4byte	.LASF142
 8632 21cb 03       		.byte	0x3
 8633 21cc EA02     		.2byte	0x2ea
 8634 21ce 91020000 		.4byte	0x291
 8635 21d2 02       		.uleb128 0x2
 8636 21d3 91       		.byte	0x91
 8637 21d4 4B       		.sleb128 -53
 8638 21d5 31       		.uleb128 0x31
 8639 21d6 7700     		.ascii	"w\000"
 8640 21d8 03       		.byte	0x3
 8641 21d9 F002     		.2byte	0x2f0
 8642 21db EF000000 		.4byte	0xef
 8643 21df 02       		.uleb128 0x2
 8644 21e0 91       		.byte	0x91
 8645 21e1 48       		.sleb128 -56
 8646 21e2 31       		.uleb128 0x31
 8647 21e3 6800     		.ascii	"h\000"
 8648 21e5 03       		.byte	0x3
 8649 21e6 F102     		.2byte	0x2f1
 8650 21e8 EF000000 		.4byte	0xef
 8651 21ec 02       		.uleb128 0x2
 8652 21ed 91       		.byte	0x91
 8653 21ee 46       		.sleb128 -58
 8654 21ef 33       		.uleb128 0x33
 8655 21f0 81120000 		.4byte	.LASF24
 8656 21f4 03       		.byte	0x3
 8657 21f5 F202     		.2byte	0x2f2
ARM GAS  C:\Users\tmj32\AppData\Local\Temp\cc0vWRpX.s 			page 175


 8658 21f7 EF000000 		.4byte	0xef
 8659 21fb 02       		.uleb128 0x2
 8660 21fc 91       		.byte	0x91
 8661 21fd 44       		.sleb128 -60
 8662 21fe 33       		.uleb128 0x33
 8663 21ff 670F0000 		.4byte	.LASF393
 8664 2203 03       		.byte	0x3
 8665 2204 F302     		.2byte	0x2f3
 8666 2206 EF000000 		.4byte	0xef
 8667 220a 02       		.uleb128 0x2
 8668 220b 91       		.byte	0x91
 8669 220c 42       		.sleb128 -62
 8670 220d 33       		.uleb128 0x33
 8671 220e 1B040000 		.4byte	.LASF394
 8672 2212 03       		.byte	0x3
 8673 2213 F502     		.2byte	0x2f5
 8674 2215 E4000000 		.4byte	0xe4
 8675 2219 02       		.uleb128 0x2
 8676 221a 91       		.byte	0x91
 8677 221b 6C       		.sleb128 -20
 8678 221c 33       		.uleb128 0x33
 8679 221d BD050000 		.4byte	.LASF395
 8680 2221 03       		.byte	0x3
 8681 2222 F602     		.2byte	0x2f6
 8682 2224 B8000000 		.4byte	0xb8
 8683 2228 02       		.uleb128 0x2
 8684 2229 91       		.byte	0x91
 8685 222a 6B       		.sleb128 -21
 8686 222b 33       		.uleb128 0x33
 8687 222c 6A000000 		.4byte	.LASF396
 8688 2230 03       		.byte	0x3
 8689 2231 F702     		.2byte	0x2f7
 8690 2233 B8000000 		.4byte	0xb8
 8691 2237 02       		.uleb128 0x2
 8692 2238 91       		.byte	0x91
 8693 2239 41       		.sleb128 -63
 8694 223a 33       		.uleb128 0x33
 8695 223b 8B080000 		.4byte	.LASF397
 8696 223f 03       		.byte	0x3
 8697 2240 F802     		.2byte	0x2f8
 8698 2242 BA180000 		.4byte	0x18ba
 8699 2246 02       		.uleb128 0x2
 8700 2247 91       		.byte	0x91
 8701 2248 6A       		.sleb128 -22
 8702 2249 33       		.uleb128 0x33
 8703 224a 4C0E0000 		.4byte	.LASF398
 8704 224e 03       		.byte	0x3
 8705 224f F902     		.2byte	0x2f9
 8706 2251 060F0000 		.4byte	0xf06
 8707 2255 02       		.uleb128 0x2
 8708 2256 91       		.byte	0x91
 8709 2257 64       		.sleb128 -28
 8710 2258 33       		.uleb128 0x33
 8711 2259 3B020000 		.4byte	.LASF399
 8712 225d 03       		.byte	0x3
 8713 225e 0703     		.2byte	0x307
 8714 2260 D5010000 		.4byte	0x1d5
ARM GAS  C:\Users\tmj32\AppData\Local\Temp\cc0vWRpX.s 			page 176


 8715 2264 02       		.uleb128 0x2
 8716 2265 91       		.byte	0x91
 8717 2266 63       		.sleb128 -29
 8718 2267 31       		.uleb128 0x31
 8719 2268 62756600 		.ascii	"buf\000"
 8720 226c 03       		.byte	0x3
 8721 226d 0C03     		.2byte	0x30c
 8722 226f F1220000 		.4byte	0x22f1
 8723 2273 03       		.uleb128 0x3
 8724 2274 91       		.byte	0x91
 8725 2275 B47F     		.sleb128 -76
 8726 2277 33       		.uleb128 0x33
 8727 2278 05010000 		.4byte	.LASF400
 8728 227c 03       		.byte	0x3
 8729 227d 0D03     		.2byte	0x30d
 8730 227f D5010000 		.4byte	0x1d5
 8731 2283 02       		.uleb128 0x2
 8732 2284 91       		.byte	0x91
 8733 2285 62       		.sleb128 -30
 8734 2286 2D       		.uleb128 0x2d
 8735 2287 BE010000 		.4byte	.LBB10
 8736 228b D8030000 		.4byte	.LBE10-.LBB10
 8737 228f 31       		.uleb128 0x31
 8738 2290 64617900 		.ascii	"day\000"
 8739 2294 03       		.byte	0x3
 8740 2295 2703     		.2byte	0x327
 8741 2297 E4000000 		.4byte	0xe4
 8742 229b 02       		.uleb128 0x2
 8743 229c 91       		.byte	0x91
 8744 229d 5C       		.sleb128 -36
 8745 229e 2C       		.uleb128 0x2c
 8746 229f 12020000 		.4byte	.LBB11
 8747 22a3 A4000000 		.4byte	.LBE11-.LBB11
 8748 22a7 BC220000 		.4byte	0x22bc
 8749 22ab 33       		.uleb128 0x33
 8750 22ac 14030000 		.4byte	.LASF401
 8751 22b0 03       		.byte	0x3
 8752 22b1 1603     		.2byte	0x316
 8753 22b3 13030000 		.4byte	0x313
 8754 22b7 03       		.uleb128 0x3
 8755 22b8 91       		.byte	0x91
 8756 22b9 AC7F     		.sleb128 -84
 8757 22bb 00       		.byte	0
 8758 22bc 2D       		.uleb128 0x2d
 8759 22bd CC020000 		.4byte	.LBB12
 8760 22c1 78020000 		.4byte	.LBE12-.LBB12
 8761 22c5 33       		.uleb128 0x33
 8762 22c6 A90B0000 		.4byte	.LASF402
 8763 22ca 03       		.byte	0x3
 8764 22cb 4803     		.2byte	0x348
 8765 22cd 060F0000 		.4byte	0xf06
 8766 22d1 02       		.uleb128 0x2
 8767 22d2 91       		.byte	0x91
 8768 22d3 58       		.sleb128 -40
 8769 22d4 2D       		.uleb128 0x2d
 8770 22d5 92030000 		.4byte	.LBB13
 8771 22d9 5E000000 		.4byte	.LBE13-.LBB13
ARM GAS  C:\Users\tmj32\AppData\Local\Temp\cc0vWRpX.s 			page 177


 8772 22dd 33       		.uleb128 0x33
 8773 22de 10060000 		.4byte	.LASF403
 8774 22e2 03       		.byte	0x3
 8775 22e3 3D03     		.2byte	0x33d
 8776 22e5 13030000 		.4byte	0x313
 8777 22e9 03       		.uleb128 0x3
 8778 22ea 91       		.byte	0x91
 8779 22eb A47F     		.sleb128 -92
 8780 22ed 00       		.byte	0
 8781 22ee 00       		.byte	0
 8782 22ef 00       		.byte	0
 8783 22f0 00       		.byte	0
 8784 22f1 1B       		.uleb128 0x1b
 8785 22f2 A4020000 		.4byte	0x2a4
 8786 22f6 01230000 		.4byte	0x2301
 8787 22fa 1C       		.uleb128 0x1c
 8788 22fb 9D020000 		.4byte	0x29d
 8789 22ff 02       		.byte	0x2
 8790 2300 00       		.byte	0
 8791 2301 34       		.uleb128 0x34
 8792 2302 76050000 		.4byte	.LASF404
 8793 2306 03       		.byte	0x3
 8794 2307 7103     		.2byte	0x371
 8795 2309 D5010000 		.4byte	0x1d5
 8796 230d 00000000 		.4byte	.LFB54
 8797 2311 90000000 		.4byte	.LFE54-.LFB54
 8798 2315 01       		.uleb128 0x1
 8799 2316 9C       		.byte	0x9c
 8800 2317 74230000 		.4byte	0x2374
 8801 231b 30       		.uleb128 0x30
 8802 231c 760D0000 		.4byte	.LASF324
 8803 2320 03       		.byte	0x3
 8804 2321 7103     		.2byte	0x371
 8805 2323 CC190000 		.4byte	0x19cc
 8806 2327 02       		.uleb128 0x2
 8807 2328 91       		.byte	0x91
 8808 2329 6C       		.sleb128 -20
 8809 232a 30       		.uleb128 0x30
 8810 232b 1A020000 		.4byte	.LASF249
 8811 232f 03       		.byte	0x3
 8812 2330 7103     		.2byte	0x371
 8813 2332 D9000000 		.4byte	0xd9
 8814 2336 02       		.uleb128 0x2
 8815 2337 91       		.byte	0x91
 8816 2338 68       		.sleb128 -24
 8817 2339 30       		.uleb128 0x30
 8818 233a D4110000 		.4byte	.LASF250
 8819 233e 03       		.byte	0x3
 8820 233f 7103     		.2byte	0x371
 8821 2341 D9000000 		.4byte	0xd9
 8822 2345 02       		.uleb128 0x2
 8823 2346 91       		.byte	0x91
 8824 2347 64       		.sleb128 -28
 8825 2348 36       		.uleb128 0x36
 8826 2349 64617900 		.ascii	"day\000"
 8827 234d 03       		.byte	0x3
 8828 234e 7103     		.2byte	0x371
ARM GAS  C:\Users\tmj32\AppData\Local\Temp\cc0vWRpX.s 			page 178


 8829 2350 D9000000 		.4byte	0xd9
 8830 2354 02       		.uleb128 0x2
 8831 2355 91       		.byte	0x91
 8832 2356 60       		.sleb128 -32
 8833 2357 31       		.uleb128 0x31
 8834 2358 65787400 		.ascii	"ext\000"
 8835 235c 03       		.byte	0x3
 8836 235d 7303     		.2byte	0x373
 8837 235f DD190000 		.4byte	0x19dd
 8838 2363 02       		.uleb128 0x2
 8839 2364 91       		.byte	0x91
 8840 2365 70       		.sleb128 -16
 8841 2366 31       		.uleb128 0x31
 8842 2367 6900     		.ascii	"i\000"
 8843 2369 03       		.byte	0x3
 8844 236a 7703     		.2byte	0x377
 8845 236c E4000000 		.4byte	0xe4
 8846 2370 02       		.uleb128 0x2
 8847 2371 91       		.byte	0x91
 8848 2372 74       		.sleb128 -12
 8849 2373 00       		.byte	0
 8850 2374 34       		.uleb128 0x34
 8851 2375 A3060000 		.4byte	.LASF405
 8852 2379 03       		.byte	0x3
 8853 237a 8803     		.2byte	0x388
 8854 237c AB020000 		.4byte	0x2ab
 8855 2380 00000000 		.4byte	.LFB55
 8856 2384 40000000 		.4byte	.LFE55-.LFB55
 8857 2388 01       		.uleb128 0x1
 8858 2389 9C       		.byte	0x9c
 8859 238a BC230000 		.4byte	0x23bc
 8860 238e 30       		.uleb128 0x30
 8861 238f 760D0000 		.4byte	.LASF324
 8862 2393 03       		.byte	0x3
 8863 2394 8803     		.2byte	0x388
 8864 2396 CC190000 		.4byte	0x19cc
 8865 239a 02       		.uleb128 0x2
 8866 239b 91       		.byte	0x91
 8867 239c 6C       		.sleb128 -20
 8868 239d 36       		.uleb128 0x36
 8869 239e 64617900 		.ascii	"day\000"
 8870 23a2 03       		.byte	0x3
 8871 23a3 8803     		.2byte	0x388
 8872 23a5 B8000000 		.4byte	0xb8
 8873 23a9 02       		.uleb128 0x2
 8874 23aa 91       		.byte	0x91
 8875 23ab 6B       		.sleb128 -21
 8876 23ac 31       		.uleb128 0x31
 8877 23ad 65787400 		.ascii	"ext\000"
 8878 23b1 03       		.byte	0x3
 8879 23b2 8B03     		.2byte	0x38b
 8880 23b4 DD190000 		.4byte	0x19dd
 8881 23b8 02       		.uleb128 0x2
 8882 23b9 91       		.byte	0x91
 8883 23ba 74       		.sleb128 -12
 8884 23bb 00       		.byte	0
 8885 23bc 34       		.uleb128 0x34
ARM GAS  C:\Users\tmj32\AppData\Local\Temp\cc0vWRpX.s 			page 179


 8886 23bd 60140000 		.4byte	.LASF406
 8887 23c1 03       		.byte	0x3
 8888 23c2 9903     		.2byte	0x399
 8889 23c4 AB020000 		.4byte	0x2ab
 8890 23c8 00000000 		.4byte	.LFB56
 8891 23cc 50000000 		.4byte	.LFE56-.LFB56
 8892 23d0 01       		.uleb128 0x1
 8893 23d1 9C       		.byte	0x9c
 8894 23d2 04240000 		.4byte	0x2404
 8895 23d6 30       		.uleb128 0x30
 8896 23d7 760D0000 		.4byte	.LASF324
 8897 23db 03       		.byte	0x3
 8898 23dc 9903     		.2byte	0x399
 8899 23de CC190000 		.4byte	0x19cc
 8900 23e2 02       		.uleb128 0x2
 8901 23e3 91       		.byte	0x91
 8902 23e4 6C       		.sleb128 -20
 8903 23e5 30       		.uleb128 0x30
 8904 23e6 D4110000 		.4byte	.LASF250
 8905 23ea 03       		.byte	0x3
 8906 23eb 9903     		.2byte	0x399
 8907 23ed D9000000 		.4byte	0xd9
 8908 23f1 02       		.uleb128 0x2
 8909 23f2 91       		.byte	0x91
 8910 23f3 68       		.sleb128 -24
 8911 23f4 31       		.uleb128 0x31
 8912 23f5 65787400 		.ascii	"ext\000"
 8913 23f9 03       		.byte	0x3
 8914 23fa 9E03     		.2byte	0x39e
 8915 23fc DD190000 		.4byte	0x19dd
 8916 2400 02       		.uleb128 0x2
 8917 2401 91       		.byte	0x91
 8918 2402 74       		.sleb128 -12
 8919 2403 00       		.byte	0
 8920 2404 34       		.uleb128 0x34
 8921 2405 B3010000 		.4byte	.LASF407
 8922 2409 03       		.byte	0x3
 8923 240a AC03     		.2byte	0x3ac
 8924 240c B8000000 		.4byte	0xb8
 8925 2410 00000000 		.4byte	.LFB57
 8926 2414 8C000000 		.4byte	.LFE57-.LFB57
 8927 2418 01       		.uleb128 0x1
 8928 2419 9C       		.byte	0x9c
 8929 241a 3D240000 		.4byte	0x243d
 8930 241e 30       		.uleb128 0x30
 8931 241f 1A020000 		.4byte	.LASF249
 8932 2423 03       		.byte	0x3
 8933 2424 AC03     		.2byte	0x3ac
 8934 2426 D9000000 		.4byte	0xd9
 8935 242a 02       		.uleb128 0x2
 8936 242b 91       		.byte	0x91
 8937 242c 74       		.sleb128 -12
 8938 242d 30       		.uleb128 0x30
 8939 242e D4110000 		.4byte	.LASF250
 8940 2432 03       		.byte	0x3
 8941 2433 AC03     		.2byte	0x3ac
 8942 2435 D9000000 		.4byte	0xd9
ARM GAS  C:\Users\tmj32\AppData\Local\Temp\cc0vWRpX.s 			page 180


 8943 2439 02       		.uleb128 0x2
 8944 243a 91       		.byte	0x91
 8945 243b 70       		.sleb128 -16
 8946 243c 00       		.byte	0
 8947 243d 37       		.uleb128 0x37
 8948 243e 5F090000 		.4byte	.LASF408
 8949 2442 03       		.byte	0x3
 8950 2443 C103     		.2byte	0x3c1
 8951 2445 B8000000 		.4byte	0xb8
 8952 2449 00000000 		.4byte	.LFB58
 8953 244d 58000000 		.4byte	.LFE58-.LFB58
 8954 2451 01       		.uleb128 0x1
 8955 2452 9C       		.byte	0x9c
 8956 2453 67240000 		.4byte	0x2467
 8957 2457 30       		.uleb128 0x30
 8958 2458 1A020000 		.4byte	.LASF249
 8959 245c 03       		.byte	0x3
 8960 245d C103     		.2byte	0x3c1
 8961 245f E4000000 		.4byte	0xe4
 8962 2463 02       		.uleb128 0x2
 8963 2464 91       		.byte	0x91
 8964 2465 74       		.sleb128 -12
 8965 2466 00       		.byte	0
 8966 2467 37       		.uleb128 0x37
 8967 2468 76150000 		.4byte	.LASF409
 8968 246c 03       		.byte	0x3
 8969 246d CD03     		.2byte	0x3cd
 8970 246f B8000000 		.4byte	0xb8
 8971 2473 00000000 		.4byte	.LFB59
 8972 2477 9C000000 		.4byte	.LFE59-.LFB59
 8973 247b 01       		.uleb128 0x1
 8974 247c 9C       		.byte	0x9c
 8975 247d D8240000 		.4byte	0x24d8
 8976 2481 30       		.uleb128 0x30
 8977 2482 1A020000 		.4byte	.LASF249
 8978 2486 03       		.byte	0x3
 8979 2487 CD03     		.2byte	0x3cd
 8980 2489 E4000000 		.4byte	0xe4
 8981 248d 02       		.uleb128 0x2
 8982 248e 91       		.byte	0x91
 8983 248f 64       		.sleb128 -28
 8984 2490 30       		.uleb128 0x30
 8985 2491 D4110000 		.4byte	.LASF250
 8986 2495 03       		.byte	0x3
 8987 2496 CD03     		.2byte	0x3cd
 8988 2498 E4000000 		.4byte	0xe4
 8989 249c 02       		.uleb128 0x2
 8990 249d 91       		.byte	0x91
 8991 249e 60       		.sleb128 -32
 8992 249f 36       		.uleb128 0x36
 8993 24a0 64617900 		.ascii	"day\000"
 8994 24a4 03       		.byte	0x3
 8995 24a5 CD03     		.2byte	0x3cd
 8996 24a7 E4000000 		.4byte	0xe4
 8997 24ab 02       		.uleb128 0x2
 8998 24ac 91       		.byte	0x91
 8999 24ad 5C       		.sleb128 -36
ARM GAS  C:\Users\tmj32\AppData\Local\Temp\cc0vWRpX.s 			page 181


 9000 24ae 31       		.uleb128 0x31
 9001 24af 6100     		.ascii	"a\000"
 9002 24b1 03       		.byte	0x3
 9003 24b2 CF03     		.2byte	0x3cf
 9004 24b4 E4000000 		.4byte	0xe4
 9005 24b8 02       		.uleb128 0x2
 9006 24b9 91       		.byte	0x91
 9007 24ba 74       		.sleb128 -12
 9008 24bb 31       		.uleb128 0x31
 9009 24bc 6200     		.ascii	"b\000"
 9010 24be 03       		.byte	0x3
 9011 24bf D003     		.2byte	0x3d0
 9012 24c1 E4000000 		.4byte	0xe4
 9013 24c5 02       		.uleb128 0x2
 9014 24c6 91       		.byte	0x91
 9015 24c7 70       		.sleb128 -16
 9016 24c8 33       		.uleb128 0x33
 9017 24c9 9D0E0000 		.4byte	.LASF410
 9018 24cd 03       		.byte	0x3
 9019 24ce D203     		.2byte	0x3d2
 9020 24d0 E4000000 		.4byte	0xe4
 9021 24d4 02       		.uleb128 0x2
 9022 24d5 91       		.byte	0x91
 9023 24d6 6C       		.sleb128 -20
 9024 24d7 00       		.byte	0
 9025 24d8 2A       		.uleb128 0x2a
 9026 24d9 940F0000 		.4byte	.LASF411
 9027 24dd 03       		.byte	0x3
 9028 24de 38       		.byte	0x38
 9029 24df 590E0000 		.4byte	0xe59
 9030 24e3 05       		.uleb128 0x5
 9031 24e4 03       		.byte	0x3
 9032 24e5 00000000 		.4byte	ancestor_signal
 9033 24e9 2A       		.uleb128 0x2a
 9034 24ea E20F0000 		.4byte	.LASF412
 9035 24ee 03       		.byte	0x3
 9036 24ef 39       		.byte	0x39
 9037 24f0 EE0C0000 		.4byte	0xcee
 9038 24f4 05       		.uleb128 0x5
 9039 24f5 03       		.byte	0x3
 9040 24f6 04000000 		.4byte	ancestor_design
 9041 24fa 1B       		.uleb128 0x1b
 9042 24fb AB020000 		.4byte	0x2ab
 9043 24ff 0A250000 		.4byte	0x250a
 9044 2503 1C       		.uleb128 0x1c
 9045 2504 9D020000 		.4byte	0x29d
 9046 2508 06       		.byte	0x6
 9047 2509 00       		.byte	0
 9048 250a 2A       		.uleb128 0x2a
 9049 250b A6080000 		.4byte	.LASF413
 9050 250f 03       		.byte	0x3
 9051 2510 3A       		.byte	0x3a
 9052 2511 FA240000 		.4byte	0x24fa
 9053 2515 05       		.uleb128 0x5
 9054 2516 03       		.byte	0x3
 9055 2517 00000000 		.4byte	day_name
 9056 251b 1B       		.uleb128 0x1b
ARM GAS  C:\Users\tmj32\AppData\Local\Temp\cc0vWRpX.s 			page 182


 9057 251c AB020000 		.4byte	0x2ab
 9058 2520 2B250000 		.4byte	0x252b
 9059 2524 1C       		.uleb128 0x1c
 9060 2525 9D020000 		.4byte	0x29d
 9061 2529 0B       		.byte	0xb
 9062 252a 00       		.byte	0
 9063 252b 2A       		.uleb128 0x2a
 9064 252c 200B0000 		.4byte	.LASF414
 9065 2530 03       		.byte	0x3
 9066 2531 3B       		.byte	0x3b
 9067 2532 1B250000 		.4byte	0x251b
 9068 2536 05       		.uleb128 0x5
 9069 2537 03       		.byte	0x3
 9070 2538 1C000000 		.4byte	month_name
 9071 253c 38       		.uleb128 0x38
 9072 253d E0050000 		.4byte	.LASF415
 9073 2541 08       		.byte	0x8
 9074 2542 1001     		.2byte	0x110
 9075 2544 49050000 		.4byte	0x549
 9076 2548 38       		.uleb128 0x38
 9077 2549 F0110000 		.4byte	.LASF416
 9078 254d 08       		.byte	0x8
 9079 254e 1101     		.2byte	0x111
 9080 2550 49050000 		.4byte	0x549
 9081 2554 38       		.uleb128 0x38
 9082 2555 AA000000 		.4byte	.LASF417
 9083 2559 08       		.byte	0x8
 9084 255a 1201     		.2byte	0x112
 9085 255c 49050000 		.4byte	0x549
 9086 2560 38       		.uleb128 0x38
 9087 2561 52110000 		.4byte	.LASF418
 9088 2565 08       		.byte	0x8
 9089 2566 1701     		.2byte	0x117
 9090 2568 49050000 		.4byte	0x549
 9091 256c 00       		.byte	0
 9092              		.section	.debug_abbrev,"",%progbits
 9093              	.Ldebug_abbrev0:
 9094 0000 01       		.uleb128 0x1
 9095 0001 11       		.uleb128 0x11
 9096 0002 01       		.byte	0x1
 9097 0003 25       		.uleb128 0x25
 9098 0004 0E       		.uleb128 0xe
 9099 0005 13       		.uleb128 0x13
 9100 0006 0B       		.uleb128 0xb
 9101 0007 03       		.uleb128 0x3
 9102 0008 0E       		.uleb128 0xe
 9103 0009 1B       		.uleb128 0x1b
 9104 000a 0E       		.uleb128 0xe
 9105 000b 55       		.uleb128 0x55
 9106 000c 17       		.uleb128 0x17
 9107 000d 11       		.uleb128 0x11
 9108 000e 01       		.uleb128 0x1
 9109 000f 10       		.uleb128 0x10
 9110 0010 17       		.uleb128 0x17
 9111 0011 00       		.byte	0
 9112 0012 00       		.byte	0
 9113 0013 02       		.uleb128 0x2
ARM GAS  C:\Users\tmj32\AppData\Local\Temp\cc0vWRpX.s 			page 183


 9114 0014 16       		.uleb128 0x16
 9115 0015 00       		.byte	0
 9116 0016 03       		.uleb128 0x3
 9117 0017 0E       		.uleb128 0xe
 9118 0018 3A       		.uleb128 0x3a
 9119 0019 0B       		.uleb128 0xb
 9120 001a 3B       		.uleb128 0x3b
 9121 001b 0B       		.uleb128 0xb
 9122 001c 49       		.uleb128 0x49
 9123 001d 13       		.uleb128 0x13
 9124 001e 00       		.byte	0
 9125 001f 00       		.byte	0
 9126 0020 03       		.uleb128 0x3
 9127 0021 24       		.uleb128 0x24
 9128 0022 00       		.byte	0
 9129 0023 0B       		.uleb128 0xb
 9130 0024 0B       		.uleb128 0xb
 9131 0025 3E       		.uleb128 0x3e
 9132 0026 0B       		.uleb128 0xb
 9133 0027 03       		.uleb128 0x3
 9134 0028 0E       		.uleb128 0xe
 9135 0029 00       		.byte	0
 9136 002a 00       		.byte	0
 9137 002b 04       		.uleb128 0x4
 9138 002c 24       		.uleb128 0x24
 9139 002d 00       		.byte	0
 9140 002e 0B       		.uleb128 0xb
 9141 002f 0B       		.uleb128 0xb
 9142 0030 3E       		.uleb128 0x3e
 9143 0031 0B       		.uleb128 0xb
 9144 0032 03       		.uleb128 0x3
 9145 0033 08       		.uleb128 0x8
 9146 0034 00       		.byte	0
 9147 0035 00       		.byte	0
 9148 0036 05       		.uleb128 0x5
 9149 0037 0F       		.uleb128 0xf
 9150 0038 00       		.byte	0
 9151 0039 0B       		.uleb128 0xb
 9152 003a 0B       		.uleb128 0xb
 9153 003b 00       		.byte	0
 9154 003c 00       		.byte	0
 9155 003d 06       		.uleb128 0x6
 9156 003e 13       		.uleb128 0x13
 9157 003f 01       		.byte	0x1
 9158 0040 0B       		.uleb128 0xb
 9159 0041 0B       		.uleb128 0xb
 9160 0042 3A       		.uleb128 0x3a
 9161 0043 0B       		.uleb128 0xb
 9162 0044 3B       		.uleb128 0x3b
 9163 0045 0B       		.uleb128 0xb
 9164 0046 01       		.uleb128 0x1
 9165 0047 13       		.uleb128 0x13
 9166 0048 00       		.byte	0
 9167 0049 00       		.byte	0
 9168 004a 07       		.uleb128 0x7
 9169 004b 0D       		.uleb128 0xd
 9170 004c 00       		.byte	0
ARM GAS  C:\Users\tmj32\AppData\Local\Temp\cc0vWRpX.s 			page 184


 9171 004d 03       		.uleb128 0x3
 9172 004e 0E       		.uleb128 0xe
 9173 004f 3A       		.uleb128 0x3a
 9174 0050 0B       		.uleb128 0xb
 9175 0051 3B       		.uleb128 0x3b
 9176 0052 0B       		.uleb128 0xb
 9177 0053 49       		.uleb128 0x49
 9178 0054 13       		.uleb128 0x13
 9179 0055 38       		.uleb128 0x38
 9180 0056 0B       		.uleb128 0xb
 9181 0057 00       		.byte	0
 9182 0058 00       		.byte	0
 9183 0059 08       		.uleb128 0x8
 9184 005a 0D       		.uleb128 0xd
 9185 005b 00       		.byte	0
 9186 005c 03       		.uleb128 0x3
 9187 005d 08       		.uleb128 0x8
 9188 005e 3A       		.uleb128 0x3a
 9189 005f 0B       		.uleb128 0xb
 9190 0060 3B       		.uleb128 0x3b
 9191 0061 0B       		.uleb128 0xb
 9192 0062 49       		.uleb128 0x49
 9193 0063 13       		.uleb128 0x13
 9194 0064 38       		.uleb128 0x38
 9195 0065 0B       		.uleb128 0xb
 9196 0066 00       		.byte	0
 9197 0067 00       		.byte	0
 9198 0068 09       		.uleb128 0x9
 9199 0069 13       		.uleb128 0x13
 9200 006a 01       		.byte	0x1
 9201 006b 03       		.uleb128 0x3
 9202 006c 0E       		.uleb128 0xe
 9203 006d 0B       		.uleb128 0xb
 9204 006e 0B       		.uleb128 0xb
 9205 006f 3A       		.uleb128 0x3a
 9206 0070 0B       		.uleb128 0xb
 9207 0071 3B       		.uleb128 0x3b
 9208 0072 0B       		.uleb128 0xb
 9209 0073 01       		.uleb128 0x1
 9210 0074 13       		.uleb128 0x13
 9211 0075 00       		.byte	0
 9212 0076 00       		.byte	0
 9213 0077 0A       		.uleb128 0xa
 9214 0078 0D       		.uleb128 0xd
 9215 0079 00       		.byte	0
 9216 007a 03       		.uleb128 0x3
 9217 007b 0E       		.uleb128 0xe
 9218 007c 3A       		.uleb128 0x3a
 9219 007d 0B       		.uleb128 0xb
 9220 007e 3B       		.uleb128 0x3b
 9221 007f 0B       		.uleb128 0xb
 9222 0080 49       		.uleb128 0x49
 9223 0081 13       		.uleb128 0x13
 9224 0082 0B       		.uleb128 0xb
 9225 0083 0B       		.uleb128 0xb
 9226 0084 0D       		.uleb128 0xd
 9227 0085 0B       		.uleb128 0xb
ARM GAS  C:\Users\tmj32\AppData\Local\Temp\cc0vWRpX.s 			page 185


 9228 0086 0C       		.uleb128 0xc
 9229 0087 0B       		.uleb128 0xb
 9230 0088 38       		.uleb128 0x38
 9231 0089 0B       		.uleb128 0xb
 9232 008a 00       		.byte	0
 9233 008b 00       		.byte	0
 9234 008c 0B       		.uleb128 0xb
 9235 008d 15       		.uleb128 0x15
 9236 008e 01       		.byte	0x1
 9237 008f 27       		.uleb128 0x27
 9238 0090 19       		.uleb128 0x19
 9239 0091 49       		.uleb128 0x49
 9240 0092 13       		.uleb128 0x13
 9241 0093 01       		.uleb128 0x1
 9242 0094 13       		.uleb128 0x13
 9243 0095 00       		.byte	0
 9244 0096 00       		.byte	0
 9245 0097 0C       		.uleb128 0xc
 9246 0098 05       		.uleb128 0x5
 9247 0099 00       		.byte	0
 9248 009a 49       		.uleb128 0x49
 9249 009b 13       		.uleb128 0x13
 9250 009c 00       		.byte	0
 9251 009d 00       		.byte	0
 9252 009e 0D       		.uleb128 0xd
 9253 009f 0F       		.uleb128 0xf
 9254 00a0 00       		.byte	0
 9255 00a1 0B       		.uleb128 0xb
 9256 00a2 0B       		.uleb128 0xb
 9257 00a3 49       		.uleb128 0x49
 9258 00a4 13       		.uleb128 0x13
 9259 00a5 00       		.byte	0
 9260 00a6 00       		.byte	0
 9261 00a7 0E       		.uleb128 0xe
 9262 00a8 26       		.uleb128 0x26
 9263 00a9 00       		.byte	0
 9264 00aa 49       		.uleb128 0x49
 9265 00ab 13       		.uleb128 0x13
 9266 00ac 00       		.byte	0
 9267 00ad 00       		.byte	0
 9268 00ae 0F       		.uleb128 0xf
 9269 00af 17       		.uleb128 0x17
 9270 00b0 01       		.byte	0x1
 9271 00b1 0B       		.uleb128 0xb
 9272 00b2 0B       		.uleb128 0xb
 9273 00b3 3A       		.uleb128 0x3a
 9274 00b4 0B       		.uleb128 0xb
 9275 00b5 3B       		.uleb128 0x3b
 9276 00b6 0B       		.uleb128 0xb
 9277 00b7 01       		.uleb128 0x1
 9278 00b8 13       		.uleb128 0x13
 9279 00b9 00       		.byte	0
 9280 00ba 00       		.byte	0
 9281 00bb 10       		.uleb128 0x10
 9282 00bc 0D       		.uleb128 0xd
 9283 00bd 00       		.byte	0
 9284 00be 03       		.uleb128 0x3
ARM GAS  C:\Users\tmj32\AppData\Local\Temp\cc0vWRpX.s 			page 186


 9285 00bf 08       		.uleb128 0x8
 9286 00c0 3A       		.uleb128 0x3a
 9287 00c1 0B       		.uleb128 0xb
 9288 00c2 3B       		.uleb128 0x3b
 9289 00c3 0B       		.uleb128 0xb
 9290 00c4 49       		.uleb128 0x49
 9291 00c5 13       		.uleb128 0x13
 9292 00c6 00       		.byte	0
 9293 00c7 00       		.byte	0
 9294 00c8 11       		.uleb128 0x11
 9295 00c9 0D       		.uleb128 0xd
 9296 00ca 00       		.byte	0
 9297 00cb 03       		.uleb128 0x3
 9298 00cc 0E       		.uleb128 0xe
 9299 00cd 3A       		.uleb128 0x3a
 9300 00ce 0B       		.uleb128 0xb
 9301 00cf 3B       		.uleb128 0x3b
 9302 00d0 0B       		.uleb128 0xb
 9303 00d1 49       		.uleb128 0x49
 9304 00d2 13       		.uleb128 0x13
 9305 00d3 00       		.byte	0
 9306 00d4 00       		.byte	0
 9307 00d5 12       		.uleb128 0x12
 9308 00d6 16       		.uleb128 0x16
 9309 00d7 00       		.byte	0
 9310 00d8 03       		.uleb128 0x3
 9311 00d9 0E       		.uleb128 0xe
 9312 00da 3A       		.uleb128 0x3a
 9313 00db 0B       		.uleb128 0xb
 9314 00dc 3B       		.uleb128 0x3b
 9315 00dd 05       		.uleb128 0x5
 9316 00de 49       		.uleb128 0x49
 9317 00df 13       		.uleb128 0x13
 9318 00e0 00       		.byte	0
 9319 00e1 00       		.byte	0
 9320 00e2 13       		.uleb128 0x13
 9321 00e3 04       		.uleb128 0x4
 9322 00e4 01       		.byte	0x1
 9323 00e5 0B       		.uleb128 0xb
 9324 00e6 0B       		.uleb128 0xb
 9325 00e7 49       		.uleb128 0x49
 9326 00e8 13       		.uleb128 0x13
 9327 00e9 3A       		.uleb128 0x3a
 9328 00ea 0B       		.uleb128 0xb
 9329 00eb 3B       		.uleb128 0x3b
 9330 00ec 0B       		.uleb128 0xb
 9331 00ed 01       		.uleb128 0x1
 9332 00ee 13       		.uleb128 0x13
 9333 00ef 00       		.byte	0
 9334 00f0 00       		.byte	0
 9335 00f1 14       		.uleb128 0x14
 9336 00f2 28       		.uleb128 0x28
 9337 00f3 00       		.byte	0
 9338 00f4 03       		.uleb128 0x3
 9339 00f5 0E       		.uleb128 0xe
 9340 00f6 1C       		.uleb128 0x1c
 9341 00f7 0B       		.uleb128 0xb
ARM GAS  C:\Users\tmj32\AppData\Local\Temp\cc0vWRpX.s 			page 187


 9342 00f8 00       		.byte	0
 9343 00f9 00       		.byte	0
 9344 00fa 15       		.uleb128 0x15
 9345 00fb 15       		.uleb128 0x15
 9346 00fc 01       		.byte	0x1
 9347 00fd 27       		.uleb128 0x27
 9348 00fe 19       		.uleb128 0x19
 9349 00ff 01       		.uleb128 0x1
 9350 0100 13       		.uleb128 0x13
 9351 0101 00       		.byte	0
 9352 0102 00       		.byte	0
 9353 0103 16       		.uleb128 0x16
 9354 0104 35       		.uleb128 0x35
 9355 0105 00       		.byte	0
 9356 0106 49       		.uleb128 0x49
 9357 0107 13       		.uleb128 0x13
 9358 0108 00       		.byte	0
 9359 0109 00       		.byte	0
 9360 010a 17       		.uleb128 0x17
 9361 010b 13       		.uleb128 0x13
 9362 010c 01       		.byte	0x1
 9363 010d 03       		.uleb128 0x3
 9364 010e 0E       		.uleb128 0xe
 9365 010f 0B       		.uleb128 0xb
 9366 0110 05       		.uleb128 0x5
 9367 0111 3A       		.uleb128 0x3a
 9368 0112 0B       		.uleb128 0xb
 9369 0113 3B       		.uleb128 0x3b
 9370 0114 0B       		.uleb128 0xb
 9371 0115 01       		.uleb128 0x1
 9372 0116 13       		.uleb128 0x13
 9373 0117 00       		.byte	0
 9374 0118 00       		.byte	0
 9375 0119 18       		.uleb128 0x18
 9376 011a 0D       		.uleb128 0xd
 9377 011b 00       		.byte	0
 9378 011c 03       		.uleb128 0x3
 9379 011d 0E       		.uleb128 0xe
 9380 011e 3A       		.uleb128 0x3a
 9381 011f 0B       		.uleb128 0xb
 9382 0120 3B       		.uleb128 0x3b
 9383 0121 0B       		.uleb128 0xb
 9384 0122 49       		.uleb128 0x49
 9385 0123 13       		.uleb128 0x13
 9386 0124 38       		.uleb128 0x38
 9387 0125 05       		.uleb128 0x5
 9388 0126 00       		.byte	0
 9389 0127 00       		.byte	0
 9390 0128 19       		.uleb128 0x19
 9391 0129 0D       		.uleb128 0xd
 9392 012a 00       		.byte	0
 9393 012b 03       		.uleb128 0x3
 9394 012c 0E       		.uleb128 0xe
 9395 012d 3A       		.uleb128 0x3a
 9396 012e 0B       		.uleb128 0xb
 9397 012f 3B       		.uleb128 0x3b
 9398 0130 0B       		.uleb128 0xb
ARM GAS  C:\Users\tmj32\AppData\Local\Temp\cc0vWRpX.s 			page 188


 9399 0131 49       		.uleb128 0x49
 9400 0132 13       		.uleb128 0x13
 9401 0133 0B       		.uleb128 0xb
 9402 0134 0B       		.uleb128 0xb
 9403 0135 0D       		.uleb128 0xd
 9404 0136 0B       		.uleb128 0xb
 9405 0137 0C       		.uleb128 0xc
 9406 0138 0B       		.uleb128 0xb
 9407 0139 38       		.uleb128 0x38
 9408 013a 05       		.uleb128 0x5
 9409 013b 00       		.byte	0
 9410 013c 00       		.byte	0
 9411 013d 1A       		.uleb128 0x1a
 9412 013e 0D       		.uleb128 0xd
 9413 013f 00       		.byte	0
 9414 0140 03       		.uleb128 0x3
 9415 0141 08       		.uleb128 0x8
 9416 0142 3A       		.uleb128 0x3a
 9417 0143 0B       		.uleb128 0xb
 9418 0144 3B       		.uleb128 0x3b
 9419 0145 0B       		.uleb128 0xb
 9420 0146 49       		.uleb128 0x49
 9421 0147 13       		.uleb128 0x13
 9422 0148 0B       		.uleb128 0xb
 9423 0149 0B       		.uleb128 0xb
 9424 014a 0D       		.uleb128 0xd
 9425 014b 0B       		.uleb128 0xb
 9426 014c 0C       		.uleb128 0xc
 9427 014d 0B       		.uleb128 0xb
 9428 014e 38       		.uleb128 0x38
 9429 014f 0B       		.uleb128 0xb
 9430 0150 00       		.byte	0
 9431 0151 00       		.byte	0
 9432 0152 1B       		.uleb128 0x1b
 9433 0153 01       		.uleb128 0x1
 9434 0154 01       		.byte	0x1
 9435 0155 49       		.uleb128 0x49
 9436 0156 13       		.uleb128 0x13
 9437 0157 01       		.uleb128 0x1
 9438 0158 13       		.uleb128 0x13
 9439 0159 00       		.byte	0
 9440 015a 00       		.byte	0
 9441 015b 1C       		.uleb128 0x1c
 9442 015c 21       		.uleb128 0x21
 9443 015d 00       		.byte	0
 9444 015e 49       		.uleb128 0x49
 9445 015f 13       		.uleb128 0x13
 9446 0160 2F       		.uleb128 0x2f
 9447 0161 0B       		.uleb128 0xb
 9448 0162 00       		.byte	0
 9449 0163 00       		.byte	0
 9450 0164 1D       		.uleb128 0x1d
 9451 0165 13       		.uleb128 0x13
 9452 0166 00       		.byte	0
 9453 0167 03       		.uleb128 0x3
 9454 0168 0E       		.uleb128 0xe
 9455 0169 3C       		.uleb128 0x3c
ARM GAS  C:\Users\tmj32\AppData\Local\Temp\cc0vWRpX.s 			page 189


 9456 016a 19       		.uleb128 0x19
 9457 016b 00       		.byte	0
 9458 016c 00       		.byte	0
 9459 016d 1E       		.uleb128 0x1e
 9460 016e 0D       		.uleb128 0xd
 9461 016f 00       		.byte	0
 9462 0170 03       		.uleb128 0x3
 9463 0171 08       		.uleb128 0x8
 9464 0172 3A       		.uleb128 0x3a
 9465 0173 0B       		.uleb128 0xb
 9466 0174 3B       		.uleb128 0x3b
 9467 0175 05       		.uleb128 0x5
 9468 0176 49       		.uleb128 0x49
 9469 0177 13       		.uleb128 0x13
 9470 0178 38       		.uleb128 0x38
 9471 0179 0B       		.uleb128 0xb
 9472 017a 00       		.byte	0
 9473 017b 00       		.byte	0
 9474 017c 1F       		.uleb128 0x1f
 9475 017d 0D       		.uleb128 0xd
 9476 017e 00       		.byte	0
 9477 017f 03       		.uleb128 0x3
 9478 0180 0E       		.uleb128 0xe
 9479 0181 3A       		.uleb128 0x3a
 9480 0182 0B       		.uleb128 0xb
 9481 0183 3B       		.uleb128 0x3b
 9482 0184 05       		.uleb128 0x5
 9483 0185 49       		.uleb128 0x49
 9484 0186 13       		.uleb128 0x13
 9485 0187 38       		.uleb128 0x38
 9486 0188 0B       		.uleb128 0xb
 9487 0189 00       		.byte	0
 9488 018a 00       		.byte	0
 9489 018b 20       		.uleb128 0x20
 9490 018c 13       		.uleb128 0x13
 9491 018d 01       		.byte	0x1
 9492 018e 0B       		.uleb128 0xb
 9493 018f 0B       		.uleb128 0xb
 9494 0190 3A       		.uleb128 0x3a
 9495 0191 0B       		.uleb128 0xb
 9496 0192 3B       		.uleb128 0x3b
 9497 0193 05       		.uleb128 0x5
 9498 0194 01       		.uleb128 0x1
 9499 0195 13       		.uleb128 0x13
 9500 0196 00       		.byte	0
 9501 0197 00       		.byte	0
 9502 0198 21       		.uleb128 0x21
 9503 0199 13       		.uleb128 0x13
 9504 019a 01       		.byte	0x1
 9505 019b 0B       		.uleb128 0xb
 9506 019c 05       		.uleb128 0x5
 9507 019d 3A       		.uleb128 0x3a
 9508 019e 0B       		.uleb128 0xb
 9509 019f 3B       		.uleb128 0x3b
 9510 01a0 0B       		.uleb128 0xb
 9511 01a1 01       		.uleb128 0x1
 9512 01a2 13       		.uleb128 0x13
ARM GAS  C:\Users\tmj32\AppData\Local\Temp\cc0vWRpX.s 			page 190


 9513 01a3 00       		.byte	0
 9514 01a4 00       		.byte	0
 9515 01a5 22       		.uleb128 0x22
 9516 01a6 0D       		.uleb128 0xd
 9517 01a7 00       		.byte	0
 9518 01a8 03       		.uleb128 0x3
 9519 01a9 08       		.uleb128 0x8
 9520 01aa 3A       		.uleb128 0x3a
 9521 01ab 0B       		.uleb128 0xb
 9522 01ac 3B       		.uleb128 0x3b
 9523 01ad 0B       		.uleb128 0xb
 9524 01ae 49       		.uleb128 0x49
 9525 01af 13       		.uleb128 0x13
 9526 01b0 38       		.uleb128 0x38
 9527 01b1 05       		.uleb128 0x5
 9528 01b2 00       		.byte	0
 9529 01b3 00       		.byte	0
 9530 01b4 23       		.uleb128 0x23
 9531 01b5 0D       		.uleb128 0xd
 9532 01b6 00       		.byte	0
 9533 01b7 03       		.uleb128 0x3
 9534 01b8 0E       		.uleb128 0xe
 9535 01b9 3A       		.uleb128 0x3a
 9536 01ba 0B       		.uleb128 0xb
 9537 01bb 3B       		.uleb128 0x3b
 9538 01bc 05       		.uleb128 0x5
 9539 01bd 49       		.uleb128 0x49
 9540 01be 13       		.uleb128 0x13
 9541 01bf 38       		.uleb128 0x38
 9542 01c0 05       		.uleb128 0x5
 9543 01c1 00       		.byte	0
 9544 01c2 00       		.byte	0
 9545 01c3 24       		.uleb128 0x24
 9546 01c4 0D       		.uleb128 0xd
 9547 01c5 00       		.byte	0
 9548 01c6 03       		.uleb128 0x3
 9549 01c7 08       		.uleb128 0x8
 9550 01c8 3A       		.uleb128 0x3a
 9551 01c9 0B       		.uleb128 0xb
 9552 01ca 3B       		.uleb128 0x3b
 9553 01cb 05       		.uleb128 0x5
 9554 01cc 49       		.uleb128 0x49
 9555 01cd 13       		.uleb128 0x13
 9556 01ce 38       		.uleb128 0x38
 9557 01cf 05       		.uleb128 0x5
 9558 01d0 00       		.byte	0
 9559 01d1 00       		.byte	0
 9560 01d2 25       		.uleb128 0x25
 9561 01d3 2E       		.uleb128 0x2e
 9562 01d4 01       		.byte	0x1
 9563 01d5 03       		.uleb128 0x3
 9564 01d6 0E       		.uleb128 0xe
 9565 01d7 3A       		.uleb128 0x3a
 9566 01d8 0B       		.uleb128 0xb
 9567 01d9 3B       		.uleb128 0x3b
 9568 01da 0B       		.uleb128 0xb
 9569 01db 27       		.uleb128 0x27
ARM GAS  C:\Users\tmj32\AppData\Local\Temp\cc0vWRpX.s 			page 191


 9570 01dc 19       		.uleb128 0x19
 9571 01dd 49       		.uleb128 0x49
 9572 01de 13       		.uleb128 0x13
 9573 01df 11       		.uleb128 0x11
 9574 01e0 01       		.uleb128 0x1
 9575 01e1 12       		.uleb128 0x12
 9576 01e2 06       		.uleb128 0x6
 9577 01e3 40       		.uleb128 0x40
 9578 01e4 18       		.uleb128 0x18
 9579 01e5 9742     		.uleb128 0x2117
 9580 01e7 19       		.uleb128 0x19
 9581 01e8 01       		.uleb128 0x1
 9582 01e9 13       		.uleb128 0x13
 9583 01ea 00       		.byte	0
 9584 01eb 00       		.byte	0
 9585 01ec 26       		.uleb128 0x26
 9586 01ed 05       		.uleb128 0x5
 9587 01ee 00       		.byte	0
 9588 01ef 03       		.uleb128 0x3
 9589 01f0 0E       		.uleb128 0xe
 9590 01f1 3A       		.uleb128 0x3a
 9591 01f2 0B       		.uleb128 0xb
 9592 01f3 3B       		.uleb128 0x3b
 9593 01f4 0B       		.uleb128 0xb
 9594 01f5 49       		.uleb128 0x49
 9595 01f6 13       		.uleb128 0x13
 9596 01f7 02       		.uleb128 0x2
 9597 01f8 18       		.uleb128 0x18
 9598 01f9 00       		.byte	0
 9599 01fa 00       		.byte	0
 9600 01fb 27       		.uleb128 0x27
 9601 01fc 2E       		.uleb128 0x2e
 9602 01fd 01       		.byte	0x1
 9603 01fe 03       		.uleb128 0x3
 9604 01ff 0E       		.uleb128 0xe
 9605 0200 3A       		.uleb128 0x3a
 9606 0201 0B       		.uleb128 0xb
 9607 0202 3B       		.uleb128 0x3b
 9608 0203 0B       		.uleb128 0xb
 9609 0204 27       		.uleb128 0x27
 9610 0205 19       		.uleb128 0x19
 9611 0206 11       		.uleb128 0x11
 9612 0207 01       		.uleb128 0x1
 9613 0208 12       		.uleb128 0x12
 9614 0209 06       		.uleb128 0x6
 9615 020a 40       		.uleb128 0x40
 9616 020b 18       		.uleb128 0x18
 9617 020c 9642     		.uleb128 0x2116
 9618 020e 19       		.uleb128 0x19
 9619 020f 01       		.uleb128 0x1
 9620 0210 13       		.uleb128 0x13
 9621 0211 00       		.byte	0
 9622 0212 00       		.byte	0
 9623 0213 28       		.uleb128 0x28
 9624 0214 05       		.uleb128 0x5
 9625 0215 00       		.byte	0
 9626 0216 03       		.uleb128 0x3
ARM GAS  C:\Users\tmj32\AppData\Local\Temp\cc0vWRpX.s 			page 192


 9627 0217 08       		.uleb128 0x8
 9628 0218 3A       		.uleb128 0x3a
 9629 0219 0B       		.uleb128 0xb
 9630 021a 3B       		.uleb128 0x3b
 9631 021b 0B       		.uleb128 0xb
 9632 021c 49       		.uleb128 0x49
 9633 021d 13       		.uleb128 0x13
 9634 021e 02       		.uleb128 0x2
 9635 021f 18       		.uleb128 0x18
 9636 0220 00       		.byte	0
 9637 0221 00       		.byte	0
 9638 0222 29       		.uleb128 0x29
 9639 0223 2E       		.uleb128 0x2e
 9640 0224 01       		.byte	0x1
 9641 0225 3F       		.uleb128 0x3f
 9642 0226 19       		.uleb128 0x19
 9643 0227 03       		.uleb128 0x3
 9644 0228 0E       		.uleb128 0xe
 9645 0229 3A       		.uleb128 0x3a
 9646 022a 0B       		.uleb128 0xb
 9647 022b 3B       		.uleb128 0x3b
 9648 022c 0B       		.uleb128 0xb
 9649 022d 27       		.uleb128 0x27
 9650 022e 19       		.uleb128 0x19
 9651 022f 49       		.uleb128 0x49
 9652 0230 13       		.uleb128 0x13
 9653 0231 11       		.uleb128 0x11
 9654 0232 01       		.uleb128 0x1
 9655 0233 12       		.uleb128 0x12
 9656 0234 06       		.uleb128 0x6
 9657 0235 40       		.uleb128 0x40
 9658 0236 18       		.uleb128 0x18
 9659 0237 9642     		.uleb128 0x2116
 9660 0239 19       		.uleb128 0x19
 9661 023a 01       		.uleb128 0x1
 9662 023b 13       		.uleb128 0x13
 9663 023c 00       		.byte	0
 9664 023d 00       		.byte	0
 9665 023e 2A       		.uleb128 0x2a
 9666 023f 34       		.uleb128 0x34
 9667 0240 00       		.byte	0
 9668 0241 03       		.uleb128 0x3
 9669 0242 0E       		.uleb128 0xe
 9670 0243 3A       		.uleb128 0x3a
 9671 0244 0B       		.uleb128 0xb
 9672 0245 3B       		.uleb128 0x3b
 9673 0246 0B       		.uleb128 0xb
 9674 0247 49       		.uleb128 0x49
 9675 0248 13       		.uleb128 0x13
 9676 0249 02       		.uleb128 0x2
 9677 024a 18       		.uleb128 0x18
 9678 024b 00       		.byte	0
 9679 024c 00       		.byte	0
 9680 024d 2B       		.uleb128 0x2b
 9681 024e 34       		.uleb128 0x34
 9682 024f 00       		.byte	0
 9683 0250 03       		.uleb128 0x3
ARM GAS  C:\Users\tmj32\AppData\Local\Temp\cc0vWRpX.s 			page 193


 9684 0251 08       		.uleb128 0x8
 9685 0252 3A       		.uleb128 0x3a
 9686 0253 0B       		.uleb128 0xb
 9687 0254 3B       		.uleb128 0x3b
 9688 0255 0B       		.uleb128 0xb
 9689 0256 49       		.uleb128 0x49
 9690 0257 13       		.uleb128 0x13
 9691 0258 02       		.uleb128 0x2
 9692 0259 18       		.uleb128 0x18
 9693 025a 00       		.byte	0
 9694 025b 00       		.byte	0
 9695 025c 2C       		.uleb128 0x2c
 9696 025d 0B       		.uleb128 0xb
 9697 025e 01       		.byte	0x1
 9698 025f 11       		.uleb128 0x11
 9699 0260 01       		.uleb128 0x1
 9700 0261 12       		.uleb128 0x12
 9701 0262 06       		.uleb128 0x6
 9702 0263 01       		.uleb128 0x1
 9703 0264 13       		.uleb128 0x13
 9704 0265 00       		.byte	0
 9705 0266 00       		.byte	0
 9706 0267 2D       		.uleb128 0x2d
 9707 0268 0B       		.uleb128 0xb
 9708 0269 01       		.byte	0x1
 9709 026a 11       		.uleb128 0x11
 9710 026b 01       		.uleb128 0x1
 9711 026c 12       		.uleb128 0x12
 9712 026d 06       		.uleb128 0x6
 9713 026e 00       		.byte	0
 9714 026f 00       		.byte	0
 9715 0270 2E       		.uleb128 0x2e
 9716 0271 2E       		.uleb128 0x2e
 9717 0272 01       		.byte	0x1
 9718 0273 3F       		.uleb128 0x3f
 9719 0274 19       		.uleb128 0x19
 9720 0275 03       		.uleb128 0x3
 9721 0276 0E       		.uleb128 0xe
 9722 0277 3A       		.uleb128 0x3a
 9723 0278 0B       		.uleb128 0xb
 9724 0279 3B       		.uleb128 0x3b
 9725 027a 0B       		.uleb128 0xb
 9726 027b 27       		.uleb128 0x27
 9727 027c 19       		.uleb128 0x19
 9728 027d 11       		.uleb128 0x11
 9729 027e 01       		.uleb128 0x1
 9730 027f 12       		.uleb128 0x12
 9731 0280 06       		.uleb128 0x6
 9732 0281 40       		.uleb128 0x40
 9733 0282 18       		.uleb128 0x18
 9734 0283 9642     		.uleb128 0x2116
 9735 0285 19       		.uleb128 0x19
 9736 0286 01       		.uleb128 0x1
 9737 0287 13       		.uleb128 0x13
 9738 0288 00       		.byte	0
 9739 0289 00       		.byte	0
 9740 028a 2F       		.uleb128 0x2f
ARM GAS  C:\Users\tmj32\AppData\Local\Temp\cc0vWRpX.s 			page 194


 9741 028b 2E       		.uleb128 0x2e
 9742 028c 01       		.byte	0x1
 9743 028d 3F       		.uleb128 0x3f
 9744 028e 19       		.uleb128 0x19
 9745 028f 03       		.uleb128 0x3
 9746 0290 0E       		.uleb128 0xe
 9747 0291 3A       		.uleb128 0x3a
 9748 0292 0B       		.uleb128 0xb
 9749 0293 3B       		.uleb128 0x3b
 9750 0294 05       		.uleb128 0x5
 9751 0295 27       		.uleb128 0x27
 9752 0296 19       		.uleb128 0x19
 9753 0297 11       		.uleb128 0x11
 9754 0298 01       		.uleb128 0x1
 9755 0299 12       		.uleb128 0x12
 9756 029a 06       		.uleb128 0x6
 9757 029b 40       		.uleb128 0x40
 9758 029c 18       		.uleb128 0x18
 9759 029d 9642     		.uleb128 0x2116
 9760 029f 19       		.uleb128 0x19
 9761 02a0 01       		.uleb128 0x1
 9762 02a1 13       		.uleb128 0x13
 9763 02a2 00       		.byte	0
 9764 02a3 00       		.byte	0
 9765 02a4 30       		.uleb128 0x30
 9766 02a5 05       		.uleb128 0x5
 9767 02a6 00       		.byte	0
 9768 02a7 03       		.uleb128 0x3
 9769 02a8 0E       		.uleb128 0xe
 9770 02a9 3A       		.uleb128 0x3a
 9771 02aa 0B       		.uleb128 0xb
 9772 02ab 3B       		.uleb128 0x3b
 9773 02ac 05       		.uleb128 0x5
 9774 02ad 49       		.uleb128 0x49
 9775 02ae 13       		.uleb128 0x13
 9776 02af 02       		.uleb128 0x2
 9777 02b0 18       		.uleb128 0x18
 9778 02b1 00       		.byte	0
 9779 02b2 00       		.byte	0
 9780 02b3 31       		.uleb128 0x31
 9781 02b4 34       		.uleb128 0x34
 9782 02b5 00       		.byte	0
 9783 02b6 03       		.uleb128 0x3
 9784 02b7 08       		.uleb128 0x8
 9785 02b8 3A       		.uleb128 0x3a
 9786 02b9 0B       		.uleb128 0xb
 9787 02ba 3B       		.uleb128 0x3b
 9788 02bb 05       		.uleb128 0x5
 9789 02bc 49       		.uleb128 0x49
 9790 02bd 13       		.uleb128 0x13
 9791 02be 02       		.uleb128 0x2
 9792 02bf 18       		.uleb128 0x18
 9793 02c0 00       		.byte	0
 9794 02c1 00       		.byte	0
 9795 02c2 32       		.uleb128 0x32
 9796 02c3 2E       		.uleb128 0x2e
 9797 02c4 01       		.byte	0x1
ARM GAS  C:\Users\tmj32\AppData\Local\Temp\cc0vWRpX.s 			page 195


 9798 02c5 3F       		.uleb128 0x3f
 9799 02c6 19       		.uleb128 0x19
 9800 02c7 03       		.uleb128 0x3
 9801 02c8 0E       		.uleb128 0xe
 9802 02c9 3A       		.uleb128 0x3a
 9803 02ca 0B       		.uleb128 0xb
 9804 02cb 3B       		.uleb128 0x3b
 9805 02cc 05       		.uleb128 0x5
 9806 02cd 27       		.uleb128 0x27
 9807 02ce 19       		.uleb128 0x19
 9808 02cf 49       		.uleb128 0x49
 9809 02d0 13       		.uleb128 0x13
 9810 02d1 11       		.uleb128 0x11
 9811 02d2 01       		.uleb128 0x1
 9812 02d3 12       		.uleb128 0x12
 9813 02d4 06       		.uleb128 0x6
 9814 02d5 40       		.uleb128 0x40
 9815 02d6 18       		.uleb128 0x18
 9816 02d7 9642     		.uleb128 0x2116
 9817 02d9 19       		.uleb128 0x19
 9818 02da 01       		.uleb128 0x1
 9819 02db 13       		.uleb128 0x13
 9820 02dc 00       		.byte	0
 9821 02dd 00       		.byte	0
 9822 02de 33       		.uleb128 0x33
 9823 02df 34       		.uleb128 0x34
 9824 02e0 00       		.byte	0
 9825 02e1 03       		.uleb128 0x3
 9826 02e2 0E       		.uleb128 0xe
 9827 02e3 3A       		.uleb128 0x3a
 9828 02e4 0B       		.uleb128 0xb
 9829 02e5 3B       		.uleb128 0x3b
 9830 02e6 05       		.uleb128 0x5
 9831 02e7 49       		.uleb128 0x49
 9832 02e8 13       		.uleb128 0x13
 9833 02e9 02       		.uleb128 0x2
 9834 02ea 18       		.uleb128 0x18
 9835 02eb 00       		.byte	0
 9836 02ec 00       		.byte	0
 9837 02ed 34       		.uleb128 0x34
 9838 02ee 2E       		.uleb128 0x2e
 9839 02ef 01       		.byte	0x1
 9840 02f0 03       		.uleb128 0x3
 9841 02f1 0E       		.uleb128 0xe
 9842 02f2 3A       		.uleb128 0x3a
 9843 02f3 0B       		.uleb128 0xb
 9844 02f4 3B       		.uleb128 0x3b
 9845 02f5 05       		.uleb128 0x5
 9846 02f6 27       		.uleb128 0x27
 9847 02f7 19       		.uleb128 0x19
 9848 02f8 49       		.uleb128 0x49
 9849 02f9 13       		.uleb128 0x13
 9850 02fa 11       		.uleb128 0x11
 9851 02fb 01       		.uleb128 0x1
 9852 02fc 12       		.uleb128 0x12
 9853 02fd 06       		.uleb128 0x6
 9854 02fe 40       		.uleb128 0x40
ARM GAS  C:\Users\tmj32\AppData\Local\Temp\cc0vWRpX.s 			page 196


 9855 02ff 18       		.uleb128 0x18
 9856 0300 9642     		.uleb128 0x2116
 9857 0302 19       		.uleb128 0x19
 9858 0303 01       		.uleb128 0x1
 9859 0304 13       		.uleb128 0x13
 9860 0305 00       		.byte	0
 9861 0306 00       		.byte	0
 9862 0307 35       		.uleb128 0x35
 9863 0308 2E       		.uleb128 0x2e
 9864 0309 01       		.byte	0x1
 9865 030a 03       		.uleb128 0x3
 9866 030b 0E       		.uleb128 0xe
 9867 030c 3A       		.uleb128 0x3a
 9868 030d 0B       		.uleb128 0xb
 9869 030e 3B       		.uleb128 0x3b
 9870 030f 05       		.uleb128 0x5
 9871 0310 27       		.uleb128 0x27
 9872 0311 19       		.uleb128 0x19
 9873 0312 11       		.uleb128 0x11
 9874 0313 01       		.uleb128 0x1
 9875 0314 12       		.uleb128 0x12
 9876 0315 06       		.uleb128 0x6
 9877 0316 40       		.uleb128 0x40
 9878 0317 18       		.uleb128 0x18
 9879 0318 9642     		.uleb128 0x2116
 9880 031a 19       		.uleb128 0x19
 9881 031b 01       		.uleb128 0x1
 9882 031c 13       		.uleb128 0x13
 9883 031d 00       		.byte	0
 9884 031e 00       		.byte	0
 9885 031f 36       		.uleb128 0x36
 9886 0320 05       		.uleb128 0x5
 9887 0321 00       		.byte	0
 9888 0322 03       		.uleb128 0x3
 9889 0323 08       		.uleb128 0x8
 9890 0324 3A       		.uleb128 0x3a
 9891 0325 0B       		.uleb128 0xb
 9892 0326 3B       		.uleb128 0x3b
 9893 0327 05       		.uleb128 0x5
 9894 0328 49       		.uleb128 0x49
 9895 0329 13       		.uleb128 0x13
 9896 032a 02       		.uleb128 0x2
 9897 032b 18       		.uleb128 0x18
 9898 032c 00       		.byte	0
 9899 032d 00       		.byte	0
 9900 032e 37       		.uleb128 0x37
 9901 032f 2E       		.uleb128 0x2e
 9902 0330 01       		.byte	0x1
 9903 0331 03       		.uleb128 0x3
 9904 0332 0E       		.uleb128 0xe
 9905 0333 3A       		.uleb128 0x3a
 9906 0334 0B       		.uleb128 0xb
 9907 0335 3B       		.uleb128 0x3b
 9908 0336 05       		.uleb128 0x5
 9909 0337 27       		.uleb128 0x27
 9910 0338 19       		.uleb128 0x19
 9911 0339 49       		.uleb128 0x49
ARM GAS  C:\Users\tmj32\AppData\Local\Temp\cc0vWRpX.s 			page 197


 9912 033a 13       		.uleb128 0x13
 9913 033b 11       		.uleb128 0x11
 9914 033c 01       		.uleb128 0x1
 9915 033d 12       		.uleb128 0x12
 9916 033e 06       		.uleb128 0x6
 9917 033f 40       		.uleb128 0x40
 9918 0340 18       		.uleb128 0x18
 9919 0341 9742     		.uleb128 0x2117
 9920 0343 19       		.uleb128 0x19
 9921 0344 01       		.uleb128 0x1
 9922 0345 13       		.uleb128 0x13
 9923 0346 00       		.byte	0
 9924 0347 00       		.byte	0
 9925 0348 38       		.uleb128 0x38
 9926 0349 34       		.uleb128 0x34
 9927 034a 00       		.byte	0
 9928 034b 03       		.uleb128 0x3
 9929 034c 0E       		.uleb128 0xe
 9930 034d 3A       		.uleb128 0x3a
 9931 034e 0B       		.uleb128 0xb
 9932 034f 3B       		.uleb128 0x3b
 9933 0350 05       		.uleb128 0x5
 9934 0351 49       		.uleb128 0x49
 9935 0352 13       		.uleb128 0x13
 9936 0353 3F       		.uleb128 0x3f
 9937 0354 19       		.uleb128 0x19
 9938 0355 3C       		.uleb128 0x3c
 9939 0356 19       		.uleb128 0x19
 9940 0357 00       		.byte	0
 9941 0358 00       		.byte	0
 9942 0359 00       		.byte	0
 9943              		.section	.debug_aranges,"",%progbits
 9944 0000 14010000 		.4byte	0x114
 9945 0004 0200     		.2byte	0x2
 9946 0006 00000000 		.4byte	.Ldebug_info0
 9947 000a 04       		.byte	0x4
 9948 000b 00       		.byte	0
 9949 000c 0000     		.2byte	0
 9950 000e 0000     		.2byte	0
 9951 0010 00000000 		.4byte	.LFB0
 9952 0014 18000000 		.4byte	.LFE0-.LFB0
 9953 0018 00000000 		.4byte	.LFB10
 9954 001c 1C000000 		.4byte	.LFE10-.LFB10
 9955 0020 00000000 		.4byte	.LFB11
 9956 0024 2E000000 		.4byte	.LFE11-.LFB11
 9957 0028 00000000 		.4byte	.LFB31
 9958 002c C8020000 		.4byte	.LFE31-.LFB31
 9959 0030 00000000 		.4byte	.LFB32
 9960 0034 3C000000 		.4byte	.LFE32-.LFB32
 9961 0038 00000000 		.4byte	.LFB33
 9962 003c 3C000000 		.4byte	.LFE33-.LFB33
 9963 0040 00000000 		.4byte	.LFB34
 9964 0044 30000000 		.4byte	.LFE34-.LFB34
 9965 0048 00000000 		.4byte	.LFB35
 9966 004c 26000000 		.4byte	.LFE35-.LFB35
 9967 0050 00000000 		.4byte	.LFB36
 9968 0054 26000000 		.4byte	.LFE36-.LFB36
ARM GAS  C:\Users\tmj32\AppData\Local\Temp\cc0vWRpX.s 			page 198


 9969 0058 00000000 		.4byte	.LFB37
 9970 005c 94000000 		.4byte	.LFE37-.LFB37
 9971 0060 00000000 		.4byte	.LFB38
 9972 0064 1A000000 		.4byte	.LFE38-.LFB38
 9973 0068 00000000 		.4byte	.LFB39
 9974 006c 1C000000 		.4byte	.LFE39-.LFB39
 9975 0070 00000000 		.4byte	.LFB40
 9976 0074 28000000 		.4byte	.LFE40-.LFB40
 9977 0078 00000000 		.4byte	.LFB41
 9978 007c 1C000000 		.4byte	.LFE41-.LFB41
 9979 0080 00000000 		.4byte	.LFB42
 9980 0084 1C000000 		.4byte	.LFE42-.LFB42
 9981 0088 00000000 		.4byte	.LFB43
 9982 008c 1C000000 		.4byte	.LFE43-.LFB43
 9983 0090 00000000 		.4byte	.LFB44
 9984 0094 1C000000 		.4byte	.LFE44-.LFB44
 9985 0098 00000000 		.4byte	.LFB45
 9986 009c 96000000 		.4byte	.LFE45-.LFB45
 9987 00a0 00000000 		.4byte	.LFB46
 9988 00a4 74000000 		.4byte	.LFE46-.LFB46
 9989 00a8 00000000 		.4byte	.LFB47
 9990 00ac F8020000 		.4byte	.LFE47-.LFB47
 9991 00b0 00000000 		.4byte	.LFB48
 9992 00b4 00030000 		.4byte	.LFE48-.LFB48
 9993 00b8 00000000 		.4byte	.LFB49
 9994 00bc 46000000 		.4byte	.LFE49-.LFB49
 9995 00c0 00000000 		.4byte	.LFB50
 9996 00c4 46000000 		.4byte	.LFE50-.LFB50
 9997 00c8 00000000 		.4byte	.LFB51
 9998 00cc E0010000 		.4byte	.LFE51-.LFB51
 9999 00d0 00000000 		.4byte	.LFB52
 10000 00d4 50010000 		.4byte	.LFE52-.LFB52
 10001 00d8 00000000 		.4byte	.LFB53
 10002 00dc B0050000 		.4byte	.LFE53-.LFB53
 10003 00e0 00000000 		.4byte	.LFB54
 10004 00e4 90000000 		.4byte	.LFE54-.LFB54
 10005 00e8 00000000 		.4byte	.LFB55
 10006 00ec 40000000 		.4byte	.LFE55-.LFB55
 10007 00f0 00000000 		.4byte	.LFB56
 10008 00f4 50000000 		.4byte	.LFE56-.LFB56
 10009 00f8 00000000 		.4byte	.LFB57
 10010 00fc 8C000000 		.4byte	.LFE57-.LFB57
 10011 0100 00000000 		.4byte	.LFB58
 10012 0104 58000000 		.4byte	.LFE58-.LFB58
 10013 0108 00000000 		.4byte	.LFB59
 10014 010c 9C000000 		.4byte	.LFE59-.LFB59
 10015 0110 00000000 		.4byte	0
 10016 0114 00000000 		.4byte	0
 10017              		.section	.debug_ranges,"",%progbits
 10018              	.Ldebug_ranges0:
 10019 0000 00000000 		.4byte	.LFB0
 10020 0004 18000000 		.4byte	.LFE0
 10021 0008 00000000 		.4byte	.LFB10
 10022 000c 1C000000 		.4byte	.LFE10
 10023 0010 00000000 		.4byte	.LFB11
 10024 0014 2E000000 		.4byte	.LFE11
 10025 0018 00000000 		.4byte	.LFB31
ARM GAS  C:\Users\tmj32\AppData\Local\Temp\cc0vWRpX.s 			page 199


 10026 001c C8020000 		.4byte	.LFE31
 10027 0020 00000000 		.4byte	.LFB32
 10028 0024 3C000000 		.4byte	.LFE32
 10029 0028 00000000 		.4byte	.LFB33
 10030 002c 3C000000 		.4byte	.LFE33
 10031 0030 00000000 		.4byte	.LFB34
 10032 0034 30000000 		.4byte	.LFE34
 10033 0038 00000000 		.4byte	.LFB35
 10034 003c 26000000 		.4byte	.LFE35
 10035 0040 00000000 		.4byte	.LFB36
 10036 0044 26000000 		.4byte	.LFE36
 10037 0048 00000000 		.4byte	.LFB37
 10038 004c 94000000 		.4byte	.LFE37
 10039 0050 00000000 		.4byte	.LFB38
 10040 0054 1A000000 		.4byte	.LFE38
 10041 0058 00000000 		.4byte	.LFB39
 10042 005c 1C000000 		.4byte	.LFE39
 10043 0060 00000000 		.4byte	.LFB40
 10044 0064 28000000 		.4byte	.LFE40
 10045 0068 00000000 		.4byte	.LFB41
 10046 006c 1C000000 		.4byte	.LFE41
 10047 0070 00000000 		.4byte	.LFB42
 10048 0074 1C000000 		.4byte	.LFE42
 10049 0078 00000000 		.4byte	.LFB43
 10050 007c 1C000000 		.4byte	.LFE43
 10051 0080 00000000 		.4byte	.LFB44
 10052 0084 1C000000 		.4byte	.LFE44
 10053 0088 00000000 		.4byte	.LFB45
 10054 008c 96000000 		.4byte	.LFE45
 10055 0090 00000000 		.4byte	.LFB46
 10056 0094 74000000 		.4byte	.LFE46
 10057 0098 00000000 		.4byte	.LFB47
 10058 009c F8020000 		.4byte	.LFE47
 10059 00a0 00000000 		.4byte	.LFB48
 10060 00a4 00030000 		.4byte	.LFE48
 10061 00a8 00000000 		.4byte	.LFB49
 10062 00ac 46000000 		.4byte	.LFE49
 10063 00b0 00000000 		.4byte	.LFB50
 10064 00b4 46000000 		.4byte	.LFE50
 10065 00b8 00000000 		.4byte	.LFB51
 10066 00bc E0010000 		.4byte	.LFE51
 10067 00c0 00000000 		.4byte	.LFB52
 10068 00c4 50010000 		.4byte	.LFE52
 10069 00c8 00000000 		.4byte	.LFB53
 10070 00cc B0050000 		.4byte	.LFE53
 10071 00d0 00000000 		.4byte	.LFB54
 10072 00d4 90000000 		.4byte	.LFE54
 10073 00d8 00000000 		.4byte	.LFB55
 10074 00dc 40000000 		.4byte	.LFE55
 10075 00e0 00000000 		.4byte	.LFB56
 10076 00e4 50000000 		.4byte	.LFE56
 10077 00e8 00000000 		.4byte	.LFB57
 10078 00ec 8C000000 		.4byte	.LFE57
 10079 00f0 00000000 		.4byte	.LFB58
 10080 00f4 58000000 		.4byte	.LFE58
 10081 00f8 00000000 		.4byte	.LFB59
 10082 00fc 9C000000 		.4byte	.LFE59
ARM GAS  C:\Users\tmj32\AppData\Local\Temp\cc0vWRpX.s 			page 200


 10083 0100 00000000 		.4byte	0
 10084 0104 00000000 		.4byte	0
 10085              		.section	.debug_line,"",%progbits
 10086              	.Ldebug_line0:
 10087 0000 C40A0000 		.section	.debug_str,"MS",%progbits,1
 10087      02006F04 
 10087      00000201 
 10087      FB0E0D00 
 10087      01010101 
 10088              	.LASF260:
 10089 0000 7374796C 		.ascii	"style_header\000"
 10089      655F6865 
 10089      61646572 
 10089      00
 10090              	.LASF15:
 10091 000d 696E7438 		.ascii	"int8_t\000"
 10091      5F7400
 10092              	.LASF110:
 10093 0014 636F6C6F 		.ascii	"color_chroma_key\000"
 10093      725F6368 
 10093      726F6D61 
 10093      5F6B6579 
 10093      00
 10094              	.LASF78:
 10095 0025 6C765F6C 		.ascii	"lv_ll_node_t\000"
 10095      6C5F6E6F 
 10095      64655F74 
 10095      00
 10096              	.LASF23:
 10097 0032 6164765F 		.ascii	"adv_w\000"
 10097      7700
 10098              	.LASF306:
 10099 0038 68656164 		.ascii	"header_pr\000"
 10099      65725F70 
 10099      7200
 10100              	.LASF42:
 10101 0042 73697A65 		.ascii	"sizetype\000"
 10101      74797065 
 10101      00
 10102              	.LASF284:
 10103 004b 4C565F4B 		.ascii	"LV_KEY_RIGHT\000"
 10103      45595F52 
 10103      49474854 
 10103      00
 10104              	.LASF39:
 10105 0058 6C765F63 		.ascii	"lv_color32_t\000"
 10105      6F6C6F72 
 10105      33325F74 
 10105      00
 10106              	.LASF313:
 10107 0065 63656C6C 		.ascii	"cell\000"
 10107      00
 10108              	.LASF396:
 10109 006a 6D6F6E74 		.ascii	"month_start_day\000"
 10109      685F7374 
 10109      6172745F 
 10109      64617900 
ARM GAS  C:\Users\tmj32\AppData\Local\Temp\cc0vWRpX.s 			page 201


 10110              	.LASF359:
 10111 007a 6C765F63 		.ascii	"lv_calendar_get_today_date\000"
 10111      616C656E 
 10111      6461725F 
 10111      6765745F 
 10111      746F6461 
 10112              	.LASF81:
 10113 0095 7461696C 		.ascii	"tail\000"
 10113      00
 10114              	.LASF261:
 10115 009a 7374796C 		.ascii	"style_header_pr\000"
 10115      655F6865 
 10115      61646572 
 10115      5F707200 
 10116              	.LASF417:
 10117 00aa 6C765F73 		.ascii	"lv_style_pretty_color\000"
 10117      74796C65 
 10117      5F707265 
 10117      7474795F 
 10117      636F6C6F 
 10118              	.LASF221:
 10119 00c0 4C565F53 		.ascii	"LV_SIGNAL_STYLE_CHG\000"
 10119      49474E41 
 10119      4C5F5354 
 10119      594C455F 
 10119      43484700 
 10120              	.LASF116:
 10121 00d4 6163745F 		.ascii	"act_scr\000"
 10121      73637200 
 10122              	.LASF41:
 10123 00dc 6C765F6F 		.ascii	"lv_opa_t\000"
 10123      70615F74 
 10123      00
 10124              	.LASF19:
 10125 00e5 696E7433 		.ascii	"int32_t\000"
 10125      325F7400 
 10126              	.LASF66:
 10127 00ed 696E7465 		.ascii	"intense\000"
 10127      6E736500 
 10128              	.LASF210:
 10129 00f5 4C565F45 		.ascii	"LV_EVENT_INSERT\000"
 10129      56454E54 
 10129      5F494E53 
 10129      45525400 
 10130              	.LASF400:
 10131 0105 696E5F77 		.ascii	"in_week_box\000"
 10131      65656B5F 
 10131      626F7800 
 10132              	.LASF44:
 10133 0111 6C765F70 		.ascii	"lv_point_t\000"
 10133      6F696E74 
 10133      5F7400
 10134              	.LASF320:
 10135 011c 6C6D6574 		.ascii	"lmeter\000"
 10135      657200
 10136              	.LASF229:
 10137 0123 4C565F53 		.ascii	"LV_SIGNAL_LONG_PRESS\000"
ARM GAS  C:\Users\tmj32\AppData\Local\Temp\cc0vWRpX.s 			page 202


 10137      49474E41 
 10137      4C5F4C4F 
 10137      4E475F50 
 10137      52455353 
 10138              	.LASF58:
 10139 0138 72616469 		.ascii	"radius\000"
 10139      757300
 10140              	.LASF246:
 10141 013f 6C765F72 		.ascii	"lv_reailgn_t\000"
 10141      6561696C 
 10141      676E5F74 
 10141      00
 10142              	.LASF31:
 10143 014c 6C696E65 		.ascii	"line_height\000"
 10143      5F686569 
 10143      67687400 
 10144              	.LASF386:
 10145 0158 62696469 		.ascii	"bidi_dir\000"
 10145      5F646972 
 10145      00
 10146              	.LASF131:
 10147 0161 636C6963 		.ascii	"click\000"
 10147      6B00
 10148              	.LASF239:
 10149 0167 6C765F61 		.ascii	"lv_align_t\000"
 10149      6C69676E 
 10149      5F7400
 10150              	.LASF231:
 10151 0172 4C565F53 		.ascii	"LV_SIGNAL_DRAG_BEGIN\000"
 10151      49474E41 
 10151      4C5F4452 
 10151      41475F42 
 10151      4547494E 
 10152              	.LASF307:
 10153 0187 68696768 		.ascii	"highlighted_days\000"
 10153      6C696768 
 10153      7465645F 
 10153      64617973 
 10153      00
 10154              	.LASF366:
 10155 0198 6C765F63 		.ascii	"lv_calendar_get_style\000"
 10155      616C656E 
 10155      6461725F 
 10155      6765745F 
 10155      7374796C 
 10156              	.LASF371:
 10157 01ae 7369676E 		.ascii	"sign\000"
 10157      00
 10158              	.LASF407:
 10159 01b3 6765745F 		.ascii	"get_month_length\000"
 10159      6D6F6E74 
 10159      685F6C65 
 10159      6E677468 
 10159      00
 10160              	.LASF215:
 10161 01c4 6C765F65 		.ascii	"lv_event_t\000"
 10161      76656E74 
ARM GAS  C:\Users\tmj32\AppData\Local\Temp\cc0vWRpX.s 			page 203


 10161      5F7400
 10162              	.LASF150:
 10163 01cf 73746174 		.ascii	"state\000"
 10163      6500
 10164              	.LASF289:
 10165 01d5 4C565F4B 		.ascii	"LV_KEY_ENTER\000"
 10165      45595F45 
 10165      4E544552 
 10165      00
 10166              	.LASF75:
 10167 01e2 4C565F52 		.ascii	"LV_RES_INV\000"
 10167      45535F49 
 10167      4E5600
 10168              	.LASF225:
 10169 01ed 4C565F53 		.ascii	"LV_SIGNAL_PRESSED\000"
 10169      49474E41 
 10169      4C5F5052 
 10169      45535345 
 10169      4400
 10170              	.LASF51:
 10171 01ff 74797065 		.ascii	"type\000"
 10171      00
 10172              	.LASF199:
 10173 0204 4C565F45 		.ascii	"LV_EVENT_LONG_PRESSED\000"
 10173      56454E54 
 10173      5F4C4F4E 
 10173      475F5052 
 10173      45535345 
 10174              	.LASF249:
 10175 021a 79656172 		.ascii	"year\000"
 10175      00
 10176              	.LASF350:
 10177 021f 6C765F63 		.ascii	"lv_calendar_set_showed_date\000"
 10177      616C656E 
 10177      6461725F 
 10177      7365745F 
 10177      73686F77 
 10178              	.LASF399:
 10179 023b 6D6F6E74 		.ascii	"month_of_today_shown\000"
 10179      685F6F66 
 10179      5F746F64 
 10179      61795F73 
 10179      686F776E 
 10180              	.LASF298:
 10181 0250 6C696768 		.ascii	"light\000"
 10181      7400
 10182              	.LASF152:
 10183 0256 5F6C765F 		.ascii	"_lv_indev_drv_t\000"
 10183      696E6465 
 10183      765F6472 
 10183      765F7400 
 10184              	.LASF316:
 10185 0266 636F6E74 		.ascii	"cont\000"
 10185      00
 10186              	.LASF271:
 10187 026b 4C565F43 		.ascii	"LV_CALENDAR_STYLE_DAY_NAMES\000"
 10187      414C454E 
ARM GAS  C:\Users\tmj32\AppData\Local\Temp\cc0vWRpX.s 			page 204


 10187      4441525F 
 10187      5354594C 
 10187      455F4441 
 10188              	.LASF91:
 10189 0287 7072696F 		.ascii	"prio\000"
 10189      00
 10190              	.LASF115:
 10191 028c 7363725F 		.ascii	"scr_ll\000"
 10191      6C6C00
 10192              	.LASF147:
 10193 0293 706F696E 		.ascii	"point\000"
 10193      7400
 10194              	.LASF1:
 10195 0299 5F5F7569 		.ascii	"__uint8_t\000"
 10195      6E74385F 
 10195      7400
 10196              	.LASF37:
 10197 02a3 616C7068 		.ascii	"alpha\000"
 10197      6100
 10198              	.LASF103:
 10199 02a9 7665725F 		.ascii	"ver_res\000"
 10199      72657300 
 10200              	.LASF184:
 10201 02b1 5F6C765F 		.ascii	"_lv_indev_t\000"
 10201      696E6465 
 10201      765F7400 
 10202              	.LASF135:
 10203 02bd 68696464 		.ascii	"hidden\000"
 10203      656E00
 10204              	.LASF122:
 10205 02c4 6C617374 		.ascii	"last_activity_time\000"
 10205      5F616374 
 10205      69766974 
 10205      795F7469 
 10205      6D6500
 10206              	.LASF9:
 10207 02d7 6C6F6E67 		.ascii	"long int\000"
 10207      20696E74 
 10207      00
 10208              	.LASF114:
 10209 02e0 72656672 		.ascii	"refr_task\000"
 10209      5F746173 
 10209      6B00
 10210              	.LASF105:
 10211 02ea 726F7461 		.ascii	"rotated\000"
 10211      74656400 
 10212              	.LASF171:
 10213 02f2 6C617374 		.ascii	"last_state\000"
 10213      5F737461 
 10213      746500
 10214              	.LASF263:
 10215 02fd 7374796C 		.ascii	"style_highlighted_days\000"
 10215      655F6869 
 10215      67686C69 
 10215      67687465 
 10215      645F6461 
 10216              	.LASF401:
ARM GAS  C:\Users\tmj32\AppData\Local\Temp\cc0vWRpX.s 			page 205


 10217 0314 7765656B 		.ascii	"week_box_area\000"
 10217      5F626F78 
 10217      5F617265 
 10217      6100
 10218              	.LASF333:
 10219 0322 74696C65 		.ascii	"tileview\000"
 10219      76696577 
 10219      00
 10220              	.LASF287:
 10221 032b 4C565F4B 		.ascii	"LV_KEY_DEL\000"
 10221      45595F44 
 10221      454C00
 10222              	.LASF281:
 10223 0336 4C565F54 		.ascii	"LV_TXT_FLAG_RIGHT\000"
 10223      58545F46 
 10223      4C41475F 
 10223      52494748 
 10223      5400
 10224              	.LASF345:
 10225 0348 61726561 		.ascii	"area_p\000"
 10225      5F7000
 10226              	.LASF265:
 10227 034f 7374796C 		.ascii	"style_week_box\000"
 10227      655F7765 
 10227      656B5F62 
 10227      6F7800
 10228              	.LASF80:
 10229 035e 68656164 		.ascii	"head\000"
 10229      00
 10230              	.LASF153:
 10231 0363 72656164 		.ascii	"read_cb\000"
 10231      5F636200 
 10232              	.LASF255:
 10233 036b 62746E5F 		.ascii	"btn_pressing\000"
 10233      70726573 
 10233      73696E67 
 10233      00
 10234              	.LASF323:
 10235 0378 63686172 		.ascii	"chart\000"
 10235      7400
 10236              	.LASF259:
 10237 037e 6D6F6E74 		.ascii	"month_names\000"
 10237      685F6E61 
 10237      6D657300 
 10238              	.LASF168:
 10239 038a 6C617374 		.ascii	"last_pressed\000"
 10239      5F707265 
 10239      73736564 
 10239      00
 10240              	.LASF325:
 10241 0397 62746E6D 		.ascii	"btnm\000"
 10241      00
 10242              	.LASF385:
 10243 039c 64726177 		.ascii	"draw_header\000"
 10243      5F686561 
 10243      64657200 
 10244              	.LASF278:
ARM GAS  C:\Users\tmj32\AppData\Local\Temp\cc0vWRpX.s 			page 206


 10245 03a8 4C565F54 		.ascii	"LV_TXT_FLAG_RECOLOR\000"
 10245      58545F46 
 10245      4C41475F 
 10245      5245434F 
 10245      4C4F5200 
 10246              	.LASF354:
 10247 03bc 64617465 		.ascii	"date_num\000"
 10247      5F6E756D 
 10247      00
 10248              	.LASF285:
 10249 03c5 4C565F4B 		.ascii	"LV_KEY_LEFT\000"
 10249      45595F4C 
 10249      45465400 
 10250              	.LASF108:
 10251 03d1 7365745F 		.ascii	"set_px_cb\000"
 10251      70785F63 
 10251      6200
 10252              	.LASF2:
 10253 03db 7369676E 		.ascii	"signed char\000"
 10253      65642063 
 10253      68617200 
 10254              	.LASF16:
 10255 03e7 75696E74 		.ascii	"uint8_t\000"
 10255      385F7400 
 10256              	.LASF102:
 10257 03ef 686F725F 		.ascii	"hor_res\000"
 10257      72657300 
 10258              	.LASF338:
 10259 03f7 4441595F 		.ascii	"DAY_DRAW_ACT_MONTH\000"
 10259      44524157 
 10259      5F414354 
 10259      5F4D4F4E 
 10259      544800
 10260              	.LASF310:
 10261 040a 746F6461 		.ascii	"today_box\000"
 10261      795F626F 
 10261      7800
 10262              	.LASF295:
 10263 0414 74676C5F 		.ascii	"tgl_pr\000"
 10263      707200
 10264              	.LASF394:
 10265 041b 7765656B 		.ascii	"week\000"
 10265      00
 10266              	.LASF30:
 10267 0420 6765745F 		.ascii	"get_glyph_bitmap\000"
 10267      676C7970 
 10267      685F6269 
 10267      746D6170 
 10267      00
 10268              	.LASF311:
 10269 0431 7363726C 		.ascii	"scrl\000"
 10269      00
 10270              	.LASF35:
 10271 0436 626C7565 		.ascii	"blue\000"
 10271      00
 10272              	.LASF361:
 10273 043b 6C765F63 		.ascii	"lv_calendar_get_pressed_date\000"
ARM GAS  C:\Users\tmj32\AppData\Local\Temp\cc0vWRpX.s 			page 207


 10273      616C656E 
 10273      6461725F 
 10273      6765745F 
 10273      70726573 
 10274              	.LASF230:
 10275 0458 4C565F53 		.ascii	"LV_SIGNAL_LONG_PRESS_REP\000"
 10275      49474E41 
 10275      4C5F4C4F 
 10275      4E475F50 
 10275      52455353 
 10276              	.LASF266:
 10277 0471 7374796C 		.ascii	"style_today_box\000"
 10277      655F746F 
 10277      6461795F 
 10277      626F7800 
 10278              	.LASF296:
 10279 0481 7072696D 		.ascii	"prim\000"
 10279      00
 10280              	.LASF3:
 10281 0486 756E7369 		.ascii	"unsigned char\000"
 10281      676E6564 
 10281      20636861 
 10281      7200
 10282              	.LASF117:
 10283 0494 746F705F 		.ascii	"top_layer\000"
 10283      6C617965 
 10283      7200
 10284              	.LASF267:
 10285 049e 6C765F63 		.ascii	"lv_calendar_ext_t\000"
 10285      616C656E 
 10285      6461725F 
 10285      6578745F 
 10285      7400
 10286              	.LASF223:
 10287 04b0 4C565F53 		.ascii	"LV_SIGNAL_REFR_EXT_DRAW_PAD\000"
 10287      49474E41 
 10287      4C5F5245 
 10287      46525F45 
 10287      58545F44 
 10288              	.LASF138:
 10289 04cc 64726167 		.ascii	"drag_dir\000"
 10289      5F646972 
 10289      00
 10290              	.LASF89:
 10291 04d5 7461736B 		.ascii	"task_cb\000"
 10291      5F636200 
 10292              	.LASF304:
 10293 04dd 6B6E6F62 		.ascii	"knob_on\000"
 10293      5F6F6E00 
 10294              	.LASF26:
 10295 04e5 6F66735F 		.ascii	"ofs_x\000"
 10295      7800
 10296              	.LASF27:
 10297 04eb 6F66735F 		.ascii	"ofs_y\000"
 10297      7900
 10298              	.LASF288:
 10299 04f1 4C565F4B 		.ascii	"LV_KEY_BACKSPACE\000"
ARM GAS  C:\Users\tmj32\AppData\Local\Temp\cc0vWRpX.s 			page 208


 10299      45595F42 
 10299      41434B53 
 10299      50414345 
 10299      00
 10300              	.LASF305:
 10301 0502 68656164 		.ascii	"header\000"
 10301      657200
 10302              	.LASF33:
 10303 0509 5F426F6F 		.ascii	"_Bool\000"
 10303      6C00
 10304              	.LASF238:
 10305 050f 6C765F73 		.ascii	"lv_signal_cb_t\000"
 10305      69676E61 
 10305      6C5F6362 
 10305      5F7400
 10306              	.LASF334:
 10307 051e 7461626C 		.ascii	"table\000"
 10307      6500
 10308              	.LASF120:
 10309 0524 696E765F 		.ascii	"inv_area_joined\000"
 10309      61726561 
 10309      5F6A6F69 
 10309      6E656400 
 10310              	.LASF43:
 10311 0534 63686172 		.ascii	"char\000"
 10311      00
 10312              	.LASF148:
 10313 0539 62746E5F 		.ascii	"btn_id\000"
 10313      696400
 10314              	.LASF384:
 10315 0540 6C765F61 		.ascii	"lv_area_copy\000"
 10315      7265615F 
 10315      636F7079 
 10315      00
 10316              	.LASF191:
 10317 054d 4C565F44 		.ascii	"LV_DESIGN_DRAW_POST\000"
 10317      45534947 
 10317      4E5F4452 
 10317      41575F50 
 10317      4F535400 
 10318              	.LASF70:
 10319 0561 626F6479 		.ascii	"body\000"
 10319      00
 10320              	.LASF165:
 10321 0566 64726167 		.ascii	"drag_throw_vect\000"
 10321      5F746872 
 10321      6F775F76 
 10321      65637400 
 10322              	.LASF404:
 10323 0576 69735F68 		.ascii	"is_highlighted\000"
 10323      6967686C 
 10323      69676874 
 10323      656400
 10324              	.LASF86:
 10325 0585 5F6C765F 		.ascii	"_lv_task_t\000"
 10325      7461736B 
 10325      5F7400
ARM GAS  C:\Users\tmj32\AppData\Local\Temp\cc0vWRpX.s 			page 209


 10326              	.LASF6:
 10327 0590 5F5F7569 		.ascii	"__uint16_t\000"
 10327      6E743136 
 10327      5F7400
 10328              	.LASF309:
 10329 059b 7765656B 		.ascii	"week_box\000"
 10329      5F626F78 
 10329      00
 10330              	.LASF192:
 10331 05a4 4C565F44 		.ascii	"LV_DESIGN_COVER_CHK\000"
 10331      45534947 
 10331      4E5F434F 
 10331      5645525F 
 10331      43484B00 
 10332              	.LASF185:
 10333 05b8 70726F63 		.ascii	"proc\000"
 10333      00
 10334              	.LASF395:
 10335 05bd 6461795F 		.ascii	"day_cnt\000"
 10335      636E7400 
 10336              	.LASF128:
 10337 05c5 64657369 		.ascii	"design_cb\000"
 10337      676E5F63 
 10337      6200
 10338              	.LASF277:
 10339 05cf 4C565F54 		.ascii	"LV_TXT_FLAG_NONE\000"
 10339      58545F46 
 10339      4C41475F 
 10339      4E4F4E45 
 10339      00
 10340              	.LASF415:
 10341 05e0 6C765F73 		.ascii	"lv_style_plain_color\000"
 10341      74796C65 
 10341      5F706C61 
 10341      696E5F63 
 10341      6F6C6F72 
 10342              	.LASF99:
 10343 05f5 666C7573 		.ascii	"flushing\000"
 10343      68696E67 
 10343      00
 10344              	.LASF234:
 10345 05fe 4C565F53 		.ascii	"LV_SIGNAL_DEFOCUS\000"
 10345      49474E41 
 10345      4C5F4445 
 10345      464F4355 
 10345      5300
 10346              	.LASF403:
 10347 0610 746F6461 		.ascii	"today_box_area\000"
 10347      795F626F 
 10347      785F6172 
 10347      656100
 10348              	.LASF207:
 10349 061f 4C565F45 		.ascii	"LV_EVENT_FOCUSED\000"
 10349      56454E54 
 10349      5F464F43 
 10349      55534544 
 10349      00
ARM GAS  C:\Users\tmj32\AppData\Local\Temp\cc0vWRpX.s 			page 210


 10350              	.LASF330:
 10351 0630 64646C69 		.ascii	"ddlist\000"
 10351      737400
 10352              	.LASF71:
 10353 0637 74657874 		.ascii	"text\000"
 10353      00
 10354              	.LASF375:
 10355 063c 63616C63 		.ascii	"calculate_touched_day\000"
 10355      756C6174 
 10355      655F746F 
 10355      75636865 
 10355      645F6461 
 10356              	.LASF173:
 10357 0652 706F696E 		.ascii	"pointer\000"
 10357      74657200 
 10358              	.LASF203:
 10359 065a 4C565F45 		.ascii	"LV_EVENT_DRAG_BEGIN\000"
 10359      56454E54 
 10359      5F445241 
 10359      475F4245 
 10359      47494E00 
 10360              	.LASF72:
 10361 066e 696D6167 		.ascii	"image\000"
 10361      6500
 10362              	.LASF391:
 10363 0674 6C616265 		.ascii	"label_area\000"
 10363      6C5F6172 
 10363      656100
 10364              	.LASF68:
 10365 067f 726F756E 		.ascii	"rounded\000"
 10365      64656400 
 10366              	.LASF133:
 10367 0687 64726167 		.ascii	"drag_throw\000"
 10367      5F746872 
 10367      6F7700
 10368              	.LASF146:
 10369 0692 6C765F69 		.ascii	"lv_indev_state_t\000"
 10369      6E646576 
 10369      5F737461 
 10369      74655F74 
 10369      00
 10370              	.LASF405:
 10371 06a3 6765745F 		.ascii	"get_day_name\000"
 10371      6461795F 
 10371      6E616D65 
 10371      00
 10372              	.LASF83:
 10373 06b0 6C765F62 		.ascii	"lv_bidi_dir_t\000"
 10373      6964695F 
 10373      6469725F 
 10373      7400
 10374              	.LASF143:
 10375 06be 6578745F 		.ascii	"ext_draw_pad\000"
 10375      64726177 
 10375      5F706164 
 10375      00
 10376              	.LASF159:
ARM GAS  C:\Users\tmj32\AppData\Local\Temp\cc0vWRpX.s 			page 211


 10377 06cb 6C6F6E67 		.ascii	"long_press_rep_time\000"
 10377      5F707265 
 10377      73735F72 
 10377      65705F74 
 10377      696D6500 
 10378              	.LASF45:
 10379 06df 6C765F61 		.ascii	"lv_area_t\000"
 10379      7265615F 
 10379      7400
 10380              	.LASF104:
 10381 06e9 62756666 		.ascii	"buffer\000"
 10381      657200
 10382              	.LASF201:
 10383 06f0 4C565F45 		.ascii	"LV_EVENT_CLICKED\000"
 10383      56454E54 
 10383      5F434C49 
 10383      434B4544 
 10383      00
 10384              	.LASF340:
 10385 0701 6461795F 		.ascii	"day_draw_state_t\000"
 10385      64726177 
 10385      5F737461 
 10385      74655F74 
 10385      00
 10386              	.LASF280:
 10387 0712 4C565F54 		.ascii	"LV_TXT_FLAG_CENTER\000"
 10387      58545F46 
 10387      4C41475F 
 10387      43454E54 
 10387      455200
 10388              	.LASF53:
 10389 0725 6C656674 		.ascii	"left\000"
 10389      00
 10390              	.LASF336:
 10391 072a 6C765F74 		.ascii	"lv_theme_t\000"
 10391      68656D65 
 10391      5F7400
 10392              	.LASF212:
 10393 0735 4C565F45 		.ascii	"LV_EVENT_APPLY\000"
 10393      56454E54 
 10393      5F415050 
 10393      4C5900
 10394              	.LASF144:
 10395 0744 7265616C 		.ascii	"realign\000"
 10395      69676E00 
 10396              	.LASF252:
 10397 074c 746F6461 		.ascii	"today\000"
 10397      7900
 10398              	.LASF205:
 10399 0752 4C565F45 		.ascii	"LV_EVENT_DRAG_THROW_BEGIN\000"
 10399      56454E54 
 10399      5F445241 
 10399      475F5448 
 10399      524F575F 
 10400              	.LASF189:
 10401 076c 6C765F69 		.ascii	"lv_indev_t\000"
 10401      6E646576 
ARM GAS  C:\Users\tmj32\AppData\Local\Temp\cc0vWRpX.s 			page 212


 10401      5F7400
 10402              	.LASF188:
 10403 0777 62746E5F 		.ascii	"btn_points\000"
 10403      706F696E 
 10403      747300
 10404              	.LASF337:
 10405 0782 4441595F 		.ascii	"DAY_DRAW_PREV_MONTH\000"
 10405      44524157 
 10405      5F505245 
 10405      565F4D4F 
 10405      4E544800 
 10406              	.LASF224:
 10407 0796 4C565F53 		.ascii	"LV_SIGNAL_GET_TYPE\000"
 10407      49474E41 
 10407      4C5F4745 
 10407      545F5459 
 10407      504500
 10408              	.LASF182:
 10409 07a9 77616974 		.ascii	"wait_until_release\000"
 10409      5F756E74 
 10409      696C5F72 
 10409      656C6561 
 10409      736500
 10410              	.LASF363:
 10411 07bc 6C765F63 		.ascii	"lv_calendar_get_highlighted_dates_num\000"
 10411      616C656E 
 10411      6461725F 
 10411      6765745F 
 10411      68696768 
 10412              	.LASF98:
 10413 07e2 61726561 		.ascii	"area\000"
 10413      00
 10414              	.LASF388:
 10415 07e7 6172726F 		.ascii	"arrow_style\000"
 10415      775F7374 
 10415      796C6500 
 10416              	.LASF172:
 10417 07f3 6C617374 		.ascii	"last_key\000"
 10417      5F6B6579 
 10417      00
 10418              	.LASF380:
 10419 07fc 795F706F 		.ascii	"y_pos\000"
 10419      7300
 10420              	.LASF74:
 10421 0802 6C765F73 		.ascii	"lv_style_t\000"
 10421      74796C65 
 10421      5F7400
 10422              	.LASF55:
 10423 080d 696E6E65 		.ascii	"inner\000"
 10423      7200
 10424              	.LASF181:
 10425 0813 64697361 		.ascii	"disabled\000"
 10425      626C6564 
 10425      00
 10426              	.LASF273:
 10427 081c 4C565F43 		.ascii	"LV_CALENDAR_STYLE_INACTIVE_DAYS\000"
 10427      414C454E 
ARM GAS  C:\Users\tmj32\AppData\Local\Temp\cc0vWRpX.s 			page 213


 10427      4441525F 
 10427      5354594C 
 10427      455F494E 
 10428              	.LASF11:
 10429 083c 6C6F6E67 		.ascii	"long unsigned int\000"
 10429      20756E73 
 10429      69676E65 
 10429      6420696E 
 10429      7400
 10430              	.LASF292:
 10431 084e 4C565F4B 		.ascii	"LV_KEY_HOME\000"
 10431      45595F48 
 10431      4F4D4500 
 10432              	.LASF297:
 10433 085a 68696E74 		.ascii	"hint\000"
 10433      00
 10434              	.LASF364:
 10435 085f 6C765F63 		.ascii	"lv_calendar_get_day_names\000"
 10435      616C656E 
 10435      6461725F 
 10435      6765745F 
 10435      6461795F 
 10436              	.LASF372:
 10437 0879 70617261 		.ascii	"param\000"
 10437      6D00
 10438              	.LASF351:
 10439 087f 73686F77 		.ascii	"showed\000"
 10439      656400
 10440              	.LASF73:
 10441 0886 6C696E65 		.ascii	"line\000"
 10441      00
 10442              	.LASF397:
 10443 088b 64726177 		.ascii	"draw_state\000"
 10443      5F737461 
 10443      746500
 10444              	.LASF233:
 10445 0896 4C565F53 		.ascii	"LV_SIGNAL_FOCUS\000"
 10445      49474E41 
 10445      4C5F464F 
 10445      43555300 
 10446              	.LASF413:
 10447 08a6 6461795F 		.ascii	"day_name\000"
 10447      6E616D65 
 10447      00
 10448              	.LASF319:
 10449 08af 736C6964 		.ascii	"slider\000"
 10449      657200
 10450              	.LASF279:
 10451 08b6 4C565F54 		.ascii	"LV_TXT_FLAG_EXPAND\000"
 10451      58545F46 
 10451      4C41475F 
 10451      45585041 
 10451      4E4400
 10452              	.LASF211:
 10453 08c9 4C565F45 		.ascii	"LV_EVENT_REFRESH\000"
 10453      56454E54 
 10453      5F524546 
ARM GAS  C:\Users\tmj32\AppData\Local\Temp\cc0vWRpX.s 			page 214


 10453      52455348 
 10453      00
 10454              	.LASF264:
 10455 08da 7374796C 		.ascii	"style_inactive_days\000"
 10455      655F696E 
 10455      61637469 
 10455      76655F64 
 10455      61797300 
 10456              	.LASF353:
 10457 08ee 68696768 		.ascii	"highlighted\000"
 10457      6C696768 
 10457      74656400 
 10458              	.LASF101:
 10459 08fa 5F646973 		.ascii	"_disp_drv_t\000"
 10459      705F6472 
 10459      765F7400 
 10460              	.LASF187:
 10461 0906 67726F75 		.ascii	"group\000"
 10461      7000
 10462              	.LASF346:
 10463 090c 636F7079 		.ascii	"copy\000"
 10463      00
 10464              	.LASF161:
 10465 0911 6163745F 		.ascii	"act_point\000"
 10465      706F696E 
 10465      7400
 10466              	.LASF167:
 10467 091b 6C617374 		.ascii	"last_obj\000"
 10467      5F6F626A 
 10467      00
 10468              	.LASF145:
 10469 0924 6C765F69 		.ascii	"lv_indev_type_t\000"
 10469      6E646576 
 10469      5F747970 
 10469      655F7400 
 10470              	.LASF253:
 10471 0934 73686F77 		.ascii	"showed_date\000"
 10471      65645F64 
 10471      61746500 
 10472              	.LASF236:
 10473 0940 4C565F53 		.ascii	"LV_SIGNAL_GET_EDITABLE\000"
 10473      49474E41 
 10473      4C5F4745 
 10473      545F4544 
 10473      49544142 
 10474              	.LASF312:
 10475 0957 6F6E656C 		.ascii	"oneline\000"
 10475      696E6500 
 10476              	.LASF408:
 10477 095f 69735F6C 		.ascii	"is_leap_year\000"
 10477      6561705F 
 10477      79656172 
 10477      00
 10478              	.LASF100:
 10479 096c 6C765F64 		.ascii	"lv_disp_buf_t\000"
 10479      6973705F 
 10479      6275665F 
ARM GAS  C:\Users\tmj32\AppData\Local\Temp\cc0vWRpX.s 			page 215


 10479      7400
 10480              	.LASF10:
 10481 097a 5F5F7569 		.ascii	"__uint32_t\000"
 10481      6E743332 
 10481      5F7400
 10482              	.LASF126:
 10483 0985 6576656E 		.ascii	"event_cb\000"
 10483      745F6362 
 10483      00
 10484              	.LASF54:
 10485 098e 72696768 		.ascii	"right\000"
 10485      7400
 10486              	.LASF130:
 10487 0994 7374796C 		.ascii	"style_p\000"
 10487      655F7000 
 10488              	.LASF12:
 10489 099c 6C6F6E67 		.ascii	"long long int\000"
 10489      206C6F6E 
 10489      6720696E 
 10489      7400
 10490              	.LASF421:
 10491 09aa 433A5C55 		.ascii	"C:\\Users\\tmj32\\Documents\\TCNJ\\Senior_Project\\"
 10491      73657273 
 10491      5C746D6A 
 10491      33325C44 
 10491      6F63756D 
 10492 09d7 4F736369 		.ascii	"Oscilloscope_Senior_Project\\tcom_engineering\\embe"
 10492      6C6C6F73 
 10492      636F7065 
 10492      5F53656E 
 10492      696F725F 
 10493 0a08 645F7377 		.ascii	"d_sw\\tcom_app\\tcom_app_psoc6_lvgl6\\tcom_displ_te"
 10493      5C74636F 
 10493      6D5F6170 
 10493      705C7463 
 10493      6F6D5F61 
 10494 0a38 73745F70 		.ascii	"st_psoc6.cydsn\000"
 10494      736F6336 
 10494      2E637964 
 10494      736E00
 10495              	.LASF256:
 10496 0a47 68696768 		.ascii	"highlighted_dates_num\000"
 10496      6C696768 
 10496      7465645F 
 10496      64617465 
 10496      735F6E75 
 10497              	.LASF356:
 10498 0a5d 6C765F63 		.ascii	"lv_calendar_set_month_names\000"
 10498      616C656E 
 10498      6461725F 
 10498      7365745F 
 10498      6D6F6E74 
 10499              	.LASF49:
 10500 0a79 77696474 		.ascii	"width\000"
 10500      6800
 10501              	.LASF235:
 10502 0a7f 4C565F53 		.ascii	"LV_SIGNAL_CONTROL\000"
ARM GAS  C:\Users\tmj32\AppData\Local\Temp\cc0vWRpX.s 			page 216


 10502      49474E41 
 10502      4C5F434F 
 10502      4E54524F 
 10502      4C00
 10503              	.LASF52:
 10504 0a91 626F7474 		.ascii	"bottom\000"
 10504      6F6D00
 10505              	.LASF124:
 10506 0a98 6368696C 		.ascii	"child_ll\000"
 10506      645F6C6C 
 10506      00
 10507              	.LASF301:
 10508 0aa1 696E6469 		.ascii	"indic\000"
 10508      6300
 10509              	.LASF141:
 10510 0aa7 70726F74 		.ascii	"protect\000"
 10510      65637400 
 10511              	.LASF94:
 10512 0aaf 62756631 		.ascii	"buf1\000"
 10512      00
 10513              	.LASF95:
 10514 0ab4 62756632 		.ascii	"buf2\000"
 10514      00
 10515              	.LASF162:
 10516 0ab9 6C617374 		.ascii	"last_point\000"
 10516      5F706F69 
 10516      6E7400
 10517              	.LASF166:
 10518 0ac4 6163745F 		.ascii	"act_obj\000"
 10518      6F626A00 
 10519              	.LASF368:
 10520 0acc 6D61736B 		.ascii	"mask\000"
 10520      00
 10521              	.LASF332:
 10522 0ad1 74616276 		.ascii	"tabview\000"
 10522      69657700 
 10523              	.LASF137:
 10524 0ad9 70617265 		.ascii	"parent_event\000"
 10524      6E745F65 
 10524      76656E74 
 10524      00
 10525              	.LASF217:
 10526 0ae6 4C565F53 		.ascii	"LV_SIGNAL_CLEANUP\000"
 10526      49474E41 
 10526      4C5F434C 
 10526      45414E55 
 10526      5000
 10527              	.LASF360:
 10528 0af8 6C765F63 		.ascii	"lv_calendar_get_showed_date\000"
 10528      616C656E 
 10528      6461725F 
 10528      6765745F 
 10528      73686F77 
 10529              	.LASF243:
 10530 0b14 616C6967 		.ascii	"align\000"
 10530      6E00
 10531              	.LASF69:
ARM GAS  C:\Users\tmj32\AppData\Local\Temp\cc0vWRpX.s 			page 217


 10532 0b1a 676C6173 		.ascii	"glass\000"
 10532      7300
 10533              	.LASF414:
 10534 0b20 6D6F6E74 		.ascii	"month_name\000"
 10534      685F6E61 
 10534      6D6500
 10535              	.LASF214:
 10536 0b2b 4C565F45 		.ascii	"LV_EVENT_DELETE\000"
 10536      56454E54 
 10536      5F44454C 
 10536      45544500 
 10537              	.LASF379:
 10538 0b3b 785F706F 		.ascii	"x_pos\000"
 10538      7300
 10539              	.LASF370:
 10540 0b41 6C765F63 		.ascii	"lv_calendar_signal\000"
 10540      616C656E 
 10540      6461725F 
 10540      7369676E 
 10540      616C00
 10541              	.LASF14:
 10542 0b54 756E7369 		.ascii	"unsigned int\000"
 10542      676E6564 
 10542      20696E74 
 10542      00
 10543              	.LASF381:
 10544 0b61 695F706F 		.ascii	"i_pos\000"
 10544      7300
 10545              	.LASF218:
 10546 0b67 4C565F53 		.ascii	"LV_SIGNAL_CHILD_CHG\000"
 10546      49474E41 
 10546      4C5F4348 
 10546      494C445F 
 10546      43484700 
 10547              	.LASF155:
 10548 0b7b 64697370 		.ascii	"disp\000"
 10548      00
 10549              	.LASF326:
 10550 0b80 6D626F78 		.ascii	"mbox\000"
 10550      00
 10551              	.LASF149:
 10552 0b85 656E635F 		.ascii	"enc_diff\000"
 10552      64696666 
 10552      00
 10553              	.LASF294:
 10554 0b8e 74676C5F 		.ascii	"tgl_rel\000"
 10554      72656C00 
 10555              	.LASF367:
 10556 0b96 6C765F63 		.ascii	"lv_calendar_design\000"
 10556      616C656E 
 10556      6461725F 
 10556      64657369 
 10556      676E00
 10557              	.LASF402:
 10558 0ba9 66696E61 		.ascii	"final_style\000"
 10558      6C5F7374 
 10558      796C6500 
ARM GAS  C:\Users\tmj32\AppData\Local\Temp\cc0vWRpX.s 			page 218


 10559              	.LASF378:
 10560 0bb5 7374796C 		.ascii	"style_bg\000"
 10560      655F6267 
 10560      00
 10561              	.LASF209:
 10562 0bbe 4C565F45 		.ascii	"LV_EVENT_VALUE_CHANGED\000"
 10562      56454E54 
 10562      5F56414C 
 10562      55455F43 
 10562      48414E47 
 10563              	.LASF119:
 10564 0bd5 696E765F 		.ascii	"inv_areas\000"
 10564      61726561 
 10564      7300
 10565              	.LASF244:
 10566 0bdf 6175746F 		.ascii	"auto_realign\000"
 10566      5F726561 
 10566      6C69676E 
 10566      00
 10567              	.LASF92:
 10568 0bec 6F6E6365 		.ascii	"once\000"
 10568      00
 10569              	.LASF190:
 10570 0bf1 4C565F44 		.ascii	"LV_DESIGN_DRAW_MAIN\000"
 10570      45534947 
 10570      4E5F4452 
 10570      41575F4D 
 10570      41494E00 
 10571              	.LASF28:
 10572 0c05 6C765F66 		.ascii	"lv_font_glyph_dsc_t\000"
 10572      6F6E745F 
 10572      676C7970 
 10572      685F6473 
 10572      635F7400 
 10573              	.LASF329:
 10574 0c19 6C697374 		.ascii	"list\000"
 10574      00
 10575              	.LASF382:
 10576 0c1e 6765745F 		.ascii	"get_header_height\000"
 10576      68656164 
 10576      65725F68 
 10576      65696768 
 10576      7400
 10577              	.LASF57:
 10578 0c30 67726164 		.ascii	"grad_color\000"
 10578      5F636F6C 
 10578      6F7200
 10579              	.LASF196:
 10580 0c3b 4C565F45 		.ascii	"LV_EVENT_PRESSING\000"
 10580      56454E54 
 10580      5F505245 
 10580      5353494E 
 10580      4700
 10581              	.LASF327:
 10582 0c4d 70616765 		.ascii	"page\000"
 10582      00
 10583              	.LASF376:
ARM GAS  C:\Users\tmj32\AppData\Local\Temp\cc0vWRpX.s 			page 219


 10584 0c52 746F7563 		.ascii	"touched_point\000"
 10584      6865645F 
 10584      706F696E 
 10584      7400
 10585              	.LASF112:
 10586 0c60 5F646973 		.ascii	"_disp_t\000"
 10586      705F7400 
 10587              	.LASF303:
 10588 0c68 6B6E6F62 		.ascii	"knob_off\000"
 10588      5F6F6666 
 10588      00
 10589              	.LASF321:
 10590 0c71 67617567 		.ascii	"gauge\000"
 10590      6500
 10591              	.LASF257:
 10592 0c77 70726573 		.ascii	"pressed_date\000"
 10592      7365645F 
 10592      64617465 
 10592      00
 10593              	.LASF290:
 10594 0c84 4C565F4B 		.ascii	"LV_KEY_NEXT\000"
 10594      45595F4E 
 10594      45585400 
 10595              	.LASF226:
 10596 0c90 4C565F53 		.ascii	"LV_SIGNAL_PRESSING\000"
 10596      49474E41 
 10596      4C5F5052 
 10596      45535349 
 10596      4E4700
 10597              	.LASF198:
 10598 0ca3 4C565F45 		.ascii	"LV_EVENT_SHORT_CLICKED\000"
 10598      56454E54 
 10598      5F53484F 
 10598      52545F43 
 10598      4C49434B 
 10599              	.LASF390:
 10600 0cba 6C5F7061 		.ascii	"l_pad\000"
 10600      6400
 10601              	.LASF200:
 10602 0cc0 4C565F45 		.ascii	"LV_EVENT_LONG_PRESSED_REPEAT\000"
 10602      56454E54 
 10602      5F4C4F4E 
 10602      475F5052 
 10602      45535345 
 10603              	.LASF274:
 10604 0cdd 4C565F43 		.ascii	"LV_CALENDAR_STYLE_WEEK_BOX\000"
 10604      414C454E 
 10604      4441525F 
 10604      5354594C 
 10604      455F5745 
 10605              	.LASF251:
 10606 0cf8 6C765F63 		.ascii	"lv_calendar_date_t\000"
 10606      616C656E 
 10606      6461725F 
 10606      64617465 
 10606      5F7400
 10607              	.LASF349:
ARM GAS  C:\Users\tmj32\AppData\Local\Temp\cc0vWRpX.s 			page 220


 10608 0d0b 6C765F63 		.ascii	"lv_calendar_set_today_date\000"
 10608      616C656E 
 10608      6461725F 
 10608      7365745F 
 10608      746F6461 
 10609              	.LASF77:
 10610 0d26 6C765F72 		.ascii	"lv_res_t\000"
 10610      65735F74 
 10610      00
 10611              	.LASF96:
 10612 0d2f 6275665F 		.ascii	"buf_act\000"
 10612      61637400 
 10613              	.LASF22:
 10614 0d37 6C6F6E67 		.ascii	"long double\000"
 10614      20646F75 
 10614      626C6500 
 10615              	.LASF247:
 10616 0d43 6C765F64 		.ascii	"lv_drag_dir_t\000"
 10616      7261675F 
 10616      6469725F 
 10616      7400
 10617              	.LASF335:
 10618 0d51 7374796C 		.ascii	"style\000"
 10618      6500
 10619              	.LASF163:
 10620 0d57 76656374 		.ascii	"vect\000"
 10620      00
 10621              	.LASF129:
 10622 0d5c 6578745F 		.ascii	"ext_attr\000"
 10622      61747472 
 10622      00
 10623              	.LASF164:
 10624 0d65 64726167 		.ascii	"drag_sum\000"
 10624      5F73756D 
 10624      00
 10625              	.LASF387:
 10626 0d6e 7478745F 		.ascii	"txt_buf\000"
 10626      62756600 
 10627              	.LASF324:
 10628 0d76 63616C65 		.ascii	"calendar\000"
 10628      6E646172 
 10628      00
 10629              	.LASF177:
 10630 0d7f 70725F74 		.ascii	"pr_timestamp\000"
 10630      696D6573 
 10630      74616D70 
 10630      00
 10631              	.LASF193:
 10632 0d8c 6C765F64 		.ascii	"lv_design_mode_t\000"
 10632      65736967 
 10632      6E5F6D6F 
 10632      64655F74 
 10632      00
 10633              	.LASF67:
 10634 0d9d 73756270 		.ascii	"subpx\000"
 10634      7800
 10635              	.LASF204:
ARM GAS  C:\Users\tmj32\AppData\Local\Temp\cc0vWRpX.s 			page 221


 10636 0da3 4C565F45 		.ascii	"LV_EVENT_DRAG_END\000"
 10636      56454E54 
 10636      5F445241 
 10636      475F454E 
 10636      4400
 10637              	.LASF156:
 10638 0db5 72656164 		.ascii	"read_task\000"
 10638      5F746173 
 10638      6B00
 10639              	.LASF227:
 10640 0dbf 4C565F53 		.ascii	"LV_SIGNAL_PRESS_LOST\000"
 10640      49474E41 
 10640      4C5F5052 
 10640      4553535F 
 10640      4C4F5354 
 10641              	.LASF293:
 10642 0dd4 4C565F4B 		.ascii	"LV_KEY_END\000"
 10642      45595F45 
 10642      4E4400
 10643              	.LASF154:
 10644 0ddf 66656564 		.ascii	"feedback_cb\000"
 10644      6261636B 
 10644      5F636200 
 10645              	.LASF232:
 10646 0deb 4C565F53 		.ascii	"LV_SIGNAL_DRAG_END\000"
 10646      49474E41 
 10646      4C5F4452 
 10646      41475F45 
 10646      4E4400
 10647              	.LASF195:
 10648 0dfe 4C565F45 		.ascii	"LV_EVENT_PRESSED\000"
 10648      56454E54 
 10648      5F505245 
 10648      53534544 
 10648      00
 10649              	.LASF220:
 10650 0e0f 4C565F53 		.ascii	"LV_SIGNAL_PARENT_SIZE_CHG\000"
 10650      49474E41 
 10650      4C5F5041 
 10650      52454E54 
 10650      5F53495A 
 10651              	.LASF213:
 10652 0e29 4C565F45 		.ascii	"LV_EVENT_CANCEL\000"
 10652      56454E54 
 10652      5F43414E 
 10652      43454C00 
 10653              	.LASF228:
 10654 0e39 4C565F53 		.ascii	"LV_SIGNAL_RELEASED\000"
 10654      49474E41 
 10654      4C5F5245 
 10654      4C454153 
 10654      454400
 10655              	.LASF398:
 10656 0e4c 6163745F 		.ascii	"act_style\000"
 10656      7374796C 
 10656      6500
 10657              	.LASF56:
ARM GAS  C:\Users\tmj32\AppData\Local\Temp\cc0vWRpX.s 			page 222


 10658 0e56 6D61696E 		.ascii	"main_color\000"
 10658      5F636F6C 
 10658      6F7200
 10659              	.LASF0:
 10660 0e61 5F5F696E 		.ascii	"__int8_t\000"
 10660      74385F74 
 10660      00
 10661              	.LASF175:
 10662 0e6a 5F6C765F 		.ascii	"_lv_indev_proc_t\000"
 10662      696E6465 
 10662      765F7072 
 10662      6F635F74 
 10662      00
 10663              	.LASF389:
 10664 0e7b 64726177 		.ascii	"draw_day_names\000"
 10664      5F646179 
 10664      5F6E616D 
 10664      657300
 10665              	.LASF358:
 10666 0e8a 6C765F63 		.ascii	"lv_calendar_create\000"
 10666      616C656E 
 10666      6461725F 
 10666      63726561 
 10666      746500
 10667              	.LASF410:
 10668 0e9d 6461795F 		.ascii	"day_of_week\000"
 10668      6F665F77 
 10668      65656B00 
 10669              	.LASF237:
 10670 0ea9 6C765F73 		.ascii	"lv_signal_t\000"
 10670      69676E61 
 10670      6C5F7400 
 10671              	.LASF97:
 10672 0eb5 73697A65 		.ascii	"size\000"
 10672      00
 10673              	.LASF158:
 10674 0eba 6C6F6E67 		.ascii	"long_press_time\000"
 10674      5F707265 
 10674      73735F74 
 10674      696D6500 
 10675              	.LASF275:
 10676 0eca 4C565F43 		.ascii	"LV_CALENDAR_STYLE_TODAY_BOX\000"
 10676      414C454E 
 10676      4441525F 
 10676      5354594C 
 10676      455F544F 
 10677              	.LASF13:
 10678 0ee6 6C6F6E67 		.ascii	"long long unsigned int\000"
 10678      206C6F6E 
 10678      6720756E 
 10678      7369676E 
 10678      65642069 
 10679              	.LASF270:
 10680 0efd 4C565F43 		.ascii	"LV_CALENDAR_STYLE_HEADER_PR\000"
 10680      414C454E 
 10680      4441525F 
 10680      5354594C 
ARM GAS  C:\Users\tmj32\AppData\Local\Temp\cc0vWRpX.s 			page 223


 10680      455F4845 
 10681              	.LASF420:
 10682 0f19 2E2E5C2E 		.ascii	"..\\..\\..\\lvgl\\version_6.1.2\\lvgl\\src\\lv_objx"
 10682      2E5C2E2E 
 10682      5C6C7667 
 10682      6C5C7665 
 10682      7273696F 
 10683 0f45 5C6C765F 		.ascii	"\\lv_calendar.c\000"
 10683      63616C65 
 10683      6E646172 
 10683      2E6300
 10684              	.LASF18:
 10685 0f54 75696E74 		.ascii	"uint16_t\000"
 10685      31365F74 
 10685      00
 10686              	.LASF76:
 10687 0f5d 4C565F52 		.ascii	"LV_RES_OK\000"
 10687      45535F4F 
 10687      4B00
 10688              	.LASF393:
 10689 0f67 76657274 		.ascii	"vert_space\000"
 10689      5F737061 
 10689      636500
 10690              	.LASF88:
 10691 0f72 6C617374 		.ascii	"last_run\000"
 10691      5F72756E 
 10691      00
 10692              	.LASF308:
 10693 0f7b 696E6163 		.ascii	"inactive_days\000"
 10693      74697665 
 10693      5F646179 
 10693      7300
 10694              	.LASF40:
 10695 0f89 6C765F63 		.ascii	"lv_color_t\000"
 10695      6F6C6F72 
 10695      5F7400
 10696              	.LASF411:
 10697 0f94 616E6365 		.ascii	"ancestor_signal\000"
 10697      73746F72 
 10697      5F736967 
 10697      6E616C00 
 10698              	.LASF242:
 10699 0fa4 796F6673 		.ascii	"yofs\000"
 10699      00
 10700              	.LASF347:
 10701 0fa9 6E65775F 		.ascii	"new_calendar\000"
 10701      63616C65 
 10701      6E646172 
 10701      00
 10702              	.LASF180:
 10703 0fb6 72657365 		.ascii	"reset_query\000"
 10703      745F7175 
 10703      65727900 
 10704              	.LASF93:
 10705 0fc2 6C765F74 		.ascii	"lv_task_t\000"
 10705      61736B5F 
 10705      7400
ARM GAS  C:\Users\tmj32\AppData\Local\Temp\cc0vWRpX.s 			page 224


 10706              	.LASF357:
 10707 0fcc 6C765F63 		.ascii	"lv_calendar_set_style\000"
 10707      616C656E 
 10707      6461725F 
 10707      7365745F 
 10707      7374796C 
 10708              	.LASF412:
 10709 0fe2 616E6365 		.ascii	"ancestor_design\000"
 10709      73746F72 
 10709      5F646573 
 10709      69676E00 
 10710              	.LASF283:
 10711 0ff2 4C565F4B 		.ascii	"LV_KEY_DOWN\000"
 10711      45595F44 
 10711      4F574E00 
 10712              	.LASF355:
 10713 0ffe 6C765F63 		.ascii	"lv_calendar_set_day_names\000"
 10713      616C656E 
 10713      6461725F 
 10713      7365745F 
 10713      6461795F 
 10714              	.LASF286:
 10715 1018 4C565F4B 		.ascii	"LV_KEY_ESC\000"
 10715      45595F45 
 10715      534300
 10716              	.LASF269:
 10717 1023 4C565F43 		.ascii	"LV_CALENDAR_STYLE_HEADER\000"
 10717      414C454E 
 10717      4441525F 
 10717      5354594C 
 10717      455F4845 
 10718              	.LASF419:
 10719 103c 474E5520 		.ascii	"GNU C11 5.4.1 20160609 (release) [ARM/embedded-5-br"
 10719      43313120 
 10719      352E342E 
 10719      31203230 
 10719      31363036 
 10720 106f 616E6368 		.ascii	"anch revision 237715] -mcpu=cortex-m4 -mfloat-abi=s"
 10720      20726576 
 10720      6973696F 
 10720      6E203233 
 10720      37373135 
 10721 10a2 6F667466 		.ascii	"oftfp -mfpu=fpv4-sp-d16 -mthumb -g -O0 -ffunction-s"
 10721      70202D6D 
 10721      6670753D 
 10721      66707634 
 10721      2D73702D 
 10722 10d5 65637469 		.ascii	"ections -ffat-lto-objects\000"
 10722      6F6E7320 
 10722      2D666661 
 10722      742D6C74 
 10722      6F2D6F62 
 10723              	.LASF87:
 10724 10ef 70657269 		.ascii	"period\000"
 10724      6F6400
 10725              	.LASF107:
 10726 10f6 726F756E 		.ascii	"rounder_cb\000"
ARM GAS  C:\Users\tmj32\AppData\Local\Temp\cc0vWRpX.s 			page 225


 10726      6465725F 
 10726      636200
 10727              	.LASF254:
 10728 1101 68696768 		.ascii	"highlighted_dates\000"
 10728      6C696768 
 10728      7465645F 
 10728      64617465 
 10728      7300
 10729              	.LASF300:
 10730 1113 6465636F 		.ascii	"decor\000"
 10730      7200
 10731              	.LASF317:
 10732 1119 696D6762 		.ascii	"imgbtn\000"
 10732      746E00
 10733              	.LASF4:
 10734 1120 5F5F696E 		.ascii	"__int16_t\000"
 10734      7431365F 
 10734      7400
 10735              	.LASF178:
 10736 112a 6C6F6E67 		.ascii	"longpr_rep_timestamp\000"
 10736      70725F72 
 10736      65705F74 
 10736      696D6573 
 10736      74616D70 
 10737              	.LASF315:
 10738 113f 70616E65 		.ascii	"panel\000"
 10738      6C00
 10739              	.LASF170:
 10740 1145 64726167 		.ascii	"drag_in_prog\000"
 10740      5F696E5F 
 10740      70726F67 
 10740      00
 10741              	.LASF418:
 10742 1152 6C765F73 		.ascii	"lv_style_btn_ina\000"
 10742      74796C65 
 10742      5F62746E 
 10742      5F696E61 
 10742      00
 10743              	.LASF377:
 10744 1163 64617973 		.ascii	"days_area\000"
 10744      5F617265 
 10744      6100
 10745              	.LASF272:
 10746 116d 4C565F43 		.ascii	"LV_CALENDAR_STYLE_HIGHLIGHTED_DAYS\000"
 10746      414C454E 
 10746      4441525F 
 10746      5354594C 
 10746      455F4849 
 10747              	.LASF342:
 10748 1190 64657374 		.ascii	"dest\000"
 10748      00
 10749              	.LASF38:
 10750 1195 66756C6C 		.ascii	"full\000"
 10750      00
 10751              	.LASF48:
 10752 119a 636F6C6F 		.ascii	"color\000"
 10752      7200
ARM GAS  C:\Users\tmj32\AppData\Local\Temp\cc0vWRpX.s 			page 226


 10753              	.LASF373:
 10754 11a0 68656164 		.ascii	"header_area\000"
 10754      65725F61 
 10754      72656100 
 10755              	.LASF169:
 10756 11ac 64726167 		.ascii	"drag_limit_out\000"
 10756      5F6C696D 
 10756      69745F6F 
 10756      757400
 10757              	.LASF65:
 10758 11bb 6C696E65 		.ascii	"line_space\000"
 10758      5F737061 
 10758      636500
 10759              	.LASF241:
 10760 11c6 786F6673 		.ascii	"xofs\000"
 10760      00
 10761              	.LASF248:
 10762 11cb 6C765F6F 		.ascii	"lv_obj_t\000"
 10762      626A5F74 
 10762      00
 10763              	.LASF250:
 10764 11d4 6D6F6E74 		.ascii	"month\000"
 10764      6800
 10765              	.LASF47:
 10766 11da 6C765F73 		.ascii	"lv_shadow_type_t\000"
 10766      6861646F 
 10766      775F7479 
 10766      70655F74 
 10766      00
 10767              	.LASF132:
 10768 11eb 64726167 		.ascii	"drag\000"
 10768      00
 10769              	.LASF416:
 10770 11f0 6C765F73 		.ascii	"lv_style_pretty\000"
 10770      74796C65 
 10770      5F707265 
 10770      74747900 
 10771              	.LASF123:
 10772 1200 5F6C765F 		.ascii	"_lv_obj_t\000"
 10772      6F626A5F 
 10772      7400
 10773              	.LASF63:
 10774 120a 666F6E74 		.ascii	"font\000"
 10774      00
 10775              	.LASF64:
 10776 120f 6C657474 		.ascii	"letter_space\000"
 10776      65725F73 
 10776      70616365 
 10776      00
 10777              	.LASF113:
 10778 121c 64726976 		.ascii	"driver\000"
 10778      657200
 10779              	.LASF352:
 10780 1223 6C765F63 		.ascii	"lv_calendar_set_highlighted_dates\000"
 10780      616C656E 
 10780      6461725F 
 10780      7365745F 
ARM GAS  C:\Users\tmj32\AppData\Local\Temp\cc0vWRpX.s 			page 227


 10780      68696768 
 10781              	.LASF139:
 10782 1245 62617365 		.ascii	"base_dir\000"
 10782      5F646972 
 10782      00
 10783              	.LASF25:
 10784 124e 626F785F 		.ascii	"box_h\000"
 10784      6800
 10785              	.LASF365:
 10786 1254 6C765F63 		.ascii	"lv_calendar_get_month_names\000"
 10786      616C656E 
 10786      6461725F 
 10786      6765745F 
 10786      6D6F6E74 
 10787              	.LASF291:
 10788 1270 4C565F4B 		.ascii	"LV_KEY_PREV\000"
 10788      45595F50 
 10788      52455600 
 10789              	.LASF240:
 10790 127c 62617365 		.ascii	"base\000"
 10790      00
 10791              	.LASF24:
 10792 1281 626F785F 		.ascii	"box_w\000"
 10792      7700
 10793              	.LASF5:
 10794 1287 73686F72 		.ascii	"short int\000"
 10794      7420696E 
 10794      7400
 10795              	.LASF32:
 10796 1291 62617365 		.ascii	"base_line\000"
 10796      5F6C696E 
 10796      6500
 10797              	.LASF121:
 10798 129b 696E765F 		.ascii	"inv_p\000"
 10798      7000
 10799              	.LASF82:
 10800 12a1 6C765F6C 		.ascii	"lv_ll_t\000"
 10800      6C5F7400 
 10801              	.LASF383:
 10802 12a9 6765745F 		.ascii	"get_day_names_height\000"
 10802      6461795F 
 10802      6E616D65 
 10802      735F6865 
 10802      69676874 
 10803              	.LASF369:
 10804 12be 6D6F6465 		.ascii	"mode\000"
 10804      00
 10805              	.LASF174:
 10806 12c3 6B657970 		.ascii	"keypad\000"
 10806      616400
 10807              	.LASF17:
 10808 12ca 696E7431 		.ascii	"int16_t\000"
 10808      365F7400 
 10809              	.LASF339:
 10810 12d2 4441595F 		.ascii	"DAY_DRAW_NEXT_MONTH\000"
 10810      44524157 
 10810      5F4E4558 
ARM GAS  C:\Users\tmj32\AppData\Local\Temp\cc0vWRpX.s 			page 228


 10810      545F4D4F 
 10810      4E544800 
 10811              	.LASF219:
 10812 12e6 4C565F53 		.ascii	"LV_SIGNAL_CORD_CHG\000"
 10812      49474E41 
 10812      4C5F434F 
 10812      52445F43 
 10812      484700
 10813              	.LASF125:
 10814 12f9 636F6F72 		.ascii	"coords\000"
 10814      647300
 10815              	.LASF374:
 10816 1300 696E6465 		.ascii	"indev\000"
 10816      7600
 10817              	.LASF118:
 10818 1306 7379735F 		.ascii	"sys_layer\000"
 10818      6C617965 
 10818      7200
 10819              	.LASF328:
 10820 1310 7370696E 		.ascii	"spinbox\000"
 10820      626F7800 
 10821              	.LASF136:
 10822 1318 6F70615F 		.ascii	"opa_scale_en\000"
 10822      7363616C 
 10822      655F656E 
 10822      00
 10823              	.LASF258:
 10824 1325 6461795F 		.ascii	"day_names\000"
 10824      6E616D65 
 10824      7300
 10825              	.LASF60:
 10826 132f 73686164 		.ascii	"shadow\000"
 10826      6F7700
 10827              	.LASF183:
 10828 1336 6C765F69 		.ascii	"lv_indev_proc_t\000"
 10828      6E646576 
 10828      5F70726F 
 10828      635F7400 
 10829              	.LASF208:
 10830 1346 4C565F45 		.ascii	"LV_EVENT_DEFOCUSED\000"
 10830      56454E54 
 10830      5F444546 
 10830      4F435553 
 10830      454400
 10831              	.LASF344:
 10832 1359 6C765F61 		.ascii	"lv_area_get_width\000"
 10832      7265615F 
 10832      6765745F 
 10832      77696474 
 10832      6800
 10833              	.LASF262:
 10834 136b 7374796C 		.ascii	"style_day_names\000"
 10834      655F6461 
 10834      795F6E61 
 10834      6D657300 
 10835              	.LASF134:
 10836 137b 64726167 		.ascii	"drag_parent\000"
ARM GAS  C:\Users\tmj32\AppData\Local\Temp\cc0vWRpX.s 			page 229


 10836      5F706172 
 10836      656E7400 
 10837              	.LASF160:
 10838 1387 6C765F69 		.ascii	"lv_indev_drv_t\000"
 10838      6E646576 
 10838      5F647276 
 10838      5F7400
 10839              	.LASF222:
 10840 1396 4C565F53 		.ascii	"LV_SIGNAL_BASE_DIR_CHG\000"
 10840      49474E41 
 10840      4C5F4241 
 10840      53455F44 
 10840      49525F43 
 10841              	.LASF157:
 10842 13ad 64726167 		.ascii	"drag_limit\000"
 10842      5F6C696D 
 10842      697400
 10843              	.LASF111:
 10844 13b8 6C765F64 		.ascii	"lv_disp_drv_t\000"
 10844      6973705F 
 10844      6472765F 
 10844      7400
 10845              	.LASF341:
 10846 13c6 666F6E74 		.ascii	"font_p\000"
 10846      5F7000
 10847              	.LASF348:
 10848 13cd 636F7079 		.ascii	"copy_ext\000"
 10848      5F657874 
 10848      00
 10849              	.LASF314:
 10850 13d6 636F6E74 		.ascii	"content\000"
 10850      656E7400 
 10851              	.LASF61:
 10852 13de 70616464 		.ascii	"padding\000"
 10852      696E6700 
 10853              	.LASF276:
 10854 13e6 6C765F63 		.ascii	"lv_calendar_style_t\000"
 10854      616C656E 
 10854      6461725F 
 10854      7374796C 
 10854      655F7400 
 10855              	.LASF127:
 10856 13fa 7369676E 		.ascii	"signal_cb\000"
 10856      616C5F63 
 10856      6200
 10857              	.LASF20:
 10858 1404 75696E74 		.ascii	"uint32_t\000"
 10858      33325F74 
 10858      00
 10859              	.LASF299:
 10860 140d 6461726B 		.ascii	"dark\000"
 10860      00
 10861              	.LASF36:
 10862 1412 67726565 		.ascii	"green\000"
 10862      6E00
 10863              	.LASF34:
 10864 1418 6C765F66 		.ascii	"lv_font_t\000"
ARM GAS  C:\Users\tmj32\AppData\Local\Temp\cc0vWRpX.s 			page 230


 10864      6F6E745F 
 10864      7400
 10865              	.LASF140:
 10866 1422 72657365 		.ascii	"reserved\000"
 10866      72766564 
 10866      00
 10867              	.LASF392:
 10868 142b 64726177 		.ascii	"draw_days\000"
 10868      5F646179 
 10868      7300
 10869              	.LASF109:
 10870 1435 6D6F6E69 		.ascii	"monitor_cb\000"
 10870      746F725F 
 10870      636200
 10871              	.LASF7:
 10872 1440 73686F72 		.ascii	"short unsigned int\000"
 10872      7420756E 
 10872      7369676E 
 10872      65642069 
 10872      6E7400
 10873              	.LASF206:
 10874 1453 4C565F45 		.ascii	"LV_EVENT_KEY\000"
 10874      56454E54 
 10874      5F4B4559 
 10874      00
 10875              	.LASF406:
 10876 1460 6765745F 		.ascii	"get_month_name\000"
 10876      6D6F6E74 
 10876      685F6E61 
 10876      6D6500
 10877              	.LASF21:
 10878 146f 6C765F63 		.ascii	"lv_coord_t\000"
 10878      6F6F7264 
 10878      5F7400
 10879              	.LASF151:
 10880 147a 6C765F69 		.ascii	"lv_indev_data_t\000"
 10880      6E646576 
 10880      5F646174 
 10880      615F7400 
 10881              	.LASF106:
 10882 148a 666C7573 		.ascii	"flush_cb\000"
 10882      685F6362 
 10882      00
 10883              	.LASF90:
 10884 1493 75736572 		.ascii	"user_data\000"
 10884      5F646174 
 10884      6100
 10885              	.LASF197:
 10886 149d 4C565F45 		.ascii	"LV_EVENT_PRESS_LOST\000"
 10886      56454E54 
 10886      5F505245 
 10886      53535F4C 
 10886      4F535400 
 10887              	.LASF343:
 10888 14b1 6C765F66 		.ascii	"lv_font_get_line_height\000"
 10888      6F6E745F 
 10888      6765745F 
ARM GAS  C:\Users\tmj32\AppData\Local\Temp\cc0vWRpX.s 			page 231


 10888      6C696E65 
 10888      5F686569 
 10889              	.LASF59:
 10890 14c9 626F7264 		.ascii	"border\000"
 10890      657200
 10891              	.LASF318:
 10892 14d0 6C616265 		.ascii	"label\000"
 10892      6C00
 10893              	.LASF29:
 10894 14d6 6765745F 		.ascii	"get_glyph_dsc\000"
 10894      676C7970 
 10894      685F6473 
 10894      6300
 10895              	.LASF8:
 10896 14e4 5F5F696E 		.ascii	"__int32_t\000"
 10896      7433325F 
 10896      7400
 10897              	.LASF46:
 10898 14ee 6C765F62 		.ascii	"lv_border_part_t\000"
 10898      6F726465 
 10898      725F7061 
 10898      72745F74 
 10898      00
 10899              	.LASF362:
 10900 14ff 6C765F63 		.ascii	"lv_calendar_get_highlighted_dates\000"
 10900      616C656E 
 10900      6461725F 
 10900      6765745F 
 10900      68696768 
 10901              	.LASF179:
 10902 1521 6C6F6E67 		.ascii	"long_pr_sent\000"
 10902      5F70725F 
 10902      73656E74 
 10902      00
 10903              	.LASF216:
 10904 152e 6C765F65 		.ascii	"lv_event_cb_t\000"
 10904      76656E74 
 10904      5F63625F 
 10904      7400
 10905              	.LASF322:
 10906 153c 7072656C 		.ascii	"preload\000"
 10906      6F616400 
 10907              	.LASF245:
 10908 1544 6F726967 		.ascii	"origo_align\000"
 10908      6F5F616C 
 10908      69676E00 
 10909              	.LASF302:
 10910 1550 6B6E6F62 		.ascii	"knob\000"
 10910      00
 10911              	.LASF282:
 10912 1555 4C565F4B 		.ascii	"LV_KEY_UP\000"
 10912      45595F55 
 10912      5000
 10913              	.LASF62:
 10914 155f 73656C5F 		.ascii	"sel_color\000"
 10914      636F6C6F 
 10914      7200
ARM GAS  C:\Users\tmj32\AppData\Local\Temp\cc0vWRpX.s 			page 232


 10915              	.LASF84:
 10916 1569 6C765F74 		.ascii	"lv_task_cb_t\000"
 10916      61736B5F 
 10916      63625F74 
 10916      00
 10917              	.LASF409:
 10918 1576 6765745F 		.ascii	"get_day_of_week\000"
 10918      6461795F 
 10918      6F665F77 
 10918      65656B00 
 10919              	.LASF85:
 10920 1586 5F6C765F 		.ascii	"_lv_font_struct\000"
 10920      666F6E74 
 10920      5F737472 
 10920      75637400 
 10921              	.LASF176:
 10922 1596 74797065 		.ascii	"types\000"
 10922      7300
 10923              	.LASF50:
 10924 159c 70617274 		.ascii	"part\000"
 10924      00
 10925              	.LASF79:
 10926 15a1 6E5F7369 		.ascii	"n_size\000"
 10926      7A6500
 10927              	.LASF186:
 10928 15a8 63757273 		.ascii	"cursor\000"
 10928      6F7200
 10929              	.LASF422:
 10930 15af 5F6C765F 		.ascii	"_lv_group_t\000"
 10930      67726F75 
 10930      705F7400 
 10931              	.LASF202:
 10932 15bb 4C565F45 		.ascii	"LV_EVENT_RELEASED\000"
 10932      56454E54 
 10932      5F52454C 
 10932      45415345 
 10932      4400
 10933              	.LASF194:
 10934 15cd 6C765F64 		.ascii	"lv_design_cb_t\000"
 10934      65736967 
 10934      6E5F6362 
 10934      5F7400
 10935              	.LASF268:
 10936 15dc 4C565F43 		.ascii	"LV_CALENDAR_STYLE_BG\000"
 10936      414C454E 
 10936      4441525F 
 10936      5354594C 
 10936      455F4247 
 10937              	.LASF142:
 10938 15f1 6F70615F 		.ascii	"opa_scale\000"
 10938      7363616C 
 10938      6500
 10939              	.LASF331:
 10940 15fb 726F6C6C 		.ascii	"roller\000"
 10940      657200
 10941              		.ident	"GCC: (GNU Tools for ARM Embedded Processors) 5.4.1 20160609 (release) [ARM/embedded-5-bran
