ARM GAS  C:\Users\tmj32\AppData\Local\Temp\cc11CUDk.s 			page 1


   1              		.syntax unified
   2              		.cpu cortex-m4
   3              		.eabi_attribute 27, 1
   4              		.fpu fpv4-sp-d16
   5              		.eabi_attribute 20, 1
   6              		.eabi_attribute 21, 1
   7              		.eabi_attribute 23, 3
   8              		.eabi_attribute 24, 1
   9              		.eabi_attribute 25, 1
  10              		.eabi_attribute 26, 1
  11              		.eabi_attribute 30, 6
  12              		.eabi_attribute 34, 1
  13              		.eabi_attribute 18, 4
  14              		.thumb
  15              		.syntax unified
  16              		.file	"lv_cpicker.c"
  17              		.text
  18              	.Ltext0:
  19              		.cfi_sections	.debug_frame
  20              		.section	.text.lv_color_to32,"ax",%progbits
  21              		.align	2
  22              		.thumb
  23              		.thumb_func
  24              		.type	lv_color_to32, %function
  25              	lv_color_to32:
  26              	.LFB4:
  27              		.file 1 "..\\..\\..\\lvgl\\version_6.1.2\\lvgl\\src\\lv_objx\\../lv_core/../lv_misc/lv_color.h"
   1:..\..\..\lvgl\version_6.1.2\lvgl\src\lv_objx\../lv_core/../lv_misc/lv_color.h **** /**
   2:..\..\..\lvgl\version_6.1.2\lvgl\src\lv_objx\../lv_core/../lv_misc/lv_color.h ****  * @file lv_color.h
   3:..\..\..\lvgl\version_6.1.2\lvgl\src\lv_objx\../lv_core/../lv_misc/lv_color.h ****  *
   4:..\..\..\lvgl\version_6.1.2\lvgl\src\lv_objx\../lv_core/../lv_misc/lv_color.h ****  */
   5:..\..\..\lvgl\version_6.1.2\lvgl\src\lv_objx\../lv_core/../lv_misc/lv_color.h **** 
   6:..\..\..\lvgl\version_6.1.2\lvgl\src\lv_objx\../lv_core/../lv_misc/lv_color.h **** #ifndef LV_COLOR_H
   7:..\..\..\lvgl\version_6.1.2\lvgl\src\lv_objx\../lv_core/../lv_misc/lv_color.h **** #define LV_COLOR_H
   8:..\..\..\lvgl\version_6.1.2\lvgl\src\lv_objx\../lv_core/../lv_misc/lv_color.h **** 
   9:..\..\..\lvgl\version_6.1.2\lvgl\src\lv_objx\../lv_core/../lv_misc/lv_color.h **** #ifdef __cplusplus
  10:..\..\..\lvgl\version_6.1.2\lvgl\src\lv_objx\../lv_core/../lv_misc/lv_color.h **** extern "C" {
  11:..\..\..\lvgl\version_6.1.2\lvgl\src\lv_objx\../lv_core/../lv_misc/lv_color.h **** #endif
  12:..\..\..\lvgl\version_6.1.2\lvgl\src\lv_objx\../lv_core/../lv_misc/lv_color.h **** 
  13:..\..\..\lvgl\version_6.1.2\lvgl\src\lv_objx\../lv_core/../lv_misc/lv_color.h **** /*********************
  14:..\..\..\lvgl\version_6.1.2\lvgl\src\lv_objx\../lv_core/../lv_misc/lv_color.h ****  *      INCLUDES
  15:..\..\..\lvgl\version_6.1.2\lvgl\src\lv_objx\../lv_core/../lv_misc/lv_color.h ****  *********************/
  16:..\..\..\lvgl\version_6.1.2\lvgl\src\lv_objx\../lv_core/../lv_misc/lv_color.h **** #ifdef LV_CONF_INCLUDE_SIMPLE
  17:..\..\..\lvgl\version_6.1.2\lvgl\src\lv_objx\../lv_core/../lv_misc/lv_color.h **** #include "lv_conf.h"
  18:..\..\..\lvgl\version_6.1.2\lvgl\src\lv_objx\../lv_core/../lv_misc/lv_color.h **** #else
  19:..\..\..\lvgl\version_6.1.2\lvgl\src\lv_objx\../lv_core/../lv_misc/lv_color.h **** #include "../../../lv_conf.h"
  20:..\..\..\lvgl\version_6.1.2\lvgl\src\lv_objx\../lv_core/../lv_misc/lv_color.h **** #endif
  21:..\..\..\lvgl\version_6.1.2\lvgl\src\lv_objx\../lv_core/../lv_misc/lv_color.h **** 
  22:..\..\..\lvgl\version_6.1.2\lvgl\src\lv_objx\../lv_core/../lv_misc/lv_color.h **** /*Error checking*/
  23:..\..\..\lvgl\version_6.1.2\lvgl\src\lv_objx\../lv_core/../lv_misc/lv_color.h **** #if LV_COLOR_DEPTH == 24
  24:..\..\..\lvgl\version_6.1.2\lvgl\src\lv_objx\../lv_core/../lv_misc/lv_color.h **** #error "LV_COLOR_DEPTH  24 is deprecated. Use LV_COLOR_DEPTH  32 instead (lv_conf.h)"
  25:..\..\..\lvgl\version_6.1.2\lvgl\src\lv_objx\../lv_core/../lv_misc/lv_color.h **** #endif
  26:..\..\..\lvgl\version_6.1.2\lvgl\src\lv_objx\../lv_core/../lv_misc/lv_color.h **** 
  27:..\..\..\lvgl\version_6.1.2\lvgl\src\lv_objx\../lv_core/../lv_misc/lv_color.h **** #if LV_COLOR_DEPTH != 32 && LV_COLOR_SCREEN_TRANSP != 0
  28:..\..\..\lvgl\version_6.1.2\lvgl\src\lv_objx\../lv_core/../lv_misc/lv_color.h **** #error "LV_COLOR_SCREEN_TRANSP requires LV_COLOR_DEPTH == 32. Set it in lv_conf.h"
  29:..\..\..\lvgl\version_6.1.2\lvgl\src\lv_objx\../lv_core/../lv_misc/lv_color.h **** #endif
  30:..\..\..\lvgl\version_6.1.2\lvgl\src\lv_objx\../lv_core/../lv_misc/lv_color.h **** 
ARM GAS  C:\Users\tmj32\AppData\Local\Temp\cc11CUDk.s 			page 2


  31:..\..\..\lvgl\version_6.1.2\lvgl\src\lv_objx\../lv_core/../lv_misc/lv_color.h **** #if LV_COLOR_DEPTH != 16 && LV_COLOR_16_SWAP != 0
  32:..\..\..\lvgl\version_6.1.2\lvgl\src\lv_objx\../lv_core/../lv_misc/lv_color.h **** #error "LV_COLOR_16_SWAP requires LV_COLOR_DEPTH == 16. Set it in lv_conf.h"
  33:..\..\..\lvgl\version_6.1.2\lvgl\src\lv_objx\../lv_core/../lv_misc/lv_color.h **** #endif
  34:..\..\..\lvgl\version_6.1.2\lvgl\src\lv_objx\../lv_core/../lv_misc/lv_color.h **** 
  35:..\..\..\lvgl\version_6.1.2\lvgl\src\lv_objx\../lv_core/../lv_misc/lv_color.h **** #include <stdint.h>
  36:..\..\..\lvgl\version_6.1.2\lvgl\src\lv_objx\../lv_core/../lv_misc/lv_color.h **** 
  37:..\..\..\lvgl\version_6.1.2\lvgl\src\lv_objx\../lv_core/../lv_misc/lv_color.h **** /*********************
  38:..\..\..\lvgl\version_6.1.2\lvgl\src\lv_objx\../lv_core/../lv_misc/lv_color.h ****  *      DEFINES
  39:..\..\..\lvgl\version_6.1.2\lvgl\src\lv_objx\../lv_core/../lv_misc/lv_color.h ****  *********************/
  40:..\..\..\lvgl\version_6.1.2\lvgl\src\lv_objx\../lv_core/../lv_misc/lv_color.h **** #define LV_COLOR_WHITE LV_COLOR_MAKE(0xFF, 0xFF, 0xFF)
  41:..\..\..\lvgl\version_6.1.2\lvgl\src\lv_objx\../lv_core/../lv_misc/lv_color.h **** #define LV_COLOR_SILVER LV_COLOR_MAKE(0xC0, 0xC0, 0xC0)
  42:..\..\..\lvgl\version_6.1.2\lvgl\src\lv_objx\../lv_core/../lv_misc/lv_color.h **** #define LV_COLOR_GRAY LV_COLOR_MAKE(0x80, 0x80, 0x80)
  43:..\..\..\lvgl\version_6.1.2\lvgl\src\lv_objx\../lv_core/../lv_misc/lv_color.h **** #define LV_COLOR_BLACK LV_COLOR_MAKE(0x00, 0x00, 0x00)
  44:..\..\..\lvgl\version_6.1.2\lvgl\src\lv_objx\../lv_core/../lv_misc/lv_color.h **** #define LV_COLOR_RED LV_COLOR_MAKE(0xFF, 0x00, 0x00)
  45:..\..\..\lvgl\version_6.1.2\lvgl\src\lv_objx\../lv_core/../lv_misc/lv_color.h **** #define LV_COLOR_MAROON LV_COLOR_MAKE(0x80, 0x00, 0x00)
  46:..\..\..\lvgl\version_6.1.2\lvgl\src\lv_objx\../lv_core/../lv_misc/lv_color.h **** #define LV_COLOR_YELLOW LV_COLOR_MAKE(0xFF, 0xFF, 0x00)
  47:..\..\..\lvgl\version_6.1.2\lvgl\src\lv_objx\../lv_core/../lv_misc/lv_color.h **** #define LV_COLOR_OLIVE LV_COLOR_MAKE(0x80, 0x80, 0x00)
  48:..\..\..\lvgl\version_6.1.2\lvgl\src\lv_objx\../lv_core/../lv_misc/lv_color.h **** #define LV_COLOR_LIME LV_COLOR_MAKE(0x00, 0xFF, 0x00)
  49:..\..\..\lvgl\version_6.1.2\lvgl\src\lv_objx\../lv_core/../lv_misc/lv_color.h **** #define LV_COLOR_GREEN LV_COLOR_MAKE(0x00, 0x80, 0x00)
  50:..\..\..\lvgl\version_6.1.2\lvgl\src\lv_objx\../lv_core/../lv_misc/lv_color.h **** #define LV_COLOR_CYAN LV_COLOR_MAKE(0x00, 0xFF, 0xFF)
  51:..\..\..\lvgl\version_6.1.2\lvgl\src\lv_objx\../lv_core/../lv_misc/lv_color.h **** #define LV_COLOR_AQUA LV_COLOR_CYAN
  52:..\..\..\lvgl\version_6.1.2\lvgl\src\lv_objx\../lv_core/../lv_misc/lv_color.h **** #define LV_COLOR_TEAL LV_COLOR_MAKE(0x00, 0x80, 0x80)
  53:..\..\..\lvgl\version_6.1.2\lvgl\src\lv_objx\../lv_core/../lv_misc/lv_color.h **** #define LV_COLOR_BLUE LV_COLOR_MAKE(0x00, 0x00, 0xFF)
  54:..\..\..\lvgl\version_6.1.2\lvgl\src\lv_objx\../lv_core/../lv_misc/lv_color.h **** #define LV_COLOR_NAVY LV_COLOR_MAKE(0x00, 0x00, 0x80)
  55:..\..\..\lvgl\version_6.1.2\lvgl\src\lv_objx\../lv_core/../lv_misc/lv_color.h **** #define LV_COLOR_MAGENTA LV_COLOR_MAKE(0xFF, 0x00, 0xFF)
  56:..\..\..\lvgl\version_6.1.2\lvgl\src\lv_objx\../lv_core/../lv_misc/lv_color.h **** #define LV_COLOR_PURPLE LV_COLOR_MAKE(0x80, 0x00, 0x80)
  57:..\..\..\lvgl\version_6.1.2\lvgl\src\lv_objx\../lv_core/../lv_misc/lv_color.h **** #define LV_COLOR_ORANGE LV_COLOR_MAKE(0xFF, 0xA5, 0x00)
  58:..\..\..\lvgl\version_6.1.2\lvgl\src\lv_objx\../lv_core/../lv_misc/lv_color.h **** 
  59:..\..\..\lvgl\version_6.1.2\lvgl\src\lv_objx\../lv_core/../lv_misc/lv_color.h **** /**
  60:..\..\..\lvgl\version_6.1.2\lvgl\src\lv_objx\../lv_core/../lv_misc/lv_color.h ****  * Opacity percentages.
  61:..\..\..\lvgl\version_6.1.2\lvgl\src\lv_objx\../lv_core/../lv_misc/lv_color.h ****  */
  62:..\..\..\lvgl\version_6.1.2\lvgl\src\lv_objx\../lv_core/../lv_misc/lv_color.h **** enum {
  63:..\..\..\lvgl\version_6.1.2\lvgl\src\lv_objx\../lv_core/../lv_misc/lv_color.h ****     LV_OPA_TRANSP = 0,
  64:..\..\..\lvgl\version_6.1.2\lvgl\src\lv_objx\../lv_core/../lv_misc/lv_color.h ****     LV_OPA_0      = 0,
  65:..\..\..\lvgl\version_6.1.2\lvgl\src\lv_objx\../lv_core/../lv_misc/lv_color.h ****     LV_OPA_10     = 25,
  66:..\..\..\lvgl\version_6.1.2\lvgl\src\lv_objx\../lv_core/../lv_misc/lv_color.h ****     LV_OPA_20     = 51,
  67:..\..\..\lvgl\version_6.1.2\lvgl\src\lv_objx\../lv_core/../lv_misc/lv_color.h ****     LV_OPA_30     = 76,
  68:..\..\..\lvgl\version_6.1.2\lvgl\src\lv_objx\../lv_core/../lv_misc/lv_color.h ****     LV_OPA_40     = 102,
  69:..\..\..\lvgl\version_6.1.2\lvgl\src\lv_objx\../lv_core/../lv_misc/lv_color.h ****     LV_OPA_50     = 127,
  70:..\..\..\lvgl\version_6.1.2\lvgl\src\lv_objx\../lv_core/../lv_misc/lv_color.h ****     LV_OPA_60     = 153,
  71:..\..\..\lvgl\version_6.1.2\lvgl\src\lv_objx\../lv_core/../lv_misc/lv_color.h ****     LV_OPA_70     = 178,
  72:..\..\..\lvgl\version_6.1.2\lvgl\src\lv_objx\../lv_core/../lv_misc/lv_color.h ****     LV_OPA_80     = 204,
  73:..\..\..\lvgl\version_6.1.2\lvgl\src\lv_objx\../lv_core/../lv_misc/lv_color.h ****     LV_OPA_90     = 229,
  74:..\..\..\lvgl\version_6.1.2\lvgl\src\lv_objx\../lv_core/../lv_misc/lv_color.h ****     LV_OPA_100    = 255,
  75:..\..\..\lvgl\version_6.1.2\lvgl\src\lv_objx\../lv_core/../lv_misc/lv_color.h ****     LV_OPA_COVER  = 255,
  76:..\..\..\lvgl\version_6.1.2\lvgl\src\lv_objx\../lv_core/../lv_misc/lv_color.h **** };
  77:..\..\..\lvgl\version_6.1.2\lvgl\src\lv_objx\../lv_core/../lv_misc/lv_color.h **** 
  78:..\..\..\lvgl\version_6.1.2\lvgl\src\lv_objx\../lv_core/../lv_misc/lv_color.h **** #define LV_OPA_MIN 16  /*Opacities below this will be transparent*/
  79:..\..\..\lvgl\version_6.1.2\lvgl\src\lv_objx\../lv_core/../lv_misc/lv_color.h **** #define LV_OPA_MAX 251 /*Opacities above this will fully cover*/
  80:..\..\..\lvgl\version_6.1.2\lvgl\src\lv_objx\../lv_core/../lv_misc/lv_color.h **** 
  81:..\..\..\lvgl\version_6.1.2\lvgl\src\lv_objx\../lv_core/../lv_misc/lv_color.h **** #if LV_COLOR_DEPTH == 1
  82:..\..\..\lvgl\version_6.1.2\lvgl\src\lv_objx\../lv_core/../lv_misc/lv_color.h **** #define LV_COLOR_SIZE 8
  83:..\..\..\lvgl\version_6.1.2\lvgl\src\lv_objx\../lv_core/../lv_misc/lv_color.h **** #elif LV_COLOR_DEPTH == 8
  84:..\..\..\lvgl\version_6.1.2\lvgl\src\lv_objx\../lv_core/../lv_misc/lv_color.h **** #define LV_COLOR_SIZE 8
  85:..\..\..\lvgl\version_6.1.2\lvgl\src\lv_objx\../lv_core/../lv_misc/lv_color.h **** #elif LV_COLOR_DEPTH == 16
  86:..\..\..\lvgl\version_6.1.2\lvgl\src\lv_objx\../lv_core/../lv_misc/lv_color.h **** #define LV_COLOR_SIZE 16
  87:..\..\..\lvgl\version_6.1.2\lvgl\src\lv_objx\../lv_core/../lv_misc/lv_color.h **** #elif LV_COLOR_DEPTH == 32
ARM GAS  C:\Users\tmj32\AppData\Local\Temp\cc11CUDk.s 			page 3


  88:..\..\..\lvgl\version_6.1.2\lvgl\src\lv_objx\../lv_core/../lv_misc/lv_color.h **** #define LV_COLOR_SIZE 32
  89:..\..\..\lvgl\version_6.1.2\lvgl\src\lv_objx\../lv_core/../lv_misc/lv_color.h **** #else
  90:..\..\..\lvgl\version_6.1.2\lvgl\src\lv_objx\../lv_core/../lv_misc/lv_color.h **** #error "Invalid LV_COLOR_DEPTH in lv_conf.h! Set it to 1, 8, 16 or 32!"
  91:..\..\..\lvgl\version_6.1.2\lvgl\src\lv_objx\../lv_core/../lv_misc/lv_color.h **** #endif
  92:..\..\..\lvgl\version_6.1.2\lvgl\src\lv_objx\../lv_core/../lv_misc/lv_color.h **** 
  93:..\..\..\lvgl\version_6.1.2\lvgl\src\lv_objx\../lv_core/../lv_misc/lv_color.h **** /*---------------------------------------
  94:..\..\..\lvgl\version_6.1.2\lvgl\src\lv_objx\../lv_core/../lv_misc/lv_color.h ****  * Macros for all existing  color depths
  95:..\..\..\lvgl\version_6.1.2\lvgl\src\lv_objx\../lv_core/../lv_misc/lv_color.h ****  * to set/get values of the color channels
  96:..\..\..\lvgl\version_6.1.2\lvgl\src\lv_objx\../lv_core/../lv_misc/lv_color.h ****  *------------------------------------------*/
  97:..\..\..\lvgl\version_6.1.2\lvgl\src\lv_objx\../lv_core/../lv_misc/lv_color.h **** # define LV_COLOR_SET_R1(c, v) (c).ch.red = (uint8_t)((v) & 0x1);
  98:..\..\..\lvgl\version_6.1.2\lvgl\src\lv_objx\../lv_core/../lv_misc/lv_color.h **** # define LV_COLOR_SET_G1(c, v) (c).ch.green = (uint8_t)((v) & 0x1);
  99:..\..\..\lvgl\version_6.1.2\lvgl\src\lv_objx\../lv_core/../lv_misc/lv_color.h **** # define LV_COLOR_SET_B1(c, v) (c).ch.blue = (uint8_t)((v) & 0x1);
 100:..\..\..\lvgl\version_6.1.2\lvgl\src\lv_objx\../lv_core/../lv_misc/lv_color.h **** # define LV_COLOR_SET_A1(c, v)
 101:..\..\..\lvgl\version_6.1.2\lvgl\src\lv_objx\../lv_core/../lv_misc/lv_color.h **** 
 102:..\..\..\lvgl\version_6.1.2\lvgl\src\lv_objx\../lv_core/../lv_misc/lv_color.h **** # define LV_COLOR_GET_R1(c) (c).ch.red
 103:..\..\..\lvgl\version_6.1.2\lvgl\src\lv_objx\../lv_core/../lv_misc/lv_color.h **** # define LV_COLOR_GET_G1(c) (c).ch.green
 104:..\..\..\lvgl\version_6.1.2\lvgl\src\lv_objx\../lv_core/../lv_misc/lv_color.h **** # define LV_COLOR_GET_B1(c) (c).ch.blue
 105:..\..\..\lvgl\version_6.1.2\lvgl\src\lv_objx\../lv_core/../lv_misc/lv_color.h **** # define LV_COLOR_GET_A1(c) 1
 106:..\..\..\lvgl\version_6.1.2\lvgl\src\lv_objx\../lv_core/../lv_misc/lv_color.h **** 
 107:..\..\..\lvgl\version_6.1.2\lvgl\src\lv_objx\../lv_core/../lv_misc/lv_color.h **** # define LV_COLOR_SET_R8(c, v) (c).ch.red = (uint8_t)(v) & 0x7U;
 108:..\..\..\lvgl\version_6.1.2\lvgl\src\lv_objx\../lv_core/../lv_misc/lv_color.h **** # define LV_COLOR_SET_G8(c, v) (c).ch.green = (uint8_t)(v) & 0x7U;
 109:..\..\..\lvgl\version_6.1.2\lvgl\src\lv_objx\../lv_core/../lv_misc/lv_color.h **** # define LV_COLOR_SET_B8(c, v) (c).ch.blue = (uint8_t)(v) & 0x3U;
 110:..\..\..\lvgl\version_6.1.2\lvgl\src\lv_objx\../lv_core/../lv_misc/lv_color.h **** # define LV_COLOR_SET_A8(c, v) do {} while(0)
 111:..\..\..\lvgl\version_6.1.2\lvgl\src\lv_objx\../lv_core/../lv_misc/lv_color.h **** 
 112:..\..\..\lvgl\version_6.1.2\lvgl\src\lv_objx\../lv_core/../lv_misc/lv_color.h **** # define LV_COLOR_GET_R8(c) (c).ch.red
 113:..\..\..\lvgl\version_6.1.2\lvgl\src\lv_objx\../lv_core/../lv_misc/lv_color.h **** # define LV_COLOR_GET_G8(c) (c).ch.green
 114:..\..\..\lvgl\version_6.1.2\lvgl\src\lv_objx\../lv_core/../lv_misc/lv_color.h **** # define LV_COLOR_GET_B8(c) (c).ch.blue
 115:..\..\..\lvgl\version_6.1.2\lvgl\src\lv_objx\../lv_core/../lv_misc/lv_color.h **** # define LV_COLOR_GET_A8(c) 0xFF
 116:..\..\..\lvgl\version_6.1.2\lvgl\src\lv_objx\../lv_core/../lv_misc/lv_color.h **** 
 117:..\..\..\lvgl\version_6.1.2\lvgl\src\lv_objx\../lv_core/../lv_misc/lv_color.h **** # define LV_COLOR_SET_R16(c, v) (c).ch.red = (uint8_t)(v) & 0x1FU;
 118:..\..\..\lvgl\version_6.1.2\lvgl\src\lv_objx\../lv_core/../lv_misc/lv_color.h **** # define LV_COLOR_SET_G16(c, v) (c).ch.green = (uint8_t)(v) & 0x3FU;
 119:..\..\..\lvgl\version_6.1.2\lvgl\src\lv_objx\../lv_core/../lv_misc/lv_color.h **** # define LV_COLOR_SET_G16_SWAP(c, v) {(c).ch.green_h = (uint8_t)(((v) >> 3) & 0x7); (c).ch.green_l 
 120:..\..\..\lvgl\version_6.1.2\lvgl\src\lv_objx\../lv_core/../lv_misc/lv_color.h **** # define LV_COLOR_SET_B16(c, v) (c).ch.blue = (uint8_t)(v) & 0x1FU;
 121:..\..\..\lvgl\version_6.1.2\lvgl\src\lv_objx\../lv_core/../lv_misc/lv_color.h **** # define LV_COLOR_SET_A16(c, v) do {} while(0)
 122:..\..\..\lvgl\version_6.1.2\lvgl\src\lv_objx\../lv_core/../lv_misc/lv_color.h **** 
 123:..\..\..\lvgl\version_6.1.2\lvgl\src\lv_objx\../lv_core/../lv_misc/lv_color.h **** # define LV_COLOR_GET_R16(c) (c).ch.red
 124:..\..\..\lvgl\version_6.1.2\lvgl\src\lv_objx\../lv_core/../lv_misc/lv_color.h **** # define LV_COLOR_GET_G16(c) (c).ch.green
 125:..\..\..\lvgl\version_6.1.2\lvgl\src\lv_objx\../lv_core/../lv_misc/lv_color.h **** # define LV_COLOR_GET_G16_SWAP(c) (((c).ch.green_h << 3) + (c).ch.green_l)
 126:..\..\..\lvgl\version_6.1.2\lvgl\src\lv_objx\../lv_core/../lv_misc/lv_color.h **** # define LV_COLOR_GET_B16(c) (c).ch.blue
 127:..\..\..\lvgl\version_6.1.2\lvgl\src\lv_objx\../lv_core/../lv_misc/lv_color.h **** # define LV_COLOR_GET_A16(c) 0xFF
 128:..\..\..\lvgl\version_6.1.2\lvgl\src\lv_objx\../lv_core/../lv_misc/lv_color.h **** 
 129:..\..\..\lvgl\version_6.1.2\lvgl\src\lv_objx\../lv_core/../lv_misc/lv_color.h **** # define LV_COLOR_SET_R32(c, v) (c).ch.red = (uint32_t)((v) & 0xFF);
 130:..\..\..\lvgl\version_6.1.2\lvgl\src\lv_objx\../lv_core/../lv_misc/lv_color.h **** # define LV_COLOR_SET_G32(c, v) (c).ch.green = (uint32_t)((v) & 0xFF);
 131:..\..\..\lvgl\version_6.1.2\lvgl\src\lv_objx\../lv_core/../lv_misc/lv_color.h **** # define LV_COLOR_SET_B32(c, v) (c).ch.blue = (uint32_t)((v) & 0xFF);
 132:..\..\..\lvgl\version_6.1.2\lvgl\src\lv_objx\../lv_core/../lv_misc/lv_color.h **** # define LV_COLOR_SET_A32(c, v) (c).ch.alpha = (uint32_t)((v) & 0xFF);
 133:..\..\..\lvgl\version_6.1.2\lvgl\src\lv_objx\../lv_core/../lv_misc/lv_color.h **** 
 134:..\..\..\lvgl\version_6.1.2\lvgl\src\lv_objx\../lv_core/../lv_misc/lv_color.h **** # define LV_COLOR_GET_R32(c) (c).ch.red
 135:..\..\..\lvgl\version_6.1.2\lvgl\src\lv_objx\../lv_core/../lv_misc/lv_color.h **** # define LV_COLOR_GET_G32(c) (c).ch.green
 136:..\..\..\lvgl\version_6.1.2\lvgl\src\lv_objx\../lv_core/../lv_misc/lv_color.h **** # define LV_COLOR_GET_B32(c) (c).ch.blue
 137:..\..\..\lvgl\version_6.1.2\lvgl\src\lv_objx\../lv_core/../lv_misc/lv_color.h **** # define LV_COLOR_GET_A32(c) (c).ch.alpha
 138:..\..\..\lvgl\version_6.1.2\lvgl\src\lv_objx\../lv_core/../lv_misc/lv_color.h **** 
 139:..\..\..\lvgl\version_6.1.2\lvgl\src\lv_objx\../lv_core/../lv_misc/lv_color.h **** 
 140:..\..\..\lvgl\version_6.1.2\lvgl\src\lv_objx\../lv_core/../lv_misc/lv_color.h **** /*---------------------------------------
 141:..\..\..\lvgl\version_6.1.2\lvgl\src\lv_objx\../lv_core/../lv_misc/lv_color.h ****  * Macros for the current color depth
 142:..\..\..\lvgl\version_6.1.2\lvgl\src\lv_objx\../lv_core/../lv_misc/lv_color.h ****  * to set/get values of the color channels
 143:..\..\..\lvgl\version_6.1.2\lvgl\src\lv_objx\../lv_core/../lv_misc/lv_color.h ****  *------------------------------------------*/
 144:..\..\..\lvgl\version_6.1.2\lvgl\src\lv_objx\../lv_core/../lv_misc/lv_color.h **** #if LV_COLOR_DEPTH == 1
ARM GAS  C:\Users\tmj32\AppData\Local\Temp\cc11CUDk.s 			page 4


 145:..\..\..\lvgl\version_6.1.2\lvgl\src\lv_objx\../lv_core/../lv_misc/lv_color.h **** # define LV_COLOR_SET_R(c, v) LV_COLOR_SET_R1(c,v)
 146:..\..\..\lvgl\version_6.1.2\lvgl\src\lv_objx\../lv_core/../lv_misc/lv_color.h **** # define LV_COLOR_SET_G(c, v) LV_COLOR_SET_G1(c,v)
 147:..\..\..\lvgl\version_6.1.2\lvgl\src\lv_objx\../lv_core/../lv_misc/lv_color.h **** # define LV_COLOR_SET_B(c, v) LV_COLOR_SET_B1(c,v)
 148:..\..\..\lvgl\version_6.1.2\lvgl\src\lv_objx\../lv_core/../lv_misc/lv_color.h **** # define LV_COLOR_SET_A(c, v) LV_COLOR_SET_A1(c,v)
 149:..\..\..\lvgl\version_6.1.2\lvgl\src\lv_objx\../lv_core/../lv_misc/lv_color.h **** 
 150:..\..\..\lvgl\version_6.1.2\lvgl\src\lv_objx\../lv_core/../lv_misc/lv_color.h **** # define LV_COLOR_GET_R(c) LV_COLOR_GET_R1(c)
 151:..\..\..\lvgl\version_6.1.2\lvgl\src\lv_objx\../lv_core/../lv_misc/lv_color.h **** # define LV_COLOR_GET_G(c) LV_COLOR_GET_G1(c)
 152:..\..\..\lvgl\version_6.1.2\lvgl\src\lv_objx\../lv_core/../lv_misc/lv_color.h **** # define LV_COLOR_GET_B(c) LV_COLOR_GET_B1(c)
 153:..\..\..\lvgl\version_6.1.2\lvgl\src\lv_objx\../lv_core/../lv_misc/lv_color.h **** # define LV_COLOR_GET_A(c) LV_COLOR_GET_A1(c)
 154:..\..\..\lvgl\version_6.1.2\lvgl\src\lv_objx\../lv_core/../lv_misc/lv_color.h **** 
 155:..\..\..\lvgl\version_6.1.2\lvgl\src\lv_objx\../lv_core/../lv_misc/lv_color.h **** #elif LV_COLOR_DEPTH == 8
 156:..\..\..\lvgl\version_6.1.2\lvgl\src\lv_objx\../lv_core/../lv_misc/lv_color.h **** # define LV_COLOR_SET_R(c, v) LV_COLOR_SET_R8(c,v)
 157:..\..\..\lvgl\version_6.1.2\lvgl\src\lv_objx\../lv_core/../lv_misc/lv_color.h **** # define LV_COLOR_SET_G(c, v) LV_COLOR_SET_G8(c,v)
 158:..\..\..\lvgl\version_6.1.2\lvgl\src\lv_objx\../lv_core/../lv_misc/lv_color.h **** # define LV_COLOR_SET_B(c, v) LV_COLOR_SET_B8(c,v)
 159:..\..\..\lvgl\version_6.1.2\lvgl\src\lv_objx\../lv_core/../lv_misc/lv_color.h **** # define LV_COLOR_SET_A(c, v) LV_COLOR_SET_A8(c,v)
 160:..\..\..\lvgl\version_6.1.2\lvgl\src\lv_objx\../lv_core/../lv_misc/lv_color.h **** 
 161:..\..\..\lvgl\version_6.1.2\lvgl\src\lv_objx\../lv_core/../lv_misc/lv_color.h **** # define LV_COLOR_GET_R(c) LV_COLOR_GET_R8(c)
 162:..\..\..\lvgl\version_6.1.2\lvgl\src\lv_objx\../lv_core/../lv_misc/lv_color.h **** # define LV_COLOR_GET_G(c) LV_COLOR_GET_G8(c)
 163:..\..\..\lvgl\version_6.1.2\lvgl\src\lv_objx\../lv_core/../lv_misc/lv_color.h **** # define LV_COLOR_GET_B(c) LV_COLOR_GET_B8(c)
 164:..\..\..\lvgl\version_6.1.2\lvgl\src\lv_objx\../lv_core/../lv_misc/lv_color.h **** # define LV_COLOR_GET_A(c) LV_COLOR_GET_A8(c)
 165:..\..\..\lvgl\version_6.1.2\lvgl\src\lv_objx\../lv_core/../lv_misc/lv_color.h **** 
 166:..\..\..\lvgl\version_6.1.2\lvgl\src\lv_objx\../lv_core/../lv_misc/lv_color.h **** #elif LV_COLOR_DEPTH == 16
 167:..\..\..\lvgl\version_6.1.2\lvgl\src\lv_objx\../lv_core/../lv_misc/lv_color.h **** # define LV_COLOR_SET_R(c, v) LV_COLOR_SET_R16(c,v)
 168:..\..\..\lvgl\version_6.1.2\lvgl\src\lv_objx\../lv_core/../lv_misc/lv_color.h **** # if LV_COLOR_16_SWAP == 0
 169:..\..\..\lvgl\version_6.1.2\lvgl\src\lv_objx\../lv_core/../lv_misc/lv_color.h **** #   define LV_COLOR_SET_G(c, v) LV_COLOR_SET_G16(c,v)
 170:..\..\..\lvgl\version_6.1.2\lvgl\src\lv_objx\../lv_core/../lv_misc/lv_color.h **** # else
 171:..\..\..\lvgl\version_6.1.2\lvgl\src\lv_objx\../lv_core/../lv_misc/lv_color.h **** #   define LV_COLOR_SET_G(c, v) LV_COLOR_SET_G16_SWAP(c,v)
 172:..\..\..\lvgl\version_6.1.2\lvgl\src\lv_objx\../lv_core/../lv_misc/lv_color.h **** # endif
 173:..\..\..\lvgl\version_6.1.2\lvgl\src\lv_objx\../lv_core/../lv_misc/lv_color.h **** # define LV_COLOR_SET_B(c, v) LV_COLOR_SET_B16(c,v)
 174:..\..\..\lvgl\version_6.1.2\lvgl\src\lv_objx\../lv_core/../lv_misc/lv_color.h **** # define LV_COLOR_SET_A(c, v) LV_COLOR_SET_A16(c,v)
 175:..\..\..\lvgl\version_6.1.2\lvgl\src\lv_objx\../lv_core/../lv_misc/lv_color.h **** 
 176:..\..\..\lvgl\version_6.1.2\lvgl\src\lv_objx\../lv_core/../lv_misc/lv_color.h **** # define LV_COLOR_GET_R(c) LV_COLOR_GET_R16(c)
 177:..\..\..\lvgl\version_6.1.2\lvgl\src\lv_objx\../lv_core/../lv_misc/lv_color.h **** # if LV_COLOR_16_SWAP == 0
 178:..\..\..\lvgl\version_6.1.2\lvgl\src\lv_objx\../lv_core/../lv_misc/lv_color.h **** #   define LV_COLOR_GET_G(c) LV_COLOR_GET_G16(c)
 179:..\..\..\lvgl\version_6.1.2\lvgl\src\lv_objx\../lv_core/../lv_misc/lv_color.h **** # else
 180:..\..\..\lvgl\version_6.1.2\lvgl\src\lv_objx\../lv_core/../lv_misc/lv_color.h **** #   define LV_COLOR_GET_G(c) LV_COLOR_GET_G16_SWAP(c)
 181:..\..\..\lvgl\version_6.1.2\lvgl\src\lv_objx\../lv_core/../lv_misc/lv_color.h **** # endif
 182:..\..\..\lvgl\version_6.1.2\lvgl\src\lv_objx\../lv_core/../lv_misc/lv_color.h **** # define LV_COLOR_GET_B(c)   LV_COLOR_GET_B16(c)
 183:..\..\..\lvgl\version_6.1.2\lvgl\src\lv_objx\../lv_core/../lv_misc/lv_color.h **** # define LV_COLOR_GET_A(c)   LV_COLOR_GET_A16(c)
 184:..\..\..\lvgl\version_6.1.2\lvgl\src\lv_objx\../lv_core/../lv_misc/lv_color.h **** 
 185:..\..\..\lvgl\version_6.1.2\lvgl\src\lv_objx\../lv_core/../lv_misc/lv_color.h **** #elif LV_COLOR_DEPTH == 32
 186:..\..\..\lvgl\version_6.1.2\lvgl\src\lv_objx\../lv_core/../lv_misc/lv_color.h **** # define LV_COLOR_SET_R(c, v) LV_COLOR_SET_R32(c,v)
 187:..\..\..\lvgl\version_6.1.2\lvgl\src\lv_objx\../lv_core/../lv_misc/lv_color.h **** # define LV_COLOR_SET_G(c, v) LV_COLOR_SET_G32(c,v)
 188:..\..\..\lvgl\version_6.1.2\lvgl\src\lv_objx\../lv_core/../lv_misc/lv_color.h **** # define LV_COLOR_SET_B(c, v) LV_COLOR_SET_B32(c,v)
 189:..\..\..\lvgl\version_6.1.2\lvgl\src\lv_objx\../lv_core/../lv_misc/lv_color.h **** # define LV_COLOR_SET_A(c, v) LV_COLOR_SET_A32(c,v)
 190:..\..\..\lvgl\version_6.1.2\lvgl\src\lv_objx\../lv_core/../lv_misc/lv_color.h **** 
 191:..\..\..\lvgl\version_6.1.2\lvgl\src\lv_objx\../lv_core/../lv_misc/lv_color.h **** # define LV_COLOR_GET_R(c) LV_COLOR_GET_R32(c)
 192:..\..\..\lvgl\version_6.1.2\lvgl\src\lv_objx\../lv_core/../lv_misc/lv_color.h **** # define LV_COLOR_GET_G(c) LV_COLOR_GET_G32(c)
 193:..\..\..\lvgl\version_6.1.2\lvgl\src\lv_objx\../lv_core/../lv_misc/lv_color.h **** # define LV_COLOR_GET_B(c) LV_COLOR_GET_B32(c)
 194:..\..\..\lvgl\version_6.1.2\lvgl\src\lv_objx\../lv_core/../lv_misc/lv_color.h **** # define LV_COLOR_GET_A(c) LV_COLOR_GET_A32(c)
 195:..\..\..\lvgl\version_6.1.2\lvgl\src\lv_objx\../lv_core/../lv_misc/lv_color.h **** #endif
 196:..\..\..\lvgl\version_6.1.2\lvgl\src\lv_objx\../lv_core/../lv_misc/lv_color.h **** 
 197:..\..\..\lvgl\version_6.1.2\lvgl\src\lv_objx\../lv_core/../lv_misc/lv_color.h **** /**********************
 198:..\..\..\lvgl\version_6.1.2\lvgl\src\lv_objx\../lv_core/../lv_misc/lv_color.h ****  *      TYPEDEFS
 199:..\..\..\lvgl\version_6.1.2\lvgl\src\lv_objx\../lv_core/../lv_misc/lv_color.h ****  **********************/
 200:..\..\..\lvgl\version_6.1.2\lvgl\src\lv_objx\../lv_core/../lv_misc/lv_color.h **** 
 201:..\..\..\lvgl\version_6.1.2\lvgl\src\lv_objx\../lv_core/../lv_misc/lv_color.h **** typedef union
ARM GAS  C:\Users\tmj32\AppData\Local\Temp\cc11CUDk.s 			page 5


 202:..\..\..\lvgl\version_6.1.2\lvgl\src\lv_objx\../lv_core/../lv_misc/lv_color.h **** {
 203:..\..\..\lvgl\version_6.1.2\lvgl\src\lv_objx\../lv_core/../lv_misc/lv_color.h ****     struct
 204:..\..\..\lvgl\version_6.1.2\lvgl\src\lv_objx\../lv_core/../lv_misc/lv_color.h ****     {
 205:..\..\..\lvgl\version_6.1.2\lvgl\src\lv_objx\../lv_core/../lv_misc/lv_color.h ****         uint8_t blue : 1;
 206:..\..\..\lvgl\version_6.1.2\lvgl\src\lv_objx\../lv_core/../lv_misc/lv_color.h ****         uint8_t green : 1;
 207:..\..\..\lvgl\version_6.1.2\lvgl\src\lv_objx\../lv_core/../lv_misc/lv_color.h ****         uint8_t red : 1;
 208:..\..\..\lvgl\version_6.1.2\lvgl\src\lv_objx\../lv_core/../lv_misc/lv_color.h ****     } ch;
 209:..\..\..\lvgl\version_6.1.2\lvgl\src\lv_objx\../lv_core/../lv_misc/lv_color.h ****     uint8_t full;
 210:..\..\..\lvgl\version_6.1.2\lvgl\src\lv_objx\../lv_core/../lv_misc/lv_color.h **** } lv_color1_t;
 211:..\..\..\lvgl\version_6.1.2\lvgl\src\lv_objx\../lv_core/../lv_misc/lv_color.h **** 
 212:..\..\..\lvgl\version_6.1.2\lvgl\src\lv_objx\../lv_core/../lv_misc/lv_color.h **** typedef union
 213:..\..\..\lvgl\version_6.1.2\lvgl\src\lv_objx\../lv_core/../lv_misc/lv_color.h **** {
 214:..\..\..\lvgl\version_6.1.2\lvgl\src\lv_objx\../lv_core/../lv_misc/lv_color.h ****     struct
 215:..\..\..\lvgl\version_6.1.2\lvgl\src\lv_objx\../lv_core/../lv_misc/lv_color.h ****     {
 216:..\..\..\lvgl\version_6.1.2\lvgl\src\lv_objx\../lv_core/../lv_misc/lv_color.h ****         uint8_t blue : 2;
 217:..\..\..\lvgl\version_6.1.2\lvgl\src\lv_objx\../lv_core/../lv_misc/lv_color.h ****         uint8_t green : 3;
 218:..\..\..\lvgl\version_6.1.2\lvgl\src\lv_objx\../lv_core/../lv_misc/lv_color.h ****         uint8_t red : 3;
 219:..\..\..\lvgl\version_6.1.2\lvgl\src\lv_objx\../lv_core/../lv_misc/lv_color.h ****     } ch;
 220:..\..\..\lvgl\version_6.1.2\lvgl\src\lv_objx\../lv_core/../lv_misc/lv_color.h ****     uint8_t full;
 221:..\..\..\lvgl\version_6.1.2\lvgl\src\lv_objx\../lv_core/../lv_misc/lv_color.h **** } lv_color8_t;
 222:..\..\..\lvgl\version_6.1.2\lvgl\src\lv_objx\../lv_core/../lv_misc/lv_color.h **** 
 223:..\..\..\lvgl\version_6.1.2\lvgl\src\lv_objx\../lv_core/../lv_misc/lv_color.h **** typedef union
 224:..\..\..\lvgl\version_6.1.2\lvgl\src\lv_objx\../lv_core/../lv_misc/lv_color.h **** {
 225:..\..\..\lvgl\version_6.1.2\lvgl\src\lv_objx\../lv_core/../lv_misc/lv_color.h ****     struct
 226:..\..\..\lvgl\version_6.1.2\lvgl\src\lv_objx\../lv_core/../lv_misc/lv_color.h ****     {
 227:..\..\..\lvgl\version_6.1.2\lvgl\src\lv_objx\../lv_core/../lv_misc/lv_color.h **** #if LV_COLOR_16_SWAP == 0
 228:..\..\..\lvgl\version_6.1.2\lvgl\src\lv_objx\../lv_core/../lv_misc/lv_color.h ****         uint16_t blue : 5;
 229:..\..\..\lvgl\version_6.1.2\lvgl\src\lv_objx\../lv_core/../lv_misc/lv_color.h ****         uint16_t green : 6;
 230:..\..\..\lvgl\version_6.1.2\lvgl\src\lv_objx\../lv_core/../lv_misc/lv_color.h ****         uint16_t red : 5;
 231:..\..\..\lvgl\version_6.1.2\lvgl\src\lv_objx\../lv_core/../lv_misc/lv_color.h **** #else
 232:..\..\..\lvgl\version_6.1.2\lvgl\src\lv_objx\../lv_core/../lv_misc/lv_color.h ****         uint16_t green_h : 3;
 233:..\..\..\lvgl\version_6.1.2\lvgl\src\lv_objx\../lv_core/../lv_misc/lv_color.h ****         uint16_t red : 5;
 234:..\..\..\lvgl\version_6.1.2\lvgl\src\lv_objx\../lv_core/../lv_misc/lv_color.h ****         uint16_t blue : 5;
 235:..\..\..\lvgl\version_6.1.2\lvgl\src\lv_objx\../lv_core/../lv_misc/lv_color.h ****         uint16_t green_l : 3;
 236:..\..\..\lvgl\version_6.1.2\lvgl\src\lv_objx\../lv_core/../lv_misc/lv_color.h **** #endif
 237:..\..\..\lvgl\version_6.1.2\lvgl\src\lv_objx\../lv_core/../lv_misc/lv_color.h ****     } ch;
 238:..\..\..\lvgl\version_6.1.2\lvgl\src\lv_objx\../lv_core/../lv_misc/lv_color.h ****     uint16_t full;
 239:..\..\..\lvgl\version_6.1.2\lvgl\src\lv_objx\../lv_core/../lv_misc/lv_color.h **** } lv_color16_t;
 240:..\..\..\lvgl\version_6.1.2\lvgl\src\lv_objx\../lv_core/../lv_misc/lv_color.h **** 
 241:..\..\..\lvgl\version_6.1.2\lvgl\src\lv_objx\../lv_core/../lv_misc/lv_color.h **** typedef union
 242:..\..\..\lvgl\version_6.1.2\lvgl\src\lv_objx\../lv_core/../lv_misc/lv_color.h **** {
 243:..\..\..\lvgl\version_6.1.2\lvgl\src\lv_objx\../lv_core/../lv_misc/lv_color.h ****     struct
 244:..\..\..\lvgl\version_6.1.2\lvgl\src\lv_objx\../lv_core/../lv_misc/lv_color.h ****     {
 245:..\..\..\lvgl\version_6.1.2\lvgl\src\lv_objx\../lv_core/../lv_misc/lv_color.h ****         uint8_t blue;
 246:..\..\..\lvgl\version_6.1.2\lvgl\src\lv_objx\../lv_core/../lv_misc/lv_color.h ****         uint8_t green;
 247:..\..\..\lvgl\version_6.1.2\lvgl\src\lv_objx\../lv_core/../lv_misc/lv_color.h ****         uint8_t red;
 248:..\..\..\lvgl\version_6.1.2\lvgl\src\lv_objx\../lv_core/../lv_misc/lv_color.h ****         uint8_t alpha;
 249:..\..\..\lvgl\version_6.1.2\lvgl\src\lv_objx\../lv_core/../lv_misc/lv_color.h ****     } ch;
 250:..\..\..\lvgl\version_6.1.2\lvgl\src\lv_objx\../lv_core/../lv_misc/lv_color.h ****     uint32_t full;
 251:..\..\..\lvgl\version_6.1.2\lvgl\src\lv_objx\../lv_core/../lv_misc/lv_color.h **** } lv_color32_t;
 252:..\..\..\lvgl\version_6.1.2\lvgl\src\lv_objx\../lv_core/../lv_misc/lv_color.h **** 
 253:..\..\..\lvgl\version_6.1.2\lvgl\src\lv_objx\../lv_core/../lv_misc/lv_color.h **** #if LV_COLOR_DEPTH == 1
 254:..\..\..\lvgl\version_6.1.2\lvgl\src\lv_objx\../lv_core/../lv_misc/lv_color.h **** typedef uint8_t lv_color_int_t;
 255:..\..\..\lvgl\version_6.1.2\lvgl\src\lv_objx\../lv_core/../lv_misc/lv_color.h **** typedef lv_color1_t lv_color_t;
 256:..\..\..\lvgl\version_6.1.2\lvgl\src\lv_objx\../lv_core/../lv_misc/lv_color.h **** #elif LV_COLOR_DEPTH == 8
 257:..\..\..\lvgl\version_6.1.2\lvgl\src\lv_objx\../lv_core/../lv_misc/lv_color.h **** typedef uint8_t lv_color_int_t;
 258:..\..\..\lvgl\version_6.1.2\lvgl\src\lv_objx\../lv_core/../lv_misc/lv_color.h **** typedef lv_color8_t lv_color_t;
ARM GAS  C:\Users\tmj32\AppData\Local\Temp\cc11CUDk.s 			page 6


 259:..\..\..\lvgl\version_6.1.2\lvgl\src\lv_objx\../lv_core/../lv_misc/lv_color.h **** #elif LV_COLOR_DEPTH == 16
 260:..\..\..\lvgl\version_6.1.2\lvgl\src\lv_objx\../lv_core/../lv_misc/lv_color.h **** typedef uint16_t lv_color_int_t;
 261:..\..\..\lvgl\version_6.1.2\lvgl\src\lv_objx\../lv_core/../lv_misc/lv_color.h **** typedef lv_color16_t lv_color_t;
 262:..\..\..\lvgl\version_6.1.2\lvgl\src\lv_objx\../lv_core/../lv_misc/lv_color.h **** #elif LV_COLOR_DEPTH == 32
 263:..\..\..\lvgl\version_6.1.2\lvgl\src\lv_objx\../lv_core/../lv_misc/lv_color.h **** typedef uint32_t lv_color_int_t;
 264:..\..\..\lvgl\version_6.1.2\lvgl\src\lv_objx\../lv_core/../lv_misc/lv_color.h **** typedef lv_color32_t lv_color_t;
 265:..\..\..\lvgl\version_6.1.2\lvgl\src\lv_objx\../lv_core/../lv_misc/lv_color.h **** #else
 266:..\..\..\lvgl\version_6.1.2\lvgl\src\lv_objx\../lv_core/../lv_misc/lv_color.h **** #error "Invalid LV_COLOR_DEPTH in lv_conf.h! Set it to 1, 8, 16 or 32!"
 267:..\..\..\lvgl\version_6.1.2\lvgl\src\lv_objx\../lv_core/../lv_misc/lv_color.h **** #endif
 268:..\..\..\lvgl\version_6.1.2\lvgl\src\lv_objx\../lv_core/../lv_misc/lv_color.h **** 
 269:..\..\..\lvgl\version_6.1.2\lvgl\src\lv_objx\../lv_core/../lv_misc/lv_color.h **** typedef uint8_t lv_opa_t;
 270:..\..\..\lvgl\version_6.1.2\lvgl\src\lv_objx\../lv_core/../lv_misc/lv_color.h **** 
 271:..\..\..\lvgl\version_6.1.2\lvgl\src\lv_objx\../lv_core/../lv_misc/lv_color.h **** typedef struct
 272:..\..\..\lvgl\version_6.1.2\lvgl\src\lv_objx\../lv_core/../lv_misc/lv_color.h **** {
 273:..\..\..\lvgl\version_6.1.2\lvgl\src\lv_objx\../lv_core/../lv_misc/lv_color.h ****     uint16_t h;
 274:..\..\..\lvgl\version_6.1.2\lvgl\src\lv_objx\../lv_core/../lv_misc/lv_color.h ****     uint8_t s;
 275:..\..\..\lvgl\version_6.1.2\lvgl\src\lv_objx\../lv_core/../lv_misc/lv_color.h ****     uint8_t v;
 276:..\..\..\lvgl\version_6.1.2\lvgl\src\lv_objx\../lv_core/../lv_misc/lv_color.h **** } lv_color_hsv_t;
 277:..\..\..\lvgl\version_6.1.2\lvgl\src\lv_objx\../lv_core/../lv_misc/lv_color.h **** 
 278:..\..\..\lvgl\version_6.1.2\lvgl\src\lv_objx\../lv_core/../lv_misc/lv_color.h **** /**********************
 279:..\..\..\lvgl\version_6.1.2\lvgl\src\lv_objx\../lv_core/../lv_misc/lv_color.h ****  * GLOBAL PROTOTYPES
 280:..\..\..\lvgl\version_6.1.2\lvgl\src\lv_objx\../lv_core/../lv_misc/lv_color.h ****  **********************/
 281:..\..\..\lvgl\version_6.1.2\lvgl\src\lv_objx\../lv_core/../lv_misc/lv_color.h **** 
 282:..\..\..\lvgl\version_6.1.2\lvgl\src\lv_objx\../lv_core/../lv_misc/lv_color.h **** /*In color conversations:
 283:..\..\..\lvgl\version_6.1.2\lvgl\src\lv_objx\../lv_core/../lv_misc/lv_color.h ****  * - When converting to bigger color type the LSB weight of 1 LSB is calculated
 284:..\..\..\lvgl\version_6.1.2\lvgl\src\lv_objx\../lv_core/../lv_misc/lv_color.h ****  *   E.g. 16 bit Red has 5 bits
 285:..\..\..\lvgl\version_6.1.2\lvgl\src\lv_objx\../lv_core/../lv_misc/lv_color.h ****  *         8 bit Red has 2 bits
 286:..\..\..\lvgl\version_6.1.2\lvgl\src\lv_objx\../lv_core/../lv_misc/lv_color.h ****  *        ----------------------
 287:..\..\..\lvgl\version_6.1.2\lvgl\src\lv_objx\../lv_core/../lv_misc/lv_color.h ****  *        8 bit red LSB = (2^5 - 1) / (2^2 - 1) = 31 / 3 = 10
 288:..\..\..\lvgl\version_6.1.2\lvgl\src\lv_objx\../lv_core/../lv_misc/lv_color.h ****  *
 289:..\..\..\lvgl\version_6.1.2\lvgl\src\lv_objx\../lv_core/../lv_misc/lv_color.h ****  * - When calculating to smaller color type simply shift out the LSBs
 290:..\..\..\lvgl\version_6.1.2\lvgl\src\lv_objx\../lv_core/../lv_misc/lv_color.h ****  *   E.g.  8 bit Red has 2 bits
 291:..\..\..\lvgl\version_6.1.2\lvgl\src\lv_objx\../lv_core/../lv_misc/lv_color.h ****  *        16 bit Red has 5 bits
 292:..\..\..\lvgl\version_6.1.2\lvgl\src\lv_objx\../lv_core/../lv_misc/lv_color.h ****  *        ----------------------
 293:..\..\..\lvgl\version_6.1.2\lvgl\src\lv_objx\../lv_core/../lv_misc/lv_color.h ****  *         Shift right with 5 - 3 = 2
 294:..\..\..\lvgl\version_6.1.2\lvgl\src\lv_objx\../lv_core/../lv_misc/lv_color.h ****  */
 295:..\..\..\lvgl\version_6.1.2\lvgl\src\lv_objx\../lv_core/../lv_misc/lv_color.h **** 
 296:..\..\..\lvgl\version_6.1.2\lvgl\src\lv_objx\../lv_core/../lv_misc/lv_color.h **** static inline uint8_t lv_color_to1(lv_color_t color)
 297:..\..\..\lvgl\version_6.1.2\lvgl\src\lv_objx\../lv_core/../lv_misc/lv_color.h **** {
 298:..\..\..\lvgl\version_6.1.2\lvgl\src\lv_objx\../lv_core/../lv_misc/lv_color.h **** #if LV_COLOR_DEPTH == 1
 299:..\..\..\lvgl\version_6.1.2\lvgl\src\lv_objx\../lv_core/../lv_misc/lv_color.h ****     return color.full;
 300:..\..\..\lvgl\version_6.1.2\lvgl\src\lv_objx\../lv_core/../lv_misc/lv_color.h **** #elif LV_COLOR_DEPTH == 8
 301:..\..\..\lvgl\version_6.1.2\lvgl\src\lv_objx\../lv_core/../lv_misc/lv_color.h ****     if((LV_COLOR_GET_R(color) & 0x4) || (LV_COLOR_GET_G(color) & 0x4) || (LV_COLOR_GET_B(color) & 0
 302:..\..\..\lvgl\version_6.1.2\lvgl\src\lv_objx\../lv_core/../lv_misc/lv_color.h ****         return 1;
 303:..\..\..\lvgl\version_6.1.2\lvgl\src\lv_objx\../lv_core/../lv_misc/lv_color.h ****     } else {
 304:..\..\..\lvgl\version_6.1.2\lvgl\src\lv_objx\../lv_core/../lv_misc/lv_color.h ****         return 0;
 305:..\..\..\lvgl\version_6.1.2\lvgl\src\lv_objx\../lv_core/../lv_misc/lv_color.h ****     }
 306:..\..\..\lvgl\version_6.1.2\lvgl\src\lv_objx\../lv_core/../lv_misc/lv_color.h **** #elif LV_COLOR_DEPTH == 16
 307:..\..\..\lvgl\version_6.1.2\lvgl\src\lv_objx\../lv_core/../lv_misc/lv_color.h ****     if((LV_COLOR_GET_R(color) & 0x10) || (LV_COLOR_GET_G(color) & 0x20) || (LV_COLOR_GET_B(color) &
 308:..\..\..\lvgl\version_6.1.2\lvgl\src\lv_objx\../lv_core/../lv_misc/lv_color.h ****         return 1;
 309:..\..\..\lvgl\version_6.1.2\lvgl\src\lv_objx\../lv_core/../lv_misc/lv_color.h ****     } else {
 310:..\..\..\lvgl\version_6.1.2\lvgl\src\lv_objx\../lv_core/../lv_misc/lv_color.h ****         return 0;
 311:..\..\..\lvgl\version_6.1.2\lvgl\src\lv_objx\../lv_core/../lv_misc/lv_color.h ****     }
 312:..\..\..\lvgl\version_6.1.2\lvgl\src\lv_objx\../lv_core/../lv_misc/lv_color.h **** #elif LV_COLOR_DEPTH == 32
 313:..\..\..\lvgl\version_6.1.2\lvgl\src\lv_objx\../lv_core/../lv_misc/lv_color.h ****     if((LV_COLOR_GET_R(color) & 0x80) || (LV_COLOR_GET_G(color) & 0x80) || (LV_COLOR_GET_B(color) &
 314:..\..\..\lvgl\version_6.1.2\lvgl\src\lv_objx\../lv_core/../lv_misc/lv_color.h ****         return 1;
 315:..\..\..\lvgl\version_6.1.2\lvgl\src\lv_objx\../lv_core/../lv_misc/lv_color.h ****     } else {
ARM GAS  C:\Users\tmj32\AppData\Local\Temp\cc11CUDk.s 			page 7


 316:..\..\..\lvgl\version_6.1.2\lvgl\src\lv_objx\../lv_core/../lv_misc/lv_color.h ****         return 0;
 317:..\..\..\lvgl\version_6.1.2\lvgl\src\lv_objx\../lv_core/../lv_misc/lv_color.h ****     }
 318:..\..\..\lvgl\version_6.1.2\lvgl\src\lv_objx\../lv_core/../lv_misc/lv_color.h **** #endif
 319:..\..\..\lvgl\version_6.1.2\lvgl\src\lv_objx\../lv_core/../lv_misc/lv_color.h **** }
 320:..\..\..\lvgl\version_6.1.2\lvgl\src\lv_objx\../lv_core/../lv_misc/lv_color.h **** 
 321:..\..\..\lvgl\version_6.1.2\lvgl\src\lv_objx\../lv_core/../lv_misc/lv_color.h **** static inline uint8_t lv_color_to8(lv_color_t color)
 322:..\..\..\lvgl\version_6.1.2\lvgl\src\lv_objx\../lv_core/../lv_misc/lv_color.h **** {
 323:..\..\..\lvgl\version_6.1.2\lvgl\src\lv_objx\../lv_core/../lv_misc/lv_color.h **** #if LV_COLOR_DEPTH == 1
 324:..\..\..\lvgl\version_6.1.2\lvgl\src\lv_objx\../lv_core/../lv_misc/lv_color.h ****     if(color.full == 0)
 325:..\..\..\lvgl\version_6.1.2\lvgl\src\lv_objx\../lv_core/../lv_misc/lv_color.h ****         return 0;
 326:..\..\..\lvgl\version_6.1.2\lvgl\src\lv_objx\../lv_core/../lv_misc/lv_color.h ****     else
 327:..\..\..\lvgl\version_6.1.2\lvgl\src\lv_objx\../lv_core/../lv_misc/lv_color.h ****         return 0xFF;
 328:..\..\..\lvgl\version_6.1.2\lvgl\src\lv_objx\../lv_core/../lv_misc/lv_color.h **** #elif LV_COLOR_DEPTH == 8
 329:..\..\..\lvgl\version_6.1.2\lvgl\src\lv_objx\../lv_core/../lv_misc/lv_color.h ****     return color.full;
 330:..\..\..\lvgl\version_6.1.2\lvgl\src\lv_objx\../lv_core/../lv_misc/lv_color.h **** #elif LV_COLOR_DEPTH == 16
 331:..\..\..\lvgl\version_6.1.2\lvgl\src\lv_objx\../lv_core/../lv_misc/lv_color.h ****     lv_color8_t ret;
 332:..\..\..\lvgl\version_6.1.2\lvgl\src\lv_objx\../lv_core/../lv_misc/lv_color.h ****     LV_COLOR_SET_R8(ret, LV_COLOR_GET_R(color) >> 2);   /* 5 - 3  = 2*/
 333:..\..\..\lvgl\version_6.1.2\lvgl\src\lv_objx\../lv_core/../lv_misc/lv_color.h ****     LV_COLOR_SET_G8(ret, LV_COLOR_GET_G(color) >> 3); /* 6 - 3  = 3*/
 334:..\..\..\lvgl\version_6.1.2\lvgl\src\lv_objx\../lv_core/../lv_misc/lv_color.h ****     LV_COLOR_SET_B8(ret, LV_COLOR_GET_B(color) >> 3);  /* 5 - 2  = 3*/
 335:..\..\..\lvgl\version_6.1.2\lvgl\src\lv_objx\../lv_core/../lv_misc/lv_color.h ****     return ret.full;
 336:..\..\..\lvgl\version_6.1.2\lvgl\src\lv_objx\../lv_core/../lv_misc/lv_color.h **** #elif LV_COLOR_DEPTH == 32
 337:..\..\..\lvgl\version_6.1.2\lvgl\src\lv_objx\../lv_core/../lv_misc/lv_color.h ****     lv_color8_t ret;
 338:..\..\..\lvgl\version_6.1.2\lvgl\src\lv_objx\../lv_core/../lv_misc/lv_color.h ****     LV_COLOR_SET_R8(ret, LV_COLOR_GET_R(color) >> 5);   /* 8 - 3  = 5*/
 339:..\..\..\lvgl\version_6.1.2\lvgl\src\lv_objx\../lv_core/../lv_misc/lv_color.h ****     LV_COLOR_SET_G8(ret, LV_COLOR_GET_G(color) >> 5); /* 8 - 3  = 5*/
 340:..\..\..\lvgl\version_6.1.2\lvgl\src\lv_objx\../lv_core/../lv_misc/lv_color.h ****     LV_COLOR_SET_B8(ret, LV_COLOR_GET_B(color) >> 6);  /* 8 - 2  = 6*/
 341:..\..\..\lvgl\version_6.1.2\lvgl\src\lv_objx\../lv_core/../lv_misc/lv_color.h ****     return ret.full;
 342:..\..\..\lvgl\version_6.1.2\lvgl\src\lv_objx\../lv_core/../lv_misc/lv_color.h **** #endif
 343:..\..\..\lvgl\version_6.1.2\lvgl\src\lv_objx\../lv_core/../lv_misc/lv_color.h **** }
 344:..\..\..\lvgl\version_6.1.2\lvgl\src\lv_objx\../lv_core/../lv_misc/lv_color.h **** 
 345:..\..\..\lvgl\version_6.1.2\lvgl\src\lv_objx\../lv_core/../lv_misc/lv_color.h **** static inline uint16_t lv_color_to16(lv_color_t color)
 346:..\..\..\lvgl\version_6.1.2\lvgl\src\lv_objx\../lv_core/../lv_misc/lv_color.h **** {
 347:..\..\..\lvgl\version_6.1.2\lvgl\src\lv_objx\../lv_core/../lv_misc/lv_color.h **** #if LV_COLOR_DEPTH == 1
 348:..\..\..\lvgl\version_6.1.2\lvgl\src\lv_objx\../lv_core/../lv_misc/lv_color.h ****     if(color.full == 0)
 349:..\..\..\lvgl\version_6.1.2\lvgl\src\lv_objx\../lv_core/../lv_misc/lv_color.h ****         return 0;
 350:..\..\..\lvgl\version_6.1.2\lvgl\src\lv_objx\../lv_core/../lv_misc/lv_color.h ****     else
 351:..\..\..\lvgl\version_6.1.2\lvgl\src\lv_objx\../lv_core/../lv_misc/lv_color.h ****         return 0xFFFF;
 352:..\..\..\lvgl\version_6.1.2\lvgl\src\lv_objx\../lv_core/../lv_misc/lv_color.h **** #elif LV_COLOR_DEPTH == 8
 353:..\..\..\lvgl\version_6.1.2\lvgl\src\lv_objx\../lv_core/../lv_misc/lv_color.h ****     lv_color16_t ret;
 354:..\..\..\lvgl\version_6.1.2\lvgl\src\lv_objx\../lv_core/../lv_misc/lv_color.h ****     LV_COLOR_SET_R16(ret, LV_COLOR_GET_R(color) * 4);     /*(2^5 - 1)/(2^3 - 1) = 31/7 = 4*/
 355:..\..\..\lvgl\version_6.1.2\lvgl\src\lv_objx\../lv_core/../lv_misc/lv_color.h **** #if LV_COLOR_16_SWAP == 0
 356:..\..\..\lvgl\version_6.1.2\lvgl\src\lv_objx\../lv_core/../lv_misc/lv_color.h ****     LV_COLOR_SET_G16(ret,  LV_COLOR_GET_G(color) * 9); /*(2^6 - 1)/(2^3 - 1) = 63/7 = 9*/
 357:..\..\..\lvgl\version_6.1.2\lvgl\src\lv_objx\../lv_core/../lv_misc/lv_color.h **** #else
 358:..\..\..\lvgl\version_6.1.2\lvgl\src\lv_objx\../lv_core/../lv_misc/lv_color.h ****     LV_COLOR_SET_G16_SWAP(ret, (LV_COLOR_GET_G(color) * 9)); /*(2^6 - 1)/(2^3 - 1) = 63/7 = 9*/
 359:..\..\..\lvgl\version_6.1.2\lvgl\src\lv_objx\../lv_core/../lv_misc/lv_color.h **** #endif
 360:..\..\..\lvgl\version_6.1.2\lvgl\src\lv_objx\../lv_core/../lv_misc/lv_color.h ****     LV_COLOR_SET_B16(ret, LV_COLOR_GET_B(color) * 10);  /*(2^5 - 1)/(2^2 - 1) = 31/3 = 10*/
 361:..\..\..\lvgl\version_6.1.2\lvgl\src\lv_objx\../lv_core/../lv_misc/lv_color.h ****     return ret.full;
 362:..\..\..\lvgl\version_6.1.2\lvgl\src\lv_objx\../lv_core/../lv_misc/lv_color.h **** #elif LV_COLOR_DEPTH == 16
 363:..\..\..\lvgl\version_6.1.2\lvgl\src\lv_objx\../lv_core/../lv_misc/lv_color.h ****     return color.full;
 364:..\..\..\lvgl\version_6.1.2\lvgl\src\lv_objx\../lv_core/../lv_misc/lv_color.h **** #elif LV_COLOR_DEPTH == 32
 365:..\..\..\lvgl\version_6.1.2\lvgl\src\lv_objx\../lv_core/../lv_misc/lv_color.h ****     lv_color16_t ret;
 366:..\..\..\lvgl\version_6.1.2\lvgl\src\lv_objx\../lv_core/../lv_misc/lv_color.h ****     LV_COLOR_SET_R16(ret, LV_COLOR_GET_R(color) >> 3);   /* 8 - 5  = 3*/
 367:..\..\..\lvgl\version_6.1.2\lvgl\src\lv_objx\../lv_core/../lv_misc/lv_color.h **** 
 368:..\..\..\lvgl\version_6.1.2\lvgl\src\lv_objx\../lv_core/../lv_misc/lv_color.h **** #if LV_COLOR_16_SWAP == 0
 369:..\..\..\lvgl\version_6.1.2\lvgl\src\lv_objx\../lv_core/../lv_misc/lv_color.h ****     LV_COLOR_SET_G16(ret, LV_COLOR_GET_G(color) >> 2); /* 8 - 6  = 2*/
 370:..\..\..\lvgl\version_6.1.2\lvgl\src\lv_objx\../lv_core/../lv_misc/lv_color.h **** #else
 371:..\..\..\lvgl\version_6.1.2\lvgl\src\lv_objx\../lv_core/../lv_misc/lv_color.h ****     LV_COLOR_SET_G16_SWAP(ret, ret.ch.green_h = (LV_COLOR_GET_G(color) >> 2); /*(2^6 - 1)/(2^3 - 1)
 372:..\..\..\lvgl\version_6.1.2\lvgl\src\lv_objx\../lv_core/../lv_misc/lv_color.h **** #endif
ARM GAS  C:\Users\tmj32\AppData\Local\Temp\cc11CUDk.s 			page 8


 373:..\..\..\lvgl\version_6.1.2\lvgl\src\lv_objx\../lv_core/../lv_misc/lv_color.h ****     LV_COLOR_SET_B16(ret, LV_COLOR_GET_B(color) >> 3);  /* 8 - 5  = 3*/
 374:..\..\..\lvgl\version_6.1.2\lvgl\src\lv_objx\../lv_core/../lv_misc/lv_color.h ****     return ret.full;
 375:..\..\..\lvgl\version_6.1.2\lvgl\src\lv_objx\../lv_core/../lv_misc/lv_color.h **** #endif                         
 376:..\..\..\lvgl\version_6.1.2\lvgl\src\lv_objx\../lv_core/../lv_misc/lv_color.h **** }
 377:..\..\..\lvgl\version_6.1.2\lvgl\src\lv_objx\../lv_core/../lv_misc/lv_color.h **** 
 378:..\..\..\lvgl\version_6.1.2\lvgl\src\lv_objx\../lv_core/../lv_misc/lv_color.h **** static inline uint32_t lv_color_to32(lv_color_t color)
 379:..\..\..\lvgl\version_6.1.2\lvgl\src\lv_objx\../lv_core/../lv_misc/lv_color.h **** {
  28              		.loc 1 379 0
  29              		.cfi_startproc
  30              		@ args = 0, pretend = 0, frame = 8
  31              		@ frame_needed = 1, uses_anonymous_args = 0
  32              		@ link register save eliminated.
  33 0000 80B4     		push	{r7}
  34              		.cfi_def_cfa_offset 4
  35              		.cfi_offset 7, -4
  36 0002 83B0     		sub	sp, sp, #12
  37              		.cfi_def_cfa_offset 16
  38 0004 00AF     		add	r7, sp, #0
  39              		.cfi_def_cfa_register 7
  40 0006 7860     		str	r0, [r7, #4]
 380:..\..\..\lvgl\version_6.1.2\lvgl\src\lv_objx\../lv_core/../lv_misc/lv_color.h **** #if LV_COLOR_DEPTH == 1
 381:..\..\..\lvgl\version_6.1.2\lvgl\src\lv_objx\../lv_core/../lv_misc/lv_color.h ****     if(color.full == 0)
 382:..\..\..\lvgl\version_6.1.2\lvgl\src\lv_objx\../lv_core/../lv_misc/lv_color.h ****         return 0;
 383:..\..\..\lvgl\version_6.1.2\lvgl\src\lv_objx\../lv_core/../lv_misc/lv_color.h ****     else
 384:..\..\..\lvgl\version_6.1.2\lvgl\src\lv_objx\../lv_core/../lv_misc/lv_color.h ****         return 0xFFFFFFFF;
 385:..\..\..\lvgl\version_6.1.2\lvgl\src\lv_objx\../lv_core/../lv_misc/lv_color.h **** #elif LV_COLOR_DEPTH == 8
 386:..\..\..\lvgl\version_6.1.2\lvgl\src\lv_objx\../lv_core/../lv_misc/lv_color.h ****     lv_color32_t ret;
 387:..\..\..\lvgl\version_6.1.2\lvgl\src\lv_objx\../lv_core/../lv_misc/lv_color.h ****     LV_COLOR_SET_R32(ret, LV_COLOR_GET_R(color) * 36);     /*(2^8 - 1)/(2^3 - 1) = 255/7 = 36*/
 388:..\..\..\lvgl\version_6.1.2\lvgl\src\lv_objx\../lv_core/../lv_misc/lv_color.h ****     LV_COLOR_SET_G32(ret, LV_COLOR_GET_G(color) * 36); /*(2^8 - 1)/(2^3 - 1) = 255/7 = 36*/
 389:..\..\..\lvgl\version_6.1.2\lvgl\src\lv_objx\../lv_core/../lv_misc/lv_color.h ****     LV_COLOR_SET_B32(ret, LV_COLOR_GET_B(color) * 85);   /*(2^8 - 1)/(2^2 - 1) = 255/3 = 85*/
 390:..\..\..\lvgl\version_6.1.2\lvgl\src\lv_objx\../lv_core/../lv_misc/lv_color.h ****     LV_COLOR_SET_A32(ret, 0xFF);
 391:..\..\..\lvgl\version_6.1.2\lvgl\src\lv_objx\../lv_core/../lv_misc/lv_color.h ****     return ret.full;
 392:..\..\..\lvgl\version_6.1.2\lvgl\src\lv_objx\../lv_core/../lv_misc/lv_color.h **** #elif LV_COLOR_DEPTH == 16
 393:..\..\..\lvgl\version_6.1.2\lvgl\src\lv_objx\../lv_core/../lv_misc/lv_color.h ****     /**
 394:..\..\..\lvgl\version_6.1.2\lvgl\src\lv_objx\../lv_core/../lv_misc/lv_color.h ****      * The floating point math for conversion is:
 395:..\..\..\lvgl\version_6.1.2\lvgl\src\lv_objx\../lv_core/../lv_misc/lv_color.h ****      *  valueto = valuefrom * ( (2^bitsto - 1) / (float)(2^bitsfrom - 1) )
 396:..\..\..\lvgl\version_6.1.2\lvgl\src\lv_objx\../lv_core/../lv_misc/lv_color.h ****      * The faster integer math for conversion is:
 397:..\..\..\lvgl\version_6.1.2\lvgl\src\lv_objx\../lv_core/../lv_misc/lv_color.h ****      *  valueto = ( valuefrom * multiplier + adder ) >> divisor
 398:..\..\..\lvgl\version_6.1.2\lvgl\src\lv_objx\../lv_core/../lv_misc/lv_color.h ****      *   multiplier = FLOOR( ( (2^bitsto - 1) << divisor ) / (float)(2^bitsfrom - 1) )
 399:..\..\..\lvgl\version_6.1.2\lvgl\src\lv_objx\../lv_core/../lv_misc/lv_color.h ****      * 
 400:..\..\..\lvgl\version_6.1.2\lvgl\src\lv_objx\../lv_core/../lv_misc/lv_color.h ****      * Find the first divisor where ( adder >> divisor ) <= 0
 401:..\..\..\lvgl\version_6.1.2\lvgl\src\lv_objx\../lv_core/../lv_misc/lv_color.h ****      * 
 402:..\..\..\lvgl\version_6.1.2\lvgl\src\lv_objx\../lv_core/../lv_misc/lv_color.h ****      * 5-bit to 8-bit: ( 31 * multiplier + adder ) >> divisor = 255
 403:..\..\..\lvgl\version_6.1.2\lvgl\src\lv_objx\../lv_core/../lv_misc/lv_color.h ****      * divisor  multiplier  adder  min (0)  max (31)
 404:..\..\..\lvgl\version_6.1.2\lvgl\src\lv_objx\../lv_core/../lv_misc/lv_color.h ****      *       0           8      7        7       255
 405:..\..\..\lvgl\version_6.1.2\lvgl\src\lv_objx\../lv_core/../lv_misc/lv_color.h ****      *       1          16     14        7       255
 406:..\..\..\lvgl\version_6.1.2\lvgl\src\lv_objx\../lv_core/../lv_misc/lv_color.h ****      *       2          32     28        7       255
 407:..\..\..\lvgl\version_6.1.2\lvgl\src\lv_objx\../lv_core/../lv_misc/lv_color.h ****      *       3          65     25        3       255
 408:..\..\..\lvgl\version_6.1.2\lvgl\src\lv_objx\../lv_core/../lv_misc/lv_color.h ****      *       4         131     19        1       255
 409:..\..\..\lvgl\version_6.1.2\lvgl\src\lv_objx\../lv_core/../lv_misc/lv_color.h ****      *       5         263      7        0       255
 410:..\..\..\lvgl\version_6.1.2\lvgl\src\lv_objx\../lv_core/../lv_misc/lv_color.h ****      * 
 411:..\..\..\lvgl\version_6.1.2\lvgl\src\lv_objx\../lv_core/../lv_misc/lv_color.h ****      * 6-bit to 8-bit: 255 = ( 63 * multiplier + adder ) >> divisor
 412:..\..\..\lvgl\version_6.1.2\lvgl\src\lv_objx\../lv_core/../lv_misc/lv_color.h ****      * divisor  multiplier  adder  min (0)  max (63)
 413:..\..\..\lvgl\version_6.1.2\lvgl\src\lv_objx\../lv_core/../lv_misc/lv_color.h ****      *       0           4      3        3       255
 414:..\..\..\lvgl\version_6.1.2\lvgl\src\lv_objx\../lv_core/../lv_misc/lv_color.h ****      *       1           8      6        3       255
 415:..\..\..\lvgl\version_6.1.2\lvgl\src\lv_objx\../lv_core/../lv_misc/lv_color.h ****      *       2          16     12        3       255
 416:..\..\..\lvgl\version_6.1.2\lvgl\src\lv_objx\../lv_core/../lv_misc/lv_color.h ****      *       3          32     24        3       255
ARM GAS  C:\Users\tmj32\AppData\Local\Temp\cc11CUDk.s 			page 9


 417:..\..\..\lvgl\version_6.1.2\lvgl\src\lv_objx\../lv_core/../lv_misc/lv_color.h ****      *       4          64     48        3       255
 418:..\..\..\lvgl\version_6.1.2\lvgl\src\lv_objx\../lv_core/../lv_misc/lv_color.h ****      *       5         129     33        1       255
 419:..\..\..\lvgl\version_6.1.2\lvgl\src\lv_objx\../lv_core/../lv_misc/lv_color.h ****      *       6         259      3        0       255
 420:..\..\..\lvgl\version_6.1.2\lvgl\src\lv_objx\../lv_core/../lv_misc/lv_color.h ****      */
 421:..\..\..\lvgl\version_6.1.2\lvgl\src\lv_objx\../lv_core/../lv_misc/lv_color.h ****     lv_color32_t ret;
 422:..\..\..\lvgl\version_6.1.2\lvgl\src\lv_objx\../lv_core/../lv_misc/lv_color.h ****     LV_COLOR_SET_R32(ret, (LV_COLOR_GET_R(color) * 263 + 7 ) >> 5);
 423:..\..\..\lvgl\version_6.1.2\lvgl\src\lv_objx\../lv_core/../lv_misc/lv_color.h ****     LV_COLOR_SET_G32(ret, (LV_COLOR_GET_G(color) * 259 + 3 ) >> 6);
 424:..\..\..\lvgl\version_6.1.2\lvgl\src\lv_objx\../lv_core/../lv_misc/lv_color.h ****     LV_COLOR_SET_B32(ret, (LV_COLOR_GET_B(color) * 263 + 7 ) >> 5);
 425:..\..\..\lvgl\version_6.1.2\lvgl\src\lv_objx\../lv_core/../lv_misc/lv_color.h ****     LV_COLOR_SET_A32(ret, 0xFF);
 426:..\..\..\lvgl\version_6.1.2\lvgl\src\lv_objx\../lv_core/../lv_misc/lv_color.h ****     return ret.full;
 427:..\..\..\lvgl\version_6.1.2\lvgl\src\lv_objx\../lv_core/../lv_misc/lv_color.h **** #elif LV_COLOR_DEPTH == 32
 428:..\..\..\lvgl\version_6.1.2\lvgl\src\lv_objx\../lv_core/../lv_misc/lv_color.h ****     return color.full;
  41              		.loc 1 428 0
  42 0008 7B68     		ldr	r3, [r7, #4]
 429:..\..\..\lvgl\version_6.1.2\lvgl\src\lv_objx\../lv_core/../lv_misc/lv_color.h **** #endif
 430:..\..\..\lvgl\version_6.1.2\lvgl\src\lv_objx\../lv_core/../lv_misc/lv_color.h **** }
  43              		.loc 1 430 0
  44 000a 1846     		mov	r0, r3
  45 000c 0C37     		adds	r7, r7, #12
  46              		.cfi_def_cfa_offset 4
  47 000e BD46     		mov	sp, r7
  48              		.cfi_def_cfa_register 13
  49              		@ sp needed
  50 0010 5DF8047B 		ldr	r7, [sp], #4
  51              		.cfi_restore 7
  52              		.cfi_def_cfa_offset 0
  53 0014 7047     		bx	lr
  54              		.cfi_endproc
  55              	.LFE4:
  56              		.size	lv_color_to32, .-lv_color_to32
  57 0016 00BF     		.section	.text.lv_area_copy,"ax",%progbits
  58              		.align	2
  59              		.thumb
  60              		.thumb_func
  61              		.type	lv_area_copy, %function
  62              	lv_area_copy:
  63              	.LFB10:
  64              		.file 2 "..\\..\\..\\lvgl\\version_6.1.2\\lvgl\\src\\lv_objx\\../lv_core/../lv_misc/lv_area.h"
   1:..\..\..\lvgl\version_6.1.2\lvgl\src\lv_objx\../lv_core/../lv_misc/lv_area.h **** /**
   2:..\..\..\lvgl\version_6.1.2\lvgl\src\lv_objx\../lv_core/../lv_misc/lv_area.h ****  * @file lv_area.h
   3:..\..\..\lvgl\version_6.1.2\lvgl\src\lv_objx\../lv_core/../lv_misc/lv_area.h ****  *
   4:..\..\..\lvgl\version_6.1.2\lvgl\src\lv_objx\../lv_core/../lv_misc/lv_area.h ****  */
   5:..\..\..\lvgl\version_6.1.2\lvgl\src\lv_objx\../lv_core/../lv_misc/lv_area.h **** 
   6:..\..\..\lvgl\version_6.1.2\lvgl\src\lv_objx\../lv_core/../lv_misc/lv_area.h **** #ifndef LV_AREA_H
   7:..\..\..\lvgl\version_6.1.2\lvgl\src\lv_objx\../lv_core/../lv_misc/lv_area.h **** #define LV_AREA_H
   8:..\..\..\lvgl\version_6.1.2\lvgl\src\lv_objx\../lv_core/../lv_misc/lv_area.h **** 
   9:..\..\..\lvgl\version_6.1.2\lvgl\src\lv_objx\../lv_core/../lv_misc/lv_area.h **** #ifdef __cplusplus
  10:..\..\..\lvgl\version_6.1.2\lvgl\src\lv_objx\../lv_core/../lv_misc/lv_area.h **** extern "C" {
  11:..\..\..\lvgl\version_6.1.2\lvgl\src\lv_objx\../lv_core/../lv_misc/lv_area.h **** #endif
  12:..\..\..\lvgl\version_6.1.2\lvgl\src\lv_objx\../lv_core/../lv_misc/lv_area.h **** 
  13:..\..\..\lvgl\version_6.1.2\lvgl\src\lv_objx\../lv_core/../lv_misc/lv_area.h **** /*********************
  14:..\..\..\lvgl\version_6.1.2\lvgl\src\lv_objx\../lv_core/../lv_misc/lv_area.h ****  *      INCLUDES
  15:..\..\..\lvgl\version_6.1.2\lvgl\src\lv_objx\../lv_core/../lv_misc/lv_area.h ****  *********************/
  16:..\..\..\lvgl\version_6.1.2\lvgl\src\lv_objx\../lv_core/../lv_misc/lv_area.h **** #include <string.h>
  17:..\..\..\lvgl\version_6.1.2\lvgl\src\lv_objx\../lv_core/../lv_misc/lv_area.h **** #include <stdbool.h>
  18:..\..\..\lvgl\version_6.1.2\lvgl\src\lv_objx\../lv_core/../lv_misc/lv_area.h **** #include <stdint.h>
  19:..\..\..\lvgl\version_6.1.2\lvgl\src\lv_objx\../lv_core/../lv_misc/lv_area.h **** #ifdef LV_CONF_INCLUDE_SIMPLE
ARM GAS  C:\Users\tmj32\AppData\Local\Temp\cc11CUDk.s 			page 10


  20:..\..\..\lvgl\version_6.1.2\lvgl\src\lv_objx\../lv_core/../lv_misc/lv_area.h **** #include "lv_conf.h"
  21:..\..\..\lvgl\version_6.1.2\lvgl\src\lv_objx\../lv_core/../lv_misc/lv_area.h **** #else
  22:..\..\..\lvgl\version_6.1.2\lvgl\src\lv_objx\../lv_core/../lv_misc/lv_area.h **** #include "../../../lv_conf.h"
  23:..\..\..\lvgl\version_6.1.2\lvgl\src\lv_objx\../lv_core/../lv_misc/lv_area.h **** #endif
  24:..\..\..\lvgl\version_6.1.2\lvgl\src\lv_objx\../lv_core/../lv_misc/lv_area.h **** 
  25:..\..\..\lvgl\version_6.1.2\lvgl\src\lv_objx\../lv_core/../lv_misc/lv_area.h **** /*********************
  26:..\..\..\lvgl\version_6.1.2\lvgl\src\lv_objx\../lv_core/../lv_misc/lv_area.h ****  *      DEFINES
  27:..\..\..\lvgl\version_6.1.2\lvgl\src\lv_objx\../lv_core/../lv_misc/lv_area.h ****  *********************/
  28:..\..\..\lvgl\version_6.1.2\lvgl\src\lv_objx\../lv_core/../lv_misc/lv_area.h **** /*To avoid overflow don't let the max ranges (reduce with 1000) */
  29:..\..\..\lvgl\version_6.1.2\lvgl\src\lv_objx\../lv_core/../lv_misc/lv_area.h **** #define LV_COORD_MAX ((lv_coord_t)((uint32_t)((uint32_t)1 << (8 * sizeof(lv_coord_t) - 1)) - 1000))
  30:..\..\..\lvgl\version_6.1.2\lvgl\src\lv_objx\../lv_core/../lv_misc/lv_area.h **** #define LV_COORD_MIN (-LV_COORD_MAX)
  31:..\..\..\lvgl\version_6.1.2\lvgl\src\lv_objx\../lv_core/../lv_misc/lv_area.h **** 
  32:..\..\..\lvgl\version_6.1.2\lvgl\src\lv_objx\../lv_core/../lv_misc/lv_area.h **** LV_EXPORT_CONST_INT(LV_COORD_MAX);
  33:..\..\..\lvgl\version_6.1.2\lvgl\src\lv_objx\../lv_core/../lv_misc/lv_area.h **** LV_EXPORT_CONST_INT(LV_COORD_MIN);
  34:..\..\..\lvgl\version_6.1.2\lvgl\src\lv_objx\../lv_core/../lv_misc/lv_area.h **** 
  35:..\..\..\lvgl\version_6.1.2\lvgl\src\lv_objx\../lv_core/../lv_misc/lv_area.h **** /**********************
  36:..\..\..\lvgl\version_6.1.2\lvgl\src\lv_objx\../lv_core/../lv_misc/lv_area.h ****  *      TYPEDEFS
  37:..\..\..\lvgl\version_6.1.2\lvgl\src\lv_objx\../lv_core/../lv_misc/lv_area.h ****  **********************/
  38:..\..\..\lvgl\version_6.1.2\lvgl\src\lv_objx\../lv_core/../lv_misc/lv_area.h **** 
  39:..\..\..\lvgl\version_6.1.2\lvgl\src\lv_objx\../lv_core/../lv_misc/lv_area.h **** /**
  40:..\..\..\lvgl\version_6.1.2\lvgl\src\lv_objx\../lv_core/../lv_misc/lv_area.h ****  * Represents a point on the screen.
  41:..\..\..\lvgl\version_6.1.2\lvgl\src\lv_objx\../lv_core/../lv_misc/lv_area.h ****  */
  42:..\..\..\lvgl\version_6.1.2\lvgl\src\lv_objx\../lv_core/../lv_misc/lv_area.h **** typedef struct
  43:..\..\..\lvgl\version_6.1.2\lvgl\src\lv_objx\../lv_core/../lv_misc/lv_area.h **** {
  44:..\..\..\lvgl\version_6.1.2\lvgl\src\lv_objx\../lv_core/../lv_misc/lv_area.h ****     lv_coord_t x;
  45:..\..\..\lvgl\version_6.1.2\lvgl\src\lv_objx\../lv_core/../lv_misc/lv_area.h ****     lv_coord_t y;
  46:..\..\..\lvgl\version_6.1.2\lvgl\src\lv_objx\../lv_core/../lv_misc/lv_area.h **** } lv_point_t;
  47:..\..\..\lvgl\version_6.1.2\lvgl\src\lv_objx\../lv_core/../lv_misc/lv_area.h **** 
  48:..\..\..\lvgl\version_6.1.2\lvgl\src\lv_objx\../lv_core/../lv_misc/lv_area.h **** /** Represents an area of the screen. */
  49:..\..\..\lvgl\version_6.1.2\lvgl\src\lv_objx\../lv_core/../lv_misc/lv_area.h **** typedef struct
  50:..\..\..\lvgl\version_6.1.2\lvgl\src\lv_objx\../lv_core/../lv_misc/lv_area.h **** {
  51:..\..\..\lvgl\version_6.1.2\lvgl\src\lv_objx\../lv_core/../lv_misc/lv_area.h ****     lv_coord_t x1;
  52:..\..\..\lvgl\version_6.1.2\lvgl\src\lv_objx\../lv_core/../lv_misc/lv_area.h ****     lv_coord_t y1;
  53:..\..\..\lvgl\version_6.1.2\lvgl\src\lv_objx\../lv_core/../lv_misc/lv_area.h ****     lv_coord_t x2;
  54:..\..\..\lvgl\version_6.1.2\lvgl\src\lv_objx\../lv_core/../lv_misc/lv_area.h ****     lv_coord_t y2;
  55:..\..\..\lvgl\version_6.1.2\lvgl\src\lv_objx\../lv_core/../lv_misc/lv_area.h **** } lv_area_t;
  56:..\..\..\lvgl\version_6.1.2\lvgl\src\lv_objx\../lv_core/../lv_misc/lv_area.h **** 
  57:..\..\..\lvgl\version_6.1.2\lvgl\src\lv_objx\../lv_core/../lv_misc/lv_area.h **** /**********************
  58:..\..\..\lvgl\version_6.1.2\lvgl\src\lv_objx\../lv_core/../lv_misc/lv_area.h ****  * GLOBAL PROTOTYPES
  59:..\..\..\lvgl\version_6.1.2\lvgl\src\lv_objx\../lv_core/../lv_misc/lv_area.h ****  **********************/
  60:..\..\..\lvgl\version_6.1.2\lvgl\src\lv_objx\../lv_core/../lv_misc/lv_area.h **** 
  61:..\..\..\lvgl\version_6.1.2\lvgl\src\lv_objx\../lv_core/../lv_misc/lv_area.h **** /**
  62:..\..\..\lvgl\version_6.1.2\lvgl\src\lv_objx\../lv_core/../lv_misc/lv_area.h ****  * Initialize an area
  63:..\..\..\lvgl\version_6.1.2\lvgl\src\lv_objx\../lv_core/../lv_misc/lv_area.h ****  * @param area_p pointer to an area
  64:..\..\..\lvgl\version_6.1.2\lvgl\src\lv_objx\../lv_core/../lv_misc/lv_area.h ****  * @param x1 left coordinate of the area
  65:..\..\..\lvgl\version_6.1.2\lvgl\src\lv_objx\../lv_core/../lv_misc/lv_area.h ****  * @param y1 top coordinate of the area
  66:..\..\..\lvgl\version_6.1.2\lvgl\src\lv_objx\../lv_core/../lv_misc/lv_area.h ****  * @param x2 right coordinate of the area
  67:..\..\..\lvgl\version_6.1.2\lvgl\src\lv_objx\../lv_core/../lv_misc/lv_area.h ****  * @param y2 bottom coordinate of the area
  68:..\..\..\lvgl\version_6.1.2\lvgl\src\lv_objx\../lv_core/../lv_misc/lv_area.h ****  */
  69:..\..\..\lvgl\version_6.1.2\lvgl\src\lv_objx\../lv_core/../lv_misc/lv_area.h **** void lv_area_set(lv_area_t * area_p, lv_coord_t x1, lv_coord_t y1, lv_coord_t x2, lv_coord_t y2);
  70:..\..\..\lvgl\version_6.1.2\lvgl\src\lv_objx\../lv_core/../lv_misc/lv_area.h **** 
  71:..\..\..\lvgl\version_6.1.2\lvgl\src\lv_objx\../lv_core/../lv_misc/lv_area.h **** /**
  72:..\..\..\lvgl\version_6.1.2\lvgl\src\lv_objx\../lv_core/../lv_misc/lv_area.h ****  * Copy an area
  73:..\..\..\lvgl\version_6.1.2\lvgl\src\lv_objx\../lv_core/../lv_misc/lv_area.h ****  * @param dest pointer to the destination area
  74:..\..\..\lvgl\version_6.1.2\lvgl\src\lv_objx\../lv_core/../lv_misc/lv_area.h ****  * @param src pointer to the source area
  75:..\..\..\lvgl\version_6.1.2\lvgl\src\lv_objx\../lv_core/../lv_misc/lv_area.h ****  */
  76:..\..\..\lvgl\version_6.1.2\lvgl\src\lv_objx\../lv_core/../lv_misc/lv_area.h **** inline static void lv_area_copy(lv_area_t * dest, const lv_area_t * src)
ARM GAS  C:\Users\tmj32\AppData\Local\Temp\cc11CUDk.s 			page 11


  77:..\..\..\lvgl\version_6.1.2\lvgl\src\lv_objx\../lv_core/../lv_misc/lv_area.h **** {
  65              		.loc 2 77 0
  66              		.cfi_startproc
  67              		@ args = 0, pretend = 0, frame = 8
  68              		@ frame_needed = 1, uses_anonymous_args = 0
  69 0000 80B5     		push	{r7, lr}
  70              		.cfi_def_cfa_offset 8
  71              		.cfi_offset 7, -8
  72              		.cfi_offset 14, -4
  73 0002 82B0     		sub	sp, sp, #8
  74              		.cfi_def_cfa_offset 16
  75 0004 00AF     		add	r7, sp, #0
  76              		.cfi_def_cfa_register 7
  77 0006 7860     		str	r0, [r7, #4]
  78 0008 3960     		str	r1, [r7]
  78:..\..\..\lvgl\version_6.1.2\lvgl\src\lv_objx\../lv_core/../lv_misc/lv_area.h ****     memcpy(dest, src, sizeof(lv_area_t));
  79              		.loc 2 78 0
  80 000a 0822     		movs	r2, #8
  81 000c 3968     		ldr	r1, [r7]
  82 000e 7868     		ldr	r0, [r7, #4]
  83 0010 FFF7FEFF 		bl	memcpy
  79:..\..\..\lvgl\version_6.1.2\lvgl\src\lv_objx\../lv_core/../lv_misc/lv_area.h **** }
  84              		.loc 2 79 0
  85 0014 00BF     		nop
  86 0016 0837     		adds	r7, r7, #8
  87              		.cfi_def_cfa_offset 8
  88 0018 BD46     		mov	sp, r7
  89              		.cfi_def_cfa_register 13
  90              		@ sp needed
  91 001a 80BD     		pop	{r7, pc}
  92              		.cfi_endproc
  93              	.LFE10:
  94              		.size	lv_area_copy, .-lv_area_copy
  95              		.section	.text.lv_area_get_width,"ax",%progbits
  96              		.align	2
  97              		.thumb
  98              		.thumb_func
  99              		.type	lv_area_get_width, %function
 100              	lv_area_get_width:
 101              	.LFB11:
  80:..\..\..\lvgl\version_6.1.2\lvgl\src\lv_objx\../lv_core/../lv_misc/lv_area.h **** 
  81:..\..\..\lvgl\version_6.1.2\lvgl\src\lv_objx\../lv_core/../lv_misc/lv_area.h **** /**
  82:..\..\..\lvgl\version_6.1.2\lvgl\src\lv_objx\../lv_core/../lv_misc/lv_area.h ****  * Get the width of an area
  83:..\..\..\lvgl\version_6.1.2\lvgl\src\lv_objx\../lv_core/../lv_misc/lv_area.h ****  * @param area_p pointer to an area
  84:..\..\..\lvgl\version_6.1.2\lvgl\src\lv_objx\../lv_core/../lv_misc/lv_area.h ****  * @return the width of the area (if x1 == x2 -> width = 1)
  85:..\..\..\lvgl\version_6.1.2\lvgl\src\lv_objx\../lv_core/../lv_misc/lv_area.h ****  */
  86:..\..\..\lvgl\version_6.1.2\lvgl\src\lv_objx\../lv_core/../lv_misc/lv_area.h **** static inline lv_coord_t lv_area_get_width(const lv_area_t * area_p)
  87:..\..\..\lvgl\version_6.1.2\lvgl\src\lv_objx\../lv_core/../lv_misc/lv_area.h **** {
 102              		.loc 2 87 0
 103              		.cfi_startproc
 104              		@ args = 0, pretend = 0, frame = 8
 105              		@ frame_needed = 1, uses_anonymous_args = 0
 106              		@ link register save eliminated.
 107 0000 80B4     		push	{r7}
 108              		.cfi_def_cfa_offset 4
 109              		.cfi_offset 7, -4
 110 0002 83B0     		sub	sp, sp, #12
ARM GAS  C:\Users\tmj32\AppData\Local\Temp\cc11CUDk.s 			page 12


 111              		.cfi_def_cfa_offset 16
 112 0004 00AF     		add	r7, sp, #0
 113              		.cfi_def_cfa_register 7
 114 0006 7860     		str	r0, [r7, #4]
  88:..\..\..\lvgl\version_6.1.2\lvgl\src\lv_objx\../lv_core/../lv_misc/lv_area.h ****     return (lv_coord_t)(area_p->x2 - area_p->x1 + 1);
 115              		.loc 2 88 0
 116 0008 7B68     		ldr	r3, [r7, #4]
 117 000a B3F90430 		ldrsh	r3, [r3, #4]
 118 000e 9AB2     		uxth	r2, r3
 119 0010 7B68     		ldr	r3, [r7, #4]
 120 0012 B3F90030 		ldrsh	r3, [r3]
 121 0016 9BB2     		uxth	r3, r3
 122 0018 D31A     		subs	r3, r2, r3
 123 001a 9BB2     		uxth	r3, r3
 124 001c 0133     		adds	r3, r3, #1
 125 001e 9BB2     		uxth	r3, r3
 126 0020 1BB2     		sxth	r3, r3
  89:..\..\..\lvgl\version_6.1.2\lvgl\src\lv_objx\../lv_core/../lv_misc/lv_area.h **** }
 127              		.loc 2 89 0
 128 0022 1846     		mov	r0, r3
 129 0024 0C37     		adds	r7, r7, #12
 130              		.cfi_def_cfa_offset 4
 131 0026 BD46     		mov	sp, r7
 132              		.cfi_def_cfa_register 13
 133              		@ sp needed
 134 0028 5DF8047B 		ldr	r7, [sp], #4
 135              		.cfi_restore 7
 136              		.cfi_def_cfa_offset 0
 137 002c 7047     		bx	lr
 138              		.cfi_endproc
 139              	.LFE11:
 140              		.size	lv_area_get_width, .-lv_area_get_width
 141 002e 00BF     		.section	.text.lv_area_get_height,"ax",%progbits
 142              		.align	2
 143              		.thumb
 144              		.thumb_func
 145              		.type	lv_area_get_height, %function
 146              	lv_area_get_height:
 147              	.LFB12:
  90:..\..\..\lvgl\version_6.1.2\lvgl\src\lv_objx\../lv_core/../lv_misc/lv_area.h **** 
  91:..\..\..\lvgl\version_6.1.2\lvgl\src\lv_objx\../lv_core/../lv_misc/lv_area.h **** /**
  92:..\..\..\lvgl\version_6.1.2\lvgl\src\lv_objx\../lv_core/../lv_misc/lv_area.h ****  * Get the height of an area
  93:..\..\..\lvgl\version_6.1.2\lvgl\src\lv_objx\../lv_core/../lv_misc/lv_area.h ****  * @param area_p pointer to an area
  94:..\..\..\lvgl\version_6.1.2\lvgl\src\lv_objx\../lv_core/../lv_misc/lv_area.h ****  * @return the height of the area (if y1 == y2 -> height = 1)
  95:..\..\..\lvgl\version_6.1.2\lvgl\src\lv_objx\../lv_core/../lv_misc/lv_area.h ****  */
  96:..\..\..\lvgl\version_6.1.2\lvgl\src\lv_objx\../lv_core/../lv_misc/lv_area.h **** static inline lv_coord_t lv_area_get_height(const lv_area_t * area_p)
  97:..\..\..\lvgl\version_6.1.2\lvgl\src\lv_objx\../lv_core/../lv_misc/lv_area.h **** {
 148              		.loc 2 97 0
 149              		.cfi_startproc
 150              		@ args = 0, pretend = 0, frame = 8
 151              		@ frame_needed = 1, uses_anonymous_args = 0
 152              		@ link register save eliminated.
 153 0000 80B4     		push	{r7}
 154              		.cfi_def_cfa_offset 4
 155              		.cfi_offset 7, -4
 156 0002 83B0     		sub	sp, sp, #12
 157              		.cfi_def_cfa_offset 16
ARM GAS  C:\Users\tmj32\AppData\Local\Temp\cc11CUDk.s 			page 13


 158 0004 00AF     		add	r7, sp, #0
 159              		.cfi_def_cfa_register 7
 160 0006 7860     		str	r0, [r7, #4]
  98:..\..\..\lvgl\version_6.1.2\lvgl\src\lv_objx\../lv_core/../lv_misc/lv_area.h ****     return (lv_coord_t)(area_p->y2 - area_p->y1 + 1);
 161              		.loc 2 98 0
 162 0008 7B68     		ldr	r3, [r7, #4]
 163 000a B3F90630 		ldrsh	r3, [r3, #6]
 164 000e 9AB2     		uxth	r2, r3
 165 0010 7B68     		ldr	r3, [r7, #4]
 166 0012 B3F90230 		ldrsh	r3, [r3, #2]
 167 0016 9BB2     		uxth	r3, r3
 168 0018 D31A     		subs	r3, r2, r3
 169 001a 9BB2     		uxth	r3, r3
 170 001c 0133     		adds	r3, r3, #1
 171 001e 9BB2     		uxth	r3, r3
 172 0020 1BB2     		sxth	r3, r3
  99:..\..\..\lvgl\version_6.1.2\lvgl\src\lv_objx\../lv_core/../lv_misc/lv_area.h **** }
 173              		.loc 2 99 0
 174 0022 1846     		mov	r0, r3
 175 0024 0C37     		adds	r7, r7, #12
 176              		.cfi_def_cfa_offset 4
 177 0026 BD46     		mov	sp, r7
 178              		.cfi_def_cfa_register 13
 179              		@ sp needed
 180 0028 5DF8047B 		ldr	r7, [sp], #4
 181              		.cfi_restore 7
 182              		.cfi_def_cfa_offset 0
 183 002c 7047     		bx	lr
 184              		.cfi_endproc
 185              	.LFE12:
 186              		.size	lv_area_get_height, .-lv_area_get_height
 187 002e 00BF     		.bss
 188              		.align	2
 189              	ancestor_signal:
 190 0000 00000000 		.space	4
 191              		.align	2
 192              	ancestor_design:
 193 0004 00000000 		.space	4
 194              		.section	.rodata
 195              		.align	2
 196              	.LC0:
 197 0000 0000     		.short	0
 198 0002 64       		.byte	100
 199 0003 64       		.byte	100
 200              		.section	.text.lv_cpicker_create,"ax",%progbits
 201              		.align	2
 202              		.global	lv_cpicker_create
 203              		.thumb
 204              		.thumb_func
 205              		.type	lv_cpicker_create, %function
 206              	lv_cpicker_create:
 207              	.LFB31:
 208              		.file 3 "..\\..\\..\\lvgl\\version_6.1.2\\lvgl\\src\\lv_objx\\lv_cpicker.c"
   1:..\..\..\lvgl\version_6.1.2\lvgl\src\lv_objx/lv_cpicker.c **** /**
   2:..\..\..\lvgl\version_6.1.2\lvgl\src\lv_objx/lv_cpicker.c ****  * @file lv_cpicker.c
   3:..\..\..\lvgl\version_6.1.2\lvgl\src\lv_objx/lv_cpicker.c ****  *
   4:..\..\..\lvgl\version_6.1.2\lvgl\src\lv_objx/lv_cpicker.c ****  * From @AloyseTech and @paulpv.
ARM GAS  C:\Users\tmj32\AppData\Local\Temp\cc11CUDk.s 			page 14


   5:..\..\..\lvgl\version_6.1.2\lvgl\src\lv_objx/lv_cpicker.c ****  */
   6:..\..\..\lvgl\version_6.1.2\lvgl\src\lv_objx/lv_cpicker.c **** 
   7:..\..\..\lvgl\version_6.1.2\lvgl\src\lv_objx/lv_cpicker.c **** /*********************
   8:..\..\..\lvgl\version_6.1.2\lvgl\src\lv_objx/lv_cpicker.c ****  *      INCLUDES
   9:..\..\..\lvgl\version_6.1.2\lvgl\src\lv_objx/lv_cpicker.c ****  *********************/
  10:..\..\..\lvgl\version_6.1.2\lvgl\src\lv_objx/lv_cpicker.c **** #include "lv_cpicker.h"
  11:..\..\..\lvgl\version_6.1.2\lvgl\src\lv_objx/lv_cpicker.c **** #if LV_USE_CPICKER != 0
  12:..\..\..\lvgl\version_6.1.2\lvgl\src\lv_objx/lv_cpicker.c **** 
  13:..\..\..\lvgl\version_6.1.2\lvgl\src\lv_objx/lv_cpicker.c **** #include "../lv_core/lv_debug.h"
  14:..\..\..\lvgl\version_6.1.2\lvgl\src\lv_objx/lv_cpicker.c **** #include "../lv_draw/lv_draw_arc.h"
  15:..\..\..\lvgl\version_6.1.2\lvgl\src\lv_objx/lv_cpicker.c **** #include "../lv_themes/lv_theme.h"
  16:..\..\..\lvgl\version_6.1.2\lvgl\src\lv_objx/lv_cpicker.c **** #include "../lv_core/lv_indev.h"
  17:..\..\..\lvgl\version_6.1.2\lvgl\src\lv_objx/lv_cpicker.c **** #include "../lv_core/lv_refr.h"
  18:..\..\..\lvgl\version_6.1.2\lvgl\src\lv_objx/lv_cpicker.c **** #include "../lv_misc/lv_math.h"
  19:..\..\..\lvgl\version_6.1.2\lvgl\src\lv_objx/lv_cpicker.c **** 
  20:..\..\..\lvgl\version_6.1.2\lvgl\src\lv_objx/lv_cpicker.c **** /*********************
  21:..\..\..\lvgl\version_6.1.2\lvgl\src\lv_objx/lv_cpicker.c ****  *      DEFINES
  22:..\..\..\lvgl\version_6.1.2\lvgl\src\lv_objx/lv_cpicker.c ****  *********************/
  23:..\..\..\lvgl\version_6.1.2\lvgl\src\lv_objx/lv_cpicker.c **** #define LV_OBJX_NAME "lv_cpicker"
  24:..\..\..\lvgl\version_6.1.2\lvgl\src\lv_objx/lv_cpicker.c **** 
  25:..\..\..\lvgl\version_6.1.2\lvgl\src\lv_objx/lv_cpicker.c **** #ifndef LV_CPICKER_DEF_TYPE
  26:..\..\..\lvgl\version_6.1.2\lvgl\src\lv_objx/lv_cpicker.c **** #define LV_CPICKER_DEF_TYPE LV_CPICKER_TYPE_DISC
  27:..\..\..\lvgl\version_6.1.2\lvgl\src\lv_objx/lv_cpicker.c **** #endif
  28:..\..\..\lvgl\version_6.1.2\lvgl\src\lv_objx/lv_cpicker.c **** 
  29:..\..\..\lvgl\version_6.1.2\lvgl\src\lv_objx/lv_cpicker.c **** #ifndef LV_CPICKER_DEF_HUE
  30:..\..\..\lvgl\version_6.1.2\lvgl\src\lv_objx/lv_cpicker.c **** #define LV_CPICKER_DEF_HUE 0
  31:..\..\..\lvgl\version_6.1.2\lvgl\src\lv_objx/lv_cpicker.c **** #endif
  32:..\..\..\lvgl\version_6.1.2\lvgl\src\lv_objx/lv_cpicker.c **** 
  33:..\..\..\lvgl\version_6.1.2\lvgl\src\lv_objx/lv_cpicker.c **** #ifndef LV_CPICKER_DEF_SATURATION
  34:..\..\..\lvgl\version_6.1.2\lvgl\src\lv_objx/lv_cpicker.c **** #define LV_CPICKER_DEF_SATURATION 100
  35:..\..\..\lvgl\version_6.1.2\lvgl\src\lv_objx/lv_cpicker.c **** #endif
  36:..\..\..\lvgl\version_6.1.2\lvgl\src\lv_objx/lv_cpicker.c **** 
  37:..\..\..\lvgl\version_6.1.2\lvgl\src\lv_objx/lv_cpicker.c **** #ifndef LV_CPICKER_DEF_VALUE
  38:..\..\..\lvgl\version_6.1.2\lvgl\src\lv_objx/lv_cpicker.c **** #define LV_CPICKER_DEF_VALUE 100
  39:..\..\..\lvgl\version_6.1.2\lvgl\src\lv_objx/lv_cpicker.c **** #endif
  40:..\..\..\lvgl\version_6.1.2\lvgl\src\lv_objx/lv_cpicker.c **** 
  41:..\..\..\lvgl\version_6.1.2\lvgl\src\lv_objx/lv_cpicker.c **** #ifndef LV_CPICKER_DEF_HSV
  42:..\..\..\lvgl\version_6.1.2\lvgl\src\lv_objx/lv_cpicker.c **** #define LV_CPICKER_DEF_HSV ((lv_color_hsv_t){LV_CPICKER_DEF_HUE, LV_CPICKER_DEF_SATURATION, LV_CPIC
  43:..\..\..\lvgl\version_6.1.2\lvgl\src\lv_objx/lv_cpicker.c **** #endif
  44:..\..\..\lvgl\version_6.1.2\lvgl\src\lv_objx/lv_cpicker.c **** 
  45:..\..\..\lvgl\version_6.1.2\lvgl\src\lv_objx/lv_cpicker.c **** #ifndef LV_CPICKER_DEF_QF /*quantization factor*/
  46:..\..\..\lvgl\version_6.1.2\lvgl\src\lv_objx/lv_cpicker.c **** #define LV_CPICKER_DEF_QF 3
  47:..\..\..\lvgl\version_6.1.2\lvgl\src\lv_objx/lv_cpicker.c **** #endif
  48:..\..\..\lvgl\version_6.1.2\lvgl\src\lv_objx/lv_cpicker.c **** 
  49:..\..\..\lvgl\version_6.1.2\lvgl\src\lv_objx/lv_cpicker.c **** #define TRI_OFFSET 2
  50:..\..\..\lvgl\version_6.1.2\lvgl\src\lv_objx/lv_cpicker.c **** 
  51:..\..\..\lvgl\version_6.1.2\lvgl\src\lv_objx/lv_cpicker.c **** /**********************
  52:..\..\..\lvgl\version_6.1.2\lvgl\src\lv_objx/lv_cpicker.c ****  *      TYPEDEFS
  53:..\..\..\lvgl\version_6.1.2\lvgl\src\lv_objx/lv_cpicker.c ****  **********************/
  54:..\..\..\lvgl\version_6.1.2\lvgl\src\lv_objx/lv_cpicker.c **** 
  55:..\..\..\lvgl\version_6.1.2\lvgl\src\lv_objx/lv_cpicker.c **** /**********************
  56:..\..\..\lvgl\version_6.1.2\lvgl\src\lv_objx/lv_cpicker.c ****  *  STATIC PROTOTYPES
  57:..\..\..\lvgl\version_6.1.2\lvgl\src\lv_objx/lv_cpicker.c ****  **********************/
  58:..\..\..\lvgl\version_6.1.2\lvgl\src\lv_objx/lv_cpicker.c **** static bool lv_cpicker_design(lv_obj_t * cpicker, const lv_area_t * mask, lv_design_mode_t mode);
  59:..\..\..\lvgl\version_6.1.2\lvgl\src\lv_objx/lv_cpicker.c **** static lv_res_t lv_cpicker_signal(lv_obj_t * cpicker, lv_signal_t sign, void * param);
  60:..\..\..\lvgl\version_6.1.2\lvgl\src\lv_objx/lv_cpicker.c **** 
  61:..\..\..\lvgl\version_6.1.2\lvgl\src\lv_objx/lv_cpicker.c **** static void draw_rect_grad(lv_obj_t * cpicker, const lv_area_t * mask, lv_opa_t opa_scale);
ARM GAS  C:\Users\tmj32\AppData\Local\Temp\cc11CUDk.s 			page 15


  62:..\..\..\lvgl\version_6.1.2\lvgl\src\lv_objx/lv_cpicker.c **** static void draw_disc_grad(lv_obj_t * cpicker, const lv_area_t * mask, lv_opa_t opa_scale);
  63:..\..\..\lvgl\version_6.1.2\lvgl\src\lv_objx/lv_cpicker.c **** static void draw_indic(lv_obj_t * cpicker, const lv_area_t * mask, lv_opa_t opa_scale);
  64:..\..\..\lvgl\version_6.1.2\lvgl\src\lv_objx/lv_cpicker.c **** static void invalidate_indic(lv_obj_t * cpicker);
  65:..\..\..\lvgl\version_6.1.2\lvgl\src\lv_objx/lv_cpicker.c **** static lv_area_t get_indic_area(lv_obj_t * cpicker);
  66:..\..\..\lvgl\version_6.1.2\lvgl\src\lv_objx/lv_cpicker.c **** 
  67:..\..\..\lvgl\version_6.1.2\lvgl\src\lv_objx/lv_cpicker.c **** static void next_color_mode(lv_obj_t * cpicker);
  68:..\..\..\lvgl\version_6.1.2\lvgl\src\lv_objx/lv_cpicker.c **** static lv_res_t double_click_reset(lv_obj_t * cpicker);
  69:..\..\..\lvgl\version_6.1.2\lvgl\src\lv_objx/lv_cpicker.c **** static void refr_indic_pos(lv_obj_t * cpicker);
  70:..\..\..\lvgl\version_6.1.2\lvgl\src\lv_objx/lv_cpicker.c **** static lv_color_t angle_to_mode_color(lv_obj_t * cpicker, uint16_t angle);
  71:..\..\..\lvgl\version_6.1.2\lvgl\src\lv_objx/lv_cpicker.c **** static uint16_t get_angle(lv_obj_t * cpicker);
  72:..\..\..\lvgl\version_6.1.2\lvgl\src\lv_objx/lv_cpicker.c **** 
  73:..\..\..\lvgl\version_6.1.2\lvgl\src\lv_objx/lv_cpicker.c **** /**********************
  74:..\..\..\lvgl\version_6.1.2\lvgl\src\lv_objx/lv_cpicker.c ****  *  STATIC VARIABLES
  75:..\..\..\lvgl\version_6.1.2\lvgl\src\lv_objx/lv_cpicker.c ****  **********************/
  76:..\..\..\lvgl\version_6.1.2\lvgl\src\lv_objx/lv_cpicker.c **** static lv_signal_cb_t ancestor_signal;
  77:..\..\..\lvgl\version_6.1.2\lvgl\src\lv_objx/lv_cpicker.c **** static lv_design_cb_t ancestor_design;
  78:..\..\..\lvgl\version_6.1.2\lvgl\src\lv_objx/lv_cpicker.c **** 
  79:..\..\..\lvgl\version_6.1.2\lvgl\src\lv_objx/lv_cpicker.c **** /**********************
  80:..\..\..\lvgl\version_6.1.2\lvgl\src\lv_objx/lv_cpicker.c ****  *      MACROS
  81:..\..\..\lvgl\version_6.1.2\lvgl\src\lv_objx/lv_cpicker.c ****  **********************/
  82:..\..\..\lvgl\version_6.1.2\lvgl\src\lv_objx/lv_cpicker.c **** 
  83:..\..\..\lvgl\version_6.1.2\lvgl\src\lv_objx/lv_cpicker.c **** /**********************
  84:..\..\..\lvgl\version_6.1.2\lvgl\src\lv_objx/lv_cpicker.c ****  *   GLOBAL FUNCTIONS
  85:..\..\..\lvgl\version_6.1.2\lvgl\src\lv_objx/lv_cpicker.c ****  **********************/
  86:..\..\..\lvgl\version_6.1.2\lvgl\src\lv_objx/lv_cpicker.c **** 
  87:..\..\..\lvgl\version_6.1.2\lvgl\src\lv_objx/lv_cpicker.c **** /**
  88:..\..\..\lvgl\version_6.1.2\lvgl\src\lv_objx/lv_cpicker.c ****  * Create a color_picker object
  89:..\..\..\lvgl\version_6.1.2\lvgl\src\lv_objx/lv_cpicker.c ****  * @param par pointer to an object, it will be the parent of the new color_picker
  90:..\..\..\lvgl\version_6.1.2\lvgl\src\lv_objx/lv_cpicker.c ****  * @param copy pointer to a color_picker object, if not NULL then the new object will be copied fro
  91:..\..\..\lvgl\version_6.1.2\lvgl\src\lv_objx/lv_cpicker.c ****  * @return pointer to the created color_picker
  92:..\..\..\lvgl\version_6.1.2\lvgl\src\lv_objx/lv_cpicker.c ****  */
  93:..\..\..\lvgl\version_6.1.2\lvgl\src\lv_objx/lv_cpicker.c **** lv_obj_t * lv_cpicker_create(lv_obj_t * par, const lv_obj_t * copy)
  94:..\..\..\lvgl\version_6.1.2\lvgl\src\lv_objx/lv_cpicker.c **** {
 209              		.loc 3 94 0
 210              		.cfi_startproc
 211              		@ args = 0, pretend = 0, frame = 24
 212              		@ frame_needed = 1, uses_anonymous_args = 0
 213 0000 80B5     		push	{r7, lr}
 214              		.cfi_def_cfa_offset 8
 215              		.cfi_offset 7, -8
 216              		.cfi_offset 14, -4
 217 0002 86B0     		sub	sp, sp, #24
 218              		.cfi_def_cfa_offset 32
 219 0004 00AF     		add	r7, sp, #0
 220              		.cfi_def_cfa_register 7
 221 0006 7860     		str	r0, [r7, #4]
 222 0008 3960     		str	r1, [r7]
  95:..\..\..\lvgl\version_6.1.2\lvgl\src\lv_objx/lv_cpicker.c ****     LV_LOG_TRACE("color_picker create started");
  96:..\..\..\lvgl\version_6.1.2\lvgl\src\lv_objx/lv_cpicker.c **** 
  97:..\..\..\lvgl\version_6.1.2\lvgl\src\lv_objx/lv_cpicker.c ****     lv_obj_t * new_cpicker = lv_obj_create(par, copy);
 223              		.loc 3 97 0
 224 000a 3968     		ldr	r1, [r7]
 225 000c 7868     		ldr	r0, [r7, #4]
 226 000e FFF7FEFF 		bl	lv_obj_create
 227 0012 7861     		str	r0, [r7, #20]
  98:..\..\..\lvgl\version_6.1.2\lvgl\src\lv_objx/lv_cpicker.c ****     LV_ASSERT_MEM(new_cpicker);
  99:..\..\..\lvgl\version_6.1.2\lvgl\src\lv_objx/lv_cpicker.c ****     if(new_cpicker == NULL) return NULL;
ARM GAS  C:\Users\tmj32\AppData\Local\Temp\cc11CUDk.s 			page 16


 228              		.loc 3 99 0
 229 0014 7B69     		ldr	r3, [r7, #20]
 230 0016 002B     		cmp	r3, #0
 231 0018 01D1     		bne	.L9
 232              		.loc 3 99 0 is_stmt 0 discriminator 1
 233 001a 0023     		movs	r3, #0
 234 001c B2E0     		b	.L10
 235              	.L9:
 100:..\..\..\lvgl\version_6.1.2\lvgl\src\lv_objx/lv_cpicker.c **** 
 101:..\..\..\lvgl\version_6.1.2\lvgl\src\lv_objx/lv_cpicker.c ****     if(ancestor_signal == NULL) ancestor_signal = lv_obj_get_signal_cb(new_cpicker);
 236              		.loc 3 101 0 is_stmt 1
 237 001e 5B4B     		ldr	r3, .L18
 238 0020 1B68     		ldr	r3, [r3]
 239 0022 002B     		cmp	r3, #0
 240 0024 05D1     		bne	.L11
 241              		.loc 3 101 0 is_stmt 0 discriminator 1
 242 0026 7869     		ldr	r0, [r7, #20]
 243 0028 FFF7FEFF 		bl	lv_obj_get_signal_cb
 244 002c 0246     		mov	r2, r0
 245 002e 574B     		ldr	r3, .L18
 246 0030 1A60     		str	r2, [r3]
 247              	.L11:
 102:..\..\..\lvgl\version_6.1.2\lvgl\src\lv_objx/lv_cpicker.c ****     if(ancestor_design == NULL) ancestor_design = lv_obj_get_design_cb(new_cpicker);
 248              		.loc 3 102 0 is_stmt 1
 249 0032 574B     		ldr	r3, .L18+4
 250 0034 1B68     		ldr	r3, [r3]
 251 0036 002B     		cmp	r3, #0
 252 0038 05D1     		bne	.L12
 253              		.loc 3 102 0 is_stmt 0 discriminator 1
 254 003a 7869     		ldr	r0, [r7, #20]
 255 003c FFF7FEFF 		bl	lv_obj_get_design_cb
 256 0040 0246     		mov	r2, r0
 257 0042 534B     		ldr	r3, .L18+4
 258 0044 1A60     		str	r2, [r3]
 259              	.L12:
 103:..\..\..\lvgl\version_6.1.2\lvgl\src\lv_objx/lv_cpicker.c **** 
 104:..\..\..\lvgl\version_6.1.2\lvgl\src\lv_objx/lv_cpicker.c ****     /*Allocate the extended data*/
 105:..\..\..\lvgl\version_6.1.2\lvgl\src\lv_objx/lv_cpicker.c ****     lv_cpicker_ext_t * ext = lv_obj_allocate_ext_attr(new_cpicker, sizeof(lv_cpicker_ext_t));
 260              		.loc 3 105 0 is_stmt 1
 261 0046 2021     		movs	r1, #32
 262 0048 7869     		ldr	r0, [r7, #20]
 263 004a FFF7FEFF 		bl	lv_obj_allocate_ext_attr
 264 004e 3861     		str	r0, [r7, #16]
 106:..\..\..\lvgl\version_6.1.2\lvgl\src\lv_objx/lv_cpicker.c ****     LV_ASSERT_MEM(ext);
 107:..\..\..\lvgl\version_6.1.2\lvgl\src\lv_objx/lv_cpicker.c ****     if(ext == NULL) return NULL;
 265              		.loc 3 107 0
 266 0050 3B69     		ldr	r3, [r7, #16]
 267 0052 002B     		cmp	r3, #0
 268 0054 01D1     		bne	.L13
 269              		.loc 3 107 0 is_stmt 0 discriminator 1
 270 0056 0023     		movs	r3, #0
 271 0058 94E0     		b	.L10
 272              	.L13:
 108:..\..\..\lvgl\version_6.1.2\lvgl\src\lv_objx/lv_cpicker.c **** 
 109:..\..\..\lvgl\version_6.1.2\lvgl\src\lv_objx/lv_cpicker.c ****     /*Initialize the allocated 'ext' */
 110:..\..\..\lvgl\version_6.1.2\lvgl\src\lv_objx/lv_cpicker.c ****     ext->type = LV_CPICKER_DEF_TYPE;
 273              		.loc 3 110 0 is_stmt 1
ARM GAS  C:\Users\tmj32\AppData\Local\Temp\cc11CUDk.s 			page 17


 274 005a 3A69     		ldr	r2, [r7, #16]
 275 005c 137F     		ldrb	r3, [r2, #28]
 276 005e 43F00803 		orr	r3, r3, #8
 277 0062 1377     		strb	r3, [r2, #28]
 111:..\..\..\lvgl\version_6.1.2\lvgl\src\lv_objx/lv_cpicker.c ****     ext->hsv = LV_CPICKER_DEF_HSV;
 278              		.loc 3 111 0
 279 0064 3B69     		ldr	r3, [r7, #16]
 280 0066 4B4A     		ldr	r2, .L18+8
 281 0068 1068     		ldr	r0, [r2]	@ unaligned
 282 006a 1860     		str	r0, [r3]	@ unaligned
 112:..\..\..\lvgl\version_6.1.2\lvgl\src\lv_objx/lv_cpicker.c ****     ext->indic.style = &lv_style_plain;
 283              		.loc 3 112 0
 284 006c 3B69     		ldr	r3, [r7, #16]
 285 006e 4A4A     		ldr	r2, .L18+12
 286 0070 5A60     		str	r2, [r3, #4]
 113:..\..\..\lvgl\version_6.1.2\lvgl\src\lv_objx/lv_cpicker.c ****     ext->indic.colored = 0;
 287              		.loc 3 113 0
 288 0072 3A69     		ldr	r2, [r7, #16]
 289 0074 137B     		ldrb	r3, [r2, #12]
 290 0076 6FF30003 		bfc	r3, #0, #1
 291 007a 1373     		strb	r3, [r2, #12]
 114:..\..\..\lvgl\version_6.1.2\lvgl\src\lv_objx/lv_cpicker.c ****     ext->color_mode = LV_CPICKER_COLOR_MODE_HUE;
 292              		.loc 3 114 0
 293 007c 3A69     		ldr	r2, [r7, #16]
 294 007e 137F     		ldrb	r3, [r2, #28]
 295 0080 6FF30103 		bfc	r3, #0, #2
 296 0084 1377     		strb	r3, [r2, #28]
 115:..\..\..\lvgl\version_6.1.2\lvgl\src\lv_objx/lv_cpicker.c ****     ext->color_mode_fixed = 0;
 297              		.loc 3 115 0
 298 0086 3A69     		ldr	r2, [r7, #16]
 299 0088 137F     		ldrb	r3, [r2, #28]
 300 008a 6FF38203 		bfc	r3, #2, #1
 301 008e 1377     		strb	r3, [r2, #28]
 116:..\..\..\lvgl\version_6.1.2\lvgl\src\lv_objx/lv_cpicker.c ****     ext->preview = 0;
 302              		.loc 3 116 0
 303 0090 3A69     		ldr	r2, [r7, #16]
 304 0092 137F     		ldrb	r3, [r2, #28]
 305 0094 6FF30413 		bfc	r3, #4, #1
 306 0098 1377     		strb	r3, [r2, #28]
 117:..\..\..\lvgl\version_6.1.2\lvgl\src\lv_objx/lv_cpicker.c ****     ext->last_click_time = 0;
 307              		.loc 3 117 0
 308 009a 3B69     		ldr	r3, [r7, #16]
 309 009c 0022     		movs	r2, #0
 310 009e 1A61     		str	r2, [r3, #16]
 118:..\..\..\lvgl\version_6.1.2\lvgl\src\lv_objx/lv_cpicker.c ****     ext->last_change_time = 0;
 311              		.loc 3 118 0
 312 00a0 3B69     		ldr	r3, [r7, #16]
 313 00a2 0022     		movs	r2, #0
 314 00a4 5A61     		str	r2, [r3, #20]
 119:..\..\..\lvgl\version_6.1.2\lvgl\src\lv_objx/lv_cpicker.c **** 
 120:..\..\..\lvgl\version_6.1.2\lvgl\src\lv_objx/lv_cpicker.c ****     /*The signal and design functions are not copied so set them here*/
 121:..\..\..\lvgl\version_6.1.2\lvgl\src\lv_objx/lv_cpicker.c ****     lv_obj_set_signal_cb(new_cpicker, lv_cpicker_signal);
 315              		.loc 3 121 0
 316 00a6 3D49     		ldr	r1, .L18+16
 317 00a8 7869     		ldr	r0, [r7, #20]
 318 00aa FFF7FEFF 		bl	lv_obj_set_signal_cb
 122:..\..\..\lvgl\version_6.1.2\lvgl\src\lv_objx/lv_cpicker.c ****     lv_obj_set_design_cb(new_cpicker, lv_cpicker_design);
ARM GAS  C:\Users\tmj32\AppData\Local\Temp\cc11CUDk.s 			page 18


 319              		.loc 3 122 0
 320 00ae 3C49     		ldr	r1, .L18+20
 321 00b0 7869     		ldr	r0, [r7, #20]
 322 00b2 FFF7FEFF 		bl	lv_obj_set_design_cb
 123:..\..\..\lvgl\version_6.1.2\lvgl\src\lv_objx/lv_cpicker.c **** 
 124:..\..\..\lvgl\version_6.1.2\lvgl\src\lv_objx/lv_cpicker.c ****     /*If no copy do the basic initialization*/
 125:..\..\..\lvgl\version_6.1.2\lvgl\src\lv_objx/lv_cpicker.c ****     if(copy == NULL) {
 323              		.loc 3 125 0
 324 00b6 3B68     		ldr	r3, [r7]
 325 00b8 002B     		cmp	r3, #0
 326 00ba 1ED1     		bne	.L14
 327              	.LBB2:
 126:..\..\..\lvgl\version_6.1.2\lvgl\src\lv_objx/lv_cpicker.c ****         lv_obj_set_size(new_cpicker, LV_DPI * 2, LV_DPI * 2);
 328              		.loc 3 126 0
 329 00bc 4FF49672 		mov	r2, #300
 330 00c0 4FF49671 		mov	r1, #300
 331 00c4 7869     		ldr	r0, [r7, #20]
 332 00c6 FFF7FEFF 		bl	lv_obj_set_size
 127:..\..\..\lvgl\version_6.1.2\lvgl\src\lv_objx/lv_cpicker.c ****         lv_obj_set_protect(new_cpicker, LV_PROTECT_PRESS_LOST);
 333              		.loc 3 127 0
 334 00ca 1021     		movs	r1, #16
 335 00cc 7869     		ldr	r0, [r7, #20]
 336 00ce FFF7FEFF 		bl	lv_obj_set_protect
 128:..\..\..\lvgl\version_6.1.2\lvgl\src\lv_objx/lv_cpicker.c ****         lv_theme_t * th = lv_theme_get_current();
 337              		.loc 3 128 0
 338 00d2 FFF7FEFF 		bl	lv_theme_get_current
 339 00d6 F860     		str	r0, [r7, #12]
 129:..\..\..\lvgl\version_6.1.2\lvgl\src\lv_objx/lv_cpicker.c ****         if(th) {
 340              		.loc 3 129 0
 341 00d8 FB68     		ldr	r3, [r7, #12]
 342 00da 002B     		cmp	r3, #0
 343 00dc 07D0     		beq	.L15
 130:..\..\..\lvgl\version_6.1.2\lvgl\src\lv_objx/lv_cpicker.c ****             lv_cpicker_set_style(new_cpicker, LV_CPICKER_STYLE_MAIN, th->style.bg);
 344              		.loc 3 130 0
 345 00de FB68     		ldr	r3, [r7, #12]
 346 00e0 5B68     		ldr	r3, [r3, #4]
 347 00e2 1A46     		mov	r2, r3
 348 00e4 0021     		movs	r1, #0
 349 00e6 7869     		ldr	r0, [r7, #20]
 350 00e8 FFF7FEFF 		bl	lv_cpicker_set_style
 351 00ec 46E0     		b	.L17
 352              	.L15:
 131:..\..\..\lvgl\version_6.1.2\lvgl\src\lv_objx/lv_cpicker.c ****         } else {
 132:..\..\..\lvgl\version_6.1.2\lvgl\src\lv_objx/lv_cpicker.c ****             lv_cpicker_set_style(new_cpicker, LV_CPICKER_STYLE_MAIN, &lv_style_plain);
 353              		.loc 3 132 0
 354 00ee 2A4A     		ldr	r2, .L18+12
 355 00f0 0021     		movs	r1, #0
 356 00f2 7869     		ldr	r0, [r7, #20]
 357 00f4 FFF7FEFF 		bl	lv_cpicker_set_style
 358 00f8 40E0     		b	.L17
 359              	.L14:
 360              	.LBE2:
 361              	.LBB3:
 133:..\..\..\lvgl\version_6.1.2\lvgl\src\lv_objx/lv_cpicker.c ****         }
 134:..\..\..\lvgl\version_6.1.2\lvgl\src\lv_objx/lv_cpicker.c ****     }
 135:..\..\..\lvgl\version_6.1.2\lvgl\src\lv_objx/lv_cpicker.c ****     /*Copy 'copy'*/
 136:..\..\..\lvgl\version_6.1.2\lvgl\src\lv_objx/lv_cpicker.c ****     else {
ARM GAS  C:\Users\tmj32\AppData\Local\Temp\cc11CUDk.s 			page 19


 137:..\..\..\lvgl\version_6.1.2\lvgl\src\lv_objx/lv_cpicker.c ****         lv_cpicker_ext_t * copy_ext = lv_obj_get_ext_attr(copy);
 362              		.loc 3 137 0
 363 00fa 3868     		ldr	r0, [r7]
 364 00fc FFF7FEFF 		bl	lv_obj_get_ext_attr
 365 0100 B860     		str	r0, [r7, #8]
 138:..\..\..\lvgl\version_6.1.2\lvgl\src\lv_objx/lv_cpicker.c ****         ext->type = copy_ext->type;
 366              		.loc 3 138 0
 367 0102 BB68     		ldr	r3, [r7, #8]
 368 0104 1B7F     		ldrb	r3, [r3, #28]
 369 0106 C3F3C003 		ubfx	r3, r3, #3, #1
 370 010a D9B2     		uxtb	r1, r3
 371 010c 3A69     		ldr	r2, [r7, #16]
 372 010e 137F     		ldrb	r3, [r2, #28]
 373 0110 61F3C303 		bfi	r3, r1, #3, #1
 374 0114 1377     		strb	r3, [r2, #28]
 139:..\..\..\lvgl\version_6.1.2\lvgl\src\lv_objx/lv_cpicker.c ****         ext->color_mode = copy_ext->color_mode;
 375              		.loc 3 139 0
 376 0116 BB68     		ldr	r3, [r7, #8]
 377 0118 1B7F     		ldrb	r3, [r3, #28]
 378 011a C3F30103 		ubfx	r3, r3, #0, #2
 379 011e D9B2     		uxtb	r1, r3
 380 0120 3A69     		ldr	r2, [r7, #16]
 381 0122 137F     		ldrb	r3, [r2, #28]
 382 0124 61F30103 		bfi	r3, r1, #0, #2
 383 0128 1377     		strb	r3, [r2, #28]
 140:..\..\..\lvgl\version_6.1.2\lvgl\src\lv_objx/lv_cpicker.c ****         ext->color_mode_fixed = copy_ext->color_mode_fixed;
 384              		.loc 3 140 0
 385 012a BB68     		ldr	r3, [r7, #8]
 386 012c 1B7F     		ldrb	r3, [r3, #28]
 387 012e C3F38003 		ubfx	r3, r3, #2, #1
 388 0132 D9B2     		uxtb	r1, r3
 389 0134 3A69     		ldr	r2, [r7, #16]
 390 0136 137F     		ldrb	r3, [r2, #28]
 391 0138 61F38203 		bfi	r3, r1, #2, #1
 392 013c 1377     		strb	r3, [r2, #28]
 141:..\..\..\lvgl\version_6.1.2\lvgl\src\lv_objx/lv_cpicker.c ****         ext->preview = copy_ext->preview;
 393              		.loc 3 141 0
 394 013e BB68     		ldr	r3, [r7, #8]
 395 0140 1B7F     		ldrb	r3, [r3, #28]
 396 0142 C3F30013 		ubfx	r3, r3, #4, #1
 397 0146 D9B2     		uxtb	r1, r3
 398 0148 3A69     		ldr	r2, [r7, #16]
 399 014a 137F     		ldrb	r3, [r2, #28]
 400 014c 61F30413 		bfi	r3, r1, #4, #1
 401 0150 1377     		strb	r3, [r2, #28]
 142:..\..\..\lvgl\version_6.1.2\lvgl\src\lv_objx/lv_cpicker.c ****         ext->hsv = copy_ext->hsv;
 402              		.loc 3 142 0
 403 0152 3B69     		ldr	r3, [r7, #16]
 404 0154 BA68     		ldr	r2, [r7, #8]
 405 0156 1268     		ldr	r2, [r2]
 406 0158 1A60     		str	r2, [r3]
 143:..\..\..\lvgl\version_6.1.2\lvgl\src\lv_objx/lv_cpicker.c ****         ext->indic.colored = copy_ext->indic.colored;
 407              		.loc 3 143 0
 408 015a BB68     		ldr	r3, [r7, #8]
 409 015c 1B7B     		ldrb	r3, [r3, #12]
 410 015e C3F30003 		ubfx	r3, r3, #0, #1
 411 0162 D9B2     		uxtb	r1, r3
ARM GAS  C:\Users\tmj32\AppData\Local\Temp\cc11CUDk.s 			page 20


 412 0164 3A69     		ldr	r2, [r7, #16]
 413 0166 137B     		ldrb	r3, [r2, #12]
 414 0168 61F30003 		bfi	r3, r1, #0, #1
 415 016c 1373     		strb	r3, [r2, #12]
 144:..\..\..\lvgl\version_6.1.2\lvgl\src\lv_objx/lv_cpicker.c ****         ext->indic.style = copy_ext->indic.style;
 416              		.loc 3 144 0
 417 016e BB68     		ldr	r3, [r7, #8]
 418 0170 5A68     		ldr	r2, [r3, #4]
 419 0172 3B69     		ldr	r3, [r7, #16]
 420 0174 5A60     		str	r2, [r3, #4]
 145:..\..\..\lvgl\version_6.1.2\lvgl\src\lv_objx/lv_cpicker.c **** 
 146:..\..\..\lvgl\version_6.1.2\lvgl\src\lv_objx/lv_cpicker.c ****         /*Refresh the style with new signal function*/
 147:..\..\..\lvgl\version_6.1.2\lvgl\src\lv_objx/lv_cpicker.c ****         lv_obj_refresh_style(new_cpicker);
 421              		.loc 3 147 0
 422 0176 7869     		ldr	r0, [r7, #20]
 423 0178 FFF7FEFF 		bl	lv_obj_refresh_style
 424              	.L17:
 425              	.LBE3:
 148:..\..\..\lvgl\version_6.1.2\lvgl\src\lv_objx/lv_cpicker.c ****     }
 149:..\..\..\lvgl\version_6.1.2\lvgl\src\lv_objx/lv_cpicker.c ****     refr_indic_pos(new_cpicker);
 426              		.loc 3 149 0
 427 017c 7869     		ldr	r0, [r7, #20]
 428 017e FFF7FEFF 		bl	refr_indic_pos
 150:..\..\..\lvgl\version_6.1.2\lvgl\src\lv_objx/lv_cpicker.c **** 
 151:..\..\..\lvgl\version_6.1.2\lvgl\src\lv_objx/lv_cpicker.c ****     LV_LOG_INFO("color_picker created");
 152:..\..\..\lvgl\version_6.1.2\lvgl\src\lv_objx/lv_cpicker.c **** 
 153:..\..\..\lvgl\version_6.1.2\lvgl\src\lv_objx/lv_cpicker.c ****     return new_cpicker;
 429              		.loc 3 153 0
 430 0182 7B69     		ldr	r3, [r7, #20]
 431              	.L10:
 154:..\..\..\lvgl\version_6.1.2\lvgl\src\lv_objx/lv_cpicker.c **** }
 432              		.loc 3 154 0
 433 0184 1846     		mov	r0, r3
 434 0186 1837     		adds	r7, r7, #24
 435              		.cfi_def_cfa_offset 8
 436 0188 BD46     		mov	sp, r7
 437              		.cfi_def_cfa_register 13
 438              		@ sp needed
 439 018a 80BD     		pop	{r7, pc}
 440              	.L19:
 441              		.align	2
 442              	.L18:
 443 018c 00000000 		.word	ancestor_signal
 444 0190 04000000 		.word	ancestor_design
 445 0194 00000000 		.word	.LC0
 446 0198 00000000 		.word	lv_style_plain
 447 019c 00000000 		.word	lv_cpicker_signal
 448 01a0 00000000 		.word	lv_cpicker_design
 449              		.cfi_endproc
 450              	.LFE31:
 451              		.size	lv_cpicker_create, .-lv_cpicker_create
 452              		.section	.text.lv_cpicker_set_type,"ax",%progbits
 453              		.align	2
 454              		.global	lv_cpicker_set_type
 455              		.thumb
 456              		.thumb_func
 457              		.type	lv_cpicker_set_type, %function
ARM GAS  C:\Users\tmj32\AppData\Local\Temp\cc11CUDk.s 			page 21


 458              	lv_cpicker_set_type:
 459              	.LFB32:
 155:..\..\..\lvgl\version_6.1.2\lvgl\src\lv_objx/lv_cpicker.c **** 
 156:..\..\..\lvgl\version_6.1.2\lvgl\src\lv_objx/lv_cpicker.c **** /*=====================
 157:..\..\..\lvgl\version_6.1.2\lvgl\src\lv_objx/lv_cpicker.c ****  * Setter functions
 158:..\..\..\lvgl\version_6.1.2\lvgl\src\lv_objx/lv_cpicker.c ****  *====================*/
 159:..\..\..\lvgl\version_6.1.2\lvgl\src\lv_objx/lv_cpicker.c **** 
 160:..\..\..\lvgl\version_6.1.2\lvgl\src\lv_objx/lv_cpicker.c **** /**
 161:..\..\..\lvgl\version_6.1.2\lvgl\src\lv_objx/lv_cpicker.c ****  * Set a new type for a cpicker
 162:..\..\..\lvgl\version_6.1.2\lvgl\src\lv_objx/lv_cpicker.c ****  * @param cpicker pointer to a cpicker object
 163:..\..\..\lvgl\version_6.1.2\lvgl\src\lv_objx/lv_cpicker.c ****  * @param type new type of the cpicker (from 'lv_cpicker_type_t' enum)
 164:..\..\..\lvgl\version_6.1.2\lvgl\src\lv_objx/lv_cpicker.c ****  */
 165:..\..\..\lvgl\version_6.1.2\lvgl\src\lv_objx/lv_cpicker.c **** void lv_cpicker_set_type(lv_obj_t * cpicker, lv_cpicker_type_t type)
 166:..\..\..\lvgl\version_6.1.2\lvgl\src\lv_objx/lv_cpicker.c **** {
 460              		.loc 3 166 0
 461              		.cfi_startproc
 462              		@ args = 0, pretend = 0, frame = 16
 463              		@ frame_needed = 1, uses_anonymous_args = 0
 464 0000 80B5     		push	{r7, lr}
 465              		.cfi_def_cfa_offset 8
 466              		.cfi_offset 7, -8
 467              		.cfi_offset 14, -4
 468 0002 84B0     		sub	sp, sp, #16
 469              		.cfi_def_cfa_offset 24
 470 0004 00AF     		add	r7, sp, #0
 471              		.cfi_def_cfa_register 7
 472 0006 7860     		str	r0, [r7, #4]
 473 0008 0B46     		mov	r3, r1
 474 000a FB70     		strb	r3, [r7, #3]
 167:..\..\..\lvgl\version_6.1.2\lvgl\src\lv_objx/lv_cpicker.c ****     LV_ASSERT_OBJ(cpicker, LV_OBJX_NAME);
 168:..\..\..\lvgl\version_6.1.2\lvgl\src\lv_objx/lv_cpicker.c **** 
 169:..\..\..\lvgl\version_6.1.2\lvgl\src\lv_objx/lv_cpicker.c ****     lv_cpicker_ext_t * ext = lv_obj_get_ext_attr(cpicker);
 475              		.loc 3 169 0
 476 000c 7868     		ldr	r0, [r7, #4]
 477 000e FFF7FEFF 		bl	lv_obj_get_ext_attr
 478 0012 F860     		str	r0, [r7, #12]
 170:..\..\..\lvgl\version_6.1.2\lvgl\src\lv_objx/lv_cpicker.c ****     if(ext->type == type) return;
 479              		.loc 3 170 0
 480 0014 FB68     		ldr	r3, [r7, #12]
 481 0016 1B7F     		ldrb	r3, [r3, #28]
 482 0018 C3F3C003 		ubfx	r3, r3, #3, #1
 483 001c DBB2     		uxtb	r3, r3
 484 001e 1A46     		mov	r2, r3
 485 0020 FB78     		ldrb	r3, [r7, #3]	@ zero_extendqisi2
 486 0022 9A42     		cmp	r2, r3
 487 0024 12D0     		beq	.L23
 171:..\..\..\lvgl\version_6.1.2\lvgl\src\lv_objx/lv_cpicker.c **** 
 172:..\..\..\lvgl\version_6.1.2\lvgl\src\lv_objx/lv_cpicker.c ****     ext->type = type;
 488              		.loc 3 172 0
 489 0026 FB78     		ldrb	r3, [r7, #3]
 490 0028 03F00103 		and	r3, r3, #1
 491 002c D9B2     		uxtb	r1, r3
 492 002e FA68     		ldr	r2, [r7, #12]
 493 0030 137F     		ldrb	r3, [r2, #28]
 494 0032 61F3C303 		bfi	r3, r1, #3, #1
 495 0036 1377     		strb	r3, [r2, #28]
 173:..\..\..\lvgl\version_6.1.2\lvgl\src\lv_objx/lv_cpicker.c ****     lv_obj_refresh_ext_draw_pad(cpicker);
ARM GAS  C:\Users\tmj32\AppData\Local\Temp\cc11CUDk.s 			page 22


 496              		.loc 3 173 0
 497 0038 7868     		ldr	r0, [r7, #4]
 498 003a FFF7FEFF 		bl	lv_obj_refresh_ext_draw_pad
 174:..\..\..\lvgl\version_6.1.2\lvgl\src\lv_objx/lv_cpicker.c ****     refr_indic_pos(cpicker);
 499              		.loc 3 174 0
 500 003e 7868     		ldr	r0, [r7, #4]
 501 0040 FFF7FEFF 		bl	refr_indic_pos
 175:..\..\..\lvgl\version_6.1.2\lvgl\src\lv_objx/lv_cpicker.c **** 
 176:..\..\..\lvgl\version_6.1.2\lvgl\src\lv_objx/lv_cpicker.c ****     lv_obj_invalidate(cpicker);
 502              		.loc 3 176 0
 503 0044 7868     		ldr	r0, [r7, #4]
 504 0046 FFF7FEFF 		bl	lv_obj_invalidate
 505 004a 00E0     		b	.L20
 506              	.L23:
 170:..\..\..\lvgl\version_6.1.2\lvgl\src\lv_objx/lv_cpicker.c **** 
 507              		.loc 3 170 0
 508 004c 00BF     		nop
 509              	.L20:
 177:..\..\..\lvgl\version_6.1.2\lvgl\src\lv_objx/lv_cpicker.c **** }
 510              		.loc 3 177 0
 511 004e 1037     		adds	r7, r7, #16
 512              		.cfi_def_cfa_offset 8
 513 0050 BD46     		mov	sp, r7
 514              		.cfi_def_cfa_register 13
 515              		@ sp needed
 516 0052 80BD     		pop	{r7, pc}
 517              		.cfi_endproc
 518              	.LFE32:
 519              		.size	lv_cpicker_set_type, .-lv_cpicker_set_type
 520              		.section	.text.lv_cpicker_set_style,"ax",%progbits
 521              		.align	2
 522              		.global	lv_cpicker_set_style
 523              		.thumb
 524              		.thumb_func
 525              		.type	lv_cpicker_set_style, %function
 526              	lv_cpicker_set_style:
 527              	.LFB33:
 178:..\..\..\lvgl\version_6.1.2\lvgl\src\lv_objx/lv_cpicker.c **** 
 179:..\..\..\lvgl\version_6.1.2\lvgl\src\lv_objx/lv_cpicker.c **** /**
 180:..\..\..\lvgl\version_6.1.2\lvgl\src\lv_objx/lv_cpicker.c ****  * Set a style of a colorpicker.
 181:..\..\..\lvgl\version_6.1.2\lvgl\src\lv_objx/lv_cpicker.c ****  * @param cpicker pointer to colorpicker object
 182:..\..\..\lvgl\version_6.1.2\lvgl\src\lv_objx/lv_cpicker.c ****  * @param type which style should be set
 183:..\..\..\lvgl\version_6.1.2\lvgl\src\lv_objx/lv_cpicker.c ****  * @param style pointer to a style
 184:..\..\..\lvgl\version_6.1.2\lvgl\src\lv_objx/lv_cpicker.c ****  */
 185:..\..\..\lvgl\version_6.1.2\lvgl\src\lv_objx/lv_cpicker.c **** void lv_cpicker_set_style(lv_obj_t * cpicker, lv_cpicker_style_t type, lv_style_t * style)
 186:..\..\..\lvgl\version_6.1.2\lvgl\src\lv_objx/lv_cpicker.c **** {
 528              		.loc 3 186 0
 529              		.cfi_startproc
 530              		@ args = 0, pretend = 0, frame = 24
 531              		@ frame_needed = 1, uses_anonymous_args = 0
 532 0000 80B5     		push	{r7, lr}
 533              		.cfi_def_cfa_offset 8
 534              		.cfi_offset 7, -8
 535              		.cfi_offset 14, -4
 536 0002 86B0     		sub	sp, sp, #24
 537              		.cfi_def_cfa_offset 32
 538 0004 00AF     		add	r7, sp, #0
ARM GAS  C:\Users\tmj32\AppData\Local\Temp\cc11CUDk.s 			page 23


 539              		.cfi_def_cfa_register 7
 540 0006 F860     		str	r0, [r7, #12]
 541 0008 0B46     		mov	r3, r1
 542 000a 7A60     		str	r2, [r7, #4]
 543 000c FB72     		strb	r3, [r7, #11]
 187:..\..\..\lvgl\version_6.1.2\lvgl\src\lv_objx/lv_cpicker.c ****     LV_ASSERT_OBJ(cpicker, LV_OBJX_NAME);
 188:..\..\..\lvgl\version_6.1.2\lvgl\src\lv_objx/lv_cpicker.c **** 
 189:..\..\..\lvgl\version_6.1.2\lvgl\src\lv_objx/lv_cpicker.c ****     lv_cpicker_ext_t * ext = lv_obj_get_ext_attr(cpicker);
 544              		.loc 3 189 0
 545 000e F868     		ldr	r0, [r7, #12]
 546 0010 FFF7FEFF 		bl	lv_obj_get_ext_attr
 547 0014 7861     		str	r0, [r7, #20]
 190:..\..\..\lvgl\version_6.1.2\lvgl\src\lv_objx/lv_cpicker.c **** 
 191:..\..\..\lvgl\version_6.1.2\lvgl\src\lv_objx/lv_cpicker.c ****     switch(type) {
 548              		.loc 3 191 0
 549 0016 FB7A     		ldrb	r3, [r7, #11]	@ zero_extendqisi2
 550 0018 002B     		cmp	r3, #0
 551 001a 02D0     		beq	.L26
 552 001c 012B     		cmp	r3, #1
 553 001e 05D0     		beq	.L27
 192:..\..\..\lvgl\version_6.1.2\lvgl\src\lv_objx/lv_cpicker.c ****     case LV_CPICKER_STYLE_MAIN:
 193:..\..\..\lvgl\version_6.1.2\lvgl\src\lv_objx/lv_cpicker.c ****         lv_obj_set_style(cpicker, style);
 194:..\..\..\lvgl\version_6.1.2\lvgl\src\lv_objx/lv_cpicker.c ****         break;
 195:..\..\..\lvgl\version_6.1.2\lvgl\src\lv_objx/lv_cpicker.c ****     case LV_CPICKER_STYLE_INDICATOR:
 196:..\..\..\lvgl\version_6.1.2\lvgl\src\lv_objx/lv_cpicker.c ****         ext->indic.style = style;
 197:..\..\..\lvgl\version_6.1.2\lvgl\src\lv_objx/lv_cpicker.c ****         lv_obj_invalidate(cpicker);
 198:..\..\..\lvgl\version_6.1.2\lvgl\src\lv_objx/lv_cpicker.c ****         break;
 199:..\..\..\lvgl\version_6.1.2\lvgl\src\lv_objx/lv_cpicker.c ****     }
 200:..\..\..\lvgl\version_6.1.2\lvgl\src\lv_objx/lv_cpicker.c **** }
 554              		.loc 3 200 0
 555 0020 0BE0     		b	.L28
 556              	.L26:
 193:..\..\..\lvgl\version_6.1.2\lvgl\src\lv_objx/lv_cpicker.c ****         break;
 557              		.loc 3 193 0
 558 0022 7968     		ldr	r1, [r7, #4]
 559 0024 F868     		ldr	r0, [r7, #12]
 560 0026 FFF7FEFF 		bl	lv_obj_set_style
 194:..\..\..\lvgl\version_6.1.2\lvgl\src\lv_objx/lv_cpicker.c ****     case LV_CPICKER_STYLE_INDICATOR:
 561              		.loc 3 194 0
 562 002a 06E0     		b	.L25
 563              	.L27:
 196:..\..\..\lvgl\version_6.1.2\lvgl\src\lv_objx/lv_cpicker.c ****         lv_obj_invalidate(cpicker);
 564              		.loc 3 196 0
 565 002c 7B69     		ldr	r3, [r7, #20]
 566 002e 7A68     		ldr	r2, [r7, #4]
 567 0030 5A60     		str	r2, [r3, #4]
 197:..\..\..\lvgl\version_6.1.2\lvgl\src\lv_objx/lv_cpicker.c ****         break;
 568              		.loc 3 197 0
 569 0032 F868     		ldr	r0, [r7, #12]
 570 0034 FFF7FEFF 		bl	lv_obj_invalidate
 198:..\..\..\lvgl\version_6.1.2\lvgl\src\lv_objx/lv_cpicker.c ****     }
 571              		.loc 3 198 0
 572 0038 00BF     		nop
 573              	.L25:
 574              	.L28:
 575              		.loc 3 200 0
 576 003a 00BF     		nop
ARM GAS  C:\Users\tmj32\AppData\Local\Temp\cc11CUDk.s 			page 24


 577 003c 1837     		adds	r7, r7, #24
 578              		.cfi_def_cfa_offset 8
 579 003e BD46     		mov	sp, r7
 580              		.cfi_def_cfa_register 13
 581              		@ sp needed
 582 0040 80BD     		pop	{r7, pc}
 583              		.cfi_endproc
 584              	.LFE33:
 585              		.size	lv_cpicker_set_style, .-lv_cpicker_set_style
 586              		.section	.text.lv_cpicker_set_hue,"ax",%progbits
 587              		.align	2
 588              		.global	lv_cpicker_set_hue
 589              		.thumb
 590              		.thumb_func
 591              		.type	lv_cpicker_set_hue, %function
 592              	lv_cpicker_set_hue:
 593              	.LFB34:
 201:..\..\..\lvgl\version_6.1.2\lvgl\src\lv_objx/lv_cpicker.c **** 
 202:..\..\..\lvgl\version_6.1.2\lvgl\src\lv_objx/lv_cpicker.c **** /**
 203:..\..\..\lvgl\version_6.1.2\lvgl\src\lv_objx/lv_cpicker.c ****  * Set the current hue of a colorpicker.
 204:..\..\..\lvgl\version_6.1.2\lvgl\src\lv_objx/lv_cpicker.c ****  * @param cpicker pointer to colorpicker object
 205:..\..\..\lvgl\version_6.1.2\lvgl\src\lv_objx/lv_cpicker.c ****  * @param hue current selected hue [0..360]
 206:..\..\..\lvgl\version_6.1.2\lvgl\src\lv_objx/lv_cpicker.c ****  * @return true if changed, otherwise false
 207:..\..\..\lvgl\version_6.1.2\lvgl\src\lv_objx/lv_cpicker.c ****  */
 208:..\..\..\lvgl\version_6.1.2\lvgl\src\lv_objx/lv_cpicker.c **** bool lv_cpicker_set_hue(lv_obj_t * cpicker, uint16_t hue)
 209:..\..\..\lvgl\version_6.1.2\lvgl\src\lv_objx/lv_cpicker.c **** {
 594              		.loc 3 209 0
 595              		.cfi_startproc
 596              		@ args = 0, pretend = 0, frame = 16
 597              		@ frame_needed = 1, uses_anonymous_args = 0
 598 0000 80B5     		push	{r7, lr}
 599              		.cfi_def_cfa_offset 8
 600              		.cfi_offset 7, -8
 601              		.cfi_offset 14, -4
 602 0002 84B0     		sub	sp, sp, #16
 603              		.cfi_def_cfa_offset 24
 604 0004 00AF     		add	r7, sp, #0
 605              		.cfi_def_cfa_register 7
 606 0006 7860     		str	r0, [r7, #4]
 607 0008 0B46     		mov	r3, r1
 608 000a 7B80     		strh	r3, [r7, #2]	@ movhi
 210:..\..\..\lvgl\version_6.1.2\lvgl\src\lv_objx/lv_cpicker.c ****     lv_color_hsv_t hsv = lv_cpicker_get_hsv(cpicker);
 609              		.loc 3 210 0
 610 000c 7868     		ldr	r0, [r7, #4]
 611 000e FFF7FEFF 		bl	lv_cpicker_get_hsv
 612 0012 0346     		mov	r3, r0
 613 0014 FB60     		str	r3, [r7, #12]
 211:..\..\..\lvgl\version_6.1.2\lvgl\src\lv_objx/lv_cpicker.c ****     hsv.h = hue;
 614              		.loc 3 211 0
 615 0016 7B88     		ldrh	r3, [r7, #2]	@ movhi
 616 0018 BB81     		strh	r3, [r7, #12]	@ movhi
 212:..\..\..\lvgl\version_6.1.2\lvgl\src\lv_objx/lv_cpicker.c ****     return lv_cpicker_set_hsv(cpicker, hsv);
 617              		.loc 3 212 0
 618 001a F968     		ldr	r1, [r7, #12]
 619 001c 7868     		ldr	r0, [r7, #4]
 620 001e FFF7FEFF 		bl	lv_cpicker_set_hsv
 621 0022 0346     		mov	r3, r0
ARM GAS  C:\Users\tmj32\AppData\Local\Temp\cc11CUDk.s 			page 25


 213:..\..\..\lvgl\version_6.1.2\lvgl\src\lv_objx/lv_cpicker.c **** }
 622              		.loc 3 213 0
 623 0024 1846     		mov	r0, r3
 624 0026 1037     		adds	r7, r7, #16
 625              		.cfi_def_cfa_offset 8
 626 0028 BD46     		mov	sp, r7
 627              		.cfi_def_cfa_register 13
 628              		@ sp needed
 629 002a 80BD     		pop	{r7, pc}
 630              		.cfi_endproc
 631              	.LFE34:
 632              		.size	lv_cpicker_set_hue, .-lv_cpicker_set_hue
 633              		.section	.text.lv_cpicker_set_saturation,"ax",%progbits
 634              		.align	2
 635              		.global	lv_cpicker_set_saturation
 636              		.thumb
 637              		.thumb_func
 638              		.type	lv_cpicker_set_saturation, %function
 639              	lv_cpicker_set_saturation:
 640              	.LFB35:
 214:..\..\..\lvgl\version_6.1.2\lvgl\src\lv_objx/lv_cpicker.c **** 
 215:..\..\..\lvgl\version_6.1.2\lvgl\src\lv_objx/lv_cpicker.c **** /**
 216:..\..\..\lvgl\version_6.1.2\lvgl\src\lv_objx/lv_cpicker.c ****  * Set the current saturation of a colorpicker.
 217:..\..\..\lvgl\version_6.1.2\lvgl\src\lv_objx/lv_cpicker.c ****  * @param cpicker pointer to colorpicker object
 218:..\..\..\lvgl\version_6.1.2\lvgl\src\lv_objx/lv_cpicker.c ****  * @param saturation current selected saturation [0..100]
 219:..\..\..\lvgl\version_6.1.2\lvgl\src\lv_objx/lv_cpicker.c ****  * @return true if changed, otherwise false
 220:..\..\..\lvgl\version_6.1.2\lvgl\src\lv_objx/lv_cpicker.c ****  */
 221:..\..\..\lvgl\version_6.1.2\lvgl\src\lv_objx/lv_cpicker.c **** bool lv_cpicker_set_saturation(lv_obj_t * cpicker, uint8_t saturation)
 222:..\..\..\lvgl\version_6.1.2\lvgl\src\lv_objx/lv_cpicker.c **** {
 641              		.loc 3 222 0
 642              		.cfi_startproc
 643              		@ args = 0, pretend = 0, frame = 16
 644              		@ frame_needed = 1, uses_anonymous_args = 0
 645 0000 80B5     		push	{r7, lr}
 646              		.cfi_def_cfa_offset 8
 647              		.cfi_offset 7, -8
 648              		.cfi_offset 14, -4
 649 0002 84B0     		sub	sp, sp, #16
 650              		.cfi_def_cfa_offset 24
 651 0004 00AF     		add	r7, sp, #0
 652              		.cfi_def_cfa_register 7
 653 0006 7860     		str	r0, [r7, #4]
 654 0008 0B46     		mov	r3, r1
 655 000a FB70     		strb	r3, [r7, #3]
 223:..\..\..\lvgl\version_6.1.2\lvgl\src\lv_objx/lv_cpicker.c ****     lv_color_hsv_t hsv = lv_cpicker_get_hsv(cpicker);
 656              		.loc 3 223 0
 657 000c 7868     		ldr	r0, [r7, #4]
 658 000e FFF7FEFF 		bl	lv_cpicker_get_hsv
 659 0012 0346     		mov	r3, r0
 660 0014 FB60     		str	r3, [r7, #12]
 224:..\..\..\lvgl\version_6.1.2\lvgl\src\lv_objx/lv_cpicker.c ****     hsv.s = saturation;
 661              		.loc 3 224 0
 662 0016 FB78     		ldrb	r3, [r7, #3]
 663 0018 BB73     		strb	r3, [r7, #14]
 225:..\..\..\lvgl\version_6.1.2\lvgl\src\lv_objx/lv_cpicker.c ****     return lv_cpicker_set_hsv(cpicker, hsv);
 664              		.loc 3 225 0
 665 001a F968     		ldr	r1, [r7, #12]
ARM GAS  C:\Users\tmj32\AppData\Local\Temp\cc11CUDk.s 			page 26


 666 001c 7868     		ldr	r0, [r7, #4]
 667 001e FFF7FEFF 		bl	lv_cpicker_set_hsv
 668 0022 0346     		mov	r3, r0
 226:..\..\..\lvgl\version_6.1.2\lvgl\src\lv_objx/lv_cpicker.c **** }
 669              		.loc 3 226 0
 670 0024 1846     		mov	r0, r3
 671 0026 1037     		adds	r7, r7, #16
 672              		.cfi_def_cfa_offset 8
 673 0028 BD46     		mov	sp, r7
 674              		.cfi_def_cfa_register 13
 675              		@ sp needed
 676 002a 80BD     		pop	{r7, pc}
 677              		.cfi_endproc
 678              	.LFE35:
 679              		.size	lv_cpicker_set_saturation, .-lv_cpicker_set_saturation
 680              		.section	.text.lv_cpicker_set_value,"ax",%progbits
 681              		.align	2
 682              		.global	lv_cpicker_set_value
 683              		.thumb
 684              		.thumb_func
 685              		.type	lv_cpicker_set_value, %function
 686              	lv_cpicker_set_value:
 687              	.LFB36:
 227:..\..\..\lvgl\version_6.1.2\lvgl\src\lv_objx/lv_cpicker.c **** 
 228:..\..\..\lvgl\version_6.1.2\lvgl\src\lv_objx/lv_cpicker.c **** /**
 229:..\..\..\lvgl\version_6.1.2\lvgl\src\lv_objx/lv_cpicker.c ****  * Set the current value of a colorpicker.
 230:..\..\..\lvgl\version_6.1.2\lvgl\src\lv_objx/lv_cpicker.c ****  * @param cpicker pointer to colorpicker object
 231:..\..\..\lvgl\version_6.1.2\lvgl\src\lv_objx/lv_cpicker.c ****  * @param val current selected value [0..100]
 232:..\..\..\lvgl\version_6.1.2\lvgl\src\lv_objx/lv_cpicker.c ****  * @return true if changed, otherwise false
 233:..\..\..\lvgl\version_6.1.2\lvgl\src\lv_objx/lv_cpicker.c ****  */
 234:..\..\..\lvgl\version_6.1.2\lvgl\src\lv_objx/lv_cpicker.c **** bool lv_cpicker_set_value(lv_obj_t * cpicker, uint8_t val)
 235:..\..\..\lvgl\version_6.1.2\lvgl\src\lv_objx/lv_cpicker.c **** {
 688              		.loc 3 235 0
 689              		.cfi_startproc
 690              		@ args = 0, pretend = 0, frame = 16
 691              		@ frame_needed = 1, uses_anonymous_args = 0
 692 0000 80B5     		push	{r7, lr}
 693              		.cfi_def_cfa_offset 8
 694              		.cfi_offset 7, -8
 695              		.cfi_offset 14, -4
 696 0002 84B0     		sub	sp, sp, #16
 697              		.cfi_def_cfa_offset 24
 698 0004 00AF     		add	r7, sp, #0
 699              		.cfi_def_cfa_register 7
 700 0006 7860     		str	r0, [r7, #4]
 701 0008 0B46     		mov	r3, r1
 702 000a FB70     		strb	r3, [r7, #3]
 236:..\..\..\lvgl\version_6.1.2\lvgl\src\lv_objx/lv_cpicker.c ****     lv_color_hsv_t hsv = lv_cpicker_get_hsv(cpicker);
 703              		.loc 3 236 0
 704 000c 7868     		ldr	r0, [r7, #4]
 705 000e FFF7FEFF 		bl	lv_cpicker_get_hsv
 706 0012 0346     		mov	r3, r0
 707 0014 FB60     		str	r3, [r7, #12]
 237:..\..\..\lvgl\version_6.1.2\lvgl\src\lv_objx/lv_cpicker.c ****     hsv.v = val;
 708              		.loc 3 237 0
 709 0016 FB78     		ldrb	r3, [r7, #3]
 710 0018 FB73     		strb	r3, [r7, #15]
ARM GAS  C:\Users\tmj32\AppData\Local\Temp\cc11CUDk.s 			page 27


 238:..\..\..\lvgl\version_6.1.2\lvgl\src\lv_objx/lv_cpicker.c ****     return lv_cpicker_set_hsv(cpicker, hsv);
 711              		.loc 3 238 0
 712 001a F968     		ldr	r1, [r7, #12]
 713 001c 7868     		ldr	r0, [r7, #4]
 714 001e FFF7FEFF 		bl	lv_cpicker_set_hsv
 715 0022 0346     		mov	r3, r0
 239:..\..\..\lvgl\version_6.1.2\lvgl\src\lv_objx/lv_cpicker.c **** }
 716              		.loc 3 239 0
 717 0024 1846     		mov	r0, r3
 718 0026 1037     		adds	r7, r7, #16
 719              		.cfi_def_cfa_offset 8
 720 0028 BD46     		mov	sp, r7
 721              		.cfi_def_cfa_register 13
 722              		@ sp needed
 723 002a 80BD     		pop	{r7, pc}
 724              		.cfi_endproc
 725              	.LFE36:
 726              		.size	lv_cpicker_set_value, .-lv_cpicker_set_value
 727              		.section	.text.lv_cpicker_set_hsv,"ax",%progbits
 728              		.align	2
 729              		.global	lv_cpicker_set_hsv
 730              		.thumb
 731              		.thumb_func
 732              		.type	lv_cpicker_set_hsv, %function
 733              	lv_cpicker_set_hsv:
 734              	.LFB37:
 240:..\..\..\lvgl\version_6.1.2\lvgl\src\lv_objx/lv_cpicker.c **** 
 241:..\..\..\lvgl\version_6.1.2\lvgl\src\lv_objx/lv_cpicker.c **** /**
 242:..\..\..\lvgl\version_6.1.2\lvgl\src\lv_objx/lv_cpicker.c ****  * Set the current hsv of a colorpicker.
 243:..\..\..\lvgl\version_6.1.2\lvgl\src\lv_objx/lv_cpicker.c ****  * @param cpicker pointer to colorpicker object
 244:..\..\..\lvgl\version_6.1.2\lvgl\src\lv_objx/lv_cpicker.c ****  * @param color current selected hsv
 245:..\..\..\lvgl\version_6.1.2\lvgl\src\lv_objx/lv_cpicker.c ****  * @return true if changed, otherwise false
 246:..\..\..\lvgl\version_6.1.2\lvgl\src\lv_objx/lv_cpicker.c ****  */
 247:..\..\..\lvgl\version_6.1.2\lvgl\src\lv_objx/lv_cpicker.c **** bool lv_cpicker_set_hsv(lv_obj_t * cpicker, lv_color_hsv_t hsv)
 248:..\..\..\lvgl\version_6.1.2\lvgl\src\lv_objx/lv_cpicker.c **** {
 735              		.loc 3 248 0
 736              		.cfi_startproc
 737              		@ args = 0, pretend = 0, frame = 16
 738              		@ frame_needed = 1, uses_anonymous_args = 0
 739 0000 80B5     		push	{r7, lr}
 740              		.cfi_def_cfa_offset 8
 741              		.cfi_offset 7, -8
 742              		.cfi_offset 14, -4
 743 0002 84B0     		sub	sp, sp, #16
 744              		.cfi_def_cfa_offset 24
 745 0004 00AF     		add	r7, sp, #0
 746              		.cfi_def_cfa_register 7
 747 0006 7860     		str	r0, [r7, #4]
 748 0008 3960     		str	r1, [r7]
 249:..\..\..\lvgl\version_6.1.2\lvgl\src\lv_objx/lv_cpicker.c ****     LV_ASSERT_OBJ(cpicker, LV_OBJX_NAME);
 250:..\..\..\lvgl\version_6.1.2\lvgl\src\lv_objx/lv_cpicker.c **** 
 251:..\..\..\lvgl\version_6.1.2\lvgl\src\lv_objx/lv_cpicker.c ****     if (hsv.h > 360) hsv.h %= 360;
 749              		.loc 3 251 0
 750 000a 3B88     		ldrh	r3, [r7]
 751 000c B3F5B47F 		cmp	r3, #360
 752 0010 0CD9     		bls	.L36
 753              		.loc 3 251 0 is_stmt 0 discriminator 1
ARM GAS  C:\Users\tmj32\AppData\Local\Temp\cc11CUDk.s 			page 28


 754 0012 3B88     		ldrh	r3, [r7]
 755 0014 DA08     		lsrs	r2, r3, #3
 756 0016 2349     		ldr	r1, .L42
 757 0018 A1FB0212 		umull	r1, r2, r1, r2
 758 001c 9208     		lsrs	r2, r2, #2
 759 001e 4FF4B471 		mov	r1, #360
 760 0022 01FB02F2 		mul	r2, r1, r2
 761 0026 9B1A     		subs	r3, r3, r2
 762 0028 9BB2     		uxth	r3, r3
 763 002a 3B80     		strh	r3, [r7]	@ movhi
 764              	.L36:
 252:..\..\..\lvgl\version_6.1.2\lvgl\src\lv_objx/lv_cpicker.c ****     if (hsv.s > 100) hsv.s = 100;
 765              		.loc 3 252 0 is_stmt 1
 766 002c BB78     		ldrb	r3, [r7, #2]	@ zero_extendqisi2
 767 002e 642B     		cmp	r3, #100
 768 0030 01D9     		bls	.L37
 769              		.loc 3 252 0 is_stmt 0 discriminator 1
 770 0032 6423     		movs	r3, #100
 771 0034 BB70     		strb	r3, [r7, #2]
 772              	.L37:
 253:..\..\..\lvgl\version_6.1.2\lvgl\src\lv_objx/lv_cpicker.c ****     if (hsv.v > 100) hsv.v = 100;
 773              		.loc 3 253 0 is_stmt 1
 774 0036 FB78     		ldrb	r3, [r7, #3]	@ zero_extendqisi2
 775 0038 642B     		cmp	r3, #100
 776 003a 01D9     		bls	.L38
 777              		.loc 3 253 0 is_stmt 0 discriminator 1
 778 003c 6423     		movs	r3, #100
 779 003e FB70     		strb	r3, [r7, #3]
 780              	.L38:
 254:..\..\..\lvgl\version_6.1.2\lvgl\src\lv_objx/lv_cpicker.c **** 
 255:..\..\..\lvgl\version_6.1.2\lvgl\src\lv_objx/lv_cpicker.c ****     lv_cpicker_ext_t * ext = lv_obj_get_ext_attr(cpicker);
 781              		.loc 3 255 0 is_stmt 1
 782 0040 7868     		ldr	r0, [r7, #4]
 783 0042 FFF7FEFF 		bl	lv_obj_get_ext_attr
 784 0046 F860     		str	r0, [r7, #12]
 256:..\..\..\lvgl\version_6.1.2\lvgl\src\lv_objx/lv_cpicker.c **** 
 257:..\..\..\lvgl\version_6.1.2\lvgl\src\lv_objx/lv_cpicker.c ****     if (ext->hsv.h == hsv.h && ext->hsv.s == hsv.s && ext->hsv.v == hsv.v) return false;
 785              		.loc 3 257 0
 786 0048 FB68     		ldr	r3, [r7, #12]
 787 004a 1A88     		ldrh	r2, [r3]
 788 004c 3B88     		ldrh	r3, [r7]
 789 004e 9A42     		cmp	r2, r3
 790 0050 0BD1     		bne	.L39
 791              		.loc 3 257 0 is_stmt 0 discriminator 1
 792 0052 FB68     		ldr	r3, [r7, #12]
 793 0054 9A78     		ldrb	r2, [r3, #2]	@ zero_extendqisi2
 794 0056 BB78     		ldrb	r3, [r7, #2]	@ zero_extendqisi2
 795 0058 9A42     		cmp	r2, r3
 796 005a 06D1     		bne	.L39
 797              		.loc 3 257 0 discriminator 2
 798 005c FB68     		ldr	r3, [r7, #12]
 799 005e DA78     		ldrb	r2, [r3, #3]	@ zero_extendqisi2
 800 0060 FB78     		ldrb	r3, [r7, #3]	@ zero_extendqisi2
 801 0062 9A42     		cmp	r2, r3
 802 0064 01D1     		bne	.L39
 803              		.loc 3 257 0 discriminator 3
 804 0066 0023     		movs	r3, #0
ARM GAS  C:\Users\tmj32\AppData\Local\Temp\cc11CUDk.s 			page 29


 805 0068 17E0     		b	.L40
 806              	.L39:
 258:..\..\..\lvgl\version_6.1.2\lvgl\src\lv_objx/lv_cpicker.c **** 
 259:..\..\..\lvgl\version_6.1.2\lvgl\src\lv_objx/lv_cpicker.c ****     ext->hsv = hsv;
 807              		.loc 3 259 0 is_stmt 1
 808 006a FB68     		ldr	r3, [r7, #12]
 809 006c 3A68     		ldr	r2, [r7]
 810 006e 1A60     		str	r2, [r3]
 260:..\..\..\lvgl\version_6.1.2\lvgl\src\lv_objx/lv_cpicker.c **** 
 261:..\..\..\lvgl\version_6.1.2\lvgl\src\lv_objx/lv_cpicker.c ****     refr_indic_pos(cpicker);
 811              		.loc 3 261 0
 812 0070 7868     		ldr	r0, [r7, #4]
 813 0072 FFF7FEFF 		bl	refr_indic_pos
 262:..\..\..\lvgl\version_6.1.2\lvgl\src\lv_objx/lv_cpicker.c **** 
 263:..\..\..\lvgl\version_6.1.2\lvgl\src\lv_objx/lv_cpicker.c ****     if (ext->preview && ext->type == LV_CPICKER_TYPE_DISC) {
 814              		.loc 3 263 0
 815 0076 FB68     		ldr	r3, [r7, #12]
 816 0078 1B7F     		ldrb	r3, [r3, #28]	@ zero_extendqisi2
 817 007a 03F01003 		and	r3, r3, #16
 818 007e DBB2     		uxtb	r3, r3
 819 0080 002B     		cmp	r3, #0
 820 0082 09D0     		beq	.L41
 821              		.loc 3 263 0 is_stmt 0 discriminator 1
 822 0084 FB68     		ldr	r3, [r7, #12]
 823 0086 1B7F     		ldrb	r3, [r3, #28]	@ zero_extendqisi2
 824 0088 03F00803 		and	r3, r3, #8
 825 008c DBB2     		uxtb	r3, r3
 826 008e 002B     		cmp	r3, #0
 827 0090 02D0     		beq	.L41
 264:..\..\..\lvgl\version_6.1.2\lvgl\src\lv_objx/lv_cpicker.c ****         lv_obj_invalidate(cpicker);
 828              		.loc 3 264 0 is_stmt 1
 829 0092 7868     		ldr	r0, [r7, #4]
 830 0094 FFF7FEFF 		bl	lv_obj_invalidate
 831              	.L41:
 265:..\..\..\lvgl\version_6.1.2\lvgl\src\lv_objx/lv_cpicker.c ****     }
 266:..\..\..\lvgl\version_6.1.2\lvgl\src\lv_objx/lv_cpicker.c **** 
 267:..\..\..\lvgl\version_6.1.2\lvgl\src\lv_objx/lv_cpicker.c ****     return true;
 832              		.loc 3 267 0
 833 0098 0123     		movs	r3, #1
 834              	.L40:
 268:..\..\..\lvgl\version_6.1.2\lvgl\src\lv_objx/lv_cpicker.c **** }
 835              		.loc 3 268 0
 836 009a 1846     		mov	r0, r3
 837 009c 1037     		adds	r7, r7, #16
 838              		.cfi_def_cfa_offset 8
 839 009e BD46     		mov	sp, r7
 840              		.cfi_def_cfa_register 13
 841              		@ sp needed
 842 00a0 80BD     		pop	{r7, pc}
 843              	.L43:
 844 00a2 00BF     		.align	2
 845              	.L42:
 846 00a4 176CC116 		.word	381774871
 847              		.cfi_endproc
 848              	.LFE37:
 849              		.size	lv_cpicker_set_hsv, .-lv_cpicker_set_hsv
 850              		.section	.text.lv_cpicker_set_color,"ax",%progbits
ARM GAS  C:\Users\tmj32\AppData\Local\Temp\cc11CUDk.s 			page 30


 851              		.align	2
 852              		.global	lv_cpicker_set_color
 853              		.thumb
 854              		.thumb_func
 855              		.type	lv_cpicker_set_color, %function
 856              	lv_cpicker_set_color:
 857              	.LFB38:
 269:..\..\..\lvgl\version_6.1.2\lvgl\src\lv_objx/lv_cpicker.c **** 
 270:..\..\..\lvgl\version_6.1.2\lvgl\src\lv_objx/lv_cpicker.c **** /**
 271:..\..\..\lvgl\version_6.1.2\lvgl\src\lv_objx/lv_cpicker.c ****  * Set the current color of a colorpicker.
 272:..\..\..\lvgl\version_6.1.2\lvgl\src\lv_objx/lv_cpicker.c ****  * @param cpicker pointer to colorpicker object
 273:..\..\..\lvgl\version_6.1.2\lvgl\src\lv_objx/lv_cpicker.c ****  * @param color current selected color
 274:..\..\..\lvgl\version_6.1.2\lvgl\src\lv_objx/lv_cpicker.c ****  * @return true if changed, otherwise false
 275:..\..\..\lvgl\version_6.1.2\lvgl\src\lv_objx/lv_cpicker.c ****  */
 276:..\..\..\lvgl\version_6.1.2\lvgl\src\lv_objx/lv_cpicker.c **** bool lv_cpicker_set_color(lv_obj_t * cpicker, lv_color_t color)
 277:..\..\..\lvgl\version_6.1.2\lvgl\src\lv_objx/lv_cpicker.c **** {
 858              		.loc 3 277 0
 859              		.cfi_startproc
 860              		@ args = 0, pretend = 0, frame = 16
 861              		@ frame_needed = 1, uses_anonymous_args = 0
 862 0000 80B5     		push	{r7, lr}
 863              		.cfi_def_cfa_offset 8
 864              		.cfi_offset 7, -8
 865              		.cfi_offset 14, -4
 866 0002 84B0     		sub	sp, sp, #16
 867              		.cfi_def_cfa_offset 24
 868 0004 00AF     		add	r7, sp, #0
 869              		.cfi_def_cfa_register 7
 870 0006 7860     		str	r0, [r7, #4]
 871 0008 3960     		str	r1, [r7]
 278:..\..\..\lvgl\version_6.1.2\lvgl\src\lv_objx/lv_cpicker.c ****     lv_color32_t c32;
 279:..\..\..\lvgl\version_6.1.2\lvgl\src\lv_objx/lv_cpicker.c ****     c32.full = lv_color_to32(color);
 872              		.loc 3 279 0
 873 000a 3868     		ldr	r0, [r7]
 874 000c FFF7FEFF 		bl	lv_color_to32
 875 0010 0346     		mov	r3, r0
 876 0012 BB60     		str	r3, [r7, #8]
 280:..\..\..\lvgl\version_6.1.2\lvgl\src\lv_objx/lv_cpicker.c **** 
 281:..\..\..\lvgl\version_6.1.2\lvgl\src\lv_objx/lv_cpicker.c ****     return lv_cpicker_set_hsv(cpicker,
 877              		.loc 3 281 0
 878 0014 BB7A     		ldrb	r3, [r7, #10]	@ zero_extendqisi2
 879 0016 797A     		ldrb	r1, [r7, #9]	@ zero_extendqisi2
 880 0018 3A7A     		ldrb	r2, [r7, #8]	@ zero_extendqisi2
 881 001a 1846     		mov	r0, r3
 882 001c FFF7FEFF 		bl	lv_color_rgb_to_hsv
 883 0020 0346     		mov	r3, r0
 884 0022 FB60     		str	r3, [r7, #12]
 885 0024 F968     		ldr	r1, [r7, #12]
 886 0026 7868     		ldr	r0, [r7, #4]
 887 0028 FFF7FEFF 		bl	lv_cpicker_set_hsv
 888 002c 0346     		mov	r3, r0
 282:..\..\..\lvgl\version_6.1.2\lvgl\src\lv_objx/lv_cpicker.c ****             lv_color_rgb_to_hsv(c32.ch.red, c32.ch.green, c32.ch.blue));
 283:..\..\..\lvgl\version_6.1.2\lvgl\src\lv_objx/lv_cpicker.c **** }
 889              		.loc 3 283 0
 890 002e 1846     		mov	r0, r3
 891 0030 1037     		adds	r7, r7, #16
 892              		.cfi_def_cfa_offset 8
ARM GAS  C:\Users\tmj32\AppData\Local\Temp\cc11CUDk.s 			page 31


 893 0032 BD46     		mov	sp, r7
 894              		.cfi_def_cfa_register 13
 895              		@ sp needed
 896 0034 80BD     		pop	{r7, pc}
 897              		.cfi_endproc
 898              	.LFE38:
 899              		.size	lv_cpicker_set_color, .-lv_cpicker_set_color
 900 0036 00BF     		.section	.text.lv_cpicker_set_color_mode,"ax",%progbits
 901              		.align	2
 902              		.global	lv_cpicker_set_color_mode
 903              		.thumb
 904              		.thumb_func
 905              		.type	lv_cpicker_set_color_mode, %function
 906              	lv_cpicker_set_color_mode:
 907              	.LFB39:
 284:..\..\..\lvgl\version_6.1.2\lvgl\src\lv_objx/lv_cpicker.c **** 
 285:..\..\..\lvgl\version_6.1.2\lvgl\src\lv_objx/lv_cpicker.c **** /**
 286:..\..\..\lvgl\version_6.1.2\lvgl\src\lv_objx/lv_cpicker.c ****  * Set the current color mode.
 287:..\..\..\lvgl\version_6.1.2\lvgl\src\lv_objx/lv_cpicker.c ****  * @param cpicker pointer to colorpicker object
 288:..\..\..\lvgl\version_6.1.2\lvgl\src\lv_objx/lv_cpicker.c ****  * @param mode color mode (hue/sat/val)
 289:..\..\..\lvgl\version_6.1.2\lvgl\src\lv_objx/lv_cpicker.c ****  */
 290:..\..\..\lvgl\version_6.1.2\lvgl\src\lv_objx/lv_cpicker.c **** void lv_cpicker_set_color_mode(lv_obj_t * cpicker, lv_cpicker_color_mode_t mode)
 291:..\..\..\lvgl\version_6.1.2\lvgl\src\lv_objx/lv_cpicker.c **** {
 908              		.loc 3 291 0
 909              		.cfi_startproc
 910              		@ args = 0, pretend = 0, frame = 16
 911              		@ frame_needed = 1, uses_anonymous_args = 0
 912 0000 80B5     		push	{r7, lr}
 913              		.cfi_def_cfa_offset 8
 914              		.cfi_offset 7, -8
 915              		.cfi_offset 14, -4
 916 0002 84B0     		sub	sp, sp, #16
 917              		.cfi_def_cfa_offset 24
 918 0004 00AF     		add	r7, sp, #0
 919              		.cfi_def_cfa_register 7
 920 0006 7860     		str	r0, [r7, #4]
 921 0008 0B46     		mov	r3, r1
 922 000a FB70     		strb	r3, [r7, #3]
 292:..\..\..\lvgl\version_6.1.2\lvgl\src\lv_objx/lv_cpicker.c ****     LV_ASSERT_OBJ(cpicker, LV_OBJX_NAME);
 293:..\..\..\lvgl\version_6.1.2\lvgl\src\lv_objx/lv_cpicker.c **** 
 294:..\..\..\lvgl\version_6.1.2\lvgl\src\lv_objx/lv_cpicker.c ****     lv_cpicker_ext_t * ext = lv_obj_get_ext_attr(cpicker);
 923              		.loc 3 294 0
 924 000c 7868     		ldr	r0, [r7, #4]
 925 000e FFF7FEFF 		bl	lv_obj_get_ext_attr
 926 0012 F860     		str	r0, [r7, #12]
 295:..\..\..\lvgl\version_6.1.2\lvgl\src\lv_objx/lv_cpicker.c **** 
 296:..\..\..\lvgl\version_6.1.2\lvgl\src\lv_objx/lv_cpicker.c ****     ext->color_mode = mode;
 927              		.loc 3 296 0
 928 0014 FB78     		ldrb	r3, [r7, #3]
 929 0016 03F00303 		and	r3, r3, #3
 930 001a D9B2     		uxtb	r1, r3
 931 001c FA68     		ldr	r2, [r7, #12]
 932 001e 137F     		ldrb	r3, [r2, #28]
 933 0020 61F30103 		bfi	r3, r1, #0, #2
 934 0024 1377     		strb	r3, [r2, #28]
 297:..\..\..\lvgl\version_6.1.2\lvgl\src\lv_objx/lv_cpicker.c ****     refr_indic_pos(cpicker);
 935              		.loc 3 297 0
ARM GAS  C:\Users\tmj32\AppData\Local\Temp\cc11CUDk.s 			page 32


 936 0026 7868     		ldr	r0, [r7, #4]
 937 0028 FFF7FEFF 		bl	refr_indic_pos
 298:..\..\..\lvgl\version_6.1.2\lvgl\src\lv_objx/lv_cpicker.c ****     lv_obj_invalidate(cpicker);
 938              		.loc 3 298 0
 939 002c 7868     		ldr	r0, [r7, #4]
 940 002e FFF7FEFF 		bl	lv_obj_invalidate
 299:..\..\..\lvgl\version_6.1.2\lvgl\src\lv_objx/lv_cpicker.c **** }
 941              		.loc 3 299 0
 942 0032 00BF     		nop
 943 0034 1037     		adds	r7, r7, #16
 944              		.cfi_def_cfa_offset 8
 945 0036 BD46     		mov	sp, r7
 946              		.cfi_def_cfa_register 13
 947              		@ sp needed
 948 0038 80BD     		pop	{r7, pc}
 949              		.cfi_endproc
 950              	.LFE39:
 951              		.size	lv_cpicker_set_color_mode, .-lv_cpicker_set_color_mode
 952 003a 00BF     		.section	.text.lv_cpicker_set_color_mode_fixed,"ax",%progbits
 953              		.align	2
 954              		.global	lv_cpicker_set_color_mode_fixed
 955              		.thumb
 956              		.thumb_func
 957              		.type	lv_cpicker_set_color_mode_fixed, %function
 958              	lv_cpicker_set_color_mode_fixed:
 959              	.LFB40:
 300:..\..\..\lvgl\version_6.1.2\lvgl\src\lv_objx/lv_cpicker.c **** 
 301:..\..\..\lvgl\version_6.1.2\lvgl\src\lv_objx/lv_cpicker.c **** /**
 302:..\..\..\lvgl\version_6.1.2\lvgl\src\lv_objx/lv_cpicker.c ****  * Set if the color mode is changed on long press on center
 303:..\..\..\lvgl\version_6.1.2\lvgl\src\lv_objx/lv_cpicker.c ****  * @param cpicker pointer to colorpicker object
 304:..\..\..\lvgl\version_6.1.2\lvgl\src\lv_objx/lv_cpicker.c ****  * @param fixed color mode cannot be changed on long press
 305:..\..\..\lvgl\version_6.1.2\lvgl\src\lv_objx/lv_cpicker.c ****  */
 306:..\..\..\lvgl\version_6.1.2\lvgl\src\lv_objx/lv_cpicker.c **** void lv_cpicker_set_color_mode_fixed(lv_obj_t * cpicker, bool fixed)
 307:..\..\..\lvgl\version_6.1.2\lvgl\src\lv_objx/lv_cpicker.c **** {
 960              		.loc 3 307 0
 961              		.cfi_startproc
 962              		@ args = 0, pretend = 0, frame = 16
 963              		@ frame_needed = 1, uses_anonymous_args = 0
 964 0000 80B5     		push	{r7, lr}
 965              		.cfi_def_cfa_offset 8
 966              		.cfi_offset 7, -8
 967              		.cfi_offset 14, -4
 968 0002 84B0     		sub	sp, sp, #16
 969              		.cfi_def_cfa_offset 24
 970 0004 00AF     		add	r7, sp, #0
 971              		.cfi_def_cfa_register 7
 972 0006 7860     		str	r0, [r7, #4]
 973 0008 0B46     		mov	r3, r1
 974 000a FB70     		strb	r3, [r7, #3]
 308:..\..\..\lvgl\version_6.1.2\lvgl\src\lv_objx/lv_cpicker.c ****     LV_ASSERT_OBJ(cpicker, LV_OBJX_NAME);
 309:..\..\..\lvgl\version_6.1.2\lvgl\src\lv_objx/lv_cpicker.c **** 
 310:..\..\..\lvgl\version_6.1.2\lvgl\src\lv_objx/lv_cpicker.c ****     lv_cpicker_ext_t * ext = lv_obj_get_ext_attr(cpicker);
 975              		.loc 3 310 0
 976 000c 7868     		ldr	r0, [r7, #4]
 977 000e FFF7FEFF 		bl	lv_obj_get_ext_attr
 978 0012 F860     		str	r0, [r7, #12]
 311:..\..\..\lvgl\version_6.1.2\lvgl\src\lv_objx/lv_cpicker.c **** 
ARM GAS  C:\Users\tmj32\AppData\Local\Temp\cc11CUDk.s 			page 33


 312:..\..\..\lvgl\version_6.1.2\lvgl\src\lv_objx/lv_cpicker.c ****     ext->color_mode_fixed = fixed;
 979              		.loc 3 312 0
 980 0014 FA68     		ldr	r2, [r7, #12]
 981 0016 137F     		ldrb	r3, [r2, #28]
 982 0018 F978     		ldrb	r1, [r7, #3]
 983 001a 61F38203 		bfi	r3, r1, #2, #1
 984 001e 1377     		strb	r3, [r2, #28]
 313:..\..\..\lvgl\version_6.1.2\lvgl\src\lv_objx/lv_cpicker.c **** }
 985              		.loc 3 313 0
 986 0020 00BF     		nop
 987 0022 1037     		adds	r7, r7, #16
 988              		.cfi_def_cfa_offset 8
 989 0024 BD46     		mov	sp, r7
 990              		.cfi_def_cfa_register 13
 991              		@ sp needed
 992 0026 80BD     		pop	{r7, pc}
 993              		.cfi_endproc
 994              	.LFE40:
 995              		.size	lv_cpicker_set_color_mode_fixed, .-lv_cpicker_set_color_mode_fixed
 996              		.section	.text.lv_cpicker_set_indic_colored,"ax",%progbits
 997              		.align	2
 998              		.global	lv_cpicker_set_indic_colored
 999              		.thumb
 1000              		.thumb_func
 1001              		.type	lv_cpicker_set_indic_colored, %function
 1002              	lv_cpicker_set_indic_colored:
 1003              	.LFB41:
 314:..\..\..\lvgl\version_6.1.2\lvgl\src\lv_objx/lv_cpicker.c **** 
 315:..\..\..\lvgl\version_6.1.2\lvgl\src\lv_objx/lv_cpicker.c **** /**
 316:..\..\..\lvgl\version_6.1.2\lvgl\src\lv_objx/lv_cpicker.c ****  * Make the indicator to be colored to the current color
 317:..\..\..\lvgl\version_6.1.2\lvgl\src\lv_objx/lv_cpicker.c ****  * @param cpicker pointer to colorpicker object
 318:..\..\..\lvgl\version_6.1.2\lvgl\src\lv_objx/lv_cpicker.c ****  * @param en true: color the indicator; false: not color the indicator
 319:..\..\..\lvgl\version_6.1.2\lvgl\src\lv_objx/lv_cpicker.c ****  */
 320:..\..\..\lvgl\version_6.1.2\lvgl\src\lv_objx/lv_cpicker.c **** void lv_cpicker_set_indic_colored(lv_obj_t * cpicker, bool en)
 321:..\..\..\lvgl\version_6.1.2\lvgl\src\lv_objx/lv_cpicker.c **** {
 1004              		.loc 3 321 0
 1005              		.cfi_startproc
 1006              		@ args = 0, pretend = 0, frame = 16
 1007              		@ frame_needed = 1, uses_anonymous_args = 0
 1008 0000 80B5     		push	{r7, lr}
 1009              		.cfi_def_cfa_offset 8
 1010              		.cfi_offset 7, -8
 1011              		.cfi_offset 14, -4
 1012 0002 84B0     		sub	sp, sp, #16
 1013              		.cfi_def_cfa_offset 24
 1014 0004 00AF     		add	r7, sp, #0
 1015              		.cfi_def_cfa_register 7
 1016 0006 7860     		str	r0, [r7, #4]
 1017 0008 0B46     		mov	r3, r1
 1018 000a FB70     		strb	r3, [r7, #3]
 322:..\..\..\lvgl\version_6.1.2\lvgl\src\lv_objx/lv_cpicker.c ****     LV_ASSERT_OBJ(cpicker, LV_OBJX_NAME);
 323:..\..\..\lvgl\version_6.1.2\lvgl\src\lv_objx/lv_cpicker.c **** 
 324:..\..\..\lvgl\version_6.1.2\lvgl\src\lv_objx/lv_cpicker.c ****     lv_cpicker_ext_t * ext = lv_obj_get_ext_attr(cpicker);
 1019              		.loc 3 324 0
 1020 000c 7868     		ldr	r0, [r7, #4]
 1021 000e FFF7FEFF 		bl	lv_obj_get_ext_attr
 1022 0012 F860     		str	r0, [r7, #12]
ARM GAS  C:\Users\tmj32\AppData\Local\Temp\cc11CUDk.s 			page 34


 325:..\..\..\lvgl\version_6.1.2\lvgl\src\lv_objx/lv_cpicker.c ****     ext->indic.colored = en ? 1 : 0;
 1023              		.loc 3 325 0
 1024 0014 FB78     		ldrb	r3, [r7, #3]	@ zero_extendqisi2
 1025 0016 03F00103 		and	r3, r3, #1
 1026 001a D9B2     		uxtb	r1, r3
 1027 001c FA68     		ldr	r2, [r7, #12]
 1028 001e 137B     		ldrb	r3, [r2, #12]
 1029 0020 61F30003 		bfi	r3, r1, #0, #1
 1030 0024 1373     		strb	r3, [r2, #12]
 326:..\..\..\lvgl\version_6.1.2\lvgl\src\lv_objx/lv_cpicker.c ****     invalidate_indic(cpicker);
 1031              		.loc 3 326 0
 1032 0026 7868     		ldr	r0, [r7, #4]
 1033 0028 FFF7FEFF 		bl	invalidate_indic
 327:..\..\..\lvgl\version_6.1.2\lvgl\src\lv_objx/lv_cpicker.c **** }
 1034              		.loc 3 327 0
 1035 002c 00BF     		nop
 1036 002e 1037     		adds	r7, r7, #16
 1037              		.cfi_def_cfa_offset 8
 1038 0030 BD46     		mov	sp, r7
 1039              		.cfi_def_cfa_register 13
 1040              		@ sp needed
 1041 0032 80BD     		pop	{r7, pc}
 1042              		.cfi_endproc
 1043              	.LFE41:
 1044              		.size	lv_cpicker_set_indic_colored, .-lv_cpicker_set_indic_colored
 1045              		.section	.text.lv_cpicker_set_preview,"ax",%progbits
 1046              		.align	2
 1047              		.global	lv_cpicker_set_preview
 1048              		.thumb
 1049              		.thumb_func
 1050              		.type	lv_cpicker_set_preview, %function
 1051              	lv_cpicker_set_preview:
 1052              	.LFB42:
 328:..\..\..\lvgl\version_6.1.2\lvgl\src\lv_objx/lv_cpicker.c **** 
 329:..\..\..\lvgl\version_6.1.2\lvgl\src\lv_objx/lv_cpicker.c **** /**
 330:..\..\..\lvgl\version_6.1.2\lvgl\src\lv_objx/lv_cpicker.c ****  * Add a color preview in the middle of the DISC type color picker
 331:..\..\..\lvgl\version_6.1.2\lvgl\src\lv_objx/lv_cpicker.c ****  * @param cpicker pointer to colorpicker object
 332:..\..\..\lvgl\version_6.1.2\lvgl\src\lv_objx/lv_cpicker.c ****  * @param en true: enable preview; false: disable preview
 333:..\..\..\lvgl\version_6.1.2\lvgl\src\lv_objx/lv_cpicker.c ****  */
 334:..\..\..\lvgl\version_6.1.2\lvgl\src\lv_objx/lv_cpicker.c **** void lv_cpicker_set_preview(lv_obj_t * cpicker, bool en)
 335:..\..\..\lvgl\version_6.1.2\lvgl\src\lv_objx/lv_cpicker.c **** {
 1053              		.loc 3 335 0
 1054              		.cfi_startproc
 1055              		@ args = 0, pretend = 0, frame = 16
 1056              		@ frame_needed = 1, uses_anonymous_args = 0
 1057 0000 80B5     		push	{r7, lr}
 1058              		.cfi_def_cfa_offset 8
 1059              		.cfi_offset 7, -8
 1060              		.cfi_offset 14, -4
 1061 0002 84B0     		sub	sp, sp, #16
 1062              		.cfi_def_cfa_offset 24
 1063 0004 00AF     		add	r7, sp, #0
 1064              		.cfi_def_cfa_register 7
 1065 0006 7860     		str	r0, [r7, #4]
 1066 0008 0B46     		mov	r3, r1
 1067 000a FB70     		strb	r3, [r7, #3]
 336:..\..\..\lvgl\version_6.1.2\lvgl\src\lv_objx/lv_cpicker.c ****     LV_ASSERT_OBJ(cpicker, LV_OBJX_NAME);
ARM GAS  C:\Users\tmj32\AppData\Local\Temp\cc11CUDk.s 			page 35


 337:..\..\..\lvgl\version_6.1.2\lvgl\src\lv_objx/lv_cpicker.c **** 
 338:..\..\..\lvgl\version_6.1.2\lvgl\src\lv_objx/lv_cpicker.c ****     lv_cpicker_ext_t * ext = lv_obj_get_ext_attr(cpicker);
 1068              		.loc 3 338 0
 1069 000c 7868     		ldr	r0, [r7, #4]
 1070 000e FFF7FEFF 		bl	lv_obj_get_ext_attr
 1071 0012 F860     		str	r0, [r7, #12]
 339:..\..\..\lvgl\version_6.1.2\lvgl\src\lv_objx/lv_cpicker.c ****     ext->preview = en ? 1 : 0;
 1072              		.loc 3 339 0
 1073 0014 FB78     		ldrb	r3, [r7, #3]	@ zero_extendqisi2
 1074 0016 03F00103 		and	r3, r3, #1
 1075 001a D9B2     		uxtb	r1, r3
 1076 001c FA68     		ldr	r2, [r7, #12]
 1077 001e 137F     		ldrb	r3, [r2, #28]
 1078 0020 61F30413 		bfi	r3, r1, #4, #1
 1079 0024 1377     		strb	r3, [r2, #28]
 340:..\..\..\lvgl\version_6.1.2\lvgl\src\lv_objx/lv_cpicker.c ****     lv_obj_invalidate(cpicker);
 1080              		.loc 3 340 0
 1081 0026 7868     		ldr	r0, [r7, #4]
 1082 0028 FFF7FEFF 		bl	lv_obj_invalidate
 341:..\..\..\lvgl\version_6.1.2\lvgl\src\lv_objx/lv_cpicker.c **** }
 1083              		.loc 3 341 0
 1084 002c 00BF     		nop
 1085 002e 1037     		adds	r7, r7, #16
 1086              		.cfi_def_cfa_offset 8
 1087 0030 BD46     		mov	sp, r7
 1088              		.cfi_def_cfa_register 13
 1089              		@ sp needed
 1090 0032 80BD     		pop	{r7, pc}
 1091              		.cfi_endproc
 1092              	.LFE42:
 1093              		.size	lv_cpicker_set_preview, .-lv_cpicker_set_preview
 1094              		.section	.text.lv_cpicker_get_color_mode,"ax",%progbits
 1095              		.align	2
 1096              		.global	lv_cpicker_get_color_mode
 1097              		.thumb
 1098              		.thumb_func
 1099              		.type	lv_cpicker_get_color_mode, %function
 1100              	lv_cpicker_get_color_mode:
 1101              	.LFB43:
 342:..\..\..\lvgl\version_6.1.2\lvgl\src\lv_objx/lv_cpicker.c **** /*=====================
 343:..\..\..\lvgl\version_6.1.2\lvgl\src\lv_objx/lv_cpicker.c ****  * Getter functions
 344:..\..\..\lvgl\version_6.1.2\lvgl\src\lv_objx/lv_cpicker.c ****  *====================*/
 345:..\..\..\lvgl\version_6.1.2\lvgl\src\lv_objx/lv_cpicker.c **** 
 346:..\..\..\lvgl\version_6.1.2\lvgl\src\lv_objx/lv_cpicker.c **** /** 
 347:..\..\..\lvgl\version_6.1.2\lvgl\src\lv_objx/lv_cpicker.c ****  * Get the current color mode.
 348:..\..\..\lvgl\version_6.1.2\lvgl\src\lv_objx/lv_cpicker.c ****  * @param cpicker pointer to colorpicker object
 349:..\..\..\lvgl\version_6.1.2\lvgl\src\lv_objx/lv_cpicker.c ****  * @return color mode (hue/sat/val)
 350:..\..\..\lvgl\version_6.1.2\lvgl\src\lv_objx/lv_cpicker.c ****  */
 351:..\..\..\lvgl\version_6.1.2\lvgl\src\lv_objx/lv_cpicker.c **** lv_cpicker_color_mode_t lv_cpicker_get_color_mode(lv_obj_t * cpicker)
 352:..\..\..\lvgl\version_6.1.2\lvgl\src\lv_objx/lv_cpicker.c **** {
 1102              		.loc 3 352 0
 1103              		.cfi_startproc
 1104              		@ args = 0, pretend = 0, frame = 16
 1105              		@ frame_needed = 1, uses_anonymous_args = 0
 1106 0000 80B5     		push	{r7, lr}
 1107              		.cfi_def_cfa_offset 8
 1108              		.cfi_offset 7, -8
ARM GAS  C:\Users\tmj32\AppData\Local\Temp\cc11CUDk.s 			page 36


 1109              		.cfi_offset 14, -4
 1110 0002 84B0     		sub	sp, sp, #16
 1111              		.cfi_def_cfa_offset 24
 1112 0004 00AF     		add	r7, sp, #0
 1113              		.cfi_def_cfa_register 7
 1114 0006 7860     		str	r0, [r7, #4]
 353:..\..\..\lvgl\version_6.1.2\lvgl\src\lv_objx/lv_cpicker.c ****     LV_ASSERT_OBJ(cpicker, LV_OBJX_NAME);
 354:..\..\..\lvgl\version_6.1.2\lvgl\src\lv_objx/lv_cpicker.c **** 
 355:..\..\..\lvgl\version_6.1.2\lvgl\src\lv_objx/lv_cpicker.c ****     lv_cpicker_ext_t * ext = lv_obj_get_ext_attr(cpicker);
 1115              		.loc 3 355 0
 1116 0008 7868     		ldr	r0, [r7, #4]
 1117 000a FFF7FEFF 		bl	lv_obj_get_ext_attr
 1118 000e F860     		str	r0, [r7, #12]
 356:..\..\..\lvgl\version_6.1.2\lvgl\src\lv_objx/lv_cpicker.c **** 
 357:..\..\..\lvgl\version_6.1.2\lvgl\src\lv_objx/lv_cpicker.c ****     return ext->color_mode;
 1119              		.loc 3 357 0
 1120 0010 FB68     		ldr	r3, [r7, #12]
 1121 0012 1B7F     		ldrb	r3, [r3, #28]
 1122 0014 C3F30103 		ubfx	r3, r3, #0, #2
 1123 0018 DBB2     		uxtb	r3, r3
 358:..\..\..\lvgl\version_6.1.2\lvgl\src\lv_objx/lv_cpicker.c **** }
 1124              		.loc 3 358 0
 1125 001a 1846     		mov	r0, r3
 1126 001c 1037     		adds	r7, r7, #16
 1127              		.cfi_def_cfa_offset 8
 1128 001e BD46     		mov	sp, r7
 1129              		.cfi_def_cfa_register 13
 1130              		@ sp needed
 1131 0020 80BD     		pop	{r7, pc}
 1132              		.cfi_endproc
 1133              	.LFE43:
 1134              		.size	lv_cpicker_get_color_mode, .-lv_cpicker_get_color_mode
 1135 0022 00BF     		.section	.text.lv_cpicker_get_color_mode_fixed,"ax",%progbits
 1136              		.align	2
 1137              		.global	lv_cpicker_get_color_mode_fixed
 1138              		.thumb
 1139              		.thumb_func
 1140              		.type	lv_cpicker_get_color_mode_fixed, %function
 1141              	lv_cpicker_get_color_mode_fixed:
 1142              	.LFB44:
 359:..\..\..\lvgl\version_6.1.2\lvgl\src\lv_objx/lv_cpicker.c **** 
 360:..\..\..\lvgl\version_6.1.2\lvgl\src\lv_objx/lv_cpicker.c **** /**
 361:..\..\..\lvgl\version_6.1.2\lvgl\src\lv_objx/lv_cpicker.c ****  * Get if the color mode is changed on long press on center
 362:..\..\..\lvgl\version_6.1.2\lvgl\src\lv_objx/lv_cpicker.c ****  * @param cpicker pointer to colorpicker object
 363:..\..\..\lvgl\version_6.1.2\lvgl\src\lv_objx/lv_cpicker.c ****  * @return mode cannot be changed on long press
 364:..\..\..\lvgl\version_6.1.2\lvgl\src\lv_objx/lv_cpicker.c ****  */
 365:..\..\..\lvgl\version_6.1.2\lvgl\src\lv_objx/lv_cpicker.c **** bool lv_cpicker_get_color_mode_fixed(lv_obj_t * cpicker)
 366:..\..\..\lvgl\version_6.1.2\lvgl\src\lv_objx/lv_cpicker.c **** {
 1143              		.loc 3 366 0
 1144              		.cfi_startproc
 1145              		@ args = 0, pretend = 0, frame = 16
 1146              		@ frame_needed = 1, uses_anonymous_args = 0
 1147 0000 80B5     		push	{r7, lr}
 1148              		.cfi_def_cfa_offset 8
 1149              		.cfi_offset 7, -8
 1150              		.cfi_offset 14, -4
 1151 0002 84B0     		sub	sp, sp, #16
ARM GAS  C:\Users\tmj32\AppData\Local\Temp\cc11CUDk.s 			page 37


 1152              		.cfi_def_cfa_offset 24
 1153 0004 00AF     		add	r7, sp, #0
 1154              		.cfi_def_cfa_register 7
 1155 0006 7860     		str	r0, [r7, #4]
 367:..\..\..\lvgl\version_6.1.2\lvgl\src\lv_objx/lv_cpicker.c ****     LV_ASSERT_OBJ(cpicker, LV_OBJX_NAME);
 368:..\..\..\lvgl\version_6.1.2\lvgl\src\lv_objx/lv_cpicker.c **** 
 369:..\..\..\lvgl\version_6.1.2\lvgl\src\lv_objx/lv_cpicker.c ****     lv_cpicker_ext_t * ext = lv_obj_get_ext_attr(cpicker);
 1156              		.loc 3 369 0
 1157 0008 7868     		ldr	r0, [r7, #4]
 1158 000a FFF7FEFF 		bl	lv_obj_get_ext_attr
 1159 000e F860     		str	r0, [r7, #12]
 370:..\..\..\lvgl\version_6.1.2\lvgl\src\lv_objx/lv_cpicker.c **** 
 371:..\..\..\lvgl\version_6.1.2\lvgl\src\lv_objx/lv_cpicker.c ****     return ext->color_mode_fixed;
 1160              		.loc 3 371 0
 1161 0010 FB68     		ldr	r3, [r7, #12]
 1162 0012 1B7F     		ldrb	r3, [r3, #28]
 1163 0014 C3F38003 		ubfx	r3, r3, #2, #1
 1164 0018 DBB2     		uxtb	r3, r3
 1165 001a 002B     		cmp	r3, #0
 1166 001c 14BF     		ite	ne
 1167 001e 0123     		movne	r3, #1
 1168 0020 0023     		moveq	r3, #0
 1169 0022 DBB2     		uxtb	r3, r3
 372:..\..\..\lvgl\version_6.1.2\lvgl\src\lv_objx/lv_cpicker.c **** }
 1170              		.loc 3 372 0
 1171 0024 1846     		mov	r0, r3
 1172 0026 1037     		adds	r7, r7, #16
 1173              		.cfi_def_cfa_offset 8
 1174 0028 BD46     		mov	sp, r7
 1175              		.cfi_def_cfa_register 13
 1176              		@ sp needed
 1177 002a 80BD     		pop	{r7, pc}
 1178              		.cfi_endproc
 1179              	.LFE44:
 1180              		.size	lv_cpicker_get_color_mode_fixed, .-lv_cpicker_get_color_mode_fixed
 1181              		.section	.text.lv_cpicker_get_style,"ax",%progbits
 1182              		.align	2
 1183              		.global	lv_cpicker_get_style
 1184              		.thumb
 1185              		.thumb_func
 1186              		.type	lv_cpicker_get_style, %function
 1187              	lv_cpicker_get_style:
 1188              	.LFB45:
 373:..\..\..\lvgl\version_6.1.2\lvgl\src\lv_objx/lv_cpicker.c **** 
 374:..\..\..\lvgl\version_6.1.2\lvgl\src\lv_objx/lv_cpicker.c **** /**
 375:..\..\..\lvgl\version_6.1.2\lvgl\src\lv_objx/lv_cpicker.c ****  * Get style of a color_picker.
 376:..\..\..\lvgl\version_6.1.2\lvgl\src\lv_objx/lv_cpicker.c ****  * @param cpicker pointer to color_picker object
 377:..\..\..\lvgl\version_6.1.2\lvgl\src\lv_objx/lv_cpicker.c ****  * @param type which style should be get
 378:..\..\..\lvgl\version_6.1.2\lvgl\src\lv_objx/lv_cpicker.c ****  * @return style pointer to the style
 379:..\..\..\lvgl\version_6.1.2\lvgl\src\lv_objx/lv_cpicker.c ****  */
 380:..\..\..\lvgl\version_6.1.2\lvgl\src\lv_objx/lv_cpicker.c **** const lv_style_t * lv_cpicker_get_style(const lv_obj_t * cpicker, lv_cpicker_style_t type)
 381:..\..\..\lvgl\version_6.1.2\lvgl\src\lv_objx/lv_cpicker.c **** {
 1189              		.loc 3 381 0
 1190              		.cfi_startproc
 1191              		@ args = 0, pretend = 0, frame = 16
 1192              		@ frame_needed = 1, uses_anonymous_args = 0
 1193 0000 80B5     		push	{r7, lr}
ARM GAS  C:\Users\tmj32\AppData\Local\Temp\cc11CUDk.s 			page 38


 1194              		.cfi_def_cfa_offset 8
 1195              		.cfi_offset 7, -8
 1196              		.cfi_offset 14, -4
 1197 0002 84B0     		sub	sp, sp, #16
 1198              		.cfi_def_cfa_offset 24
 1199 0004 00AF     		add	r7, sp, #0
 1200              		.cfi_def_cfa_register 7
 1201 0006 7860     		str	r0, [r7, #4]
 1202 0008 0B46     		mov	r3, r1
 1203 000a FB70     		strb	r3, [r7, #3]
 382:..\..\..\lvgl\version_6.1.2\lvgl\src\lv_objx/lv_cpicker.c ****     LV_ASSERT_OBJ(cpicker, LV_OBJX_NAME);
 383:..\..\..\lvgl\version_6.1.2\lvgl\src\lv_objx/lv_cpicker.c **** 
 384:..\..\..\lvgl\version_6.1.2\lvgl\src\lv_objx/lv_cpicker.c ****     lv_cpicker_ext_t * ext = lv_obj_get_ext_attr(cpicker);
 1204              		.loc 3 384 0
 1205 000c 7868     		ldr	r0, [r7, #4]
 1206 000e FFF7FEFF 		bl	lv_obj_get_ext_attr
 1207 0012 F860     		str	r0, [r7, #12]
 385:..\..\..\lvgl\version_6.1.2\lvgl\src\lv_objx/lv_cpicker.c **** 
 386:..\..\..\lvgl\version_6.1.2\lvgl\src\lv_objx/lv_cpicker.c ****     switch(type) {
 1208              		.loc 3 386 0
 1209 0014 FB78     		ldrb	r3, [r7, #3]	@ zero_extendqisi2
 1210 0016 002B     		cmp	r3, #0
 1211 0018 02D0     		beq	.L56
 1212 001a 012B     		cmp	r3, #1
 1213 001c 05D0     		beq	.L57
 1214 001e 07E0     		b	.L59
 1215              	.L56:
 387:..\..\..\lvgl\version_6.1.2\lvgl\src\lv_objx/lv_cpicker.c ****     case LV_CPICKER_STYLE_MAIN:
 388:..\..\..\lvgl\version_6.1.2\lvgl\src\lv_objx/lv_cpicker.c ****         return lv_obj_get_style(cpicker);
 1216              		.loc 3 388 0
 1217 0020 7868     		ldr	r0, [r7, #4]
 1218 0022 FFF7FEFF 		bl	lv_obj_get_style
 1219 0026 0346     		mov	r3, r0
 1220 0028 03E0     		b	.L58
 1221              	.L57:
 389:..\..\..\lvgl\version_6.1.2\lvgl\src\lv_objx/lv_cpicker.c ****     case LV_CPICKER_STYLE_INDICATOR:
 390:..\..\..\lvgl\version_6.1.2\lvgl\src\lv_objx/lv_cpicker.c ****         return ext->indic.style;
 1222              		.loc 3 390 0
 1223 002a FB68     		ldr	r3, [r7, #12]
 1224 002c 5B68     		ldr	r3, [r3, #4]
 1225 002e 00E0     		b	.L58
 1226              	.L59:
 391:..\..\..\lvgl\version_6.1.2\lvgl\src\lv_objx/lv_cpicker.c ****     default:
 392:..\..\..\lvgl\version_6.1.2\lvgl\src\lv_objx/lv_cpicker.c ****         return NULL;
 1227              		.loc 3 392 0
 1228 0030 0023     		movs	r3, #0
 1229              	.L58:
 393:..\..\..\lvgl\version_6.1.2\lvgl\src\lv_objx/lv_cpicker.c ****     }
 394:..\..\..\lvgl\version_6.1.2\lvgl\src\lv_objx/lv_cpicker.c **** 
 395:..\..\..\lvgl\version_6.1.2\lvgl\src\lv_objx/lv_cpicker.c ****     /*To avoid warning*/
 396:..\..\..\lvgl\version_6.1.2\lvgl\src\lv_objx/lv_cpicker.c ****     return NULL;
 397:..\..\..\lvgl\version_6.1.2\lvgl\src\lv_objx/lv_cpicker.c **** }
 1230              		.loc 3 397 0
 1231 0032 1846     		mov	r0, r3
 1232 0034 1037     		adds	r7, r7, #16
 1233              		.cfi_def_cfa_offset 8
 1234 0036 BD46     		mov	sp, r7
ARM GAS  C:\Users\tmj32\AppData\Local\Temp\cc11CUDk.s 			page 39


 1235              		.cfi_def_cfa_register 13
 1236              		@ sp needed
 1237 0038 80BD     		pop	{r7, pc}
 1238              		.cfi_endproc
 1239              	.LFE45:
 1240              		.size	lv_cpicker_get_style, .-lv_cpicker_get_style
 1241 003a 00BF     		.section	.text.lv_cpicker_get_hue,"ax",%progbits
 1242              		.align	2
 1243              		.global	lv_cpicker_get_hue
 1244              		.thumb
 1245              		.thumb_func
 1246              		.type	lv_cpicker_get_hue, %function
 1247              	lv_cpicker_get_hue:
 1248              	.LFB46:
 398:..\..\..\lvgl\version_6.1.2\lvgl\src\lv_objx/lv_cpicker.c **** 
 399:..\..\..\lvgl\version_6.1.2\lvgl\src\lv_objx/lv_cpicker.c **** /**
 400:..\..\..\lvgl\version_6.1.2\lvgl\src\lv_objx/lv_cpicker.c ****  * Get the current selected hue of a colorpicker.
 401:..\..\..\lvgl\version_6.1.2\lvgl\src\lv_objx/lv_cpicker.c ****  * @param cpicker pointer to colorpicker object
 402:..\..\..\lvgl\version_6.1.2\lvgl\src\lv_objx/lv_cpicker.c ****  * @return hue current selected hue
 403:..\..\..\lvgl\version_6.1.2\lvgl\src\lv_objx/lv_cpicker.c ****  */
 404:..\..\..\lvgl\version_6.1.2\lvgl\src\lv_objx/lv_cpicker.c **** uint16_t lv_cpicker_get_hue(lv_obj_t * cpicker)
 405:..\..\..\lvgl\version_6.1.2\lvgl\src\lv_objx/lv_cpicker.c **** {
 1249              		.loc 3 405 0
 1250              		.cfi_startproc
 1251              		@ args = 0, pretend = 0, frame = 16
 1252              		@ frame_needed = 1, uses_anonymous_args = 0
 1253 0000 80B5     		push	{r7, lr}
 1254              		.cfi_def_cfa_offset 8
 1255              		.cfi_offset 7, -8
 1256              		.cfi_offset 14, -4
 1257 0002 84B0     		sub	sp, sp, #16
 1258              		.cfi_def_cfa_offset 24
 1259 0004 00AF     		add	r7, sp, #0
 1260              		.cfi_def_cfa_register 7
 1261 0006 7860     		str	r0, [r7, #4]
 406:..\..\..\lvgl\version_6.1.2\lvgl\src\lv_objx/lv_cpicker.c ****     LV_ASSERT_OBJ(cpicker, LV_OBJX_NAME);
 407:..\..\..\lvgl\version_6.1.2\lvgl\src\lv_objx/lv_cpicker.c **** 
 408:..\..\..\lvgl\version_6.1.2\lvgl\src\lv_objx/lv_cpicker.c ****     lv_cpicker_ext_t * ext = lv_obj_get_ext_attr(cpicker);
 1262              		.loc 3 408 0
 1263 0008 7868     		ldr	r0, [r7, #4]
 1264 000a FFF7FEFF 		bl	lv_obj_get_ext_attr
 1265 000e F860     		str	r0, [r7, #12]
 409:..\..\..\lvgl\version_6.1.2\lvgl\src\lv_objx/lv_cpicker.c **** 
 410:..\..\..\lvgl\version_6.1.2\lvgl\src\lv_objx/lv_cpicker.c ****     return ext->hsv.h;
 1266              		.loc 3 410 0
 1267 0010 FB68     		ldr	r3, [r7, #12]
 1268 0012 1B88     		ldrh	r3, [r3]
 411:..\..\..\lvgl\version_6.1.2\lvgl\src\lv_objx/lv_cpicker.c **** }
 1269              		.loc 3 411 0
 1270 0014 1846     		mov	r0, r3
 1271 0016 1037     		adds	r7, r7, #16
 1272              		.cfi_def_cfa_offset 8
 1273 0018 BD46     		mov	sp, r7
 1274              		.cfi_def_cfa_register 13
 1275              		@ sp needed
 1276 001a 80BD     		pop	{r7, pc}
 1277              		.cfi_endproc
ARM GAS  C:\Users\tmj32\AppData\Local\Temp\cc11CUDk.s 			page 40


 1278              	.LFE46:
 1279              		.size	lv_cpicker_get_hue, .-lv_cpicker_get_hue
 1280              		.section	.text.lv_cpicker_get_saturation,"ax",%progbits
 1281              		.align	2
 1282              		.global	lv_cpicker_get_saturation
 1283              		.thumb
 1284              		.thumb_func
 1285              		.type	lv_cpicker_get_saturation, %function
 1286              	lv_cpicker_get_saturation:
 1287              	.LFB47:
 412:..\..\..\lvgl\version_6.1.2\lvgl\src\lv_objx/lv_cpicker.c **** 
 413:..\..\..\lvgl\version_6.1.2\lvgl\src\lv_objx/lv_cpicker.c **** /**
 414:..\..\..\lvgl\version_6.1.2\lvgl\src\lv_objx/lv_cpicker.c ****  * Get the current selected saturation of a colorpicker.
 415:..\..\..\lvgl\version_6.1.2\lvgl\src\lv_objx/lv_cpicker.c ****  * @param cpicker pointer to colorpicker object
 416:..\..\..\lvgl\version_6.1.2\lvgl\src\lv_objx/lv_cpicker.c ****  * @return current selected saturation
 417:..\..\..\lvgl\version_6.1.2\lvgl\src\lv_objx/lv_cpicker.c ****  */
 418:..\..\..\lvgl\version_6.1.2\lvgl\src\lv_objx/lv_cpicker.c **** uint8_t lv_cpicker_get_saturation(lv_obj_t * cpicker)
 419:..\..\..\lvgl\version_6.1.2\lvgl\src\lv_objx/lv_cpicker.c **** {
 1288              		.loc 3 419 0
 1289              		.cfi_startproc
 1290              		@ args = 0, pretend = 0, frame = 16
 1291              		@ frame_needed = 1, uses_anonymous_args = 0
 1292 0000 80B5     		push	{r7, lr}
 1293              		.cfi_def_cfa_offset 8
 1294              		.cfi_offset 7, -8
 1295              		.cfi_offset 14, -4
 1296 0002 84B0     		sub	sp, sp, #16
 1297              		.cfi_def_cfa_offset 24
 1298 0004 00AF     		add	r7, sp, #0
 1299              		.cfi_def_cfa_register 7
 1300 0006 7860     		str	r0, [r7, #4]
 420:..\..\..\lvgl\version_6.1.2\lvgl\src\lv_objx/lv_cpicker.c ****     LV_ASSERT_OBJ(cpicker, LV_OBJX_NAME);
 421:..\..\..\lvgl\version_6.1.2\lvgl\src\lv_objx/lv_cpicker.c **** 
 422:..\..\..\lvgl\version_6.1.2\lvgl\src\lv_objx/lv_cpicker.c ****     lv_cpicker_ext_t * ext = lv_obj_get_ext_attr(cpicker);
 1301              		.loc 3 422 0
 1302 0008 7868     		ldr	r0, [r7, #4]
 1303 000a FFF7FEFF 		bl	lv_obj_get_ext_attr
 1304 000e F860     		str	r0, [r7, #12]
 423:..\..\..\lvgl\version_6.1.2\lvgl\src\lv_objx/lv_cpicker.c **** 
 424:..\..\..\lvgl\version_6.1.2\lvgl\src\lv_objx/lv_cpicker.c ****     return ext->hsv.s;
 1305              		.loc 3 424 0
 1306 0010 FB68     		ldr	r3, [r7, #12]
 1307 0012 9B78     		ldrb	r3, [r3, #2]	@ zero_extendqisi2
 425:..\..\..\lvgl\version_6.1.2\lvgl\src\lv_objx/lv_cpicker.c **** }
 1308              		.loc 3 425 0
 1309 0014 1846     		mov	r0, r3
 1310 0016 1037     		adds	r7, r7, #16
 1311              		.cfi_def_cfa_offset 8
 1312 0018 BD46     		mov	sp, r7
 1313              		.cfi_def_cfa_register 13
 1314              		@ sp needed
 1315 001a 80BD     		pop	{r7, pc}
 1316              		.cfi_endproc
 1317              	.LFE47:
 1318              		.size	lv_cpicker_get_saturation, .-lv_cpicker_get_saturation
 1319              		.section	.text.lv_cpicker_get_value,"ax",%progbits
 1320              		.align	2
ARM GAS  C:\Users\tmj32\AppData\Local\Temp\cc11CUDk.s 			page 41


 1321              		.global	lv_cpicker_get_value
 1322              		.thumb
 1323              		.thumb_func
 1324              		.type	lv_cpicker_get_value, %function
 1325              	lv_cpicker_get_value:
 1326              	.LFB48:
 426:..\..\..\lvgl\version_6.1.2\lvgl\src\lv_objx/lv_cpicker.c **** 
 427:..\..\..\lvgl\version_6.1.2\lvgl\src\lv_objx/lv_cpicker.c **** /**
 428:..\..\..\lvgl\version_6.1.2\lvgl\src\lv_objx/lv_cpicker.c ****  * Get the current selected hue of a colorpicker.
 429:..\..\..\lvgl\version_6.1.2\lvgl\src\lv_objx/lv_cpicker.c ****  * @param cpicker pointer to colorpicker object
 430:..\..\..\lvgl\version_6.1.2\lvgl\src\lv_objx/lv_cpicker.c ****  * @return current selected value
 431:..\..\..\lvgl\version_6.1.2\lvgl\src\lv_objx/lv_cpicker.c ****  */
 432:..\..\..\lvgl\version_6.1.2\lvgl\src\lv_objx/lv_cpicker.c **** uint8_t lv_cpicker_get_value(lv_obj_t * cpicker)
 433:..\..\..\lvgl\version_6.1.2\lvgl\src\lv_objx/lv_cpicker.c **** {
 1327              		.loc 3 433 0
 1328              		.cfi_startproc
 1329              		@ args = 0, pretend = 0, frame = 16
 1330              		@ frame_needed = 1, uses_anonymous_args = 0
 1331 0000 80B5     		push	{r7, lr}
 1332              		.cfi_def_cfa_offset 8
 1333              		.cfi_offset 7, -8
 1334              		.cfi_offset 14, -4
 1335 0002 84B0     		sub	sp, sp, #16
 1336              		.cfi_def_cfa_offset 24
 1337 0004 00AF     		add	r7, sp, #0
 1338              		.cfi_def_cfa_register 7
 1339 0006 7860     		str	r0, [r7, #4]
 434:..\..\..\lvgl\version_6.1.2\lvgl\src\lv_objx/lv_cpicker.c ****     LV_ASSERT_OBJ(cpicker, LV_OBJX_NAME);
 435:..\..\..\lvgl\version_6.1.2\lvgl\src\lv_objx/lv_cpicker.c **** 
 436:..\..\..\lvgl\version_6.1.2\lvgl\src\lv_objx/lv_cpicker.c ****     lv_cpicker_ext_t * ext = lv_obj_get_ext_attr(cpicker);
 1340              		.loc 3 436 0
 1341 0008 7868     		ldr	r0, [r7, #4]
 1342 000a FFF7FEFF 		bl	lv_obj_get_ext_attr
 1343 000e F860     		str	r0, [r7, #12]
 437:..\..\..\lvgl\version_6.1.2\lvgl\src\lv_objx/lv_cpicker.c **** 
 438:..\..\..\lvgl\version_6.1.2\lvgl\src\lv_objx/lv_cpicker.c ****     return ext->hsv.v;
 1344              		.loc 3 438 0
 1345 0010 FB68     		ldr	r3, [r7, #12]
 1346 0012 DB78     		ldrb	r3, [r3, #3]	@ zero_extendqisi2
 439:..\..\..\lvgl\version_6.1.2\lvgl\src\lv_objx/lv_cpicker.c **** }
 1347              		.loc 3 439 0
 1348 0014 1846     		mov	r0, r3
 1349 0016 1037     		adds	r7, r7, #16
 1350              		.cfi_def_cfa_offset 8
 1351 0018 BD46     		mov	sp, r7
 1352              		.cfi_def_cfa_register 13
 1353              		@ sp needed
 1354 001a 80BD     		pop	{r7, pc}
 1355              		.cfi_endproc
 1356              	.LFE48:
 1357              		.size	lv_cpicker_get_value, .-lv_cpicker_get_value
 1358              		.section	.text.lv_cpicker_get_hsv,"ax",%progbits
 1359              		.align	2
 1360              		.global	lv_cpicker_get_hsv
 1361              		.thumb
 1362              		.thumb_func
 1363              		.type	lv_cpicker_get_hsv, %function
ARM GAS  C:\Users\tmj32\AppData\Local\Temp\cc11CUDk.s 			page 42


 1364              	lv_cpicker_get_hsv:
 1365              	.LFB49:
 440:..\..\..\lvgl\version_6.1.2\lvgl\src\lv_objx/lv_cpicker.c **** 
 441:..\..\..\lvgl\version_6.1.2\lvgl\src\lv_objx/lv_cpicker.c **** /**
 442:..\..\..\lvgl\version_6.1.2\lvgl\src\lv_objx/lv_cpicker.c ****  * Get the current selected hsv of a colorpicker.
 443:..\..\..\lvgl\version_6.1.2\lvgl\src\lv_objx/lv_cpicker.c ****  * @param cpicker pointer to colorpicker object
 444:..\..\..\lvgl\version_6.1.2\lvgl\src\lv_objx/lv_cpicker.c ****  * @return current selected hsv
 445:..\..\..\lvgl\version_6.1.2\lvgl\src\lv_objx/lv_cpicker.c ****  */
 446:..\..\..\lvgl\version_6.1.2\lvgl\src\lv_objx/lv_cpicker.c **** lv_color_hsv_t lv_cpicker_get_hsv(lv_obj_t * cpicker)
 447:..\..\..\lvgl\version_6.1.2\lvgl\src\lv_objx/lv_cpicker.c **** {
 1366              		.loc 3 447 0
 1367              		.cfi_startproc
 1368              		@ args = 0, pretend = 0, frame = 16
 1369              		@ frame_needed = 1, uses_anonymous_args = 0
 1370 0000 80B5     		push	{r7, lr}
 1371              		.cfi_def_cfa_offset 8
 1372              		.cfi_offset 7, -8
 1373              		.cfi_offset 14, -4
 1374 0002 84B0     		sub	sp, sp, #16
 1375              		.cfi_def_cfa_offset 24
 1376 0004 00AF     		add	r7, sp, #0
 1377              		.cfi_def_cfa_register 7
 1378 0006 7860     		str	r0, [r7, #4]
 448:..\..\..\lvgl\version_6.1.2\lvgl\src\lv_objx/lv_cpicker.c ****     LV_ASSERT_OBJ(cpicker, LV_OBJX_NAME);
 449:..\..\..\lvgl\version_6.1.2\lvgl\src\lv_objx/lv_cpicker.c **** 
 450:..\..\..\lvgl\version_6.1.2\lvgl\src\lv_objx/lv_cpicker.c ****     lv_cpicker_ext_t * ext = lv_obj_get_ext_attr(cpicker);
 1379              		.loc 3 450 0
 1380 0008 7868     		ldr	r0, [r7, #4]
 1381 000a FFF7FEFF 		bl	lv_obj_get_ext_attr
 1382 000e F860     		str	r0, [r7, #12]
 451:..\..\..\lvgl\version_6.1.2\lvgl\src\lv_objx/lv_cpicker.c **** 
 452:..\..\..\lvgl\version_6.1.2\lvgl\src\lv_objx/lv_cpicker.c ****     return ext->hsv;
 1383              		.loc 3 452 0
 1384 0010 FB68     		ldr	r3, [r7, #12]
 1385 0012 1B68     		ldr	r3, [r3]
 1386 0014 BB60     		str	r3, [r7, #8]
 1387 0016 0023     		movs	r3, #0
 1388 0018 3A89     		ldrh	r2, [r7, #8]
 1389 001a 62F30F03 		bfi	r3, r2, #0, #16
 1390 001e 7A89     		ldrh	r2, [r7, #10]
 1391 0020 62F31F43 		bfi	r3, r2, #16, #16
 453:..\..\..\lvgl\version_6.1.2\lvgl\src\lv_objx/lv_cpicker.c **** }
 1392              		.loc 3 453 0
 1393 0024 1846     		mov	r0, r3
 1394 0026 1037     		adds	r7, r7, #16
 1395              		.cfi_def_cfa_offset 8
 1396 0028 BD46     		mov	sp, r7
 1397              		.cfi_def_cfa_register 13
 1398              		@ sp needed
 1399 002a 80BD     		pop	{r7, pc}
 1400              		.cfi_endproc
 1401              	.LFE49:
 1402              		.size	lv_cpicker_get_hsv, .-lv_cpicker_get_hsv
 1403              		.section	.text.lv_cpicker_get_color,"ax",%progbits
 1404              		.align	2
 1405              		.global	lv_cpicker_get_color
 1406              		.thumb
ARM GAS  C:\Users\tmj32\AppData\Local\Temp\cc11CUDk.s 			page 43


 1407              		.thumb_func
 1408              		.type	lv_cpicker_get_color, %function
 1409              	lv_cpicker_get_color:
 1410              	.LFB50:
 454:..\..\..\lvgl\version_6.1.2\lvgl\src\lv_objx/lv_cpicker.c **** 
 455:..\..\..\lvgl\version_6.1.2\lvgl\src\lv_objx/lv_cpicker.c **** /**
 456:..\..\..\lvgl\version_6.1.2\lvgl\src\lv_objx/lv_cpicker.c ****  * Get the current selected color of a colorpicker.
 457:..\..\..\lvgl\version_6.1.2\lvgl\src\lv_objx/lv_cpicker.c ****  * @param cpicker pointer to colorpicker object
 458:..\..\..\lvgl\version_6.1.2\lvgl\src\lv_objx/lv_cpicker.c ****  * @return color current selected color
 459:..\..\..\lvgl\version_6.1.2\lvgl\src\lv_objx/lv_cpicker.c ****  */
 460:..\..\..\lvgl\version_6.1.2\lvgl\src\lv_objx/lv_cpicker.c **** lv_color_t lv_cpicker_get_color(lv_obj_t * cpicker)
 461:..\..\..\lvgl\version_6.1.2\lvgl\src\lv_objx/lv_cpicker.c **** {
 1411              		.loc 3 461 0
 1412              		.cfi_startproc
 1413              		@ args = 0, pretend = 0, frame = 16
 1414              		@ frame_needed = 1, uses_anonymous_args = 0
 1415 0000 80B5     		push	{r7, lr}
 1416              		.cfi_def_cfa_offset 8
 1417              		.cfi_offset 7, -8
 1418              		.cfi_offset 14, -4
 1419 0002 84B0     		sub	sp, sp, #16
 1420              		.cfi_def_cfa_offset 24
 1421 0004 00AF     		add	r7, sp, #0
 1422              		.cfi_def_cfa_register 7
 1423 0006 7860     		str	r0, [r7, #4]
 462:..\..\..\lvgl\version_6.1.2\lvgl\src\lv_objx/lv_cpicker.c ****     LV_ASSERT_OBJ(cpicker, LV_OBJX_NAME);
 463:..\..\..\lvgl\version_6.1.2\lvgl\src\lv_objx/lv_cpicker.c **** 
 464:..\..\..\lvgl\version_6.1.2\lvgl\src\lv_objx/lv_cpicker.c ****     lv_cpicker_ext_t * ext = lv_obj_get_ext_attr(cpicker);
 1424              		.loc 3 464 0
 1425 0008 7868     		ldr	r0, [r7, #4]
 1426 000a FFF7FEFF 		bl	lv_obj_get_ext_attr
 1427 000e F860     		str	r0, [r7, #12]
 465:..\..\..\lvgl\version_6.1.2\lvgl\src\lv_objx/lv_cpicker.c **** 
 466:..\..\..\lvgl\version_6.1.2\lvgl\src\lv_objx/lv_cpicker.c ****     return lv_color_hsv_to_rgb(ext->hsv.h, ext->hsv.s, ext->hsv.v);
 1428              		.loc 3 466 0
 1429 0010 FB68     		ldr	r3, [r7, #12]
 1430 0012 1888     		ldrh	r0, [r3]
 1431 0014 FB68     		ldr	r3, [r7, #12]
 1432 0016 9978     		ldrb	r1, [r3, #2]	@ zero_extendqisi2
 1433 0018 FB68     		ldr	r3, [r7, #12]
 1434 001a DB78     		ldrb	r3, [r3, #3]	@ zero_extendqisi2
 1435 001c 1A46     		mov	r2, r3
 1436 001e FFF7FEFF 		bl	lv_color_hsv_to_rgb
 1437 0022 0346     		mov	r3, r0
 467:..\..\..\lvgl\version_6.1.2\lvgl\src\lv_objx/lv_cpicker.c **** }
 1438              		.loc 3 467 0
 1439 0024 1846     		mov	r0, r3
 1440 0026 1037     		adds	r7, r7, #16
 1441              		.cfi_def_cfa_offset 8
 1442 0028 BD46     		mov	sp, r7
 1443              		.cfi_def_cfa_register 13
 1444              		@ sp needed
 1445 002a 80BD     		pop	{r7, pc}
 1446              		.cfi_endproc
 1447              	.LFE50:
 1448              		.size	lv_cpicker_get_color, .-lv_cpicker_get_color
 1449              		.section	.text.lv_cpicker_get_indic_colored,"ax",%progbits
ARM GAS  C:\Users\tmj32\AppData\Local\Temp\cc11CUDk.s 			page 44


 1450              		.align	2
 1451              		.global	lv_cpicker_get_indic_colored
 1452              		.thumb
 1453              		.thumb_func
 1454              		.type	lv_cpicker_get_indic_colored, %function
 1455              	lv_cpicker_get_indic_colored:
 1456              	.LFB51:
 468:..\..\..\lvgl\version_6.1.2\lvgl\src\lv_objx/lv_cpicker.c **** 
 469:..\..\..\lvgl\version_6.1.2\lvgl\src\lv_objx/lv_cpicker.c **** /**
 470:..\..\..\lvgl\version_6.1.2\lvgl\src\lv_objx/lv_cpicker.c ****  * Whether the indicator is colored to the current color or not
 471:..\..\..\lvgl\version_6.1.2\lvgl\src\lv_objx/lv_cpicker.c ****  * @param cpicker pointer to colorpicker object
 472:..\..\..\lvgl\version_6.1.2\lvgl\src\lv_objx/lv_cpicker.c ****  * @return true: color the indicator; false: not color the indicator
 473:..\..\..\lvgl\version_6.1.2\lvgl\src\lv_objx/lv_cpicker.c ****  */
 474:..\..\..\lvgl\version_6.1.2\lvgl\src\lv_objx/lv_cpicker.c **** bool lv_cpicker_get_indic_colored(lv_obj_t * cpicker)
 475:..\..\..\lvgl\version_6.1.2\lvgl\src\lv_objx/lv_cpicker.c **** {
 1457              		.loc 3 475 0
 1458              		.cfi_startproc
 1459              		@ args = 0, pretend = 0, frame = 16
 1460              		@ frame_needed = 1, uses_anonymous_args = 0
 1461 0000 80B5     		push	{r7, lr}
 1462              		.cfi_def_cfa_offset 8
 1463              		.cfi_offset 7, -8
 1464              		.cfi_offset 14, -4
 1465 0002 84B0     		sub	sp, sp, #16
 1466              		.cfi_def_cfa_offset 24
 1467 0004 00AF     		add	r7, sp, #0
 1468              		.cfi_def_cfa_register 7
 1469 0006 7860     		str	r0, [r7, #4]
 476:..\..\..\lvgl\version_6.1.2\lvgl\src\lv_objx/lv_cpicker.c ****     LV_ASSERT_OBJ(cpicker, LV_OBJX_NAME);
 477:..\..\..\lvgl\version_6.1.2\lvgl\src\lv_objx/lv_cpicker.c **** 
 478:..\..\..\lvgl\version_6.1.2\lvgl\src\lv_objx/lv_cpicker.c ****     lv_cpicker_ext_t * ext = lv_obj_get_ext_attr(cpicker);
 1470              		.loc 3 478 0
 1471 0008 7868     		ldr	r0, [r7, #4]
 1472 000a FFF7FEFF 		bl	lv_obj_get_ext_attr
 1473 000e F860     		str	r0, [r7, #12]
 479:..\..\..\lvgl\version_6.1.2\lvgl\src\lv_objx/lv_cpicker.c **** 
 480:..\..\..\lvgl\version_6.1.2\lvgl\src\lv_objx/lv_cpicker.c ****     return ext->indic.colored ? true : false;
 1474              		.loc 3 480 0
 1475 0010 FB68     		ldr	r3, [r7, #12]
 1476 0012 1B7B     		ldrb	r3, [r3, #12]	@ zero_extendqisi2
 1477 0014 03F00103 		and	r3, r3, #1
 1478 0018 DBB2     		uxtb	r3, r3
 1479 001a 002B     		cmp	r3, #0
 1480 001c 14BF     		ite	ne
 1481 001e 0123     		movne	r3, #1
 1482 0020 0023     		moveq	r3, #0
 1483 0022 DBB2     		uxtb	r3, r3
 481:..\..\..\lvgl\version_6.1.2\lvgl\src\lv_objx/lv_cpicker.c **** }
 1484              		.loc 3 481 0
 1485 0024 1846     		mov	r0, r3
 1486 0026 1037     		adds	r7, r7, #16
 1487              		.cfi_def_cfa_offset 8
 1488 0028 BD46     		mov	sp, r7
 1489              		.cfi_def_cfa_register 13
 1490              		@ sp needed
 1491 002a 80BD     		pop	{r7, pc}
 1492              		.cfi_endproc
ARM GAS  C:\Users\tmj32\AppData\Local\Temp\cc11CUDk.s 			page 45


 1493              	.LFE51:
 1494              		.size	lv_cpicker_get_indic_colored, .-lv_cpicker_get_indic_colored
 1495              		.section	.text.lv_cpicker_get_preview,"ax",%progbits
 1496              		.align	2
 1497              		.global	lv_cpicker_get_preview
 1498              		.thumb
 1499              		.thumb_func
 1500              		.type	lv_cpicker_get_preview, %function
 1501              	lv_cpicker_get_preview:
 1502              	.LFB52:
 482:..\..\..\lvgl\version_6.1.2\lvgl\src\lv_objx/lv_cpicker.c **** 
 483:..\..\..\lvgl\version_6.1.2\lvgl\src\lv_objx/lv_cpicker.c **** /**
 484:..\..\..\lvgl\version_6.1.2\lvgl\src\lv_objx/lv_cpicker.c ****  *  Whether the preview is enabled or not
 485:..\..\..\lvgl\version_6.1.2\lvgl\src\lv_objx/lv_cpicker.c ****  * @param cpicker pointer to colorpicker object
 486:..\..\..\lvgl\version_6.1.2\lvgl\src\lv_objx/lv_cpicker.c ****  * @return en true: preview is enabled; false: preview is disabled
 487:..\..\..\lvgl\version_6.1.2\lvgl\src\lv_objx/lv_cpicker.c ****  */
 488:..\..\..\lvgl\version_6.1.2\lvgl\src\lv_objx/lv_cpicker.c **** bool lv_cpicker_get_preview(lv_obj_t * cpicker)
 489:..\..\..\lvgl\version_6.1.2\lvgl\src\lv_objx/lv_cpicker.c **** {
 1503              		.loc 3 489 0
 1504              		.cfi_startproc
 1505              		@ args = 0, pretend = 0, frame = 16
 1506              		@ frame_needed = 1, uses_anonymous_args = 0
 1507 0000 80B5     		push	{r7, lr}
 1508              		.cfi_def_cfa_offset 8
 1509              		.cfi_offset 7, -8
 1510              		.cfi_offset 14, -4
 1511 0002 84B0     		sub	sp, sp, #16
 1512              		.cfi_def_cfa_offset 24
 1513 0004 00AF     		add	r7, sp, #0
 1514              		.cfi_def_cfa_register 7
 1515 0006 7860     		str	r0, [r7, #4]
 490:..\..\..\lvgl\version_6.1.2\lvgl\src\lv_objx/lv_cpicker.c ****     LV_ASSERT_OBJ(cpicker, LV_OBJX_NAME);
 491:..\..\..\lvgl\version_6.1.2\lvgl\src\lv_objx/lv_cpicker.c **** 
 492:..\..\..\lvgl\version_6.1.2\lvgl\src\lv_objx/lv_cpicker.c ****     lv_cpicker_ext_t * ext = lv_obj_get_ext_attr(cpicker);
 1516              		.loc 3 492 0
 1517 0008 7868     		ldr	r0, [r7, #4]
 1518 000a FFF7FEFF 		bl	lv_obj_get_ext_attr
 1519 000e F860     		str	r0, [r7, #12]
 493:..\..\..\lvgl\version_6.1.2\lvgl\src\lv_objx/lv_cpicker.c **** 
 494:..\..\..\lvgl\version_6.1.2\lvgl\src\lv_objx/lv_cpicker.c ****     return ext->preview ? true : false;
 1520              		.loc 3 494 0
 1521 0010 FB68     		ldr	r3, [r7, #12]
 1522 0012 1B7F     		ldrb	r3, [r3, #28]	@ zero_extendqisi2
 1523 0014 03F01003 		and	r3, r3, #16
 1524 0018 DBB2     		uxtb	r3, r3
 1525 001a 002B     		cmp	r3, #0
 1526 001c 14BF     		ite	ne
 1527 001e 0123     		movne	r3, #1
 1528 0020 0023     		moveq	r3, #0
 1529 0022 DBB2     		uxtb	r3, r3
 495:..\..\..\lvgl\version_6.1.2\lvgl\src\lv_objx/lv_cpicker.c **** }
 1530              		.loc 3 495 0
 1531 0024 1846     		mov	r0, r3
 1532 0026 1037     		adds	r7, r7, #16
 1533              		.cfi_def_cfa_offset 8
 1534 0028 BD46     		mov	sp, r7
 1535              		.cfi_def_cfa_register 13
ARM GAS  C:\Users\tmj32\AppData\Local\Temp\cc11CUDk.s 			page 46


 1536              		@ sp needed
 1537 002a 80BD     		pop	{r7, pc}
 1538              		.cfi_endproc
 1539              	.LFE52:
 1540              		.size	lv_cpicker_get_preview, .-lv_cpicker_get_preview
 1541              		.section	.text.lv_cpicker_design,"ax",%progbits
 1542              		.align	2
 1543              		.thumb
 1544              		.thumb_func
 1545              		.type	lv_cpicker_design, %function
 1546              	lv_cpicker_design:
 1547              	.LFB53:
 496:..\..\..\lvgl\version_6.1.2\lvgl\src\lv_objx/lv_cpicker.c **** 
 497:..\..\..\lvgl\version_6.1.2\lvgl\src\lv_objx/lv_cpicker.c **** 
 498:..\..\..\lvgl\version_6.1.2\lvgl\src\lv_objx/lv_cpicker.c **** /*=====================
 499:..\..\..\lvgl\version_6.1.2\lvgl\src\lv_objx/lv_cpicker.c ****  * Other functions
 500:..\..\..\lvgl\version_6.1.2\lvgl\src\lv_objx/lv_cpicker.c ****  *====================*/
 501:..\..\..\lvgl\version_6.1.2\lvgl\src\lv_objx/lv_cpicker.c **** 
 502:..\..\..\lvgl\version_6.1.2\lvgl\src\lv_objx/lv_cpicker.c **** /**********************
 503:..\..\..\lvgl\version_6.1.2\lvgl\src\lv_objx/lv_cpicker.c ****  *   STATIC FUNCTIONS
 504:..\..\..\lvgl\version_6.1.2\lvgl\src\lv_objx/lv_cpicker.c ****  **********************/
 505:..\..\..\lvgl\version_6.1.2\lvgl\src\lv_objx/lv_cpicker.c **** 
 506:..\..\..\lvgl\version_6.1.2\lvgl\src\lv_objx/lv_cpicker.c **** 
 507:..\..\..\lvgl\version_6.1.2\lvgl\src\lv_objx/lv_cpicker.c **** /**
 508:..\..\..\lvgl\version_6.1.2\lvgl\src\lv_objx/lv_cpicker.c ****  * Handle the drawing related tasks of the color_picker
 509:..\..\..\lvgl\version_6.1.2\lvgl\src\lv_objx/lv_cpicker.c ****  * @param cpicker pointer to an object
 510:..\..\..\lvgl\version_6.1.2\lvgl\src\lv_objx/lv_cpicker.c ****  * @param mask the object will be drawn only in this area
 511:..\..\..\lvgl\version_6.1.2\lvgl\src\lv_objx/lv_cpicker.c ****  * @param mode LV_DESIGN_COVER_CHK: only check if the object fully covers the 'mask_p' area
 512:..\..\..\lvgl\version_6.1.2\lvgl\src\lv_objx/lv_cpicker.c ****  *                                  (return 'true' if yes)
 513:..\..\..\lvgl\version_6.1.2\lvgl\src\lv_objx/lv_cpicker.c ****  *             LV_DESIGN_DRAW: draw the object (always return 'true')
 514:..\..\..\lvgl\version_6.1.2\lvgl\src\lv_objx/lv_cpicker.c ****  *             LV_DESIGN_DRAW_POST: drawing after every children are drawn
 515:..\..\..\lvgl\version_6.1.2\lvgl\src\lv_objx/lv_cpicker.c ****  * @return true/false, depends on 'mode'
 516:..\..\..\lvgl\version_6.1.2\lvgl\src\lv_objx/lv_cpicker.c ****  */
 517:..\..\..\lvgl\version_6.1.2\lvgl\src\lv_objx/lv_cpicker.c **** static bool lv_cpicker_design(lv_obj_t * cpicker, const lv_area_t * mask, lv_design_mode_t mode)
 518:..\..\..\lvgl\version_6.1.2\lvgl\src\lv_objx/lv_cpicker.c **** {
 1548              		.loc 3 518 0
 1549              		.cfi_startproc
 1550              		@ args = 0, pretend = 0, frame = 24
 1551              		@ frame_needed = 1, uses_anonymous_args = 0
 1552 0000 80B5     		push	{r7, lr}
 1553              		.cfi_def_cfa_offset 8
 1554              		.cfi_offset 7, -8
 1555              		.cfi_offset 14, -4
 1556 0002 86B0     		sub	sp, sp, #24
 1557              		.cfi_def_cfa_offset 32
 1558 0004 00AF     		add	r7, sp, #0
 1559              		.cfi_def_cfa_register 7
 1560 0006 F860     		str	r0, [r7, #12]
 1561 0008 B960     		str	r1, [r7, #8]
 1562 000a 1346     		mov	r3, r2
 1563 000c FB71     		strb	r3, [r7, #7]
 519:..\..\..\lvgl\version_6.1.2\lvgl\src\lv_objx/lv_cpicker.c ****     /*Return false if the object is not covers the mask_p area*/
 520:..\..\..\lvgl\version_6.1.2\lvgl\src\lv_objx/lv_cpicker.c ****     if(mode == LV_DESIGN_COVER_CHK)  {
 1564              		.loc 3 520 0
 1565 000e FB79     		ldrb	r3, [r7, #7]	@ zero_extendqisi2
 1566 0010 022B     		cmp	r3, #2
 1567 0012 01D1     		bne	.L75
ARM GAS  C:\Users\tmj32\AppData\Local\Temp\cc11CUDk.s 			page 47


 521:..\..\..\lvgl\version_6.1.2\lvgl\src\lv_objx/lv_cpicker.c ****         return false;
 1568              		.loc 3 521 0
 1569 0014 0023     		movs	r3, #0
 1570 0016 2DE0     		b	.L76
 1571              	.L75:
 522:..\..\..\lvgl\version_6.1.2\lvgl\src\lv_objx/lv_cpicker.c ****     }
 523:..\..\..\lvgl\version_6.1.2\lvgl\src\lv_objx/lv_cpicker.c ****     /*Draw the object*/
 524:..\..\..\lvgl\version_6.1.2\lvgl\src\lv_objx/lv_cpicker.c ****     else if(mode == LV_DESIGN_DRAW_MAIN) {
 1572              		.loc 3 524 0
 1573 0018 FB79     		ldrb	r3, [r7, #7]	@ zero_extendqisi2
 1574 001a 002B     		cmp	r3, #0
 1575 001c 29D1     		bne	.L77
 1576              	.LBB4:
 525:..\..\..\lvgl\version_6.1.2\lvgl\src\lv_objx/lv_cpicker.c ****         lv_cpicker_ext_t * ext = lv_obj_get_ext_attr(cpicker);
 1577              		.loc 3 525 0
 1578 001e F868     		ldr	r0, [r7, #12]
 1579 0020 FFF7FEFF 		bl	lv_obj_get_ext_attr
 1580 0024 7861     		str	r0, [r7, #20]
 526:..\..\..\lvgl\version_6.1.2\lvgl\src\lv_objx/lv_cpicker.c ****         lv_opa_t opa_scale = lv_obj_get_opa_scale(cpicker);
 1581              		.loc 3 526 0
 1582 0026 F868     		ldr	r0, [r7, #12]
 1583 0028 FFF7FEFF 		bl	lv_obj_get_opa_scale
 1584 002c 0346     		mov	r3, r0
 1585 002e FB74     		strb	r3, [r7, #19]
 527:..\..\..\lvgl\version_6.1.2\lvgl\src\lv_objx/lv_cpicker.c **** 
 528:..\..\..\lvgl\version_6.1.2\lvgl\src\lv_objx/lv_cpicker.c ****         if(ext->type == LV_CPICKER_TYPE_DISC) {
 1586              		.loc 3 528 0
 1587 0030 7B69     		ldr	r3, [r7, #20]
 1588 0032 1B7F     		ldrb	r3, [r3, #28]	@ zero_extendqisi2
 1589 0034 03F00803 		and	r3, r3, #8
 1590 0038 DBB2     		uxtb	r3, r3
 1591 003a 002B     		cmp	r3, #0
 1592 003c 06D0     		beq	.L78
 529:..\..\..\lvgl\version_6.1.2\lvgl\src\lv_objx/lv_cpicker.c ****             draw_disc_grad(cpicker, mask, opa_scale);
 1593              		.loc 3 529 0
 1594 003e FB7C     		ldrb	r3, [r7, #19]	@ zero_extendqisi2
 1595 0040 1A46     		mov	r2, r3
 1596 0042 B968     		ldr	r1, [r7, #8]
 1597 0044 F868     		ldr	r0, [r7, #12]
 1598 0046 FFF7FEFF 		bl	draw_disc_grad
 1599 004a 0CE0     		b	.L79
 1600              	.L78:
 530:..\..\..\lvgl\version_6.1.2\lvgl\src\lv_objx/lv_cpicker.c ****         } else if(ext->type == LV_CPICKER_TYPE_RECT) {
 1601              		.loc 3 530 0
 1602 004c 7B69     		ldr	r3, [r7, #20]
 1603 004e 1B7F     		ldrb	r3, [r3, #28]	@ zero_extendqisi2
 1604 0050 03F00803 		and	r3, r3, #8
 1605 0054 DBB2     		uxtb	r3, r3
 1606 0056 002B     		cmp	r3, #0
 1607 0058 05D1     		bne	.L79
 531:..\..\..\lvgl\version_6.1.2\lvgl\src\lv_objx/lv_cpicker.c ****             draw_rect_grad(cpicker, mask, opa_scale);
 1608              		.loc 3 531 0
 1609 005a FB7C     		ldrb	r3, [r7, #19]	@ zero_extendqisi2
 1610 005c 1A46     		mov	r2, r3
 1611 005e B968     		ldr	r1, [r7, #8]
 1612 0060 F868     		ldr	r0, [r7, #12]
 1613 0062 FFF7FEFF 		bl	draw_rect_grad
ARM GAS  C:\Users\tmj32\AppData\Local\Temp\cc11CUDk.s 			page 48


 1614              	.L79:
 532:..\..\..\lvgl\version_6.1.2\lvgl\src\lv_objx/lv_cpicker.c ****         }
 533:..\..\..\lvgl\version_6.1.2\lvgl\src\lv_objx/lv_cpicker.c **** 
 534:..\..\..\lvgl\version_6.1.2\lvgl\src\lv_objx/lv_cpicker.c ****         draw_indic(cpicker, mask, opa_scale);
 1615              		.loc 3 534 0
 1616 0066 FB7C     		ldrb	r3, [r7, #19]	@ zero_extendqisi2
 1617 0068 1A46     		mov	r2, r3
 1618 006a B968     		ldr	r1, [r7, #8]
 1619 006c F868     		ldr	r0, [r7, #12]
 1620 006e FFF7FEFF 		bl	draw_indic
 1621              	.L77:
 1622              	.LBE4:
 535:..\..\..\lvgl\version_6.1.2\lvgl\src\lv_objx/lv_cpicker.c ****     }
 536:..\..\..\lvgl\version_6.1.2\lvgl\src\lv_objx/lv_cpicker.c ****     /*Post draw when the children are drawn*/
 537:..\..\..\lvgl\version_6.1.2\lvgl\src\lv_objx/lv_cpicker.c ****     else if(mode == LV_DESIGN_DRAW_POST) {
 538:..\..\..\lvgl\version_6.1.2\lvgl\src\lv_objx/lv_cpicker.c ****     }
 539:..\..\..\lvgl\version_6.1.2\lvgl\src\lv_objx/lv_cpicker.c **** 
 540:..\..\..\lvgl\version_6.1.2\lvgl\src\lv_objx/lv_cpicker.c ****     return true;
 1623              		.loc 3 540 0
 1624 0072 0123     		movs	r3, #1
 1625              	.L76:
 541:..\..\..\lvgl\version_6.1.2\lvgl\src\lv_objx/lv_cpicker.c **** }
 1626              		.loc 3 541 0
 1627 0074 1846     		mov	r0, r3
 1628 0076 1837     		adds	r7, r7, #24
 1629              		.cfi_def_cfa_offset 8
 1630 0078 BD46     		mov	sp, r7
 1631              		.cfi_def_cfa_register 13
 1632              		@ sp needed
 1633 007a 80BD     		pop	{r7, pc}
 1634              		.cfi_endproc
 1635              	.LFE53:
 1636              		.size	lv_cpicker_design, .-lv_cpicker_design
 1637              		.section	.text.draw_disc_grad,"ax",%progbits
 1638              		.align	2
 1639              		.thumb
 1640              		.thumb_func
 1641              		.type	draw_disc_grad, %function
 1642              	draw_disc_grad:
 1643              	.LFB54:
 542:..\..\..\lvgl\version_6.1.2\lvgl\src\lv_objx/lv_cpicker.c **** 
 543:..\..\..\lvgl\version_6.1.2\lvgl\src\lv_objx/lv_cpicker.c **** static void draw_disc_grad(lv_obj_t * cpicker, const lv_area_t * mask, lv_opa_t opa_scale)
 544:..\..\..\lvgl\version_6.1.2\lvgl\src\lv_objx/lv_cpicker.c **** {
 1644              		.loc 3 544 0
 1645              		.cfi_startproc
 1646              		@ args = 0, pretend = 0, frame = 168
 1647              		@ frame_needed = 1, uses_anonymous_args = 0
 1648 0000 90B5     		push	{r4, r7, lr}
 1649              		.cfi_def_cfa_offset 12
 1650              		.cfi_offset 4, -12
 1651              		.cfi_offset 7, -8
 1652              		.cfi_offset 14, -4
 1653 0002 ABB0     		sub	sp, sp, #172
 1654              		.cfi_def_cfa_offset 184
 1655 0004 00AF     		add	r7, sp, #0
 1656              		.cfi_def_cfa_register 7
 1657 0006 F860     		str	r0, [r7, #12]
ARM GAS  C:\Users\tmj32\AppData\Local\Temp\cc11CUDk.s 			page 49


 1658 0008 B960     		str	r1, [r7, #8]
 1659 000a 1346     		mov	r3, r2
 1660 000c FB71     		strb	r3, [r7, #7]
 545:..\..\..\lvgl\version_6.1.2\lvgl\src\lv_objx/lv_cpicker.c ****     lv_cpicker_ext_t * ext = lv_obj_get_ext_attr(cpicker);
 1661              		.loc 3 545 0
 1662 000e F868     		ldr	r0, [r7, #12]
 1663 0010 FFF7FEFF 		bl	lv_obj_get_ext_attr
 1664 0014 C7F89C00 		str	r0, [r7, #156]
 546:..\..\..\lvgl\version_6.1.2\lvgl\src\lv_objx/lv_cpicker.c ****     int16_t start_angle = 0; /*Default*/
 1665              		.loc 3 546 0
 1666 0018 0023     		movs	r3, #0
 1667 001a A7F8A630 		strh	r3, [r7, #166]	@ movhi
 547:..\..\..\lvgl\version_6.1.2\lvgl\src\lv_objx/lv_cpicker.c ****     int16_t end_angle = 360 - LV_CPICKER_DEF_QF; /*Default*/
 1668              		.loc 3 547 0
 1669 001e 40F26513 		movw	r3, #357
 1670 0022 A7F8A430 		strh	r3, [r7, #164]	@ movhi
 548:..\..\..\lvgl\version_6.1.2\lvgl\src\lv_objx/lv_cpicker.c **** 
 549:..\..\..\lvgl\version_6.1.2\lvgl\src\lv_objx/lv_cpicker.c ****     lv_coord_t w = lv_obj_get_width(cpicker);
 1671              		.loc 3 549 0
 1672 0026 F868     		ldr	r0, [r7, #12]
 1673 0028 FFF7FEFF 		bl	lv_obj_get_width
 1674 002c 0346     		mov	r3, r0
 1675 002e A7F89A30 		strh	r3, [r7, #154]	@ movhi
 550:..\..\..\lvgl\version_6.1.2\lvgl\src\lv_objx/lv_cpicker.c ****     lv_coord_t h = lv_obj_get_height(cpicker);
 1676              		.loc 3 550 0
 1677 0032 F868     		ldr	r0, [r7, #12]
 1678 0034 FFF7FEFF 		bl	lv_obj_get_height
 1679 0038 0346     		mov	r3, r0
 1680 003a A7F89830 		strh	r3, [r7, #152]	@ movhi
 551:..\..\..\lvgl\version_6.1.2\lvgl\src\lv_objx/lv_cpicker.c ****     lv_coord_t cx = cpicker->coords.x1 + w / 2;
 1681              		.loc 3 551 0
 1682 003e FB68     		ldr	r3, [r7, #12]
 1683 0040 B3F91030 		ldrsh	r3, [r3, #16]
 1684 0044 9AB2     		uxth	r2, r3
 1685 0046 B7F99A30 		ldrsh	r3, [r7, #154]
 1686 004a D90F     		lsrs	r1, r3, #31
 1687 004c 0B44     		add	r3, r3, r1
 1688 004e 5B10     		asrs	r3, r3, #1
 1689 0050 1BB2     		sxth	r3, r3
 1690 0052 9BB2     		uxth	r3, r3
 1691 0054 1344     		add	r3, r3, r2
 1692 0056 9BB2     		uxth	r3, r3
 1693 0058 A7F89630 		strh	r3, [r7, #150]	@ movhi
 552:..\..\..\lvgl\version_6.1.2\lvgl\src\lv_objx/lv_cpicker.c ****     lv_coord_t cy = cpicker->coords.y1 + h / 2;
 1694              		.loc 3 552 0
 1695 005c FB68     		ldr	r3, [r7, #12]
 1696 005e B3F91230 		ldrsh	r3, [r3, #18]
 1697 0062 9AB2     		uxth	r2, r3
 1698 0064 B7F99830 		ldrsh	r3, [r7, #152]
 1699 0068 D90F     		lsrs	r1, r3, #31
 1700 006a 0B44     		add	r3, r3, r1
 1701 006c 5B10     		asrs	r3, r3, #1
 1702 006e 1BB2     		sxth	r3, r3
 1703 0070 9BB2     		uxth	r3, r3
 1704 0072 1344     		add	r3, r3, r2
 1705 0074 9BB2     		uxth	r3, r3
 1706 0076 A7F89430 		strh	r3, [r7, #148]	@ movhi
ARM GAS  C:\Users\tmj32\AppData\Local\Temp\cc11CUDk.s 			page 50


 553:..\..\..\lvgl\version_6.1.2\lvgl\src\lv_objx/lv_cpicker.c ****     lv_coord_t r = w / 2;
 1707              		.loc 3 553 0
 1708 007a B7F99A30 		ldrsh	r3, [r7, #154]
 1709 007e DA0F     		lsrs	r2, r3, #31
 1710 0080 1344     		add	r3, r3, r2
 1711 0082 5B10     		asrs	r3, r3, #1
 1712 0084 A7F89230 		strh	r3, [r7, #146]	@ movhi
 554:..\..\..\lvgl\version_6.1.2\lvgl\src\lv_objx/lv_cpicker.c **** 
 555:..\..\..\lvgl\version_6.1.2\lvgl\src\lv_objx/lv_cpicker.c ****     /*if the mask does not include the center of the object
 556:..\..\..\lvgl\version_6.1.2\lvgl\src\lv_objx/lv_cpicker.c ****     * redrawing all the wheel is not necessary;
 557:..\..\..\lvgl\version_6.1.2\lvgl\src\lv_objx/lv_cpicker.c ****     * only a given angular range
 558:..\..\..\lvgl\version_6.1.2\lvgl\src\lv_objx/lv_cpicker.c ****     */
 559:..\..\..\lvgl\version_6.1.2\lvgl\src\lv_objx/lv_cpicker.c ****     lv_point_t center = {cx, cy};
 1713              		.loc 3 559 0
 1714 0088 B7F89630 		ldrh	r3, [r7, #150]	@ movhi
 1715 008c A7F87C30 		strh	r3, [r7, #124]	@ movhi
 1716 0090 B7F89430 		ldrh	r3, [r7, #148]	@ movhi
 1717 0094 A7F87E30 		strh	r3, [r7, #126]	@ movhi
 560:..\..\..\lvgl\version_6.1.2\lvgl\src\lv_objx/lv_cpicker.c ****     if(!lv_area_is_point_on(mask, &center))
 1718              		.loc 3 560 0
 1719 0098 07F17C03 		add	r3, r7, #124
 1720 009c 1946     		mov	r1, r3
 1721 009e B868     		ldr	r0, [r7, #8]
 1722 00a0 FFF7FEFF 		bl	lv_area_is_point_on
 1723 00a4 0346     		mov	r3, r0
 1724 00a6 83F00103 		eor	r3, r3, #1
 1725 00aa DBB2     		uxtb	r3, r3
 1726 00ac 002B     		cmp	r3, #0
 1727 00ae 00F0BB81 		beq	.L81
 1728              	.LBB5:
 561:..\..\..\lvgl\version_6.1.2\lvgl\src\lv_objx/lv_cpicker.c ****     {
 562:..\..\..\lvgl\version_6.1.2\lvgl\src\lv_objx/lv_cpicker.c ****         /*get angle from center of object to each corners of the area*/
 563:..\..\..\lvgl\version_6.1.2\lvgl\src\lv_objx/lv_cpicker.c ****         int16_t dr, ur, ul, dl;
 564:..\..\..\lvgl\version_6.1.2\lvgl\src\lv_objx/lv_cpicker.c ****         dr = lv_atan2(mask->x2 - cx, mask->y2 - cy);
 1729              		.loc 3 564 0
 1730 00b2 BB68     		ldr	r3, [r7, #8]
 1731 00b4 B3F90430 		ldrsh	r3, [r3, #4]
 1732 00b8 1A46     		mov	r2, r3
 1733 00ba B7F99630 		ldrsh	r3, [r7, #150]
 1734 00be D21A     		subs	r2, r2, r3
 1735 00c0 BB68     		ldr	r3, [r7, #8]
 1736 00c2 B3F90630 		ldrsh	r3, [r3, #6]
 1737 00c6 1946     		mov	r1, r3
 1738 00c8 B7F99430 		ldrsh	r3, [r7, #148]
 1739 00cc CB1A     		subs	r3, r1, r3
 1740 00ce 1946     		mov	r1, r3
 1741 00d0 1046     		mov	r0, r2
 1742 00d2 FFF7FEFF 		bl	lv_atan2
 1743 00d6 0346     		mov	r3, r0
 1744 00d8 A7F89030 		strh	r3, [r7, #144]	@ movhi
 565:..\..\..\lvgl\version_6.1.2\lvgl\src\lv_objx/lv_cpicker.c ****         ur = lv_atan2(mask->x2 - cx, mask->y1 - cy);
 1745              		.loc 3 565 0
 1746 00dc BB68     		ldr	r3, [r7, #8]
 1747 00de B3F90430 		ldrsh	r3, [r3, #4]
 1748 00e2 1A46     		mov	r2, r3
 1749 00e4 B7F99630 		ldrsh	r3, [r7, #150]
 1750 00e8 D21A     		subs	r2, r2, r3
ARM GAS  C:\Users\tmj32\AppData\Local\Temp\cc11CUDk.s 			page 51


 1751 00ea BB68     		ldr	r3, [r7, #8]
 1752 00ec B3F90230 		ldrsh	r3, [r3, #2]
 1753 00f0 1946     		mov	r1, r3
 1754 00f2 B7F99430 		ldrsh	r3, [r7, #148]
 1755 00f6 CB1A     		subs	r3, r1, r3
 1756 00f8 1946     		mov	r1, r3
 1757 00fa 1046     		mov	r0, r2
 1758 00fc FFF7FEFF 		bl	lv_atan2
 1759 0100 0346     		mov	r3, r0
 1760 0102 A7F88E30 		strh	r3, [r7, #142]	@ movhi
 566:..\..\..\lvgl\version_6.1.2\lvgl\src\lv_objx/lv_cpicker.c ****         ul = lv_atan2(mask->x1 - cx, mask->y1 - cy);
 1761              		.loc 3 566 0
 1762 0106 BB68     		ldr	r3, [r7, #8]
 1763 0108 B3F90030 		ldrsh	r3, [r3]
 1764 010c 1A46     		mov	r2, r3
 1765 010e B7F99630 		ldrsh	r3, [r7, #150]
 1766 0112 D21A     		subs	r2, r2, r3
 1767 0114 BB68     		ldr	r3, [r7, #8]
 1768 0116 B3F90230 		ldrsh	r3, [r3, #2]
 1769 011a 1946     		mov	r1, r3
 1770 011c B7F99430 		ldrsh	r3, [r7, #148]
 1771 0120 CB1A     		subs	r3, r1, r3
 1772 0122 1946     		mov	r1, r3
 1773 0124 1046     		mov	r0, r2
 1774 0126 FFF7FEFF 		bl	lv_atan2
 1775 012a 0346     		mov	r3, r0
 1776 012c A7F88C30 		strh	r3, [r7, #140]	@ movhi
 567:..\..\..\lvgl\version_6.1.2\lvgl\src\lv_objx/lv_cpicker.c ****         dl = lv_atan2(mask->x1 - cx, mask->y2 - cy);
 1777              		.loc 3 567 0
 1778 0130 BB68     		ldr	r3, [r7, #8]
 1779 0132 B3F90030 		ldrsh	r3, [r3]
 1780 0136 1A46     		mov	r2, r3
 1781 0138 B7F99630 		ldrsh	r3, [r7, #150]
 1782 013c D21A     		subs	r2, r2, r3
 1783 013e BB68     		ldr	r3, [r7, #8]
 1784 0140 B3F90630 		ldrsh	r3, [r3, #6]
 1785 0144 1946     		mov	r1, r3
 1786 0146 B7F99430 		ldrsh	r3, [r7, #148]
 1787 014a CB1A     		subs	r3, r1, r3
 1788 014c 1946     		mov	r1, r3
 1789 014e 1046     		mov	r0, r2
 1790 0150 FFF7FEFF 		bl	lv_atan2
 1791 0154 0346     		mov	r3, r0
 1792 0156 A7F88A30 		strh	r3, [r7, #138]	@ movhi
 568:..\..\..\lvgl\version_6.1.2\lvgl\src\lv_objx/lv_cpicker.c **** 
 569:..\..\..\lvgl\version_6.1.2\lvgl\src\lv_objx/lv_cpicker.c ****         /*check area position from object axis*/
 570:..\..\..\lvgl\version_6.1.2\lvgl\src\lv_objx/lv_cpicker.c ****         bool left = (mask->x2 < cx && mask->x1 < cx) ? true : false;
 1793              		.loc 3 570 0
 1794 015a BB68     		ldr	r3, [r7, #8]
 1795 015c B3F90430 		ldrsh	r3, [r3, #4]
 1796 0160 B7F99620 		ldrsh	r2, [r7, #150]
 1797 0164 9A42     		cmp	r2, r3
 1798 0166 08DD     		ble	.L82
 1799              		.loc 3 570 0 is_stmt 0 discriminator 1
 1800 0168 BB68     		ldr	r3, [r7, #8]
 1801 016a B3F90030 		ldrsh	r3, [r3]
 1802 016e B7F99620 		ldrsh	r2, [r7, #150]
ARM GAS  C:\Users\tmj32\AppData\Local\Temp\cc11CUDk.s 			page 52


 1803 0172 9A42     		cmp	r2, r3
 1804 0174 01DD     		ble	.L82
 1805              		.loc 3 570 0 discriminator 3
 1806 0176 0123     		movs	r3, #1
 1807 0178 00E0     		b	.L83
 1808              	.L82:
 1809              		.loc 3 570 0 discriminator 4
 1810 017a 0023     		movs	r3, #0
 1811              	.L83:
 1812              		.loc 3 570 0 discriminator 6
 1813 017c 87F88930 		strb	r3, [r7, #137]
 1814 0180 97F88930 		ldrb	r3, [r7, #137]
 1815 0184 03F00103 		and	r3, r3, #1
 1816 0188 87F88930 		strb	r3, [r7, #137]
 571:..\..\..\lvgl\version_6.1.2\lvgl\src\lv_objx/lv_cpicker.c ****         bool onYaxis = (mask->x2 > cx && mask->x1 < cx) ? true : false;
 1817              		.loc 3 571 0 is_stmt 1 discriminator 6
 1818 018c BB68     		ldr	r3, [r7, #8]
 1819 018e B3F90430 		ldrsh	r3, [r3, #4]
 1820 0192 B7F99620 		ldrsh	r2, [r7, #150]
 1821 0196 9A42     		cmp	r2, r3
 1822 0198 08DA     		bge	.L84
 1823              		.loc 3 571 0 is_stmt 0 discriminator 1
 1824 019a BB68     		ldr	r3, [r7, #8]
 1825 019c B3F90030 		ldrsh	r3, [r3]
 1826 01a0 B7F99620 		ldrsh	r2, [r7, #150]
 1827 01a4 9A42     		cmp	r2, r3
 1828 01a6 01DD     		ble	.L84
 1829              		.loc 3 571 0 discriminator 3
 1830 01a8 0123     		movs	r3, #1
 1831 01aa 00E0     		b	.L85
 1832              	.L84:
 1833              		.loc 3 571 0 discriminator 4
 1834 01ac 0023     		movs	r3, #0
 1835              	.L85:
 1836              		.loc 3 571 0 discriminator 6
 1837 01ae 87F88830 		strb	r3, [r7, #136]
 1838 01b2 97F88830 		ldrb	r3, [r7, #136]
 1839 01b6 03F00103 		and	r3, r3, #1
 1840 01ba 87F88830 		strb	r3, [r7, #136]
 572:..\..\..\lvgl\version_6.1.2\lvgl\src\lv_objx/lv_cpicker.c ****         bool right = (mask->x2 > cx && mask->x1 > cx) ? true : false;
 1841              		.loc 3 572 0 is_stmt 1 discriminator 6
 1842 01be BB68     		ldr	r3, [r7, #8]
 1843 01c0 B3F90430 		ldrsh	r3, [r3, #4]
 1844 01c4 B7F99620 		ldrsh	r2, [r7, #150]
 1845 01c8 9A42     		cmp	r2, r3
 1846 01ca 08DA     		bge	.L86
 1847              		.loc 3 572 0 is_stmt 0 discriminator 1
 1848 01cc BB68     		ldr	r3, [r7, #8]
 1849 01ce B3F90030 		ldrsh	r3, [r3]
 1850 01d2 B7F99620 		ldrsh	r2, [r7, #150]
 1851 01d6 9A42     		cmp	r2, r3
 1852 01d8 01DA     		bge	.L86
 1853              		.loc 3 572 0 discriminator 3
 1854 01da 0123     		movs	r3, #1
 1855 01dc 00E0     		b	.L87
 1856              	.L86:
 1857              		.loc 3 572 0 discriminator 4
ARM GAS  C:\Users\tmj32\AppData\Local\Temp\cc11CUDk.s 			page 53


 1858 01de 0023     		movs	r3, #0
 1859              	.L87:
 1860              		.loc 3 572 0 discriminator 6
 1861 01e0 87F88730 		strb	r3, [r7, #135]
 1862 01e4 97F88730 		ldrb	r3, [r7, #135]
 1863 01e8 03F00103 		and	r3, r3, #1
 1864 01ec 87F88730 		strb	r3, [r7, #135]
 573:..\..\..\lvgl\version_6.1.2\lvgl\src\lv_objx/lv_cpicker.c ****         bool top = (mask->y2 < cy && mask->y1 < cy) ? true : false;
 1865              		.loc 3 573 0 is_stmt 1 discriminator 6
 1866 01f0 BB68     		ldr	r3, [r7, #8]
 1867 01f2 B3F90630 		ldrsh	r3, [r3, #6]
 1868 01f6 B7F99420 		ldrsh	r2, [r7, #148]
 1869 01fa 9A42     		cmp	r2, r3
 1870 01fc 08DD     		ble	.L88
 1871              		.loc 3 573 0 is_stmt 0 discriminator 1
 1872 01fe BB68     		ldr	r3, [r7, #8]
 1873 0200 B3F90230 		ldrsh	r3, [r3, #2]
 1874 0204 B7F99420 		ldrsh	r2, [r7, #148]
 1875 0208 9A42     		cmp	r2, r3
 1876 020a 01DD     		ble	.L88
 1877              		.loc 3 573 0 discriminator 3
 1878 020c 0123     		movs	r3, #1
 1879 020e 00E0     		b	.L89
 1880              	.L88:
 1881              		.loc 3 573 0 discriminator 4
 1882 0210 0023     		movs	r3, #0
 1883              	.L89:
 1884              		.loc 3 573 0 discriminator 6
 1885 0212 87F88630 		strb	r3, [r7, #134]
 1886 0216 97F88630 		ldrb	r3, [r7, #134]
 1887 021a 03F00103 		and	r3, r3, #1
 1888 021e 87F88630 		strb	r3, [r7, #134]
 574:..\..\..\lvgl\version_6.1.2\lvgl\src\lv_objx/lv_cpicker.c ****         bool onXaxis = (mask->y2 > cy && mask->y1 < cy) ? true : false;
 1889              		.loc 3 574 0 is_stmt 1 discriminator 6
 1890 0222 BB68     		ldr	r3, [r7, #8]
 1891 0224 B3F90630 		ldrsh	r3, [r3, #6]
 1892 0228 B7F99420 		ldrsh	r2, [r7, #148]
 1893 022c 9A42     		cmp	r2, r3
 1894 022e 08DA     		bge	.L90
 1895              		.loc 3 574 0 is_stmt 0 discriminator 1
 1896 0230 BB68     		ldr	r3, [r7, #8]
 1897 0232 B3F90230 		ldrsh	r3, [r3, #2]
 1898 0236 B7F99420 		ldrsh	r2, [r7, #148]
 1899 023a 9A42     		cmp	r2, r3
 1900 023c 01DD     		ble	.L90
 1901              		.loc 3 574 0 discriminator 3
 1902 023e 0123     		movs	r3, #1
 1903 0240 00E0     		b	.L91
 1904              	.L90:
 1905              		.loc 3 574 0 discriminator 4
 1906 0242 0023     		movs	r3, #0
 1907              	.L91:
 1908              		.loc 3 574 0 discriminator 6
 1909 0244 87F88530 		strb	r3, [r7, #133]
 1910 0248 97F88530 		ldrb	r3, [r7, #133]
 1911 024c 03F00103 		and	r3, r3, #1
 1912 0250 87F88530 		strb	r3, [r7, #133]
ARM GAS  C:\Users\tmj32\AppData\Local\Temp\cc11CUDk.s 			page 54


 575:..\..\..\lvgl\version_6.1.2\lvgl\src\lv_objx/lv_cpicker.c ****         bool bottom = (mask->y2 > cy && mask->y1 > cy) ? true : false;
 1913              		.loc 3 575 0 is_stmt 1 discriminator 6
 1914 0254 BB68     		ldr	r3, [r7, #8]
 1915 0256 B3F90630 		ldrsh	r3, [r3, #6]
 1916 025a B7F99420 		ldrsh	r2, [r7, #148]
 1917 025e 9A42     		cmp	r2, r3
 1918 0260 08DA     		bge	.L92
 1919              		.loc 3 575 0 is_stmt 0 discriminator 1
 1920 0262 BB68     		ldr	r3, [r7, #8]
 1921 0264 B3F90230 		ldrsh	r3, [r3, #2]
 1922 0268 B7F99420 		ldrsh	r2, [r7, #148]
 1923 026c 9A42     		cmp	r2, r3
 1924 026e 01DA     		bge	.L92
 1925              		.loc 3 575 0 discriminator 3
 1926 0270 0123     		movs	r3, #1
 1927 0272 00E0     		b	.L93
 1928              	.L92:
 1929              		.loc 3 575 0 discriminator 4
 1930 0274 0023     		movs	r3, #0
 1931              	.L93:
 1932              		.loc 3 575 0 discriminator 6
 1933 0276 87F88430 		strb	r3, [r7, #132]
 1934 027a 97F88430 		ldrb	r3, [r7, #132]
 1935 027e 03F00103 		and	r3, r3, #1
 1936 0282 87F88430 		strb	r3, [r7, #132]
 576:..\..\..\lvgl\version_6.1.2\lvgl\src\lv_objx/lv_cpicker.c **** 
 577:..\..\..\lvgl\version_6.1.2\lvgl\src\lv_objx/lv_cpicker.c ****         /*store angular range*/
 578:..\..\..\lvgl\version_6.1.2\lvgl\src\lv_objx/lv_cpicker.c ****         if(right && bottom) {
 1937              		.loc 3 578 0 is_stmt 1 discriminator 6
 1938 0286 97F88730 		ldrb	r3, [r7, #135]	@ zero_extendqisi2
 1939 028a 002B     		cmp	r3, #0
 1940 028c 0CD0     		beq	.L94
 1941              		.loc 3 578 0 is_stmt 0 discriminator 1
 1942 028e 97F88430 		ldrb	r3, [r7, #132]	@ zero_extendqisi2
 1943 0292 002B     		cmp	r3, #0
 1944 0294 08D0     		beq	.L94
 579:..\..\..\lvgl\version_6.1.2\lvgl\src\lv_objx/lv_cpicker.c ****             start_angle = dl;
 1945              		.loc 3 579 0 is_stmt 1
 1946 0296 B7F88A30 		ldrh	r3, [r7, #138]	@ movhi
 1947 029a A7F8A630 		strh	r3, [r7, #166]	@ movhi
 580:..\..\..\lvgl\version_6.1.2\lvgl\src\lv_objx/lv_cpicker.c ****             end_angle = ur;
 1948              		.loc 3 580 0
 1949 029e B7F88E30 		ldrh	r3, [r7, #142]	@ movhi
 1950 02a2 A7F8A430 		strh	r3, [r7, #164]	@ movhi
 1951 02a6 75E0     		b	.L95
 1952              	.L94:
 581:..\..\..\lvgl\version_6.1.2\lvgl\src\lv_objx/lv_cpicker.c ****         } else if(right && onXaxis) {
 1953              		.loc 3 581 0
 1954 02a8 97F88730 		ldrb	r3, [r7, #135]	@ zero_extendqisi2
 1955 02ac 002B     		cmp	r3, #0
 1956 02ae 0CD0     		beq	.L96
 1957              		.loc 3 581 0 is_stmt 0 discriminator 1
 1958 02b0 97F88530 		ldrb	r3, [r7, #133]	@ zero_extendqisi2
 1959 02b4 002B     		cmp	r3, #0
 1960 02b6 08D0     		beq	.L96
 582:..\..\..\lvgl\version_6.1.2\lvgl\src\lv_objx/lv_cpicker.c ****             start_angle = dl;
 1961              		.loc 3 582 0 is_stmt 1
ARM GAS  C:\Users\tmj32\AppData\Local\Temp\cc11CUDk.s 			page 55


 1962 02b8 B7F88A30 		ldrh	r3, [r7, #138]	@ movhi
 1963 02bc A7F8A630 		strh	r3, [r7, #166]	@ movhi
 583:..\..\..\lvgl\version_6.1.2\lvgl\src\lv_objx/lv_cpicker.c ****             end_angle = ul;
 1964              		.loc 3 583 0
 1965 02c0 B7F88C30 		ldrh	r3, [r7, #140]	@ movhi
 1966 02c4 A7F8A430 		strh	r3, [r7, #164]	@ movhi
 1967 02c8 64E0     		b	.L95
 1968              	.L96:
 584:..\..\..\lvgl\version_6.1.2\lvgl\src\lv_objx/lv_cpicker.c ****         } else if(right && top)  {
 1969              		.loc 3 584 0
 1970 02ca 97F88730 		ldrb	r3, [r7, #135]	@ zero_extendqisi2
 1971 02ce 002B     		cmp	r3, #0
 1972 02d0 0CD0     		beq	.L97
 1973              		.loc 3 584 0 is_stmt 0 discriminator 1
 1974 02d2 97F88630 		ldrb	r3, [r7, #134]	@ zero_extendqisi2
 1975 02d6 002B     		cmp	r3, #0
 1976 02d8 08D0     		beq	.L97
 585:..\..\..\lvgl\version_6.1.2\lvgl\src\lv_objx/lv_cpicker.c ****             start_angle = dr;
 1977              		.loc 3 585 0 is_stmt 1
 1978 02da B7F89030 		ldrh	r3, [r7, #144]	@ movhi
 1979 02de A7F8A630 		strh	r3, [r7, #166]	@ movhi
 586:..\..\..\lvgl\version_6.1.2\lvgl\src\lv_objx/lv_cpicker.c ****             end_angle = ul;
 1980              		.loc 3 586 0
 1981 02e2 B7F88C30 		ldrh	r3, [r7, #140]	@ movhi
 1982 02e6 A7F8A430 		strh	r3, [r7, #164]	@ movhi
 1983 02ea 53E0     		b	.L95
 1984              	.L97:
 587:..\..\..\lvgl\version_6.1.2\lvgl\src\lv_objx/lv_cpicker.c ****         } else if(onYaxis && top) {
 1985              		.loc 3 587 0
 1986 02ec 97F88830 		ldrb	r3, [r7, #136]	@ zero_extendqisi2
 1987 02f0 002B     		cmp	r3, #0
 1988 02f2 0CD0     		beq	.L98
 1989              		.loc 3 587 0 is_stmt 0 discriminator 1
 1990 02f4 97F88630 		ldrb	r3, [r7, #134]	@ zero_extendqisi2
 1991 02f8 002B     		cmp	r3, #0
 1992 02fa 08D0     		beq	.L98
 588:..\..\..\lvgl\version_6.1.2\lvgl\src\lv_objx/lv_cpicker.c ****             start_angle = dr;
 1993              		.loc 3 588 0 is_stmt 1
 1994 02fc B7F89030 		ldrh	r3, [r7, #144]	@ movhi
 1995 0300 A7F8A630 		strh	r3, [r7, #166]	@ movhi
 589:..\..\..\lvgl\version_6.1.2\lvgl\src\lv_objx/lv_cpicker.c ****             end_angle = dl;
 1996              		.loc 3 589 0
 1997 0304 B7F88A30 		ldrh	r3, [r7, #138]	@ movhi
 1998 0308 A7F8A430 		strh	r3, [r7, #164]	@ movhi
 1999 030c 42E0     		b	.L95
 2000              	.L98:
 590:..\..\..\lvgl\version_6.1.2\lvgl\src\lv_objx/lv_cpicker.c ****         } else if(left && top)  {
 2001              		.loc 3 590 0
 2002 030e 97F88930 		ldrb	r3, [r7, #137]	@ zero_extendqisi2
 2003 0312 002B     		cmp	r3, #0
 2004 0314 0CD0     		beq	.L99
 2005              		.loc 3 590 0 is_stmt 0 discriminator 1
 2006 0316 97F88630 		ldrb	r3, [r7, #134]	@ zero_extendqisi2
 2007 031a 002B     		cmp	r3, #0
 2008 031c 08D0     		beq	.L99
 591:..\..\..\lvgl\version_6.1.2\lvgl\src\lv_objx/lv_cpicker.c ****             start_angle = ur;
 2009              		.loc 3 591 0 is_stmt 1
ARM GAS  C:\Users\tmj32\AppData\Local\Temp\cc11CUDk.s 			page 56


 2010 031e B7F88E30 		ldrh	r3, [r7, #142]	@ movhi
 2011 0322 A7F8A630 		strh	r3, [r7, #166]	@ movhi
 592:..\..\..\lvgl\version_6.1.2\lvgl\src\lv_objx/lv_cpicker.c ****             end_angle = dl;
 2012              		.loc 3 592 0
 2013 0326 B7F88A30 		ldrh	r3, [r7, #138]	@ movhi
 2014 032a A7F8A430 		strh	r3, [r7, #164]	@ movhi
 2015 032e 31E0     		b	.L95
 2016              	.L99:
 593:..\..\..\lvgl\version_6.1.2\lvgl\src\lv_objx/lv_cpicker.c ****         } else if(left && onXaxis) {
 2017              		.loc 3 593 0
 2018 0330 97F88930 		ldrb	r3, [r7, #137]	@ zero_extendqisi2
 2019 0334 002B     		cmp	r3, #0
 2020 0336 0CD0     		beq	.L100
 2021              		.loc 3 593 0 is_stmt 0 discriminator 1
 2022 0338 97F88530 		ldrb	r3, [r7, #133]	@ zero_extendqisi2
 2023 033c 002B     		cmp	r3, #0
 2024 033e 08D0     		beq	.L100
 594:..\..\..\lvgl\version_6.1.2\lvgl\src\lv_objx/lv_cpicker.c ****             start_angle = ur;
 2025              		.loc 3 594 0 is_stmt 1
 2026 0340 B7F88E30 		ldrh	r3, [r7, #142]	@ movhi
 2027 0344 A7F8A630 		strh	r3, [r7, #166]	@ movhi
 595:..\..\..\lvgl\version_6.1.2\lvgl\src\lv_objx/lv_cpicker.c ****             end_angle = dr;
 2028              		.loc 3 595 0
 2029 0348 B7F89030 		ldrh	r3, [r7, #144]	@ movhi
 2030 034c A7F8A430 		strh	r3, [r7, #164]	@ movhi
 2031 0350 20E0     		b	.L95
 2032              	.L100:
 596:..\..\..\lvgl\version_6.1.2\lvgl\src\lv_objx/lv_cpicker.c ****         } else if(left && bottom) {
 2033              		.loc 3 596 0
 2034 0352 97F88930 		ldrb	r3, [r7, #137]	@ zero_extendqisi2
 2035 0356 002B     		cmp	r3, #0
 2036 0358 0CD0     		beq	.L101
 2037              		.loc 3 596 0 is_stmt 0 discriminator 1
 2038 035a 97F88430 		ldrb	r3, [r7, #132]	@ zero_extendqisi2
 2039 035e 002B     		cmp	r3, #0
 2040 0360 08D0     		beq	.L101
 597:..\..\..\lvgl\version_6.1.2\lvgl\src\lv_objx/lv_cpicker.c ****             start_angle = ul;
 2041              		.loc 3 597 0 is_stmt 1
 2042 0362 B7F88C30 		ldrh	r3, [r7, #140]	@ movhi
 2043 0366 A7F8A630 		strh	r3, [r7, #166]	@ movhi
 598:..\..\..\lvgl\version_6.1.2\lvgl\src\lv_objx/lv_cpicker.c ****             end_angle = dr;
 2044              		.loc 3 598 0
 2045 036a B7F89030 		ldrh	r3, [r7, #144]	@ movhi
 2046 036e A7F8A430 		strh	r3, [r7, #164]	@ movhi
 2047 0372 0FE0     		b	.L95
 2048              	.L101:
 599:..\..\..\lvgl\version_6.1.2\lvgl\src\lv_objx/lv_cpicker.c ****         } else if(onYaxis && bottom) {
 2049              		.loc 3 599 0
 2050 0374 97F88830 		ldrb	r3, [r7, #136]	@ zero_extendqisi2
 2051 0378 002B     		cmp	r3, #0
 2052 037a 0BD0     		beq	.L95
 2053              		.loc 3 599 0 is_stmt 0 discriminator 1
 2054 037c 97F88430 		ldrb	r3, [r7, #132]	@ zero_extendqisi2
 2055 0380 002B     		cmp	r3, #0
 2056 0382 07D0     		beq	.L95
 600:..\..\..\lvgl\version_6.1.2\lvgl\src\lv_objx/lv_cpicker.c ****             start_angle = ul;
 2057              		.loc 3 600 0 is_stmt 1
ARM GAS  C:\Users\tmj32\AppData\Local\Temp\cc11CUDk.s 			page 57


 2058 0384 B7F88C30 		ldrh	r3, [r7, #140]	@ movhi
 2059 0388 A7F8A630 		strh	r3, [r7, #166]	@ movhi
 601:..\..\..\lvgl\version_6.1.2\lvgl\src\lv_objx/lv_cpicker.c ****             end_angle = ur;
 2060              		.loc 3 601 0
 2061 038c B7F88E30 		ldrh	r3, [r7, #142]	@ movhi
 2062 0390 A7F8A430 		strh	r3, [r7, #164]	@ movhi
 2063              	.L95:
 602:..\..\..\lvgl\version_6.1.2\lvgl\src\lv_objx/lv_cpicker.c ****         }
 603:..\..\..\lvgl\version_6.1.2\lvgl\src\lv_objx/lv_cpicker.c **** 
 604:..\..\..\lvgl\version_6.1.2\lvgl\src\lv_objx/lv_cpicker.c ****         /*rollover angle*/
 605:..\..\..\lvgl\version_6.1.2\lvgl\src\lv_objx/lv_cpicker.c ****         if(start_angle > end_angle) end_angle += 360;
 2064              		.loc 3 605 0
 2065 0394 B7F9A620 		ldrsh	r2, [r7, #166]
 2066 0398 B7F9A430 		ldrsh	r3, [r7, #164]
 2067 039c 9A42     		cmp	r2, r3
 2068 039e 06DD     		ble	.L102
 2069              		.loc 3 605 0 is_stmt 0 discriminator 1
 2070 03a0 B7F8A430 		ldrh	r3, [r7, #164]
 2071 03a4 03F5B473 		add	r3, r3, #360
 2072 03a8 9BB2     		uxth	r3, r3
 2073 03aa A7F8A430 		strh	r3, [r7, #164]	@ movhi
 2074              	.L102:
 606:..\..\..\lvgl\version_6.1.2\lvgl\src\lv_objx/lv_cpicker.c **** 
 607:..\..\..\lvgl\version_6.1.2\lvgl\src\lv_objx/lv_cpicker.c ****         /*round to QF factor*/
 608:..\..\..\lvgl\version_6.1.2\lvgl\src\lv_objx/lv_cpicker.c ****         start_angle = (start_angle/LV_CPICKER_DEF_QF) * LV_CPICKER_DEF_QF;
 2075              		.loc 3 608 0 is_stmt 1
 2076 03ae B7F9A630 		ldrsh	r3, [r7, #166]
 2077 03b2 AA4A     		ldr	r2, .L111
 2078 03b4 82FB0312 		smull	r1, r2, r2, r3
 2079 03b8 DB17     		asrs	r3, r3, #31
 2080 03ba D31A     		subs	r3, r2, r3
 2081 03bc 1BB2     		sxth	r3, r3
 2082 03be 9BB2     		uxth	r3, r3
 2083 03c0 1A46     		mov	r2, r3	@ movhi
 2084 03c2 5200     		lsls	r2, r2, #1
 2085 03c4 1344     		add	r3, r3, r2
 2086 03c6 9BB2     		uxth	r3, r3
 2087 03c8 A7F8A630 		strh	r3, [r7, #166]	@ movhi
 609:..\..\..\lvgl\version_6.1.2\lvgl\src\lv_objx/lv_cpicker.c ****         end_angle = (end_angle / LV_CPICKER_DEF_QF) * LV_CPICKER_DEF_QF;
 2088              		.loc 3 609 0
 2089 03cc B7F9A430 		ldrsh	r3, [r7, #164]
 2090 03d0 A24A     		ldr	r2, .L111
 2091 03d2 82FB0312 		smull	r1, r2, r2, r3
 2092 03d6 DB17     		asrs	r3, r3, #31
 2093 03d8 D31A     		subs	r3, r2, r3
 2094 03da 1BB2     		sxth	r3, r3
 2095 03dc 9BB2     		uxth	r3, r3
 2096 03de 1A46     		mov	r2, r3	@ movhi
 2097 03e0 5200     		lsls	r2, r2, #1
 2098 03e2 1344     		add	r3, r3, r2
 2099 03e4 9BB2     		uxth	r3, r3
 2100 03e6 A7F8A430 		strh	r3, [r7, #164]	@ movhi
 610:..\..\..\lvgl\version_6.1.2\lvgl\src\lv_objx/lv_cpicker.c **** 
 611:..\..\..\lvgl\version_6.1.2\lvgl\src\lv_objx/lv_cpicker.c ****         /*shift angle if necessary before adding offset*/
 612:..\..\..\lvgl\version_6.1.2\lvgl\src\lv_objx/lv_cpicker.c ****         if((start_angle - LV_CPICKER_DEF_QF) < 0) {
 2101              		.loc 3 612 0
 2102 03ea B7F9A630 		ldrsh	r3, [r7, #166]
ARM GAS  C:\Users\tmj32\AppData\Local\Temp\cc11CUDk.s 			page 58


 2103 03ee 033B     		subs	r3, r3, #3
 2104 03f0 002B     		cmp	r3, #0
 2105 03f2 0DDA     		bge	.L103
 613:..\..\..\lvgl\version_6.1.2\lvgl\src\lv_objx/lv_cpicker.c ****             start_angle += 360;
 2106              		.loc 3 613 0
 2107 03f4 B7F8A630 		ldrh	r3, [r7, #166]
 2108 03f8 03F5B473 		add	r3, r3, #360
 2109 03fc 9BB2     		uxth	r3, r3
 2110 03fe A7F8A630 		strh	r3, [r7, #166]	@ movhi
 614:..\..\..\lvgl\version_6.1.2\lvgl\src\lv_objx/lv_cpicker.c ****             end_angle += 360;
 2111              		.loc 3 614 0
 2112 0402 B7F8A430 		ldrh	r3, [r7, #164]
 2113 0406 03F5B473 		add	r3, r3, #360
 2114 040a 9BB2     		uxth	r3, r3
 2115 040c A7F8A430 		strh	r3, [r7, #164]	@ movhi
 2116              	.L103:
 615:..\..\..\lvgl\version_6.1.2\lvgl\src\lv_objx/lv_cpicker.c ****         }
 616:..\..\..\lvgl\version_6.1.2\lvgl\src\lv_objx/lv_cpicker.c **** 
 617:..\..\..\lvgl\version_6.1.2\lvgl\src\lv_objx/lv_cpicker.c ****         /*ensure overlapping by adding offset*/
 618:..\..\..\lvgl\version_6.1.2\lvgl\src\lv_objx/lv_cpicker.c ****         start_angle -= LV_CPICKER_DEF_QF;
 2117              		.loc 3 618 0
 2118 0410 B7F8A630 		ldrh	r3, [r7, #166]
 2119 0414 033B     		subs	r3, r3, #3
 2120 0416 9BB2     		uxth	r3, r3
 2121 0418 A7F8A630 		strh	r3, [r7, #166]	@ movhi
 619:..\..\..\lvgl\version_6.1.2\lvgl\src\lv_objx/lv_cpicker.c ****         end_angle += LV_CPICKER_DEF_QF;
 2122              		.loc 3 619 0
 2123 041c B7F8A430 		ldrh	r3, [r7, #164]
 2124 0420 0333     		adds	r3, r3, #3
 2125 0422 9BB2     		uxth	r3, r3
 2126 0424 A7F8A430 		strh	r3, [r7, #164]	@ movhi
 2127              	.L81:
 2128              	.LBE5:
 620:..\..\..\lvgl\version_6.1.2\lvgl\src\lv_objx/lv_cpicker.c ****     }
 621:..\..\..\lvgl\version_6.1.2\lvgl\src\lv_objx/lv_cpicker.c **** 
 622:..\..\..\lvgl\version_6.1.2\lvgl\src\lv_objx/lv_cpicker.c ****     lv_point_t triangle_points[3];
 623:..\..\..\lvgl\version_6.1.2\lvgl\src\lv_objx/lv_cpicker.c ****     lv_style_t style;
 624:..\..\..\lvgl\version_6.1.2\lvgl\src\lv_objx/lv_cpicker.c ****     lv_style_copy(&style, &lv_style_plain);
 2129              		.loc 3 624 0
 2130 0428 07F12003 		add	r3, r7, #32
 2131 042c 8C49     		ldr	r1, .L111+4
 2132 042e 1846     		mov	r0, r3
 2133 0430 FFF7FEFF 		bl	lv_style_copy
 625:..\..\..\lvgl\version_6.1.2\lvgl\src\lv_objx/lv_cpicker.c ****     uint16_t i;
 626:..\..\..\lvgl\version_6.1.2\lvgl\src\lv_objx/lv_cpicker.c ****     for(i = start_angle; i <= end_angle; i+= LV_CPICKER_DEF_QF) {
 2134              		.loc 3 626 0
 2135 0434 B7F8A630 		ldrh	r3, [r7, #166]	@ movhi
 2136 0438 A7F8A230 		strh	r3, [r7, #162]	@ movhi
 2137 043c ABE0     		b	.L104
 2138              	.L108:
 627:..\..\..\lvgl\version_6.1.2\lvgl\src\lv_objx/lv_cpicker.c ****         style.body.main_color = angle_to_mode_color(cpicker, i);
 2139              		.loc 3 627 0
 2140 043e B7F8A230 		ldrh	r3, [r7, #162]
 2141 0442 1946     		mov	r1, r3
 2142 0444 F868     		ldr	r0, [r7, #12]
 2143 0446 FFF7FEFF 		bl	angle_to_mode_color
 2144 044a 7862     		str	r0, [r7, #36]
ARM GAS  C:\Users\tmj32\AppData\Local\Temp\cc11CUDk.s 			page 59


 628:..\..\..\lvgl\version_6.1.2\lvgl\src\lv_objx/lv_cpicker.c ****         style.body.grad_color = style.body.main_color;
 2145              		.loc 3 628 0
 2146 044c 7B6A     		ldr	r3, [r7, #36]
 2147 044e BB62     		str	r3, [r7, #40]
 629:..\..\..\lvgl\version_6.1.2\lvgl\src\lv_objx/lv_cpicker.c **** 
 630:..\..\..\lvgl\version_6.1.2\lvgl\src\lv_objx/lv_cpicker.c ****         triangle_points[0].x = cx;
 2148              		.loc 3 630 0
 2149 0450 B7F89630 		ldrh	r3, [r7, #150]	@ movhi
 2150 0454 A7F87030 		strh	r3, [r7, #112]	@ movhi
 631:..\..\..\lvgl\version_6.1.2\lvgl\src\lv_objx/lv_cpicker.c ****         triangle_points[0].y = cy;
 2151              		.loc 3 631 0
 2152 0458 B7F89430 		ldrh	r3, [r7, #148]	@ movhi
 2153 045c A7F87230 		strh	r3, [r7, #114]	@ movhi
 632:..\..\..\lvgl\version_6.1.2\lvgl\src\lv_objx/lv_cpicker.c **** 
 633:..\..\..\lvgl\version_6.1.2\lvgl\src\lv_objx/lv_cpicker.c ****         triangle_points[1].x = cx + (r * lv_trigo_sin(i) >> LV_TRIGO_SHIFT);
 2154              		.loc 3 633 0
 2155 0460 B7F99240 		ldrsh	r4, [r7, #146]
 2156 0464 B7F9A230 		ldrsh	r3, [r7, #162]
 2157 0468 1846     		mov	r0, r3
 2158 046a FFF7FEFF 		bl	lv_trigo_sin
 2159 046e 0346     		mov	r3, r0
 2160 0470 03FB04F3 		mul	r3, r3, r4
 2161 0474 DB13     		asrs	r3, r3, #15
 2162 0476 9AB2     		uxth	r2, r3
 2163 0478 B7F89630 		ldrh	r3, [r7, #150]
 2164 047c 1344     		add	r3, r3, r2
 2165 047e 9BB2     		uxth	r3, r3
 2166 0480 1BB2     		sxth	r3, r3
 2167 0482 A7F87430 		strh	r3, [r7, #116]	@ movhi
 634:..\..\..\lvgl\version_6.1.2\lvgl\src\lv_objx/lv_cpicker.c ****         triangle_points[1].y = cy + (r * lv_trigo_sin(i + 90) >> LV_TRIGO_SHIFT);
 2168              		.loc 3 634 0
 2169 0486 B7F99240 		ldrsh	r4, [r7, #146]
 2170 048a B7F8A230 		ldrh	r3, [r7, #162]	@ movhi
 2171 048e 5A33     		adds	r3, r3, #90
 2172 0490 9BB2     		uxth	r3, r3
 2173 0492 1BB2     		sxth	r3, r3
 2174 0494 1846     		mov	r0, r3
 2175 0496 FFF7FEFF 		bl	lv_trigo_sin
 2176 049a 0346     		mov	r3, r0
 2177 049c 03FB04F3 		mul	r3, r3, r4
 2178 04a0 DB13     		asrs	r3, r3, #15
 2179 04a2 9AB2     		uxth	r2, r3
 2180 04a4 B7F89430 		ldrh	r3, [r7, #148]
 2181 04a8 1344     		add	r3, r3, r2
 2182 04aa 9BB2     		uxth	r3, r3
 2183 04ac 1BB2     		sxth	r3, r3
 2184 04ae A7F87630 		strh	r3, [r7, #118]	@ movhi
 635:..\..\..\lvgl\version_6.1.2\lvgl\src\lv_objx/lv_cpicker.c **** 
 636:..\..\..\lvgl\version_6.1.2\lvgl\src\lv_objx/lv_cpicker.c ****         if(i == end_angle || i == (360 - LV_CPICKER_DEF_QF)) {
 2185              		.loc 3 636 0
 2186 04b2 B7F8A220 		ldrh	r2, [r7, #162]
 2187 04b6 B7F9A430 		ldrsh	r3, [r7, #164]
 2188 04ba 9A42     		cmp	r2, r3
 2189 04bc 05D0     		beq	.L105
 2190              		.loc 3 636 0 is_stmt 0 discriminator 1
 2191 04be B7F8A230 		ldrh	r3, [r7, #162]
 2192 04c2 40F26512 		movw	r2, #357
ARM GAS  C:\Users\tmj32\AppData\Local\Temp\cc11CUDk.s 			page 60


 2193 04c6 9342     		cmp	r3, r2
 2194 04c8 2CD1     		bne	.L106
 2195              	.L105:
 637:..\..\..\lvgl\version_6.1.2\lvgl\src\lv_objx/lv_cpicker.c ****             /*the last triangle is drawn without additional overlapping pixels*/
 638:..\..\..\lvgl\version_6.1.2\lvgl\src\lv_objx/lv_cpicker.c ****             triangle_points[2].x = cx + (r * lv_trigo_sin(i + LV_CPICKER_DEF_QF) >> LV_TRIGO_SHIFT)
 2196              		.loc 3 638 0 is_stmt 1
 2197 04ca B7F99240 		ldrsh	r4, [r7, #146]
 2198 04ce B7F8A230 		ldrh	r3, [r7, #162]	@ movhi
 2199 04d2 0333     		adds	r3, r3, #3
 2200 04d4 9BB2     		uxth	r3, r3
 2201 04d6 1BB2     		sxth	r3, r3
 2202 04d8 1846     		mov	r0, r3
 2203 04da FFF7FEFF 		bl	lv_trigo_sin
 2204 04de 0346     		mov	r3, r0
 2205 04e0 03FB04F3 		mul	r3, r3, r4
 2206 04e4 DB13     		asrs	r3, r3, #15
 2207 04e6 9AB2     		uxth	r2, r3
 2208 04e8 B7F89630 		ldrh	r3, [r7, #150]
 2209 04ec 1344     		add	r3, r3, r2
 2210 04ee 9BB2     		uxth	r3, r3
 2211 04f0 1BB2     		sxth	r3, r3
 2212 04f2 A7F87830 		strh	r3, [r7, #120]	@ movhi
 639:..\..\..\lvgl\version_6.1.2\lvgl\src\lv_objx/lv_cpicker.c ****             triangle_points[2].y = cy + (r * lv_trigo_sin(i + LV_CPICKER_DEF_QF + 90) >> LV_TRIGO_S
 2213              		.loc 3 639 0
 2214 04f6 B7F99240 		ldrsh	r4, [r7, #146]
 2215 04fa B7F8A230 		ldrh	r3, [r7, #162]	@ movhi
 2216 04fe 5D33     		adds	r3, r3, #93
 2217 0500 9BB2     		uxth	r3, r3
 2218 0502 1BB2     		sxth	r3, r3
 2219 0504 1846     		mov	r0, r3
 2220 0506 FFF7FEFF 		bl	lv_trigo_sin
 2221 050a 0346     		mov	r3, r0
 2222 050c 03FB04F3 		mul	r3, r3, r4
 2223 0510 DB13     		asrs	r3, r3, #15
 2224 0512 9AB2     		uxth	r2, r3
 2225 0514 B7F89430 		ldrh	r3, [r7, #148]
 2226 0518 1344     		add	r3, r3, r2
 2227 051a 9BB2     		uxth	r3, r3
 2228 051c 1BB2     		sxth	r3, r3
 2229 051e A7F87A30 		strh	r3, [r7, #122]	@ movhi
 2230 0522 2BE0     		b	.L107
 2231              	.L106:
 640:..\..\..\lvgl\version_6.1.2\lvgl\src\lv_objx/lv_cpicker.c ****         } else {
 641:..\..\..\lvgl\version_6.1.2\lvgl\src\lv_objx/lv_cpicker.c ****             triangle_points[2].x = cx + (r * lv_trigo_sin(i + LV_CPICKER_DEF_QF + TRI_OFFSET) >> LV
 2232              		.loc 3 641 0
 2233 0524 B7F99240 		ldrsh	r4, [r7, #146]
 2234 0528 B7F8A230 		ldrh	r3, [r7, #162]	@ movhi
 2235 052c 0533     		adds	r3, r3, #5
 2236 052e 9BB2     		uxth	r3, r3
 2237 0530 1BB2     		sxth	r3, r3
 2238 0532 1846     		mov	r0, r3
 2239 0534 FFF7FEFF 		bl	lv_trigo_sin
 2240 0538 0346     		mov	r3, r0
 2241 053a 03FB04F3 		mul	r3, r3, r4
 2242 053e DB13     		asrs	r3, r3, #15
 2243 0540 9AB2     		uxth	r2, r3
 2244 0542 B7F89630 		ldrh	r3, [r7, #150]
ARM GAS  C:\Users\tmj32\AppData\Local\Temp\cc11CUDk.s 			page 61


 2245 0546 1344     		add	r3, r3, r2
 2246 0548 9BB2     		uxth	r3, r3
 2247 054a 1BB2     		sxth	r3, r3
 2248 054c A7F87830 		strh	r3, [r7, #120]	@ movhi
 642:..\..\..\lvgl\version_6.1.2\lvgl\src\lv_objx/lv_cpicker.c ****             triangle_points[2].y = cy + (r * lv_trigo_sin(i + LV_CPICKER_DEF_QF + TRI_OFFSET + 90) 
 2249              		.loc 3 642 0
 2250 0550 B7F99240 		ldrsh	r4, [r7, #146]
 2251 0554 B7F8A230 		ldrh	r3, [r7, #162]	@ movhi
 2252 0558 5F33     		adds	r3, r3, #95
 2253 055a 9BB2     		uxth	r3, r3
 2254 055c 1BB2     		sxth	r3, r3
 2255 055e 1846     		mov	r0, r3
 2256 0560 FFF7FEFF 		bl	lv_trigo_sin
 2257 0564 0346     		mov	r3, r0
 2258 0566 03FB04F3 		mul	r3, r3, r4
 2259 056a DB13     		asrs	r3, r3, #15
 2260 056c 9AB2     		uxth	r2, r3
 2261 056e B7F89430 		ldrh	r3, [r7, #148]
 2262 0572 1344     		add	r3, r3, r2
 2263 0574 9BB2     		uxth	r3, r3
 2264 0576 1BB2     		sxth	r3, r3
 2265 0578 A7F87A30 		strh	r3, [r7, #122]	@ movhi
 2266              	.L107:
 643:..\..\..\lvgl\version_6.1.2\lvgl\src\lv_objx/lv_cpicker.c ****         }
 644:..\..\..\lvgl\version_6.1.2\lvgl\src\lv_objx/lv_cpicker.c **** 
 645:..\..\..\lvgl\version_6.1.2\lvgl\src\lv_objx/lv_cpicker.c ****         lv_draw_triangle(triangle_points, mask, &style, LV_OPA_COVER);
 2267              		.loc 3 645 0 discriminator 2
 2268 057c 07F12002 		add	r2, r7, #32
 2269 0580 07F17000 		add	r0, r7, #112
 2270 0584 FF23     		movs	r3, #255
 2271 0586 B968     		ldr	r1, [r7, #8]
 2272 0588 FFF7FEFF 		bl	lv_draw_triangle
 626:..\..\..\lvgl\version_6.1.2\lvgl\src\lv_objx/lv_cpicker.c ****         style.body.main_color = angle_to_mode_color(cpicker, i);
 2273              		.loc 3 626 0 discriminator 2
 2274 058c B7F8A230 		ldrh	r3, [r7, #162]	@ movhi
 2275 0590 0333     		adds	r3, r3, #3
 2276 0592 A7F8A230 		strh	r3, [r7, #162]	@ movhi
 2277              	.L104:
 626:..\..\..\lvgl\version_6.1.2\lvgl\src\lv_objx/lv_cpicker.c ****         style.body.main_color = angle_to_mode_color(cpicker, i);
 2278              		.loc 3 626 0 is_stmt 0 discriminator 1
 2279 0596 B7F8A220 		ldrh	r2, [r7, #162]
 2280 059a B7F9A430 		ldrsh	r3, [r7, #164]
 2281 059e 9A42     		cmp	r2, r3
 2282 05a0 7FF74DAF 		ble	.L108
 646:..\..\..\lvgl\version_6.1.2\lvgl\src\lv_objx/lv_cpicker.c ****     }
 647:..\..\..\lvgl\version_6.1.2\lvgl\src\lv_objx/lv_cpicker.c **** 
 648:..\..\..\lvgl\version_6.1.2\lvgl\src\lv_objx/lv_cpicker.c ****     /*Mask out the center area*/
 649:..\..\..\lvgl\version_6.1.2\lvgl\src\lv_objx/lv_cpicker.c ****     const lv_style_t * style_main = lv_cpicker_get_style(cpicker, LV_CPICKER_STYLE_MAIN);
 2283              		.loc 3 649 0 is_stmt 1
 2284 05a4 0021     		movs	r1, #0
 2285 05a6 F868     		ldr	r0, [r7, #12]
 2286 05a8 FFF7FEFF 		bl	lv_cpicker_get_style
 2287 05ac C7F88000 		str	r0, [r7, #128]
 650:..\..\..\lvgl\version_6.1.2\lvgl\src\lv_objx/lv_cpicker.c ****     lv_style_copy(&style, style_main);
 2288              		.loc 3 650 0
 2289 05b0 07F12003 		add	r3, r7, #32
 2290 05b4 D7F88010 		ldr	r1, [r7, #128]
ARM GAS  C:\Users\tmj32\AppData\Local\Temp\cc11CUDk.s 			page 62


 2291 05b8 1846     		mov	r0, r3
 2292 05ba FFF7FEFF 		bl	lv_style_copy
 651:..\..\..\lvgl\version_6.1.2\lvgl\src\lv_objx/lv_cpicker.c ****     style.body.radius = LV_RADIUS_CIRCLE;
 2293              		.loc 3 651 0
 2294 05be 47F61843 		movw	r3, #31768
 2295 05c2 BB85     		strh	r3, [r7, #44]	@ movhi
 652:..\..\..\lvgl\version_6.1.2\lvgl\src\lv_objx/lv_cpicker.c ****     lv_area_t area_mid;
 653:..\..\..\lvgl\version_6.1.2\lvgl\src\lv_objx/lv_cpicker.c ****     lv_area_copy(&area_mid, &cpicker->coords);
 2296              		.loc 3 653 0
 2297 05c4 FB68     		ldr	r3, [r7, #12]
 2298 05c6 03F11002 		add	r2, r3, #16
 2299 05ca 07F11803 		add	r3, r7, #24
 2300 05ce 1146     		mov	r1, r2
 2301 05d0 1846     		mov	r0, r3
 2302 05d2 FFF7FEFF 		bl	lv_area_copy
 654:..\..\..\lvgl\version_6.1.2\lvgl\src\lv_objx/lv_cpicker.c ****     lv_area_increment(&area_mid, -style_main->line.width);
 2303              		.loc 3 654 0
 2304 05d6 D7F88030 		ldr	r3, [r7, #128]
 2305 05da B3F94C30 		ldrsh	r3, [r3, #76]
 2306 05de 9BB2     		uxth	r3, r3
 2307 05e0 5B42     		negs	r3, r3
 2308 05e2 9BB2     		uxth	r3, r3
 2309 05e4 1AB2     		sxth	r2, r3
 2310 05e6 07F11803 		add	r3, r7, #24
 2311 05ea 1146     		mov	r1, r2
 2312 05ec 1846     		mov	r0, r3
 2313 05ee FFF7FEFF 		bl	lv_area_increment
 655:..\..\..\lvgl\version_6.1.2\lvgl\src\lv_objx/lv_cpicker.c **** 
 656:..\..\..\lvgl\version_6.1.2\lvgl\src\lv_objx/lv_cpicker.c ****     lv_draw_rect(&area_mid, mask, &style, opa_scale);
 2314              		.loc 3 656 0
 2315 05f2 FB79     		ldrb	r3, [r7, #7]	@ zero_extendqisi2
 2316 05f4 07F12002 		add	r2, r7, #32
 2317 05f8 07F11800 		add	r0, r7, #24
 2318 05fc B968     		ldr	r1, [r7, #8]
 2319 05fe FFF7FEFF 		bl	lv_draw_rect
 657:..\..\..\lvgl\version_6.1.2\lvgl\src\lv_objx/lv_cpicker.c **** 
 658:..\..\..\lvgl\version_6.1.2\lvgl\src\lv_objx/lv_cpicker.c ****     if(ext->preview) {
 2320              		.loc 3 658 0
 2321 0602 D7F89C30 		ldr	r3, [r7, #156]
 2322 0606 1B7F     		ldrb	r3, [r3, #28]	@ zero_extendqisi2
 2323 0608 03F01003 		and	r3, r3, #16
 2324 060c DBB2     		uxtb	r3, r3
 2325 060e 002B     		cmp	r3, #0
 2326 0610 1FD0     		beq	.L110
 2327              	.LBB6:
 659:..\..\..\lvgl\version_6.1.2\lvgl\src\lv_objx/lv_cpicker.c ****         lv_color_t color = lv_cpicker_get_color(cpicker);
 2328              		.loc 3 659 0
 2329 0612 F868     		ldr	r0, [r7, #12]
 2330 0614 FFF7FEFF 		bl	lv_cpicker_get_color
 2331 0618 0346     		mov	r3, r0
 2332 061a 7B61     		str	r3, [r7, #20]
 660:..\..\..\lvgl\version_6.1.2\lvgl\src\lv_objx/lv_cpicker.c ****         style.body.main_color = color;
 2333              		.loc 3 660 0
 2334 061c 7B69     		ldr	r3, [r7, #20]
 2335 061e 7B62     		str	r3, [r7, #36]
 661:..\..\..\lvgl\version_6.1.2\lvgl\src\lv_objx/lv_cpicker.c ****         style.body.grad_color = color;
 2336              		.loc 3 661 0
ARM GAS  C:\Users\tmj32\AppData\Local\Temp\cc11CUDk.s 			page 63


 2337 0620 7B69     		ldr	r3, [r7, #20]
 2338 0622 BB62     		str	r3, [r7, #40]
 662:..\..\..\lvgl\version_6.1.2\lvgl\src\lv_objx/lv_cpicker.c ****         lv_area_increment(&area_mid, -style_main->line.width / 2);
 2339              		.loc 3 662 0
 2340 0624 D7F88030 		ldr	r3, [r7, #128]
 2341 0628 B3F94C30 		ldrsh	r3, [r3, #76]
 2342 062c 5B42     		negs	r3, r3
 2343 062e DA0F     		lsrs	r2, r3, #31
 2344 0630 1344     		add	r3, r3, r2
 2345 0632 5B10     		asrs	r3, r3, #1
 2346 0634 1AB2     		sxth	r2, r3
 2347 0636 07F11803 		add	r3, r7, #24
 2348 063a 1146     		mov	r1, r2
 2349 063c 1846     		mov	r0, r3
 2350 063e FFF7FEFF 		bl	lv_area_increment
 663:..\..\..\lvgl\version_6.1.2\lvgl\src\lv_objx/lv_cpicker.c **** 
 664:..\..\..\lvgl\version_6.1.2\lvgl\src\lv_objx/lv_cpicker.c ****         lv_draw_rect(&area_mid, mask, &style, opa_scale);
 2351              		.loc 3 664 0
 2352 0642 FB79     		ldrb	r3, [r7, #7]	@ zero_extendqisi2
 2353 0644 07F12002 		add	r2, r7, #32
 2354 0648 07F11800 		add	r0, r7, #24
 2355 064c B968     		ldr	r1, [r7, #8]
 2356 064e FFF7FEFF 		bl	lv_draw_rect
 2357              	.L110:
 2358              	.LBE6:
 665:..\..\..\lvgl\version_6.1.2\lvgl\src\lv_objx/lv_cpicker.c ****     }
 666:..\..\..\lvgl\version_6.1.2\lvgl\src\lv_objx/lv_cpicker.c **** }
 2359              		.loc 3 666 0
 2360 0652 00BF     		nop
 2361 0654 AC37     		adds	r7, r7, #172
 2362              		.cfi_def_cfa_offset 12
 2363 0656 BD46     		mov	sp, r7
 2364              		.cfi_def_cfa_register 13
 2365              		@ sp needed
 2366 0658 90BD     		pop	{r4, r7, pc}
 2367              	.L112:
 2368 065a 00BF     		.align	2
 2369              	.L111:
 2370 065c 56555555 		.word	1431655766
 2371 0660 00000000 		.word	lv_style_plain
 2372              		.cfi_endproc
 2373              	.LFE54:
 2374              		.size	draw_disc_grad, .-draw_disc_grad
 2375              		.section	.text.draw_rect_grad,"ax",%progbits
 2376              		.align	2
 2377              		.thumb
 2378              		.thumb_func
 2379              		.type	draw_rect_grad, %function
 2380              	draw_rect_grad:
 2381              	.LFB55:
 667:..\..\..\lvgl\version_6.1.2\lvgl\src\lv_objx/lv_cpicker.c **** 
 668:..\..\..\lvgl\version_6.1.2\lvgl\src\lv_objx/lv_cpicker.c **** static void draw_rect_grad(lv_obj_t * cpicker, const lv_area_t * mask, lv_opa_t opa_scale)
 669:..\..\..\lvgl\version_6.1.2\lvgl\src\lv_objx/lv_cpicker.c **** {
 2382              		.loc 3 669 0
 2383              		.cfi_startproc
 2384              		@ args = 0, pretend = 0, frame = 136
 2385              		@ frame_needed = 1, uses_anonymous_args = 0
ARM GAS  C:\Users\tmj32\AppData\Local\Temp\cc11CUDk.s 			page 64


 2386 0000 80B5     		push	{r7, lr}
 2387              		.cfi_def_cfa_offset 8
 2388              		.cfi_offset 7, -8
 2389              		.cfi_offset 14, -4
 2390 0002 A2B0     		sub	sp, sp, #136
 2391              		.cfi_def_cfa_offset 144
 2392 0004 00AF     		add	r7, sp, #0
 2393              		.cfi_def_cfa_register 7
 2394 0006 F860     		str	r0, [r7, #12]
 2395 0008 B960     		str	r1, [r7, #8]
 2396 000a 1346     		mov	r3, r2
 2397 000c FB71     		strb	r3, [r7, #7]
 670:..\..\..\lvgl\version_6.1.2\lvgl\src\lv_objx/lv_cpicker.c ****     lv_style_t style;
 671:..\..\..\lvgl\version_6.1.2\lvgl\src\lv_objx/lv_cpicker.c ****     lv_style_copy(&style, lv_cpicker_get_style(cpicker, LV_CPICKER_STYLE_MAIN));
 2398              		.loc 3 671 0
 2399 000e 0021     		movs	r1, #0
 2400 0010 F868     		ldr	r0, [r7, #12]
 2401 0012 FFF7FEFF 		bl	lv_cpicker_get_style
 2402 0016 0246     		mov	r2, r0
 2403 0018 07F12C03 		add	r3, r7, #44
 2404 001c 1146     		mov	r1, r2
 2405 001e 1846     		mov	r0, r3
 2406 0020 FFF7FEFF 		bl	lv_style_copy
 672:..\..\..\lvgl\version_6.1.2\lvgl\src\lv_objx/lv_cpicker.c **** 
 673:..\..\..\lvgl\version_6.1.2\lvgl\src\lv_objx/lv_cpicker.c ****     lv_area_t grad_area;
 674:..\..\..\lvgl\version_6.1.2\lvgl\src\lv_objx/lv_cpicker.c ****     lv_obj_get_coords(cpicker, &grad_area);
 2407              		.loc 3 674 0
 2408 0024 07F12403 		add	r3, r7, #36
 2409 0028 1946     		mov	r1, r3
 2410 002a F868     		ldr	r0, [r7, #12]
 2411 002c FFF7FEFF 		bl	lv_obj_get_coords
 675:..\..\..\lvgl\version_6.1.2\lvgl\src\lv_objx/lv_cpicker.c **** 
 676:..\..\..\lvgl\version_6.1.2\lvgl\src\lv_objx/lv_cpicker.c ****     if(style.body.radius) {
 2412              		.loc 3 676 0
 2413 0030 B7F93830 		ldrsh	r3, [r7, #56]
 2414 0034 002B     		cmp	r3, #0
 2415 0036 6CD0     		beq	.L114
 2416              	.LBB7:
 677:..\..\..\lvgl\version_6.1.2\lvgl\src\lv_objx/lv_cpicker.c ****         lv_coord_t h = lv_obj_get_height(cpicker);
 2417              		.loc 3 677 0
 2418 0038 F868     		ldr	r0, [r7, #12]
 2419 003a FFF7FEFF 		bl	lv_obj_get_height
 2420 003e 0346     		mov	r3, r0
 2421 0040 A7F88230 		strh	r3, [r7, #130]	@ movhi
 678:..\..\..\lvgl\version_6.1.2\lvgl\src\lv_objx/lv_cpicker.c ****         lv_coord_t r = style.body.radius;
 2422              		.loc 3 678 0
 2423 0044 3B8F     		ldrh	r3, [r7, #56]	@ movhi
 2424 0046 A7F88630 		strh	r3, [r7, #134]	@ movhi
 679:..\..\..\lvgl\version_6.1.2\lvgl\src\lv_objx/lv_cpicker.c ****         if(r > h / 2) r = h / 2;
 2425              		.loc 3 679 0
 2426 004a B7F98230 		ldrsh	r3, [r7, #130]
 2427 004e DA0F     		lsrs	r2, r3, #31
 2428 0050 1344     		add	r3, r3, r2
 2429 0052 5B10     		asrs	r3, r3, #1
 2430 0054 1BB2     		sxth	r3, r3
 2431 0056 B7F98620 		ldrsh	r2, [r7, #134]
 2432 005a 9A42     		cmp	r2, r3
ARM GAS  C:\Users\tmj32\AppData\Local\Temp\cc11CUDk.s 			page 65


 2433 005c 06DD     		ble	.L115
 2434              		.loc 3 679 0 is_stmt 0 discriminator 1
 2435 005e B7F98230 		ldrsh	r3, [r7, #130]
 2436 0062 DA0F     		lsrs	r2, r3, #31
 2437 0064 1344     		add	r3, r3, r2
 2438 0066 5B10     		asrs	r3, r3, #1
 2439 0068 A7F88630 		strh	r3, [r7, #134]	@ movhi
 2440              	.L115:
 680:..\..\..\lvgl\version_6.1.2\lvgl\src\lv_objx/lv_cpicker.c ****         /*Make the gradient area smaller with a half circle on both ends*/
 681:..\..\..\lvgl\version_6.1.2\lvgl\src\lv_objx/lv_cpicker.c ****         grad_area.x1 += r;
 2441              		.loc 3 681 0 is_stmt 1
 2442 006c B7F92430 		ldrsh	r3, [r7, #36]
 2443 0070 9AB2     		uxth	r2, r3
 2444 0072 B7F88630 		ldrh	r3, [r7, #134]
 2445 0076 1344     		add	r3, r3, r2
 2446 0078 9BB2     		uxth	r3, r3
 2447 007a 1BB2     		sxth	r3, r3
 2448 007c BB84     		strh	r3, [r7, #36]	@ movhi
 682:..\..\..\lvgl\version_6.1.2\lvgl\src\lv_objx/lv_cpicker.c ****         grad_area.x2 -= r;
 2449              		.loc 3 682 0
 2450 007e B7F92830 		ldrsh	r3, [r7, #40]
 2451 0082 9AB2     		uxth	r2, r3
 2452 0084 B7F88630 		ldrh	r3, [r7, #134]
 2453 0088 D31A     		subs	r3, r2, r3
 2454 008a 9BB2     		uxth	r3, r3
 2455 008c 1BB2     		sxth	r3, r3
 2456 008e 3B85     		strh	r3, [r7, #40]	@ movhi
 683:..\..\..\lvgl\version_6.1.2\lvgl\src\lv_objx/lv_cpicker.c **** 
 684:..\..\..\lvgl\version_6.1.2\lvgl\src\lv_objx/lv_cpicker.c ****         /*Draw the left rounded end*/
 685:..\..\..\lvgl\version_6.1.2\lvgl\src\lv_objx/lv_cpicker.c ****         lv_area_t rounded_edge_area;
 686:..\..\..\lvgl\version_6.1.2\lvgl\src\lv_objx/lv_cpicker.c ****         lv_obj_get_coords(cpicker, &rounded_edge_area);
 2457              		.loc 3 686 0
 2458 0090 07F11C03 		add	r3, r7, #28
 2459 0094 1946     		mov	r1, r3
 2460 0096 F868     		ldr	r0, [r7, #12]
 2461 0098 FFF7FEFF 		bl	lv_obj_get_coords
 687:..\..\..\lvgl\version_6.1.2\lvgl\src\lv_objx/lv_cpicker.c ****         rounded_edge_area.x2 = rounded_edge_area.x1 + 2 * r;
 2462              		.loc 3 687 0
 2463 009c B7F91C30 		ldrsh	r3, [r7, #28]
 2464 00a0 9AB2     		uxth	r2, r3
 2465 00a2 B7F88630 		ldrh	r3, [r7, #134]
 2466 00a6 5B00     		lsls	r3, r3, #1
 2467 00a8 9BB2     		uxth	r3, r3
 2468 00aa 1344     		add	r3, r3, r2
 2469 00ac 9BB2     		uxth	r3, r3
 2470 00ae 1BB2     		sxth	r3, r3
 2471 00b0 3B84     		strh	r3, [r7, #32]	@ movhi
 688:..\..\..\lvgl\version_6.1.2\lvgl\src\lv_objx/lv_cpicker.c **** 
 689:..\..\..\lvgl\version_6.1.2\lvgl\src\lv_objx/lv_cpicker.c ****         style.body.main_color = angle_to_mode_color(cpicker, 0);
 2472              		.loc 3 689 0
 2473 00b2 0021     		movs	r1, #0
 2474 00b4 F868     		ldr	r0, [r7, #12]
 2475 00b6 FFF7FEFF 		bl	angle_to_mode_color
 2476 00ba 3863     		str	r0, [r7, #48]
 690:..\..\..\lvgl\version_6.1.2\lvgl\src\lv_objx/lv_cpicker.c ****         style.body.grad_color = style.body.main_color;
 2477              		.loc 3 690 0
 2478 00bc 3B6B     		ldr	r3, [r7, #48]
ARM GAS  C:\Users\tmj32\AppData\Local\Temp\cc11CUDk.s 			page 66


 2479 00be 7B63     		str	r3, [r7, #52]
 691:..\..\..\lvgl\version_6.1.2\lvgl\src\lv_objx/lv_cpicker.c **** 
 692:..\..\..\lvgl\version_6.1.2\lvgl\src\lv_objx/lv_cpicker.c ****         lv_draw_rect(&rounded_edge_area, mask, &style, opa_scale);
 2480              		.loc 3 692 0
 2481 00c0 FB79     		ldrb	r3, [r7, #7]	@ zero_extendqisi2
 2482 00c2 07F12C02 		add	r2, r7, #44
 2483 00c6 07F11C00 		add	r0, r7, #28
 2484 00ca B968     		ldr	r1, [r7, #8]
 2485 00cc FFF7FEFF 		bl	lv_draw_rect
 693:..\..\..\lvgl\version_6.1.2\lvgl\src\lv_objx/lv_cpicker.c **** 
 694:..\..\..\lvgl\version_6.1.2\lvgl\src\lv_objx/lv_cpicker.c ****         /*Draw the right rounded end*/
 695:..\..\..\lvgl\version_6.1.2\lvgl\src\lv_objx/lv_cpicker.c ****         lv_obj_get_coords(cpicker, &rounded_edge_area);
 2486              		.loc 3 695 0
 2487 00d0 07F11C03 		add	r3, r7, #28
 2488 00d4 1946     		mov	r1, r3
 2489 00d6 F868     		ldr	r0, [r7, #12]
 2490 00d8 FFF7FEFF 		bl	lv_obj_get_coords
 696:..\..\..\lvgl\version_6.1.2\lvgl\src\lv_objx/lv_cpicker.c ****         rounded_edge_area.x1 = rounded_edge_area.x2 - 2 * r;
 2491              		.loc 3 696 0
 2492 00dc B7F92030 		ldrsh	r3, [r7, #32]
 2493 00e0 9AB2     		uxth	r2, r3
 2494 00e2 B7F88630 		ldrh	r3, [r7, #134]
 2495 00e6 5B00     		lsls	r3, r3, #1
 2496 00e8 9BB2     		uxth	r3, r3
 2497 00ea D31A     		subs	r3, r2, r3
 2498 00ec 9BB2     		uxth	r3, r3
 2499 00ee 1BB2     		sxth	r3, r3
 2500 00f0 BB83     		strh	r3, [r7, #28]	@ movhi
 697:..\..\..\lvgl\version_6.1.2\lvgl\src\lv_objx/lv_cpicker.c **** 
 698:..\..\..\lvgl\version_6.1.2\lvgl\src\lv_objx/lv_cpicker.c ****         style.body.main_color = angle_to_mode_color(cpicker, 359);
 2501              		.loc 3 698 0
 2502 00f2 40F26711 		movw	r1, #359
 2503 00f6 F868     		ldr	r0, [r7, #12]
 2504 00f8 FFF7FEFF 		bl	angle_to_mode_color
 2505 00fc 3863     		str	r0, [r7, #48]
 699:..\..\..\lvgl\version_6.1.2\lvgl\src\lv_objx/lv_cpicker.c ****         style.body.grad_color = style.body.main_color;
 2506              		.loc 3 699 0
 2507 00fe 3B6B     		ldr	r3, [r7, #48]
 2508 0100 7B63     		str	r3, [r7, #52]
 700:..\..\..\lvgl\version_6.1.2\lvgl\src\lv_objx/lv_cpicker.c **** 
 701:..\..\..\lvgl\version_6.1.2\lvgl\src\lv_objx/lv_cpicker.c ****         lv_draw_rect(&rounded_edge_area, mask, &style, opa_scale);
 2509              		.loc 3 701 0
 2510 0102 FB79     		ldrb	r3, [r7, #7]	@ zero_extendqisi2
 2511 0104 07F12C02 		add	r2, r7, #44
 2512 0108 07F11C00 		add	r0, r7, #28
 2513 010c B968     		ldr	r1, [r7, #8]
 2514 010e FFF7FEFF 		bl	lv_draw_rect
 2515              	.L114:
 2516              	.LBE7:
 702:..\..\..\lvgl\version_6.1.2\lvgl\src\lv_objx/lv_cpicker.c ****     }
 703:..\..\..\lvgl\version_6.1.2\lvgl\src\lv_objx/lv_cpicker.c **** 
 704:..\..\..\lvgl\version_6.1.2\lvgl\src\lv_objx/lv_cpicker.c ****     lv_coord_t grad_w = lv_area_get_width(&grad_area);
 2517              		.loc 3 704 0
 2518 0112 07F12403 		add	r3, r7, #36
 2519 0116 1846     		mov	r0, r3
 2520 0118 FFF7FEFF 		bl	lv_area_get_width
 2521 011c 0346     		mov	r3, r0
ARM GAS  C:\Users\tmj32\AppData\Local\Temp\cc11CUDk.s 			page 67


 2522 011e A7F88030 		strh	r3, [r7, #128]	@ movhi
 705:..\..\..\lvgl\version_6.1.2\lvgl\src\lv_objx/lv_cpicker.c ****     uint16_t i_step = LV_MATH_MAX(LV_CPICKER_DEF_QF, 360 / grad_w);
 2523              		.loc 3 705 0
 2524 0122 B7F98030 		ldrsh	r3, [r7, #128]
 2525 0126 4FF4B472 		mov	r2, #360
 2526 012a 92FBF3F3 		sdiv	r3, r2, r3
 2527 012e 032B     		cmp	r3, #3
 2528 0130 B8BF     		it	lt
 2529 0132 0323     		movlt	r3, #3
 2530 0134 A7F87E30 		strh	r3, [r7, #126]	@ movhi
 706:..\..\..\lvgl\version_6.1.2\lvgl\src\lv_objx/lv_cpicker.c ****     style.body.radius = 0;
 2531              		.loc 3 706 0
 2532 0138 0023     		movs	r3, #0
 2533 013a 3B87     		strh	r3, [r7, #56]	@ movhi
 707:..\..\..\lvgl\version_6.1.2\lvgl\src\lv_objx/lv_cpicker.c ****     style.body.border.width = 0;
 2534              		.loc 3 707 0
 2535 013c 0023     		movs	r3, #0
 2536 013e A7F84030 		strh	r3, [r7, #64]	@ movhi
 708:..\..\..\lvgl\version_6.1.2\lvgl\src\lv_objx/lv_cpicker.c ****     style.body.shadow.width = 0;
 2537              		.loc 3 708 0
 2538 0142 0023     		movs	r3, #0
 2539 0144 A7F84830 		strh	r3, [r7, #72]	@ movhi
 709:..\..\..\lvgl\version_6.1.2\lvgl\src\lv_objx/lv_cpicker.c ****     style.body.opa = LV_OPA_COVER;
 2540              		.loc 3 709 0
 2541 0148 FF23     		movs	r3, #255
 2542 014a 87F83A30 		strb	r3, [r7, #58]
 710:..\..\..\lvgl\version_6.1.2\lvgl\src\lv_objx/lv_cpicker.c **** 
 711:..\..\..\lvgl\version_6.1.2\lvgl\src\lv_objx/lv_cpicker.c ****     uint16_t i;
 712:..\..\..\lvgl\version_6.1.2\lvgl\src\lv_objx/lv_cpicker.c ****     for(i = 0; i < 360; i += i_step) {
 2543              		.loc 3 712 0
 2544 014e 0023     		movs	r3, #0
 2545 0150 A7F88430 		strh	r3, [r7, #132]	@ movhi
 2546 0154 49E0     		b	.L116
 2547              	.L117:
 2548              	.LBB8:
 713:..\..\..\lvgl\version_6.1.2\lvgl\src\lv_objx/lv_cpicker.c ****         style.body.main_color = angle_to_mode_color(cpicker, i);
 2549              		.loc 3 713 0 discriminator 3
 2550 0156 B7F88430 		ldrh	r3, [r7, #132]
 2551 015a 1946     		mov	r1, r3
 2552 015c F868     		ldr	r0, [r7, #12]
 2553 015e FFF7FEFF 		bl	angle_to_mode_color
 2554 0162 3863     		str	r0, [r7, #48]
 714:..\..\..\lvgl\version_6.1.2\lvgl\src\lv_objx/lv_cpicker.c ****         style.body.grad_color = style.body.main_color;
 2555              		.loc 3 714 0 discriminator 3
 2556 0164 3B6B     		ldr	r3, [r7, #48]
 2557 0166 7B63     		str	r3, [r7, #52]
 715:..\..\..\lvgl\version_6.1.2\lvgl\src\lv_objx/lv_cpicker.c **** 
 716:..\..\..\lvgl\version_6.1.2\lvgl\src\lv_objx/lv_cpicker.c ****         /*the following attribute might need changing between index to add border, shadow, radius e
 717:..\..\..\lvgl\version_6.1.2\lvgl\src\lv_objx/lv_cpicker.c ****         lv_area_t rect_area;
 718:..\..\..\lvgl\version_6.1.2\lvgl\src\lv_objx/lv_cpicker.c **** 
 719:..\..\..\lvgl\version_6.1.2\lvgl\src\lv_objx/lv_cpicker.c ****         /*scale angle (hue/sat/val) to linear coordinate*/
 720:..\..\..\lvgl\version_6.1.2\lvgl\src\lv_objx/lv_cpicker.c ****         lv_coord_t xi = (i * grad_w) / 360;
 2558              		.loc 3 720 0 discriminator 3
 2559 0168 B7F88430 		ldrh	r3, [r7, #132]
 2560 016c B7F98020 		ldrsh	r2, [r7, #128]
 2561 0170 02FB03F3 		mul	r3, r2, r3
 2562 0174 214A     		ldr	r2, .L118
ARM GAS  C:\Users\tmj32\AppData\Local\Temp\cc11CUDk.s 			page 68


 2563 0176 82FB0312 		smull	r1, r2, r2, r3
 2564 017a 1A44     		add	r2, r2, r3
 2565 017c 1212     		asrs	r2, r2, #8
 2566 017e DB17     		asrs	r3, r3, #31
 2567 0180 D31A     		subs	r3, r2, r3
 2568 0182 A7F87C30 		strh	r3, [r7, #124]	@ movhi
 721:..\..\..\lvgl\version_6.1.2\lvgl\src\lv_objx/lv_cpicker.c **** 
 722:..\..\..\lvgl\version_6.1.2\lvgl\src\lv_objx/lv_cpicker.c ****         rect_area.x1 = LV_MATH_MIN(grad_area.x1 + xi, grad_area.x1 + grad_w - i_step);
 2569              		.loc 3 722 0 discriminator 3
 2570 0186 B7F92430 		ldrsh	r3, [r7, #36]
 2571 018a 1A46     		mov	r2, r3
 2572 018c B7F98030 		ldrsh	r3, [r7, #128]
 2573 0190 1A44     		add	r2, r2, r3
 2574 0192 B7F87E30 		ldrh	r3, [r7, #126]
 2575 0196 D21A     		subs	r2, r2, r3
 2576 0198 B7F92430 		ldrsh	r3, [r7, #36]
 2577 019c 1946     		mov	r1, r3
 2578 019e B7F97C30 		ldrsh	r3, [r7, #124]
 2579 01a2 0B44     		add	r3, r3, r1
 2580 01a4 9342     		cmp	r3, r2
 2581 01a6 A8BF     		it	ge
 2582 01a8 1346     		movge	r3, r2
 2583 01aa 1BB2     		sxth	r3, r3
 2584 01ac BB82     		strh	r3, [r7, #20]	@ movhi
 723:..\..\..\lvgl\version_6.1.2\lvgl\src\lv_objx/lv_cpicker.c ****         rect_area.y1 = grad_area.y1;
 2585              		.loc 3 723 0 discriminator 3
 2586 01ae B7F92630 		ldrsh	r3, [r7, #38]
 2587 01b2 FB82     		strh	r3, [r7, #22]	@ movhi
 724:..\..\..\lvgl\version_6.1.2\lvgl\src\lv_objx/lv_cpicker.c ****         rect_area.x2 = rect_area.x1 + i_step;
 2588              		.loc 3 724 0 discriminator 3
 2589 01b4 B7F91430 		ldrsh	r3, [r7, #20]
 2590 01b8 9AB2     		uxth	r2, r3
 2591 01ba B7F87E30 		ldrh	r3, [r7, #126]	@ movhi
 2592 01be 1344     		add	r3, r3, r2
 2593 01c0 9BB2     		uxth	r3, r3
 2594 01c2 1BB2     		sxth	r3, r3
 2595 01c4 3B83     		strh	r3, [r7, #24]	@ movhi
 725:..\..\..\lvgl\version_6.1.2\lvgl\src\lv_objx/lv_cpicker.c ****         rect_area.y2 = grad_area.y2;
 2596              		.loc 3 725 0 discriminator 3
 2597 01c6 B7F92A30 		ldrsh	r3, [r7, #42]
 2598 01ca 7B83     		strh	r3, [r7, #26]	@ movhi
 726:..\..\..\lvgl\version_6.1.2\lvgl\src\lv_objx/lv_cpicker.c **** 
 727:..\..\..\lvgl\version_6.1.2\lvgl\src\lv_objx/lv_cpicker.c ****         lv_draw_rect(&rect_area, mask, &style, opa_scale);
 2599              		.loc 3 727 0 discriminator 3
 2600 01cc FB79     		ldrb	r3, [r7, #7]	@ zero_extendqisi2
 2601 01ce 07F12C02 		add	r2, r7, #44
 2602 01d2 07F11400 		add	r0, r7, #20
 2603 01d6 B968     		ldr	r1, [r7, #8]
 2604 01d8 FFF7FEFF 		bl	lv_draw_rect
 2605              	.LBE8:
 712:..\..\..\lvgl\version_6.1.2\lvgl\src\lv_objx/lv_cpicker.c ****         style.body.main_color = angle_to_mode_color(cpicker, i);
 2606              		.loc 3 712 0 discriminator 3
 2607 01dc B7F88420 		ldrh	r2, [r7, #132]	@ movhi
 2608 01e0 B7F87E30 		ldrh	r3, [r7, #126]	@ movhi
 2609 01e4 1344     		add	r3, r3, r2
 2610 01e6 A7F88430 		strh	r3, [r7, #132]	@ movhi
 2611              	.L116:
ARM GAS  C:\Users\tmj32\AppData\Local\Temp\cc11CUDk.s 			page 69


 712:..\..\..\lvgl\version_6.1.2\lvgl\src\lv_objx/lv_cpicker.c ****         style.body.main_color = angle_to_mode_color(cpicker, i);
 2612              		.loc 3 712 0 is_stmt 0 discriminator 1
 2613 01ea B7F88430 		ldrh	r3, [r7, #132]
 2614 01ee B3F5B47F 		cmp	r3, #360
 2615 01f2 B0D3     		bcc	.L117
 728:..\..\..\lvgl\version_6.1.2\lvgl\src\lv_objx/lv_cpicker.c ****     }
 729:..\..\..\lvgl\version_6.1.2\lvgl\src\lv_objx/lv_cpicker.c **** }
 2616              		.loc 3 729 0 is_stmt 1
 2617 01f4 00BF     		nop
 2618 01f6 8837     		adds	r7, r7, #136
 2619              		.cfi_def_cfa_offset 8
 2620 01f8 BD46     		mov	sp, r7
 2621              		.cfi_def_cfa_register 13
 2622              		@ sp needed
 2623 01fa 80BD     		pop	{r7, pc}
 2624              	.L119:
 2625              		.align	2
 2626              	.L118:
 2627 01fc B7600BB6 		.word	-1240768329
 2628              		.cfi_endproc
 2629              	.LFE55:
 2630              		.size	draw_rect_grad, .-draw_rect_grad
 2631              		.section	.text.draw_indic,"ax",%progbits
 2632              		.align	2
 2633              		.thumb
 2634              		.thumb_func
 2635              		.type	draw_indic, %function
 2636              	draw_indic:
 2637              	.LFB56:
 730:..\..\..\lvgl\version_6.1.2\lvgl\src\lv_objx/lv_cpicker.c **** 
 731:..\..\..\lvgl\version_6.1.2\lvgl\src\lv_objx/lv_cpicker.c **** static void draw_indic(lv_obj_t * cpicker, const lv_area_t * mask, lv_opa_t opa_scale)
 732:..\..\..\lvgl\version_6.1.2\lvgl\src\lv_objx/lv_cpicker.c **** {
 2638              		.loc 3 732 0
 2639              		.cfi_startproc
 2640              		@ args = 0, pretend = 0, frame = 112
 2641              		@ frame_needed = 1, uses_anonymous_args = 0
 2642 0000 80B5     		push	{r7, lr}
 2643              		.cfi_def_cfa_offset 8
 2644              		.cfi_offset 7, -8
 2645              		.cfi_offset 14, -4
 2646 0002 9CB0     		sub	sp, sp, #112
 2647              		.cfi_def_cfa_offset 120
 2648 0004 00AF     		add	r7, sp, #0
 2649              		.cfi_def_cfa_register 7
 2650 0006 F860     		str	r0, [r7, #12]
 2651 0008 B960     		str	r1, [r7, #8]
 2652 000a 1346     		mov	r3, r2
 2653 000c FB71     		strb	r3, [r7, #7]
 733:..\..\..\lvgl\version_6.1.2\lvgl\src\lv_objx/lv_cpicker.c ****     lv_cpicker_ext_t * ext = lv_obj_get_ext_attr(cpicker);
 2654              		.loc 3 733 0
 2655 000e F868     		ldr	r0, [r7, #12]
 2656 0010 FFF7FEFF 		bl	lv_obj_get_ext_attr
 2657 0014 F866     		str	r0, [r7, #108]
 734:..\..\..\lvgl\version_6.1.2\lvgl\src\lv_objx/lv_cpicker.c **** 
 735:..\..\..\lvgl\version_6.1.2\lvgl\src\lv_objx/lv_cpicker.c ****     lv_style_t style_cir;
 736:..\..\..\lvgl\version_6.1.2\lvgl\src\lv_objx/lv_cpicker.c ****     lv_style_copy(&style_cir, ext->indic.style);
 2658              		.loc 3 736 0
ARM GAS  C:\Users\tmj32\AppData\Local\Temp\cc11CUDk.s 			page 70


 2659 0016 FB6E     		ldr	r3, [r7, #108]
 2660 0018 5A68     		ldr	r2, [r3, #4]
 2661 001a 07F11C03 		add	r3, r7, #28
 2662 001e 1146     		mov	r1, r2
 2663 0020 1846     		mov	r0, r3
 2664 0022 FFF7FEFF 		bl	lv_style_copy
 737:..\..\..\lvgl\version_6.1.2\lvgl\src\lv_objx/lv_cpicker.c ****     style_cir.body.radius = LV_RADIUS_CIRCLE;
 2665              		.loc 3 737 0
 2666 0026 47F61843 		movw	r3, #31768
 2667 002a 3B85     		strh	r3, [r7, #40]	@ movhi
 738:..\..\..\lvgl\version_6.1.2\lvgl\src\lv_objx/lv_cpicker.c **** 
 739:..\..\..\lvgl\version_6.1.2\lvgl\src\lv_objx/lv_cpicker.c ****     if(ext->indic.colored) {
 2668              		.loc 3 739 0
 2669 002c FB6E     		ldr	r3, [r7, #108]
 2670 002e 1B7B     		ldrb	r3, [r3, #12]	@ zero_extendqisi2
 2671 0030 03F00103 		and	r3, r3, #1
 2672 0034 DBB2     		uxtb	r3, r3
 2673 0036 002B     		cmp	r3, #0
 2674 0038 05D0     		beq	.L121
 740:..\..\..\lvgl\version_6.1.2\lvgl\src\lv_objx/lv_cpicker.c ****         style_cir.body.main_color = lv_cpicker_get_color(cpicker);
 2675              		.loc 3 740 0
 2676 003a F868     		ldr	r0, [r7, #12]
 2677 003c FFF7FEFF 		bl	lv_cpicker_get_color
 2678 0040 3862     		str	r0, [r7, #32]
 741:..\..\..\lvgl\version_6.1.2\lvgl\src\lv_objx/lv_cpicker.c ****         style_cir.body.grad_color = style_cir.body.main_color;
 2679              		.loc 3 741 0
 2680 0042 3B6A     		ldr	r3, [r7, #32]
 2681 0044 7B62     		str	r3, [r7, #36]
 2682              	.L121:
 742:..\..\..\lvgl\version_6.1.2\lvgl\src\lv_objx/lv_cpicker.c ****     }
 743:..\..\..\lvgl\version_6.1.2\lvgl\src\lv_objx/lv_cpicker.c **** 
 744:..\..\..\lvgl\version_6.1.2\lvgl\src\lv_objx/lv_cpicker.c ****     lv_area_t indic_area = get_indic_area(cpicker);
 2683              		.loc 3 744 0
 2684 0046 07F11403 		add	r3, r7, #20
 2685 004a F968     		ldr	r1, [r7, #12]
 2686 004c 1846     		mov	r0, r3
 2687 004e FFF7FEFF 		bl	get_indic_area
 745:..\..\..\lvgl\version_6.1.2\lvgl\src\lv_objx/lv_cpicker.c **** 
 746:..\..\..\lvgl\version_6.1.2\lvgl\src\lv_objx/lv_cpicker.c ****     lv_draw_rect(&indic_area, mask, &style_cir, opa_scale);
 2688              		.loc 3 746 0
 2689 0052 FB79     		ldrb	r3, [r7, #7]	@ zero_extendqisi2
 2690 0054 07F11C02 		add	r2, r7, #28
 2691 0058 07F11400 		add	r0, r7, #20
 2692 005c B968     		ldr	r1, [r7, #8]
 2693 005e FFF7FEFF 		bl	lv_draw_rect
 747:..\..\..\lvgl\version_6.1.2\lvgl\src\lv_objx/lv_cpicker.c **** }
 2694              		.loc 3 747 0
 2695 0062 00BF     		nop
 2696 0064 7037     		adds	r7, r7, #112
 2697              		.cfi_def_cfa_offset 8
 2698 0066 BD46     		mov	sp, r7
 2699              		.cfi_def_cfa_register 13
 2700              		@ sp needed
 2701 0068 80BD     		pop	{r7, pc}
 2702              		.cfi_endproc
 2703              	.LFE56:
 2704              		.size	draw_indic, .-draw_indic
ARM GAS  C:\Users\tmj32\AppData\Local\Temp\cc11CUDk.s 			page 71


 2705 006a 00BF     		.section	.text.invalidate_indic,"ax",%progbits
 2706              		.align	2
 2707              		.thumb
 2708              		.thumb_func
 2709              		.type	invalidate_indic, %function
 2710              	invalidate_indic:
 2711              	.LFB57:
 748:..\..\..\lvgl\version_6.1.2\lvgl\src\lv_objx/lv_cpicker.c **** 
 749:..\..\..\lvgl\version_6.1.2\lvgl\src\lv_objx/lv_cpicker.c **** static void invalidate_indic(lv_obj_t * cpicker)
 750:..\..\..\lvgl\version_6.1.2\lvgl\src\lv_objx/lv_cpicker.c **** {
 2712              		.loc 3 750 0
 2713              		.cfi_startproc
 2714              		@ args = 0, pretend = 0, frame = 16
 2715              		@ frame_needed = 1, uses_anonymous_args = 0
 2716 0000 80B5     		push	{r7, lr}
 2717              		.cfi_def_cfa_offset 8
 2718              		.cfi_offset 7, -8
 2719              		.cfi_offset 14, -4
 2720 0002 84B0     		sub	sp, sp, #16
 2721              		.cfi_def_cfa_offset 24
 2722 0004 00AF     		add	r7, sp, #0
 2723              		.cfi_def_cfa_register 7
 2724 0006 7860     		str	r0, [r7, #4]
 751:..\..\..\lvgl\version_6.1.2\lvgl\src\lv_objx/lv_cpicker.c ****     lv_area_t indic_area = get_indic_area(cpicker);
 2725              		.loc 3 751 0
 2726 0008 07F10803 		add	r3, r7, #8
 2727 000c 7968     		ldr	r1, [r7, #4]
 2728 000e 1846     		mov	r0, r3
 2729 0010 FFF7FEFF 		bl	get_indic_area
 752:..\..\..\lvgl\version_6.1.2\lvgl\src\lv_objx/lv_cpicker.c **** 
 753:..\..\..\lvgl\version_6.1.2\lvgl\src\lv_objx/lv_cpicker.c ****     lv_obj_invalidate_area(cpicker, &indic_area);
 2730              		.loc 3 753 0
 2731 0014 07F10803 		add	r3, r7, #8
 2732 0018 1946     		mov	r1, r3
 2733 001a 7868     		ldr	r0, [r7, #4]
 2734 001c FFF7FEFF 		bl	lv_obj_invalidate_area
 754:..\..\..\lvgl\version_6.1.2\lvgl\src\lv_objx/lv_cpicker.c **** }
 2735              		.loc 3 754 0
 2736 0020 00BF     		nop
 2737 0022 1037     		adds	r7, r7, #16
 2738              		.cfi_def_cfa_offset 8
 2739 0024 BD46     		mov	sp, r7
 2740              		.cfi_def_cfa_register 13
 2741              		@ sp needed
 2742 0026 80BD     		pop	{r7, pc}
 2743              		.cfi_endproc
 2744              	.LFE57:
 2745              		.size	invalidate_indic, .-invalidate_indic
 2746              		.section	.text.get_indic_area,"ax",%progbits
 2747              		.align	2
 2748              		.thumb
 2749              		.thumb_func
