ARM GAS  C:\Users\tmj32\AppData\Local\Temp\cc0vWRpX.s 			page 1


   1              		.syntax unified
   2              		.cpu cortex-m4
   3              		.eabi_attribute 27, 1
   4              		.fpu fpv4-sp-d16
   5              		.eabi_attribute 20, 1
   6              		.eabi_attribute 21, 1
   7              		.eabi_attribute 23, 3
   8              		.eabi_attribute 24, 1
   9              		.eabi_attribute 25, 1
  10              		.eabi_attribute 26, 1
  11              		.eabi_attribute 30, 6
  12              		.eabi_attribute 34, 1
  13              		.eabi_attribute 18, 4
  14              		.thumb
  15              		.syntax unified
  16              		.file	"lv_calendar.c"
  17              		.text
  18              	.Ltext0:
  19              		.cfi_sections	.debug_frame
  20              		.section	.text.lv_font_get_line_height,"ax",%progbits
  21              		.align	2
  22              		.thumb
  23              		.thumb_func
  24              		.type	lv_font_get_line_height, %function
  25              	lv_font_get_line_height:
  26              	.LFB0:
  27              		.file 1 "..\\..\\..\\lvgl\\version_6.1.2\\lvgl\\src\\lv_objx\\../lv_core/../lv_font/lv_font.h"
   1:..\..\..\lvgl\version_6.1.2\lvgl\src\lv_objx\../lv_core/../lv_font/lv_font.h **** /**
   2:..\..\..\lvgl\version_6.1.2\lvgl\src\lv_objx\../lv_core/../lv_font/lv_font.h ****  * @file lv_font.h
   3:..\..\..\lvgl\version_6.1.2\lvgl\src\lv_objx\../lv_core/../lv_font/lv_font.h ****  *
   4:..\..\..\lvgl\version_6.1.2\lvgl\src\lv_objx\../lv_core/../lv_font/lv_font.h ****  */
   5:..\..\..\lvgl\version_6.1.2\lvgl\src\lv_objx\../lv_core/../lv_font/lv_font.h **** 
   6:..\..\..\lvgl\version_6.1.2\lvgl\src\lv_objx\../lv_core/../lv_font/lv_font.h **** #ifndef LV_FONT_H
   7:..\..\..\lvgl\version_6.1.2\lvgl\src\lv_objx\../lv_core/../lv_font/lv_font.h **** #define LV_FONT_H
   8:..\..\..\lvgl\version_6.1.2\lvgl\src\lv_objx\../lv_core/../lv_font/lv_font.h **** 
   9:..\..\..\lvgl\version_6.1.2\lvgl\src\lv_objx\../lv_core/../lv_font/lv_font.h **** #ifdef __cplusplus
  10:..\..\..\lvgl\version_6.1.2\lvgl\src\lv_objx\../lv_core/../lv_font/lv_font.h **** extern "C" {
  11:..\..\..\lvgl\version_6.1.2\lvgl\src\lv_objx\../lv_core/../lv_font/lv_font.h **** #endif
  12:..\..\..\lvgl\version_6.1.2\lvgl\src\lv_objx\../lv_core/../lv_font/lv_font.h **** 
  13:..\..\..\lvgl\version_6.1.2\lvgl\src\lv_objx\../lv_core/../lv_font/lv_font.h **** /*********************
  14:..\..\..\lvgl\version_6.1.2\lvgl\src\lv_objx\../lv_core/../lv_font/lv_font.h ****  *      INCLUDES
  15:..\..\..\lvgl\version_6.1.2\lvgl\src\lv_objx\../lv_core/../lv_font/lv_font.h ****  *********************/
  16:..\..\..\lvgl\version_6.1.2\lvgl\src\lv_objx\../lv_core/../lv_font/lv_font.h **** #ifdef LV_CONF_INCLUDE_SIMPLE
  17:..\..\..\lvgl\version_6.1.2\lvgl\src\lv_objx\../lv_core/../lv_font/lv_font.h **** #include "lv_conf.h"
  18:..\..\..\lvgl\version_6.1.2\lvgl\src\lv_objx\../lv_core/../lv_font/lv_font.h **** #else
  19:..\..\..\lvgl\version_6.1.2\lvgl\src\lv_objx\../lv_core/../lv_font/lv_font.h **** #include "../../../lv_conf.h"
  20:..\..\..\lvgl\version_6.1.2\lvgl\src\lv_objx\../lv_core/../lv_font/lv_font.h **** #endif
  21:..\..\..\lvgl\version_6.1.2\lvgl\src\lv_objx\../lv_core/../lv_font/lv_font.h **** 
  22:..\..\..\lvgl\version_6.1.2\lvgl\src\lv_objx\../lv_core/../lv_font/lv_font.h **** #include <stdint.h>
  23:..\..\..\lvgl\version_6.1.2\lvgl\src\lv_objx\../lv_core/../lv_font/lv_font.h **** #include <stddef.h>
  24:..\..\..\lvgl\version_6.1.2\lvgl\src\lv_objx\../lv_core/../lv_font/lv_font.h **** #include <stdbool.h>
  25:..\..\..\lvgl\version_6.1.2\lvgl\src\lv_objx\../lv_core/../lv_font/lv_font.h **** 
  26:..\..\..\lvgl\version_6.1.2\lvgl\src\lv_objx\../lv_core/../lv_font/lv_font.h **** #include "lv_symbol_def.h"
  27:..\..\..\lvgl\version_6.1.2\lvgl\src\lv_objx\../lv_core/../lv_font/lv_font.h **** 
  28:..\..\..\lvgl\version_6.1.2\lvgl\src\lv_objx\../lv_core/../lv_font/lv_font.h **** /*********************
  29:..\..\..\lvgl\version_6.1.2\lvgl\src\lv_objx\../lv_core/../lv_font/lv_font.h ****  *      DEFINES
  30:..\..\..\lvgl\version_6.1.2\lvgl\src\lv_objx\../lv_core/../lv_font/lv_font.h ****  *********************/
ARM GAS  C:\Users\tmj32\AppData\Local\Temp\cc0vWRpX.s 			page 2


  31:..\..\..\lvgl\version_6.1.2\lvgl\src\lv_objx\../lv_core/../lv_font/lv_font.h **** /*Number of fractional digits in the advanced width (`adv_w`) field of `lv_font_glyph_dsc_t`*/
  32:..\..\..\lvgl\version_6.1.2\lvgl\src\lv_objx\../lv_core/../lv_font/lv_font.h **** #define LV_FONT_WIDTH_FRACT_DIGIT       4
  33:..\..\..\lvgl\version_6.1.2\lvgl\src\lv_objx\../lv_core/../lv_font/lv_font.h **** 
  34:..\..\..\lvgl\version_6.1.2\lvgl\src\lv_objx\../lv_core/../lv_font/lv_font.h **** #define LV_FONT_KERN_POSITIVE        0
  35:..\..\..\lvgl\version_6.1.2\lvgl\src\lv_objx\../lv_core/../lv_font/lv_font.h **** #define LV_FONT_KERN_NEGATIVE        1
  36:..\..\..\lvgl\version_6.1.2\lvgl\src\lv_objx\../lv_core/../lv_font/lv_font.h **** 
  37:..\..\..\lvgl\version_6.1.2\lvgl\src\lv_objx\../lv_core/../lv_font/lv_font.h **** /**********************
  38:..\..\..\lvgl\version_6.1.2\lvgl\src\lv_objx\../lv_core/../lv_font/lv_font.h ****  *      TYPEDEFS
  39:..\..\..\lvgl\version_6.1.2\lvgl\src\lv_objx\../lv_core/../lv_font/lv_font.h ****  **********************/
  40:..\..\..\lvgl\version_6.1.2\lvgl\src\lv_objx\../lv_core/../lv_font/lv_font.h **** 
  41:..\..\..\lvgl\version_6.1.2\lvgl\src\lv_objx\../lv_core/../lv_font/lv_font.h **** /*------------------
  42:..\..\..\lvgl\version_6.1.2\lvgl\src\lv_objx\../lv_core/../lv_font/lv_font.h ****  * General types
  43:..\..\..\lvgl\version_6.1.2\lvgl\src\lv_objx\../lv_core/../lv_font/lv_font.h ****  *-----------------*/
  44:..\..\..\lvgl\version_6.1.2\lvgl\src\lv_objx\../lv_core/../lv_font/lv_font.h **** 
  45:..\..\..\lvgl\version_6.1.2\lvgl\src\lv_objx\../lv_core/../lv_font/lv_font.h **** /** Describes the properties of a glyph. */
  46:..\..\..\lvgl\version_6.1.2\lvgl\src\lv_objx\../lv_core/../lv_font/lv_font.h **** typedef struct
  47:..\..\..\lvgl\version_6.1.2\lvgl\src\lv_objx\../lv_core/../lv_font/lv_font.h **** {
  48:..\..\..\lvgl\version_6.1.2\lvgl\src\lv_objx\../lv_core/../lv_font/lv_font.h ****     uint16_t adv_w; /**< The glyph needs this space. Draw the next glyph after this width. 8 bit in
  49:..\..\..\lvgl\version_6.1.2\lvgl\src\lv_objx\../lv_core/../lv_font/lv_font.h ****     uint8_t box_w;  /**< Width of the glyph's bounding box*/
  50:..\..\..\lvgl\version_6.1.2\lvgl\src\lv_objx\../lv_core/../lv_font/lv_font.h ****     uint8_t box_h;  /**< Height of the glyph's bounding box*/
  51:..\..\..\lvgl\version_6.1.2\lvgl\src\lv_objx\../lv_core/../lv_font/lv_font.h ****     int8_t ofs_x;   /**< x offset of the bounding box*/
  52:..\..\..\lvgl\version_6.1.2\lvgl\src\lv_objx\../lv_core/../lv_font/lv_font.h ****     int8_t ofs_y;  /**< y offset of the bounding box*/
  53:..\..\..\lvgl\version_6.1.2\lvgl\src\lv_objx\../lv_core/../lv_font/lv_font.h ****     uint8_t bpp;   /**< Bit-per-pixel: 1, 2, 4, 8*/
  54:..\..\..\lvgl\version_6.1.2\lvgl\src\lv_objx\../lv_core/../lv_font/lv_font.h **** }lv_font_glyph_dsc_t;
  55:..\..\..\lvgl\version_6.1.2\lvgl\src\lv_objx\../lv_core/../lv_font/lv_font.h **** 
  56:..\..\..\lvgl\version_6.1.2\lvgl\src\lv_objx\../lv_core/../lv_font/lv_font.h **** 
  57:..\..\..\lvgl\version_6.1.2\lvgl\src\lv_objx\../lv_core/../lv_font/lv_font.h **** /** The bitmaps might be upscaled by 3 to achieve subpixel rendering. */
  58:..\..\..\lvgl\version_6.1.2\lvgl\src\lv_objx\../lv_core/../lv_font/lv_font.h **** enum {
  59:..\..\..\lvgl\version_6.1.2\lvgl\src\lv_objx\../lv_core/../lv_font/lv_font.h ****     LV_FONT_SUBPX_NONE,
  60:..\..\..\lvgl\version_6.1.2\lvgl\src\lv_objx\../lv_core/../lv_font/lv_font.h ****     LV_FONT_SUBPX_HOR,
  61:..\..\..\lvgl\version_6.1.2\lvgl\src\lv_objx\../lv_core/../lv_font/lv_font.h ****     LV_FONT_SUBPX_VER,
  62:..\..\..\lvgl\version_6.1.2\lvgl\src\lv_objx\../lv_core/../lv_font/lv_font.h ****     LV_FONT_SUBPX_BOTH,
  63:..\..\..\lvgl\version_6.1.2\lvgl\src\lv_objx\../lv_core/../lv_font/lv_font.h **** };
  64:..\..\..\lvgl\version_6.1.2\lvgl\src\lv_objx\../lv_core/../lv_font/lv_font.h **** 
  65:..\..\..\lvgl\version_6.1.2\lvgl\src\lv_objx\../lv_core/../lv_font/lv_font.h **** typedef uint8_t lv_font_subpx_t;
  66:..\..\..\lvgl\version_6.1.2\lvgl\src\lv_objx\../lv_core/../lv_font/lv_font.h **** 
  67:..\..\..\lvgl\version_6.1.2\lvgl\src\lv_objx\../lv_core/../lv_font/lv_font.h **** /** Describe the properties of a font*/
  68:..\..\..\lvgl\version_6.1.2\lvgl\src\lv_objx\../lv_core/../lv_font/lv_font.h **** typedef struct _lv_font_struct
  69:..\..\..\lvgl\version_6.1.2\lvgl\src\lv_objx\../lv_core/../lv_font/lv_font.h **** {
  70:..\..\..\lvgl\version_6.1.2\lvgl\src\lv_objx\../lv_core/../lv_font/lv_font.h ****     /** Get a glyph's  descriptor from a font*/
  71:..\..\..\lvgl\version_6.1.2\lvgl\src\lv_objx\../lv_core/../lv_font/lv_font.h ****     bool (*get_glyph_dsc)(const struct _lv_font_struct *, lv_font_glyph_dsc_t *, uint32_t letter, u
  72:..\..\..\lvgl\version_6.1.2\lvgl\src\lv_objx\../lv_core/../lv_font/lv_font.h **** 
  73:..\..\..\lvgl\version_6.1.2\lvgl\src\lv_objx\../lv_core/../lv_font/lv_font.h ****     /** Get a glyph's bitmap from a font*/
  74:..\..\..\lvgl\version_6.1.2\lvgl\src\lv_objx\../lv_core/../lv_font/lv_font.h ****     const uint8_t * (*get_glyph_bitmap)(const struct _lv_font_struct *, uint32_t);
  75:..\..\..\lvgl\version_6.1.2\lvgl\src\lv_objx\../lv_core/../lv_font/lv_font.h **** 
  76:..\..\..\lvgl\version_6.1.2\lvgl\src\lv_objx\../lv_core/../lv_font/lv_font.h ****     /*Pointer to the font in a font pack (must have the same line height)*/
  77:..\..\..\lvgl\version_6.1.2\lvgl\src\lv_objx\../lv_core/../lv_font/lv_font.h ****     uint8_t line_height;      /**< The real line height where any text fits*/
  78:..\..\..\lvgl\version_6.1.2\lvgl\src\lv_objx\../lv_core/../lv_font/lv_font.h ****     int8_t base_line;        /**< Base line measured from the top of the line_height*/
  79:..\..\..\lvgl\version_6.1.2\lvgl\src\lv_objx\../lv_core/../lv_font/lv_font.h ****     uint8_t subpx  :2;        /**< An element of `lv_font_subpx_t`*/
  80:..\..\..\lvgl\version_6.1.2\lvgl\src\lv_objx\../lv_core/../lv_font/lv_font.h ****     void * dsc;               /**< Store implementation specific or run_time data or caching here*/
  81:..\..\..\lvgl\version_6.1.2\lvgl\src\lv_objx\../lv_core/../lv_font/lv_font.h **** #if LV_USE_USER_DATA
  82:..\..\..\lvgl\version_6.1.2\lvgl\src\lv_objx\../lv_core/../lv_font/lv_font.h ****     lv_font_user_data_t user_data; /**< Custom user data for font. */
  83:..\..\..\lvgl\version_6.1.2\lvgl\src\lv_objx\../lv_core/../lv_font/lv_font.h **** #endif
  84:..\..\..\lvgl\version_6.1.2\lvgl\src\lv_objx\../lv_core/../lv_font/lv_font.h **** 
  85:..\..\..\lvgl\version_6.1.2\lvgl\src\lv_objx\../lv_core/../lv_font/lv_font.h **** 
  86:..\..\..\lvgl\version_6.1.2\lvgl\src\lv_objx\../lv_core/../lv_font/lv_font.h **** } lv_font_t;
  87:..\..\..\lvgl\version_6.1.2\lvgl\src\lv_objx\../lv_core/../lv_font/lv_font.h **** 
ARM GAS  C:\Users\tmj32\AppData\Local\Temp\cc0vWRpX.s 			page 3


  88:..\..\..\lvgl\version_6.1.2\lvgl\src\lv_objx\../lv_core/../lv_font/lv_font.h **** /**********************
  89:..\..\..\lvgl\version_6.1.2\lvgl\src\lv_objx\../lv_core/../lv_font/lv_font.h ****  * GLOBAL PROTOTYPES
  90:..\..\..\lvgl\version_6.1.2\lvgl\src\lv_objx\../lv_core/../lv_font/lv_font.h ****  **********************/
  91:..\..\..\lvgl\version_6.1.2\lvgl\src\lv_objx\../lv_core/../lv_font/lv_font.h **** 
  92:..\..\..\lvgl\version_6.1.2\lvgl\src\lv_objx\../lv_core/../lv_font/lv_font.h **** /**
  93:..\..\..\lvgl\version_6.1.2\lvgl\src\lv_objx\../lv_core/../lv_font/lv_font.h ****  * Return with the bitmap of a font.
  94:..\..\..\lvgl\version_6.1.2\lvgl\src\lv_objx\../lv_core/../lv_font/lv_font.h ****  * @param font_p pointer to a font
  95:..\..\..\lvgl\version_6.1.2\lvgl\src\lv_objx\../lv_core/../lv_font/lv_font.h ****  * @param letter an UNICODE character code
  96:..\..\..\lvgl\version_6.1.2\lvgl\src\lv_objx\../lv_core/../lv_font/lv_font.h ****  * @return  pointer to the bitmap of the letter
  97:..\..\..\lvgl\version_6.1.2\lvgl\src\lv_objx\../lv_core/../lv_font/lv_font.h ****  */
  98:..\..\..\lvgl\version_6.1.2\lvgl\src\lv_objx\../lv_core/../lv_font/lv_font.h **** const uint8_t * lv_font_get_glyph_bitmap(const lv_font_t * font_p, uint32_t letter);
  99:..\..\..\lvgl\version_6.1.2\lvgl\src\lv_objx\../lv_core/../lv_font/lv_font.h **** 
 100:..\..\..\lvgl\version_6.1.2\lvgl\src\lv_objx\../lv_core/../lv_font/lv_font.h **** /**
 101:..\..\..\lvgl\version_6.1.2\lvgl\src\lv_objx\../lv_core/../lv_font/lv_font.h ****  * Get the descriptor of a glyph
 102:..\..\..\lvgl\version_6.1.2\lvgl\src\lv_objx\../lv_core/../lv_font/lv_font.h ****  * @param font_p pointer to font
 103:..\..\..\lvgl\version_6.1.2\lvgl\src\lv_objx\../lv_core/../lv_font/lv_font.h ****  * @param dsc_out store the result descriptor here
 104:..\..\..\lvgl\version_6.1.2\lvgl\src\lv_objx\../lv_core/../lv_font/lv_font.h ****  * @param letter an UNICODE letter code
 105:..\..\..\lvgl\version_6.1.2\lvgl\src\lv_objx\../lv_core/../lv_font/lv_font.h ****  * @return true: descriptor is successfully loaded into `dsc_out`.
 106:..\..\..\lvgl\version_6.1.2\lvgl\src\lv_objx\../lv_core/../lv_font/lv_font.h ****  *         false: the letter was not found, no data is loaded to `dsc_out`
 107:..\..\..\lvgl\version_6.1.2\lvgl\src\lv_objx\../lv_core/../lv_font/lv_font.h ****  */
 108:..\..\..\lvgl\version_6.1.2\lvgl\src\lv_objx\../lv_core/../lv_font/lv_font.h **** bool lv_font_get_glyph_dsc(const lv_font_t * font_p, lv_font_glyph_dsc_t * dsc_out, uint32_t letter
 109:..\..\..\lvgl\version_6.1.2\lvgl\src\lv_objx\../lv_core/../lv_font/lv_font.h **** 
 110:..\..\..\lvgl\version_6.1.2\lvgl\src\lv_objx\../lv_core/../lv_font/lv_font.h **** /**
 111:..\..\..\lvgl\version_6.1.2\lvgl\src\lv_objx\../lv_core/../lv_font/lv_font.h ****  * Get the width of a glyph with kerning
 112:..\..\..\lvgl\version_6.1.2\lvgl\src\lv_objx\../lv_core/../lv_font/lv_font.h ****  * @param font pointer to a font
 113:..\..\..\lvgl\version_6.1.2\lvgl\src\lv_objx\../lv_core/../lv_font/lv_font.h ****  * @param letter an UNICODE letter
 114:..\..\..\lvgl\version_6.1.2\lvgl\src\lv_objx\../lv_core/../lv_font/lv_font.h ****  * @param letter_next the next letter after `letter`. Used for kerning
 115:..\..\..\lvgl\version_6.1.2\lvgl\src\lv_objx\../lv_core/../lv_font/lv_font.h ****  * @return the width of the glyph
 116:..\..\..\lvgl\version_6.1.2\lvgl\src\lv_objx\../lv_core/../lv_font/lv_font.h ****  */
 117:..\..\..\lvgl\version_6.1.2\lvgl\src\lv_objx\../lv_core/../lv_font/lv_font.h **** uint16_t lv_font_get_glyph_width(const lv_font_t * font, uint32_t letter, uint32_t letter_next);
 118:..\..\..\lvgl\version_6.1.2\lvgl\src\lv_objx\../lv_core/../lv_font/lv_font.h **** 
 119:..\..\..\lvgl\version_6.1.2\lvgl\src\lv_objx\../lv_core/../lv_font/lv_font.h **** /**
 120:..\..\..\lvgl\version_6.1.2\lvgl\src\lv_objx\../lv_core/../lv_font/lv_font.h ****  * Get the line height of a font. All characters fit into this height
 121:..\..\..\lvgl\version_6.1.2\lvgl\src\lv_objx\../lv_core/../lv_font/lv_font.h ****  * @param font_p pointer to a font
 122:..\..\..\lvgl\version_6.1.2\lvgl\src\lv_objx\../lv_core/../lv_font/lv_font.h ****  * @return the height of a font
 123:..\..\..\lvgl\version_6.1.2\lvgl\src\lv_objx\../lv_core/../lv_font/lv_font.h ****  */
 124:..\..\..\lvgl\version_6.1.2\lvgl\src\lv_objx\../lv_core/../lv_font/lv_font.h **** static inline uint8_t lv_font_get_line_height(const lv_font_t * font_p)
 125:..\..\..\lvgl\version_6.1.2\lvgl\src\lv_objx\../lv_core/../lv_font/lv_font.h **** {
  28              		.loc 1 125 0
  29              		.cfi_startproc
  30              		@ args = 0, pretend = 0, frame = 8
  31              		@ frame_needed = 1, uses_anonymous_args = 0
  32              		@ link register save eliminated.
  33 0000 80B4     		push	{r7}
  34              		.cfi_def_cfa_offset 4
  35              		.cfi_offset 7, -4
  36 0002 83B0     		sub	sp, sp, #12
  37              		.cfi_def_cfa_offset 16
  38 0004 00AF     		add	r7, sp, #0
  39              		.cfi_def_cfa_register 7
  40 0006 7860     		str	r0, [r7, #4]
 126:..\..\..\lvgl\version_6.1.2\lvgl\src\lv_objx\../lv_core/../lv_font/lv_font.h ****     return font_p->line_height;
  41              		.loc 1 126 0
  42 0008 7B68     		ldr	r3, [r7, #4]
  43 000a 1B7A     		ldrb	r3, [r3, #8]	@ zero_extendqisi2
 127:..\..\..\lvgl\version_6.1.2\lvgl\src\lv_objx\../lv_core/../lv_font/lv_font.h **** }
  44              		.loc 1 127 0
ARM GAS  C:\Users\tmj32\AppData\Local\Temp\cc0vWRpX.s 			page 4


  45 000c 1846     		mov	r0, r3
  46 000e 0C37     		adds	r7, r7, #12
  47              		.cfi_def_cfa_offset 4
  48 0010 BD46     		mov	sp, r7
  49              		.cfi_def_cfa_register 13
  50              		@ sp needed
  51 0012 5DF8047B 		ldr	r7, [sp], #4
  52              		.cfi_restore 7
  53              		.cfi_def_cfa_offset 0
  54 0016 7047     		bx	lr
  55              		.cfi_endproc
  56              	.LFE0:
  57              		.size	lv_font_get_line_height, .-lv_font_get_line_height
  58              		.section	.text.lv_area_copy,"ax",%progbits
  59              		.align	2
  60              		.thumb
  61              		.thumb_func
  62              		.type	lv_area_copy, %function
  63              	lv_area_copy:
  64              	.LFB10:
  65              		.file 2 "..\\..\\..\\lvgl\\version_6.1.2\\lvgl\\src\\lv_objx\\../lv_core/../lv_misc/lv_area.h"
   1:..\..\..\lvgl\version_6.1.2\lvgl\src\lv_objx\../lv_core/../lv_misc/lv_area.h **** /**
   2:..\..\..\lvgl\version_6.1.2\lvgl\src\lv_objx\../lv_core/../lv_misc/lv_area.h ****  * @file lv_area.h
   3:..\..\..\lvgl\version_6.1.2\lvgl\src\lv_objx\../lv_core/../lv_misc/lv_area.h ****  *
   4:..\..\..\lvgl\version_6.1.2\lvgl\src\lv_objx\../lv_core/../lv_misc/lv_area.h ****  */
   5:..\..\..\lvgl\version_6.1.2\lvgl\src\lv_objx\../lv_core/../lv_misc/lv_area.h **** 
   6:..\..\..\lvgl\version_6.1.2\lvgl\src\lv_objx\../lv_core/../lv_misc/lv_area.h **** #ifndef LV_AREA_H
   7:..\..\..\lvgl\version_6.1.2\lvgl\src\lv_objx\../lv_core/../lv_misc/lv_area.h **** #define LV_AREA_H
   8:..\..\..\lvgl\version_6.1.2\lvgl\src\lv_objx\../lv_core/../lv_misc/lv_area.h **** 
   9:..\..\..\lvgl\version_6.1.2\lvgl\src\lv_objx\../lv_core/../lv_misc/lv_area.h **** #ifdef __cplusplus
  10:..\..\..\lvgl\version_6.1.2\lvgl\src\lv_objx\../lv_core/../lv_misc/lv_area.h **** extern "C" {
  11:..\..\..\lvgl\version_6.1.2\lvgl\src\lv_objx\../lv_core/../lv_misc/lv_area.h **** #endif
  12:..\..\..\lvgl\version_6.1.2\lvgl\src\lv_objx\../lv_core/../lv_misc/lv_area.h **** 
  13:..\..\..\lvgl\version_6.1.2\lvgl\src\lv_objx\../lv_core/../lv_misc/lv_area.h **** /*********************
  14:..\..\..\lvgl\version_6.1.2\lvgl\src\lv_objx\../lv_core/../lv_misc/lv_area.h ****  *      INCLUDES
  15:..\..\..\lvgl\version_6.1.2\lvgl\src\lv_objx\../lv_core/../lv_misc/lv_area.h ****  *********************/
  16:..\..\..\lvgl\version_6.1.2\lvgl\src\lv_objx\../lv_core/../lv_misc/lv_area.h **** #include <string.h>
  17:..\..\..\lvgl\version_6.1.2\lvgl\src\lv_objx\../lv_core/../lv_misc/lv_area.h **** #include <stdbool.h>
  18:..\..\..\lvgl\version_6.1.2\lvgl\src\lv_objx\../lv_core/../lv_misc/lv_area.h **** #include <stdint.h>
  19:..\..\..\lvgl\version_6.1.2\lvgl\src\lv_objx\../lv_core/../lv_misc/lv_area.h **** #ifdef LV_CONF_INCLUDE_SIMPLE
  20:..\..\..\lvgl\version_6.1.2\lvgl\src\lv_objx\../lv_core/../lv_misc/lv_area.h **** #include "lv_conf.h"
  21:..\..\..\lvgl\version_6.1.2\lvgl\src\lv_objx\../lv_core/../lv_misc/lv_area.h **** #else
  22:..\..\..\lvgl\version_6.1.2\lvgl\src\lv_objx\../lv_core/../lv_misc/lv_area.h **** #include "../../../lv_conf.h"
  23:..\..\..\lvgl\version_6.1.2\lvgl\src\lv_objx\../lv_core/../lv_misc/lv_area.h **** #endif
  24:..\..\..\lvgl\version_6.1.2\lvgl\src\lv_objx\../lv_core/../lv_misc/lv_area.h **** 
  25:..\..\..\lvgl\version_6.1.2\lvgl\src\lv_objx\../lv_core/../lv_misc/lv_area.h **** /*********************
  26:..\..\..\lvgl\version_6.1.2\lvgl\src\lv_objx\../lv_core/../lv_misc/lv_area.h ****  *      DEFINES
  27:..\..\..\lvgl\version_6.1.2\lvgl\src\lv_objx\../lv_core/../lv_misc/lv_area.h ****  *********************/
  28:..\..\..\lvgl\version_6.1.2\lvgl\src\lv_objx\../lv_core/../lv_misc/lv_area.h **** /*To avoid overflow don't let the max ranges (reduce with 1000) */
  29:..\..\..\lvgl\version_6.1.2\lvgl\src\lv_objx\../lv_core/../lv_misc/lv_area.h **** #define LV_COORD_MAX ((lv_coord_t)((uint32_t)((uint32_t)1 << (8 * sizeof(lv_coord_t) - 1)) - 1000))
  30:..\..\..\lvgl\version_6.1.2\lvgl\src\lv_objx\../lv_core/../lv_misc/lv_area.h **** #define LV_COORD_MIN (-LV_COORD_MAX)
  31:..\..\..\lvgl\version_6.1.2\lvgl\src\lv_objx\../lv_core/../lv_misc/lv_area.h **** 
  32:..\..\..\lvgl\version_6.1.2\lvgl\src\lv_objx\../lv_core/../lv_misc/lv_area.h **** LV_EXPORT_CONST_INT(LV_COORD_MAX);
  33:..\..\..\lvgl\version_6.1.2\lvgl\src\lv_objx\../lv_core/../lv_misc/lv_area.h **** LV_EXPORT_CONST_INT(LV_COORD_MIN);
  34:..\..\..\lvgl\version_6.1.2\lvgl\src\lv_objx\../lv_core/../lv_misc/lv_area.h **** 
  35:..\..\..\lvgl\version_6.1.2\lvgl\src\lv_objx\../lv_core/../lv_misc/lv_area.h **** /**********************
  36:..\..\..\lvgl\version_6.1.2\lvgl\src\lv_objx\../lv_core/../lv_misc/lv_area.h ****  *      TYPEDEFS
ARM GAS  C:\Users\tmj32\AppData\Local\Temp\cc0vWRpX.s 			page 5


  37:..\..\..\lvgl\version_6.1.2\lvgl\src\lv_objx\../lv_core/../lv_misc/lv_area.h ****  **********************/
  38:..\..\..\lvgl\version_6.1.2\lvgl\src\lv_objx\../lv_core/../lv_misc/lv_area.h **** 
  39:..\..\..\lvgl\version_6.1.2\lvgl\src\lv_objx\../lv_core/../lv_misc/lv_area.h **** /**
  40:..\..\..\lvgl\version_6.1.2\lvgl\src\lv_objx\../lv_core/../lv_misc/lv_area.h ****  * Represents a point on the screen.
  41:..\..\..\lvgl\version_6.1.2\lvgl\src\lv_objx\../lv_core/../lv_misc/lv_area.h ****  */
  42:..\..\..\lvgl\version_6.1.2\lvgl\src\lv_objx\../lv_core/../lv_misc/lv_area.h **** typedef struct
  43:..\..\..\lvgl\version_6.1.2\lvgl\src\lv_objx\../lv_core/../lv_misc/lv_area.h **** {
  44:..\..\..\lvgl\version_6.1.2\lvgl\src\lv_objx\../lv_core/../lv_misc/lv_area.h ****     lv_coord_t x;
  45:..\..\..\lvgl\version_6.1.2\lvgl\src\lv_objx\../lv_core/../lv_misc/lv_area.h ****     lv_coord_t y;
  46:..\..\..\lvgl\version_6.1.2\lvgl\src\lv_objx\../lv_core/../lv_misc/lv_area.h **** } lv_point_t;
  47:..\..\..\lvgl\version_6.1.2\lvgl\src\lv_objx\../lv_core/../lv_misc/lv_area.h **** 
  48:..\..\..\lvgl\version_6.1.2\lvgl\src\lv_objx\../lv_core/../lv_misc/lv_area.h **** /** Represents an area of the screen. */
  49:..\..\..\lvgl\version_6.1.2\lvgl\src\lv_objx\../lv_core/../lv_misc/lv_area.h **** typedef struct
  50:..\..\..\lvgl\version_6.1.2\lvgl\src\lv_objx\../lv_core/../lv_misc/lv_area.h **** {
  51:..\..\..\lvgl\version_6.1.2\lvgl\src\lv_objx\../lv_core/../lv_misc/lv_area.h ****     lv_coord_t x1;
  52:..\..\..\lvgl\version_6.1.2\lvgl\src\lv_objx\../lv_core/../lv_misc/lv_area.h ****     lv_coord_t y1;
  53:..\..\..\lvgl\version_6.1.2\lvgl\src\lv_objx\../lv_core/../lv_misc/lv_area.h ****     lv_coord_t x2;
  54:..\..\..\lvgl\version_6.1.2\lvgl\src\lv_objx\../lv_core/../lv_misc/lv_area.h ****     lv_coord_t y2;
  55:..\..\..\lvgl\version_6.1.2\lvgl\src\lv_objx\../lv_core/../lv_misc/lv_area.h **** } lv_area_t;
  56:..\..\..\lvgl\version_6.1.2\lvgl\src\lv_objx\../lv_core/../lv_misc/lv_area.h **** 
  57:..\..\..\lvgl\version_6.1.2\lvgl\src\lv_objx\../lv_core/../lv_misc/lv_area.h **** /**********************
  58:..\..\..\lvgl\version_6.1.2\lvgl\src\lv_objx\../lv_core/../lv_misc/lv_area.h ****  * GLOBAL PROTOTYPES
  59:..\..\..\lvgl\version_6.1.2\lvgl\src\lv_objx\../lv_core/../lv_misc/lv_area.h ****  **********************/
  60:..\..\..\lvgl\version_6.1.2\lvgl\src\lv_objx\../lv_core/../lv_misc/lv_area.h **** 
  61:..\..\..\lvgl\version_6.1.2\lvgl\src\lv_objx\../lv_core/../lv_misc/lv_area.h **** /**
  62:..\..\..\lvgl\version_6.1.2\lvgl\src\lv_objx\../lv_core/../lv_misc/lv_area.h ****  * Initialize an area
  63:..\..\..\lvgl\version_6.1.2\lvgl\src\lv_objx\../lv_core/../lv_misc/lv_area.h ****  * @param area_p pointer to an area
  64:..\..\..\lvgl\version_6.1.2\lvgl\src\lv_objx\../lv_core/../lv_misc/lv_area.h ****  * @param x1 left coordinate of the area
  65:..\..\..\lvgl\version_6.1.2\lvgl\src\lv_objx\../lv_core/../lv_misc/lv_area.h ****  * @param y1 top coordinate of the area
  66:..\..\..\lvgl\version_6.1.2\lvgl\src\lv_objx\../lv_core/../lv_misc/lv_area.h ****  * @param x2 right coordinate of the area
  67:..\..\..\lvgl\version_6.1.2\lvgl\src\lv_objx\../lv_core/../lv_misc/lv_area.h ****  * @param y2 bottom coordinate of the area
  68:..\..\..\lvgl\version_6.1.2\lvgl\src\lv_objx\../lv_core/../lv_misc/lv_area.h ****  */
  69:..\..\..\lvgl\version_6.1.2\lvgl\src\lv_objx\../lv_core/../lv_misc/lv_area.h **** void lv_area_set(lv_area_t * area_p, lv_coord_t x1, lv_coord_t y1, lv_coord_t x2, lv_coord_t y2);
  70:..\..\..\lvgl\version_6.1.2\lvgl\src\lv_objx\../lv_core/../lv_misc/lv_area.h **** 
  71:..\..\..\lvgl\version_6.1.2\lvgl\src\lv_objx\../lv_core/../lv_misc/lv_area.h **** /**
  72:..\..\..\lvgl\version_6.1.2\lvgl\src\lv_objx\../lv_core/../lv_misc/lv_area.h ****  * Copy an area
  73:..\..\..\lvgl\version_6.1.2\lvgl\src\lv_objx\../lv_core/../lv_misc/lv_area.h ****  * @param dest pointer to the destination area
  74:..\..\..\lvgl\version_6.1.2\lvgl\src\lv_objx\../lv_core/../lv_misc/lv_area.h ****  * @param src pointer to the source area
  75:..\..\..\lvgl\version_6.1.2\lvgl\src\lv_objx\../lv_core/../lv_misc/lv_area.h ****  */
  76:..\..\..\lvgl\version_6.1.2\lvgl\src\lv_objx\../lv_core/../lv_misc/lv_area.h **** inline static void lv_area_copy(lv_area_t * dest, const lv_area_t * src)
  77:..\..\..\lvgl\version_6.1.2\lvgl\src\lv_objx\../lv_core/../lv_misc/lv_area.h **** {
  66              		.loc 2 77 0
  67              		.cfi_startproc
  68              		@ args = 0, pretend = 0, frame = 8
  69              		@ frame_needed = 1, uses_anonymous_args = 0
  70 0000 80B5     		push	{r7, lr}
  71              		.cfi_def_cfa_offset 8
  72              		.cfi_offset 7, -8
  73              		.cfi_offset 14, -4
  74 0002 82B0     		sub	sp, sp, #8
  75              		.cfi_def_cfa_offset 16
  76 0004 00AF     		add	r7, sp, #0
  77              		.cfi_def_cfa_register 7
  78 0006 7860     		str	r0, [r7, #4]
  79 0008 3960     		str	r1, [r7]
  78:..\..\..\lvgl\version_6.1.2\lvgl\src\lv_objx\../lv_core/../lv_misc/lv_area.h ****     memcpy(dest, src, sizeof(lv_area_t));
  80              		.loc 2 78 0
ARM GAS  C:\Users\tmj32\AppData\Local\Temp\cc0vWRpX.s 			page 6


  81 000a 0822     		movs	r2, #8
  82 000c 3968     		ldr	r1, [r7]
  83 000e 7868     		ldr	r0, [r7, #4]
  84 0010 FFF7FEFF 		bl	memcpy
  79:..\..\..\lvgl\version_6.1.2\lvgl\src\lv_objx\../lv_core/../lv_misc/lv_area.h **** }
  85              		.loc 2 79 0
  86 0014 00BF     		nop
  87 0016 0837     		adds	r7, r7, #8
  88              		.cfi_def_cfa_offset 8
  89 0018 BD46     		mov	sp, r7
  90              		.cfi_def_cfa_register 13
  91              		@ sp needed
  92 001a 80BD     		pop	{r7, pc}
  93              		.cfi_endproc
  94              	.LFE10:
  95              		.size	lv_area_copy, .-lv_area_copy
  96              		.section	.text.lv_area_get_width,"ax",%progbits
  97              		.align	2
  98              		.thumb
  99              		.thumb_func
 100              		.type	lv_area_get_width, %function
 101              	lv_area_get_width:
 102              	.LFB11:
  80:..\..\..\lvgl\version_6.1.2\lvgl\src\lv_objx\../lv_core/../lv_misc/lv_area.h **** 
  81:..\..\..\lvgl\version_6.1.2\lvgl\src\lv_objx\../lv_core/../lv_misc/lv_area.h **** /**
  82:..\..\..\lvgl\version_6.1.2\lvgl\src\lv_objx\../lv_core/../lv_misc/lv_area.h ****  * Get the width of an area
  83:..\..\..\lvgl\version_6.1.2\lvgl\src\lv_objx\../lv_core/../lv_misc/lv_area.h ****  * @param area_p pointer to an area
  84:..\..\..\lvgl\version_6.1.2\lvgl\src\lv_objx\../lv_core/../lv_misc/lv_area.h ****  * @return the width of the area (if x1 == x2 -> width = 1)
  85:..\..\..\lvgl\version_6.1.2\lvgl\src\lv_objx\../lv_core/../lv_misc/lv_area.h ****  */
  86:..\..\..\lvgl\version_6.1.2\lvgl\src\lv_objx\../lv_core/../lv_misc/lv_area.h **** static inline lv_coord_t lv_area_get_width(const lv_area_t * area_p)
  87:..\..\..\lvgl\version_6.1.2\lvgl\src\lv_objx\../lv_core/../lv_misc/lv_area.h **** {
 103              		.loc 2 87 0
 104              		.cfi_startproc
 105              		@ args = 0, pretend = 0, frame = 8
 106              		@ frame_needed = 1, uses_anonymous_args = 0
 107              		@ link register save eliminated.
 108 0000 80B4     		push	{r7}
 109              		.cfi_def_cfa_offset 4
 110              		.cfi_offset 7, -4
 111 0002 83B0     		sub	sp, sp, #12
 112              		.cfi_def_cfa_offset 16
 113 0004 00AF     		add	r7, sp, #0
 114              		.cfi_def_cfa_register 7
 115 0006 7860     		str	r0, [r7, #4]
  88:..\..\..\lvgl\version_6.1.2\lvgl\src\lv_objx\../lv_core/../lv_misc/lv_area.h ****     return (lv_coord_t)(area_p->x2 - area_p->x1 + 1);
 116              		.loc 2 88 0
 117 0008 7B68     		ldr	r3, [r7, #4]
 118 000a B3F90430 		ldrsh	r3, [r3, #4]
 119 000e 9AB2     		uxth	r2, r3
 120 0010 7B68     		ldr	r3, [r7, #4]
 121 0012 B3F90030 		ldrsh	r3, [r3]
 122 0016 9BB2     		uxth	r3, r3
 123 0018 D31A     		subs	r3, r2, r3
 124 001a 9BB2     		uxth	r3, r3
 125 001c 0133     		adds	r3, r3, #1
 126 001e 9BB2     		uxth	r3, r3
 127 0020 1BB2     		sxth	r3, r3
ARM GAS  C:\Users\tmj32\AppData\Local\Temp\cc0vWRpX.s 			page 7


  89:..\..\..\lvgl\version_6.1.2\lvgl\src\lv_objx\../lv_core/../lv_misc/lv_area.h **** }
 128              		.loc 2 89 0
 129 0022 1846     		mov	r0, r3
 130 0024 0C37     		adds	r7, r7, #12
 131              		.cfi_def_cfa_offset 4
 132 0026 BD46     		mov	sp, r7
 133              		.cfi_def_cfa_register 13
 134              		@ sp needed
 135 0028 5DF8047B 		ldr	r7, [sp], #4
 136              		.cfi_restore 7
 137              		.cfi_def_cfa_offset 0
 138 002c 7047     		bx	lr
 139              		.cfi_endproc
 140              	.LFE11:
 141              		.size	lv_area_get_width, .-lv_area_get_width
 142 002e 00BF     		.bss
 143              		.align	2
 144              	ancestor_signal:
 145 0000 00000000 		.space	4
 146              		.align	2
 147              	ancestor_design:
 148 0004 00000000 		.space	4
 149              		.section	.rodata
 150              		.align	2
 151              	.LC0:
 152 0000 537500   		.ascii	"Su\000"
 153 0003 00       		.align	2
 154              	.LC1:
 155 0004 4D6F00   		.ascii	"Mo\000"
 156 0007 00       		.align	2
 157              	.LC2:
 158 0008 547500   		.ascii	"Tu\000"
 159 000b 00       		.align	2
 160              	.LC3:
 161 000c 576500   		.ascii	"We\000"
 162 000f 00       		.align	2
 163              	.LC4:
 164 0010 546800   		.ascii	"Th\000"
 165 0013 00       		.align	2
 166              	.LC5:
 167 0014 467200   		.ascii	"Fr\000"
 168 0017 00       		.align	2
 169              	.LC6:
 170 0018 536100   		.ascii	"Sa\000"
 171              		.data
 172              		.align	2
 173              		.type	day_name, %object
 174              		.size	day_name, 28
 175              	day_name:
 176 0000 00000000 		.word	.LC0
 177 0004 04000000 		.word	.LC1
 178 0008 08000000 		.word	.LC2
 179 000c 0C000000 		.word	.LC3
 180 0010 10000000 		.word	.LC4
 181 0014 14000000 		.word	.LC5
 182 0018 18000000 		.word	.LC6
 183              		.section	.rodata
ARM GAS  C:\Users\tmj32\AppData\Local\Temp\cc0vWRpX.s 			page 8


 184 001b 00       		.align	2
 185              	.LC7:
 186 001c 4A616E75 		.ascii	"January\000"
 186      61727900 
 187              		.align	2
 188              	.LC8:
 189 0024 46656272 		.ascii	"February\000"
 189      75617279 
 189      00
 190 002d 000000   		.align	2
 191              	.LC9:
 192 0030 4D617263 		.ascii	"March\000"
 192      6800
 193 0036 0000     		.align	2
 194              	.LC10:
 195 0038 41707269 		.ascii	"April\000"
 195      6C00
 196 003e 0000     		.align	2
 197              	.LC11:
 198 0040 4D617900 		.ascii	"May\000"
 199              		.align	2
 200              	.LC12:
 201 0044 4A756E65 		.ascii	"June\000"
 201      00
 202 0049 000000   		.align	2
 203              	.LC13:
 204 004c 4A756C79 		.ascii	"July\000"
 204      00
 205 0051 000000   		.align	2
 206              	.LC14:
 207 0054 41756775 		.ascii	"August\000"
 207      737400
 208 005b 00       		.align	2
 209              	.LC15:
 210 005c 53657074 		.ascii	"September\000"
 210      656D6265 
 210      7200
 211 0066 0000     		.align	2
 212              	.LC16:
 213 0068 4F63746F 		.ascii	"October\000"
 213      62657200 
 214              		.align	2
 215              	.LC17:
 216 0070 4E6F7665 		.ascii	"November\000"
 216      6D626572 
 216      00
 217 0079 000000   		.align	2
 218              	.LC18:
 219 007c 44656365 		.ascii	"December\000"
 219      6D626572 
 219      00
 220              		.data
 221              		.align	2
 222              		.type	month_name, %object
 223              		.size	month_name, 48
 224              	month_name:
 225 001c 1C000000 		.word	.LC7
ARM GAS  C:\Users\tmj32\AppData\Local\Temp\cc0vWRpX.s 			page 9


 226 0020 24000000 		.word	.LC8
 227 0024 30000000 		.word	.LC9
 228 0028 38000000 		.word	.LC10
 229 002c 40000000 		.word	.LC11
 230 0030 44000000 		.word	.LC12
 231 0034 4C000000 		.word	.LC13
 232 0038 54000000 		.word	.LC14
 233 003c 5C000000 		.word	.LC15
 234 0040 68000000 		.word	.LC16
 235 0044 70000000 		.word	.LC17
 236 0048 7C000000 		.word	.LC18
 237              		.section	.text.lv_calendar_create,"ax",%progbits
 238              		.align	2
 239              		.global	lv_calendar_create
 240              		.thumb
 241              		.thumb_func
 242              		.type	lv_calendar_create, %function
 243              	lv_calendar_create:
 244              	.LFB31:
 245              		.file 3 "..\\..\\..\\lvgl\\version_6.1.2\\lvgl\\src\\lv_objx\\lv_calendar.c"
   1:..\..\..\lvgl\version_6.1.2\lvgl\src\lv_objx/lv_calendar.c **** /**
   2:..\..\..\lvgl\version_6.1.2\lvgl\src\lv_objx/lv_calendar.c ****  * @file lv_calendar.c
   3:..\..\..\lvgl\version_6.1.2\lvgl\src\lv_objx/lv_calendar.c ****  *
   4:..\..\..\lvgl\version_6.1.2\lvgl\src\lv_objx/lv_calendar.c ****  */
   5:..\..\..\lvgl\version_6.1.2\lvgl\src\lv_objx/lv_calendar.c **** 
   6:..\..\..\lvgl\version_6.1.2\lvgl\src\lv_objx/lv_calendar.c **** /*********************
   7:..\..\..\lvgl\version_6.1.2\lvgl\src\lv_objx/lv_calendar.c ****  *      INCLUDES
   8:..\..\..\lvgl\version_6.1.2\lvgl\src\lv_objx/lv_calendar.c ****  *********************/
   9:..\..\..\lvgl\version_6.1.2\lvgl\src\lv_objx/lv_calendar.c **** #include "lv_calendar.h"
  10:..\..\..\lvgl\version_6.1.2\lvgl\src\lv_objx/lv_calendar.c **** #if LV_USE_CALENDAR != 0
  11:..\..\..\lvgl\version_6.1.2\lvgl\src\lv_objx/lv_calendar.c **** 
  12:..\..\..\lvgl\version_6.1.2\lvgl\src\lv_objx/lv_calendar.c **** #include "../lv_core/lv_debug.h"
  13:..\..\..\lvgl\version_6.1.2\lvgl\src\lv_objx/lv_calendar.c **** #include "../lv_draw/lv_draw.h"
  14:..\..\..\lvgl\version_6.1.2\lvgl\src\lv_objx/lv_calendar.c **** #include "../lv_hal/lv_hal_indev.h"
  15:..\..\..\lvgl\version_6.1.2\lvgl\src\lv_objx/lv_calendar.c **** #include "../lv_misc/lv_utils.h"
  16:..\..\..\lvgl\version_6.1.2\lvgl\src\lv_objx/lv_calendar.c **** #include "../lv_core/lv_indev.h"
  17:..\..\..\lvgl\version_6.1.2\lvgl\src\lv_objx/lv_calendar.c **** #include "../lv_themes/lv_theme.h"
  18:..\..\..\lvgl\version_6.1.2\lvgl\src\lv_objx/lv_calendar.c **** #include <string.h>
  19:..\..\..\lvgl\version_6.1.2\lvgl\src\lv_objx/lv_calendar.c **** 
  20:..\..\..\lvgl\version_6.1.2\lvgl\src\lv_objx/lv_calendar.c **** /*********************
  21:..\..\..\lvgl\version_6.1.2\lvgl\src\lv_objx/lv_calendar.c ****  *      DEFINES
  22:..\..\..\lvgl\version_6.1.2\lvgl\src\lv_objx/lv_calendar.c ****  *********************/
  23:..\..\..\lvgl\version_6.1.2\lvgl\src\lv_objx/lv_calendar.c **** #define LV_OBJX_NAME "lv_calendar"
  24:..\..\..\lvgl\version_6.1.2\lvgl\src\lv_objx/lv_calendar.c **** 
  25:..\..\..\lvgl\version_6.1.2\lvgl\src\lv_objx/lv_calendar.c **** /**********************
  26:..\..\..\lvgl\version_6.1.2\lvgl\src\lv_objx/lv_calendar.c ****  *      TYPEDEFS
  27:..\..\..\lvgl\version_6.1.2\lvgl\src\lv_objx/lv_calendar.c ****  **********************/
  28:..\..\..\lvgl\version_6.1.2\lvgl\src\lv_objx/lv_calendar.c **** enum {
  29:..\..\..\lvgl\version_6.1.2\lvgl\src\lv_objx/lv_calendar.c ****     DAY_DRAW_PREV_MONTH,
  30:..\..\..\lvgl\version_6.1.2\lvgl\src\lv_objx/lv_calendar.c ****     DAY_DRAW_ACT_MONTH,
  31:..\..\..\lvgl\version_6.1.2\lvgl\src\lv_objx/lv_calendar.c ****     DAY_DRAW_NEXT_MONTH,
  32:..\..\..\lvgl\version_6.1.2\lvgl\src\lv_objx/lv_calendar.c **** };
  33:..\..\..\lvgl\version_6.1.2\lvgl\src\lv_objx/lv_calendar.c **** typedef uint8_t day_draw_state_t;
  34:..\..\..\lvgl\version_6.1.2\lvgl\src\lv_objx/lv_calendar.c **** 
  35:..\..\..\lvgl\version_6.1.2\lvgl\src\lv_objx/lv_calendar.c **** /**********************
  36:..\..\..\lvgl\version_6.1.2\lvgl\src\lv_objx/lv_calendar.c ****  *  STATIC PROTOTYPES
  37:..\..\..\lvgl\version_6.1.2\lvgl\src\lv_objx/lv_calendar.c ****  **********************/
ARM GAS  C:\Users\tmj32\AppData\Local\Temp\cc0vWRpX.s 			page 10


  38:..\..\..\lvgl\version_6.1.2\lvgl\src\lv_objx/lv_calendar.c **** static bool lv_calendar_design(lv_obj_t * calendar, const lv_area_t * mask, lv_design_mode_t mode);
  39:..\..\..\lvgl\version_6.1.2\lvgl\src\lv_objx/lv_calendar.c **** static lv_res_t lv_calendar_signal(lv_obj_t * calendar, lv_signal_t sign, void * param);
  40:..\..\..\lvgl\version_6.1.2\lvgl\src\lv_objx/lv_calendar.c **** static bool calculate_touched_day(lv_obj_t * calendar, const lv_point_t * touched_point);
  41:..\..\..\lvgl\version_6.1.2\lvgl\src\lv_objx/lv_calendar.c **** static lv_coord_t get_header_height(lv_obj_t * calendar);
  42:..\..\..\lvgl\version_6.1.2\lvgl\src\lv_objx/lv_calendar.c **** static lv_coord_t get_day_names_height(lv_obj_t * calendar);
  43:..\..\..\lvgl\version_6.1.2\lvgl\src\lv_objx/lv_calendar.c **** static void draw_header(lv_obj_t * calendar, const lv_area_t * mask);
  44:..\..\..\lvgl\version_6.1.2\lvgl\src\lv_objx/lv_calendar.c **** static void draw_day_names(lv_obj_t * calendar, const lv_area_t * mask);
  45:..\..\..\lvgl\version_6.1.2\lvgl\src\lv_objx/lv_calendar.c **** static void draw_days(lv_obj_t * calendar, const lv_area_t * mask);
  46:..\..\..\lvgl\version_6.1.2\lvgl\src\lv_objx/lv_calendar.c **** static uint8_t get_day_of_week(uint32_t year, uint32_t month, uint32_t day);
  47:..\..\..\lvgl\version_6.1.2\lvgl\src\lv_objx/lv_calendar.c **** static bool is_highlighted(lv_obj_t * calendar, int32_t year, int32_t month, int32_t day);
  48:..\..\..\lvgl\version_6.1.2\lvgl\src\lv_objx/lv_calendar.c **** static const char * get_day_name(lv_obj_t * calendar, uint8_t day);
  49:..\..\..\lvgl\version_6.1.2\lvgl\src\lv_objx/lv_calendar.c **** static const char * get_month_name(lv_obj_t * calendar, int32_t month);
  50:..\..\..\lvgl\version_6.1.2\lvgl\src\lv_objx/lv_calendar.c **** static uint8_t get_month_length(int32_t year, int32_t month);
  51:..\..\..\lvgl\version_6.1.2\lvgl\src\lv_objx/lv_calendar.c **** static uint8_t is_leap_year(uint32_t year);
  52:..\..\..\lvgl\version_6.1.2\lvgl\src\lv_objx/lv_calendar.c **** 
  53:..\..\..\lvgl\version_6.1.2\lvgl\src\lv_objx/lv_calendar.c **** /**********************
  54:..\..\..\lvgl\version_6.1.2\lvgl\src\lv_objx/lv_calendar.c ****  *  STATIC VARIABLES
  55:..\..\..\lvgl\version_6.1.2\lvgl\src\lv_objx/lv_calendar.c ****  **********************/
  56:..\..\..\lvgl\version_6.1.2\lvgl\src\lv_objx/lv_calendar.c **** static lv_signal_cb_t ancestor_signal;
  57:..\..\..\lvgl\version_6.1.2\lvgl\src\lv_objx/lv_calendar.c **** static lv_design_cb_t ancestor_design;
  58:..\..\..\lvgl\version_6.1.2\lvgl\src\lv_objx/lv_calendar.c **** static const char * day_name[7]    = {"Su", "Mo", "Tu", "We", "Th", "Fr", "Sa"};
  59:..\..\..\lvgl\version_6.1.2\lvgl\src\lv_objx/lv_calendar.c **** static const char * month_name[12] = {"January", "February", "March",     "April",   "May",      "J
  60:..\..\..\lvgl\version_6.1.2\lvgl\src\lv_objx/lv_calendar.c ****                                       "July",    "August",   "September", "October", "November", "D
  61:..\..\..\lvgl\version_6.1.2\lvgl\src\lv_objx/lv_calendar.c **** 
  62:..\..\..\lvgl\version_6.1.2\lvgl\src\lv_objx/lv_calendar.c **** /**********************
  63:..\..\..\lvgl\version_6.1.2\lvgl\src\lv_objx/lv_calendar.c ****  *      MACROS
  64:..\..\..\lvgl\version_6.1.2\lvgl\src\lv_objx/lv_calendar.c ****  **********************/
  65:..\..\..\lvgl\version_6.1.2\lvgl\src\lv_objx/lv_calendar.c **** 
  66:..\..\..\lvgl\version_6.1.2\lvgl\src\lv_objx/lv_calendar.c **** /**********************
  67:..\..\..\lvgl\version_6.1.2\lvgl\src\lv_objx/lv_calendar.c ****  *   GLOBAL FUNCTIONS
  68:..\..\..\lvgl\version_6.1.2\lvgl\src\lv_objx/lv_calendar.c ****  **********************/
  69:..\..\..\lvgl\version_6.1.2\lvgl\src\lv_objx/lv_calendar.c **** 
  70:..\..\..\lvgl\version_6.1.2\lvgl\src\lv_objx/lv_calendar.c **** /**
  71:..\..\..\lvgl\version_6.1.2\lvgl\src\lv_objx/lv_calendar.c ****  * Create a calendar object
  72:..\..\..\lvgl\version_6.1.2\lvgl\src\lv_objx/lv_calendar.c ****  * @param par pointer to an object, it will be the parent of the new calendar
  73:..\..\..\lvgl\version_6.1.2\lvgl\src\lv_objx/lv_calendar.c ****  * @param copy pointer to a calendar object, if not NULL then the new object will be copied from it
  74:..\..\..\lvgl\version_6.1.2\lvgl\src\lv_objx/lv_calendar.c ****  * @return pointer to the created calendar
  75:..\..\..\lvgl\version_6.1.2\lvgl\src\lv_objx/lv_calendar.c ****  */
  76:..\..\..\lvgl\version_6.1.2\lvgl\src\lv_objx/lv_calendar.c **** lv_obj_t * lv_calendar_create(lv_obj_t * par, const lv_obj_t * copy)
  77:..\..\..\lvgl\version_6.1.2\lvgl\src\lv_objx/lv_calendar.c **** {
 246              		.loc 3 77 0
 247              		.cfi_startproc
 248              		@ args = 0, pretend = 0, frame = 24
 249              		@ frame_needed = 1, uses_anonymous_args = 0
 250 0000 80B5     		push	{r7, lr}
 251              		.cfi_def_cfa_offset 8
 252              		.cfi_offset 7, -8
 253              		.cfi_offset 14, -4
 254 0002 86B0     		sub	sp, sp, #24
 255              		.cfi_def_cfa_offset 32
 256 0004 00AF     		add	r7, sp, #0
 257              		.cfi_def_cfa_register 7
 258 0006 7860     		str	r0, [r7, #4]
 259 0008 3960     		str	r1, [r7]
  78:..\..\..\lvgl\version_6.1.2\lvgl\src\lv_objx/lv_calendar.c ****     LV_LOG_TRACE("calendar create started");
  79:..\..\..\lvgl\version_6.1.2\lvgl\src\lv_objx/lv_calendar.c **** 
  80:..\..\..\lvgl\version_6.1.2\lvgl\src\lv_objx/lv_calendar.c ****     /*Create the ancestor of calendar*/
ARM GAS  C:\Users\tmj32\AppData\Local\Temp\cc0vWRpX.s 			page 11


  81:..\..\..\lvgl\version_6.1.2\lvgl\src\lv_objx/lv_calendar.c ****     lv_obj_t * new_calendar = lv_obj_create(par, copy);
 260              		.loc 3 81 0
 261 000a 3968     		ldr	r1, [r7]
 262 000c 7868     		ldr	r0, [r7, #4]
 263 000e FFF7FEFF 		bl	lv_obj_create
 264 0012 7861     		str	r0, [r7, #20]
  82:..\..\..\lvgl\version_6.1.2\lvgl\src\lv_objx/lv_calendar.c ****     LV_ASSERT_MEM(new_calendar);
  83:..\..\..\lvgl\version_6.1.2\lvgl\src\lv_objx/lv_calendar.c ****     if(new_calendar == NULL) return NULL;
 265              		.loc 3 83 0
 266 0014 7B69     		ldr	r3, [r7, #20]
 267 0016 002B     		cmp	r3, #0
 268 0018 01D1     		bne	.L7
 269              		.loc 3 83 0 is_stmt 0 discriminator 1
 270 001a 0023     		movs	r3, #0
 271 001c 40E1     		b	.L8
 272              	.L7:
  84:..\..\..\lvgl\version_6.1.2\lvgl\src\lv_objx/lv_calendar.c **** 
  85:..\..\..\lvgl\version_6.1.2\lvgl\src\lv_objx/lv_calendar.c ****     /*Allocate the calendar type specific extended data*/
  86:..\..\..\lvgl\version_6.1.2\lvgl\src\lv_objx/lv_calendar.c ****     lv_calendar_ext_t * ext = lv_obj_allocate_ext_attr(new_calendar, sizeof(lv_calendar_ext_t));
 273              		.loc 3 86 0 is_stmt 1
 274 001e 3821     		movs	r1, #56
 275 0020 7869     		ldr	r0, [r7, #20]
 276 0022 FFF7FEFF 		bl	lv_obj_allocate_ext_attr
 277 0026 3861     		str	r0, [r7, #16]
  87:..\..\..\lvgl\version_6.1.2\lvgl\src\lv_objx/lv_calendar.c ****     LV_ASSERT_MEM(ext);
  88:..\..\..\lvgl\version_6.1.2\lvgl\src\lv_objx/lv_calendar.c ****     if(ext == NULL) return NULL;
 278              		.loc 3 88 0
 279 0028 3B69     		ldr	r3, [r7, #16]
 280 002a 002B     		cmp	r3, #0
 281 002c 01D1     		bne	.L9
 282              		.loc 3 88 0 is_stmt 0 discriminator 1
 283 002e 0023     		movs	r3, #0
 284 0030 36E1     		b	.L8
 285              	.L9:
  89:..\..\..\lvgl\version_6.1.2\lvgl\src\lv_objx/lv_calendar.c ****     if(ancestor_signal == NULL) ancestor_signal = lv_obj_get_signal_cb(new_calendar);
 286              		.loc 3 89 0 is_stmt 1
 287 0032 9D4B     		ldr	r3, .L16
 288 0034 1B68     		ldr	r3, [r3]
 289 0036 002B     		cmp	r3, #0
 290 0038 05D1     		bne	.L10
 291              		.loc 3 89 0 is_stmt 0 discriminator 1
 292 003a 7869     		ldr	r0, [r7, #20]
 293 003c FFF7FEFF 		bl	lv_obj_get_signal_cb
 294 0040 0246     		mov	r2, r0
 295 0042 994B     		ldr	r3, .L16
 296 0044 1A60     		str	r2, [r3]
 297              	.L10:
  90:..\..\..\lvgl\version_6.1.2\lvgl\src\lv_objx/lv_calendar.c ****     if(ancestor_design == NULL) ancestor_design = lv_obj_get_design_cb(new_calendar);
 298              		.loc 3 90 0 is_stmt 1
 299 0046 994B     		ldr	r3, .L16+4
 300 0048 1B68     		ldr	r3, [r3]
 301 004a 002B     		cmp	r3, #0
 302 004c 05D1     		bne	.L11
 303              		.loc 3 90 0 is_stmt 0 discriminator 1
 304 004e 7869     		ldr	r0, [r7, #20]
 305 0050 FFF7FEFF 		bl	lv_obj_get_design_cb
 306 0054 0246     		mov	r2, r0
ARM GAS  C:\Users\tmj32\AppData\Local\Temp\cc0vWRpX.s 			page 12


 307 0056 954B     		ldr	r3, .L16+4
 308 0058 1A60     		str	r2, [r3]
 309              	.L11:
  91:..\..\..\lvgl\version_6.1.2\lvgl\src\lv_objx/lv_calendar.c **** 
  92:..\..\..\lvgl\version_6.1.2\lvgl\src\lv_objx/lv_calendar.c ****     /*Initialize the allocated 'ext' */
  93:..\..\..\lvgl\version_6.1.2\lvgl\src\lv_objx/lv_calendar.c ****     ext->today.year  = 2018;
 310              		.loc 3 93 0 is_stmt 1
 311 005a 3B69     		ldr	r3, [r7, #16]
 312 005c 40F2E272 		movw	r2, #2018
 313 0060 1A80     		strh	r2, [r3]	@ movhi
  94:..\..\..\lvgl\version_6.1.2\lvgl\src\lv_objx/lv_calendar.c ****     ext->today.month = 1;
 314              		.loc 3 94 0
 315 0062 3B69     		ldr	r3, [r7, #16]
 316 0064 0122     		movs	r2, #1
 317 0066 9A70     		strb	r2, [r3, #2]
  95:..\..\..\lvgl\version_6.1.2\lvgl\src\lv_objx/lv_calendar.c ****     ext->today.day   = 1;
 318              		.loc 3 95 0
 319 0068 3B69     		ldr	r3, [r7, #16]
 320 006a 0122     		movs	r2, #1
 321 006c DA70     		strb	r2, [r3, #3]
  96:..\..\..\lvgl\version_6.1.2\lvgl\src\lv_objx/lv_calendar.c **** 
  97:..\..\..\lvgl\version_6.1.2\lvgl\src\lv_objx/lv_calendar.c ****     ext->showed_date.year  = 2018;
 322              		.loc 3 97 0
 323 006e 3B69     		ldr	r3, [r7, #16]
 324 0070 40F2E272 		movw	r2, #2018
 325 0074 9A80     		strh	r2, [r3, #4]	@ movhi
  98:..\..\..\lvgl\version_6.1.2\lvgl\src\lv_objx/lv_calendar.c ****     ext->showed_date.month = 1;
 326              		.loc 3 98 0
 327 0076 3B69     		ldr	r3, [r7, #16]
 328 0078 0122     		movs	r2, #1
 329 007a 9A71     		strb	r2, [r3, #6]
  99:..\..\..\lvgl\version_6.1.2\lvgl\src\lv_objx/lv_calendar.c ****     ext->showed_date.day   = 1;
 330              		.loc 3 99 0
 331 007c 3B69     		ldr	r3, [r7, #16]
 332 007e 0122     		movs	r2, #1
 333 0080 DA71     		strb	r2, [r3, #7]
 100:..\..\..\lvgl\version_6.1.2\lvgl\src\lv_objx/lv_calendar.c **** 
 101:..\..\..\lvgl\version_6.1.2\lvgl\src\lv_objx/lv_calendar.c ****     ext->pressed_date.year  = 0;
 334              		.loc 3 101 0
 335 0082 3B69     		ldr	r3, [r7, #16]
 336 0084 0022     		movs	r2, #0
 337 0086 1A82     		strh	r2, [r3, #16]	@ movhi
 102:..\..\..\lvgl\version_6.1.2\lvgl\src\lv_objx/lv_calendar.c ****     ext->pressed_date.month = 0;
 338              		.loc 3 102 0
 339 0088 3B69     		ldr	r3, [r7, #16]
 340 008a 0022     		movs	r2, #0
 341 008c 9A74     		strb	r2, [r3, #18]
 103:..\..\..\lvgl\version_6.1.2\lvgl\src\lv_objx/lv_calendar.c ****     ext->pressed_date.day   = 0;
 342              		.loc 3 103 0
 343 008e 3B69     		ldr	r3, [r7, #16]
 344 0090 0022     		movs	r2, #0
 345 0092 DA74     		strb	r2, [r3, #19]
 104:..\..\..\lvgl\version_6.1.2\lvgl\src\lv_objx/lv_calendar.c **** 
 105:..\..\..\lvgl\version_6.1.2\lvgl\src\lv_objx/lv_calendar.c ****     ext->highlighted_dates      = NULL;
 346              		.loc 3 105 0
 347 0094 3B69     		ldr	r3, [r7, #16]
 348 0096 0022     		movs	r2, #0
ARM GAS  C:\Users\tmj32\AppData\Local\Temp\cc0vWRpX.s 			page 13


 349 0098 9A60     		str	r2, [r3, #8]
 106:..\..\..\lvgl\version_6.1.2\lvgl\src\lv_objx/lv_calendar.c ****     ext->highlighted_dates_num  = 0;
 350              		.loc 3 106 0
 351 009a 3B69     		ldr	r3, [r7, #16]
 352 009c 0022     		movs	r2, #0
 353 009e DA81     		strh	r2, [r3, #14]	@ movhi
 107:..\..\..\lvgl\version_6.1.2\lvgl\src\lv_objx/lv_calendar.c ****     ext->day_names              = NULL;
 354              		.loc 3 107 0
 355 00a0 3B69     		ldr	r3, [r7, #16]
 356 00a2 0022     		movs	r2, #0
 357 00a4 5A61     		str	r2, [r3, #20]
 108:..\..\..\lvgl\version_6.1.2\lvgl\src\lv_objx/lv_calendar.c ****     ext->month_names            = NULL;
 358              		.loc 3 108 0
 359 00a6 3B69     		ldr	r3, [r7, #16]
 360 00a8 0022     		movs	r2, #0
 361 00aa 9A61     		str	r2, [r3, #24]
 109:..\..\..\lvgl\version_6.1.2\lvgl\src\lv_objx/lv_calendar.c ****     ext->style_header           = &lv_style_plain_color;
 362              		.loc 3 109 0
 363 00ac 3B69     		ldr	r3, [r7, #16]
 364 00ae 804A     		ldr	r2, .L16+8
 365 00b0 DA61     		str	r2, [r3, #28]
 110:..\..\..\lvgl\version_6.1.2\lvgl\src\lv_objx/lv_calendar.c ****     ext->style_header_pr        = &lv_style_pretty_color;
 366              		.loc 3 110 0
 367 00b2 3B69     		ldr	r3, [r7, #16]
 368 00b4 7F4A     		ldr	r2, .L16+12
 369 00b6 1A62     		str	r2, [r3, #32]
 111:..\..\..\lvgl\version_6.1.2\lvgl\src\lv_objx/lv_calendar.c ****     ext->style_highlighted_days = &lv_style_plain_color;
 370              		.loc 3 111 0
 371 00b8 3B69     		ldr	r3, [r7, #16]
 372 00ba 7D4A     		ldr	r2, .L16+8
 373 00bc 9A62     		str	r2, [r3, #40]
 112:..\..\..\lvgl\version_6.1.2\lvgl\src\lv_objx/lv_calendar.c ****     ext->style_inactive_days    = &lv_style_btn_ina;
 374              		.loc 3 112 0
 375 00be 3B69     		ldr	r3, [r7, #16]
 376 00c0 7D4A     		ldr	r2, .L16+16
 377 00c2 DA62     		str	r2, [r3, #44]
 113:..\..\..\lvgl\version_6.1.2\lvgl\src\lv_objx/lv_calendar.c ****     ext->style_week_box         = &lv_style_plain_color;
 378              		.loc 3 113 0
 379 00c4 3B69     		ldr	r3, [r7, #16]
 380 00c6 7A4A     		ldr	r2, .L16+8
 381 00c8 1A63     		str	r2, [r3, #48]
 114:..\..\..\lvgl\version_6.1.2\lvgl\src\lv_objx/lv_calendar.c ****     ext->style_today_box        = &lv_style_pretty_color;
 382              		.loc 3 114 0
 383 00ca 3B69     		ldr	r3, [r7, #16]
 384 00cc 794A     		ldr	r2, .L16+12
 385 00ce 5A63     		str	r2, [r3, #52]
 115:..\..\..\lvgl\version_6.1.2\lvgl\src\lv_objx/lv_calendar.c ****     ext->style_day_names        = &lv_style_pretty;
 386              		.loc 3 115 0
 387 00d0 3B69     		ldr	r3, [r7, #16]
 388 00d2 7A4A     		ldr	r2, .L16+20
 389 00d4 5A62     		str	r2, [r3, #36]
 116:..\..\..\lvgl\version_6.1.2\lvgl\src\lv_objx/lv_calendar.c **** 
 117:..\..\..\lvgl\version_6.1.2\lvgl\src\lv_objx/lv_calendar.c ****     /*The signal and design functions are not copied so set them here*/
 118:..\..\..\lvgl\version_6.1.2\lvgl\src\lv_objx/lv_calendar.c ****     lv_obj_set_signal_cb(new_calendar, lv_calendar_signal);
 390              		.loc 3 118 0
 391 00d6 7A49     		ldr	r1, .L16+24
 392 00d8 7869     		ldr	r0, [r7, #20]
ARM GAS  C:\Users\tmj32\AppData\Local\Temp\cc0vWRpX.s 			page 14


 393 00da FFF7FEFF 		bl	lv_obj_set_signal_cb
 119:..\..\..\lvgl\version_6.1.2\lvgl\src\lv_objx/lv_calendar.c ****     lv_obj_set_design_cb(new_calendar, lv_calendar_design);
 394              		.loc 3 119 0
 395 00de 7949     		ldr	r1, .L16+28
 396 00e0 7869     		ldr	r0, [r7, #20]
 397 00e2 FFF7FEFF 		bl	lv_obj_set_design_cb
 120:..\..\..\lvgl\version_6.1.2\lvgl\src\lv_objx/lv_calendar.c **** 
 121:..\..\..\lvgl\version_6.1.2\lvgl\src\lv_objx/lv_calendar.c ****     /*Init the new calendar calendar*/
 122:..\..\..\lvgl\version_6.1.2\lvgl\src\lv_objx/lv_calendar.c ****     if(copy == NULL) {
 398              		.loc 3 122 0
 399 00e6 3B68     		ldr	r3, [r7]
 400 00e8 002B     		cmp	r3, #0
 401 00ea 40F08980 		bne	.L12
 402              	.LBB2:
 123:..\..\..\lvgl\version_6.1.2\lvgl\src\lv_objx/lv_calendar.c ****         lv_obj_set_size(new_calendar, LV_DPI * 2, LV_DPI * 2);
 403              		.loc 3 123 0
 404 00ee 4FF49672 		mov	r2, #300
 405 00f2 4FF49671 		mov	r1, #300
 406 00f6 7869     		ldr	r0, [r7, #20]
 407 00f8 FFF7FEFF 		bl	lv_obj_set_size
 124:..\..\..\lvgl\version_6.1.2\lvgl\src\lv_objx/lv_calendar.c ****         lv_obj_set_style(new_calendar, &lv_style_pretty);
 408              		.loc 3 124 0
 409 00fc 6F49     		ldr	r1, .L16+20
 410 00fe 7869     		ldr	r0, [r7, #20]
 411 0100 FFF7FEFF 		bl	lv_obj_set_style
 125:..\..\..\lvgl\version_6.1.2\lvgl\src\lv_objx/lv_calendar.c **** 
 126:..\..\..\lvgl\version_6.1.2\lvgl\src\lv_objx/lv_calendar.c ****         lv_theme_t * th = lv_theme_get_current();
 412              		.loc 3 126 0
 413 0104 FFF7FEFF 		bl	lv_theme_get_current
 414 0108 F860     		str	r0, [r7, #12]
 127:..\..\..\lvgl\version_6.1.2\lvgl\src\lv_objx/lv_calendar.c ****         if(th) {
 415              		.loc 3 127 0
 416 010a FB68     		ldr	r3, [r7, #12]
 417 010c 002B     		cmp	r3, #0
 418 010e 40D0     		beq	.L13
 128:..\..\..\lvgl\version_6.1.2\lvgl\src\lv_objx/lv_calendar.c ****             lv_calendar_set_style(new_calendar, LV_CALENDAR_STYLE_BG, th->style.calendar.bg);
 419              		.loc 3 128 0
 420 0110 FB68     		ldr	r3, [r7, #12]
 421 0112 D3F88C30 		ldr	r3, [r3, #140]
 422 0116 1A46     		mov	r2, r3
 423 0118 0021     		movs	r1, #0
 424 011a 7869     		ldr	r0, [r7, #20]
 425 011c FFF7FEFF 		bl	lv_calendar_set_style
 129:..\..\..\lvgl\version_6.1.2\lvgl\src\lv_objx/lv_calendar.c ****             lv_calendar_set_style(new_calendar, LV_CALENDAR_STYLE_HEADER, th->style.calendar.header
 426              		.loc 3 129 0
 427 0120 FB68     		ldr	r3, [r7, #12]
 428 0122 D3F89030 		ldr	r3, [r3, #144]
 429 0126 1A46     		mov	r2, r3
 430 0128 0121     		movs	r1, #1
 431 012a 7869     		ldr	r0, [r7, #20]
 432 012c FFF7FEFF 		bl	lv_calendar_set_style
 130:..\..\..\lvgl\version_6.1.2\lvgl\src\lv_objx/lv_calendar.c ****             lv_calendar_set_style(new_calendar, LV_CALENDAR_STYLE_HEADER_PR, th->style.calendar.hea
 433              		.loc 3 130 0
 434 0130 FB68     		ldr	r3, [r7, #12]
 435 0132 D3F89430 		ldr	r3, [r3, #148]
 436 0136 1A46     		mov	r2, r3
 437 0138 0221     		movs	r1, #2
ARM GAS  C:\Users\tmj32\AppData\Local\Temp\cc0vWRpX.s 			page 15


 438 013a 7869     		ldr	r0, [r7, #20]
 439 013c FFF7FEFF 		bl	lv_calendar_set_style
 131:..\..\..\lvgl\version_6.1.2\lvgl\src\lv_objx/lv_calendar.c ****             lv_calendar_set_style(new_calendar, LV_CALENDAR_STYLE_DAY_NAMES, th->style.calendar.day
 440              		.loc 3 131 0
 441 0140 FB68     		ldr	r3, [r7, #12]
 442 0142 D3F89830 		ldr	r3, [r3, #152]
 443 0146 1A46     		mov	r2, r3
 444 0148 0321     		movs	r1, #3
 445 014a 7869     		ldr	r0, [r7, #20]
 446 014c FFF7FEFF 		bl	lv_calendar_set_style
 132:..\..\..\lvgl\version_6.1.2\lvgl\src\lv_objx/lv_calendar.c ****             lv_calendar_set_style(new_calendar, LV_CALENDAR_STYLE_WEEK_BOX, th->style.calendar.week
 447              		.loc 3 132 0
 448 0150 FB68     		ldr	r3, [r7, #12]
 449 0152 D3F8A430 		ldr	r3, [r3, #164]
 450 0156 1A46     		mov	r2, r3
 451 0158 0621     		movs	r1, #6
 452 015a 7869     		ldr	r0, [r7, #20]
 453 015c FFF7FEFF 		bl	lv_calendar_set_style
 133:..\..\..\lvgl\version_6.1.2\lvgl\src\lv_objx/lv_calendar.c ****             lv_calendar_set_style(new_calendar, LV_CALENDAR_STYLE_TODAY_BOX, th->style.calendar.tod
 454              		.loc 3 133 0
 455 0160 FB68     		ldr	r3, [r7, #12]
 456 0162 D3F8A830 		ldr	r3, [r3, #168]
 457 0166 1A46     		mov	r2, r3
 458 0168 0721     		movs	r1, #7
 459 016a 7869     		ldr	r0, [r7, #20]
 460 016c FFF7FEFF 		bl	lv_calendar_set_style
 134:..\..\..\lvgl\version_6.1.2\lvgl\src\lv_objx/lv_calendar.c ****             lv_calendar_set_style(new_calendar, LV_CALENDAR_STYLE_HIGHLIGHTED_DAYS,
 135:..\..\..\lvgl\version_6.1.2\lvgl\src\lv_objx/lv_calendar.c ****                                   th->style.calendar.highlighted_days);
 461              		.loc 3 135 0
 462 0170 FB68     		ldr	r3, [r7, #12]
 463 0172 D3F89C30 		ldr	r3, [r3, #156]
 134:..\..\..\lvgl\version_6.1.2\lvgl\src\lv_objx/lv_calendar.c ****             lv_calendar_set_style(new_calendar, LV_CALENDAR_STYLE_HIGHLIGHTED_DAYS,
 464              		.loc 3 134 0
 465 0176 1A46     		mov	r2, r3
 466 0178 0421     		movs	r1, #4
 467 017a 7869     		ldr	r0, [r7, #20]
 468 017c FFF7FEFF 		bl	lv_calendar_set_style
 136:..\..\..\lvgl\version_6.1.2\lvgl\src\lv_objx/lv_calendar.c ****             lv_calendar_set_style(new_calendar, LV_CALENDAR_STYLE_INACTIVE_DAYS, th->style.calendar
 469              		.loc 3 136 0
 470 0180 FB68     		ldr	r3, [r7, #12]
 471 0182 D3F8A030 		ldr	r3, [r3, #160]
 472 0186 1A46     		mov	r2, r3
 473 0188 0521     		movs	r1, #5
 474 018a 7869     		ldr	r0, [r7, #20]
 475 018c FFF7FEFF 		bl	lv_calendar_set_style
 476 0190 85E0     		b	.L15
 477              	.L13:
 137:..\..\..\lvgl\version_6.1.2\lvgl\src\lv_objx/lv_calendar.c ****         } else {
 138:..\..\..\lvgl\version_6.1.2\lvgl\src\lv_objx/lv_calendar.c ****             lv_calendar_set_style(new_calendar, LV_CALENDAR_STYLE_BG, &lv_style_pretty);
 478              		.loc 3 138 0
 479 0192 4A4A     		ldr	r2, .L16+20
 480 0194 0021     		movs	r1, #0
 481 0196 7869     		ldr	r0, [r7, #20]
 482 0198 FFF7FEFF 		bl	lv_calendar_set_style
 139:..\..\..\lvgl\version_6.1.2\lvgl\src\lv_objx/lv_calendar.c ****             lv_calendar_set_style(new_calendar, LV_CALENDAR_STYLE_HEADER, ext->style_header);
 483              		.loc 3 139 0
 484 019c 3B69     		ldr	r3, [r7, #16]
ARM GAS  C:\Users\tmj32\AppData\Local\Temp\cc0vWRpX.s 			page 16


 485 019e DB69     		ldr	r3, [r3, #28]
 486 01a0 1A46     		mov	r2, r3
 487 01a2 0121     		movs	r1, #1
 488 01a4 7869     		ldr	r0, [r7, #20]
 489 01a6 FFF7FEFF 		bl	lv_calendar_set_style
 140:..\..\..\lvgl\version_6.1.2\lvgl\src\lv_objx/lv_calendar.c ****             lv_calendar_set_style(new_calendar, LV_CALENDAR_STYLE_HEADER_PR, ext->style_header_pr);
 490              		.loc 3 140 0
 491 01aa 3B69     		ldr	r3, [r7, #16]
 492 01ac 1B6A     		ldr	r3, [r3, #32]
 493 01ae 1A46     		mov	r2, r3
 494 01b0 0221     		movs	r1, #2
 495 01b2 7869     		ldr	r0, [r7, #20]
 496 01b4 FFF7FEFF 		bl	lv_calendar_set_style
 141:..\..\..\lvgl\version_6.1.2\lvgl\src\lv_objx/lv_calendar.c ****             lv_calendar_set_style(new_calendar, LV_CALENDAR_STYLE_DAY_NAMES, ext->style_day_names);
 497              		.loc 3 141 0
 498 01b8 3B69     		ldr	r3, [r7, #16]
 499 01ba 5B6A     		ldr	r3, [r3, #36]
 500 01bc 1A46     		mov	r2, r3
 501 01be 0321     		movs	r1, #3
 502 01c0 7869     		ldr	r0, [r7, #20]
 503 01c2 FFF7FEFF 		bl	lv_calendar_set_style
 142:..\..\..\lvgl\version_6.1.2\lvgl\src\lv_objx/lv_calendar.c ****             lv_calendar_set_style(new_calendar, LV_CALENDAR_STYLE_WEEK_BOX, ext->style_week_box);
 504              		.loc 3 142 0
 505 01c6 3B69     		ldr	r3, [r7, #16]
 506 01c8 1B6B     		ldr	r3, [r3, #48]
 507 01ca 1A46     		mov	r2, r3
 508 01cc 0621     		movs	r1, #6
 509 01ce 7869     		ldr	r0, [r7, #20]
 510 01d0 FFF7FEFF 		bl	lv_calendar_set_style
 143:..\..\..\lvgl\version_6.1.2\lvgl\src\lv_objx/lv_calendar.c ****             lv_calendar_set_style(new_calendar, LV_CALENDAR_STYLE_TODAY_BOX, ext->style_today_box);
 511              		.loc 3 143 0
 512 01d4 3B69     		ldr	r3, [r7, #16]
 513 01d6 5B6B     		ldr	r3, [r3, #52]
 514 01d8 1A46     		mov	r2, r3
 515 01da 0721     		movs	r1, #7
 516 01dc 7869     		ldr	r0, [r7, #20]
 517 01de FFF7FEFF 		bl	lv_calendar_set_style
 144:..\..\..\lvgl\version_6.1.2\lvgl\src\lv_objx/lv_calendar.c ****             lv_calendar_set_style(new_calendar, LV_CALENDAR_STYLE_HIGHLIGHTED_DAYS, ext->style_high
 518              		.loc 3 144 0
 519 01e2 3B69     		ldr	r3, [r7, #16]
 520 01e4 9B6A     		ldr	r3, [r3, #40]
 521 01e6 1A46     		mov	r2, r3
 522 01e8 0421     		movs	r1, #4
 523 01ea 7869     		ldr	r0, [r7, #20]
 524 01ec FFF7FEFF 		bl	lv_calendar_set_style
 145:..\..\..\lvgl\version_6.1.2\lvgl\src\lv_objx/lv_calendar.c ****             lv_calendar_set_style(new_calendar, LV_CALENDAR_STYLE_INACTIVE_DAYS, ext->style_inactiv
 525              		.loc 3 145 0
 526 01f0 3B69     		ldr	r3, [r7, #16]
 527 01f2 DB6A     		ldr	r3, [r3, #44]
 528 01f4 1A46     		mov	r2, r3
 529 01f6 0521     		movs	r1, #5
 530 01f8 7869     		ldr	r0, [r7, #20]
 531 01fa FFF7FEFF 		bl	lv_calendar_set_style
 532 01fe 4EE0     		b	.L15
 533              	.L12:
 534              	.LBE2:
 535              	.LBB3:
ARM GAS  C:\Users\tmj32\AppData\Local\Temp\cc0vWRpX.s 			page 17


 146:..\..\..\lvgl\version_6.1.2\lvgl\src\lv_objx/lv_calendar.c ****         }
 147:..\..\..\lvgl\version_6.1.2\lvgl\src\lv_objx/lv_calendar.c ****     }
 148:..\..\..\lvgl\version_6.1.2\lvgl\src\lv_objx/lv_calendar.c ****     /*Copy an existing calendar*/
 149:..\..\..\lvgl\version_6.1.2\lvgl\src\lv_objx/lv_calendar.c ****     else {
 150:..\..\..\lvgl\version_6.1.2\lvgl\src\lv_objx/lv_calendar.c ****         lv_calendar_ext_t * copy_ext = lv_obj_get_ext_attr(copy);
 536              		.loc 3 150 0
 537 0200 3868     		ldr	r0, [r7]
 538 0202 FFF7FEFF 		bl	lv_obj_get_ext_attr
 539 0206 B860     		str	r0, [r7, #8]
 151:..\..\..\lvgl\version_6.1.2\lvgl\src\lv_objx/lv_calendar.c ****         ext->today.year              = copy_ext->today.year;
 540              		.loc 3 151 0
 541 0208 BB68     		ldr	r3, [r7, #8]
 542 020a 1A88     		ldrh	r2, [r3]
 543 020c 3B69     		ldr	r3, [r7, #16]
 544 020e 1A80     		strh	r2, [r3]	@ movhi
 152:..\..\..\lvgl\version_6.1.2\lvgl\src\lv_objx/lv_calendar.c ****         ext->today.month             = copy_ext->today.month;
 545              		.loc 3 152 0
 546 0210 BB68     		ldr	r3, [r7, #8]
 547 0212 93F90220 		ldrsb	r2, [r3, #2]
 548 0216 3B69     		ldr	r3, [r7, #16]
 549 0218 9A70     		strb	r2, [r3, #2]
 153:..\..\..\lvgl\version_6.1.2\lvgl\src\lv_objx/lv_calendar.c ****         ext->today.day               = copy_ext->today.day;
 550              		.loc 3 153 0
 551 021a BB68     		ldr	r3, [r7, #8]
 552 021c 93F90320 		ldrsb	r2, [r3, #3]
 553 0220 3B69     		ldr	r3, [r7, #16]
 554 0222 DA70     		strb	r2, [r3, #3]
 154:..\..\..\lvgl\version_6.1.2\lvgl\src\lv_objx/lv_calendar.c **** 
 155:..\..\..\lvgl\version_6.1.2\lvgl\src\lv_objx/lv_calendar.c ****         ext->showed_date.year  = copy_ext->showed_date.year;
 555              		.loc 3 155 0
 556 0224 BB68     		ldr	r3, [r7, #8]
 557 0226 9A88     		ldrh	r2, [r3, #4]
 558 0228 3B69     		ldr	r3, [r7, #16]
 559 022a 9A80     		strh	r2, [r3, #4]	@ movhi
 156:..\..\..\lvgl\version_6.1.2\lvgl\src\lv_objx/lv_calendar.c ****         ext->showed_date.month = copy_ext->showed_date.month;
 560              		.loc 3 156 0
 561 022c BB68     		ldr	r3, [r7, #8]
 562 022e 93F90620 		ldrsb	r2, [r3, #6]
 563 0232 3B69     		ldr	r3, [r7, #16]
 564 0234 9A71     		strb	r2, [r3, #6]
 157:..\..\..\lvgl\version_6.1.2\lvgl\src\lv_objx/lv_calendar.c ****         ext->showed_date.day   = copy_ext->showed_date.day;
 565              		.loc 3 157 0
 566 0236 BB68     		ldr	r3, [r7, #8]
 567 0238 93F90720 		ldrsb	r2, [r3, #7]
 568 023c 3B69     		ldr	r3, [r7, #16]
 569 023e DA71     		strb	r2, [r3, #7]
 158:..\..\..\lvgl\version_6.1.2\lvgl\src\lv_objx/lv_calendar.c **** 
 159:..\..\..\lvgl\version_6.1.2\lvgl\src\lv_objx/lv_calendar.c ****         ext->highlighted_dates     = copy_ext->highlighted_dates;
 570              		.loc 3 159 0
 571 0240 BB68     		ldr	r3, [r7, #8]
 572 0242 9A68     		ldr	r2, [r3, #8]
 573 0244 3B69     		ldr	r3, [r7, #16]
 574 0246 9A60     		str	r2, [r3, #8]
 160:..\..\..\lvgl\version_6.1.2\lvgl\src\lv_objx/lv_calendar.c ****         ext->highlighted_dates_num = copy_ext->highlighted_dates_num;
 575              		.loc 3 160 0
 576 0248 BB68     		ldr	r3, [r7, #8]
 577 024a DA89     		ldrh	r2, [r3, #14]
ARM GAS  C:\Users\tmj32\AppData\Local\Temp\cc0vWRpX.s 			page 18


 578 024c 3B69     		ldr	r3, [r7, #16]
 579 024e DA81     		strh	r2, [r3, #14]	@ movhi
 161:..\..\..\lvgl\version_6.1.2\lvgl\src\lv_objx/lv_calendar.c ****         ext->day_names             = copy_ext->day_names;
 580              		.loc 3 161 0
 581 0250 BB68     		ldr	r3, [r7, #8]
 582 0252 5A69     		ldr	r2, [r3, #20]
 583 0254 3B69     		ldr	r3, [r7, #16]
 584 0256 5A61     		str	r2, [r3, #20]
 162:..\..\..\lvgl\version_6.1.2\lvgl\src\lv_objx/lv_calendar.c **** 
 163:..\..\..\lvgl\version_6.1.2\lvgl\src\lv_objx/lv_calendar.c ****         ext->month_names            = copy_ext->month_names;
 585              		.loc 3 163 0
 586 0258 BB68     		ldr	r3, [r7, #8]
 587 025a 9A69     		ldr	r2, [r3, #24]
 588 025c 3B69     		ldr	r3, [r7, #16]
 589 025e 9A61     		str	r2, [r3, #24]
 164:..\..\..\lvgl\version_6.1.2\lvgl\src\lv_objx/lv_calendar.c ****         ext->style_header           = copy_ext->style_header;
 590              		.loc 3 164 0
 591 0260 BB68     		ldr	r3, [r7, #8]
 592 0262 DA69     		ldr	r2, [r3, #28]
 593 0264 3B69     		ldr	r3, [r7, #16]
 594 0266 DA61     		str	r2, [r3, #28]
 165:..\..\..\lvgl\version_6.1.2\lvgl\src\lv_objx/lv_calendar.c ****         ext->style_header_pr        = copy_ext->style_header_pr;
 595              		.loc 3 165 0
 596 0268 BB68     		ldr	r3, [r7, #8]
 597 026a 1A6A     		ldr	r2, [r3, #32]
 598 026c 3B69     		ldr	r3, [r7, #16]
 599 026e 1A62     		str	r2, [r3, #32]
 166:..\..\..\lvgl\version_6.1.2\lvgl\src\lv_objx/lv_calendar.c ****         ext->style_highlighted_days = copy_ext->style_highlighted_days;
 600              		.loc 3 166 0
 601 0270 BB68     		ldr	r3, [r7, #8]
 602 0272 9A6A     		ldr	r2, [r3, #40]
 603 0274 3B69     		ldr	r3, [r7, #16]
 604 0276 9A62     		str	r2, [r3, #40]
 167:..\..\..\lvgl\version_6.1.2\lvgl\src\lv_objx/lv_calendar.c ****         ext->style_inactive_days    = copy_ext->style_inactive_days;
 605              		.loc 3 167 0
 606 0278 BB68     		ldr	r3, [r7, #8]
 607 027a DA6A     		ldr	r2, [r3, #44]
 608 027c 3B69     		ldr	r3, [r7, #16]
 609 027e DA62     		str	r2, [r3, #44]
 168:..\..\..\lvgl\version_6.1.2\lvgl\src\lv_objx/lv_calendar.c ****         ext->style_week_box         = copy_ext->style_week_box;
 610              		.loc 3 168 0
 611 0280 BB68     		ldr	r3, [r7, #8]
 612 0282 1A6B     		ldr	r2, [r3, #48]
 613 0284 3B69     		ldr	r3, [r7, #16]
 614 0286 1A63     		str	r2, [r3, #48]
 169:..\..\..\lvgl\version_6.1.2\lvgl\src\lv_objx/lv_calendar.c ****         ext->style_today_box        = copy_ext->style_today_box;
 615              		.loc 3 169 0
 616 0288 BB68     		ldr	r3, [r7, #8]
 617 028a 5A6B     		ldr	r2, [r3, #52]
 618 028c 3B69     		ldr	r3, [r7, #16]
 619 028e 5A63     		str	r2, [r3, #52]
 170:..\..\..\lvgl\version_6.1.2\lvgl\src\lv_objx/lv_calendar.c ****         ext->style_day_names        = copy_ext->style_day_names;
 620              		.loc 3 170 0
 621 0290 BB68     		ldr	r3, [r7, #8]
 622 0292 5A6A     		ldr	r2, [r3, #36]
 623 0294 3B69     		ldr	r3, [r7, #16]
 624 0296 5A62     		str	r2, [r3, #36]
ARM GAS  C:\Users\tmj32\AppData\Local\Temp\cc0vWRpX.s 			page 19


 171:..\..\..\lvgl\version_6.1.2\lvgl\src\lv_objx/lv_calendar.c ****         /*Refresh the style with new signal function*/
 172:..\..\..\lvgl\version_6.1.2\lvgl\src\lv_objx/lv_calendar.c ****         lv_obj_refresh_style(new_calendar);
 625              		.loc 3 172 0
 626 0298 7869     		ldr	r0, [r7, #20]
 627 029a FFF7FEFF 		bl	lv_obj_refresh_style
 628              	.L15:
 629              	.LBE3:
 173:..\..\..\lvgl\version_6.1.2\lvgl\src\lv_objx/lv_calendar.c ****     }
 174:..\..\..\lvgl\version_6.1.2\lvgl\src\lv_objx/lv_calendar.c **** 
 175:..\..\..\lvgl\version_6.1.2\lvgl\src\lv_objx/lv_calendar.c ****     LV_LOG_INFO("calendar created");
 176:..\..\..\lvgl\version_6.1.2\lvgl\src\lv_objx/lv_calendar.c **** 
 177:..\..\..\lvgl\version_6.1.2\lvgl\src\lv_objx/lv_calendar.c ****     return new_calendar;
 630              		.loc 3 177 0
 631 029e 7B69     		ldr	r3, [r7, #20]
 632              	.L8:
 178:..\..\..\lvgl\version_6.1.2\lvgl\src\lv_objx/lv_calendar.c **** }
 633              		.loc 3 178 0
 634 02a0 1846     		mov	r0, r3
 635 02a2 1837     		adds	r7, r7, #24
 636              		.cfi_def_cfa_offset 8
 637 02a4 BD46     		mov	sp, r7
 638              		.cfi_def_cfa_register 13
 639              		@ sp needed
 640 02a6 80BD     		pop	{r7, pc}
 641              	.L17:
 642              		.align	2
 643              	.L16:
 644 02a8 00000000 		.word	ancestor_signal
 645 02ac 04000000 		.word	ancestor_design
 646 02b0 00000000 		.word	lv_style_plain_color
 647 02b4 00000000 		.word	lv_style_pretty_color
 648 02b8 00000000 		.word	lv_style_btn_ina
 649 02bc 00000000 		.word	lv_style_pretty
 650 02c0 00000000 		.word	lv_calendar_signal
 651 02c4 00000000 		.word	lv_calendar_design
 652              		.cfi_endproc
 653              	.LFE31:
 654              		.size	lv_calendar_create, .-lv_calendar_create
 655              		.section	.text.lv_calendar_set_today_date,"ax",%progbits
 656              		.align	2
 657              		.global	lv_calendar_set_today_date
 658              		.thumb
 659              		.thumb_func
 660              		.type	lv_calendar_set_today_date, %function
 661              	lv_calendar_set_today_date:
 662              	.LFB32:
 179:..\..\..\lvgl\version_6.1.2\lvgl\src\lv_objx/lv_calendar.c **** 
 180:..\..\..\lvgl\version_6.1.2\lvgl\src\lv_objx/lv_calendar.c **** /*======================
 181:..\..\..\lvgl\version_6.1.2\lvgl\src\lv_objx/lv_calendar.c ****  * Add/remove functions
 182:..\..\..\lvgl\version_6.1.2\lvgl\src\lv_objx/lv_calendar.c ****  *=====================*/
 183:..\..\..\lvgl\version_6.1.2\lvgl\src\lv_objx/lv_calendar.c **** 
 184:..\..\..\lvgl\version_6.1.2\lvgl\src\lv_objx/lv_calendar.c **** /*
 185:..\..\..\lvgl\version_6.1.2\lvgl\src\lv_objx/lv_calendar.c ****  * New object specific "add" or "remove" functions come here
 186:..\..\..\lvgl\version_6.1.2\lvgl\src\lv_objx/lv_calendar.c ****  */
 187:..\..\..\lvgl\version_6.1.2\lvgl\src\lv_objx/lv_calendar.c **** 
 188:..\..\..\lvgl\version_6.1.2\lvgl\src\lv_objx/lv_calendar.c **** /*=====================
 189:..\..\..\lvgl\version_6.1.2\lvgl\src\lv_objx/lv_calendar.c ****  * Setter functions
ARM GAS  C:\Users\tmj32\AppData\Local\Temp\cc0vWRpX.s 			page 20


 190:..\..\..\lvgl\version_6.1.2\lvgl\src\lv_objx/lv_calendar.c ****  *====================*/
 191:..\..\..\lvgl\version_6.1.2\lvgl\src\lv_objx/lv_calendar.c **** 
 192:..\..\..\lvgl\version_6.1.2\lvgl\src\lv_objx/lv_calendar.c **** /**
 193:..\..\..\lvgl\version_6.1.2\lvgl\src\lv_objx/lv_calendar.c ****  * Set the today's date
 194:..\..\..\lvgl\version_6.1.2\lvgl\src\lv_objx/lv_calendar.c ****  * @param calendar pointer to a calendar object
 195:..\..\..\lvgl\version_6.1.2\lvgl\src\lv_objx/lv_calendar.c ****  * @param today pointer to an `lv_calendar_date_t` variable containing the date of today. The value
 196:..\..\..\lvgl\version_6.1.2\lvgl\src\lv_objx/lv_calendar.c ****  * will be saved it can be local variable too.
 197:..\..\..\lvgl\version_6.1.2\lvgl\src\lv_objx/lv_calendar.c ****  */
 198:..\..\..\lvgl\version_6.1.2\lvgl\src\lv_objx/lv_calendar.c **** void lv_calendar_set_today_date(lv_obj_t * calendar, lv_calendar_date_t * today)
 199:..\..\..\lvgl\version_6.1.2\lvgl\src\lv_objx/lv_calendar.c **** {
 663              		.loc 3 199 0
 664              		.cfi_startproc
 665              		@ args = 0, pretend = 0, frame = 16
 666              		@ frame_needed = 1, uses_anonymous_args = 0
 667 0000 80B5     		push	{r7, lr}
 668              		.cfi_def_cfa_offset 8
 669              		.cfi_offset 7, -8
 670              		.cfi_offset 14, -4
 671 0002 84B0     		sub	sp, sp, #16
 672              		.cfi_def_cfa_offset 24
 673 0004 00AF     		add	r7, sp, #0
 674              		.cfi_def_cfa_register 7
 675 0006 7860     		str	r0, [r7, #4]
 676 0008 3960     		str	r1, [r7]
 200:..\..\..\lvgl\version_6.1.2\lvgl\src\lv_objx/lv_calendar.c ****     LV_ASSERT_OBJ(calendar, LV_OBJX_NAME);
 201:..\..\..\lvgl\version_6.1.2\lvgl\src\lv_objx/lv_calendar.c ****     LV_ASSERT_NULL(today);
 202:..\..\..\lvgl\version_6.1.2\lvgl\src\lv_objx/lv_calendar.c **** 
 203:..\..\..\lvgl\version_6.1.2\lvgl\src\lv_objx/lv_calendar.c ****     lv_calendar_ext_t * ext = lv_obj_get_ext_attr(calendar);
 677              		.loc 3 203 0
 678 000a 7868     		ldr	r0, [r7, #4]
 679 000c FFF7FEFF 		bl	lv_obj_get_ext_attr
 680 0010 F860     		str	r0, [r7, #12]
 204:..\..\..\lvgl\version_6.1.2\lvgl\src\lv_objx/lv_calendar.c ****     ext->today.year         = today->year;
 681              		.loc 3 204 0
 682 0012 3B68     		ldr	r3, [r7]
 683 0014 1A88     		ldrh	r2, [r3]
 684 0016 FB68     		ldr	r3, [r7, #12]
 685 0018 1A80     		strh	r2, [r3]	@ movhi
 205:..\..\..\lvgl\version_6.1.2\lvgl\src\lv_objx/lv_calendar.c ****     ext->today.month        = today->month;
 686              		.loc 3 205 0
 687 001a 3B68     		ldr	r3, [r7]
 688 001c 93F90220 		ldrsb	r2, [r3, #2]
 689 0020 FB68     		ldr	r3, [r7, #12]
 690 0022 9A70     		strb	r2, [r3, #2]
 206:..\..\..\lvgl\version_6.1.2\lvgl\src\lv_objx/lv_calendar.c ****     ext->today.day          = today->day;
 691              		.loc 3 206 0
 692 0024 3B68     		ldr	r3, [r7]
 693 0026 93F90320 		ldrsb	r2, [r3, #3]
 694 002a FB68     		ldr	r3, [r7, #12]
 695 002c DA70     		strb	r2, [r3, #3]
 207:..\..\..\lvgl\version_6.1.2\lvgl\src\lv_objx/lv_calendar.c **** 
 208:..\..\..\lvgl\version_6.1.2\lvgl\src\lv_objx/lv_calendar.c ****     lv_obj_invalidate(calendar);
 696              		.loc 3 208 0
 697 002e 7868     		ldr	r0, [r7, #4]
 698 0030 FFF7FEFF 		bl	lv_obj_invalidate
 209:..\..\..\lvgl\version_6.1.2\lvgl\src\lv_objx/lv_calendar.c **** }
 699              		.loc 3 209 0
ARM GAS  C:\Users\tmj32\AppData\Local\Temp\cc0vWRpX.s 			page 21


 700 0034 00BF     		nop
 701 0036 1037     		adds	r7, r7, #16
 702              		.cfi_def_cfa_offset 8
 703 0038 BD46     		mov	sp, r7
 704              		.cfi_def_cfa_register 13
 705              		@ sp needed
 706 003a 80BD     		pop	{r7, pc}
 707              		.cfi_endproc
 708              	.LFE32:
 709              		.size	lv_calendar_set_today_date, .-lv_calendar_set_today_date
 710              		.section	.text.lv_calendar_set_showed_date,"ax",%progbits
 711              		.align	2
 712              		.global	lv_calendar_set_showed_date
 713              		.thumb
 714              		.thumb_func
 715              		.type	lv_calendar_set_showed_date, %function
 716              	lv_calendar_set_showed_date:
 717              	.LFB33:
 210:..\..\..\lvgl\version_6.1.2\lvgl\src\lv_objx/lv_calendar.c **** 
 211:..\..\..\lvgl\version_6.1.2\lvgl\src\lv_objx/lv_calendar.c **** /**
 212:..\..\..\lvgl\version_6.1.2\lvgl\src\lv_objx/lv_calendar.c ****  * Set the currently showed
 213:..\..\..\lvgl\version_6.1.2\lvgl\src\lv_objx/lv_calendar.c ****  * @param calendar pointer to a calendar object
 214:..\..\..\lvgl\version_6.1.2\lvgl\src\lv_objx/lv_calendar.c ****  * @param showed pointer to an `lv_calendar_date_t` variable containing the date to show. The value
 215:..\..\..\lvgl\version_6.1.2\lvgl\src\lv_objx/lv_calendar.c ****  * will be saved it can be local variable too.
 216:..\..\..\lvgl\version_6.1.2\lvgl\src\lv_objx/lv_calendar.c ****  */
 217:..\..\..\lvgl\version_6.1.2\lvgl\src\lv_objx/lv_calendar.c **** void lv_calendar_set_showed_date(lv_obj_t * calendar, lv_calendar_date_t * showed)
 218:..\..\..\lvgl\version_6.1.2\lvgl\src\lv_objx/lv_calendar.c **** {
 718              		.loc 3 218 0
 719              		.cfi_startproc
 720              		@ args = 0, pretend = 0, frame = 16
 721              		@ frame_needed = 1, uses_anonymous_args = 0
 722 0000 80B5     		push	{r7, lr}
 723              		.cfi_def_cfa_offset 8
 724              		.cfi_offset 7, -8
 725              		.cfi_offset 14, -4
 726 0002 84B0     		sub	sp, sp, #16
 727              		.cfi_def_cfa_offset 24
 728 0004 00AF     		add	r7, sp, #0
 729              		.cfi_def_cfa_register 7
 730 0006 7860     		str	r0, [r7, #4]
 731 0008 3960     		str	r1, [r7]
 219:..\..\..\lvgl\version_6.1.2\lvgl\src\lv_objx/lv_calendar.c ****     LV_ASSERT_OBJ(calendar, LV_OBJX_NAME);
 220:..\..\..\lvgl\version_6.1.2\lvgl\src\lv_objx/lv_calendar.c ****     LV_ASSERT_NULL(showed);
 221:..\..\..\lvgl\version_6.1.2\lvgl\src\lv_objx/lv_calendar.c **** 
 222:..\..\..\lvgl\version_6.1.2\lvgl\src\lv_objx/lv_calendar.c ****     lv_calendar_ext_t * ext = lv_obj_get_ext_attr(calendar);
 732              		.loc 3 222 0
 733 000a 7868     		ldr	r0, [r7, #4]
 734 000c FFF7FEFF 		bl	lv_obj_get_ext_attr
 735 0010 F860     		str	r0, [r7, #12]
 223:..\..\..\lvgl\version_6.1.2\lvgl\src\lv_objx/lv_calendar.c ****     ext->showed_date.year   = showed->year;
 736              		.loc 3 223 0
 737 0012 3B68     		ldr	r3, [r7]
 738 0014 1A88     		ldrh	r2, [r3]
 739 0016 FB68     		ldr	r3, [r7, #12]
 740 0018 9A80     		strh	r2, [r3, #4]	@ movhi
 224:..\..\..\lvgl\version_6.1.2\lvgl\src\lv_objx/lv_calendar.c ****     ext->showed_date.month  = showed->month;
 741              		.loc 3 224 0
ARM GAS  C:\Users\tmj32\AppData\Local\Temp\cc0vWRpX.s 			page 22


 742 001a 3B68     		ldr	r3, [r7]
 743 001c 93F90220 		ldrsb	r2, [r3, #2]
 744 0020 FB68     		ldr	r3, [r7, #12]
 745 0022 9A71     		strb	r2, [r3, #6]
 225:..\..\..\lvgl\version_6.1.2\lvgl\src\lv_objx/lv_calendar.c ****     ext->showed_date.day    = showed->day;
 746              		.loc 3 225 0
 747 0024 3B68     		ldr	r3, [r7]
 748 0026 93F90320 		ldrsb	r2, [r3, #3]
 749 002a FB68     		ldr	r3, [r7, #12]
 750 002c DA71     		strb	r2, [r3, #7]
 226:..\..\..\lvgl\version_6.1.2\lvgl\src\lv_objx/lv_calendar.c **** 
 227:..\..\..\lvgl\version_6.1.2\lvgl\src\lv_objx/lv_calendar.c ****     lv_obj_invalidate(calendar);
 751              		.loc 3 227 0
 752 002e 7868     		ldr	r0, [r7, #4]
 753 0030 FFF7FEFF 		bl	lv_obj_invalidate
 228:..\..\..\lvgl\version_6.1.2\lvgl\src\lv_objx/lv_calendar.c **** }
 754              		.loc 3 228 0
 755 0034 00BF     		nop
 756 0036 1037     		adds	r7, r7, #16
 757              		.cfi_def_cfa_offset 8
 758 0038 BD46     		mov	sp, r7
 759              		.cfi_def_cfa_register 13
 760              		@ sp needed
 761 003a 80BD     		pop	{r7, pc}
 762              		.cfi_endproc
 763              	.LFE33:
 764              		.size	lv_calendar_set_showed_date, .-lv_calendar_set_showed_date
 765              		.section	.text.lv_calendar_set_highlighted_dates,"ax",%progbits
 766              		.align	2
 767              		.global	lv_calendar_set_highlighted_dates
 768              		.thumb
 769              		.thumb_func
 770              		.type	lv_calendar_set_highlighted_dates, %function
 771              	lv_calendar_set_highlighted_dates:
 772              	.LFB34:
 229:..\..\..\lvgl\version_6.1.2\lvgl\src\lv_objx/lv_calendar.c **** 
 230:..\..\..\lvgl\version_6.1.2\lvgl\src\lv_objx/lv_calendar.c **** /**
 231:..\..\..\lvgl\version_6.1.2\lvgl\src\lv_objx/lv_calendar.c ****  * Set the the highlighted dates
 232:..\..\..\lvgl\version_6.1.2\lvgl\src\lv_objx/lv_calendar.c ****  * @param calendar pointer to a calendar object
 233:..\..\..\lvgl\version_6.1.2\lvgl\src\lv_objx/lv_calendar.c ****  * @param highlighted pointer to an `lv_calendar_date_t` array containing the dates. ONLY A POINTER
 234:..\..\..\lvgl\version_6.1.2\lvgl\src\lv_objx/lv_calendar.c ****  * WILL BE SAVED! CAN'T BE LOCAL ARRAY.
 235:..\..\..\lvgl\version_6.1.2\lvgl\src\lv_objx/lv_calendar.c ****  * @param date_num number of dates in the array
 236:..\..\..\lvgl\version_6.1.2\lvgl\src\lv_objx/lv_calendar.c ****  */
 237:..\..\..\lvgl\version_6.1.2\lvgl\src\lv_objx/lv_calendar.c **** void lv_calendar_set_highlighted_dates(lv_obj_t * calendar, lv_calendar_date_t highlighted[], uint1
 238:..\..\..\lvgl\version_6.1.2\lvgl\src\lv_objx/lv_calendar.c **** {
 773              		.loc 3 238 0
 774              		.cfi_startproc
 775              		@ args = 0, pretend = 0, frame = 24
 776              		@ frame_needed = 1, uses_anonymous_args = 0
 777 0000 80B5     		push	{r7, lr}
 778              		.cfi_def_cfa_offset 8
 779              		.cfi_offset 7, -8
 780              		.cfi_offset 14, -4
 781 0002 86B0     		sub	sp, sp, #24
 782              		.cfi_def_cfa_offset 32
 783 0004 00AF     		add	r7, sp, #0
 784              		.cfi_def_cfa_register 7
ARM GAS  C:\Users\tmj32\AppData\Local\Temp\cc0vWRpX.s 			page 23


 785 0006 F860     		str	r0, [r7, #12]
 786 0008 B960     		str	r1, [r7, #8]
 787 000a 1346     		mov	r3, r2
 788 000c FB80     		strh	r3, [r7, #6]	@ movhi
 239:..\..\..\lvgl\version_6.1.2\lvgl\src\lv_objx/lv_calendar.c ****     LV_ASSERT_OBJ(calendar, LV_OBJX_NAME);
 240:..\..\..\lvgl\version_6.1.2\lvgl\src\lv_objx/lv_calendar.c ****     LV_ASSERT_NULL(highlighted);
 241:..\..\..\lvgl\version_6.1.2\lvgl\src\lv_objx/lv_calendar.c **** 
 242:..\..\..\lvgl\version_6.1.2\lvgl\src\lv_objx/lv_calendar.c ****     lv_calendar_ext_t * ext    = lv_obj_get_ext_attr(calendar);
 789              		.loc 3 242 0
 790 000e F868     		ldr	r0, [r7, #12]
 791 0010 FFF7FEFF 		bl	lv_obj_get_ext_attr
 792 0014 7861     		str	r0, [r7, #20]
 243:..\..\..\lvgl\version_6.1.2\lvgl\src\lv_objx/lv_calendar.c ****     ext->highlighted_dates     = highlighted;
 793              		.loc 3 243 0
 794 0016 7B69     		ldr	r3, [r7, #20]
 795 0018 BA68     		ldr	r2, [r7, #8]
 796 001a 9A60     		str	r2, [r3, #8]
 244:..\..\..\lvgl\version_6.1.2\lvgl\src\lv_objx/lv_calendar.c ****     ext->highlighted_dates_num = date_num;
 797              		.loc 3 244 0
 798 001c 7B69     		ldr	r3, [r7, #20]
 799 001e FA88     		ldrh	r2, [r7, #6]	@ movhi
 800 0020 DA81     		strh	r2, [r3, #14]	@ movhi
 245:..\..\..\lvgl\version_6.1.2\lvgl\src\lv_objx/lv_calendar.c **** 
 246:..\..\..\lvgl\version_6.1.2\lvgl\src\lv_objx/lv_calendar.c ****     lv_obj_invalidate(calendar);
 801              		.loc 3 246 0
 802 0022 F868     		ldr	r0, [r7, #12]
 803 0024 FFF7FEFF 		bl	lv_obj_invalidate
 247:..\..\..\lvgl\version_6.1.2\lvgl\src\lv_objx/lv_calendar.c **** }
 804              		.loc 3 247 0
 805 0028 00BF     		nop
 806 002a 1837     		adds	r7, r7, #24
 807              		.cfi_def_cfa_offset 8
 808 002c BD46     		mov	sp, r7
 809              		.cfi_def_cfa_register 13
 810              		@ sp needed
 811 002e 80BD     		pop	{r7, pc}
 812              		.cfi_endproc
 813              	.LFE34:
 814              		.size	lv_calendar_set_highlighted_dates, .-lv_calendar_set_highlighted_dates
 815              		.section	.text.lv_calendar_set_day_names,"ax",%progbits
 816              		.align	2
 817              		.global	lv_calendar_set_day_names
 818              		.thumb
 819              		.thumb_func
 820              		.type	lv_calendar_set_day_names, %function
 821              	lv_calendar_set_day_names:
 822              	.LFB35:
 248:..\..\..\lvgl\version_6.1.2\lvgl\src\lv_objx/lv_calendar.c **** 
 249:..\..\..\lvgl\version_6.1.2\lvgl\src\lv_objx/lv_calendar.c **** /**
 250:..\..\..\lvgl\version_6.1.2\lvgl\src\lv_objx/lv_calendar.c ****  * Set the name of the days
 251:..\..\..\lvgl\version_6.1.2\lvgl\src\lv_objx/lv_calendar.c ****  * @param calendar pointer to a calendar object
 252:..\..\..\lvgl\version_6.1.2\lvgl\src\lv_objx/lv_calendar.c ****  * @param day_names pointer to an array with the names. E.g. `const char * days[7] = {"Sun", "Mon",
 253:..\..\..\lvgl\version_6.1.2\lvgl\src\lv_objx/lv_calendar.c ****  * ...}` Only the pointer will be saved so this variable can't be local which will be destroyed
 254:..\..\..\lvgl\version_6.1.2\lvgl\src\lv_objx/lv_calendar.c ****  * later.
 255:..\..\..\lvgl\version_6.1.2\lvgl\src\lv_objx/lv_calendar.c ****  */
 256:..\..\..\lvgl\version_6.1.2\lvgl\src\lv_objx/lv_calendar.c **** void lv_calendar_set_day_names(lv_obj_t * calendar, const char ** day_names)
 257:..\..\..\lvgl\version_6.1.2\lvgl\src\lv_objx/lv_calendar.c **** {
ARM GAS  C:\Users\tmj32\AppData\Local\Temp\cc0vWRpX.s 			page 24


 823              		.loc 3 257 0
 824              		.cfi_startproc
 825              		@ args = 0, pretend = 0, frame = 16
 826              		@ frame_needed = 1, uses_anonymous_args = 0
 827 0000 80B5     		push	{r7, lr}
 828              		.cfi_def_cfa_offset 8
 829              		.cfi_offset 7, -8
 830              		.cfi_offset 14, -4
 831 0002 84B0     		sub	sp, sp, #16
 832              		.cfi_def_cfa_offset 24
 833 0004 00AF     		add	r7, sp, #0
 834              		.cfi_def_cfa_register 7
 835 0006 7860     		str	r0, [r7, #4]
 836 0008 3960     		str	r1, [r7]
 258:..\..\..\lvgl\version_6.1.2\lvgl\src\lv_objx/lv_calendar.c ****     LV_ASSERT_OBJ(calendar, LV_OBJX_NAME);
 259:..\..\..\lvgl\version_6.1.2\lvgl\src\lv_objx/lv_calendar.c ****     LV_ASSERT_NULL(day_names);
 260:..\..\..\lvgl\version_6.1.2\lvgl\src\lv_objx/lv_calendar.c **** 
 261:..\..\..\lvgl\version_6.1.2\lvgl\src\lv_objx/lv_calendar.c ****     lv_calendar_ext_t * ext = lv_obj_get_ext_attr(calendar);
 837              		.loc 3 261 0
 838 000a 7868     		ldr	r0, [r7, #4]
 839 000c FFF7FEFF 		bl	lv_obj_get_ext_attr
 840 0010 F860     		str	r0, [r7, #12]
 262:..\..\..\lvgl\version_6.1.2\lvgl\src\lv_objx/lv_calendar.c ****     ext->day_names          = day_names;
 841              		.loc 3 262 0
 842 0012 FB68     		ldr	r3, [r7, #12]
 843 0014 3A68     		ldr	r2, [r7]
 844 0016 5A61     		str	r2, [r3, #20]
 263:..\..\..\lvgl\version_6.1.2\lvgl\src\lv_objx/lv_calendar.c ****     lv_obj_invalidate(calendar);
 845              		.loc 3 263 0
 846 0018 7868     		ldr	r0, [r7, #4]
 847 001a FFF7FEFF 		bl	lv_obj_invalidate
 264:..\..\..\lvgl\version_6.1.2\lvgl\src\lv_objx/lv_calendar.c **** }
 848              		.loc 3 264 0
 849 001e 00BF     		nop
 850 0020 1037     		adds	r7, r7, #16
 851              		.cfi_def_cfa_offset 8
 852 0022 BD46     		mov	sp, r7
 853              		.cfi_def_cfa_register 13
 854              		@ sp needed
 855 0024 80BD     		pop	{r7, pc}
 856              		.cfi_endproc
 857              	.LFE35:
 858              		.size	lv_calendar_set_day_names, .-lv_calendar_set_day_names
 859 0026 00BF     		.section	.text.lv_calendar_set_month_names,"ax",%progbits
 860              		.align	2
 861              		.global	lv_calendar_set_month_names
 862              		.thumb
 863              		.thumb_func
 864              		.type	lv_calendar_set_month_names, %function
 865              	lv_calendar_set_month_names:
 866              	.LFB36:
 265:..\..\..\lvgl\version_6.1.2\lvgl\src\lv_objx/lv_calendar.c **** 
 266:..\..\..\lvgl\version_6.1.2\lvgl\src\lv_objx/lv_calendar.c **** /**
 267:..\..\..\lvgl\version_6.1.2\lvgl\src\lv_objx/lv_calendar.c ****  * Set the name of the month
 268:..\..\..\lvgl\version_6.1.2\lvgl\src\lv_objx/lv_calendar.c ****  * @param calendar pointer to a calendar object
 269:..\..\..\lvgl\version_6.1.2\lvgl\src\lv_objx/lv_calendar.c ****  * @param month_names pointer to an array with the names. E.g. `const char * days[12] = {"Jan", "Fe
 270:..\..\..\lvgl\version_6.1.2\lvgl\src\lv_objx/lv_calendar.c ****  * ...}` Only the pointer will be saved so this variable can't be local which will be destroyed
ARM GAS  C:\Users\tmj32\AppData\Local\Temp\cc0vWRpX.s 			page 25


 271:..\..\..\lvgl\version_6.1.2\lvgl\src\lv_objx/lv_calendar.c ****  * later.
 272:..\..\..\lvgl\version_6.1.2\lvgl\src\lv_objx/lv_calendar.c ****  */
 273:..\..\..\lvgl\version_6.1.2\lvgl\src\lv_objx/lv_calendar.c **** void lv_calendar_set_month_names(lv_obj_t * calendar, const char ** month_names)
 274:..\..\..\lvgl\version_6.1.2\lvgl\src\lv_objx/lv_calendar.c **** {
 867              		.loc 3 274 0
 868              		.cfi_startproc
 869              		@ args = 0, pretend = 0, frame = 16
 870              		@ frame_needed = 1, uses_anonymous_args = 0
 871 0000 80B5     		push	{r7, lr}
 872              		.cfi_def_cfa_offset 8
 873              		.cfi_offset 7, -8
 874              		.cfi_offset 14, -4
 875 0002 84B0     		sub	sp, sp, #16
 876              		.cfi_def_cfa_offset 24
 877 0004 00AF     		add	r7, sp, #0
 878              		.cfi_def_cfa_register 7
 879 0006 7860     		str	r0, [r7, #4]
 880 0008 3960     		str	r1, [r7]
 275:..\..\..\lvgl\version_6.1.2\lvgl\src\lv_objx/lv_calendar.c ****     LV_ASSERT_OBJ(calendar, LV_OBJX_NAME);
 276:..\..\..\lvgl\version_6.1.2\lvgl\src\lv_objx/lv_calendar.c ****     LV_ASSERT_NULL(month_names);
 277:..\..\..\lvgl\version_6.1.2\lvgl\src\lv_objx/lv_calendar.c **** 
 278:..\..\..\lvgl\version_6.1.2\lvgl\src\lv_objx/lv_calendar.c ****     lv_calendar_ext_t * ext = lv_obj_get_ext_attr(calendar);
 881              		.loc 3 278 0
 882 000a 7868     		ldr	r0, [r7, #4]
 883 000c FFF7FEFF 		bl	lv_obj_get_ext_attr
 884 0010 F860     		str	r0, [r7, #12]
 279:..\..\..\lvgl\version_6.1.2\lvgl\src\lv_objx/lv_calendar.c ****     ext->month_names        = month_names;
 885              		.loc 3 279 0
 886 0012 FB68     		ldr	r3, [r7, #12]
 887 0014 3A68     		ldr	r2, [r7]
 888 0016 9A61     		str	r2, [r3, #24]
 280:..\..\..\lvgl\version_6.1.2\lvgl\src\lv_objx/lv_calendar.c ****     lv_obj_invalidate(calendar);
 889              		.loc 3 280 0
 890 0018 7868     		ldr	r0, [r7, #4]
 891 001a FFF7FEFF 		bl	lv_obj_invalidate
 281:..\..\..\lvgl\version_6.1.2\lvgl\src\lv_objx/lv_calendar.c **** }
 892              		.loc 3 281 0
 893 001e 00BF     		nop
 894 0020 1037     		adds	r7, r7, #16
 895              		.cfi_def_cfa_offset 8
 896 0022 BD46     		mov	sp, r7
 897              		.cfi_def_cfa_register 13
 898              		@ sp needed
 899 0024 80BD     		pop	{r7, pc}
 900              		.cfi_endproc
 901              	.LFE36:
 902              		.size	lv_calendar_set_month_names, .-lv_calendar_set_month_names
 903 0026 00BF     		.section	.text.lv_calendar_set_style,"ax",%progbits
 904              		.align	2
 905              		.global	lv_calendar_set_style
 906              		.thumb
 907              		.thumb_func
 908              		.type	lv_calendar_set_style, %function
 909              	lv_calendar_set_style:
 910              	.LFB37:
 282:..\..\..\lvgl\version_6.1.2\lvgl\src\lv_objx/lv_calendar.c **** 
 283:..\..\..\lvgl\version_6.1.2\lvgl\src\lv_objx/lv_calendar.c **** /**
ARM GAS  C:\Users\tmj32\AppData\Local\Temp\cc0vWRpX.s 			page 26


 284:..\..\..\lvgl\version_6.1.2\lvgl\src\lv_objx/lv_calendar.c ****  * Set a style of a calendar.
 285:..\..\..\lvgl\version_6.1.2\lvgl\src\lv_objx/lv_calendar.c ****  * @param calendar pointer to calendar object
 286:..\..\..\lvgl\version_6.1.2\lvgl\src\lv_objx/lv_calendar.c ****  * @param type which style should be set
 287:..\..\..\lvgl\version_6.1.2\lvgl\src\lv_objx/lv_calendar.c ****  * @param style pointer to a style
 288:..\..\..\lvgl\version_6.1.2\lvgl\src\lv_objx/lv_calendar.c ****  *  */
 289:..\..\..\lvgl\version_6.1.2\lvgl\src\lv_objx/lv_calendar.c **** void lv_calendar_set_style(lv_obj_t * calendar, lv_calendar_style_t type, const lv_style_t * style)
 290:..\..\..\lvgl\version_6.1.2\lvgl\src\lv_objx/lv_calendar.c **** {
 911              		.loc 3 290 0
 912              		.cfi_startproc
 913              		@ args = 0, pretend = 0, frame = 24
 914              		@ frame_needed = 1, uses_anonymous_args = 0
 915 0000 80B5     		push	{r7, lr}
 916              		.cfi_def_cfa_offset 8
 917              		.cfi_offset 7, -8
 918              		.cfi_offset 14, -4
 919 0002 86B0     		sub	sp, sp, #24
 920              		.cfi_def_cfa_offset 32
 921 0004 00AF     		add	r7, sp, #0
 922              		.cfi_def_cfa_register 7
 923 0006 F860     		str	r0, [r7, #12]
 924 0008 0B46     		mov	r3, r1
 925 000a 7A60     		str	r2, [r7, #4]
 926 000c FB72     		strb	r3, [r7, #11]
 291:..\..\..\lvgl\version_6.1.2\lvgl\src\lv_objx/lv_calendar.c ****     LV_ASSERT_OBJ(calendar, LV_OBJX_NAME);
 292:..\..\..\lvgl\version_6.1.2\lvgl\src\lv_objx/lv_calendar.c **** 
 293:..\..\..\lvgl\version_6.1.2\lvgl\src\lv_objx/lv_calendar.c ****     lv_calendar_ext_t * ext = lv_obj_get_ext_attr(calendar);
 927              		.loc 3 293 0
 928 000e F868     		ldr	r0, [r7, #12]
 929 0010 FFF7FEFF 		bl	lv_obj_get_ext_attr
 930 0014 7861     		str	r0, [r7, #20]
 294:..\..\..\lvgl\version_6.1.2\lvgl\src\lv_objx/lv_calendar.c **** 
 295:..\..\..\lvgl\version_6.1.2\lvgl\src\lv_objx/lv_calendar.c ****     switch(type) {
 931              		.loc 3 295 0
 932 0016 FB7A     		ldrb	r3, [r7, #11]	@ zero_extendqisi2
 933 0018 072B     		cmp	r3, #7
 934 001a 34D8     		bhi	.L24
 935 001c 01A2     		adr	r2, .L26
 936 001e 52F823F0 		ldr	pc, [r2, r3, lsl #2]
 937 0022 00BF     		.p2align 2
 938              	.L26:
 939 0024 45000000 		.word	.L25+1
 940 0028 57000000 		.word	.L27+1
 941 002c 5F000000 		.word	.L28+1
 942 0030 4F000000 		.word	.L29+1
 943 0034 67000000 		.word	.L30+1
 944 0038 6F000000 		.word	.L31+1
 945 003c 7F000000 		.word	.L32+1
 946 0040 77000000 		.word	.L33+1
 947              		.p2align 1
 948              	.L25:
 296:..\..\..\lvgl\version_6.1.2\lvgl\src\lv_objx/lv_calendar.c ****         case LV_CALENDAR_STYLE_BG: lv_obj_set_style(calendar, style); break;
 949              		.loc 3 296 0
 950 0044 7968     		ldr	r1, [r7, #4]
 951 0046 F868     		ldr	r0, [r7, #12]
 952 0048 FFF7FEFF 		bl	lv_obj_set_style
 953 004c 1BE0     		b	.L24
 954              	.L29:
ARM GAS  C:\Users\tmj32\AppData\Local\Temp\cc0vWRpX.s 			page 27


 297:..\..\..\lvgl\version_6.1.2\lvgl\src\lv_objx/lv_calendar.c ****         case LV_CALENDAR_STYLE_DAY_NAMES: ext->style_day_names = style; break;
 955              		.loc 3 297 0
 956 004e 7B69     		ldr	r3, [r7, #20]
 957 0050 7A68     		ldr	r2, [r7, #4]
 958 0052 5A62     		str	r2, [r3, #36]
 959 0054 17E0     		b	.L24
 960              	.L27:
 298:..\..\..\lvgl\version_6.1.2\lvgl\src\lv_objx/lv_calendar.c ****         case LV_CALENDAR_STYLE_HEADER: ext->style_header = style; break;
 961              		.loc 3 298 0
 962 0056 7B69     		ldr	r3, [r7, #20]
 963 0058 7A68     		ldr	r2, [r7, #4]
 964 005a DA61     		str	r2, [r3, #28]
 965 005c 13E0     		b	.L24
 966              	.L28:
 299:..\..\..\lvgl\version_6.1.2\lvgl\src\lv_objx/lv_calendar.c ****         case LV_CALENDAR_STYLE_HEADER_PR: ext->style_header_pr = style; break;
 967              		.loc 3 299 0
 968 005e 7B69     		ldr	r3, [r7, #20]
 969 0060 7A68     		ldr	r2, [r7, #4]
 970 0062 1A62     		str	r2, [r3, #32]
 971 0064 0FE0     		b	.L24
 972              	.L30:
 300:..\..\..\lvgl\version_6.1.2\lvgl\src\lv_objx/lv_calendar.c ****         case LV_CALENDAR_STYLE_HIGHLIGHTED_DAYS: ext->style_highlighted_days = style; break;
 973              		.loc 3 300 0
 974 0066 7B69     		ldr	r3, [r7, #20]
 975 0068 7A68     		ldr	r2, [r7, #4]
 976 006a 9A62     		str	r2, [r3, #40]
 977 006c 0BE0     		b	.L24
 978              	.L31:
 301:..\..\..\lvgl\version_6.1.2\lvgl\src\lv_objx/lv_calendar.c ****         case LV_CALENDAR_STYLE_INACTIVE_DAYS: ext->style_inactive_days = style; break;
 979              		.loc 3 301 0
 980 006e 7B69     		ldr	r3, [r7, #20]
 981 0070 7A68     		ldr	r2, [r7, #4]
 982 0072 DA62     		str	r2, [r3, #44]
 983 0074 07E0     		b	.L24
 984              	.L33:
 302:..\..\..\lvgl\version_6.1.2\lvgl\src\lv_objx/lv_calendar.c ****         case LV_CALENDAR_STYLE_TODAY_BOX: ext->style_today_box = style; break;
 985              		.loc 3 302 0
 986 0076 7B69     		ldr	r3, [r7, #20]
 987 0078 7A68     		ldr	r2, [r7, #4]
 988 007a 5A63     		str	r2, [r3, #52]
 989 007c 03E0     		b	.L24
 990              	.L32:
 303:..\..\..\lvgl\version_6.1.2\lvgl\src\lv_objx/lv_calendar.c ****         case LV_CALENDAR_STYLE_WEEK_BOX: ext->style_week_box = style; break;
 991              		.loc 3 303 0
 992 007e 7B69     		ldr	r3, [r7, #20]
 993 0080 7A68     		ldr	r2, [r7, #4]
 994 0082 1A63     		str	r2, [r3, #48]
 995 0084 00BF     		nop
 996              	.L24:
 304:..\..\..\lvgl\version_6.1.2\lvgl\src\lv_objx/lv_calendar.c ****     }
 305:..\..\..\lvgl\version_6.1.2\lvgl\src\lv_objx/lv_calendar.c **** 
 306:..\..\..\lvgl\version_6.1.2\lvgl\src\lv_objx/lv_calendar.c ****     lv_obj_invalidate(calendar);
 997              		.loc 3 306 0
 998 0086 F868     		ldr	r0, [r7, #12]
 999 0088 FFF7FEFF 		bl	lv_obj_invalidate
 307:..\..\..\lvgl\version_6.1.2\lvgl\src\lv_objx/lv_calendar.c **** }
 1000              		.loc 3 307 0
ARM GAS  C:\Users\tmj32\AppData\Local\Temp\cc0vWRpX.s 			page 28


 1001 008c 00BF     		nop
 1002 008e 1837     		adds	r7, r7, #24
 1003              		.cfi_def_cfa_offset 8
 1004 0090 BD46     		mov	sp, r7
 1005              		.cfi_def_cfa_register 13
 1006              		@ sp needed
 1007 0092 80BD     		pop	{r7, pc}
 1008              		.cfi_endproc
 1009              	.LFE37:
 1010              		.size	lv_calendar_set_style, .-lv_calendar_set_style
 1011              		.section	.text.lv_calendar_get_today_date,"ax",%progbits
 1012              		.align	2
 1013              		.global	lv_calendar_get_today_date
 1014              		.thumb
 1015              		.thumb_func
 1016              		.type	lv_calendar_get_today_date, %function
 1017              	lv_calendar_get_today_date:
 1018              	.LFB38:
 308:..\..\..\lvgl\version_6.1.2\lvgl\src\lv_objx/lv_calendar.c **** 
 309:..\..\..\lvgl\version_6.1.2\lvgl\src\lv_objx/lv_calendar.c **** /*=====================
 310:..\..\..\lvgl\version_6.1.2\lvgl\src\lv_objx/lv_calendar.c ****  * Getter functions
 311:..\..\..\lvgl\version_6.1.2\lvgl\src\lv_objx/lv_calendar.c ****  *====================*/
 312:..\..\..\lvgl\version_6.1.2\lvgl\src\lv_objx/lv_calendar.c **** 
 313:..\..\..\lvgl\version_6.1.2\lvgl\src\lv_objx/lv_calendar.c **** /**
 314:..\..\..\lvgl\version_6.1.2\lvgl\src\lv_objx/lv_calendar.c ****  * Get the today's date
 315:..\..\..\lvgl\version_6.1.2\lvgl\src\lv_objx/lv_calendar.c ****  * @param calendar pointer to a calendar object
 316:..\..\..\lvgl\version_6.1.2\lvgl\src\lv_objx/lv_calendar.c ****  * @return return pointer to an `lv_calendar_date_t` variable containing the date of today.
 317:..\..\..\lvgl\version_6.1.2\lvgl\src\lv_objx/lv_calendar.c ****  */
 318:..\..\..\lvgl\version_6.1.2\lvgl\src\lv_objx/lv_calendar.c **** lv_calendar_date_t * lv_calendar_get_today_date(const lv_obj_t * calendar)
 319:..\..\..\lvgl\version_6.1.2\lvgl\src\lv_objx/lv_calendar.c **** {
 1019              		.loc 3 319 0
 1020              		.cfi_startproc
 1021              		@ args = 0, pretend = 0, frame = 16
 1022              		@ frame_needed = 1, uses_anonymous_args = 0
 1023 0000 80B5     		push	{r7, lr}
 1024              		.cfi_def_cfa_offset 8
 1025              		.cfi_offset 7, -8
 1026              		.cfi_offset 14, -4
 1027 0002 84B0     		sub	sp, sp, #16
 1028              		.cfi_def_cfa_offset 24
 1029 0004 00AF     		add	r7, sp, #0
 1030              		.cfi_def_cfa_register 7
 1031 0006 7860     		str	r0, [r7, #4]
 320:..\..\..\lvgl\version_6.1.2\lvgl\src\lv_objx/lv_calendar.c ****     LV_ASSERT_OBJ(calendar, LV_OBJX_NAME);
 321:..\..\..\lvgl\version_6.1.2\lvgl\src\lv_objx/lv_calendar.c **** 
 322:..\..\..\lvgl\version_6.1.2\lvgl\src\lv_objx/lv_calendar.c ****     lv_calendar_ext_t * ext = lv_obj_get_ext_attr(calendar);
 1032              		.loc 3 322 0
 1033 0008 7868     		ldr	r0, [r7, #4]
 1034 000a FFF7FEFF 		bl	lv_obj_get_ext_attr
 1035 000e F860     		str	r0, [r7, #12]
 323:..\..\..\lvgl\version_6.1.2\lvgl\src\lv_objx/lv_calendar.c ****     return &ext->today;
 1036              		.loc 3 323 0
 1037 0010 FB68     		ldr	r3, [r7, #12]
 324:..\..\..\lvgl\version_6.1.2\lvgl\src\lv_objx/lv_calendar.c **** }
 1038              		.loc 3 324 0
 1039 0012 1846     		mov	r0, r3
 1040 0014 1037     		adds	r7, r7, #16
ARM GAS  C:\Users\tmj32\AppData\Local\Temp\cc0vWRpX.s 			page 29


 1041              		.cfi_def_cfa_offset 8
 1042 0016 BD46     		mov	sp, r7
 1043              		.cfi_def_cfa_register 13
 1044              		@ sp needed
 1045 0018 80BD     		pop	{r7, pc}
 1046              		.cfi_endproc
 1047              	.LFE38:
 1048              		.size	lv_calendar_get_today_date, .-lv_calendar_get_today_date
 1049 001a 00BF     		.section	.text.lv_calendar_get_showed_date,"ax",%progbits
 1050              		.align	2
 1051              		.global	lv_calendar_get_showed_date
 1052              		.thumb
 1053              		.thumb_func
 1054              		.type	lv_calendar_get_showed_date, %function
 1055              	lv_calendar_get_showed_date:
 1056              	.LFB39:
 325:..\..\..\lvgl\version_6.1.2\lvgl\src\lv_objx/lv_calendar.c **** 
 326:..\..\..\lvgl\version_6.1.2\lvgl\src\lv_objx/lv_calendar.c **** /**
 327:..\..\..\lvgl\version_6.1.2\lvgl\src\lv_objx/lv_calendar.c ****  * Get the currently showed
 328:..\..\..\lvgl\version_6.1.2\lvgl\src\lv_objx/lv_calendar.c ****  * @param calendar pointer to a calendar object
 329:..\..\..\lvgl\version_6.1.2\lvgl\src\lv_objx/lv_calendar.c ****  * @return pointer to an `lv_calendar_date_t` variable containing the date is being shown.
 330:..\..\..\lvgl\version_6.1.2\lvgl\src\lv_objx/lv_calendar.c ****  */
 331:..\..\..\lvgl\version_6.1.2\lvgl\src\lv_objx/lv_calendar.c **** lv_calendar_date_t * lv_calendar_get_showed_date(const lv_obj_t * calendar)
 332:..\..\..\lvgl\version_6.1.2\lvgl\src\lv_objx/lv_calendar.c **** {
 1057              		.loc 3 332 0
 1058              		.cfi_startproc
 1059              		@ args = 0, pretend = 0, frame = 16
 1060              		@ frame_needed = 1, uses_anonymous_args = 0
 1061 0000 80B5     		push	{r7, lr}
 1062              		.cfi_def_cfa_offset 8
 1063              		.cfi_offset 7, -8
 1064              		.cfi_offset 14, -4
 1065 0002 84B0     		sub	sp, sp, #16
 1066              		.cfi_def_cfa_offset 24
 1067 0004 00AF     		add	r7, sp, #0
 1068              		.cfi_def_cfa_register 7
 1069 0006 7860     		str	r0, [r7, #4]
 333:..\..\..\lvgl\version_6.1.2\lvgl\src\lv_objx/lv_calendar.c ****     LV_ASSERT_OBJ(calendar, LV_OBJX_NAME);
 334:..\..\..\lvgl\version_6.1.2\lvgl\src\lv_objx/lv_calendar.c **** 
 335:..\..\..\lvgl\version_6.1.2\lvgl\src\lv_objx/lv_calendar.c ****     lv_calendar_ext_t * ext = lv_obj_get_ext_attr(calendar);
 1070              		.loc 3 335 0
 1071 0008 7868     		ldr	r0, [r7, #4]
 1072 000a FFF7FEFF 		bl	lv_obj_get_ext_attr
 1073 000e F860     		str	r0, [r7, #12]
 336:..\..\..\lvgl\version_6.1.2\lvgl\src\lv_objx/lv_calendar.c ****     return &ext->showed_date;
 1074              		.loc 3 336 0
 1075 0010 FB68     		ldr	r3, [r7, #12]
 1076 0012 0433     		adds	r3, r3, #4
 337:..\..\..\lvgl\version_6.1.2\lvgl\src\lv_objx/lv_calendar.c **** }
 1077              		.loc 3 337 0
 1078 0014 1846     		mov	r0, r3
 1079 0016 1037     		adds	r7, r7, #16
 1080              		.cfi_def_cfa_offset 8
 1081 0018 BD46     		mov	sp, r7
 1082              		.cfi_def_cfa_register 13
 1083              		@ sp needed
 1084 001a 80BD     		pop	{r7, pc}
ARM GAS  C:\Users\tmj32\AppData\Local\Temp\cc0vWRpX.s 			page 30


 1085              		.cfi_endproc
 1086              	.LFE39:
 1087              		.size	lv_calendar_get_showed_date, .-lv_calendar_get_showed_date
 1088              		.section	.text.lv_calendar_get_pressed_date,"ax",%progbits
 1089              		.align	2
 1090              		.global	lv_calendar_get_pressed_date
 1091              		.thumb
 1092              		.thumb_func
 1093              		.type	lv_calendar_get_pressed_date, %function
 1094              	lv_calendar_get_pressed_date:
 1095              	.LFB40:
 338:..\..\..\lvgl\version_6.1.2\lvgl\src\lv_objx/lv_calendar.c **** 
 339:..\..\..\lvgl\version_6.1.2\lvgl\src\lv_objx/lv_calendar.c **** /**
 340:..\..\..\lvgl\version_6.1.2\lvgl\src\lv_objx/lv_calendar.c ****  * Get the the pressed date.
 341:..\..\..\lvgl\version_6.1.2\lvgl\src\lv_objx/lv_calendar.c ****  * @param calendar pointer to a calendar object
 342:..\..\..\lvgl\version_6.1.2\lvgl\src\lv_objx/lv_calendar.c ****  * @return pointer to an `lv_calendar_date_t` variable containing the pressed date.
 343:..\..\..\lvgl\version_6.1.2\lvgl\src\lv_objx/lv_calendar.c ****  * `NULL` if not date pressed (e.g. the header)
 344:..\..\..\lvgl\version_6.1.2\lvgl\src\lv_objx/lv_calendar.c ****  */
 345:..\..\..\lvgl\version_6.1.2\lvgl\src\lv_objx/lv_calendar.c **** lv_calendar_date_t * lv_calendar_get_pressed_date(const lv_obj_t * calendar)
 346:..\..\..\lvgl\version_6.1.2\lvgl\src\lv_objx/lv_calendar.c **** {
 1096              		.loc 3 346 0
 1097              		.cfi_startproc
 1098              		@ args = 0, pretend = 0, frame = 16
 1099              		@ frame_needed = 1, uses_anonymous_args = 0
 1100 0000 80B5     		push	{r7, lr}
 1101              		.cfi_def_cfa_offset 8
 1102              		.cfi_offset 7, -8
 1103              		.cfi_offset 14, -4
 1104 0002 84B0     		sub	sp, sp, #16
 1105              		.cfi_def_cfa_offset 24
 1106 0004 00AF     		add	r7, sp, #0
 1107              		.cfi_def_cfa_register 7
 1108 0006 7860     		str	r0, [r7, #4]
 347:..\..\..\lvgl\version_6.1.2\lvgl\src\lv_objx/lv_calendar.c ****     LV_ASSERT_OBJ(calendar, LV_OBJX_NAME);
 348:..\..\..\lvgl\version_6.1.2\lvgl\src\lv_objx/lv_calendar.c **** 
 349:..\..\..\lvgl\version_6.1.2\lvgl\src\lv_objx/lv_calendar.c ****     lv_calendar_ext_t * ext = lv_obj_get_ext_attr(calendar);
 1109              		.loc 3 349 0
 1110 0008 7868     		ldr	r0, [r7, #4]
 1111 000a FFF7FEFF 		bl	lv_obj_get_ext_attr
 1112 000e F860     		str	r0, [r7, #12]
 350:..\..\..\lvgl\version_6.1.2\lvgl\src\lv_objx/lv_calendar.c ****     return ext->pressed_date.year != 0 ? &ext->pressed_date : NULL;
 1113              		.loc 3 350 0
 1114 0010 FB68     		ldr	r3, [r7, #12]
 1115 0012 1B8A     		ldrh	r3, [r3, #16]
 1116 0014 002B     		cmp	r3, #0
 1117 0016 02D0     		beq	.L39
 1118              		.loc 3 350 0 is_stmt 0 discriminator 1
 1119 0018 FB68     		ldr	r3, [r7, #12]
 1120 001a 1033     		adds	r3, r3, #16
 1121 001c 00E0     		b	.L41
 1122              	.L39:
 1123              		.loc 3 350 0 discriminator 2
 1124 001e 0023     		movs	r3, #0
 1125              	.L41:
 351:..\..\..\lvgl\version_6.1.2\lvgl\src\lv_objx/lv_calendar.c **** }
 1126              		.loc 3 351 0 is_stmt 1 discriminator 5
 1127 0020 1846     		mov	r0, r3
ARM GAS  C:\Users\tmj32\AppData\Local\Temp\cc0vWRpX.s 			page 31


 1128 0022 1037     		adds	r7, r7, #16
 1129              		.cfi_def_cfa_offset 8
 1130 0024 BD46     		mov	sp, r7
 1131              		.cfi_def_cfa_register 13
 1132              		@ sp needed
 1133 0026 80BD     		pop	{r7, pc}
 1134              		.cfi_endproc
 1135              	.LFE40:
 1136              		.size	lv_calendar_get_pressed_date, .-lv_calendar_get_pressed_date
 1137              		.section	.text.lv_calendar_get_highlighted_dates,"ax",%progbits
 1138              		.align	2
 1139              		.global	lv_calendar_get_highlighted_dates
 1140              		.thumb
 1141              		.thumb_func
 1142              		.type	lv_calendar_get_highlighted_dates, %function
 1143              	lv_calendar_get_highlighted_dates:
 1144              	.LFB41:
 352:..\..\..\lvgl\version_6.1.2\lvgl\src\lv_objx/lv_calendar.c **** 
 353:..\..\..\lvgl\version_6.1.2\lvgl\src\lv_objx/lv_calendar.c **** /**
 354:..\..\..\lvgl\version_6.1.2\lvgl\src\lv_objx/lv_calendar.c ****  * Get the the highlighted dates
 355:..\..\..\lvgl\version_6.1.2\lvgl\src\lv_objx/lv_calendar.c ****  * @param calendar pointer to a calendar object
 356:..\..\..\lvgl\version_6.1.2\lvgl\src\lv_objx/lv_calendar.c ****  * @return pointer to an `lv_calendar_date_t` array containing the dates.
 357:..\..\..\lvgl\version_6.1.2\lvgl\src\lv_objx/lv_calendar.c ****  */
 358:..\..\..\lvgl\version_6.1.2\lvgl\src\lv_objx/lv_calendar.c **** lv_calendar_date_t * lv_calendar_get_highlighted_dates(const lv_obj_t * calendar)
 359:..\..\..\lvgl\version_6.1.2\lvgl\src\lv_objx/lv_calendar.c **** {
 1145              		.loc 3 359 0
 1146              		.cfi_startproc
 1147              		@ args = 0, pretend = 0, frame = 16
 1148              		@ frame_needed = 1, uses_anonymous_args = 0
 1149 0000 80B5     		push	{r7, lr}
 1150              		.cfi_def_cfa_offset 8
 1151              		.cfi_offset 7, -8
 1152              		.cfi_offset 14, -4
 1153 0002 84B0     		sub	sp, sp, #16
 1154              		.cfi_def_cfa_offset 24
 1155 0004 00AF     		add	r7, sp, #0
 1156              		.cfi_def_cfa_register 7
 1157 0006 7860     		str	r0, [r7, #4]
 360:..\..\..\lvgl\version_6.1.2\lvgl\src\lv_objx/lv_calendar.c ****     LV_ASSERT_OBJ(calendar, LV_OBJX_NAME);
 361:..\..\..\lvgl\version_6.1.2\lvgl\src\lv_objx/lv_calendar.c **** 
 362:..\..\..\lvgl\version_6.1.2\lvgl\src\lv_objx/lv_calendar.c ****     lv_calendar_ext_t * ext = lv_obj_get_ext_attr(calendar);
 1158              		.loc 3 362 0
 1159 0008 7868     		ldr	r0, [r7, #4]
 1160 000a FFF7FEFF 		bl	lv_obj_get_ext_attr
 1161 000e F860     		str	r0, [r7, #12]
 363:..\..\..\lvgl\version_6.1.2\lvgl\src\lv_objx/lv_calendar.c ****     return ext->highlighted_dates;
 1162              		.loc 3 363 0
 1163 0010 FB68     		ldr	r3, [r7, #12]
 1164 0012 9B68     		ldr	r3, [r3, #8]
 364:..\..\..\lvgl\version_6.1.2\lvgl\src\lv_objx/lv_calendar.c **** }
 1165              		.loc 3 364 0
 1166 0014 1846     		mov	r0, r3
 1167 0016 1037     		adds	r7, r7, #16
 1168              		.cfi_def_cfa_offset 8
 1169 0018 BD46     		mov	sp, r7
 1170              		.cfi_def_cfa_register 13
 1171              		@ sp needed
ARM GAS  C:\Users\tmj32\AppData\Local\Temp\cc0vWRpX.s 			page 32


 1172 001a 80BD     		pop	{r7, pc}
 1173              		.cfi_endproc
 1174              	.LFE41:
 1175              		.size	lv_calendar_get_highlighted_dates, .-lv_calendar_get_highlighted_dates
 1176              		.section	.text.lv_calendar_get_highlighted_dates_num,"ax",%progbits
 1177              		.align	2
 1178              		.global	lv_calendar_get_highlighted_dates_num
 1179              		.thumb
 1180              		.thumb_func
 1181              		.type	lv_calendar_get_highlighted_dates_num, %function
 1182              	lv_calendar_get_highlighted_dates_num:
 1183              	.LFB42:
 365:..\..\..\lvgl\version_6.1.2\lvgl\src\lv_objx/lv_calendar.c **** 
 366:..\..\..\lvgl\version_6.1.2\lvgl\src\lv_objx/lv_calendar.c **** /**
 367:..\..\..\lvgl\version_6.1.2\lvgl\src\lv_objx/lv_calendar.c ****  * Get the number of the highlighted dates
 368:..\..\..\lvgl\version_6.1.2\lvgl\src\lv_objx/lv_calendar.c ****  * @param calendar pointer to a calendar object
 369:..\..\..\lvgl\version_6.1.2\lvgl\src\lv_objx/lv_calendar.c ****  * @return number of highlighted days
 370:..\..\..\lvgl\version_6.1.2\lvgl\src\lv_objx/lv_calendar.c ****  */
 371:..\..\..\lvgl\version_6.1.2\lvgl\src\lv_objx/lv_calendar.c **** uint16_t lv_calendar_get_highlighted_dates_num(const lv_obj_t * calendar)
 372:..\..\..\lvgl\version_6.1.2\lvgl\src\lv_objx/lv_calendar.c **** {
 1184              		.loc 3 372 0
 1185              		.cfi_startproc
 1186              		@ args = 0, pretend = 0, frame = 16
 1187              		@ frame_needed = 1, uses_anonymous_args = 0
 1188 0000 80B5     		push	{r7, lr}
 1189              		.cfi_def_cfa_offset 8
 1190              		.cfi_offset 7, -8
 1191              		.cfi_offset 14, -4
 1192 0002 84B0     		sub	sp, sp, #16
 1193              		.cfi_def_cfa_offset 24
 1194 0004 00AF     		add	r7, sp, #0
 1195              		.cfi_def_cfa_register 7
 1196 0006 7860     		str	r0, [r7, #4]
 373:..\..\..\lvgl\version_6.1.2\lvgl\src\lv_objx/lv_calendar.c ****     LV_ASSERT_OBJ(calendar, LV_OBJX_NAME);
 374:..\..\..\lvgl\version_6.1.2\lvgl\src\lv_objx/lv_calendar.c **** 
 375:..\..\..\lvgl\version_6.1.2\lvgl\src\lv_objx/lv_calendar.c ****     lv_calendar_ext_t * ext = lv_obj_get_ext_attr(calendar);
 1197              		.loc 3 375 0
 1198 0008 7868     		ldr	r0, [r7, #4]
 1199 000a FFF7FEFF 		bl	lv_obj_get_ext_attr
 1200 000e F860     		str	r0, [r7, #12]
 376:..\..\..\lvgl\version_6.1.2\lvgl\src\lv_objx/lv_calendar.c ****     return ext->highlighted_dates_num;
 1201              		.loc 3 376 0
 1202 0010 FB68     		ldr	r3, [r7, #12]
 1203 0012 DB89     		ldrh	r3, [r3, #14]
 377:..\..\..\lvgl\version_6.1.2\lvgl\src\lv_objx/lv_calendar.c **** }
 1204              		.loc 3 377 0
 1205 0014 1846     		mov	r0, r3
 1206 0016 1037     		adds	r7, r7, #16
 1207              		.cfi_def_cfa_offset 8
 1208 0018 BD46     		mov	sp, r7
 1209              		.cfi_def_cfa_register 13
 1210              		@ sp needed
 1211 001a 80BD     		pop	{r7, pc}
 1212              		.cfi_endproc
 1213              	.LFE42:
 1214              		.size	lv_calendar_get_highlighted_dates_num, .-lv_calendar_get_highlighted_dates_num
 1215              		.section	.text.lv_calendar_get_day_names,"ax",%progbits
ARM GAS  C:\Users\tmj32\AppData\Local\Temp\cc0vWRpX.s 			page 33


 1216              		.align	2
 1217              		.global	lv_calendar_get_day_names
 1218              		.thumb
 1219              		.thumb_func
 1220              		.type	lv_calendar_get_day_names, %function
 1221              	lv_calendar_get_day_names:
 1222              	.LFB43:
 378:..\..\..\lvgl\version_6.1.2\lvgl\src\lv_objx/lv_calendar.c **** 
 379:..\..\..\lvgl\version_6.1.2\lvgl\src\lv_objx/lv_calendar.c **** /**
 380:..\..\..\lvgl\version_6.1.2\lvgl\src\lv_objx/lv_calendar.c ****  * Get the name of the days
 381:..\..\..\lvgl\version_6.1.2\lvgl\src\lv_objx/lv_calendar.c ****  * @param calendar pointer to a calendar object
 382:..\..\..\lvgl\version_6.1.2\lvgl\src\lv_objx/lv_calendar.c ****  * @return pointer to the array of day names
 383:..\..\..\lvgl\version_6.1.2\lvgl\src\lv_objx/lv_calendar.c ****  */
 384:..\..\..\lvgl\version_6.1.2\lvgl\src\lv_objx/lv_calendar.c **** const char ** lv_calendar_get_day_names(const lv_obj_t * calendar)
 385:..\..\..\lvgl\version_6.1.2\lvgl\src\lv_objx/lv_calendar.c **** {
 1223              		.loc 3 385 0
 1224              		.cfi_startproc
 1225              		@ args = 0, pretend = 0, frame = 16
 1226              		@ frame_needed = 1, uses_anonymous_args = 0
 1227 0000 80B5     		push	{r7, lr}
 1228              		.cfi_def_cfa_offset 8
 1229              		.cfi_offset 7, -8
 1230              		.cfi_offset 14, -4
 1231 0002 84B0     		sub	sp, sp, #16
 1232              		.cfi_def_cfa_offset 24
 1233 0004 00AF     		add	r7, sp, #0
 1234              		.cfi_def_cfa_register 7
 1235 0006 7860     		str	r0, [r7, #4]
 386:..\..\..\lvgl\version_6.1.2\lvgl\src\lv_objx/lv_calendar.c ****     LV_ASSERT_OBJ(calendar, LV_OBJX_NAME);
 387:..\..\..\lvgl\version_6.1.2\lvgl\src\lv_objx/lv_calendar.c **** 
 388:..\..\..\lvgl\version_6.1.2\lvgl\src\lv_objx/lv_calendar.c ****     lv_calendar_ext_t * ext = lv_obj_get_ext_attr(calendar);
 1236              		.loc 3 388 0
 1237 0008 7868     		ldr	r0, [r7, #4]
 1238 000a FFF7FEFF 		bl	lv_obj_get_ext_attr
 1239 000e F860     		str	r0, [r7, #12]
 389:..\..\..\lvgl\version_6.1.2\lvgl\src\lv_objx/lv_calendar.c ****     return ext->day_names;
 1240              		.loc 3 389 0
 1241 0010 FB68     		ldr	r3, [r7, #12]
 1242 0012 5B69     		ldr	r3, [r3, #20]
 390:..\..\..\lvgl\version_6.1.2\lvgl\src\lv_objx/lv_calendar.c **** }
 1243              		.loc 3 390 0
 1244 0014 1846     		mov	r0, r3
 1245 0016 1037     		adds	r7, r7, #16
 1246              		.cfi_def_cfa_offset 8
 1247 0018 BD46     		mov	sp, r7
 1248              		.cfi_def_cfa_register 13
 1249              		@ sp needed
 1250 001a 80BD     		pop	{r7, pc}
 1251              		.cfi_endproc
 1252              	.LFE43:
 1253              		.size	lv_calendar_get_day_names, .-lv_calendar_get_day_names
 1254              		.section	.text.lv_calendar_get_month_names,"ax",%progbits
 1255              		.align	2
 1256              		.global	lv_calendar_get_month_names
 1257              		.thumb
 1258              		.thumb_func
 1259              		.type	lv_calendar_get_month_names, %function
ARM GAS  C:\Users\tmj32\AppData\Local\Temp\cc0vWRpX.s 			page 34


 1260              	lv_calendar_get_month_names:
 1261              	.LFB44:
 391:..\..\..\lvgl\version_6.1.2\lvgl\src\lv_objx/lv_calendar.c **** 
 392:..\..\..\lvgl\version_6.1.2\lvgl\src\lv_objx/lv_calendar.c **** /**
 393:..\..\..\lvgl\version_6.1.2\lvgl\src\lv_objx/lv_calendar.c ****  * Get the name of the month
 394:..\..\..\lvgl\version_6.1.2\lvgl\src\lv_objx/lv_calendar.c ****  * @param calendar pointer to a calendar object
 395:..\..\..\lvgl\version_6.1.2\lvgl\src\lv_objx/lv_calendar.c ****  * @return pointer to the array of month names
 396:..\..\..\lvgl\version_6.1.2\lvgl\src\lv_objx/lv_calendar.c ****  */
 397:..\..\..\lvgl\version_6.1.2\lvgl\src\lv_objx/lv_calendar.c **** const char ** lv_calendar_get_month_names(const lv_obj_t * calendar)
 398:..\..\..\lvgl\version_6.1.2\lvgl\src\lv_objx/lv_calendar.c **** {
 1262              		.loc 3 398 0
 1263              		.cfi_startproc
 1264              		@ args = 0, pretend = 0, frame = 16
 1265              		@ frame_needed = 1, uses_anonymous_args = 0
 1266 0000 80B5     		push	{r7, lr}
 1267              		.cfi_def_cfa_offset 8
 1268              		.cfi_offset 7, -8
 1269              		.cfi_offset 14, -4
 1270 0002 84B0     		sub	sp, sp, #16
 1271              		.cfi_def_cfa_offset 24
 1272 0004 00AF     		add	r7, sp, #0
 1273              		.cfi_def_cfa_register 7
 1274 0006 7860     		str	r0, [r7, #4]
 399:..\..\..\lvgl\version_6.1.2\lvgl\src\lv_objx/lv_calendar.c ****     LV_ASSERT_OBJ(calendar, LV_OBJX_NAME);
 400:..\..\..\lvgl\version_6.1.2\lvgl\src\lv_objx/lv_calendar.c **** 
 401:..\..\..\lvgl\version_6.1.2\lvgl\src\lv_objx/lv_calendar.c ****     lv_calendar_ext_t * ext = lv_obj_get_ext_attr(calendar);
 1275              		.loc 3 401 0
 1276 0008 7868     		ldr	r0, [r7, #4]
 1277 000a FFF7FEFF 		bl	lv_obj_get_ext_attr
 1278 000e F860     		str	r0, [r7, #12]
 402:..\..\..\lvgl\version_6.1.2\lvgl\src\lv_objx/lv_calendar.c ****     return ext->month_names;
 1279              		.loc 3 402 0
 1280 0010 FB68     		ldr	r3, [r7, #12]
 1281 0012 9B69     		ldr	r3, [r3, #24]
 403:..\..\..\lvgl\version_6.1.2\lvgl\src\lv_objx/lv_calendar.c **** }
 1282              		.loc 3 403 0
 1283 0014 1846     		mov	r0, r3
 1284 0016 1037     		adds	r7, r7, #16
 1285              		.cfi_def_cfa_offset 8
 1286 0018 BD46     		mov	sp, r7
 1287              		.cfi_def_cfa_register 13
 1288              		@ sp needed
 1289 001a 80BD     		pop	{r7, pc}
 1290              		.cfi_endproc
 1291              	.LFE44:
 1292              		.size	lv_calendar_get_month_names, .-lv_calendar_get_month_names
 1293              		.section	.text.lv_calendar_get_style,"ax",%progbits
 1294              		.align	2
 1295              		.global	lv_calendar_get_style
 1296              		.thumb
 1297              		.thumb_func
 1298              		.type	lv_calendar_get_style, %function
 1299              	lv_calendar_get_style:
 1300              	.LFB45:
 404:..\..\..\lvgl\version_6.1.2\lvgl\src\lv_objx/lv_calendar.c **** 
 405:..\..\..\lvgl\version_6.1.2\lvgl\src\lv_objx/lv_calendar.c **** /**
 406:..\..\..\lvgl\version_6.1.2\lvgl\src\lv_objx/lv_calendar.c ****  * Get style of a calendar.
ARM GAS  C:\Users\tmj32\AppData\Local\Temp\cc0vWRpX.s 			page 35


 407:..\..\..\lvgl\version_6.1.2\lvgl\src\lv_objx/lv_calendar.c ****  * @param calendar pointer to calendar object
 408:..\..\..\lvgl\version_6.1.2\lvgl\src\lv_objx/lv_calendar.c ****  * @param type which style should be get
 409:..\..\..\lvgl\version_6.1.2\lvgl\src\lv_objx/lv_calendar.c ****  * @return style pointer to the style
 410:..\..\..\lvgl\version_6.1.2\lvgl\src\lv_objx/lv_calendar.c ****  *  */
 411:..\..\..\lvgl\version_6.1.2\lvgl\src\lv_objx/lv_calendar.c **** const lv_style_t * lv_calendar_get_style(const lv_obj_t * calendar, lv_calendar_style_t type)
 412:..\..\..\lvgl\version_6.1.2\lvgl\src\lv_objx/lv_calendar.c **** {
 1301              		.loc 3 412 0
 1302              		.cfi_startproc
 1303              		@ args = 0, pretend = 0, frame = 16
 1304              		@ frame_needed = 1, uses_anonymous_args = 0
 1305 0000 80B5     		push	{r7, lr}
 1306              		.cfi_def_cfa_offset 8
 1307              		.cfi_offset 7, -8
 1308              		.cfi_offset 14, -4
 1309 0002 84B0     		sub	sp, sp, #16
 1310              		.cfi_def_cfa_offset 24
 1311 0004 00AF     		add	r7, sp, #0
 1312              		.cfi_def_cfa_register 7
 1313 0006 7860     		str	r0, [r7, #4]
 1314 0008 0B46     		mov	r3, r1
 1315 000a FB70     		strb	r3, [r7, #3]
 413:..\..\..\lvgl\version_6.1.2\lvgl\src\lv_objx/lv_calendar.c ****     LV_ASSERT_OBJ(calendar, LV_OBJX_NAME);
 414:..\..\..\lvgl\version_6.1.2\lvgl\src\lv_objx/lv_calendar.c **** 
 415:..\..\..\lvgl\version_6.1.2\lvgl\src\lv_objx/lv_calendar.c ****     const lv_style_t * style = NULL;
 1316              		.loc 3 415 0
 1317 000c 0023     		movs	r3, #0
 1318 000e FB60     		str	r3, [r7, #12]
 416:..\..\..\lvgl\version_6.1.2\lvgl\src\lv_objx/lv_calendar.c ****     lv_calendar_ext_t * ext  = lv_obj_get_ext_attr(calendar);
 1319              		.loc 3 416 0
 1320 0010 7868     		ldr	r0, [r7, #4]
 1321 0012 FFF7FEFF 		bl	lv_obj_get_ext_attr
 1322 0016 B860     		str	r0, [r7, #8]
 417:..\..\..\lvgl\version_6.1.2\lvgl\src\lv_objx/lv_calendar.c **** 
 418:..\..\..\lvgl\version_6.1.2\lvgl\src\lv_objx/lv_calendar.c ****     switch(type) {
 1323              		.loc 3 418 0
 1324 0018 FB78     		ldrb	r3, [r7, #3]	@ zero_extendqisi2
 1325 001a 072B     		cmp	r3, #7
 1326 001c 33D8     		bhi	.L51
 1327 001e 01A2     		adr	r2, .L53
 1328 0020 52F823F0 		ldr	pc, [r2, r3, lsl #2]
 1329              		.p2align 2
 1330              	.L53:
 1331 0024 45000000 		.word	.L52+1
 1332 0028 4F000000 		.word	.L54+1
 1333 002c 57000000 		.word	.L55+1
 1334 0030 5F000000 		.word	.L56+1
 1335 0034 67000000 		.word	.L57+1
 1336 0038 6F000000 		.word	.L58+1
 1337 003c 77000000 		.word	.L59+1
 1338 0040 7F000000 		.word	.L60+1
 1339              		.p2align 1
 1340              	.L52:
 419:..\..\..\lvgl\version_6.1.2\lvgl\src\lv_objx/lv_calendar.c ****         case LV_CALENDAR_STYLE_BG: style = lv_obj_get_style(calendar); break;
 1341              		.loc 3 419 0
 1342 0044 7868     		ldr	r0, [r7, #4]
 1343 0046 FFF7FEFF 		bl	lv_obj_get_style
 1344 004a F860     		str	r0, [r7, #12]
ARM GAS  C:\Users\tmj32\AppData\Local\Temp\cc0vWRpX.s 			page 36


 1345 004c 1EE0     		b	.L61
 1346              	.L54:
 420:..\..\..\lvgl\version_6.1.2\lvgl\src\lv_objx/lv_calendar.c ****         case LV_CALENDAR_STYLE_HEADER: style = ext->style_header; break;
 1347              		.loc 3 420 0
 1348 004e BB68     		ldr	r3, [r7, #8]
 1349 0050 DB69     		ldr	r3, [r3, #28]
 1350 0052 FB60     		str	r3, [r7, #12]
 1351 0054 1AE0     		b	.L61
 1352              	.L55:
 421:..\..\..\lvgl\version_6.1.2\lvgl\src\lv_objx/lv_calendar.c ****         case LV_CALENDAR_STYLE_HEADER_PR: style = ext->style_header_pr; break;
 1353              		.loc 3 421 0
 1354 0056 BB68     		ldr	r3, [r7, #8]
 1355 0058 1B6A     		ldr	r3, [r3, #32]
 1356 005a FB60     		str	r3, [r7, #12]
 1357 005c 16E0     		b	.L61
 1358              	.L56:
 422:..\..\..\lvgl\version_6.1.2\lvgl\src\lv_objx/lv_calendar.c ****         case LV_CALENDAR_STYLE_DAY_NAMES: style = ext->style_day_names; break;
 1359              		.loc 3 422 0
 1360 005e BB68     		ldr	r3, [r7, #8]
 1361 0060 5B6A     		ldr	r3, [r3, #36]
 1362 0062 FB60     		str	r3, [r7, #12]
 1363 0064 12E0     		b	.L61
 1364              	.L57:
 423:..\..\..\lvgl\version_6.1.2\lvgl\src\lv_objx/lv_calendar.c ****         case LV_CALENDAR_STYLE_HIGHLIGHTED_DAYS: style = ext->style_highlighted_days; break;
 1365              		.loc 3 423 0
 1366 0066 BB68     		ldr	r3, [r7, #8]
 1367 0068 9B6A     		ldr	r3, [r3, #40]
 1368 006a FB60     		str	r3, [r7, #12]
 1369 006c 0EE0     		b	.L61
 1370              	.L58:
 424:..\..\..\lvgl\version_6.1.2\lvgl\src\lv_objx/lv_calendar.c ****         case LV_CALENDAR_STYLE_INACTIVE_DAYS: style = ext->style_inactive_days; break;
 1371              		.loc 3 424 0
 1372 006e BB68     		ldr	r3, [r7, #8]
 1373 0070 DB6A     		ldr	r3, [r3, #44]
 1374 0072 FB60     		str	r3, [r7, #12]
 1375 0074 0AE0     		b	.L61
 1376              	.L59:
 425:..\..\..\lvgl\version_6.1.2\lvgl\src\lv_objx/lv_calendar.c ****         case LV_CALENDAR_STYLE_WEEK_BOX: style = ext->style_week_box; break;
 1377              		.loc 3 425 0
 1378 0076 BB68     		ldr	r3, [r7, #8]
 1379 0078 1B6B     		ldr	r3, [r3, #48]
 1380 007a FB60     		str	r3, [r7, #12]
 1381 007c 06E0     		b	.L61
 1382              	.L60:
 426:..\..\..\lvgl\version_6.1.2\lvgl\src\lv_objx/lv_calendar.c ****         case LV_CALENDAR_STYLE_TODAY_BOX: style = ext->style_today_box; break;
 1383              		.loc 3 426 0
 1384 007e BB68     		ldr	r3, [r7, #8]
 1385 0080 5B6B     		ldr	r3, [r3, #52]
 1386 0082 FB60     		str	r3, [r7, #12]
 1387 0084 02E0     		b	.L61
 1388              	.L51:
 427:..\..\..\lvgl\version_6.1.2\lvgl\src\lv_objx/lv_calendar.c ****         default: style = NULL; break;
 1389              		.loc 3 427 0
 1390 0086 0023     		movs	r3, #0
 1391 0088 FB60     		str	r3, [r7, #12]
 1392 008a 00BF     		nop
 1393              	.L61:
ARM GAS  C:\Users\tmj32\AppData\Local\Temp\cc0vWRpX.s 			page 37


 428:..\..\..\lvgl\version_6.1.2\lvgl\src\lv_objx/lv_calendar.c ****     }
 429:..\..\..\lvgl\version_6.1.2\lvgl\src\lv_objx/lv_calendar.c **** 
 430:..\..\..\lvgl\version_6.1.2\lvgl\src\lv_objx/lv_calendar.c ****     return style;
 1394              		.loc 3 430 0
 1395 008c FB68     		ldr	r3, [r7, #12]
 431:..\..\..\lvgl\version_6.1.2\lvgl\src\lv_objx/lv_calendar.c **** }
 1396              		.loc 3 431 0
 1397 008e 1846     		mov	r0, r3
 1398 0090 1037     		adds	r7, r7, #16
 1399              		.cfi_def_cfa_offset 8
 1400 0092 BD46     		mov	sp, r7
 1401              		.cfi_def_cfa_register 13
 1402              		@ sp needed
 1403 0094 80BD     		pop	{r7, pc}
 1404              		.cfi_endproc
 1405              	.LFE45:
 1406              		.size	lv_calendar_get_style, .-lv_calendar_get_style
 1407 0096 00BF     		.section	.text.lv_calendar_design,"ax",%progbits
 1408              		.align	2
 1409              		.thumb
 1410              		.thumb_func
 1411              		.type	lv_calendar_design, %function
 1412              	lv_calendar_design:
 1413              	.LFB46:
 432:..\..\..\lvgl\version_6.1.2\lvgl\src\lv_objx/lv_calendar.c **** 
 433:..\..\..\lvgl\version_6.1.2\lvgl\src\lv_objx/lv_calendar.c **** /*=====================
 434:..\..\..\lvgl\version_6.1.2\lvgl\src\lv_objx/lv_calendar.c ****  * Other functions
 435:..\..\..\lvgl\version_6.1.2\lvgl\src\lv_objx/lv_calendar.c ****  *====================*/
 436:..\..\..\lvgl\version_6.1.2\lvgl\src\lv_objx/lv_calendar.c **** 
 437:..\..\..\lvgl\version_6.1.2\lvgl\src\lv_objx/lv_calendar.c **** /*
 438:..\..\..\lvgl\version_6.1.2\lvgl\src\lv_objx/lv_calendar.c ****  * New object specific "other" functions come here
 439:..\..\..\lvgl\version_6.1.2\lvgl\src\lv_objx/lv_calendar.c ****  */
 440:..\..\..\lvgl\version_6.1.2\lvgl\src\lv_objx/lv_calendar.c **** 
 441:..\..\..\lvgl\version_6.1.2\lvgl\src\lv_objx/lv_calendar.c **** /**********************
 442:..\..\..\lvgl\version_6.1.2\lvgl\src\lv_objx/lv_calendar.c ****  *   STATIC FUNCTIONS
 443:..\..\..\lvgl\version_6.1.2\lvgl\src\lv_objx/lv_calendar.c ****  **********************/
 444:..\..\..\lvgl\version_6.1.2\lvgl\src\lv_objx/lv_calendar.c **** 
 445:..\..\..\lvgl\version_6.1.2\lvgl\src\lv_objx/lv_calendar.c **** /**
 446:..\..\..\lvgl\version_6.1.2\lvgl\src\lv_objx/lv_calendar.c ****  * Handle the drawing related tasks of the calendars
 447:..\..\..\lvgl\version_6.1.2\lvgl\src\lv_objx/lv_calendar.c ****  * @param calendar pointer to an object
 448:..\..\..\lvgl\version_6.1.2\lvgl\src\lv_objx/lv_calendar.c ****  * @param mask the object will be drawn only in this area
 449:..\..\..\lvgl\version_6.1.2\lvgl\src\lv_objx/lv_calendar.c ****  * @param mode LV_DESIGN_COVER_CHK: only check if the object fully covers the 'mask_p' area
 450:..\..\..\lvgl\version_6.1.2\lvgl\src\lv_objx/lv_calendar.c ****  *                                  (return 'true' if yes)
 451:..\..\..\lvgl\version_6.1.2\lvgl\src\lv_objx/lv_calendar.c ****  *             LV_DESIGN_DRAW: draw the object (always return 'true')
 452:..\..\..\lvgl\version_6.1.2\lvgl\src\lv_objx/lv_calendar.c ****  *             LV_DESIGN_DRAW_POST: drawing after every children are drawn
 453:..\..\..\lvgl\version_6.1.2\lvgl\src\lv_objx/lv_calendar.c ****  * @param return true/false, depends on 'mode'
 454:..\..\..\lvgl\version_6.1.2\lvgl\src\lv_objx/lv_calendar.c ****  */
 455:..\..\..\lvgl\version_6.1.2\lvgl\src\lv_objx/lv_calendar.c **** static bool lv_calendar_design(lv_obj_t * calendar, const lv_area_t * mask, lv_design_mode_t mode)
 456:..\..\..\lvgl\version_6.1.2\lvgl\src\lv_objx/lv_calendar.c **** {
 1414              		.loc 3 456 0
 1415              		.cfi_startproc
 1416              		@ args = 0, pretend = 0, frame = 24
 1417              		@ frame_needed = 1, uses_anonymous_args = 0
 1418 0000 90B5     		push	{r4, r7, lr}
 1419              		.cfi_def_cfa_offset 12
 1420              		.cfi_offset 4, -12
 1421              		.cfi_offset 7, -8
ARM GAS  C:\Users\tmj32\AppData\Local\Temp\cc0vWRpX.s 			page 38


 1422              		.cfi_offset 14, -4
 1423 0002 87B0     		sub	sp, sp, #28
 1424              		.cfi_def_cfa_offset 40
 1425 0004 00AF     		add	r7, sp, #0
 1426              		.cfi_def_cfa_register 7
 1427 0006 F860     		str	r0, [r7, #12]
 1428 0008 B960     		str	r1, [r7, #8]
 1429 000a 1346     		mov	r3, r2
 1430 000c FB71     		strb	r3, [r7, #7]
 457:..\..\..\lvgl\version_6.1.2\lvgl\src\lv_objx/lv_calendar.c ****     /*Return false if the object is not covers the mask_p area*/
 458:..\..\..\lvgl\version_6.1.2\lvgl\src\lv_objx/lv_calendar.c ****     if(mode == LV_DESIGN_COVER_CHK) {
 1431              		.loc 3 458 0
 1432 000e FB79     		ldrb	r3, [r7, #7]	@ zero_extendqisi2
 1433 0010 022B     		cmp	r3, #2
 1434 0012 07D1     		bne	.L64
 459:..\..\..\lvgl\version_6.1.2\lvgl\src\lv_objx/lv_calendar.c ****         return ancestor_design(calendar, mask, mode);
 1435              		.loc 3 459 0
 1436 0014 164B     		ldr	r3, .L67
 1437 0016 1B68     		ldr	r3, [r3]
 1438 0018 FA79     		ldrb	r2, [r7, #7]	@ zero_extendqisi2
 1439 001a B968     		ldr	r1, [r7, #8]
 1440 001c F868     		ldr	r0, [r7, #12]
 1441 001e 9847     		blx	r3
 1442 0020 0346     		mov	r3, r0
 1443 0022 21E0     		b	.L65
 1444              	.L64:
 460:..\..\..\lvgl\version_6.1.2\lvgl\src\lv_objx/lv_calendar.c ****     }
 461:..\..\..\lvgl\version_6.1.2\lvgl\src\lv_objx/lv_calendar.c ****     /*Draw the object*/
 462:..\..\..\lvgl\version_6.1.2\lvgl\src\lv_objx/lv_calendar.c ****     else if(mode == LV_DESIGN_DRAW_MAIN) {
 1445              		.loc 3 462 0
 1446 0024 FB79     		ldrb	r3, [r7, #7]	@ zero_extendqisi2
 1447 0026 002B     		cmp	r3, #0
 1448 0028 1DD1     		bne	.L66
 1449              	.LBB4:
 463:..\..\..\lvgl\version_6.1.2\lvgl\src\lv_objx/lv_calendar.c ****         lv_opa_t opa_scale = lv_obj_get_opa_scale(calendar);
 1450              		.loc 3 463 0
 1451 002a F868     		ldr	r0, [r7, #12]
 1452 002c FFF7FEFF 		bl	lv_obj_get_opa_scale
 1453 0030 0346     		mov	r3, r0
 1454 0032 FB75     		strb	r3, [r7, #23]
 464:..\..\..\lvgl\version_6.1.2\lvgl\src\lv_objx/lv_calendar.c ****         lv_draw_rect(&calendar->coords, mask, lv_calendar_get_style(calendar, LV_CALENDAR_STYLE_BG)
 1455              		.loc 3 464 0
 1456 0034 FB68     		ldr	r3, [r7, #12]
 1457 0036 03F11004 		add	r4, r3, #16
 1458 003a 0021     		movs	r1, #0
 1459 003c F868     		ldr	r0, [r7, #12]
 1460 003e FFF7FEFF 		bl	lv_calendar_get_style
 1461 0042 0246     		mov	r2, r0
 1462 0044 FB7D     		ldrb	r3, [r7, #23]	@ zero_extendqisi2
 1463 0046 B968     		ldr	r1, [r7, #8]
 1464 0048 2046     		mov	r0, r4
 1465 004a FFF7FEFF 		bl	lv_draw_rect
 465:..\..\..\lvgl\version_6.1.2\lvgl\src\lv_objx/lv_calendar.c **** 
 466:..\..\..\lvgl\version_6.1.2\lvgl\src\lv_objx/lv_calendar.c ****         draw_header(calendar, mask);
 1466              		.loc 3 466 0
 1467 004e B968     		ldr	r1, [r7, #8]
 1468 0050 F868     		ldr	r0, [r7, #12]
ARM GAS  C:\Users\tmj32\AppData\Local\Temp\cc0vWRpX.s 			page 39


 1469 0052 FFF7FEFF 		bl	draw_header
 467:..\..\..\lvgl\version_6.1.2\lvgl\src\lv_objx/lv_calendar.c ****         draw_day_names(calendar, mask);
 1470              		.loc 3 467 0
 1471 0056 B968     		ldr	r1, [r7, #8]
 1472 0058 F868     		ldr	r0, [r7, #12]
 1473 005a FFF7FEFF 		bl	draw_day_names
 468:..\..\..\lvgl\version_6.1.2\lvgl\src\lv_objx/lv_calendar.c ****         draw_days(calendar, mask);
 1474              		.loc 3 468 0
 1475 005e B968     		ldr	r1, [r7, #8]
 1476 0060 F868     		ldr	r0, [r7, #12]
 1477 0062 FFF7FEFF 		bl	draw_days
 1478              	.L66:
 1479              	.LBE4:
 469:..\..\..\lvgl\version_6.1.2\lvgl\src\lv_objx/lv_calendar.c **** 
 470:..\..\..\lvgl\version_6.1.2\lvgl\src\lv_objx/lv_calendar.c ****     }
 471:..\..\..\lvgl\version_6.1.2\lvgl\src\lv_objx/lv_calendar.c ****     /*Post draw when the children are drawn*/
 472:..\..\..\lvgl\version_6.1.2\lvgl\src\lv_objx/lv_calendar.c ****     else if(mode == LV_DESIGN_DRAW_POST) {
 473:..\..\..\lvgl\version_6.1.2\lvgl\src\lv_objx/lv_calendar.c ****     }
 474:..\..\..\lvgl\version_6.1.2\lvgl\src\lv_objx/lv_calendar.c **** 
 475:..\..\..\lvgl\version_6.1.2\lvgl\src\lv_objx/lv_calendar.c ****     return true;
 1480              		.loc 3 475 0
 1481 0066 0123     		movs	r3, #1
 1482              	.L65:
 476:..\..\..\lvgl\version_6.1.2\lvgl\src\lv_objx/lv_calendar.c **** }
 1483              		.loc 3 476 0
 1484 0068 1846     		mov	r0, r3
 1485 006a 1C37     		adds	r7, r7, #28
 1486              		.cfi_def_cfa_offset 12
 1487 006c BD46     		mov	sp, r7
 1488              		.cfi_def_cfa_register 13
 1489              		@ sp needed
 1490 006e 90BD     		pop	{r4, r7, pc}
 1491              	.L68:
 1492              		.align	2
 1493              	.L67:
 1494 0070 04000000 		.word	ancestor_design
 1495              		.cfi_endproc
 1496              	.LFE46:
 1497              		.size	lv_calendar_design, .-lv_calendar_design
 1498              		.section	.rodata
 1499 0085 000000   		.align	2
 1500              	.LC19:
 1501 0088 6C765F63 		.ascii	"lv_calendar\000"
 1501      616C656E 
 1501      64617200 
 1502              		.section	.text.lv_calendar_signal,"ax",%progbits
 1503              		.align	2
 1504              		.thumb
 1505              		.thumb_func
 1506              		.type	lv_calendar_signal, %function
 1507              	lv_calendar_signal:
 1508              	.LFB47:
 477:..\..\..\lvgl\version_6.1.2\lvgl\src\lv_objx/lv_calendar.c **** 
 478:..\..\..\lvgl\version_6.1.2\lvgl\src\lv_objx/lv_calendar.c **** /**
 479:..\..\..\lvgl\version_6.1.2\lvgl\src\lv_objx/lv_calendar.c ****  * Signal function of the calendar
 480:..\..\..\lvgl\version_6.1.2\lvgl\src\lv_objx/lv_calendar.c ****  * @param calendar pointer to a calendar object
 481:..\..\..\lvgl\version_6.1.2\lvgl\src\lv_objx/lv_calendar.c ****  * @param sign a signal type from lv_signal_t enum
ARM GAS  C:\Users\tmj32\AppData\Local\Temp\cc0vWRpX.s 			page 40


 482:..\..\..\lvgl\version_6.1.2\lvgl\src\lv_objx/lv_calendar.c ****  * @param param pointer to a signal specific variable
 483:..\..\..\lvgl\version_6.1.2\lvgl\src\lv_objx/lv_calendar.c ****  * @return LV_RES_OK: the object is not deleted in the function; LV_RES_INV: the object is deleted
 484:..\..\..\lvgl\version_6.1.2\lvgl\src\lv_objx/lv_calendar.c ****  */
 485:..\..\..\lvgl\version_6.1.2\lvgl\src\lv_objx/lv_calendar.c **** static lv_res_t lv_calendar_signal(lv_obj_t * calendar, lv_signal_t sign, void * param)
 486:..\..\..\lvgl\version_6.1.2\lvgl\src\lv_objx/lv_calendar.c **** {
 1509              		.loc 3 486 0
 1510              		.cfi_startproc
 1511              		@ args = 0, pretend = 0, frame = 56
 1512              		@ frame_needed = 1, uses_anonymous_args = 0
 1513 0000 B0B5     		push	{r4, r5, r7, lr}
 1514              		.cfi_def_cfa_offset 16
 1515              		.cfi_offset 4, -16
 1516              		.cfi_offset 5, -12
 1517              		.cfi_offset 7, -8
 1518              		.cfi_offset 14, -4
 1519 0002 8EB0     		sub	sp, sp, #56
 1520              		.cfi_def_cfa_offset 72
 1521 0004 00AF     		add	r7, sp, #0
 1522              		.cfi_def_cfa_register 7
 1523 0006 F860     		str	r0, [r7, #12]
 1524 0008 0B46     		mov	r3, r1
 1525 000a 7A60     		str	r2, [r7, #4]
 1526 000c FB72     		strb	r3, [r7, #11]
 487:..\..\..\lvgl\version_6.1.2\lvgl\src\lv_objx/lv_calendar.c ****     lv_res_t res;
 488:..\..\..\lvgl\version_6.1.2\lvgl\src\lv_objx/lv_calendar.c **** 
 489:..\..\..\lvgl\version_6.1.2\lvgl\src\lv_objx/lv_calendar.c ****     /* Include the ancient signal function */
 490:..\..\..\lvgl\version_6.1.2\lvgl\src\lv_objx/lv_calendar.c ****     res = ancestor_signal(calendar, sign, param);
 1527              		.loc 3 490 0
 1528 000e AF4B     		ldr	r3, .L100
 1529 0010 1B68     		ldr	r3, [r3]
 1530 0012 F97A     		ldrb	r1, [r7, #11]	@ zero_extendqisi2
 1531 0014 7A68     		ldr	r2, [r7, #4]
 1532 0016 F868     		ldr	r0, [r7, #12]
 1533 0018 9847     		blx	r3
 1534 001a 0346     		mov	r3, r0
 1535 001c 87F83730 		strb	r3, [r7, #55]
 491:..\..\..\lvgl\version_6.1.2\lvgl\src\lv_objx/lv_calendar.c ****     if(res != LV_RES_OK) return res;
 1536              		.loc 3 491 0
 1537 0020 97F83730 		ldrb	r3, [r7, #55]	@ zero_extendqisi2
 1538 0024 012B     		cmp	r3, #1
 1539 0026 02D0     		beq	.L70
 1540              		.loc 3 491 0 is_stmt 0 discriminator 1
 1541 0028 97F83730 		ldrb	r3, [r7, #55]	@ zero_extendqisi2
 1542 002c 60E1     		b	.L71
 1543              	.L70:
 492:..\..\..\lvgl\version_6.1.2\lvgl\src\lv_objx/lv_calendar.c ****     if(sign == LV_SIGNAL_GET_TYPE) return lv_obj_handle_get_type_signal(param, LV_OBJX_NAME);
 1544              		.loc 3 492 0 is_stmt 1
 1545 002e FB7A     		ldrb	r3, [r7, #11]	@ zero_extendqisi2
 1546 0030 072B     		cmp	r3, #7
 1547 0032 05D1     		bne	.L72
 1548              		.loc 3 492 0 is_stmt 0 discriminator 1
 1549 0034 A649     		ldr	r1, .L100+4
 1550 0036 7868     		ldr	r0, [r7, #4]
 1551 0038 FFF7FEFF 		bl	lv_obj_handle_get_type_signal
 1552 003c 0346     		mov	r3, r0
 1553 003e 57E1     		b	.L71
 1554              	.L72:
ARM GAS  C:\Users\tmj32\AppData\Local\Temp\cc0vWRpX.s 			page 41


 493:..\..\..\lvgl\version_6.1.2\lvgl\src\lv_objx/lv_calendar.c **** 
 494:..\..\..\lvgl\version_6.1.2\lvgl\src\lv_objx/lv_calendar.c ****     if(sign == LV_SIGNAL_CLEANUP) {
 1555              		.loc 3 494 0 is_stmt 1
 1556 0040 FB7A     		ldrb	r3, [r7, #11]	@ zero_extendqisi2
 1557 0042 002B     		cmp	r3, #0
 1558 0044 00F05281 		beq	.L73
 495:..\..\..\lvgl\version_6.1.2\lvgl\src\lv_objx/lv_calendar.c ****         /*Nothing to cleanup. (No dynamically allocated memory in 'ext')*/
 496:..\..\..\lvgl\version_6.1.2\lvgl\src\lv_objx/lv_calendar.c ****     } else if(sign == LV_SIGNAL_PRESSING) {
 1559              		.loc 3 496 0
 1560 0048 FB7A     		ldrb	r3, [r7, #11]	@ zero_extendqisi2
 1561 004a 092B     		cmp	r3, #9
 1562 004c 40F08C80 		bne	.L74
 1563              	.LBB5:
 497:..\..\..\lvgl\version_6.1.2\lvgl\src\lv_objx/lv_calendar.c ****         lv_calendar_ext_t * ext = lv_obj_get_ext_attr(calendar);
 1564              		.loc 3 497 0
 1565 0050 F868     		ldr	r0, [r7, #12]
 1566 0052 FFF7FEFF 		bl	lv_obj_get_ext_attr
 1567 0056 3862     		str	r0, [r7, #32]
 498:..\..\..\lvgl\version_6.1.2\lvgl\src\lv_objx/lv_calendar.c ****         lv_area_t header_area;
 499:..\..\..\lvgl\version_6.1.2\lvgl\src\lv_objx/lv_calendar.c ****         lv_area_copy(&header_area, &calendar->coords);
 1568              		.loc 3 499 0
 1569 0058 FB68     		ldr	r3, [r7, #12]
 1570 005a 03F11002 		add	r2, r3, #16
 1571 005e 07F11403 		add	r3, r7, #20
 1572 0062 1146     		mov	r1, r2
 1573 0064 1846     		mov	r0, r3
 1574 0066 FFF7FEFF 		bl	lv_area_copy
 500:..\..\..\lvgl\version_6.1.2\lvgl\src\lv_objx/lv_calendar.c ****         header_area.y2 = header_area.y1 + get_header_height(calendar);
 1575              		.loc 3 500 0
 1576 006a B7F91630 		ldrsh	r3, [r7, #22]
 1577 006e 9CB2     		uxth	r4, r3
 1578 0070 F868     		ldr	r0, [r7, #12]
 1579 0072 FFF7FEFF 		bl	get_header_height
 1580 0076 0346     		mov	r3, r0
 1581 0078 9BB2     		uxth	r3, r3
 1582 007a 2344     		add	r3, r3, r4
 1583 007c 9BB2     		uxth	r3, r3
 1584 007e 1BB2     		sxth	r3, r3
 1585 0080 7B83     		strh	r3, [r7, #26]	@ movhi
 501:..\..\..\lvgl\version_6.1.2\lvgl\src\lv_objx/lv_calendar.c **** 
 502:..\..\..\lvgl\version_6.1.2\lvgl\src\lv_objx/lv_calendar.c ****         lv_indev_t * indev = lv_indev_get_act();
 1586              		.loc 3 502 0
 1587 0082 FFF7FEFF 		bl	lv_indev_get_act
 1588 0086 F861     		str	r0, [r7, #28]
 503:..\..\..\lvgl\version_6.1.2\lvgl\src\lv_objx/lv_calendar.c ****         lv_point_t p;
 504:..\..\..\lvgl\version_6.1.2\lvgl\src\lv_objx/lv_calendar.c ****         lv_indev_get_point(indev, &p);
 1589              		.loc 3 504 0
 1590 0088 07F11003 		add	r3, r7, #16
 1591 008c 1946     		mov	r1, r3
 1592 008e F869     		ldr	r0, [r7, #28]
 1593 0090 FFF7FEFF 		bl	lv_indev_get_point
 505:..\..\..\lvgl\version_6.1.2\lvgl\src\lv_objx/lv_calendar.c **** 
 506:..\..\..\lvgl\version_6.1.2\lvgl\src\lv_objx/lv_calendar.c ****         /*If the header is pressed mark an arrow as pressed*/
 507:..\..\..\lvgl\version_6.1.2\lvgl\src\lv_objx/lv_calendar.c ****         if(lv_area_is_point_on(&header_area, &p)) {
 1594              		.loc 3 507 0
 1595 0094 07F11002 		add	r2, r7, #16
 1596 0098 07F11403 		add	r3, r7, #20
ARM GAS  C:\Users\tmj32\AppData\Local\Temp\cc0vWRpX.s 			page 42


 1597 009c 1146     		mov	r1, r2
 1598 009e 1846     		mov	r0, r3
 1599 00a0 FFF7FEFF 		bl	lv_area_is_point_on
 1600 00a4 0346     		mov	r3, r0
 1601 00a6 002B     		cmp	r3, #0
 1602 00a8 34D0     		beq	.L75
 508:..\..\..\lvgl\version_6.1.2\lvgl\src\lv_objx/lv_calendar.c ****             if(p.x < header_area.x1 + lv_area_get_width(&header_area) / 2) {
 1603              		.loc 3 508 0
 1604 00aa B7F91030 		ldrsh	r3, [r7, #16]
 1605 00ae 1C46     		mov	r4, r3
 1606 00b0 B7F91430 		ldrsh	r3, [r7, #20]
 1607 00b4 1D46     		mov	r5, r3
 1608 00b6 07F11403 		add	r3, r7, #20
 1609 00ba 1846     		mov	r0, r3
 1610 00bc FFF7FEFF 		bl	lv_area_get_width
 1611 00c0 0346     		mov	r3, r0
 1612 00c2 DA0F     		lsrs	r2, r3, #31
 1613 00c4 1344     		add	r3, r3, r2
 1614 00c6 5B10     		asrs	r3, r3, #1
 1615 00c8 1BB2     		sxth	r3, r3
 1616 00ca 2B44     		add	r3, r3, r5
 1617 00cc 9C42     		cmp	r4, r3
 1618 00ce 0CDA     		bge	.L76
 509:..\..\..\lvgl\version_6.1.2\lvgl\src\lv_objx/lv_calendar.c ****                 if(ext->btn_pressing != -1) lv_obj_invalidate(calendar);
 1619              		.loc 3 509 0
 1620 00d0 3B6A     		ldr	r3, [r7, #32]
 1621 00d2 93F90C30 		ldrsb	r3, [r3, #12]
 1622 00d6 B3F1FF3F 		cmp	r3, #-1
 1623 00da 02D0     		beq	.L77
 1624              		.loc 3 509 0 is_stmt 0 discriminator 1
 1625 00dc F868     		ldr	r0, [r7, #12]
 1626 00de FFF7FEFF 		bl	lv_obj_invalidate
 1627              	.L77:
 510:..\..\..\lvgl\version_6.1.2\lvgl\src\lv_objx/lv_calendar.c ****                 ext->btn_pressing = -1;
 1628              		.loc 3 510 0 is_stmt 1
 1629 00e2 3B6A     		ldr	r3, [r7, #32]
 1630 00e4 FF22     		movs	r2, #255
 1631 00e6 1A73     		strb	r2, [r3, #12]
 1632 00e8 0AE0     		b	.L78
 1633              	.L76:
 511:..\..\..\lvgl\version_6.1.2\lvgl\src\lv_objx/lv_calendar.c ****             } else {
 512:..\..\..\lvgl\version_6.1.2\lvgl\src\lv_objx/lv_calendar.c ****                 if(ext->btn_pressing != 1) lv_obj_invalidate(calendar);
 1634              		.loc 3 512 0
 1635 00ea 3B6A     		ldr	r3, [r7, #32]
 1636 00ec 93F90C30 		ldrsb	r3, [r3, #12]
 1637 00f0 012B     		cmp	r3, #1
 1638 00f2 02D0     		beq	.L79
 1639              		.loc 3 512 0 is_stmt 0 discriminator 1
 1640 00f4 F868     		ldr	r0, [r7, #12]
 1641 00f6 FFF7FEFF 		bl	lv_obj_invalidate
 1642              	.L79:
 513:..\..\..\lvgl\version_6.1.2\lvgl\src\lv_objx/lv_calendar.c ****                 ext->btn_pressing = 1;
 1643              		.loc 3 513 0 is_stmt 1
 1644 00fa 3B6A     		ldr	r3, [r7, #32]
 1645 00fc 0122     		movs	r2, #1
 1646 00fe 1A73     		strb	r2, [r3, #12]
 1647              	.L78:
ARM GAS  C:\Users\tmj32\AppData\Local\Temp\cc0vWRpX.s 			page 43


 514:..\..\..\lvgl\version_6.1.2\lvgl\src\lv_objx/lv_calendar.c ****             }
 515:..\..\..\lvgl\version_6.1.2\lvgl\src\lv_objx/lv_calendar.c **** 
 516:..\..\..\lvgl\version_6.1.2\lvgl\src\lv_objx/lv_calendar.c ****             ext->pressed_date.year  = 0;
 1648              		.loc 3 516 0
 1649 0100 3B6A     		ldr	r3, [r7, #32]
 1650 0102 0022     		movs	r2, #0
 1651 0104 1A82     		strh	r2, [r3, #16]	@ movhi
 517:..\..\..\lvgl\version_6.1.2\lvgl\src\lv_objx/lv_calendar.c ****             ext->pressed_date.month = 0;
 1652              		.loc 3 517 0
 1653 0106 3B6A     		ldr	r3, [r7, #32]
 1654 0108 0022     		movs	r2, #0
 1655 010a 9A74     		strb	r2, [r3, #18]
 518:..\..\..\lvgl\version_6.1.2\lvgl\src\lv_objx/lv_calendar.c ****             ext->pressed_date.day   = 0;
 1656              		.loc 3 518 0
 1657 010c 3B6A     		ldr	r3, [r7, #32]
 1658 010e 0022     		movs	r2, #0
 1659 0110 DA74     		strb	r2, [r3, #19]
 1660 0112 EBE0     		b	.L73
 1661              	.L75:
 519:..\..\..\lvgl\version_6.1.2\lvgl\src\lv_objx/lv_calendar.c ****         }
 520:..\..\..\lvgl\version_6.1.2\lvgl\src\lv_objx/lv_calendar.c ****         /*If a day is pressed save it*/
 521:..\..\..\lvgl\version_6.1.2\lvgl\src\lv_objx/lv_calendar.c ****         else if(calculate_touched_day(calendar, &p)) {
 1662              		.loc 3 521 0
 1663 0114 07F11003 		add	r3, r7, #16
 1664 0118 1946     		mov	r1, r3
 1665 011a F868     		ldr	r0, [r7, #12]
 1666 011c FFF7FEFF 		bl	calculate_touched_day
 1667 0120 0346     		mov	r3, r0
 1668 0122 002B     		cmp	r3, #0
 1669 0124 0BD0     		beq	.L81
 522:..\..\..\lvgl\version_6.1.2\lvgl\src\lv_objx/lv_calendar.c ****             if(ext->btn_pressing != 0) lv_obj_invalidate(calendar);
 1670              		.loc 3 522 0
 1671 0126 3B6A     		ldr	r3, [r7, #32]
 1672 0128 93F90C30 		ldrsb	r3, [r3, #12]
 1673 012c 002B     		cmp	r3, #0
 1674 012e 02D0     		beq	.L82
 1675              		.loc 3 522 0 is_stmt 0 discriminator 1
 1676 0130 F868     		ldr	r0, [r7, #12]
 1677 0132 FFF7FEFF 		bl	lv_obj_invalidate
 1678              	.L82:
 523:..\..\..\lvgl\version_6.1.2\lvgl\src\lv_objx/lv_calendar.c ****             ext->btn_pressing = 0;
 1679              		.loc 3 523 0 is_stmt 1
 1680 0136 3B6A     		ldr	r3, [r7, #32]
 1681 0138 0022     		movs	r2, #0
 1682 013a 1A73     		strb	r2, [r3, #12]
 1683 013c D6E0     		b	.L73
 1684              	.L81:
 524:..\..\..\lvgl\version_6.1.2\lvgl\src\lv_objx/lv_calendar.c ****         }
 525:..\..\..\lvgl\version_6.1.2\lvgl\src\lv_objx/lv_calendar.c ****         /*ELse set a deafault state*/
 526:..\..\..\lvgl\version_6.1.2\lvgl\src\lv_objx/lv_calendar.c ****         else {
 527:..\..\..\lvgl\version_6.1.2\lvgl\src\lv_objx/lv_calendar.c ****             if(ext->btn_pressing != 0) lv_obj_invalidate(calendar);
 1685              		.loc 3 527 0
 1686 013e 3B6A     		ldr	r3, [r7, #32]
 1687 0140 93F90C30 		ldrsb	r3, [r3, #12]
 1688 0144 002B     		cmp	r3, #0
 1689 0146 02D0     		beq	.L83
 1690              		.loc 3 527 0 is_stmt 0 discriminator 1
ARM GAS  C:\Users\tmj32\AppData\Local\Temp\cc0vWRpX.s 			page 44


 1691 0148 F868     		ldr	r0, [r7, #12]
 1692 014a FFF7FEFF 		bl	lv_obj_invalidate
 1693              	.L83:
 528:..\..\..\lvgl\version_6.1.2\lvgl\src\lv_objx/lv_calendar.c ****             ext->btn_pressing       = 0;
 1694              		.loc 3 528 0 is_stmt 1
 1695 014e 3B6A     		ldr	r3, [r7, #32]
 1696 0150 0022     		movs	r2, #0
 1697 0152 1A73     		strb	r2, [r3, #12]
 529:..\..\..\lvgl\version_6.1.2\lvgl\src\lv_objx/lv_calendar.c ****             ext->pressed_date.year  = 0;
 1698              		.loc 3 529 0
 1699 0154 3B6A     		ldr	r3, [r7, #32]
 1700 0156 0022     		movs	r2, #0
 1701 0158 1A82     		strh	r2, [r3, #16]	@ movhi
 530:..\..\..\lvgl\version_6.1.2\lvgl\src\lv_objx/lv_calendar.c ****             ext->pressed_date.month = 0;
 1702              		.loc 3 530 0
 1703 015a 3B6A     		ldr	r3, [r7, #32]
 1704 015c 0022     		movs	r2, #0
 1705 015e 9A74     		strb	r2, [r3, #18]
 531:..\..\..\lvgl\version_6.1.2\lvgl\src\lv_objx/lv_calendar.c ****             ext->pressed_date.day   = 0;
 1706              		.loc 3 531 0
 1707 0160 3B6A     		ldr	r3, [r7, #32]
 1708 0162 0022     		movs	r2, #0
 1709 0164 DA74     		strb	r2, [r3, #19]
 1710 0166 C1E0     		b	.L73
 1711              	.L74:
 1712              	.LBE5:
 532:..\..\..\lvgl\version_6.1.2\lvgl\src\lv_objx/lv_calendar.c ****         }
 533:..\..\..\lvgl\version_6.1.2\lvgl\src\lv_objx/lv_calendar.c ****     } else if(sign == LV_SIGNAL_PRESS_LOST) {
 1713              		.loc 3 533 0
 1714 0168 FB7A     		ldrb	r3, [r7, #11]	@ zero_extendqisi2
 1715 016a 0A2B     		cmp	r3, #10
 1716 016c 0AD1     		bne	.L84
 1717              	.LBB6:
 534:..\..\..\lvgl\version_6.1.2\lvgl\src\lv_objx/lv_calendar.c ****         lv_calendar_ext_t * ext = lv_obj_get_ext_attr(calendar);
 1718              		.loc 3 534 0
 1719 016e F868     		ldr	r0, [r7, #12]
 1720 0170 FFF7FEFF 		bl	lv_obj_get_ext_attr
 1721 0174 7862     		str	r0, [r7, #36]
 535:..\..\..\lvgl\version_6.1.2\lvgl\src\lv_objx/lv_calendar.c ****         ext->btn_pressing       = 0;
 1722              		.loc 3 535 0
 1723 0176 7B6A     		ldr	r3, [r7, #36]
 1724 0178 0022     		movs	r2, #0
 1725 017a 1A73     		strb	r2, [r3, #12]
 536:..\..\..\lvgl\version_6.1.2\lvgl\src\lv_objx/lv_calendar.c ****         lv_obj_invalidate(calendar);
 1726              		.loc 3 536 0
 1727 017c F868     		ldr	r0, [r7, #12]
 1728 017e FFF7FEFF 		bl	lv_obj_invalidate
 1729              	.LBE6:
 1730 0182 B3E0     		b	.L73
 1731              	.L84:
 537:..\..\..\lvgl\version_6.1.2\lvgl\src\lv_objx/lv_calendar.c **** 
 538:..\..\..\lvgl\version_6.1.2\lvgl\src\lv_objx/lv_calendar.c ****     } else if(sign == LV_SIGNAL_RELEASED) {
 1732              		.loc 3 538 0
 1733 0184 FB7A     		ldrb	r3, [r7, #11]	@ zero_extendqisi2
 1734 0186 0B2B     		cmp	r3, #11
 1735 0188 59D1     		bne	.L85
 1736              	.LBB7:
ARM GAS  C:\Users\tmj32\AppData\Local\Temp\cc0vWRpX.s 			page 45


 539:..\..\..\lvgl\version_6.1.2\lvgl\src\lv_objx/lv_calendar.c ****         lv_calendar_ext_t * ext = lv_obj_get_ext_attr(calendar);
 1737              		.loc 3 539 0
 1738 018a F868     		ldr	r0, [r7, #12]
 1739 018c FFF7FEFF 		bl	lv_obj_get_ext_attr
 1740 0190 3863     		str	r0, [r7, #48]
 540:..\..\..\lvgl\version_6.1.2\lvgl\src\lv_objx/lv_calendar.c ****         if(ext->btn_pressing < 0) {
 1741              		.loc 3 540 0
 1742 0192 3B6B     		ldr	r3, [r7, #48]
 1743 0194 93F90C30 		ldrsb	r3, [r3, #12]
 1744 0198 002B     		cmp	r3, #0
 1745 019a 18DA     		bge	.L86
 541:..\..\..\lvgl\version_6.1.2\lvgl\src\lv_objx/lv_calendar.c ****             if(ext->showed_date.month <= 1) {
 1746              		.loc 3 541 0
 1747 019c 3B6B     		ldr	r3, [r7, #48]
 1748 019e 93F90630 		ldrsb	r3, [r3, #6]
 1749 01a2 012B     		cmp	r3, #1
 1750 01a4 09DC     		bgt	.L87
 542:..\..\..\lvgl\version_6.1.2\lvgl\src\lv_objx/lv_calendar.c ****                 ext->showed_date.month = 12;
 1751              		.loc 3 542 0
 1752 01a6 3B6B     		ldr	r3, [r7, #48]
 1753 01a8 0C22     		movs	r2, #12
 1754 01aa 9A71     		strb	r2, [r3, #6]
 543:..\..\..\lvgl\version_6.1.2\lvgl\src\lv_objx/lv_calendar.c ****                 ext->showed_date.year--;
 1755              		.loc 3 543 0
 1756 01ac 3B6B     		ldr	r3, [r7, #48]
 1757 01ae 9B88     		ldrh	r3, [r3, #4]
 1758 01b0 013B     		subs	r3, r3, #1
 1759 01b2 9AB2     		uxth	r2, r3
 1760 01b4 3B6B     		ldr	r3, [r7, #48]
 1761 01b6 9A80     		strh	r2, [r3, #4]	@ movhi
 1762 01b8 3AE0     		b	.L89
 1763              	.L87:
 544:..\..\..\lvgl\version_6.1.2\lvgl\src\lv_objx/lv_calendar.c ****             } else {
 545:..\..\..\lvgl\version_6.1.2\lvgl\src\lv_objx/lv_calendar.c ****                 ext->showed_date.month--;
 1764              		.loc 3 545 0
 1765 01ba 3B6B     		ldr	r3, [r7, #48]
 1766 01bc 93F90630 		ldrsb	r3, [r3, #6]
 1767 01c0 DBB2     		uxtb	r3, r3
 1768 01c2 013B     		subs	r3, r3, #1
 1769 01c4 DBB2     		uxtb	r3, r3
 1770 01c6 5AB2     		sxtb	r2, r3
 1771 01c8 3B6B     		ldr	r3, [r7, #48]
 1772 01ca 9A71     		strb	r2, [r3, #6]
 1773 01cc 30E0     		b	.L89
 1774              	.L86:
 546:..\..\..\lvgl\version_6.1.2\lvgl\src\lv_objx/lv_calendar.c ****             }
 547:..\..\..\lvgl\version_6.1.2\lvgl\src\lv_objx/lv_calendar.c ****         } else if(ext->btn_pressing > 0) {
 1775              		.loc 3 547 0
 1776 01ce 3B6B     		ldr	r3, [r7, #48]
 1777 01d0 93F90C30 		ldrsb	r3, [r3, #12]
 1778 01d4 002B     		cmp	r3, #0
 1779 01d6 18DD     		ble	.L90
 548:..\..\..\lvgl\version_6.1.2\lvgl\src\lv_objx/lv_calendar.c ****             if(ext->showed_date.month >= 12) {
 1780              		.loc 3 548 0
 1781 01d8 3B6B     		ldr	r3, [r7, #48]
 1782 01da 93F90630 		ldrsb	r3, [r3, #6]
 1783 01de 0B2B     		cmp	r3, #11
ARM GAS  C:\Users\tmj32\AppData\Local\Temp\cc0vWRpX.s 			page 46


 1784 01e0 09DD     		ble	.L91
 549:..\..\..\lvgl\version_6.1.2\lvgl\src\lv_objx/lv_calendar.c ****                 ext->showed_date.month = 1;
 1785              		.loc 3 549 0
 1786 01e2 3B6B     		ldr	r3, [r7, #48]
 1787 01e4 0122     		movs	r2, #1
 1788 01e6 9A71     		strb	r2, [r3, #6]
 550:..\..\..\lvgl\version_6.1.2\lvgl\src\lv_objx/lv_calendar.c ****                 ext->showed_date.year++;
 1789              		.loc 3 550 0
 1790 01e8 3B6B     		ldr	r3, [r7, #48]
 1791 01ea 9B88     		ldrh	r3, [r3, #4]
 1792 01ec 0133     		adds	r3, r3, #1
 1793 01ee 9AB2     		uxth	r2, r3
 1794 01f0 3B6B     		ldr	r3, [r7, #48]
 1795 01f2 9A80     		strh	r2, [r3, #4]	@ movhi
 1796 01f4 1CE0     		b	.L89
 1797              	.L91:
 551:..\..\..\lvgl\version_6.1.2\lvgl\src\lv_objx/lv_calendar.c ****             } else {
 552:..\..\..\lvgl\version_6.1.2\lvgl\src\lv_objx/lv_calendar.c ****                 ext->showed_date.month++;
 1798              		.loc 3 552 0
 1799 01f6 3B6B     		ldr	r3, [r7, #48]
 1800 01f8 93F90630 		ldrsb	r3, [r3, #6]
 1801 01fc DBB2     		uxtb	r3, r3
 1802 01fe 0133     		adds	r3, r3, #1
 1803 0200 DBB2     		uxtb	r3, r3
 1804 0202 5AB2     		sxtb	r2, r3
 1805 0204 3B6B     		ldr	r3, [r7, #48]
 1806 0206 9A71     		strb	r2, [r3, #6]
 1807 0208 12E0     		b	.L89
 1808              	.L90:
 553:..\..\..\lvgl\version_6.1.2\lvgl\src\lv_objx/lv_calendar.c ****             }
 554:..\..\..\lvgl\version_6.1.2\lvgl\src\lv_objx/lv_calendar.c ****         } else if(ext->pressed_date.year != 0) {
 1809              		.loc 3 554 0
 1810 020a 3B6B     		ldr	r3, [r7, #48]
 1811 020c 1B8A     		ldrh	r3, [r3, #16]
 1812 020e 002B     		cmp	r3, #0
 1813 0210 0ED0     		beq	.L89
 555:..\..\..\lvgl\version_6.1.2\lvgl\src\lv_objx/lv_calendar.c ****             res = lv_event_send(calendar, LV_EVENT_VALUE_CHANGED, NULL);
 1814              		.loc 3 555 0
 1815 0212 0022     		movs	r2, #0
 1816 0214 0E21     		movs	r1, #14
 1817 0216 F868     		ldr	r0, [r7, #12]
 1818 0218 FFF7FEFF 		bl	lv_event_send
 1819 021c 0346     		mov	r3, r0
 1820 021e 87F83730 		strb	r3, [r7, #55]
 556:..\..\..\lvgl\version_6.1.2\lvgl\src\lv_objx/lv_calendar.c ****             if(res != LV_RES_OK) return res;
 1821              		.loc 3 556 0
 1822 0222 97F83730 		ldrb	r3, [r7, #55]	@ zero_extendqisi2
 1823 0226 012B     		cmp	r3, #1
 1824 0228 02D0     		beq	.L89
 1825              		.loc 3 556 0 is_stmt 0 discriminator 1
 1826 022a 97F83730 		ldrb	r3, [r7, #55]	@ zero_extendqisi2
 1827 022e 5FE0     		b	.L71
 1828              	.L89:
 557:..\..\..\lvgl\version_6.1.2\lvgl\src\lv_objx/lv_calendar.c ****         }
 558:..\..\..\lvgl\version_6.1.2\lvgl\src\lv_objx/lv_calendar.c **** 
 559:..\..\..\lvgl\version_6.1.2\lvgl\src\lv_objx/lv_calendar.c ****         ext->btn_pressing = 0;
 1829              		.loc 3 559 0 is_stmt 1
ARM GAS  C:\Users\tmj32\AppData\Local\Temp\cc0vWRpX.s 			page 47


 1830 0230 3B6B     		ldr	r3, [r7, #48]
 1831 0232 0022     		movs	r2, #0
 1832 0234 1A73     		strb	r2, [r3, #12]
 560:..\..\..\lvgl\version_6.1.2\lvgl\src\lv_objx/lv_calendar.c ****         lv_obj_invalidate(calendar);
 1833              		.loc 3 560 0
 1834 0236 F868     		ldr	r0, [r7, #12]
 1835 0238 FFF7FEFF 		bl	lv_obj_invalidate
 1836              	.LBE7:
 1837 023c 56E0     		b	.L73
 1838              	.L85:
 561:..\..\..\lvgl\version_6.1.2\lvgl\src\lv_objx/lv_calendar.c ****     } else if(sign == LV_SIGNAL_CONTROL) {
 1839              		.loc 3 561 0
 1840 023e FB7A     		ldrb	r3, [r7, #11]	@ zero_extendqisi2
 1841 0240 122B     		cmp	r3, #18
 1842 0242 53D1     		bne	.L73
 1843              	.LBB8:
 562:..\..\..\lvgl\version_6.1.2\lvgl\src\lv_objx/lv_calendar.c ****         uint8_t c               = *((uint8_t *)param);
 1844              		.loc 3 562 0
 1845 0244 7B68     		ldr	r3, [r7, #4]
 1846 0246 1B78     		ldrb	r3, [r3]
 1847 0248 87F82F30 		strb	r3, [r7, #47]
 563:..\..\..\lvgl\version_6.1.2\lvgl\src\lv_objx/lv_calendar.c ****         lv_calendar_ext_t * ext = lv_obj_get_ext_attr(calendar);
 1848              		.loc 3 563 0
 1849 024c F868     		ldr	r0, [r7, #12]
 1850 024e FFF7FEFF 		bl	lv_obj_get_ext_attr
 1851 0252 B862     		str	r0, [r7, #40]
 564:..\..\..\lvgl\version_6.1.2\lvgl\src\lv_objx/lv_calendar.c ****         if(c == LV_KEY_RIGHT || c == LV_KEY_UP) {
 1852              		.loc 3 564 0
 1853 0254 97F82F30 		ldrb	r3, [r7, #47]	@ zero_extendqisi2
 1854 0258 132B     		cmp	r3, #19
 1855 025a 03D0     		beq	.L93
 1856              		.loc 3 564 0 is_stmt 0 discriminator 1
 1857 025c 97F82F30 		ldrb	r3, [r7, #47]	@ zero_extendqisi2
 1858 0260 112B     		cmp	r3, #17
 1859 0262 1BD1     		bne	.L94
 1860              	.L93:
 565:..\..\..\lvgl\version_6.1.2\lvgl\src\lv_objx/lv_calendar.c ****             if(ext->showed_date.month >= 12) {
 1861              		.loc 3 565 0 is_stmt 1
 1862 0264 BB6A     		ldr	r3, [r7, #40]
 1863 0266 93F90630 		ldrsb	r3, [r3, #6]
 1864 026a 0B2B     		cmp	r3, #11
 1865 026c 09DD     		ble	.L95
 566:..\..\..\lvgl\version_6.1.2\lvgl\src\lv_objx/lv_calendar.c ****                 ext->showed_date.month = 1;
 1866              		.loc 3 566 0
 1867 026e BB6A     		ldr	r3, [r7, #40]
 1868 0270 0122     		movs	r2, #1
 1869 0272 9A71     		strb	r2, [r3, #6]
 567:..\..\..\lvgl\version_6.1.2\lvgl\src\lv_objx/lv_calendar.c ****                 ext->showed_date.year++;
 1870              		.loc 3 567 0
 1871 0274 BB6A     		ldr	r3, [r7, #40]
 1872 0276 9B88     		ldrh	r3, [r3, #4]
 1873 0278 0133     		adds	r3, r3, #1
 1874 027a 9AB2     		uxth	r2, r3
 1875 027c BB6A     		ldr	r3, [r7, #40]
 1876 027e 9A80     		strh	r2, [r3, #4]	@ movhi
 1877 0280 08E0     		b	.L96
 1878              	.L95:
ARM GAS  C:\Users\tmj32\AppData\Local\Temp\cc0vWRpX.s 			page 48


 568:..\..\..\lvgl\version_6.1.2\lvgl\src\lv_objx/lv_calendar.c ****             } else {
 569:..\..\..\lvgl\version_6.1.2\lvgl\src\lv_objx/lv_calendar.c ****                 ext->showed_date.month++;
 1879              		.loc 3 569 0
 1880 0282 BB6A     		ldr	r3, [r7, #40]
 1881 0284 93F90630 		ldrsb	r3, [r3, #6]
 1882 0288 DBB2     		uxtb	r3, r3
 1883 028a 0133     		adds	r3, r3, #1
 1884 028c DBB2     		uxtb	r3, r3
 1885 028e 5AB2     		sxtb	r2, r3
 1886 0290 BB6A     		ldr	r3, [r7, #40]
 1887 0292 9A71     		strb	r2, [r3, #6]
 1888              	.L96:
 570:..\..\..\lvgl\version_6.1.2\lvgl\src\lv_objx/lv_calendar.c ****             }
 571:..\..\..\lvgl\version_6.1.2\lvgl\src\lv_objx/lv_calendar.c ****             lv_obj_invalidate(calendar);
 1889              		.loc 3 571 0
 1890 0294 F868     		ldr	r0, [r7, #12]
 1891 0296 FFF7FEFF 		bl	lv_obj_invalidate
 1892 029a 27E0     		b	.L73
 1893              	.L94:
 572:..\..\..\lvgl\version_6.1.2\lvgl\src\lv_objx/lv_calendar.c ****         } else if(c == LV_KEY_LEFT || c == LV_KEY_DOWN) {
 1894              		.loc 3 572 0
 1895 029c 97F82F30 		ldrb	r3, [r7, #47]	@ zero_extendqisi2
 1896 02a0 142B     		cmp	r3, #20
 1897 02a2 03D0     		beq	.L97
 1898              		.loc 3 572 0 is_stmt 0 discriminator 1
 1899 02a4 97F82F30 		ldrb	r3, [r7, #47]	@ zero_extendqisi2
 1900 02a8 122B     		cmp	r3, #18
 1901 02aa 1FD1     		bne	.L73
 1902              	.L97:
 573:..\..\..\lvgl\version_6.1.2\lvgl\src\lv_objx/lv_calendar.c ****             if(ext->showed_date.month <= 1) {
 1903              		.loc 3 573 0 is_stmt 1
 1904 02ac BB6A     		ldr	r3, [r7, #40]
 1905 02ae 93F90630 		ldrsb	r3, [r3, #6]
 1906 02b2 012B     		cmp	r3, #1
 1907 02b4 0EDC     		bgt	.L98
 574:..\..\..\lvgl\version_6.1.2\lvgl\src\lv_objx/lv_calendar.c ****                 ext->showed_date.month = 12;
 1908              		.loc 3 574 0
 1909 02b6 BB6A     		ldr	r3, [r7, #40]
 1910 02b8 0C22     		movs	r2, #12
 1911 02ba 9A71     		strb	r2, [r3, #6]
 575:..\..\..\lvgl\version_6.1.2\lvgl\src\lv_objx/lv_calendar.c ****                 ext->showed_date.year--;
 1912              		.loc 3 575 0
 1913 02bc BB6A     		ldr	r3, [r7, #40]
 1914 02be 9B88     		ldrh	r3, [r3, #4]
 1915 02c0 013B     		subs	r3, r3, #1
 1916 02c2 9AB2     		uxth	r2, r3
 1917 02c4 BB6A     		ldr	r3, [r7, #40]
 1918 02c6 9A80     		strh	r2, [r3, #4]	@ movhi
 1919 02c8 0DE0     		b	.L99
 1920              	.L101:
 1921 02ca 00BF     		.align	2
 1922              	.L100:
 1923 02cc 00000000 		.word	ancestor_signal
 1924 02d0 88000000 		.word	.LC19
 1925              	.L98:
 576:..\..\..\lvgl\version_6.1.2\lvgl\src\lv_objx/lv_calendar.c ****             } else {
 577:..\..\..\lvgl\version_6.1.2\lvgl\src\lv_objx/lv_calendar.c ****                 ext->showed_date.month--;
ARM GAS  C:\Users\tmj32\AppData\Local\Temp\cc0vWRpX.s 			page 49


 1926              		.loc 3 577 0
 1927 02d4 BB6A     		ldr	r3, [r7, #40]
 1928 02d6 93F90630 		ldrsb	r3, [r3, #6]
 1929 02da DBB2     		uxtb	r3, r3
 1930 02dc 013B     		subs	r3, r3, #1
 1931 02de DBB2     		uxtb	r3, r3
 1932 02e0 5AB2     		sxtb	r2, r3
 1933 02e2 BB6A     		ldr	r3, [r7, #40]
 1934 02e4 9A71     		strb	r2, [r3, #6]
 1935              	.L99:
 578:..\..\..\lvgl\version_6.1.2\lvgl\src\lv_objx/lv_calendar.c ****             }
 579:..\..\..\lvgl\version_6.1.2\lvgl\src\lv_objx/lv_calendar.c ****             lv_obj_invalidate(calendar);
 1936              		.loc 3 579 0
 1937 02e6 F868     		ldr	r0, [r7, #12]
 1938 02e8 FFF7FEFF 		bl	lv_obj_invalidate
 1939              	.L73:
 1940              	.LBE8:
 580:..\..\..\lvgl\version_6.1.2\lvgl\src\lv_objx/lv_calendar.c ****         }
 581:..\..\..\lvgl\version_6.1.2\lvgl\src\lv_objx/lv_calendar.c ****     }
 582:..\..\..\lvgl\version_6.1.2\lvgl\src\lv_objx/lv_calendar.c **** 
 583:..\..\..\lvgl\version_6.1.2\lvgl\src\lv_objx/lv_calendar.c ****     return res;
 1941              		.loc 3 583 0
 1942 02ec 97F83730 		ldrb	r3, [r7, #55]	@ zero_extendqisi2
 1943              	.L71:
 584:..\..\..\lvgl\version_6.1.2\lvgl\src\lv_objx/lv_calendar.c **** }
 1944              		.loc 3 584 0
 1945 02f0 1846     		mov	r0, r3
 1946 02f2 3837     		adds	r7, r7, #56
 1947              		.cfi_def_cfa_offset 16
 1948 02f4 BD46     		mov	sp, r7
 1949              		.cfi_def_cfa_register 13
 1950              		@ sp needed
 1951 02f6 B0BD     		pop	{r4, r5, r7, pc}
 1952              		.cfi_endproc
 1953              	.LFE47:
 1954              		.size	lv_calendar_signal, .-lv_calendar_signal
 1955              		.section	.text.calculate_touched_day,"ax",%progbits
 1956              		.align	2
 1957              		.thumb
 1958              		.thumb_func
 1959              		.type	calculate_touched_day, %function
 1960              	calculate_touched_day:
 1961              	.LFB48:
 585:..\..\..\lvgl\version_6.1.2\lvgl\src\lv_objx/lv_calendar.c **** 
 586:..\..\..\lvgl\version_6.1.2\lvgl\src\lv_objx/lv_calendar.c **** /**
 587:..\..\..\lvgl\version_6.1.2\lvgl\src\lv_objx/lv_calendar.c ****  * It will check if the days part of calendar is touched
 588:..\..\..\lvgl\version_6.1.2\lvgl\src\lv_objx/lv_calendar.c ****  * and if it is, it will calculate the day and put it in pressed_date of calendar object.
 589:..\..\..\lvgl\version_6.1.2\lvgl\src\lv_objx/lv_calendar.c ****  * @param calendar pointer to a calendar object
 590:..\..\..\lvgl\version_6.1.2\lvgl\src\lv_objx/lv_calendar.c ****  * @param pointer to a point
 591:..\..\..\lvgl\version_6.1.2\lvgl\src\lv_objx/lv_calendar.c ****  * @return true: days part of calendar is touched and its related date is put in pressed date
 592:..\..\..\lvgl\version_6.1.2\lvgl\src\lv_objx/lv_calendar.c ****  * false: the point is out of days part area.
 593:..\..\..\lvgl\version_6.1.2\lvgl\src\lv_objx/lv_calendar.c ****  */
 594:..\..\..\lvgl\version_6.1.2\lvgl\src\lv_objx/lv_calendar.c **** static bool calculate_touched_day(lv_obj_t * calendar, const lv_point_t * touched_point)
 595:..\..\..\lvgl\version_6.1.2\lvgl\src\lv_objx/lv_calendar.c **** {
 1962              		.loc 3 595 0
 1963              		.cfi_startproc
 1964              		@ args = 0, pretend = 0, frame = 40
ARM GAS  C:\Users\tmj32\AppData\Local\Temp\cc0vWRpX.s 			page 50


 1965              		@ frame_needed = 1, uses_anonymous_args = 0
 1966 0000 B0B5     		push	{r4, r5, r7, lr}
 1967              		.cfi_def_cfa_offset 16
 1968              		.cfi_offset 4, -16
 1969              		.cfi_offset 5, -12
 1970              		.cfi_offset 7, -8
 1971              		.cfi_offset 14, -4
 1972 0002 8AB0     		sub	sp, sp, #40
 1973              		.cfi_def_cfa_offset 56
 1974 0004 00AF     		add	r7, sp, #0
 1975              		.cfi_def_cfa_register 7
 1976 0006 7860     		str	r0, [r7, #4]
 1977 0008 3960     		str	r1, [r7]
 596:..\..\..\lvgl\version_6.1.2\lvgl\src\lv_objx/lv_calendar.c ****     lv_area_t days_area;
 597:..\..\..\lvgl\version_6.1.2\lvgl\src\lv_objx/lv_calendar.c ****     lv_area_copy(&days_area, &calendar->coords);
 1978              		.loc 3 597 0
 1979 000a 7B68     		ldr	r3, [r7, #4]
 1980 000c 03F11002 		add	r2, r3, #16
 1981 0010 07F10C03 		add	r3, r7, #12
 1982 0014 1146     		mov	r1, r2
 1983 0016 1846     		mov	r0, r3
 1984 0018 FFF7FEFF 		bl	lv_area_copy
 598:..\..\..\lvgl\version_6.1.2\lvgl\src\lv_objx/lv_calendar.c ****     const lv_style_t * style_bg = lv_calendar_get_style(calendar, LV_CALENDAR_STYLE_BG);
 1985              		.loc 3 598 0
 1986 001c 0021     		movs	r1, #0
 1987 001e 7868     		ldr	r0, [r7, #4]
 1988 0020 FFF7FEFF 		bl	lv_calendar_get_style
 1989 0024 3862     		str	r0, [r7, #32]
 599:..\..\..\lvgl\version_6.1.2\lvgl\src\lv_objx/lv_calendar.c ****     days_area.x1 += style_bg->body.padding.left;
 1990              		.loc 3 599 0
 1991 0026 B7F90C30 		ldrsh	r3, [r7, #12]
 1992 002a 9AB2     		uxth	r2, r3
 1993 002c 3B6A     		ldr	r3, [r7, #32]
 1994 002e B3F92430 		ldrsh	r3, [r3, #36]
 1995 0032 9BB2     		uxth	r3, r3
 1996 0034 1344     		add	r3, r3, r2
 1997 0036 9BB2     		uxth	r3, r3
 1998 0038 1BB2     		sxth	r3, r3
 1999 003a BB81     		strh	r3, [r7, #12]	@ movhi
 600:..\..\..\lvgl\version_6.1.2\lvgl\src\lv_objx/lv_calendar.c ****     days_area.x2 -= style_bg->body.padding.right;
 2000              		.loc 3 600 0
 2001 003c B7F91030 		ldrsh	r3, [r7, #16]
 2002 0040 9AB2     		uxth	r2, r3
 2003 0042 3B6A     		ldr	r3, [r7, #32]
 2004 0044 B3F92630 		ldrsh	r3, [r3, #38]
 2005 0048 9BB2     		uxth	r3, r3
 2006 004a D31A     		subs	r3, r2, r3
 2007 004c 9BB2     		uxth	r3, r3
 2008 004e 1BB2     		sxth	r3, r3
 2009 0050 3B82     		strh	r3, [r7, #16]	@ movhi
 601:..\..\..\lvgl\version_6.1.2\lvgl\src\lv_objx/lv_calendar.c ****     days_area.y1 =
 602:..\..\..\lvgl\version_6.1.2\lvgl\src\lv_objx/lv_calendar.c ****         calendar->coords.y1 + get_header_height(calendar) + get_day_names_height(calendar) - style_
 2010              		.loc 3 602 0
 2011 0052 7B68     		ldr	r3, [r7, #4]
 2012 0054 B3F91230 		ldrsh	r3, [r3, #18]
 601:..\..\..\lvgl\version_6.1.2\lvgl\src\lv_objx/lv_calendar.c ****     days_area.y1 =
 2013              		.loc 3 601 0
ARM GAS  C:\Users\tmj32\AppData\Local\Temp\cc0vWRpX.s 			page 51


 2014 0058 9CB2     		uxth	r4, r3
 2015              		.loc 3 602 0
 2016 005a 7868     		ldr	r0, [r7, #4]
 2017 005c FFF7FEFF 		bl	get_header_height
 2018 0060 0346     		mov	r3, r0
 601:..\..\..\lvgl\version_6.1.2\lvgl\src\lv_objx/lv_calendar.c ****     days_area.y1 =
 2019              		.loc 3 601 0
 2020 0062 9BB2     		uxth	r3, r3
 2021 0064 2344     		add	r3, r3, r4
 2022 0066 9CB2     		uxth	r4, r3
 2023              		.loc 3 602 0
 2024 0068 7868     		ldr	r0, [r7, #4]
 2025 006a FFF7FEFF 		bl	get_day_names_height
 2026 006e 0346     		mov	r3, r0
 601:..\..\..\lvgl\version_6.1.2\lvgl\src\lv_objx/lv_calendar.c ****     days_area.y1 =
 2027              		.loc 3 601 0
 2028 0070 9BB2     		uxth	r3, r3
 2029 0072 2344     		add	r3, r3, r4
 2030 0074 9AB2     		uxth	r2, r3
 2031              		.loc 3 602 0
 2032 0076 3B6A     		ldr	r3, [r7, #32]
 2033 0078 B3F92030 		ldrsh	r3, [r3, #32]
 601:..\..\..\lvgl\version_6.1.2\lvgl\src\lv_objx/lv_calendar.c ****     days_area.y1 =
 2034              		.loc 3 601 0
 2035 007c 9BB2     		uxth	r3, r3
 2036 007e D31A     		subs	r3, r2, r3
 2037 0080 9BB2     		uxth	r3, r3
 2038 0082 1BB2     		sxth	r3, r3
 2039 0084 FB81     		strh	r3, [r7, #14]	@ movhi
 603:..\..\..\lvgl\version_6.1.2\lvgl\src\lv_objx/lv_calendar.c **** 
 604:..\..\..\lvgl\version_6.1.2\lvgl\src\lv_objx/lv_calendar.c ****     if(lv_area_is_point_on(&days_area, touched_point)) {
 2040              		.loc 3 604 0
 2041 0086 07F10C03 		add	r3, r7, #12
 2042 008a 3968     		ldr	r1, [r7]
 2043 008c 1846     		mov	r0, r3
 2044 008e FFF7FEFF 		bl	lv_area_is_point_on
 2045 0092 0346     		mov	r3, r0
 2046 0094 002B     		cmp	r3, #0
 2047 0096 00F02A81 		beq	.L103
 2048              	.LBB9:
 605:..\..\..\lvgl\version_6.1.2\lvgl\src\lv_objx/lv_calendar.c ****         lv_coord_t w  = (days_area.x2 - days_area.x1 + 1) / 7;
 2049              		.loc 3 605 0
 2050 009a B7F91030 		ldrsh	r3, [r7, #16]
 2051 009e 1A46     		mov	r2, r3
 2052 00a0 B7F90C30 		ldrsh	r3, [r7, #12]
 2053 00a4 D31A     		subs	r3, r2, r3
 2054 00a6 0133     		adds	r3, r3, #1
 2055 00a8 934A     		ldr	r2, .L115
 2056 00aa 82FB0312 		smull	r1, r2, r2, r3
 2057 00ae 1A44     		add	r2, r2, r3
 2058 00b0 9210     		asrs	r2, r2, #2
 2059 00b2 DB17     		asrs	r3, r3, #31
 2060 00b4 D31A     		subs	r3, r2, r3
 2061 00b6 FB83     		strh	r3, [r7, #30]	@ movhi
 606:..\..\..\lvgl\version_6.1.2\lvgl\src\lv_objx/lv_calendar.c ****         lv_coord_t h  = (days_area.y2 - days_area.y1 + 1) / 6;
 2062              		.loc 3 606 0
 2063 00b8 B7F91230 		ldrsh	r3, [r7, #18]
ARM GAS  C:\Users\tmj32\AppData\Local\Temp\cc0vWRpX.s 			page 52


 2064 00bc 1A46     		mov	r2, r3
 2065 00be B7F90E30 		ldrsh	r3, [r7, #14]
 2066 00c2 D31A     		subs	r3, r2, r3
 2067 00c4 0133     		adds	r3, r3, #1
 2068 00c6 8D4A     		ldr	r2, .L115+4
 2069 00c8 82FB0312 		smull	r1, r2, r2, r3
 2070 00cc DB17     		asrs	r3, r3, #31
 2071 00ce D31A     		subs	r3, r2, r3
 2072 00d0 BB83     		strh	r3, [r7, #28]	@ movhi
 607:..\..\..\lvgl\version_6.1.2\lvgl\src\lv_objx/lv_calendar.c ****         uint8_t x_pos = 0;
 2073              		.loc 3 607 0
 2074 00d2 0023     		movs	r3, #0
 2075 00d4 87F82730 		strb	r3, [r7, #39]
 608:..\..\..\lvgl\version_6.1.2\lvgl\src\lv_objx/lv_calendar.c ****         x_pos         = (touched_point->x - days_area.x1) / w;
 2076              		.loc 3 608 0
 2077 00d8 3B68     		ldr	r3, [r7]
 2078 00da B3F90030 		ldrsh	r3, [r3]
 2079 00de 1A46     		mov	r2, r3
 2080 00e0 B7F90C30 		ldrsh	r3, [r7, #12]
 2081 00e4 D21A     		subs	r2, r2, r3
 2082 00e6 B7F91E30 		ldrsh	r3, [r7, #30]
 2083 00ea 92FBF3F3 		sdiv	r3, r2, r3
 2084 00ee 87F82730 		strb	r3, [r7, #39]
 609:..\..\..\lvgl\version_6.1.2\lvgl\src\lv_objx/lv_calendar.c ****         if(x_pos > 6) x_pos = 6;
 2085              		.loc 3 609 0
 2086 00f2 97F82730 		ldrb	r3, [r7, #39]	@ zero_extendqisi2
 2087 00f6 062B     		cmp	r3, #6
 2088 00f8 02D9     		bls	.L104
 2089              		.loc 3 609 0 is_stmt 0 discriminator 1
 2090 00fa 0623     		movs	r3, #6
 2091 00fc 87F82730 		strb	r3, [r7, #39]
 2092              	.L104:
 610:..\..\..\lvgl\version_6.1.2\lvgl\src\lv_objx/lv_calendar.c ****         uint8_t y_pos = 0;
 2093              		.loc 3 610 0 is_stmt 1
 2094 0100 0023     		movs	r3, #0
 2095 0102 87F82630 		strb	r3, [r7, #38]
 611:..\..\..\lvgl\version_6.1.2\lvgl\src\lv_objx/lv_calendar.c ****         y_pos         = (touched_point->y - days_area.y1) / h;
 2096              		.loc 3 611 0
 2097 0106 3B68     		ldr	r3, [r7]
 2098 0108 B3F90230 		ldrsh	r3, [r3, #2]
 2099 010c 1A46     		mov	r2, r3
 2100 010e B7F90E30 		ldrsh	r3, [r7, #14]
 2101 0112 D21A     		subs	r2, r2, r3
 2102 0114 B7F91C30 		ldrsh	r3, [r7, #28]
 2103 0118 92FBF3F3 		sdiv	r3, r2, r3
 2104 011c 87F82630 		strb	r3, [r7, #38]
 612:..\..\..\lvgl\version_6.1.2\lvgl\src\lv_objx/lv_calendar.c ****         if(y_pos > 5) y_pos = 5;
 2105              		.loc 3 612 0
 2106 0120 97F82630 		ldrb	r3, [r7, #38]	@ zero_extendqisi2
 2107 0124 052B     		cmp	r3, #5
 2108 0126 02D9     		bls	.L105
 2109              		.loc 3 612 0 is_stmt 0 discriminator 1
 2110 0128 0523     		movs	r3, #5
 2111 012a 87F82630 		strb	r3, [r7, #38]
 2112              	.L105:
 613:..\..\..\lvgl\version_6.1.2\lvgl\src\lv_objx/lv_calendar.c **** 
 614:..\..\..\lvgl\version_6.1.2\lvgl\src\lv_objx/lv_calendar.c ****         uint8_t i_pos           = 0;
ARM GAS  C:\Users\tmj32\AppData\Local\Temp\cc0vWRpX.s 			page 53


 2113              		.loc 3 614 0 is_stmt 1
 2114 012e 0023     		movs	r3, #0
 2115 0130 FB76     		strb	r3, [r7, #27]
 615:..\..\..\lvgl\version_6.1.2\lvgl\src\lv_objx/lv_calendar.c ****         i_pos                   = (y_pos * 7) + x_pos;
 2116              		.loc 3 615 0
 2117 0132 97F82630 		ldrb	r3, [r7, #38]
 2118 0136 1A46     		mov	r2, r3
 2119 0138 D200     		lsls	r2, r2, #3
 2120 013a D31A     		subs	r3, r2, r3
 2121 013c DAB2     		uxtb	r2, r3
 2122 013e 97F82730 		ldrb	r3, [r7, #39]
 2123 0142 1344     		add	r3, r3, r2
 2124 0144 FB76     		strb	r3, [r7, #27]
 616:..\..\..\lvgl\version_6.1.2\lvgl\src\lv_objx/lv_calendar.c ****         lv_calendar_ext_t * ext = lv_obj_get_ext_attr(calendar);
 2125              		.loc 3 616 0
 2126 0146 7868     		ldr	r0, [r7, #4]
 2127 0148 FFF7FEFF 		bl	lv_obj_get_ext_attr
 2128 014c 7861     		str	r0, [r7, #20]
 617:..\..\..\lvgl\version_6.1.2\lvgl\src\lv_objx/lv_calendar.c ****         if(i_pos < get_day_of_week(ext->showed_date.year, ext->showed_date.month, 1)) {
 2129              		.loc 3 617 0
 2130 014e 7B69     		ldr	r3, [r7, #20]
 2131 0150 9B88     		ldrh	r3, [r3, #4]
 2132 0152 1846     		mov	r0, r3
 2133 0154 7B69     		ldr	r3, [r7, #20]
 2134 0156 93F90630 		ldrsb	r3, [r3, #6]
 2135 015a 0122     		movs	r2, #1
 2136 015c 1946     		mov	r1, r3
 2137 015e FFF7FEFF 		bl	get_day_of_week
 2138 0162 0346     		mov	r3, r0
 2139 0164 1A46     		mov	r2, r3
 2140 0166 FB7E     		ldrb	r3, [r7, #27]	@ zero_extendqisi2
 2141 0168 9342     		cmp	r3, r2
 2142 016a 40D2     		bcs	.L106
 618:..\..\..\lvgl\version_6.1.2\lvgl\src\lv_objx/lv_calendar.c ****             ext->pressed_date.year  = ext->showed_date.year - (ext->showed_date.month == 1 ? 1 : 0)
 2143              		.loc 3 618 0
 2144 016c 7B69     		ldr	r3, [r7, #20]
 2145 016e 9A88     		ldrh	r2, [r3, #4]
 2146 0170 7B69     		ldr	r3, [r7, #20]
 2147 0172 93F90630 		ldrsb	r3, [r3, #6]
 2148 0176 012B     		cmp	r3, #1
 2149 0178 0CBF     		ite	eq
 2150 017a 0123     		moveq	r3, #1
 2151 017c 0023     		movne	r3, #0
 2152 017e DBB2     		uxtb	r3, r3
 2153 0180 9BB2     		uxth	r3, r3
 2154 0182 D31A     		subs	r3, r2, r3
 2155 0184 9AB2     		uxth	r2, r3
 2156 0186 7B69     		ldr	r3, [r7, #20]
 2157 0188 1A82     		strh	r2, [r3, #16]	@ movhi
 619:..\..\..\lvgl\version_6.1.2\lvgl\src\lv_objx/lv_calendar.c ****             ext->pressed_date.month = ext->showed_date.month == 1 ? 12 : (ext->showed_date.month - 
 2158              		.loc 3 619 0
 2159 018a 7B69     		ldr	r3, [r7, #20]
 2160 018c 93F90630 		ldrsb	r3, [r3, #6]
 2161 0190 012B     		cmp	r3, #1
 2162 0192 07D0     		beq	.L107
 2163              		.loc 3 619 0 is_stmt 0 discriminator 1
 2164 0194 7B69     		ldr	r3, [r7, #20]
ARM GAS  C:\Users\tmj32\AppData\Local\Temp\cc0vWRpX.s 			page 54


 2165 0196 93F90630 		ldrsb	r3, [r3, #6]
 2166 019a DBB2     		uxtb	r3, r3
 2167 019c 013B     		subs	r3, r3, #1
 2168 019e DBB2     		uxtb	r3, r3
 2169 01a0 5AB2     		sxtb	r2, r3
 2170 01a2 00E0     		b	.L108
 2171              	.L107:
 2172              		.loc 3 619 0 discriminator 2
 2173 01a4 0C22     		movs	r2, #12
 2174              	.L108:
 2175              		.loc 3 619 0 discriminator 4
 2176 01a6 7B69     		ldr	r3, [r7, #20]
 2177 01a8 9A74     		strb	r2, [r3, #18]
 620:..\..\..\lvgl\version_6.1.2\lvgl\src\lv_objx/lv_calendar.c ****             ext->pressed_date.day   = get_month_length(ext->pressed_date.year, ext->pressed_date.mo
 2178              		.loc 3 620 0 is_stmt 1 discriminator 4
 2179 01aa 7B69     		ldr	r3, [r7, #20]
 2180 01ac 1B8A     		ldrh	r3, [r3, #16]
 2181 01ae 1A46     		mov	r2, r3
 2182 01b0 7B69     		ldr	r3, [r7, #20]
 2183 01b2 93F91230 		ldrsb	r3, [r3, #18]
 2184 01b6 1946     		mov	r1, r3
 2185 01b8 1046     		mov	r0, r2
 2186 01ba FFF7FEFF 		bl	get_month_length
 2187 01be 0346     		mov	r3, r0
 2188 01c0 1C46     		mov	r4, r3
 621:..\..\..\lvgl\version_6.1.2\lvgl\src\lv_objx/lv_calendar.c ****                                     get_day_of_week(ext->showed_date.year, ext->showed_date.month, 
 2189              		.loc 3 621 0 discriminator 4
 2190 01c2 7B69     		ldr	r3, [r7, #20]
 2191 01c4 9B88     		ldrh	r3, [r3, #4]
 2192 01c6 1846     		mov	r0, r3
 2193 01c8 7B69     		ldr	r3, [r7, #20]
 2194 01ca 93F90630 		ldrsb	r3, [r3, #6]
 2195 01ce 0122     		movs	r2, #1
 2196 01d0 1946     		mov	r1, r3
 2197 01d2 FFF7FEFF 		bl	get_day_of_week
 2198 01d6 0346     		mov	r3, r0
 620:..\..\..\lvgl\version_6.1.2\lvgl\src\lv_objx/lv_calendar.c ****             ext->pressed_date.day   = get_month_length(ext->pressed_date.year, ext->pressed_date.mo
 2199              		.loc 3 620 0 discriminator 4
 2200 01d8 E31A     		subs	r3, r4, r3
 2201 01da DAB2     		uxtb	r2, r3
 2202 01dc FB7E     		ldrb	r3, [r7, #27]
 2203 01de 1344     		add	r3, r3, r2
 2204 01e0 DBB2     		uxtb	r3, r3
 2205 01e2 0133     		adds	r3, r3, #1
 2206 01e4 DBB2     		uxtb	r3, r3
 2207 01e6 5AB2     		sxtb	r2, r3
 2208 01e8 7B69     		ldr	r3, [r7, #20]
 2209 01ea DA74     		strb	r2, [r3, #19]
 2210 01ec 7DE0     		b	.L109
 2211              	.L106:
 622:..\..\..\lvgl\version_6.1.2\lvgl\src\lv_objx/lv_calendar.c ****         } else if(i_pos < (get_day_of_week(ext->showed_date.year, ext->showed_date.month, 1) +
 2212              		.loc 3 622 0
 2213 01ee FC7E     		ldrb	r4, [r7, #27]	@ zero_extendqisi2
 2214 01f0 7B69     		ldr	r3, [r7, #20]
 2215 01f2 9B88     		ldrh	r3, [r3, #4]
 2216 01f4 1846     		mov	r0, r3
 2217 01f6 7B69     		ldr	r3, [r7, #20]
ARM GAS  C:\Users\tmj32\AppData\Local\Temp\cc0vWRpX.s 			page 55


 2218 01f8 93F90630 		ldrsb	r3, [r3, #6]
 2219 01fc 0122     		movs	r2, #1
 2220 01fe 1946     		mov	r1, r3
 2221 0200 FFF7FEFF 		bl	get_day_of_week
 2222 0204 0346     		mov	r3, r0
 2223 0206 1D46     		mov	r5, r3
 623:..\..\..\lvgl\version_6.1.2\lvgl\src\lv_objx/lv_calendar.c ****                            get_month_length(ext->showed_date.year, ext->showed_date.month))) {
 2224              		.loc 3 623 0
 2225 0208 7B69     		ldr	r3, [r7, #20]
 2226 020a 9B88     		ldrh	r3, [r3, #4]
 2227 020c 1A46     		mov	r2, r3
 2228 020e 7B69     		ldr	r3, [r7, #20]
 2229 0210 93F90630 		ldrsb	r3, [r3, #6]
 2230 0214 1946     		mov	r1, r3
 2231 0216 1046     		mov	r0, r2
 2232 0218 FFF7FEFF 		bl	get_month_length
 2233 021c 0346     		mov	r3, r0
 622:..\..\..\lvgl\version_6.1.2\lvgl\src\lv_objx/lv_calendar.c ****         } else if(i_pos < (get_day_of_week(ext->showed_date.year, ext->showed_date.month, 1) +
 2234              		.loc 3 622 0
 2235 021e 2B44     		add	r3, r3, r5
 2236 0220 9C42     		cmp	r4, r3
 2237 0222 1DDA     		bge	.L110
 624:..\..\..\lvgl\version_6.1.2\lvgl\src\lv_objx/lv_calendar.c ****             ext->pressed_date.year  = ext->showed_date.year;
 2238              		.loc 3 624 0
 2239 0224 7B69     		ldr	r3, [r7, #20]
 2240 0226 9A88     		ldrh	r2, [r3, #4]
 2241 0228 7B69     		ldr	r3, [r7, #20]
 2242 022a 1A82     		strh	r2, [r3, #16]	@ movhi
 625:..\..\..\lvgl\version_6.1.2\lvgl\src\lv_objx/lv_calendar.c ****             ext->pressed_date.month = ext->showed_date.month;
 2243              		.loc 3 625 0
 2244 022c 7B69     		ldr	r3, [r7, #20]
 2245 022e 93F90620 		ldrsb	r2, [r3, #6]
 2246 0232 7B69     		ldr	r3, [r7, #20]
 2247 0234 9A74     		strb	r2, [r3, #18]
 626:..\..\..\lvgl\version_6.1.2\lvgl\src\lv_objx/lv_calendar.c ****             ext->pressed_date.day   = i_pos + 1 - get_day_of_week(ext->showed_date.year, ext->showe
 2248              		.loc 3 626 0
 2249 0236 7B69     		ldr	r3, [r7, #20]
 2250 0238 9B88     		ldrh	r3, [r3, #4]
 2251 023a 1846     		mov	r0, r3
 2252 023c 7B69     		ldr	r3, [r7, #20]
 2253 023e 93F90630 		ldrsb	r3, [r3, #6]
 2254 0242 0122     		movs	r2, #1
 2255 0244 1946     		mov	r1, r3
 2256 0246 FFF7FEFF 		bl	get_day_of_week
 2257 024a 0346     		mov	r3, r0
 2258 024c 1A46     		mov	r2, r3
 2259 024e FB7E     		ldrb	r3, [r7, #27]
 2260 0250 9B1A     		subs	r3, r3, r2
 2261 0252 DBB2     		uxtb	r3, r3
 2262 0254 0133     		adds	r3, r3, #1
 2263 0256 DBB2     		uxtb	r3, r3
 2264 0258 5AB2     		sxtb	r2, r3
 2265 025a 7B69     		ldr	r3, [r7, #20]
 2266 025c DA74     		strb	r2, [r3, #19]
 2267 025e 44E0     		b	.L109
 2268              	.L110:
 627:..\..\..\lvgl\version_6.1.2\lvgl\src\lv_objx/lv_calendar.c ****         } else if(i_pos < 42) {
ARM GAS  C:\Users\tmj32\AppData\Local\Temp\cc0vWRpX.s 			page 56


 2269              		.loc 3 627 0
 2270 0260 FB7E     		ldrb	r3, [r7, #27]	@ zero_extendqisi2
 2271 0262 292B     		cmp	r3, #41
 2272 0264 41D8     		bhi	.L109
 628:..\..\..\lvgl\version_6.1.2\lvgl\src\lv_objx/lv_calendar.c ****             ext->pressed_date.year  = ext->showed_date.year + (ext->showed_date.month == 12 ? 1 : 0
 2273              		.loc 3 628 0
 2274 0266 7B69     		ldr	r3, [r7, #20]
 2275 0268 9A88     		ldrh	r2, [r3, #4]
 2276 026a 7B69     		ldr	r3, [r7, #20]
 2277 026c 93F90630 		ldrsb	r3, [r3, #6]
 2278 0270 0C2B     		cmp	r3, #12
 2279 0272 0CBF     		ite	eq
 2280 0274 0123     		moveq	r3, #1
 2281 0276 0023     		movne	r3, #0
 2282 0278 DBB2     		uxtb	r3, r3
 2283 027a 9BB2     		uxth	r3, r3
 2284 027c 1344     		add	r3, r3, r2
 2285 027e 9AB2     		uxth	r2, r3
 2286 0280 7B69     		ldr	r3, [r7, #20]
 2287 0282 1A82     		strh	r2, [r3, #16]	@ movhi
 629:..\..\..\lvgl\version_6.1.2\lvgl\src\lv_objx/lv_calendar.c ****             ext->pressed_date.month = ext->showed_date.month == 12 ? 1 : (ext->showed_date.month + 
 2288              		.loc 3 629 0
 2289 0284 7B69     		ldr	r3, [r7, #20]
 2290 0286 93F90630 		ldrsb	r3, [r3, #6]
 2291 028a 0C2B     		cmp	r3, #12
 2292 028c 07D0     		beq	.L111
 2293              		.loc 3 629 0 is_stmt 0 discriminator 1
 2294 028e 7B69     		ldr	r3, [r7, #20]
 2295 0290 93F90630 		ldrsb	r3, [r3, #6]
 2296 0294 DBB2     		uxtb	r3, r3
 2297 0296 0133     		adds	r3, r3, #1
 2298 0298 DBB2     		uxtb	r3, r3
 2299 029a 5AB2     		sxtb	r2, r3
 2300 029c 00E0     		b	.L112
 2301              	.L111:
 2302              		.loc 3 629 0 discriminator 2
 2303 029e 0122     		movs	r2, #1
 2304              	.L112:
 2305              		.loc 3 629 0 discriminator 4
 2306 02a0 7B69     		ldr	r3, [r7, #20]
 2307 02a2 9A74     		strb	r2, [r3, #18]
 630:..\..\..\lvgl\version_6.1.2\lvgl\src\lv_objx/lv_calendar.c ****             ext->pressed_date.day   = i_pos + 1 - get_day_of_week(ext->showed_date.year, ext->showe
 2308              		.loc 3 630 0 is_stmt 1 discriminator 4
 2309 02a4 7B69     		ldr	r3, [r7, #20]
 2310 02a6 9B88     		ldrh	r3, [r3, #4]
 2311 02a8 1846     		mov	r0, r3
 2312 02aa 7B69     		ldr	r3, [r7, #20]
 2313 02ac 93F90630 		ldrsb	r3, [r3, #6]
 2314 02b0 0122     		movs	r2, #1
 2315 02b2 1946     		mov	r1, r3
 2316 02b4 FFF7FEFF 		bl	get_day_of_week
 2317 02b8 0346     		mov	r3, r0
 2318 02ba 1A46     		mov	r2, r3
 2319 02bc FB7E     		ldrb	r3, [r7, #27]
 2320 02be 9B1A     		subs	r3, r3, r2
 2321 02c0 DCB2     		uxtb	r4, r3
 631:..\..\..\lvgl\version_6.1.2\lvgl\src\lv_objx/lv_calendar.c ****                                     get_month_length(ext->showed_date.year, ext->showed_date.month)
ARM GAS  C:\Users\tmj32\AppData\Local\Temp\cc0vWRpX.s 			page 57


 2322              		.loc 3 631 0 discriminator 4
 2323 02c2 7B69     		ldr	r3, [r7, #20]
 2324 02c4 9B88     		ldrh	r3, [r3, #4]
 2325 02c6 1A46     		mov	r2, r3
 2326 02c8 7B69     		ldr	r3, [r7, #20]
 2327 02ca 93F90630 		ldrsb	r3, [r3, #6]
 2328 02ce 1946     		mov	r1, r3
 2329 02d0 1046     		mov	r0, r2
 2330 02d2 FFF7FEFF 		bl	get_month_length
 2331 02d6 0346     		mov	r3, r0
 630:..\..\..\lvgl\version_6.1.2\lvgl\src\lv_objx/lv_calendar.c ****             ext->pressed_date.day   = i_pos + 1 - get_day_of_week(ext->showed_date.year, ext->showe
 2332              		.loc 3 630 0 discriminator 4
 2333 02d8 5B42     		negs	r3, r3
 2334 02da DBB2     		uxtb	r3, r3
 2335 02dc 2344     		add	r3, r3, r4
 2336 02de DBB2     		uxtb	r3, r3
 2337 02e0 0133     		adds	r3, r3, #1
 2338 02e2 DBB2     		uxtb	r3, r3
 2339 02e4 5AB2     		sxtb	r2, r3
 2340 02e6 7B69     		ldr	r3, [r7, #20]
 2341 02e8 DA74     		strb	r2, [r3, #19]
 2342              	.L109:
 632:..\..\..\lvgl\version_6.1.2\lvgl\src\lv_objx/lv_calendar.c ****         }
 633:..\..\..\lvgl\version_6.1.2\lvgl\src\lv_objx/lv_calendar.c ****         return true;
 2343              		.loc 3 633 0
 2344 02ea 0123     		movs	r3, #1
 2345 02ec 00E0     		b	.L114
 2346              	.L103:
 2347              	.LBE9:
 634:..\..\..\lvgl\version_6.1.2\lvgl\src\lv_objx/lv_calendar.c ****     } else {
 635:..\..\..\lvgl\version_6.1.2\lvgl\src\lv_objx/lv_calendar.c ****         return false;
 2348              		.loc 3 635 0
 2349 02ee 0023     		movs	r3, #0
 2350              	.L114:
 636:..\..\..\lvgl\version_6.1.2\lvgl\src\lv_objx/lv_calendar.c ****     }
 637:..\..\..\lvgl\version_6.1.2\lvgl\src\lv_objx/lv_calendar.c **** }
 2351              		.loc 3 637 0 discriminator 1
 2352 02f0 1846     		mov	r0, r3
 2353 02f2 2837     		adds	r7, r7, #40
 2354              		.cfi_def_cfa_offset 16
 2355 02f4 BD46     		mov	sp, r7
 2356              		.cfi_def_cfa_register 13
 2357              		@ sp needed
 2358 02f6 B0BD     		pop	{r4, r5, r7, pc}
 2359              	.L116:
 2360              		.align	2
 2361              	.L115:
 2362 02f8 93244992 		.word	-1840700269
 2363 02fc ABAAAA2A 		.word	715827883
 2364              		.cfi_endproc
 2365              	.LFE48:
 2366              		.size	calculate_touched_day, .-calculate_touched_day
 2367              		.section	.text.get_header_height,"ax",%progbits
 2368              		.align	2
 2369              		.thumb
 2370              		.thumb_func
 2371              		.type	get_header_height, %function
ARM GAS  C:\Users\tmj32\AppData\Local\Temp\cc0vWRpX.s 			page 58


 2372              	get_header_height:
 2373              	.LFB49:
 638:..\..\..\lvgl\version_6.1.2\lvgl\src\lv_objx/lv_calendar.c **** 
 639:..\..\..\lvgl\version_6.1.2\lvgl\src\lv_objx/lv_calendar.c **** /**
 640:..\..\..\lvgl\version_6.1.2\lvgl\src\lv_objx/lv_calendar.c ****  * Get the height of a calendar's header based on it's style
 641:..\..\..\lvgl\version_6.1.2\lvgl\src\lv_objx/lv_calendar.c ****  * @param calendar point to a calendar
 642:..\..\..\lvgl\version_6.1.2\lvgl\src\lv_objx/lv_calendar.c ****  * @return the header's height
 643:..\..\..\lvgl\version_6.1.2\lvgl\src\lv_objx/lv_calendar.c ****  */
 644:..\..\..\lvgl\version_6.1.2\lvgl\src\lv_objx/lv_calendar.c **** static lv_coord_t get_header_height(lv_obj_t * calendar)
 645:..\..\..\lvgl\version_6.1.2\lvgl\src\lv_objx/lv_calendar.c **** {
 2374              		.loc 3 645 0
 2375              		.cfi_startproc
 2376              		@ args = 0, pretend = 0, frame = 16
 2377              		@ frame_needed = 1, uses_anonymous_args = 0
 2378 0000 80B5     		push	{r7, lr}
 2379              		.cfi_def_cfa_offset 8
 2380              		.cfi_offset 7, -8
 2381              		.cfi_offset 14, -4
 2382 0002 84B0     		sub	sp, sp, #16
 2383              		.cfi_def_cfa_offset 24
 2384 0004 00AF     		add	r7, sp, #0
 2385              		.cfi_def_cfa_register 7
 2386 0006 7860     		str	r0, [r7, #4]
 646:..\..\..\lvgl\version_6.1.2\lvgl\src\lv_objx/lv_calendar.c ****     lv_calendar_ext_t * ext = lv_obj_get_ext_attr(calendar);
 2387              		.loc 3 646 0
 2388 0008 7868     		ldr	r0, [r7, #4]
 2389 000a FFF7FEFF 		bl	lv_obj_get_ext_attr
 2390 000e F860     		str	r0, [r7, #12]
 647:..\..\..\lvgl\version_6.1.2\lvgl\src\lv_objx/lv_calendar.c **** 
 648:..\..\..\lvgl\version_6.1.2\lvgl\src\lv_objx/lv_calendar.c ****     return lv_font_get_line_height(ext->style_header->text.font) + ext->style_header->body.padding.
 2391              		.loc 3 648 0
 2392 0010 FB68     		ldr	r3, [r7, #12]
 2393 0012 DB69     		ldr	r3, [r3, #28]
 2394 0014 5B6B     		ldr	r3, [r3, #52]
 2395 0016 1846     		mov	r0, r3
 2396 0018 FFF7FEFF 		bl	lv_font_get_line_height
 2397 001c 0346     		mov	r3, r0
 2398 001e 9AB2     		uxth	r2, r3
 2399 0020 FB68     		ldr	r3, [r7, #12]
 2400 0022 DB69     		ldr	r3, [r3, #28]
 2401 0024 B3F92030 		ldrsh	r3, [r3, #32]
 2402 0028 9BB2     		uxth	r3, r3
 2403 002a 1344     		add	r3, r3, r2
 2404 002c 9AB2     		uxth	r2, r3
 649:..\..\..\lvgl\version_6.1.2\lvgl\src\lv_objx/lv_calendar.c ****            ext->style_header->body.padding.bottom;
 2405              		.loc 3 649 0
 2406 002e FB68     		ldr	r3, [r7, #12]
 2407 0030 DB69     		ldr	r3, [r3, #28]
 2408 0032 B3F92230 		ldrsh	r3, [r3, #34]
 648:..\..\..\lvgl\version_6.1.2\lvgl\src\lv_objx/lv_calendar.c ****            ext->style_header->body.padding.bottom;
 2409              		.loc 3 648 0
 2410 0036 9BB2     		uxth	r3, r3
 2411 0038 1344     		add	r3, r3, r2
 2412 003a 9BB2     		uxth	r3, r3
 2413 003c 1BB2     		sxth	r3, r3
 650:..\..\..\lvgl\version_6.1.2\lvgl\src\lv_objx/lv_calendar.c **** }
 2414              		.loc 3 650 0
ARM GAS  C:\Users\tmj32\AppData\Local\Temp\cc0vWRpX.s 			page 59


 2415 003e 1846     		mov	r0, r3
 2416 0040 1037     		adds	r7, r7, #16
 2417              		.cfi_def_cfa_offset 8
 2418 0042 BD46     		mov	sp, r7
 2419              		.cfi_def_cfa_register 13
 2420              		@ sp needed
 2421 0044 80BD     		pop	{r7, pc}
 2422              		.cfi_endproc
 2423              	.LFE49:
 2424              		.size	get_header_height, .-get_header_height
 2425 0046 00BF     		.section	.text.get_day_names_height,"ax",%progbits
 2426              		.align	2
 2427              		.thumb
 2428              		.thumb_func
 2429              		.type	get_day_names_height, %function
 2430              	get_day_names_height:
 2431              	.LFB50:
 651:..\..\..\lvgl\version_6.1.2\lvgl\src\lv_objx/lv_calendar.c **** 
 652:..\..\..\lvgl\version_6.1.2\lvgl\src\lv_objx/lv_calendar.c **** /**
 653:..\..\..\lvgl\version_6.1.2\lvgl\src\lv_objx/lv_calendar.c ****  * Get the height of a calendar's day_names based on it's style
 654:..\..\..\lvgl\version_6.1.2\lvgl\src\lv_objx/lv_calendar.c ****  * @param calendar point to a calendar
 655:..\..\..\lvgl\version_6.1.2\lvgl\src\lv_objx/lv_calendar.c ****  * @return the day_names's height
 656:..\..\..\lvgl\version_6.1.2\lvgl\src\lv_objx/lv_calendar.c ****  */
 657:..\..\..\lvgl\version_6.1.2\lvgl\src\lv_objx/lv_calendar.c **** static lv_coord_t get_day_names_height(lv_obj_t * calendar)
 658:..\..\..\lvgl\version_6.1.2\lvgl\src\lv_objx/lv_calendar.c **** {
 2432              		.loc 3 658 0
 2433              		.cfi_startproc
 2434              		@ args = 0, pretend = 0, frame = 16
 2435              		@ frame_needed = 1, uses_anonymous_args = 0
 2436 0000 80B5     		push	{r7, lr}
 2437              		.cfi_def_cfa_offset 8
 2438              		.cfi_offset 7, -8
 2439              		.cfi_offset 14, -4
 2440 0002 84B0     		sub	sp, sp, #16
 2441              		.cfi_def_cfa_offset 24
 2442 0004 00AF     		add	r7, sp, #0
 2443              		.cfi_def_cfa_register 7
 2444 0006 7860     		str	r0, [r7, #4]
 659:..\..\..\lvgl\version_6.1.2\lvgl\src\lv_objx/lv_calendar.c ****     lv_calendar_ext_t * ext = lv_obj_get_ext_attr(calendar);
 2445              		.loc 3 659 0
 2446 0008 7868     		ldr	r0, [r7, #4]
 2447 000a FFF7FEFF 		bl	lv_obj_get_ext_attr
 2448 000e F860     		str	r0, [r7, #12]
 660:..\..\..\lvgl\version_6.1.2\lvgl\src\lv_objx/lv_calendar.c **** 
 661:..\..\..\lvgl\version_6.1.2\lvgl\src\lv_objx/lv_calendar.c ****     return lv_font_get_line_height(ext->style_day_names->text.font) + ext->style_day_names->body.pa
 2449              		.loc 3 661 0
 2450 0010 FB68     		ldr	r3, [r7, #12]
 2451 0012 5B6A     		ldr	r3, [r3, #36]
 2452 0014 5B6B     		ldr	r3, [r3, #52]
 2453 0016 1846     		mov	r0, r3
 2454 0018 FFF7FEFF 		bl	lv_font_get_line_height
 2455 001c 0346     		mov	r3, r0
 2456 001e 9AB2     		uxth	r2, r3
 2457 0020 FB68     		ldr	r3, [r7, #12]
 2458 0022 5B6A     		ldr	r3, [r3, #36]
 2459 0024 B3F92030 		ldrsh	r3, [r3, #32]
 2460 0028 9BB2     		uxth	r3, r3
ARM GAS  C:\Users\tmj32\AppData\Local\Temp\cc0vWRpX.s 			page 60


 2461 002a 1344     		add	r3, r3, r2
 2462 002c 9AB2     		uxth	r2, r3
 662:..\..\..\lvgl\version_6.1.2\lvgl\src\lv_objx/lv_calendar.c ****            ext->style_day_names->body.padding.bottom;
 2463              		.loc 3 662 0
 2464 002e FB68     		ldr	r3, [r7, #12]
 2465 0030 5B6A     		ldr	r3, [r3, #36]
 2466 0032 B3F92230 		ldrsh	r3, [r3, #34]
 661:..\..\..\lvgl\version_6.1.2\lvgl\src\lv_objx/lv_calendar.c ****            ext->style_day_names->body.padding.bottom;
 2467              		.loc 3 661 0
 2468 0036 9BB2     		uxth	r3, r3
 2469 0038 1344     		add	r3, r3, r2
 2470 003a 9BB2     		uxth	r3, r3
 2471 003c 1BB2     		sxth	r3, r3
 663:..\..\..\lvgl\version_6.1.2\lvgl\src\lv_objx/lv_calendar.c **** }
 2472              		.loc 3 663 0
 2473 003e 1846     		mov	r0, r3
 2474 0040 1037     		adds	r7, r7, #16
 2475              		.cfi_def_cfa_offset 8
 2476 0042 BD46     		mov	sp, r7
 2477              		.cfi_def_cfa_register 13
 2478              		@ sp needed
 2479 0044 80BD     		pop	{r7, pc}
 2480              		.cfi_endproc
 2481              	.LFE50:
 2482              		.size	get_day_names_height, .-get_day_names_height
 2483 0046 00BF     		.section	.rodata
 2484              		.align	2
 2485              	.LC20:
 2486 0094 EF819300 		.ascii	"\357\201\223\000"
 2487              		.align	2
 2488              	.LC21:
 2489 0098 EF819400 		.ascii	"\357\201\224\000"
 2490              		.section	.text.draw_header,"ax",%progbits
 2491              		.align	2
 2492              		.thumb
 2493              		.thumb_func
 2494              		.type	draw_header, %function
 2495              	draw_header:
 2496              	.LFB51:
 664:..\..\..\lvgl\version_6.1.2\lvgl\src\lv_objx/lv_calendar.c **** 
 665:..\..\..\lvgl\version_6.1.2\lvgl\src\lv_objx/lv_calendar.c **** /**
 666:..\..\..\lvgl\version_6.1.2\lvgl\src\lv_objx/lv_calendar.c ****  * Draw the calendar header with month name and arrows
 667:..\..\..\lvgl\version_6.1.2\lvgl\src\lv_objx/lv_calendar.c ****  * @param calendar point to a calendar
 668:..\..\..\lvgl\version_6.1.2\lvgl\src\lv_objx/lv_calendar.c ****  * @param mask a mask for drawing
 669:..\..\..\lvgl\version_6.1.2\lvgl\src\lv_objx/lv_calendar.c ****  */
 670:..\..\..\lvgl\version_6.1.2\lvgl\src\lv_objx/lv_calendar.c **** static void draw_header(lv_obj_t * calendar, const lv_area_t * mask)
 671:..\..\..\lvgl\version_6.1.2\lvgl\src\lv_objx/lv_calendar.c **** {
 2497              		.loc 3 671 0
 2498              		.cfi_startproc
 2499              		@ args = 0, pretend = 0, frame = 96
 2500              		@ frame_needed = 1, uses_anonymous_args = 0
 2501 0000 90B5     		push	{r4, r7, lr}
 2502              		.cfi_def_cfa_offset 12
 2503              		.cfi_offset 4, -12
 2504              		.cfi_offset 7, -8
 2505              		.cfi_offset 14, -4
 2506 0002 9FB0     		sub	sp, sp, #124
ARM GAS  C:\Users\tmj32\AppData\Local\Temp\cc0vWRpX.s 			page 61


 2507              		.cfi_def_cfa_offset 136
 2508 0004 06AF     		add	r7, sp, #24
 2509              		.cfi_def_cfa 7, 112
 2510 0006 7860     		str	r0, [r7, #4]
 2511 0008 3960     		str	r1, [r7]
 672:..\..\..\lvgl\version_6.1.2\lvgl\src\lv_objx/lv_calendar.c ****     lv_calendar_ext_t * ext = lv_obj_get_ext_attr(calendar);
 2512              		.loc 3 672 0
 2513 000a 7868     		ldr	r0, [r7, #4]
 2514 000c FFF7FEFF 		bl	lv_obj_get_ext_attr
 2515 0010 F865     		str	r0, [r7, #92]
 673:..\..\..\lvgl\version_6.1.2\lvgl\src\lv_objx/lv_calendar.c **** 
 674:..\..\..\lvgl\version_6.1.2\lvgl\src\lv_objx/lv_calendar.c ****     lv_bidi_dir_t bidi_dir = lv_obj_get_base_dir(calendar);
 2516              		.loc 3 674 0
 2517 0012 7868     		ldr	r0, [r7, #4]
 2518 0014 FFF7FEFF 		bl	lv_obj_get_base_dir
 2519 0018 0346     		mov	r3, r0
 2520 001a 87F85B30 		strb	r3, [r7, #91]
 675:..\..\..\lvgl\version_6.1.2\lvgl\src\lv_objx/lv_calendar.c **** 
 676:..\..\..\lvgl\version_6.1.2\lvgl\src\lv_objx/lv_calendar.c ****     lv_opa_t opa_scale      = lv_obj_get_opa_scale(calendar);
 2521              		.loc 3 676 0
 2522 001e 7868     		ldr	r0, [r7, #4]
 2523 0020 FFF7FEFF 		bl	lv_obj_get_opa_scale
 2524 0024 0346     		mov	r3, r0
 2525 0026 87F85A30 		strb	r3, [r7, #90]
 677:..\..\..\lvgl\version_6.1.2\lvgl\src\lv_objx/lv_calendar.c **** 
 678:..\..\..\lvgl\version_6.1.2\lvgl\src\lv_objx/lv_calendar.c ****     lv_area_t header_area;
 679:..\..\..\lvgl\version_6.1.2\lvgl\src\lv_objx/lv_calendar.c ****     header_area.x1 = calendar->coords.x1;
 2526              		.loc 3 679 0
 2527 002a 7B68     		ldr	r3, [r7, #4]
 2528 002c B3F91030 		ldrsh	r3, [r3, #16]
 2529 0030 A7F84C30 		strh	r3, [r7, #76]	@ movhi
 680:..\..\..\lvgl\version_6.1.2\lvgl\src\lv_objx/lv_calendar.c ****     header_area.x2 = calendar->coords.x2;
 2530              		.loc 3 680 0
 2531 0034 7B68     		ldr	r3, [r7, #4]
 2532 0036 B3F91430 		ldrsh	r3, [r3, #20]
 2533 003a A7F85030 		strh	r3, [r7, #80]	@ movhi
 681:..\..\..\lvgl\version_6.1.2\lvgl\src\lv_objx/lv_calendar.c ****     header_area.y1 = calendar->coords.y1;
 2534              		.loc 3 681 0
 2535 003e 7B68     		ldr	r3, [r7, #4]
 2536 0040 B3F91230 		ldrsh	r3, [r3, #18]
 2537 0044 A7F84E30 		strh	r3, [r7, #78]	@ movhi
 682:..\..\..\lvgl\version_6.1.2\lvgl\src\lv_objx/lv_calendar.c ****     header_area.y2 = calendar->coords.y1 + get_header_height(calendar);
 2538              		.loc 3 682 0
 2539 0048 7B68     		ldr	r3, [r7, #4]
 2540 004a B3F91230 		ldrsh	r3, [r3, #18]
 2541 004e 9CB2     		uxth	r4, r3
 2542 0050 7868     		ldr	r0, [r7, #4]
 2543 0052 FFF7FEFF 		bl	get_header_height
 2544 0056 0346     		mov	r3, r0
 2545 0058 9BB2     		uxth	r3, r3
 2546 005a 2344     		add	r3, r3, r4
 2547 005c 9BB2     		uxth	r3, r3
 2548 005e 1BB2     		sxth	r3, r3
 2549 0060 A7F85230 		strh	r3, [r7, #82]	@ movhi
 683:..\..\..\lvgl\version_6.1.2\lvgl\src\lv_objx/lv_calendar.c **** 
 684:..\..\..\lvgl\version_6.1.2\lvgl\src\lv_objx/lv_calendar.c ****     lv_draw_rect(&header_area, mask, ext->style_header, opa_scale);
 2550              		.loc 3 684 0
ARM GAS  C:\Users\tmj32\AppData\Local\Temp\cc0vWRpX.s 			page 62


 2551 0064 FB6D     		ldr	r3, [r7, #92]
 2552 0066 DA69     		ldr	r2, [r3, #28]
 2553 0068 97F85A30 		ldrb	r3, [r7, #90]	@ zero_extendqisi2
 2554 006c 07F14C00 		add	r0, r7, #76
 2555 0070 3968     		ldr	r1, [r7]
 2556 0072 FFF7FEFF 		bl	lv_draw_rect
 685:..\..\..\lvgl\version_6.1.2\lvgl\src\lv_objx/lv_calendar.c **** 
 686:..\..\..\lvgl\version_6.1.2\lvgl\src\lv_objx/lv_calendar.c ****     /*Add the year + month name*/
 687:..\..\..\lvgl\version_6.1.2\lvgl\src\lv_objx/lv_calendar.c ****     char txt_buf[64];
 688:..\..\..\lvgl\version_6.1.2\lvgl\src\lv_objx/lv_calendar.c ****     lv_utils_num_to_str(ext->showed_date.year, txt_buf);
 2557              		.loc 3 688 0
 2558 0076 FB6D     		ldr	r3, [r7, #92]
 2559 0078 9B88     		ldrh	r3, [r3, #4]
 2560 007a 1A46     		mov	r2, r3
 2561 007c 07F10C03 		add	r3, r7, #12
 2562 0080 1946     		mov	r1, r3
 2563 0082 1046     		mov	r0, r2
 2564 0084 FFF7FEFF 		bl	lv_utils_num_to_str
 689:..\..\..\lvgl\version_6.1.2\lvgl\src\lv_objx/lv_calendar.c ****     txt_buf[4] = ' ';
 2565              		.loc 3 689 0
 2566 0088 2023     		movs	r3, #32
 2567 008a 3B74     		strb	r3, [r7, #16]
 690:..\..\..\lvgl\version_6.1.2\lvgl\src\lv_objx/lv_calendar.c ****     txt_buf[5] = '\0';
 2568              		.loc 3 690 0
 2569 008c 0023     		movs	r3, #0
 2570 008e 7B74     		strb	r3, [r7, #17]
 691:..\..\..\lvgl\version_6.1.2\lvgl\src\lv_objx/lv_calendar.c ****     strcpy(&txt_buf[5], get_month_name(calendar, ext->showed_date.month));
 2571              		.loc 3 691 0
 2572 0090 FB6D     		ldr	r3, [r7, #92]
 2573 0092 93F90630 		ldrsb	r3, [r3, #6]
 2574 0096 1946     		mov	r1, r3
 2575 0098 7868     		ldr	r0, [r7, #4]
 2576 009a FFF7FEFF 		bl	get_month_name
 2577 009e 0246     		mov	r2, r0
 2578 00a0 07F10C03 		add	r3, r7, #12
 2579 00a4 0533     		adds	r3, r3, #5
 2580 00a6 1146     		mov	r1, r2
 2581 00a8 1846     		mov	r0, r3
 2582 00aa FFF7FEFF 		bl	strcpy
 692:..\..\..\lvgl\version_6.1.2\lvgl\src\lv_objx/lv_calendar.c ****     header_area.y1 += ext->style_header->body.padding.top;
 2583              		.loc 3 692 0
 2584 00ae B7F94E30 		ldrsh	r3, [r7, #78]
 2585 00b2 9AB2     		uxth	r2, r3
 2586 00b4 FB6D     		ldr	r3, [r7, #92]
 2587 00b6 DB69     		ldr	r3, [r3, #28]
 2588 00b8 B3F92030 		ldrsh	r3, [r3, #32]
 2589 00bc 9BB2     		uxth	r3, r3
 2590 00be 1344     		add	r3, r3, r2
 2591 00c0 9BB2     		uxth	r3, r3
 2592 00c2 1BB2     		sxth	r3, r3
 2593 00c4 A7F84E30 		strh	r3, [r7, #78]	@ movhi
 693:..\..\..\lvgl\version_6.1.2\lvgl\src\lv_objx/lv_calendar.c ****     lv_draw_label(&header_area, mask, ext->style_header, opa_scale, txt_buf, LV_TXT_FLAG_CENTER, NU
 2594              		.loc 3 693 0
 2595 00c8 FB6D     		ldr	r3, [r7, #92]
 2596 00ca DA69     		ldr	r2, [r3, #28]
 2597 00cc 97F85A10 		ldrb	r1, [r7, #90]	@ zero_extendqisi2
 2598 00d0 07F14C00 		add	r0, r7, #76
ARM GAS  C:\Users\tmj32\AppData\Local\Temp\cc0vWRpX.s 			page 63


 2599 00d4 97F85B30 		ldrb	r3, [r7, #91]	@ zero_extendqisi2
 2600 00d8 0593     		str	r3, [sp, #20]
 2601 00da 0023     		movs	r3, #0
 2602 00dc 0493     		str	r3, [sp, #16]
 2603 00de 0023     		movs	r3, #0
 2604 00e0 0393     		str	r3, [sp, #12]
 2605 00e2 0023     		movs	r3, #0
 2606 00e4 0293     		str	r3, [sp, #8]
 2607 00e6 0423     		movs	r3, #4
 2608 00e8 0193     		str	r3, [sp, #4]
 2609 00ea 07F10C03 		add	r3, r7, #12
 2610 00ee 0093     		str	r3, [sp]
 2611 00f0 0B46     		mov	r3, r1
 2612 00f2 3968     		ldr	r1, [r7]
 2613 00f4 FFF7FEFF 		bl	lv_draw_label
 694:..\..\..\lvgl\version_6.1.2\lvgl\src\lv_objx/lv_calendar.c **** 
 695:..\..\..\lvgl\version_6.1.2\lvgl\src\lv_objx/lv_calendar.c ****     /*Add the left arrow*/
 696:..\..\..\lvgl\version_6.1.2\lvgl\src\lv_objx/lv_calendar.c ****     const lv_style_t * arrow_style = ext->btn_pressing < 0 ? ext->style_header_pr : ext->style_head
 2614              		.loc 3 696 0
 2615 00f8 FB6D     		ldr	r3, [r7, #92]
 2616 00fa 93F90C30 		ldrsb	r3, [r3, #12]
 2617 00fe 002B     		cmp	r3, #0
 2618 0100 02DA     		bge	.L122
 2619              		.loc 3 696 0 is_stmt 0 discriminator 1
 2620 0102 FB6D     		ldr	r3, [r7, #92]
 2621 0104 1B6A     		ldr	r3, [r3, #32]
 2622 0106 01E0     		b	.L123
 2623              	.L122:
 2624              		.loc 3 696 0 discriminator 2
 2625 0108 FB6D     		ldr	r3, [r7, #92]
 2626 010a DB69     		ldr	r3, [r3, #28]
 2627              	.L123:
 2628              		.loc 3 696 0 discriminator 4
 2629 010c 7B65     		str	r3, [r7, #84]
 697:..\..\..\lvgl\version_6.1.2\lvgl\src\lv_objx/lv_calendar.c ****     header_area.x1 += ext->style_header->body.padding.left;
 2630              		.loc 3 697 0 is_stmt 1 discriminator 4
 2631 010e B7F94C30 		ldrsh	r3, [r7, #76]
 2632 0112 9AB2     		uxth	r2, r3
 2633 0114 FB6D     		ldr	r3, [r7, #92]
 2634 0116 DB69     		ldr	r3, [r3, #28]
 2635 0118 B3F92430 		ldrsh	r3, [r3, #36]
 2636 011c 9BB2     		uxth	r3, r3
 2637 011e 1344     		add	r3, r3, r2
 2638 0120 9BB2     		uxth	r3, r3
 2639 0122 1BB2     		sxth	r3, r3
 2640 0124 A7F84C30 		strh	r3, [r7, #76]	@ movhi
 698:..\..\..\lvgl\version_6.1.2\lvgl\src\lv_objx/lv_calendar.c ****     lv_draw_label(&header_area, mask, arrow_style, opa_scale, LV_SYMBOL_LEFT, LV_TXT_FLAG_NONE, NUL
 2641              		.loc 3 698 0 discriminator 4
 2642 0128 97F85A20 		ldrb	r2, [r7, #90]	@ zero_extendqisi2
 2643 012c 07F14C00 		add	r0, r7, #76
 2644 0130 97F85B30 		ldrb	r3, [r7, #91]	@ zero_extendqisi2
 2645 0134 0593     		str	r3, [sp, #20]
 2646 0136 0023     		movs	r3, #0
 2647 0138 0493     		str	r3, [sp, #16]
 2648 013a 0023     		movs	r3, #0
 2649 013c 0393     		str	r3, [sp, #12]
 2650 013e 0023     		movs	r3, #0
ARM GAS  C:\Users\tmj32\AppData\Local\Temp\cc0vWRpX.s 			page 64


 2651 0140 0293     		str	r3, [sp, #8]
 2652 0142 0023     		movs	r3, #0
 2653 0144 0193     		str	r3, [sp, #4]
 2654 0146 244B     		ldr	r3, .L126
 2655 0148 0093     		str	r3, [sp]
 2656 014a 1346     		mov	r3, r2
 2657 014c 7A6D     		ldr	r2, [r7, #84]
 2658 014e 3968     		ldr	r1, [r7]
 2659 0150 FFF7FEFF 		bl	lv_draw_label
 699:..\..\..\lvgl\version_6.1.2\lvgl\src\lv_objx/lv_calendar.c **** 
 700:..\..\..\lvgl\version_6.1.2\lvgl\src\lv_objx/lv_calendar.c ****     /*Add the right arrow*/
 701:..\..\..\lvgl\version_6.1.2\lvgl\src\lv_objx/lv_calendar.c ****     arrow_style    = ext->btn_pressing > 0 ? ext->style_header_pr : ext->style_header;
 2660              		.loc 3 701 0 discriminator 4
 2661 0154 FB6D     		ldr	r3, [r7, #92]
 2662 0156 93F90C30 		ldrsb	r3, [r3, #12]
 2663 015a 002B     		cmp	r3, #0
 2664 015c 02DD     		ble	.L124
 2665              		.loc 3 701 0 is_stmt 0 discriminator 1
 2666 015e FB6D     		ldr	r3, [r7, #92]
 2667 0160 1B6A     		ldr	r3, [r3, #32]
 2668 0162 01E0     		b	.L125
 2669              	.L124:
 2670              		.loc 3 701 0 discriminator 2
 2671 0164 FB6D     		ldr	r3, [r7, #92]
 2672 0166 DB69     		ldr	r3, [r3, #28]
 2673              	.L125:
 2674              		.loc 3 701 0 discriminator 4
 2675 0168 7B65     		str	r3, [r7, #84]
 702:..\..\..\lvgl\version_6.1.2\lvgl\src\lv_objx/lv_calendar.c ****     header_area.x1 = header_area.x2 - ext->style_header->body.padding.right -
 2676              		.loc 3 702 0 is_stmt 1 discriminator 4
 2677 016a B7F95030 		ldrsh	r3, [r7, #80]
 2678 016e 9AB2     		uxth	r2, r3
 2679 0170 FB6D     		ldr	r3, [r7, #92]
 2680 0172 DB69     		ldr	r3, [r3, #28]
 2681 0174 B3F92630 		ldrsh	r3, [r3, #38]
 2682 0178 9BB2     		uxth	r3, r3
 2683 017a D31A     		subs	r3, r2, r3
 2684 017c 9CB2     		uxth	r4, r3
 703:..\..\..\lvgl\version_6.1.2\lvgl\src\lv_objx/lv_calendar.c ****                      lv_txt_get_width(LV_SYMBOL_RIGHT, (uint16_t)strlen(LV_SYMBOL_RIGHT), arrow_sty
 2685              		.loc 3 703 0 discriminator 4
 2686 017e 7B6D     		ldr	r3, [r7, #84]
 2687 0180 5A6B     		ldr	r2, [r3, #52]
 2688 0182 7B6D     		ldr	r3, [r7, #84]
 2689 0184 B3F93A10 		ldrsh	r1, [r3, #58]
 2690 0188 0023     		movs	r3, #0
 2691 018a 0093     		str	r3, [sp]
 2692 018c 0B46     		mov	r3, r1
 2693 018e 0321     		movs	r1, #3
 2694 0190 1248     		ldr	r0, .L126+4
 2695 0192 FFF7FEFF 		bl	lv_txt_get_width
 2696 0196 0346     		mov	r3, r0
 702:..\..\..\lvgl\version_6.1.2\lvgl\src\lv_objx/lv_calendar.c ****     header_area.x1 = header_area.x2 - ext->style_header->body.padding.right -
 2697              		.loc 3 702 0 discriminator 4
 2698 0198 9BB2     		uxth	r3, r3
 2699 019a E31A     		subs	r3, r4, r3
 2700 019c 9BB2     		uxth	r3, r3
 2701 019e 1BB2     		sxth	r3, r3
ARM GAS  C:\Users\tmj32\AppData\Local\Temp\cc0vWRpX.s 			page 65


 2702 01a0 A7F84C30 		strh	r3, [r7, #76]	@ movhi
 704:..\..\..\lvgl\version_6.1.2\lvgl\src\lv_objx/lv_calendar.c ****                                       arrow_style->text.line_space, LV_TXT_FLAG_NONE);
 705:..\..\..\lvgl\version_6.1.2\lvgl\src\lv_objx/lv_calendar.c ****     lv_draw_label(&header_area, mask, arrow_style, opa_scale, LV_SYMBOL_RIGHT, LV_TXT_FLAG_NONE, NU
 2703              		.loc 3 705 0 discriminator 4
 2704 01a4 97F85A20 		ldrb	r2, [r7, #90]	@ zero_extendqisi2
 2705 01a8 07F14C00 		add	r0, r7, #76
 2706 01ac 97F85B30 		ldrb	r3, [r7, #91]	@ zero_extendqisi2
 2707 01b0 0593     		str	r3, [sp, #20]
 2708 01b2 0023     		movs	r3, #0
 2709 01b4 0493     		str	r3, [sp, #16]
 2710 01b6 0023     		movs	r3, #0
 2711 01b8 0393     		str	r3, [sp, #12]
 2712 01ba 0023     		movs	r3, #0
 2713 01bc 0293     		str	r3, [sp, #8]
 2714 01be 0023     		movs	r3, #0
 2715 01c0 0193     		str	r3, [sp, #4]
 2716 01c2 064B     		ldr	r3, .L126+4
 2717 01c4 0093     		str	r3, [sp]
 2718 01c6 1346     		mov	r3, r2
 2719 01c8 7A6D     		ldr	r2, [r7, #84]
 2720 01ca 3968     		ldr	r1, [r7]
 2721 01cc FFF7FEFF 		bl	lv_draw_label
 706:..\..\..\lvgl\version_6.1.2\lvgl\src\lv_objx/lv_calendar.c **** }
 2722              		.loc 3 706 0 discriminator 4
 2723 01d0 00BF     		nop
 2724 01d2 6437     		adds	r7, r7, #100
 2725              		.cfi_def_cfa_offset 12
 2726 01d4 BD46     		mov	sp, r7
 2727              		.cfi_def_cfa_register 13
 2728              		@ sp needed
 2729 01d6 90BD     		pop	{r4, r7, pc}
 2730              	.L127:
 2731              		.align	2
 2732              	.L126:
 2733 01d8 94000000 		.word	.LC20
 2734 01dc 98000000 		.word	.LC21
 2735              		.cfi_endproc
 2736              	.LFE51:
 2737              		.size	draw_header, .-draw_header
 2738              		.section	.text.draw_day_names,"ax",%progbits
 2739              		.align	2
 2740              		.thumb
 2741              		.thumb_func
 2742              		.type	draw_day_names, %function
 2743              	draw_day_names:
 2744              	.LFB52:
 707:..\..\..\lvgl\version_6.1.2\lvgl\src\lv_objx/lv_calendar.c **** 
 708:..\..\..\lvgl\version_6.1.2\lvgl\src\lv_objx/lv_calendar.c **** /**
 709:..\..\..\lvgl\version_6.1.2\lvgl\src\lv_objx/lv_calendar.c ****  * Draw the day's name below the header
 710:..\..\..\lvgl\version_6.1.2\lvgl\src\lv_objx/lv_calendar.c ****  * @param calendar point to a calendar
 711:..\..\..\lvgl\version_6.1.2\lvgl\src\lv_objx/lv_calendar.c ****  * @param mask a mask for drawing
 712:..\..\..\lvgl\version_6.1.2\lvgl\src\lv_objx/lv_calendar.c ****  */
 713:..\..\..\lvgl\version_6.1.2\lvgl\src\lv_objx/lv_calendar.c **** static void draw_day_names(lv_obj_t * calendar, const lv_area_t * mask)
 714:..\..\..\lvgl\version_6.1.2\lvgl\src\lv_objx/lv_calendar.c **** {
 2745              		.loc 3 714 0
 2746              		.cfi_startproc
 2747              		@ args = 0, pretend = 0, frame = 32
ARM GAS  C:\Users\tmj32\AppData\Local\Temp\cc0vWRpX.s 			page 66


 2748              		@ frame_needed = 1, uses_anonymous_args = 0
 2749 0000 90B5     		push	{r4, r7, lr}
 2750              		.cfi_def_cfa_offset 12
 2751              		.cfi_offset 4, -12
 2752              		.cfi_offset 7, -8
 2753              		.cfi_offset 14, -4
 2754 0002 8FB0     		sub	sp, sp, #60
 2755              		.cfi_def_cfa_offset 72
 2756 0004 06AF     		add	r7, sp, #24
 2757              		.cfi_def_cfa 7, 48
 2758 0006 7860     		str	r0, [r7, #4]
 2759 0008 3960     		str	r1, [r7]
 715:..\..\..\lvgl\version_6.1.2\lvgl\src\lv_objx/lv_calendar.c ****     lv_calendar_ext_t * ext = lv_obj_get_ext_attr(calendar);
 2760              		.loc 3 715 0
 2761 000a 7868     		ldr	r0, [r7, #4]
 2762 000c FFF7FEFF 		bl	lv_obj_get_ext_attr
 2763 0010 B861     		str	r0, [r7, #24]
 716:..\..\..\lvgl\version_6.1.2\lvgl\src\lv_objx/lv_calendar.c ****     lv_bidi_dir_t bidi_dir = lv_obj_get_base_dir(calendar);
 2764              		.loc 3 716 0
 2765 0012 7868     		ldr	r0, [r7, #4]
 2766 0014 FFF7FEFF 		bl	lv_obj_get_base_dir
 2767 0018 0346     		mov	r3, r0
 2768 001a FB75     		strb	r3, [r7, #23]
 717:..\..\..\lvgl\version_6.1.2\lvgl\src\lv_objx/lv_calendar.c ****     lv_opa_t opa_scale      = lv_obj_get_opa_scale(calendar);
 2769              		.loc 3 717 0
 2770 001c 7868     		ldr	r0, [r7, #4]
 2771 001e FFF7FEFF 		bl	lv_obj_get_opa_scale
 2772 0022 0346     		mov	r3, r0
 2773 0024 BB75     		strb	r3, [r7, #22]
 718:..\..\..\lvgl\version_6.1.2\lvgl\src\lv_objx/lv_calendar.c **** 
 719:..\..\..\lvgl\version_6.1.2\lvgl\src\lv_objx/lv_calendar.c ****     lv_coord_t l_pad = ext->style_day_names->body.padding.left;
 2774              		.loc 3 719 0
 2775 0026 BB69     		ldr	r3, [r7, #24]
 2776 0028 5B6A     		ldr	r3, [r3, #36]
 2777 002a 9B8C     		ldrh	r3, [r3, #36]	@ movhi
 2778 002c BB82     		strh	r3, [r7, #20]	@ movhi
 720:..\..\..\lvgl\version_6.1.2\lvgl\src\lv_objx/lv_calendar.c ****     lv_coord_t w =
 721:..\..\..\lvgl\version_6.1.2\lvgl\src\lv_objx/lv_calendar.c ****         lv_obj_get_width(calendar) - ext->style_day_names->body.padding.left - ext->style_day_names
 2779              		.loc 3 721 0
 2780 002e 7868     		ldr	r0, [r7, #4]
 2781 0030 FFF7FEFF 		bl	lv_obj_get_width
 2782 0034 0346     		mov	r3, r0
 720:..\..\..\lvgl\version_6.1.2\lvgl\src\lv_objx/lv_calendar.c ****     lv_coord_t w =
 2783              		.loc 3 720 0
 2784 0036 9AB2     		uxth	r2, r3
 2785              		.loc 3 721 0
 2786 0038 BB69     		ldr	r3, [r7, #24]
 2787 003a 5B6A     		ldr	r3, [r3, #36]
 2788 003c B3F92430 		ldrsh	r3, [r3, #36]
 720:..\..\..\lvgl\version_6.1.2\lvgl\src\lv_objx/lv_calendar.c ****     lv_coord_t w =
 2789              		.loc 3 720 0
 2790 0040 9BB2     		uxth	r3, r3
 2791 0042 D31A     		subs	r3, r2, r3
 2792 0044 9AB2     		uxth	r2, r3
 2793              		.loc 3 721 0
 2794 0046 BB69     		ldr	r3, [r7, #24]
 2795 0048 5B6A     		ldr	r3, [r3, #36]
ARM GAS  C:\Users\tmj32\AppData\Local\Temp\cc0vWRpX.s 			page 67


 2796 004a B3F92630 		ldrsh	r3, [r3, #38]
 720:..\..\..\lvgl\version_6.1.2\lvgl\src\lv_objx/lv_calendar.c ****     lv_coord_t w =
 2797              		.loc 3 720 0
 2798 004e 9BB2     		uxth	r3, r3
 2799 0050 D31A     		subs	r3, r2, r3
 2800 0052 9BB2     		uxth	r3, r3
 2801 0054 7B82     		strh	r3, [r7, #18]	@ movhi
 722:..\..\..\lvgl\version_6.1.2\lvgl\src\lv_objx/lv_calendar.c ****     lv_coord_t box_w = w / 7;
 2802              		.loc 3 722 0
 2803 0056 B7F91230 		ldrsh	r3, [r7, #18]
 2804 005a 3B4A     		ldr	r2, .L131
 2805 005c 82FB0312 		smull	r1, r2, r2, r3
 2806 0060 1A44     		add	r2, r2, r3
 2807 0062 9210     		asrs	r2, r2, #2
 2808 0064 DB17     		asrs	r3, r3, #31
 2809 0066 D31A     		subs	r3, r2, r3
 2810 0068 3B82     		strh	r3, [r7, #16]	@ movhi
 723:..\..\..\lvgl\version_6.1.2\lvgl\src\lv_objx/lv_calendar.c ****     lv_area_t label_area;
 724:..\..\..\lvgl\version_6.1.2\lvgl\src\lv_objx/lv_calendar.c ****     label_area.y1 = calendar->coords.y1 + get_header_height(calendar) + ext->style_day_names->body.
 2811              		.loc 3 724 0
 2812 006a 7B68     		ldr	r3, [r7, #4]
 2813 006c B3F91230 		ldrsh	r3, [r3, #18]
 2814 0070 9CB2     		uxth	r4, r3
 2815 0072 7868     		ldr	r0, [r7, #4]
 2816 0074 FFF7FEFF 		bl	get_header_height
 2817 0078 0346     		mov	r3, r0
 2818 007a 9BB2     		uxth	r3, r3
 2819 007c 2344     		add	r3, r3, r4
 2820 007e 9AB2     		uxth	r2, r3
 2821 0080 BB69     		ldr	r3, [r7, #24]
 2822 0082 5B6A     		ldr	r3, [r3, #36]
 2823 0084 B3F92030 		ldrsh	r3, [r3, #32]
 2824 0088 9BB2     		uxth	r3, r3
 2825 008a 1344     		add	r3, r3, r2
 2826 008c 9BB2     		uxth	r3, r3
 2827 008e 1BB2     		sxth	r3, r3
 2828 0090 7B81     		strh	r3, [r7, #10]	@ movhi
 725:..\..\..\lvgl\version_6.1.2\lvgl\src\lv_objx/lv_calendar.c ****     label_area.y2 = label_area.y1 + lv_font_get_line_height(ext->style_day_names->text.font);
 2829              		.loc 3 725 0
 2830 0092 B7F90A30 		ldrsh	r3, [r7, #10]
 2831 0096 9CB2     		uxth	r4, r3
 2832 0098 BB69     		ldr	r3, [r7, #24]
 2833 009a 5B6A     		ldr	r3, [r3, #36]
 2834 009c 5B6B     		ldr	r3, [r3, #52]
 2835 009e 1846     		mov	r0, r3
 2836 00a0 FFF7FEFF 		bl	lv_font_get_line_height
 2837 00a4 0346     		mov	r3, r0
 2838 00a6 9BB2     		uxth	r3, r3
 2839 00a8 2344     		add	r3, r3, r4
 2840 00aa 9BB2     		uxth	r3, r3
 2841 00ac 1BB2     		sxth	r3, r3
 2842 00ae FB81     		strh	r3, [r7, #14]	@ movhi
 726:..\..\..\lvgl\version_6.1.2\lvgl\src\lv_objx/lv_calendar.c ****     uint32_t i;
 727:..\..\..\lvgl\version_6.1.2\lvgl\src\lv_objx/lv_calendar.c ****     for(i = 0; i < 7; i++) {
 2843              		.loc 3 727 0
 2844 00b0 0023     		movs	r3, #0
 2845 00b2 FB61     		str	r3, [r7, #28]
ARM GAS  C:\Users\tmj32\AppData\Local\Temp\cc0vWRpX.s 			page 68


 2846 00b4 40E0     		b	.L129
 2847              	.L130:
 728:..\..\..\lvgl\version_6.1.2\lvgl\src\lv_objx/lv_calendar.c ****         label_area.x1 = calendar->coords.x1 + (w * i) / 7 + l_pad;
 2848              		.loc 3 728 0 discriminator 3
 2849 00b6 7B68     		ldr	r3, [r7, #4]
 2850 00b8 B3F91030 		ldrsh	r3, [r3, #16]
 2851 00bc 99B2     		uxth	r1, r3
 2852 00be B7F91230 		ldrsh	r3, [r7, #18]
 2853 00c2 FA69     		ldr	r2, [r7, #28]
 2854 00c4 02FB03F2 		mul	r2, r2, r3
 2855 00c8 204B     		ldr	r3, .L131+4
 2856 00ca A3FB0203 		umull	r0, r3, r3, r2
 2857 00ce D21A     		subs	r2, r2, r3
 2858 00d0 5208     		lsrs	r2, r2, #1
 2859 00d2 1344     		add	r3, r3, r2
 2860 00d4 9B08     		lsrs	r3, r3, #2
 2861 00d6 9BB2     		uxth	r3, r3
 2862 00d8 0B44     		add	r3, r3, r1
 2863 00da 9AB2     		uxth	r2, r3
 2864 00dc BB8A     		ldrh	r3, [r7, #20]
 2865 00de 1344     		add	r3, r3, r2
 2866 00e0 9BB2     		uxth	r3, r3
 2867 00e2 1BB2     		sxth	r3, r3
 2868 00e4 3B81     		strh	r3, [r7, #8]	@ movhi
 729:..\..\..\lvgl\version_6.1.2\lvgl\src\lv_objx/lv_calendar.c ****         label_area.x2 = label_area.x1 + box_w - 1;
 2869              		.loc 3 729 0 discriminator 3
 2870 00e6 B7F90830 		ldrsh	r3, [r7, #8]
 2871 00ea 9AB2     		uxth	r2, r3
 2872 00ec 3B8A     		ldrh	r3, [r7, #16]
 2873 00ee 1344     		add	r3, r3, r2
 2874 00f0 9BB2     		uxth	r3, r3
 2875 00f2 013B     		subs	r3, r3, #1
 2876 00f4 9BB2     		uxth	r3, r3
 2877 00f6 1BB2     		sxth	r3, r3
 2878 00f8 BB81     		strh	r3, [r7, #12]	@ movhi
 730:..\..\..\lvgl\version_6.1.2\lvgl\src\lv_objx/lv_calendar.c ****         lv_draw_label(&label_area, mask, ext->style_day_names, opa_scale, get_day_name(calendar, i)
 2879              		.loc 3 730 0 discriminator 3
 2880 00fa BB69     		ldr	r3, [r7, #24]
 2881 00fc 5C6A     		ldr	r4, [r3, #36]
 2882 00fe FB69     		ldr	r3, [r7, #28]
 2883 0100 DBB2     		uxtb	r3, r3
 2884 0102 1946     		mov	r1, r3
 2885 0104 7868     		ldr	r0, [r7, #4]
 2886 0106 FFF7FEFF 		bl	get_day_name
 2887 010a 0146     		mov	r1, r0
 2888 010c BA7D     		ldrb	r2, [r7, #22]	@ zero_extendqisi2
 2889 010e 07F10800 		add	r0, r7, #8
 2890 0112 FB7D     		ldrb	r3, [r7, #23]	@ zero_extendqisi2
 2891 0114 0593     		str	r3, [sp, #20]
 2892 0116 0023     		movs	r3, #0
 2893 0118 0493     		str	r3, [sp, #16]
 2894 011a 0023     		movs	r3, #0
 2895 011c 0393     		str	r3, [sp, #12]
 2896 011e 0023     		movs	r3, #0
 2897 0120 0293     		str	r3, [sp, #8]
 2898 0122 0423     		movs	r3, #4
 2899 0124 0193     		str	r3, [sp, #4]
ARM GAS  C:\Users\tmj32\AppData\Local\Temp\cc0vWRpX.s 			page 69


 2900 0126 0091     		str	r1, [sp]
 2901 0128 1346     		mov	r3, r2
 2902 012a 2246     		mov	r2, r4
 2903 012c 3968     		ldr	r1, [r7]
 2904 012e FFF7FEFF 		bl	lv_draw_label
 727:..\..\..\lvgl\version_6.1.2\lvgl\src\lv_objx/lv_calendar.c ****         label_area.x1 = calendar->coords.x1 + (w * i) / 7 + l_pad;
 2905              		.loc 3 727 0 discriminator 3
 2906 0132 FB69     		ldr	r3, [r7, #28]
 2907 0134 0133     		adds	r3, r3, #1
 2908 0136 FB61     		str	r3, [r7, #28]
 2909              	.L129:
 727:..\..\..\lvgl\version_6.1.2\lvgl\src\lv_objx/lv_calendar.c ****         label_area.x1 = calendar->coords.x1 + (w * i) / 7 + l_pad;
 2910              		.loc 3 727 0 is_stmt 0 discriminator 1
 2911 0138 FB69     		ldr	r3, [r7, #28]
 2912 013a 062B     		cmp	r3, #6
 2913 013c BBD9     		bls	.L130
 731:..\..\..\lvgl\version_6.1.2\lvgl\src\lv_objx/lv_calendar.c ****                       NULL, NULL, NULL, bidi_dir);
 732:..\..\..\lvgl\version_6.1.2\lvgl\src\lv_objx/lv_calendar.c ****     }
 733:..\..\..\lvgl\version_6.1.2\lvgl\src\lv_objx/lv_calendar.c **** }
 2914              		.loc 3 733 0 is_stmt 1
 2915 013e 00BF     		nop
 2916 0140 2437     		adds	r7, r7, #36
 2917              		.cfi_def_cfa_offset 12
 2918 0142 BD46     		mov	sp, r7
 2919              		.cfi_def_cfa_register 13
 2920              		@ sp needed
 2921 0144 90BD     		pop	{r4, r7, pc}
 2922              	.L132:
 2923 0146 00BF     		.align	2
 2924              	.L131:
 2925 0148 93244992 		.word	-1840700269
 2926 014c 25499224 		.word	613566757
 2927              		.cfi_endproc
 2928              	.LFE52:
 2929              		.size	draw_day_names, .-draw_day_names
 2930              		.section	.text.draw_days,"ax",%progbits
 2931              		.align	2
 2932              		.thumb
 2933              		.thumb_func
 2934              		.type	draw_days, %function
 2935              	draw_days:
 2936              	.LFB53:
 734:..\..\..\lvgl\version_6.1.2\lvgl\src\lv_objx/lv_calendar.c **** 
 735:..\..\..\lvgl\version_6.1.2\lvgl\src\lv_objx/lv_calendar.c **** /**
 736:..\..\..\lvgl\version_6.1.2\lvgl\src\lv_objx/lv_calendar.c ****  * Draw the date numbers in a matrix
 737:..\..\..\lvgl\version_6.1.2\lvgl\src\lv_objx/lv_calendar.c ****  * @param calendar point to a calendar
 738:..\..\..\lvgl\version_6.1.2\lvgl\src\lv_objx/lv_calendar.c ****  * @param mask a mask for drawing
 739:..\..\..\lvgl\version_6.1.2\lvgl\src\lv_objx/lv_calendar.c ****  */
 740:..\..\..\lvgl\version_6.1.2\lvgl\src\lv_objx/lv_calendar.c **** static void draw_days(lv_obj_t * calendar, const lv_area_t * mask)
 741:..\..\..\lvgl\version_6.1.2\lvgl\src\lv_objx/lv_calendar.c **** {
 2937              		.loc 3 741 0
 2938              		.cfi_startproc
 2939              		@ args = 0, pretend = 0, frame = 88
 2940              		@ frame_needed = 1, uses_anonymous_args = 0
 2941 0000 90B5     		push	{r4, r7, lr}
 2942              		.cfi_def_cfa_offset 12
 2943              		.cfi_offset 4, -12
ARM GAS  C:\Users\tmj32\AppData\Local\Temp\cc0vWRpX.s 			page 70


 2944              		.cfi_offset 7, -8
 2945              		.cfi_offset 14, -4
 2946 0002 9DB0     		sub	sp, sp, #116
 2947              		.cfi_def_cfa_offset 128
 2948 0004 06AF     		add	r7, sp, #24
 2949              		.cfi_def_cfa 7, 104
 2950 0006 7860     		str	r0, [r7, #4]
 2951 0008 3960     		str	r1, [r7]
 742:..\..\..\lvgl\version_6.1.2\lvgl\src\lv_objx/lv_calendar.c ****     lv_calendar_ext_t * ext     = lv_obj_get_ext_attr(calendar);
 2952              		.loc 3 742 0
 2953 000a 7868     		ldr	r0, [r7, #4]
 2954 000c FFF7FEFF 		bl	lv_obj_get_ext_attr
 2955 0010 F863     		str	r0, [r7, #60]
 743:..\..\..\lvgl\version_6.1.2\lvgl\src\lv_objx/lv_calendar.c ****     lv_bidi_dir_t bidi_dir = lv_obj_get_base_dir(calendar);
 2956              		.loc 3 743 0
 2957 0012 7868     		ldr	r0, [r7, #4]
 2958 0014 FFF7FEFF 		bl	lv_obj_get_base_dir
 2959 0018 0346     		mov	r3, r0
 2960 001a 87F83B30 		strb	r3, [r7, #59]
 744:..\..\..\lvgl\version_6.1.2\lvgl\src\lv_objx/lv_calendar.c ****     const lv_style_t * style_bg = lv_calendar_get_style(calendar, LV_CALENDAR_STYLE_BG);
 2961              		.loc 3 744 0
 2962 001e 0021     		movs	r1, #0
 2963 0020 7868     		ldr	r0, [r7, #4]
 2964 0022 FFF7FEFF 		bl	lv_calendar_get_style
 2965 0026 7863     		str	r0, [r7, #52]
 745:..\..\..\lvgl\version_6.1.2\lvgl\src\lv_objx/lv_calendar.c ****     lv_area_t label_area;
 746:..\..\..\lvgl\version_6.1.2\lvgl\src\lv_objx/lv_calendar.c ****     lv_opa_t opa_scale = lv_obj_get_opa_scale(calendar);
 2966              		.loc 3 746 0
 2967 0028 7868     		ldr	r0, [r7, #4]
 2968 002a FFF7FEFF 		bl	lv_obj_get_opa_scale
 2969 002e 0346     		mov	r3, r0
 2970 0030 87F83330 		strb	r3, [r7, #51]
 747:..\..\..\lvgl\version_6.1.2\lvgl\src\lv_objx/lv_calendar.c ****     label_area.y1      = calendar->coords.y1 + get_header_height(calendar) + ext->style_day_names->
 2971              		.loc 3 747 0
 2972 0034 7B68     		ldr	r3, [r7, #4]
 2973 0036 B3F91230 		ldrsh	r3, [r3, #18]
 2974 003a 9CB2     		uxth	r4, r3
 2975 003c 7868     		ldr	r0, [r7, #4]
 2976 003e FFF7FEFF 		bl	get_header_height
 2977 0042 0346     		mov	r3, r0
 2978 0044 9BB2     		uxth	r3, r3
 2979 0046 2344     		add	r3, r3, r4
 2980 0048 9AB2     		uxth	r2, r3
 2981 004a FB6B     		ldr	r3, [r7, #60]
 2982 004c 5B6A     		ldr	r3, [r3, #36]
 2983 004e B3F92030 		ldrsh	r3, [r3, #32]
 2984 0052 9BB2     		uxth	r3, r3
 2985 0054 1344     		add	r3, r3, r2
 2986 0056 9CB2     		uxth	r4, r3
 748:..\..\..\lvgl\version_6.1.2\lvgl\src\lv_objx/lv_calendar.c ****                     lv_font_get_line_height(ext->style_day_names->text.font) +
 2987              		.loc 3 748 0
 2988 0058 FB6B     		ldr	r3, [r7, #60]
 2989 005a 5B6A     		ldr	r3, [r3, #36]
 2990 005c 5B6B     		ldr	r3, [r3, #52]
 2991 005e 1846     		mov	r0, r3
 2992 0060 FFF7FEFF 		bl	lv_font_get_line_height
 2993 0064 0346     		mov	r3, r0
ARM GAS  C:\Users\tmj32\AppData\Local\Temp\cc0vWRpX.s 			page 71


 747:..\..\..\lvgl\version_6.1.2\lvgl\src\lv_objx/lv_calendar.c ****     label_area.y1      = calendar->coords.y1 + get_header_height(calendar) + ext->style_day_names->
 2994              		.loc 3 747 0
 2995 0066 9BB2     		uxth	r3, r3
 2996 0068 2344     		add	r3, r3, r4
 2997 006a 9AB2     		uxth	r2, r3
 749:..\..\..\lvgl\version_6.1.2\lvgl\src\lv_objx/lv_calendar.c ****                     ext->style_day_names->body.padding.bottom;
 2998              		.loc 3 749 0
 2999 006c FB6B     		ldr	r3, [r7, #60]
 3000 006e 5B6A     		ldr	r3, [r3, #36]
 3001 0070 B3F92230 		ldrsh	r3, [r3, #34]
 747:..\..\..\lvgl\version_6.1.2\lvgl\src\lv_objx/lv_calendar.c ****     label_area.y1      = calendar->coords.y1 + get_header_height(calendar) + ext->style_day_names->
 3002              		.loc 3 747 0
 3003 0074 9BB2     		uxth	r3, r3
 3004 0076 1344     		add	r3, r3, r2
 3005 0078 9BB2     		uxth	r3, r3
 3006 007a 1BB2     		sxth	r3, r3
 3007 007c 7B84     		strh	r3, [r7, #34]	@ movhi
 750:..\..\..\lvgl\version_6.1.2\lvgl\src\lv_objx/lv_calendar.c ****     label_area.y2 = label_area.y1 + lv_font_get_line_height(style_bg->text.font);
 3008              		.loc 3 750 0
 3009 007e B7F92230 		ldrsh	r3, [r7, #34]
 3010 0082 9CB2     		uxth	r4, r3
 3011 0084 7B6B     		ldr	r3, [r7, #52]
 3012 0086 5B6B     		ldr	r3, [r3, #52]
 3013 0088 1846     		mov	r0, r3
 3014 008a FFF7FEFF 		bl	lv_font_get_line_height
 3015 008e 0346     		mov	r3, r0
 3016 0090 9BB2     		uxth	r3, r3
 3017 0092 2344     		add	r3, r3, r4
 3018 0094 9BB2     		uxth	r3, r3
 3019 0096 1BB2     		sxth	r3, r3
 3020 0098 FB84     		strh	r3, [r7, #38]	@ movhi
 751:..\..\..\lvgl\version_6.1.2\lvgl\src\lv_objx/lv_calendar.c **** 
 752:..\..\..\lvgl\version_6.1.2\lvgl\src\lv_objx/lv_calendar.c ****     lv_coord_t w          = lv_obj_get_width(calendar) - style_bg->body.padding.left - style_bg->bo
 3021              		.loc 3 752 0
 3022 009a 7868     		ldr	r0, [r7, #4]
 3023 009c FFF7FEFF 		bl	lv_obj_get_width
 3024 00a0 0346     		mov	r3, r0
 3025 00a2 9AB2     		uxth	r2, r3
 3026 00a4 7B6B     		ldr	r3, [r7, #52]
 3027 00a6 B3F92430 		ldrsh	r3, [r3, #36]
 3028 00aa 9BB2     		uxth	r3, r3
 3029 00ac D31A     		subs	r3, r2, r3
 3030 00ae 9AB2     		uxth	r2, r3
 3031 00b0 7B6B     		ldr	r3, [r7, #52]
 3032 00b2 B3F92630 		ldrsh	r3, [r3, #38]
 3033 00b6 9BB2     		uxth	r3, r3
 3034 00b8 D31A     		subs	r3, r2, r3
 3035 00ba 9BB2     		uxth	r3, r3
 3036 00bc 3B86     		strh	r3, [r7, #48]	@ movhi
 753:..\..\..\lvgl\version_6.1.2\lvgl\src\lv_objx/lv_calendar.c ****     lv_coord_t h          = calendar->coords.y2 - label_area.y1 - style_bg->body.padding.bottom;
 3037              		.loc 3 753 0
 3038 00be 7B68     		ldr	r3, [r7, #4]
 3039 00c0 B3F91630 		ldrsh	r3, [r3, #22]
 3040 00c4 9AB2     		uxth	r2, r3
 3041 00c6 B7F92230 		ldrsh	r3, [r7, #34]
 3042 00ca 9BB2     		uxth	r3, r3
 3043 00cc D31A     		subs	r3, r2, r3
ARM GAS  C:\Users\tmj32\AppData\Local\Temp\cc0vWRpX.s 			page 72


 3044 00ce 9AB2     		uxth	r2, r3
 3045 00d0 7B6B     		ldr	r3, [r7, #52]
 3046 00d2 B3F92230 		ldrsh	r3, [r3, #34]
 3047 00d6 9BB2     		uxth	r3, r3
 3048 00d8 D31A     		subs	r3, r2, r3
 3049 00da 9BB2     		uxth	r3, r3
 3050 00dc FB85     		strh	r3, [r7, #46]	@ movhi
 754:..\..\..\lvgl\version_6.1.2\lvgl\src\lv_objx/lv_calendar.c ****     lv_coord_t box_w      = w / 7;
 3051              		.loc 3 754 0
 3052 00de B7F93030 		ldrsh	r3, [r7, #48]
 3053 00e2 784A     		ldr	r2, .L158
 3054 00e4 82FB0312 		smull	r1, r2, r2, r3
 3055 00e8 1A44     		add	r2, r2, r3
 3056 00ea 9210     		asrs	r2, r2, #2
 3057 00ec DB17     		asrs	r3, r3, #31
 3058 00ee D31A     		subs	r3, r2, r3
 3059 00f0 BB85     		strh	r3, [r7, #44]	@ movhi
 755:..\..\..\lvgl\version_6.1.2\lvgl\src\lv_objx/lv_calendar.c ****     lv_coord_t vert_space = (h - (6 * lv_font_get_line_height(style_bg->text.font))) / 5;
 3060              		.loc 3 755 0
 3061 00f2 B7F92E40 		ldrsh	r4, [r7, #46]
 3062 00f6 7B6B     		ldr	r3, [r7, #52]
 3063 00f8 5B6B     		ldr	r3, [r3, #52]
 3064 00fa 1846     		mov	r0, r3
 3065 00fc FFF7FEFF 		bl	lv_font_get_line_height
 3066 0100 0346     		mov	r3, r0
 3067 0102 1A46     		mov	r2, r3
 3068 0104 1346     		mov	r3, r2
 3069 0106 9200     		lsls	r2, r2, #2
 3070 0108 9B1A     		subs	r3, r3, r2
 3071 010a 5B00     		lsls	r3, r3, #1
 3072 010c 2344     		add	r3, r3, r4
 3073 010e 6E4A     		ldr	r2, .L158+4
 3074 0110 82FB0312 		smull	r1, r2, r2, r3
 3075 0114 5210     		asrs	r2, r2, #1
 3076 0116 DB17     		asrs	r3, r3, #31
 3077 0118 D31A     		subs	r3, r2, r3
 3078 011a 7B85     		strh	r3, [r7, #42]	@ movhi
 756:..\..\..\lvgl\version_6.1.2\lvgl\src\lv_objx/lv_calendar.c **** 
 757:..\..\..\lvgl\version_6.1.2\lvgl\src\lv_objx/lv_calendar.c ****     uint32_t week;
 758:..\..\..\lvgl\version_6.1.2\lvgl\src\lv_objx/lv_calendar.c ****     uint8_t day_cnt;
 759:..\..\..\lvgl\version_6.1.2\lvgl\src\lv_objx/lv_calendar.c ****     uint8_t month_start_day = get_day_of_week(ext->showed_date.year, ext->showed_date.month, 1);
 3079              		.loc 3 759 0
 3080 011c FB6B     		ldr	r3, [r7, #60]
 3081 011e 9B88     		ldrh	r3, [r3, #4]
 3082 0120 1846     		mov	r0, r3
 3083 0122 FB6B     		ldr	r3, [r7, #60]
 3084 0124 93F90630 		ldrsb	r3, [r3, #6]
 3085 0128 0122     		movs	r2, #1
 3086 012a 1946     		mov	r1, r3
 3087 012c FFF7FEFF 		bl	get_day_of_week
 3088 0130 0346     		mov	r3, r0
 3089 0132 87F82930 		strb	r3, [r7, #41]
 760:..\..\..\lvgl\version_6.1.2\lvgl\src\lv_objx/lv_calendar.c ****     day_draw_state_t draw_state; /*true: Not the prev. or next month is drawn*/
 761:..\..\..\lvgl\version_6.1.2\lvgl\src\lv_objx/lv_calendar.c ****     const lv_style_t * act_style;
 762:..\..\..\lvgl\version_6.1.2\lvgl\src\lv_objx/lv_calendar.c **** 
 763:..\..\..\lvgl\version_6.1.2\lvgl\src\lv_objx/lv_calendar.c ****     /*If starting with the first day of the week then the previous month is not visible*/
 764:..\..\..\lvgl\version_6.1.2\lvgl\src\lv_objx/lv_calendar.c ****     if(month_start_day == 0) {
ARM GAS  C:\Users\tmj32\AppData\Local\Temp\cc0vWRpX.s 			page 73


 3090              		.loc 3 764 0
 3091 0136 97F82930 		ldrb	r3, [r7, #41]	@ zero_extendqisi2
 3092 013a 002B     		cmp	r3, #0
 3093 013c 08D1     		bne	.L134
 765:..\..\..\lvgl\version_6.1.2\lvgl\src\lv_objx/lv_calendar.c ****         day_cnt    = 1;
 3094              		.loc 3 765 0
 3095 013e 0123     		movs	r3, #1
 3096 0140 87F85330 		strb	r3, [r7, #83]
 766:..\..\..\lvgl\version_6.1.2\lvgl\src\lv_objx/lv_calendar.c ****         draw_state = DAY_DRAW_ACT_MONTH;
 3097              		.loc 3 766 0
 3098 0144 0123     		movs	r3, #1
 3099 0146 87F85230 		strb	r3, [r7, #82]
 767:..\..\..\lvgl\version_6.1.2\lvgl\src\lv_objx/lv_calendar.c ****         act_style  = style_bg;
 3100              		.loc 3 767 0
 3101 014a 7B6B     		ldr	r3, [r7, #52]
 3102 014c FB64     		str	r3, [r7, #76]
 3103 014e 1CE0     		b	.L135
 3104              	.L134:
 768:..\..\..\lvgl\version_6.1.2\lvgl\src\lv_objx/lv_calendar.c ****     } else {
 769:..\..\..\lvgl\version_6.1.2\lvgl\src\lv_objx/lv_calendar.c ****         draw_state = DAY_DRAW_PREV_MONTH;
 3105              		.loc 3 769 0
 3106 0150 0023     		movs	r3, #0
 3107 0152 87F85230 		strb	r3, [r7, #82]
 770:..\..\..\lvgl\version_6.1.2\lvgl\src\lv_objx/lv_calendar.c ****         day_cnt = get_month_length(ext->showed_date.year, ext->showed_date.month - 1); /*Length of 
 3108              		.loc 3 770 0
 3109 0156 FB6B     		ldr	r3, [r7, #60]
 3110 0158 9B88     		ldrh	r3, [r3, #4]
 3111 015a 1A46     		mov	r2, r3
 3112 015c FB6B     		ldr	r3, [r7, #60]
 3113 015e 93F90630 		ldrsb	r3, [r3, #6]
 3114 0162 013B     		subs	r3, r3, #1
 3115 0164 1946     		mov	r1, r3
 3116 0166 1046     		mov	r0, r2
 3117 0168 FFF7FEFF 		bl	get_month_length
 3118 016c 0346     		mov	r3, r0
 3119 016e 87F85330 		strb	r3, [r7, #83]
 771:..\..\..\lvgl\version_6.1.2\lvgl\src\lv_objx/lv_calendar.c ****         day_cnt -= month_start_day - 1; /*First visible number of the previous month*/
 3120              		.loc 3 771 0
 3121 0172 97F85320 		ldrb	r2, [r7, #83]
 3122 0176 97F82930 		ldrb	r3, [r7, #41]
 3123 017a D31A     		subs	r3, r2, r3
 3124 017c DBB2     		uxtb	r3, r3
 3125 017e 0133     		adds	r3, r3, #1
 3126 0180 87F85330 		strb	r3, [r7, #83]
 772:..\..\..\lvgl\version_6.1.2\lvgl\src\lv_objx/lv_calendar.c ****         act_style = ext->style_inactive_days;
 3127              		.loc 3 772 0
 3128 0184 FB6B     		ldr	r3, [r7, #60]
 3129 0186 DB6A     		ldr	r3, [r3, #44]
 3130 0188 FB64     		str	r3, [r7, #76]
 3131              	.L135:
 773:..\..\..\lvgl\version_6.1.2\lvgl\src\lv_objx/lv_calendar.c ****     }
 774:..\..\..\lvgl\version_6.1.2\lvgl\src\lv_objx/lv_calendar.c **** 
 775:..\..\..\lvgl\version_6.1.2\lvgl\src\lv_objx/lv_calendar.c ****     bool month_of_today_shown = false;
 3132              		.loc 3 775 0
 3133 018a 0023     		movs	r3, #0
 3134 018c 87F84B30 		strb	r3, [r7, #75]
 776:..\..\..\lvgl\version_6.1.2\lvgl\src\lv_objx/lv_calendar.c ****     if(ext->showed_date.year == ext->today.year && ext->showed_date.month == ext->today.month) {
ARM GAS  C:\Users\tmj32\AppData\Local\Temp\cc0vWRpX.s 			page 74


 3135              		.loc 3 776 0
 3136 0190 FB6B     		ldr	r3, [r7, #60]
 3137 0192 9A88     		ldrh	r2, [r3, #4]
 3138 0194 FB6B     		ldr	r3, [r7, #60]
 3139 0196 1B88     		ldrh	r3, [r3]
 3140 0198 9A42     		cmp	r2, r3
 3141 019a 0AD1     		bne	.L136
 3142              		.loc 3 776 0 is_stmt 0 discriminator 1
 3143 019c FB6B     		ldr	r3, [r7, #60]
 3144 019e 93F90620 		ldrsb	r2, [r3, #6]
 3145 01a2 FB6B     		ldr	r3, [r7, #60]
 3146 01a4 93F90230 		ldrsb	r3, [r3, #2]
 3147 01a8 9A42     		cmp	r2, r3
 3148 01aa 02D1     		bne	.L136
 777:..\..\..\lvgl\version_6.1.2\lvgl\src\lv_objx/lv_calendar.c ****         month_of_today_shown = true;
 3149              		.loc 3 777 0 is_stmt 1
 3150 01ac 0123     		movs	r3, #1
 3151 01ae 87F84B30 		strb	r3, [r7, #75]
 3152              	.L136:
 778:..\..\..\lvgl\version_6.1.2\lvgl\src\lv_objx/lv_calendar.c ****     }
 779:..\..\..\lvgl\version_6.1.2\lvgl\src\lv_objx/lv_calendar.c **** 
 780:..\..\..\lvgl\version_6.1.2\lvgl\src\lv_objx/lv_calendar.c ****     char buf[3];
 781:..\..\..\lvgl\version_6.1.2\lvgl\src\lv_objx/lv_calendar.c ****     bool in_week_box = false;
 3153              		.loc 3 781 0
 3154 01b2 0023     		movs	r3, #0
 3155 01b4 87F84A30 		strb	r3, [r7, #74]
 782:..\..\..\lvgl\version_6.1.2\lvgl\src\lv_objx/lv_calendar.c **** 
 783:..\..\..\lvgl\version_6.1.2\lvgl\src\lv_objx/lv_calendar.c ****     /*Draw 6 weeks*/
 784:..\..\..\lvgl\version_6.1.2\lvgl\src\lv_objx/lv_calendar.c ****     for(week = 0; week < 6; week++) {
 3156              		.loc 3 784 0
 3157 01b8 0023     		movs	r3, #0
 3158 01ba 7B65     		str	r3, [r7, #84]
 3159 01bc EEE1     		b	.L137
 3160              	.L157:
 3161              	.LBB10:
 785:..\..\..\lvgl\version_6.1.2\lvgl\src\lv_objx/lv_calendar.c **** 
 786:..\..\..\lvgl\version_6.1.2\lvgl\src\lv_objx/lv_calendar.c ****         /*Draw the "week box"*/
 787:..\..\..\lvgl\version_6.1.2\lvgl\src\lv_objx/lv_calendar.c ****         if(month_of_today_shown &&
 3162              		.loc 3 787 0
 3163 01be 97F84B30 		ldrb	r3, [r7, #75]	@ zero_extendqisi2
 3164 01c2 002B     		cmp	r3, #0
 3165 01c4 78D0     		beq	.L138
 3166              		.loc 3 787 0 is_stmt 0 discriminator 1
 3167 01c6 97F85230 		ldrb	r3, [r7, #82]	@ zero_extendqisi2
 3168 01ca 012B     		cmp	r3, #1
 3169 01cc 10D1     		bne	.L139
 788:..\..\..\lvgl\version_6.1.2\lvgl\src\lv_objx/lv_calendar.c ****            ((draw_state == DAY_DRAW_ACT_MONTH && ext->today.day >= day_cnt && ext->today.day < day_
 3170              		.loc 3 788 0 is_stmt 1
 3171 01ce FB6B     		ldr	r3, [r7, #60]
 3172 01d0 93F90330 		ldrsb	r3, [r3, #3]
 3173 01d4 1A46     		mov	r2, r3
 3174 01d6 97F85330 		ldrb	r3, [r7, #83]	@ zero_extendqisi2
 3175 01da 9A42     		cmp	r2, r3
 3176 01dc 08DB     		blt	.L139
 3177              		.loc 3 788 0 is_stmt 0 discriminator 1
 3178 01de FB6B     		ldr	r3, [r7, #60]
 3179 01e0 93F90330 		ldrsb	r3, [r3, #3]
ARM GAS  C:\Users\tmj32\AppData\Local\Temp\cc0vWRpX.s 			page 75


 3180 01e4 1A46     		mov	r2, r3
 3181 01e6 97F85330 		ldrb	r3, [r7, #83]	@ zero_extendqisi2
 3182 01ea 0733     		adds	r3, r3, #7
 3183 01ec 9A42     		cmp	r2, r3
 3184 01ee 10DB     		blt	.L140
 3185              	.L139:
 3186              		.loc 3 788 0 discriminator 3
 3187 01f0 97F85230 		ldrb	r3, [r7, #82]	@ zero_extendqisi2
 3188 01f4 002B     		cmp	r3, #0
 3189 01f6 5FD1     		bne	.L138
 789:..\..\..\lvgl\version_6.1.2\lvgl\src\lv_objx/lv_calendar.c ****             (draw_state == DAY_DRAW_PREV_MONTH && ext->today.day <= 7 - month_start_day && week == 
 3190              		.loc 3 789 0 is_stmt 1
 3191 01f8 FB6B     		ldr	r3, [r7, #60]
 3192 01fa 93F90330 		ldrsb	r3, [r3, #3]
 3193 01fe 1A46     		mov	r2, r3
 3194 0200 97F82930 		ldrb	r3, [r7, #41]	@ zero_extendqisi2
 3195 0204 C3F10703 		rsb	r3, r3, #7
 3196 0208 9A42     		cmp	r2, r3
 3197 020a 55DC     		bgt	.L138
 3198              		.loc 3 789 0 is_stmt 0 discriminator 1
 3199 020c 7B6D     		ldr	r3, [r7, #84]
 3200 020e 002B     		cmp	r3, #0
 3201 0210 52D1     		bne	.L138
 3202              	.L140:
 3203              	.LBB11:
 790:..\..\..\lvgl\version_6.1.2\lvgl\src\lv_objx/lv_calendar.c ****             lv_area_t week_box_area;
 791:..\..\..\lvgl\version_6.1.2\lvgl\src\lv_objx/lv_calendar.c ****             lv_area_copy(&week_box_area, &label_area); /*'label_area' is already set for this row*/
 3204              		.loc 3 791 0 is_stmt 1
 3205 0212 07F12002 		add	r2, r7, #32
 3206 0216 07F11403 		add	r3, r7, #20
 3207 021a 1146     		mov	r1, r2
 3208 021c 1846     		mov	r0, r3
 3209 021e FFF7FEFF 		bl	lv_area_copy
 792:..\..\..\lvgl\version_6.1.2\lvgl\src\lv_objx/lv_calendar.c ****             week_box_area.x1 =
 793:..\..\..\lvgl\version_6.1.2\lvgl\src\lv_objx/lv_calendar.c ****                 calendar->coords.x1 + style_bg->body.padding.left - ext->style_week_box->body.paddi
 3210              		.loc 3 793 0
 3211 0222 7B68     		ldr	r3, [r7, #4]
 3212 0224 B3F91030 		ldrsh	r3, [r3, #16]
 792:..\..\..\lvgl\version_6.1.2\lvgl\src\lv_objx/lv_calendar.c ****             week_box_area.x1 =
 3213              		.loc 3 792 0
 3214 0228 9AB2     		uxth	r2, r3
 3215              		.loc 3 793 0
 3216 022a 7B6B     		ldr	r3, [r7, #52]
 3217 022c B3F92430 		ldrsh	r3, [r3, #36]
 792:..\..\..\lvgl\version_6.1.2\lvgl\src\lv_objx/lv_calendar.c ****             week_box_area.x1 =
 3218              		.loc 3 792 0
 3219 0230 9BB2     		uxth	r3, r3
 3220 0232 1344     		add	r3, r3, r2
 3221 0234 9AB2     		uxth	r2, r3
 3222              		.loc 3 793 0
 3223 0236 FB6B     		ldr	r3, [r7, #60]
 3224 0238 1B6B     		ldr	r3, [r3, #48]
 3225 023a B3F92430 		ldrsh	r3, [r3, #36]
 792:..\..\..\lvgl\version_6.1.2\lvgl\src\lv_objx/lv_calendar.c ****             week_box_area.x1 =
 3226              		.loc 3 792 0
 3227 023e 9BB2     		uxth	r3, r3
 3228 0240 D31A     		subs	r3, r2, r3
ARM GAS  C:\Users\tmj32\AppData\Local\Temp\cc0vWRpX.s 			page 76


 3229 0242 9BB2     		uxth	r3, r3
 3230 0244 1BB2     		sxth	r3, r3
 3231 0246 BB82     		strh	r3, [r7, #20]	@ movhi
 794:..\..\..\lvgl\version_6.1.2\lvgl\src\lv_objx/lv_calendar.c ****             week_box_area.x2 =
 795:..\..\..\lvgl\version_6.1.2\lvgl\src\lv_objx/lv_calendar.c ****                 calendar->coords.x2 - style_bg->body.padding.right + ext->style_week_box->body.padd
 3232              		.loc 3 795 0
 3233 0248 7B68     		ldr	r3, [r7, #4]
 3234 024a B3F91430 		ldrsh	r3, [r3, #20]
 794:..\..\..\lvgl\version_6.1.2\lvgl\src\lv_objx/lv_calendar.c ****             week_box_area.x2 =
 3235              		.loc 3 794 0
 3236 024e 9AB2     		uxth	r2, r3
 3237              		.loc 3 795 0
 3238 0250 7B6B     		ldr	r3, [r7, #52]
 3239 0252 B3F92630 		ldrsh	r3, [r3, #38]
 794:..\..\..\lvgl\version_6.1.2\lvgl\src\lv_objx/lv_calendar.c ****             week_box_area.x2 =
 3240              		.loc 3 794 0
 3241 0256 9BB2     		uxth	r3, r3
 3242 0258 D31A     		subs	r3, r2, r3
 3243 025a 9AB2     		uxth	r2, r3
 3244              		.loc 3 795 0
 3245 025c FB6B     		ldr	r3, [r7, #60]
 3246 025e 1B6B     		ldr	r3, [r3, #48]
 3247 0260 B3F92630 		ldrsh	r3, [r3, #38]
 794:..\..\..\lvgl\version_6.1.2\lvgl\src\lv_objx/lv_calendar.c ****             week_box_area.x2 =
 3248              		.loc 3 794 0
 3249 0264 9BB2     		uxth	r3, r3
 3250 0266 1344     		add	r3, r3, r2
 3251 0268 9BB2     		uxth	r3, r3
 3252 026a 1BB2     		sxth	r3, r3
 3253 026c 3B83     		strh	r3, [r7, #24]	@ movhi
 796:..\..\..\lvgl\version_6.1.2\lvgl\src\lv_objx/lv_calendar.c **** 
 797:..\..\..\lvgl\version_6.1.2\lvgl\src\lv_objx/lv_calendar.c ****             week_box_area.y1 -= ext->style_week_box->body.padding.top;
 3254              		.loc 3 797 0
 3255 026e B7F91630 		ldrsh	r3, [r7, #22]
 3256 0272 9AB2     		uxth	r2, r3
 3257 0274 FB6B     		ldr	r3, [r7, #60]
 3258 0276 1B6B     		ldr	r3, [r3, #48]
 3259 0278 B3F92030 		ldrsh	r3, [r3, #32]
 3260 027c 9BB2     		uxth	r3, r3
 3261 027e D31A     		subs	r3, r2, r3
 3262 0280 9BB2     		uxth	r3, r3
 3263 0282 1BB2     		sxth	r3, r3
 3264 0284 FB82     		strh	r3, [r7, #22]	@ movhi
 798:..\..\..\lvgl\version_6.1.2\lvgl\src\lv_objx/lv_calendar.c ****             week_box_area.y2 += ext->style_week_box->body.padding.bottom;
 3265              		.loc 3 798 0
 3266 0286 B7F91A30 		ldrsh	r3, [r7, #26]
 3267 028a 9AB2     		uxth	r2, r3
 3268 028c FB6B     		ldr	r3, [r7, #60]
 3269 028e 1B6B     		ldr	r3, [r3, #48]
 3270 0290 B3F92230 		ldrsh	r3, [r3, #34]
 3271 0294 9BB2     		uxth	r3, r3
 3272 0296 1344     		add	r3, r3, r2
 3273 0298 9BB2     		uxth	r3, r3
 3274 029a 1BB2     		sxth	r3, r3
 3275 029c 7B83     		strh	r3, [r7, #26]	@ movhi
 799:..\..\..\lvgl\version_6.1.2\lvgl\src\lv_objx/lv_calendar.c ****             lv_draw_rect(&week_box_area, mask, ext->style_week_box, opa_scale);
 3276              		.loc 3 799 0
ARM GAS  C:\Users\tmj32\AppData\Local\Temp\cc0vWRpX.s 			page 77


 3277 029e FB6B     		ldr	r3, [r7, #60]
 3278 02a0 1A6B     		ldr	r2, [r3, #48]
 3279 02a2 97F83330 		ldrb	r3, [r7, #51]	@ zero_extendqisi2
 3280 02a6 07F11400 		add	r0, r7, #20
 3281 02aa 3968     		ldr	r1, [r7]
 3282 02ac FFF7FEFF 		bl	lv_draw_rect
 800:..\..\..\lvgl\version_6.1.2\lvgl\src\lv_objx/lv_calendar.c **** 
 801:..\..\..\lvgl\version_6.1.2\lvgl\src\lv_objx/lv_calendar.c ****             in_week_box = true;
 3283              		.loc 3 801 0
 3284 02b0 0123     		movs	r3, #1
 3285 02b2 87F84A30 		strb	r3, [r7, #74]
 3286              	.LBE11:
 789:..\..\..\lvgl\version_6.1.2\lvgl\src\lv_objx/lv_calendar.c ****             lv_area_t week_box_area;
 3287              		.loc 3 789 0
 3288 02b6 02E0     		b	.L141
 3289              	.L138:
 802:..\..\..\lvgl\version_6.1.2\lvgl\src\lv_objx/lv_calendar.c ****         } else {
 803:..\..\..\lvgl\version_6.1.2\lvgl\src\lv_objx/lv_calendar.c ****             in_week_box = false;
 3290              		.loc 3 803 0
 3291 02b8 0023     		movs	r3, #0
 3292 02ba 87F84A30 		strb	r3, [r7, #74]
 3293              	.L141:
 804:..\..\..\lvgl\version_6.1.2\lvgl\src\lv_objx/lv_calendar.c ****         }
 805:..\..\..\lvgl\version_6.1.2\lvgl\src\lv_objx/lv_calendar.c **** 
 806:..\..\..\lvgl\version_6.1.2\lvgl\src\lv_objx/lv_calendar.c ****         /*Draw the 7 days of a week*/
 807:..\..\..\lvgl\version_6.1.2\lvgl\src\lv_objx/lv_calendar.c ****         uint32_t day;
 808:..\..\..\lvgl\version_6.1.2\lvgl\src\lv_objx/lv_calendar.c ****         for(day = 0; day < 7; day++) {
 3294              		.loc 3 808 0
 3295 02be 0023     		movs	r3, #0
 3296 02c0 7B64     		str	r3, [r7, #68]
 3297 02c2 42E1     		b	.L142
 3298              	.L159:
 3299              		.align	2
 3300              	.L158:
 3301 02c4 93244992 		.word	-1840700269
 3302 02c8 67666666 		.word	1717986919
 3303              	.L156:
 3304              	.LBB12:
 809:..\..\..\lvgl\version_6.1.2\lvgl\src\lv_objx/lv_calendar.c ****             /*The previous month is over*/
 810:..\..\..\lvgl\version_6.1.2\lvgl\src\lv_objx/lv_calendar.c ****             if(draw_state == DAY_DRAW_PREV_MONTH && day == month_start_day) {
 3305              		.loc 3 810 0
 3306 02cc 97F85230 		ldrb	r3, [r7, #82]	@ zero_extendqisi2
 3307 02d0 002B     		cmp	r3, #0
 3308 02d2 0CD1     		bne	.L143
 3309              		.loc 3 810 0 is_stmt 0 discriminator 1
 3310 02d4 97F82920 		ldrb	r2, [r7, #41]	@ zero_extendqisi2
 3311 02d8 7B6C     		ldr	r3, [r7, #68]
 3312 02da 9A42     		cmp	r2, r3
 3313 02dc 07D1     		bne	.L143
 811:..\..\..\lvgl\version_6.1.2\lvgl\src\lv_objx/lv_calendar.c ****                 draw_state = DAY_DRAW_ACT_MONTH;
 3314              		.loc 3 811 0 is_stmt 1
 3315 02de 0123     		movs	r3, #1
 3316 02e0 87F85230 		strb	r3, [r7, #82]
 812:..\..\..\lvgl\version_6.1.2\lvgl\src\lv_objx/lv_calendar.c ****                 day_cnt    = 1;
 3317              		.loc 3 812 0
 3318 02e4 0123     		movs	r3, #1
 3319 02e6 87F85330 		strb	r3, [r7, #83]
ARM GAS  C:\Users\tmj32\AppData\Local\Temp\cc0vWRpX.s 			page 78


 813:..\..\..\lvgl\version_6.1.2\lvgl\src\lv_objx/lv_calendar.c ****                 act_style  = style_bg;
 3320              		.loc 3 813 0
 3321 02ea 7B6B     		ldr	r3, [r7, #52]
 3322 02ec FB64     		str	r3, [r7, #76]
 3323              	.L143:
 814:..\..\..\lvgl\version_6.1.2\lvgl\src\lv_objx/lv_calendar.c ****             }
 815:..\..\..\lvgl\version_6.1.2\lvgl\src\lv_objx/lv_calendar.c ****             /*The current month is over*/
 816:..\..\..\lvgl\version_6.1.2\lvgl\src\lv_objx/lv_calendar.c ****             if(draw_state == DAY_DRAW_ACT_MONTH &&
 3324              		.loc 3 816 0
 3325 02ee 97F85230 		ldrb	r3, [r7, #82]	@ zero_extendqisi2
 3326 02f2 012B     		cmp	r3, #1
 3327 02f4 18D1     		bne	.L144
 817:..\..\..\lvgl\version_6.1.2\lvgl\src\lv_objx/lv_calendar.c ****                day_cnt > get_month_length(ext->showed_date.year, ext->showed_date.month)) {
 3328              		.loc 3 817 0 discriminator 1
 3329 02f6 FB6B     		ldr	r3, [r7, #60]
 3330 02f8 9B88     		ldrh	r3, [r3, #4]
 3331 02fa 1A46     		mov	r2, r3
 3332 02fc FB6B     		ldr	r3, [r7, #60]
 3333 02fe 93F90630 		ldrsb	r3, [r3, #6]
 3334 0302 1946     		mov	r1, r3
 3335 0304 1046     		mov	r0, r2
 3336 0306 FFF7FEFF 		bl	get_month_length
 3337 030a 0346     		mov	r3, r0
 3338 030c 1A46     		mov	r2, r3
 816:..\..\..\lvgl\version_6.1.2\lvgl\src\lv_objx/lv_calendar.c ****                day_cnt > get_month_length(ext->showed_date.year, ext->showed_date.month)) {
 3339              		.loc 3 816 0 discriminator 1
 3340 030e 97F85330 		ldrb	r3, [r7, #83]	@ zero_extendqisi2
 3341 0312 9342     		cmp	r3, r2
 3342 0314 08D9     		bls	.L144
 818:..\..\..\lvgl\version_6.1.2\lvgl\src\lv_objx/lv_calendar.c ****                 draw_state = DAY_DRAW_NEXT_MONTH;
 3343              		.loc 3 818 0
 3344 0316 0223     		movs	r3, #2
 3345 0318 87F85230 		strb	r3, [r7, #82]
 819:..\..\..\lvgl\version_6.1.2\lvgl\src\lv_objx/lv_calendar.c ****                 day_cnt    = 1;
 3346              		.loc 3 819 0
 3347 031c 0123     		movs	r3, #1
 3348 031e 87F85330 		strb	r3, [r7, #83]
 820:..\..\..\lvgl\version_6.1.2\lvgl\src\lv_objx/lv_calendar.c ****                 act_style  = ext->style_inactive_days;
 3349              		.loc 3 820 0
 3350 0322 FB6B     		ldr	r3, [r7, #60]
 3351 0324 DB6A     		ldr	r3, [r3, #44]
 3352 0326 FB64     		str	r3, [r7, #76]
