ARM GAS  C:\Users\tmj32\AppData\Local\Temp\ccnLJfS3.s 			page 1


   1              		.syntax unified
   2              		.cpu cortex-m4
   3              		.eabi_attribute 27, 1
   4              		.fpu fpv4-sp-d16
   5              		.eabi_attribute 20, 1
   6              		.eabi_attribute 21, 1
   7              		.eabi_attribute 23, 3
   8              		.eabi_attribute 24, 1
   9              		.eabi_attribute 25, 1
  10              		.eabi_attribute 26, 1
  11              		.eabi_attribute 30, 6
  12              		.eabi_attribute 34, 1
  13              		.eabi_attribute 18, 4
  14              		.thumb
  15              		.syntax unified
  16              		.file	"lv_cont.c"
  17              		.text
  18              	.Ltext0:
  19              		.cfi_sections	.debug_frame
  20              		.section	.text.lv_area_copy,"ax",%progbits
  21              		.align	2
  22              		.thumb
  23              		.thumb_func
  24              		.type	lv_area_copy, %function
  25              	lv_area_copy:
  26              	.LFB10:
  27              		.file 1 "..\\..\\..\\lvgl\\version_6.1.2\\lvgl\\src\\lv_objx\\../lv_core/../lv_misc/lv_area.h"
   1:..\..\..\lvgl\version_6.1.2\lvgl\src\lv_objx\../lv_core/../lv_misc/lv_area.h **** /**
   2:..\..\..\lvgl\version_6.1.2\lvgl\src\lv_objx\../lv_core/../lv_misc/lv_area.h ****  * @file lv_area.h
   3:..\..\..\lvgl\version_6.1.2\lvgl\src\lv_objx\../lv_core/../lv_misc/lv_area.h ****  *
   4:..\..\..\lvgl\version_6.1.2\lvgl\src\lv_objx\../lv_core/../lv_misc/lv_area.h ****  */
   5:..\..\..\lvgl\version_6.1.2\lvgl\src\lv_objx\../lv_core/../lv_misc/lv_area.h **** 
   6:..\..\..\lvgl\version_6.1.2\lvgl\src\lv_objx\../lv_core/../lv_misc/lv_area.h **** #ifndef LV_AREA_H
   7:..\..\..\lvgl\version_6.1.2\lvgl\src\lv_objx\../lv_core/../lv_misc/lv_area.h **** #define LV_AREA_H
   8:..\..\..\lvgl\version_6.1.2\lvgl\src\lv_objx\../lv_core/../lv_misc/lv_area.h **** 
   9:..\..\..\lvgl\version_6.1.2\lvgl\src\lv_objx\../lv_core/../lv_misc/lv_area.h **** #ifdef __cplusplus
  10:..\..\..\lvgl\version_6.1.2\lvgl\src\lv_objx\../lv_core/../lv_misc/lv_area.h **** extern "C" {
  11:..\..\..\lvgl\version_6.1.2\lvgl\src\lv_objx\../lv_core/../lv_misc/lv_area.h **** #endif
  12:..\..\..\lvgl\version_6.1.2\lvgl\src\lv_objx\../lv_core/../lv_misc/lv_area.h **** 
  13:..\..\..\lvgl\version_6.1.2\lvgl\src\lv_objx\../lv_core/../lv_misc/lv_area.h **** /*********************
  14:..\..\..\lvgl\version_6.1.2\lvgl\src\lv_objx\../lv_core/../lv_misc/lv_area.h ****  *      INCLUDES
  15:..\..\..\lvgl\version_6.1.2\lvgl\src\lv_objx\../lv_core/../lv_misc/lv_area.h ****  *********************/
  16:..\..\..\lvgl\version_6.1.2\lvgl\src\lv_objx\../lv_core/../lv_misc/lv_area.h **** #include <string.h>
  17:..\..\..\lvgl\version_6.1.2\lvgl\src\lv_objx\../lv_core/../lv_misc/lv_area.h **** #include <stdbool.h>
  18:..\..\..\lvgl\version_6.1.2\lvgl\src\lv_objx\../lv_core/../lv_misc/lv_area.h **** #include <stdint.h>
  19:..\..\..\lvgl\version_6.1.2\lvgl\src\lv_objx\../lv_core/../lv_misc/lv_area.h **** #ifdef LV_CONF_INCLUDE_SIMPLE
  20:..\..\..\lvgl\version_6.1.2\lvgl\src\lv_objx\../lv_core/../lv_misc/lv_area.h **** #include "lv_conf.h"
  21:..\..\..\lvgl\version_6.1.2\lvgl\src\lv_objx\../lv_core/../lv_misc/lv_area.h **** #else
  22:..\..\..\lvgl\version_6.1.2\lvgl\src\lv_objx\../lv_core/../lv_misc/lv_area.h **** #include "../../../lv_conf.h"
  23:..\..\..\lvgl\version_6.1.2\lvgl\src\lv_objx\../lv_core/../lv_misc/lv_area.h **** #endif
  24:..\..\..\lvgl\version_6.1.2\lvgl\src\lv_objx\../lv_core/../lv_misc/lv_area.h **** 
  25:..\..\..\lvgl\version_6.1.2\lvgl\src\lv_objx\../lv_core/../lv_misc/lv_area.h **** /*********************
  26:..\..\..\lvgl\version_6.1.2\lvgl\src\lv_objx\../lv_core/../lv_misc/lv_area.h ****  *      DEFINES
  27:..\..\..\lvgl\version_6.1.2\lvgl\src\lv_objx\../lv_core/../lv_misc/lv_area.h ****  *********************/
  28:..\..\..\lvgl\version_6.1.2\lvgl\src\lv_objx\../lv_core/../lv_misc/lv_area.h **** /*To avoid overflow don't let the max ranges (reduce with 1000) */
  29:..\..\..\lvgl\version_6.1.2\lvgl\src\lv_objx\../lv_core/../lv_misc/lv_area.h **** #define LV_COORD_MAX ((lv_coord_t)((uint32_t)((uint32_t)1 << (8 * sizeof(lv_coord_t) - 1)) - 1000))
  30:..\..\..\lvgl\version_6.1.2\lvgl\src\lv_objx\../lv_core/../lv_misc/lv_area.h **** #define LV_COORD_MIN (-LV_COORD_MAX)
ARM GAS  C:\Users\tmj32\AppData\Local\Temp\ccnLJfS3.s 			page 2


  31:..\..\..\lvgl\version_6.1.2\lvgl\src\lv_objx\../lv_core/../lv_misc/lv_area.h **** 
  32:..\..\..\lvgl\version_6.1.2\lvgl\src\lv_objx\../lv_core/../lv_misc/lv_area.h **** LV_EXPORT_CONST_INT(LV_COORD_MAX);
  33:..\..\..\lvgl\version_6.1.2\lvgl\src\lv_objx\../lv_core/../lv_misc/lv_area.h **** LV_EXPORT_CONST_INT(LV_COORD_MIN);
  34:..\..\..\lvgl\version_6.1.2\lvgl\src\lv_objx\../lv_core/../lv_misc/lv_area.h **** 
  35:..\..\..\lvgl\version_6.1.2\lvgl\src\lv_objx\../lv_core/../lv_misc/lv_area.h **** /**********************
  36:..\..\..\lvgl\version_6.1.2\lvgl\src\lv_objx\../lv_core/../lv_misc/lv_area.h ****  *      TYPEDEFS
  37:..\..\..\lvgl\version_6.1.2\lvgl\src\lv_objx\../lv_core/../lv_misc/lv_area.h ****  **********************/
  38:..\..\..\lvgl\version_6.1.2\lvgl\src\lv_objx\../lv_core/../lv_misc/lv_area.h **** 
  39:..\..\..\lvgl\version_6.1.2\lvgl\src\lv_objx\../lv_core/../lv_misc/lv_area.h **** /**
  40:..\..\..\lvgl\version_6.1.2\lvgl\src\lv_objx\../lv_core/../lv_misc/lv_area.h ****  * Represents a point on the screen.
  41:..\..\..\lvgl\version_6.1.2\lvgl\src\lv_objx\../lv_core/../lv_misc/lv_area.h ****  */
  42:..\..\..\lvgl\version_6.1.2\lvgl\src\lv_objx\../lv_core/../lv_misc/lv_area.h **** typedef struct
  43:..\..\..\lvgl\version_6.1.2\lvgl\src\lv_objx\../lv_core/../lv_misc/lv_area.h **** {
  44:..\..\..\lvgl\version_6.1.2\lvgl\src\lv_objx\../lv_core/../lv_misc/lv_area.h ****     lv_coord_t x;
  45:..\..\..\lvgl\version_6.1.2\lvgl\src\lv_objx\../lv_core/../lv_misc/lv_area.h ****     lv_coord_t y;
  46:..\..\..\lvgl\version_6.1.2\lvgl\src\lv_objx\../lv_core/../lv_misc/lv_area.h **** } lv_point_t;
  47:..\..\..\lvgl\version_6.1.2\lvgl\src\lv_objx\../lv_core/../lv_misc/lv_area.h **** 
  48:..\..\..\lvgl\version_6.1.2\lvgl\src\lv_objx\../lv_core/../lv_misc/lv_area.h **** /** Represents an area of the screen. */
  49:..\..\..\lvgl\version_6.1.2\lvgl\src\lv_objx\../lv_core/../lv_misc/lv_area.h **** typedef struct
  50:..\..\..\lvgl\version_6.1.2\lvgl\src\lv_objx\../lv_core/../lv_misc/lv_area.h **** {
  51:..\..\..\lvgl\version_6.1.2\lvgl\src\lv_objx\../lv_core/../lv_misc/lv_area.h ****     lv_coord_t x1;
  52:..\..\..\lvgl\version_6.1.2\lvgl\src\lv_objx\../lv_core/../lv_misc/lv_area.h ****     lv_coord_t y1;
  53:..\..\..\lvgl\version_6.1.2\lvgl\src\lv_objx\../lv_core/../lv_misc/lv_area.h ****     lv_coord_t x2;
  54:..\..\..\lvgl\version_6.1.2\lvgl\src\lv_objx\../lv_core/../lv_misc/lv_area.h ****     lv_coord_t y2;
  55:..\..\..\lvgl\version_6.1.2\lvgl\src\lv_objx\../lv_core/../lv_misc/lv_area.h **** } lv_area_t;
  56:..\..\..\lvgl\version_6.1.2\lvgl\src\lv_objx\../lv_core/../lv_misc/lv_area.h **** 
  57:..\..\..\lvgl\version_6.1.2\lvgl\src\lv_objx\../lv_core/../lv_misc/lv_area.h **** /**********************
  58:..\..\..\lvgl\version_6.1.2\lvgl\src\lv_objx\../lv_core/../lv_misc/lv_area.h ****  * GLOBAL PROTOTYPES
  59:..\..\..\lvgl\version_6.1.2\lvgl\src\lv_objx\../lv_core/../lv_misc/lv_area.h ****  **********************/
  60:..\..\..\lvgl\version_6.1.2\lvgl\src\lv_objx\../lv_core/../lv_misc/lv_area.h **** 
  61:..\..\..\lvgl\version_6.1.2\lvgl\src\lv_objx\../lv_core/../lv_misc/lv_area.h **** /**
  62:..\..\..\lvgl\version_6.1.2\lvgl\src\lv_objx\../lv_core/../lv_misc/lv_area.h ****  * Initialize an area
  63:..\..\..\lvgl\version_6.1.2\lvgl\src\lv_objx\../lv_core/../lv_misc/lv_area.h ****  * @param area_p pointer to an area
  64:..\..\..\lvgl\version_6.1.2\lvgl\src\lv_objx\../lv_core/../lv_misc/lv_area.h ****  * @param x1 left coordinate of the area
  65:..\..\..\lvgl\version_6.1.2\lvgl\src\lv_objx\../lv_core/../lv_misc/lv_area.h ****  * @param y1 top coordinate of the area
  66:..\..\..\lvgl\version_6.1.2\lvgl\src\lv_objx\../lv_core/../lv_misc/lv_area.h ****  * @param x2 right coordinate of the area
  67:..\..\..\lvgl\version_6.1.2\lvgl\src\lv_objx\../lv_core/../lv_misc/lv_area.h ****  * @param y2 bottom coordinate of the area
  68:..\..\..\lvgl\version_6.1.2\lvgl\src\lv_objx\../lv_core/../lv_misc/lv_area.h ****  */
  69:..\..\..\lvgl\version_6.1.2\lvgl\src\lv_objx\../lv_core/../lv_misc/lv_area.h **** void lv_area_set(lv_area_t * area_p, lv_coord_t x1, lv_coord_t y1, lv_coord_t x2, lv_coord_t y2);
  70:..\..\..\lvgl\version_6.1.2\lvgl\src\lv_objx\../lv_core/../lv_misc/lv_area.h **** 
  71:..\..\..\lvgl\version_6.1.2\lvgl\src\lv_objx\../lv_core/../lv_misc/lv_area.h **** /**
  72:..\..\..\lvgl\version_6.1.2\lvgl\src\lv_objx\../lv_core/../lv_misc/lv_area.h ****  * Copy an area
  73:..\..\..\lvgl\version_6.1.2\lvgl\src\lv_objx\../lv_core/../lv_misc/lv_area.h ****  * @param dest pointer to the destination area
  74:..\..\..\lvgl\version_6.1.2\lvgl\src\lv_objx\../lv_core/../lv_misc/lv_area.h ****  * @param src pointer to the source area
  75:..\..\..\lvgl\version_6.1.2\lvgl\src\lv_objx\../lv_core/../lv_misc/lv_area.h ****  */
  76:..\..\..\lvgl\version_6.1.2\lvgl\src\lv_objx\../lv_core/../lv_misc/lv_area.h **** inline static void lv_area_copy(lv_area_t * dest, const lv_area_t * src)
  77:..\..\..\lvgl\version_6.1.2\lvgl\src\lv_objx\../lv_core/../lv_misc/lv_area.h **** {
  28              		.loc 1 77 0
  29              		.cfi_startproc
  30              		@ args = 0, pretend = 0, frame = 8
  31              		@ frame_needed = 1, uses_anonymous_args = 0
  32 0000 80B5     		push	{r7, lr}
  33              		.cfi_def_cfa_offset 8
  34              		.cfi_offset 7, -8
  35              		.cfi_offset 14, -4
  36 0002 82B0     		sub	sp, sp, #8
  37              		.cfi_def_cfa_offset 16
ARM GAS  C:\Users\tmj32\AppData\Local\Temp\ccnLJfS3.s 			page 3


  38 0004 00AF     		add	r7, sp, #0
  39              		.cfi_def_cfa_register 7
  40 0006 7860     		str	r0, [r7, #4]
  41 0008 3960     		str	r1, [r7]
  78:..\..\..\lvgl\version_6.1.2\lvgl\src\lv_objx\../lv_core/../lv_misc/lv_area.h ****     memcpy(dest, src, sizeof(lv_area_t));
  42              		.loc 1 78 0
  43 000a 0822     		movs	r2, #8
  44 000c 3968     		ldr	r1, [r7]
  45 000e 7868     		ldr	r0, [r7, #4]
  46 0010 FFF7FEFF 		bl	memcpy
  79:..\..\..\lvgl\version_6.1.2\lvgl\src\lv_objx\../lv_core/../lv_misc/lv_area.h **** }
  47              		.loc 1 79 0
  48 0014 00BF     		nop
  49 0016 0837     		adds	r7, r7, #8
  50              		.cfi_def_cfa_offset 8
  51 0018 BD46     		mov	sp, r7
  52              		.cfi_def_cfa_register 13
  53              		@ sp needed
  54 001a 80BD     		pop	{r7, pc}
  55              		.cfi_endproc
  56              	.LFE10:
  57              		.size	lv_area_copy, .-lv_area_copy
  58              		.section	.text.lv_area_get_width,"ax",%progbits
  59              		.align	2
  60              		.thumb
  61              		.thumb_func
  62              		.type	lv_area_get_width, %function
  63              	lv_area_get_width:
  64              	.LFB11:
  80:..\..\..\lvgl\version_6.1.2\lvgl\src\lv_objx\../lv_core/../lv_misc/lv_area.h **** 
  81:..\..\..\lvgl\version_6.1.2\lvgl\src\lv_objx\../lv_core/../lv_misc/lv_area.h **** /**
  82:..\..\..\lvgl\version_6.1.2\lvgl\src\lv_objx\../lv_core/../lv_misc/lv_area.h ****  * Get the width of an area
  83:..\..\..\lvgl\version_6.1.2\lvgl\src\lv_objx\../lv_core/../lv_misc/lv_area.h ****  * @param area_p pointer to an area
  84:..\..\..\lvgl\version_6.1.2\lvgl\src\lv_objx\../lv_core/../lv_misc/lv_area.h ****  * @return the width of the area (if x1 == x2 -> width = 1)
  85:..\..\..\lvgl\version_6.1.2\lvgl\src\lv_objx\../lv_core/../lv_misc/lv_area.h ****  */
  86:..\..\..\lvgl\version_6.1.2\lvgl\src\lv_objx\../lv_core/../lv_misc/lv_area.h **** static inline lv_coord_t lv_area_get_width(const lv_area_t * area_p)
  87:..\..\..\lvgl\version_6.1.2\lvgl\src\lv_objx\../lv_core/../lv_misc/lv_area.h **** {
  65              		.loc 1 87 0
  66              		.cfi_startproc
  67              		@ args = 0, pretend = 0, frame = 8
  68              		@ frame_needed = 1, uses_anonymous_args = 0
  69              		@ link register save eliminated.
  70 0000 80B4     		push	{r7}
  71              		.cfi_def_cfa_offset 4
  72              		.cfi_offset 7, -4
  73 0002 83B0     		sub	sp, sp, #12
  74              		.cfi_def_cfa_offset 16
  75 0004 00AF     		add	r7, sp, #0
  76              		.cfi_def_cfa_register 7
  77 0006 7860     		str	r0, [r7, #4]
  88:..\..\..\lvgl\version_6.1.2\lvgl\src\lv_objx\../lv_core/../lv_misc/lv_area.h ****     return (lv_coord_t)(area_p->x2 - area_p->x1 + 1);
  78              		.loc 1 88 0
  79 0008 7B68     		ldr	r3, [r7, #4]
  80 000a B3F90430 		ldrsh	r3, [r3, #4]
  81 000e 9AB2     		uxth	r2, r3
  82 0010 7B68     		ldr	r3, [r7, #4]
  83 0012 B3F90030 		ldrsh	r3, [r3]
ARM GAS  C:\Users\tmj32\AppData\Local\Temp\ccnLJfS3.s 			page 4


  84 0016 9BB2     		uxth	r3, r3
  85 0018 D31A     		subs	r3, r2, r3
  86 001a 9BB2     		uxth	r3, r3
  87 001c 0133     		adds	r3, r3, #1
  88 001e 9BB2     		uxth	r3, r3
  89 0020 1BB2     		sxth	r3, r3
  89:..\..\..\lvgl\version_6.1.2\lvgl\src\lv_objx\../lv_core/../lv_misc/lv_area.h **** }
  90              		.loc 1 89 0
  91 0022 1846     		mov	r0, r3
  92 0024 0C37     		adds	r7, r7, #12
  93              		.cfi_def_cfa_offset 4
  94 0026 BD46     		mov	sp, r7
  95              		.cfi_def_cfa_register 13
  96              		@ sp needed
  97 0028 5DF8047B 		ldr	r7, [sp], #4
  98              		.cfi_restore 7
  99              		.cfi_def_cfa_offset 0
 100 002c 7047     		bx	lr
 101              		.cfi_endproc
 102              	.LFE11:
 103              		.size	lv_area_get_width, .-lv_area_get_width
 104 002e 00BF     		.section	.text.lv_area_get_height,"ax",%progbits
 105              		.align	2
 106              		.thumb
 107              		.thumb_func
 108              		.type	lv_area_get_height, %function
 109              	lv_area_get_height:
 110              	.LFB12:
  90:..\..\..\lvgl\version_6.1.2\lvgl\src\lv_objx\../lv_core/../lv_misc/lv_area.h **** 
  91:..\..\..\lvgl\version_6.1.2\lvgl\src\lv_objx\../lv_core/../lv_misc/lv_area.h **** /**
  92:..\..\..\lvgl\version_6.1.2\lvgl\src\lv_objx\../lv_core/../lv_misc/lv_area.h ****  * Get the height of an area
  93:..\..\..\lvgl\version_6.1.2\lvgl\src\lv_objx\../lv_core/../lv_misc/lv_area.h ****  * @param area_p pointer to an area
  94:..\..\..\lvgl\version_6.1.2\lvgl\src\lv_objx\../lv_core/../lv_misc/lv_area.h ****  * @return the height of the area (if y1 == y2 -> height = 1)
  95:..\..\..\lvgl\version_6.1.2\lvgl\src\lv_objx\../lv_core/../lv_misc/lv_area.h ****  */
  96:..\..\..\lvgl\version_6.1.2\lvgl\src\lv_objx\../lv_core/../lv_misc/lv_area.h **** static inline lv_coord_t lv_area_get_height(const lv_area_t * area_p)
  97:..\..\..\lvgl\version_6.1.2\lvgl\src\lv_objx\../lv_core/../lv_misc/lv_area.h **** {
 111              		.loc 1 97 0
 112              		.cfi_startproc
 113              		@ args = 0, pretend = 0, frame = 8
 114              		@ frame_needed = 1, uses_anonymous_args = 0
 115              		@ link register save eliminated.
 116 0000 80B4     		push	{r7}
 117              		.cfi_def_cfa_offset 4
 118              		.cfi_offset 7, -4
 119 0002 83B0     		sub	sp, sp, #12
 120              		.cfi_def_cfa_offset 16
 121 0004 00AF     		add	r7, sp, #0
 122              		.cfi_def_cfa_register 7
 123 0006 7860     		str	r0, [r7, #4]
  98:..\..\..\lvgl\version_6.1.2\lvgl\src\lv_objx\../lv_core/../lv_misc/lv_area.h ****     return (lv_coord_t)(area_p->y2 - area_p->y1 + 1);
 124              		.loc 1 98 0
 125 0008 7B68     		ldr	r3, [r7, #4]
 126 000a B3F90630 		ldrsh	r3, [r3, #6]
 127 000e 9AB2     		uxth	r2, r3
 128 0010 7B68     		ldr	r3, [r7, #4]
 129 0012 B3F90230 		ldrsh	r3, [r3, #2]
 130 0016 9BB2     		uxth	r3, r3
ARM GAS  C:\Users\tmj32\AppData\Local\Temp\ccnLJfS3.s 			page 5


 131 0018 D31A     		subs	r3, r2, r3
 132 001a 9BB2     		uxth	r3, r3
 133 001c 0133     		adds	r3, r3, #1
 134 001e 9BB2     		uxth	r3, r3
 135 0020 1BB2     		sxth	r3, r3
  99:..\..\..\lvgl\version_6.1.2\lvgl\src\lv_objx\../lv_core/../lv_misc/lv_area.h **** }
 136              		.loc 1 99 0
 137 0022 1846     		mov	r0, r3
 138 0024 0C37     		adds	r7, r7, #12
 139              		.cfi_def_cfa_offset 4
 140 0026 BD46     		mov	sp, r7
 141              		.cfi_def_cfa_register 13
 142              		@ sp needed
 143 0028 5DF8047B 		ldr	r7, [sp], #4
 144              		.cfi_restore 7
 145              		.cfi_def_cfa_offset 0
 146 002c 7047     		bx	lr
 147              		.cfi_endproc
 148              	.LFE12:
 149              		.size	lv_area_get_height, .-lv_area_get_height
 150 002e 00BF     		.section	.text.lv_cont_set_style,"ax",%progbits
 151              		.align	2
 152              		.thumb
 153              		.thumb_func
 154              		.type	lv_cont_set_style, %function
 155              	lv_cont_set_style:
 156              	.LFB33:
 157              		.file 2 "..\\..\\..\\lvgl\\version_6.1.2\\lvgl\\src\\lv_objx\\lv_cont.h"
   1:..\..\..\lvgl\version_6.1.2\lvgl\src\lv_objx/lv_cont.h **** /**
   2:..\..\..\lvgl\version_6.1.2\lvgl\src\lv_objx/lv_cont.h ****  * @file lv_cont.h
   3:..\..\..\lvgl\version_6.1.2\lvgl\src\lv_objx/lv_cont.h ****  *
   4:..\..\..\lvgl\version_6.1.2\lvgl\src\lv_objx/lv_cont.h ****  */
   5:..\..\..\lvgl\version_6.1.2\lvgl\src\lv_objx/lv_cont.h **** 
   6:..\..\..\lvgl\version_6.1.2\lvgl\src\lv_objx/lv_cont.h **** #ifndef LV_CONT_H
   7:..\..\..\lvgl\version_6.1.2\lvgl\src\lv_objx/lv_cont.h **** #define LV_CONT_H
   8:..\..\..\lvgl\version_6.1.2\lvgl\src\lv_objx/lv_cont.h **** 
   9:..\..\..\lvgl\version_6.1.2\lvgl\src\lv_objx/lv_cont.h **** #ifdef __cplusplus
  10:..\..\..\lvgl\version_6.1.2\lvgl\src\lv_objx/lv_cont.h **** extern "C" {
  11:..\..\..\lvgl\version_6.1.2\lvgl\src\lv_objx/lv_cont.h **** #endif
  12:..\..\..\lvgl\version_6.1.2\lvgl\src\lv_objx/lv_cont.h **** 
  13:..\..\..\lvgl\version_6.1.2\lvgl\src\lv_objx/lv_cont.h **** /*********************
  14:..\..\..\lvgl\version_6.1.2\lvgl\src\lv_objx/lv_cont.h ****  *      INCLUDES
  15:..\..\..\lvgl\version_6.1.2\lvgl\src\lv_objx/lv_cont.h ****  *********************/
  16:..\..\..\lvgl\version_6.1.2\lvgl\src\lv_objx/lv_cont.h **** #ifdef LV_CONF_INCLUDE_SIMPLE
  17:..\..\..\lvgl\version_6.1.2\lvgl\src\lv_objx/lv_cont.h **** #include "lv_conf.h"
  18:..\..\..\lvgl\version_6.1.2\lvgl\src\lv_objx/lv_cont.h **** #else
  19:..\..\..\lvgl\version_6.1.2\lvgl\src\lv_objx/lv_cont.h **** #include "../../../lv_conf.h"
  20:..\..\..\lvgl\version_6.1.2\lvgl\src\lv_objx/lv_cont.h **** #endif
  21:..\..\..\lvgl\version_6.1.2\lvgl\src\lv_objx/lv_cont.h **** 
  22:..\..\..\lvgl\version_6.1.2\lvgl\src\lv_objx/lv_cont.h **** #if LV_USE_CONT != 0
  23:..\..\..\lvgl\version_6.1.2\lvgl\src\lv_objx/lv_cont.h **** 
  24:..\..\..\lvgl\version_6.1.2\lvgl\src\lv_objx/lv_cont.h **** #include "../lv_core/lv_obj.h"
  25:..\..\..\lvgl\version_6.1.2\lvgl\src\lv_objx/lv_cont.h **** 
  26:..\..\..\lvgl\version_6.1.2\lvgl\src\lv_objx/lv_cont.h **** /*********************
  27:..\..\..\lvgl\version_6.1.2\lvgl\src\lv_objx/lv_cont.h ****  *      DEFINES
  28:..\..\..\lvgl\version_6.1.2\lvgl\src\lv_objx/lv_cont.h ****  *********************/
  29:..\..\..\lvgl\version_6.1.2\lvgl\src\lv_objx/lv_cont.h **** 
ARM GAS  C:\Users\tmj32\AppData\Local\Temp\ccnLJfS3.s 			page 6


  30:..\..\..\lvgl\version_6.1.2\lvgl\src\lv_objx/lv_cont.h **** /**********************
  31:..\..\..\lvgl\version_6.1.2\lvgl\src\lv_objx/lv_cont.h ****  *      TYPEDEFS
  32:..\..\..\lvgl\version_6.1.2\lvgl\src\lv_objx/lv_cont.h ****  **********************/
  33:..\..\..\lvgl\version_6.1.2\lvgl\src\lv_objx/lv_cont.h **** 
  34:..\..\..\lvgl\version_6.1.2\lvgl\src\lv_objx/lv_cont.h **** /** Container layout options*/
  35:..\..\..\lvgl\version_6.1.2\lvgl\src\lv_objx/lv_cont.h **** enum {
  36:..\..\..\lvgl\version_6.1.2\lvgl\src\lv_objx/lv_cont.h ****     LV_LAYOUT_OFF = 0, /**< No layout */
  37:..\..\..\lvgl\version_6.1.2\lvgl\src\lv_objx/lv_cont.h ****     LV_LAYOUT_CENTER, /**< Center objects */
  38:..\..\..\lvgl\version_6.1.2\lvgl\src\lv_objx/lv_cont.h ****     LV_LAYOUT_COL_L,  /**< Column left align*/
  39:..\..\..\lvgl\version_6.1.2\lvgl\src\lv_objx/lv_cont.h ****     LV_LAYOUT_COL_M,  /**< Column middle align*/
  40:..\..\..\lvgl\version_6.1.2\lvgl\src\lv_objx/lv_cont.h ****     LV_LAYOUT_COL_R,  /**< Column right align*/
  41:..\..\..\lvgl\version_6.1.2\lvgl\src\lv_objx/lv_cont.h ****     LV_LAYOUT_ROW_T,  /**< Row top align*/
  42:..\..\..\lvgl\version_6.1.2\lvgl\src\lv_objx/lv_cont.h ****     LV_LAYOUT_ROW_M,  /**< Row middle align*/
  43:..\..\..\lvgl\version_6.1.2\lvgl\src\lv_objx/lv_cont.h ****     LV_LAYOUT_ROW_B,  /**< Row bottom align*/
  44:..\..\..\lvgl\version_6.1.2\lvgl\src\lv_objx/lv_cont.h ****     LV_LAYOUT_PRETTY, /**< Put as many object as possible in row and begin a new row*/
  45:..\..\..\lvgl\version_6.1.2\lvgl\src\lv_objx/lv_cont.h ****     LV_LAYOUT_GRID,   /**< Align same-sized object into a grid*/
  46:..\..\..\lvgl\version_6.1.2\lvgl\src\lv_objx/lv_cont.h ****     _LV_LAYOUT_NUM
  47:..\..\..\lvgl\version_6.1.2\lvgl\src\lv_objx/lv_cont.h **** };
  48:..\..\..\lvgl\version_6.1.2\lvgl\src\lv_objx/lv_cont.h **** typedef uint8_t lv_layout_t;
  49:..\..\..\lvgl\version_6.1.2\lvgl\src\lv_objx/lv_cont.h **** 
  50:..\..\..\lvgl\version_6.1.2\lvgl\src\lv_objx/lv_cont.h **** /**
  51:..\..\..\lvgl\version_6.1.2\lvgl\src\lv_objx/lv_cont.h ****  * How to resize the container around the children.
  52:..\..\..\lvgl\version_6.1.2\lvgl\src\lv_objx/lv_cont.h ****  */
  53:..\..\..\lvgl\version_6.1.2\lvgl\src\lv_objx/lv_cont.h **** enum {
  54:..\..\..\lvgl\version_6.1.2\lvgl\src\lv_objx/lv_cont.h ****     LV_FIT_NONE,  /**< Do not change the size automatically*/
  55:..\..\..\lvgl\version_6.1.2\lvgl\src\lv_objx/lv_cont.h ****     LV_FIT_TIGHT, /**< Shrink wrap around the children */
  56:..\..\..\lvgl\version_6.1.2\lvgl\src\lv_objx/lv_cont.h ****     LV_FIT_FLOOD, /**< Align the size to the parent's edge*/
  57:..\..\..\lvgl\version_6.1.2\lvgl\src\lv_objx/lv_cont.h ****     LV_FIT_FILL,  /**< Align the size to the parent's edge first but if there is an object out of i
  58:..\..\..\lvgl\version_6.1.2\lvgl\src\lv_objx/lv_cont.h ****                      then get larger */
  59:..\..\..\lvgl\version_6.1.2\lvgl\src\lv_objx/lv_cont.h ****     _LV_FIT_NUM
  60:..\..\..\lvgl\version_6.1.2\lvgl\src\lv_objx/lv_cont.h **** };
  61:..\..\..\lvgl\version_6.1.2\lvgl\src\lv_objx/lv_cont.h **** typedef uint8_t lv_fit_t;
  62:..\..\..\lvgl\version_6.1.2\lvgl\src\lv_objx/lv_cont.h **** 
  63:..\..\..\lvgl\version_6.1.2\lvgl\src\lv_objx/lv_cont.h **** typedef struct
  64:..\..\..\lvgl\version_6.1.2\lvgl\src\lv_objx/lv_cont.h **** {
  65:..\..\..\lvgl\version_6.1.2\lvgl\src\lv_objx/lv_cont.h ****     /*Inherited from 'base_obj' so no inherited ext. */ /*Ext. of ancestor*/
  66:..\..\..\lvgl\version_6.1.2\lvgl\src\lv_objx/lv_cont.h ****     /*New data for this type */
  67:..\..\..\lvgl\version_6.1.2\lvgl\src\lv_objx/lv_cont.h ****     uint8_t layout : 4;     /*A layout from 'lv_layout_t' enum*/
  68:..\..\..\lvgl\version_6.1.2\lvgl\src\lv_objx/lv_cont.h ****     uint8_t fit_left : 2;   /*A fit type from `lv_fit_t` enum */
  69:..\..\..\lvgl\version_6.1.2\lvgl\src\lv_objx/lv_cont.h ****     uint8_t fit_right : 2;  /*A fit type from `lv_fit_t` enum */
  70:..\..\..\lvgl\version_6.1.2\lvgl\src\lv_objx/lv_cont.h ****     uint8_t fit_top : 2;    /*A fit type from `lv_fit_t` enum */
  71:..\..\..\lvgl\version_6.1.2\lvgl\src\lv_objx/lv_cont.h ****     uint8_t fit_bottom : 2; /*A fit type from `lv_fit_t` enum */
  72:..\..\..\lvgl\version_6.1.2\lvgl\src\lv_objx/lv_cont.h **** } lv_cont_ext_t;
  73:..\..\..\lvgl\version_6.1.2\lvgl\src\lv_objx/lv_cont.h **** 
  74:..\..\..\lvgl\version_6.1.2\lvgl\src\lv_objx/lv_cont.h **** /*Styles*/
  75:..\..\..\lvgl\version_6.1.2\lvgl\src\lv_objx/lv_cont.h **** enum {
  76:..\..\..\lvgl\version_6.1.2\lvgl\src\lv_objx/lv_cont.h ****     LV_CONT_STYLE_MAIN,
  77:..\..\..\lvgl\version_6.1.2\lvgl\src\lv_objx/lv_cont.h **** };
  78:..\..\..\lvgl\version_6.1.2\lvgl\src\lv_objx/lv_cont.h **** typedef uint8_t lv_cont_style_t;
  79:..\..\..\lvgl\version_6.1.2\lvgl\src\lv_objx/lv_cont.h **** 
  80:..\..\..\lvgl\version_6.1.2\lvgl\src\lv_objx/lv_cont.h **** /**********************
  81:..\..\..\lvgl\version_6.1.2\lvgl\src\lv_objx/lv_cont.h ****  * GLOBAL PROTOTYPES
  82:..\..\..\lvgl\version_6.1.2\lvgl\src\lv_objx/lv_cont.h ****  **********************/
  83:..\..\..\lvgl\version_6.1.2\lvgl\src\lv_objx/lv_cont.h **** 
  84:..\..\..\lvgl\version_6.1.2\lvgl\src\lv_objx/lv_cont.h **** /**
  85:..\..\..\lvgl\version_6.1.2\lvgl\src\lv_objx/lv_cont.h ****  * Create a container objects
  86:..\..\..\lvgl\version_6.1.2\lvgl\src\lv_objx/lv_cont.h ****  * @param par pointer to an object, it will be the parent of the new container
ARM GAS  C:\Users\tmj32\AppData\Local\Temp\ccnLJfS3.s 			page 7


  87:..\..\..\lvgl\version_6.1.2\lvgl\src\lv_objx/lv_cont.h ****  * @param copy pointer to a container object, if not NULL then the new object will be copied from i
  88:..\..\..\lvgl\version_6.1.2\lvgl\src\lv_objx/lv_cont.h ****  * @return pointer to the created container
  89:..\..\..\lvgl\version_6.1.2\lvgl\src\lv_objx/lv_cont.h ****  */
  90:..\..\..\lvgl\version_6.1.2\lvgl\src\lv_objx/lv_cont.h **** lv_obj_t * lv_cont_create(lv_obj_t * par, const lv_obj_t * copy);
  91:..\..\..\lvgl\version_6.1.2\lvgl\src\lv_objx/lv_cont.h **** 
  92:..\..\..\lvgl\version_6.1.2\lvgl\src\lv_objx/lv_cont.h **** /*=====================
  93:..\..\..\lvgl\version_6.1.2\lvgl\src\lv_objx/lv_cont.h ****  * Setter functions
  94:..\..\..\lvgl\version_6.1.2\lvgl\src\lv_objx/lv_cont.h ****  *====================*/
  95:..\..\..\lvgl\version_6.1.2\lvgl\src\lv_objx/lv_cont.h **** 
  96:..\..\..\lvgl\version_6.1.2\lvgl\src\lv_objx/lv_cont.h **** /**
  97:..\..\..\lvgl\version_6.1.2\lvgl\src\lv_objx/lv_cont.h ****  * Set a layout on a container
  98:..\..\..\lvgl\version_6.1.2\lvgl\src\lv_objx/lv_cont.h ****  * @param cont pointer to a container object
  99:..\..\..\lvgl\version_6.1.2\lvgl\src\lv_objx/lv_cont.h ****  * @param layout a layout from 'lv_cont_layout_t'
 100:..\..\..\lvgl\version_6.1.2\lvgl\src\lv_objx/lv_cont.h ****  */
 101:..\..\..\lvgl\version_6.1.2\lvgl\src\lv_objx/lv_cont.h **** void lv_cont_set_layout(lv_obj_t * cont, lv_layout_t layout);
 102:..\..\..\lvgl\version_6.1.2\lvgl\src\lv_objx/lv_cont.h **** 
 103:..\..\..\lvgl\version_6.1.2\lvgl\src\lv_objx/lv_cont.h **** /**
 104:..\..\..\lvgl\version_6.1.2\lvgl\src\lv_objx/lv_cont.h ****  * Set the fit policy in all 4 directions separately.
 105:..\..\..\lvgl\version_6.1.2\lvgl\src\lv_objx/lv_cont.h ****  * It tell how to change the container's size automatically.
 106:..\..\..\lvgl\version_6.1.2\lvgl\src\lv_objx/lv_cont.h ****  * @param cont pointer to a container object
 107:..\..\..\lvgl\version_6.1.2\lvgl\src\lv_objx/lv_cont.h ****  * @param left left fit policy from `lv_fit_t`
 108:..\..\..\lvgl\version_6.1.2\lvgl\src\lv_objx/lv_cont.h ****  * @param right right fit policy from `lv_fit_t`
 109:..\..\..\lvgl\version_6.1.2\lvgl\src\lv_objx/lv_cont.h ****  * @param top top fit policy from `lv_fit_t`
 110:..\..\..\lvgl\version_6.1.2\lvgl\src\lv_objx/lv_cont.h ****  * @param bottom bottom fit policy from `lv_fit_t`
 111:..\..\..\lvgl\version_6.1.2\lvgl\src\lv_objx/lv_cont.h ****  */
 112:..\..\..\lvgl\version_6.1.2\lvgl\src\lv_objx/lv_cont.h **** void lv_cont_set_fit4(lv_obj_t * cont, lv_fit_t left, lv_fit_t right, lv_fit_t top, lv_fit_t bottom
 113:..\..\..\lvgl\version_6.1.2\lvgl\src\lv_objx/lv_cont.h **** 
 114:..\..\..\lvgl\version_6.1.2\lvgl\src\lv_objx/lv_cont.h **** /**
 115:..\..\..\lvgl\version_6.1.2\lvgl\src\lv_objx/lv_cont.h ****  * Set the fit policy horizontally and vertically separately.
 116:..\..\..\lvgl\version_6.1.2\lvgl\src\lv_objx/lv_cont.h ****  * It tells how to change the container's size automatically.
 117:..\..\..\lvgl\version_6.1.2\lvgl\src\lv_objx/lv_cont.h ****  * @param cont pointer to a container object
 118:..\..\..\lvgl\version_6.1.2\lvgl\src\lv_objx/lv_cont.h ****  * @param hor horizontal fit policy from `lv_fit_t`
 119:..\..\..\lvgl\version_6.1.2\lvgl\src\lv_objx/lv_cont.h ****  * @param ver vertical fit policy from `lv_fit_t`
 120:..\..\..\lvgl\version_6.1.2\lvgl\src\lv_objx/lv_cont.h ****  */
 121:..\..\..\lvgl\version_6.1.2\lvgl\src\lv_objx/lv_cont.h **** static inline void lv_cont_set_fit2(lv_obj_t * cont, lv_fit_t hor, lv_fit_t ver)
 122:..\..\..\lvgl\version_6.1.2\lvgl\src\lv_objx/lv_cont.h **** {
 123:..\..\..\lvgl\version_6.1.2\lvgl\src\lv_objx/lv_cont.h ****     lv_cont_set_fit4(cont, hor, hor, ver, ver);
 124:..\..\..\lvgl\version_6.1.2\lvgl\src\lv_objx/lv_cont.h **** }
 125:..\..\..\lvgl\version_6.1.2\lvgl\src\lv_objx/lv_cont.h **** 
 126:..\..\..\lvgl\version_6.1.2\lvgl\src\lv_objx/lv_cont.h **** /**
 127:..\..\..\lvgl\version_6.1.2\lvgl\src\lv_objx/lv_cont.h ****  * Set the fit policy in all 4 direction at once.
 128:..\..\..\lvgl\version_6.1.2\lvgl\src\lv_objx/lv_cont.h ****  * It tells how to change the container's size automatically.
 129:..\..\..\lvgl\version_6.1.2\lvgl\src\lv_objx/lv_cont.h ****  * @param cont pointer to a container object
 130:..\..\..\lvgl\version_6.1.2\lvgl\src\lv_objx/lv_cont.h ****  * @param fit fit policy from `lv_fit_t`
 131:..\..\..\lvgl\version_6.1.2\lvgl\src\lv_objx/lv_cont.h ****  */
 132:..\..\..\lvgl\version_6.1.2\lvgl\src\lv_objx/lv_cont.h **** static inline void lv_cont_set_fit(lv_obj_t * cont, lv_fit_t fit)
 133:..\..\..\lvgl\version_6.1.2\lvgl\src\lv_objx/lv_cont.h **** {
 134:..\..\..\lvgl\version_6.1.2\lvgl\src\lv_objx/lv_cont.h ****     lv_cont_set_fit4(cont, fit, fit, fit, fit);
 135:..\..\..\lvgl\version_6.1.2\lvgl\src\lv_objx/lv_cont.h **** }
 136:..\..\..\lvgl\version_6.1.2\lvgl\src\lv_objx/lv_cont.h **** 
 137:..\..\..\lvgl\version_6.1.2\lvgl\src\lv_objx/lv_cont.h **** /**
 138:..\..\..\lvgl\version_6.1.2\lvgl\src\lv_objx/lv_cont.h ****  * Set the style of a container
 139:..\..\..\lvgl\version_6.1.2\lvgl\src\lv_objx/lv_cont.h ****  * @param cont pointer to a container object
 140:..\..\..\lvgl\version_6.1.2\lvgl\src\lv_objx/lv_cont.h ****  * @param type which style should be set (can be only `LV_CONT_STYLE_MAIN`)
 141:..\..\..\lvgl\version_6.1.2\lvgl\src\lv_objx/lv_cont.h ****  * @param style pointer to the new style
 142:..\..\..\lvgl\version_6.1.2\lvgl\src\lv_objx/lv_cont.h ****  */
 143:..\..\..\lvgl\version_6.1.2\lvgl\src\lv_objx/lv_cont.h **** static inline void lv_cont_set_style(lv_obj_t * cont, lv_cont_style_t type, const lv_style_t * styl
ARM GAS  C:\Users\tmj32\AppData\Local\Temp\ccnLJfS3.s 			page 8


 144:..\..\..\lvgl\version_6.1.2\lvgl\src\lv_objx/lv_cont.h **** {
 158              		.loc 2 144 0
 159              		.cfi_startproc
 160              		@ args = 0, pretend = 0, frame = 16
 161              		@ frame_needed = 1, uses_anonymous_args = 0
 162 0000 80B5     		push	{r7, lr}
 163              		.cfi_def_cfa_offset 8
 164              		.cfi_offset 7, -8
 165              		.cfi_offset 14, -4
 166 0002 84B0     		sub	sp, sp, #16
 167              		.cfi_def_cfa_offset 24
 168 0004 00AF     		add	r7, sp, #0
 169              		.cfi_def_cfa_register 7
 170 0006 F860     		str	r0, [r7, #12]
 171 0008 0B46     		mov	r3, r1
 172 000a 7A60     		str	r2, [r7, #4]
 173 000c FB72     		strb	r3, [r7, #11]
 145:..\..\..\lvgl\version_6.1.2\lvgl\src\lv_objx/lv_cont.h ****     (void)type; /*Unused*/
 146:..\..\..\lvgl\version_6.1.2\lvgl\src\lv_objx/lv_cont.h ****     lv_obj_set_style(cont, style);
 174              		.loc 2 146 0
 175 000e 7968     		ldr	r1, [r7, #4]
 176 0010 F868     		ldr	r0, [r7, #12]
 177 0012 FFF7FEFF 		bl	lv_obj_set_style
 147:..\..\..\lvgl\version_6.1.2\lvgl\src\lv_objx/lv_cont.h **** }
 178              		.loc 2 147 0
 179 0016 00BF     		nop
 180 0018 1037     		adds	r7, r7, #16
 181              		.cfi_def_cfa_offset 8
 182 001a BD46     		mov	sp, r7
 183              		.cfi_def_cfa_register 13
 184              		@ sp needed
 185 001c 80BD     		pop	{r7, pc}
 186              		.cfi_endproc
 187              	.LFE33:
 188              		.size	lv_cont_set_style, .-lv_cont_set_style
 189 001e 00BF     		.bss
 190              		.align	2
 191              	ancestor_signal:
 192 0000 00000000 		.space	4
 193              		.section	.text.lv_cont_create,"ax",%progbits
 194              		.align	2
 195              		.global	lv_cont_create
 196              		.thumb
 197              		.thumb_func
 198              		.type	lv_cont_create, %function
 199              	lv_cont_create:
 200              	.LFB35:
 201              		.file 3 "..\\..\\..\\lvgl\\version_6.1.2\\lvgl\\src\\lv_objx\\lv_cont.c"
   1:..\..\..\lvgl\version_6.1.2\lvgl\src\lv_objx/lv_cont.c **** /**
   2:..\..\..\lvgl\version_6.1.2\lvgl\src\lv_objx/lv_cont.c ****  * @file lv_cont.c
   3:..\..\..\lvgl\version_6.1.2\lvgl\src\lv_objx/lv_cont.c ****  *
   4:..\..\..\lvgl\version_6.1.2\lvgl\src\lv_objx/lv_cont.c ****  */
   5:..\..\..\lvgl\version_6.1.2\lvgl\src\lv_objx/lv_cont.c **** 
   6:..\..\..\lvgl\version_6.1.2\lvgl\src\lv_objx/lv_cont.c **** /*********************
   7:..\..\..\lvgl\version_6.1.2\lvgl\src\lv_objx/lv_cont.c ****  *      INCLUDES
   8:..\..\..\lvgl\version_6.1.2\lvgl\src\lv_objx/lv_cont.c ****  *********************/
   9:..\..\..\lvgl\version_6.1.2\lvgl\src\lv_objx/lv_cont.c **** 
ARM GAS  C:\Users\tmj32\AppData\Local\Temp\ccnLJfS3.s 			page 9


  10:..\..\..\lvgl\version_6.1.2\lvgl\src\lv_objx/lv_cont.c **** #include "lv_cont.h"
  11:..\..\..\lvgl\version_6.1.2\lvgl\src\lv_objx/lv_cont.c **** #if LV_USE_CONT != 0
  12:..\..\..\lvgl\version_6.1.2\lvgl\src\lv_objx/lv_cont.c **** 
  13:..\..\..\lvgl\version_6.1.2\lvgl\src\lv_objx/lv_cont.c **** #include <stdbool.h>
  14:..\..\..\lvgl\version_6.1.2\lvgl\src\lv_objx/lv_cont.c **** #include <stdint.h>
  15:..\..\..\lvgl\version_6.1.2\lvgl\src\lv_objx/lv_cont.c **** #include <string.h>
  16:..\..\..\lvgl\version_6.1.2\lvgl\src\lv_objx/lv_cont.c **** 
  17:..\..\..\lvgl\version_6.1.2\lvgl\src\lv_objx/lv_cont.c **** #include "../lv_core/lv_debug.h"
  18:..\..\..\lvgl\version_6.1.2\lvgl\src\lv_objx/lv_cont.c **** #include "../lv_draw/lv_draw.h"
  19:..\..\..\lvgl\version_6.1.2\lvgl\src\lv_objx/lv_cont.c **** #include "../lv_draw/lv_draw_basic.h"
  20:..\..\..\lvgl\version_6.1.2\lvgl\src\lv_objx/lv_cont.c **** #include "../lv_themes/lv_theme.h"
  21:..\..\..\lvgl\version_6.1.2\lvgl\src\lv_objx/lv_cont.c **** #include "../lv_misc/lv_area.h"
  22:..\..\..\lvgl\version_6.1.2\lvgl\src\lv_objx/lv_cont.c **** #include "../lv_misc/lv_color.h"
  23:..\..\..\lvgl\version_6.1.2\lvgl\src\lv_objx/lv_cont.c **** #include "../lv_misc/lv_math.h"
  24:..\..\..\lvgl\version_6.1.2\lvgl\src\lv_objx/lv_cont.c **** #include "../lv_misc/lv_bidi.h"
  25:..\..\..\lvgl\version_6.1.2\lvgl\src\lv_objx/lv_cont.c **** 
  26:..\..\..\lvgl\version_6.1.2\lvgl\src\lv_objx/lv_cont.c **** /*********************
  27:..\..\..\lvgl\version_6.1.2\lvgl\src\lv_objx/lv_cont.c ****  *      DEFINES
  28:..\..\..\lvgl\version_6.1.2\lvgl\src\lv_objx/lv_cont.c ****  *********************/
  29:..\..\..\lvgl\version_6.1.2\lvgl\src\lv_objx/lv_cont.c **** #define LV_OBJX_NAME "lv_cont"
  30:..\..\..\lvgl\version_6.1.2\lvgl\src\lv_objx/lv_cont.c **** 
  31:..\..\..\lvgl\version_6.1.2\lvgl\src\lv_objx/lv_cont.c **** /**********************
  32:..\..\..\lvgl\version_6.1.2\lvgl\src\lv_objx/lv_cont.c ****  *      TYPEDEFS
  33:..\..\..\lvgl\version_6.1.2\lvgl\src\lv_objx/lv_cont.c ****  **********************/
  34:..\..\..\lvgl\version_6.1.2\lvgl\src\lv_objx/lv_cont.c **** 
  35:..\..\..\lvgl\version_6.1.2\lvgl\src\lv_objx/lv_cont.c **** /**********************
  36:..\..\..\lvgl\version_6.1.2\lvgl\src\lv_objx/lv_cont.c ****  *  STATIC PROTOTYPES
  37:..\..\..\lvgl\version_6.1.2\lvgl\src\lv_objx/lv_cont.c ****  **********************/
  38:..\..\..\lvgl\version_6.1.2\lvgl\src\lv_objx/lv_cont.c **** static lv_res_t lv_cont_signal(lv_obj_t * cont, lv_signal_t sign, void * param);
  39:..\..\..\lvgl\version_6.1.2\lvgl\src\lv_objx/lv_cont.c **** static void lv_cont_refr_layout(lv_obj_t * cont);
  40:..\..\..\lvgl\version_6.1.2\lvgl\src\lv_objx/lv_cont.c **** static void lv_cont_layout_col(lv_obj_t * cont);
  41:..\..\..\lvgl\version_6.1.2\lvgl\src\lv_objx/lv_cont.c **** static void lv_cont_layout_row(lv_obj_t * cont);
  42:..\..\..\lvgl\version_6.1.2\lvgl\src\lv_objx/lv_cont.c **** static void lv_cont_layout_center(lv_obj_t * cont);
  43:..\..\..\lvgl\version_6.1.2\lvgl\src\lv_objx/lv_cont.c **** static void lv_cont_layout_pretty(lv_obj_t * cont);
  44:..\..\..\lvgl\version_6.1.2\lvgl\src\lv_objx/lv_cont.c **** static void lv_cont_layout_grid(lv_obj_t * cont);
  45:..\..\..\lvgl\version_6.1.2\lvgl\src\lv_objx/lv_cont.c **** static void lv_cont_refr_autofit(lv_obj_t * cont);
  46:..\..\..\lvgl\version_6.1.2\lvgl\src\lv_objx/lv_cont.c **** 
  47:..\..\..\lvgl\version_6.1.2\lvgl\src\lv_objx/lv_cont.c **** /**********************
  48:..\..\..\lvgl\version_6.1.2\lvgl\src\lv_objx/lv_cont.c ****  *  STATIC VARIABLES
  49:..\..\..\lvgl\version_6.1.2\lvgl\src\lv_objx/lv_cont.c ****  **********************/
  50:..\..\..\lvgl\version_6.1.2\lvgl\src\lv_objx/lv_cont.c **** static lv_signal_cb_t ancestor_signal;
  51:..\..\..\lvgl\version_6.1.2\lvgl\src\lv_objx/lv_cont.c **** 
  52:..\..\..\lvgl\version_6.1.2\lvgl\src\lv_objx/lv_cont.c **** /**********************
  53:..\..\..\lvgl\version_6.1.2\lvgl\src\lv_objx/lv_cont.c ****  *      MACROS
  54:..\..\..\lvgl\version_6.1.2\lvgl\src\lv_objx/lv_cont.c ****  **********************/
  55:..\..\..\lvgl\version_6.1.2\lvgl\src\lv_objx/lv_cont.c **** 
  56:..\..\..\lvgl\version_6.1.2\lvgl\src\lv_objx/lv_cont.c **** /**********************
  57:..\..\..\lvgl\version_6.1.2\lvgl\src\lv_objx/lv_cont.c ****  *   GLOBAL FUNCTIONS
  58:..\..\..\lvgl\version_6.1.2\lvgl\src\lv_objx/lv_cont.c ****  **********************/
  59:..\..\..\lvgl\version_6.1.2\lvgl\src\lv_objx/lv_cont.c **** 
  60:..\..\..\lvgl\version_6.1.2\lvgl\src\lv_objx/lv_cont.c **** /**
  61:..\..\..\lvgl\version_6.1.2\lvgl\src\lv_objx/lv_cont.c ****  * Create a container objects
  62:..\..\..\lvgl\version_6.1.2\lvgl\src\lv_objx/lv_cont.c ****  * @param par pointer to an object, it will be the parent of the new container
  63:..\..\..\lvgl\version_6.1.2\lvgl\src\lv_objx/lv_cont.c ****  * @param copy pointer to a container object, if not NULL then the new object will be copied from i
  64:..\..\..\lvgl\version_6.1.2\lvgl\src\lv_objx/lv_cont.c ****  * @return pointer to the created container
  65:..\..\..\lvgl\version_6.1.2\lvgl\src\lv_objx/lv_cont.c ****  */
  66:..\..\..\lvgl\version_6.1.2\lvgl\src\lv_objx/lv_cont.c **** lv_obj_t * lv_cont_create(lv_obj_t * par, const lv_obj_t * copy)
ARM GAS  C:\Users\tmj32\AppData\Local\Temp\ccnLJfS3.s 			page 10


  67:..\..\..\lvgl\version_6.1.2\lvgl\src\lv_objx/lv_cont.c **** {
 202              		.loc 3 67 0
 203              		.cfi_startproc
 204              		@ args = 0, pretend = 0, frame = 24
 205              		@ frame_needed = 1, uses_anonymous_args = 0
 206 0000 80B5     		push	{r7, lr}
 207              		.cfi_def_cfa_offset 8
 208              		.cfi_offset 7, -8
 209              		.cfi_offset 14, -4
 210 0002 86B0     		sub	sp, sp, #24
 211              		.cfi_def_cfa_offset 32
 212 0004 00AF     		add	r7, sp, #0
 213              		.cfi_def_cfa_register 7
 214 0006 7860     		str	r0, [r7, #4]
 215 0008 3960     		str	r1, [r7]
  68:..\..\..\lvgl\version_6.1.2\lvgl\src\lv_objx/lv_cont.c **** 
  69:..\..\..\lvgl\version_6.1.2\lvgl\src\lv_objx/lv_cont.c ****     LV_LOG_TRACE("container create started");
  70:..\..\..\lvgl\version_6.1.2\lvgl\src\lv_objx/lv_cont.c **** 
  71:..\..\..\lvgl\version_6.1.2\lvgl\src\lv_objx/lv_cont.c ****     /*Create a basic object*/
  72:..\..\..\lvgl\version_6.1.2\lvgl\src\lv_objx/lv_cont.c ****     lv_obj_t * new_cont = lv_obj_create(par, copy);
 216              		.loc 3 72 0
 217 000a 3968     		ldr	r1, [r7]
 218 000c 7868     		ldr	r0, [r7, #4]
 219 000e FFF7FEFF 		bl	lv_obj_create
 220 0012 7861     		str	r0, [r7, #20]
  73:..\..\..\lvgl\version_6.1.2\lvgl\src\lv_objx/lv_cont.c ****     LV_ASSERT_MEM(new_cont);
  74:..\..\..\lvgl\version_6.1.2\lvgl\src\lv_objx/lv_cont.c ****     if(new_cont == NULL) return NULL;
 221              		.loc 3 74 0
 222 0014 7B69     		ldr	r3, [r7, #20]
 223 0016 002B     		cmp	r3, #0
 224 0018 01D1     		bne	.L8
 225              		.loc 3 74 0 is_stmt 0 discriminator 1
 226 001a 0023     		movs	r3, #0
 227 001c 87E0     		b	.L9
 228              	.L8:
  75:..\..\..\lvgl\version_6.1.2\lvgl\src\lv_objx/lv_cont.c **** 
  76:..\..\..\lvgl\version_6.1.2\lvgl\src\lv_objx/lv_cont.c ****     if(ancestor_signal == NULL) ancestor_signal = lv_obj_get_signal_cb(new_cont);
 229              		.loc 3 76 0 is_stmt 1
 230 001e 464B     		ldr	r3, .L16
 231 0020 1B68     		ldr	r3, [r3]
 232 0022 002B     		cmp	r3, #0
 233 0024 05D1     		bne	.L10
 234              		.loc 3 76 0 is_stmt 0 discriminator 1
 235 0026 7869     		ldr	r0, [r7, #20]
 236 0028 FFF7FEFF 		bl	lv_obj_get_signal_cb
 237 002c 0246     		mov	r2, r0
 238 002e 424B     		ldr	r3, .L16
 239 0030 1A60     		str	r2, [r3]
 240              	.L10:
  77:..\..\..\lvgl\version_6.1.2\lvgl\src\lv_objx/lv_cont.c **** 
  78:..\..\..\lvgl\version_6.1.2\lvgl\src\lv_objx/lv_cont.c ****     lv_obj_allocate_ext_attr(new_cont, sizeof(lv_cont_ext_t));
 241              		.loc 3 78 0 is_stmt 1
 242 0032 0221     		movs	r1, #2
 243 0034 7869     		ldr	r0, [r7, #20]
 244 0036 FFF7FEFF 		bl	lv_obj_allocate_ext_attr
  79:..\..\..\lvgl\version_6.1.2\lvgl\src\lv_objx/lv_cont.c ****     lv_cont_ext_t * ext = lv_obj_get_ext_attr(new_cont);
 245              		.loc 3 79 0
ARM GAS  C:\Users\tmj32\AppData\Local\Temp\ccnLJfS3.s 			page 11


 246 003a 7869     		ldr	r0, [r7, #20]
 247 003c FFF7FEFF 		bl	lv_obj_get_ext_attr
 248 0040 3861     		str	r0, [r7, #16]
  80:..\..\..\lvgl\version_6.1.2\lvgl\src\lv_objx/lv_cont.c ****     if(ext == NULL) return NULL;
 249              		.loc 3 80 0
 250 0042 3B69     		ldr	r3, [r7, #16]
 251 0044 002B     		cmp	r3, #0
 252 0046 01D1     		bne	.L11
 253              		.loc 3 80 0 is_stmt 0 discriminator 1
 254 0048 0023     		movs	r3, #0
 255 004a 70E0     		b	.L9
 256              	.L11:
  81:..\..\..\lvgl\version_6.1.2\lvgl\src\lv_objx/lv_cont.c **** 
  82:..\..\..\lvgl\version_6.1.2\lvgl\src\lv_objx/lv_cont.c ****     LV_ASSERT_MEM(ext);
  83:..\..\..\lvgl\version_6.1.2\lvgl\src\lv_objx/lv_cont.c ****     ext->fit_left   = LV_FIT_NONE;
 257              		.loc 3 83 0 is_stmt 1
 258 004c 3A69     		ldr	r2, [r7, #16]
 259 004e 1378     		ldrb	r3, [r2]
 260 0050 6FF30513 		bfc	r3, #4, #2
 261 0054 1370     		strb	r3, [r2]
  84:..\..\..\lvgl\version_6.1.2\lvgl\src\lv_objx/lv_cont.c ****     ext->fit_right  = LV_FIT_NONE;
 262              		.loc 3 84 0
 263 0056 3A69     		ldr	r2, [r7, #16]
 264 0058 1378     		ldrb	r3, [r2]
 265 005a 6FF38713 		bfc	r3, #6, #2
 266 005e 1370     		strb	r3, [r2]
  85:..\..\..\lvgl\version_6.1.2\lvgl\src\lv_objx/lv_cont.c ****     ext->fit_top    = LV_FIT_NONE;
 267              		.loc 3 85 0
 268 0060 3A69     		ldr	r2, [r7, #16]
 269 0062 5378     		ldrb	r3, [r2, #1]
 270 0064 6FF30103 		bfc	r3, #0, #2
 271 0068 5370     		strb	r3, [r2, #1]
  86:..\..\..\lvgl\version_6.1.2\lvgl\src\lv_objx/lv_cont.c ****     ext->fit_bottom = LV_FIT_NONE;
 272              		.loc 3 86 0
 273 006a 3A69     		ldr	r2, [r7, #16]
 274 006c 5378     		ldrb	r3, [r2, #1]
 275 006e 6FF38303 		bfc	r3, #2, #2
 276 0072 5370     		strb	r3, [r2, #1]
  87:..\..\..\lvgl\version_6.1.2\lvgl\src\lv_objx/lv_cont.c ****     ext->layout     = LV_LAYOUT_OFF;
 277              		.loc 3 87 0
 278 0074 3A69     		ldr	r2, [r7, #16]
 279 0076 1378     		ldrb	r3, [r2]
 280 0078 6FF30303 		bfc	r3, #0, #4
 281 007c 1370     		strb	r3, [r2]
  88:..\..\..\lvgl\version_6.1.2\lvgl\src\lv_objx/lv_cont.c **** 
  89:..\..\..\lvgl\version_6.1.2\lvgl\src\lv_objx/lv_cont.c ****     lv_obj_set_signal_cb(new_cont, lv_cont_signal);
 282              		.loc 3 89 0
 283 007e 2F49     		ldr	r1, .L16+4
 284 0080 7869     		ldr	r0, [r7, #20]
 285 0082 FFF7FEFF 		bl	lv_obj_set_signal_cb
  90:..\..\..\lvgl\version_6.1.2\lvgl\src\lv_objx/lv_cont.c **** 
  91:..\..\..\lvgl\version_6.1.2\lvgl\src\lv_objx/lv_cont.c ****     /*Init the new container*/
  92:..\..\..\lvgl\version_6.1.2\lvgl\src\lv_objx/lv_cont.c ****     if(copy == NULL) {
 286              		.loc 3 92 0
 287 0086 3B68     		ldr	r3, [r7]
 288 0088 002B     		cmp	r3, #0
 289 008a 16D1     		bne	.L12
ARM GAS  C:\Users\tmj32\AppData\Local\Temp\ccnLJfS3.s 			page 12


  93:..\..\..\lvgl\version_6.1.2\lvgl\src\lv_objx/lv_cont.c ****         /*Set the default styles if it's not screen*/
  94:..\..\..\lvgl\version_6.1.2\lvgl\src\lv_objx/lv_cont.c ****         if(par != NULL) {
 290              		.loc 3 94 0
 291 008c 7B68     		ldr	r3, [r7, #4]
 292 008e 002B     		cmp	r3, #0
 293 0090 4CD0     		beq	.L15
 294              	.LBB2:
  95:..\..\..\lvgl\version_6.1.2\lvgl\src\lv_objx/lv_cont.c ****             lv_theme_t * th = lv_theme_get_current();
 295              		.loc 3 95 0
 296 0092 FFF7FEFF 		bl	lv_theme_get_current
 297 0096 F860     		str	r0, [r7, #12]
  96:..\..\..\lvgl\version_6.1.2\lvgl\src\lv_objx/lv_cont.c ****             if(th) {
 298              		.loc 3 96 0
 299 0098 FB68     		ldr	r3, [r7, #12]
 300 009a 002B     		cmp	r3, #0
 301 009c 07D0     		beq	.L14
  97:..\..\..\lvgl\version_6.1.2\lvgl\src\lv_objx/lv_cont.c ****                 lv_cont_set_style(new_cont, LV_CONT_STYLE_MAIN, th->style.cont);
 302              		.loc 3 97 0
 303 009e FB68     		ldr	r3, [r7, #12]
 304 00a0 DB68     		ldr	r3, [r3, #12]
 305 00a2 1A46     		mov	r2, r3
 306 00a4 0021     		movs	r1, #0
 307 00a6 7869     		ldr	r0, [r7, #20]
 308 00a8 FFF7FEFF 		bl	lv_cont_set_style
 309 00ac 3EE0     		b	.L15
 310              	.L14:
  98:..\..\..\lvgl\version_6.1.2\lvgl\src\lv_objx/lv_cont.c ****             } else {
  99:..\..\..\lvgl\version_6.1.2\lvgl\src\lv_objx/lv_cont.c ****                 lv_cont_set_style(new_cont, LV_CONT_STYLE_MAIN, &lv_style_pretty);
 311              		.loc 3 99 0
 312 00ae 244A     		ldr	r2, .L16+8
 313 00b0 0021     		movs	r1, #0
 314 00b2 7869     		ldr	r0, [r7, #20]
 315 00b4 FFF7FEFF 		bl	lv_cont_set_style
 316 00b8 38E0     		b	.L15
 317              	.L12:
 318              	.LBE2:
 319              	.LBB3:
 100:..\..\..\lvgl\version_6.1.2\lvgl\src\lv_objx/lv_cont.c ****             }
 101:..\..\..\lvgl\version_6.1.2\lvgl\src\lv_objx/lv_cont.c ****         }
 102:..\..\..\lvgl\version_6.1.2\lvgl\src\lv_objx/lv_cont.c ****     }
 103:..\..\..\lvgl\version_6.1.2\lvgl\src\lv_objx/lv_cont.c ****     /*Copy an existing object*/
 104:..\..\..\lvgl\version_6.1.2\lvgl\src\lv_objx/lv_cont.c ****     else {
 105:..\..\..\lvgl\version_6.1.2\lvgl\src\lv_objx/lv_cont.c ****         lv_cont_ext_t * copy_ext = lv_obj_get_ext_attr(copy);
 320              		.loc 3 105 0
 321 00ba 3868     		ldr	r0, [r7]
 322 00bc FFF7FEFF 		bl	lv_obj_get_ext_attr
 323 00c0 B860     		str	r0, [r7, #8]
 106:..\..\..\lvgl\version_6.1.2\lvgl\src\lv_objx/lv_cont.c ****         ext->fit_left            = copy_ext->fit_left;
 324              		.loc 3 106 0
 325 00c2 BB68     		ldr	r3, [r7, #8]
 326 00c4 1B78     		ldrb	r3, [r3]
 327 00c6 C3F30113 		ubfx	r3, r3, #4, #2
 328 00ca D9B2     		uxtb	r1, r3
 329 00cc 3A69     		ldr	r2, [r7, #16]
 330 00ce 1378     		ldrb	r3, [r2]
 331 00d0 61F30513 		bfi	r3, r1, #4, #2
 332 00d4 1370     		strb	r3, [r2]
ARM GAS  C:\Users\tmj32\AppData\Local\Temp\ccnLJfS3.s 			page 13


 107:..\..\..\lvgl\version_6.1.2\lvgl\src\lv_objx/lv_cont.c ****         ext->fit_right           = copy_ext->fit_right;
 333              		.loc 3 107 0
 334 00d6 BB68     		ldr	r3, [r7, #8]
 335 00d8 1B78     		ldrb	r3, [r3]
 336 00da C3F38113 		ubfx	r3, r3, #6, #2
 337 00de D9B2     		uxtb	r1, r3
 338 00e0 3A69     		ldr	r2, [r7, #16]
 339 00e2 1378     		ldrb	r3, [r2]
 340 00e4 61F38713 		bfi	r3, r1, #6, #2
 341 00e8 1370     		strb	r3, [r2]
 108:..\..\..\lvgl\version_6.1.2\lvgl\src\lv_objx/lv_cont.c ****         ext->fit_top             = copy_ext->fit_top;
 342              		.loc 3 108 0
 343 00ea BB68     		ldr	r3, [r7, #8]
 344 00ec 5B78     		ldrb	r3, [r3, #1]
 345 00ee C3F30103 		ubfx	r3, r3, #0, #2
 346 00f2 D9B2     		uxtb	r1, r3
 347 00f4 3A69     		ldr	r2, [r7, #16]
 348 00f6 5378     		ldrb	r3, [r2, #1]
 349 00f8 61F30103 		bfi	r3, r1, #0, #2
 350 00fc 5370     		strb	r3, [r2, #1]
 109:..\..\..\lvgl\version_6.1.2\lvgl\src\lv_objx/lv_cont.c ****         ext->fit_bottom          = copy_ext->fit_bottom;
 351              		.loc 3 109 0
 352 00fe BB68     		ldr	r3, [r7, #8]
 353 0100 5B78     		ldrb	r3, [r3, #1]
 354 0102 C3F38103 		ubfx	r3, r3, #2, #2
 355 0106 D9B2     		uxtb	r1, r3
 356 0108 3A69     		ldr	r2, [r7, #16]
 357 010a 5378     		ldrb	r3, [r2, #1]
 358 010c 61F38303 		bfi	r3, r1, #2, #2
 359 0110 5370     		strb	r3, [r2, #1]
 110:..\..\..\lvgl\version_6.1.2\lvgl\src\lv_objx/lv_cont.c ****         ext->layout              = copy_ext->layout;
 360              		.loc 3 110 0
 361 0112 BB68     		ldr	r3, [r7, #8]
 362 0114 1B78     		ldrb	r3, [r3]
 363 0116 C3F30303 		ubfx	r3, r3, #0, #4
 364 011a D9B2     		uxtb	r1, r3
 365 011c 3A69     		ldr	r2, [r7, #16]
 366 011e 1378     		ldrb	r3, [r2]
 367 0120 61F30303 		bfi	r3, r1, #0, #4
 368 0124 1370     		strb	r3, [r2]
 111:..\..\..\lvgl\version_6.1.2\lvgl\src\lv_objx/lv_cont.c **** 
 112:..\..\..\lvgl\version_6.1.2\lvgl\src\lv_objx/lv_cont.c ****         /*Refresh the style with new signal function*/
 113:..\..\..\lvgl\version_6.1.2\lvgl\src\lv_objx/lv_cont.c ****         lv_obj_refresh_style(new_cont);
 369              		.loc 3 113 0
 370 0126 7869     		ldr	r0, [r7, #20]
 371 0128 FFF7FEFF 		bl	lv_obj_refresh_style
 372              	.L15:
 373              	.LBE3:
 114:..\..\..\lvgl\version_6.1.2\lvgl\src\lv_objx/lv_cont.c ****     }
 115:..\..\..\lvgl\version_6.1.2\lvgl\src\lv_objx/lv_cont.c **** 
 116:..\..\..\lvgl\version_6.1.2\lvgl\src\lv_objx/lv_cont.c ****     LV_LOG_INFO("container created");
 117:..\..\..\lvgl\version_6.1.2\lvgl\src\lv_objx/lv_cont.c **** 
 118:..\..\..\lvgl\version_6.1.2\lvgl\src\lv_objx/lv_cont.c ****     return new_cont;
 374              		.loc 3 118 0
 375 012c 7B69     		ldr	r3, [r7, #20]
 376              	.L9:
 119:..\..\..\lvgl\version_6.1.2\lvgl\src\lv_objx/lv_cont.c **** }
ARM GAS  C:\Users\tmj32\AppData\Local\Temp\ccnLJfS3.s 			page 14


 377              		.loc 3 119 0
 378 012e 1846     		mov	r0, r3
 379 0130 1837     		adds	r7, r7, #24
 380              		.cfi_def_cfa_offset 8
 381 0132 BD46     		mov	sp, r7
 382              		.cfi_def_cfa_register 13
 383              		@ sp needed
 384 0134 80BD     		pop	{r7, pc}
 385              	.L17:
 386 0136 00BF     		.align	2
 387              	.L16:
 388 0138 00000000 		.word	ancestor_signal
 389 013c 00000000 		.word	lv_cont_signal
 390 0140 00000000 		.word	lv_style_pretty
 391              		.cfi_endproc
 392              	.LFE35:
 393              		.size	lv_cont_create, .-lv_cont_create
 394              		.section	.text.lv_cont_set_layout,"ax",%progbits
 395              		.align	2
 396              		.global	lv_cont_set_layout
 397              		.thumb
 398              		.thumb_func
 399              		.type	lv_cont_set_layout, %function
 400              	lv_cont_set_layout:
 401              	.LFB36:
 120:..\..\..\lvgl\version_6.1.2\lvgl\src\lv_objx/lv_cont.c **** 
 121:..\..\..\lvgl\version_6.1.2\lvgl\src\lv_objx/lv_cont.c **** /*=====================
 122:..\..\..\lvgl\version_6.1.2\lvgl\src\lv_objx/lv_cont.c ****  * Setter functions
 123:..\..\..\lvgl\version_6.1.2\lvgl\src\lv_objx/lv_cont.c ****  *====================*/
 124:..\..\..\lvgl\version_6.1.2\lvgl\src\lv_objx/lv_cont.c **** 
 125:..\..\..\lvgl\version_6.1.2\lvgl\src\lv_objx/lv_cont.c **** /**
 126:..\..\..\lvgl\version_6.1.2\lvgl\src\lv_objx/lv_cont.c ****  * Set a layout on a container
 127:..\..\..\lvgl\version_6.1.2\lvgl\src\lv_objx/lv_cont.c ****  * @param cont pointer to a container object
 128:..\..\..\lvgl\version_6.1.2\lvgl\src\lv_objx/lv_cont.c ****  * @param layout a layout from 'lv_cont_layout_t'
 129:..\..\..\lvgl\version_6.1.2\lvgl\src\lv_objx/lv_cont.c ****  */
 130:..\..\..\lvgl\version_6.1.2\lvgl\src\lv_objx/lv_cont.c **** void lv_cont_set_layout(lv_obj_t * cont, lv_layout_t layout)
 131:..\..\..\lvgl\version_6.1.2\lvgl\src\lv_objx/lv_cont.c **** {
 402              		.loc 3 131 0
 403              		.cfi_startproc
 404              		@ args = 0, pretend = 0, frame = 16
 405              		@ frame_needed = 1, uses_anonymous_args = 0
 406 0000 80B5     		push	{r7, lr}
 407              		.cfi_def_cfa_offset 8
 408              		.cfi_offset 7, -8
 409              		.cfi_offset 14, -4
 410 0002 84B0     		sub	sp, sp, #16
 411              		.cfi_def_cfa_offset 24
 412 0004 00AF     		add	r7, sp, #0
 413              		.cfi_def_cfa_register 7
 414 0006 7860     		str	r0, [r7, #4]
 415 0008 0B46     		mov	r3, r1
 416 000a FB70     		strb	r3, [r7, #3]
 132:..\..\..\lvgl\version_6.1.2\lvgl\src\lv_objx/lv_cont.c ****     LV_ASSERT_OBJ(cont, LV_OBJX_NAME);
 133:..\..\..\lvgl\version_6.1.2\lvgl\src\lv_objx/lv_cont.c **** 
 134:..\..\..\lvgl\version_6.1.2\lvgl\src\lv_objx/lv_cont.c ****     lv_cont_ext_t * ext = lv_obj_get_ext_attr(cont);
 417              		.loc 3 134 0
 418 000c 7868     		ldr	r0, [r7, #4]
ARM GAS  C:\Users\tmj32\AppData\Local\Temp\ccnLJfS3.s 			page 15


 419 000e FFF7FEFF 		bl	lv_obj_get_ext_attr
 420 0012 F860     		str	r0, [r7, #12]
 135:..\..\..\lvgl\version_6.1.2\lvgl\src\lv_objx/lv_cont.c ****     if(ext->layout == layout) return;
 421              		.loc 3 135 0
 422 0014 FB68     		ldr	r3, [r7, #12]
 423 0016 1B78     		ldrb	r3, [r3]
 424 0018 C3F30303 		ubfx	r3, r3, #0, #4
 425 001c DBB2     		uxtb	r3, r3
 426 001e 1A46     		mov	r2, r3
 427 0020 FB78     		ldrb	r3, [r7, #3]	@ zero_extendqisi2
 428 0022 9A42     		cmp	r2, r3
 429 0024 0FD0     		beq	.L21
 136:..\..\..\lvgl\version_6.1.2\lvgl\src\lv_objx/lv_cont.c **** 
 137:..\..\..\lvgl\version_6.1.2\lvgl\src\lv_objx/lv_cont.c ****     ext->layout = layout;
 430              		.loc 3 137 0
 431 0026 FB78     		ldrb	r3, [r7, #3]
 432 0028 03F00F03 		and	r3, r3, #15
 433 002c D9B2     		uxtb	r1, r3
 434 002e FA68     		ldr	r2, [r7, #12]
 435 0030 1378     		ldrb	r3, [r2]
 436 0032 61F30303 		bfi	r3, r1, #0, #4
 437 0036 1370     		strb	r3, [r2]
 138:..\..\..\lvgl\version_6.1.2\lvgl\src\lv_objx/lv_cont.c **** 
 139:..\..\..\lvgl\version_6.1.2\lvgl\src\lv_objx/lv_cont.c ****     /*Send a signal to refresh the layout*/
 140:..\..\..\lvgl\version_6.1.2\lvgl\src\lv_objx/lv_cont.c ****     cont->signal_cb(cont, LV_SIGNAL_CHILD_CHG, NULL);
 438              		.loc 3 140 0
 439 0038 7B68     		ldr	r3, [r7, #4]
 440 003a DB69     		ldr	r3, [r3, #28]
 441 003c 0022     		movs	r2, #0
 442 003e 0121     		movs	r1, #1
 443 0040 7868     		ldr	r0, [r7, #4]
 444 0042 9847     		blx	r3
 445 0044 00E0     		b	.L18
 446              	.L21:
 135:..\..\..\lvgl\version_6.1.2\lvgl\src\lv_objx/lv_cont.c **** 
 447              		.loc 3 135 0
 448 0046 00BF     		nop
 449              	.L18:
 141:..\..\..\lvgl\version_6.1.2\lvgl\src\lv_objx/lv_cont.c **** }
 450              		.loc 3 141 0
 451 0048 1037     		adds	r7, r7, #16
 452              		.cfi_def_cfa_offset 8
 453 004a BD46     		mov	sp, r7
 454              		.cfi_def_cfa_register 13
 455              		@ sp needed
 456 004c 80BD     		pop	{r7, pc}
 457              		.cfi_endproc
 458              	.LFE36:
 459              		.size	lv_cont_set_layout, .-lv_cont_set_layout
 460 004e 00BF     		.section	.text.lv_cont_set_fit4,"ax",%progbits
 461              		.align	2
 462              		.global	lv_cont_set_fit4
 463              		.thumb
 464              		.thumb_func
 465              		.type	lv_cont_set_fit4, %function
 466              	lv_cont_set_fit4:
 467              	.LFB37:
ARM GAS  C:\Users\tmj32\AppData\Local\Temp\ccnLJfS3.s 			page 16


 142:..\..\..\lvgl\version_6.1.2\lvgl\src\lv_objx/lv_cont.c **** 
 143:..\..\..\lvgl\version_6.1.2\lvgl\src\lv_objx/lv_cont.c **** /**
 144:..\..\..\lvgl\version_6.1.2\lvgl\src\lv_objx/lv_cont.c ****  * Set the fit policy in all 4 directions separately.
 145:..\..\..\lvgl\version_6.1.2\lvgl\src\lv_objx/lv_cont.c ****  * It tell how to change the container's size automatically.
 146:..\..\..\lvgl\version_6.1.2\lvgl\src\lv_objx/lv_cont.c ****  * @param cont pointer to a container object
 147:..\..\..\lvgl\version_6.1.2\lvgl\src\lv_objx/lv_cont.c ****  * @param left left fit policy from `lv_fit_t`
 148:..\..\..\lvgl\version_6.1.2\lvgl\src\lv_objx/lv_cont.c ****  * @param right right fit policy from `lv_fit_t`
 149:..\..\..\lvgl\version_6.1.2\lvgl\src\lv_objx/lv_cont.c ****  * @param top bottom fit policy from `lv_fit_t`
 150:..\..\..\lvgl\version_6.1.2\lvgl\src\lv_objx/lv_cont.c ****  * @param bottom bottom fit policy from `lv_fit_t`
 151:..\..\..\lvgl\version_6.1.2\lvgl\src\lv_objx/lv_cont.c ****  */
 152:..\..\..\lvgl\version_6.1.2\lvgl\src\lv_objx/lv_cont.c **** void lv_cont_set_fit4(lv_obj_t * cont, lv_fit_t left, lv_fit_t right, lv_fit_t top, lv_fit_t bottom
 153:..\..\..\lvgl\version_6.1.2\lvgl\src\lv_objx/lv_cont.c **** {
 468              		.loc 3 153 0
 469              		.cfi_startproc
 470              		@ args = 4, pretend = 0, frame = 16
 471              		@ frame_needed = 1, uses_anonymous_args = 0
 472 0000 80B5     		push	{r7, lr}
 473              		.cfi_def_cfa_offset 8
 474              		.cfi_offset 7, -8
 475              		.cfi_offset 14, -4
 476 0002 84B0     		sub	sp, sp, #16
 477              		.cfi_def_cfa_offset 24
 478 0004 00AF     		add	r7, sp, #0
 479              		.cfi_def_cfa_register 7
 480 0006 7860     		str	r0, [r7, #4]
 481 0008 0846     		mov	r0, r1
 482 000a 1146     		mov	r1, r2
 483 000c 1A46     		mov	r2, r3
 484 000e 0346     		mov	r3, r0
 485 0010 FB70     		strb	r3, [r7, #3]
 486 0012 0B46     		mov	r3, r1
 487 0014 BB70     		strb	r3, [r7, #2]
 488 0016 1346     		mov	r3, r2
 489 0018 7B70     		strb	r3, [r7, #1]
 154:..\..\..\lvgl\version_6.1.2\lvgl\src\lv_objx/lv_cont.c ****     LV_ASSERT_OBJ(cont, LV_OBJX_NAME);
 155:..\..\..\lvgl\version_6.1.2\lvgl\src\lv_objx/lv_cont.c **** 
 156:..\..\..\lvgl\version_6.1.2\lvgl\src\lv_objx/lv_cont.c ****     lv_obj_invalidate(cont);
 490              		.loc 3 156 0
 491 001a 7868     		ldr	r0, [r7, #4]
 492 001c FFF7FEFF 		bl	lv_obj_invalidate
 157:..\..\..\lvgl\version_6.1.2\lvgl\src\lv_objx/lv_cont.c ****     lv_cont_ext_t * ext = lv_obj_get_ext_attr(cont);
 493              		.loc 3 157 0
 494 0020 7868     		ldr	r0, [r7, #4]
 495 0022 FFF7FEFF 		bl	lv_obj_get_ext_attr
 496 0026 F860     		str	r0, [r7, #12]
 158:..\..\..\lvgl\version_6.1.2\lvgl\src\lv_objx/lv_cont.c ****     if(ext->fit_left == left && ext->fit_right == right && ext->fit_top == top && ext->fit_bottom =
 497              		.loc 3 158 0
 498 0028 FB68     		ldr	r3, [r7, #12]
 499 002a 1B78     		ldrb	r3, [r3]
 500 002c C3F30113 		ubfx	r3, r3, #4, #2
 501 0030 DBB2     		uxtb	r3, r3
 502 0032 1A46     		mov	r2, r3
 503 0034 FB78     		ldrb	r3, [r7, #3]	@ zero_extendqisi2
 504 0036 9A42     		cmp	r2, r3
 505 0038 1AD1     		bne	.L23
 506              		.loc 3 158 0 is_stmt 0 discriminator 1
 507 003a FB68     		ldr	r3, [r7, #12]
ARM GAS  C:\Users\tmj32\AppData\Local\Temp\ccnLJfS3.s 			page 17


 508 003c 1B78     		ldrb	r3, [r3]
 509 003e C3F38113 		ubfx	r3, r3, #6, #2
 510 0042 DBB2     		uxtb	r3, r3
 511 0044 1A46     		mov	r2, r3
 512 0046 BB78     		ldrb	r3, [r7, #2]	@ zero_extendqisi2
 513 0048 9A42     		cmp	r2, r3
 514 004a 11D1     		bne	.L23
 515              		.loc 3 158 0 discriminator 2
 516 004c FB68     		ldr	r3, [r7, #12]
 517 004e 5B78     		ldrb	r3, [r3, #1]
 518 0050 C3F30103 		ubfx	r3, r3, #0, #2
 519 0054 DBB2     		uxtb	r3, r3
 520 0056 1A46     		mov	r2, r3
 521 0058 7B78     		ldrb	r3, [r7, #1]	@ zero_extendqisi2
 522 005a 9A42     		cmp	r2, r3
 523 005c 08D1     		bne	.L23
 524              		.loc 3 158 0 discriminator 3
 525 005e FB68     		ldr	r3, [r7, #12]
 526 0060 5B78     		ldrb	r3, [r3, #1]
 527 0062 C3F38103 		ubfx	r3, r3, #2, #2
 528 0066 DBB2     		uxtb	r3, r3
 529 0068 1A46     		mov	r2, r3
 530 006a 3B7E     		ldrb	r3, [r7, #24]	@ zero_extendqisi2
 531 006c 9A42     		cmp	r2, r3
 532 006e 2AD0     		beq	.L25
 533              	.L23:
 159:..\..\..\lvgl\version_6.1.2\lvgl\src\lv_objx/lv_cont.c ****         return;
 160:..\..\..\lvgl\version_6.1.2\lvgl\src\lv_objx/lv_cont.c ****     }
 161:..\..\..\lvgl\version_6.1.2\lvgl\src\lv_objx/lv_cont.c **** 
 162:..\..\..\lvgl\version_6.1.2\lvgl\src\lv_objx/lv_cont.c ****     ext->fit_left   = left;
 534              		.loc 3 162 0 is_stmt 1
 535 0070 FB78     		ldrb	r3, [r7, #3]
 536 0072 03F00303 		and	r3, r3, #3
 537 0076 D9B2     		uxtb	r1, r3
 538 0078 FA68     		ldr	r2, [r7, #12]
 539 007a 1378     		ldrb	r3, [r2]
 540 007c 61F30513 		bfi	r3, r1, #4, #2
 541 0080 1370     		strb	r3, [r2]
 163:..\..\..\lvgl\version_6.1.2\lvgl\src\lv_objx/lv_cont.c ****     ext->fit_right  = right;
 542              		.loc 3 163 0
 543 0082 BB78     		ldrb	r3, [r7, #2]
 544 0084 03F00303 		and	r3, r3, #3
 545 0088 D9B2     		uxtb	r1, r3
 546 008a FA68     		ldr	r2, [r7, #12]
 547 008c 1378     		ldrb	r3, [r2]
 548 008e 61F38713 		bfi	r3, r1, #6, #2
 549 0092 1370     		strb	r3, [r2]
 164:..\..\..\lvgl\version_6.1.2\lvgl\src\lv_objx/lv_cont.c ****     ext->fit_top    = top;
 550              		.loc 3 164 0
 551 0094 7B78     		ldrb	r3, [r7, #1]
 552 0096 03F00303 		and	r3, r3, #3
 553 009a D9B2     		uxtb	r1, r3
 554 009c FA68     		ldr	r2, [r7, #12]
 555 009e 5378     		ldrb	r3, [r2, #1]
 556 00a0 61F30103 		bfi	r3, r1, #0, #2
 557 00a4 5370     		strb	r3, [r2, #1]
 165:..\..\..\lvgl\version_6.1.2\lvgl\src\lv_objx/lv_cont.c ****     ext->fit_bottom = bottom;
ARM GAS  C:\Users\tmj32\AppData\Local\Temp\ccnLJfS3.s 			page 18


 558              		.loc 3 165 0
 559 00a6 3B7E     		ldrb	r3, [r7, #24]
 560 00a8 03F00303 		and	r3, r3, #3
 561 00ac D9B2     		uxtb	r1, r3
 562 00ae FA68     		ldr	r2, [r7, #12]
 563 00b0 5378     		ldrb	r3, [r2, #1]
 564 00b2 61F38303 		bfi	r3, r1, #2, #2
 565 00b6 5370     		strb	r3, [r2, #1]
 166:..\..\..\lvgl\version_6.1.2\lvgl\src\lv_objx/lv_cont.c **** 
 167:..\..\..\lvgl\version_6.1.2\lvgl\src\lv_objx/lv_cont.c ****     /*Send a signal to refresh the layout*/
 168:..\..\..\lvgl\version_6.1.2\lvgl\src\lv_objx/lv_cont.c ****     cont->signal_cb(cont, LV_SIGNAL_CHILD_CHG, NULL);
 566              		.loc 3 168 0
 567 00b8 7B68     		ldr	r3, [r7, #4]
 568 00ba DB69     		ldr	r3, [r3, #28]
 569 00bc 0022     		movs	r2, #0
 570 00be 0121     		movs	r1, #1
 571 00c0 7868     		ldr	r0, [r7, #4]
 572 00c2 9847     		blx	r3
 573 00c4 00E0     		b	.L22
 574              	.L25:
 159:..\..\..\lvgl\version_6.1.2\lvgl\src\lv_objx/lv_cont.c ****     }
 575              		.loc 3 159 0
 576 00c6 00BF     		nop
 577              	.L22:
 169:..\..\..\lvgl\version_6.1.2\lvgl\src\lv_objx/lv_cont.c **** }
 578              		.loc 3 169 0
 579 00c8 1037     		adds	r7, r7, #16
 580              		.cfi_def_cfa_offset 8
 581 00ca BD46     		mov	sp, r7
 582              		.cfi_def_cfa_register 13
 583              		@ sp needed
 584 00cc 80BD     		pop	{r7, pc}
 585              		.cfi_endproc
 586              	.LFE37:
 587              		.size	lv_cont_set_fit4, .-lv_cont_set_fit4
 588 00ce 00BF     		.section	.text.lv_cont_get_layout,"ax",%progbits
 589              		.align	2
 590              		.global	lv_cont_get_layout
 591              		.thumb
 592              		.thumb_func
 593              		.type	lv_cont_get_layout, %function
 594              	lv_cont_get_layout:
 595              	.LFB38:
 170:..\..\..\lvgl\version_6.1.2\lvgl\src\lv_objx/lv_cont.c **** 
 171:..\..\..\lvgl\version_6.1.2\lvgl\src\lv_objx/lv_cont.c **** /*=====================
 172:..\..\..\lvgl\version_6.1.2\lvgl\src\lv_objx/lv_cont.c ****  * Getter functions
 173:..\..\..\lvgl\version_6.1.2\lvgl\src\lv_objx/lv_cont.c ****  *====================*/
 174:..\..\..\lvgl\version_6.1.2\lvgl\src\lv_objx/lv_cont.c **** 
 175:..\..\..\lvgl\version_6.1.2\lvgl\src\lv_objx/lv_cont.c **** /**
 176:..\..\..\lvgl\version_6.1.2\lvgl\src\lv_objx/lv_cont.c ****  * Get the layout of a container
 177:..\..\..\lvgl\version_6.1.2\lvgl\src\lv_objx/lv_cont.c ****  * @param cont pointer to container object
 178:..\..\..\lvgl\version_6.1.2\lvgl\src\lv_objx/lv_cont.c ****  * @return the layout from 'lv_cont_layout_t'
 179:..\..\..\lvgl\version_6.1.2\lvgl\src\lv_objx/lv_cont.c ****  */
 180:..\..\..\lvgl\version_6.1.2\lvgl\src\lv_objx/lv_cont.c **** lv_layout_t lv_cont_get_layout(const lv_obj_t * cont)
 181:..\..\..\lvgl\version_6.1.2\lvgl\src\lv_objx/lv_cont.c **** {
 596              		.loc 3 181 0
 597              		.cfi_startproc
ARM GAS  C:\Users\tmj32\AppData\Local\Temp\ccnLJfS3.s 			page 19


 598              		@ args = 0, pretend = 0, frame = 16
 599              		@ frame_needed = 1, uses_anonymous_args = 0
 600 0000 80B5     		push	{r7, lr}
 601              		.cfi_def_cfa_offset 8
 602              		.cfi_offset 7, -8
 603              		.cfi_offset 14, -4
 604 0002 84B0     		sub	sp, sp, #16
 605              		.cfi_def_cfa_offset 24
 606 0004 00AF     		add	r7, sp, #0
 607              		.cfi_def_cfa_register 7
 608 0006 7860     		str	r0, [r7, #4]
 182:..\..\..\lvgl\version_6.1.2\lvgl\src\lv_objx/lv_cont.c ****     LV_ASSERT_OBJ(cont, LV_OBJX_NAME);
 183:..\..\..\lvgl\version_6.1.2\lvgl\src\lv_objx/lv_cont.c **** 
 184:..\..\..\lvgl\version_6.1.2\lvgl\src\lv_objx/lv_cont.c ****     lv_cont_ext_t * ext = lv_obj_get_ext_attr(cont);
 609              		.loc 3 184 0
 610 0008 7868     		ldr	r0, [r7, #4]
 611 000a FFF7FEFF 		bl	lv_obj_get_ext_attr
 612 000e F860     		str	r0, [r7, #12]
 185:..\..\..\lvgl\version_6.1.2\lvgl\src\lv_objx/lv_cont.c ****     return ext->layout;
 613              		.loc 3 185 0
 614 0010 FB68     		ldr	r3, [r7, #12]
 615 0012 1B78     		ldrb	r3, [r3]
 616 0014 C3F30303 		ubfx	r3, r3, #0, #4
 617 0018 DBB2     		uxtb	r3, r3
 186:..\..\..\lvgl\version_6.1.2\lvgl\src\lv_objx/lv_cont.c **** }
 618              		.loc 3 186 0
 619 001a 1846     		mov	r0, r3
 620 001c 1037     		adds	r7, r7, #16
 621              		.cfi_def_cfa_offset 8
 622 001e BD46     		mov	sp, r7
 623              		.cfi_def_cfa_register 13
 624              		@ sp needed
 625 0020 80BD     		pop	{r7, pc}
 626              		.cfi_endproc
 627              	.LFE38:
 628              		.size	lv_cont_get_layout, .-lv_cont_get_layout
 629 0022 00BF     		.section	.text.lv_cont_get_fit_left,"ax",%progbits
 630              		.align	2
 631              		.global	lv_cont_get_fit_left
 632              		.thumb
 633              		.thumb_func
 634              		.type	lv_cont_get_fit_left, %function
 635              	lv_cont_get_fit_left:
 636              	.LFB39:
 187:..\..\..\lvgl\version_6.1.2\lvgl\src\lv_objx/lv_cont.c **** 
 188:..\..\..\lvgl\version_6.1.2\lvgl\src\lv_objx/lv_cont.c **** /**
 189:..\..\..\lvgl\version_6.1.2\lvgl\src\lv_objx/lv_cont.c ****  * Get left fit mode of a container
 190:..\..\..\lvgl\version_6.1.2\lvgl\src\lv_objx/lv_cont.c ****  * @param cont pointer to a container object
 191:..\..\..\lvgl\version_6.1.2\lvgl\src\lv_objx/lv_cont.c ****  * @return an element of `lv_fit_t`
 192:..\..\..\lvgl\version_6.1.2\lvgl\src\lv_objx/lv_cont.c ****  */
 193:..\..\..\lvgl\version_6.1.2\lvgl\src\lv_objx/lv_cont.c **** lv_fit_t lv_cont_get_fit_left(const lv_obj_t * cont)
 194:..\..\..\lvgl\version_6.1.2\lvgl\src\lv_objx/lv_cont.c **** {
 637              		.loc 3 194 0
 638              		.cfi_startproc
 639              		@ args = 0, pretend = 0, frame = 16
 640              		@ frame_needed = 1, uses_anonymous_args = 0
 641 0000 80B5     		push	{r7, lr}
ARM GAS  C:\Users\tmj32\AppData\Local\Temp\ccnLJfS3.s 			page 20


 642              		.cfi_def_cfa_offset 8
 643              		.cfi_offset 7, -8
 644              		.cfi_offset 14, -4
 645 0002 84B0     		sub	sp, sp, #16
 646              		.cfi_def_cfa_offset 24
 647 0004 00AF     		add	r7, sp, #0
 648              		.cfi_def_cfa_register 7
 649 0006 7860     		str	r0, [r7, #4]
 195:..\..\..\lvgl\version_6.1.2\lvgl\src\lv_objx/lv_cont.c ****     LV_ASSERT_OBJ(cont, LV_OBJX_NAME);
 196:..\..\..\lvgl\version_6.1.2\lvgl\src\lv_objx/lv_cont.c **** 
 197:..\..\..\lvgl\version_6.1.2\lvgl\src\lv_objx/lv_cont.c ****     lv_cont_ext_t * ext = lv_obj_get_ext_attr(cont);
 650              		.loc 3 197 0
 651 0008 7868     		ldr	r0, [r7, #4]
 652 000a FFF7FEFF 		bl	lv_obj_get_ext_attr
 653 000e F860     		str	r0, [r7, #12]
 198:..\..\..\lvgl\version_6.1.2\lvgl\src\lv_objx/lv_cont.c ****     return ext->fit_left;
 654              		.loc 3 198 0
 655 0010 FB68     		ldr	r3, [r7, #12]
 656 0012 1B78     		ldrb	r3, [r3]
 657 0014 C3F30113 		ubfx	r3, r3, #4, #2
 658 0018 DBB2     		uxtb	r3, r3
 199:..\..\..\lvgl\version_6.1.2\lvgl\src\lv_objx/lv_cont.c **** }
 659              		.loc 3 199 0
 660 001a 1846     		mov	r0, r3
 661 001c 1037     		adds	r7, r7, #16
 662              		.cfi_def_cfa_offset 8
 663 001e BD46     		mov	sp, r7
 664              		.cfi_def_cfa_register 13
 665              		@ sp needed
 666 0020 80BD     		pop	{r7, pc}
 667              		.cfi_endproc
 668              	.LFE39:
 669              		.size	lv_cont_get_fit_left, .-lv_cont_get_fit_left
 670 0022 00BF     		.section	.text.lv_cont_get_fit_right,"ax",%progbits
 671              		.align	2
 672              		.global	lv_cont_get_fit_right
 673              		.thumb
 674              		.thumb_func
 675              		.type	lv_cont_get_fit_right, %function
 676              	lv_cont_get_fit_right:
 677              	.LFB40:
 200:..\..\..\lvgl\version_6.1.2\lvgl\src\lv_objx/lv_cont.c **** 
 201:..\..\..\lvgl\version_6.1.2\lvgl\src\lv_objx/lv_cont.c **** /**
 202:..\..\..\lvgl\version_6.1.2\lvgl\src\lv_objx/lv_cont.c ****  * Get right fit mode of a container
 203:..\..\..\lvgl\version_6.1.2\lvgl\src\lv_objx/lv_cont.c ****  * @param cont pointer to a container object
 204:..\..\..\lvgl\version_6.1.2\lvgl\src\lv_objx/lv_cont.c ****  * @return an element of `lv_fit_t`
 205:..\..\..\lvgl\version_6.1.2\lvgl\src\lv_objx/lv_cont.c ****  */
 206:..\..\..\lvgl\version_6.1.2\lvgl\src\lv_objx/lv_cont.c **** lv_fit_t lv_cont_get_fit_right(const lv_obj_t * cont)
 207:..\..\..\lvgl\version_6.1.2\lvgl\src\lv_objx/lv_cont.c **** {
 678              		.loc 3 207 0
 679              		.cfi_startproc
 680              		@ args = 0, pretend = 0, frame = 16
 681              		@ frame_needed = 1, uses_anonymous_args = 0
 682 0000 80B5     		push	{r7, lr}
 683              		.cfi_def_cfa_offset 8
 684              		.cfi_offset 7, -8
 685              		.cfi_offset 14, -4
ARM GAS  C:\Users\tmj32\AppData\Local\Temp\ccnLJfS3.s 			page 21


 686 0002 84B0     		sub	sp, sp, #16
 687              		.cfi_def_cfa_offset 24
 688 0004 00AF     		add	r7, sp, #0
 689              		.cfi_def_cfa_register 7
 690 0006 7860     		str	r0, [r7, #4]
 208:..\..\..\lvgl\version_6.1.2\lvgl\src\lv_objx/lv_cont.c ****     LV_ASSERT_OBJ(cont, LV_OBJX_NAME);
 209:..\..\..\lvgl\version_6.1.2\lvgl\src\lv_objx/lv_cont.c **** 
 210:..\..\..\lvgl\version_6.1.2\lvgl\src\lv_objx/lv_cont.c ****     lv_cont_ext_t * ext = lv_obj_get_ext_attr(cont);
 691              		.loc 3 210 0
 692 0008 7868     		ldr	r0, [r7, #4]
 693 000a FFF7FEFF 		bl	lv_obj_get_ext_attr
 694 000e F860     		str	r0, [r7, #12]
 211:..\..\..\lvgl\version_6.1.2\lvgl\src\lv_objx/lv_cont.c ****     return ext->fit_right;
 695              		.loc 3 211 0
 696 0010 FB68     		ldr	r3, [r7, #12]
 697 0012 1B78     		ldrb	r3, [r3]
 698 0014 C3F38113 		ubfx	r3, r3, #6, #2
 699 0018 DBB2     		uxtb	r3, r3
 212:..\..\..\lvgl\version_6.1.2\lvgl\src\lv_objx/lv_cont.c **** }
 700              		.loc 3 212 0
 701 001a 1846     		mov	r0, r3
 702 001c 1037     		adds	r7, r7, #16
 703              		.cfi_def_cfa_offset 8
 704 001e BD46     		mov	sp, r7
 705              		.cfi_def_cfa_register 13
 706              		@ sp needed
 707 0020 80BD     		pop	{r7, pc}
 708              		.cfi_endproc
 709              	.LFE40:
 710              		.size	lv_cont_get_fit_right, .-lv_cont_get_fit_right
 711 0022 00BF     		.section	.text.lv_cont_get_fit_top,"ax",%progbits
 712              		.align	2
 713              		.global	lv_cont_get_fit_top
 714              		.thumb
 715              		.thumb_func
 716              		.type	lv_cont_get_fit_top, %function
 717              	lv_cont_get_fit_top:
 718              	.LFB41:
 213:..\..\..\lvgl\version_6.1.2\lvgl\src\lv_objx/lv_cont.c **** 
 214:..\..\..\lvgl\version_6.1.2\lvgl\src\lv_objx/lv_cont.c **** /**
 215:..\..\..\lvgl\version_6.1.2\lvgl\src\lv_objx/lv_cont.c ****  * Get top fit mode of a container
 216:..\..\..\lvgl\version_6.1.2\lvgl\src\lv_objx/lv_cont.c ****  * @param cont pointer to a container object
 217:..\..\..\lvgl\version_6.1.2\lvgl\src\lv_objx/lv_cont.c ****  * @return an element of `lv_fit_t`
 218:..\..\..\lvgl\version_6.1.2\lvgl\src\lv_objx/lv_cont.c ****  */
 219:..\..\..\lvgl\version_6.1.2\lvgl\src\lv_objx/lv_cont.c **** lv_fit_t lv_cont_get_fit_top(const lv_obj_t * cont)
 220:..\..\..\lvgl\version_6.1.2\lvgl\src\lv_objx/lv_cont.c **** {
 719              		.loc 3 220 0
 720              		.cfi_startproc
 721              		@ args = 0, pretend = 0, frame = 16
 722              		@ frame_needed = 1, uses_anonymous_args = 0
 723 0000 80B5     		push	{r7, lr}
 724              		.cfi_def_cfa_offset 8
 725              		.cfi_offset 7, -8
 726              		.cfi_offset 14, -4
 727 0002 84B0     		sub	sp, sp, #16
 728              		.cfi_def_cfa_offset 24
 729 0004 00AF     		add	r7, sp, #0
ARM GAS  C:\Users\tmj32\AppData\Local\Temp\ccnLJfS3.s 			page 22


 730              		.cfi_def_cfa_register 7
 731 0006 7860     		str	r0, [r7, #4]
 221:..\..\..\lvgl\version_6.1.2\lvgl\src\lv_objx/lv_cont.c ****     LV_ASSERT_OBJ(cont, LV_OBJX_NAME);
 222:..\..\..\lvgl\version_6.1.2\lvgl\src\lv_objx/lv_cont.c **** 
 223:..\..\..\lvgl\version_6.1.2\lvgl\src\lv_objx/lv_cont.c ****     lv_cont_ext_t * ext = lv_obj_get_ext_attr(cont);
 732              		.loc 3 223 0
 733 0008 7868     		ldr	r0, [r7, #4]
 734 000a FFF7FEFF 		bl	lv_obj_get_ext_attr
 735 000e F860     		str	r0, [r7, #12]
 224:..\..\..\lvgl\version_6.1.2\lvgl\src\lv_objx/lv_cont.c ****     return ext->fit_top;
 736              		.loc 3 224 0
 737 0010 FB68     		ldr	r3, [r7, #12]
 738 0012 5B78     		ldrb	r3, [r3, #1]
 739 0014 C3F30103 		ubfx	r3, r3, #0, #2
 740 0018 DBB2     		uxtb	r3, r3
 225:..\..\..\lvgl\version_6.1.2\lvgl\src\lv_objx/lv_cont.c **** }
 741              		.loc 3 225 0
 742 001a 1846     		mov	r0, r3
 743 001c 1037     		adds	r7, r7, #16
 744              		.cfi_def_cfa_offset 8
 745 001e BD46     		mov	sp, r7
 746              		.cfi_def_cfa_register 13
 747              		@ sp needed
 748 0020 80BD     		pop	{r7, pc}
 749              		.cfi_endproc
 750              	.LFE41:
 751              		.size	lv_cont_get_fit_top, .-lv_cont_get_fit_top
 752 0022 00BF     		.section	.text.lv_cont_get_fit_bottom,"ax",%progbits
 753              		.align	2
 754              		.global	lv_cont_get_fit_bottom
 755              		.thumb
 756              		.thumb_func
 757              		.type	lv_cont_get_fit_bottom, %function
 758              	lv_cont_get_fit_bottom:
 759              	.LFB42:
 226:..\..\..\lvgl\version_6.1.2\lvgl\src\lv_objx/lv_cont.c **** 
 227:..\..\..\lvgl\version_6.1.2\lvgl\src\lv_objx/lv_cont.c **** /**
 228:..\..\..\lvgl\version_6.1.2\lvgl\src\lv_objx/lv_cont.c ****  * Get bottom fit mode of a container
 229:..\..\..\lvgl\version_6.1.2\lvgl\src\lv_objx/lv_cont.c ****  * @param cont pointer to a container object
 230:..\..\..\lvgl\version_6.1.2\lvgl\src\lv_objx/lv_cont.c ****  * @return an element of `lv_fit_t`
 231:..\..\..\lvgl\version_6.1.2\lvgl\src\lv_objx/lv_cont.c ****  */
 232:..\..\..\lvgl\version_6.1.2\lvgl\src\lv_objx/lv_cont.c **** lv_fit_t lv_cont_get_fit_bottom(const lv_obj_t * cont)
 233:..\..\..\lvgl\version_6.1.2\lvgl\src\lv_objx/lv_cont.c **** {
 760              		.loc 3 233 0
 761              		.cfi_startproc
 762              		@ args = 0, pretend = 0, frame = 16
 763              		@ frame_needed = 1, uses_anonymous_args = 0
 764 0000 80B5     		push	{r7, lr}
 765              		.cfi_def_cfa_offset 8
 766              		.cfi_offset 7, -8
 767              		.cfi_offset 14, -4
 768 0002 84B0     		sub	sp, sp, #16
 769              		.cfi_def_cfa_offset 24
 770 0004 00AF     		add	r7, sp, #0
 771              		.cfi_def_cfa_register 7
 772 0006 7860     		str	r0, [r7, #4]
 234:..\..\..\lvgl\version_6.1.2\lvgl\src\lv_objx/lv_cont.c ****     LV_ASSERT_OBJ(cont, LV_OBJX_NAME);
ARM GAS  C:\Users\tmj32\AppData\Local\Temp\ccnLJfS3.s 			page 23


 235:..\..\..\lvgl\version_6.1.2\lvgl\src\lv_objx/lv_cont.c **** 
 236:..\..\..\lvgl\version_6.1.2\lvgl\src\lv_objx/lv_cont.c ****     lv_cont_ext_t * ext = lv_obj_get_ext_attr(cont);
 773              		.loc 3 236 0
 774 0008 7868     		ldr	r0, [r7, #4]
 775 000a FFF7FEFF 		bl	lv_obj_get_ext_attr
 776 000e F860     		str	r0, [r7, #12]
 237:..\..\..\lvgl\version_6.1.2\lvgl\src\lv_objx/lv_cont.c ****     return ext->fit_bottom;
 777              		.loc 3 237 0
 778 0010 FB68     		ldr	r3, [r7, #12]
 779 0012 5B78     		ldrb	r3, [r3, #1]
 780 0014 C3F38103 		ubfx	r3, r3, #2, #2
 781 0018 DBB2     		uxtb	r3, r3
 238:..\..\..\lvgl\version_6.1.2\lvgl\src\lv_objx/lv_cont.c **** }
 782              		.loc 3 238 0
 783 001a 1846     		mov	r0, r3
 784 001c 1037     		adds	r7, r7, #16
 785              		.cfi_def_cfa_offset 8
 786 001e BD46     		mov	sp, r7
 787              		.cfi_def_cfa_register 13
 788              		@ sp needed
 789 0020 80BD     		pop	{r7, pc}
 790              		.cfi_endproc
 791              	.LFE42:
 792              		.size	lv_cont_get_fit_bottom, .-lv_cont_get_fit_bottom
 793 0022 00BF     		.section	.rodata
 794              		.align	2
 795              	.LC0:
 796 0000 6C765F63 		.ascii	"lv_cont\000"
 796      6F6E7400 
 797              		.section	.text.lv_cont_signal,"ax",%progbits
 798              		.align	2
 799              		.thumb
 800              		.thumb_func
 801              		.type	lv_cont_signal, %function
 802              	lv_cont_signal:
 803              	.LFB43:
 239:..\..\..\lvgl\version_6.1.2\lvgl\src\lv_objx/lv_cont.c **** 
 240:..\..\..\lvgl\version_6.1.2\lvgl\src\lv_objx/lv_cont.c **** /**********************
 241:..\..\..\lvgl\version_6.1.2\lvgl\src\lv_objx/lv_cont.c ****  *   STATIC FUNCTIONS
 242:..\..\..\lvgl\version_6.1.2\lvgl\src\lv_objx/lv_cont.c ****  **********************/
 243:..\..\..\lvgl\version_6.1.2\lvgl\src\lv_objx/lv_cont.c **** 
 244:..\..\..\lvgl\version_6.1.2\lvgl\src\lv_objx/lv_cont.c **** /**
 245:..\..\..\lvgl\version_6.1.2\lvgl\src\lv_objx/lv_cont.c ****  * Signal function of the container
 246:..\..\..\lvgl\version_6.1.2\lvgl\src\lv_objx/lv_cont.c ****  * @param cont pointer to a container object
 247:..\..\..\lvgl\version_6.1.2\lvgl\src\lv_objx/lv_cont.c ****  * @param sign a signal type from lv_signal_t enum
 248:..\..\..\lvgl\version_6.1.2\lvgl\src\lv_objx/lv_cont.c ****  * @param param pointer to a signal specific variable
 249:..\..\..\lvgl\version_6.1.2\lvgl\src\lv_objx/lv_cont.c ****  * @return LV_RES_OK: the object is not deleted in the function; LV_RES_INV: the object is deleted
 250:..\..\..\lvgl\version_6.1.2\lvgl\src\lv_objx/lv_cont.c ****  */
 251:..\..\..\lvgl\version_6.1.2\lvgl\src\lv_objx/lv_cont.c **** static lv_res_t lv_cont_signal(lv_obj_t * cont, lv_signal_t sign, void * param)
 252:..\..\..\lvgl\version_6.1.2\lvgl\src\lv_objx/lv_cont.c **** {
 804              		.loc 3 252 0
 805              		.cfi_startproc
 806              		@ args = 0, pretend = 0, frame = 24
 807              		@ frame_needed = 1, uses_anonymous_args = 0
 808 0000 90B5     		push	{r4, r7, lr}
 809              		.cfi_def_cfa_offset 12
 810              		.cfi_offset 4, -12
ARM GAS  C:\Users\tmj32\AppData\Local\Temp\ccnLJfS3.s 			page 24


 811              		.cfi_offset 7, -8
 812              		.cfi_offset 14, -4
 813 0002 87B0     		sub	sp, sp, #28
 814              		.cfi_def_cfa_offset 40
 815 0004 00AF     		add	r7, sp, #0
 816              		.cfi_def_cfa_register 7
 817 0006 F860     		str	r0, [r7, #12]
 818 0008 0B46     		mov	r3, r1
 819 000a 7A60     		str	r2, [r7, #4]
 820 000c FB72     		strb	r3, [r7, #11]
 253:..\..\..\lvgl\version_6.1.2\lvgl\src\lv_objx/lv_cont.c ****     lv_res_t res;
 254:..\..\..\lvgl\version_6.1.2\lvgl\src\lv_objx/lv_cont.c **** 
 255:..\..\..\lvgl\version_6.1.2\lvgl\src\lv_objx/lv_cont.c ****     /* Include the ancient signal function */
 256:..\..\..\lvgl\version_6.1.2\lvgl\src\lv_objx/lv_cont.c ****     res = ancestor_signal(cont, sign, param);
 821              		.loc 3 256 0
 822 000e 2A4B     		ldr	r3, .L46
 823 0010 1B68     		ldr	r3, [r3]
 824 0012 F97A     		ldrb	r1, [r7, #11]	@ zero_extendqisi2
 825 0014 7A68     		ldr	r2, [r7, #4]
 826 0016 F868     		ldr	r0, [r7, #12]
 827 0018 9847     		blx	r3
 828 001a 0346     		mov	r3, r0
 829 001c FB75     		strb	r3, [r7, #23]
 257:..\..\..\lvgl\version_6.1.2\lvgl\src\lv_objx/lv_cont.c ****     if(res != LV_RES_OK) return res;
 830              		.loc 3 257 0
 831 001e FB7D     		ldrb	r3, [r7, #23]	@ zero_extendqisi2
 832 0020 012B     		cmp	r3, #1
 833 0022 01D0     		beq	.L37
 834              		.loc 3 257 0 is_stmt 0 discriminator 1
 835 0024 FB7D     		ldrb	r3, [r7, #23]	@ zero_extendqisi2
 836 0026 43E0     		b	.L38
 837              	.L37:
 258:..\..\..\lvgl\version_6.1.2\lvgl\src\lv_objx/lv_cont.c ****     if(sign == LV_SIGNAL_GET_TYPE) return lv_obj_handle_get_type_signal(param, LV_OBJX_NAME);
 838              		.loc 3 258 0 is_stmt 1
 839 0028 FB7A     		ldrb	r3, [r7, #11]	@ zero_extendqisi2
 840 002a 072B     		cmp	r3, #7
 841 002c 05D1     		bne	.L39
 842              		.loc 3 258 0 is_stmt 0 discriminator 1
 843 002e 2349     		ldr	r1, .L46+4
 844 0030 7868     		ldr	r0, [r7, #4]
 845 0032 FFF7FEFF 		bl	lv_obj_handle_get_type_signal
 846 0036 0346     		mov	r3, r0
 847 0038 3AE0     		b	.L38
 848              	.L39:
 259:..\..\..\lvgl\version_6.1.2\lvgl\src\lv_objx/lv_cont.c **** 
 260:..\..\..\lvgl\version_6.1.2\lvgl\src\lv_objx/lv_cont.c ****     if(sign == LV_SIGNAL_STYLE_CHG) { /*Recalculate the padding if the style changed*/
 849              		.loc 3 260 0 is_stmt 1
 850 003a FB7A     		ldrb	r3, [r7, #11]	@ zero_extendqisi2
 851 003c 042B     		cmp	r3, #4
 852 003e 06D1     		bne	.L40
 261:..\..\..\lvgl\version_6.1.2\lvgl\src\lv_objx/lv_cont.c ****         lv_cont_refr_layout(cont);
 853              		.loc 3 261 0
 854 0040 F868     		ldr	r0, [r7, #12]
 855 0042 FFF7FEFF 		bl	lv_cont_refr_layout
 262:..\..\..\lvgl\version_6.1.2\lvgl\src\lv_objx/lv_cont.c ****         lv_cont_refr_autofit(cont);
 856              		.loc 3 262 0
 857 0046 F868     		ldr	r0, [r7, #12]
ARM GAS  C:\Users\tmj32\AppData\Local\Temp\ccnLJfS3.s 			page 25


 858 0048 FFF7FEFF 		bl	lv_cont_refr_autofit
 859 004c 2FE0     		b	.L41
 860              	.L40:
 263:..\..\..\lvgl\version_6.1.2\lvgl\src\lv_objx/lv_cont.c ****     } else if(sign == LV_SIGNAL_CHILD_CHG) {
 861              		.loc 3 263 0
 862 004e FB7A     		ldrb	r3, [r7, #11]	@ zero_extendqisi2
 863 0050 012B     		cmp	r3, #1
 864 0052 06D1     		bne	.L42
 264:..\..\..\lvgl\version_6.1.2\lvgl\src\lv_objx/lv_cont.c ****         lv_cont_refr_layout(cont);
 865              		.loc 3 264 0
 866 0054 F868     		ldr	r0, [r7, #12]
 867 0056 FFF7FEFF 		bl	lv_cont_refr_layout
 265:..\..\..\lvgl\version_6.1.2\lvgl\src\lv_objx/lv_cont.c ****         lv_cont_refr_autofit(cont);
 868              		.loc 3 265 0
 869 005a F868     		ldr	r0, [r7, #12]
 870 005c FFF7FEFF 		bl	lv_cont_refr_autofit
 871 0060 25E0     		b	.L41
 872              	.L42:
 266:..\..\..\lvgl\version_6.1.2\lvgl\src\lv_objx/lv_cont.c ****     } else if(sign == LV_SIGNAL_CORD_CHG) {
 873              		.loc 3 266 0
 874 0062 FB7A     		ldrb	r3, [r7, #11]	@ zero_extendqisi2
 875 0064 022B     		cmp	r3, #2
 876 0066 1CD1     		bne	.L43
 267:..\..\..\lvgl\version_6.1.2\lvgl\src\lv_objx/lv_cont.c ****         if(lv_obj_get_width(cont) != lv_area_get_width(param) || lv_obj_get_height(cont) != lv_area
 877              		.loc 3 267 0
 878 0068 F868     		ldr	r0, [r7, #12]
 879 006a FFF7FEFF 		bl	lv_obj_get_width
 880 006e 0346     		mov	r3, r0
 881 0070 1C46     		mov	r4, r3
 882 0072 7868     		ldr	r0, [r7, #4]
 883 0074 FFF7FEFF 		bl	lv_area_get_width
 884 0078 0346     		mov	r3, r0
 885 007a 9C42     		cmp	r4, r3
 886 007c 0AD1     		bne	.L44
 887              		.loc 3 267 0 is_stmt 0 discriminator 1
 888 007e F868     		ldr	r0, [r7, #12]
 889 0080 FFF7FEFF 		bl	lv_obj_get_height
 890 0084 0346     		mov	r3, r0
 891 0086 1C46     		mov	r4, r3
 892 0088 7868     		ldr	r0, [r7, #4]
 893 008a FFF7FEFF 		bl	lv_area_get_height
 894 008e 0346     		mov	r3, r0
 895 0090 9C42     		cmp	r4, r3
 896 0092 0CD0     		beq	.L41
 897              	.L44:
 268:..\..\..\lvgl\version_6.1.2\lvgl\src\lv_objx/lv_cont.c ****             lv_cont_refr_layout(cont);
 898              		.loc 3 268 0 is_stmt 1
 899 0094 F868     		ldr	r0, [r7, #12]
 900 0096 FFF7FEFF 		bl	lv_cont_refr_layout
 269:..\..\..\lvgl\version_6.1.2\lvgl\src\lv_objx/lv_cont.c ****             lv_cont_refr_autofit(cont);
 901              		.loc 3 269 0
 902 009a F868     		ldr	r0, [r7, #12]
 903 009c FFF7FEFF 		bl	lv_cont_refr_autofit
 904 00a0 05E0     		b	.L41
 905              	.L43:
 270:..\..\..\lvgl\version_6.1.2\lvgl\src\lv_objx/lv_cont.c ****         }
 271:..\..\..\lvgl\version_6.1.2\lvgl\src\lv_objx/lv_cont.c ****     } else if(sign == LV_SIGNAL_PARENT_SIZE_CHG) {
ARM GAS  C:\Users\tmj32\AppData\Local\Temp\ccnLJfS3.s 			page 26


 906              		.loc 3 271 0
 907 00a2 FB7A     		ldrb	r3, [r7, #11]	@ zero_extendqisi2
 908 00a4 032B     		cmp	r3, #3
 909 00a6 02D1     		bne	.L41
 272:..\..\..\lvgl\version_6.1.2\lvgl\src\lv_objx/lv_cont.c ****         /*FLOOD and FILL fit needs to be refreshed if the parent size has changed*/
 273:..\..\..\lvgl\version_6.1.2\lvgl\src\lv_objx/lv_cont.c ****         lv_cont_refr_autofit(cont);
 910              		.loc 3 273 0
 911 00a8 F868     		ldr	r0, [r7, #12]
 912 00aa FFF7FEFF 		bl	lv_cont_refr_autofit
 913              	.L41:
 274:..\..\..\lvgl\version_6.1.2\lvgl\src\lv_objx/lv_cont.c **** 
 275:..\..\..\lvgl\version_6.1.2\lvgl\src\lv_objx/lv_cont.c ****     }
 276:..\..\..\lvgl\version_6.1.2\lvgl\src\lv_objx/lv_cont.c **** 
 277:..\..\..\lvgl\version_6.1.2\lvgl\src\lv_objx/lv_cont.c ****     return res;
 914              		.loc 3 277 0
 915 00ae FB7D     		ldrb	r3, [r7, #23]	@ zero_extendqisi2
 916              	.L38:
 278:..\..\..\lvgl\version_6.1.2\lvgl\src\lv_objx/lv_cont.c **** }
 917              		.loc 3 278 0
 918 00b0 1846     		mov	r0, r3
 919 00b2 1C37     		adds	r7, r7, #28
 920              		.cfi_def_cfa_offset 12
 921 00b4 BD46     		mov	sp, r7
 922              		.cfi_def_cfa_register 13
 923              		@ sp needed
 924 00b6 90BD     		pop	{r4, r7, pc}
 925              	.L47:
 926              		.align	2
 927              	.L46:
 928 00b8 00000000 		.word	ancestor_signal
 929 00bc 00000000 		.word	.LC0
 930              		.cfi_endproc
 931              	.LFE43:
 932              		.size	lv_cont_signal, .-lv_cont_signal
 933              		.section	.text.lv_cont_refr_layout,"ax",%progbits
 934              		.align	2
 935              		.thumb
 936              		.thumb_func
 937              		.type	lv_cont_refr_layout, %function
 938              	lv_cont_refr_layout:
 939              	.LFB44:
 279:..\..\..\lvgl\version_6.1.2\lvgl\src\lv_objx/lv_cont.c **** 
 280:..\..\..\lvgl\version_6.1.2\lvgl\src\lv_objx/lv_cont.c **** /**
 281:..\..\..\lvgl\version_6.1.2\lvgl\src\lv_objx/lv_cont.c ****  * Refresh the layout of a container
 282:..\..\..\lvgl\version_6.1.2\lvgl\src\lv_objx/lv_cont.c ****  * @param cont pointer to an object which layout should be refreshed
 283:..\..\..\lvgl\version_6.1.2\lvgl\src\lv_objx/lv_cont.c ****  */
 284:..\..\..\lvgl\version_6.1.2\lvgl\src\lv_objx/lv_cont.c **** static void lv_cont_refr_layout(lv_obj_t * cont)
 285:..\..\..\lvgl\version_6.1.2\lvgl\src\lv_objx/lv_cont.c **** {
 940              		.loc 3 285 0
 941              		.cfi_startproc
 942              		@ args = 0, pretend = 0, frame = 16
 943              		@ frame_needed = 1, uses_anonymous_args = 0
 944 0000 80B5     		push	{r7, lr}
 945              		.cfi_def_cfa_offset 8
 946              		.cfi_offset 7, -8
 947              		.cfi_offset 14, -4
 948 0002 84B0     		sub	sp, sp, #16
ARM GAS  C:\Users\tmj32\AppData\Local\Temp\ccnLJfS3.s 			page 27


 949              		.cfi_def_cfa_offset 24
 950 0004 00AF     		add	r7, sp, #0
 951              		.cfi_def_cfa_register 7
 952 0006 7860     		str	r0, [r7, #4]
 286:..\..\..\lvgl\version_6.1.2\lvgl\src\lv_objx/lv_cont.c ****     lv_layout_t type = lv_cont_get_layout(cont);
 953              		.loc 3 286 0
 954 0008 7868     		ldr	r0, [r7, #4]
 955 000a FFF7FEFF 		bl	lv_cont_get_layout
 956 000e 0346     		mov	r3, r0
 957 0010 FB73     		strb	r3, [r7, #15]
 287:..\..\..\lvgl\version_6.1.2\lvgl\src\lv_objx/lv_cont.c **** 
 288:..\..\..\lvgl\version_6.1.2\lvgl\src\lv_objx/lv_cont.c ****     /*'cont' has to be at least 1 child*/
 289:..\..\..\lvgl\version_6.1.2\lvgl\src\lv_objx/lv_cont.c ****     if(lv_obj_get_child(cont, NULL) == NULL) return;
 958              		.loc 3 289 0
 959 0012 0021     		movs	r1, #0
 960 0014 7868     		ldr	r0, [r7, #4]
 961 0016 FFF7FEFF 		bl	lv_obj_get_child
 962 001a 0346     		mov	r3, r0
 963 001c 002B     		cmp	r3, #0
 964 001e 31D0     		beq	.L58
 290:..\..\..\lvgl\version_6.1.2\lvgl\src\lv_objx/lv_cont.c **** 
 291:..\..\..\lvgl\version_6.1.2\lvgl\src\lv_objx/lv_cont.c ****     if(type == LV_LAYOUT_OFF) return;
 965              		.loc 3 291 0
 966 0020 FB7B     		ldrb	r3, [r7, #15]	@ zero_extendqisi2
 967 0022 002B     		cmp	r3, #0
 968 0024 30D0     		beq	.L59
 292:..\..\..\lvgl\version_6.1.2\lvgl\src\lv_objx/lv_cont.c **** 
 293:..\..\..\lvgl\version_6.1.2\lvgl\src\lv_objx/lv_cont.c ****     if(type == LV_LAYOUT_CENTER) {
 969              		.loc 3 293 0
 970 0026 FB7B     		ldrb	r3, [r7, #15]	@ zero_extendqisi2
 971 0028 012B     		cmp	r3, #1
 972 002a 03D1     		bne	.L52
 294:..\..\..\lvgl\version_6.1.2\lvgl\src\lv_objx/lv_cont.c ****         lv_cont_layout_center(cont);
 973              		.loc 3 294 0
 974 002c 7868     		ldr	r0, [r7, #4]
 975 002e FFF7FEFF 		bl	lv_cont_layout_center
 976 0032 2AE0     		b	.L48
 977              	.L52:
 295:..\..\..\lvgl\version_6.1.2\lvgl\src\lv_objx/lv_cont.c ****     } else if(type == LV_LAYOUT_COL_L || type == LV_LAYOUT_COL_M || type == LV_LAYOUT_COL_R) {
 978              		.loc 3 295 0
 979 0034 FB7B     		ldrb	r3, [r7, #15]	@ zero_extendqisi2
 980 0036 022B     		cmp	r3, #2
 981 0038 05D0     		beq	.L53
 982              		.loc 3 295 0 is_stmt 0 discriminator 1
 983 003a FB7B     		ldrb	r3, [r7, #15]	@ zero_extendqisi2
 984 003c 032B     		cmp	r3, #3
 985 003e 02D0     		beq	.L53
 986              		.loc 3 295 0 discriminator 2
 987 0040 FB7B     		ldrb	r3, [r7, #15]	@ zero_extendqisi2
 988 0042 042B     		cmp	r3, #4
 989 0044 03D1     		bne	.L54
 990              	.L53:
 296:..\..\..\lvgl\version_6.1.2\lvgl\src\lv_objx/lv_cont.c ****         lv_cont_layout_col(cont);
 991              		.loc 3 296 0 is_stmt 1
 992 0046 7868     		ldr	r0, [r7, #4]
 993 0048 FFF7FEFF 		bl	lv_cont_layout_col
 994 004c 1DE0     		b	.L48
ARM GAS  C:\Users\tmj32\AppData\Local\Temp\ccnLJfS3.s 			page 28


 995              	.L54:
 297:..\..\..\lvgl\version_6.1.2\lvgl\src\lv_objx/lv_cont.c ****     } else if(type == LV_LAYOUT_ROW_T || type == LV_LAYOUT_ROW_M || type == LV_LAYOUT_ROW_B) {
 996              		.loc 3 297 0
 997 004e FB7B     		ldrb	r3, [r7, #15]	@ zero_extendqisi2
 998 0050 052B     		cmp	r3, #5
 999 0052 05D0     		beq	.L55
 1000              		.loc 3 297 0 is_stmt 0 discriminator 1
 1001 0054 FB7B     		ldrb	r3, [r7, #15]	@ zero_extendqisi2
 1002 0056 062B     		cmp	r3, #6
 1003 0058 02D0     		beq	.L55
 1004              		.loc 3 297 0 discriminator 2
 1005 005a FB7B     		ldrb	r3, [r7, #15]	@ zero_extendqisi2
 1006 005c 072B     		cmp	r3, #7
 1007 005e 03D1     		bne	.L56
 1008              	.L55:
 298:..\..\..\lvgl\version_6.1.2\lvgl\src\lv_objx/lv_cont.c ****         lv_cont_layout_row(cont);
 1009              		.loc 3 298 0 is_stmt 1
 1010 0060 7868     		ldr	r0, [r7, #4]
 1011 0062 FFF7FEFF 		bl	lv_cont_layout_row
 1012 0066 10E0     		b	.L48
 1013              	.L56:
 299:..\..\..\lvgl\version_6.1.2\lvgl\src\lv_objx/lv_cont.c ****     } else if(type == LV_LAYOUT_PRETTY) {
 1014              		.loc 3 299 0
 1015 0068 FB7B     		ldrb	r3, [r7, #15]	@ zero_extendqisi2
 1016 006a 082B     		cmp	r3, #8
 1017 006c 03D1     		bne	.L57
 300:..\..\..\lvgl\version_6.1.2\lvgl\src\lv_objx/lv_cont.c ****         lv_cont_layout_pretty(cont);
 1018              		.loc 3 300 0
 1019 006e 7868     		ldr	r0, [r7, #4]
 1020 0070 FFF7FEFF 		bl	lv_cont_layout_pretty
 1021 0074 09E0     		b	.L48
 1022              	.L57:
 301:..\..\..\lvgl\version_6.1.2\lvgl\src\lv_objx/lv_cont.c ****     } else if(type == LV_LAYOUT_GRID) {
 1023              		.loc 3 301 0
 1024 0076 FB7B     		ldrb	r3, [r7, #15]	@ zero_extendqisi2
 1025 0078 092B     		cmp	r3, #9
 1026 007a 06D1     		bne	.L48
 302:..\..\..\lvgl\version_6.1.2\lvgl\src\lv_objx/lv_cont.c ****         lv_cont_layout_grid(cont);
 1027              		.loc 3 302 0
 1028 007c 7868     		ldr	r0, [r7, #4]
 1029 007e FFF7FEFF 		bl	lv_cont_layout_grid
 1030 0082 02E0     		b	.L48
 1031              	.L58:
 289:..\..\..\lvgl\version_6.1.2\lvgl\src\lv_objx/lv_cont.c **** 
 1032              		.loc 3 289 0
 1033 0084 00BF     		nop
 1034 0086 00E0     		b	.L48
 1035              	.L59:
 291:..\..\..\lvgl\version_6.1.2\lvgl\src\lv_objx/lv_cont.c **** 
 1036              		.loc 3 291 0
 1037 0088 00BF     		nop
 1038              	.L48:
 303:..\..\..\lvgl\version_6.1.2\lvgl\src\lv_objx/lv_cont.c ****     }
 304:..\..\..\lvgl\version_6.1.2\lvgl\src\lv_objx/lv_cont.c **** }
 1039              		.loc 3 304 0
 1040 008a 1037     		adds	r7, r7, #16
 1041              		.cfi_def_cfa_offset 8
ARM GAS  C:\Users\tmj32\AppData\Local\Temp\ccnLJfS3.s 			page 29


 1042 008c BD46     		mov	sp, r7
 1043              		.cfi_def_cfa_register 13
 1044              		@ sp needed
 1045 008e 80BD     		pop	{r7, pc}
 1046              		.cfi_endproc
 1047              	.LFE44:
 1048              		.size	lv_cont_refr_layout, .-lv_cont_refr_layout
 1049              		.section	.text.lv_cont_layout_col,"ax",%progbits
 1050              		.align	2
 1051              		.thumb
 1052              		.thumb_func
 1053              		.type	lv_cont_layout_col, %function
 1054              	lv_cont_layout_col:
 1055              	.LFB45:
 305:..\..\..\lvgl\version_6.1.2\lvgl\src\lv_objx/lv_cont.c **** 
 306:..\..\..\lvgl\version_6.1.2\lvgl\src\lv_objx/lv_cont.c **** /**
 307:..\..\..\lvgl\version_6.1.2\lvgl\src\lv_objx/lv_cont.c ****  * Handle column type layouts
 308:..\..\..\lvgl\version_6.1.2\lvgl\src\lv_objx/lv_cont.c ****  * @param cont pointer to an object which layout should be handled
 309:..\..\..\lvgl\version_6.1.2\lvgl\src\lv_objx/lv_cont.c ****  */
 310:..\..\..\lvgl\version_6.1.2\lvgl\src\lv_objx/lv_cont.c **** static void lv_cont_layout_col(lv_obj_t * cont)
 311:..\..\..\lvgl\version_6.1.2\lvgl\src\lv_objx/lv_cont.c **** {
 1056              		.loc 3 311 0
 1057              		.cfi_startproc
 1058              		@ args = 0, pretend = 0, frame = 24
 1059              		@ frame_needed = 1, uses_anonymous_args = 0
 1060 0000 80B5     		push	{r7, lr}
 1061              		.cfi_def_cfa_offset 8
 1062              		.cfi_offset 7, -8
 1063              		.cfi_offset 14, -4
 1064 0002 88B0     		sub	sp, sp, #32
 1065              		.cfi_def_cfa_offset 40
 1066 0004 02AF     		add	r7, sp, #8
 1067              		.cfi_def_cfa 7, 32
 1068 0006 7860     		str	r0, [r7, #4]
 312:..\..\..\lvgl\version_6.1.2\lvgl\src\lv_objx/lv_cont.c ****     lv_layout_t type = lv_cont_get_layout(cont);
 1069              		.loc 3 312 0
 1070 0008 7868     		ldr	r0, [r7, #4]
 1071 000a FFF7FEFF 		bl	lv_cont_get_layout
 1072 000e 0346     		mov	r3, r0
 1073 0010 7B73     		strb	r3, [r7, #13]
 313:..\..\..\lvgl\version_6.1.2\lvgl\src\lv_objx/lv_cont.c ****     lv_obj_t * child;
 314:..\..\..\lvgl\version_6.1.2\lvgl\src\lv_objx/lv_cont.c **** 
 315:..\..\..\lvgl\version_6.1.2\lvgl\src\lv_objx/lv_cont.c ****     /*Adjust margin and get the alignment type*/
 316:..\..\..\lvgl\version_6.1.2\lvgl\src\lv_objx/lv_cont.c ****     lv_align_t align;
 317:..\..\..\lvgl\version_6.1.2\lvgl\src\lv_objx/lv_cont.c ****     const lv_style_t * style = lv_obj_get_style(cont);
 1074              		.loc 3 317 0
 1075 0012 7868     		ldr	r0, [r7, #4]
 1076 0014 FFF7FEFF 		bl	lv_obj_get_style
 1077 0018 B860     		str	r0, [r7, #8]
 318:..\..\..\lvgl\version_6.1.2\lvgl\src\lv_objx/lv_cont.c ****     lv_coord_t hpad_corr;
 319:..\..\..\lvgl\version_6.1.2\lvgl\src\lv_objx/lv_cont.c **** 
 320:..\..\..\lvgl\version_6.1.2\lvgl\src\lv_objx/lv_cont.c ****     switch(type) {
 1078              		.loc 3 320 0
 1079 001a 7B7B     		ldrb	r3, [r7, #13]	@ zero_extendqisi2
 1080 001c 032B     		cmp	r3, #3
 1081 001e 09D0     		beq	.L62
 1082 0020 042B     		cmp	r3, #4
ARM GAS  C:\Users\tmj32\AppData\Local\Temp\ccnLJfS3.s 			page 30


 1083 0022 0CD0     		beq	.L63
 1084 0024 022B     		cmp	r3, #2
 1085 0026 14D1     		bne	.L71
 321:..\..\..\lvgl\version_6.1.2\lvgl\src\lv_objx/lv_cont.c ****         case LV_LAYOUT_COL_L:
 322:..\..\..\lvgl\version_6.1.2\lvgl\src\lv_objx/lv_cont.c ****             hpad_corr = style->body.padding.left;
 1086              		.loc 3 322 0
 1087 0028 BB68     		ldr	r3, [r7, #8]
 1088 002a 9B8C     		ldrh	r3, [r3, #36]	@ movhi
 1089 002c 3B82     		strh	r3, [r7, #16]	@ movhi
 323:..\..\..\lvgl\version_6.1.2\lvgl\src\lv_objx/lv_cont.c ****             align     = LV_ALIGN_IN_TOP_LEFT;
 1090              		.loc 3 323 0
 1091 002e 0123     		movs	r3, #1
 1092 0030 FB74     		strb	r3, [r7, #19]
 324:..\..\..\lvgl\version_6.1.2\lvgl\src\lv_objx/lv_cont.c ****             break;
 1093              		.loc 3 324 0
 1094 0032 13E0     		b	.L65
 1095              	.L62:
 325:..\..\..\lvgl\version_6.1.2\lvgl\src\lv_objx/lv_cont.c ****         case LV_LAYOUT_COL_M:
 326:..\..\..\lvgl\version_6.1.2\lvgl\src\lv_objx/lv_cont.c ****             hpad_corr = 0;
 1096              		.loc 3 326 0
 1097 0034 0023     		movs	r3, #0
 1098 0036 3B82     		strh	r3, [r7, #16]	@ movhi
 327:..\..\..\lvgl\version_6.1.2\lvgl\src\lv_objx/lv_cont.c ****             align     = LV_ALIGN_IN_TOP_MID;
 1099              		.loc 3 327 0
 1100 0038 0223     		movs	r3, #2
 1101 003a FB74     		strb	r3, [r7, #19]
 328:..\..\..\lvgl\version_6.1.2\lvgl\src\lv_objx/lv_cont.c ****             break;
 1102              		.loc 3 328 0
 1103 003c 0EE0     		b	.L65
 1104              	.L63:
 329:..\..\..\lvgl\version_6.1.2\lvgl\src\lv_objx/lv_cont.c ****         case LV_LAYOUT_COL_R:
 330:..\..\..\lvgl\version_6.1.2\lvgl\src\lv_objx/lv_cont.c ****             hpad_corr = -style->body.padding.right;
 1105              		.loc 3 330 0
 1106 003e BB68     		ldr	r3, [r7, #8]
 1107 0040 B3F92630 		ldrsh	r3, [r3, #38]
 1108 0044 9BB2     		uxth	r3, r3
 1109 0046 5B42     		negs	r3, r3
 1110 0048 9BB2     		uxth	r3, r3
 1111 004a 3B82     		strh	r3, [r7, #16]	@ movhi
 331:..\..\..\lvgl\version_6.1.2\lvgl\src\lv_objx/lv_cont.c ****             align     = LV_ALIGN_IN_TOP_RIGHT;
 1112              		.loc 3 331 0
 1113 004c 0323     		movs	r3, #3
 1114 004e FB74     		strb	r3, [r7, #19]
 332:..\..\..\lvgl\version_6.1.2\lvgl\src\lv_objx/lv_cont.c ****             break;
 1115              		.loc 3 332 0
 1116 0050 04E0     		b	.L65
 1117              	.L71:
 333:..\..\..\lvgl\version_6.1.2\lvgl\src\lv_objx/lv_cont.c ****         default:
 334:..\..\..\lvgl\version_6.1.2\lvgl\src\lv_objx/lv_cont.c ****             hpad_corr = 0;
 1118              		.loc 3 334 0
 1119 0052 0023     		movs	r3, #0
 1120 0054 3B82     		strh	r3, [r7, #16]	@ movhi
 335:..\..\..\lvgl\version_6.1.2\lvgl\src\lv_objx/lv_cont.c ****             align     = LV_ALIGN_IN_TOP_LEFT;
 1121              		.loc 3 335 0
 1122 0056 0123     		movs	r3, #1
 1123 0058 FB74     		strb	r3, [r7, #19]
 336:..\..\..\lvgl\version_6.1.2\lvgl\src\lv_objx/lv_cont.c ****             break;
ARM GAS  C:\Users\tmj32\AppData\Local\Temp\ccnLJfS3.s 			page 31


 1124              		.loc 3 336 0
 1125 005a 00BF     		nop
 1126              	.L65:
 337:..\..\..\lvgl\version_6.1.2\lvgl\src\lv_objx/lv_cont.c ****     }
 338:..\..\..\lvgl\version_6.1.2\lvgl\src\lv_objx/lv_cont.c **** 
 339:..\..\..\lvgl\version_6.1.2\lvgl\src\lv_objx/lv_cont.c ****     /* Disable child change action because the children will be moved a lot
 340:..\..\..\lvgl\version_6.1.2\lvgl\src\lv_objx/lv_cont.c ****      * an unnecessary child change signals could be sent*/
 341:..\..\..\lvgl\version_6.1.2\lvgl\src\lv_objx/lv_cont.c ****     lv_obj_set_protect(cont, LV_PROTECT_CHILD_CHG);
 1127              		.loc 3 341 0
 1128 005c 0121     		movs	r1, #1
 1129 005e 7868     		ldr	r0, [r7, #4]
 1130 0060 FFF7FEFF 		bl	lv_obj_set_protect
 342:..\..\..\lvgl\version_6.1.2\lvgl\src\lv_objx/lv_cont.c ****     /* Align the children */
 343:..\..\..\lvgl\version_6.1.2\lvgl\src\lv_objx/lv_cont.c ****     lv_coord_t last_cord = style->body.padding.top;
 1131              		.loc 3 343 0
 1132 0064 BB68     		ldr	r3, [r7, #8]
 1133 0066 1B8C     		ldrh	r3, [r3, #32]	@ movhi
 1134 0068 FB81     		strh	r3, [r7, #14]	@ movhi
 344:..\..\..\lvgl\version_6.1.2\lvgl\src\lv_objx/lv_cont.c ****     LV_LL_READ_BACK(cont->child_ll, child)
 1135              		.loc 3 344 0
 1136 006a 7B68     		ldr	r3, [r7, #4]
 1137 006c 0433     		adds	r3, r3, #4
 1138 006e 1846     		mov	r0, r3
 1139 0070 FFF7FEFF 		bl	lv_ll_get_tail
 1140 0074 7861     		str	r0, [r7, #20]
 1141 0076 2EE0     		b	.L66
 1142              	.L70:
 345:..\..\..\lvgl\version_6.1.2\lvgl\src\lv_objx/lv_cont.c ****     {
 346:..\..\..\lvgl\version_6.1.2\lvgl\src\lv_objx/lv_cont.c ****         if(lv_obj_get_hidden(child) != false || lv_obj_is_protected(child, LV_PROTECT_POS) != false
 1143              		.loc 3 346 0
 1144 0078 7869     		ldr	r0, [r7, #20]
 1145 007a FFF7FEFF 		bl	lv_obj_get_hidden
 1146 007e 0346     		mov	r3, r0
 1147 0080 002B     		cmp	r3, #0
 1148 0082 20D1     		bne	.L72
 1149              		.loc 3 346 0 is_stmt 0 discriminator 2
 1150 0084 0421     		movs	r1, #4
 1151 0086 7869     		ldr	r0, [r7, #20]
 1152 0088 FFF7FEFF 		bl	lv_obj_is_protected
 1153 008c 0346     		mov	r3, r0
 1154 008e 002B     		cmp	r3, #0
 1155 0090 19D1     		bne	.L72
 347:..\..\..\lvgl\version_6.1.2\lvgl\src\lv_objx/lv_cont.c **** 
 348:..\..\..\lvgl\version_6.1.2\lvgl\src\lv_objx/lv_cont.c ****         lv_obj_align(child, cont, align, hpad_corr, last_cord);
 1156              		.loc 3 348 0 is_stmt 1
 1157 0092 B7F91010 		ldrsh	r1, [r7, #16]
 1158 0096 FA7C     		ldrb	r2, [r7, #19]	@ zero_extendqisi2
 1159 0098 B7F90E30 		ldrsh	r3, [r7, #14]
 1160 009c 0093     		str	r3, [sp]
 1161 009e 0B46     		mov	r3, r1
 1162 00a0 7968     		ldr	r1, [r7, #4]
 1163 00a2 7869     		ldr	r0, [r7, #20]
 1164 00a4 FFF7FEFF 		bl	lv_obj_align
 349:..\..\..\lvgl\version_6.1.2\lvgl\src\lv_objx/lv_cont.c ****         last_cord += lv_obj_get_height(child) + style->body.padding.inner;
 1165              		.loc 3 349 0
 1166 00a8 7869     		ldr	r0, [r7, #20]
 1167 00aa FFF7FEFF 		bl	lv_obj_get_height
ARM GAS  C:\Users\tmj32\AppData\Local\Temp\ccnLJfS3.s 			page 32


 1168 00ae 0346     		mov	r3, r0
 1169 00b0 1A46     		mov	r2, r3
 1170 00b2 BB68     		ldr	r3, [r7, #8]
 1171 00b4 B3F92830 		ldrsh	r3, [r3, #40]
 1172 00b8 1344     		add	r3, r3, r2
 1173 00ba 9AB2     		uxth	r2, r3
 1174 00bc FB89     		ldrh	r3, [r7, #14]
 1175 00be 1344     		add	r3, r3, r2
 1176 00c0 9BB2     		uxth	r3, r3
 1177 00c2 FB81     		strh	r3, [r7, #14]	@ movhi
 1178 00c4 00E0     		b	.L69
 1179              	.L72:
 346:..\..\..\lvgl\version_6.1.2\lvgl\src\lv_objx/lv_cont.c **** 
 1180              		.loc 3 346 0
 1181 00c6 00BF     		nop
 1182              	.L69:
 344:..\..\..\lvgl\version_6.1.2\lvgl\src\lv_objx/lv_cont.c ****     {
 1183              		.loc 3 344 0 discriminator 2
 1184 00c8 7B68     		ldr	r3, [r7, #4]
 1185 00ca 0433     		adds	r3, r3, #4
 1186 00cc 7969     		ldr	r1, [r7, #20]
 1187 00ce 1846     		mov	r0, r3
 1188 00d0 FFF7FEFF 		bl	lv_ll_get_prev
 1189 00d4 7861     		str	r0, [r7, #20]
 1190              	.L66:
 344:..\..\..\lvgl\version_6.1.2\lvgl\src\lv_objx/lv_cont.c ****     {
 1191              		.loc 3 344 0 is_stmt 0 discriminator 1
 1192 00d6 7B69     		ldr	r3, [r7, #20]
 1193 00d8 002B     		cmp	r3, #0
 1194 00da CDD1     		bne	.L70
 350:..\..\..\lvgl\version_6.1.2\lvgl\src\lv_objx/lv_cont.c ****     }
 351:..\..\..\lvgl\version_6.1.2\lvgl\src\lv_objx/lv_cont.c **** 
 352:..\..\..\lvgl\version_6.1.2\lvgl\src\lv_objx/lv_cont.c ****     lv_obj_clear_protect(cont, LV_PROTECT_CHILD_CHG);
 1195              		.loc 3 352 0 is_stmt 1
 1196 00dc 0121     		movs	r1, #1
 1197 00de 7868     		ldr	r0, [r7, #4]
 1198 00e0 FFF7FEFF 		bl	lv_obj_clear_protect
 353:..\..\..\lvgl\version_6.1.2\lvgl\src\lv_objx/lv_cont.c **** }
 1199              		.loc 3 353 0
 1200 00e4 00BF     		nop
 1201 00e6 1837     		adds	r7, r7, #24
 1202              		.cfi_def_cfa_offset 8
 1203 00e8 BD46     		mov	sp, r7
 1204              		.cfi_def_cfa_register 13
 1205              		@ sp needed
 1206 00ea 80BD     		pop	{r7, pc}
 1207              		.cfi_endproc
 1208              	.LFE45:
 1209              		.size	lv_cont_layout_col, .-lv_cont_layout_col
 1210              		.section	.text.lv_cont_layout_row,"ax",%progbits
 1211              		.align	2
 1212              		.thumb
 1213              		.thumb_func
 1214              		.type	lv_cont_layout_row, %function
 1215              	lv_cont_layout_row:
 1216              	.LFB46:
 354:..\..\..\lvgl\version_6.1.2\lvgl\src\lv_objx/lv_cont.c **** 
ARM GAS  C:\Users\tmj32\AppData\Local\Temp\ccnLJfS3.s 			page 33


 355:..\..\..\lvgl\version_6.1.2\lvgl\src\lv_objx/lv_cont.c **** /**
 356:..\..\..\lvgl\version_6.1.2\lvgl\src\lv_objx/lv_cont.c ****  * Handle row type layouts
 357:..\..\..\lvgl\version_6.1.2\lvgl\src\lv_objx/lv_cont.c ****  * @param cont pointer to an object which layout should be handled
 358:..\..\..\lvgl\version_6.1.2\lvgl\src\lv_objx/lv_cont.c ****  */
 359:..\..\..\lvgl\version_6.1.2\lvgl\src\lv_objx/lv_cont.c **** static void lv_cont_layout_row(lv_obj_t * cont)
 360:..\..\..\lvgl\version_6.1.2\lvgl\src\lv_objx/lv_cont.c **** {
 1217              		.loc 3 360 0
 1218              		.cfi_startproc
 1219              		@ args = 0, pretend = 0, frame = 32
 1220              		@ frame_needed = 1, uses_anonymous_args = 0
 1221 0000 80B5     		push	{r7, lr}
 1222              		.cfi_def_cfa_offset 8
 1223              		.cfi_offset 7, -8
 1224              		.cfi_offset 14, -4
 1225 0002 8AB0     		sub	sp, sp, #40
 1226              		.cfi_def_cfa_offset 48
 1227 0004 02AF     		add	r7, sp, #8
 1228              		.cfi_def_cfa 7, 40
 1229 0006 7860     		str	r0, [r7, #4]
 361:..\..\..\lvgl\version_6.1.2\lvgl\src\lv_objx/lv_cont.c ****     lv_layout_t type = lv_cont_get_layout(cont);
 1230              		.loc 3 361 0
 1231 0008 7868     		ldr	r0, [r7, #4]
 1232 000a FFF7FEFF 		bl	lv_cont_get_layout
 1233 000e 0346     		mov	r3, r0
 1234 0010 7B75     		strb	r3, [r7, #21]
 362:..\..\..\lvgl\version_6.1.2\lvgl\src\lv_objx/lv_cont.c ****     lv_obj_t * child;
 363:..\..\..\lvgl\version_6.1.2\lvgl\src\lv_objx/lv_cont.c **** 
 364:..\..\..\lvgl\version_6.1.2\lvgl\src\lv_objx/lv_cont.c ****     /*Adjust margin and get the alignment type*/
 365:..\..\..\lvgl\version_6.1.2\lvgl\src\lv_objx/lv_cont.c ****     lv_align_t align;
 366:..\..\..\lvgl\version_6.1.2\lvgl\src\lv_objx/lv_cont.c ****     const lv_style_t * style = lv_obj_get_style(cont);
 1235              		.loc 3 366 0
 1236 0012 7868     		ldr	r0, [r7, #4]
 1237 0014 FFF7FEFF 		bl	lv_obj_get_style
 1238 0018 3861     		str	r0, [r7, #16]
 367:..\..\..\lvgl\version_6.1.2\lvgl\src\lv_objx/lv_cont.c ****     lv_coord_t vpad_corr;
 368:..\..\..\lvgl\version_6.1.2\lvgl\src\lv_objx/lv_cont.c ****     lv_bidi_dir_t base_dir = lv_obj_get_base_dir(cont);
 1239              		.loc 3 368 0
 1240 001a 7868     		ldr	r0, [r7, #4]
 1241 001c FFF7FEFF 		bl	lv_obj_get_base_dir
 1242 0020 0346     		mov	r3, r0
 1243 0022 FB73     		strb	r3, [r7, #15]
 369:..\..\..\lvgl\version_6.1.2\lvgl\src\lv_objx/lv_cont.c ****     switch(type) {
 1244              		.loc 3 369 0
 1245 0024 7B7D     		ldrb	r3, [r7, #21]	@ zero_extendqisi2
 1246 0026 062B     		cmp	r3, #6
 1247 0028 0ED0     		beq	.L75
 1248 002a 072B     		cmp	r3, #7
 1249 002c 16D0     		beq	.L76
 1250 002e 052B     		cmp	r3, #5
 1251 0030 23D1     		bne	.L96
 370:..\..\..\lvgl\version_6.1.2\lvgl\src\lv_objx/lv_cont.c ****         case LV_LAYOUT_ROW_T:
 371:..\..\..\lvgl\version_6.1.2\lvgl\src\lv_objx/lv_cont.c ****             vpad_corr = style->body.padding.top;
 1252              		.loc 3 371 0
 1253 0032 3B69     		ldr	r3, [r7, #16]
 1254 0034 1B8C     		ldrh	r3, [r3, #32]	@ movhi
 1255 0036 3B83     		strh	r3, [r7, #24]	@ movhi
 372:..\..\..\lvgl\version_6.1.2\lvgl\src\lv_objx/lv_cont.c ****             align     = base_dir == LV_BIDI_DIR_RTL ? LV_ALIGN_IN_TOP_RIGHT : LV_ALIGN_IN_TOP_LEFT;
ARM GAS  C:\Users\tmj32\AppData\Local\Temp\ccnLJfS3.s 			page 34


 1256              		.loc 3 372 0
 1257 0038 FB7B     		ldrb	r3, [r7, #15]	@ zero_extendqisi2
 1258 003a 012B     		cmp	r3, #1
 1259 003c 01D1     		bne	.L78
 1260              		.loc 3 372 0 is_stmt 0 discriminator 1
 1261 003e 0323     		movs	r3, #3
 1262 0040 00E0     		b	.L79
 1263              	.L78:
 1264              		.loc 3 372 0 discriminator 2
 1265 0042 0123     		movs	r3, #1
 1266              	.L79:
 1267              		.loc 3 372 0 discriminator 4
 1268 0044 FB76     		strb	r3, [r7, #27]
 373:..\..\..\lvgl\version_6.1.2\lvgl\src\lv_objx/lv_cont.c ****             break;
 1269              		.loc 3 373 0 is_stmt 1 discriminator 4
 1270 0046 22E0     		b	.L80
 1271              	.L75:
 374:..\..\..\lvgl\version_6.1.2\lvgl\src\lv_objx/lv_cont.c ****         case LV_LAYOUT_ROW_M:
 375:..\..\..\lvgl\version_6.1.2\lvgl\src\lv_objx/lv_cont.c ****             vpad_corr = 0;
 1272              		.loc 3 375 0
 1273 0048 0023     		movs	r3, #0
 1274 004a 3B83     		strh	r3, [r7, #24]	@ movhi
 376:..\..\..\lvgl\version_6.1.2\lvgl\src\lv_objx/lv_cont.c ****             align     = base_dir == LV_BIDI_DIR_RTL ? LV_ALIGN_IN_RIGHT_MID: LV_ALIGN_IN_LEFT_MID;
 1275              		.loc 3 376 0
 1276 004c FB7B     		ldrb	r3, [r7, #15]	@ zero_extendqisi2
 1277 004e 012B     		cmp	r3, #1
 1278 0050 01D1     		bne	.L81
 1279              		.loc 3 376 0 is_stmt 0 discriminator 1
 1280 0052 0823     		movs	r3, #8
 1281 0054 00E0     		b	.L82
 1282              	.L81:
 1283              		.loc 3 376 0 discriminator 2
 1284 0056 0723     		movs	r3, #7
 1285              	.L82:
 1286              		.loc 3 376 0 discriminator 4
 1287 0058 FB76     		strb	r3, [r7, #27]
 377:..\..\..\lvgl\version_6.1.2\lvgl\src\lv_objx/lv_cont.c ****             break;
 1288              		.loc 3 377 0 is_stmt 1 discriminator 4
 1289 005a 18E0     		b	.L80
 1290              	.L76:
 378:..\..\..\lvgl\version_6.1.2\lvgl\src\lv_objx/lv_cont.c ****         case LV_LAYOUT_ROW_B:
 379:..\..\..\lvgl\version_6.1.2\lvgl\src\lv_objx/lv_cont.c ****             vpad_corr = -style->body.padding.bottom;
 1291              		.loc 3 379 0
 1292 005c 3B69     		ldr	r3, [r7, #16]
 1293 005e B3F92230 		ldrsh	r3, [r3, #34]
 1294 0062 9BB2     		uxth	r3, r3
 1295 0064 5B42     		negs	r3, r3
 1296 0066 9BB2     		uxth	r3, r3
 1297 0068 3B83     		strh	r3, [r7, #24]	@ movhi
 380:..\..\..\lvgl\version_6.1.2\lvgl\src\lv_objx/lv_cont.c ****             align     = base_dir == LV_BIDI_DIR_RTL ? LV_ALIGN_IN_BOTTOM_RIGHT: LV_ALIGN_IN_BOTTOM_
 1298              		.loc 3 380 0
 1299 006a FB7B     		ldrb	r3, [r7, #15]	@ zero_extendqisi2
 1300 006c 012B     		cmp	r3, #1
 1301 006e 01D1     		bne	.L83
 1302              		.loc 3 380 0 is_stmt 0 discriminator 1
 1303 0070 0623     		movs	r3, #6
 1304 0072 00E0     		b	.L84
ARM GAS  C:\Users\tmj32\AppData\Local\Temp\ccnLJfS3.s 			page 35


 1305              	.L83:
 1306              		.loc 3 380 0 discriminator 2
 1307 0074 0423     		movs	r3, #4
 1308              	.L84:
 1309              		.loc 3 380 0 discriminator 4
 1310 0076 FB76     		strb	r3, [r7, #27]
 381:..\..\..\lvgl\version_6.1.2\lvgl\src\lv_objx/lv_cont.c ****             break;
 1311              		.loc 3 381 0 is_stmt 1 discriminator 4
 1312 0078 09E0     		b	.L80
 1313              	.L96:
 382:..\..\..\lvgl\version_6.1.2\lvgl\src\lv_objx/lv_cont.c ****         default:
 383:..\..\..\lvgl\version_6.1.2\lvgl\src\lv_objx/lv_cont.c ****             vpad_corr = 0;
 1314              		.loc 3 383 0
 1315 007a 0023     		movs	r3, #0
 1316 007c 3B83     		strh	r3, [r7, #24]	@ movhi
 384:..\..\..\lvgl\version_6.1.2\lvgl\src\lv_objx/lv_cont.c ****             align     = base_dir == LV_BIDI_DIR_RTL ? LV_ALIGN_IN_TOP_RIGHT : LV_ALIGN_IN_TOP_LEFT;
 1317              		.loc 3 384 0
 1318 007e FB7B     		ldrb	r3, [r7, #15]	@ zero_extendqisi2
 1319 0080 012B     		cmp	r3, #1
 1320 0082 01D1     		bne	.L85
 1321              		.loc 3 384 0 is_stmt 0 discriminator 1
 1322 0084 0323     		movs	r3, #3
 1323 0086 00E0     		b	.L86
 1324              	.L85:
 1325              		.loc 3 384 0 discriminator 2
 1326 0088 0123     		movs	r3, #1
 1327              	.L86:
 1328              		.loc 3 384 0 discriminator 4
 1329 008a FB76     		strb	r3, [r7, #27]
 385:..\..\..\lvgl\version_6.1.2\lvgl\src\lv_objx/lv_cont.c ****             break;
 1330              		.loc 3 385 0 is_stmt 1 discriminator 4
 1331 008c 00BF     		nop
 1332              	.L80:
 386:..\..\..\lvgl\version_6.1.2\lvgl\src\lv_objx/lv_cont.c ****     }
 387:..\..\..\lvgl\version_6.1.2\lvgl\src\lv_objx/lv_cont.c **** 
 388:..\..\..\lvgl\version_6.1.2\lvgl\src\lv_objx/lv_cont.c ****     /* Disable child change action because the children will be moved a lot
 389:..\..\..\lvgl\version_6.1.2\lvgl\src\lv_objx/lv_cont.c ****      * an unnecessary child change signals could be sent*/
 390:..\..\..\lvgl\version_6.1.2\lvgl\src\lv_objx/lv_cont.c ****     lv_obj_set_protect(cont, LV_PROTECT_CHILD_CHG);
 1333              		.loc 3 390 0
 1334 008e 0121     		movs	r1, #1
 1335 0090 7868     		ldr	r0, [r7, #4]
 1336 0092 FFF7FEFF 		bl	lv_obj_set_protect
 391:..\..\..\lvgl\version_6.1.2\lvgl\src\lv_objx/lv_cont.c **** 
 392:..\..\..\lvgl\version_6.1.2\lvgl\src\lv_objx/lv_cont.c ****     /* Align the children */
 393:..\..\..\lvgl\version_6.1.2\lvgl\src\lv_objx/lv_cont.c ****     lv_coord_t last_cord;
 394:..\..\..\lvgl\version_6.1.2\lvgl\src\lv_objx/lv_cont.c ****     if(base_dir == LV_BIDI_DIR_RTL) last_cord = style->body.padding.right;
 1337              		.loc 3 394 0
 1338 0096 FB7B     		ldrb	r3, [r7, #15]	@ zero_extendqisi2
 1339 0098 012B     		cmp	r3, #1
 1340 009a 03D1     		bne	.L87
 1341              		.loc 3 394 0 is_stmt 0 discriminator 1
 1342 009c 3B69     		ldr	r3, [r7, #16]
 1343 009e DB8C     		ldrh	r3, [r3, #38]	@ movhi
 1344 00a0 FB82     		strh	r3, [r7, #22]	@ movhi
 1345 00a2 02E0     		b	.L88
 1346              	.L87:
 395:..\..\..\lvgl\version_6.1.2\lvgl\src\lv_objx/lv_cont.c ****     else last_cord = style->body.padding.left;
ARM GAS  C:\Users\tmj32\AppData\Local\Temp\ccnLJfS3.s 			page 36


 1347              		.loc 3 395 0 is_stmt 1
 1348 00a4 3B69     		ldr	r3, [r7, #16]
 1349 00a6 9B8C     		ldrh	r3, [r3, #36]	@ movhi
 1350 00a8 FB82     		strh	r3, [r7, #22]	@ movhi
 1351              	.L88:
 396:..\..\..\lvgl\version_6.1.2\lvgl\src\lv_objx/lv_cont.c **** 
 397:..\..\..\lvgl\version_6.1.2\lvgl\src\lv_objx/lv_cont.c ****     LV_LL_READ_BACK(cont->child_ll, child)
 1352              		.loc 3 397 0
 1353 00aa 7B68     		ldr	r3, [r7, #4]
 1354 00ac 0433     		adds	r3, r3, #4
 1355 00ae 1846     		mov	r0, r3
 1356 00b0 FFF7FEFF 		bl	lv_ll_get_tail
 1357 00b4 F861     		str	r0, [r7, #28]
 1358 00b6 3FE0     		b	.L89
 1359              	.L95:
 398:..\..\..\lvgl\version_6.1.2\lvgl\src\lv_objx/lv_cont.c ****     {
 399:..\..\..\lvgl\version_6.1.2\lvgl\src\lv_objx/lv_cont.c ****         if(lv_obj_get_hidden(child) != false || lv_obj_is_protected(child, LV_PROTECT_POS) != false
 1360              		.loc 3 399 0
 1361 00b8 F869     		ldr	r0, [r7, #28]
 1362 00ba FFF7FEFF 		bl	lv_obj_get_hidden
 1363 00be 0346     		mov	r3, r0
 1364 00c0 002B     		cmp	r3, #0
 1365 00c2 31D1     		bne	.L97
 1366              		.loc 3 399 0 is_stmt 0 discriminator 2
 1367 00c4 0421     		movs	r1, #4
 1368 00c6 F869     		ldr	r0, [r7, #28]
 1369 00c8 FFF7FEFF 		bl	lv_obj_is_protected
 1370 00cc 0346     		mov	r3, r0
 1371 00ce 002B     		cmp	r3, #0
 1372 00d0 2AD1     		bne	.L97
 400:..\..\..\lvgl\version_6.1.2\lvgl\src\lv_objx/lv_cont.c **** 
 401:..\..\..\lvgl\version_6.1.2\lvgl\src\lv_objx/lv_cont.c **** //        last_cord -= lv_obj_get_width(child);
 402:..\..\..\lvgl\version_6.1.2\lvgl\src\lv_objx/lv_cont.c **** 
 403:..\..\..\lvgl\version_6.1.2\lvgl\src\lv_objx/lv_cont.c ****         if(base_dir == LV_BIDI_DIR_RTL) lv_obj_align(child, cont, align, -last_cord, vpad_corr);
 1373              		.loc 3 403 0 is_stmt 1
 1374 00d2 FB7B     		ldrb	r3, [r7, #15]	@ zero_extendqisi2
 1375 00d4 012B     		cmp	r3, #1
 1376 00d6 0DD1     		bne	.L93
 1377              		.loc 3 403 0 is_stmt 0 discriminator 1
 1378 00d8 FB8A     		ldrh	r3, [r7, #22]
 1379 00da 5B42     		negs	r3, r3
 1380 00dc 9BB2     		uxth	r3, r3
 1381 00de 19B2     		sxth	r1, r3
 1382 00e0 FA7E     		ldrb	r2, [r7, #27]	@ zero_extendqisi2
 1383 00e2 B7F91830 		ldrsh	r3, [r7, #24]
 1384 00e6 0093     		str	r3, [sp]
 1385 00e8 0B46     		mov	r3, r1
 1386 00ea 7968     		ldr	r1, [r7, #4]
 1387 00ec F869     		ldr	r0, [r7, #28]
 1388 00ee FFF7FEFF 		bl	lv_obj_align
 1389 00f2 0AE0     		b	.L94
 1390              	.L93:
 404:..\..\..\lvgl\version_6.1.2\lvgl\src\lv_objx/lv_cont.c ****         else lv_obj_align(child, cont, align, last_cord, vpad_corr);
 1391              		.loc 3 404 0 is_stmt 1
 1392 00f4 B7F91610 		ldrsh	r1, [r7, #22]
 1393 00f8 FA7E     		ldrb	r2, [r7, #27]	@ zero_extendqisi2
 1394 00fa B7F91830 		ldrsh	r3, [r7, #24]
ARM GAS  C:\Users\tmj32\AppData\Local\Temp\ccnLJfS3.s 			page 37


 1395 00fe 0093     		str	r3, [sp]
 1396 0100 0B46     		mov	r3, r1
 1397 0102 7968     		ldr	r1, [r7, #4]
 1398 0104 F869     		ldr	r0, [r7, #28]
 1399 0106 FFF7FEFF 		bl	lv_obj_align
 1400              	.L94:
 405:..\..\..\lvgl\version_6.1.2\lvgl\src\lv_objx/lv_cont.c **** 
 406:..\..\..\lvgl\version_6.1.2\lvgl\src\lv_objx/lv_cont.c ****         last_cord += lv_obj_get_width(child) + style->body.padding.inner;
 1401              		.loc 3 406 0
 1402 010a F869     		ldr	r0, [r7, #28]
 1403 010c FFF7FEFF 		bl	lv_obj_get_width
 1404 0110 0346     		mov	r3, r0
 1405 0112 1A46     		mov	r2, r3
 1406 0114 3B69     		ldr	r3, [r7, #16]
 1407 0116 B3F92830 		ldrsh	r3, [r3, #40]
 1408 011a 1344     		add	r3, r3, r2
 1409 011c 9AB2     		uxth	r2, r3
 1410 011e FB8A     		ldrh	r3, [r7, #22]
 1411 0120 1344     		add	r3, r3, r2
 1412 0122 9BB2     		uxth	r3, r3
 1413 0124 FB82     		strh	r3, [r7, #22]	@ movhi
 1414 0126 00E0     		b	.L92
 1415              	.L97:
 399:..\..\..\lvgl\version_6.1.2\lvgl\src\lv_objx/lv_cont.c **** 
 1416              		.loc 3 399 0
 1417 0128 00BF     		nop
 1418              	.L92:
 397:..\..\..\lvgl\version_6.1.2\lvgl\src\lv_objx/lv_cont.c ****     {
 1419              		.loc 3 397 0 discriminator 2
 1420 012a 7B68     		ldr	r3, [r7, #4]
 1421 012c 0433     		adds	r3, r3, #4
 1422 012e F969     		ldr	r1, [r7, #28]
 1423 0130 1846     		mov	r0, r3
 1424 0132 FFF7FEFF 		bl	lv_ll_get_prev
 1425 0136 F861     		str	r0, [r7, #28]
 1426              	.L89:
 397:..\..\..\lvgl\version_6.1.2\lvgl\src\lv_objx/lv_cont.c ****     {
 1427              		.loc 3 397 0 is_stmt 0 discriminator 1
 1428 0138 FB69     		ldr	r3, [r7, #28]
 1429 013a 002B     		cmp	r3, #0
 1430 013c BCD1     		bne	.L95
 407:..\..\..\lvgl\version_6.1.2\lvgl\src\lv_objx/lv_cont.c ****     }
 408:..\..\..\lvgl\version_6.1.2\lvgl\src\lv_objx/lv_cont.c **** 
 409:..\..\..\lvgl\version_6.1.2\lvgl\src\lv_objx/lv_cont.c ****     lv_obj_clear_protect(cont, LV_PROTECT_CHILD_CHG);
 1431              		.loc 3 409 0 is_stmt 1
 1432 013e 0121     		movs	r1, #1
 1433 0140 7868     		ldr	r0, [r7, #4]
 1434 0142 FFF7FEFF 		bl	lv_obj_clear_protect
 410:..\..\..\lvgl\version_6.1.2\lvgl\src\lv_objx/lv_cont.c **** }
 1435              		.loc 3 410 0
 1436 0146 00BF     		nop
 1437 0148 2037     		adds	r7, r7, #32
 1438              		.cfi_def_cfa_offset 8
 1439 014a BD46     		mov	sp, r7
 1440              		.cfi_def_cfa_register 13
 1441              		@ sp needed
 1442 014c 80BD     		pop	{r7, pc}
ARM GAS  C:\Users\tmj32\AppData\Local\Temp\ccnLJfS3.s 			page 38


 1443              		.cfi_endproc
 1444              	.LFE46:
 1445              		.size	lv_cont_layout_row, .-lv_cont_layout_row
 1446 014e 00BF     		.section	.text.lv_cont_layout_center,"ax",%progbits
 1447              		.align	2
 1448              		.thumb
 1449              		.thumb_func
 1450              		.type	lv_cont_layout_center, %function
 1451              	lv_cont_layout_center:
 1452              	.LFB47:
 411:..\..\..\lvgl\version_6.1.2\lvgl\src\lv_objx/lv_cont.c **** 
 412:..\..\..\lvgl\version_6.1.2\lvgl\src\lv_objx/lv_cont.c **** /**
 413:..\..\..\lvgl\version_6.1.2\lvgl\src\lv_objx/lv_cont.c ****  * Handle the center layout
 414:..\..\..\lvgl\version_6.1.2\lvgl\src\lv_objx/lv_cont.c ****  * @param cont pointer to an object which layout should be handled
 415:..\..\..\lvgl\version_6.1.2\lvgl\src\lv_objx/lv_cont.c ****  */
 416:..\..\..\lvgl\version_6.1.2\lvgl\src\lv_objx/lv_cont.c **** static void lv_cont_layout_center(lv_obj_t * cont)
 417:..\..\..\lvgl\version_6.1.2\lvgl\src\lv_objx/lv_cont.c **** {
 1453              		.loc 3 417 0
 1454              		.cfi_startproc
 1455              		@ args = 0, pretend = 0, frame = 24
 1456              		@ frame_needed = 1, uses_anonymous_args = 0
 1457 0000 80B5     		push	{r7, lr}
 1458              		.cfi_def_cfa_offset 8
 1459              		.cfi_offset 7, -8
 1460              		.cfi_offset 14, -4
 1461 0002 88B0     		sub	sp, sp, #32
 1462              		.cfi_def_cfa_offset 40
 1463 0004 02AF     		add	r7, sp, #8
 1464              		.cfi_def_cfa 7, 32
 1465 0006 7860     		str	r0, [r7, #4]
 418:..\..\..\lvgl\version_6.1.2\lvgl\src\lv_objx/lv_cont.c ****     lv_obj_t * child;
 419:..\..\..\lvgl\version_6.1.2\lvgl\src\lv_objx/lv_cont.c ****     const lv_style_t * style = lv_obj_get_style(cont);
 1466              		.loc 3 419 0
 1467 0008 7868     		ldr	r0, [r7, #4]
 1468 000a FFF7FEFF 		bl	lv_obj_get_style
 1469 000e B860     		str	r0, [r7, #8]
 420:..\..\..\lvgl\version_6.1.2\lvgl\src\lv_objx/lv_cont.c ****     uint32_t obj_num         = 0;
 1470              		.loc 3 420 0
 1471 0010 0023     		movs	r3, #0
 1472 0012 3B61     		str	r3, [r7, #16]
 421:..\..\..\lvgl\version_6.1.2\lvgl\src\lv_objx/lv_cont.c ****     lv_coord_t h_tot         = 0;
 1473              		.loc 3 421 0
 1474 0014 0023     		movs	r3, #0
 1475 0016 FB81     		strh	r3, [r7, #14]	@ movhi
 422:..\..\..\lvgl\version_6.1.2\lvgl\src\lv_objx/lv_cont.c **** 
 423:..\..\..\lvgl\version_6.1.2\lvgl\src\lv_objx/lv_cont.c ****     LV_LL_READ(cont->child_ll, child)
 1476              		.loc 3 423 0
 1477 0018 7B68     		ldr	r3, [r7, #4]
 1478 001a 0433     		adds	r3, r3, #4
 1479 001c 1846     		mov	r0, r3
 1480 001e FFF7FEFF 		bl	lv_ll_get_head
 1481 0022 7861     		str	r0, [r7, #20]
 1482 0024 26E0     		b	.L99
 1483              	.L103:
 424:..\..\..\lvgl\version_6.1.2\lvgl\src\lv_objx/lv_cont.c ****     {
 425:..\..\..\lvgl\version_6.1.2\lvgl\src\lv_objx/lv_cont.c ****         if(lv_obj_get_hidden(child) != false || lv_obj_is_protected(child, LV_PROTECT_POS) != false
 1484              		.loc 3 425 0
ARM GAS  C:\Users\tmj32\AppData\Local\Temp\ccnLJfS3.s 			page 39


 1485 0026 7869     		ldr	r0, [r7, #20]
 1486 0028 FFF7FEFF 		bl	lv_obj_get_hidden
 1487 002c 0346     		mov	r3, r0
 1488 002e 002B     		cmp	r3, #0
 1489 0030 18D1     		bne	.L111
 1490              		.loc 3 425 0 is_stmt 0 discriminator 2
 1491 0032 0421     		movs	r1, #4
 1492 0034 7869     		ldr	r0, [r7, #20]
 1493 0036 FFF7FEFF 		bl	lv_obj_is_protected
 1494 003a 0346     		mov	r3, r0
 1495 003c 002B     		cmp	r3, #0
 1496 003e 11D1     		bne	.L111
 426:..\..\..\lvgl\version_6.1.2\lvgl\src\lv_objx/lv_cont.c ****         h_tot += lv_obj_get_height(child) + style->body.padding.inner;
 1497              		.loc 3 426 0 is_stmt 1
 1498 0040 7869     		ldr	r0, [r7, #20]
 1499 0042 FFF7FEFF 		bl	lv_obj_get_height
 1500 0046 0346     		mov	r3, r0
 1501 0048 1A46     		mov	r2, r3
 1502 004a BB68     		ldr	r3, [r7, #8]
 1503 004c B3F92830 		ldrsh	r3, [r3, #40]
 1504 0050 1344     		add	r3, r3, r2
 1505 0052 9AB2     		uxth	r2, r3
 1506 0054 FB89     		ldrh	r3, [r7, #14]
 1507 0056 1344     		add	r3, r3, r2
 1508 0058 9BB2     		uxth	r3, r3
 1509 005a FB81     		strh	r3, [r7, #14]	@ movhi
 427:..\..\..\lvgl\version_6.1.2\lvgl\src\lv_objx/lv_cont.c ****         obj_num++;
 1510              		.loc 3 427 0
 1511 005c 3B69     		ldr	r3, [r7, #16]
 1512 005e 0133     		adds	r3, r3, #1
 1513 0060 3B61     		str	r3, [r7, #16]
 1514 0062 00E0     		b	.L102
 1515              	.L111:
 425:..\..\..\lvgl\version_6.1.2\lvgl\src\lv_objx/lv_cont.c ****         h_tot += lv_obj_get_height(child) + style->body.padding.inner;
 1516              		.loc 3 425 0
 1517 0064 00BF     		nop
 1518              	.L102:
 423:..\..\..\lvgl\version_6.1.2\lvgl\src\lv_objx/lv_cont.c ****     {
 1519              		.loc 3 423 0 discriminator 2
 1520 0066 7B68     		ldr	r3, [r7, #4]
 1521 0068 0433     		adds	r3, r3, #4
 1522 006a 7969     		ldr	r1, [r7, #20]
 1523 006c 1846     		mov	r0, r3
 1524 006e FFF7FEFF 		bl	lv_ll_get_next
 1525 0072 7861     		str	r0, [r7, #20]
 1526              	.L99:
 423:..\..\..\lvgl\version_6.1.2\lvgl\src\lv_objx/lv_cont.c ****     {
 1527              		.loc 3 423 0 is_stmt 0 discriminator 1
 1528 0074 7B69     		ldr	r3, [r7, #20]
 1529 0076 002B     		cmp	r3, #0
 1530 0078 D5D1     		bne	.L103
 428:..\..\..\lvgl\version_6.1.2\lvgl\src\lv_objx/lv_cont.c ****     }
 429:..\..\..\lvgl\version_6.1.2\lvgl\src\lv_objx/lv_cont.c **** 
 430:..\..\..\lvgl\version_6.1.2\lvgl\src\lv_objx/lv_cont.c ****     if(obj_num == 0) return;
 1531              		.loc 3 430 0 is_stmt 1
 1532 007a 3B69     		ldr	r3, [r7, #16]
 1533 007c 002B     		cmp	r3, #0
ARM GAS  C:\Users\tmj32\AppData\Local\Temp\ccnLJfS3.s 			page 40


 1534 007e 5CD0     		beq	.L112
 431:..\..\..\lvgl\version_6.1.2\lvgl\src\lv_objx/lv_cont.c **** 
 432:..\..\..\lvgl\version_6.1.2\lvgl\src\lv_objx/lv_cont.c ****     h_tot -= style->body.padding.inner;
 1535              		.loc 3 432 0
 1536 0080 FA89     		ldrh	r2, [r7, #14]
 1537 0082 BB68     		ldr	r3, [r7, #8]
 1538 0084 B3F92830 		ldrsh	r3, [r3, #40]
 1539 0088 9BB2     		uxth	r3, r3
 1540 008a D31A     		subs	r3, r2, r3
 1541 008c 9BB2     		uxth	r3, r3
 1542 008e FB81     		strh	r3, [r7, #14]	@ movhi
 433:..\..\..\lvgl\version_6.1.2\lvgl\src\lv_objx/lv_cont.c **** 
 434:..\..\..\lvgl\version_6.1.2\lvgl\src\lv_objx/lv_cont.c ****     /* Disable child change action because the children will be moved a lot
 435:..\..\..\lvgl\version_6.1.2\lvgl\src\lv_objx/lv_cont.c ****      * an unnecessary child change signals could be sent*/
 436:..\..\..\lvgl\version_6.1.2\lvgl\src\lv_objx/lv_cont.c ****     lv_obj_set_protect(cont, LV_PROTECT_CHILD_CHG);
 1543              		.loc 3 436 0
 1544 0090 0121     		movs	r1, #1
 1545 0092 7868     		ldr	r0, [r7, #4]
 1546 0094 FFF7FEFF 		bl	lv_obj_set_protect
 437:..\..\..\lvgl\version_6.1.2\lvgl\src\lv_objx/lv_cont.c **** 
 438:..\..\..\lvgl\version_6.1.2\lvgl\src\lv_objx/lv_cont.c ****     /* Align the children */
 439:..\..\..\lvgl\version_6.1.2\lvgl\src\lv_objx/lv_cont.c ****     lv_coord_t last_cord = -(h_tot / 2);
 1547              		.loc 3 439 0
 1548 0098 B7F90E30 		ldrsh	r3, [r7, #14]
 1549 009c DA0F     		lsrs	r2, r3, #31
 1550 009e 1344     		add	r3, r3, r2
 1551 00a0 5B10     		asrs	r3, r3, #1
 1552 00a2 1BB2     		sxth	r3, r3
 1553 00a4 9BB2     		uxth	r3, r3
 1554 00a6 5B42     		negs	r3, r3
 1555 00a8 9BB2     		uxth	r3, r3
 1556 00aa BB81     		strh	r3, [r7, #12]	@ movhi
 440:..\..\..\lvgl\version_6.1.2\lvgl\src\lv_objx/lv_cont.c ****     LV_LL_READ_BACK(cont->child_ll, child)
 1557              		.loc 3 440 0
 1558 00ac 7B68     		ldr	r3, [r7, #4]
 1559 00ae 0433     		adds	r3, r3, #4
 1560 00b0 1846     		mov	r0, r3
 1561 00b2 FFF7FEFF 		bl	lv_ll_get_tail
 1562 00b6 7861     		str	r0, [r7, #20]
 1563 00b8 37E0     		b	.L106
 1564              	.L110:
 441:..\..\..\lvgl\version_6.1.2\lvgl\src\lv_objx/lv_cont.c ****     {
 442:..\..\..\lvgl\version_6.1.2\lvgl\src\lv_objx/lv_cont.c ****         if(lv_obj_get_hidden(child) != false || lv_obj_is_protected(child, LV_PROTECT_POS) != false
 1565              		.loc 3 442 0
 1566 00ba 7869     		ldr	r0, [r7, #20]
 1567 00bc FFF7FEFF 		bl	lv_obj_get_hidden
 1568 00c0 0346     		mov	r3, r0
 1569 00c2 002B     		cmp	r3, #0
 1570 00c4 29D1     		bne	.L113
 1571              		.loc 3 442 0 is_stmt 0 discriminator 2
 1572 00c6 0421     		movs	r1, #4
 1573 00c8 7869     		ldr	r0, [r7, #20]
 1574 00ca FFF7FEFF 		bl	lv_obj_is_protected
 1575 00ce 0346     		mov	r3, r0
 1576 00d0 002B     		cmp	r3, #0
 1577 00d2 22D1     		bne	.L113
 443:..\..\..\lvgl\version_6.1.2\lvgl\src\lv_objx/lv_cont.c **** 
ARM GAS  C:\Users\tmj32\AppData\Local\Temp\ccnLJfS3.s 			page 41


 444:..\..\..\lvgl\version_6.1.2\lvgl\src\lv_objx/lv_cont.c ****         lv_obj_align(child, cont, LV_ALIGN_CENTER, 0, last_cord + lv_obj_get_height(child) / 2);
 1578              		.loc 3 444 0 is_stmt 1
 1579 00d4 7869     		ldr	r0, [r7, #20]
 1580 00d6 FFF7FEFF 		bl	lv_obj_get_height
 1581 00da 0346     		mov	r3, r0
 1582 00dc DA0F     		lsrs	r2, r3, #31
 1583 00de 1344     		add	r3, r3, r2
 1584 00e0 5B10     		asrs	r3, r3, #1
 1585 00e2 1BB2     		sxth	r3, r3
 1586 00e4 9AB2     		uxth	r2, r3
 1587 00e6 BB89     		ldrh	r3, [r7, #12]
 1588 00e8 1344     		add	r3, r3, r2
 1589 00ea 9BB2     		uxth	r3, r3
 1590 00ec 1BB2     		sxth	r3, r3
 1591 00ee 0093     		str	r3, [sp]
 1592 00f0 0023     		movs	r3, #0
 1593 00f2 0022     		movs	r2, #0
 1594 00f4 7968     		ldr	r1, [r7, #4]
 1595 00f6 7869     		ldr	r0, [r7, #20]
 1596 00f8 FFF7FEFF 		bl	lv_obj_align
 445:..\..\..\lvgl\version_6.1.2\lvgl\src\lv_objx/lv_cont.c ****         last_cord += lv_obj_get_height(child) + style->body.padding.inner;
 1597              		.loc 3 445 0
 1598 00fc 7869     		ldr	r0, [r7, #20]
 1599 00fe FFF7FEFF 		bl	lv_obj_get_height
 1600 0102 0346     		mov	r3, r0
 1601 0104 1A46     		mov	r2, r3
 1602 0106 BB68     		ldr	r3, [r7, #8]
 1603 0108 B3F92830 		ldrsh	r3, [r3, #40]
 1604 010c 1344     		add	r3, r3, r2
 1605 010e 9AB2     		uxth	r2, r3
 1606 0110 BB89     		ldrh	r3, [r7, #12]
 1607 0112 1344     		add	r3, r3, r2
 1608 0114 9BB2     		uxth	r3, r3
 1609 0116 BB81     		strh	r3, [r7, #12]	@ movhi
 1610 0118 00E0     		b	.L109
 1611              	.L113:
 442:..\..\..\lvgl\version_6.1.2\lvgl\src\lv_objx/lv_cont.c **** 
 1612              		.loc 3 442 0
 1613 011a 00BF     		nop
 1614              	.L109:
 440:..\..\..\lvgl\version_6.1.2\lvgl\src\lv_objx/lv_cont.c ****     {
 1615              		.loc 3 440 0 discriminator 2
 1616 011c 7B68     		ldr	r3, [r7, #4]
 1617 011e 0433     		adds	r3, r3, #4
 1618 0120 7969     		ldr	r1, [r7, #20]
 1619 0122 1846     		mov	r0, r3
 1620 0124 FFF7FEFF 		bl	lv_ll_get_prev
 1621 0128 7861     		str	r0, [r7, #20]
 1622              	.L106:
 440:..\..\..\lvgl\version_6.1.2\lvgl\src\lv_objx/lv_cont.c ****     {
 1623              		.loc 3 440 0 is_stmt 0 discriminator 1
 1624 012a 7B69     		ldr	r3, [r7, #20]
 1625 012c 002B     		cmp	r3, #0
 1626 012e C4D1     		bne	.L110
 446:..\..\..\lvgl\version_6.1.2\lvgl\src\lv_objx/lv_cont.c ****     }
 447:..\..\..\lvgl\version_6.1.2\lvgl\src\lv_objx/lv_cont.c **** 
 448:..\..\..\lvgl\version_6.1.2\lvgl\src\lv_objx/lv_cont.c ****     lv_obj_clear_protect(cont, LV_PROTECT_CHILD_CHG);
ARM GAS  C:\Users\tmj32\AppData\Local\Temp\ccnLJfS3.s 			page 42


 1627              		.loc 3 448 0 is_stmt 1
 1628 0130 0121     		movs	r1, #1
 1629 0132 7868     		ldr	r0, [r7, #4]
 1630 0134 FFF7FEFF 		bl	lv_obj_clear_protect
 1631 0138 00E0     		b	.L98
 1632              	.L112:
 430:..\..\..\lvgl\version_6.1.2\lvgl\src\lv_objx/lv_cont.c **** 
 1633              		.loc 3 430 0
 1634 013a 00BF     		nop
 1635              	.L98:
 449:..\..\..\lvgl\version_6.1.2\lvgl\src\lv_objx/lv_cont.c **** }
 1636              		.loc 3 449 0
 1637 013c 1837     		adds	r7, r7, #24
 1638              		.cfi_def_cfa_offset 8
 1639 013e BD46     		mov	sp, r7
 1640              		.cfi_def_cfa_register 13
 1641              		@ sp needed
 1642 0140 80BD     		pop	{r7, pc}
 1643              		.cfi_endproc
 1644              	.LFE47:
 1645              		.size	lv_cont_layout_center, .-lv_cont_layout_center
 1646 0142 00BF     		.section	.text.lv_cont_layout_pretty,"ax",%progbits
 1647              		.align	2
 1648              		.thumb
 1649              		.thumb_func
 1650              		.type	lv_cont_layout_pretty, %function
 1651              	lv_cont_layout_pretty:
 1652              	.LFB48:
 450:..\..\..\lvgl\version_6.1.2\lvgl\src\lv_objx/lv_cont.c **** 
 451:..\..\..\lvgl\version_6.1.2\lvgl\src\lv_objx/lv_cont.c **** /**
 452:..\..\..\lvgl\version_6.1.2\lvgl\src\lv_objx/lv_cont.c ****  * Handle the pretty layout. Put as many object as possible in row
 453:..\..\..\lvgl\version_6.1.2\lvgl\src\lv_objx/lv_cont.c ****  * then begin a new row
 454:..\..\..\lvgl\version_6.1.2\lvgl\src\lv_objx/lv_cont.c ****  * @param cont pointer to an object which layout should be handled
 455:..\..\..\lvgl\version_6.1.2\lvgl\src\lv_objx/lv_cont.c ****  */
 456:..\..\..\lvgl\version_6.1.2\lvgl\src\lv_objx/lv_cont.c **** static void lv_cont_layout_pretty(lv_obj_t * cont)
 457:..\..\..\lvgl\version_6.1.2\lvgl\src\lv_objx/lv_cont.c **** {
 1653              		.loc 3 457 0
 1654              		.cfi_startproc
 1655              		@ args = 0, pretend = 0, frame = 56
 1656              		@ frame_needed = 1, uses_anonymous_args = 0
 1657 0000 B0B5     		push	{r4, r5, r7, lr}
 1658              		.cfi_def_cfa_offset 16
 1659              		.cfi_offset 4, -16
 1660              		.cfi_offset 5, -12
 1661              		.cfi_offset 7, -8
 1662              		.cfi_offset 14, -4
 1663 0002 90B0     		sub	sp, sp, #64
 1664              		.cfi_def_cfa_offset 80
 1665 0004 02AF     		add	r7, sp, #8
 1666              		.cfi_def_cfa 7, 72
 1667 0006 7860     		str	r0, [r7, #4]
 458:..\..\..\lvgl\version_6.1.2\lvgl\src\lv_objx/lv_cont.c ****     lv_obj_t * child_rs;  /* Row starter child */
 459:..\..\..\lvgl\version_6.1.2\lvgl\src\lv_objx/lv_cont.c ****     lv_obj_t * child_rc;  /* Row closer child */
 460:..\..\..\lvgl\version_6.1.2\lvgl\src\lv_objx/lv_cont.c ****     lv_obj_t * child_tmp; /* Temporary child */
 461:..\..\..\lvgl\version_6.1.2\lvgl\src\lv_objx/lv_cont.c ****     const lv_style_t * style = lv_obj_get_style(cont);
 1668              		.loc 3 461 0
 1669 0008 7868     		ldr	r0, [r7, #4]
ARM GAS  C:\Users\tmj32\AppData\Local\Temp\ccnLJfS3.s 			page 43


 1670 000a FFF7FEFF 		bl	lv_obj_get_style
 1671 000e B861     		str	r0, [r7, #24]
 462:..\..\..\lvgl\version_6.1.2\lvgl\src\lv_objx/lv_cont.c ****     lv_coord_t w_obj         = lv_obj_get_width(cont);
 1672              		.loc 3 462 0
 1673 0010 7868     		ldr	r0, [r7, #4]
 1674 0012 FFF7FEFF 		bl	lv_obj_get_width
 1675 0016 0346     		mov	r3, r0
 1676 0018 FB82     		strh	r3, [r7, #22]	@ movhi
 463:..\..\..\lvgl\version_6.1.2\lvgl\src\lv_objx/lv_cont.c ****     lv_coord_t act_y         = style->body.padding.top;
 1677              		.loc 3 463 0
 1678 001a BB69     		ldr	r3, [r7, #24]
 1679 001c 1B8C     		ldrh	r3, [r3, #32]	@ movhi
 1680 001e 7B85     		strh	r3, [r7, #42]	@ movhi
 464:..\..\..\lvgl\version_6.1.2\lvgl\src\lv_objx/lv_cont.c ****     /* Disable child change action because the children will be moved a lot
 465:..\..\..\lvgl\version_6.1.2\lvgl\src\lv_objx/lv_cont.c ****      * an unnecessary child change signals could be sent*/
 466:..\..\..\lvgl\version_6.1.2\lvgl\src\lv_objx/lv_cont.c **** 
 467:..\..\..\lvgl\version_6.1.2\lvgl\src\lv_objx/lv_cont.c ****     child_rs = lv_ll_get_tail(&cont->child_ll); /*Set the row starter child*/
 1681              		.loc 3 467 0
 1682 0020 7B68     		ldr	r3, [r7, #4]
 1683 0022 0433     		adds	r3, r3, #4
 1684 0024 1846     		mov	r0, r3
 1685 0026 FFF7FEFF 		bl	lv_ll_get_tail
 1686 002a 7863     		str	r0, [r7, #52]
 468:..\..\..\lvgl\version_6.1.2\lvgl\src\lv_objx/lv_cont.c ****     if(child_rs == NULL) return;                /*Return if no child*/
 1687              		.loc 3 468 0
 1688 002c 7B6B     		ldr	r3, [r7, #52]
 1689 002e 002B     		cmp	r3, #0
 1690 0030 00F08081 		beq	.L138
 469:..\..\..\lvgl\version_6.1.2\lvgl\src\lv_objx/lv_cont.c **** 
 470:..\..\..\lvgl\version_6.1.2\lvgl\src\lv_objx/lv_cont.c ****     lv_obj_set_protect(cont, LV_PROTECT_CHILD_CHG);
 1691              		.loc 3 470 0
 1692 0034 0121     		movs	r1, #1
 1693 0036 7868     		ldr	r0, [r7, #4]
 1694 0038 FFF7FEFF 		bl	lv_obj_set_protect
 471:..\..\..\lvgl\version_6.1.2\lvgl\src\lv_objx/lv_cont.c **** 
 472:..\..\..\lvgl\version_6.1.2\lvgl\src\lv_objx/lv_cont.c ****     child_rc = child_rs; /*Initially the the row starter and closer is the same*/
 1695              		.loc 3 472 0
 1696 003c 7B6B     		ldr	r3, [r7, #52]
 1697 003e 3B63     		str	r3, [r7, #48]
 473:..\..\..\lvgl\version_6.1.2\lvgl\src\lv_objx/lv_cont.c ****     while(child_rs != NULL) {
 1698              		.loc 3 473 0
 1699 0040 6DE1     		b	.L117
 1700              	.L137:
 1701              	.LBB4:
 474:..\..\..\lvgl\version_6.1.2\lvgl\src\lv_objx/lv_cont.c ****         lv_coord_t h_row = 0;
 1702              		.loc 3 474 0
 1703 0042 0023     		movs	r3, #0
 1704 0044 3B85     		strh	r3, [r7, #40]	@ movhi
 475:..\..\..\lvgl\version_6.1.2\lvgl\src\lv_objx/lv_cont.c ****         lv_coord_t w_row =
 476:..\..\..\lvgl\version_6.1.2\lvgl\src\lv_objx/lv_cont.c ****             style->body.padding.left + style->body.padding.right; /*The width is at least the left+
 1705              		.loc 3 476 0
 1706 0046 BB69     		ldr	r3, [r7, #24]
 1707 0048 B3F92430 		ldrsh	r3, [r3, #36]
 475:..\..\..\lvgl\version_6.1.2\lvgl\src\lv_objx/lv_cont.c ****         lv_coord_t w_row =
 1708              		.loc 3 475 0
 1709 004c 9AB2     		uxth	r2, r3
 1710              		.loc 3 476 0
ARM GAS  C:\Users\tmj32\AppData\Local\Temp\ccnLJfS3.s 			page 44


 1711 004e BB69     		ldr	r3, [r7, #24]
 1712 0050 B3F92630 		ldrsh	r3, [r3, #38]
 475:..\..\..\lvgl\version_6.1.2\lvgl\src\lv_objx/lv_cont.c ****         lv_coord_t w_row =
 1713              		.loc 3 475 0
 1714 0054 9BB2     		uxth	r3, r3
 1715 0056 1344     		add	r3, r3, r2
 1716 0058 9BB2     		uxth	r3, r3
 1717 005a FB84     		strh	r3, [r7, #38]	@ movhi
 477:..\..\..\lvgl\version_6.1.2\lvgl\src\lv_objx/lv_cont.c ****         uint32_t obj_num = 0;
 1718              		.loc 3 477 0
 1719 005c 0023     		movs	r3, #0
 1720 005e 3B62     		str	r3, [r7, #32]
 1721              	.L125:
 478:..\..\..\lvgl\version_6.1.2\lvgl\src\lv_objx/lv_cont.c **** 
 479:..\..\..\lvgl\version_6.1.2\lvgl\src\lv_objx/lv_cont.c ****         /*Find the row closer object and collect some data*/
 480:..\..\..\lvgl\version_6.1.2\lvgl\src\lv_objx/lv_cont.c ****         do {
 481:..\..\..\lvgl\version_6.1.2\lvgl\src\lv_objx/lv_cont.c ****             if(lv_obj_get_hidden(child_rc) == false && lv_obj_is_protected(child_rc, LV_PROTECT_POS
 1722              		.loc 3 481 0
 1723 0060 386B     		ldr	r0, [r7, #48]
 1724 0062 FFF7FEFF 		bl	lv_obj_get_hidden
 1725 0066 0346     		mov	r3, r0
 1726 0068 83F00103 		eor	r3, r3, #1
 1727 006c DBB2     		uxtb	r3, r3
 1728 006e 002B     		cmp	r3, #0
 1729 0070 4BD0     		beq	.L118
 1730              		.loc 3 481 0 is_stmt 0 discriminator 1
 1731 0072 0421     		movs	r1, #4
 1732 0074 386B     		ldr	r0, [r7, #48]
 1733 0076 FFF7FEFF 		bl	lv_obj_is_protected
 1734 007a 0346     		mov	r3, r0
 1735 007c 83F00103 		eor	r3, r3, #1
 1736 0080 DBB2     		uxtb	r3, r3
 1737 0082 002B     		cmp	r3, #0
 1738 0084 41D0     		beq	.L118
 482:..\..\..\lvgl\version_6.1.2\lvgl\src\lv_objx/lv_cont.c ****                 /*If this object is already not fit then break*/
 483:..\..\..\lvgl\version_6.1.2\lvgl\src\lv_objx/lv_cont.c ****                 if(w_row + lv_obj_get_width(child_rc) > w_obj) {
 1739              		.loc 3 483 0 is_stmt 1
 1740 0086 B7F92640 		ldrsh	r4, [r7, #38]
 1741 008a 386B     		ldr	r0, [r7, #48]
 1742 008c FFF7FEFF 		bl	lv_obj_get_width
 1743 0090 0346     		mov	r3, r0
 1744 0092 E218     		adds	r2, r4, r3
 1745 0094 B7F91630 		ldrsh	r3, [r7, #22]
 1746 0098 9A42     		cmp	r2, r3
 1747 009a 0DDD     		ble	.L119
 484:..\..\..\lvgl\version_6.1.2\lvgl\src\lv_objx/lv_cont.c ****                     /*Step back one child because the last already not fit, so the previous is the
 485:..\..\..\lvgl\version_6.1.2\lvgl\src\lv_objx/lv_cont.c ****                      * closer*/
 486:..\..\..\lvgl\version_6.1.2\lvgl\src\lv_objx/lv_cont.c ****                     if(child_rc != NULL && obj_num != 0) {
 1748              		.loc 3 486 0
 1749 009c 3B6B     		ldr	r3, [r7, #48]
 1750 009e 002B     		cmp	r3, #0
 1751 00a0 43D0     		beq	.L139
 1752              		.loc 3 486 0 is_stmt 0 discriminator 1
 1753 00a2 3B6A     		ldr	r3, [r7, #32]
 1754 00a4 002B     		cmp	r3, #0
 1755 00a6 40D0     		beq	.L139
 487:..\..\..\lvgl\version_6.1.2\lvgl\src\lv_objx/lv_cont.c ****                         child_rc = lv_ll_get_next(&cont->child_ll, child_rc);
ARM GAS  C:\Users\tmj32\AppData\Local\Temp\ccnLJfS3.s 			page 45


 1756              		.loc 3 487 0 is_stmt 1
 1757 00a8 7B68     		ldr	r3, [r7, #4]
 1758 00aa 0433     		adds	r3, r3, #4
 1759 00ac 396B     		ldr	r1, [r7, #48]
 1760 00ae 1846     		mov	r0, r3
 1761 00b0 FFF7FEFF 		bl	lv_ll_get_next
 1762 00b4 3863     		str	r0, [r7, #48]
 488:..\..\..\lvgl\version_6.1.2\lvgl\src\lv_objx/lv_cont.c ****                     }
 489:..\..\..\lvgl\version_6.1.2\lvgl\src\lv_objx/lv_cont.c ****                     break;
 1763              		.loc 3 489 0
 1764 00b6 38E0     		b	.L139
 1765              	.L119:
 490:..\..\..\lvgl\version_6.1.2\lvgl\src\lv_objx/lv_cont.c ****                 }
 491:..\..\..\lvgl\version_6.1.2\lvgl\src\lv_objx/lv_cont.c ****                 w_row += lv_obj_get_width(child_rc) + style->body.padding.inner; /*Add the object w
 1766              		.loc 3 491 0
 1767 00b8 386B     		ldr	r0, [r7, #48]
 1768 00ba FFF7FEFF 		bl	lv_obj_get_width
 1769 00be 0346     		mov	r3, r0
 1770 00c0 1A46     		mov	r2, r3
 1771 00c2 BB69     		ldr	r3, [r7, #24]
 1772 00c4 B3F92830 		ldrsh	r3, [r3, #40]
 1773 00c8 1344     		add	r3, r3, r2
 1774 00ca 9AB2     		uxth	r2, r3
 1775 00cc FB8C     		ldrh	r3, [r7, #38]
 1776 00ce 1344     		add	r3, r3, r2
 1777 00d0 9BB2     		uxth	r3, r3
 1778 00d2 FB84     		strh	r3, [r7, #38]	@ movhi
 492:..\..\..\lvgl\version_6.1.2\lvgl\src\lv_objx/lv_cont.c ****                 h_row = LV_MATH_MAX(h_row, lv_obj_get_height(child_rc));         /*Search the highe
 1779              		.loc 3 492 0
 1780 00d4 386B     		ldr	r0, [r7, #48]
 1781 00d6 FFF7FEFF 		bl	lv_obj_get_height
 1782 00da 0346     		mov	r3, r0
 1783 00dc 1A46     		mov	r2, r3
 1784 00de B7F92830 		ldrsh	r3, [r7, #40]
 1785 00e2 9342     		cmp	r3, r2
 1786 00e4 04DC     		bgt	.L122
 1787              		.loc 3 492 0 is_stmt 0 discriminator 1
 1788 00e6 386B     		ldr	r0, [r7, #48]
 1789 00e8 FFF7FEFF 		bl	lv_obj_get_height
 1790 00ec 0346     		mov	r3, r0
 1791 00ee 01E0     		b	.L123
 1792              	.L122:
 1793              		.loc 3 492 0 discriminator 2
 1794 00f0 B7F92830 		ldrsh	r3, [r7, #40]
 1795              	.L123:
 1796              		.loc 3 492 0 discriminator 4
 1797 00f4 3B85     		strh	r3, [r7, #40]	@ movhi
 493:..\..\..\lvgl\version_6.1.2\lvgl\src\lv_objx/lv_cont.c ****                 obj_num++;
 1798              		.loc 3 493 0 is_stmt 1 discriminator 4
 1799 00f6 3B6A     		ldr	r3, [r7, #32]
 1800 00f8 0133     		adds	r3, r3, #1
 1801 00fa 3B62     		str	r3, [r7, #32]
 494:..\..\..\lvgl\version_6.1.2\lvgl\src\lv_objx/lv_cont.c ****                 if(lv_obj_is_protected(child_rc, LV_PROTECT_FOLLOW))
 1802              		.loc 3 494 0 discriminator 4
 1803 00fc 0821     		movs	r1, #8
 1804 00fe 386B     		ldr	r0, [r7, #48]
 1805 0100 FFF7FEFF 		bl	lv_obj_is_protected
ARM GAS  C:\Users\tmj32\AppData\Local\Temp\ccnLJfS3.s 			page 46


 1806 0104 0346     		mov	r3, r0
 1807 0106 002B     		cmp	r3, #0
 1808 0108 11D1     		bne	.L140
 1809              	.L118:
 495:..\..\..\lvgl\version_6.1.2\lvgl\src\lv_objx/lv_cont.c ****                     break; /*If can not be followed by an other object then break here*/
 496:..\..\..\lvgl\version_6.1.2\lvgl\src\lv_objx/lv_cont.c ****             }
 497:..\..\..\lvgl\version_6.1.2\lvgl\src\lv_objx/lv_cont.c ****             child_rc = lv_ll_get_prev(&cont->child_ll, child_rc); /*Load the next object*/
 1810              		.loc 3 497 0
 1811 010a 7B68     		ldr	r3, [r7, #4]
 1812 010c 0433     		adds	r3, r3, #4
 1813 010e 396B     		ldr	r1, [r7, #48]
 1814 0110 1846     		mov	r0, r3
 1815 0112 FFF7FEFF 		bl	lv_ll_get_prev
 1816 0116 3863     		str	r0, [r7, #48]
 498:..\..\..\lvgl\version_6.1.2\lvgl\src\lv_objx/lv_cont.c ****             if(obj_num == 0)
 1817              		.loc 3 498 0
 1818 0118 3B6A     		ldr	r3, [r7, #32]
 1819 011a 002B     		cmp	r3, #0
 1820 011c 01D1     		bne	.L124
 499:..\..\..\lvgl\version_6.1.2\lvgl\src\lv_objx/lv_cont.c ****                 child_rs = child_rc; /*If the first object was hidden (or too long) then set the
 1821              		.loc 3 499 0
 1822 011e 3B6B     		ldr	r3, [r7, #48]
 1823 0120 7B63     		str	r3, [r7, #52]
 1824              	.L124:
 500:..\..\..\lvgl\version_6.1.2\lvgl\src\lv_objx/lv_cont.c ****                                         next as first */
 501:..\..\..\lvgl\version_6.1.2\lvgl\src\lv_objx/lv_cont.c ****         } while(child_rc != NULL);
 1825              		.loc 3 501 0
 1826 0122 3B6B     		ldr	r3, [r7, #48]
 1827 0124 002B     		cmp	r3, #0
 1828 0126 9BD1     		bne	.L125
 1829 0128 02E0     		b	.L121
 1830              	.L139:
 489:..\..\..\lvgl\version_6.1.2\lvgl\src\lv_objx/lv_cont.c ****                 }
 1831              		.loc 3 489 0
 1832 012a 00BF     		nop
 1833 012c 00E0     		b	.L121
 1834              	.L140:
 495:..\..\..\lvgl\version_6.1.2\lvgl\src\lv_objx/lv_cont.c ****             }
 1835              		.loc 3 495 0
 1836 012e 00BF     		nop
 1837              	.L121:
 502:..\..\..\lvgl\version_6.1.2\lvgl\src\lv_objx/lv_cont.c **** 
 503:..\..\..\lvgl\version_6.1.2\lvgl\src\lv_objx/lv_cont.c ****         /*If the object is too long  then align it to the middle*/
 504:..\..\..\lvgl\version_6.1.2\lvgl\src\lv_objx/lv_cont.c ****         if(obj_num == 0) {
 1838              		.loc 3 504 0
 1839 0130 3B6A     		ldr	r3, [r7, #32]
 1840 0132 002B     		cmp	r3, #0
 1841 0134 12D1     		bne	.L126
 505:..\..\..\lvgl\version_6.1.2\lvgl\src\lv_objx/lv_cont.c ****             if(child_rc != NULL) {
 1842              		.loc 3 505 0
 1843 0136 3B6B     		ldr	r3, [r7, #48]
 1844 0138 002B     		cmp	r3, #0
 1845 013a 00F0D980 		beq	.L128
 506:..\..\..\lvgl\version_6.1.2\lvgl\src\lv_objx/lv_cont.c ****                 lv_obj_align(child_rc, cont, LV_ALIGN_IN_TOP_MID, 0, act_y);
 1846              		.loc 3 506 0
 1847 013e B7F92A30 		ldrsh	r3, [r7, #42]
 1848 0142 0093     		str	r3, [sp]
ARM GAS  C:\Users\tmj32\AppData\Local\Temp\ccnLJfS3.s 			page 47


 1849 0144 0023     		movs	r3, #0
 1850 0146 0222     		movs	r2, #2
 1851 0148 7968     		ldr	r1, [r7, #4]
 1852 014a 386B     		ldr	r0, [r7, #48]
 1853 014c FFF7FEFF 		bl	lv_obj_align
 507:..\..\..\lvgl\version_6.1.2\lvgl\src\lv_objx/lv_cont.c ****                 h_row = lv_obj_get_height(child_rc); /*Not set previously because of the early brea
 1854              		.loc 3 507 0
 1855 0150 386B     		ldr	r0, [r7, #48]
 1856 0152 FFF7FEFF 		bl	lv_obj_get_height
 1857 0156 0346     		mov	r3, r0
 1858 0158 3B85     		strh	r3, [r7, #40]	@ movhi
 1859 015a C9E0     		b	.L128
 1860              	.L126:
 508:..\..\..\lvgl\version_6.1.2\lvgl\src\lv_objx/lv_cont.c ****             }
 509:..\..\..\lvgl\version_6.1.2\lvgl\src\lv_objx/lv_cont.c ****         }
 510:..\..\..\lvgl\version_6.1.2\lvgl\src\lv_objx/lv_cont.c ****         /*If there is only one object in the row then align it to the middle*/
 511:..\..\..\lvgl\version_6.1.2\lvgl\src\lv_objx/lv_cont.c ****         else if(obj_num == 1) {
 1861              		.loc 3 511 0
 1862 015c 3B6A     		ldr	r3, [r7, #32]
 1863 015e 012B     		cmp	r3, #1
 1864 0160 09D1     		bne	.L129
 512:..\..\..\lvgl\version_6.1.2\lvgl\src\lv_objx/lv_cont.c ****             lv_obj_align(child_rs, cont, LV_ALIGN_IN_TOP_MID, 0, act_y);
 1865              		.loc 3 512 0
 1866 0162 B7F92A30 		ldrsh	r3, [r7, #42]
 1867 0166 0093     		str	r3, [sp]
 1868 0168 0023     		movs	r3, #0
 1869 016a 0222     		movs	r2, #2
 1870 016c 7968     		ldr	r1, [r7, #4]
 1871 016e 786B     		ldr	r0, [r7, #52]
 1872 0170 FFF7FEFF 		bl	lv_obj_align
 1873 0174 BCE0     		b	.L128
 1874              	.L129:
 513:..\..\..\lvgl\version_6.1.2\lvgl\src\lv_objx/lv_cont.c ****         }
 514:..\..\..\lvgl\version_6.1.2\lvgl\src\lv_objx/lv_cont.c ****         /*If there are two object in the row then align them proportionally*/
 515:..\..\..\lvgl\version_6.1.2\lvgl\src\lv_objx/lv_cont.c ****         else if(obj_num == 2) {
 1875              		.loc 3 515 0
 1876 0176 3B6A     		ldr	r3, [r7, #32]
 1877 0178 022B     		cmp	r3, #2
 1878 017a 53D1     		bne	.L130
 1879              	.LBB5:
 516:..\..\..\lvgl\version_6.1.2\lvgl\src\lv_objx/lv_cont.c ****             lv_obj_t * obj1 = child_rs;
 1880              		.loc 3 516 0
 1881 017c 7B6B     		ldr	r3, [r7, #52]
 1882 017e 3B61     		str	r3, [r7, #16]
 517:..\..\..\lvgl\version_6.1.2\lvgl\src\lv_objx/lv_cont.c ****             lv_obj_t * obj2 = lv_ll_get_prev(&cont->child_ll, child_rs);
 1883              		.loc 3 517 0
 1884 0180 7B68     		ldr	r3, [r7, #4]
 1885 0182 0433     		adds	r3, r3, #4
 1886 0184 796B     		ldr	r1, [r7, #52]
 1887 0186 1846     		mov	r0, r3
 1888 0188 FFF7FEFF 		bl	lv_ll_get_prev
 1889 018c F860     		str	r0, [r7, #12]
 518:..\..\..\lvgl\version_6.1.2\lvgl\src\lv_objx/lv_cont.c ****             w_row           = lv_obj_get_width(obj1) + lv_obj_get_width(obj2);
 1890              		.loc 3 518 0
 1891 018e 3869     		ldr	r0, [r7, #16]
 1892 0190 FFF7FEFF 		bl	lv_obj_get_width
 1893 0194 0346     		mov	r3, r0
ARM GAS  C:\Users\tmj32\AppData\Local\Temp\ccnLJfS3.s 			page 48


 1894 0196 9CB2     		uxth	r4, r3
 1895 0198 F868     		ldr	r0, [r7, #12]
 1896 019a FFF7FEFF 		bl	lv_obj_get_width
 1897 019e 0346     		mov	r3, r0
 1898 01a0 9BB2     		uxth	r3, r3
 1899 01a2 2344     		add	r3, r3, r4
 1900 01a4 9BB2     		uxth	r3, r3
 1901 01a6 FB84     		strh	r3, [r7, #38]	@ movhi
 519:..\..\..\lvgl\version_6.1.2\lvgl\src\lv_objx/lv_cont.c ****             lv_coord_t pad  = (w_obj - w_row) / 3;
 1902              		.loc 3 519 0
 1903 01a8 B7F91620 		ldrsh	r2, [r7, #22]
 1904 01ac B7F92630 		ldrsh	r3, [r7, #38]
 1905 01b0 D31A     		subs	r3, r2, r3
 1906 01b2 624A     		ldr	r2, .L143
 1907 01b4 82FB0312 		smull	r1, r2, r2, r3
 1908 01b8 DB17     		asrs	r3, r3, #31
 1909 01ba D31A     		subs	r3, r2, r3
 1910 01bc 7B81     		strh	r3, [r7, #10]	@ movhi
 520:..\..\..\lvgl\version_6.1.2\lvgl\src\lv_objx/lv_cont.c ****             lv_obj_align(obj1, cont, LV_ALIGN_IN_TOP_LEFT, pad, act_y + (h_row - lv_obj_get_height(
 1911              		.loc 3 520 0
 1912 01be B7F92840 		ldrsh	r4, [r7, #40]
 1913 01c2 3869     		ldr	r0, [r7, #16]
 1914 01c4 FFF7FEFF 		bl	lv_obj_get_height
 1915 01c8 0346     		mov	r3, r0
 1916 01ca E31A     		subs	r3, r4, r3
 1917 01cc DA0F     		lsrs	r2, r3, #31
 1918 01ce 1344     		add	r3, r3, r2
 1919 01d0 5B10     		asrs	r3, r3, #1
 1920 01d2 9AB2     		uxth	r2, r3
 1921 01d4 7B8D     		ldrh	r3, [r7, #42]
 1922 01d6 1344     		add	r3, r3, r2
 1923 01d8 9BB2     		uxth	r3, r3
 1924 01da 1BB2     		sxth	r3, r3
 1925 01dc B7F90A20 		ldrsh	r2, [r7, #10]
 1926 01e0 0093     		str	r3, [sp]
 1927 01e2 1346     		mov	r3, r2
 1928 01e4 0122     		movs	r2, #1
 1929 01e6 7968     		ldr	r1, [r7, #4]
 1930 01e8 3869     		ldr	r0, [r7, #16]
 1931 01ea FFF7FEFF 		bl	lv_obj_align
 521:..\..\..\lvgl\version_6.1.2\lvgl\src\lv_objx/lv_cont.c ****             lv_obj_align(obj2, cont, LV_ALIGN_IN_TOP_RIGHT, -pad, act_y + (h_row - lv_obj_get_heigh
 1932              		.loc 3 521 0
 1933 01ee 7B89     		ldrh	r3, [r7, #10]
 1934 01f0 5B42     		negs	r3, r3
 1935 01f2 9BB2     		uxth	r3, r3
 1936 01f4 1DB2     		sxth	r5, r3
 1937 01f6 B7F92840 		ldrsh	r4, [r7, #40]
 1938 01fa F868     		ldr	r0, [r7, #12]
 1939 01fc FFF7FEFF 		bl	lv_obj_get_height
 1940 0200 0346     		mov	r3, r0
 1941 0202 E31A     		subs	r3, r4, r3
 1942 0204 DA0F     		lsrs	r2, r3, #31
 1943 0206 1344     		add	r3, r3, r2
 1944 0208 5B10     		asrs	r3, r3, #1
 1945 020a 9AB2     		uxth	r2, r3
 1946 020c 7B8D     		ldrh	r3, [r7, #42]
 1947 020e 1344     		add	r3, r3, r2
ARM GAS  C:\Users\tmj32\AppData\Local\Temp\ccnLJfS3.s 			page 49


 1948 0210 9BB2     		uxth	r3, r3
 1949 0212 1BB2     		sxth	r3, r3
 1950 0214 0093     		str	r3, [sp]
 1951 0216 2B46     		mov	r3, r5
 1952 0218 0322     		movs	r2, #3
 1953 021a 7968     		ldr	r1, [r7, #4]
 1954 021c F868     		ldr	r0, [r7, #12]
 1955 021e FFF7FEFF 		bl	lv_obj_align
 1956              	.LBE5:
 1957 0222 65E0     		b	.L128
 1958              	.L130:
 1959              	.LBB6:
 522:..\..\..\lvgl\version_6.1.2\lvgl\src\lv_objx/lv_cont.c ****         }
 523:..\..\..\lvgl\version_6.1.2\lvgl\src\lv_objx/lv_cont.c ****         /* Align the children (from child_rs to child_rc)*/
 524:..\..\..\lvgl\version_6.1.2\lvgl\src\lv_objx/lv_cont.c ****         else {
 525:..\..\..\lvgl\version_6.1.2\lvgl\src\lv_objx/lv_cont.c ****             w_row -= style->body.padding.inner * obj_num;
 1960              		.loc 3 525 0
 1961 0224 FA8C     		ldrh	r2, [r7, #38]
 1962 0226 BB69     		ldr	r3, [r7, #24]
 1963 0228 B3F92830 		ldrsh	r3, [r3, #40]
 1964 022c 99B2     		uxth	r1, r3
 1965 022e 3B6A     		ldr	r3, [r7, #32]
 1966 0230 9BB2     		uxth	r3, r3
 1967 0232 11FB03F3 		smulbb	r3, r1, r3
 1968 0236 9BB2     		uxth	r3, r3
 1969 0238 D31A     		subs	r3, r2, r3
 1970 023a 9BB2     		uxth	r3, r3
 1971 023c FB84     		strh	r3, [r7, #38]	@ movhi
 526:..\..\..\lvgl\version_6.1.2\lvgl\src\lv_objx/lv_cont.c ****             lv_coord_t new_opad = (w_obj - w_row) / (obj_num - 1);
 1972              		.loc 3 526 0
 1973 023e B7F91620 		ldrsh	r2, [r7, #22]
 1974 0242 B7F92630 		ldrsh	r3, [r7, #38]
 1975 0246 D31A     		subs	r3, r2, r3
 1976 0248 1A46     		mov	r2, r3
 1977 024a 3B6A     		ldr	r3, [r7, #32]
 1978 024c 013B     		subs	r3, r3, #1
 1979 024e B2FBF3F3 		udiv	r3, r2, r3
 1980 0252 3B81     		strh	r3, [r7, #8]	@ movhi
 527:..\..\..\lvgl\version_6.1.2\lvgl\src\lv_objx/lv_cont.c ****             lv_coord_t act_x    = style->body.padding.left; /*x init*/
 1981              		.loc 3 527 0
 1982 0254 BB69     		ldr	r3, [r7, #24]
 1983 0256 9B8C     		ldrh	r3, [r3, #36]	@ movhi
 1984 0258 FB83     		strh	r3, [r7, #30]	@ movhi
 528:..\..\..\lvgl\version_6.1.2\lvgl\src\lv_objx/lv_cont.c ****             child_tmp           = child_rs;
 1985              		.loc 3 528 0
 1986 025a 7B6B     		ldr	r3, [r7, #52]
 1987 025c FB62     		str	r3, [r7, #44]
 529:..\..\..\lvgl\version_6.1.2\lvgl\src\lv_objx/lv_cont.c ****             while(child_tmp != NULL) {
 1988              		.loc 3 529 0
 1989 025e 42E0     		b	.L131
 1990              	.L134:
 530:..\..\..\lvgl\version_6.1.2\lvgl\src\lv_objx/lv_cont.c ****                 if(lv_obj_get_hidden(child_tmp) == false && lv_obj_is_protected(child_tmp, LV_PROTE
 1991              		.loc 3 530 0
 1992 0260 F86A     		ldr	r0, [r7, #44]
 1993 0262 FFF7FEFF 		bl	lv_obj_get_hidden
 1994 0266 0346     		mov	r3, r0
 1995 0268 83F00103 		eor	r3, r3, #1
ARM GAS  C:\Users\tmj32\AppData\Local\Temp\ccnLJfS3.s 			page 50


 1996 026c DBB2     		uxtb	r3, r3
 1997 026e 002B     		cmp	r3, #0
 1998 0270 2ED0     		beq	.L132
 1999              		.loc 3 530 0 is_stmt 0 discriminator 1
 2000 0272 0421     		movs	r1, #4
 2001 0274 F86A     		ldr	r0, [r7, #44]
 2002 0276 FFF7FEFF 		bl	lv_obj_is_protected
 2003 027a 0346     		mov	r3, r0
 2004 027c 83F00103 		eor	r3, r3, #1
 2005 0280 DBB2     		uxtb	r3, r3
 2006 0282 002B     		cmp	r3, #0
 2007 0284 24D0     		beq	.L132
 531:..\..\..\lvgl\version_6.1.2\lvgl\src\lv_objx/lv_cont.c ****                     lv_obj_align(child_tmp, cont, LV_ALIGN_IN_TOP_LEFT, act_x,
 532:..\..\..\lvgl\version_6.1.2\lvgl\src\lv_objx/lv_cont.c ****                                  act_y + (h_row - lv_obj_get_height(child_tmp)) / 2);
 2008              		.loc 3 532 0 is_stmt 1
 2009 0286 B7F92840 		ldrsh	r4, [r7, #40]
 2010 028a F86A     		ldr	r0, [r7, #44]
 2011 028c FFF7FEFF 		bl	lv_obj_get_height
 2012 0290 0346     		mov	r3, r0
 2013 0292 E31A     		subs	r3, r4, r3
 2014 0294 DA0F     		lsrs	r2, r3, #31
 2015 0296 1344     		add	r3, r3, r2
 2016 0298 5B10     		asrs	r3, r3, #1
 531:..\..\..\lvgl\version_6.1.2\lvgl\src\lv_objx/lv_cont.c ****                     lv_obj_align(child_tmp, cont, LV_ALIGN_IN_TOP_LEFT, act_x,
 2017              		.loc 3 531 0
 2018 029a 9AB2     		uxth	r2, r3
 2019 029c 7B8D     		ldrh	r3, [r7, #42]
 2020 029e 1344     		add	r3, r3, r2
 2021 02a0 9BB2     		uxth	r3, r3
 2022 02a2 1BB2     		sxth	r3, r3
 2023 02a4 B7F91E20 		ldrsh	r2, [r7, #30]
 2024 02a8 0093     		str	r3, [sp]
 2025 02aa 1346     		mov	r3, r2
 2026 02ac 0122     		movs	r2, #1
 2027 02ae 7968     		ldr	r1, [r7, #4]
 2028 02b0 F86A     		ldr	r0, [r7, #44]
 2029 02b2 FFF7FEFF 		bl	lv_obj_align
 533:..\..\..\lvgl\version_6.1.2\lvgl\src\lv_objx/lv_cont.c ****                     act_x += lv_obj_get_width(child_tmp) + new_opad;
 2030              		.loc 3 533 0
 2031 02b6 F86A     		ldr	r0, [r7, #44]
 2032 02b8 FFF7FEFF 		bl	lv_obj_get_width
 2033 02bc 0346     		mov	r3, r0
 2034 02be 1A46     		mov	r2, r3
 2035 02c0 B7F90830 		ldrsh	r3, [r7, #8]
 2036 02c4 1344     		add	r3, r3, r2
 2037 02c6 9AB2     		uxth	r2, r3
 2038 02c8 FB8B     		ldrh	r3, [r7, #30]
 2039 02ca 1344     		add	r3, r3, r2
 2040 02cc 9BB2     		uxth	r3, r3
 2041 02ce FB83     		strh	r3, [r7, #30]	@ movhi
 2042              	.L132:
 534:..\..\..\lvgl\version_6.1.2\lvgl\src\lv_objx/lv_cont.c ****                 }
 535:..\..\..\lvgl\version_6.1.2\lvgl\src\lv_objx/lv_cont.c ****                 if(child_tmp == child_rc) break;
 2043              		.loc 3 535 0
 2044 02d0 FA6A     		ldr	r2, [r7, #44]
 2045 02d2 3B6B     		ldr	r3, [r7, #48]
 2046 02d4 9A42     		cmp	r2, r3
ARM GAS  C:\Users\tmj32\AppData\Local\Temp\ccnLJfS3.s 			page 51


 2047 02d6 0AD0     		beq	.L141
 536:..\..\..\lvgl\version_6.1.2\lvgl\src\lv_objx/lv_cont.c ****                 child_tmp = lv_ll_get_prev(&cont->child_ll, child_tmp);
 2048              		.loc 3 536 0
 2049 02d8 7B68     		ldr	r3, [r7, #4]
 2050 02da 0433     		adds	r3, r3, #4
 2051 02dc F96A     		ldr	r1, [r7, #44]
 2052 02de 1846     		mov	r0, r3
 2053 02e0 FFF7FEFF 		bl	lv_ll_get_prev
 2054 02e4 F862     		str	r0, [r7, #44]
 2055              	.L131:
 529:..\..\..\lvgl\version_6.1.2\lvgl\src\lv_objx/lv_cont.c ****                 if(lv_obj_get_hidden(child_tmp) == false && lv_obj_is_protected(child_tmp, LV_PROTE
 2056              		.loc 3 529 0
 2057 02e6 FB6A     		ldr	r3, [r7, #44]
 2058 02e8 002B     		cmp	r3, #0
 2059 02ea B9D1     		bne	.L134
 2060 02ec 00E0     		b	.L128
 2061              	.L141:
 535:..\..\..\lvgl\version_6.1.2\lvgl\src\lv_objx/lv_cont.c ****                 child_tmp = lv_ll_get_prev(&cont->child_ll, child_tmp);
 2062              		.loc 3 535 0
 2063 02ee 00BF     		nop
 2064              	.L128:
 2065              	.LBE6:
 537:..\..\..\lvgl\version_6.1.2\lvgl\src\lv_objx/lv_cont.c ****             }
 538:..\..\..\lvgl\version_6.1.2\lvgl\src\lv_objx/lv_cont.c ****         }
 539:..\..\..\lvgl\version_6.1.2\lvgl\src\lv_objx/lv_cont.c **** 
 540:..\..\..\lvgl\version_6.1.2\lvgl\src\lv_objx/lv_cont.c ****         if(child_rc == NULL) break;
 2066              		.loc 3 540 0
 2067 02f0 3B6B     		ldr	r3, [r7, #48]
 2068 02f2 002B     		cmp	r3, #0
 2069 02f4 18D0     		beq	.L142
 541:..\..\..\lvgl\version_6.1.2\lvgl\src\lv_objx/lv_cont.c ****         act_y += style->body.padding.inner + h_row;           /*y increment*/
 2070              		.loc 3 541 0
 2071 02f6 BB69     		ldr	r3, [r7, #24]
 2072 02f8 B3F92830 		ldrsh	r3, [r3, #40]
 2073 02fc 9AB2     		uxth	r2, r3
 2074 02fe 3B8D     		ldrh	r3, [r7, #40]
 2075 0300 1344     		add	r3, r3, r2
 2076 0302 9AB2     		uxth	r2, r3
 2077 0304 7B8D     		ldrh	r3, [r7, #42]
 2078 0306 1344     		add	r3, r3, r2
 2079 0308 9BB2     		uxth	r3, r3
 2080 030a 7B85     		strh	r3, [r7, #42]	@ movhi
 542:..\..\..\lvgl\version_6.1.2\lvgl\src\lv_objx/lv_cont.c ****         child_rs = lv_ll_get_prev(&cont->child_ll, child_rc); /*Go to the next object*/
 2081              		.loc 3 542 0
 2082 030c 7B68     		ldr	r3, [r7, #4]
 2083 030e 0433     		adds	r3, r3, #4
 2084 0310 396B     		ldr	r1, [r7, #48]
 2085 0312 1846     		mov	r0, r3
 2086 0314 FFF7FEFF 		bl	lv_ll_get_prev
 2087 0318 7863     		str	r0, [r7, #52]
 543:..\..\..\lvgl\version_6.1.2\lvgl\src\lv_objx/lv_cont.c ****         child_rc = child_rs;
 2088              		.loc 3 543 0
 2089 031a 7B6B     		ldr	r3, [r7, #52]
 2090 031c 3B63     		str	r3, [r7, #48]
 2091              	.L117:
 2092              	.LBE4:
 473:..\..\..\lvgl\version_6.1.2\lvgl\src\lv_objx/lv_cont.c ****         lv_coord_t h_row = 0;
ARM GAS  C:\Users\tmj32\AppData\Local\Temp\ccnLJfS3.s 			page 52


 2093              		.loc 3 473 0
 2094 031e 7B6B     		ldr	r3, [r7, #52]
 2095 0320 002B     		cmp	r3, #0
 2096 0322 7FF48EAE 		bne	.L137
 2097 0326 00E0     		b	.L136
 2098              	.L142:
 2099              	.LBB7:
 540:..\..\..\lvgl\version_6.1.2\lvgl\src\lv_objx/lv_cont.c ****         act_y += style->body.padding.inner + h_row;           /*y increment*/
 2100              		.loc 3 540 0
 2101 0328 00BF     		nop
 2102              	.L136:
 2103              	.LBE7:
 544:..\..\..\lvgl\version_6.1.2\lvgl\src\lv_objx/lv_cont.c ****     }
 545:..\..\..\lvgl\version_6.1.2\lvgl\src\lv_objx/lv_cont.c ****     lv_obj_clear_protect(cont, LV_PROTECT_CHILD_CHG);
 2104              		.loc 3 545 0
 2105 032a 0121     		movs	r1, #1
 2106 032c 7868     		ldr	r0, [r7, #4]
 2107 032e FFF7FEFF 		bl	lv_obj_clear_protect
 2108 0332 00E0     		b	.L114
 2109              	.L138:
 468:..\..\..\lvgl\version_6.1.2\lvgl\src\lv_objx/lv_cont.c **** 
 2110              		.loc 3 468 0
 2111 0334 00BF     		nop
 2112              	.L114:
 546:..\..\..\lvgl\version_6.1.2\lvgl\src\lv_objx/lv_cont.c **** }
 2113              		.loc 3 546 0
 2114 0336 3837     		adds	r7, r7, #56
 2115              		.cfi_def_cfa_offset 16
 2116 0338 BD46     		mov	sp, r7
 2117              		.cfi_def_cfa_register 13
 2118              		@ sp needed
 2119 033a B0BD     		pop	{r4, r5, r7, pc}
 2120              	.L144:
 2121              		.align	2
 2122              	.L143:
 2123 033c 56555555 		.word	1431655766
 2124              		.cfi_endproc
 2125              	.LFE48:
 2126              		.size	lv_cont_layout_pretty, .-lv_cont_layout_pretty
 2127              		.section	.text.lv_cont_layout_grid,"ax",%progbits
 2128              		.align	2
 2129              		.thumb
 2130              		.thumb_func
 2131              		.type	lv_cont_layout_grid, %function
 2132              	lv_cont_layout_grid:
 2133              	.LFB49:
 547:..\..\..\lvgl\version_6.1.2\lvgl\src\lv_objx/lv_cont.c **** 
 548:..\..\..\lvgl\version_6.1.2\lvgl\src\lv_objx/lv_cont.c **** /**
 549:..\..\..\lvgl\version_6.1.2\lvgl\src\lv_objx/lv_cont.c ****  * Handle the grid layout. Align same-sized objects in a grid
 550:..\..\..\lvgl\version_6.1.2\lvgl\src\lv_objx/lv_cont.c ****  * @param cont pointer to an object which layout should be handled
 551:..\..\..\lvgl\version_6.1.2\lvgl\src\lv_objx/lv_cont.c ****  */
 552:..\..\..\lvgl\version_6.1.2\lvgl\src\lv_objx/lv_cont.c **** static void lv_cont_layout_grid(lv_obj_t * cont)
 553:..\..\..\lvgl\version_6.1.2\lvgl\src\lv_objx/lv_cont.c **** {
 2134              		.loc 3 553 0
 2135              		.cfi_startproc
 2136              		@ args = 0, pretend = 0, frame = 40
 2137              		@ frame_needed = 1, uses_anonymous_args = 0
ARM GAS  C:\Users\tmj32\AppData\Local\Temp\ccnLJfS3.s 			page 53


 2138 0000 80B5     		push	{r7, lr}
 2139              		.cfi_def_cfa_offset 8
 2140              		.cfi_offset 7, -8
 2141              		.cfi_offset 14, -4
 2142 0002 8AB0     		sub	sp, sp, #40
 2143              		.cfi_def_cfa_offset 48
 2144 0004 00AF     		add	r7, sp, #0
 2145              		.cfi_def_cfa_register 7
 2146 0006 7860     		str	r0, [r7, #4]
 554:..\..\..\lvgl\version_6.1.2\lvgl\src\lv_objx/lv_cont.c ****     lv_obj_t * child;
 555:..\..\..\lvgl\version_6.1.2\lvgl\src\lv_objx/lv_cont.c ****     const lv_style_t * style = lv_obj_get_style(cont);
 2147              		.loc 3 555 0
 2148 0008 7868     		ldr	r0, [r7, #4]
 2149 000a FFF7FEFF 		bl	lv_obj_get_style
 2150 000e B861     		str	r0, [r7, #24]
 556:..\..\..\lvgl\version_6.1.2\lvgl\src\lv_objx/lv_cont.c ****     lv_coord_t w_tot         = lv_obj_get_width(cont);
 2151              		.loc 3 556 0
 2152 0010 7868     		ldr	r0, [r7, #4]
 2153 0012 FFF7FEFF 		bl	lv_obj_get_width
 2154 0016 0346     		mov	r3, r0
 2155 0018 FB82     		strh	r3, [r7, #22]	@ movhi
 557:..\..\..\lvgl\version_6.1.2\lvgl\src\lv_objx/lv_cont.c ****     lv_coord_t w_obj         = lv_obj_get_width(lv_obj_get_child(cont, NULL));
 2156              		.loc 3 557 0
 2157 001a 0021     		movs	r1, #0
 2158 001c 7868     		ldr	r0, [r7, #4]
 2159 001e FFF7FEFF 		bl	lv_obj_get_child
 2160 0022 0346     		mov	r3, r0
 2161 0024 1846     		mov	r0, r3
 2162 0026 FFF7FEFF 		bl	lv_obj_get_width
 2163 002a 0346     		mov	r3, r0
 2164 002c BB82     		strh	r3, [r7, #20]	@ movhi
 558:..\..\..\lvgl\version_6.1.2\lvgl\src\lv_objx/lv_cont.c ****     lv_coord_t w_fit         =  lv_obj_get_width_fit(cont);
 2165              		.loc 3 558 0
 2166 002e 7868     		ldr	r0, [r7, #4]
 2167 0030 FFF7FEFF 		bl	lv_obj_get_width_fit
 2168 0034 0346     		mov	r3, r0
 2169 0036 7B82     		strh	r3, [r7, #18]	@ movhi
 559:..\..\..\lvgl\version_6.1.2\lvgl\src\lv_objx/lv_cont.c ****     lv_coord_t h_obj         = lv_obj_get_height(lv_obj_get_child(cont, NULL));
 2170              		.loc 3 559 0
 2171 0038 0021     		movs	r1, #0
 2172 003a 7868     		ldr	r0, [r7, #4]
 2173 003c FFF7FEFF 		bl	lv_obj_get_child
 2174 0040 0346     		mov	r3, r0
 2175 0042 1846     		mov	r0, r3
 2176 0044 FFF7FEFF 		bl	lv_obj_get_height
 2177 0048 0346     		mov	r3, r0
 2178 004a 3B82     		strh	r3, [r7, #16]	@ movhi
 560:..\..\..\lvgl\version_6.1.2\lvgl\src\lv_objx/lv_cont.c ****     uint16_t obj_row         = (w_fit) / (w_obj + style->body.padding.inner); /*Obj. num. in a row*
 2179              		.loc 3 560 0
 2180 004c B7F91220 		ldrsh	r2, [r7, #18]
 2181 0050 B7F91430 		ldrsh	r3, [r7, #20]
 2182 0054 B969     		ldr	r1, [r7, #24]
 2183 0056 B1F92810 		ldrsh	r1, [r1, #40]
 2184 005a 0B44     		add	r3, r3, r1
 2185 005c 92FBF3F3 		sdiv	r3, r2, r3
 2186 0060 FB81     		strh	r3, [r7, #14]	@ movhi
 561:..\..\..\lvgl\version_6.1.2\lvgl\src\lv_objx/lv_cont.c ****     lv_coord_t x_ofs;
ARM GAS  C:\Users\tmj32\AppData\Local\Temp\ccnLJfS3.s 			page 54


 562:..\..\..\lvgl\version_6.1.2\lvgl\src\lv_objx/lv_cont.c ****     if(obj_row > 1) {
 2187              		.loc 3 562 0
 2188 0062 FB89     		ldrh	r3, [r7, #14]
 2189 0064 012B     		cmp	r3, #1
 2190 0066 11D9     		bls	.L146
 563:..\..\..\lvgl\version_6.1.2\lvgl\src\lv_objx/lv_cont.c ****         x_ofs = w_obj + (w_fit - (obj_row * w_obj)) / (obj_row - 1);
 2191              		.loc 3 563 0
 2192 0068 B7F91220 		ldrsh	r2, [r7, #18]
 2193 006c FB89     		ldrh	r3, [r7, #14]
 2194 006e B7F91410 		ldrsh	r1, [r7, #20]
 2195 0072 01FB03F3 		mul	r3, r1, r3
 2196 0076 D21A     		subs	r2, r2, r3
 2197 0078 FB89     		ldrh	r3, [r7, #14]
 2198 007a 013B     		subs	r3, r3, #1
 2199 007c 92FBF3F3 		sdiv	r3, r2, r3
 2200 0080 9AB2     		uxth	r2, r3
 2201 0082 BB8A     		ldrh	r3, [r7, #20]
 2202 0084 1344     		add	r3, r3, r2
 2203 0086 9BB2     		uxth	r3, r3
 2204 0088 7B84     		strh	r3, [r7, #34]	@ movhi
 2205 008a 10E0     		b	.L147
 2206              	.L146:
 564:..\..\..\lvgl\version_6.1.2\lvgl\src\lv_objx/lv_cont.c ****     } else {
 565:..\..\..\lvgl\version_6.1.2\lvgl\src\lv_objx/lv_cont.c ****         x_ofs = w_tot / 2 - w_obj / 2;
 2207              		.loc 3 565 0
 2208 008c B7F91630 		ldrsh	r3, [r7, #22]
 2209 0090 DA0F     		lsrs	r2, r3, #31
 2210 0092 1344     		add	r3, r3, r2
 2211 0094 5B10     		asrs	r3, r3, #1
 2212 0096 1BB2     		sxth	r3, r3
 2213 0098 9AB2     		uxth	r2, r3
 2214 009a B7F91430 		ldrsh	r3, [r7, #20]
 2215 009e D90F     		lsrs	r1, r3, #31
 2216 00a0 0B44     		add	r3, r3, r1
 2217 00a2 5B10     		asrs	r3, r3, #1
 2218 00a4 1BB2     		sxth	r3, r3
 2219 00a6 9BB2     		uxth	r3, r3
 2220 00a8 D31A     		subs	r3, r2, r3
 2221 00aa 9BB2     		uxth	r3, r3
 2222 00ac 7B84     		strh	r3, [r7, #34]	@ movhi
 2223              	.L147:
 566:..\..\..\lvgl\version_6.1.2\lvgl\src\lv_objx/lv_cont.c ****     }
 567:..\..\..\lvgl\version_6.1.2\lvgl\src\lv_objx/lv_cont.c ****     lv_coord_t y_ofs = h_obj + style->body.padding.inner;
 2224              		.loc 3 567 0
 2225 00ae BB69     		ldr	r3, [r7, #24]
 2226 00b0 B3F92830 		ldrsh	r3, [r3, #40]
 2227 00b4 9AB2     		uxth	r2, r3
 2228 00b6 3B8A     		ldrh	r3, [r7, #16]
 2229 00b8 1344     		add	r3, r3, r2
 2230 00ba 9BB2     		uxth	r3, r3
 2231 00bc BB81     		strh	r3, [r7, #12]	@ movhi
 568:..\..\..\lvgl\version_6.1.2\lvgl\src\lv_objx/lv_cont.c **** 
 569:..\..\..\lvgl\version_6.1.2\lvgl\src\lv_objx/lv_cont.c ****     /* Disable child change action because the children will be moved a lot
 570:..\..\..\lvgl\version_6.1.2\lvgl\src\lv_objx/lv_cont.c ****      * an unnecessary child change signals could be sent*/
 571:..\..\..\lvgl\version_6.1.2\lvgl\src\lv_objx/lv_cont.c ****     lv_obj_set_protect(cont, LV_PROTECT_CHILD_CHG);
 2232              		.loc 3 571 0
 2233 00be 0121     		movs	r1, #1
ARM GAS  C:\Users\tmj32\AppData\Local\Temp\ccnLJfS3.s 			page 55


 2234 00c0 7868     		ldr	r0, [r7, #4]
 2235 00c2 FFF7FEFF 		bl	lv_obj_set_protect
 572:..\..\..\lvgl\version_6.1.2\lvgl\src\lv_objx/lv_cont.c **** 
 573:..\..\..\lvgl\version_6.1.2\lvgl\src\lv_objx/lv_cont.c ****     /* Align the children */
 574:..\..\..\lvgl\version_6.1.2\lvgl\src\lv_objx/lv_cont.c ****     lv_coord_t act_x = style->body.padding.left;
 2236              		.loc 3 574 0
 2237 00c6 BB69     		ldr	r3, [r7, #24]
 2238 00c8 9B8C     		ldrh	r3, [r3, #36]	@ movhi
 2239 00ca 3B84     		strh	r3, [r7, #32]	@ movhi
 575:..\..\..\lvgl\version_6.1.2\lvgl\src\lv_objx/lv_cont.c ****     lv_coord_t act_y = style->body.padding.top;
 2240              		.loc 3 575 0
 2241 00cc BB69     		ldr	r3, [r7, #24]
 2242 00ce 1B8C     		ldrh	r3, [r3, #32]	@ movhi
 2243 00d0 FB83     		strh	r3, [r7, #30]	@ movhi
 576:..\..\..\lvgl\version_6.1.2\lvgl\src\lv_objx/lv_cont.c ****     uint16_t obj_cnt = 0;
 2244              		.loc 3 576 0
 2245 00d2 0023     		movs	r3, #0
 2246 00d4 BB83     		strh	r3, [r7, #28]	@ movhi
 577:..\..\..\lvgl\version_6.1.2\lvgl\src\lv_objx/lv_cont.c ****     LV_LL_READ_BACK(cont->child_ll, child)
 2247              		.loc 3 577 0
 2248 00d6 7B68     		ldr	r3, [r7, #4]
 2249 00d8 0433     		adds	r3, r3, #4
 2250 00da 1846     		mov	r0, r3
 2251 00dc FFF7FEFF 		bl	lv_ll_get_tail
 2252 00e0 7862     		str	r0, [r7, #36]
 2253 00e2 3FE0     		b	.L148
 2254              	.L154:
 578:..\..\..\lvgl\version_6.1.2\lvgl\src\lv_objx/lv_cont.c ****     {
 579:..\..\..\lvgl\version_6.1.2\lvgl\src\lv_objx/lv_cont.c ****         if(lv_obj_get_hidden(child) != false || lv_obj_is_protected(child, LV_PROTECT_POS) != false
 2255              		.loc 3 579 0
 2256 00e4 786A     		ldr	r0, [r7, #36]
 2257 00e6 FFF7FEFF 		bl	lv_obj_get_hidden
 2258 00ea 0346     		mov	r3, r0
 2259 00ec 002B     		cmp	r3, #0
 2260 00ee 31D1     		bne	.L155
 2261              		.loc 3 579 0 is_stmt 0 discriminator 2
 2262 00f0 0421     		movs	r1, #4
 2263 00f2 786A     		ldr	r0, [r7, #36]
 2264 00f4 FFF7FEFF 		bl	lv_obj_is_protected
 2265 00f8 0346     		mov	r3, r0
 2266 00fa 002B     		cmp	r3, #0
 2267 00fc 2AD1     		bne	.L155
 580:..\..\..\lvgl\version_6.1.2\lvgl\src\lv_objx/lv_cont.c **** 
 581:..\..\..\lvgl\version_6.1.2\lvgl\src\lv_objx/lv_cont.c ****         if(obj_row > 1) {
 2268              		.loc 3 581 0 is_stmt 1
 2269 00fe FB89     		ldrh	r3, [r7, #14]
 2270 0100 012B     		cmp	r3, #1
 2271 0102 0DD9     		bls	.L152
 582:..\..\..\lvgl\version_6.1.2\lvgl\src\lv_objx/lv_cont.c ****             lv_obj_set_pos(child, act_x, act_y);
 2272              		.loc 3 582 0
 2273 0104 B7F91E20 		ldrsh	r2, [r7, #30]
 2274 0108 B7F92030 		ldrsh	r3, [r7, #32]
 2275 010c 1946     		mov	r1, r3
 2276 010e 786A     		ldr	r0, [r7, #36]
 2277 0110 FFF7FEFF 		bl	lv_obj_set_pos
 583:..\..\..\lvgl\version_6.1.2\lvgl\src\lv_objx/lv_cont.c ****             act_x += x_ofs;
 2278              		.loc 3 583 0
ARM GAS  C:\Users\tmj32\AppData\Local\Temp\ccnLJfS3.s 			page 56


 2279 0114 3A8C     		ldrh	r2, [r7, #32]
 2280 0116 7B8C     		ldrh	r3, [r7, #34]
 2281 0118 1344     		add	r3, r3, r2
 2282 011a 9BB2     		uxth	r3, r3
 2283 011c 3B84     		strh	r3, [r7, #32]	@ movhi
 2284 011e 07E0     		b	.L153
 2285              	.L152:
 584:..\..\..\lvgl\version_6.1.2\lvgl\src\lv_objx/lv_cont.c ****         } else {
 585:..\..\..\lvgl\version_6.1.2\lvgl\src\lv_objx/lv_cont.c ****             lv_obj_set_pos(child, x_ofs, act_y);
 2286              		.loc 3 585 0
 2287 0120 B7F91E20 		ldrsh	r2, [r7, #30]
 2288 0124 B7F92230 		ldrsh	r3, [r7, #34]
 2289 0128 1946     		mov	r1, r3
 2290 012a 786A     		ldr	r0, [r7, #36]
 2291 012c FFF7FEFF 		bl	lv_obj_set_pos
 2292              	.L153:
 586:..\..\..\lvgl\version_6.1.2\lvgl\src\lv_objx/lv_cont.c ****         }
 587:..\..\..\lvgl\version_6.1.2\lvgl\src\lv_objx/lv_cont.c ****         obj_cnt++;
 2293              		.loc 3 587 0
 2294 0130 BB8B     		ldrh	r3, [r7, #28]
 2295 0132 0133     		adds	r3, r3, #1
 2296 0134 BB83     		strh	r3, [r7, #28]	@ movhi
 588:..\..\..\lvgl\version_6.1.2\lvgl\src\lv_objx/lv_cont.c **** 
 589:..\..\..\lvgl\version_6.1.2\lvgl\src\lv_objx/lv_cont.c ****         if(obj_cnt >= obj_row) {
 2297              		.loc 3 589 0
 2298 0136 BA8B     		ldrh	r2, [r7, #28]
 2299 0138 FB89     		ldrh	r3, [r7, #14]
 2300 013a 9A42     		cmp	r2, r3
 2301 013c 0BD3     		bcc	.L151
 590:..\..\..\lvgl\version_6.1.2\lvgl\src\lv_objx/lv_cont.c ****             obj_cnt = 0;
 2302              		.loc 3 590 0
 2303 013e 0023     		movs	r3, #0
 2304 0140 BB83     		strh	r3, [r7, #28]	@ movhi
 591:..\..\..\lvgl\version_6.1.2\lvgl\src\lv_objx/lv_cont.c ****             act_x   = style->body.padding.left;
 2305              		.loc 3 591 0
 2306 0142 BB69     		ldr	r3, [r7, #24]
 2307 0144 9B8C     		ldrh	r3, [r3, #36]	@ movhi
 2308 0146 3B84     		strh	r3, [r7, #32]	@ movhi
 592:..\..\..\lvgl\version_6.1.2\lvgl\src\lv_objx/lv_cont.c ****             act_y += y_ofs;
 2309              		.loc 3 592 0
 2310 0148 FA8B     		ldrh	r2, [r7, #30]
 2311 014a BB89     		ldrh	r3, [r7, #12]
 2312 014c 1344     		add	r3, r3, r2
 2313 014e 9BB2     		uxth	r3, r3
 2314 0150 FB83     		strh	r3, [r7, #30]	@ movhi
 2315 0152 00E0     		b	.L151
 2316              	.L155:
 579:..\..\..\lvgl\version_6.1.2\lvgl\src\lv_objx/lv_cont.c **** 
 2317              		.loc 3 579 0
 2318 0154 00BF     		nop
 2319              	.L151:
 577:..\..\..\lvgl\version_6.1.2\lvgl\src\lv_objx/lv_cont.c ****     {
 2320              		.loc 3 577 0 discriminator 2
 2321 0156 7B68     		ldr	r3, [r7, #4]
 2322 0158 0433     		adds	r3, r3, #4
 2323 015a 796A     		ldr	r1, [r7, #36]
 2324 015c 1846     		mov	r0, r3
ARM GAS  C:\Users\tmj32\AppData\Local\Temp\ccnLJfS3.s 			page 57


 2325 015e FFF7FEFF 		bl	lv_ll_get_prev
 2326 0162 7862     		str	r0, [r7, #36]
 2327              	.L148:
 577:..\..\..\lvgl\version_6.1.2\lvgl\src\lv_objx/lv_cont.c ****     {
 2328              		.loc 3 577 0 is_stmt 0 discriminator 1
 2329 0164 7B6A     		ldr	r3, [r7, #36]
 2330 0166 002B     		cmp	r3, #0
 2331 0168 BCD1     		bne	.L154
 593:..\..\..\lvgl\version_6.1.2\lvgl\src\lv_objx/lv_cont.c ****         }
 594:..\..\..\lvgl\version_6.1.2\lvgl\src\lv_objx/lv_cont.c ****     }
 595:..\..\..\lvgl\version_6.1.2\lvgl\src\lv_objx/lv_cont.c **** 
 596:..\..\..\lvgl\version_6.1.2\lvgl\src\lv_objx/lv_cont.c ****     lv_obj_clear_protect(cont, LV_PROTECT_CHILD_CHG);
 2332              		.loc 3 596 0 is_stmt 1
 2333 016a 0121     		movs	r1, #1
 2334 016c 7868     		ldr	r0, [r7, #4]
 2335 016e FFF7FEFF 		bl	lv_obj_clear_protect
 597:..\..\..\lvgl\version_6.1.2\lvgl\src\lv_objx/lv_cont.c **** }
 2336              		.loc 3 597 0
 2337 0172 00BF     		nop
 2338 0174 2837     		adds	r7, r7, #40
 2339              		.cfi_def_cfa_offset 8
 2340 0176 BD46     		mov	sp, r7
 2341              		.cfi_def_cfa_register 13
 2342              		@ sp needed
 2343 0178 80BD     		pop	{r7, pc}
 2344              		.cfi_endproc
 2345              	.LFE49:
 2346              		.size	lv_cont_layout_grid, .-lv_cont_layout_grid
 2347 017a 00BF     		.section	.text.lv_cont_refr_autofit,"ax",%progbits
 2348              		.align	2
 2349              		.thumb
 2350              		.thumb_func
 2351              		.type	lv_cont_refr_autofit, %function
 2352              	lv_cont_refr_autofit:
 2353              	.LFB50:
 598:..\..\..\lvgl\version_6.1.2\lvgl\src\lv_objx/lv_cont.c **** 
 599:..\..\..\lvgl\version_6.1.2\lvgl\src\lv_objx/lv_cont.c **** /**
 600:..\..\..\lvgl\version_6.1.2\lvgl\src\lv_objx/lv_cont.c ****  * Handle auto fit. Set the size of the object to involve all children.
 601:..\..\..\lvgl\version_6.1.2\lvgl\src\lv_objx/lv_cont.c ****  * @param cont pointer to an object which size will be modified
 602:..\..\..\lvgl\version_6.1.2\lvgl\src\lv_objx/lv_cont.c ****  */
 603:..\..\..\lvgl\version_6.1.2\lvgl\src\lv_objx/lv_cont.c **** static void lv_cont_refr_autofit(lv_obj_t * cont)
 604:..\..\..\lvgl\version_6.1.2\lvgl\src\lv_objx/lv_cont.c **** {
 2354              		.loc 3 604 0
 2355              		.cfi_startproc
 2356              		@ args = 0, pretend = 0, frame = 64
 2357              		@ frame_needed = 1, uses_anonymous_args = 0
 2358 0000 80B5     		push	{r7, lr}
 2359              		.cfi_def_cfa_offset 8
 2360              		.cfi_offset 7, -8
 2361              		.cfi_offset 14, -4
 2362 0002 90B0     		sub	sp, sp, #64
 2363              		.cfi_def_cfa_offset 72
 2364 0004 00AF     		add	r7, sp, #0
 2365              		.cfi_def_cfa_register 7
 2366 0006 7860     		str	r0, [r7, #4]
 605:..\..\..\lvgl\version_6.1.2\lvgl\src\lv_objx/lv_cont.c ****     lv_cont_ext_t * ext = lv_obj_get_ext_attr(cont);
 2367              		.loc 3 605 0
ARM GAS  C:\Users\tmj32\AppData\Local\Temp\ccnLJfS3.s 			page 58


 2368 0008 7868     		ldr	r0, [r7, #4]
 2369 000a FFF7FEFF 		bl	lv_obj_get_ext_attr
 2370 000e B863     		str	r0, [r7, #56]
 606:..\..\..\lvgl\version_6.1.2\lvgl\src\lv_objx/lv_cont.c **** 
 607:..\..\..\lvgl\version_6.1.2\lvgl\src\lv_objx/lv_cont.c ****     if(ext->fit_left == LV_FIT_NONE && ext->fit_right == LV_FIT_NONE && ext->fit_top == LV_FIT_NONE
 2371              		.loc 3 607 0
 2372 0010 BB6B     		ldr	r3, [r7, #56]
 2373 0012 1B78     		ldrb	r3, [r3]	@ zero_extendqisi2
 2374 0014 03F03003 		and	r3, r3, #48
 2375 0018 DBB2     		uxtb	r3, r3
 2376 001a 002B     		cmp	r3, #0
 2377 001c 15D1     		bne	.L157
 2378              		.loc 3 607 0 is_stmt 0 discriminator 1
 2379 001e BB6B     		ldr	r3, [r7, #56]
 2380 0020 1B78     		ldrb	r3, [r3]	@ zero_extendqisi2
 2381 0022 23F03F03 		bic	r3, r3, #63
 2382 0026 DBB2     		uxtb	r3, r3
 2383 0028 002B     		cmp	r3, #0
 2384 002a 0ED1     		bne	.L157
 2385              		.loc 3 607 0 discriminator 2
 2386 002c BB6B     		ldr	r3, [r7, #56]
 2387 002e 5B78     		ldrb	r3, [r3, #1]	@ zero_extendqisi2
 2388 0030 03F00303 		and	r3, r3, #3
 2389 0034 DBB2     		uxtb	r3, r3
 2390 0036 002B     		cmp	r3, #0
 2391 0038 07D1     		bne	.L157
 608:..\..\..\lvgl\version_6.1.2\lvgl\src\lv_objx/lv_cont.c ****        ext->fit_bottom == LV_FIT_NONE) {
 2392              		.loc 3 608 0 is_stmt 1 discriminator 3
 2393 003a BB6B     		ldr	r3, [r7, #56]
 2394 003c 5B78     		ldrb	r3, [r3, #1]	@ zero_extendqisi2
 2395 003e 03F00C03 		and	r3, r3, #12
 2396 0042 DBB2     		uxtb	r3, r3
 607:..\..\..\lvgl\version_6.1.2\lvgl\src\lv_objx/lv_cont.c ****        ext->fit_bottom == LV_FIT_NONE) {
 2397              		.loc 3 607 0 discriminator 3
 2398 0044 002B     		cmp	r3, #0
 2399 0046 00F0CB81 		beq	.L199
 2400              	.L157:
 609:..\..\..\lvgl\version_6.1.2\lvgl\src\lv_objx/lv_cont.c ****         return;
 610:..\..\..\lvgl\version_6.1.2\lvgl\src\lv_objx/lv_cont.c ****     }
 611:..\..\..\lvgl\version_6.1.2\lvgl\src\lv_objx/lv_cont.c **** 
 612:..\..\..\lvgl\version_6.1.2\lvgl\src\lv_objx/lv_cont.c ****     lv_area_t tight_area;
 613:..\..\..\lvgl\version_6.1.2\lvgl\src\lv_objx/lv_cont.c ****     lv_area_t ori;
 614:..\..\..\lvgl\version_6.1.2\lvgl\src\lv_objx/lv_cont.c ****     const lv_style_t * style = lv_obj_get_style(cont);
 2401              		.loc 3 614 0
 2402 004a 7868     		ldr	r0, [r7, #4]
 2403 004c FFF7FEFF 		bl	lv_obj_get_style
 2404 0050 7863     		str	r0, [r7, #52]
 615:..\..\..\lvgl\version_6.1.2\lvgl\src\lv_objx/lv_cont.c ****     lv_obj_t * child_i;
 616:..\..\..\lvgl\version_6.1.2\lvgl\src\lv_objx/lv_cont.c **** 
 617:..\..\..\lvgl\version_6.1.2\lvgl\src\lv_objx/lv_cont.c ****     lv_obj_t * par               = lv_obj_get_parent(cont);
 2405              		.loc 3 617 0
 2406 0052 7868     		ldr	r0, [r7, #4]
 2407 0054 FFF7FEFF 		bl	lv_obj_get_parent
 2408 0058 3863     		str	r0, [r7, #48]
 618:..\..\..\lvgl\version_6.1.2\lvgl\src\lv_objx/lv_cont.c ****     const lv_style_t * par_style = lv_obj_get_style(par);
 2409              		.loc 3 618 0
 2410 005a 386B     		ldr	r0, [r7, #48]
ARM GAS  C:\Users\tmj32\AppData\Local\Temp\ccnLJfS3.s 			page 59


 2411 005c FFF7FEFF 		bl	lv_obj_get_style
 2412 0060 F862     		str	r0, [r7, #44]
 619:..\..\..\lvgl\version_6.1.2\lvgl\src\lv_objx/lv_cont.c ****     lv_area_t flood_area;
 620:..\..\..\lvgl\version_6.1.2\lvgl\src\lv_objx/lv_cont.c ****     lv_area_copy(&flood_area, &par->coords);
 2413              		.loc 3 620 0
 2414 0062 3B6B     		ldr	r3, [r7, #48]
 2415 0064 03F11002 		add	r2, r3, #16
 2416 0068 07F11003 		add	r3, r7, #16
 2417 006c 1146     		mov	r1, r2
 2418 006e 1846     		mov	r0, r3
 2419 0070 FFF7FEFF 		bl	lv_area_copy
 621:..\..\..\lvgl\version_6.1.2\lvgl\src\lv_objx/lv_cont.c ****     flood_area.x1 += par_style->body.padding.left;
 2420              		.loc 3 621 0
 2421 0074 B7F91030 		ldrsh	r3, [r7, #16]
 2422 0078 9AB2     		uxth	r2, r3
 2423 007a FB6A     		ldr	r3, [r7, #44]
 2424 007c B3F92430 		ldrsh	r3, [r3, #36]
 2425 0080 9BB2     		uxth	r3, r3
 2426 0082 1344     		add	r3, r3, r2
 2427 0084 9BB2     		uxth	r3, r3
 2428 0086 1BB2     		sxth	r3, r3
 2429 0088 3B82     		strh	r3, [r7, #16]	@ movhi
 622:..\..\..\lvgl\version_6.1.2\lvgl\src\lv_objx/lv_cont.c ****     flood_area.x2 -= par_style->body.padding.right;
 2430              		.loc 3 622 0
 2431 008a B7F91430 		ldrsh	r3, [r7, #20]
 2432 008e 9AB2     		uxth	r2, r3
 2433 0090 FB6A     		ldr	r3, [r7, #44]
 2434 0092 B3F92630 		ldrsh	r3, [r3, #38]
 2435 0096 9BB2     		uxth	r3, r3
 2436 0098 D31A     		subs	r3, r2, r3
 2437 009a 9BB2     		uxth	r3, r3
 2438 009c 1BB2     		sxth	r3, r3
 2439 009e BB82     		strh	r3, [r7, #20]	@ movhi
 623:..\..\..\lvgl\version_6.1.2\lvgl\src\lv_objx/lv_cont.c ****     flood_area.y1 += par_style->body.padding.top;
 2440              		.loc 3 623 0
 2441 00a0 B7F91230 		ldrsh	r3, [r7, #18]
 2442 00a4 9AB2     		uxth	r2, r3
 2443 00a6 FB6A     		ldr	r3, [r7, #44]
 2444 00a8 B3F92030 		ldrsh	r3, [r3, #32]
 2445 00ac 9BB2     		uxth	r3, r3
 2446 00ae 1344     		add	r3, r3, r2
 2447 00b0 9BB2     		uxth	r3, r3
 2448 00b2 1BB2     		sxth	r3, r3
 2449 00b4 7B82     		strh	r3, [r7, #18]	@ movhi
 624:..\..\..\lvgl\version_6.1.2\lvgl\src\lv_objx/lv_cont.c ****     flood_area.y2 -= par_style->body.padding.bottom;
 2450              		.loc 3 624 0
 2451 00b6 B7F91630 		ldrsh	r3, [r7, #22]
 2452 00ba 9AB2     		uxth	r2, r3
 2453 00bc FB6A     		ldr	r3, [r7, #44]
 2454 00be B3F92230 		ldrsh	r3, [r3, #34]
 2455 00c2 9BB2     		uxth	r3, r3
 2456 00c4 D31A     		subs	r3, r2, r3
 2457 00c6 9BB2     		uxth	r3, r3
 2458 00c8 1BB2     		sxth	r3, r3
 2459 00ca FB82     		strh	r3, [r7, #22]	@ movhi
 625:..\..\..\lvgl\version_6.1.2\lvgl\src\lv_objx/lv_cont.c **** 
 626:..\..\..\lvgl\version_6.1.2\lvgl\src\lv_objx/lv_cont.c ****     /*Search the side coordinates of the children*/
ARM GAS  C:\Users\tmj32\AppData\Local\Temp\ccnLJfS3.s 			page 60


 627:..\..\..\lvgl\version_6.1.2\lvgl\src\lv_objx/lv_cont.c ****     lv_obj_get_coords(cont, &ori);
 2460              		.loc 3 627 0
 2461 00cc 07F11803 		add	r3, r7, #24
 2462 00d0 1946     		mov	r1, r3
 2463 00d2 7868     		ldr	r0, [r7, #4]
 2464 00d4 FFF7FEFF 		bl	lv_obj_get_coords
 628:..\..\..\lvgl\version_6.1.2\lvgl\src\lv_objx/lv_cont.c ****     lv_obj_get_coords(cont, &tight_area);
 2465              		.loc 3 628 0
 2466 00d8 07F12003 		add	r3, r7, #32
 2467 00dc 1946     		mov	r1, r3
 2468 00de 7868     		ldr	r0, [r7, #4]
 2469 00e0 FFF7FEFF 		bl	lv_obj_get_coords
 629:..\..\..\lvgl\version_6.1.2\lvgl\src\lv_objx/lv_cont.c **** 
 630:..\..\..\lvgl\version_6.1.2\lvgl\src\lv_objx/lv_cont.c ****     bool has_children = lv_ll_is_empty(&cont->child_ll) ? false : true;
 2470              		.loc 3 630 0
 2471 00e4 7B68     		ldr	r3, [r7, #4]
 2472 00e6 0433     		adds	r3, r3, #4
 2473 00e8 1846     		mov	r0, r3
 2474 00ea FFF7FEFF 		bl	lv_ll_is_empty
 2475 00ee 0346     		mov	r3, r0
 2476 00f0 002B     		cmp	r3, #0
 2477 00f2 01D0     		beq	.L159
 2478              		.loc 3 630 0 is_stmt 0 discriminator 1
 2479 00f4 0023     		movs	r3, #0
 2480 00f6 00E0     		b	.L160
 2481              	.L159:
 2482              		.loc 3 630 0 discriminator 2
 2483 00f8 0123     		movs	r3, #1
 2484              	.L160:
 2485              		.loc 3 630 0 discriminator 4
 2486 00fa 87F82B30 		strb	r3, [r7, #43]
 631:..\..\..\lvgl\version_6.1.2\lvgl\src\lv_objx/lv_cont.c **** 
 632:..\..\..\lvgl\version_6.1.2\lvgl\src\lv_objx/lv_cont.c ****     if(has_children) {
 2487              		.loc 3 632 0 is_stmt 1 discriminator 4
 2488 00fe 97F82B30 		ldrb	r3, [r7, #43]	@ zero_extendqisi2
 2489 0102 002B     		cmp	r3, #0
 2490 0104 78D0     		beq	.L161
 633:..\..\..\lvgl\version_6.1.2\lvgl\src\lv_objx/lv_cont.c ****         tight_area.x1 = LV_COORD_MAX;
 2491              		.loc 3 633 0
 2492 0106 47F61843 		movw	r3, #31768
 2493 010a 3B84     		strh	r3, [r7, #32]	@ movhi
 634:..\..\..\lvgl\version_6.1.2\lvgl\src\lv_objx/lv_cont.c ****         tight_area.y1 = LV_COORD_MAX;
 2494              		.loc 3 634 0
 2495 010c 47F61843 		movw	r3, #31768
 2496 0110 7B84     		strh	r3, [r7, #34]	@ movhi
 635:..\..\..\lvgl\version_6.1.2\lvgl\src\lv_objx/lv_cont.c ****         tight_area.x2 = LV_COORD_MIN;
 2497              		.loc 3 635 0
 2498 0112 48F2E833 		movw	r3, #33768
 2499 0116 BB84     		strh	r3, [r7, #36]	@ movhi
 636:..\..\..\lvgl\version_6.1.2\lvgl\src\lv_objx/lv_cont.c ****         tight_area.y2 = LV_COORD_MIN;
 2500              		.loc 3 636 0
 2501 0118 48F2E833 		movw	r3, #33768
 2502 011c FB84     		strh	r3, [r7, #38]	@ movhi
 637:..\..\..\lvgl\version_6.1.2\lvgl\src\lv_objx/lv_cont.c **** 
 638:..\..\..\lvgl\version_6.1.2\lvgl\src\lv_objx/lv_cont.c ****         LV_LL_READ(cont->child_ll, child_i)
 2503              		.loc 3 638 0
 2504 011e 7B68     		ldr	r3, [r7, #4]
ARM GAS  C:\Users\tmj32\AppData\Local\Temp\ccnLJfS3.s 			page 61


 2505 0120 0433     		adds	r3, r3, #4
 2506 0122 1846     		mov	r0, r3
 2507 0124 FFF7FEFF 		bl	lv_ll_get_head
 2508 0128 F863     		str	r0, [r7, #60]
 2509 012a 36E0     		b	.L162
 2510              	.L165:
 639:..\..\..\lvgl\version_6.1.2\lvgl\src\lv_objx/lv_cont.c ****         {
 640:..\..\..\lvgl\version_6.1.2\lvgl\src\lv_objx/lv_cont.c ****             if(lv_obj_get_hidden(child_i) != false) continue;
 2511              		.loc 3 640 0
 2512 012c F86B     		ldr	r0, [r7, #60]
 2513 012e FFF7FEFF 		bl	lv_obj_get_hidden
 2514 0132 0346     		mov	r3, r0
 2515 0134 002B     		cmp	r3, #0
 2516 0136 28D1     		bne	.L200
 641:..\..\..\lvgl\version_6.1.2\lvgl\src\lv_objx/lv_cont.c ****             tight_area.x1 = LV_MATH_MIN(tight_area.x1, child_i->coords.x1);
 2517              		.loc 3 641 0
 2518 0138 FB6B     		ldr	r3, [r7, #60]
 2519 013a B3F91020 		ldrsh	r2, [r3, #16]
 2520 013e B7F92030 		ldrsh	r3, [r7, #32]
 2521 0142 9342     		cmp	r3, r2
 2522 0144 A8BF     		it	ge
 2523 0146 1346     		movge	r3, r2
 2524 0148 1BB2     		sxth	r3, r3
 2525 014a 3B84     		strh	r3, [r7, #32]	@ movhi
 642:..\..\..\lvgl\version_6.1.2\lvgl\src\lv_objx/lv_cont.c ****             tight_area.y1 = LV_MATH_MIN(tight_area.y1, child_i->coords.y1);
 2526              		.loc 3 642 0
 2527 014c FB6B     		ldr	r3, [r7, #60]
 2528 014e B3F91220 		ldrsh	r2, [r3, #18]
 2529 0152 B7F92230 		ldrsh	r3, [r7, #34]
 2530 0156 9342     		cmp	r3, r2
 2531 0158 A8BF     		it	ge
 2532 015a 1346     		movge	r3, r2
 2533 015c 1BB2     		sxth	r3, r3
 2534 015e 7B84     		strh	r3, [r7, #34]	@ movhi
 643:..\..\..\lvgl\version_6.1.2\lvgl\src\lv_objx/lv_cont.c ****             tight_area.x2 = LV_MATH_MAX(tight_area.x2, child_i->coords.x2);
 2535              		.loc 3 643 0
 2536 0160 FB6B     		ldr	r3, [r7, #60]
 2537 0162 B3F91420 		ldrsh	r2, [r3, #20]
 2538 0166 B7F92430 		ldrsh	r3, [r7, #36]
 2539 016a 9342     		cmp	r3, r2
 2540 016c B8BF     		it	lt
 2541 016e 1346     		movlt	r3, r2
 2542 0170 1BB2     		sxth	r3, r3
 2543 0172 BB84     		strh	r3, [r7, #36]	@ movhi
 644:..\..\..\lvgl\version_6.1.2\lvgl\src\lv_objx/lv_cont.c ****             tight_area.y2 = LV_MATH_MAX(tight_area.y2, child_i->coords.y2);
 2544              		.loc 3 644 0
 2545 0174 FB6B     		ldr	r3, [r7, #60]
 2546 0176 B3F91620 		ldrsh	r2, [r3, #22]
 2547 017a B7F92630 		ldrsh	r3, [r7, #38]
 2548 017e 9342     		cmp	r3, r2
 2549 0180 B8BF     		it	lt
 2550 0182 1346     		movlt	r3, r2
 2551 0184 1BB2     		sxth	r3, r3
 2552 0186 FB84     		strh	r3, [r7, #38]	@ movhi
 2553 0188 00E0     		b	.L164
 2554              	.L200:
 640:..\..\..\lvgl\version_6.1.2\lvgl\src\lv_objx/lv_cont.c ****             tight_area.x1 = LV_MATH_MIN(tight_area.x1, child_i->coords.x1);
ARM GAS  C:\Users\tmj32\AppData\Local\Temp\ccnLJfS3.s 			page 62


 2555              		.loc 3 640 0
 2556 018a 00BF     		nop
 2557              	.L164:
 638:..\..\..\lvgl\version_6.1.2\lvgl\src\lv_objx/lv_cont.c ****         {
 2558              		.loc 3 638 0 discriminator 2
 2559 018c 7B68     		ldr	r3, [r7, #4]
 2560 018e 0433     		adds	r3, r3, #4
 2561 0190 F96B     		ldr	r1, [r7, #60]
 2562 0192 1846     		mov	r0, r3
 2563 0194 FFF7FEFF 		bl	lv_ll_get_next
 2564 0198 F863     		str	r0, [r7, #60]
 2565              	.L162:
 638:..\..\..\lvgl\version_6.1.2\lvgl\src\lv_objx/lv_cont.c ****         {
 2566              		.loc 3 638 0 is_stmt 0 discriminator 1
 2567 019a FB6B     		ldr	r3, [r7, #60]
 2568 019c 002B     		cmp	r3, #0
 2569 019e C5D1     		bne	.L165
 645:..\..\..\lvgl\version_6.1.2\lvgl\src\lv_objx/lv_cont.c ****         }
 646:..\..\..\lvgl\version_6.1.2\lvgl\src\lv_objx/lv_cont.c **** 
 647:..\..\..\lvgl\version_6.1.2\lvgl\src\lv_objx/lv_cont.c ****         tight_area.x1 -= style->body.padding.left;
 2570              		.loc 3 647 0 is_stmt 1
 2571 01a0 B7F92030 		ldrsh	r3, [r7, #32]
 2572 01a4 9AB2     		uxth	r2, r3
 2573 01a6 7B6B     		ldr	r3, [r7, #52]
 2574 01a8 B3F92430 		ldrsh	r3, [r3, #36]
 2575 01ac 9BB2     		uxth	r3, r3
 2576 01ae D31A     		subs	r3, r2, r3
 2577 01b0 9BB2     		uxth	r3, r3
 2578 01b2 1BB2     		sxth	r3, r3
 2579 01b4 3B84     		strh	r3, [r7, #32]	@ movhi
 648:..\..\..\lvgl\version_6.1.2\lvgl\src\lv_objx/lv_cont.c ****         tight_area.x2 += style->body.padding.right;
 2580              		.loc 3 648 0
 2581 01b6 B7F92430 		ldrsh	r3, [r7, #36]
 2582 01ba 9AB2     		uxth	r2, r3
 2583 01bc 7B6B     		ldr	r3, [r7, #52]
 2584 01be B3F92630 		ldrsh	r3, [r3, #38]
 2585 01c2 9BB2     		uxth	r3, r3
 2586 01c4 1344     		add	r3, r3, r2
 2587 01c6 9BB2     		uxth	r3, r3
 2588 01c8 1BB2     		sxth	r3, r3
 2589 01ca BB84     		strh	r3, [r7, #36]	@ movhi
 649:..\..\..\lvgl\version_6.1.2\lvgl\src\lv_objx/lv_cont.c ****         tight_area.y1 -= style->body.padding.top;
 2590              		.loc 3 649 0
 2591 01cc B7F92230 		ldrsh	r3, [r7, #34]
 2592 01d0 9AB2     		uxth	r2, r3
 2593 01d2 7B6B     		ldr	r3, [r7, #52]
 2594 01d4 B3F92030 		ldrsh	r3, [r3, #32]
 2595 01d8 9BB2     		uxth	r3, r3
 2596 01da D31A     		subs	r3, r2, r3
 2597 01dc 9BB2     		uxth	r3, r3
 2598 01de 1BB2     		sxth	r3, r3
 2599 01e0 7B84     		strh	r3, [r7, #34]	@ movhi
 650:..\..\..\lvgl\version_6.1.2\lvgl\src\lv_objx/lv_cont.c ****         tight_area.y2 += style->body.padding.bottom;
 2600              		.loc 3 650 0
 2601 01e2 B7F92630 		ldrsh	r3, [r7, #38]
 2602 01e6 9AB2     		uxth	r2, r3
 2603 01e8 7B6B     		ldr	r3, [r7, #52]
ARM GAS  C:\Users\tmj32\AppData\Local\Temp\ccnLJfS3.s 			page 63


 2604 01ea B3F92230 		ldrsh	r3, [r3, #34]
 2605 01ee 9BB2     		uxth	r3, r3
 2606 01f0 1344     		add	r3, r3, r2
 2607 01f2 9BB2     		uxth	r3, r3
 2608 01f4 1BB2     		sxth	r3, r3
 2609 01f6 FB84     		strh	r3, [r7, #38]	@ movhi
 2610              	.L161:
 651:..\..\..\lvgl\version_6.1.2\lvgl\src\lv_objx/lv_cont.c ****     }
 652:..\..\..\lvgl\version_6.1.2\lvgl\src\lv_objx/lv_cont.c **** 
 653:..\..\..\lvgl\version_6.1.2\lvgl\src\lv_objx/lv_cont.c ****     lv_area_t new_area;
 654:..\..\..\lvgl\version_6.1.2\lvgl\src\lv_objx/lv_cont.c ****     lv_area_copy(&new_area, &ori);
 2611              		.loc 3 654 0
 2612 01f8 07F11802 		add	r2, r7, #24
 2613 01fc 07F10803 		add	r3, r7, #8
 2614 0200 1146     		mov	r1, r2
 2615 0202 1846     		mov	r0, r3
 2616 0204 FFF7FEFF 		bl	lv_area_copy
 655:..\..\..\lvgl\version_6.1.2\lvgl\src\lv_objx/lv_cont.c **** 
 656:..\..\..\lvgl\version_6.1.2\lvgl\src\lv_objx/lv_cont.c ****     switch(ext->fit_left) {
 2617              		.loc 3 656 0
 2618 0208 BB6B     		ldr	r3, [r7, #56]
 2619 020a 1B78     		ldrb	r3, [r3]
 2620 020c C3F30113 		ubfx	r3, r3, #4, #2
 2621 0210 DBB2     		uxtb	r3, r3
 2622 0212 022B     		cmp	r3, #2
 2623 0214 08D0     		beq	.L167
 2624 0216 032B     		cmp	r3, #3
 2625 0218 0AD0     		beq	.L168
 2626 021a 012B     		cmp	r3, #1
 2627 021c 00D0     		beq	.L169
 657:..\..\..\lvgl\version_6.1.2\lvgl\src\lv_objx/lv_cont.c ****         case LV_FIT_TIGHT: new_area.x1 = tight_area.x1; break;
 658:..\..\..\lvgl\version_6.1.2\lvgl\src\lv_objx/lv_cont.c ****         case LV_FIT_FLOOD: new_area.x1 = flood_area.x1; break;
 659:..\..\..\lvgl\version_6.1.2\lvgl\src\lv_objx/lv_cont.c ****         case LV_FIT_FILL: new_area.x1 = has_children ? LV_MATH_MIN(tight_area.x1, flood_area.x1) : 
 660:..\..\..\lvgl\version_6.1.2\lvgl\src\lv_objx/lv_cont.c ****         default: break;
 2628              		.loc 3 660 0
 2629 021e 18E0     		b	.L170
 2630              	.L169:
 657:..\..\..\lvgl\version_6.1.2\lvgl\src\lv_objx/lv_cont.c ****         case LV_FIT_TIGHT: new_area.x1 = tight_area.x1; break;
 2631              		.loc 3 657 0
 2632 0220 B7F92030 		ldrsh	r3, [r7, #32]
 2633 0224 3B81     		strh	r3, [r7, #8]	@ movhi
 2634 0226 14E0     		b	.L170
 2635              	.L167:
 658:..\..\..\lvgl\version_6.1.2\lvgl\src\lv_objx/lv_cont.c ****         case LV_FIT_FILL: new_area.x1 = has_children ? LV_MATH_MIN(tight_area.x1, flood_area.x1) : 
 2636              		.loc 3 658 0
 2637 0228 B7F91030 		ldrsh	r3, [r7, #16]
 2638 022c 3B81     		strh	r3, [r7, #8]	@ movhi
 2639 022e 10E0     		b	.L170
 2640              	.L168:
 659:..\..\..\lvgl\version_6.1.2\lvgl\src\lv_objx/lv_cont.c ****         default: break;
 2641              		.loc 3 659 0
 2642 0230 97F82B30 		ldrb	r3, [r7, #43]	@ zero_extendqisi2
 2643 0234 002B     		cmp	r3, #0
 2644 0236 08D0     		beq	.L171
 659:..\..\..\lvgl\version_6.1.2\lvgl\src\lv_objx/lv_cont.c ****         default: break;
 2645              		.loc 3 659 0 is_stmt 0 discriminator 1
 2646 0238 B7F91020 		ldrsh	r2, [r7, #16]
ARM GAS  C:\Users\tmj32\AppData\Local\Temp\ccnLJfS3.s 			page 64


 2647 023c B7F92030 		ldrsh	r3, [r7, #32]
 2648 0240 9342     		cmp	r3, r2
 2649 0242 A8BF     		it	ge
 2650 0244 1346     		movge	r3, r2
 2651 0246 1BB2     		sxth	r3, r3
 2652 0248 01E0     		b	.L172
 2653              	.L171:
 659:..\..\..\lvgl\version_6.1.2\lvgl\src\lv_objx/lv_cont.c ****         default: break;
 2654              		.loc 3 659 0 discriminator 2
 2655 024a B7F91030 		ldrsh	r3, [r7, #16]
 2656              	.L172:
 659:..\..\..\lvgl\version_6.1.2\lvgl\src\lv_objx/lv_cont.c ****         default: break;
 2657              		.loc 3 659 0 discriminator 4
 2658 024e 3B81     		strh	r3, [r7, #8]	@ movhi
 2659 0250 00BF     		nop
 2660              	.L170:
 661:..\..\..\lvgl\version_6.1.2\lvgl\src\lv_objx/lv_cont.c ****     }
 662:..\..\..\lvgl\version_6.1.2\lvgl\src\lv_objx/lv_cont.c **** 
 663:..\..\..\lvgl\version_6.1.2\lvgl\src\lv_objx/lv_cont.c ****     switch(ext->fit_right) {
 2661              		.loc 3 663 0 is_stmt 1
 2662 0252 BB6B     		ldr	r3, [r7, #56]
 2663 0254 1B78     		ldrb	r3, [r3]
 2664 0256 C3F38113 		ubfx	r3, r3, #6, #2
 2665 025a DBB2     		uxtb	r3, r3
 2666 025c 022B     		cmp	r3, #2
 2667 025e 08D0     		beq	.L174
 2668 0260 032B     		cmp	r3, #3
 2669 0262 0AD0     		beq	.L175
 2670 0264 012B     		cmp	r3, #1
 2671 0266 00D0     		beq	.L176
 664:..\..\..\lvgl\version_6.1.2\lvgl\src\lv_objx/lv_cont.c ****         case LV_FIT_TIGHT: new_area.x2 = tight_area.x2; break;
 665:..\..\..\lvgl\version_6.1.2\lvgl\src\lv_objx/lv_cont.c ****         case LV_FIT_FLOOD: new_area.x2 = flood_area.x2; break;
 666:..\..\..\lvgl\version_6.1.2\lvgl\src\lv_objx/lv_cont.c ****         case LV_FIT_FILL: new_area.x2 = has_children ? LV_MATH_MAX(tight_area.x2, flood_area.x2) : 
 667:..\..\..\lvgl\version_6.1.2\lvgl\src\lv_objx/lv_cont.c ****         default: break;
 2672              		.loc 3 667 0
 2673 0268 18E0     		b	.L177
 2674              	.L176:
 664:..\..\..\lvgl\version_6.1.2\lvgl\src\lv_objx/lv_cont.c ****         case LV_FIT_TIGHT: new_area.x2 = tight_area.x2; break;
 2675              		.loc 3 664 0
 2676 026a B7F92430 		ldrsh	r3, [r7, #36]
 2677 026e BB81     		strh	r3, [r7, #12]	@ movhi
 2678 0270 14E0     		b	.L177
 2679              	.L174:
 665:..\..\..\lvgl\version_6.1.2\lvgl\src\lv_objx/lv_cont.c ****         case LV_FIT_FILL: new_area.x2 = has_children ? LV_MATH_MAX(tight_area.x2, flood_area.x2) : 
 2680              		.loc 3 665 0
 2681 0272 B7F91430 		ldrsh	r3, [r7, #20]
 2682 0276 BB81     		strh	r3, [r7, #12]	@ movhi
 2683 0278 10E0     		b	.L177
 2684              	.L175:
 666:..\..\..\lvgl\version_6.1.2\lvgl\src\lv_objx/lv_cont.c ****         default: break;
 2685              		.loc 3 666 0
 2686 027a 97F82B30 		ldrb	r3, [r7, #43]	@ zero_extendqisi2
 2687 027e 002B     		cmp	r3, #0
 2688 0280 08D0     		beq	.L178
 666:..\..\..\lvgl\version_6.1.2\lvgl\src\lv_objx/lv_cont.c ****         default: break;
 2689              		.loc 3 666 0 is_stmt 0 discriminator 1
 2690 0282 B7F91420 		ldrsh	r2, [r7, #20]
ARM GAS  C:\Users\tmj32\AppData\Local\Temp\ccnLJfS3.s 			page 65


 2691 0286 B7F92430 		ldrsh	r3, [r7, #36]
 2692 028a 9342     		cmp	r3, r2
 2693 028c B8BF     		it	lt
 2694 028e 1346     		movlt	r3, r2
 2695 0290 1BB2     		sxth	r3, r3
 2696 0292 01E0     		b	.L179
 2697              	.L178:
 666:..\..\..\lvgl\version_6.1.2\lvgl\src\lv_objx/lv_cont.c ****         default: break;
 2698              		.loc 3 666 0 discriminator 2
 2699 0294 B7F91430 		ldrsh	r3, [r7, #20]
 2700              	.L179:
 666:..\..\..\lvgl\version_6.1.2\lvgl\src\lv_objx/lv_cont.c ****         default: break;
 2701              		.loc 3 666 0 discriminator 4
 2702 0298 BB81     		strh	r3, [r7, #12]	@ movhi
 2703 029a 00BF     		nop
 2704              	.L177:
 668:..\..\..\lvgl\version_6.1.2\lvgl\src\lv_objx/lv_cont.c ****     }
 669:..\..\..\lvgl\version_6.1.2\lvgl\src\lv_objx/lv_cont.c **** 
 670:..\..\..\lvgl\version_6.1.2\lvgl\src\lv_objx/lv_cont.c ****     switch(ext->fit_top) {
 2705              		.loc 3 670 0 is_stmt 1
 2706 029c BB6B     		ldr	r3, [r7, #56]
 2707 029e 5B78     		ldrb	r3, [r3, #1]
 2708 02a0 C3F30103 		ubfx	r3, r3, #0, #2
 2709 02a4 DBB2     		uxtb	r3, r3
 2710 02a6 022B     		cmp	r3, #2
 2711 02a8 08D0     		beq	.L181
 2712 02aa 032B     		cmp	r3, #3
 2713 02ac 0AD0     		beq	.L182
 2714 02ae 012B     		cmp	r3, #1
 2715 02b0 00D0     		beq	.L183
 671:..\..\..\lvgl\version_6.1.2\lvgl\src\lv_objx/lv_cont.c ****         case LV_FIT_TIGHT: new_area.y1 = tight_area.y1; break;
 672:..\..\..\lvgl\version_6.1.2\lvgl\src\lv_objx/lv_cont.c ****         case LV_FIT_FLOOD: new_area.y1 = flood_area.y1; break;
 673:..\..\..\lvgl\version_6.1.2\lvgl\src\lv_objx/lv_cont.c ****         case LV_FIT_FILL: new_area.y1 = has_children ? LV_MATH_MIN(tight_area.y1, flood_area.y1) : 
 674:..\..\..\lvgl\version_6.1.2\lvgl\src\lv_objx/lv_cont.c ****         default: break;
 2716              		.loc 3 674 0
 2717 02b2 18E0     		b	.L184
 2718              	.L183:
 671:..\..\..\lvgl\version_6.1.2\lvgl\src\lv_objx/lv_cont.c ****         case LV_FIT_TIGHT: new_area.y1 = tight_area.y1; break;
 2719              		.loc 3 671 0
 2720 02b4 B7F92230 		ldrsh	r3, [r7, #34]
 2721 02b8 7B81     		strh	r3, [r7, #10]	@ movhi
 2722 02ba 14E0     		b	.L184
 2723              	.L181:
 672:..\..\..\lvgl\version_6.1.2\lvgl\src\lv_objx/lv_cont.c ****         case LV_FIT_FILL: new_area.y1 = has_children ? LV_MATH_MIN(tight_area.y1, flood_area.y1) : 
 2724              		.loc 3 672 0
 2725 02bc B7F91230 		ldrsh	r3, [r7, #18]
 2726 02c0 7B81     		strh	r3, [r7, #10]	@ movhi
 2727 02c2 10E0     		b	.L184
 2728              	.L182:
 673:..\..\..\lvgl\version_6.1.2\lvgl\src\lv_objx/lv_cont.c ****         default: break;
 2729              		.loc 3 673 0
 2730 02c4 97F82B30 		ldrb	r3, [r7, #43]	@ zero_extendqisi2
 2731 02c8 002B     		cmp	r3, #0
 2732 02ca 08D0     		beq	.L185
 673:..\..\..\lvgl\version_6.1.2\lvgl\src\lv_objx/lv_cont.c ****         default: break;
 2733              		.loc 3 673 0 is_stmt 0 discriminator 1
 2734 02cc B7F91220 		ldrsh	r2, [r7, #18]
ARM GAS  C:\Users\tmj32\AppData\Local\Temp\ccnLJfS3.s 			page 66


 2735 02d0 B7F92230 		ldrsh	r3, [r7, #34]
 2736 02d4 9342     		cmp	r3, r2
 2737 02d6 A8BF     		it	ge
 2738 02d8 1346     		movge	r3, r2
 2739 02da 1BB2     		sxth	r3, r3
 2740 02dc 01E0     		b	.L186
 2741              	.L185:
 673:..\..\..\lvgl\version_6.1.2\lvgl\src\lv_objx/lv_cont.c ****         default: break;
 2742              		.loc 3 673 0 discriminator 2
 2743 02de B7F91230 		ldrsh	r3, [r7, #18]
 2744              	.L186:
 673:..\..\..\lvgl\version_6.1.2\lvgl\src\lv_objx/lv_cont.c ****         default: break;
 2745              		.loc 3 673 0 discriminator 4
 2746 02e2 7B81     		strh	r3, [r7, #10]	@ movhi
 2747 02e4 00BF     		nop
 2748              	.L184:
 675:..\..\..\lvgl\version_6.1.2\lvgl\src\lv_objx/lv_cont.c ****     }
 676:..\..\..\lvgl\version_6.1.2\lvgl\src\lv_objx/lv_cont.c **** 
 677:..\..\..\lvgl\version_6.1.2\lvgl\src\lv_objx/lv_cont.c ****     switch(ext->fit_bottom) {
 2749              		.loc 3 677 0 is_stmt 1
 2750 02e6 BB6B     		ldr	r3, [r7, #56]
 2751 02e8 5B78     		ldrb	r3, [r3, #1]
 2752 02ea C3F38103 		ubfx	r3, r3, #2, #2
 2753 02ee DBB2     		uxtb	r3, r3
 2754 02f0 022B     		cmp	r3, #2
 2755 02f2 08D0     		beq	.L188
 2756 02f4 032B     		cmp	r3, #3
 2757 02f6 0AD0     		beq	.L189
 2758 02f8 012B     		cmp	r3, #1
 2759 02fa 00D0     		beq	.L190
 678:..\..\..\lvgl\version_6.1.2\lvgl\src\lv_objx/lv_cont.c ****         case LV_FIT_TIGHT: new_area.y2 = tight_area.y2; break;
 679:..\..\..\lvgl\version_6.1.2\lvgl\src\lv_objx/lv_cont.c ****         case LV_FIT_FLOOD: new_area.y2 = flood_area.y2; break;
 680:..\..\..\lvgl\version_6.1.2\lvgl\src\lv_objx/lv_cont.c ****         case LV_FIT_FILL: new_area.y2 = has_children ? LV_MATH_MAX(tight_area.y2, flood_area.y2) : 
 681:..\..\..\lvgl\version_6.1.2\lvgl\src\lv_objx/lv_cont.c ****         default: break;
 2760              		.loc 3 681 0
 2761 02fc 18E0     		b	.L191
 2762              	.L190:
 678:..\..\..\lvgl\version_6.1.2\lvgl\src\lv_objx/lv_cont.c ****         case LV_FIT_TIGHT: new_area.y2 = tight_area.y2; break;
 2763              		.loc 3 678 0
 2764 02fe B7F92630 		ldrsh	r3, [r7, #38]
 2765 0302 FB81     		strh	r3, [r7, #14]	@ movhi
 2766 0304 14E0     		b	.L191
 2767              	.L188:
 679:..\..\..\lvgl\version_6.1.2\lvgl\src\lv_objx/lv_cont.c ****         case LV_FIT_FILL: new_area.y2 = has_children ? LV_MATH_MAX(tight_area.y2, flood_area.y2) : 
 2768              		.loc 3 679 0
 2769 0306 B7F91630 		ldrsh	r3, [r7, #22]
 2770 030a FB81     		strh	r3, [r7, #14]	@ movhi
 2771 030c 10E0     		b	.L191
 2772              	.L189:
 680:..\..\..\lvgl\version_6.1.2\lvgl\src\lv_objx/lv_cont.c ****         default: break;
 2773              		.loc 3 680 0
 2774 030e 97F82B30 		ldrb	r3, [r7, #43]	@ zero_extendqisi2
 2775 0312 002B     		cmp	r3, #0
 2776 0314 08D0     		beq	.L192
 680:..\..\..\lvgl\version_6.1.2\lvgl\src\lv_objx/lv_cont.c ****         default: break;
 2777              		.loc 3 680 0 is_stmt 0 discriminator 1
 2778 0316 B7F91620 		ldrsh	r2, [r7, #22]
ARM GAS  C:\Users\tmj32\AppData\Local\Temp\ccnLJfS3.s 			page 67


 2779 031a B7F92630 		ldrsh	r3, [r7, #38]
 2780 031e 9342     		cmp	r3, r2
 2781 0320 B8BF     		it	lt
 2782 0322 1346     		movlt	r3, r2
 2783 0324 1BB2     		sxth	r3, r3
 2784 0326 01E0     		b	.L193
 2785              	.L192:
 680:..\..\..\lvgl\version_6.1.2\lvgl\src\lv_objx/lv_cont.c ****         default: break;
 2786              		.loc 3 680 0 discriminator 2
 2787 0328 B7F91630 		ldrsh	r3, [r7, #22]
 2788              	.L193:
 680:..\..\..\lvgl\version_6.1.2\lvgl\src\lv_objx/lv_cont.c ****         default: break;
 2789              		.loc 3 680 0 discriminator 4
 2790 032c FB81     		strh	r3, [r7, #14]	@ movhi
 2791 032e 00BF     		nop
 2792              	.L191:
 682:..\..\..\lvgl\version_6.1.2\lvgl\src\lv_objx/lv_cont.c ****     }
 683:..\..\..\lvgl\version_6.1.2\lvgl\src\lv_objx/lv_cont.c **** 
 684:..\..\..\lvgl\version_6.1.2\lvgl\src\lv_objx/lv_cont.c ****     /*Do nothing if the coordinates are not changed*/
 685:..\..\..\lvgl\version_6.1.2\lvgl\src\lv_objx/lv_cont.c ****     if(cont->coords.x1 != new_area.x1 || cont->coords.y1 != new_area.y1 || cont->coords.x2 != new_a
 2793              		.loc 3 685 0 is_stmt 1
 2794 0330 7B68     		ldr	r3, [r7, #4]
 2795 0332 B3F91020 		ldrsh	r2, [r3, #16]
 2796 0336 B7F90830 		ldrsh	r3, [r7, #8]
 2797 033a 9A42     		cmp	r2, r3
 2798 033c 14D1     		bne	.L194
 2799              		.loc 3 685 0 is_stmt 0 discriminator 1
 2800 033e 7B68     		ldr	r3, [r7, #4]
 2801 0340 B3F91220 		ldrsh	r2, [r3, #18]
 2802 0344 B7F90A30 		ldrsh	r3, [r7, #10]
 2803 0348 9A42     		cmp	r2, r3
 2804 034a 0DD1     		bne	.L194
 2805              		.loc 3 685 0 discriminator 2
 2806 034c 7B68     		ldr	r3, [r7, #4]
 2807 034e B3F91420 		ldrsh	r2, [r3, #20]
 2808 0352 B7F90C30 		ldrsh	r3, [r7, #12]
 2809 0356 9A42     		cmp	r2, r3
 2810 0358 06D1     		bne	.L194
 686:..\..\..\lvgl\version_6.1.2\lvgl\src\lv_objx/lv_cont.c ****        cont->coords.y2 != new_area.y2) {
 2811              		.loc 3 686 0 is_stmt 1 discriminator 3
 2812 035a 7B68     		ldr	r3, [r7, #4]
 2813 035c B3F91620 		ldrsh	r2, [r3, #22]
 2814 0360 B7F90E30 		ldrsh	r3, [r7, #14]
 685:..\..\..\lvgl\version_6.1.2\lvgl\src\lv_objx/lv_cont.c ****        cont->coords.y2 != new_area.y2) {
 2815              		.loc 3 685 0 discriminator 3
 2816 0364 9A42     		cmp	r2, r3
 2817 0366 3CD0     		beq	.L156
 2818              	.L194:
 687:..\..\..\lvgl\version_6.1.2\lvgl\src\lv_objx/lv_cont.c **** 
 688:..\..\..\lvgl\version_6.1.2\lvgl\src\lv_objx/lv_cont.c ****         lv_obj_invalidate(cont);
 2819              		.loc 3 688 0
 2820 0368 7868     		ldr	r0, [r7, #4]
 2821 036a FFF7FEFF 		bl	lv_obj_invalidate
 689:..\..\..\lvgl\version_6.1.2\lvgl\src\lv_objx/lv_cont.c ****         lv_area_copy(&cont->coords, &new_area);
 2822              		.loc 3 689 0
 2823 036e 7B68     		ldr	r3, [r7, #4]
 2824 0370 1033     		adds	r3, r3, #16
ARM GAS  C:\Users\tmj32\AppData\Local\Temp\ccnLJfS3.s 			page 68


 2825 0372 07F10802 		add	r2, r7, #8
 2826 0376 1146     		mov	r1, r2
 2827 0378 1846     		mov	r0, r3
 2828 037a FFF7FEFF 		bl	lv_area_copy
 690:..\..\..\lvgl\version_6.1.2\lvgl\src\lv_objx/lv_cont.c ****         lv_obj_invalidate(cont);
 2829              		.loc 3 690 0
 2830 037e 7868     		ldr	r0, [r7, #4]
 2831 0380 FFF7FEFF 		bl	lv_obj_invalidate
 691:..\..\..\lvgl\version_6.1.2\lvgl\src\lv_objx/lv_cont.c **** 
 692:..\..\..\lvgl\version_6.1.2\lvgl\src\lv_objx/lv_cont.c ****         /*Notify the object about its new coordinates*/
 693:..\..\..\lvgl\version_6.1.2\lvgl\src\lv_objx/lv_cont.c ****         cont->signal_cb(cont, LV_SIGNAL_CORD_CHG, &ori);
 2832              		.loc 3 693 0
 2833 0384 7B68     		ldr	r3, [r7, #4]
 2834 0386 DB69     		ldr	r3, [r3, #28]
 2835 0388 07F11802 		add	r2, r7, #24
 2836 038c 0221     		movs	r1, #2
 2837 038e 7868     		ldr	r0, [r7, #4]
 2838 0390 9847     		blx	r3
 694:..\..\..\lvgl\version_6.1.2\lvgl\src\lv_objx/lv_cont.c **** 
 695:..\..\..\lvgl\version_6.1.2\lvgl\src\lv_objx/lv_cont.c ****         /*Inform the parent about the new coordinates*/
 696:..\..\..\lvgl\version_6.1.2\lvgl\src\lv_objx/lv_cont.c ****         par->signal_cb(par, LV_SIGNAL_CHILD_CHG, cont);
 2839              		.loc 3 696 0
 2840 0392 3B6B     		ldr	r3, [r7, #48]
 2841 0394 DB69     		ldr	r3, [r3, #28]
 2842 0396 7A68     		ldr	r2, [r7, #4]
 2843 0398 0121     		movs	r1, #1
 2844 039a 386B     		ldr	r0, [r7, #48]
 2845 039c 9847     		blx	r3
 697:..\..\..\lvgl\version_6.1.2\lvgl\src\lv_objx/lv_cont.c **** 
 698:..\..\..\lvgl\version_6.1.2\lvgl\src\lv_objx/lv_cont.c ****         if(lv_obj_get_auto_realign(cont)) {
 2846              		.loc 3 698 0
 2847 039e 7868     		ldr	r0, [r7, #4]
 2848 03a0 FFF7FEFF 		bl	lv_obj_get_auto_realign
 2849 03a4 0346     		mov	r3, r0
 2850 03a6 002B     		cmp	r3, #0
 2851 03a8 02D0     		beq	.L196
 699:..\..\..\lvgl\version_6.1.2\lvgl\src\lv_objx/lv_cont.c ****             lv_obj_realign(cont);
 2852              		.loc 3 699 0
 2853 03aa 7868     		ldr	r0, [r7, #4]
 2854 03ac FFF7FEFF 		bl	lv_obj_realign
 2855              	.L196:
 700:..\..\..\lvgl\version_6.1.2\lvgl\src\lv_objx/lv_cont.c ****         }
 701:..\..\..\lvgl\version_6.1.2\lvgl\src\lv_objx/lv_cont.c **** 
 702:..\..\..\lvgl\version_6.1.2\lvgl\src\lv_objx/lv_cont.c ****         /*Tell the children the parent's size has changed*/
 703:..\..\..\lvgl\version_6.1.2\lvgl\src\lv_objx/lv_cont.c ****         LV_LL_READ(cont->child_ll, child_i)
 2856              		.loc 3 703 0
 2857 03b0 7B68     		ldr	r3, [r7, #4]
 2858 03b2 0433     		adds	r3, r3, #4
 2859 03b4 1846     		mov	r0, r3
 2860 03b6 FFF7FEFF 		bl	lv_ll_get_head
 2861 03ba F863     		str	r0, [r7, #60]
 2862 03bc 0CE0     		b	.L197
 2863              	.L198:
 704:..\..\..\lvgl\version_6.1.2\lvgl\src\lv_objx/lv_cont.c ****         {
 705:..\..\..\lvgl\version_6.1.2\lvgl\src\lv_objx/lv_cont.c ****             child_i->signal_cb(child_i, LV_SIGNAL_PARENT_SIZE_CHG, NULL);
 2864              		.loc 3 705 0 discriminator 3
 2865 03be FB6B     		ldr	r3, [r7, #60]
ARM GAS  C:\Users\tmj32\AppData\Local\Temp\ccnLJfS3.s 			page 69


 2866 03c0 DB69     		ldr	r3, [r3, #28]
 2867 03c2 0022     		movs	r2, #0
 2868 03c4 0321     		movs	r1, #3
 2869 03c6 F86B     		ldr	r0, [r7, #60]
 2870 03c8 9847     		blx	r3
 703:..\..\..\lvgl\version_6.1.2\lvgl\src\lv_objx/lv_cont.c ****         {
 2871              		.loc 3 703 0 discriminator 3
 2872 03ca 7B68     		ldr	r3, [r7, #4]
 2873 03cc 0433     		adds	r3, r3, #4
 2874 03ce F96B     		ldr	r1, [r7, #60]
 2875 03d0 1846     		mov	r0, r3
 2876 03d2 FFF7FEFF 		bl	lv_ll_get_next
 2877 03d6 F863     		str	r0, [r7, #60]
 2878              	.L197:
 703:..\..\..\lvgl\version_6.1.2\lvgl\src\lv_objx/lv_cont.c ****         {
 2879              		.loc 3 703 0 is_stmt 0 discriminator 1
 2880 03d8 FB6B     		ldr	r3, [r7, #60]
 2881 03da 002B     		cmp	r3, #0
 2882 03dc EFD1     		bne	.L198
 2883 03de 00E0     		b	.L156
 2884              	.L199:
 609:..\..\..\lvgl\version_6.1.2\lvgl\src\lv_objx/lv_cont.c ****     }
 2885              		.loc 3 609 0 is_stmt 1
 2886 03e0 00BF     		nop
 2887              	.L156:
 706:..\..\..\lvgl\version_6.1.2\lvgl\src\lv_objx/lv_cont.c ****         }
 707:..\..\..\lvgl\version_6.1.2\lvgl\src\lv_objx/lv_cont.c ****     }
 708:..\..\..\lvgl\version_6.1.2\lvgl\src\lv_objx/lv_cont.c **** }
 2888              		.loc 3 708 0
 2889 03e2 4037     		adds	r7, r7, #64
 2890              		.cfi_def_cfa_offset 8
 2891 03e4 BD46     		mov	sp, r7
 2892              		.cfi_def_cfa_register 13
 2893              		@ sp needed
 2894 03e6 80BD     		pop	{r7, pc}
 2895              		.cfi_endproc
 2896              	.LFE50:
 2897              		.size	lv_cont_refr_autofit, .-lv_cont_refr_autofit
 2898              		.text
 2899              	.Letext0:
 2900              		.file 4 "c:\\program files (x86)\\cypress\\psoc creator\\4.3\\psoc creator\\import\\gnu\\arm\\5.4.
 2901              		.file 5 "c:\\program files (x86)\\cypress\\psoc creator\\4.3\\psoc creator\\import\\gnu\\arm\\5.4.
 2902              		.file 6 "..\\..\\..\\lvgl\\version_6.1.2\\lvgl\\src\\lv_objx\\../../../lv_conf.h"
 2903              		.file 7 "..\\..\\..\\lvgl\\version_6.1.2\\lvgl\\src\\lv_objx\\../lv_core/../lv_font/lv_font.h"
 2904              		.file 8 "..\\..\\..\\lvgl\\version_6.1.2\\lvgl\\src\\lv_objx\\../lv_core/../lv_misc/lv_color.h"
 2905              		.file 9 "..\\..\\..\\lvgl\\version_6.1.2\\lvgl\\src\\lv_objx\\../lv_core/lv_style.h"
 2906              		.file 10 "..\\..\\..\\lvgl\\version_6.1.2\\lvgl\\src\\lv_objx\\../lv_core/../lv_misc/lv_types.h"
 2907              		.file 11 "..\\..\\..\\lvgl\\version_6.1.2\\lvgl\\src\\lv_objx\\../lv_core/../lv_misc/lv_ll.h"
 2908              		.file 12 "..\\..\\..\\lvgl\\version_6.1.2\\lvgl\\src\\lv_objx\\../lv_core/../lv_misc/lv_bidi.h"
 2909              		.file 13 "..\\..\\..\\lvgl\\version_6.1.2\\lvgl\\src\\lv_objx\\../lv_core/lv_obj.h"
 2910              		.file 14 "..\\..\\..\\lvgl\\version_6.1.2\\lvgl\\src\\lv_objx\\../lv_themes/lv_theme.h"