ARM GAS  C:\Users\tmj32\AppData\Local\Temp\cc11CUDk.s 			page 1


   1              		.syntax unified
   2              		.cpu cortex-m4
   3              		.eabi_attribute 27, 1
   4              		.fpu fpv4-sp-d16
   5              		.eabi_attribute 20, 1
   6              		.eabi_attribute 21, 1
   7              		.eabi_attribute 23, 3
   8              		.eabi_attribute 24, 1
   9              		.eabi_attribute 25, 1
  10              		.eabi_attribute 26, 1
  11              		.eabi_attribute 30, 6
  12              		.eabi_attribute 34, 1
  13              		.eabi_attribute 18, 4
  14              		.thumb
  15              		.syntax unified
  16              		.file	"lv_cpicker.c"
  17              		.text
  18              	.Ltext0:
  19              		.cfi_sections	.debug_frame
  20              		.section	.text.lv_color_to32,"ax",%progbits
  21              		.align	2
  22              		.thumb
  23              		.thumb_func
  24              		.type	lv_color_to32, %function
  25              	lv_color_to32:
  26              	.LFB4:
  27              		.file 1 "..\\..\\..\\lvgl\\version_6.1.2\\lvgl\\src\\lv_objx\\../lv_core/../lv_misc/lv_color.h"
   1:..\..\..\lvgl\version_6.1.2\lvgl\src\lv_objx\../lv_core/../lv_misc/lv_color.h **** /**
   2:..\..\..\lvgl\version_6.1.2\lvgl\src\lv_objx\../lv_core/../lv_misc/lv_color.h ****  * @file lv_color.h
   3:..\..\..\lvgl\version_6.1.2\lvgl\src\lv_objx\../lv_core/../lv_misc/lv_color.h ****  *
   4:..\..\..\lvgl\version_6.1.2\lvgl\src\lv_objx\../lv_core/../lv_misc/lv_color.h ****  */
   5:..\..\..\lvgl\version_6.1.2\lvgl\src\lv_objx\../lv_core/../lv_misc/lv_color.h **** 
   6:..\..\..\lvgl\version_6.1.2\lvgl\src\lv_objx\../lv_core/../lv_misc/lv_color.h **** #ifndef LV_COLOR_H
   7:..\..\..\lvgl\version_6.1.2\lvgl\src\lv_objx\../lv_core/../lv_misc/lv_color.h **** #define LV_COLOR_H
   8:..\..\..\lvgl\version_6.1.2\lvgl\src\lv_objx\../lv_core/../lv_misc/lv_color.h **** 
   9:..\..\..\lvgl\version_6.1.2\lvgl\src\lv_objx\../lv_core/../lv_misc/lv_color.h **** #ifdef __cplusplus
  10:..\..\..\lvgl\version_6.1.2\lvgl\src\lv_objx\../lv_core/../lv_misc/lv_color.h **** extern "C" {
  11:..\..\..\lvgl\version_6.1.2\lvgl\src\lv_objx\../lv_core/../lv_misc/lv_color.h **** #endif
  12:..\..\..\lvgl\version_6.1.2\lvgl\src\lv_objx\../lv_core/../lv_misc/lv_color.h **** 
  13:..\..\..\lvgl\version_6.1.2\lvgl\src\lv_objx\../lv_core/../lv_misc/lv_color.h **** /*********************
  14:..\..\..\lvgl\version_6.1.2\lvgl\src\lv_objx\../lv_core/../lv_misc/lv_color.h ****  *      INCLUDES
  15:..\..\..\lvgl\version_6.1.2\lvgl\src\lv_objx\../lv_core/../lv_misc/lv_color.h ****  *********************/
  16:..\..\..\lvgl\version_6.1.2\lvgl\src\lv_objx\../lv_core/../lv_misc/lv_color.h **** #ifdef LV_CONF_INCLUDE_SIMPLE
  17:..\..\..\lvgl\version_6.1.2\lvgl\src\lv_objx\../lv_core/../lv_misc/lv_color.h **** #include "lv_conf.h"
  18:..\..\..\lvgl\version_6.1.2\lvgl\src\lv_objx\../lv_core/../lv_misc/lv_color.h **** #else
  19:..\..\..\lvgl\version_6.1.2\lvgl\src\lv_objx\../lv_core/../lv_misc/lv_color.h **** #include "../../../lv_conf.h"
  20:..\..\..\lvgl\version_6.1.2\lvgl\src\lv_objx\../lv_core/../lv_misc/lv_color.h **** #endif
  21:..\..\..\lvgl\version_6.1.2\lvgl\src\lv_objx\../lv_core/../lv_misc/lv_color.h **** 
  22:..\..\..\lvgl\version_6.1.2\lvgl\src\lv_objx\../lv_core/../lv_misc/lv_color.h **** /*Error checking*/
  23:..\..\..\lvgl\version_6.1.2\lvgl\src\lv_objx\../lv_core/../lv_misc/lv_color.h **** #if LV_COLOR_DEPTH == 24
  24:..\..\..\lvgl\version_6.1.2\lvgl\src\lv_objx\../lv_core/../lv_misc/lv_color.h **** #error "LV_COLOR_DEPTH  24 is deprecated. Use LV_COLOR_DEPTH  32 instead (lv_conf.h)"
  25:..\..\..\lvgl\version_6.1.2\lvgl\src\lv_objx\../lv_core/../lv_misc/lv_color.h **** #endif
  26:..\..\..\lvgl\version_6.1.2\lvgl\src\lv_objx\../lv_core/../lv_misc/lv_color.h **** 
  27:..\..\..\lvgl\version_6.1.2\lvgl\src\lv_objx\../lv_core/../lv_misc/lv_color.h **** #if LV_COLOR_DEPTH != 32 && LV_COLOR_SCREEN_TRANSP != 0
  28:..\..\..\lvgl\version_6.1.2\lvgl\src\lv_objx\../lv_core/../lv_misc/lv_color.h **** #error "LV_COLOR_SCREEN_TRANSP requires LV_COLOR_DEPTH == 32. Set it in lv_conf.h"
  29:..\..\..\lvgl\version_6.1.2\lvgl\src\lv_objx\../lv_core/../lv_misc/lv_color.h **** #endif
  30:..\..\..\lvgl\version_6.1.2\lvgl\src\lv_objx\../lv_core/../lv_misc/lv_color.h **** 
ARM GAS  C:\Users\tmj32\AppData\Local\Temp\cc11CUDk.s 			page 2


  31:..\..\..\lvgl\version_6.1.2\lvgl\src\lv_objx\../lv_core/../lv_misc/lv_color.h **** #if LV_COLOR_DEPTH != 16 && LV_COLOR_16_SWAP != 0
  32:..\..\..\lvgl\version_6.1.2\lvgl\src\lv_objx\../lv_core/../lv_misc/lv_color.h **** #error "LV_COLOR_16_SWAP requires LV_COLOR_DEPTH == 16. Set it in lv_conf.h"
  33:..\..\..\lvgl\version_6.1.2\lvgl\src\lv_objx\../lv_core/../lv_misc/lv_color.h **** #endif
  34:..\..\..\lvgl\version_6.1.2\lvgl\src\lv_objx\../lv_core/../lv_misc/lv_color.h **** 
  35:..\..\..\lvgl\version_6.1.2\lvgl\src\lv_objx\../lv_core/../lv_misc/lv_color.h **** #include <stdint.h>
  36:..\..\..\lvgl\version_6.1.2\lvgl\src\lv_objx\../lv_core/../lv_misc/lv_color.h **** 
  37:..\..\..\lvgl\version_6.1.2\lvgl\src\lv_objx\../lv_core/../lv_misc/lv_color.h **** /*********************
  38:..\..\..\lvgl\version_6.1.2\lvgl\src\lv_objx\../lv_core/../lv_misc/lv_color.h ****  *      DEFINES
  39:..\..\..\lvgl\version_6.1.2\lvgl\src\lv_objx\../lv_core/../lv_misc/lv_color.h ****  *********************/
  40:..\..\..\lvgl\version_6.1.2\lvgl\src\lv_objx\../lv_core/../lv_misc/lv_color.h **** #define LV_COLOR_WHITE LV_COLOR_MAKE(0xFF, 0xFF, 0xFF)
  41:..\..\..\lvgl\version_6.1.2\lvgl\src\lv_objx\../lv_core/../lv_misc/lv_color.h **** #define LV_COLOR_SILVER LV_COLOR_MAKE(0xC0, 0xC0, 0xC0)
  42:..\..\..\lvgl\version_6.1.2\lvgl\src\lv_objx\../lv_core/../lv_misc/lv_color.h **** #define LV_COLOR_GRAY LV_COLOR_MAKE(0x80, 0x80, 0x80)
  43:..\..\..\lvgl\version_6.1.2\lvgl\src\lv_objx\../lv_core/../lv_misc/lv_color.h **** #define LV_COLOR_BLACK LV_COLOR_MAKE(0x00, 0x00, 0x00)
  44:..\..\..\lvgl\version_6.1.2\lvgl\src\lv_objx\../lv_core/../lv_misc/lv_color.h **** #define LV_COLOR_RED LV_COLOR_MAKE(0xFF, 0x00, 0x00)
  45:..\..\..\lvgl\version_6.1.2\lvgl\src\lv_objx\../lv_core/../lv_misc/lv_color.h **** #define LV_COLOR_MAROON LV_COLOR_MAKE(0x80, 0x00, 0x00)
  46:..\..\..\lvgl\version_6.1.2\lvgl\src\lv_objx\../lv_core/../lv_misc/lv_color.h **** #define LV_COLOR_YELLOW LV_COLOR_MAKE(0xFF, 0xFF, 0x00)
  47:..\..\..\lvgl\version_6.1.2\lvgl\src\lv_objx\../lv_core/../lv_misc/lv_color.h **** #define LV_COLOR_OLIVE LV_COLOR_MAKE(0x80, 0x80, 0x00)
  48:..\..\..\lvgl\version_6.1.2\lvgl\src\lv_objx\../lv_core/../lv_misc/lv_color.h **** #define LV_COLOR_LIME LV_COLOR_MAKE(0x00, 0xFF, 0x00)
  49:..\..\..\lvgl\version_6.1.2\lvgl\src\lv_objx\../lv_core/../lv_misc/lv_color.h **** #define LV_COLOR_GREEN LV_COLOR_MAKE(0x00, 0x80, 0x00)
  50:..\..\..\lvgl\version_6.1.2\lvgl\src\lv_objx\../lv_core/../lv_misc/lv_color.h **** #define LV_COLOR_CYAN LV_COLOR_MAKE(0x00, 0xFF, 0xFF)
  51:..\..\..\lvgl\version_6.1.2\lvgl\src\lv_objx\../lv_core/../lv_misc/lv_color.h **** #define LV_COLOR_AQUA LV_COLOR_CYAN
  52:..\..\..\lvgl\version_6.1.2\lvgl\src\lv_objx\../lv_core/../lv_misc/lv_color.h **** #define LV_COLOR_TEAL LV_COLOR_MAKE(0x00, 0x80, 0x80)
  53:..\..\..\lvgl\version_6.1.2\lvgl\src\lv_objx\../lv_core/../lv_misc/lv_color.h **** #define LV_COLOR_BLUE LV_COLOR_MAKE(0x00, 0x00, 0xFF)
  54:..\..\..\lvgl\version_6.1.2\lvgl\src\lv_objx\../lv_core/../lv_misc/lv_color.h **** #define LV_COLOR_NAVY LV_COLOR_MAKE(0x00, 0x00, 0x80)
  55:..\..\..\lvgl\version_6.1.2\lvgl\src\lv_objx\../lv_core/../lv_misc/lv_color.h **** #define LV_COLOR_MAGENTA LV_COLOR_MAKE(0xFF, 0x00, 0xFF)
  56:..\..\..\lvgl\version_6.1.2\lvgl\src\lv_objx\../lv_core/../lv_misc/lv_color.h **** #define LV_COLOR_PURPLE LV_COLOR_MAKE(0x80, 0x00, 0x80)
  57:..\..\..\lvgl\version_6.1.2\lvgl\src\lv_objx\../lv_core/../lv_misc/lv_color.h **** #define LV_COLOR_ORANGE LV_COLOR_MAKE(0xFF, 0xA5, 0x00)
  58:..\..\..\lvgl\version_6.1.2\lvgl\src\lv_objx\../lv_core/../lv_misc/lv_color.h **** 
  59:..\..\..\lvgl\version_6.1.2\lvgl\src\lv_objx\../lv_core/../lv_misc/lv_color.h **** /**
  60:..\..\..\lvgl\version_6.1.2\lvgl\src\lv_objx\../lv_core/../lv_misc/lv_color.h ****  * Opacity percentages.
  61:..\..\..\lvgl\version_6.1.2\lvgl\src\lv_objx\../lv_core/../lv_misc/lv_color.h ****  */
  62:..\..\..\lvgl\version_6.1.2\lvgl\src\lv_objx\../lv_core/../lv_misc/lv_color.h **** enum {
  63:..\..\..\lvgl\version_6.1.2\lvgl\src\lv_objx\../lv_core/../lv_misc/lv_color.h ****     LV_OPA_TRANSP = 0,
  64:..\..\..\lvgl\version_6.1.2\lvgl\src\lv_objx\../lv_core/../lv_misc/lv_color.h ****     LV_OPA_0      = 0,
  65:..\..\..\lvgl\version_6.1.2\lvgl\src\lv_objx\../lv_core/../lv_misc/lv_color.h ****     LV_OPA_10     = 25,
  66:..\..\..\lvgl\version_6.1.2\lvgl\src\lv_objx\../lv_core/../lv_misc/lv_color.h ****     LV_OPA_20     = 51,
  67:..\..\..\lvgl\version_6.1.2\lvgl\src\lv_objx\../lv_core/../lv_misc/lv_color.h ****     LV_OPA_30     = 76,
  68:..\..\..\lvgl\version_6.1.2\lvgl\src\lv_objx\../lv_core/../lv_misc/lv_color.h ****     LV_OPA_40     = 102,
  69:..\..\..\lvgl\version_6.1.2\lvgl\src\lv_objx\../lv_core/../lv_misc/lv_color.h ****     LV_OPA_50     = 127,
  70:..\..\..\lvgl\version_6.1.2\lvgl\src\lv_objx\../lv_core/../lv_misc/lv_color.h ****     LV_OPA_60     = 153,
  71:..\..\..\lvgl\version_6.1.2\lvgl\src\lv_objx\../lv_core/../lv_misc/lv_color.h ****     LV_OPA_70     = 178,
  72:..\..\..\lvgl\version_6.1.2\lvgl\src\lv_objx\../lv_core/../lv_misc/lv_color.h ****     LV_OPA_80     = 204,
  73:..\..\..\lvgl\version_6.1.2\lvgl\src\lv_objx\../lv_core/../lv_misc/lv_color.h ****     LV_OPA_90     = 229,
  74:..\..\..\lvgl\version_6.1.2\lvgl\src\lv_objx\../lv_core/../lv_misc/lv_color.h ****     LV_OPA_100    = 255,
  75:..\..\..\lvgl\version_6.1.2\lvgl\src\lv_objx\../lv_core/../lv_misc/lv_color.h ****     LV_OPA_COVER  = 255,
  76:..\..\..\lvgl\version_6.1.2\lvgl\src\lv_objx\../lv_core/../lv_misc/lv_color.h **** };
  77:..\..\..\lvgl\version_6.1.2\lvgl\src\lv_objx\../lv_core/../lv_misc/lv_color.h **** 
  78:..\..\..\lvgl\version_6.1.2\lvgl\src\lv_objx\../lv_core/../lv_misc/lv_color.h **** #define LV_OPA_MIN 16  /*Opacities below this will be transparent*/
  79:..\..\..\lvgl\version_6.1.2\lvgl\src\lv_objx\../lv_core/../lv_misc/lv_color.h **** #define LV_OPA_MAX 251 /*Opacities above this will fully cover*/
  80:..\..\..\lvgl\version_6.1.2\lvgl\src\lv_objx\../lv_core/../lv_misc/lv_color.h **** 
  81:..\..\..\lvgl\version_6.1.2\lvgl\src\lv_objx\../lv_core/../lv_misc/lv_color.h **** #if LV_COLOR_DEPTH == 1
  82:..\..\..\lvgl\version_6.1.2\lvgl\src\lv_objx\../lv_core/../lv_misc/lv_color.h **** #define LV_COLOR_SIZE 8
  83:..\..\..\lvgl\version_6.1.2\lvgl\src\lv_objx\../lv_core/../lv_misc/lv_color.h **** #elif LV_COLOR_DEPTH == 8
  84:..\..\..\lvgl\version_6.1.2\lvgl\src\lv_objx\../lv_core/../lv_misc/lv_color.h **** #define LV_COLOR_SIZE 8
  85:..\..\..\lvgl\version_6.1.2\lvgl\src\lv_objx\../lv_core/../lv_misc/lv_color.h **** #elif LV_COLOR_DEPTH == 16
  86:..\..\..\lvgl\version_6.1.2\lvgl\src\lv_objx\../lv_core/../lv_misc/lv_color.h **** #define LV_COLOR_SIZE 16
  87:..\..\..\lvgl\version_6.1.2\lvgl\src\lv_objx\../lv_core/../lv_misc/lv_color.h **** #elif LV_COLOR_DEPTH == 32
ARM GAS  C:\Users\tmj32\AppData\Local\Temp\cc11CUDk.s 			page 3


  88:..\..\..\lvgl\version_6.1.2\lvgl\src\lv_objx\../lv_core/../lv_misc/lv_color.h **** #define LV_COLOR_SIZE 32
  89:..\..\..\lvgl\version_6.1.2\lvgl\src\lv_objx\../lv_core/../lv_misc/lv_color.h **** #else
  90:..\..\..\lvgl\version_6.1.2\lvgl\src\lv_objx\../lv_core/../lv_misc/lv_color.h **** #error "Invalid LV_COLOR_DEPTH in lv_conf.h! Set it to 1, 8, 16 or 32!"
  91:..\..\..\lvgl\version_6.1.2\lvgl\src\lv_objx\../lv_core/../lv_misc/lv_color.h **** #endif
  92:..\..\..\lvgl\version_6.1.2\lvgl\src\lv_objx\../lv_core/../lv_misc/lv_color.h **** 
  93:..\..\..\lvgl\version_6.1.2\lvgl\src\lv_objx\../lv_core/../lv_misc/lv_color.h **** /*---------------------------------------
  94:..\..\..\lvgl\version_6.1.2\lvgl\src\lv_objx\../lv_core/../lv_misc/lv_color.h ****  * Macros for all existing  color depths
  95:..\..\..\lvgl\version_6.1.2\lvgl\src\lv_objx\../lv_core/../lv_misc/lv_color.h ****  * to set/get values of the color channels
  96:..\..\..\lvgl\version_6.1.2\lvgl\src\lv_objx\../lv_core/../lv_misc/lv_color.h ****  *------------------------------------------*/
  97:..\..\..\lvgl\version_6.1.2\lvgl\src\lv_objx\../lv_core/../lv_misc/lv_color.h **** # define LV_COLOR_SET_R1(c, v) (c).ch.red = (uint8_t)((v) & 0x1);
  98:..\..\..\lvgl\version_6.1.2\lvgl\src\lv_objx\../lv_core/../lv_misc/lv_color.h **** # define LV_COLOR_SET_G1(c, v) (c).ch.green = (uint8_t)((v) & 0x1);
  99:..\..\..\lvgl\version_6.1.2\lvgl\src\lv_objx\../lv_core/../lv_misc/lv_color.h **** # define LV_COLOR_SET_B1(c, v) (c).ch.blue = (uint8_t)((v) & 0x1);
 100:..\..\..\lvgl\version_6.1.2\lvgl\src\lv_objx\../lv_core/../lv_misc/lv_color.h **** # define LV_COLOR_SET_A1(c, v)
 101:..\..\..\lvgl\version_6.1.2\lvgl\src\lv_objx\../lv_core/../lv_misc/lv_color.h **** 
 102:..\..\..\lvgl\version_6.1.2\lvgl\src\lv_objx\../lv_core/../lv_misc/lv_color.h **** # define LV_COLOR_GET_R1(c) (c).ch.red
 103:..\..\..\lvgl\version_6.1.2\lvgl\src\lv_objx\../lv_core/../lv_misc/lv_color.h **** # define LV_COLOR_GET_G1(c) (c).ch.green
 104:..\..\..\lvgl\version_6.1.2\lvgl\src\lv_objx\../lv_core/../lv_misc/lv_color.h **** # define LV_COLOR_GET_B1(c) (c).ch.blue
 105:..\..\..\lvgl\version_6.1.2\lvgl\src\lv_objx\../lv_core/../lv_misc/lv_color.h **** # define LV_COLOR_GET_A1(c) 1
 106:..\..\..\lvgl\version_6.1.2\lvgl\src\lv_objx\../lv_core/../lv_misc/lv_color.h **** 
 107:..\..\..\lvgl\version_6.1.2\lvgl\src\lv_objx\../lv_core/../lv_misc/lv_color.h **** # define LV_COLOR_SET_R8(c, v) (c).ch.red = (uint8_t)(v) & 0x7U;
 108:..\..\..\lvgl\version_6.1.2\lvgl\src\lv_objx\../lv_core/../lv_misc/lv_color.h **** # define LV_COLOR_SET_G8(c, v) (c).ch.green = (uint8_t)(v) & 0x7U;
 109:..\..\..\lvgl\version_6.1.2\lvgl\src\lv_objx\../lv_core/../lv_misc/lv_color.h **** # define LV_COLOR_SET_B8(c, v) (c).ch.blue = (uint8_t)(v) & 0x3U;
 110:..\..\..\lvgl\version_6.1.2\lvgl\src\lv_objx\../lv_core/../lv_misc/lv_color.h **** # define LV_COLOR_SET_A8(c, v) do {} while(0)
 111:..\..\..\lvgl\version_6.1.2\lvgl\src\lv_objx\../lv_core/../lv_misc/lv_color.h **** 
 112:..\..\..\lvgl\version_6.1.2\lvgl\src\lv_objx\../lv_core/../lv_misc/lv_color.h **** # define LV_COLOR_GET_R8(c) (c).ch.red
 113:..\..\..\lvgl\version_6.1.2\lvgl\src\lv_objx\../lv_core/../lv_misc/lv_color.h **** # define LV_COLOR_GET_G8(c) (c).ch.green
 114:..\..\..\lvgl\version_6.1.2\lvgl\src\lv_objx\../lv_core/../lv_misc/lv_color.h **** # define LV_COLOR_GET_B8(c) (c).ch.blue
 115:..\..\..\lvgl\version_6.1.2\lvgl\src\lv_objx\../lv_core/../lv_misc/lv_color.h **** # define LV_COLOR_GET_A8(c) 0xFF
 116:..\..\..\lvgl\version_6.1.2\lvgl\src\lv_objx\../lv_core/../lv_misc/lv_color.h **** 
 117:..\..\..\lvgl\version_6.1.2\lvgl\src\lv_objx\../lv_core/../lv_misc/lv_color.h **** # define LV_COLOR_SET_R16(c, v) (c).ch.red = (uint8_t)(v) & 0x1FU;
 118:..\..\..\lvgl\version_6.1.2\lvgl\src\lv_objx\../lv_core/../lv_misc/lv_color.h **** # define LV_COLOR_SET_G16(c, v) (c).ch.green = (uint8_t)(v) & 0x3FU;
 119:..\..\..\lvgl\version_6.1.2\lvgl\src\lv_objx\../lv_core/../lv_misc/lv_color.h **** # define LV_COLOR_SET_G16_SWAP(c, v) {(c).ch.green_h = (uint8_t)(((v) >> 3) & 0x7); (c).ch.green_l 
 120:..\..\..\lvgl\version_6.1.2\lvgl\src\lv_objx\../lv_core/../lv_misc/lv_color.h **** # define LV_COLOR_SET_B16(c, v) (c).ch.blue = (uint8_t)(v) & 0x1FU;
 121:..\..\..\lvgl\version_6.1.2\lvgl\src\lv_objx\../lv_core/../lv_misc/lv_color.h **** # define LV_COLOR_SET_A16(c, v) do {} while(0)
 122:..\..\..\lvgl\version_6.1.2\lvgl\src\lv_objx\../lv_core/../lv_misc/lv_color.h **** 
 123:..\..\..\lvgl\version_6.1.2\lvgl\src\lv_objx\../lv_core/../lv_misc/lv_color.h **** # define LV_COLOR_GET_R16(c) (c).ch.red
 124:..\..\..\lvgl\version_6.1.2\lvgl\src\lv_objx\../lv_core/../lv_misc/lv_color.h **** # define LV_COLOR_GET_G16(c) (c).ch.green
 125:..\..\..\lvgl\version_6.1.2\lvgl\src\lv_objx\../lv_core/../lv_misc/lv_color.h **** # define LV_COLOR_GET_G16_SWAP(c) (((c).ch.green_h << 3) + (c).ch.green_l)
 126:..\..\..\lvgl\version_6.1.2\lvgl\src\lv_objx\../lv_core/../lv_misc/lv_color.h **** # define LV_COLOR_GET_B16(c) (c).ch.blue
 127:..\..\..\lvgl\version_6.1.2\lvgl\src\lv_objx\../lv_core/../lv_misc/lv_color.h **** # define LV_COLOR_GET_A16(c) 0xFF
 128:..\..\..\lvgl\version_6.1.2\lvgl\src\lv_objx\../lv_core/../lv_misc/lv_color.h **** 
 129:..\..\..\lvgl\version_6.1.2\lvgl\src\lv_objx\../lv_core/../lv_misc/lv_color.h **** # define LV_COLOR_SET_R32(c, v) (c).ch.red = (uint32_t)((v) & 0xFF);
 130:..\..\..\lvgl\version_6.1.2\lvgl\src\lv_objx\../lv_core/../lv_misc/lv_color.h **** # define LV_COLOR_SET_G32(c, v) (c).ch.green = (uint32_t)((v) & 0xFF);
 131:..\..\..\lvgl\version_6.1.2\lvgl\src\lv_objx\../lv_core/../lv_misc/lv_color.h **** # define LV_COLOR_SET_B32(c, v) (c).ch.blue = (uint32_t)((v) & 0xFF);
 132:..\..\..\lvgl\version_6.1.2\lvgl\src\lv_objx\../lv_core/../lv_misc/lv_color.h **** # define LV_COLOR_SET_A32(c, v) (c).ch.alpha = (uint32_t)((v) & 0xFF);
 133:..\..\..\lvgl\version_6.1.2\lvgl\src\lv_objx\../lv_core/../lv_misc/lv_color.h **** 
 134:..\..\..\lvgl\version_6.1.2\lvgl\src\lv_objx\../lv_core/../lv_misc/lv_color.h **** # define LV_COLOR_GET_R32(c) (c).ch.red
 135:..\..\..\lvgl\version_6.1.2\lvgl\src\lv_objx\../lv_core/../lv_misc/lv_color.h **** # define LV_COLOR_GET_G32(c) (c).ch.green
 136:..\..\..\lvgl\version_6.1.2\lvgl\src\lv_objx\../lv_core/../lv_misc/lv_color.h **** # define LV_COLOR_GET_B32(c) (c).ch.blue
 137:..\..\..\lvgl\version_6.1.2\lvgl\src\lv_objx\../lv_core/../lv_misc/lv_color.h **** # define LV_COLOR_GET_A32(c) (c).ch.alpha
 138:..\..\..\lvgl\version_6.1.2\lvgl\src\lv_objx\../lv_core/../lv_misc/lv_color.h **** 
 139:..\..\..\lvgl\version_6.1.2\lvgl\src\lv_objx\../lv_core/../lv_misc/lv_color.h **** 
 140:..\..\..\lvgl\version_6.1.2\lvgl\src\lv_objx\../lv_core/../lv_misc/lv_color.h **** /*---------------------------------------
 141:..\..\..\lvgl\version_6.1.2\lvgl\src\lv_objx\../lv_core/../lv_misc/lv_color.h ****  * Macros for the current color depth
 142:..\..\..\lvgl\version_6.1.2\lvgl\src\lv_objx\../lv_core/../lv_misc/lv_color.h ****  * to set/get values of the color channels
 143:..\..\..\lvgl\version_6.1.2\lvgl\src\lv_objx\../lv_core/../lv_misc/lv_color.h ****  *------------------------------------------*/
 144:..\..\..\lvgl\version_6.1.2\lvgl\src\lv_objx\../lv_core/../lv_misc/lv_color.h **** #if LV_COLOR_DEPTH == 1
ARM GAS  C:\Users\tmj32\AppData\Local\Temp\cc11CUDk.s 			page 4


 145:..\..\..\lvgl\version_6.1.2\lvgl\src\lv_objx\../lv_core/../lv_misc/lv_color.h **** # define LV_COLOR_SET_R(c, v) LV_COLOR_SET_R1(c,v)
 146:..\..\..\lvgl\version_6.1.2\lvgl\src\lv_objx\../lv_core/../lv_misc/lv_color.h **** # define LV_COLOR_SET_G(c, v) LV_COLOR_SET_G1(c,v)
 147:..\..\..\lvgl\version_6.1.2\lvgl\src\lv_objx\../lv_core/../lv_misc/lv_color.h **** # define LV_COLOR_SET_B(c, v) LV_COLOR_SET_B1(c,v)
 148:..\..\..\lvgl\version_6.1.2\lvgl\src\lv_objx\../lv_core/../lv_misc/lv_color.h **** # define LV_COLOR_SET_A(c, v) LV_COLOR_SET_A1(c,v)
 149:..\..\..\lvgl\version_6.1.2\lvgl\src\lv_objx\../lv_core/../lv_misc/lv_color.h **** 
 150:..\..\..\lvgl\version_6.1.2\lvgl\src\lv_objx\../lv_core/../lv_misc/lv_color.h **** # define LV_COLOR_GET_R(c) LV_COLOR_GET_R1(c)
 151:..\..\..\lvgl\version_6.1.2\lvgl\src\lv_objx\../lv_core/../lv_misc/lv_color.h **** # define LV_COLOR_GET_G(c) LV_COLOR_GET_G1(c)
 152:..\..\..\lvgl\version_6.1.2\lvgl\src\lv_objx\../lv_core/../lv_misc/lv_color.h **** # define LV_COLOR_GET_B(c) LV_COLOR_GET_B1(c)
 153:..\..\..\lvgl\version_6.1.2\lvgl\src\lv_objx\../lv_core/../lv_misc/lv_color.h **** # define LV_COLOR_GET_A(c) LV_COLOR_GET_A1(c)
 154:..\..\..\lvgl\version_6.1.2\lvgl\src\lv_objx\../lv_core/../lv_misc/lv_color.h **** 
 155:..\..\..\lvgl\version_6.1.2\lvgl\src\lv_objx\../lv_core/../lv_misc/lv_color.h **** #elif LV_COLOR_DEPTH == 8
 156:..\..\..\lvgl\version_6.1.2\lvgl\src\lv_objx\../lv_core/../lv_misc/lv_color.h **** # define LV_COLOR_SET_R(c, v) LV_COLOR_SET_R8(c,v)
 157:..\..\..\lvgl\version_6.1.2\lvgl\src\lv_objx\../lv_core/../lv_misc/lv_color.h **** # define LV_COLOR_SET_G(c, v) LV_COLOR_SET_G8(c,v)
 158:..\..\..\lvgl\version_6.1.2\lvgl\src\lv_objx\../lv_core/../lv_misc/lv_color.h **** # define LV_COLOR_SET_B(c, v) LV_COLOR_SET_B8(c,v)
 159:..\..\..\lvgl\version_6.1.2\lvgl\src\lv_objx\../lv_core/../lv_misc/lv_color.h **** # define LV_COLOR_SET_A(c, v) LV_COLOR_SET_A8(c,v)
 160:..\..\..\lvgl\version_6.1.2\lvgl\src\lv_objx\../lv_core/../lv_misc/lv_color.h **** 
 161:..\..\..\lvgl\version_6.1.2\lvgl\src\lv_objx\../lv_core/../lv_misc/lv_color.h **** # define LV_COLOR_GET_R(c) LV_COLOR_GET_R8(c)
 162:..\..\..\lvgl\version_6.1.2\lvgl\src\lv_objx\../lv_core/../lv_misc/lv_color.h **** # define LV_COLOR_GET_G(c) LV_COLOR_GET_G8(c)
 163:..\..\..\lvgl\version_6.1.2\lvgl\src\lv_objx\../lv_core/../lv_misc/lv_color.h **** # define LV_COLOR_GET_B(c) LV_COLOR_GET_B8(c)
 164:..\..\..\lvgl\version_6.1.2\lvgl\src\lv_objx\../lv_core/../lv_misc/lv_color.h **** # define LV_COLOR_GET_A(c) LV_COLOR_GET_A8(c)
 165:..\..\..\lvgl\version_6.1.2\lvgl\src\lv_objx\../lv_core/../lv_misc/lv_color.h **** 
 166:..\..\..\lvgl\version_6.1.2\lvgl\src\lv_objx\../lv_core/../lv_misc/lv_color.h **** #elif LV_COLOR_DEPTH == 16
 167:..\..\..\lvgl\version_6.1.2\lvgl\src\lv_objx\../lv_core/../lv_misc/lv_color.h **** # define LV_COLOR_SET_R(c, v) LV_COLOR_SET_R16(c,v)
 168:..\..\..\lvgl\version_6.1.2\lvgl\src\lv_objx\../lv_core/../lv_misc/lv_color.h **** # if LV_COLOR_16_SWAP == 0
 169:..\..\..\lvgl\version_6.1.2\lvgl\src\lv_objx\../lv_core/../lv_misc/lv_color.h **** #   define LV_COLOR_SET_G(c, v) LV_COLOR_SET_G16(c,v)
 170:..\..\..\lvgl\version_6.1.2\lvgl\src\lv_objx\../lv_core/../lv_misc/lv_color.h **** # else
 171:..\..\..\lvgl\version_6.1.2\lvgl\src\lv_objx\../lv_core/../lv_misc/lv_color.h **** #   define LV_COLOR_SET_G(c, v) LV_COLOR_SET_G16_SWAP(c,v)
 172:..\..\..\lvgl\version_6.1.2\lvgl\src\lv_objx\../lv_core/../lv_misc/lv_color.h **** # endif
 173:..\..\..\lvgl\version_6.1.2\lvgl\src\lv_objx\../lv_core/../lv_misc/lv_color.h **** # define LV_COLOR_SET_B(c, v) LV_COLOR_SET_B16(c,v)
 174:..\..\..\lvgl\version_6.1.2\lvgl\src\lv_objx\../lv_core/../lv_misc/lv_color.h **** # define LV_COLOR_SET_A(c, v) LV_COLOR_SET_A16(c,v)
 175:..\..\..\lvgl\version_6.1.2\lvgl\src\lv_objx\../lv_core/../lv_misc/lv_color.h **** 
 176:..\..\..\lvgl\version_6.1.2\lvgl\src\lv_objx\../lv_core/../lv_misc/lv_color.h **** # define LV_COLOR_GET_R(c) LV_COLOR_GET_R16(c)
 177:..\..\..\lvgl\version_6.1.2\lvgl\src\lv_objx\../lv_core/../lv_misc/lv_color.h **** # if LV_COLOR_16_SWAP == 0
 178:..\..\..\lvgl\version_6.1.2\lvgl\src\lv_objx\../lv_core/../lv_misc/lv_color.h **** #   define LV_COLOR_GET_G(c) LV_COLOR_GET_G16(c)
 179:..\..\..\lvgl\version_6.1.2\lvgl\src\lv_objx\../lv_core/../lv_misc/lv_color.h **** # else
 180:..\..\..\lvgl\version_6.1.2\lvgl\src\lv_objx\../lv_core/../lv_misc/lv_color.h **** #   define LV_COLOR_GET_G(c) LV_COLOR_GET_G16_SWAP(c)
 181:..\..\..\lvgl\version_6.1.2\lvgl\src\lv_objx\../lv_core/../lv_misc/lv_color.h **** # endif
 182:..\..\..\lvgl\version_6.1.2\lvgl\src\lv_objx\../lv_core/../lv_misc/lv_color.h **** # define LV_COLOR_GET_B(c)   LV_COLOR_GET_B16(c)
 183:..\..\..\lvgl\version_6.1.2\lvgl\src\lv_objx\../lv_core/../lv_misc/lv_color.h **** # define LV_COLOR_GET_A(c)   LV_COLOR_GET_A16(c)
 184:..\..\..\lvgl\version_6.1.2\lvgl\src\lv_objx\../lv_core/../lv_misc/lv_color.h **** 
 185:..\..\..\lvgl\version_6.1.2\lvgl\src\lv_objx\../lv_core/../lv_misc/lv_color.h **** #elif LV_COLOR_DEPTH == 32
 186:..\..\..\lvgl\version_6.1.2\lvgl\src\lv_objx\../lv_core/../lv_misc/lv_color.h **** # define LV_COLOR_SET_R(c, v) LV_COLOR_SET_R32(c,v)
 187:..\..\..\lvgl\version_6.1.2\lvgl\src\lv_objx\../lv_core/../lv_misc/lv_color.h **** # define LV_COLOR_SET_G(c, v) LV_COLOR_SET_G32(c,v)
 188:..\..\..\lvgl\version_6.1.2\lvgl\src\lv_objx\../lv_core/../lv_misc/lv_color.h **** # define LV_COLOR_SET_B(c, v) LV_COLOR_SET_B32(c,v)
 189:..\..\..\lvgl\version_6.1.2\lvgl\src\lv_objx\../lv_core/../lv_misc/lv_color.h **** # define LV_COLOR_SET_A(c, v) LV_COLOR_SET_A32(c,v)
 190:..\..\..\lvgl\version_6.1.2\lvgl\src\lv_objx\../lv_core/../lv_misc/lv_color.h **** 
 191:..\..\..\lvgl\version_6.1.2\lvgl\src\lv_objx\../lv_core/../lv_misc/lv_color.h **** # define LV_COLOR_GET_R(c) LV_COLOR_GET_R32(c)
 192:..\..\..\lvgl\version_6.1.2\lvgl\src\lv_objx\../lv_core/../lv_misc/lv_color.h **** # define LV_COLOR_GET_G(c) LV_COLOR_GET_G32(c)
 193:..\..\..\lvgl\version_6.1.2\lvgl\src\lv_objx\../lv_core/../lv_misc/lv_color.h **** # define LV_COLOR_GET_B(c) LV_COLOR_GET_B32(c)
 194:..\..\..\lvgl\version_6.1.2\lvgl\src\lv_objx\../lv_core/../lv_misc/lv_color.h **** # define LV_COLOR_GET_A(c) LV_COLOR_GET_A32(c)
 195:..\..\..\lvgl\version_6.1.2\lvgl\src\lv_objx\../lv_core/../lv_misc/lv_color.h **** #endif
 196:..\..\..\lvgl\version_6.1.2\lvgl\src\lv_objx\../lv_core/../lv_misc/lv_color.h **** 
 197:..\..\..\lvgl\version_6.1.2\lvgl\src\lv_objx\../lv_core/../lv_misc/lv_color.h **** /**********************
 198:..\..\..\lvgl\version_6.1.2\lvgl\src\lv_objx\../lv_core/../lv_misc/lv_color.h ****  *      TYPEDEFS
 199:..\..\..\lvgl\version_6.1.2\lvgl\src\lv_objx\../lv_core/../lv_misc/lv_color.h ****  **********************/
 200:..\..\..\lvgl\version_6.1.2\lvgl\src\lv_objx\../lv_core/../lv_misc/lv_color.h **** 
 201:..\..\..\lvgl\version_6.1.2\lvgl\src\lv_objx\../lv_core/../lv_misc/lv_color.h **** typedef union
ARM GAS  C:\Users\tmj32\AppData\Local\Temp\cc11CUDk.s 			page 5


 202:..\..\..\lvgl\version_6.1.2\lvgl\src\lv_objx\../lv_core/../lv_misc/lv_color.h **** {
 203:..\..\..\lvgl\version_6.1.2\lvgl\src\lv_objx\../lv_core/../lv_misc/lv_color.h ****     struct
 204:..\..\..\lvgl\version_6.1.2\lvgl\src\lv_objx\../lv_core/../lv_misc/lv_color.h ****     {
 205:..\..\..\lvgl\version_6.1.2\lvgl\src\lv_objx\../lv_core/../lv_misc/lv_color.h ****         uint8_t blue : 1;
 206:..\..\..\lvgl\version_6.1.2\lvgl\src\lv_objx\../lv_core/../lv_misc/lv_color.h ****         uint8_t green : 1;
 207:..\..\..\lvgl\version_6.1.2\lvgl\src\lv_objx\../lv_core/../lv_misc/lv_color.h ****         uint8_t red : 1;
 208:..\..\..\lvgl\version_6.1.2\lvgl\src\lv_objx\../lv_core/../lv_misc/lv_color.h ****     } ch;
 209:..\..\..\lvgl\version_6.1.2\lvgl\src\lv_objx\../lv_core/../lv_misc/lv_color.h ****     uint8_t full;
 210:..\..\..\lvgl\version_6.1.2\lvgl\src\lv_objx\../lv_core/../lv_misc/lv_color.h **** } lv_color1_t;
 211:..\..\..\lvgl\version_6.1.2\lvgl\src\lv_objx\../lv_core/../lv_misc/lv_color.h **** 
 212:..\..\..\lvgl\version_6.1.2\lvgl\src\lv_objx\../lv_core/../lv_misc/lv_color.h **** typedef union
 213:..\..\..\lvgl\version_6.1.2\lvgl\src\lv_objx\../lv_core/../lv_misc/lv_color.h **** {
 214:..\..\..\lvgl\version_6.1.2\lvgl\src\lv_objx\../lv_core/../lv_misc/lv_color.h ****     struct
 215:..\..\..\lvgl\version_6.1.2\lvgl\src\lv_objx\../lv_core/../lv_misc/lv_color.h ****     {
 216:..\..\..\lvgl\version_6.1.2\lvgl\src\lv_objx\../lv_core/../lv_misc/lv_color.h ****         uint8_t blue : 2;
 217:..\..\..\lvgl\version_6.1.2\lvgl\src\lv_objx\../lv_core/../lv_misc/lv_color.h ****         uint8_t green : 3;
 218:..\..\..\lvgl\version_6.1.2\lvgl\src\lv_objx\../lv_core/../lv_misc/lv_color.h ****         uint8_t red : 3;
 219:..\..\..\lvgl\version_6.1.2\lvgl\src\lv_objx\../lv_core/../lv_misc/lv_color.h ****     } ch;
 220:..\..\..\lvgl\version_6.1.2\lvgl\src\lv_objx\../lv_core/../lv_misc/lv_color.h ****     uint8_t full;
 221:..\..\..\lvgl\version_6.1.2\lvgl\src\lv_objx\../lv_core/../lv_misc/lv_color.h **** } lv_color8_t;
 222:..\..\..\lvgl\version_6.1.2\lvgl\src\lv_objx\../lv_core/../lv_misc/lv_color.h **** 
 223:..\..\..\lvgl\version_6.1.2\lvgl\src\lv_objx\../lv_core/../lv_misc/lv_color.h **** typedef union
 224:..\..\..\lvgl\version_6.1.2\lvgl\src\lv_objx\../lv_core/../lv_misc/lv_color.h **** {
 225:..\..\..\lvgl\version_6.1.2\lvgl\src\lv_objx\../lv_core/../lv_misc/lv_color.h ****     struct
 226:..\..\..\lvgl\version_6.1.2\lvgl\src\lv_objx\../lv_core/../lv_misc/lv_color.h ****     {
 227:..\..\..\lvgl\version_6.1.2\lvgl\src\lv_objx\../lv_core/../lv_misc/lv_color.h **** #if LV_COLOR_16_SWAP == 0
 228:..\..\..\lvgl\version_6.1.2\lvgl\src\lv_objx\../lv_core/../lv_misc/lv_color.h ****         uint16_t blue : 5;
 229:..\..\..\lvgl\version_6.1.2\lvgl\src\lv_objx\../lv_core/../lv_misc/lv_color.h ****         uint16_t green : 6;
 230:..\..\..\lvgl\version_6.1.2\lvgl\src\lv_objx\../lv_core/../lv_misc/lv_color.h ****         uint16_t red : 5;
 231:..\..\..\lvgl\version_6.1.2\lvgl\src\lv_objx\../lv_core/../lv_misc/lv_color.h **** #else
 232:..\..\..\lvgl\version_6.1.2\lvgl\src\lv_objx\../lv_core/../lv_misc/lv_color.h ****         uint16_t green_h : 3;
 233:..\..\..\lvgl\version_6.1.2\lvgl\src\lv_objx\../lv_core/../lv_misc/lv_color.h ****         uint16_t red : 5;
 234:..\..\..\lvgl\version_6.1.2\lvgl\src\lv_objx\../lv_core/../lv_misc/lv_color.h ****         uint16_t blue : 5;
 235:..\..\..\lvgl\version_6.1.2\lvgl\src\lv_objx\../lv_core/../lv_misc/lv_color.h ****         uint16_t green_l : 3;
 236:..\..\..\lvgl\version_6.1.2\lvgl\src\lv_objx\../lv_core/../lv_misc/lv_color.h **** #endif
 237:..\..\..\lvgl\version_6.1.2\lvgl\src\lv_objx\../lv_core/../lv_misc/lv_color.h ****     } ch;
 238:..\..\..\lvgl\version_6.1.2\lvgl\src\lv_objx\../lv_core/../lv_misc/lv_color.h ****     uint16_t full;
 239:..\..\..\lvgl\version_6.1.2\lvgl\src\lv_objx\../lv_core/../lv_misc/lv_color.h **** } lv_color16_t;
 240:..\..\..\lvgl\version_6.1.2\lvgl\src\lv_objx\../lv_core/../lv_misc/lv_color.h **** 
 241:..\..\..\lvgl\version_6.1.2\lvgl\src\lv_objx\../lv_core/../lv_misc/lv_color.h **** typedef union
 242:..\..\..\lvgl\version_6.1.2\lvgl\src\lv_objx\../lv_core/../lv_misc/lv_color.h **** {
 243:..\..\..\lvgl\version_6.1.2\lvgl\src\lv_objx\../lv_core/../lv_misc/lv_color.h ****     struct
 244:..\..\..\lvgl\version_6.1.2\lvgl\src\lv_objx\../lv_core/../lv_misc/lv_color.h ****     {
 245:..\..\..\lvgl\version_6.1.2\lvgl\src\lv_objx\../lv_core/../lv_misc/lv_color.h ****         uint8_t blue;
 246:..\..\..\lvgl\version_6.1.2\lvgl\src\lv_objx\../lv_core/../lv_misc/lv_color.h ****         uint8_t green;
 247:..\..\..\lvgl\version_6.1.2\lvgl\src\lv_objx\../lv_core/../lv_misc/lv_color.h ****         uint8_t red;
 248:..\..\..\lvgl\version_6.1.2\lvgl\src\lv_objx\../lv_core/../lv_misc/lv_color.h ****         uint8_t alpha;
 249:..\..\..\lvgl\version_6.1.2\lvgl\src\lv_objx\../lv_core/../lv_misc/lv_color.h ****     } ch;
 250:..\..\..\lvgl\version_6.1.2\lvgl\src\lv_objx\../lv_core/../lv_misc/lv_color.h ****     uint32_t full;
 251:..\..\..\lvgl\version_6.1.2\lvgl\src\lv_objx\../lv_core/../lv_misc/lv_color.h **** } lv_color32_t;
 252:..\..\..\lvgl\version_6.1.2\lvgl\src\lv_objx\../lv_core/../lv_misc/lv_color.h **** 
 253:..\..\..\lvgl\version_6.1.2\lvgl\src\lv_objx\../lv_core/../lv_misc/lv_color.h **** #if LV_COLOR_DEPTH == 1
 254:..\..\..\lvgl\version_6.1.2\lvgl\src\lv_objx\../lv_core/../lv_misc/lv_color.h **** typedef uint8_t lv_color_int_t;
 255:..\..\..\lvgl\version_6.1.2\lvgl\src\lv_objx\../lv_core/../lv_misc/lv_color.h **** typedef lv_color1_t lv_color_t;
 256:..\..\..\lvgl\version_6.1.2\lvgl\src\lv_objx\../lv_core/../lv_misc/lv_color.h **** #elif LV_COLOR_DEPTH == 8
 257:..\..\..\lvgl\version_6.1.2\lvgl\src\lv_objx\../lv_core/../lv_misc/lv_color.h **** typedef uint8_t lv_color_int_t;
 258:..\..\..\lvgl\version_6.1.2\lvgl\src\lv_objx\../lv_core/../lv_misc/lv_color.h **** typedef lv_color8_t lv_color_t;
ARM GAS  C:\Users\tmj32\AppData\Local\Temp\cc11CUDk.s 			page 6


 259:..\..\..\lvgl\version_6.1.2\lvgl\src\lv_objx\../lv_core/../lv_misc/lv_color.h **** #elif LV_COLOR_DEPTH == 16
 260:..\..\..\lvgl\version_6.1.2\lvgl\src\lv_objx\../lv_core/../lv_misc/lv_color.h **** typedef uint16_t lv_color_int_t;
 261:..\..\..\lvgl\version_6.1.2\lvgl\src\lv_objx\../lv_core/../lv_misc/lv_color.h **** typedef lv_color16_t lv_color_t;
 262:..\..\..\lvgl\version_6.1.2\lvgl\src\lv_objx\../lv_core/../lv_misc/lv_color.h **** #elif LV_COLOR_DEPTH == 32
 263:..\..\..\lvgl\version_6.1.2\lvgl\src\lv_objx\../lv_core/../lv_misc/lv_color.h **** typedef uint32_t lv_color_int_t;
 264:..\..\..\lvgl\version_6.1.2\lvgl\src\lv_objx\../lv_core/../lv_misc/lv_color.h **** typedef lv_color32_t lv_color_t;
 265:..\..\..\lvgl\version_6.1.2\lvgl\src\lv_objx\../lv_core/../lv_misc/lv_color.h **** #else
 266:..\..\..\lvgl\version_6.1.2\lvgl\src\lv_objx\../lv_core/../lv_misc/lv_color.h **** #error "Invalid LV_COLOR_DEPTH in lv_conf.h! Set it to 1, 8, 16 or 32!"
 267:..\..\..\lvgl\version_6.1.2\lvgl\src\lv_objx\../lv_core/../lv_misc/lv_color.h **** #endif
 268:..\..\..\lvgl\version_6.1.2\lvgl\src\lv_objx\../lv_core/../lv_misc/lv_color.h **** 
 269:..\..\..\lvgl\version_6.1.2\lvgl\src\lv_objx\../lv_core/../lv_misc/lv_color.h **** typedef uint8_t lv_opa_t;
 270:..\..\..\lvgl\version_6.1.2\lvgl\src\lv_objx\../lv_core/../lv_misc/lv_color.h **** 
 271:..\..\..\lvgl\version_6.1.2\lvgl\src\lv_objx\../lv_core/../lv_misc/lv_color.h **** typedef struct
 272:..\..\..\lvgl\version_6.1.2\lvgl\src\lv_objx\../lv_core/../lv_misc/lv_color.h **** {
 273:..\..\..\lvgl\version_6.1.2\lvgl\src\lv_objx\../lv_core/../lv_misc/lv_color.h ****     uint16_t h;
 274:..\..\..\lvgl\version_6.1.2\lvgl\src\lv_objx\../lv_core/../lv_misc/lv_color.h ****     uint8_t s;
 275:..\..\..\lvgl\version_6.1.2\lvgl\src\lv_objx\../lv_core/../lv_misc/lv_color.h ****     uint8_t v;
 276:..\..\..\lvgl\version_6.1.2\lvgl\src\lv_objx\../lv_core/../lv_misc/lv_color.h **** } lv_color_hsv_t;
 277:..\..\..\lvgl\version_6.1.2\lvgl\src\lv_objx\../lv_core/../lv_misc/lv_color.h **** 
 278:..\..\..\lvgl\version_6.1.2\lvgl\src\lv_objx\../lv_core/../lv_misc/lv_color.h **** /**********************
 279:..\..\..\lvgl\version_6.1.2\lvgl\src\lv_objx\../lv_core/../lv_misc/lv_color.h ****  * GLOBAL PROTOTYPES
 280:..\..\..\lvgl\version_6.1.2\lvgl\src\lv_objx\../lv_core/../lv_misc/lv_color.h ****  **********************/
 281:..\..\..\lvgl\version_6.1.2\lvgl\src\lv_objx\../lv_core/../lv_misc/lv_color.h **** 
 282:..\..\..\lvgl\version_6.1.2\lvgl\src\lv_objx\../lv_core/../lv_misc/lv_color.h **** /*In color conversations:
 283:..\..\..\lvgl\version_6.1.2\lvgl\src\lv_objx\../lv_core/../lv_misc/lv_color.h ****  * - When converting to bigger color type the LSB weight of 1 LSB is calculated
 284:..\..\..\lvgl\version_6.1.2\lvgl\src\lv_objx\../lv_core/../lv_misc/lv_color.h ****  *   E.g. 16 bit Red has 5 bits
 285:..\..\..\lvgl\version_6.1.2\lvgl\src\lv_objx\../lv_core/../lv_misc/lv_color.h ****  *         8 bit Red has 2 bits
 286:..\..\..\lvgl\version_6.1.2\lvgl\src\lv_objx\../lv_core/../lv_misc/lv_color.h ****  *        ----------------------
 287:..\..\..\lvgl\version_6.1.2\lvgl\src\lv_objx\../lv_core/../lv_misc/lv_color.h ****  *        8 bit red LSB = (2^5 - 1) / (2^2 - 1) = 31 / 3 = 10
 288:..\..\..\lvgl\version_6.1.2\lvgl\src\lv_objx\../lv_core/../lv_misc/lv_color.h ****  *
 289:..\..\..\lvgl\version_6.1.2\lvgl\src\lv_objx\../lv_core/../lv_misc/lv_color.h ****  * - When calculating to smaller color type simply shift out the LSBs
 290:..\..\..\lvgl\version_6.1.2\lvgl\src\lv_objx\../lv_core/../lv_misc/lv_color.h ****  *   E.g.  8 bit Red has 2 bits
 291:..\..\..\lvgl\version_6.1.2\lvgl\src\lv_objx\../lv_core/../lv_misc/lv_color.h ****  *        16 bit Red has 5 bits
 292:..\..\..\lvgl\version_6.1.2\lvgl\src\lv_objx\../lv_core/../lv_misc/lv_color.h ****  *        ----------------------
 293:..\..\..\lvgl\version_6.1.2\lvgl\src\lv_objx\../lv_core/../lv_misc/lv_color.h ****  *         Shift right with 5 - 3 = 2
 294:..\..\..\lvgl\version_6.1.2\lvgl\src\lv_objx\../lv_core/../lv_misc/lv_color.h ****  */
 295:..\..\..\lvgl\version_6.1.2\lvgl\src\lv_objx\../lv_core/../lv_misc/lv_color.h **** 
 296:..\..\..\lvgl\version_6.1.2\lvgl\src\lv_objx\../lv_core/../lv_misc/lv_color.h **** static inline uint8_t lv_color_to1(lv_color_t color)
 297:..\..\..\lvgl\version_6.1.2\lvgl\src\lv_objx\../lv_core/../lv_misc/lv_color.h **** {
 298:..\..\..\lvgl\version_6.1.2\lvgl\src\lv_objx\../lv_core/../lv_misc/lv_color.h **** #if LV_COLOR_DEPTH == 1
 299:..\..\..\lvgl\version_6.1.2\lvgl\src\lv_objx\../lv_core/../lv_misc/lv_color.h ****     return color.full;
 300:..\..\..\lvgl\version_6.1.2\lvgl\src\lv_objx\../lv_core/../lv_misc/lv_color.h **** #elif LV_COLOR_DEPTH == 8
 301:..\..\..\lvgl\version_6.1.2\lvgl\src\lv_objx\../lv_core/../lv_misc/lv_color.h ****     if((LV_COLOR_GET_R(color) & 0x4) || (LV_COLOR_GET_G(color) & 0x4) || (LV_COLOR_GET_B(color) & 0
 302:..\..\..\lvgl\version_6.1.2\lvgl\src\lv_objx\../lv_core/../lv_misc/lv_color.h ****         return 1;
 303:..\..\..\lvgl\version_6.1.2\lvgl\src\lv_objx\../lv_core/../lv_misc/lv_color.h ****     } else {
 304:..\..\..\lvgl\version_6.1.2\lvgl\src\lv_objx\../lv_core/../lv_misc/lv_color.h ****         return 0;
 305:..\..\..\lvgl\version_6.1.2\lvgl\src\lv_objx\../lv_core/../lv_misc/lv_color.h ****     }
 306:..\..\..\lvgl\version_6.1.2\lvgl\src\lv_objx\../lv_core/../lv_misc/lv_color.h **** #elif LV_COLOR_DEPTH == 16
 307:..\..\..\lvgl\version_6.1.2\lvgl\src\lv_objx\../lv_core/../lv_misc/lv_color.h ****     if((LV_COLOR_GET_R(color) & 0x10) || (LV_COLOR_GET_G(color) & 0x20) || (LV_COLOR_GET_B(color) &
 308:..\..\..\lvgl\version_6.1.2\lvgl\src\lv_objx\../lv_core/../lv_misc/lv_color.h ****         return 1;
 309:..\..\..\lvgl\version_6.1.2\lvgl\src\lv_objx\../lv_core/../lv_misc/lv_color.h ****     } else {
 310:..\..\..\lvgl\version_6.1.2\lvgl\src\lv_objx\../lv_core/../lv_misc/lv_color.h ****         return 0;
 311:..\..\..\lvgl\version_6.1.2\lvgl\src\lv_objx\../lv_core/../lv_misc/lv_color.h ****     }
 312:..\..\..\lvgl\version_6.1.2\lvgl\src\lv_objx\../lv_core/../lv_misc/lv_color.h **** #elif LV_COLOR_DEPTH == 32
 313:..\..\..\lvgl\version_6.1.2\lvgl\src\lv_objx\../lv_core/../lv_misc/lv_color.h ****     if((LV_COLOR_GET_R(color) & 0x80) || (LV_COLOR_GET_G(color) & 0x80) || (LV_COLOR_GET_B(color) &
 314:..\..\..\lvgl\version_6.1.2\lvgl\src\lv_objx\../lv_core/../lv_misc/lv_color.h ****         return 1;
 315:..\..\..\lvgl\version_6.1.2\lvgl\src\lv_objx\../lv_core/../lv_misc/lv_color.h ****     } else {
ARM GAS  C:\Users\tmj32\AppData\Local\Temp\cc11CUDk.s 			page 7


 316:..\..\..\lvgl\version_6.1.2\lvgl\src\lv_objx\../lv_core/../lv_misc/lv_color.h ****         return 0;
 317:..\..\..\lvgl\version_6.1.2\lvgl\src\lv_objx\../lv_core/../lv_misc/lv_color.h ****     }
 318:..\..\..\lvgl\version_6.1.2\lvgl\src\lv_objx\../lv_core/../lv_misc/lv_color.h **** #endif
 319:..\..\..\lvgl\version_6.1.2\lvgl\src\lv_objx\../lv_core/../lv_misc/lv_color.h **** }
 320:..\..\..\lvgl\version_6.1.2\lvgl\src\lv_objx\../lv_core/../lv_misc/lv_color.h **** 
 321:..\..\..\lvgl\version_6.1.2\lvgl\src\lv_objx\../lv_core/../lv_misc/lv_color.h **** static inline uint8_t lv_color_to8(lv_color_t color)
 322:..\..\..\lvgl\version_6.1.2\lvgl\src\lv_objx\../lv_core/../lv_misc/lv_color.h **** {
 323:..\..\..\lvgl\version_6.1.2\lvgl\src\lv_objx\../lv_core/../lv_misc/lv_color.h **** #if LV_COLOR_DEPTH == 1
 324:..\..\..\lvgl\version_6.1.2\lvgl\src\lv_objx\../lv_core/../lv_misc/lv_color.h ****     if(color.full == 0)
 325:..\..\..\lvgl\version_6.1.2\lvgl\src\lv_objx\../lv_core/../lv_misc/lv_color.h ****         return 0;
 326:..\..\..\lvgl\version_6.1.2\lvgl\src\lv_objx\../lv_core/../lv_misc/lv_color.h ****     else
 327:..\..\..\lvgl\version_6.1.2\lvgl\src\lv_objx\../lv_core/../lv_misc/lv_color.h ****         return 0xFF;
 328:..\..\..\lvgl\version_6.1.2\lvgl\src\lv_objx\../lv_core/../lv_misc/lv_color.h **** #elif LV_COLOR_DEPTH == 8
 329:..\..\..\lvgl\version_6.1.2\lvgl\src\lv_objx\../lv_core/../lv_misc/lv_color.h ****     return color.full;
 330:..\..\..\lvgl\version_6.1.2\lvgl\src\lv_objx\../lv_core/../lv_misc/lv_color.h **** #elif LV_COLOR_DEPTH == 16
 331:..\..\..\lvgl\version_6.1.2\lvgl\src\lv_objx\../lv_core/../lv_misc/lv_color.h ****     lv_color8_t ret;
 332:..\..\..\lvgl\version_6.1.2\lvgl\src\lv_objx\../lv_core/../lv_misc/lv_color.h ****     LV_COLOR_SET_R8(ret, LV_COLOR_GET_R(color) >> 2);   /* 5 - 3  = 2*/
 333:..\..\..\lvgl\version_6.1.2\lvgl\src\lv_objx\../lv_core/../lv_misc/lv_color.h ****     LV_COLOR_SET_G8(ret, LV_COLOR_GET_G(color) >> 3); /* 6 - 3  = 3*/
 334:..\..\..\lvgl\version_6.1.2\lvgl\src\lv_objx\../lv_core/../lv_misc/lv_color.h ****     LV_COLOR_SET_B8(ret, LV_COLOR_GET_B(color) >> 3);  /* 5 - 2  = 3*/
 335:..\..\..\lvgl\version_6.1.2\lvgl\src\lv_objx\../lv_core/../lv_misc/lv_color.h ****     return ret.full;
 336:..\..\..\lvgl\version_6.1.2\lvgl\src\lv_objx\../lv_core/../lv_misc/lv_color.h **** #elif LV_COLOR_DEPTH == 32
 337:..\..\..\lvgl\version_6.1.2\lvgl\src\lv_objx\../lv_core/../lv_misc/lv_color.h ****     lv_color8_t ret;
 338:..\..\..\lvgl\version_6.1.2\lvgl\src\lv_objx\../lv_core/../lv_misc/lv_color.h ****     LV_COLOR_SET_R8(ret, LV_COLOR_GET_R(color) >> 5);   /* 8 - 3  = 5*/
 339:..\..\..\lvgl\version_6.1.2\lvgl\src\lv_objx\../lv_core/../lv_misc/lv_color.h ****     LV_COLOR_SET_G8(ret, LV_COLOR_GET_G(color) >> 5); /* 8 - 3  = 5*/
 340:..\..\..\lvgl\version_6.1.2\lvgl\src\lv_objx\../lv_core/../lv_misc/lv_color.h ****     LV_COLOR_SET_B8(ret, LV_COLOR_GET_B(color) >> 6);  /* 8 - 2  = 6*/
 341:..\..\..\lvgl\version_6.1.2\lvgl\src\lv_objx\../lv_core/../lv_misc/lv_color.h ****     return ret.full;
 342:..\..\..\lvgl\version_6.1.2\lvgl\src\lv_objx\../lv_core/../lv_misc/lv_color.h **** #endif
 343:..\..\..\lvgl\version_6.1.2\lvgl\src\lv_objx\../lv_core/../lv_misc/lv_color.h **** }
 344:..\..\..\lvgl\version_6.1.2\lvgl\src\lv_objx\../lv_core/../lv_misc/lv_color.h **** 
 345:..\..\..\lvgl\version_6.1.2\lvgl\src\lv_objx\../lv_core/../lv_misc/lv_color.h **** static inline uint16_t lv_color_to16(lv_color_t color)
 346:..\..\..\lvgl\version_6.1.2\lvgl\src\lv_objx\../lv_core/../lv_misc/lv_color.h **** {
 347:..\..\..\lvgl\version_6.1.2\lvgl\src\lv_objx\../lv_core/../lv_misc/lv_color.h **** #if LV_COLOR_DEPTH == 1
 348:..\..\..\lvgl\version_6.1.2\lvgl\src\lv_objx\../lv_core/../lv_misc/lv_color.h ****     if(color.full == 0)
 349:..\..\..\lvgl\version_6.1.2\lvgl\src\lv_objx\../lv_core/../lv_misc/lv_color.h ****         return 0;
 350:..\..\..\lvgl\version_6.1.2\lvgl\src\lv_objx\../lv_core/../lv_misc/lv_color.h ****     else
 351:..\..\..\lvgl\version_6.1.2\lvgl\src\lv_objx\../lv_core/../lv_misc/lv_color.h ****         return 0xFFFF;
 352:..\..\..\lvgl\version_6.1.2\lvgl\src\lv_objx\../lv_core/../lv_misc/lv_color.h **** #elif LV_COLOR_DEPTH == 8
 353:..\..\..\lvgl\version_6.1.2\lvgl\src\lv_objx\../lv_core/../lv_misc/lv_color.h ****     lv_color16_t ret;
 354:..\..\..\lvgl\version_6.1.2\lvgl\src\lv_objx\../lv_core/../lv_misc/lv_color.h ****     LV_COLOR_SET_R16(ret, LV_COLOR_GET_R(color) * 4);     /*(2^5 - 1)/(2^3 - 1) = 31/7 = 4*/
 355:..\..\..\lvgl\version_6.1.2\lvgl\src\lv_objx\../lv_core/../lv_misc/lv_color.h **** #if LV_COLOR_16_SWAP == 0
 356:..\..\..\lvgl\version_6.1.2\lvgl\src\lv_objx\../lv_core/../lv_misc/lv_color.h ****     LV_COLOR_SET_G16(ret,  LV_COLOR_GET_G(color) * 9); /*(2^6 - 1)/(2^3 - 1) = 63/7 = 9*/
 357:..\..\..\lvgl\version_6.1.2\lvgl\src\lv_objx\../lv_core/../lv_misc/lv_color.h **** #else
 358:..\..\..\lvgl\version_6.1.2\lvgl\src\lv_objx\../lv_core/../lv_misc/lv_color.h ****     LV_COLOR_SET_G16_SWAP(ret, (LV_COLOR_GET_G(color) * 9)); /*(2^6 - 1)/(2^3 - 1) = 63/7 = 9*/
 359:..\..\..\lvgl\version_6.1.2\lvgl\src\lv_objx\../lv_core/../lv_misc/lv_color.h **** #endif
 360:..\..\..\lvgl\version_6.1.2\lvgl\src\lv_objx\../lv_core/../lv_misc/lv_color.h ****     LV_COLOR_SET_B16(ret, LV_COLOR_GET_B(color) * 10);  /*(2^5 - 1)/(2^2 - 1) = 31/3 = 10*/
 361:..\..\..\lvgl\version_6.1.2\lvgl\src\lv_objx\../lv_core/../lv_misc/lv_color.h ****     return ret.full;
 362:..\..\..\lvgl\version_6.1.2\lvgl\src\lv_objx\../lv_core/../lv_misc/lv_color.h **** #elif LV_COLOR_DEPTH == 16
 363:..\..\..\lvgl\version_6.1.2\lvgl\src\lv_objx\../lv_core/../lv_misc/lv_color.h ****     return color.full;
 364:..\..\..\lvgl\version_6.1.2\lvgl\src\lv_objx\../lv_core/../lv_misc/lv_color.h **** #elif LV_COLOR_DEPTH == 32
 365:..\..\..\lvgl\version_6.1.2\lvgl\src\lv_objx\../lv_core/../lv_misc/lv_color.h ****     lv_color16_t ret;
 366:..\..\..\lvgl\version_6.1.2\lvgl\src\lv_objx\../lv_core/../lv_misc/lv_color.h ****     LV_COLOR_SET_R16(ret, LV_COLOR_GET_R(color) >> 3);   /* 8 - 5  = 3*/
 367:..\..\..\lvgl\version_6.1.2\lvgl\src\lv_objx\../lv_core/../lv_misc/lv_color.h **** 
 368:..\..\..\lvgl\version_6.1.2\lvgl\src\lv_objx\../lv_core/../lv_misc/lv_color.h **** #if LV_COLOR_16_SWAP == 0
 369:..\..\..\lvgl\version_6.1.2\lvgl\src\lv_objx\../lv_core/../lv_misc/lv_color.h ****     LV_COLOR_SET_G16(ret, LV_COLOR_GET_G(color) >> 2); /* 8 - 6  = 2*/
 370:..\..\..\lvgl\version_6.1.2\lvgl\src\lv_objx\../lv_core/../lv_misc/lv_color.h **** #else
 371:..\..\..\lvgl\version_6.1.2\lvgl\src\lv_objx\../lv_core/../lv_misc/lv_color.h ****     LV_COLOR_SET_G16_SWAP(ret, ret.ch.green_h = (LV_COLOR_GET_G(color) >> 2); /*(2^6 - 1)/(2^3 - 1)
 372:..\..\..\lvgl\version_6.1.2\lvgl\src\lv_objx\../lv_core/../lv_misc/lv_color.h **** #endif
ARM GAS  C:\Users\tmj32\AppData\Local\Temp\cc11CUDk.s 			page 8


 373:..\..\..\lvgl\version_6.1.2\lvgl\src\lv_objx\../lv_core/../lv_misc/lv_color.h ****     LV_COLOR_SET_B16(ret, LV_COLOR_GET_B(color) >> 3);  /* 8 - 5  = 3*/
 374:..\..\..\lvgl\version_6.1.2\lvgl\src\lv_objx\../lv_core/../lv_misc/lv_color.h ****     return ret.full;
 375:..\..\..\lvgl\version_6.1.2\lvgl\src\lv_objx\../lv_core/../lv_misc/lv_color.h **** #endif                         
 376:..\..\..\lvgl\version_6.1.2\lvgl\src\lv_objx\../lv_core/../lv_misc/lv_color.h **** }
 377:..\..\..\lvgl\version_6.1.2\lvgl\src\lv_objx\../lv_core/../lv_misc/lv_color.h **** 
 378:..\..\..\lvgl\version_6.1.2\lvgl\src\lv_objx\../lv_core/../lv_misc/lv_color.h **** static inline uint32_t lv_color_to32(lv_color_t color)
 379:..\..\..\lvgl\version_6.1.2\lvgl\src\lv_objx\../lv_core/../lv_misc/lv_color.h **** {
  28              		.loc 1 379 0
  29              		.cfi_startproc
  30              		@ args = 0, pretend = 0, frame = 8
  31              		@ frame_needed = 1, uses_anonymous_args = 0
  32              		@ link register save eliminated.
  33 0000 80B4     		push	{r7}
  34              		.cfi_def_cfa_offset 4
  35              		.cfi_offset 7, -4
  36 0002 83B0     		sub	sp, sp, #12
  37              		.cfi_def_cfa_offset 16
  38 0004 00AF     		add	r7, sp, #0
  39              		.cfi_def_cfa_register 7
  40 0006 7860     		str	r0, [r7, #4]
 380:..\..\..\lvgl\version_6.1.2\lvgl\src\lv_objx\../lv_core/../lv_misc/lv_color.h **** #if LV_COLOR_DEPTH == 1
 381:..\..\..\lvgl\version_6.1.2\lvgl\src\lv_objx\../lv_core/../lv_misc/lv_color.h ****     if(color.full == 0)
 382:..\..\..\lvgl\version_6.1.2\lvgl\src\lv_objx\../lv_core/../lv_misc/lv_color.h ****         return 0;
 383:..\..\..\lvgl\version_6.1.2\lvgl\src\lv_objx\../lv_core/../lv_misc/lv_color.h ****     else
 384:..\..\..\lvgl\version_6.1.2\lvgl\src\lv_objx\../lv_core/../lv_misc/lv_color.h ****         return 0xFFFFFFFF;
 385:..\..\..\lvgl\version_6.1.2\lvgl\src\lv_objx\../lv_core/../lv_misc/lv_color.h **** #elif LV_COLOR_DEPTH == 8
 386:..\..\..\lvgl\version_6.1.2\lvgl\src\lv_objx\../lv_core/../lv_misc/lv_color.h ****     lv_color32_t ret;
 387:..\..\..\lvgl\version_6.1.2\lvgl\src\lv_objx\../lv_core/../lv_misc/lv_color.h ****     LV_COLOR_SET_R32(ret, LV_COLOR_GET_R(color) * 36);     /*(2^8 - 1)/(2^3 - 1) = 255/7 = 36*/
 388:..\..\..\lvgl\version_6.1.2\lvgl\src\lv_objx\../lv_core/../lv_misc/lv_color.h ****     LV_COLOR_SET_G32(ret, LV_COLOR_GET_G(color) * 36); /*(2^8 - 1)/(2^3 - 1) = 255/7 = 36*/
 389:..\..\..\lvgl\version_6.1.2\lvgl\src\lv_objx\../lv_core/../lv_misc/lv_color.h ****     LV_COLOR_SET_B32(ret, LV_COLOR_GET_B(color) * 85);   /*(2^8 - 1)/(2^2 - 1) = 255/3 = 85*/
 390:..\..\..\lvgl\version_6.1.2\lvgl\src\lv_objx\../lv_core/../lv_misc/lv_color.h ****     LV_COLOR_SET_A32(ret, 0xFF);
 391:..\..\..\lvgl\version_6.1.2\lvgl\src\lv_objx\../lv_core/../lv_misc/lv_color.h ****     return ret.full;
 392:..\..\..\lvgl\version_6.1.2\lvgl\src\lv_objx\../lv_core/../lv_misc/lv_color.h **** #elif LV_COLOR_DEPTH == 16
 393:..\..\..\lvgl\version_6.1.2\lvgl\src\lv_objx\../lv_core/../lv_misc/lv_color.h ****     /**
 394:..\..\..\lvgl\version_6.1.2\lvgl\src\lv_objx\../lv_core/../lv_misc/lv_color.h ****      * The floating point math for conversion is:
 395:..\..\..\lvgl\version_6.1.2\lvgl\src\lv_objx\../lv_core/../lv_misc/lv_color.h ****      *  valueto = valuefrom * ( (2^bitsto - 1) / (float)(2^bitsfrom - 1) )
 396:..\..\..\lvgl\version_6.1.2\lvgl\src\lv_objx\../lv_core/../lv_misc/lv_color.h ****      * The faster integer math for conversion is:
 397:..\..\..\lvgl\version_6.1.2\lvgl\src\lv_objx\../lv_core/../lv_misc/lv_color.h ****      *  valueto = ( valuefrom * multiplier + adder ) >> divisor
 398:..\..\..\lvgl\version_6.1.2\lvgl\src\lv_objx\../lv_core/../lv_misc/lv_color.h ****      *   multiplier = FLOOR( ( (2^bitsto - 1) << divisor ) / (float)(2^bitsfrom - 1) )
 399:..\..\..\lvgl\version_6.1.2\lvgl\src\lv_objx\../lv_core/../lv_misc/lv_color.h ****      * 
 400:..\..\..\lvgl\version_6.1.2\lvgl\src\lv_objx\../lv_core/../lv_misc/lv_color.h ****      * Find the first divisor where ( adder >> divisor ) <= 0
 401:..\..\..\lvgl\version_6.1.2\lvgl\src\lv_objx\../lv_core/../lv_misc/lv_color.h ****      * 
 402:..\..\..\lvgl\version_6.1.2\lvgl\src\lv_objx\../lv_core/../lv_misc/lv_color.h ****      * 5-bit to 8-bit: ( 31 * multiplier + adder ) >> divisor = 255
 403:..\..\..\lvgl\version_6.1.2\lvgl\src\lv_objx\../lv_core/../lv_misc/lv_color.h ****      * divisor  multiplier  adder  min (0)  max (31)
 404:..\..\..\lvgl\version_6.1.2\lvgl\src\lv_objx\../lv_core/../lv_misc/lv_color.h ****      *       0           8      7        7       255
 405:..\..\..\lvgl\version_6.1.2\lvgl\src\lv_objx\../lv_core/../lv_misc/lv_color.h ****      *       1          16     14        7       255
 406:..\..\..\lvgl\version_6.1.2\lvgl\src\lv_objx\../lv_core/../lv_misc/lv_color.h ****      *       2          32     28        7       255
 407:..\..\..\lvgl\version_6.1.2\lvgl\src\lv_objx\../lv_core/../lv_misc/lv_color.h ****      *       3          65     25        3       255
 408:..\..\..\lvgl\version_6.1.2\lvgl\src\lv_objx\../lv_core/../lv_misc/lv_color.h ****      *       4         131     19        1       255
 409:..\..\..\lvgl\version_6.1.2\lvgl\src\lv_objx\../lv_core/../lv_misc/lv_color.h ****      *       5         263      7        0       255
 410:..\..\..\lvgl\version_6.1.2\lvgl\src\lv_objx\../lv_core/../lv_misc/lv_color.h ****      * 
 411:..\..\..\lvgl\version_6.1.2\lvgl\src\lv_objx\../lv_core/../lv_misc/lv_color.h ****      * 6-bit to 8-bit: 255 = ( 63 * multiplier + adder ) >> divisor
 412:..\..\..\lvgl\version_6.1.2\lvgl\src\lv_objx\../lv_core/../lv_misc/lv_color.h ****      * divisor  multiplier  adder  min (0)  max (63)
 413:..\..\..\lvgl\version_6.1.2\lvgl\src\lv_objx\../lv_core/../lv_misc/lv_color.h ****      *       0           4      3        3       255
 414:..\..\..\lvgl\version_6.1.2\lvgl\src\lv_objx\../lv_core/../lv_misc/lv_color.h ****      *       1           8      6        3       255
 415:..\..\..\lvgl\version_6.1.2\lvgl\src\lv_objx\../lv_core/../lv_misc/lv_color.h ****      *       2          16     12        3       255
 416:..\..\..\lvgl\version_6.1.2\lvgl\src\lv_objx\../lv_core/../lv_misc/lv_color.h ****      *       3          32     24        3       255
ARM GAS  C:\Users\tmj32\AppData\Local\Temp\cc11CUDk.s 			page 9


 417:..\..\..\lvgl\version_6.1.2\lvgl\src\lv_objx\../lv_core/../lv_misc/lv_color.h ****      *       4          64     48        3       255
 418:..\..\..\lvgl\version_6.1.2\lvgl\src\lv_objx\../lv_core/../lv_misc/lv_color.h ****      *       5         129     33        1       255
 419:..\..\..\lvgl\version_6.1.2\lvgl\src\lv_objx\../lv_core/../lv_misc/lv_color.h ****      *       6         259      3        0       255
 420:..\..\..\lvgl\version_6.1.2\lvgl\src\lv_objx\../lv_core/../lv_misc/lv_color.h ****      */
 421:..\..\..\lvgl\version_6.1.2\lvgl\src\lv_objx\../lv_core/../lv_misc/lv_color.h ****     lv_color32_t ret;
 422:..\..\..\lvgl\version_6.1.2\lvgl\src\lv_objx\../lv_core/../lv_misc/lv_color.h ****     LV_COLOR_SET_R32(ret, (LV_COLOR_GET_R(color) * 263 + 7 ) >> 5);
 423:..\..\..\lvgl\version_6.1.2\lvgl\src\lv_objx\../lv_core/../lv_misc/lv_color.h ****     LV_COLOR_SET_G32(ret, (LV_COLOR_GET_G(color) * 259 + 3 ) >> 6);
 424:..\..\..\lvgl\version_6.1.2\lvgl\src\lv_objx\../lv_core/../lv_misc/lv_color.h ****     LV_COLOR_SET_B32(ret, (LV_COLOR_GET_B(color) * 263 + 7 ) >> 5);
 425:..\..\..\lvgl\version_6.1.2\lvgl\src\lv_objx\../lv_core/../lv_misc/lv_color.h ****     LV_COLOR_SET_A32(ret, 0xFF);
 426:..\..\..\lvgl\version_6.1.2\lvgl\src\lv_objx\../lv_core/../lv_misc/lv_color.h ****     return ret.full;
 427:..\..\..\lvgl\version_6.1.2\lvgl\src\lv_objx\../lv_core/../lv_misc/lv_color.h **** #elif LV_COLOR_DEPTH == 32
 428:..\..\..\lvgl\version_6.1.2\lvgl\src\lv_objx\../lv_core/../lv_misc/lv_color.h ****     return color.full;
  41              		.loc 1 428 0
  42 0008 7B68     		ldr	r3, [r7, #4]
 429:..\..\..\lvgl\version_6.1.2\lvgl\src\lv_objx\../lv_core/../lv_misc/lv_color.h **** #endif
 430:..\..\..\lvgl\version_6.1.2\lvgl\src\lv_objx\../lv_core/../lv_misc/lv_color.h **** }
  43              		.loc 1 430 0
  44 000a 1846     		mov	r0, r3
  45 000c 0C37     		adds	r7, r7, #12
  46              		.cfi_def_cfa_offset 4
  47 000e BD46     		mov	sp, r7
  48              		.cfi_def_cfa_register 13
  49              		@ sp needed
  50 0010 5DF8047B 		ldr	r7, [sp], #4
  51              		.cfi_restore 7
  52              		.cfi_def_cfa_offset 0
  53 0014 7047     		bx	lr
  54              		.cfi_endproc
  55              	.LFE4:
  56              		.size	lv_color_to32, .-lv_color_to32
  57 0016 00BF     		.section	.text.lv_area_copy,"ax",%progbits
  58              		.align	2
  59              		.thumb
  60              		.thumb_func
  61              		.type	lv_area_copy, %function
  62              	lv_area_copy:
  63              	.LFB10:
  64              		.file 2 "..\\..\\..\\lvgl\\version_6.1.2\\lvgl\\src\\lv_objx\\../lv_core/../lv_misc/lv_area.h"
   1:..\..\..\lvgl\version_6.1.2\lvgl\src\lv_objx\../lv_core/../lv_misc/lv_area.h **** /**
   2:..\..\..\lvgl\version_6.1.2\lvgl\src\lv_objx\../lv_core/../lv_misc/lv_area.h ****  * @file lv_area.h
   3:..\..\..\lvgl\version_6.1.2\lvgl\src\lv_objx\../lv_core/../lv_misc/lv_area.h ****  *
   4:..\..\..\lvgl\version_6.1.2\lvgl\src\lv_objx\../lv_core/../lv_misc/lv_area.h ****  */
   5:..\..\..\lvgl\version_6.1.2\lvgl\src\lv_objx\../lv_core/../lv_misc/lv_area.h **** 
   6:..\..\..\lvgl\version_6.1.2\lvgl\src\lv_objx\../lv_core/../lv_misc/lv_area.h **** #ifndef LV_AREA_H
   7:..\..\..\lvgl\version_6.1.2\lvgl\src\lv_objx\../lv_core/../lv_misc/lv_area.h **** #define LV_AREA_H
   8:..\..\..\lvgl\version_6.1.2\lvgl\src\lv_objx\../lv_core/../lv_misc/lv_area.h **** 
   9:..\..\..\lvgl\version_6.1.2\lvgl\src\lv_objx\../lv_core/../lv_misc/lv_area.h **** #ifdef __cplusplus
  10:..\..\..\lvgl\version_6.1.2\lvgl\src\lv_objx\../lv_core/../lv_misc/lv_area.h **** extern "C" {
  11:..\..\..\lvgl\version_6.1.2\lvgl\src\lv_objx\../lv_core/../lv_misc/lv_area.h **** #endif
  12:..\..\..\lvgl\version_6.1.2\lvgl\src\lv_objx\../lv_core/../lv_misc/lv_area.h **** 
  13:..\..\..\lvgl\version_6.1.2\lvgl\src\lv_objx\../lv_core/../lv_misc/lv_area.h **** /*********************
  14:..\..\..\lvgl\version_6.1.2\lvgl\src\lv_objx\../lv_core/../lv_misc/lv_area.h ****  *      INCLUDES
  15:..\..\..\lvgl\version_6.1.2\lvgl\src\lv_objx\../lv_core/../lv_misc/lv_area.h ****  *********************/
  16:..\..\..\lvgl\version_6.1.2\lvgl\src\lv_objx\../lv_core/../lv_misc/lv_area.h **** #include <string.h>
  17:..\..\..\lvgl\version_6.1.2\lvgl\src\lv_objx\../lv_core/../lv_misc/lv_area.h **** #include <stdbool.h>
  18:..\..\..\lvgl\version_6.1.2\lvgl\src\lv_objx\../lv_core/../lv_misc/lv_area.h **** #include <stdint.h>
  19:..\..\..\lvgl\version_6.1.2\lvgl\src\lv_objx\../lv_core/../lv_misc/lv_area.h **** #ifdef LV_CONF_INCLUDE_SIMPLE
ARM GAS  C:\Users\tmj32\AppData\Local\Temp\cc11CUDk.s 			page 10


  20:..\..\..\lvgl\version_6.1.2\lvgl\src\lv_objx\../lv_core/../lv_misc/lv_area.h **** #include "lv_conf.h"
  21:..\..\..\lvgl\version_6.1.2\lvgl\src\lv_objx\../lv_core/../lv_misc/lv_area.h **** #else
  22:..\..\..\lvgl\version_6.1.2\lvgl\src\lv_objx\../lv_core/../lv_misc/lv_area.h **** #include "../../../lv_conf.h"
  23:..\..\..\lvgl\version_6.1.2\lvgl\src\lv_objx\../lv_core/../lv_misc/lv_area.h **** #endif
  24:..\..\..\lvgl\version_6.1.2\lvgl\src\lv_objx\../lv_core/../lv_misc/lv_area.h **** 
  25:..\..\..\lvgl\version_6.1.2\lvgl\src\lv_objx\../lv_core/../lv_misc/lv_area.h **** /*********************
  26:..\..\..\lvgl\version_6.1.2\lvgl\src\lv_objx\../lv_core/../lv_misc/lv_area.h ****  *      DEFINES
  27:..\..\..\lvgl\version_6.1.2\lvgl\src\lv_objx\../lv_core/../lv_misc/lv_area.h ****  *********************/
  28:..\..\..\lvgl\version_6.1.2\lvgl\src\lv_objx\../lv_core/../lv_misc/lv_area.h **** /*To avoid overflow don't let the max ranges (reduce with 1000) */
  29:..\..\..\lvgl\version_6.1.2\lvgl\src\lv_objx\../lv_core/../lv_misc/lv_area.h **** #define LV_COORD_MAX ((lv_coord_t)((uint32_t)((uint32_t)1 << (8 * sizeof(lv_coord_t) - 1)) - 1000))
  30:..\..\..\lvgl\version_6.1.2\lvgl\src\lv_objx\../lv_core/../lv_misc/lv_area.h **** #define LV_COORD_MIN (-LV_COORD_MAX)
  31:..\..\..\lvgl\version_6.1.2\lvgl\src\lv_objx\../lv_core/../lv_misc/lv_area.h **** 
  32:..\..\..\lvgl\version_6.1.2\lvgl\src\lv_objx\../lv_core/../lv_misc/lv_area.h **** LV_EXPORT_CONST_INT(LV_COORD_MAX);
  33:..\..\..\lvgl\version_6.1.2\lvgl\src\lv_objx\../lv_core/../lv_misc/lv_area.h **** LV_EXPORT_CONST_INT(LV_COORD_MIN);
  34:..\..\..\lvgl\version_6.1.2\lvgl\src\lv_objx\../lv_core/../lv_misc/lv_area.h **** 
  35:..\..\..\lvgl\version_6.1.2\lvgl\src\lv_objx\../lv_core/../lv_misc/lv_area.h **** /**********************
  36:..\..\..\lvgl\version_6.1.2\lvgl\src\lv_objx\../lv_core/../lv_misc/lv_area.h ****  *      TYPEDEFS
  37:..\..\..\lvgl\version_6.1.2\lvgl\src\lv_objx\../lv_core/../lv_misc/lv_area.h ****  **********************/
  38:..\..\..\lvgl\version_6.1.2\lvgl\src\lv_objx\../lv_core/../lv_misc/lv_area.h **** 
  39:..\..\..\lvgl\version_6.1.2\lvgl\src\lv_objx\../lv_core/../lv_misc/lv_area.h **** /**
  40:..\..\..\lvgl\version_6.1.2\lvgl\src\lv_objx\../lv_core/../lv_misc/lv_area.h ****  * Represents a point on the screen.
  41:..\..\..\lvgl\version_6.1.2\lvgl\src\lv_objx\../lv_core/../lv_misc/lv_area.h ****  */
  42:..\..\..\lvgl\version_6.1.2\lvgl\src\lv_objx\../lv_core/../lv_misc/lv_area.h **** typedef struct
  43:..\..\..\lvgl\version_6.1.2\lvgl\src\lv_objx\../lv_core/../lv_misc/lv_area.h **** {
  44:..\..\..\lvgl\version_6.1.2\lvgl\src\lv_objx\../lv_core/../lv_misc/lv_area.h ****     lv_coord_t x;
  45:..\..\..\lvgl\version_6.1.2\lvgl\src\lv_objx\../lv_core/../lv_misc/lv_area.h ****     lv_coord_t y;
  46:..\..\..\lvgl\version_6.1.2\lvgl\src\lv_objx\../lv_core/../lv_misc/lv_area.h **** } lv_point_t;
  47:..\..\..\lvgl\version_6.1.2\lvgl\src\lv_objx\../lv_core/../lv_misc/lv_area.h **** 
  48:..\..\..\lvgl\version_6.1.2\lvgl\src\lv_objx\../lv_core/../lv_misc/lv_area.h **** /** Represents an area of the screen. */
  49:..\..\..\lvgl\version_6.1.2\lvgl\src\lv_objx\../lv_core/../lv_misc/lv_area.h **** typedef struct
  50:..\..\..\lvgl\version_6.1.2\lvgl\src\lv_objx\../lv_core/../lv_misc/lv_area.h **** {
  51:..\..\..\lvgl\version_6.1.2\lvgl\src\lv_objx\../lv_core/../lv_misc/lv_area.h ****     lv_coord_t x1;
  52:..\..\..\lvgl\version_6.1.2\lvgl\src\lv_objx\../lv_core/../lv_misc/lv_area.h ****     lv_coord_t y1;
  53:..\..\..\lvgl\version_6.1.2\lvgl\src\lv_objx\../lv_core/../lv_misc/lv_area.h ****     lv_coord_t x2;
  54:..\..\..\lvgl\version_6.1.2\lvgl\src\lv_objx\../lv_core/../lv_misc/lv_area.h ****     lv_coord_t y2;
  55:..\..\..\lvgl\version_6.1.2\lvgl\src\lv_objx\../lv_core/../lv_misc/lv_area.h **** } lv_area_t;
  56:..\..\..\lvgl\version_6.1.2\lvgl\src\lv_objx\../lv_core/../lv_misc/lv_area.h **** 
  57:..\..\..\lvgl\version_6.1.2\lvgl\src\lv_objx\../lv_core/../lv_misc/lv_area.h **** /**********************
  58:..\..\..\lvgl\version_6.1.2\lvgl\src\lv_objx\../lv_core/../lv_misc/lv_area.h ****  * GLOBAL PROTOTYPES
  59:..\..\..\lvgl\version_6.1.2\lvgl\src\lv_objx\../lv_core/../lv_misc/lv_area.h ****  **********************/
  60:..\..\..\lvgl\version_6.1.2\lvgl\src\lv_objx\../lv_core/../lv_misc/lv_area.h **** 
  61:..\..\..\lvgl\version_6.1.2\lvgl\src\lv_objx\../lv_core/../lv_misc/lv_area.h **** /**
  62:..\..\..\lvgl\version_6.1.2\lvgl\src\lv_objx\../lv_core/../lv_misc/lv_area.h ****  * Initialize an area
  63:..\..\..\lvgl\version_6.1.2\lvgl\src\lv_objx\../lv_core/../lv_misc/lv_area.h ****  * @param area_p pointer to an area
  64:..\..\..\lvgl\version_6.1.2\lvgl\src\lv_objx\../lv_core/../lv_misc/lv_area.h ****  * @param x1 left coordinate of the area
  65:..\..\..\lvgl\version_6.1.2\lvgl\src\lv_objx\../lv_core/../lv_misc/lv_area.h ****  * @param y1 top coordinate of the area
  66:..\..\..\lvgl\version_6.1.2\lvgl\src\lv_objx\../lv_core/../lv_misc/lv_area.h ****  * @param x2 right coordinate of the area
  67:..\..\..\lvgl\version_6.1.2\lvgl\src\lv_objx\../lv_core/../lv_misc/lv_area.h ****  * @param y2 bottom coordinate of the area
  68:..\..\..\lvgl\version_6.1.2\lvgl\src\lv_objx\../lv_core/../lv_misc/lv_area.h ****  */
  69:..\..\..\lvgl\version_6.1.2\lvgl\src\lv_objx\../lv_core/../lv_misc/lv_area.h **** void lv_area_set(lv_area_t * area_p, lv_coord_t x1, lv_coord_t y1, lv_coord_t x2, lv_coord_t y2);
  70:..\..\..\lvgl\version_6.1.2\lvgl\src\lv_objx\../lv_core/../lv_misc/lv_area.h **** 
  71:..\..\..\lvgl\version_6.1.2\lvgl\src\lv_objx\../lv_core/../lv_misc/lv_area.h **** /**
  72:..\..\..\lvgl\version_6.1.2\lvgl\src\lv_objx\../lv_core/../lv_misc/lv_area.h ****  * Copy an area
  73:..\..\..\lvgl\version_6.1.2\lvgl\src\lv_objx\../lv_core/../lv_misc/lv_area.h ****  * @param dest pointer to the destination area
  74:..\..\..\lvgl\version_6.1.2\lvgl\src\lv_objx\../lv_core/../lv_misc/lv_area.h ****  * @param src pointer to the source area
  75:..\..\..\lvgl\version_6.1.2\lvgl\src\lv_objx\../lv_core/../lv_misc/lv_area.h ****  */
  76:..\..\..\lvgl\version_6.1.2\lvgl\src\lv_objx\../lv_core/../lv_misc/lv_area.h **** inline static void lv_area_copy(lv_area_t * dest, const lv_area_t * src)
ARM GAS  C:\Users\tmj32\AppData\Local\Temp\cc11CUDk.s 			page 11


  77:..\..\..\lvgl\version_6.1.2\lvgl\src\lv_objx\../lv_core/../lv_misc/lv_area.h **** {
  65              		.loc 2 77 0
  66              		.cfi_startproc
  67              		@ args = 0, pretend = 0, frame = 8
  68              		@ frame_needed = 1, uses_anonymous_args = 0
  69 0000 80B5     		push	{r7, lr}
  70              		.cfi_def_cfa_offset 8
  71              		.cfi_offset 7, -8
  72              		.cfi_offset 14, -4
  73 0002 82B0     		sub	sp, sp, #8
  74              		.cfi_def_cfa_offset 16
  75 0004 00AF     		add	r7, sp, #0
  76              		.cfi_def_cfa_register 7
  77 0006 7860     		str	r0, [r7, #4]
  78 0008 3960     		str	r1, [r7]
  78:..\..\..\lvgl\version_6.1.2\lvgl\src\lv_objx\../lv_core/../lv_misc/lv_area.h ****     memcpy(dest, src, sizeof(lv_area_t));
  79              		.loc 2 78 0
  80 000a 0822     		movs	r2, #8
  81 000c 3968     		ldr	r1, [r7]
  82 000e 7868     		ldr	r0, [r7, #4]
  83 0010 FFF7FEFF 		bl	memcpy
  79:..\..\..\lvgl\version_6.1.2\lvgl\src\lv_objx\../lv_core/../lv_misc/lv_area.h **** }
  84              		.loc 2 79 0
  85 0014 00BF     		nop
  86 0016 0837     		adds	r7, r7, #8
  87              		.cfi_def_cfa_offset 8
  88 0018 BD46     		mov	sp, r7
  89              		.cfi_def_cfa_register 13
  90              		@ sp needed
  91 001a 80BD     		pop	{r7, pc}
  92              		.cfi_endproc
  93              	.LFE10:
  94              		.size	lv_area_copy, .-lv_area_copy
  95              		.section	.text.lv_area_get_width,"ax",%progbits
  96              		.align	2
  97              		.thumb
  98              		.thumb_func
  99              		.type	lv_area_get_width, %function
 100              	lv_area_get_width:
 101              	.LFB11:
  80:..\..\..\lvgl\version_6.1.2\lvgl\src\lv_objx\../lv_core/../lv_misc/lv_area.h **** 
  81:..\..\..\lvgl\version_6.1.2\lvgl\src\lv_objx\../lv_core/../lv_misc/lv_area.h **** /**
  82:..\..\..\lvgl\version_6.1.2\lvgl\src\lv_objx\../lv_core/../lv_misc/lv_area.h ****  * Get the width of an area
  83:..\..\..\lvgl\version_6.1.2\lvgl\src\lv_objx\../lv_core/../lv_misc/lv_area.h ****  * @param area_p pointer to an area
  84:..\..\..\lvgl\version_6.1.2\lvgl\src\lv_objx\../lv_core/../lv_misc/lv_area.h ****  * @return the width of the area (if x1 == x2 -> width = 1)
  85:..\..\..\lvgl\version_6.1.2\lvgl\src\lv_objx\../lv_core/../lv_misc/lv_area.h ****  */
  86:..\..\..\lvgl\version_6.1.2\lvgl\src\lv_objx\../lv_core/../lv_misc/lv_area.h **** static inline lv_coord_t lv_area_get_width(const lv_area_t * area_p)
  87:..\..\..\lvgl\version_6.1.2\lvgl\src\lv_objx\../lv_core/../lv_misc/lv_area.h **** {
 102              		.loc 2 87 0
 103              		.cfi_startproc
 104              		@ args = 0, pretend = 0, frame = 8
 105              		@ frame_needed = 1, uses_anonymous_args = 0
 106              		@ link register save eliminated.
 107 0000 80B4     		push	{r7}
 108              		.cfi_def_cfa_offset 4
 109              		.cfi_offset 7, -4
 110 0002 83B0     		sub	sp, sp, #12
ARM GAS  C:\Users\tmj32\AppData\Local\Temp\cc11CUDk.s 			page 12


 111              		.cfi_def_cfa_offset 16
 112 0004 00AF     		add	r7, sp, #0
 113              		.cfi_def_cfa_register 7
 114 0006 7860     		str	r0, [r7, #4]
  88:..\..\..\lvgl\version_6.1.2\lvgl\src\lv_objx\../lv_core/../lv_misc/lv_area.h ****     return (lv_coord_t)(area_p->x2 - area_p->x1 + 1);
 115              		.loc 2 88 0
 116 0008 7B68     		ldr	r3, [r7, #4]
 117 000a B3F90430 		ldrsh	r3, [r3, #4]
 118 000e 9AB2     		uxth	r2, r3
 119 0010 7B68     		ldr	r3, [r7, #4]
 120 0012 B3F90030 		ldrsh	r3, [r3]
 121 0016 9BB2     		uxth	r3, r3
 122 0018 D31A     		subs	r3, r2, r3
 123 001a 9BB2     		uxth	r3, r3
 124 001c 0133     		adds	r3, r3, #1
 125 001e 9BB2     		uxth	r3, r3
 126 0020 1BB2     		sxth	r3, r3
  89:..\..\..\lvgl\version_6.1.2\lvgl\src\lv_objx\../lv_core/../lv_misc/lv_area.h **** }
 127              		.loc 2 89 0
 128 0022 1846     		mov	r0, r3
 129 0024 0C37     		adds	r7, r7, #12
 130              		.cfi_def_cfa_offset 4
 131 0026 BD46     		mov	sp, r7
 132              		.cfi_def_cfa_register 13
 133              		@ sp needed
 134 0028 5DF8047B 		ldr	r7, [sp], #4
 135              		.cfi_restore 7
 136              		.cfi_def_cfa_offset 0
 137 002c 7047     		bx	lr
 138              		.cfi_endproc
 139              	.LFE11:
 140              		.size	lv_area_get_width, .-lv_area_get_width
 141 002e 00BF     		.section	.text.lv_area_get_height,"ax",%progbits
 142              		.align	2
 143              		.thumb
 144              		.thumb_func
 145              		.type	lv_area_get_height, %function
 146              	lv_area_get_height:
 147              	.LFB12:
  90:..\..\..\lvgl\version_6.1.2\lvgl\src\lv_objx\../lv_core/../lv_misc/lv_area.h **** 
  91:..\..\..\lvgl\version_6.1.2\lvgl\src\lv_objx\../lv_core/../lv_misc/lv_area.h **** /**
  92:..\..\..\lvgl\version_6.1.2\lvgl\src\lv_objx\../lv_core/../lv_misc/lv_area.h ****  * Get the height of an area
  93:..\..\..\lvgl\version_6.1.2\lvgl\src\lv_objx\../lv_core/../lv_misc/lv_area.h ****  * @param area_p pointer to an area
  94:..\..\..\lvgl\version_6.1.2\lvgl\src\lv_objx\../lv_core/../lv_misc/lv_area.h ****  * @return the height of the area (if y1 == y2 -> height = 1)
  95:..\..\..\lvgl\version_6.1.2\lvgl\src\lv_objx\../lv_core/../lv_misc/lv_area.h ****  */
  96:..\..\..\lvgl\version_6.1.2\lvgl\src\lv_objx\../lv_core/../lv_misc/lv_area.h **** static inline lv_coord_t lv_area_get_height(const lv_area_t * area_p)
  97:..\..\..\lvgl\version_6.1.2\lvgl\src\lv_objx\../lv_core/../lv_misc/lv_area.h **** {
 148              		.loc 2 97 0
 149              		.cfi_startproc
 150              		@ args = 0, pretend = 0, frame = 8
 151              		@ frame_needed = 1, uses_anonymous_args = 0
 152              		@ link register save eliminated.
 153 0000 80B4     		push	{r7}
 154              		.cfi_def_cfa_offset 4
 155              		.cfi_offset 7, -4
 156 0002 83B0     		sub	sp, sp, #12
 157              		.cfi_def_cfa_offset 16
ARM GAS  C:\Users\tmj32\AppData\Local\Temp\cc11CUDk.s 			page 13


 158 0004 00AF     		add	r7, sp, #0
 159              		.cfi_def_cfa_register 7
 160 0006 7860     		str	r0, [r7, #4]
  98:..\..\..\lvgl\version_6.1.2\lvgl\src\lv_objx\../lv_core/../lv_misc/lv_area.h ****     return (lv_coord_t)(area_p->y2 - area_p->y1 + 1);
 161              		.loc 2 98 0
 162 0008 7B68     		ldr	r3, [r7, #4]
 163 000a B3F90630 		ldrsh	r3, [r3, #6]
 164 000e 9AB2     		uxth	r2, r3
 165 0010 7B68     		ldr	r3, [r7, #4]
 166 0012 B3F90230 		ldrsh	r3, [r3, #2]
 167 0016 9BB2     		uxth	r3, r3
 168 0018 D31A     		subs	r3, r2, r3
 169 001a 9BB2     		uxth	r3, r3
 170 001c 0133     		adds	r3, r3, #1
 171 001e 9BB2     		uxth	r3, r3
 172 0020 1BB2     		sxth	r3, r3
  99:..\..\..\lvgl\version_6.1.2\lvgl\src\lv_objx\../lv_core/../lv_misc/lv_area.h **** }
 173              		.loc 2 99 0
 174 0022 1846     		mov	r0, r3
 175 0024 0C37     		adds	r7, r7, #12
 176              		.cfi_def_cfa_offset 4
 177 0026 BD46     		mov	sp, r7
 178              		.cfi_def_cfa_register 13
 179              		@ sp needed
 180 0028 5DF8047B 		ldr	r7, [sp], #4
 181              		.cfi_restore 7
 182              		.cfi_def_cfa_offset 0
 183 002c 7047     		bx	lr
 184              		.cfi_endproc
 185              	.LFE12:
 186              		.size	lv_area_get_height, .-lv_area_get_height
 187 002e 00BF     		.bss
 188              		.align	2
 189              	ancestor_signal:
 190 0000 00000000 		.space	4
 191              		.align	2
 192              	ancestor_design:
 193 0004 00000000 		.space	4
 194              		.section	.rodata
 195              		.align	2
 196              	.LC0:
 197 0000 0000     		.short	0
 198 0002 64       		.byte	100
 199 0003 64       		.byte	100
 200              		.section	.text.lv_cpicker_create,"ax",%progbits
 201              		.align	2
 202              		.global	lv_cpicker_create
 203              		.thumb
 204              		.thumb_func
 205              		.type	lv_cpicker_create, %function
 206              	lv_cpicker_create:
 207              	.LFB31:
 208              		.file 3 "..\\..\\..\\lvgl\\version_6.1.2\\lvgl\\src\\lv_objx\\lv_cpicker.c"
   1:..\..\..\lvgl\version_6.1.2\lvgl\src\lv_objx/lv_cpicker.c **** /**
   2:..\..\..\lvgl\version_6.1.2\lvgl\src\lv_objx/lv_cpicker.c ****  * @file lv_cpicker.c
   3:..\..\..\lvgl\version_6.1.2\lvgl\src\lv_objx/lv_cpicker.c ****  *
   4:..\..\..\lvgl\version_6.1.2\lvgl\src\lv_objx/lv_cpicker.c ****  * From @AloyseTech and @paulpv.
ARM GAS  C:\Users\tmj32\AppData\Local\Temp\cc11CUDk.s 			page 14


   5:..\..\..\lvgl\version_6.1.2\lvgl\src\lv_objx/lv_cpicker.c ****  */
   6:..\..\..\lvgl\version_6.1.2\lvgl\src\lv_objx/lv_cpicker.c **** 
   7:..\..\..\lvgl\version_6.1.2\lvgl\src\lv_objx/lv_cpicker.c **** /*********************
   8:..\..\..\lvgl\version_6.1.2\lvgl\src\lv_objx/lv_cpicker.c ****  *      INCLUDES
   9:..\..\..\lvgl\version_6.1.2\lvgl\src\lv_objx/lv_cpicker.c ****  *********************/
  10:..\..\..\lvgl\version_6.1.2\lvgl\src\lv_objx/lv_cpicker.c **** #include "lv_cpicker.h"
  11:..\..\..\lvgl\version_6.1.2\lvgl\src\lv_objx/lv_cpicker.c **** #if LV_USE_CPICKER != 0
  12:..\..\..\lvgl\version_6.1.2\lvgl\src\lv_objx/lv_cpicker.c **** 
  13:..\..\..\lvgl\version_6.1.2\lvgl\src\lv_objx/lv_cpicker.c **** #include "../lv_core/lv_debug.h"
  14:..\..\..\lvgl\version_6.1.2\lvgl\src\lv_objx/lv_cpicker.c **** #include "../lv_draw/lv_draw_arc.h"
  15:..\..\..\lvgl\version_6.1.2\lvgl\src\lv_objx/lv_cpicker.c **** #include "../lv_themes/lv_theme.h"
  16:..\..\..\lvgl\version_6.1.2\lvgl\src\lv_objx/lv_cpicker.c **** #include "../lv_core/lv_indev.h"
  17:..\..\..\lvgl\version_6.1.2\lvgl\src\lv_objx/lv_cpicker.c **** #include "../lv_core/lv_refr.h"
  18:..\..\..\lvgl\version_6.1.2\lvgl\src\lv_objx/lv_cpicker.c **** #include "../lv_misc/lv_math.h"
  19:..\..\..\lvgl\version_6.1.2\lvgl\src\lv_objx/lv_cpicker.c **** 
  20:..\..\..\lvgl\version_6.1.2\lvgl\src\lv_objx/lv_cpicker.c **** /*********************
  21:..\..\..\lvgl\version_6.1.2\lvgl\src\lv_objx/lv_cpicker.c ****  *      DEFINES
  22:..\..\..\lvgl\version_6.1.2\lvgl\src\lv_objx/lv_cpicker.c ****  *********************/
  23:..\..\..\lvgl\version_6.1.2\lvgl\src\lv_objx/lv_cpicker.c **** #define LV_OBJX_NAME "lv_cpicker"
  24:..\..\..\lvgl\version_6.1.2\lvgl\src\lv_objx/lv_cpicker.c **** 
  25:..\..\..\lvgl\version_6.1.2\lvgl\src\lv_objx/lv_cpicker.c **** #ifndef LV_CPICKER_DEF_TYPE
  26:..\..\..\lvgl\version_6.1.2\lvgl\src\lv_objx/lv_cpicker.c **** #define LV_CPICKER_DEF_TYPE LV_CPICKER_TYPE_DISC
  27:..\..\..\lvgl\version_6.1.2\lvgl\src\lv_objx/lv_cpicker.c **** #endif
  28:..\..\..\lvgl\version_6.1.2\lvgl\src\lv_objx/lv_cpicker.c **** 
  29:..\..\..\lvgl\version_6.1.2\lvgl\src\lv_objx/lv_cpicker.c **** #ifndef LV_CPICKER_DEF_HUE
  30:..\..\..\lvgl\version_6.1.2\lvgl\src\lv_objx/lv_cpicker.c **** #define LV_CPICKER_DEF_HUE 0
  31:..\..\..\lvgl\version_6.1.2\lvgl\src\lv_objx/lv_cpicker.c **** #endif
  32:..\..\..\lvgl\version_6.1.2\lvgl\src\lv_objx/lv_cpicker.c **** 
  33:..\..\..\lvgl\version_6.1.2\lvgl\src\lv_objx/lv_cpicker.c **** #ifndef LV_CPICKER_DEF_SATURATION
  34:..\..\..\lvgl\version_6.1.2\lvgl\src\lv_objx/lv_cpicker.c **** #define LV_CPICKER_DEF_SATURATION 100
  35:..\..\..\lvgl\version_6.1.2\lvgl\src\lv_objx/lv_cpicker.c **** #endif
  36:..\..\..\lvgl\version_6.1.2\lvgl\src\lv_objx/lv_cpicker.c **** 
  37:..\..\..\lvgl\version_6.1.2\lvgl\src\lv_objx/lv_cpicker.c **** #ifndef LV_CPICKER_DEF_VALUE
  38:..\..\..\lvgl\version_6.1.2\lvgl\src\lv_objx/lv_cpicker.c **** #define LV_CPICKER_DEF_VALUE 100
  39:..\..\..\lvgl\version_6.1.2\lvgl\src\lv_objx/lv_cpicker.c **** #endif
  40:..\..\..\lvgl\version_6.1.2\lvgl\src\lv_objx/lv_cpicker.c **** 
  41:..\..\..\lvgl\version_6.1.2\lvgl\src\lv_objx/lv_cpicker.c **** #ifndef LV_CPICKER_DEF_HSV
  42:..\..\..\lvgl\version_6.1.2\lvgl\src\lv_objx/lv_cpicker.c **** #define LV_CPICKER_DEF_HSV ((lv_color_hsv_t){LV_CPICKER_DEF_HUE, LV_CPICKER_DEF_SATURATION, LV_CPIC
  43:..\..\..\lvgl\version_6.1.2\lvgl\src\lv_objx/lv_cpicker.c **** #endif
  44:..\..\..\lvgl\version_6.1.2\lvgl\src\lv_objx/lv_cpicker.c **** 
  45:..\..\..\lvgl\version_6.1.2\lvgl\src\lv_objx/lv_cpicker.c **** #ifndef LV_CPICKER_DEF_QF /*quantization factor*/
  46:..\..\..\lvgl\version_6.1.2\lvgl\src\lv_objx/lv_cpicker.c **** #define LV_CPICKER_DEF_QF 3
  47:..\..\..\lvgl\version_6.1.2\lvgl\src\lv_objx/lv_cpicker.c **** #endif
  48:..\..\..\lvgl\version_6.1.2\lvgl\src\lv_objx/lv_cpicker.c **** 
  49:..\..\..\lvgl\version_6.1.2\lvgl\src\lv_objx/lv_cpicker.c **** #define TRI_OFFSET 2
  50:..\..\..\lvgl\version_6.1.2\lvgl\src\lv_objx/lv_cpicker.c **** 
  51:..\..\..\lvgl\version_6.1.2\lvgl\src\lv_objx/lv_cpicker.c **** /**********************
  52:..\..\..\lvgl\version_6.1.2\lvgl\src\lv_objx/lv_cpicker.c ****  *      TYPEDEFS
  53:..\..\..\lvgl\version_6.1.2\lvgl\src\lv_objx/lv_cpicker.c ****  **********************/
  54:..\..\..\lvgl\version_6.1.2\lvgl\src\lv_objx/lv_cpicker.c **** 
  55:..\..\..\lvgl\version_6.1.2\lvgl\src\lv_objx/lv_cpicker.c **** /**********************
  56:..\..\..\lvgl\version_6.1.2\lvgl\src\lv_objx/lv_cpicker.c ****  *  STATIC PROTOTYPES
  57:..\..\..\lvgl\version_6.1.2\lvgl\src\lv_objx/lv_cpicker.c ****  **********************/
  58:..\..\..\lvgl\version_6.1.2\lvgl\src\lv_objx/lv_cpicker.c **** static bool lv_cpicker_design(lv_obj_t * cpicker, const lv_area_t * mask, lv_design_mode_t mode);
  59:..\..\..\lvgl\version_6.1.2\lvgl\src\lv_objx/lv_cpicker.c **** static lv_res_t lv_cpicker_signal(lv_obj_t * cpicker, lv_signal_t sign, void * param);
  60:..\..\..\lvgl\version_6.1.2\lvgl\src\lv_objx/lv_cpicker.c **** 
  61:..\..\..\lvgl\version_6.1.2\lvgl\src\lv_objx/lv_cpicker.c **** static void draw_rect_grad(lv_obj_t * cpicker, const lv_area_t * mask, lv_opa_t opa_scale);
ARM GAS  C:\Users\tmj32\AppData\Local\Temp\cc11CUDk.s 			page 15


  62:..\..\..\lvgl\version_6.1.2\lvgl\src\lv_objx/lv_cpicker.c **** static void draw_disc_grad(lv_obj_t * cpicker, const lv_area_t * mask, lv_opa_t opa_scale);
  63:..\..\..\lvgl\version_6.1.2\lvgl\src\lv_objx/lv_cpicker.c **** static void draw_indic(lv_obj_t * cpicker, const lv_area_t * mask, lv_opa_t opa_scale);
  64:..\..\..\lvgl\version_6.1.2\lvgl\src\lv_objx/lv_cpicker.c **** static void invalidate_indic(lv_obj_t * cpicker);
  65:..\..\..\lvgl\version_6.1.2\lvgl\src\lv_objx/lv_cpicker.c **** static lv_area_t get_indic_area(lv_obj_t * cpicker);
  66:..\..\..\lvgl\version_6.1.2\lvgl\src\lv_objx/lv_cpicker.c **** 
  67:..\..\..\lvgl\version_6.1.2\lvgl\src\lv_objx/lv_cpicker.c **** static void next_color_mode(lv_obj_t * cpicker);
  68:..\..\..\lvgl\version_6.1.2\lvgl\src\lv_objx/lv_cpicker.c **** static lv_res_t double_click_reset(lv_obj_t * cpicker);
  69:..\..\..\lvgl\version_6.1.2\lvgl\src\lv_objx/lv_cpicker.c **** static void refr_indic_pos(lv_obj_t * cpicker);
  70:..\..\..\lvgl\version_6.1.2\lvgl\src\lv_objx/lv_cpicker.c **** static lv_color_t angle_to_mode_color(lv_obj_t * cpicker, uint16_t angle);
  71:..\..\..\lvgl\version_6.1.2\lvgl\src\lv_objx/lv_cpicker.c **** static uint16_t get_angle(lv_obj_t * cpicker);
  72:..\..\..\lvgl\version_6.1.2\lvgl\src\lv_objx/lv_cpicker.c **** 
  73:..\..\..\lvgl\version_6.1.2\lvgl\src\lv_objx/lv_cpicker.c **** /**********************
  74:..\..\..\lvgl\version_6.1.2\lvgl\src\lv_objx/lv_cpicker.c ****  *  STATIC VARIABLES
  75:..\..\..\lvgl\version_6.1.2\lvgl\src\lv_objx/lv_cpicker.c ****  **********************/
  76:..\..\..\lvgl\version_6.1.2\lvgl\src\lv_objx/lv_cpicker.c **** static lv_signal_cb_t ancestor_signal;
  77:..\..\..\lvgl\version_6.1.2\lvgl\src\lv_objx/lv_cpicker.c **** static lv_design_cb_t ancestor_design;
  78:..\..\..\lvgl\version_6.1.2\lvgl\src\lv_objx/lv_cpicker.c **** 
  79:..\..\..\lvgl\version_6.1.2\lvgl\src\lv_objx/lv_cpicker.c **** /**********************
  80:..\..\..\lvgl\version_6.1.2\lvgl\src\lv_objx/lv_cpicker.c ****  *      MACROS
  81:..\..\..\lvgl\version_6.1.2\lvgl\src\lv_objx/lv_cpicker.c ****  **********************/
  82:..\..\..\lvgl\version_6.1.2\lvgl\src\lv_objx/lv_cpicker.c **** 
  83:..\..\..\lvgl\version_6.1.2\lvgl\src\lv_objx/lv_cpicker.c **** /**********************
  84:..\..\..\lvgl\version_6.1.2\lvgl\src\lv_objx/lv_cpicker.c ****  *   GLOBAL FUNCTIONS
  85:..\..\..\lvgl\version_6.1.2\lvgl\src\lv_objx/lv_cpicker.c ****  **********************/
  86:..\..\..\lvgl\version_6.1.2\lvgl\src\lv_objx/lv_cpicker.c **** 
  87:..\..\..\lvgl\version_6.1.2\lvgl\src\lv_objx/lv_cpicker.c **** /**
  88:..\..\..\lvgl\version_6.1.2\lvgl\src\lv_objx/lv_cpicker.c ****  * Create a color_picker object
  89:..\..\..\lvgl\version_6.1.2\lvgl\src\lv_objx/lv_cpicker.c ****  * @param par pointer to an object, it will be the parent of the new color_picker
  90:..\..\..\lvgl\version_6.1.2\lvgl\src\lv_objx/lv_cpicker.c ****  * @param copy pointer to a color_picker object, if not NULL then the new object will be copied fro
  91:..\..\..\lvgl\version_6.1.2\lvgl\src\lv_objx/lv_cpicker.c ****  * @return pointer to the created color_picker
  92:..\..\..\lvgl\version_6.1.2\lvgl\src\lv_objx/lv_cpicker.c ****  */
  93:..\..\..\lvgl\version_6.1.2\lvgl\src\lv_objx/lv_cpicker.c **** lv_obj_t * lv_cpicker_create(lv_obj_t * par, const lv_obj_t * copy)
  94:..\..\..\lvgl\version_6.1.2\lvgl\src\lv_objx/lv_cpicker.c **** {
 209              		.loc 3 94 0
 210              		.cfi_startproc
 211              		@ args = 0, pretend = 0, frame = 24
 212              		@ frame_needed = 1, uses_anonymous_args = 0
 213 0000 80B5     		push	{r7, lr}
 214              		.cfi_def_cfa_offset 8
 215              		.cfi_offset 7, -8
 216              		.cfi_offset 14, -4
 217 0002 86B0     		sub	sp, sp, #24
 218              		.cfi_def_cfa_offset 32
 219 0004 00AF     		add	r7, sp, #0
 220              		.cfi_def_cfa_register 7
 221 0006 7860     		str	r0, [r7, #4]
 222 0008 3960     		str	r1, [r7]
  95:..\..\..\lvgl\version_6.1.2\lvgl\src\lv_objx/lv_cpicker.c ****     LV_LOG_TRACE("color_picker create started");
  96:..\..\..\lvgl\version_6.1.2\lvgl\src\lv_objx/lv_cpicker.c **** 
  97:..\..\..\lvgl\version_6.1.2\lvgl\src\lv_objx/lv_cpicker.c ****     lv_obj_t * new_cpicker = lv_obj_create(par, copy);
 223              		.loc 3 97 0
 224 000a 3968     		ldr	r1, [r7]
 225 000c 7868     		ldr	r0, [r7, #4]
 226 000e FFF7FEFF 		bl	lv_obj_create
 227 0012 7861     		str	r0, [r7, #20]
  98:..\..\..\lvgl\version_6.1.2\lvgl\src\lv_objx/lv_cpicker.c ****     LV_ASSERT_MEM(new_cpicker);
  99:..\..\..\lvgl\version_6.1.2\lvgl\src\lv_objx/lv_cpicker.c ****     if(new_cpicker == NULL) return NULL;
ARM GAS  C:\Users\tmj32\AppData\Local\Temp\cc11CUDk.s 			page 16


 228              		.loc 3 99 0
 229 0014 7B69     		ldr	r3, [r7, #20]
 230 0016 002B     		cmp	r3, #0
 231 0018 01D1     		bne	.L9
 232              		.loc 3 99 0 is_stmt 0 discriminator 1
 233 001a 0023     		movs	r3, #0
 234 001c B2E0     		b	.L10
 235              	.L9:
 100:..\..\..\lvgl\version_6.1.2\lvgl\src\lv_objx/lv_cpicker.c **** 
 101:..\..\..\lvgl\version_6.1.2\lvgl\src\lv_objx/lv_cpicker.c ****     if(ancestor_signal == NULL) ancestor_signal = lv_obj_get_signal_cb(new_cpicker);
 236              		.loc 3 101 0 is_stmt 1
 237 001e 5B4B     		ldr	r3, .L18
 238 0020 1B68     		ldr	r3, [r3]
 239 0022 002B     		cmp	r3, #0
 240 0024 05D1     		bne	.L11
 241              		.loc 3 101 0 is_stmt 0 discriminator 1
 242 0026 7869     		ldr	r0, [r7, #20]
 243 0028 FFF7FEFF 		bl	lv_obj_get_signal_cb
 244 002c 0246     		mov	r2, r0
 245 002e 574B     		ldr	r3, .L18
 246 0030 1A60     		str	r2, [r3]
 247              	.L11:
 102:..\..\..\lvgl\version_6.1.2\lvgl\src\lv_objx/lv_cpicker.c ****     if(ancestor_design == NULL) ancestor_design = lv_obj_get_design_cb(new_cpicker);
 248              		.loc 3 102 0 is_stmt 1
 249 0032 574B     		ldr	r3, .L18+4
 250 0034 1B68     		ldr	r3, [r3]
 251 0036 002B     		cmp	r3, #0
 252 0038 05D1     		bne	.L12
 253              		.loc 3 102 0 is_stmt 0 discriminator 1
 254 003a 7869     		ldr	r0, [r7, #20]
 255 003c FFF7FEFF 		bl	lv_obj_get_design_cb
 256 0040 0246     		mov	r2, r0
 257 0042 534B     		ldr	r3, .L18+4
 258 0044 1A60     		str	r2, [r3]
 259              	.L12:
 103:..\..\..\lvgl\version_6.1.2\lvgl\src\lv_objx/lv_cpicker.c **** 
 104:..\..\..\lvgl\version_6.1.2\lvgl\src\lv_objx/lv_cpicker.c ****     /*Allocate the extended data*/
 105:..\..\..\lvgl\version_6.1.2\lvgl\src\lv_objx/lv_cpicker.c ****     lv_cpicker_ext_t * ext = lv_obj_allocate_ext_attr(new_cpicker, sizeof(lv_cpicker_ext_t));
 260              		.loc 3 105 0 is_stmt 1
 261 0046 2021     		movs	r1, #32
 262 0048 7869     		ldr	r0, [r7, #20]
 263 004a FFF7FEFF 		bl	lv_obj_allocate_ext_attr
 264 004e 3861     		str	r0, [r7, #16]
 106:..\..\..\lvgl\version_6.1.2\lvgl\src\lv_objx/lv_cpicker.c ****     LV_ASSERT_MEM(ext);
 107:..\..\..\lvgl\version_6.1.2\lvgl\src\lv_objx/lv_cpicker.c ****     if(ext == NULL) return NULL;
 265              		.loc 3 107 0
 266 0050 3B69     		ldr	r3, [r7, #16]
 267 0052 002B     		cmp	r3, #0
 268 0054 01D1     		bne	.L13
 269              		.loc 3 107 0 is_stmt 0 discriminator 1
 270 0056 0023     		movs	r3, #0
 271 0058 94E0     		b	.L10
 272              	.L13:
 108:..\..\..\lvgl\version_6.1.2\lvgl\src\lv_objx/lv_cpicker.c **** 
 109:..\..\..\lvgl\version_6.1.2\lvgl\src\lv_objx/lv_cpicker.c ****     /*Initialize the allocated 'ext' */
 110:..\..\..\lvgl\version_6.1.2\lvgl\src\lv_objx/lv_cpicker.c ****     ext->type = LV_CPICKER_DEF_TYPE;
 273              		.loc 3 110 0 is_stmt 1
ARM GAS  C:\Users\tmj32\AppData\Local\Temp\cc11CUDk.s 			page 17


 274 005a 3A69     		ldr	r2, [r7, #16]
 275 005c 137F     		ldrb	r3, [r2, #28]
 276 005e 43F00803 		orr	r3, r3, #8
 277 0062 1377     		strb	r3, [r2, #28]
 111:..\..\..\lvgl\version_6.1.2\lvgl\src\lv_objx/lv_cpicker.c ****     ext->hsv = LV_CPICKER_DEF_HSV;
 278              		.loc 3 111 0
 279 0064 3B69     		ldr	r3, [r7, #16]
 280 0066 4B4A     		ldr	r2, .L18+8
 281 0068 1068     		ldr	r0, [r2]	@ unaligned
 282 006a 1860     		str	r0, [r3]	@ unaligned
 112:..\..\..\lvgl\version_6.1.2\lvgl\src\lv_objx/lv_cpicker.c ****     ext->indic.style = &lv_style_plain;
 283              		.loc 3 112 0
 284 006c 3B69     		ldr	r3, [r7, #16]
 285 006e 4A4A     		ldr	r2, .L18+12
 286 0070 5A60     		str	r2, [r3, #4]
 113:..\..\..\lvgl\version_6.1.2\lvgl\src\lv_objx/lv_cpicker.c ****     ext->indic.colored = 0;
 287              		.loc 3 113 0
 288 0072 3A69     		ldr	r2, [r7, #16]
 289 0074 137B     		ldrb	r3, [r2, #12]
 290 0076 6FF30003 		bfc	r3, #0, #1
 291 007a 1373     		strb	r3, [r2, #12]
 114:..\..\..\lvgl\version_6.1.2\lvgl\src\lv_objx/lv_cpicker.c ****     ext->color_mode = LV_CPICKER_COLOR_MODE_HUE;
 292              		.loc 3 114 0
 293 007c 3A69     		ldr	r2, [r7, #16]
 294 007e 137F     		ldrb	r3, [r2, #28]
 295 0080 6FF30103 		bfc	r3, #0, #2
 296 0084 1377     		strb	r3, [r2, #28]
 115:..\..\..\lvgl\version_6.1.2\lvgl\src\lv_objx/lv_cpicker.c ****     ext->color_mode_fixed = 0;
 297              		.loc 3 115 0
 298 0086 3A69     		ldr	r2, [r7, #16]
 299 0088 137F     		ldrb	r3, [r2, #28]
 300 008a 6FF38203 		bfc	r3, #2, #1
 301 008e 1377     		strb	r3, [r2, #28]
 116:..\..\..\lvgl\version_6.1.2\lvgl\src\lv_objx/lv_cpicker.c ****     ext->preview = 0;
 302              		.loc 3 116 0
 303 0090 3A69     		ldr	r2, [r7, #16]
 304 0092 137F     		ldrb	r3, [r2, #28]
 305 0094 6FF30413 		bfc	r3, #4, #1
 306 0098 1377     		strb	r3, [r2, #28]
 117:..\..\..\lvgl\version_6.1.2\lvgl\src\lv_objx/lv_cpicker.c ****     ext->last_click_time = 0;
 307              		.loc 3 117 0
 308 009a 3B69     		ldr	r3, [r7, #16]
 309 009c 0022     		movs	r2, #0
 310 009e 1A61     		str	r2, [r3, #16]
 118:..\..\..\lvgl\version_6.1.2\lvgl\src\lv_objx/lv_cpicker.c ****     ext->last_change_time = 0;
 311              		.loc 3 118 0
 312 00a0 3B69     		ldr	r3, [r7, #16]
 313 00a2 0022     		movs	r2, #0
 314 00a4 5A61     		str	r2, [r3, #20]
 119:..\..\..\lvgl\version_6.1.2\lvgl\src\lv_objx/lv_cpicker.c **** 
 120:..\..\..\lvgl\version_6.1.2\lvgl\src\lv_objx/lv_cpicker.c ****     /*The signal and design functions are not copied so set them here*/
 121:..\..\..\lvgl\version_6.1.2\lvgl\src\lv_objx/lv_cpicker.c ****     lv_obj_set_signal_cb(new_cpicker, lv_cpicker_signal);
 315              		.loc 3 121 0
 316 00a6 3D49     		ldr	r1, .L18+16
 317 00a8 7869     		ldr	r0, [r7, #20]
 318 00aa FFF7FEFF 		bl	lv_obj_set_signal_cb
 122:..\..\..\lvgl\version_6.1.2\lvgl\src\lv_objx/lv_cpicker.c ****     lv_obj_set_design_cb(new_cpicker, lv_cpicker_design);
ARM GAS  C:\Users\tmj32\AppData\Local\Temp\cc11CUDk.s 			page 18


 319              		.loc 3 122 0
 320 00ae 3C49     		ldr	r1, .L18+20
 321 00b0 7869     		ldr	r0, [r7, #20]
 322 00b2 FFF7FEFF 		bl	lv_obj_set_design_cb
 123:..\..\..\lvgl\version_6.1.2\lvgl\src\lv_objx/lv_cpicker.c **** 
 124:..\..\..\lvgl\version_6.1.2\lvgl\src\lv_objx/lv_cpicker.c ****     /*If no copy do the basic initialization*/
 125:..\..\..\lvgl\version_6.1.2\lvgl\src\lv_objx/lv_cpicker.c ****     if(copy == NULL) {
 323              		.loc 3 125 0
 324 00b6 3B68     		ldr	r3, [r7]
 325 00b8 002B     		cmp	r3, #0
 326 00ba 1ED1     		bne	.L14
 327              	.LBB2:
 126:..\..\..\lvgl\version_6.1.2\lvgl\src\lv_objx/lv_cpicker.c ****         lv_obj_set_size(new_cpicker, LV_DPI * 2, LV_DPI * 2);
 328              		.loc 3 126 0
 329 00bc 4FF49672 		mov	r2, #300
 330 00c0 4FF49671 		mov	r1, #300
 331 00c4 7869     		ldr	r0, [r7, #20]
 332 00c6 FFF7FEFF 		bl	lv_obj_set_size
 127:..\..\..\lvgl\version_6.1.2\lvgl\src\lv_objx/lv_cpicker.c ****         lv_obj_set_protect(new_cpicker, LV_PROTECT_PRESS_LOST);
 333              		.loc 3 127 0
 334 00ca 1021     		movs	r1, #16
 335 00cc 7869     		ldr	r0, [r7, #20]
 336 00ce FFF7FEFF 		bl	lv_obj_set_protect
 128:..\..\..\lvgl\version_6.1.2\lvgl\src\lv_objx/lv_cpicker.c ****         lv_theme_t * th = lv_theme_get_current();
 337              		.loc 3 128 0
 338 00d2 FFF7FEFF 		bl	lv_theme_get_current
 339 00d6 F860     		str	r0, [r7, #12]
 129:..\..\..\lvgl\version_6.1.2\lvgl\src\lv_objx/lv_cpicker.c ****         if(th) {
 340              		.loc 3 129 0
 341 00d8 FB68     		ldr	r3, [r7, #12]
 342 00da 002B     		cmp	r3, #0
 343 00dc 07D0     		beq	.L15
 130:..\..\..\lvgl\version_6.1.2\lvgl\src\lv_objx/lv_cpicker.c ****             lv_cpicker_set_style(new_cpicker, LV_CPICKER_STYLE_MAIN, th->style.bg);
 344              		.loc 3 130 0
 345 00de FB68     		ldr	r3, [r7, #12]
 346 00e0 5B68     		ldr	r3, [r3, #4]
 347 00e2 1A46     		mov	r2, r3
 348 00e4 0021     		movs	r1, #0
 349 00e6 7869     		ldr	r0, [r7, #20]
 350 00e8 FFF7FEFF 		bl	lv_cpicker_set_style
 351 00ec 46E0     		b	.L17
 352              	.L15:
 131:..\..\..\lvgl\version_6.1.2\lvgl\src\lv_objx/lv_cpicker.c ****         } else {
 132:..\..\..\lvgl\version_6.1.2\lvgl\src\lv_objx/lv_cpicker.c ****             lv_cpicker_set_style(new_cpicker, LV_CPICKER_STYLE_MAIN, &lv_style_plain);
 353              		.loc 3 132 0
 354 00ee 2A4A     		ldr	r2, .L18+12
 355 00f0 0021     		movs	r1, #0
 356 00f2 7869     		ldr	r0, [r7, #20]
 357 00f4 FFF7FEFF 		bl	lv_cpicker_set_style
 358 00f8 40E0     		b	.L17
 359              	.L14:
 360              	.LBE2:
 361              	.LBB3:
 133:..\..\..\lvgl\version_6.1.2\lvgl\src\lv_objx/lv_cpicker.c ****         }
 134:..\..\..\lvgl\version_6.1.2\lvgl\src\lv_objx/lv_cpicker.c ****     }
 135:..\..\..\lvgl\version_6.1.2\lvgl\src\lv_objx/lv_cpicker.c ****     /*Copy 'copy'*/
 136:..\..\..\lvgl\version_6.1.2\lvgl\src\lv_objx/lv_cpicker.c ****     else {
ARM GAS  C:\Users\tmj32\AppData\Local\Temp\cc11CUDk.s 			page 19


 137:..\..\..\lvgl\version_6.1.2\lvgl\src\lv_objx/lv_cpicker.c ****         lv_cpicker_ext_t * copy_ext = lv_obj_get_ext_attr(copy);
 362              		.loc 3 137 0
 363 00fa 3868     		ldr	r0, [r7]
 364 00fc FFF7FEFF 		bl	lv_obj_get_ext_attr
 365 0100 B860     		str	r0, [r7, #8]
 138:..\..\..\lvgl\version_6.1.2\lvgl\src\lv_objx/lv_cpicker.c ****         ext->type = copy_ext->type;
 366              		.loc 3 138 0
 367 0102 BB68     		ldr	r3, [r7, #8]
 368 0104 1B7F     		ldrb	r3, [r3, #28]
 369 0106 C3F3C003 		ubfx	r3, r3, #3, #1
 370 010a D9B2     		uxtb	r1, r3
 371 010c 3A69     		ldr	r2, [r7, #16]
 372 010e 137F     		ldrb	r3, [r2, #28]
 373 0110 61F3C303 		bfi	r3, r1, #3, #1
 374 0114 1377     		strb	r3, [r2, #28]
 139:..\..\..\lvgl\version_6.1.2\lvgl\src\lv_objx/lv_cpicker.c ****         ext->color_mode = copy_ext->color_mode;
 375              		.loc 3 139 0
 376 0116 BB68     		ldr	r3, [r7, #8]
 377 0118 1B7F     		ldrb	r3, [r3, #28]
 378 011a C3F30103 		ubfx	r3, r3, #0, #2
 379 011e D9B2     		uxtb	r1, r3
 380 0120 3A69     		ldr	r2, [r7, #16]
 381 0122 137F     		ldrb	r3, [r2, #28]
 382 0124 61F30103 		bfi	r3, r1, #0, #2
 383 0128 1377     		strb	r3, [r2, #28]
 140:..\..\..\lvgl\version_6.1.2\lvgl\src\lv_objx/lv_cpicker.c ****         ext->color_mode_fixed = copy_ext->color_mode_fixed;
 384              		.loc 3 140 0
 385 012a BB68     		ldr	r3, [r7, #8]
 386 012c 1B7F     		ldrb	r3, [r3, #28]
 387 012e C3F38003 		ubfx	r3, r3, #2, #1
 388 0132 D9B2     		uxtb	r1, r3
 389 0134 3A69     		ldr	r2, [r7, #16]
 390 0136 137F     		ldrb	r3, [r2, #28]
 391 0138 61F38203 		bfi	r3, r1, #2, #1
 392 013c 1377     		strb	r3, [r2, #28]
 141:..\..\..\lvgl\version_6.1.2\lvgl\src\lv_objx/lv_cpicker.c ****         ext->preview = copy_ext->preview;
 393              		.loc 3 141 0
 394 013e BB68     		ldr	r3, [r7, #8]
 395 0140 1B7F     		ldrb	r3, [r3, #28]
 396 0142 C3F30013 		ubfx	r3, r3, #4, #1
 397 0146 D9B2     		uxtb	r1, r3
 398 0148 3A69     		ldr	r2, [r7, #16]
 399 014a 137F     		ldrb	r3, [r2, #28]
 400 014c 61F30413 		bfi	r3, r1, #4, #1
 401 0150 1377     		strb	r3, [r2, #28]
 142:..\..\..\lvgl\version_6.1.2\lvgl\src\lv_objx/lv_cpicker.c ****         ext->hsv = copy_ext->hsv;
 402              		.loc 3 142 0
 403 0152 3B69     		ldr	r3, [r7, #16]
 404 0154 BA68     		ldr	r2, [r7, #8]
 405 0156 1268     		ldr	r2, [r2]
 406 0158 1A60     		str	r2, [r3]
 143:..\..\..\lvgl\version_6.1.2\lvgl\src\lv_objx/lv_cpicker.c ****         ext->indic.colored = copy_ext->indic.colored;
 407              		.loc 3 143 0
 408 015a BB68     		ldr	r3, [r7, #8]
 409 015c 1B7B     		ldrb	r3, [r3, #12]
 410 015e C3F30003 		ubfx	r3, r3, #0, #1
 411 0162 D9B2     		uxtb	r1, r3
ARM GAS  C:\Users\tmj32\AppData\Local\Temp\cc11CUDk.s 			page 20


 412 0164 3A69     		ldr	r2, [r7, #16]
 413 0166 137B     		ldrb	r3, [r2, #12]
 414 0168 61F30003 		bfi	r3, r1, #0, #1
 415 016c 1373     		strb	r3, [r2, #12]
 144:..\..\..\lvgl\version_6.1.2\lvgl\src\lv_objx/lv_cpicker.c ****         ext->indic.style = copy_ext->indic.style;
 416              		.loc 3 144 0
 417 016e BB68     		ldr	r3, [r7, #8]
 418 0170 5A68     		ldr	r2, [r3, #4]
 419 0172 3B69     		ldr	r3, [r7, #16]
 420 0174 5A60     		str	r2, [r3, #4]
 145:..\..\..\lvgl\version_6.1.2\lvgl\src\lv_objx/lv_cpicker.c **** 
 146:..\..\..\lvgl\version_6.1.2\lvgl\src\lv_objx/lv_cpicker.c ****         /*Refresh the style with new signal function*/
 147:..\..\..\lvgl\version_6.1.2\lvgl\src\lv_objx/lv_cpicker.c ****         lv_obj_refresh_style(new_cpicker);
 421              		.loc 3 147 0
 422 0176 7869     		ldr	r0, [r7, #20]
 423 0178 FFF7FEFF 		bl	lv_obj_refresh_style
 424              	.L17:
 425              	.LBE3:
 148:..\..\..\lvgl\version_6.1.2\lvgl\src\lv_objx/lv_cpicker.c ****     }
 149:..\..\..\lvgl\version_6.1.2\lvgl\src\lv_objx/lv_cpicker.c ****     refr_indic_pos(new_cpicker);
 426              		.loc 3 149 0
 427 017c 7869     		ldr	r0, [r7, #20]
 428 017e FFF7FEFF 		bl	refr_indic_pos
 150:..\..\..\lvgl\version_6.1.2\lvgl\src\lv_objx/lv_cpicker.c **** 
 151:..\..\..\lvgl\version_6.1.2\lvgl\src\lv_objx/lv_cpicker.c ****     LV_LOG_INFO("color_picker created");
 152:..\..\..\lvgl\version_6.1.2\lvgl\src\lv_objx/lv_cpicker.c **** 
 153:..\..\..\lvgl\version_6.1.2\lvgl\src\lv_objx/lv_cpicker.c ****     return new_cpicker;
 429              		.loc 3 153 0
 430 0182 7B69     		ldr	r3, [r7, #20]
 431              	.L10:
 154:..\..\..\lvgl\version_6.1.2\lvgl\src\lv_objx/lv_cpicker.c **** }
 432              		.loc 3 154 0
 433 0184 1846     		mov	r0, r3
 434 0186 1837     		adds	r7, r7, #24
 435              		.cfi_def_cfa_offset 8
 436 0188 BD46     		mov	sp, r7
 437              		.cfi_def_cfa_register 13
 438              		@ sp needed
 439 018a 80BD     		pop	{r7, pc}
 440              	.L19:
 441              		.align	2
 442              	.L18:
 443 018c 00000000 		.word	ancestor_signal
 444 0190 04000000 		.word	ancestor_design
 445 0194 00000000 		.word	.LC0
 446 0198 00000000 		.word	lv_style_plain
 447 019c 00000000 		.word	lv_cpicker_signal
 448 01a0 00000000 		.word	lv_cpicker_design
 449              		.cfi_endproc
 450              	.LFE31:
 451              		.size	lv_cpicker_create, .-lv_cpicker_create
 452              		.section	.text.lv_cpicker_set_type,"ax",%progbits
 453              		.align	2
 454              		.global	lv_cpicker_set_type
 455              		.thumb
 456              		.thumb_func
 457              		.type	lv_cpicker_set_type, %function
ARM GAS  C:\Users\tmj32\AppData\Local\Temp\cc11CUDk.s 			page 21


 458              	lv_cpicker_set_type:
 459              	.LFB32:
 155:..\..\..\lvgl\version_6.1.2\lvgl\src\lv_objx/lv_cpicker.c **** 
 156:..\..\..\lvgl\version_6.1.2\lvgl\src\lv_objx/lv_cpicker.c **** /*=====================
 157:..\..\..\lvgl\version_6.1.2\lvgl\src\lv_objx/lv_cpicker.c ****  * Setter functions
 158:..\..\..\lvgl\version_6.1.2\lvgl\src\lv_objx/lv_cpicker.c ****  *====================*/
 159:..\..\..\lvgl\version_6.1.2\lvgl\src\lv_objx/lv_cpicker.c **** 
 160:..\..\..\lvgl\version_6.1.2\lvgl\src\lv_objx/lv_cpicker.c **** /**
 161:..\..\..\lvgl\version_6.1.2\lvgl\src\lv_objx/lv_cpicker.c ****  * Set a new type for a cpicker
 162:..\..\..\lvgl\version_6.1.2\lvgl\src\lv_objx/lv_cpicker.c ****  * @param cpicker pointer to a cpicker object
 163:..\..\..\lvgl\version_6.1.2\lvgl\src\lv_objx/lv_cpicker.c ****  * @param type new type of the cpicker (from 'lv_cpicker_type_t' enum)
 164:..\..\..\lvgl\version_6.1.2\lvgl\src\lv_objx/lv_cpicker.c ****  */
 165:..\..\..\lvgl\version_6.1.2\lvgl\src\lv_objx/lv_cpicker.c **** void lv_cpicker_set_type(lv_obj_t * cpicker, lv_cpicker_type_t type)
 166:..\..\..\lvgl\version_6.1.2\lvgl\src\lv_objx/lv_cpicker.c **** {
 460              		.loc 3 166 0
 461              		.cfi_startproc
 462              		@ args = 0, pretend = 0, frame = 16
 463              		@ frame_needed = 1, uses_anonymous_args = 0
 464 0000 80B5     		push	{r7, lr}
 465              		.cfi_def_cfa_offset 8
 466              		.cfi_offset 7, -8
 467              		.cfi_offset 14, -4
 468 0002 84B0     		sub	sp, sp, #16
 469              		.cfi_def_cfa_offset 24
 470 0004 00AF     		add	r7, sp, #0
 471              		.cfi_def_cfa_register 7
 472 0006 7860     		str	r0, [r7, #4]
 473 0008 0B46     		mov	r3, r1
 474 000a FB70     		strb	r3, [r7, #3]
 167:..\..\..\lvgl\version_6.1.2\lvgl\src\lv_objx/lv_cpicker.c ****     LV_ASSERT_OBJ(cpicker, LV_OBJX_NAME);
 168:..\..\..\lvgl\version_6.1.2\lvgl\src\lv_objx/lv_cpicker.c **** 
 169:..\..\..\lvgl\version_6.1.2\lvgl\src\lv_objx/lv_cpicker.c ****     lv_cpicker_ext_t * ext = lv_obj_get_ext_attr(cpicker);
 475              		.loc 3 169 0
 476 000c 7868     		ldr	r0, [r7, #4]
 477 000e FFF7FEFF 		bl	lv_obj_get_ext_attr
 478 0012 F860     		str	r0, [r7, #12]
 170:..\..\..\lvgl\version_6.1.2\lvgl\src\lv_objx/lv_cpicker.c ****     if(ext->type == type) return;
 479              		.loc 3 170 0
 480 0014 FB68     		ldr	r3, [r7, #12]
 481 0016 1B7F     		ldrb	r3, [r3, #28]
 482 0018 C3F3C003 		ubfx	r3, r3, #3, #1
 483 001c DBB2     		uxtb	r3, r3
 484 001e 1A46     		mov	r2, r3
 485 0020 FB78     		ldrb	r3, [r7, #3]	@ zero_extendqisi2
 486 0022 9A42     		cmp	r2, r3
 487 0024 12D0     		beq	.L23
 171:..\..\..\lvgl\version_6.1.2\lvgl\src\lv_objx/lv_cpicker.c **** 
 172:..\..\..\lvgl\version_6.1.2\lvgl\src\lv_objx/lv_cpicker.c ****     ext->type = type;
 488              		.loc 3 172 0
 489 0026 FB78     		ldrb	r3, [r7, #3]
 490 0028 03F00103 		and	r3, r3, #1
 491 002c D9B2     		uxtb	r1, r3
 492 002e FA68     		ldr	r2, [r7, #12]
 493 0030 137F     		ldrb	r3, [r2, #28]
 494 0032 61F3C303 		bfi	r3, r1, #3, #1
 495 0036 1377     		strb	r3, [r2, #28]
 173:..\..\..\lvgl\version_6.1.2\lvgl\src\lv_objx/lv_cpicker.c ****     lv_obj_refresh_ext_draw_pad(cpicker);
ARM GAS  C:\Users\tmj32\AppData\Local\Temp\cc11CUDk.s 			page 22


 496              		.loc 3 173 0
 497 0038 7868     		ldr	r0, [r7, #4]
 498 003a FFF7FEFF 		bl	lv_obj_refresh_ext_draw_pad
 174:..\..\..\lvgl\version_6.1.2\lvgl\src\lv_objx/lv_cpicker.c ****     refr_indic_pos(cpicker);
 499              		.loc 3 174 0
 500 003e 7868     		ldr	r0, [r7, #4]
 501 0040 FFF7FEFF 		bl	refr_indic_pos
 175:..\..\..\lvgl\version_6.1.2\lvgl\src\lv_objx/lv_cpicker.c **** 
 176:..\..\..\lvgl\version_6.1.2\lvgl\src\lv_objx/lv_cpicker.c ****     lv_obj_invalidate(cpicker);
 502              		.loc 3 176 0
 503 0044 7868     		ldr	r0, [r7, #4]
 504 0046 FFF7FEFF 		bl	lv_obj_invalidate
 505 004a 00E0     		b	.L20
 506              	.L23:
 170:..\..\..\lvgl\version_6.1.2\lvgl\src\lv_objx/lv_cpicker.c **** 
 507              		.loc 3 170 0
 508 004c 00BF     		nop
 509              	.L20:
 177:..\..\..\lvgl\version_6.1.2\lvgl\src\lv_objx/lv_cpicker.c **** }
 510              		.loc 3 177 0
 511 004e 1037     		adds	r7, r7, #16
 512              		.cfi_def_cfa_offset 8
 513 0050 BD46     		mov	sp, r7
 514              		.cfi_def_cfa_register 13
 515              		@ sp needed
 516 0052 80BD     		pop	{r7, pc}
 517              		.cfi_endproc
 518              	.LFE32:
 519              		.size	lv_cpicker_set_type, .-lv_cpicker_set_type
 520              		.section	.text.lv_cpicker_set_style,"ax",%progbits
 521              		.align	2
 522              		.global	lv_cpicker_set_style
 523              		.thumb
 524              		.thumb_func
 525              		.type	lv_cpicker_set_style, %function
 526              	lv_cpicker_set_style:
 527              	.LFB33:
 178:..\..\..\lvgl\version_6.1.2\lvgl\src\lv_objx/lv_cpicker.c **** 
 179:..\..\..\lvgl\version_6.1.2\lvgl\src\lv_objx/lv_cpicker.c **** /**
 180:..\..\..\lvgl\version_6.1.2\lvgl\src\lv_objx/lv_cpicker.c ****  * Set a style of a colorpicker.
 181:..\..\..\lvgl\version_6.1.2\lvgl\src\lv_objx/lv_cpicker.c ****  * @param cpicker pointer to colorpicker object
 182:..\..\..\lvgl\version_6.1.2\lvgl\src\lv_objx/lv_cpicker.c ****  * @param type which style should be set
 183:..\..\..\lvgl\version_6.1.2\lvgl\src\lv_objx/lv_cpicker.c ****  * @param style pointer to a style
 184:..\..\..\lvgl\version_6.1.2\lvgl\src\lv_objx/lv_cpicker.c ****  */
 185:..\..\..\lvgl\version_6.1.2\lvgl\src\lv_objx/lv_cpicker.c **** void lv_cpicker_set_style(lv_obj_t * cpicker, lv_cpicker_style_t type, lv_style_t * style)
 186:..\..\..\lvgl\version_6.1.2\lvgl\src\lv_objx/lv_cpicker.c **** {
 528              		.loc 3 186 0
 529              		.cfi_startproc
 530              		@ args = 0, pretend = 0, frame = 24
 531              		@ frame_needed = 1, uses_anonymous_args = 0
 532 0000 80B5     		push	{r7, lr}
 533              		.cfi_def_cfa_offset 8
 534              		.cfi_offset 7, -8
 535              		.cfi_offset 14, -4
 536 0002 86B0     		sub	sp, sp, #24
 537              		.cfi_def_cfa_offset 32
 538 0004 00AF     		add	r7, sp, #0
ARM GAS  C:\Users\tmj32\AppData\Local\Temp\cc11CUDk.s 			page 23


 539              		.cfi_def_cfa_register 7
 540 0006 F860     		str	r0, [r7, #12]
 541 0008 0B46     		mov	r3, r1
 542 000a 7A60     		str	r2, [r7, #4]
 543 000c FB72     		strb	r3, [r7, #11]
 187:..\..\..\lvgl\version_6.1.2\lvgl\src\lv_objx/lv_cpicker.c ****     LV_ASSERT_OBJ(cpicker, LV_OBJX_NAME);
 188:..\..\..\lvgl\version_6.1.2\lvgl\src\lv_objx/lv_cpicker.c **** 
 189:..\..\..\lvgl\version_6.1.2\lvgl\src\lv_objx/lv_cpicker.c ****     lv_cpicker_ext_t * ext = lv_obj_get_ext_attr(cpicker);
 544              		.loc 3 189 0
 545 000e F868     		ldr	r0, [r7, #12]
 546 0010 FFF7FEFF 		bl	lv_obj_get_ext_attr
 547 0014 7861     		str	r0, [r7, #20]
 190:..\..\..\lvgl\version_6.1.2\lvgl\src\lv_objx/lv_cpicker.c **** 
 191:..\..\..\lvgl\version_6.1.2\lvgl\src\lv_objx/lv_cpicker.c ****     switch(type) {
 548              		.loc 3 191 0
 549 0016 FB7A     		ldrb	r3, [r7, #11]	@ zero_extendqisi2
 550 0018 002B     		cmp	r3, #0
 551 001a 02D0     		beq	.L26
 552 001c 012B     		cmp	r3, #1
 553 001e 05D0     		beq	.L27
 192:..\..\..\lvgl\version_6.1.2\lvgl\src\lv_objx/lv_cpicker.c ****     case LV_CPICKER_STYLE_MAIN:
 193:..\..\..\lvgl\version_6.1.2\lvgl\src\lv_objx/lv_cpicker.c ****         lv_obj_set_style(cpicker, style);
 194:..\..\..\lvgl\version_6.1.2\lvgl\src\lv_objx/lv_cpicker.c ****         break;
 195:..\..\..\lvgl\version_6.1.2\lvgl\src\lv_objx/lv_cpicker.c ****     case LV_CPICKER_STYLE_INDICATOR:
 196:..\..\..\lvgl\version_6.1.2\lvgl\src\lv_objx/lv_cpicker.c ****         ext->indic.style = style;
 197:..\..\..\lvgl\version_6.1.2\lvgl\src\lv_objx/lv_cpicker.c ****         lv_obj_invalidate(cpicker);
 198:..\..\..\lvgl\version_6.1.2\lvgl\src\lv_objx/lv_cpicker.c ****         break;
 199:..\..\..\lvgl\version_6.1.2\lvgl\src\lv_objx/lv_cpicker.c ****     }
 200:..\..\..\lvgl\version_6.1.2\lvgl\src\lv_objx/lv_cpicker.c **** }
 554              		.loc 3 200 0
 555 0020 0BE0     		b	.L28
 556              	.L26:
 193:..\..\..\lvgl\version_6.1.2\lvgl\src\lv_objx/lv_cpicker.c ****         break;
 557              		.loc 3 193 0
 558 0022 7968     		ldr	r1, [r7, #4]
 559 0024 F868     		ldr	r0, [r7, #12]
 560 0026 FFF7FEFF 		bl	lv_obj_set_style
 194:..\..\..\lvgl\version_6.1.2\lvgl\src\lv_objx/lv_cpicker.c ****     case LV_CPICKER_STYLE_INDICATOR:
 561              		.loc 3 194 0
 562 002a 06E0     		b	.L25
 563              	.L27:
 196:..\..\..\lvgl\version_6.1.2\lvgl\src\lv_objx/lv_cpicker.c ****         lv_obj_invalidate(cpicker);
 564              		.loc 3 196 0
 565 002c 7B69     		ldr	r3, [r7, #20]
 566 002e 7A68     		ldr	r2, [r7, #4]
 567 0030 5A60     		str	r2, [r3, #4]
 197:..\..\..\lvgl\version_6.1.2\lvgl\src\lv_objx/lv_cpicker.c ****         break;
 568              		.loc 3 197 0
 569 0032 F868     		ldr	r0, [r7, #12]
 570 0034 FFF7FEFF 		bl	lv_obj_invalidate
 198:..\..\..\lvgl\version_6.1.2\lvgl\src\lv_objx/lv_cpicker.c ****     }
 571              		.loc 3 198 0
 572 0038 00BF     		nop
 573              	.L25:
 574              	.L28:
 575              		.loc 3 200 0
 576 003a 00BF     		nop
ARM GAS  C:\Users\tmj32\AppData\Local\Temp\cc11CUDk.s 			page 24


 577 003c 1837     		adds	r7, r7, #24
 578              		.cfi_def_cfa_offset 8
 579 003e BD46     		mov	sp, r7
 580              		.cfi_def_cfa_register 13
 581              		@ sp needed
 582 0040 80BD     		pop	{r7, pc}
 583              		.cfi_endproc
 584              	.LFE33:
 585              		.size	lv_cpicker_set_style, .-lv_cpicker_set_style
 586              		.section	.text.lv_cpicker_set_hue,"ax",%progbits
 587              		.align	2
 588              		.global	lv_cpicker_set_hue
 589              		.thumb
 590              		.thumb_func
 591              		.type	lv_cpicker_set_hue, %function
 592              	lv_cpicker_set_hue:
 593              	.LFB34:
 201:..\..\..\lvgl\version_6.1.2\lvgl\src\lv_objx/lv_cpicker.c **** 
 202:..\..\..\lvgl\version_6.1.2\lvgl\src\lv_objx/lv_cpicker.c **** /**
 203:..\..\..\lvgl\version_6.1.2\lvgl\src\lv_objx/lv_cpicker.c ****  * Set the current hue of a colorpicker.
 204:..\..\..\lvgl\version_6.1.2\lvgl\src\lv_objx/lv_cpicker.c ****  * @param cpicker pointer to colorpicker object
 205:..\..\..\lvgl\version_6.1.2\lvgl\src\lv_objx/lv_cpicker.c ****  * @param hue current selected hue [0..360]
 206:..\..\..\lvgl\version_6.1.2\lvgl\src\lv_objx/lv_cpicker.c ****  * @return true if changed, otherwise false
 207:..\..\..\lvgl\version_6.1.2\lvgl\src\lv_objx/lv_cpicker.c ****  */
 208:..\..\..\lvgl\version_6.1.2\lvgl\src\lv_objx/lv_cpicker.c **** bool lv_cpicker_set_hue(lv_obj_t * cpicker, uint16_t hue)
 209:..\..\..\lvgl\version_6.1.2\lvgl\src\lv_objx/lv_cpicker.c **** {
 594              		.loc 3 209 0
 595              		.cfi_startproc
 596              		@ args = 0, pretend = 0, frame = 16
 597              		@ frame_needed = 1, uses_anonymous_args = 0
 598 0000 80B5     		push	{r7, lr}
 599              		.cfi_def_cfa_offset 8
 600              		.cfi_offset 7, -8
 601              		.cfi_offset 14, -4
 602 0002 84B0     		sub	sp, sp, #16
 603              		.cfi_def_cfa_offset 24
 604 0004 00AF     		add	r7, sp, #0
 605              		.cfi_def_cfa_register 7
 606 0006 7860     		str	r0, [r7, #4]
 607 0008 0B46     		mov	r3, r1
 608 000a 7B80     		strh	r3, [r7, #2]	@ movhi
 210:..\..\..\lvgl\version_6.1.2\lvgl\src\lv_objx/lv_cpicker.c ****     lv_color_hsv_t hsv = lv_cpicker_get_hsv(cpicker);
 609              		.loc 3 210 0
 610 000c 7868     		ldr	r0, [r7, #4]
 611 000e FFF7FEFF 		bl	lv_cpicker_get_hsv
 612 0012 0346     		mov	r3, r0
 613 0014 FB60     		str	r3, [r7, #12]
 211:..\..\..\lvgl\version_6.1.2\lvgl\src\lv_objx/lv_cpicker.c ****     hsv.h = hue;
 614              		.loc 3 211 0
 615 0016 7B88     		ldrh	r3, [r7, #2]	@ movhi
 616 0018 BB81     		strh	r3, [r7, #12]	@ movhi
 212:..\..\..\lvgl\version_6.1.2\lvgl\src\lv_objx/lv_cpicker.c ****     return lv_cpicker_set_hsv(cpicker, hsv);
 617              		.loc 3 212 0
 618 001a F968     		ldr	r1, [r7, #12]
 619 001c 7868     		ldr	r0, [r7, #4]
 620 001e FFF7FEFF 		bl	lv_cpicker_set_hsv
 621 0022 0346     		mov	r3, r0
ARM GAS  C:\Users\tmj32\AppData\Local\Temp\cc11CUDk.s 			page 25


 213:..\..\..\lvgl\version_6.1.2\lvgl\src\lv_objx/lv_cpicker.c **** }
 622              		.loc 3 213 0
 623 0024 1846     		mov	r0, r3
 624 0026 1037     		adds	r7, r7, #16
 625              		.cfi_def_cfa_offset 8
 626 0028 BD46     		mov	sp, r7
 627              		.cfi_def_cfa_register 13
 628              		@ sp needed
 629 002a 80BD     		pop	{r7, pc}
 630              		.cfi_endproc
 631              	.LFE34:
 632              		.size	lv_cpicker_set_hue, .-lv_cpicker_set_hue
 633              		.section	.text.lv_cpicker_set_saturation,"ax",%progbits
 634              		.align	2
 635              		.global	lv_cpicker_set_saturation
 636              		.thumb
 637              		.thumb_func
 638              		.type	lv_cpicker_set_saturation, %function
 639              	lv_cpicker_set_saturation:
 640              	.LFB35:
 214:..\..\..\lvgl\version_6.1.2\lvgl\src\lv_objx/lv_cpicker.c **** 
 215:..\..\..\lvgl\version_6.1.2\lvgl\src\lv_objx/lv_cpicker.c **** /**
 216:..\..\..\lvgl\version_6.1.2\lvgl\src\lv_objx/lv_cpicker.c ****  * Set the current saturation of a colorpicker.
 217:..\..\..\lvgl\version_6.1.2\lvgl\src\lv_objx/lv_cpicker.c ****  * @param cpicker pointer to colorpicker object
 218:..\..\..\lvgl\version_6.1.2\lvgl\src\lv_objx/lv_cpicker.c ****  * @param saturation current selected saturation [0..100]
 219:..\..\..\lvgl\version_6.1.2\lvgl\src\lv_objx/lv_cpicker.c ****  * @return true if changed, otherwise false
 220:..\..\..\lvgl\version_6.1.2\lvgl\src\lv_objx/lv_cpicker.c ****  */
 221:..\..\..\lvgl\version_6.1.2\lvgl\src\lv_objx/lv_cpicker.c **** bool lv_cpicker_set_saturation(lv_obj_t * cpicker, uint8_t saturation)
 222:..\..\..\lvgl\version_6.1.2\lvgl\src\lv_objx/lv_cpicker.c **** {
 641              		.loc 3 222 0
 642              		.cfi_startproc
 643              		@ args = 0, pretend = 0, frame = 16
 644              		@ frame_needed = 1, uses_anonymous_args = 0
 645 0000 80B5     		push	{r7, lr}
 646              		.cfi_def_cfa_offset 8
 647              		.cfi_offset 7, -8
 648              		.cfi_offset 14, -4
 649 0002 84B0     		sub	sp, sp, #16
 650              		.cfi_def_cfa_offset 24
 651 0004 00AF     		add	r7, sp, #0
 652              		.cfi_def_cfa_register 7
 653 0006 7860     		str	r0, [r7, #4]
 654 0008 0B46     		mov	r3, r1
 655 000a FB70     		strb	r3, [r7, #3]
 223:..\..\..\lvgl\version_6.1.2\lvgl\src\lv_objx/lv_cpicker.c ****     lv_color_hsv_t hsv = lv_cpicker_get_hsv(cpicker);
 656              		.loc 3 223 0
 657 000c 7868     		ldr	r0, [r7, #4]
 658 000e FFF7FEFF 		bl	lv_cpicker_get_hsv
 659 0012 0346     		mov	r3, r0
 660 0014 FB60     		str	r3, [r7, #12]
 224:..\..\..\lvgl\version_6.1.2\lvgl\src\lv_objx/lv_cpicker.c ****     hsv.s = saturation;
 661              		.loc 3 224 0
 662 0016 FB78     		ldrb	r3, [r7, #3]
 663 0018 BB73     		strb	r3, [r7, #14]
 225:..\..\..\lvgl\version_6.1.2\lvgl\src\lv_objx/lv_cpicker.c ****     return lv_cpicker_set_hsv(cpicker, hsv);
 664              		.loc 3 225 0
 665 001a F968     		ldr	r1, [r7, #12]
ARM GAS  C:\Users\tmj32\AppData\Local\Temp\cc11CUDk.s 			page 26


 666 001c 7868     		ldr	r0, [r7, #4]
 667 001e FFF7FEFF 		bl	lv_cpicker_set_hsv
 668 0022 0346     		mov	r3, r0
 226:..\..\..\lvgl\version_6.1.2\lvgl\src\lv_objx/lv_cpicker.c **** }
 669              		.loc 3 226 0
 670 0024 1846     		mov	r0, r3
 671 0026 1037     		adds	r7, r7, #16
 672              		.cfi_def_cfa_offset 8
 673 0028 BD46     		mov	sp, r7
 674              		.cfi_def_cfa_register 13
 675              		@ sp needed
 676 002a 80BD     		pop	{r7, pc}
 677              		.cfi_endproc
 678              	.LFE35:
 679              		.size	lv_cpicker_set_saturation, .-lv_cpicker_set_saturation
 680              		.section	.text.lv_cpicker_set_value,"ax",%progbits
 681              		.align	2
 682              		.global	lv_cpicker_set_value
 683              		.thumb
 684              		.thumb_func
 685              		.type	lv_cpicker_set_value, %function
 686              	lv_cpicker_set_value:
 687              	.LFB36:
 227:..\..\..\lvgl\version_6.1.2\lvgl\src\lv_objx/lv_cpicker.c **** 
 228:..\..\..\lvgl\version_6.1.2\lvgl\src\lv_objx/lv_cpicker.c **** /**
 229:..\..\..\lvgl\version_6.1.2\lvgl\src\lv_objx/lv_cpicker.c ****  * Set the current value of a colorpicker.
 230:..\..\..\lvgl\version_6.1.2\lvgl\src\lv_objx/lv_cpicker.c ****  * @param cpicker pointer to colorpicker object
 231:..\..\..\lvgl\version_6.1.2\lvgl\src\lv_objx/lv_cpicker.c ****  * @param val current selected value [0..100]
 232:..\..\..\lvgl\version_6.1.2\lvgl\src\lv_objx/lv_cpicker.c ****  * @return true if changed, otherwise false
 233:..\..\..\lvgl\version_6.1.2\lvgl\src\lv_objx/lv_cpicker.c ****  */
 234:..\..\..\lvgl\version_6.1.2\lvgl\src\lv_objx/lv_cpicker.c **** bool lv_cpicker_set_value(lv_obj_t * cpicker, uint8_t val)
 235:..\..\..\lvgl\version_6.1.2\lvgl\src\lv_objx/lv_cpicker.c **** {
 688              		.loc 3 235 0
 689              		.cfi_startproc
 690              		@ args = 0, pretend = 0, frame = 16
 691              		@ frame_needed = 1, uses_anonymous_args = 0
 692 0000 80B5     		push	{r7, lr}
 693              		.cfi_def_cfa_offset 8
 694              		.cfi_offset 7, -8
 695              		.cfi_offset 14, -4
 696 0002 84B0     		sub	sp, sp, #16
 697              		.cfi_def_cfa_offset 24
 698 0004 00AF     		add	r7, sp, #0
 699              		.cfi_def_cfa_register 7
 700 0006 7860     		str	r0, [r7, #4]
 701 0008 0B46     		mov	r3, r1
 702 000a FB70     		strb	r3, [r7, #3]
 236:..\..\..\lvgl\version_6.1.2\lvgl\src\lv_objx/lv_cpicker.c ****     lv_color_hsv_t hsv = lv_cpicker_get_hsv(cpicker);
 703              		.loc 3 236 0
 704 000c 7868     		ldr	r0, [r7, #4]
 705 000e FFF7FEFF 		bl	lv_cpicker_get_hsv
 706 0012 0346     		mov	r3, r0
 707 0014 FB60     		str	r3, [r7, #12]
 237:..\..\..\lvgl\version_6.1.2\lvgl\src\lv_objx/lv_cpicker.c ****     hsv.v = val;
 708              		.loc 3 237 0
 709 0016 FB78     		ldrb	r3, [r7, #3]
 710 0018 FB73     		strb	r3, [r7, #15]
ARM GAS  C:\Users\tmj32\AppData\Local\Temp\cc11CUDk.s 			page 27


 238:..\..\..\lvgl\version_6.1.2\lvgl\src\lv_objx/lv_cpicker.c ****     return lv_cpicker_set_hsv(cpicker, hsv);
 711              		.loc 3 238 0
 712 001a F968     		ldr	r1, [r7, #12]
 713 001c 7868     		ldr	r0, [r7, #4]
 714 001e FFF7FEFF 		bl	lv_cpicker_set_hsv
 715 0022 0346     		mov	r3, r0
 239:..\..\..\lvgl\version_6.1.2\lvgl\src\lv_objx/lv_cpicker.c **** }
 716              		.loc 3 239 0
 717 0024 1846     		mov	r0, r3
 718 0026 1037     		adds	r7, r7, #16
 719              		.cfi_def_cfa_offset 8
 720 0028 BD46     		mov	sp, r7
 721              		.cfi_def_cfa_register 13
 722              		@ sp needed
 723 002a 80BD     		pop	{r7, pc}
 724              		.cfi_endproc
 725              	.LFE36:
 726              		.size	lv_cpicker_set_value, .-lv_cpicker_set_value
 727              		.section	.text.lv_cpicker_set_hsv,"ax",%progbits
 728              		.align	2
 729              		.global	lv_cpicker_set_hsv
 730              		.thumb
 731              		.thumb_func
 732              		.type	lv_cpicker_set_hsv, %function
 733              	lv_cpicker_set_hsv:
 734              	.LFB37:
 240:..\..\..\lvgl\version_6.1.2\lvgl\src\lv_objx/lv_cpicker.c **** 
 241:..\..\..\lvgl\version_6.1.2\lvgl\src\lv_objx/lv_cpicker.c **** /**
 242:..\..\..\lvgl\version_6.1.2\lvgl\src\lv_objx/lv_cpicker.c ****  * Set the current hsv of a colorpicker.
 243:..\..\..\lvgl\version_6.1.2\lvgl\src\lv_objx/lv_cpicker.c ****  * @param cpicker pointer to colorpicker object
 244:..\..\..\lvgl\version_6.1.2\lvgl\src\lv_objx/lv_cpicker.c ****  * @param color current selected hsv
 245:..\..\..\lvgl\version_6.1.2\lvgl\src\lv_objx/lv_cpicker.c ****  * @return true if changed, otherwise false
 246:..\..\..\lvgl\version_6.1.2\lvgl\src\lv_objx/lv_cpicker.c ****  */
 247:..\..\..\lvgl\version_6.1.2\lvgl\src\lv_objx/lv_cpicker.c **** bool lv_cpicker_set_hsv(lv_obj_t * cpicker, lv_color_hsv_t hsv)
 248:..\..\..\lvgl\version_6.1.2\lvgl\src\lv_objx/lv_cpicker.c **** {
 735              		.loc 3 248 0
 736              		.cfi_startproc
 737              		@ args = 0, pretend = 0, frame = 16
 738              		@ frame_needed = 1, uses_anonymous_args = 0
 739 0000 80B5     		push	{r7, lr}
 740              		.cfi_def_cfa_offset 8
 741              		.cfi_offset 7, -8
 742              		.cfi_offset 14, -4
 743 0002 84B0     		sub	sp, sp, #16
 744              		.cfi_def_cfa_offset 24
 745 0004 00AF     		add	r7, sp, #0
 746              		.cfi_def_cfa_register 7
 747 0006 7860     		str	r0, [r7, #4]
 748 0008 3960     		str	r1, [r7]
 249:..\..\..\lvgl\version_6.1.2\lvgl\src\lv_objx/lv_cpicker.c ****     LV_ASSERT_OBJ(cpicker, LV_OBJX_NAME);
 250:..\..\..\lvgl\version_6.1.2\lvgl\src\lv_objx/lv_cpicker.c **** 
 251:..\..\..\lvgl\version_6.1.2\lvgl\src\lv_objx/lv_cpicker.c ****     if (hsv.h > 360) hsv.h %= 360;
 749              		.loc 3 251 0
 750 000a 3B88     		ldrh	r3, [r7]
 751 000c B3F5B47F 		cmp	r3, #360
 752 0010 0CD9     		bls	.L36
 753              		.loc 3 251 0 is_stmt 0 discriminator 1
ARM GAS  C:\Users\tmj32\AppData\Local\Temp\cc11CUDk.s 			page 28


 754 0012 3B88     		ldrh	r3, [r7]
 755 0014 DA08     		lsrs	r2, r3, #3
 756 0016 2349     		ldr	r1, .L42
 757 0018 A1FB0212 		umull	r1, r2, r1, r2
 758 001c 9208     		lsrs	r2, r2, #2
 759 001e 4FF4B471 		mov	r1, #360
 760 0022 01FB02F2 		mul	r2, r1, r2
 761 0026 9B1A     		subs	r3, r3, r2
 762 0028 9BB2     		uxth	r3, r3
 763 002a 3B80     		strh	r3, [r7]	@ movhi
 764              	.L36:
 252:..\..\..\lvgl\version_6.1.2\lvgl\src\lv_objx/lv_cpicker.c ****     if (hsv.s > 100) hsv.s = 100;
 765              		.loc 3 252 0 is_stmt 1
 766 002c BB78     		ldrb	r3, [r7, #2]	@ zero_extendqisi2
 767 002e 642B     		cmp	r3, #100
 768 0030 01D9     		bls	.L37
 769              		.loc 3 252 0 is_stmt 0 discriminator 1
 770 0032 6423     		movs	r3, #100
 771 0034 BB70     		strb	r3, [r7, #2]
 772              	.L37:
 253:..\..\..\lvgl\version_6.1.2\lvgl\src\lv_objx/lv_cpicker.c ****     if (hsv.v > 100) hsv.v = 100;
 773              		.loc 3 253 0 is_stmt 1
 774 0036 FB78     		ldrb	r3, [r7, #3]	@ zero_extendqisi2
 775 0038 642B     		cmp	r3, #100
 776 003a 01D9     		bls	.L38
 777              		.loc 3 253 0 is_stmt 0 discriminator 1
 778 003c 6423     		movs	r3, #100
 779 003e FB70     		strb	r3, [r7, #3]
 780              	.L38:
 254:..\..\..\lvgl\version_6.1.2\lvgl\src\lv_objx/lv_cpicker.c **** 
 255:..\..\..\lvgl\version_6.1.2\lvgl\src\lv_objx/lv_cpicker.c ****     lv_cpicker_ext_t * ext = lv_obj_get_ext_attr(cpicker);
 781              		.loc 3 255 0 is_stmt 1
 782 0040 7868     		ldr	r0, [r7, #4]
 783 0042 FFF7FEFF 		bl	lv_obj_get_ext_attr
 784 0046 F860     		str	r0, [r7, #12]
 256:..\..\..\lvgl\version_6.1.2\lvgl\src\lv_objx/lv_cpicker.c **** 
 257:..\..\..\lvgl\version_6.1.2\lvgl\src\lv_objx/lv_cpicker.c ****     if (ext->hsv.h == hsv.h && ext->hsv.s == hsv.s && ext->hsv.v == hsv.v) return false;
 785              		.loc 3 257 0
 786 0048 FB68     		ldr	r3, [r7, #12]
 787 004a 1A88     		ldrh	r2, [r3]
 788 004c 3B88     		ldrh	r3, [r7]
 789 004e 9A42     		cmp	r2, r3
 790 0050 0BD1     		bne	.L39
 791              		.loc 3 257 0 is_stmt 0 discriminator 1
 792 0052 FB68     		ldr	r3, [r7, #12]
 793 0054 9A78     		ldrb	r2, [r3, #2]	@ zero_extendqisi2
 794 0056 BB78     		ldrb	r3, [r7, #2]	@ zero_extendqisi2
 795 0058 9A42     		cmp	r2, r3
 796 005a 06D1     		bne	.L39
 797              		.loc 3 257 0 discriminator 2
 798 005c FB68     		ldr	r3, [r7, #12]
 799 005e DA78     		ldrb	r2, [r3, #3]	@ zero_extendqisi2
 800 0060 FB78     		ldrb	r3, [r7, #3]	@ zero_extendqisi2
 801 0062 9A42     		cmp	r2, r3
 802 0064 01D1     		bne	.L39
 803              		.loc 3 257 0 discriminator 3
 804 0066 0023     		movs	r3, #0
ARM GAS  C:\Users\tmj32\AppData\Local\Temp\cc11CUDk.s 			page 29


 805 0068 17E0     		b	.L40
 806              	.L39:
 258:..\..\..\lvgl\version_6.1.2\lvgl\src\lv_objx/lv_cpicker.c **** 
 259:..\..\..\lvgl\version_6.1.2\lvgl\src\lv_objx/lv_cpicker.c ****     ext->hsv = hsv;
 807              		.loc 3 259 0 is_stmt 1
 808 006a FB68     		ldr	r3, [r7, #12]
 809 006c 3A68     		ldr	r2, [r7]
 810 006e 1A60     		str	r2, [r3]
 260:..\..\..\lvgl\version_6.1.2\lvgl\src\lv_objx/lv_cpicker.c **** 
 261:..\..\..\lvgl\version_6.1.2\lvgl\src\lv_objx/lv_cpicker.c ****     refr_indic_pos(cpicker);
 811              		.loc 3 261 0
 812 0070 7868     		ldr	r0, [r7, #4]
 813 0072 FFF7FEFF 		bl	refr_indic_pos
 262:..\..\..\lvgl\version_6.1.2\lvgl\src\lv_objx/lv_cpicker.c **** 
 263:..\..\..\lvgl\version_6.1.2\lvgl\src\lv_objx/lv_cpicker.c ****     if (ext->preview && ext->type == LV_CPICKER_TYPE_DISC) {
 814              		.loc 3 263 0
 815 0076 FB68     		ldr	r3, [r7, #12]
 816 0078 1B7F     		ldrb	r3, [r3, #28]	@ zero_extendqisi2
 817 007a 03F01003 		and	r3, r3, #16
 818 007e DBB2     		uxtb	r3, r3
 819 0080 002B     		cmp	r3, #0
 820 0082 09D0     		beq	.L41
 821              		.loc 3 263 0 is_stmt 0 discriminator 1
 822 0084 FB68     		ldr	r3, [r7, #12]
 823 0086 1B7F     		ldrb	r3, [r3, #28]	@ zero_extendqisi2
 824 0088 03F00803 		and	r3, r3, #8
 825 008c DBB2     		uxtb	r3, r3
 826 008e 002B     		cmp	r3, #0
 827 0090 02D0     		beq	.L41
 264:..\..\..\lvgl\version_6.1.2\lvgl\src\lv_objx/lv_cpicker.c ****         lv_obj_invalidate(cpicker);
 828              		.loc 3 264 0 is_stmt 1
 829 0092 7868     		ldr	r0, [r7, #4]
 830 0094 FFF7FEFF 		bl	lv_obj_invalidate
 831              	.L41:
 265:..\..\..\lvgl\version_6.1.2\lvgl\src\lv_objx/lv_cpicker.c ****     }
 266:..\..\..\lvgl\version_6.1.2\lvgl\src\lv_objx/lv_cpicker.c **** 
 267:..\..\..\lvgl\version_6.1.2\lvgl\src\lv_objx/lv_cpicker.c ****     return true;
 832              		.loc 3 267 0
 833 0098 0123     		movs	r3, #1
 834              	.L40:
 268:..\..\..\lvgl\version_6.1.2\lvgl\src\lv_objx/lv_cpicker.c **** }
 835              		.loc 3 268 0
 836 009a 1846     		mov	r0, r3
 837 009c 1037     		adds	r7, r7, #16
 838              		.cfi_def_cfa_offset 8
 839 009e BD46     		mov	sp, r7
 840              		.cfi_def_cfa_register 13
 841              		@ sp needed
 842 00a0 80BD     		pop	{r7, pc}
 843              	.L43:
 844 00a2 00BF     		.align	2
 845              	.L42:
 846 00a4 176CC116 		.word	381774871
 847              		.cfi_endproc
 848              	.LFE37:
 849              		.size	lv_cpicker_set_hsv, .-lv_cpicker_set_hsv
 850              		.section	.text.lv_cpicker_set_color,"ax",%progbits
ARM GAS  C:\Users\tmj32\AppData\Local\Temp\cc11CUDk.s 			page 30


 851              		.align	2
 852              		.global	lv_cpicker_set_color
 853              		.thumb
 854              		.thumb_func
 855              		.type	lv_cpicker_set_color, %function
 856              	lv_cpicker_set_color:
 857              	.LFB38:
 269:..\..\..\lvgl\version_6.1.2\lvgl\src\lv_objx/lv_cpicker.c **** 
 270:..\..\..\lvgl\version_6.1.2\lvgl\src\lv_objx/lv_cpicker.c **** /**
 271:..\..\..\lvgl\version_6.1.2\lvgl\src\lv_objx/lv_cpicker.c ****  * Set the current color of a colorpicker.
 272:..\..\..\lvgl\version_6.1.2\lvgl\src\lv_objx/lv_cpicker.c ****  * @param cpicker pointer to colorpicker object
 273:..\..\..\lvgl\version_6.1.2\lvgl\src\lv_objx/lv_cpicker.c ****  * @param color current selected color
 274:..\..\..\lvgl\version_6.1.2\lvgl\src\lv_objx/lv_cpicker.c ****  * @return true if changed, otherwise false
 275:..\..\..\lvgl\version_6.1.2\lvgl\src\lv_objx/lv_cpicker.c ****  */
 276:..\..\..\lvgl\version_6.1.2\lvgl\src\lv_objx/lv_cpicker.c **** bool lv_cpicker_set_color(lv_obj_t * cpicker, lv_color_t color)
 277:..\..\..\lvgl\version_6.1.2\lvgl\src\lv_objx/lv_cpicker.c **** {
 858              		.loc 3 277 0
 859              		.cfi_startproc
 860              		@ args = 0, pretend = 0, frame = 16
 861              		@ frame_needed = 1, uses_anonymous_args = 0
 862 0000 80B5     		push	{r7, lr}
 863              		.cfi_def_cfa_offset 8
 864              		.cfi_offset 7, -8
 865              		.cfi_offset 14, -4
 866 0002 84B0     		sub	sp, sp, #16
 867              		.cfi_def_cfa_offset 24
 868 0004 00AF     		add	r7, sp, #0
 869              		.cfi_def_cfa_register 7
 870 0006 7860     		str	r0, [r7, #4]
 871 0008 3960     		str	r1, [r7]
 278:..\..\..\lvgl\version_6.1.2\lvgl\src\lv_objx/lv_cpicker.c ****     lv_color32_t c32;
 279:..\..\..\lvgl\version_6.1.2\lvgl\src\lv_objx/lv_cpicker.c ****     c32.full = lv_color_to32(color);
 872              		.loc 3 279 0
 873 000a 3868     		ldr	r0, [r7]
 874 000c FFF7FEFF 		bl	lv_color_to32
 875 0010 0346     		mov	r3, r0
 876 0012 BB60     		str	r3, [r7, #8]
 280:..\..\..\lvgl\version_6.1.2\lvgl\src\lv_objx/lv_cpicker.c **** 
 281:..\..\..\lvgl\version_6.1.2\lvgl\src\lv_objx/lv_cpicker.c ****     return lv_cpicker_set_hsv(cpicker,
 877              		.loc 3 281 0
 878 0014 BB7A     		ldrb	r3, [r7, #10]	@ zero_extendqisi2
 879 0016 797A     		ldrb	r1, [r7, #9]	@ zero_extendqisi2
 880 0018 3A7A     		ldrb	r2, [r7, #8]	@ zero_extendqisi2
 881 001a 1846     		mov	r0, r3
 882 001c FFF7FEFF 		bl	lv_color_rgb_to_hsv
 883 0020 0346     		mov	r3, r0
 884 0022 FB60     		str	r3, [r7, #12]
 885 0024 F968     		ldr	r1, [r7, #12]
 886 0026 7868     		ldr	r0, [r7, #4]
 887 0028 FFF7FEFF 		bl	lv_cpicker_set_hsv
 888 002c 0346     		mov	r3, r0
 282:..\..\..\lvgl\version_6.1.2\lvgl\src\lv_objx/lv_cpicker.c ****             lv_color_rgb_to_hsv(c32.ch.red, c32.ch.green, c32.ch.blue));
 283:..\..\..\lvgl\version_6.1.2\lvgl\src\lv_objx/lv_cpicker.c **** }
 889              		.loc 3 283 0
 890 002e 1846     		mov	r0, r3
 891 0030 1037     		adds	r7, r7, #16
 892              		.cfi_def_cfa_offset 8
ARM GAS  C:\Users\tmj32\AppData\Local\Temp\cc11CUDk.s 			page 31


 893 0032 BD46     		mov	sp, r7
 894              		.cfi_def_cfa_register 13
 895              		@ sp needed
 896 0034 80BD     		pop	{r7, pc}
 897              		.cfi_endproc
 898              	.LFE38:
 899              		.size	lv_cpicker_set_color, .-lv_cpicker_set_color
 900 0036 00BF     		.section	.text.lv_cpicker_set_color_mode,"ax",%progbits
 901              		.align	2
 902              		.global	lv_cpicker_set_color_mode
 903              		.thumb
 904              		.thumb_func
 905              		.type	lv_cpicker_set_color_mode, %function
 906              	lv_cpicker_set_color_mode:
 907              	.LFB39:
 284:..\..\..\lvgl\version_6.1.2\lvgl\src\lv_objx/lv_cpicker.c **** 
 285:..\..\..\lvgl\version_6.1.2\lvgl\src\lv_objx/lv_cpicker.c **** /**
 286:..\..\..\lvgl\version_6.1.2\lvgl\src\lv_objx/lv_cpicker.c ****  * Set the current color mode.
 287:..\..\..\lvgl\version_6.1.2\lvgl\src\lv_objx/lv_cpicker.c ****  * @param cpicker pointer to colorpicker object
 288:..\..\..\lvgl\version_6.1.2\lvgl\src\lv_objx/lv_cpicker.c ****  * @param mode color mode (hue/sat/val)
 289:..\..\..\lvgl\version_6.1.2\lvgl\src\lv_objx/lv_cpicker.c ****  */
 290:..\..\..\lvgl\version_6.1.2\lvgl\src\lv_objx/lv_cpicker.c **** void lv_cpicker_set_color_mode(lv_obj_t * cpicker, lv_cpicker_color_mode_t mode)
 291:..\..\..\lvgl\version_6.1.2\lvgl\src\lv_objx/lv_cpicker.c **** {
 908              		.loc 3 291 0
 909              		.cfi_startproc
 910              		@ args = 0, pretend = 0, frame = 16
 911              		@ frame_needed = 1, uses_anonymous_args = 0
 912 0000 80B5     		push	{r7, lr}
 913              		.cfi_def_cfa_offset 8
 914              		.cfi_offset 7, -8
 915              		.cfi_offset 14, -4
 916 0002 84B0     		sub	sp, sp, #16
 917              		.cfi_def_cfa_offset 24
 918 0004 00AF     		add	r7, sp, #0
 919              		.cfi_def_cfa_register 7
 920 0006 7860     		str	r0, [r7, #4]
 921 0008 0B46     		mov	r3, r1
 922 000a FB70     		strb	r3, [r7, #3]
 292:..\..\..\lvgl\version_6.1.2\lvgl\src\lv_objx/lv_cpicker.c ****     LV_ASSERT_OBJ(cpicker, LV_OBJX_NAME);
 293:..\..\..\lvgl\version_6.1.2\lvgl\src\lv_objx/lv_cpicker.c **** 
 294:..\..\..\lvgl\version_6.1.2\lvgl\src\lv_objx/lv_cpicker.c ****     lv_cpicker_ext_t * ext = lv_obj_get_ext_attr(cpicker);
 923              		.loc 3 294 0
 924 000c 7868     		ldr	r0, [r7, #4]
 925 000e FFF7FEFF 		bl	lv_obj_get_ext_attr
 926 0012 F860     		str	r0, [r7, #12]
 295:..\..\..\lvgl\version_6.1.2\lvgl\src\lv_objx/lv_cpicker.c **** 
 296:..\..\..\lvgl\version_6.1.2\lvgl\src\lv_objx/lv_cpicker.c ****     ext->color_mode = mode;
 927              		.loc 3 296 0
 928 0014 FB78     		ldrb	r3, [r7, #3]
 929 0016 03F00303 		and	r3, r3, #3
 930 001a D9B2     		uxtb	r1, r3
 931 001c FA68     		ldr	r2, [r7, #12]
 932 001e 137F     		ldrb	r3, [r2, #28]
 933 0020 61F30103 		bfi	r3, r1, #0, #2
 934 0024 1377     		strb	r3, [r2, #28]
 297:..\..\..\lvgl\version_6.1.2\lvgl\src\lv_objx/lv_cpicker.c ****     refr_indic_pos(cpicker);
 935              		.loc 3 297 0
ARM GAS  C:\Users\tmj32\AppData\Local\Temp\cc11CUDk.s 			page 32


 936 0026 7868     		ldr	r0, [r7, #4]
 937 0028 FFF7FEFF 		bl	refr_indic_pos
 298:..\..\..\lvgl\version_6.1.2\lvgl\src\lv_objx/lv_cpicker.c ****     lv_obj_invalidate(cpicker);
 938              		.loc 3 298 0
 939 002c 7868     		ldr	r0, [r7, #4]
 940 002e FFF7FEFF 		bl	lv_obj_invalidate
 299:..\..\..\lvgl\version_6.1.2\lvgl\src\lv_objx/lv_cpicker.c **** }
 941              		.loc 3 299 0
 942 0032 00BF     		nop
 943 0034 1037     		adds	r7, r7, #16
 944              		.cfi_def_cfa_offset 8
 945 0036 BD46     		mov	sp, r7
 946              		.cfi_def_cfa_register 13
 947              		@ sp needed
 948 0038 80BD     		pop	{r7, pc}
 949              		.cfi_endproc
 950              	.LFE39:
 951              		.size	lv_cpicker_set_color_mode, .-lv_cpicker_set_color_mode
 952 003a 00BF     		.section	.text.lv_cpicker_set_color_mode_fixed,"ax",%progbits
 953              		.align	2
 954              		.global	lv_cpicker_set_color_mode_fixed
 955              		.thumb
 956              		.thumb_func
 957              		.type	lv_cpicker_set_color_mode_fixed, %function
 958              	lv_cpicker_set_color_mode_fixed:
 959              	.LFB40:
 300:..\..\..\lvgl\version_6.1.2\lvgl\src\lv_objx/lv_cpicker.c **** 
 301:..\..\..\lvgl\version_6.1.2\lvgl\src\lv_objx/lv_cpicker.c **** /**
 302:..\..\..\lvgl\version_6.1.2\lvgl\src\lv_objx/lv_cpicker.c ****  * Set if the color mode is changed on long press on center
 303:..\..\..\lvgl\version_6.1.2\lvgl\src\lv_objx/lv_cpicker.c ****  * @param cpicker pointer to colorpicker object
 304:..\..\..\lvgl\version_6.1.2\lvgl\src\lv_objx/lv_cpicker.c ****  * @param fixed color mode cannot be changed on long press
 305:..\..\..\lvgl\version_6.1.2\lvgl\src\lv_objx/lv_cpicker.c ****  */
 306:..\..\..\lvgl\version_6.1.2\lvgl\src\lv_objx/lv_cpicker.c **** void lv_cpicker_set_color_mode_fixed(lv_obj_t * cpicker, bool fixed)
 307:..\..\..\lvgl\version_6.1.2\lvgl\src\lv_objx/lv_cpicker.c **** {
 960              		.loc 3 307 0
 961              		.cfi_startproc
 962              		@ args = 0, pretend = 0, frame = 16
 963              		@ frame_needed = 1, uses_anonymous_args = 0
 964 0000 80B5     		push	{r7, lr}
 965              		.cfi_def_cfa_offset 8
 966              		.cfi_offset 7, -8
 967              		.cfi_offset 14, -4
 968 0002 84B0     		sub	sp, sp, #16
 969              		.cfi_def_cfa_offset 24
 970 0004 00AF     		add	r7, sp, #0
 971              		.cfi_def_cfa_register 7
 972 0006 7860     		str	r0, [r7, #4]
 973 0008 0B46     		mov	r3, r1
 974 000a FB70     		strb	r3, [r7, #3]
 308:..\..\..\lvgl\version_6.1.2\lvgl\src\lv_objx/lv_cpicker.c ****     LV_ASSERT_OBJ(cpicker, LV_OBJX_NAME);
 309:..\..\..\lvgl\version_6.1.2\lvgl\src\lv_objx/lv_cpicker.c **** 
 310:..\..\..\lvgl\version_6.1.2\lvgl\src\lv_objx/lv_cpicker.c ****     lv_cpicker_ext_t * ext = lv_obj_get_ext_attr(cpicker);
 975              		.loc 3 310 0
 976 000c 7868     		ldr	r0, [r7, #4]
 977 000e FFF7FEFF 		bl	lv_obj_get_ext_attr
 978 0012 F860     		str	r0, [r7, #12]
 311:..\..\..\lvgl\version_6.1.2\lvgl\src\lv_objx/lv_cpicker.c **** 
ARM GAS  C:\Users\tmj32\AppData\Local\Temp\cc11CUDk.s 			page 33


 312:..\..\..\lvgl\version_6.1.2\lvgl\src\lv_objx/lv_cpicker.c ****     ext->color_mode_fixed = fixed;
 979              		.loc 3 312 0
 980 0014 FA68     		ldr	r2, [r7, #12]
 981 0016 137F     		ldrb	r3, [r2, #28]
 982 0018 F978     		ldrb	r1, [r7, #3]
 983 001a 61F38203 		bfi	r3, r1, #2, #1
 984 001e 1377     		strb	r3, [r2, #28]
 313:..\..\..\lvgl\version_6.1.2\lvgl\src\lv_objx/lv_cpicker.c **** }
 985              		.loc 3 313 0
 986 0020 00BF     		nop
 987 0022 1037     		adds	r7, r7, #16
 988              		.cfi_def_cfa_offset 8
 989 0024 BD46     		mov	sp, r7
 990              		.cfi_def_cfa_register 13
 991              		@ sp needed
 992 0026 80BD     		pop	{r7, pc}
 993              		.cfi_endproc
 994              	.LFE40:
 995              		.size	lv_cpicker_set_color_mode_fixed, .-lv_cpicker_set_color_mode_fixed
 996              		.section	.text.lv_cpicker_set_indic_colored,"ax",%progbits
 997              		.align	2
 998              		.global	lv_cpicker_set_indic_colored
 999              		.thumb
 1000              		.thumb_func
 1001              		.type	lv_cpicker_set_indic_colored, %function
 1002              	lv_cpicker_set_indic_colored:
 1003              	.LFB41:
 314:..\..\..\lvgl\version_6.1.2\lvgl\src\lv_objx/lv_cpicker.c **** 
 315:..\..\..\lvgl\version_6.1.2\lvgl\src\lv_objx/lv_cpicker.c **** /**
 316:..\..\..\lvgl\version_6.1.2\lvgl\src\lv_objx/lv_cpicker.c ****  * Make the indicator to be colored to the current color
 317:..\..\..\lvgl\version_6.1.2\lvgl\src\lv_objx/lv_cpicker.c ****  * @param cpicker pointer to colorpicker object
 318:..\..\..\lvgl\version_6.1.2\lvgl\src\lv_objx/lv_cpicker.c ****  * @param en true: color the indicator; false: not color the indicator
 319:..\..\..\lvgl\version_6.1.2\lvgl\src\lv_objx/lv_cpicker.c ****  */
 320:..\..\..\lvgl\version_6.1.2\lvgl\src\lv_objx/lv_cpicker.c **** void lv_cpicker_set_indic_colored(lv_obj_t * cpicker, bool en)
 321:..\..\..\lvgl\version_6.1.2\lvgl\src\lv_objx/lv_cpicker.c **** {
 1004              		.loc 3 321 0
 1005              		.cfi_startproc
 1006              		@ args = 0, pretend = 0, frame = 16
 1007              		@ frame_needed = 1, uses_anonymous_args = 0
 1008 0000 80B5     		push	{r7, lr}
 1009              		.cfi_def_cfa_offset 8
 1010              		.cfi_offset 7, -8
 1011              		.cfi_offset 14, -4
 1012 0002 84B0     		sub	sp, sp, #16
 1013              		.cfi_def_cfa_offset 24
 1014 0004 00AF     		add	r7, sp, #0
 1015              		.cfi_def_cfa_register 7
 1016 0006 7860     		str	r0, [r7, #4]
 1017 0008 0B46     		mov	r3, r1
 1018 000a FB70     		strb	r3, [r7, #3]
 322:..\..\..\lvgl\version_6.1.2\lvgl\src\lv_objx/lv_cpicker.c ****     LV_ASSERT_OBJ(cpicker, LV_OBJX_NAME);
 323:..\..\..\lvgl\version_6.1.2\lvgl\src\lv_objx/lv_cpicker.c **** 
 324:..\..\..\lvgl\version_6.1.2\lvgl\src\lv_objx/lv_cpicker.c ****     lv_cpicker_ext_t * ext = lv_obj_get_ext_attr(cpicker);
 1019              		.loc 3 324 0
 1020 000c 7868     		ldr	r0, [r7, #4]
 1021 000e FFF7FEFF 		bl	lv_obj_get_ext_attr
 1022 0012 F860     		str	r0, [r7, #12]
ARM GAS  C:\Users\tmj32\AppData\Local\Temp\cc11CUDk.s 			page 34


 325:..\..\..\lvgl\version_6.1.2\lvgl\src\lv_objx/lv_cpicker.c ****     ext->indic.colored = en ? 1 : 0;
 1023              		.loc 3 325 0
 1024 0014 FB78     		ldrb	r3, [r7, #3]	@ zero_extendqisi2
 1025 0016 03F00103 		and	r3, r3, #1
 1026 001a D9B2     		uxtb	r1, r3
 1027 001c FA68     		ldr	r2, [r7, #12]
 1028 001e 137B     		ldrb	r3, [r2, #12]
 1029 0020 61F30003 		bfi	r3, r1, #0, #1
 1030 0024 1373     		strb	r3, [r2, #12]
 326:..\..\..\lvgl\version_6.1.2\lvgl\src\lv_objx/lv_cpicker.c ****     invalidate_indic(cpicker);
 1031              		.loc 3 326 0
 1032 0026 7868     		ldr	r0, [r7, #4]
 1033 0028 FFF7FEFF 		bl	invalidate_indic
 327:..\..\..\lvgl\version_6.1.2\lvgl\src\lv_objx/lv_cpicker.c **** }
 1034              		.loc 3 327 0
 1035 002c 00BF     		nop
 1036 002e 1037     		adds	r7, r7, #16
 1037              		.cfi_def_cfa_offset 8
 1038 0030 BD46     		mov	sp, r7
 1039              		.cfi_def_cfa_register 13
 1040              		@ sp needed
 1041 0032 80BD     		pop	{r7, pc}
 1042              		.cfi_endproc
 1043              	.LFE41:
 1044              		.size	lv_cpicker_set_indic_colored, .-lv_cpicker_set_indic_colored
 1045              		.section	.text.lv_cpicker_set_preview,"ax",%progbits
 1046              		.align	2
 1047              		.global	lv_cpicker_set_preview
 1048              		.thumb
 1049              		.thumb_func
 1050              		.type	lv_cpicker_set_preview, %function
 1051              	lv_cpicker_set_preview:
 1052              	.LFB42:
 328:..\..\..\lvgl\version_6.1.2\lvgl\src\lv_objx/lv_cpicker.c **** 
 329:..\..\..\lvgl\version_6.1.2\lvgl\src\lv_objx/lv_cpicker.c **** /**
 330:..\..\..\lvgl\version_6.1.2\lvgl\src\lv_objx/lv_cpicker.c ****  * Add a color preview in the middle of the DISC type color picker
 331:..\..\..\lvgl\version_6.1.2\lvgl\src\lv_objx/lv_cpicker.c ****  * @param cpicker pointer to colorpicker object
 332:..\..\..\lvgl\version_6.1.2\lvgl\src\lv_objx/lv_cpicker.c ****  * @param en true: enable preview; false: disable preview
 333:..\..\..\lvgl\version_6.1.2\lvgl\src\lv_objx/lv_cpicker.c ****  */
 334:..\..\..\lvgl\version_6.1.2\lvgl\src\lv_objx/lv_cpicker.c **** void lv_cpicker_set_preview(lv_obj_t * cpicker, bool en)
 335:..\..\..\lvgl\version_6.1.2\lvgl\src\lv_objx/lv_cpicker.c **** {
 1053              		.loc 3 335 0
 1054              		.cfi_startproc
 1055              		@ args = 0, pretend = 0, frame = 16
 1056              		@ frame_needed = 1, uses_anonymous_args = 0
 1057 0000 80B5     		push	{r7, lr}
 1058              		.cfi_def_cfa_offset 8
 1059              		.cfi_offset 7, -8
 1060              		.cfi_offset 14, -4
 1061 0002 84B0     		sub	sp, sp, #16
 1062              		.cfi_def_cfa_offset 24
 1063 0004 00AF     		add	r7, sp, #0
 1064              		.cfi_def_cfa_register 7
 1065 0006 7860     		str	r0, [r7, #4]
 1066 0008 0B46     		mov	r3, r1
 1067 000a FB70     		strb	r3, [r7, #3]
 336:..\..\..\lvgl\version_6.1.2\lvgl\src\lv_objx/lv_cpicker.c ****     LV_ASSERT_OBJ(cpicker, LV_OBJX_NAME);
ARM GAS  C:\Users\tmj32\AppData\Local\Temp\cc11CUDk.s 			page 35


 337:..\..\..\lvgl\version_6.1.2\lvgl\src\lv_objx/lv_cpicker.c **** 
 338:..\..\..\lvgl\version_6.1.2\lvgl\src\lv_objx/lv_cpicker.c ****     lv_cpicker_ext_t * ext = lv_obj_get_ext_attr(cpicker);
 1068              		.loc 3 338 0
 1069 000c 7868     		ldr	r0, [r7, #4]
 1070 000e FFF7FEFF 		bl	lv_obj_get_ext_attr
 1071 0012 F860     		str	r0, [r7, #12]
 339:..\..\..\lvgl\version_6.1.2\lvgl\src\lv_objx/lv_cpicker.c ****     ext->preview = en ? 1 : 0;
 1072              		.loc 3 339 0
 1073 0014 FB78     		ldrb	r3, [r7, #3]	@ zero_extendqisi2
 1074 0016 03F00103 		and	r3, r3, #1
 1075 001a D9B2     		uxtb	r1, r3
 1076 001c FA68     		ldr	r2, [r7, #12]
 1077 001e 137F     		ldrb	r3, [r2, #28]
 1078 0020 61F30413 		bfi	r3, r1, #4, #1
 1079 0024 1377     		strb	r3, [r2, #28]
 340:..\..\..\lvgl\version_6.1.2\lvgl\src\lv_objx/lv_cpicker.c ****     lv_obj_invalidate(cpicker);
 1080              		.loc 3 340 0
 1081 0026 7868     		ldr	r0, [r7, #4]
 1082 0028 FFF7FEFF 		bl	lv_obj_invalidate
 341:..\..\..\lvgl\version_6.1.2\lvgl\src\lv_objx/lv_cpicker.c **** }
 1083              		.loc 3 341 0
 1084 002c 00BF     		nop
 1085 002e 1037     		adds	r7, r7, #16
 1086              		.cfi_def_cfa_offset 8
 1087 0030 BD46     		mov	sp, r7
 1088              		.cfi_def_cfa_register 13
 1089              		@ sp needed
 1090 0032 80BD     		pop	{r7, pc}
 1091              		.cfi_endproc
 1092              	.LFE42:
 1093              		.size	lv_cpicker_set_preview, .-lv_cpicker_set_preview
 1094              		.section	.text.lv_cpicker_get_color_mode,"ax",%progbits
 1095              		.align	2
 1096              		.global	lv_cpicker_get_color_mode
 1097              		.thumb
 1098              		.thumb_func
 1099              		.type	lv_cpicker_get_color_mode, %function
 1100              	lv_cpicker_get_color_mode:
 1101              	.LFB43:
 342:..\..\..\lvgl\version_6.1.2\lvgl\src\lv_objx/lv_cpicker.c **** /*=====================
 343:..\..\..\lvgl\version_6.1.2\lvgl\src\lv_objx/lv_cpicker.c ****  * Getter functions
 344:..\..\..\lvgl\version_6.1.2\lvgl\src\lv_objx/lv_cpicker.c ****  *====================*/
 345:..\..\..\lvgl\version_6.1.2\lvgl\src\lv_objx/lv_cpicker.c **** 
 346:..\..\..\lvgl\version_6.1.2\lvgl\src\lv_objx/lv_cpicker.c **** /** 
 347:..\..\..\lvgl\version_6.1.2\lvgl\src\lv_objx/lv_cpicker.c ****  * Get the current color mode.
 348:..\..\..\lvgl\version_6.1.2\lvgl\src\lv_objx/lv_cpicker.c ****  * @param cpicker pointer to colorpicker object
 349:..\..\..\lvgl\version_6.1.2\lvgl\src\lv_objx/lv_cpicker.c ****  * @return color mode (hue/sat/val)
 350:..\..\..\lvgl\version_6.1.2\lvgl\src\lv_objx/lv_cpicker.c ****  */
 351:..\..\..\lvgl\version_6.1.2\lvgl\src\lv_objx/lv_cpicker.c **** lv_cpicker_color_mode_t lv_cpicker_get_color_mode(lv_obj_t * cpicker)
 352:..\..\..\lvgl\version_6.1.2\lvgl\src\lv_objx/lv_cpicker.c **** {
 1102              		.loc 3 352 0
 1103              		.cfi_startproc
 1104              		@ args = 0, pretend = 0, frame = 16
 1105              		@ frame_needed = 1, uses_anonymous_args = 0
 1106 0000 80B5     		push	{r7, lr}
 1107              		.cfi_def_cfa_offset 8
 1108              		.cfi_offset 7, -8
ARM GAS  C:\Users\tmj32\AppData\Local\Temp\cc11CUDk.s 			page 36


 1109              		.cfi_offset 14, -4
 1110 0002 84B0     		sub	sp, sp, #16
 1111              		.cfi_def_cfa_offset 24
 1112 0004 00AF     		add	r7, sp, #0
 1113              		.cfi_def_cfa_register 7
 1114 0006 7860     		str	r0, [r7, #4]
 353:..\..\..\lvgl\version_6.1.2\lvgl\src\lv_objx/lv_cpicker.c ****     LV_ASSERT_OBJ(cpicker, LV_OBJX_NAME);
 354:..\..\..\lvgl\version_6.1.2\lvgl\src\lv_objx/lv_cpicker.c **** 
 355:..\..\..\lvgl\version_6.1.2\lvgl\src\lv_objx/lv_cpicker.c ****     lv_cpicker_ext_t * ext = lv_obj_get_ext_attr(cpicker);
 1115              		.loc 3 355 0
 1116 0008 7868     		ldr	r0, [r7, #4]
 1117 000a FFF7FEFF 		bl	lv_obj_get_ext_attr
 1118 000e F860     		str	r0, [r7, #12]
 356:..\..\..\lvgl\version_6.1.2\lvgl\src\lv_objx/lv_cpicker.c **** 
 357:..\..\..\lvgl\version_6.1.2\lvgl\src\lv_objx/lv_cpicker.c ****     return ext->color_mode;
 1119              		.loc 3 357 0
 1120 0010 FB68     		ldr	r3, [r7, #12]
 1121 0012 1B7F     		ldrb	r3, [r3, #28]
 1122 0014 C3F30103 		ubfx	r3, r3, #0, #2
 1123 0018 DBB2     		uxtb	r3, r3
 358:..\..\..\lvgl\version_6.1.2\lvgl\src\lv_objx/lv_cpicker.c **** }
 1124              		.loc 3 358 0
 1125 001a 1846     		mov	r0, r3
 1126 001c 1037     		adds	r7, r7, #16
 1127              		.cfi_def_cfa_offset 8
 1128 001e BD46     		mov	sp, r7
 1129              		.cfi_def_cfa_register 13
 1130              		@ sp needed
 1131 0020 80BD     		pop	{r7, pc}
 1132              		.cfi_endproc
 1133              	.LFE43:
 1134              		.size	lv_cpicker_get_color_mode, .-lv_cpicker_get_color_mode
 1135 0022 00BF     		.section	.text.lv_cpicker_get_color_mode_fixed,"ax",%progbits
 1136              		.align	2
 1137              		.global	lv_cpicker_get_color_mode_fixed
 1138              		.thumb
 1139              		.thumb_func
 1140              		.type	lv_cpicker_get_color_mode_fixed, %function
 1141              	lv_cpicker_get_color_mode_fixed:
 1142              	.LFB44:
 359:..\..\..\lvgl\version_6.1.2\lvgl\src\lv_objx/lv_cpicker.c **** 
 360:..\..\..\lvgl\version_6.1.2\lvgl\src\lv_objx/lv_cpicker.c **** /**
 361:..\..\..\lvgl\version_6.1.2\lvgl\src\lv_objx/lv_cpicker.c ****  * Get if the color mode is changed on long press on center
 362:..\..\..\lvgl\version_6.1.2\lvgl\src\lv_objx/lv_cpicker.c ****  * @param cpicker pointer to colorpicker object
 363:..\..\..\lvgl\version_6.1.2\lvgl\src\lv_objx/lv_cpicker.c ****  * @return mode cannot be changed on long press
 364:..\..\..\lvgl\version_6.1.2\lvgl\src\lv_objx/lv_cpicker.c ****  */
 365:..\..\..\lvgl\version_6.1.2\lvgl\src\lv_objx/lv_cpicker.c **** bool lv_cpicker_get_color_mode_fixed(lv_obj_t * cpicker)
 366:..\..\..\lvgl\version_6.1.2\lvgl\src\lv_objx/lv_cpicker.c **** {
 1143              		.loc 3 366 0
 1144              		.cfi_startproc
 1145              		@ args = 0, pretend = 0, frame = 16
 1146              		@ frame_needed = 1, uses_anonymous_args = 0
 1147 0000 80B5     		push	{r7, lr}
 1148              		.cfi_def_cfa_offset 8
 1149              		.cfi_offset 7, -8
 1150              		.cfi_offset 14, -4
 1151 0002 84B0     		sub	sp, sp, #16
ARM GAS  C:\Users\tmj32\AppData\Local\Temp\cc11CUDk.s 			page 37


 1152              		.cfi_def_cfa_offset 24
 1153 0004 00AF     		add	r7, sp, #0
 1154              		.cfi_def_cfa_register 7
 1155 0006 7860     		str	r0, [r7, #4]
 367:..\..\..\lvgl\version_6.1.2\lvgl\src\lv_objx/lv_cpicker.c ****     LV_ASSERT_OBJ(cpicker, LV_OBJX_NAME);
 368:..\..\..\lvgl\version_6.1.2\lvgl\src\lv_objx/lv_cpicker.c **** 
 369:..\..\..\lvgl\version_6.1.2\lvgl\src\lv_objx/lv_cpicker.c ****     lv_cpicker_ext_t * ext = lv_obj_get_ext_attr(cpicker);
 1156              		.loc 3 369 0
 1157 0008 7868     		ldr	r0, [r7, #4]
 1158 000a FFF7FEFF 		bl	lv_obj_get_ext_attr
 1159 000e F860     		str	r0, [r7, #12]
 370:..\..\..\lvgl\version_6.1.2\lvgl\src\lv_objx/lv_cpicker.c **** 
 371:..\..\..\lvgl\version_6.1.2\lvgl\src\lv_objx/lv_cpicker.c ****     return ext->color_mode_fixed;
 1160              		.loc 3 371 0
 1161 0010 FB68     		ldr	r3, [r7, #12]
 1162 0012 1B7F     		ldrb	r3, [r3, #28]
 1163 0014 C3F38003 		ubfx	r3, r3, #2, #1
 1164 0018 DBB2     		uxtb	r3, r3
 1165 001a 002B     		cmp	r3, #0
 1166 001c 14BF     		ite	ne
 1167 001e 0123     		movne	r3, #1
 1168 0020 0023     		moveq	r3, #0
 1169 0022 DBB2     		uxtb	r3, r3
 372:..\..\..\lvgl\version_6.1.2\lvgl\src\lv_objx/lv_cpicker.c **** }
 1170              		.loc 3 372 0
 1171 0024 1846     		mov	r0, r3
 1172 0026 1037     		adds	r7, r7, #16
 1173              		.cfi_def_cfa_offset 8
 1174 0028 BD46     		mov	sp, r7
 1175              		.cfi_def_cfa_register 13
 1176              		@ sp needed
 1177 002a 80BD     		pop	{r7, pc}
 1178              		.cfi_endproc
 1179              	.LFE44:
 1180              		.size	lv_cpicker_get_color_mode_fixed, .-lv_cpicker_get_color_mode_fixed
 1181              		.section	.text.lv_cpicker_get_style,"ax",%progbits
 1182              		.align	2
 1183              		.global	lv_cpicker_get_style
 1184              		.thumb
 1185              		.thumb_func
 1186              		.type	lv_cpicker_get_style, %function
 1187              	lv_cpicker_get_style:
 1188              	.LFB45:
 373:..\..\..\lvgl\version_6.1.2\lvgl\src\lv_objx/lv_cpicker.c **** 
 374:..\..\..\lvgl\version_6.1.2\lvgl\src\lv_objx/lv_cpicker.c **** /**
 375:..\..\..\lvgl\version_6.1.2\lvgl\src\lv_objx/lv_cpicker.c ****  * Get style of a color_picker.
 376:..\..\..\lvgl\version_6.1.2\lvgl\src\lv_objx/lv_cpicker.c ****  * @param cpicker pointer to color_picker object
 377:..\..\..\lvgl\version_6.1.2\lvgl\src\lv_objx/lv_cpicker.c ****  * @param type which style should be get
 378:..\..\..\lvgl\version_6.1.2\lvgl\src\lv_objx/lv_cpicker.c ****  * @return style pointer to the style
 379:..\..\..\lvgl\version_6.1.2\lvgl\src\lv_objx/lv_cpicker.c ****  */
 380:..\..\..\lvgl\version_6.1.2\lvgl\src\lv_objx/lv_cpicker.c **** const lv_style_t * lv_cpicker_get_style(const lv_obj_t * cpicker, lv_cpicker_style_t type)
 381:..\..\..\lvgl\version_6.1.2\lvgl\src\lv_objx/lv_cpicker.c **** {
 1189              		.loc 3 381 0
 1190              		.cfi_startproc
 1191              		@ args = 0, pretend = 0, frame = 16
 1192              		@ frame_needed = 1, uses_anonymous_args = 0
 1193 0000 80B5     		push	{r7, lr}
ARM GAS  C:\Users\tmj32\AppData\Local\Temp\cc11CUDk.s 			page 38


 1194              		.cfi_def_cfa_offset 8
 1195              		.cfi_offset 7, -8
 1196              		.cfi_offset 14, -4
 1197 0002 84B0     		sub	sp, sp, #16
 1198              		.cfi_def_cfa_offset 24
 1199 0004 00AF     		add	r7, sp, #0
 1200              		.cfi_def_cfa_register 7
 1201 0006 7860     		str	r0, [r7, #4]
 1202 0008 0B46     		mov	r3, r1
 1203 000a FB70     		strb	r3, [r7, #3]
 382:..\..\..\lvgl\version_6.1.2\lvgl\src\lv_objx/lv_cpicker.c ****     LV_ASSERT_OBJ(cpicker, LV_OBJX_NAME);
 383:..\..\..\lvgl\version_6.1.2\lvgl\src\lv_objx/lv_cpicker.c **** 
 384:..\..\..\lvgl\version_6.1.2\lvgl\src\lv_objx/lv_cpicker.c ****     lv_cpicker_ext_t * ext = lv_obj_get_ext_attr(cpicker);
 1204              		.loc 3 384 0
 1205 000c 7868     		ldr	r0, [r7, #4]
 1206 000e FFF7FEFF 		bl	lv_obj_get_ext_attr
 1207 0012 F860     		str	r0, [r7, #12]
 385:..\..\..\lvgl\version_6.1.2\lvgl\src\lv_objx/lv_cpicker.c **** 
 386:..\..\..\lvgl\version_6.1.2\lvgl\src\lv_objx/lv_cpicker.c ****     switch(type) {
 1208              		.loc 3 386 0
 1209 0014 FB78     		ldrb	r3, [r7, #3]	@ zero_extendqisi2
 1210 0016 002B     		cmp	r3, #0
 1211 0018 02D0     		beq	.L56
 1212 001a 012B     		cmp	r3, #1
 1213 001c 05D0     		beq	.L57
 1214 001e 07E0     		b	.L59
 1215              	.L56:
 387:..\..\..\lvgl\version_6.1.2\lvgl\src\lv_objx/lv_cpicker.c ****     case LV_CPICKER_STYLE_MAIN:
 388:..\..\..\lvgl\version_6.1.2\lvgl\src\lv_objx/lv_cpicker.c ****         return lv_obj_get_style(cpicker);
 1216              		.loc 3 388 0
 1217 0020 7868     		ldr	r0, [r7, #4]
 1218 0022 FFF7FEFF 		bl	lv_obj_get_style
 1219 0026 0346     		mov	r3, r0
 1220 0028 03E0     		b	.L58
 1221              	.L57:
 389:..\..\..\lvgl\version_6.1.2\lvgl\src\lv_objx/lv_cpicker.c ****     case LV_CPICKER_STYLE_INDICATOR:
 390:..\..\..\lvgl\version_6.1.2\lvgl\src\lv_objx/lv_cpicker.c ****         return ext->indic.style;
 1222              		.loc 3 390 0
 1223 002a FB68     		ldr	r3, [r7, #12]
 1224 002c 5B68     		ldr	r3, [r3, #4]
 1225 002e 00E0     		b	.L58
 1226              	.L59:
 391:..\..\..\lvgl\version_6.1.2\lvgl\src\lv_objx/lv_cpicker.c ****     default:
 392:..\..\..\lvgl\version_6.1.2\lvgl\src\lv_objx/lv_cpicker.c ****         return NULL;
 1227              		.loc 3 392 0
 1228 0030 0023     		movs	r3, #0
 1229              	.L58:
 393:..\..\..\lvgl\version_6.1.2\lvgl\src\lv_objx/lv_cpicker.c ****     }
 394:..\..\..\lvgl\version_6.1.2\lvgl\src\lv_objx/lv_cpicker.c **** 
 395:..\..\..\lvgl\version_6.1.2\lvgl\src\lv_objx/lv_cpicker.c ****     /*To avoid warning*/
 396:..\..\..\lvgl\version_6.1.2\lvgl\src\lv_objx/lv_cpicker.c ****     return NULL;
 397:..\..\..\lvgl\version_6.1.2\lvgl\src\lv_objx/lv_cpicker.c **** }
 1230              		.loc 3 397 0
 1231 0032 1846     		mov	r0, r3
 1232 0034 1037     		adds	r7, r7, #16
 1233              		.cfi_def_cfa_offset 8
 1234 0036 BD46     		mov	sp, r7
ARM GAS  C:\Users\tmj32\AppData\Local\Temp\cc11CUDk.s 			page 39


 1235              		.cfi_def_cfa_register 13
 1236              		@ sp needed
 1237 0038 80BD     		pop	{r7, pc}
 1238              		.cfi_endproc
 1239              	.LFE45:
 1240              		.size	lv_cpicker_get_style, .-lv_cpicker_get_style
 1241 003a 00BF     		.section	.text.lv_cpicker_get_hue,"ax",%progbits
 1242              		.align	2
 1243              		.global	lv_cpicker_get_hue
 1244              		.thumb
 1245              		.thumb_func
 1246              		.type	lv_cpicker_get_hue, %function
 1247              	lv_cpicker_get_hue:
 1248              	.LFB46:
 398:..\..\..\lvgl\version_6.1.2\lvgl\src\lv_objx/lv_cpicker.c **** 
 399:..\..\..\lvgl\version_6.1.2\lvgl\src\lv_objx/lv_cpicker.c **** /**
 400:..\..\..\lvgl\version_6.1.2\lvgl\src\lv_objx/lv_cpicker.c ****  * Get the current selected hue of a colorpicker.
 401:..\..\..\lvgl\version_6.1.2\lvgl\src\lv_objx/lv_cpicker.c ****  * @param cpicker pointer to colorpicker object
 402:..\..\..\lvgl\version_6.1.2\lvgl\src\lv_objx/lv_cpicker.c ****  * @return hue current selected hue
 403:..\..\..\lvgl\version_6.1.2\lvgl\src\lv_objx/lv_cpicker.c ****  */
 404:..\..\..\lvgl\version_6.1.2\lvgl\src\lv_objx/lv_cpicker.c **** uint16_t lv_cpicker_get_hue(lv_obj_t * cpicker)
 405:..\..\..\lvgl\version_6.1.2\lvgl\src\lv_objx/lv_cpicker.c **** {
 1249              		.loc 3 405 0
 1250              		.cfi_startproc
 1251              		@ args = 0, pretend = 0, frame = 16
 1252              		@ frame_needed = 1, uses_anonymous_args = 0
 1253 0000 80B5     		push	{r7, lr}
 1254              		.cfi_def_cfa_offset 8
 1255              		.cfi_offset 7, -8
 1256              		.cfi_offset 14, -4
 1257 0002 84B0     		sub	sp, sp, #16
 1258              		.cfi_def_cfa_offset 24
 1259 0004 00AF     		add	r7, sp, #0
 1260              		.cfi_def_cfa_register 7
 1261 0006 7860     		str	r0, [r7, #4]
 406:..\..\..\lvgl\version_6.1.2\lvgl\src\lv_objx/lv_cpicker.c ****     LV_ASSERT_OBJ(cpicker, LV_OBJX_NAME);
 407:..\..\..\lvgl\version_6.1.2\lvgl\src\lv_objx/lv_cpicker.c **** 
 408:..\..\..\lvgl\version_6.1.2\lvgl\src\lv_objx/lv_cpicker.c ****     lv_cpicker_ext_t * ext = lv_obj_get_ext_attr(cpicker);
 1262              		.loc 3 408 0
 1263 0008 7868     		ldr	r0, [r7, #4]
 1264 000a FFF7FEFF 		bl	lv_obj_get_ext_attr
 1265 000e F860     		str	r0, [r7, #12]
 409:..\..\..\lvgl\version_6.1.2\lvgl\src\lv_objx/lv_cpicker.c **** 
 410:..\..\..\lvgl\version_6.1.2\lvgl\src\lv_objx/lv_cpicker.c ****     return ext->hsv.h;
 1266              		.loc 3 410 0
 1267 0010 FB68     		ldr	r3, [r7, #12]
 1268 0012 1B88     		ldrh	r3, [r3]
 411:..\..\..\lvgl\version_6.1.2\lvgl\src\lv_objx/lv_cpicker.c **** }
 1269              		.loc 3 411 0
 1270 0014 1846     		mov	r0, r3
 1271 0016 1037     		adds	r7, r7, #16
 1272              		.cfi_def_cfa_offset 8
 1273 0018 BD46     		mov	sp, r7
 1274              		.cfi_def_cfa_register 13
 1275              		@ sp needed
 1276 001a 80BD     		pop	{r7, pc}
 1277              		.cfi_endproc
ARM GAS  C:\Users\tmj32\AppData\Local\Temp\cc11CUDk.s 			page 40


 1278              	.LFE46:
 1279              		.size	lv_cpicker_get_hue, .-lv_cpicker_get_hue
 1280              		.section	.text.lv_cpicker_get_saturation,"ax",%progbits
 1281              		.align	2
 1282              		.global	lv_cpicker_get_saturation
 1283              		.thumb
 1284              		.thumb_func
 1285              		.type	lv_cpicker_get_saturation, %function
 1286              	lv_cpicker_get_saturation:
 1287              	.LFB47:
 412:..\..\..\lvgl\version_6.1.2\lvgl\src\lv_objx/lv_cpicker.c **** 
 413:..\..\..\lvgl\version_6.1.2\lvgl\src\lv_objx/lv_cpicker.c **** /**
 414:..\..\..\lvgl\version_6.1.2\lvgl\src\lv_objx/lv_cpicker.c ****  * Get the current selected saturation of a colorpicker.
 415:..\..\..\lvgl\version_6.1.2\lvgl\src\lv_objx/lv_cpicker.c ****  * @param cpicker pointer to colorpicker object
 416:..\..\..\lvgl\version_6.1.2\lvgl\src\lv_objx/lv_cpicker.c ****  * @return current selected saturation
 417:..\..\..\lvgl\version_6.1.2\lvgl\src\lv_objx/lv_cpicker.c ****  */
 418:..\..\..\lvgl\version_6.1.2\lvgl\src\lv_objx/lv_cpicker.c **** uint8_t lv_cpicker_get_saturation(lv_obj_t * cpicker)
 419:..\..\..\lvgl\version_6.1.2\lvgl\src\lv_objx/lv_cpicker.c **** {
 1288              		.loc 3 419 0
 1289              		.cfi_startproc
 1290              		@ args = 0, pretend = 0, frame = 16
 1291              		@ frame_needed = 1, uses_anonymous_args = 0
 1292 0000 80B5     		push	{r7, lr}
 1293              		.cfi_def_cfa_offset 8
 1294              		.cfi_offset 7, -8
 1295              		.cfi_offset 14, -4
 1296 0002 84B0     		sub	sp, sp, #16
 1297              		.cfi_def_cfa_offset 24
 1298 0004 00AF     		add	r7, sp, #0
 1299              		.cfi_def_cfa_register 7
 1300 0006 7860     		str	r0, [r7, #4]
 420:..\..\..\lvgl\version_6.1.2\lvgl\src\lv_objx/lv_cpicker.c ****     LV_ASSERT_OBJ(cpicker, LV_OBJX_NAME);
 421:..\..\..\lvgl\version_6.1.2\lvgl\src\lv_objx/lv_cpicker.c **** 
 422:..\..\..\lvgl\version_6.1.2\lvgl\src\lv_objx/lv_cpicker.c ****     lv_cpicker_ext_t * ext = lv_obj_get_ext_attr(cpicker);
 1301              		.loc 3 422 0
 1302 0008 7868     		ldr	r0, [r7, #4]
 1303 000a FFF7FEFF 		bl	lv_obj_get_ext_attr
 1304 000e F860     		str	r0, [r7, #12]
 423:..\..\..\lvgl\version_6.1.2\lvgl\src\lv_objx/lv_cpicker.c **** 
 424:..\..\..\lvgl\version_6.1.2\lvgl\src\lv_objx/lv_cpicker.c ****     return ext->hsv.s;
 1305              		.loc 3 424 0
 1306 0010 FB68     		ldr	r3, [r7, #12]
 1307 0012 9B78     		ldrb	r3, [r3, #2]	@ zero_extendqisi2
 425:..\..\..\lvgl\version_6.1.2\lvgl\src\lv_objx/lv_cpicker.c **** }
 1308              		.loc 3 425 0
 1309 0014 1846     		mov	r0, r3
 1310 0016 1037     		adds	r7, r7, #16
 1311              		.cfi_def_cfa_offset 8
 1312 0018 BD46     		mov	sp, r7
 1313              		.cfi_def_cfa_register 13
 1314              		@ sp needed
 1315 001a 80BD     		pop	{r7, pc}
 1316              		.cfi_endproc
 1317              	.LFE47:
 1318              		.size	lv_cpicker_get_saturation, .-lv_cpicker_get_saturation
 1319              		.section	.text.lv_cpicker_get_value,"ax",%progbits
 1320              		.align	2
ARM GAS  C:\Users\tmj32\AppData\Local\Temp\cc11CUDk.s 			page 41


 1321              		.global	lv_cpicker_get_value
 1322              		.thumb
 1323              		.thumb_func
 1324              		.type	lv_cpicker_get_value, %function
 1325              	lv_cpicker_get_value:
 1326              	.LFB48:
 426:..\..\..\lvgl\version_6.1.2\lvgl\src\lv_objx/lv_cpicker.c **** 
 427:..\..\..\lvgl\version_6.1.2\lvgl\src\lv_objx/lv_cpicker.c **** /**
 428:..\..\..\lvgl\version_6.1.2\lvgl\src\lv_objx/lv_cpicker.c ****  * Get the current selected hue of a colorpicker.
 429:..\..\..\lvgl\version_6.1.2\lvgl\src\lv_objx/lv_cpicker.c ****  * @param cpicker pointer to colorpicker object
 430:..\..\..\lvgl\version_6.1.2\lvgl\src\lv_objx/lv_cpicker.c ****  * @return current selected value
 431:..\..\..\lvgl\version_6.1.2\lvgl\src\lv_objx/lv_cpicker.c ****  */
 432:..\..\..\lvgl\version_6.1.2\lvgl\src\lv_objx/lv_cpicker.c **** uint8_t lv_cpicker_get_value(lv_obj_t * cpicker)
 433:..\..\..\lvgl\version_6.1.2\lvgl\src\lv_objx/lv_cpicker.c **** {
 1327              		.loc 3 433 0
 1328              		.cfi_startproc
 1329              		@ args = 0, pretend = 0, frame = 16
 1330              		@ frame_needed = 1, uses_anonymous_args = 0
 1331 0000 80B5     		push	{r7, lr}
 1332              		.cfi_def_cfa_offset 8
 1333              		.cfi_offset 7, -8
 1334              		.cfi_offset 14, -4
 1335 0002 84B0     		sub	sp, sp, #16
 1336              		.cfi_def_cfa_offset 24
 1337 0004 00AF     		add	r7, sp, #0
 1338              		.cfi_def_cfa_register 7
 1339 0006 7860     		str	r0, [r7, #4]
 434:..\..\..\lvgl\version_6.1.2\lvgl\src\lv_objx/lv_cpicker.c ****     LV_ASSERT_OBJ(cpicker, LV_OBJX_NAME);
 435:..\..\..\lvgl\version_6.1.2\lvgl\src\lv_objx/lv_cpicker.c **** 
 436:..\..\..\lvgl\version_6.1.2\lvgl\src\lv_objx/lv_cpicker.c ****     lv_cpicker_ext_t * ext = lv_obj_get_ext_attr(cpicker);
 1340              		.loc 3 436 0
 1341 0008 7868     		ldr	r0, [r7, #4]
 1342 000a FFF7FEFF 		bl	lv_obj_get_ext_attr
 1343 000e F860     		str	r0, [r7, #12]
 437:..\..\..\lvgl\version_6.1.2\lvgl\src\lv_objx/lv_cpicker.c **** 
 438:..\..\..\lvgl\version_6.1.2\lvgl\src\lv_objx/lv_cpicker.c ****     return ext->hsv.v;
 1344              		.loc 3 438 0
 1345 0010 FB68     		ldr	r3, [r7, #12]
 1346 0012 DB78     		ldrb	r3, [r3, #3]	@ zero_extendqisi2
 439:..\..\..\lvgl\version_6.1.2\lvgl\src\lv_objx/lv_cpicker.c **** }
 1347              		.loc 3 439 0
 1348 0014 1846     		mov	r0, r3
 1349 0016 1037     		adds	r7, r7, #16
 1350              		.cfi_def_cfa_offset 8
 1351 0018 BD46     		mov	sp, r7
 1352              		.cfi_def_cfa_register 13
 1353              		@ sp needed
 1354 001a 80BD     		pop	{r7, pc}
 1355              		.cfi_endproc
 1356              	.LFE48:
 1357              		.size	lv_cpicker_get_value, .-lv_cpicker_get_value
 1358              		.section	.text.lv_cpicker_get_hsv,"ax",%progbits
 1359              		.align	2
 1360              		.global	lv_cpicker_get_hsv
 1361              		.thumb
 1362              		.thumb_func
 1363              		.type	lv_cpicker_get_hsv, %function
ARM GAS  C:\Users\tmj32\AppData\Local\Temp\cc11CUDk.s 			page 42


 1364              	lv_cpicker_get_hsv:
 1365              	.LFB49:
 440:..\..\..\lvgl\version_6.1.2\lvgl\src\lv_objx/lv_cpicker.c **** 
 441:..\..\..\lvgl\version_6.1.2\lvgl\src\lv_objx/lv_cpicker.c **** /**
 442:..\..\..\lvgl\version_6.1.2\lvgl\src\lv_objx/lv_cpicker.c ****  * Get the current selected hsv of a colorpicker.
 443:..\..\..\lvgl\version_6.1.2\lvgl\src\lv_objx/lv_cpicker.c ****  * @param cpicker pointer to colorpicker object
 444:..\..\..\lvgl\version_6.1.2\lvgl\src\lv_objx/lv_cpicker.c ****  * @return current selected hsv
 445:..\..\..\lvgl\version_6.1.2\lvgl\src\lv_objx/lv_cpicker.c ****  */
 446:..\..\..\lvgl\version_6.1.2\lvgl\src\lv_objx/lv_cpicker.c **** lv_color_hsv_t lv_cpicker_get_hsv(lv_obj_t * cpicker)
 447:..\..\..\lvgl\version_6.1.2\lvgl\src\lv_objx/lv_cpicker.c **** {
 1366              		.loc 3 447 0
 1367              		.cfi_startproc
 1368              		@ args = 0, pretend = 0, frame = 16
 1369              		@ frame_needed = 1, uses_anonymous_args = 0
 1370 0000 80B5     		push	{r7, lr}
 1371              		.cfi_def_cfa_offset 8
 1372              		.cfi_offset 7, -8
 1373              		.cfi_offset 14, -4
 1374 0002 84B0     		sub	sp, sp, #16
 1375              		.cfi_def_cfa_offset 24
 1376 0004 00AF     		add	r7, sp, #0
 1377              		.cfi_def_cfa_register 7
 1378 0006 7860     		str	r0, [r7, #4]
 448:..\..\..\lvgl\version_6.1.2\lvgl\src\lv_objx/lv_cpicker.c ****     LV_ASSERT_OBJ(cpicker, LV_OBJX_NAME);
 449:..\..\..\lvgl\version_6.1.2\lvgl\src\lv_objx/lv_cpicker.c **** 
 450:..\..\..\lvgl\version_6.1.2\lvgl\src\lv_objx/lv_cpicker.c ****     lv_cpicker_ext_t * ext = lv_obj_get_ext_attr(cpicker);
 1379              		.loc 3 450 0
 1380 0008 7868     		ldr	r0, [r7, #4]
 1381 000a FFF7FEFF 		bl	lv_obj_get_ext_attr
 1382 000e F860     		str	r0, [r7, #12]
 451:..\..\..\lvgl\version_6.1.2\lvgl\src\lv_objx/lv_cpicker.c **** 
 452:..\..\..\lvgl\version_6.1.2\lvgl\src\lv_objx/lv_cpicker.c ****     return ext->hsv;
 1383              		.loc 3 452 0
 1384 0010 FB68     		ldr	r3, [r7, #12]
 1385 0012 1B68     		ldr	r3, [r3]
 1386 0014 BB60     		str	r3, [r7, #8]
 1387 0016 0023     		movs	r3, #0
 1388 0018 3A89     		ldrh	r2, [r7, #8]
 1389 001a 62F30F03 		bfi	r3, r2, #0, #16
 1390 001e 7A89     		ldrh	r2, [r7, #10]
 1391 0020 62F31F43 		bfi	r3, r2, #16, #16
 453:..\..\..\lvgl\version_6.1.2\lvgl\src\lv_objx/lv_cpicker.c **** }
 1392              		.loc 3 453 0
 1393 0024 1846     		mov	r0, r3
 1394 0026 1037     		adds	r7, r7, #16
 1395              		.cfi_def_cfa_offset 8
 1396 0028 BD46     		mov	sp, r7
 1397              		.cfi_def_cfa_register 13
 1398              		@ sp needed
 1399 002a 80BD     		pop	{r7, pc}
 1400              		.cfi_endproc
 1401              	.LFE49:
 1402              		.size	lv_cpicker_get_hsv, .-lv_cpicker_get_hsv
 1403              		.section	.text.lv_cpicker_get_color,"ax",%progbits
 1404              		.align	2
 1405              		.global	lv_cpicker_get_color
 1406              		.thumb
ARM GAS  C:\Users\tmj32\AppData\Local\Temp\cc11CUDk.s 			page 43


 1407              		.thumb_func
 1408              		.type	lv_cpicker_get_color, %function
 1409              	lv_cpicker_get_color:
 1410              	.LFB50:
 454:..\..\..\lvgl\version_6.1.2\lvgl\src\lv_objx/lv_cpicker.c **** 
 455:..\..\..\lvgl\version_6.1.2\lvgl\src\lv_objx/lv_cpicker.c **** /**
 456:..\..\..\lvgl\version_6.1.2\lvgl\src\lv_objx/lv_cpicker.c ****  * Get the current selected color of a colorpicker.
 457:..\..\..\lvgl\version_6.1.2\lvgl\src\lv_objx/lv_cpicker.c ****  * @param cpicker pointer to colorpicker object
 458:..\..\..\lvgl\version_6.1.2\lvgl\src\lv_objx/lv_cpicker.c ****  * @return color current selected color
 459:..\..\..\lvgl\version_6.1.2\lvgl\src\lv_objx/lv_cpicker.c ****  */
 460:..\..\..\lvgl\version_6.1.2\lvgl\src\lv_objx/lv_cpicker.c **** lv_color_t lv_cpicker_get_color(lv_obj_t * cpicker)
 461:..\..\..\lvgl\version_6.1.2\lvgl\src\lv_objx/lv_cpicker.c **** {
 1411              		.loc 3 461 0
 1412              		.cfi_startproc
 1413              		@ args = 0, pretend = 0, frame = 16
 1414              		@ frame_needed = 1, uses_anonymous_args = 0
 1415 0000 80B5     		push	{r7, lr}
 1416              		.cfi_def_cfa_offset 8
 1417              		.cfi_offset 7, -8
 1418              		.cfi_offset 14, -4
 1419 0002 84B0     		sub	sp, sp, #16
 1420              		.cfi_def_cfa_offset 24
 1421 0004 00AF     		add	r7, sp, #0
 1422              		.cfi_def_cfa_register 7
 1423 0006 7860     		str	r0, [r7, #4]
 462:..\..\..\lvgl\version_6.1.2\lvgl\src\lv_objx/lv_cpicker.c ****     LV_ASSERT_OBJ(cpicker, LV_OBJX_NAME);
 463:..\..\..\lvgl\version_6.1.2\lvgl\src\lv_objx/lv_cpicker.c **** 
 464:..\..\..\lvgl\version_6.1.2\lvgl\src\lv_objx/lv_cpicker.c ****     lv_cpicker_ext_t * ext = lv_obj_get_ext_attr(cpicker);
 1424              		.loc 3 464 0
 1425 0008 7868     		ldr	r0, [r7, #4]
 1426 000a FFF7FEFF 		bl	lv_obj_get_ext_attr
 1427 000e F860     		str	r0, [r7, #12]
 465:..\..\..\lvgl\version_6.1.2\lvgl\src\lv_objx/lv_cpicker.c **** 
 466:..\..\..\lvgl\version_6.1.2\lvgl\src\lv_objx/lv_cpicker.c ****     return lv_color_hsv_to_rgb(ext->hsv.h, ext->hsv.s, ext->hsv.v);
 1428              		.loc 3 466 0
 1429 0010 FB68     		ldr	r3, [r7, #12]
 1430 0012 1888     		ldrh	r0, [r3]
 1431 0014 FB68     		ldr	r3, [r7, #12]
 1432 0016 9978     		ldrb	r1, [r3, #2]	@ zero_extendqisi2
 1433 0018 FB68     		ldr	r3, [r7, #12]
 1434 001a DB78     		ldrb	r3, [r3, #3]	@ zero_extendqisi2
 1435 001c 1A46     		mov	r2, r3
 1436 001e FFF7FEFF 		bl	lv_color_hsv_to_rgb
 1437 0022 0346     		mov	r3, r0
 467:..\..\..\lvgl\version_6.1.2\lvgl\src\lv_objx/lv_cpicker.c **** }
 1438              		.loc 3 467 0
 1439 0024 1846     		mov	r0, r3
 1440 0026 1037     		adds	r7, r7, #16
 1441              		.cfi_def_cfa_offset 8
 1442 0028 BD46     		mov	sp, r7
 1443              		.cfi_def_cfa_register 13
 1444              		@ sp needed
 1445 002a 80BD     		pop	{r7, pc}
 1446              		.cfi_endproc
 1447              	.LFE50:
 1448              		.size	lv_cpicker_get_color, .-lv_cpicker_get_color
 1449              		.section	.text.lv_cpicker_get_indic_colored,"ax",%progbits
ARM GAS  C:\Users\tmj32\AppData\Local\Temp\cc11CUDk.s 			page 44


 1450              		.align	2
 1451              		.global	lv_cpicker_get_indic_colored
 1452              		.thumb
 1453              		.thumb_func
 1454              		.type	lv_cpicker_get_indic_colored, %function
 1455              	lv_cpicker_get_indic_colored:
 1456              	.LFB51:
 468:..\..\..\lvgl\version_6.1.2\lvgl\src\lv_objx/lv_cpicker.c **** 
 469:..\..\..\lvgl\version_6.1.2\lvgl\src\lv_objx/lv_cpicker.c **** /**
 470:..\..\..\lvgl\version_6.1.2\lvgl\src\lv_objx/lv_cpicker.c ****  * Whether the indicator is colored to the current color or not
 471:..\..\..\lvgl\version_6.1.2\lvgl\src\lv_objx/lv_cpicker.c ****  * @param cpicker pointer to colorpicker object
 472:..\..\..\lvgl\version_6.1.2\lvgl\src\lv_objx/lv_cpicker.c ****  * @return true: color the indicator; false: not color the indicator
 473:..\..\..\lvgl\version_6.1.2\lvgl\src\lv_objx/lv_cpicker.c ****  */
 474:..\..\..\lvgl\version_6.1.2\lvgl\src\lv_objx/lv_cpicker.c **** bool lv_cpicker_get_indic_colored(lv_obj_t * cpicker)
 475:..\..\..\lvgl\version_6.1.2\lvgl\src\lv_objx/lv_cpicker.c **** {
 1457              		.loc 3 475 0
 1458              		.cfi_startproc
 1459              		@ args = 0, pretend = 0, frame = 16
 1460              		@ frame_needed = 1, uses_anonymous_args = 0
 1461 0000 80B5     		push	{r7, lr}
 1462              		.cfi_def_cfa_offset 8
 1463              		.cfi_offset 7, -8
 1464              		.cfi_offset 14, -4
 1465 0002 84B0     		sub	sp, sp, #16
 1466              		.cfi_def_cfa_offset 24
 1467 0004 00AF     		add	r7, sp, #0
 1468              		.cfi_def_cfa_register 7
 1469 0006 7860     		str	r0, [r7, #4]
 476:..\..\..\lvgl\version_6.1.2\lvgl\src\lv_objx/lv_cpicker.c ****     LV_ASSERT_OBJ(cpicker, LV_OBJX_NAME);
 477:..\..\..\lvgl\version_6.1.2\lvgl\src\lv_objx/lv_cpicker.c **** 
 478:..\..\..\lvgl\version_6.1.2\lvgl\src\lv_objx/lv_cpicker.c ****     lv_cpicker_ext_t * ext = lv_obj_get_ext_attr(cpicker);
 1470              		.loc 3 478 0
 1471 0008 7868     		ldr	r0, [r7, #4]
 1472 000a FFF7FEFF 		bl	lv_obj_get_ext_attr
 1473 000e F860     		str	r0, [r7, #12]
 479:..\..\..\lvgl\version_6.1.2\lvgl\src\lv_objx/lv_cpicker.c **** 
 480:..\..\..\lvgl\version_6.1.2\lvgl\src\lv_objx/lv_cpicker.c ****     return ext->indic.colored ? true : false;
 1474              		.loc 3 480 0
 1475 0010 FB68     		ldr	r3, [r7, #12]
 1476 0012 1B7B     		ldrb	r3, [r3, #12]	@ zero_extendqisi2
 1477 0014 03F00103 		and	r3, r3, #1
 1478 0018 DBB2     		uxtb	r3, r3
 1479 001a 002B     		cmp	r3, #0
 1480 001c 14BF     		ite	ne
 1481 001e 0123     		movne	r3, #1
 1482 0020 0023     		moveq	r3, #0
 1483 0022 DBB2     		uxtb	r3, r3
 481:..\..\..\lvgl\version_6.1.2\lvgl\src\lv_objx/lv_cpicker.c **** }
 1484              		.loc 3 481 0
 1485 0024 1846     		mov	r0, r3
 1486 0026 1037     		adds	r7, r7, #16
 1487              		.cfi_def_cfa_offset 8
 1488 0028 BD46     		mov	sp, r7
 1489              		.cfi_def_cfa_register 13
 1490              		@ sp needed
 1491 002a 80BD     		pop	{r7, pc}
 1492              		.cfi_endproc
ARM GAS  C:\Users\tmj32\AppData\Local\Temp\cc11CUDk.s 			page 45


 1493              	.LFE51:
 1494              		.size	lv_cpicker_get_indic_colored, .-lv_cpicker_get_indic_colored
 1495              		.section	.text.lv_cpicker_get_preview,"ax",%progbits
 1496              		.align	2
 1497              		.global	lv_cpicker_get_preview
 1498              		.thumb
 1499              		.thumb_func
 1500              		.type	lv_cpicker_get_preview, %function
 1501              	lv_cpicker_get_preview:
 1502              	.LFB52:
 482:..\..\..\lvgl\version_6.1.2\lvgl\src\lv_objx/lv_cpicker.c **** 
 483:..\..\..\lvgl\version_6.1.2\lvgl\src\lv_objx/lv_cpicker.c **** /**
 484:..\..\..\lvgl\version_6.1.2\lvgl\src\lv_objx/lv_cpicker.c ****  *  Whether the preview is enabled or not
 485:..\..\..\lvgl\version_6.1.2\lvgl\src\lv_objx/lv_cpicker.c ****  * @param cpicker pointer to colorpicker object
 486:..\..\..\lvgl\version_6.1.2\lvgl\src\lv_objx/lv_cpicker.c ****  * @return en true: preview is enabled; false: preview is disabled
 487:..\..\..\lvgl\version_6.1.2\lvgl\src\lv_objx/lv_cpicker.c ****  */
 488:..\..\..\lvgl\version_6.1.2\lvgl\src\lv_objx/lv_cpicker.c **** bool lv_cpicker_get_preview(lv_obj_t * cpicker)
 489:..\..\..\lvgl\version_6.1.2\lvgl\src\lv_objx/lv_cpicker.c **** {
 1503              		.loc 3 489 0
 1504              		.cfi_startproc
 1505              		@ args = 0, pretend = 0, frame = 16
 1506              		@ frame_needed = 1, uses_anonymous_args = 0
 1507 0000 80B5     		push	{r7, lr}
 1508              		.cfi_def_cfa_offset 8
 1509              		.cfi_offset 7, -8
 1510              		.cfi_offset 14, -4
 1511 0002 84B0     		sub	sp, sp, #16
 1512              		.cfi_def_cfa_offset 24
 1513 0004 00AF     		add	r7, sp, #0
 1514              		.cfi_def_cfa_register 7
 1515 0006 7860     		str	r0, [r7, #4]
 490:..\..\..\lvgl\version_6.1.2\lvgl\src\lv_objx/lv_cpicker.c ****     LV_ASSERT_OBJ(cpicker, LV_OBJX_NAME);
 491:..\..\..\lvgl\version_6.1.2\lvgl\src\lv_objx/lv_cpicker.c **** 
 492:..\..\..\lvgl\version_6.1.2\lvgl\src\lv_objx/lv_cpicker.c ****     lv_cpicker_ext_t * ext = lv_obj_get_ext_attr(cpicker);
 1516              		.loc 3 492 0
 1517 0008 7868     		ldr	r0, [r7, #4]
 1518 000a FFF7FEFF 		bl	lv_obj_get_ext_attr
 1519 000e F860     		str	r0, [r7, #12]
 493:..\..\..\lvgl\version_6.1.2\lvgl\src\lv_objx/lv_cpicker.c **** 
 494:..\..\..\lvgl\version_6.1.2\lvgl\src\lv_objx/lv_cpicker.c ****     return ext->preview ? true : false;
 1520              		.loc 3 494 0
 1521 0010 FB68     		ldr	r3, [r7, #12]
 1522 0012 1B7F     		ldrb	r3, [r3, #28]	@ zero_extendqisi2
 1523 0014 03F01003 		and	r3, r3, #16
 1524 0018 DBB2     		uxtb	r3, r3
 1525 001a 002B     		cmp	r3, #0
 1526 001c 14BF     		ite	ne
 1527 001e 0123     		movne	r3, #1
 1528 0020 0023     		moveq	r3, #0
 1529 0022 DBB2     		uxtb	r3, r3
 495:..\..\..\lvgl\version_6.1.2\lvgl\src\lv_objx/lv_cpicker.c **** }
 1530              		.loc 3 495 0
 1531 0024 1846     		mov	r0, r3
 1532 0026 1037     		adds	r7, r7, #16
 1533              		.cfi_def_cfa_offset 8
 1534 0028 BD46     		mov	sp, r7
 1535              		.cfi_def_cfa_register 13
ARM GAS  C:\Users\tmj32\AppData\Local\Temp\cc11CUDk.s 			page 46


 1536              		@ sp needed
 1537 002a 80BD     		pop	{r7, pc}
 1538              		.cfi_endproc
 1539              	.LFE52:
 1540              		.size	lv_cpicker_get_preview, .-lv_cpicker_get_preview
 1541              		.section	.text.lv_cpicker_design,"ax",%progbits
 1542              		.align	2
 1543              		.thumb
 1544              		.thumb_func
 1545              		.type	lv_cpicker_design, %function
 1546              	lv_cpicker_design:
 1547              	.LFB53:
 496:..\..\..\lvgl\version_6.1.2\lvgl\src\lv_objx/lv_cpicker.c **** 
 497:..\..\..\lvgl\version_6.1.2\lvgl\src\lv_objx/lv_cpicker.c **** 
 498:..\..\..\lvgl\version_6.1.2\lvgl\src\lv_objx/lv_cpicker.c **** /*=====================
 499:..\..\..\lvgl\version_6.1.2\lvgl\src\lv_objx/lv_cpicker.c ****  * Other functions
 500:..\..\..\lvgl\version_6.1.2\lvgl\src\lv_objx/lv_cpicker.c ****  *====================*/
 501:..\..\..\lvgl\version_6.1.2\lvgl\src\lv_objx/lv_cpicker.c **** 
 502:..\..\..\lvgl\version_6.1.2\lvgl\src\lv_objx/lv_cpicker.c **** /**********************
 503:..\..\..\lvgl\version_6.1.2\lvgl\src\lv_objx/lv_cpicker.c ****  *   STATIC FUNCTIONS
 504:..\..\..\lvgl\version_6.1.2\lvgl\src\lv_objx/lv_cpicker.c ****  **********************/
 505:..\..\..\lvgl\version_6.1.2\lvgl\src\lv_objx/lv_cpicker.c **** 
 506:..\..\..\lvgl\version_6.1.2\lvgl\src\lv_objx/lv_cpicker.c **** 
 507:..\..\..\lvgl\version_6.1.2\lvgl\src\lv_objx/lv_cpicker.c **** /**
 508:..\..\..\lvgl\version_6.1.2\lvgl\src\lv_objx/lv_cpicker.c ****  * Handle the drawing related tasks of the color_picker
 509:..\..\..\lvgl\version_6.1.2\lvgl\src\lv_objx/lv_cpicker.c ****  * @param cpicker pointer to an object
 510:..\..\..\lvgl\version_6.1.2\lvgl\src\lv_objx/lv_cpicker.c ****  * @param mask the object will be drawn only in this area
 511:..\..\..\lvgl\version_6.1.2\lvgl\src\lv_objx/lv_cpicker.c ****  * @param mode LV_DESIGN_COVER_CHK: only check if the object fully covers the 'mask_p' area
 512:..\..\..\lvgl\version_6.1.2\lvgl\src\lv_objx/lv_cpicker.c ****  *                                  (return 'true' if yes)
 513:..\..\..\lvgl\version_6.1.2\lvgl\src\lv_objx/lv_cpicker.c ****  *             LV_DESIGN_DRAW: draw the object (always return 'true')
 514:..\..\..\lvgl\version_6.1.2\lvgl\src\lv_objx/lv_cpicker.c ****  *             LV_DESIGN_DRAW_POST: drawing after every children are drawn
 515:..\..\..\lvgl\version_6.1.2\lvgl\src\lv_objx/lv_cpicker.c ****  * @return true/false, depends on 'mode'
 516:..\..\..\lvgl\version_6.1.2\lvgl\src\lv_objx/lv_cpicker.c ****  */
 517:..\..\..\lvgl\version_6.1.2\lvgl\src\lv_objx/lv_cpicker.c **** static bool lv_cpicker_design(lv_obj_t * cpicker, const lv_area_t * mask, lv_design_mode_t mode)
 518:..\..\..\lvgl\version_6.1.2\lvgl\src\lv_objx/lv_cpicker.c **** {
 1548              		.loc 3 518 0
 1549              		.cfi_startproc
 1550              		@ args = 0, pretend = 0, frame = 24
 1551              		@ frame_needed = 1, uses_anonymous_args = 0
 1552 0000 80B5     		push	{r7, lr}
 1553              		.cfi_def_cfa_offset 8
 1554              		.cfi_offset 7, -8
 1555              		.cfi_offset 14, -4
 1556 0002 86B0     		sub	sp, sp, #24
 1557              		.cfi_def_cfa_offset 32
 1558 0004 00AF     		add	r7, sp, #0
 1559              		.cfi_def_cfa_register 7
 1560 0006 F860     		str	r0, [r7, #12]
 1561 0008 B960     		str	r1, [r7, #8]
 1562 000a 1346     		mov	r3, r2
 1563 000c FB71     		strb	r3, [r7, #7]
 519:..\..\..\lvgl\version_6.1.2\lvgl\src\lv_objx/lv_cpicker.c ****     /*Return false if the object is not covers the mask_p area*/
 520:..\..\..\lvgl\version_6.1.2\lvgl\src\lv_objx/lv_cpicker.c ****     if(mode == LV_DESIGN_COVER_CHK)  {
 1564              		.loc 3 520 0
 1565 000e FB79     		ldrb	r3, [r7, #7]	@ zero_extendqisi2
 1566 0010 022B     		cmp	r3, #2
 1567 0012 01D1     		bne	.L75
ARM GAS  C:\Users\tmj32\AppData\Local\Temp\cc11CUDk.s 			page 47


 521:..\..\..\lvgl\version_6.1.2\lvgl\src\lv_objx/lv_cpicker.c ****         return false;
 1568              		.loc 3 521 0
 1569 0014 0023     		movs	r3, #0
 1570 0016 2DE0     		b	.L76
 1571              	.L75:
 522:..\..\..\lvgl\version_6.1.2\lvgl\src\lv_objx/lv_cpicker.c ****     }
 523:..\..\..\lvgl\version_6.1.2\lvgl\src\lv_objx/lv_cpicker.c ****     /*Draw the object*/
 524:..\..\..\lvgl\version_6.1.2\lvgl\src\lv_objx/lv_cpicker.c ****     else if(mode == LV_DESIGN_DRAW_MAIN) {
 1572              		.loc 3 524 0
 1573 0018 FB79     		ldrb	r3, [r7, #7]	@ zero_extendqisi2
 1574 001a 002B     		cmp	r3, #0
 1575 001c 29D1     		bne	.L77
 1576              	.LBB4:
 525:..\..\..\lvgl\version_6.1.2\lvgl\src\lv_objx/lv_cpicker.c ****         lv_cpicker_ext_t * ext = lv_obj_get_ext_attr(cpicker);
 1577              		.loc 3 525 0
 1578 001e F868     		ldr	r0, [r7, #12]
 1579 0020 FFF7FEFF 		bl	lv_obj_get_ext_attr
 1580 0024 7861     		str	r0, [r7, #20]
 526:..\..\..\lvgl\version_6.1.2\lvgl\src\lv_objx/lv_cpicker.c ****         lv_opa_t opa_scale = lv_obj_get_opa_scale(cpicker);
 1581              		.loc 3 526 0
 1582 0026 F868     		ldr	r0, [r7, #12]
 1583 0028 FFF7FEFF 		bl	lv_obj_get_opa_scale
 1584 002c 0346     		mov	r3, r0
 1585 002e FB74     		strb	r3, [r7, #19]
 527:..\..\..\lvgl\version_6.1.2\lvgl\src\lv_objx/lv_cpicker.c **** 
 528:..\..\..\lvgl\version_6.1.2\lvgl\src\lv_objx/lv_cpicker.c ****         if(ext->type == LV_CPICKER_TYPE_DISC) {
 1586              		.loc 3 528 0
 1587 0030 7B69     		ldr	r3, [r7, #20]
 1588 0032 1B7F     		ldrb	r3, [r3, #28]	@ zero_extendqisi2
 1589 0034 03F00803 		and	r3, r3, #8
 1590 0038 DBB2     		uxtb	r3, r3
 1591 003a 002B     		cmp	r3, #0
 1592 003c 06D0     		beq	.L78
 529:..\..\..\lvgl\version_6.1.2\lvgl\src\lv_objx/lv_cpicker.c ****             draw_disc_grad(cpicker, mask, opa_scale);
 1593              		.loc 3 529 0
 1594 003e FB7C     		ldrb	r3, [r7, #19]	@ zero_extendqisi2
 1595 0040 1A46     		mov	r2, r3
 1596 0042 B968     		ldr	r1, [r7, #8]
 1597 0044 F868     		ldr	r0, [r7, #12]
 1598 0046 FFF7FEFF 		bl	draw_disc_grad
 1599 004a 0CE0     		b	.L79
 1600              	.L78:
 530:..\..\..\lvgl\version_6.1.2\lvgl\src\lv_objx/lv_cpicker.c ****         } else if(ext->type == LV_CPICKER_TYPE_RECT) {
 1601              		.loc 3 530 0
 1602 004c 7B69     		ldr	r3, [r7, #20]
 1603 004e 1B7F     		ldrb	r3, [r3, #28]	@ zero_extendqisi2
 1604 0050 03F00803 		and	r3, r3, #8
 1605 0054 DBB2     		uxtb	r3, r3
 1606 0056 002B     		cmp	r3, #0
 1607 0058 05D1     		bne	.L79
 531:..\..\..\lvgl\version_6.1.2\lvgl\src\lv_objx/lv_cpicker.c ****             draw_rect_grad(cpicker, mask, opa_scale);
 1608              		.loc 3 531 0
 1609 005a FB7C     		ldrb	r3, [r7, #19]	@ zero_extendqisi2
 1610 005c 1A46     		mov	r2, r3
 1611 005e B968     		ldr	r1, [r7, #8]
 1612 0060 F868     		ldr	r0, [r7, #12]
 1613 0062 FFF7FEFF 		bl	draw_rect_grad
ARM GAS  C:\Users\tmj32\AppData\Local\Temp\cc11CUDk.s 			page 48


 1614              	.L79:
 532:..\..\..\lvgl\version_6.1.2\lvgl\src\lv_objx/lv_cpicker.c ****         }
 533:..\..\..\lvgl\version_6.1.2\lvgl\src\lv_objx/lv_cpicker.c **** 
 534:..\..\..\lvgl\version_6.1.2\lvgl\src\lv_objx/lv_cpicker.c ****         draw_indic(cpicker, mask, opa_scale);
 1615              		.loc 3 534 0
 1616 0066 FB7C     		ldrb	r3, [r7, #19]	@ zero_extendqisi2
 1617 0068 1A46     		mov	r2, r3
 1618 006a B968     		ldr	r1, [r7, #8]
 1619 006c F868     		ldr	r0, [r7, #12]
 1620 006e FFF7FEFF 		bl	draw_indic
 1621              	.L77:
 1622              	.LBE4:
 535:..\..\..\lvgl\version_6.1.2\lvgl\src\lv_objx/lv_cpicker.c ****     }
 536:..\..\..\lvgl\version_6.1.2\lvgl\src\lv_objx/lv_cpicker.c ****     /*Post draw when the children are drawn*/
 537:..\..\..\lvgl\version_6.1.2\lvgl\src\lv_objx/lv_cpicker.c ****     else if(mode == LV_DESIGN_DRAW_POST) {
 538:..\..\..\lvgl\version_6.1.2\lvgl\src\lv_objx/lv_cpicker.c ****     }
 539:..\..\..\lvgl\version_6.1.2\lvgl\src\lv_objx/lv_cpicker.c **** 
 540:..\..\..\lvgl\version_6.1.2\lvgl\src\lv_objx/lv_cpicker.c ****     return true;
 1623              		.loc 3 540 0
 1624 0072 0123     		movs	r3, #1
 1625              	.L76:
 541:..\..\..\lvgl\version_6.1.2\lvgl\src\lv_objx/lv_cpicker.c **** }
 1626              		.loc 3 541 0
 1627 0074 1846     		mov	r0, r3
 1628 0076 1837     		adds	r7, r7, #24
 1629              		.cfi_def_cfa_offset 8
 1630 0078 BD46     		mov	sp, r7
 1631              		.cfi_def_cfa_register 13
 1632              		@ sp needed
 1633 007a 80BD     		pop	{r7, pc}
 1634              		.cfi_endproc
 1635              	.LFE53:
 1636              		.size	lv_cpicker_design, .-lv_cpicker_design
 1637              		.section	.text.draw_disc_grad,"ax",%progbits
 1638              		.align	2
 1639              		.thumb
 1640              		.thumb_func
 1641              		.type	draw_disc_grad, %function
 1642              	draw_disc_grad:
 1643              	.LFB54:
 542:..\..\..\lvgl\version_6.1.2\lvgl\src\lv_objx/lv_cpicker.c **** 
 543:..\..\..\lvgl\version_6.1.2\lvgl\src\lv_objx/lv_cpicker.c **** static void draw_disc_grad(lv_obj_t * cpicker, const lv_area_t * mask, lv_opa_t opa_scale)
 544:..\..\..\lvgl\version_6.1.2\lvgl\src\lv_objx/lv_cpicker.c **** {
 1644              		.loc 3 544 0
 1645              		.cfi_startproc
 1646              		@ args = 0, pretend = 0, frame = 168
 1647              		@ frame_needed = 1, uses_anonymous_args = 0
 1648 0000 90B5     		push	{r4, r7, lr}
 1649              		.cfi_def_cfa_offset 12
 1650              		.cfi_offset 4, -12
 1651              		.cfi_offset 7, -8
 1652              		.cfi_offset 14, -4
 1653 0002 ABB0     		sub	sp, sp, #172
 1654              		.cfi_def_cfa_offset 184
 1655 0004 00AF     		add	r7, sp, #0
 1656              		.cfi_def_cfa_register 7
 1657 0006 F860     		str	r0, [r7, #12]
ARM GAS  C:\Users\tmj32\AppData\Local\Temp\cc11CUDk.s 			page 49


 1658 0008 B960     		str	r1, [r7, #8]
 1659 000a 1346     		mov	r3, r2
 1660 000c FB71     		strb	r3, [r7, #7]
 545:..\..\..\lvgl\version_6.1.2\lvgl\src\lv_objx/lv_cpicker.c ****     lv_cpicker_ext_t * ext = lv_obj_get_ext_attr(cpicker);
 1661              		.loc 3 545 0
 1662 000e F868     		ldr	r0, [r7, #12]
 1663 0010 FFF7FEFF 		bl	lv_obj_get_ext_attr
 1664 0014 C7F89C00 		str	r0, [r7, #156]
 546:..\..\..\lvgl\version_6.1.2\lvgl\src\lv_objx/lv_cpicker.c ****     int16_t start_angle = 0; /*Default*/
 1665              		.loc 3 546 0
 1666 0018 0023     		movs	r3, #0
 1667 001a A7F8A630 		strh	r3, [r7, #166]	@ movhi
 547:..\..\..\lvgl\version_6.1.2\lvgl\src\lv_objx/lv_cpicker.c ****     int16_t end_angle = 360 - LV_CPICKER_DEF_QF; /*Default*/
 1668              		.loc 3 547 0
 1669 001e 40F26513 		movw	r3, #357
 1670 0022 A7F8A430 		strh	r3, [r7, #164]	@ movhi
 548:..\..\..\lvgl\version_6.1.2\lvgl\src\lv_objx/lv_cpicker.c **** 
 549:..\..\..\lvgl\version_6.1.2\lvgl\src\lv_objx/lv_cpicker.c ****     lv_coord_t w = lv_obj_get_width(cpicker);
 1671              		.loc 3 549 0
 1672 0026 F868     		ldr	r0, [r7, #12]
 1673 0028 FFF7FEFF 		bl	lv_obj_get_width
 1674 002c 0346     		mov	r3, r0
 1675 002e A7F89A30 		strh	r3, [r7, #154]	@ movhi
 550:..\..\..\lvgl\version_6.1.2\lvgl\src\lv_objx/lv_cpicker.c ****     lv_coord_t h = lv_obj_get_height(cpicker);
 1676              		.loc 3 550 0
 1677 0032 F868     		ldr	r0, [r7, #12]
 1678 0034 FFF7FEFF 		bl	lv_obj_get_height
 1679 0038 0346     		mov	r3, r0
 1680 003a A7F89830 		strh	r3, [r7, #152]	@ movhi
 551:..\..\..\lvgl\version_6.1.2\lvgl\src\lv_objx/lv_cpicker.c ****     lv_coord_t cx = cpicker->coords.x1 + w / 2;
 1681              		.loc 3 551 0
 1682 003e FB68     		ldr	r3, [r7, #12]
 1683 0040 B3F91030 		ldrsh	r3, [r3, #16]
 1684 0044 9AB2     		uxth	r2, r3
 1685 0046 B7F99A30 		ldrsh	r3, [r7, #154]
 1686 004a D90F     		lsrs	r1, r3, #31
 1687 004c 0B44     		add	r3, r3, r1
 1688 004e 5B10     		asrs	r3, r3, #1
 1689 0050 1BB2     		sxth	r3, r3
 1690 0052 9BB2     		uxth	r3, r3
 1691 0054 1344     		add	r3, r3, r2
 1692 0056 9BB2     		uxth	r3, r3
 1693 0058 A7F89630 		strh	r3, [r7, #150]	@ movhi
 552:..\..\..\lvgl\version_6.1.2\lvgl\src\lv_objx/lv_cpicker.c ****     lv_coord_t cy = cpicker->coords.y1 + h / 2;
 1694              		.loc 3 552 0
 1695 005c FB68     		ldr	r3, [r7, #12]
 1696 005e B3F91230 		ldrsh	r3, [r3, #18]
 1697 0062 9AB2     		uxth	r2, r3
 1698 0064 B7F99830 		ldrsh	r3, [r7, #152]
 1699 0068 D90F     		lsrs	r1, r3, #31
 1700 006a 0B44     		add	r3, r3, r1
 1701 006c 5B10     		asrs	r3, r3, #1
 1702 006e 1BB2     		sxth	r3, r3
 1703 0070 9BB2     		uxth	r3, r3
 1704 0072 1344     		add	r3, r3, r2
 1705 0074 9BB2     		uxth	r3, r3
 1706 0076 A7F89430 		strh	r3, [r7, #148]	@ movhi
ARM GAS  C:\Users\tmj32\AppData\Local\Temp\cc11CUDk.s 			page 50


 553:..\..\..\lvgl\version_6.1.2\lvgl\src\lv_objx/lv_cpicker.c ****     lv_coord_t r = w / 2;
 1707              		.loc 3 553 0
 1708 007a B7F99A30 		ldrsh	r3, [r7, #154]
 1709 007e DA0F     		lsrs	r2, r3, #31
 1710 0080 1344     		add	r3, r3, r2
 1711 0082 5B10     		asrs	r3, r3, #1
 1712 0084 A7F89230 		strh	r3, [r7, #146]	@ movhi
 554:..\..\..\lvgl\version_6.1.2\lvgl\src\lv_objx/lv_cpicker.c **** 
 555:..\..\..\lvgl\version_6.1.2\lvgl\src\lv_objx/lv_cpicker.c ****     /*if the mask does not include the center of the object
 556:..\..\..\lvgl\version_6.1.2\lvgl\src\lv_objx/lv_cpicker.c ****     * redrawing all the wheel is not necessary;
 557:..\..\..\lvgl\version_6.1.2\lvgl\src\lv_objx/lv_cpicker.c ****     * only a given angular range
 558:..\..\..\lvgl\version_6.1.2\lvgl\src\lv_objx/lv_cpicker.c ****     */
 559:..\..\..\lvgl\version_6.1.2\lvgl\src\lv_objx/lv_cpicker.c ****     lv_point_t center = {cx, cy};
 1713              		.loc 3 559 0
 1714 0088 B7F89630 		ldrh	r3, [r7, #150]	@ movhi
 1715 008c A7F87C30 		strh	r3, [r7, #124]	@ movhi
 1716 0090 B7F89430 		ldrh	r3, [r7, #148]	@ movhi
 1717 0094 A7F87E30 		strh	r3, [r7, #126]	@ movhi
 560:..\..\..\lvgl\version_6.1.2\lvgl\src\lv_objx/lv_cpicker.c ****     if(!lv_area_is_point_on(mask, &center))
 1718              		.loc 3 560 0
 1719 0098 07F17C03 		add	r3, r7, #124
 1720 009c 1946     		mov	r1, r3
 1721 009e B868     		ldr	r0, [r7, #8]
 1722 00a0 FFF7FEFF 		bl	lv_area_is_point_on
 1723 00a4 0346     		mov	r3, r0
 1724 00a6 83F00103 		eor	r3, r3, #1
 1725 00aa DBB2     		uxtb	r3, r3
 1726 00ac 002B     		cmp	r3, #0
 1727 00ae 00F0BB81 		beq	.L81
 1728              	.LBB5:
 561:..\..\..\lvgl\version_6.1.2\lvgl\src\lv_objx/lv_cpicker.c ****     {
 562:..\..\..\lvgl\version_6.1.2\lvgl\src\lv_objx/lv_cpicker.c ****         /*get angle from center of object to each corners of the area*/
 563:..\..\..\lvgl\version_6.1.2\lvgl\src\lv_objx/lv_cpicker.c ****         int16_t dr, ur, ul, dl;
 564:..\..\..\lvgl\version_6.1.2\lvgl\src\lv_objx/lv_cpicker.c ****         dr = lv_atan2(mask->x2 - cx, mask->y2 - cy);
 1729              		.loc 3 564 0
 1730 00b2 BB68     		ldr	r3, [r7, #8]
 1731 00b4 B3F90430 		ldrsh	r3, [r3, #4]
 1732 00b8 1A46     		mov	r2, r3
 1733 00ba B7F99630 		ldrsh	r3, [r7, #150]
 1734 00be D21A     		subs	r2, r2, r3
 1735 00c0 BB68     		ldr	r3, [r7, #8]
 1736 00c2 B3F90630 		ldrsh	r3, [r3, #6]
 1737 00c6 1946     		mov	r1, r3
 1738 00c8 B7F99430 		ldrsh	r3, [r7, #148]
 1739 00cc CB1A     		subs	r3, r1, r3
 1740 00ce 1946     		mov	r1, r3
 1741 00d0 1046     		mov	r0, r2
 1742 00d2 FFF7FEFF 		bl	lv_atan2
 1743 00d6 0346     		mov	r3, r0
 1744 00d8 A7F89030 		strh	r3, [r7, #144]	@ movhi
 565:..\..\..\lvgl\version_6.1.2\lvgl\src\lv_objx/lv_cpicker.c ****         ur = lv_atan2(mask->x2 - cx, mask->y1 - cy);
 1745              		.loc 3 565 0
 1746 00dc BB68     		ldr	r3, [r7, #8]
 1747 00de B3F90430 		ldrsh	r3, [r3, #4]
 1748 00e2 1A46     		mov	r2, r3
 1749 00e4 B7F99630 		ldrsh	r3, [r7, #150]
 1750 00e8 D21A     		subs	r2, r2, r3
ARM GAS  C:\Users\tmj32\AppData\Local\Temp\cc11CUDk.s 			page 51


 1751 00ea BB68     		ldr	r3, [r7, #8]
 1752 00ec B3F90230 		ldrsh	r3, [r3, #2]
 1753 00f0 1946     		mov	r1, r3
 1754 00f2 B7F99430 		ldrsh	r3, [r7, #148]
 1755 00f6 CB1A     		subs	r3, r1, r3
 1756 00f8 1946     		mov	r1, r3
 1757 00fa 1046     		mov	r0, r2
 1758 00fc FFF7FEFF 		bl	lv_atan2
 1759 0100 0346     		mov	r3, r0
 1760 0102 A7F88E30 		strh	r3, [r7, #142]	@ movhi
 566:..\..\..\lvgl\version_6.1.2\lvgl\src\lv_objx/lv_cpicker.c ****         ul = lv_atan2(mask->x1 - cx, mask->y1 - cy);
 1761              		.loc 3 566 0
 1762 0106 BB68     		ldr	r3, [r7, #8]
 1763 0108 B3F90030 		ldrsh	r3, [r3]
 1764 010c 1A46     		mov	r2, r3
 1765 010e B7F99630 		ldrsh	r3, [r7, #150]
 1766 0112 D21A     		subs	r2, r2, r3
 1767 0114 BB68     		ldr	r3, [r7, #8]
 1768 0116 B3F90230 		ldrsh	r3, [r3, #2]
 1769 011a 1946     		mov	r1, r3
 1770 011c B7F99430 		ldrsh	r3, [r7, #148]
 1771 0120 CB1A     		subs	r3, r1, r3
 1772 0122 1946     		mov	r1, r3
 1773 0124 1046     		mov	r0, r2
 1774 0126 FFF7FEFF 		bl	lv_atan2
 1775 012a 0346     		mov	r3, r0
 1776 012c A7F88C30 		strh	r3, [r7, #140]	@ movhi
 567:..\..\..\lvgl\version_6.1.2\lvgl\src\lv_objx/lv_cpicker.c ****         dl = lv_atan2(mask->x1 - cx, mask->y2 - cy);
 1777              		.loc 3 567 0
 1778 0130 BB68     		ldr	r3, [r7, #8]
 1779 0132 B3F90030 		ldrsh	r3, [r3]
 1780 0136 1A46     		mov	r2, r3
 1781 0138 B7F99630 		ldrsh	r3, [r7, #150]
 1782 013c D21A     		subs	r2, r2, r3
 1783 013e BB68     		ldr	r3, [r7, #8]
 1784 0140 B3F90630 		ldrsh	r3, [r3, #6]
 1785 0144 1946     		mov	r1, r3
 1786 0146 B7F99430 		ldrsh	r3, [r7, #148]
 1787 014a CB1A     		subs	r3, r1, r3
 1788 014c 1946     		mov	r1, r3
 1789 014e 1046     		mov	r0, r2
 1790 0150 FFF7FEFF 		bl	lv_atan2
 1791 0154 0346     		mov	r3, r0
 1792 0156 A7F88A30 		strh	r3, [r7, #138]	@ movhi
 568:..\..\..\lvgl\version_6.1.2\lvgl\src\lv_objx/lv_cpicker.c **** 
 569:..\..\..\lvgl\version_6.1.2\lvgl\src\lv_objx/lv_cpicker.c ****         /*check area position from object axis*/
 570:..\..\..\lvgl\version_6.1.2\lvgl\src\lv_objx/lv_cpicker.c ****         bool left = (mask->x2 < cx && mask->x1 < cx) ? true : false;
 1793              		.loc 3 570 0
 1794 015a BB68     		ldr	r3, [r7, #8]
 1795 015c B3F90430 		ldrsh	r3, [r3, #4]
 1796 0160 B7F99620 		ldrsh	r2, [r7, #150]
 1797 0164 9A42     		cmp	r2, r3
 1798 0166 08DD     		ble	.L82
 1799              		.loc 3 570 0 is_stmt 0 discriminator 1
 1800 0168 BB68     		ldr	r3, [r7, #8]
 1801 016a B3F90030 		ldrsh	r3, [r3]
 1802 016e B7F99620 		ldrsh	r2, [r7, #150]
ARM GAS  C:\Users\tmj32\AppData\Local\Temp\cc11CUDk.s 			page 52


 1803 0172 9A42     		cmp	r2, r3
 1804 0174 01DD     		ble	.L82
 1805              		.loc 3 570 0 discriminator 3
 1806 0176 0123     		movs	r3, #1
 1807 0178 00E0     		b	.L83
 1808              	.L82:
 1809              		.loc 3 570 0 discriminator 4
 1810 017a 0023     		movs	r3, #0
 1811              	.L83:
 1812              		.loc 3 570 0 discriminator 6
 1813 017c 87F88930 		strb	r3, [r7, #137]
 1814 0180 97F88930 		ldrb	r3, [r7, #137]
 1815 0184 03F00103 		and	r3, r3, #1
 1816 0188 87F88930 		strb	r3, [r7, #137]
 571:..\..\..\lvgl\version_6.1.2\lvgl\src\lv_objx/lv_cpicker.c ****         bool onYaxis = (mask->x2 > cx && mask->x1 < cx) ? true : false;
 1817              		.loc 3 571 0 is_stmt 1 discriminator 6
 1818 018c BB68     		ldr	r3, [r7, #8]
 1819 018e B3F90430 		ldrsh	r3, [r3, #4]
 1820 0192 B7F99620 		ldrsh	r2, [r7, #150]
 1821 0196 9A42     		cmp	r2, r3
 1822 0198 08DA     		bge	.L84
 1823              		.loc 3 571 0 is_stmt 0 discriminator 1
 1824 019a BB68     		ldr	r3, [r7, #8]
 1825 019c B3F90030 		ldrsh	r3, [r3]
 1826 01a0 B7F99620 		ldrsh	r2, [r7, #150]
 1827 01a4 9A42     		cmp	r2, r3
 1828 01a6 01DD     		ble	.L84
 1829              		.loc 3 571 0 discriminator 3
 1830 01a8 0123     		movs	r3, #1
 1831 01aa 00E0     		b	.L85
 1832              	.L84:
 1833              		.loc 3 571 0 discriminator 4
 1834 01ac 0023     		movs	r3, #0
 1835              	.L85:
 1836              		.loc 3 571 0 discriminator 6
 1837 01ae 87F88830 		strb	r3, [r7, #136]
 1838 01b2 97F88830 		ldrb	r3, [r7, #136]
 1839 01b6 03F00103 		and	r3, r3, #1
 1840 01ba 87F88830 		strb	r3, [r7, #136]
 572:..\..\..\lvgl\version_6.1.2\lvgl\src\lv_objx/lv_cpicker.c ****         bool right = (mask->x2 > cx && mask->x1 > cx) ? true : false;
 1841              		.loc 3 572 0 is_stmt 1 discriminator 6
 1842 01be BB68     		ldr	r3, [r7, #8]
 1843 01c0 B3F90430 		ldrsh	r3, [r3, #4]
 1844 01c4 B7F99620 		ldrsh	r2, [r7, #150]
 1845 01c8 9A42     		cmp	r2, r3
 1846 01ca 08DA     		bge	.L86
 1847              		.loc 3 572 0 is_stmt 0 discriminator 1
 1848 01cc BB68     		ldr	r3, [r7, #8]
 1849 01ce B3F90030 		ldrsh	r3, [r3]
 1850 01d2 B7F99620 		ldrsh	r2, [r7, #150]
 1851 01d6 9A42     		cmp	r2, r3
 1852 01d8 01DA     		bge	.L86
 1853              		.loc 3 572 0 discriminator 3
 1854 01da 0123     		movs	r3, #1
 1855 01dc 00E0     		b	.L87
 1856              	.L86:
 1857              		.loc 3 572 0 discriminator 4
ARM GAS  C:\Users\tmj32\AppData\Local\Temp\cc11CUDk.s 			page 53


 1858 01de 0023     		movs	r3, #0
 1859              	.L87:
 1860              		.loc 3 572 0 discriminator 6
 1861 01e0 87F88730 		strb	r3, [r7, #135]
 1862 01e4 97F88730 		ldrb	r3, [r7, #135]
 1863 01e8 03F00103 		and	r3, r3, #1
 1864 01ec 87F88730 		strb	r3, [r7, #135]
 573:..\..\..\lvgl\version_6.1.2\lvgl\src\lv_objx/lv_cpicker.c ****         bool top = (mask->y2 < cy && mask->y1 < cy) ? true : false;
 1865              		.loc 3 573 0 is_stmt 1 discriminator 6
 1866 01f0 BB68     		ldr	r3, [r7, #8]
 1867 01f2 B3F90630 		ldrsh	r3, [r3, #6]
 1868 01f6 B7F99420 		ldrsh	r2, [r7, #148]
 1869 01fa 9A42     		cmp	r2, r3
 1870 01fc 08DD     		ble	.L88
 1871              		.loc 3 573 0 is_stmt 0 discriminator 1
 1872 01fe BB68     		ldr	r3, [r7, #8]
 1873 0200 B3F90230 		ldrsh	r3, [r3, #2]
 1874 0204 B7F99420 		ldrsh	r2, [r7, #148]
 1875 0208 9A42     		cmp	r2, r3
 1876 020a 01DD     		ble	.L88
 1877              		.loc 3 573 0 discriminator 3
 1878 020c 0123     		movs	r3, #1
 1879 020e 00E0     		b	.L89
 1880              	.L88:
 1881              		.loc 3 573 0 discriminator 4
 1882 0210 0023     		movs	r3, #0
 1883              	.L89:
 1884              		.loc 3 573 0 discriminator 6
 1885 0212 87F88630 		strb	r3, [r7, #134]
 1886 0216 97F88630 		ldrb	r3, [r7, #134]
 1887 021a 03F00103 		and	r3, r3, #1
 1888 021e 87F88630 		strb	r3, [r7, #134]
 574:..\..\..\lvgl\version_6.1.2\lvgl\src\lv_objx/lv_cpicker.c ****         bool onXaxis = (mask->y2 > cy && mask->y1 < cy) ? true : false;
 1889              		.loc 3 574 0 is_stmt 1 discriminator 6
 1890 0222 BB68     		ldr	r3, [r7, #8]
 1891 0224 B3F90630 		ldrsh	r3, [r3, #6]
 1892 0228 B7F99420 		ldrsh	r2, [r7, #148]
 1893 022c 9A42     		cmp	r2, r3
 1894 022e 08DA     		bge	.L90
 1895              		.loc 3 574 0 is_stmt 0 discriminator 1
 1896 0230 BB68     		ldr	r3, [r7, #8]
 1897 0232 B3F90230 		ldrsh	r3, [r3, #2]
 1898 0236 B7F99420 		ldrsh	r2, [r7, #148]
 1899 023a 9A42     		cmp	r2, r3
 1900 023c 01DD     		ble	.L90
 1901              		.loc 3 574 0 discriminator 3
 1902 023e 0123     		movs	r3, #1
 1903 0240 00E0     		b	.L91
 1904              	.L90:
 1905              		.loc 3 574 0 discriminator 4
 1906 0242 0023     		movs	r3, #0
 1907              	.L91:
 1908              		.loc 3 574 0 discriminator 6
 1909 0244 87F88530 		strb	r3, [r7, #133]
 1910 0248 97F88530 		ldrb	r3, [r7, #133]
 1911 024c 03F00103 		and	r3, r3, #1
 1912 0250 87F88530 		strb	r3, [r7, #133]
ARM GAS  C:\Users\tmj32\AppData\Local\Temp\cc11CUDk.s 			page 54


 575:..\..\..\lvgl\version_6.1.2\lvgl\src\lv_objx/lv_cpicker.c ****         bool bottom = (mask->y2 > cy && mask->y1 > cy) ? true : false;
 1913              		.loc 3 575 0 is_stmt 1 discriminator 6
 1914 0254 BB68     		ldr	r3, [r7, #8]
 1915 0256 B3F90630 		ldrsh	r3, [r3, #6]
 1916 025a B7F99420 		ldrsh	r2, [r7, #148]
 1917 025e 9A42     		cmp	r2, r3
 1918 0260 08DA     		bge	.L92
 1919              		.loc 3 575 0 is_stmt 0 discriminator 1
 1920 0262 BB68     		ldr	r3, [r7, #8]
 1921 0264 B3F90230 		ldrsh	r3, [r3, #2]
 1922 0268 B7F99420 		ldrsh	r2, [r7, #148]
 1923 026c 9A42     		cmp	r2, r3
 1924 026e 01DA     		bge	.L92
 1925              		.loc 3 575 0 discriminator 3
 1926 0270 0123     		movs	r3, #1
 1927 0272 00E0     		b	.L93
 1928              	.L92:
 1929              		.loc 3 575 0 discriminator 4
 1930 0274 0023     		movs	r3, #0
 1931              	.L93:
 1932              		.loc 3 575 0 discriminator 6
 1933 0276 87F88430 		strb	r3, [r7, #132]
 1934 027a 97F88430 		ldrb	r3, [r7, #132]
 1935 027e 03F00103 		and	r3, r3, #1
 1936 0282 87F88430 		strb	r3, [r7, #132]
 576:..\..\..\lvgl\version_6.1.2\lvgl\src\lv_objx/lv_cpicker.c **** 
 577:..\..\..\lvgl\version_6.1.2\lvgl\src\lv_objx/lv_cpicker.c ****         /*store angular range*/
 578:..\..\..\lvgl\version_6.1.2\lvgl\src\lv_objx/lv_cpicker.c ****         if(right && bottom) {
 1937              		.loc 3 578 0 is_stmt 1 discriminator 6
 1938 0286 97F88730 		ldrb	r3, [r7, #135]	@ zero_extendqisi2
 1939 028a 002B     		cmp	r3, #0
 1940 028c 0CD0     		beq	.L94
 1941              		.loc 3 578 0 is_stmt 0 discriminator 1
 1942 028e 97F88430 		ldrb	r3, [r7, #132]	@ zero_extendqisi2
 1943 0292 002B     		cmp	r3, #0
 1944 0294 08D0     		beq	.L94
 579:..\..\..\lvgl\version_6.1.2\lvgl\src\lv_objx/lv_cpicker.c ****             start_angle = dl;
 1945              		.loc 3 579 0 is_stmt 1
 1946 0296 B7F88A30 		ldrh	r3, [r7, #138]	@ movhi
 1947 029a A7F8A630 		strh	r3, [r7, #166]	@ movhi
 580:..\..\..\lvgl\version_6.1.2\lvgl\src\lv_objx/lv_cpicker.c ****             end_angle = ur;
 1948              		.loc 3 580 0
 1949 029e B7F88E30 		ldrh	r3, [r7, #142]	@ movhi
 1950 02a2 A7F8A430 		strh	r3, [r7, #164]	@ movhi
 1951 02a6 75E0     		b	.L95
 1952              	.L94:
 581:..\..\..\lvgl\version_6.1.2\lvgl\src\lv_objx/lv_cpicker.c ****         } else if(right && onXaxis) {
 1953              		.loc 3 581 0
 1954 02a8 97F88730 		ldrb	r3, [r7, #135]	@ zero_extendqisi2
 1955 02ac 002B     		cmp	r3, #0
 1956 02ae 0CD0     		beq	.L96
 1957              		.loc 3 581 0 is_stmt 0 discriminator 1
 1958 02b0 97F88530 		ldrb	r3, [r7, #133]	@ zero_extendqisi2
 1959 02b4 002B     		cmp	r3, #0
 1960 02b6 08D0     		beq	.L96
 582:..\..\..\lvgl\version_6.1.2\lvgl\src\lv_objx/lv_cpicker.c ****             start_angle = dl;
 1961              		.loc 3 582 0 is_stmt 1
ARM GAS  C:\Users\tmj32\AppData\Local\Temp\cc11CUDk.s 			page 55


 1962 02b8 B7F88A30 		ldrh	r3, [r7, #138]	@ movhi
 1963 02bc A7F8A630 		strh	r3, [r7, #166]	@ movhi
 583:..\..\..\lvgl\version_6.1.2\lvgl\src\lv_objx/lv_cpicker.c ****             end_angle = ul;
 1964              		.loc 3 583 0
 1965 02c0 B7F88C30 		ldrh	r3, [r7, #140]	@ movhi
 1966 02c4 A7F8A430 		strh	r3, [r7, #164]	@ movhi
 1967 02c8 64E0     		b	.L95
 1968              	.L96:
 584:..\..\..\lvgl\version_6.1.2\lvgl\src\lv_objx/lv_cpicker.c ****         } else if(right && top)  {
 1969              		.loc 3 584 0
 1970 02ca 97F88730 		ldrb	r3, [r7, #135]	@ zero_extendqisi2
 1971 02ce 002B     		cmp	r3, #0
 1972 02d0 0CD0     		beq	.L97
 1973              		.loc 3 584 0 is_stmt 0 discriminator 1
 1974 02d2 97F88630 		ldrb	r3, [r7, #134]	@ zero_extendqisi2
 1975 02d6 002B     		cmp	r3, #0
 1976 02d8 08D0     		beq	.L97
 585:..\..\..\lvgl\version_6.1.2\lvgl\src\lv_objx/lv_cpicker.c ****             start_angle = dr;
 1977              		.loc 3 585 0 is_stmt 1
 1978 02da B7F89030 		ldrh	r3, [r7, #144]	@ movhi
 1979 02de A7F8A630 		strh	r3, [r7, #166]	@ movhi
 586:..\..\..\lvgl\version_6.1.2\lvgl\src\lv_objx/lv_cpicker.c ****             end_angle = ul;
 1980              		.loc 3 586 0
 1981 02e2 B7F88C30 		ldrh	r3, [r7, #140]	@ movhi
 1982 02e6 A7F8A430 		strh	r3, [r7, #164]	@ movhi
 1983 02ea 53E0     		b	.L95
 1984              	.L97:
 587:..\..\..\lvgl\version_6.1.2\lvgl\src\lv_objx/lv_cpicker.c ****         } else if(onYaxis && top) {
 1985              		.loc 3 587 0
 1986 02ec 97F88830 		ldrb	r3, [r7, #136]	@ zero_extendqisi2
 1987 02f0 002B     		cmp	r3, #0
 1988 02f2 0CD0     		beq	.L98
 1989              		.loc 3 587 0 is_stmt 0 discriminator 1
 1990 02f4 97F88630 		ldrb	r3, [r7, #134]	@ zero_extendqisi2
 1991 02f8 002B     		cmp	r3, #0
 1992 02fa 08D0     		beq	.L98
 588:..\..\..\lvgl\version_6.1.2\lvgl\src\lv_objx/lv_cpicker.c ****             start_angle = dr;
 1993              		.loc 3 588 0 is_stmt 1
 1994 02fc B7F89030 		ldrh	r3, [r7, #144]	@ movhi
 1995 0300 A7F8A630 		strh	r3, [r7, #166]	@ movhi
 589:..\..\..\lvgl\version_6.1.2\lvgl\src\lv_objx/lv_cpicker.c ****             end_angle = dl;
 1996              		.loc 3 589 0
 1997 0304 B7F88A30 		ldrh	r3, [r7, #138]	@ movhi
 1998 0308 A7F8A430 		strh	r3, [r7, #164]	@ movhi
 1999 030c 42E0     		b	.L95
 2000              	.L98:
 590:..\..\..\lvgl\version_6.1.2\lvgl\src\lv_objx/lv_cpicker.c ****         } else if(left && top)  {
 2001              		.loc 3 590 0
 2002 030e 97F88930 		ldrb	r3, [r7, #137]	@ zero_extendqisi2
 2003 0312 002B     		cmp	r3, #0
 2004 0314 0CD0     		beq	.L99
 2005              		.loc 3 590 0 is_stmt 0 discriminator 1
 2006 0316 97F88630 		ldrb	r3, [r7, #134]	@ zero_extendqisi2
 2007 031a 002B     		cmp	r3, #0
 2008 031c 08D0     		beq	.L99
 591:..\..\..\lvgl\version_6.1.2\lvgl\src\lv_objx/lv_cpicker.c ****             start_angle = ur;
 2009              		.loc 3 591 0 is_stmt 1
ARM GAS  C:\Users\tmj32\AppData\Local\Temp\cc11CUDk.s 			page 56


 2010 031e B7F88E30 		ldrh	r3, [r7, #142]	@ movhi
 2011 0322 A7F8A630 		strh	r3, [r7, #166]	@ movhi
 592:..\..\..\lvgl\version_6.1.2\lvgl\src\lv_objx/lv_cpicker.c ****             end_angle = dl;
 2012              		.loc 3 592 0
 2013 0326 B7F88A30 		ldrh	r3, [r7, #138]	@ movhi
 2014 032a A7F8A430 		strh	r3, [r7, #164]	@ movhi
 2015 032e 31E0     		b	.L95
 2016              	.L99:
 593:..\..\..\lvgl\version_6.1.2\lvgl\src\lv_objx/lv_cpicker.c ****         } else if(left && onXaxis) {
 2017              		.loc 3 593 0
 2018 0330 97F88930 		ldrb	r3, [r7, #137]	@ zero_extendqisi2
 2019 0334 002B     		cmp	r3, #0
 2020 0336 0CD0     		beq	.L100
 2021              		.loc 3 593 0 is_stmt 0 discriminator 1
 2022 0338 97F88530 		ldrb	r3, [r7, #133]	@ zero_extendqisi2
 2023 033c 002B     		cmp	r3, #0
 2024 033e 08D0     		beq	.L100
 594:..\..\..\lvgl\version_6.1.2\lvgl\src\lv_objx/lv_cpicker.c ****             start_angle = ur;
 2025              		.loc 3 594 0 is_stmt 1
 2026 0340 B7F88E30 		ldrh	r3, [r7, #142]	@ movhi
 2027 0344 A7F8A630 		strh	r3, [r7, #166]	@ movhi
 595:..\..\..\lvgl\version_6.1.2\lvgl\src\lv_objx/lv_cpicker.c ****             end_angle = dr;
 2028              		.loc 3 595 0
 2029 0348 B7F89030 		ldrh	r3, [r7, #144]	@ movhi
 2030 034c A7F8A430 		strh	r3, [r7, #164]	@ movhi
 2031 0350 20E0     		b	.L95
 2032              	.L100:
 596:..\..\..\lvgl\version_6.1.2\lvgl\src\lv_objx/lv_cpicker.c ****         } else if(left && bottom) {
 2033              		.loc 3 596 0
 2034 0352 97F88930 		ldrb	r3, [r7, #137]	@ zero_extendqisi2
 2035 0356 002B     		cmp	r3, #0
 2036 0358 0CD0     		beq	.L101
 2037              		.loc 3 596 0 is_stmt 0 discriminator 1
 2038 035a 97F88430 		ldrb	r3, [r7, #132]	@ zero_extendqisi2
 2039 035e 002B     		cmp	r3, #0
 2040 0360 08D0     		beq	.L101
 597:..\..\..\lvgl\version_6.1.2\lvgl\src\lv_objx/lv_cpicker.c ****             start_angle = ul;
 2041              		.loc 3 597 0 is_stmt 1
 2042 0362 B7F88C30 		ldrh	r3, [r7, #140]	@ movhi
 2043 0366 A7F8A630 		strh	r3, [r7, #166]	@ movhi
 598:..\..\..\lvgl\version_6.1.2\lvgl\src\lv_objx/lv_cpicker.c ****             end_angle = dr;
 2044              		.loc 3 598 0
 2045 036a B7F89030 		ldrh	r3, [r7, #144]	@ movhi
 2046 036e A7F8A430 		strh	r3, [r7, #164]	@ movhi
 2047 0372 0FE0     		b	.L95
 2048              	.L101:
 599:..\..\..\lvgl\version_6.1.2\lvgl\src\lv_objx/lv_cpicker.c ****         } else if(onYaxis && bottom) {
 2049              		.loc 3 599 0
 2050 0374 97F88830 		ldrb	r3, [r7, #136]	@ zero_extendqisi2
 2051 0378 002B     		cmp	r3, #0
 2052 037a 0BD0     		beq	.L95
 2053              		.loc 3 599 0 is_stmt 0 discriminator 1
 2054 037c 97F88430 		ldrb	r3, [r7, #132]	@ zero_extendqisi2
 2055 0380 002B     		cmp	r3, #0
 2056 0382 07D0     		beq	.L95
 600:..\..\..\lvgl\version_6.1.2\lvgl\src\lv_objx/lv_cpicker.c ****             start_angle = ul;
 2057              		.loc 3 600 0 is_stmt 1
ARM GAS  C:\Users\tmj32\AppData\Local\Temp\cc11CUDk.s 			page 57


 2058 0384 B7F88C30 		ldrh	r3, [r7, #140]	@ movhi
 2059 0388 A7F8A630 		strh	r3, [r7, #166]	@ movhi
 601:..\..\..\lvgl\version_6.1.2\lvgl\src\lv_objx/lv_cpicker.c ****             end_angle = ur;
 2060              		.loc 3 601 0
 2061 038c B7F88E30 		ldrh	r3, [r7, #142]	@ movhi
 2062 0390 A7F8A430 		strh	r3, [r7, #164]	@ movhi
 2063              	.L95:
 602:..\..\..\lvgl\version_6.1.2\lvgl\src\lv_objx/lv_cpicker.c ****         }
 603:..\..\..\lvgl\version_6.1.2\lvgl\src\lv_objx/lv_cpicker.c **** 
 604:..\..\..\lvgl\version_6.1.2\lvgl\src\lv_objx/lv_cpicker.c ****         /*rollover angle*/
 605:..\..\..\lvgl\version_6.1.2\lvgl\src\lv_objx/lv_cpicker.c ****         if(start_angle > end_angle) end_angle += 360;
 2064              		.loc 3 605 0
 2065 0394 B7F9A620 		ldrsh	r2, [r7, #166]
 2066 0398 B7F9A430 		ldrsh	r3, [r7, #164]
 2067 039c 9A42     		cmp	r2, r3
 2068 039e 06DD     		ble	.L102
 2069              		.loc 3 605 0 is_stmt 0 discriminator 1
 2070 03a0 B7F8A430 		ldrh	r3, [r7, #164]
 2071 03a4 03F5B473 		add	r3, r3, #360
 2072 03a8 9BB2     		uxth	r3, r3
 2073 03aa A7F8A430 		strh	r3, [r7, #164]	@ movhi
 2074              	.L102:
 606:..\..\..\lvgl\version_6.1.2\lvgl\src\lv_objx/lv_cpicker.c **** 
 607:..\..\..\lvgl\version_6.1.2\lvgl\src\lv_objx/lv_cpicker.c ****         /*round to QF factor*/
 608:..\..\..\lvgl\version_6.1.2\lvgl\src\lv_objx/lv_cpicker.c ****         start_angle = (start_angle/LV_CPICKER_DEF_QF) * LV_CPICKER_DEF_QF;
 2075              		.loc 3 608 0 is_stmt 1
 2076 03ae B7F9A630 		ldrsh	r3, [r7, #166]
 2077 03b2 AA4A     		ldr	r2, .L111
 2078 03b4 82FB0312 		smull	r1, r2, r2, r3
 2079 03b8 DB17     		asrs	r3, r3, #31
 2080 03ba D31A     		subs	r3, r2, r3
 2081 03bc 1BB2     		sxth	r3, r3
 2082 03be 9BB2     		uxth	r3, r3
 2083 03c0 1A46     		mov	r2, r3	@ movhi
 2084 03c2 5200     		lsls	r2, r2, #1
 2085 03c4 1344     		add	r3, r3, r2
 2086 03c6 9BB2     		uxth	r3, r3
 2087 03c8 A7F8A630 		strh	r3, [r7, #166]	@ movhi
 609:..\..\..\lvgl\version_6.1.2\lvgl\src\lv_objx/lv_cpicker.c ****         end_angle = (end_angle / LV_CPICKER_DEF_QF) * LV_CPICKER_DEF_QF;
 2088              		.loc 3 609 0
 2089 03cc B7F9A430 		ldrsh	r3, [r7, #164]
 2090 03d0 A24A     		ldr	r2, .L111
 2091 03d2 82FB0312 		smull	r1, r2, r2, r3
 2092 03d6 DB17     		asrs	r3, r3, #31
 2093 03d8 D31A     		subs	r3, r2, r3
 2094 03da 1BB2     		sxth	r3, r3
 2095 03dc 9BB2     		uxth	r3, r3
 2096 03de 1A46     		mov	r2, r3	@ movhi
 2097 03e0 5200     		lsls	r2, r2, #1
 2098 03e2 1344     		add	r3, r3, r2
 2099 03e4 9BB2     		uxth	r3, r3
 2100 03e6 A7F8A430 		strh	r3, [r7, #164]	@ movhi
 610:..\..\..\lvgl\version_6.1.2\lvgl\src\lv_objx/lv_cpicker.c **** 
 611:..\..\..\lvgl\version_6.1.2\lvgl\src\lv_objx/lv_cpicker.c ****         /*shift angle if necessary before adding offset*/
 612:..\..\..\lvgl\version_6.1.2\lvgl\src\lv_objx/lv_cpicker.c ****         if((start_angle - LV_CPICKER_DEF_QF) < 0) {
 2101              		.loc 3 612 0
 2102 03ea B7F9A630 		ldrsh	r3, [r7, #166]
ARM GAS  C:\Users\tmj32\AppData\Local\Temp\cc11CUDk.s 			page 58


 2103 03ee 033B     		subs	r3, r3, #3
 2104 03f0 002B     		cmp	r3, #0
 2105 03f2 0DDA     		bge	.L103
 613:..\..\..\lvgl\version_6.1.2\lvgl\src\lv_objx/lv_cpicker.c ****             start_angle += 360;
 2106              		.loc 3 613 0
 2107 03f4 B7F8A630 		ldrh	r3, [r7, #166]
 2108 03f8 03F5B473 		add	r3, r3, #360
 2109 03fc 9BB2     		uxth	r3, r3
 2110 03fe A7F8A630 		strh	r3, [r7, #166]	@ movhi
 614:..\..\..\lvgl\version_6.1.2\lvgl\src\lv_objx/lv_cpicker.c ****             end_angle += 360;
 2111              		.loc 3 614 0
 2112 0402 B7F8A430 		ldrh	r3, [r7, #164]
 2113 0406 03F5B473 		add	r3, r3, #360
 2114 040a 9BB2     		uxth	r3, r3
 2115 040c A7F8A430 		strh	r3, [r7, #164]	@ movhi
 2116              	.L103:
 615:..\..\..\lvgl\version_6.1.2\lvgl\src\lv_objx/lv_cpicker.c ****         }
 616:..\..\..\lvgl\version_6.1.2\lvgl\src\lv_objx/lv_cpicker.c **** 
 617:..\..\..\lvgl\version_6.1.2\lvgl\src\lv_objx/lv_cpicker.c ****         /*ensure overlapping by adding offset*/
 618:..\..\..\lvgl\version_6.1.2\lvgl\src\lv_objx/lv_cpicker.c ****         start_angle -= LV_CPICKER_DEF_QF;
 2117              		.loc 3 618 0
 2118 0410 B7F8A630 		ldrh	r3, [r7, #166]
 2119 0414 033B     		subs	r3, r3, #3
 2120 0416 9BB2     		uxth	r3, r3
 2121 0418 A7F8A630 		strh	r3, [r7, #166]	@ movhi
 619:..\..\..\lvgl\version_6.1.2\lvgl\src\lv_objx/lv_cpicker.c ****         end_angle += LV_CPICKER_DEF_QF;
 2122              		.loc 3 619 0
 2123 041c B7F8A430 		ldrh	r3, [r7, #164]
 2124 0420 0333     		adds	r3, r3, #3
 2125 0422 9BB2     		uxth	r3, r3
 2126 0424 A7F8A430 		strh	r3, [r7, #164]	@ movhi
 2127              	.L81:
 2128              	.LBE5:
 620:..\..\..\lvgl\version_6.1.2\lvgl\src\lv_objx/lv_cpicker.c ****     }
 621:..\..\..\lvgl\version_6.1.2\lvgl\src\lv_objx/lv_cpicker.c **** 
 622:..\..\..\lvgl\version_6.1.2\lvgl\src\lv_objx/lv_cpicker.c ****     lv_point_t triangle_points[3];
 623:..\..\..\lvgl\version_6.1.2\lvgl\src\lv_objx/lv_cpicker.c ****     lv_style_t style;
 624:..\..\..\lvgl\version_6.1.2\lvgl\src\lv_objx/lv_cpicker.c ****     lv_style_copy(&style, &lv_style_plain);
 2129              		.loc 3 624 0
 2130 0428 07F12003 		add	r3, r7, #32
 2131 042c 8C49     		ldr	r1, .L111+4
 2132 042e 1846     		mov	r0, r3
 2133 0430 FFF7FEFF 		bl	lv_style_copy
 625:..\..\..\lvgl\version_6.1.2\lvgl\src\lv_objx/lv_cpicker.c ****     uint16_t i;
 626:..\..\..\lvgl\version_6.1.2\lvgl\src\lv_objx/lv_cpicker.c ****     for(i = start_angle; i <= end_angle; i+= LV_CPICKER_DEF_QF) {
 2134              		.loc 3 626 0
 2135 0434 B7F8A630 		ldrh	r3, [r7, #166]	@ movhi
 2136 0438 A7F8A230 		strh	r3, [r7, #162]	@ movhi
 2137 043c ABE0     		b	.L104
 2138              	.L108:
 627:..\..\..\lvgl\version_6.1.2\lvgl\src\lv_objx/lv_cpicker.c ****         style.body.main_color = angle_to_mode_color(cpicker, i);
 2139              		.loc 3 627 0
 2140 043e B7F8A230 		ldrh	r3, [r7, #162]
 2141 0442 1946     		mov	r1, r3
 2142 0444 F868     		ldr	r0, [r7, #12]
 2143 0446 FFF7FEFF 		bl	angle_to_mode_color
 2144 044a 7862     		str	r0, [r7, #36]
ARM GAS  C:\Users\tmj32\AppData\Local\Temp\cc11CUDk.s 			page 59


 628:..\..\..\lvgl\version_6.1.2\lvgl\src\lv_objx/lv_cpicker.c ****         style.body.grad_color = style.body.main_color;
 2145              		.loc 3 628 0
 2146 044c 7B6A     		ldr	r3, [r7, #36]
 2147 044e BB62     		str	r3, [r7, #40]
 629:..\..\..\lvgl\version_6.1.2\lvgl\src\lv_objx/lv_cpicker.c **** 
 630:..\..\..\lvgl\version_6.1.2\lvgl\src\lv_objx/lv_cpicker.c ****         triangle_points[0].x = cx;
 2148              		.loc 3 630 0
 2149 0450 B7F89630 		ldrh	r3, [r7, #150]	@ movhi
 2150 0454 A7F87030 		strh	r3, [r7, #112]	@ movhi
 631:..\..\..\lvgl\version_6.1.2\lvgl\src\lv_objx/lv_cpicker.c ****         triangle_points[0].y = cy;
 2151              		.loc 3 631 0
 2152 0458 B7F89430 		ldrh	r3, [r7, #148]	@ movhi
 2153 045c A7F87230 		strh	r3, [r7, #114]	@ movhi
 632:..\..\..\lvgl\version_6.1.2\lvgl\src\lv_objx/lv_cpicker.c **** 
 633:..\..\..\lvgl\version_6.1.2\lvgl\src\lv_objx/lv_cpicker.c ****         triangle_points[1].x = cx + (r * lv_trigo_sin(i) >> LV_TRIGO_SHIFT);
 2154              		.loc 3 633 0
 2155 0460 B7F99240 		ldrsh	r4, [r7, #146]
 2156 0464 B7F9A230 		ldrsh	r3, [r7, #162]
 2157 0468 1846     		mov	r0, r3
 2158 046a FFF7FEFF 		bl	lv_trigo_sin
 2159 046e 0346     		mov	r3, r0
 2160 0470 03FB04F3 		mul	r3, r3, r4
 2161 0474 DB13     		asrs	r3, r3, #15
 2162 0476 9AB2     		uxth	r2, r3
 2163 0478 B7F89630 		ldrh	r3, [r7, #150]
 2164 047c 1344     		add	r3, r3, r2
 2165 047e 9BB2     		uxth	r3, r3
 2166 0480 1BB2     		sxth	r3, r3
 2167 0482 A7F87430 		strh	r3, [r7, #116]	@ movhi
 634:..\..\..\lvgl\version_6.1.2\lvgl\src\lv_objx/lv_cpicker.c ****         triangle_points[1].y = cy + (r * lv_trigo_sin(i + 90) >> LV_TRIGO_SHIFT);
 2168              		.loc 3 634 0
 2169 0486 B7F99240 		ldrsh	r4, [r7, #146]
 2170 048a B7F8A230 		ldrh	r3, [r7, #162]	@ movhi
 2171 048e 5A33     		adds	r3, r3, #90
 2172 0490 9BB2     		uxth	r3, r3
 2173 0492 1BB2     		sxth	r3, r3
 2174 0494 1846     		mov	r0, r3
 2175 0496 FFF7FEFF 		bl	lv_trigo_sin
 2176 049a 0346     		mov	r3, r0
 2177 049c 03FB04F3 		mul	r3, r3, r4
 2178 04a0 DB13     		asrs	r3, r3, #15
 2179 04a2 9AB2     		uxth	r2, r3
 2180 04a4 B7F89430 		ldrh	r3, [r7, #148]
 2181 04a8 1344     		add	r3, r3, r2
 2182 04aa 9BB2     		uxth	r3, r3
 2183 04ac 1BB2     		sxth	r3, r3
 2184 04ae A7F87630 		strh	r3, [r7, #118]	@ movhi
 635:..\..\..\lvgl\version_6.1.2\lvgl\src\lv_objx/lv_cpicker.c **** 
 636:..\..\..\lvgl\version_6.1.2\lvgl\src\lv_objx/lv_cpicker.c ****         if(i == end_angle || i == (360 - LV_CPICKER_DEF_QF)) {
 2185              		.loc 3 636 0
 2186 04b2 B7F8A220 		ldrh	r2, [r7, #162]
 2187 04b6 B7F9A430 		ldrsh	r3, [r7, #164]
 2188 04ba 9A42     		cmp	r2, r3
 2189 04bc 05D0     		beq	.L105
 2190              		.loc 3 636 0 is_stmt 0 discriminator 1
 2191 04be B7F8A230 		ldrh	r3, [r7, #162]
 2192 04c2 40F26512 		movw	r2, #357
ARM GAS  C:\Users\tmj32\AppData\Local\Temp\cc11CUDk.s 			page 60


 2193 04c6 9342     		cmp	r3, r2
 2194 04c8 2CD1     		bne	.L106
 2195              	.L105:
 637:..\..\..\lvgl\version_6.1.2\lvgl\src\lv_objx/lv_cpicker.c ****             /*the last triangle is drawn without additional overlapping pixels*/
 638:..\..\..\lvgl\version_6.1.2\lvgl\src\lv_objx/lv_cpicker.c ****             triangle_points[2].x = cx + (r * lv_trigo_sin(i + LV_CPICKER_DEF_QF) >> LV_TRIGO_SHIFT)
 2196              		.loc 3 638 0 is_stmt 1
 2197 04ca B7F99240 		ldrsh	r4, [r7, #146]
 2198 04ce B7F8A230 		ldrh	r3, [r7, #162]	@ movhi
 2199 04d2 0333     		adds	r3, r3, #3
 2200 04d4 9BB2     		uxth	r3, r3
 2201 04d6 1BB2     		sxth	r3, r3
 2202 04d8 1846     		mov	r0, r3
 2203 04da FFF7FEFF 		bl	lv_trigo_sin
 2204 04de 0346     		mov	r3, r0
 2205 04e0 03FB04F3 		mul	r3, r3, r4
 2206 04e4 DB13     		asrs	r3, r3, #15
 2207 04e6 9AB2     		uxth	r2, r3
 2208 04e8 B7F89630 		ldrh	r3, [r7, #150]
 2209 04ec 1344     		add	r3, r3, r2
 2210 04ee 9BB2     		uxth	r3, r3
 2211 04f0 1BB2     		sxth	r3, r3
 2212 04f2 A7F87830 		strh	r3, [r7, #120]	@ movhi
 639:..\..\..\lvgl\version_6.1.2\lvgl\src\lv_objx/lv_cpicker.c ****             triangle_points[2].y = cy + (r * lv_trigo_sin(i + LV_CPICKER_DEF_QF + 90) >> LV_TRIGO_S
 2213              		.loc 3 639 0
 2214 04f6 B7F99240 		ldrsh	r4, [r7, #146]
 2215 04fa B7F8A230 		ldrh	r3, [r7, #162]	@ movhi
 2216 04fe 5D33     		adds	r3, r3, #93
 2217 0500 9BB2     		uxth	r3, r3
 2218 0502 1BB2     		sxth	r3, r3
 2219 0504 1846     		mov	r0, r3
 2220 0506 FFF7FEFF 		bl	lv_trigo_sin
 2221 050a 0346     		mov	r3, r0
 2222 050c 03FB04F3 		mul	r3, r3, r4
 2223 0510 DB13     		asrs	r3, r3, #15
 2224 0512 9AB2     		uxth	r2, r3
 2225 0514 B7F89430 		ldrh	r3, [r7, #148]
 2226 0518 1344     		add	r3, r3, r2
 2227 051a 9BB2     		uxth	r3, r3
 2228 051c 1BB2     		sxth	r3, r3
 2229 051e A7F87A30 		strh	r3, [r7, #122]	@ movhi
 2230 0522 2BE0     		b	.L107
 2231              	.L106:
 640:..\..\..\lvgl\version_6.1.2\lvgl\src\lv_objx/lv_cpicker.c ****         } else {
 641:..\..\..\lvgl\version_6.1.2\lvgl\src\lv_objx/lv_cpicker.c ****             triangle_points[2].x = cx + (r * lv_trigo_sin(i + LV_CPICKER_DEF_QF + TRI_OFFSET) >> LV
 2232              		.loc 3 641 0
 2233 0524 B7F99240 		ldrsh	r4, [r7, #146]
 2234 0528 B7F8A230 		ldrh	r3, [r7, #162]	@ movhi
 2235 052c 0533     		adds	r3, r3, #5
 2236 052e 9BB2     		uxth	r3, r3
 2237 0530 1BB2     		sxth	r3, r3
 2238 0532 1846     		mov	r0, r3
 2239 0534 FFF7FEFF 		bl	lv_trigo_sin
 2240 0538 0346     		mov	r3, r0
 2241 053a 03FB04F3 		mul	r3, r3, r4
 2242 053e DB13     		asrs	r3, r3, #15
 2243 0540 9AB2     		uxth	r2, r3
 2244 0542 B7F89630 		ldrh	r3, [r7, #150]
ARM GAS  C:\Users\tmj32\AppData\Local\Temp\cc11CUDk.s 			page 61


 2245 0546 1344     		add	r3, r3, r2
 2246 0548 9BB2     		uxth	r3, r3
 2247 054a 1BB2     		sxth	r3, r3
 2248 054c A7F87830 		strh	r3, [r7, #120]	@ movhi
 642:..\..\..\lvgl\version_6.1.2\lvgl\src\lv_objx/lv_cpicker.c ****             triangle_points[2].y = cy + (r * lv_trigo_sin(i + LV_CPICKER_DEF_QF + TRI_OFFSET + 90) 
 2249              		.loc 3 642 0
 2250 0550 B7F99240 		ldrsh	r4, [r7, #146]
 2251 0554 B7F8A230 		ldrh	r3, [r7, #162]	@ movhi
 2252 0558 5F33     		adds	r3, r3, #95
 2253 055a 9BB2     		uxth	r3, r3
 2254 055c 1BB2     		sxth	r3, r3
 2255 055e 1846     		mov	r0, r3
 2256 0560 FFF7FEFF 		bl	lv_trigo_sin
 2257 0564 0346     		mov	r3, r0
 2258 0566 03FB04F3 		mul	r3, r3, r4
 2259 056a DB13     		asrs	r3, r3, #15
 2260 056c 9AB2     		uxth	r2, r3
 2261 056e B7F89430 		ldrh	r3, [r7, #148]
 2262 0572 1344     		add	r3, r3, r2
 2263 0574 9BB2     		uxth	r3, r3
 2264 0576 1BB2     		sxth	r3, r3
 2265 0578 A7F87A30 		strh	r3, [r7, #122]	@ movhi
 2266              	.L107:
 643:..\..\..\lvgl\version_6.1.2\lvgl\src\lv_objx/lv_cpicker.c ****         }
 644:..\..\..\lvgl\version_6.1.2\lvgl\src\lv_objx/lv_cpicker.c **** 
 645:..\..\..\lvgl\version_6.1.2\lvgl\src\lv_objx/lv_cpicker.c ****         lv_draw_triangle(triangle_points, mask, &style, LV_OPA_COVER);
 2267              		.loc 3 645 0 discriminator 2
 2268 057c 07F12002 		add	r2, r7, #32
 2269 0580 07F17000 		add	r0, r7, #112
 2270 0584 FF23     		movs	r3, #255
 2271 0586 B968     		ldr	r1, [r7, #8]
 2272 0588 FFF7FEFF 		bl	lv_draw_triangle
 626:..\..\..\lvgl\version_6.1.2\lvgl\src\lv_objx/lv_cpicker.c ****         style.body.main_color = angle_to_mode_color(cpicker, i);
 2273              		.loc 3 626 0 discriminator 2
 2274 058c B7F8A230 		ldrh	r3, [r7, #162]	@ movhi
 2275 0590 0333     		adds	r3, r3, #3
 2276 0592 A7F8A230 		strh	r3, [r7, #162]	@ movhi
 2277              	.L104:
 626:..\..\..\lvgl\version_6.1.2\lvgl\src\lv_objx/lv_cpicker.c ****         style.body.main_color = angle_to_mode_color(cpicker, i);
 2278              		.loc 3 626 0 is_stmt 0 discriminator 1
 2279 0596 B7F8A220 		ldrh	r2, [r7, #162]
 2280 059a B7F9A430 		ldrsh	r3, [r7, #164]
 2281 059e 9A42     		cmp	r2, r3
 2282 05a0 7FF74DAF 		ble	.L108
 646:..\..\..\lvgl\version_6.1.2\lvgl\src\lv_objx/lv_cpicker.c ****     }
 647:..\..\..\lvgl\version_6.1.2\lvgl\src\lv_objx/lv_cpicker.c **** 
 648:..\..\..\lvgl\version_6.1.2\lvgl\src\lv_objx/lv_cpicker.c ****     /*Mask out the center area*/
 649:..\..\..\lvgl\version_6.1.2\lvgl\src\lv_objx/lv_cpicker.c ****     const lv_style_t * style_main = lv_cpicker_get_style(cpicker, LV_CPICKER_STYLE_MAIN);
 2283              		.loc 3 649 0 is_stmt 1
 2284 05a4 0021     		movs	r1, #0
 2285 05a6 F868     		ldr	r0, [r7, #12]
 2286 05a8 FFF7FEFF 		bl	lv_cpicker_get_style
 2287 05ac C7F88000 		str	r0, [r7, #128]
 650:..\..\..\lvgl\version_6.1.2\lvgl\src\lv_objx/lv_cpicker.c ****     lv_style_copy(&style, style_main);
 2288              		.loc 3 650 0
 2289 05b0 07F12003 		add	r3, r7, #32
 2290 05b4 D7F88010 		ldr	r1, [r7, #128]
ARM GAS  C:\Users\tmj32\AppData\Local\Temp\cc11CUDk.s 			page 62


 2291 05b8 1846     		mov	r0, r3
 2292 05ba FFF7FEFF 		bl	lv_style_copy
 651:..\..\..\lvgl\version_6.1.2\lvgl\src\lv_objx/lv_cpicker.c ****     style.body.radius = LV_RADIUS_CIRCLE;
 2293              		.loc 3 651 0
 2294 05be 47F61843 		movw	r3, #31768
 2295 05c2 BB85     		strh	r3, [r7, #44]	@ movhi
 652:..\..\..\lvgl\version_6.1.2\lvgl\src\lv_objx/lv_cpicker.c ****     lv_area_t area_mid;
 653:..\..\..\lvgl\version_6.1.2\lvgl\src\lv_objx/lv_cpicker.c ****     lv_area_copy(&area_mid, &cpicker->coords);
 2296              		.loc 3 653 0
 2297 05c4 FB68     		ldr	r3, [r7, #12]
 2298 05c6 03F11002 		add	r2, r3, #16
 2299 05ca 07F11803 		add	r3, r7, #24
 2300 05ce 1146     		mov	r1, r2
 2301 05d0 1846     		mov	r0, r3
 2302 05d2 FFF7FEFF 		bl	lv_area_copy
 654:..\..\..\lvgl\version_6.1.2\lvgl\src\lv_objx/lv_cpicker.c ****     lv_area_increment(&area_mid, -style_main->line.width);
 2303              		.loc 3 654 0
 2304 05d6 D7F88030 		ldr	r3, [r7, #128]
 2305 05da B3F94C30 		ldrsh	r3, [r3, #76]
 2306 05de 9BB2     		uxth	r3, r3
 2307 05e0 5B42     		negs	r3, r3
 2308 05e2 9BB2     		uxth	r3, r3
 2309 05e4 1AB2     		sxth	r2, r3
 2310 05e6 07F11803 		add	r3, r7, #24
 2311 05ea 1146     		mov	r1, r2
 2312 05ec 1846     		mov	r0, r3
 2313 05ee FFF7FEFF 		bl	lv_area_increment
 655:..\..\..\lvgl\version_6.1.2\lvgl\src\lv_objx/lv_cpicker.c **** 
 656:..\..\..\lvgl\version_6.1.2\lvgl\src\lv_objx/lv_cpicker.c ****     lv_draw_rect(&area_mid, mask, &style, opa_scale);
 2314              		.loc 3 656 0
 2315 05f2 FB79     		ldrb	r3, [r7, #7]	@ zero_extendqisi2
 2316 05f4 07F12002 		add	r2, r7, #32
 2317 05f8 07F11800 		add	r0, r7, #24
 2318 05fc B968     		ldr	r1, [r7, #8]
 2319 05fe FFF7FEFF 		bl	lv_draw_rect
 657:..\..\..\lvgl\version_6.1.2\lvgl\src\lv_objx/lv_cpicker.c **** 
 658:..\..\..\lvgl\version_6.1.2\lvgl\src\lv_objx/lv_cpicker.c ****     if(ext->preview) {
 2320              		.loc 3 658 0
 2321 0602 D7F89C30 		ldr	r3, [r7, #156]
 2322 0606 1B7F     		ldrb	r3, [r3, #28]	@ zero_extendqisi2
 2323 0608 03F01003 		and	r3, r3, #16
 2324 060c DBB2     		uxtb	r3, r3
 2325 060e 002B     		cmp	r3, #0
 2326 0610 1FD0     		beq	.L110
 2327              	.LBB6:
 659:..\..\..\lvgl\version_6.1.2\lvgl\src\lv_objx/lv_cpicker.c ****         lv_color_t color = lv_cpicker_get_color(cpicker);
 2328              		.loc 3 659 0
 2329 0612 F868     		ldr	r0, [r7, #12]
 2330 0614 FFF7FEFF 		bl	lv_cpicker_get_color
 2331 0618 0346     		mov	r3, r0
 2332 061a 7B61     		str	r3, [r7, #20]
 660:..\..\..\lvgl\version_6.1.2\lvgl\src\lv_objx/lv_cpicker.c ****         style.body.main_color = color;
 2333              		.loc 3 660 0
 2334 061c 7B69     		ldr	r3, [r7, #20]
 2335 061e 7B62     		str	r3, [r7, #36]
 661:..\..\..\lvgl\version_6.1.2\lvgl\src\lv_objx/lv_cpicker.c ****         style.body.grad_color = color;
 2336              		.loc 3 661 0
ARM GAS  C:\Users\tmj32\AppData\Local\Temp\cc11CUDk.s 			page 63


 2337 0620 7B69     		ldr	r3, [r7, #20]
 2338 0622 BB62     		str	r3, [r7, #40]
 662:..\..\..\lvgl\version_6.1.2\lvgl\src\lv_objx/lv_cpicker.c ****         lv_area_increment(&area_mid, -style_main->line.width / 2);
 2339              		.loc 3 662 0
 2340 0624 D7F88030 		ldr	r3, [r7, #128]
 2341 0628 B3F94C30 		ldrsh	r3, [r3, #76]
 2342 062c 5B42     		negs	r3, r3
 2343 062e DA0F     		lsrs	r2, r3, #31
 2344 0630 1344     		add	r3, r3, r2
 2345 0632 5B10     		asrs	r3, r3, #1
 2346 0634 1AB2     		sxth	r2, r3
 2347 0636 07F11803 		add	r3, r7, #24
 2348 063a 1146     		mov	r1, r2
 2349 063c 1846     		mov	r0, r3
 2350 063e FFF7FEFF 		bl	lv_area_increment
 663:..\..\..\lvgl\version_6.1.2\lvgl\src\lv_objx/lv_cpicker.c **** 
 664:..\..\..\lvgl\version_6.1.2\lvgl\src\lv_objx/lv_cpicker.c ****         lv_draw_rect(&area_mid, mask, &style, opa_scale);
 2351              		.loc 3 664 0
 2352 0642 FB79     		ldrb	r3, [r7, #7]	@ zero_extendqisi2
 2353 0644 07F12002 		add	r2, r7, #32
 2354 0648 07F11800 		add	r0, r7, #24
 2355 064c B968     		ldr	r1, [r7, #8]
 2356 064e FFF7FEFF 		bl	lv_draw_rect
 2357              	.L110:
 2358              	.LBE6:
 665:..\..\..\lvgl\version_6.1.2\lvgl\src\lv_objx/lv_cpicker.c ****     }
 666:..\..\..\lvgl\version_6.1.2\lvgl\src\lv_objx/lv_cpicker.c **** }
 2359              		.loc 3 666 0
 2360 0652 00BF     		nop
 2361 0654 AC37     		adds	r7, r7, #172
 2362              		.cfi_def_cfa_offset 12
 2363 0656 BD46     		mov	sp, r7
 2364              		.cfi_def_cfa_register 13
 2365              		@ sp needed
 2366 0658 90BD     		pop	{r4, r7, pc}
 2367              	.L112:
 2368 065a 00BF     		.align	2
 2369              	.L111:
 2370 065c 56555555 		.word	1431655766
 2371 0660 00000000 		.word	lv_style_plain
 2372              		.cfi_endproc
 2373              	.LFE54:
 2374              		.size	draw_disc_grad, .-draw_disc_grad
 2375              		.section	.text.draw_rect_grad,"ax",%progbits
 2376              		.align	2
 2377              		.thumb
 2378              		.thumb_func
 2379              		.type	draw_rect_grad, %function
 2380              	draw_rect_grad:
 2381              	.LFB55:
 667:..\..\..\lvgl\version_6.1.2\lvgl\src\lv_objx/lv_cpicker.c **** 
 668:..\..\..\lvgl\version_6.1.2\lvgl\src\lv_objx/lv_cpicker.c **** static void draw_rect_grad(lv_obj_t * cpicker, const lv_area_t * mask, lv_opa_t opa_scale)
 669:..\..\..\lvgl\version_6.1.2\lvgl\src\lv_objx/lv_cpicker.c **** {
 2382              		.loc 3 669 0
 2383              		.cfi_startproc
 2384              		@ args = 0, pretend = 0, frame = 136
 2385              		@ frame_needed = 1, uses_anonymous_args = 0
ARM GAS  C:\Users\tmj32\AppData\Local\Temp\cc11CUDk.s 			page 64


 2386 0000 80B5     		push	{r7, lr}
 2387              		.cfi_def_cfa_offset 8
 2388              		.cfi_offset 7, -8
 2389              		.cfi_offset 14, -4
 2390 0002 A2B0     		sub	sp, sp, #136
 2391              		.cfi_def_cfa_offset 144
 2392 0004 00AF     		add	r7, sp, #0
 2393              		.cfi_def_cfa_register 7
 2394 0006 F860     		str	r0, [r7, #12]
 2395 0008 B960     		str	r1, [r7, #8]
 2396 000a 1346     		mov	r3, r2
 2397 000c FB71     		strb	r3, [r7, #7]
 670:..\..\..\lvgl\version_6.1.2\lvgl\src\lv_objx/lv_cpicker.c ****     lv_style_t style;
 671:..\..\..\lvgl\version_6.1.2\lvgl\src\lv_objx/lv_cpicker.c ****     lv_style_copy(&style, lv_cpicker_get_style(cpicker, LV_CPICKER_STYLE_MAIN));
 2398              		.loc 3 671 0
 2399 000e 0021     		movs	r1, #0
 2400 0010 F868     		ldr	r0, [r7, #12]
 2401 0012 FFF7FEFF 		bl	lv_cpicker_get_style
 2402 0016 0246     		mov	r2, r0
 2403 0018 07F12C03 		add	r3, r7, #44
 2404 001c 1146     		mov	r1, r2
 2405 001e 1846     		mov	r0, r3
 2406 0020 FFF7FEFF 		bl	lv_style_copy
 672:..\..\..\lvgl\version_6.1.2\lvgl\src\lv_objx/lv_cpicker.c **** 
 673:..\..\..\lvgl\version_6.1.2\lvgl\src\lv_objx/lv_cpicker.c ****     lv_area_t grad_area;
 674:..\..\..\lvgl\version_6.1.2\lvgl\src\lv_objx/lv_cpicker.c ****     lv_obj_get_coords(cpicker, &grad_area);
 2407              		.loc 3 674 0
 2408 0024 07F12403 		add	r3, r7, #36
 2409 0028 1946     		mov	r1, r3
 2410 002a F868     		ldr	r0, [r7, #12]
 2411 002c FFF7FEFF 		bl	lv_obj_get_coords
 675:..\..\..\lvgl\version_6.1.2\lvgl\src\lv_objx/lv_cpicker.c **** 
 676:..\..\..\lvgl\version_6.1.2\lvgl\src\lv_objx/lv_cpicker.c ****     if(style.body.radius) {
 2412              		.loc 3 676 0
 2413 0030 B7F93830 		ldrsh	r3, [r7, #56]
 2414 0034 002B     		cmp	r3, #0
 2415 0036 6CD0     		beq	.L114
 2416              	.LBB7:
 677:..\..\..\lvgl\version_6.1.2\lvgl\src\lv_objx/lv_cpicker.c ****         lv_coord_t h = lv_obj_get_height(cpicker);
 2417              		.loc 3 677 0
 2418 0038 F868     		ldr	r0, [r7, #12]
 2419 003a FFF7FEFF 		bl	lv_obj_get_height
 2420 003e 0346     		mov	r3, r0
 2421 0040 A7F88230 		strh	r3, [r7, #130]	@ movhi
 678:..\..\..\lvgl\version_6.1.2\lvgl\src\lv_objx/lv_cpicker.c ****         lv_coord_t r = style.body.radius;
 2422              		.loc 3 678 0
 2423 0044 3B8F     		ldrh	r3, [r7, #56]	@ movhi
 2424 0046 A7F88630 		strh	r3, [r7, #134]	@ movhi
 679:..\..\..\lvgl\version_6.1.2\lvgl\src\lv_objx/lv_cpicker.c ****         if(r > h / 2) r = h / 2;
 2425              		.loc 3 679 0
 2426 004a B7F98230 		ldrsh	r3, [r7, #130]
 2427 004e DA0F     		lsrs	r2, r3, #31
 2428 0050 1344     		add	r3, r3, r2
 2429 0052 5B10     		asrs	r3, r3, #1
 2430 0054 1BB2     		sxth	r3, r3
 2431 0056 B7F98620 		ldrsh	r2, [r7, #134]
 2432 005a 9A42     		cmp	r2, r3
ARM GAS  C:\Users\tmj32\AppData\Local\Temp\cc11CUDk.s 			page 65


 2433 005c 06DD     		ble	.L115
 2434              		.loc 3 679 0 is_stmt 0 discriminator 1
 2435 005e B7F98230 		ldrsh	r3, [r7, #130]
 2436 0062 DA0F     		lsrs	r2, r3, #31
 2437 0064 1344     		add	r3, r3, r2
 2438 0066 5B10     		asrs	r3, r3, #1
 2439 0068 A7F88630 		strh	r3, [r7, #134]	@ movhi
 2440              	.L115:
 680:..\..\..\lvgl\version_6.1.2\lvgl\src\lv_objx/lv_cpicker.c ****         /*Make the gradient area smaller with a half circle on both ends*/
 681:..\..\..\lvgl\version_6.1.2\lvgl\src\lv_objx/lv_cpicker.c ****         grad_area.x1 += r;
 2441              		.loc 3 681 0 is_stmt 1
 2442 006c B7F92430 		ldrsh	r3, [r7, #36]
 2443 0070 9AB2     		uxth	r2, r3
 2444 0072 B7F88630 		ldrh	r3, [r7, #134]
 2445 0076 1344     		add	r3, r3, r2
 2446 0078 9BB2     		uxth	r3, r3
 2447 007a 1BB2     		sxth	r3, r3
 2448 007c BB84     		strh	r3, [r7, #36]	@ movhi
 682:..\..\..\lvgl\version_6.1.2\lvgl\src\lv_objx/lv_cpicker.c ****         grad_area.x2 -= r;
 2449              		.loc 3 682 0
 2450 007e B7F92830 		ldrsh	r3, [r7, #40]
 2451 0082 9AB2     		uxth	r2, r3
 2452 0084 B7F88630 		ldrh	r3, [r7, #134]
 2453 0088 D31A     		subs	r3, r2, r3
 2454 008a 9BB2     		uxth	r3, r3
 2455 008c 1BB2     		sxth	r3, r3
 2456 008e 3B85     		strh	r3, [r7, #40]	@ movhi
 683:..\..\..\lvgl\version_6.1.2\lvgl\src\lv_objx/lv_cpicker.c **** 
 684:..\..\..\lvgl\version_6.1.2\lvgl\src\lv_objx/lv_cpicker.c ****         /*Draw the left rounded end*/
 685:..\..\..\lvgl\version_6.1.2\lvgl\src\lv_objx/lv_cpicker.c ****         lv_area_t rounded_edge_area;
 686:..\..\..\lvgl\version_6.1.2\lvgl\src\lv_objx/lv_cpicker.c ****         lv_obj_get_coords(cpicker, &rounded_edge_area);
 2457              		.loc 3 686 0
 2458 0090 07F11C03 		add	r3, r7, #28
 2459 0094 1946     		mov	r1, r3
 2460 0096 F868     		ldr	r0, [r7, #12]
 2461 0098 FFF7FEFF 		bl	lv_obj_get_coords
 687:..\..\..\lvgl\version_6.1.2\lvgl\src\lv_objx/lv_cpicker.c ****         rounded_edge_area.x2 = rounded_edge_area.x1 + 2 * r;
 2462              		.loc 3 687 0
 2463 009c B7F91C30 		ldrsh	r3, [r7, #28]
 2464 00a0 9AB2     		uxth	r2, r3
 2465 00a2 B7F88630 		ldrh	r3, [r7, #134]
 2466 00a6 5B00     		lsls	r3, r3, #1
 2467 00a8 9BB2     		uxth	r3, r3
 2468 00aa 1344     		add	r3, r3, r2
 2469 00ac 9BB2     		uxth	r3, r3
 2470 00ae 1BB2     		sxth	r3, r3
 2471 00b0 3B84     		strh	r3, [r7, #32]	@ movhi
 688:..\..\..\lvgl\version_6.1.2\lvgl\src\lv_objx/lv_cpicker.c **** 
 689:..\..\..\lvgl\version_6.1.2\lvgl\src\lv_objx/lv_cpicker.c ****         style.body.main_color = angle_to_mode_color(cpicker, 0);
 2472              		.loc 3 689 0
 2473 00b2 0021     		movs	r1, #0
 2474 00b4 F868     		ldr	r0, [r7, #12]
 2475 00b6 FFF7FEFF 		bl	angle_to_mode_color
 2476 00ba 3863     		str	r0, [r7, #48]
 690:..\..\..\lvgl\version_6.1.2\lvgl\src\lv_objx/lv_cpicker.c ****         style.body.grad_color = style.body.main_color;
 2477              		.loc 3 690 0
 2478 00bc 3B6B     		ldr	r3, [r7, #48]
ARM GAS  C:\Users\tmj32\AppData\Local\Temp\cc11CUDk.s 			page 66


 2479 00be 7B63     		str	r3, [r7, #52]
 691:..\..\..\lvgl\version_6.1.2\lvgl\src\lv_objx/lv_cpicker.c **** 
 692:..\..\..\lvgl\version_6.1.2\lvgl\src\lv_objx/lv_cpicker.c ****         lv_draw_rect(&rounded_edge_area, mask, &style, opa_scale);
 2480              		.loc 3 692 0
 2481 00c0 FB79     		ldrb	r3, [r7, #7]	@ zero_extendqisi2
 2482 00c2 07F12C02 		add	r2, r7, #44
 2483 00c6 07F11C00 		add	r0, r7, #28
 2484 00ca B968     		ldr	r1, [r7, #8]
 2485 00cc FFF7FEFF 		bl	lv_draw_rect
 693:..\..\..\lvgl\version_6.1.2\lvgl\src\lv_objx/lv_cpicker.c **** 
 694:..\..\..\lvgl\version_6.1.2\lvgl\src\lv_objx/lv_cpicker.c ****         /*Draw the right rounded end*/
 695:..\..\..\lvgl\version_6.1.2\lvgl\src\lv_objx/lv_cpicker.c ****         lv_obj_get_coords(cpicker, &rounded_edge_area);
 2486              		.loc 3 695 0
 2487 00d0 07F11C03 		add	r3, r7, #28
 2488 00d4 1946     		mov	r1, r3
 2489 00d6 F868     		ldr	r0, [r7, #12]
 2490 00d8 FFF7FEFF 		bl	lv_obj_get_coords
 696:..\..\..\lvgl\version_6.1.2\lvgl\src\lv_objx/lv_cpicker.c ****         rounded_edge_area.x1 = rounded_edge_area.x2 - 2 * r;
 2491              		.loc 3 696 0
 2492 00dc B7F92030 		ldrsh	r3, [r7, #32]
 2493 00e0 9AB2     		uxth	r2, r3
 2494 00e2 B7F88630 		ldrh	r3, [r7, #134]
 2495 00e6 5B00     		lsls	r3, r3, #1
 2496 00e8 9BB2     		uxth	r3, r3
 2497 00ea D31A     		subs	r3, r2, r3
 2498 00ec 9BB2     		uxth	r3, r3
 2499 00ee 1BB2     		sxth	r3, r3
 2500 00f0 BB83     		strh	r3, [r7, #28]	@ movhi
 697:..\..\..\lvgl\version_6.1.2\lvgl\src\lv_objx/lv_cpicker.c **** 
 698:..\..\..\lvgl\version_6.1.2\lvgl\src\lv_objx/lv_cpicker.c ****         style.body.main_color = angle_to_mode_color(cpicker, 359);
 2501              		.loc 3 698 0
 2502 00f2 40F26711 		movw	r1, #359
 2503 00f6 F868     		ldr	r0, [r7, #12]
 2504 00f8 FFF7FEFF 		bl	angle_to_mode_color
 2505 00fc 3863     		str	r0, [r7, #48]
 699:..\..\..\lvgl\version_6.1.2\lvgl\src\lv_objx/lv_cpicker.c ****         style.body.grad_color = style.body.main_color;
 2506              		.loc 3 699 0
 2507 00fe 3B6B     		ldr	r3, [r7, #48]
 2508 0100 7B63     		str	r3, [r7, #52]
 700:..\..\..\lvgl\version_6.1.2\lvgl\src\lv_objx/lv_cpicker.c **** 
 701:..\..\..\lvgl\version_6.1.2\lvgl\src\lv_objx/lv_cpicker.c ****         lv_draw_rect(&rounded_edge_area, mask, &style, opa_scale);
 2509              		.loc 3 701 0
 2510 0102 FB79     		ldrb	r3, [r7, #7]	@ zero_extendqisi2
 2511 0104 07F12C02 		add	r2, r7, #44
 2512 0108 07F11C00 		add	r0, r7, #28
 2513 010c B968     		ldr	r1, [r7, #8]
 2514 010e FFF7FEFF 		bl	lv_draw_rect
 2515              	.L114:
 2516              	.LBE7:
 702:..\..\..\lvgl\version_6.1.2\lvgl\src\lv_objx/lv_cpicker.c ****     }
 703:..\..\..\lvgl\version_6.1.2\lvgl\src\lv_objx/lv_cpicker.c **** 
 704:..\..\..\lvgl\version_6.1.2\lvgl\src\lv_objx/lv_cpicker.c ****     lv_coord_t grad_w = lv_area_get_width(&grad_area);
 2517              		.loc 3 704 0
 2518 0112 07F12403 		add	r3, r7, #36
 2519 0116 1846     		mov	r0, r3
 2520 0118 FFF7FEFF 		bl	lv_area_get_width
 2521 011c 0346     		mov	r3, r0
ARM GAS  C:\Users\tmj32\AppData\Local\Temp\cc11CUDk.s 			page 67


 2522 011e A7F88030 		strh	r3, [r7, #128]	@ movhi
 705:..\..\..\lvgl\version_6.1.2\lvgl\src\lv_objx/lv_cpicker.c ****     uint16_t i_step = LV_MATH_MAX(LV_CPICKER_DEF_QF, 360 / grad_w);
 2523              		.loc 3 705 0
 2524 0122 B7F98030 		ldrsh	r3, [r7, #128]
 2525 0126 4FF4B472 		mov	r2, #360
 2526 012a 92FBF3F3 		sdiv	r3, r2, r3
 2527 012e 032B     		cmp	r3, #3
 2528 0130 B8BF     		it	lt
 2529 0132 0323     		movlt	r3, #3
 2530 0134 A7F87E30 		strh	r3, [r7, #126]	@ movhi
 706:..\..\..\lvgl\version_6.1.2\lvgl\src\lv_objx/lv_cpicker.c ****     style.body.radius = 0;
 2531              		.loc 3 706 0
 2532 0138 0023     		movs	r3, #0
 2533 013a 3B87     		strh	r3, [r7, #56]	@ movhi
 707:..\..\..\lvgl\version_6.1.2\lvgl\src\lv_objx/lv_cpicker.c ****     style.body.border.width = 0;
 2534              		.loc 3 707 0
 2535 013c 0023     		movs	r3, #0
 2536 013e A7F84030 		strh	r3, [r7, #64]	@ movhi
 708:..\..\..\lvgl\version_6.1.2\lvgl\src\lv_objx/lv_cpicker.c ****     style.body.shadow.width = 0;
 2537              		.loc 3 708 0
 2538 0142 0023     		movs	r3, #0
 2539 0144 A7F84830 		strh	r3, [r7, #72]	@ movhi
 709:..\..\..\lvgl\version_6.1.2\lvgl\src\lv_objx/lv_cpicker.c ****     style.body.opa = LV_OPA_COVER;
 2540              		.loc 3 709 0
 2541 0148 FF23     		movs	r3, #255
 2542 014a 87F83A30 		strb	r3, [r7, #58]
 710:..\..\..\lvgl\version_6.1.2\lvgl\src\lv_objx/lv_cpicker.c **** 
 711:..\..\..\lvgl\version_6.1.2\lvgl\src\lv_objx/lv_cpicker.c ****     uint16_t i;
 712:..\..\..\lvgl\version_6.1.2\lvgl\src\lv_objx/lv_cpicker.c ****     for(i = 0; i < 360; i += i_step) {
 2543              		.loc 3 712 0
 2544 014e 0023     		movs	r3, #0
 2545 0150 A7F88430 		strh	r3, [r7, #132]	@ movhi
 2546 0154 49E0     		b	.L116
 2547              	.L117:
 2548              	.LBB8:
 713:..\..\..\lvgl\version_6.1.2\lvgl\src\lv_objx/lv_cpicker.c ****         style.body.main_color = angle_to_mode_color(cpicker, i);
 2549              		.loc 3 713 0 discriminator 3
 2550 0156 B7F88430 		ldrh	r3, [r7, #132]
 2551 015a 1946     		mov	r1, r3
 2552 015c F868     		ldr	r0, [r7, #12]
 2553 015e FFF7FEFF 		bl	angle_to_mode_color
 2554 0162 3863     		str	r0, [r7, #48]
 714:..\..\..\lvgl\version_6.1.2\lvgl\src\lv_objx/lv_cpicker.c ****         style.body.grad_color = style.body.main_color;
 2555              		.loc 3 714 0 discriminator 3
 2556 0164 3B6B     		ldr	r3, [r7, #48]
 2557 0166 7B63     		str	r3, [r7, #52]
 715:..\..\..\lvgl\version_6.1.2\lvgl\src\lv_objx/lv_cpicker.c **** 
 716:..\..\..\lvgl\version_6.1.2\lvgl\src\lv_objx/lv_cpicker.c ****         /*the following attribute might need changing between index to add border, shadow, radius e
 717:..\..\..\lvgl\version_6.1.2\lvgl\src\lv_objx/lv_cpicker.c ****         lv_area_t rect_area;
 718:..\..\..\lvgl\version_6.1.2\lvgl\src\lv_objx/lv_cpicker.c **** 
 719:..\..\..\lvgl\version_6.1.2\lvgl\src\lv_objx/lv_cpicker.c ****         /*scale angle (hue/sat/val) to linear coordinate*/
 720:..\..\..\lvgl\version_6.1.2\lvgl\src\lv_objx/lv_cpicker.c ****         lv_coord_t xi = (i * grad_w) / 360;
 2558              		.loc 3 720 0 discriminator 3
 2559 0168 B7F88430 		ldrh	r3, [r7, #132]
 2560 016c B7F98020 		ldrsh	r2, [r7, #128]
 2561 0170 02FB03F3 		mul	r3, r2, r3
 2562 0174 214A     		ldr	r2, .L118
ARM GAS  C:\Users\tmj32\AppData\Local\Temp\cc11CUDk.s 			page 68


 2563 0176 82FB0312 		smull	r1, r2, r2, r3
 2564 017a 1A44     		add	r2, r2, r3
 2565 017c 1212     		asrs	r2, r2, #8
 2566 017e DB17     		asrs	r3, r3, #31
 2567 0180 D31A     		subs	r3, r2, r3
 2568 0182 A7F87C30 		strh	r3, [r7, #124]	@ movhi
 721:..\..\..\lvgl\version_6.1.2\lvgl\src\lv_objx/lv_cpicker.c **** 
 722:..\..\..\lvgl\version_6.1.2\lvgl\src\lv_objx/lv_cpicker.c ****         rect_area.x1 = LV_MATH_MIN(grad_area.x1 + xi, grad_area.x1 + grad_w - i_step);
 2569              		.loc 3 722 0 discriminator 3
 2570 0186 B7F92430 		ldrsh	r3, [r7, #36]
 2571 018a 1A46     		mov	r2, r3
 2572 018c B7F98030 		ldrsh	r3, [r7, #128]
 2573 0190 1A44     		add	r2, r2, r3
 2574 0192 B7F87E30 		ldrh	r3, [r7, #126]
 2575 0196 D21A     		subs	r2, r2, r3
 2576 0198 B7F92430 		ldrsh	r3, [r7, #36]
 2577 019c 1946     		mov	r1, r3
 2578 019e B7F97C30 		ldrsh	r3, [r7, #124]
 2579 01a2 0B44     		add	r3, r3, r1
 2580 01a4 9342     		cmp	r3, r2
 2581 01a6 A8BF     		it	ge
 2582 01a8 1346     		movge	r3, r2
 2583 01aa 1BB2     		sxth	r3, r3
 2584 01ac BB82     		strh	r3, [r7, #20]	@ movhi
 723:..\..\..\lvgl\version_6.1.2\lvgl\src\lv_objx/lv_cpicker.c ****         rect_area.y1 = grad_area.y1;
 2585              		.loc 3 723 0 discriminator 3
 2586 01ae B7F92630 		ldrsh	r3, [r7, #38]
 2587 01b2 FB82     		strh	r3, [r7, #22]	@ movhi
 724:..\..\..\lvgl\version_6.1.2\lvgl\src\lv_objx/lv_cpicker.c ****         rect_area.x2 = rect_area.x1 + i_step;
 2588              		.loc 3 724 0 discriminator 3
 2589 01b4 B7F91430 		ldrsh	r3, [r7, #20]
 2590 01b8 9AB2     		uxth	r2, r3
 2591 01ba B7F87E30 		ldrh	r3, [r7, #126]	@ movhi
 2592 01be 1344     		add	r3, r3, r2
 2593 01c0 9BB2     		uxth	r3, r3
 2594 01c2 1BB2     		sxth	r3, r3
 2595 01c4 3B83     		strh	r3, [r7, #24]	@ movhi
 725:..\..\..\lvgl\version_6.1.2\lvgl\src\lv_objx/lv_cpicker.c ****         rect_area.y2 = grad_area.y2;
 2596              		.loc 3 725 0 discriminator 3
 2597 01c6 B7F92A30 		ldrsh	r3, [r7, #42]
 2598 01ca 7B83     		strh	r3, [r7, #26]	@ movhi
 726:..\..\..\lvgl\version_6.1.2\lvgl\src\lv_objx/lv_cpicker.c **** 
 727:..\..\..\lvgl\version_6.1.2\lvgl\src\lv_objx/lv_cpicker.c ****         lv_draw_rect(&rect_area, mask, &style, opa_scale);
 2599              		.loc 3 727 0 discriminator 3
 2600 01cc FB79     		ldrb	r3, [r7, #7]	@ zero_extendqisi2
 2601 01ce 07F12C02 		add	r2, r7, #44
 2602 01d2 07F11400 		add	r0, r7, #20
 2603 01d6 B968     		ldr	r1, [r7, #8]
 2604 01d8 FFF7FEFF 		bl	lv_draw_rect
 2605              	.LBE8:
 712:..\..\..\lvgl\version_6.1.2\lvgl\src\lv_objx/lv_cpicker.c ****         style.body.main_color = angle_to_mode_color(cpicker, i);
 2606              		.loc 3 712 0 discriminator 3
 2607 01dc B7F88420 		ldrh	r2, [r7, #132]	@ movhi
 2608 01e0 B7F87E30 		ldrh	r3, [r7, #126]	@ movhi
 2609 01e4 1344     		add	r3, r3, r2
 2610 01e6 A7F88430 		strh	r3, [r7, #132]	@ movhi
 2611              	.L116:
ARM GAS  C:\Users\tmj32\AppData\Local\Temp\cc11CUDk.s 			page 69


 712:..\..\..\lvgl\version_6.1.2\lvgl\src\lv_objx/lv_cpicker.c ****         style.body.main_color = angle_to_mode_color(cpicker, i);
 2612              		.loc 3 712 0 is_stmt 0 discriminator 1
 2613 01ea B7F88430 		ldrh	r3, [r7, #132]
 2614 01ee B3F5B47F 		cmp	r3, #360
 2615 01f2 B0D3     		bcc	.L117
 728:..\..\..\lvgl\version_6.1.2\lvgl\src\lv_objx/lv_cpicker.c ****     }
 729:..\..\..\lvgl\version_6.1.2\lvgl\src\lv_objx/lv_cpicker.c **** }
 2616              		.loc 3 729 0 is_stmt 1
 2617 01f4 00BF     		nop
 2618 01f6 8837     		adds	r7, r7, #136
 2619              		.cfi_def_cfa_offset 8
 2620 01f8 BD46     		mov	sp, r7
 2621              		.cfi_def_cfa_register 13
 2622              		@ sp needed
 2623 01fa 80BD     		pop	{r7, pc}
 2624              	.L119:
 2625              		.align	2
 2626              	.L118:
 2627 01fc B7600BB6 		.word	-1240768329
 2628              		.cfi_endproc
 2629              	.LFE55:
 2630              		.size	draw_rect_grad, .-draw_rect_grad
 2631              		.section	.text.draw_indic,"ax",%progbits
 2632              		.align	2
 2633              		.thumb
 2634              		.thumb_func
 2635              		.type	draw_indic, %function
 2636              	draw_indic:
 2637              	.LFB56:
 730:..\..\..\lvgl\version_6.1.2\lvgl\src\lv_objx/lv_cpicker.c **** 
 731:..\..\..\lvgl\version_6.1.2\lvgl\src\lv_objx/lv_cpicker.c **** static void draw_indic(lv_obj_t * cpicker, const lv_area_t * mask, lv_opa_t opa_scale)
 732:..\..\..\lvgl\version_6.1.2\lvgl\src\lv_objx/lv_cpicker.c **** {
 2638              		.loc 3 732 0
 2639              		.cfi_startproc
 2640              		@ args = 0, pretend = 0, frame = 112
 2641              		@ frame_needed = 1, uses_anonymous_args = 0
 2642 0000 80B5     		push	{r7, lr}
 2643              		.cfi_def_cfa_offset 8
 2644              		.cfi_offset 7, -8
 2645              		.cfi_offset 14, -4
 2646 0002 9CB0     		sub	sp, sp, #112
 2647              		.cfi_def_cfa_offset 120
 2648 0004 00AF     		add	r7, sp, #0
 2649              		.cfi_def_cfa_register 7
 2650 0006 F860     		str	r0, [r7, #12]
 2651 0008 B960     		str	r1, [r7, #8]
 2652 000a 1346     		mov	r3, r2
 2653 000c FB71     		strb	r3, [r7, #7]
 733:..\..\..\lvgl\version_6.1.2\lvgl\src\lv_objx/lv_cpicker.c ****     lv_cpicker_ext_t * ext = lv_obj_get_ext_attr(cpicker);
 2654              		.loc 3 733 0
 2655 000e F868     		ldr	r0, [r7, #12]
 2656 0010 FFF7FEFF 		bl	lv_obj_get_ext_attr
 2657 0014 F866     		str	r0, [r7, #108]
 734:..\..\..\lvgl\version_6.1.2\lvgl\src\lv_objx/lv_cpicker.c **** 
 735:..\..\..\lvgl\version_6.1.2\lvgl\src\lv_objx/lv_cpicker.c ****     lv_style_t style_cir;
 736:..\..\..\lvgl\version_6.1.2\lvgl\src\lv_objx/lv_cpicker.c ****     lv_style_copy(&style_cir, ext->indic.style);
 2658              		.loc 3 736 0
ARM GAS  C:\Users\tmj32\AppData\Local\Temp\cc11CUDk.s 			page 70


 2659 0016 FB6E     		ldr	r3, [r7, #108]
 2660 0018 5A68     		ldr	r2, [r3, #4]
 2661 001a 07F11C03 		add	r3, r7, #28
 2662 001e 1146     		mov	r1, r2
 2663 0020 1846     		mov	r0, r3
 2664 0022 FFF7FEFF 		bl	lv_style_copy
 737:..\..\..\lvgl\version_6.1.2\lvgl\src\lv_objx/lv_cpicker.c ****     style_cir.body.radius = LV_RADIUS_CIRCLE;
 2665              		.loc 3 737 0
 2666 0026 47F61843 		movw	r3, #31768
 2667 002a 3B85     		strh	r3, [r7, #40]	@ movhi
 738:..\..\..\lvgl\version_6.1.2\lvgl\src\lv_objx/lv_cpicker.c **** 
 739:..\..\..\lvgl\version_6.1.2\lvgl\src\lv_objx/lv_cpicker.c ****     if(ext->indic.colored) {
 2668              		.loc 3 739 0
 2669 002c FB6E     		ldr	r3, [r7, #108]
 2670 002e 1B7B     		ldrb	r3, [r3, #12]	@ zero_extendqisi2
 2671 0030 03F00103 		and	r3, r3, #1
 2672 0034 DBB2     		uxtb	r3, r3
 2673 0036 002B     		cmp	r3, #0
 2674 0038 05D0     		beq	.L121
 740:..\..\..\lvgl\version_6.1.2\lvgl\src\lv_objx/lv_cpicker.c ****         style_cir.body.main_color = lv_cpicker_get_color(cpicker);
 2675              		.loc 3 740 0
 2676 003a F868     		ldr	r0, [r7, #12]
 2677 003c FFF7FEFF 		bl	lv_cpicker_get_color
 2678 0040 3862     		str	r0, [r7, #32]
 741:..\..\..\lvgl\version_6.1.2\lvgl\src\lv_objx/lv_cpicker.c ****         style_cir.body.grad_color = style_cir.body.main_color;
 2679              		.loc 3 741 0
 2680 0042 3B6A     		ldr	r3, [r7, #32]
 2681 0044 7B62     		str	r3, [r7, #36]
 2682              	.L121:
 742:..\..\..\lvgl\version_6.1.2\lvgl\src\lv_objx/lv_cpicker.c ****     }
 743:..\..\..\lvgl\version_6.1.2\lvgl\src\lv_objx/lv_cpicker.c **** 
 744:..\..\..\lvgl\version_6.1.2\lvgl\src\lv_objx/lv_cpicker.c ****     lv_area_t indic_area = get_indic_area(cpicker);
 2683              		.loc 3 744 0
 2684 0046 07F11403 		add	r3, r7, #20
 2685 004a F968     		ldr	r1, [r7, #12]
 2686 004c 1846     		mov	r0, r3
 2687 004e FFF7FEFF 		bl	get_indic_area
 745:..\..\..\lvgl\version_6.1.2\lvgl\src\lv_objx/lv_cpicker.c **** 
 746:..\..\..\lvgl\version_6.1.2\lvgl\src\lv_objx/lv_cpicker.c ****     lv_draw_rect(&indic_area, mask, &style_cir, opa_scale);
 2688              		.loc 3 746 0
 2689 0052 FB79     		ldrb	r3, [r7, #7]	@ zero_extendqisi2
 2690 0054 07F11C02 		add	r2, r7, #28
 2691 0058 07F11400 		add	r0, r7, #20
 2692 005c B968     		ldr	r1, [r7, #8]
 2693 005e FFF7FEFF 		bl	lv_draw_rect
 747:..\..\..\lvgl\version_6.1.2\lvgl\src\lv_objx/lv_cpicker.c **** }
 2694              		.loc 3 747 0
 2695 0062 00BF     		nop
 2696 0064 7037     		adds	r7, r7, #112
 2697              		.cfi_def_cfa_offset 8
 2698 0066 BD46     		mov	sp, r7
 2699              		.cfi_def_cfa_register 13
 2700              		@ sp needed
 2701 0068 80BD     		pop	{r7, pc}
 2702              		.cfi_endproc
 2703              	.LFE56:
 2704              		.size	draw_indic, .-draw_indic
ARM GAS  C:\Users\tmj32\AppData\Local\Temp\cc11CUDk.s 			page 71


 2705 006a 00BF     		.section	.text.invalidate_indic,"ax",%progbits
 2706              		.align	2
 2707              		.thumb
 2708              		.thumb_func
 2709              		.type	invalidate_indic, %function
 2710              	invalidate_indic:
 2711              	.LFB57:
 748:..\..\..\lvgl\version_6.1.2\lvgl\src\lv_objx/lv_cpicker.c **** 
 749:..\..\..\lvgl\version_6.1.2\lvgl\src\lv_objx/lv_cpicker.c **** static void invalidate_indic(lv_obj_t * cpicker)
 750:..\..\..\lvgl\version_6.1.2\lvgl\src\lv_objx/lv_cpicker.c **** {
 2712              		.loc 3 750 0
 2713              		.cfi_startproc
 2714              		@ args = 0, pretend = 0, frame = 16
 2715              		@ frame_needed = 1, uses_anonymous_args = 0
 2716 0000 80B5     		push	{r7, lr}
 2717              		.cfi_def_cfa_offset 8
 2718              		.cfi_offset 7, -8
 2719              		.cfi_offset 14, -4
 2720 0002 84B0     		sub	sp, sp, #16
 2721              		.cfi_def_cfa_offset 24
 2722 0004 00AF     		add	r7, sp, #0
 2723              		.cfi_def_cfa_register 7
 2724 0006 7860     		str	r0, [r7, #4]
 751:..\..\..\lvgl\version_6.1.2\lvgl\src\lv_objx/lv_cpicker.c ****     lv_area_t indic_area = get_indic_area(cpicker);
 2725              		.loc 3 751 0
 2726 0008 07F10803 		add	r3, r7, #8
 2727 000c 7968     		ldr	r1, [r7, #4]
 2728 000e 1846     		mov	r0, r3
 2729 0010 FFF7FEFF 		bl	get_indic_area
 752:..\..\..\lvgl\version_6.1.2\lvgl\src\lv_objx/lv_cpicker.c **** 
 753:..\..\..\lvgl\version_6.1.2\lvgl\src\lv_objx/lv_cpicker.c ****     lv_obj_invalidate_area(cpicker, &indic_area);
 2730              		.loc 3 753 0
 2731 0014 07F10803 		add	r3, r7, #8
 2732 0018 1946     		mov	r1, r3
 2733 001a 7868     		ldr	r0, [r7, #4]
 2734 001c FFF7FEFF 		bl	lv_obj_invalidate_area
 754:..\..\..\lvgl\version_6.1.2\lvgl\src\lv_objx/lv_cpicker.c **** }
 2735              		.loc 3 754 0
 2736 0020 00BF     		nop
 2737 0022 1037     		adds	r7, r7, #16
 2738              		.cfi_def_cfa_offset 8
 2739 0024 BD46     		mov	sp, r7
 2740              		.cfi_def_cfa_register 13
 2741              		@ sp needed
 2742 0026 80BD     		pop	{r7, pc}
 2743              		.cfi_endproc
 2744              	.LFE57:
 2745              		.size	invalidate_indic, .-invalidate_indic
 2746              		.section	.text.get_indic_area,"ax",%progbits
 2747              		.align	2
 2748              		.thumb
 2749              		.thumb_func
 2750              		.type	get_indic_area, %function
 2751              	get_indic_area:
 2752              	.LFB58:
 755:..\..\..\lvgl\version_6.1.2\lvgl\src\lv_objx/lv_cpicker.c **** 
 756:..\..\..\lvgl\version_6.1.2\lvgl\src\lv_objx/lv_cpicker.c **** static lv_area_t get_indic_area(lv_obj_t * cpicker)
ARM GAS  C:\Users\tmj32\AppData\Local\Temp\cc11CUDk.s 			page 72


 757:..\..\..\lvgl\version_6.1.2\lvgl\src\lv_objx/lv_cpicker.c **** {
 2753              		.loc 3 757 0
 2754              		.cfi_startproc
 2755              		@ args = 0, pretend = 0, frame = 40
 2756              		@ frame_needed = 1, uses_anonymous_args = 0
 2757 0000 80B5     		push	{r7, lr}
 2758              		.cfi_def_cfa_offset 8
 2759              		.cfi_offset 7, -8
 2760              		.cfi_offset 14, -4
 2761 0002 8AB0     		sub	sp, sp, #40
 2762              		.cfi_def_cfa_offset 48
 2763 0004 00AF     		add	r7, sp, #0
 2764              		.cfi_def_cfa_register 7
 2765 0006 7860     		str	r0, [r7, #4]
 2766 0008 3960     		str	r1, [r7]
 758:..\..\..\lvgl\version_6.1.2\lvgl\src\lv_objx/lv_cpicker.c ****     lv_cpicker_ext_t * ext = lv_obj_get_ext_attr(cpicker);
 2767              		.loc 3 758 0
 2768 000a 3868     		ldr	r0, [r7]
 2769 000c FFF7FEFF 		bl	lv_obj_get_ext_attr
 2770 0010 3862     		str	r0, [r7, #32]
 759:..\..\..\lvgl\version_6.1.2\lvgl\src\lv_objx/lv_cpicker.c ****     const lv_style_t * style_main = lv_cpicker_get_style(cpicker, LV_CPICKER_STYLE_MAIN);
 2771              		.loc 3 759 0
 2772 0012 0021     		movs	r1, #0
 2773 0014 3868     		ldr	r0, [r7]
 2774 0016 FFF7FEFF 		bl	lv_cpicker_get_style
 2775 001a F861     		str	r0, [r7, #28]
 760:..\..\..\lvgl\version_6.1.2\lvgl\src\lv_objx/lv_cpicker.c ****     const lv_style_t * style_indic = lv_cpicker_get_style(cpicker, LV_CPICKER_STYLE_INDICATOR);
 2776              		.loc 3 760 0
 2777 001c 0121     		movs	r1, #1
 2778 001e 3868     		ldr	r0, [r7]
 2779 0020 FFF7FEFF 		bl	lv_cpicker_get_style
 2780 0024 B861     		str	r0, [r7, #24]
 761:..\..\..\lvgl\version_6.1.2\lvgl\src\lv_objx/lv_cpicker.c **** 
 762:..\..\..\lvgl\version_6.1.2\lvgl\src\lv_objx/lv_cpicker.c ****     uint16_t r = 0;
 2781              		.loc 3 762 0
 2782 0026 0023     		movs	r3, #0
 2783 0028 FB84     		strh	r3, [r7, #38]	@ movhi
 763:..\..\..\lvgl\version_6.1.2\lvgl\src\lv_objx/lv_cpicker.c ****     if(ext->type == LV_CPICKER_TYPE_DISC) r = style_main->line.width / 2;
 2784              		.loc 3 763 0
 2785 002a 3B6A     		ldr	r3, [r7, #32]
 2786 002c 1B7F     		ldrb	r3, [r3, #28]	@ zero_extendqisi2
 2787 002e 03F00803 		and	r3, r3, #8
 2788 0032 DBB2     		uxtb	r3, r3
 2789 0034 002B     		cmp	r3, #0
 2790 0036 08D0     		beq	.L124
 2791              		.loc 3 763 0 is_stmt 0 discriminator 1
 2792 0038 FB69     		ldr	r3, [r7, #28]
 2793 003a B3F94C30 		ldrsh	r3, [r3, #76]
 2794 003e DA0F     		lsrs	r2, r3, #31
 2795 0040 1344     		add	r3, r3, r2
 2796 0042 5B10     		asrs	r3, r3, #1
 2797 0044 1BB2     		sxth	r3, r3
 2798 0046 FB84     		strh	r3, [r7, #38]	@ movhi
 2799 0048 12E0     		b	.L125
 2800              	.L124:
 764:..\..\..\lvgl\version_6.1.2\lvgl\src\lv_objx/lv_cpicker.c ****     else if(ext->type == LV_CPICKER_TYPE_RECT) {
 2801              		.loc 3 764 0 is_stmt 1
ARM GAS  C:\Users\tmj32\AppData\Local\Temp\cc11CUDk.s 			page 73


 2802 004a 3B6A     		ldr	r3, [r7, #32]
 2803 004c 1B7F     		ldrb	r3, [r3, #28]	@ zero_extendqisi2
 2804 004e 03F00803 		and	r3, r3, #8
 2805 0052 DBB2     		uxtb	r3, r3
 2806 0054 002B     		cmp	r3, #0
 2807 0056 0BD1     		bne	.L125
 2808              	.LBB9:
 765:..\..\..\lvgl\version_6.1.2\lvgl\src\lv_objx/lv_cpicker.c ****         lv_coord_t h = lv_obj_get_height(cpicker);
 2809              		.loc 3 765 0
 2810 0058 3868     		ldr	r0, [r7]
 2811 005a FFF7FEFF 		bl	lv_obj_get_height
 2812 005e 0346     		mov	r3, r0
 2813 0060 FB82     		strh	r3, [r7, #22]	@ movhi
 766:..\..\..\lvgl\version_6.1.2\lvgl\src\lv_objx/lv_cpicker.c ****         r = h / 2;
 2814              		.loc 3 766 0
 2815 0062 B7F91630 		ldrsh	r3, [r7, #22]
 2816 0066 DA0F     		lsrs	r2, r3, #31
 2817 0068 1344     		add	r3, r3, r2
 2818 006a 5B10     		asrs	r3, r3, #1
 2819 006c 1BB2     		sxth	r3, r3
 2820 006e FB84     		strh	r3, [r7, #38]	@ movhi
 2821              	.L125:
 2822              	.LBE9:
 767:..\..\..\lvgl\version_6.1.2\lvgl\src\lv_objx/lv_cpicker.c ****     }
 768:..\..\..\lvgl\version_6.1.2\lvgl\src\lv_objx/lv_cpicker.c **** 
 769:..\..\..\lvgl\version_6.1.2\lvgl\src\lv_objx/lv_cpicker.c ****     lv_area_t indic_area;
 770:..\..\..\lvgl\version_6.1.2\lvgl\src\lv_objx/lv_cpicker.c ****     indic_area.x1 = cpicker->coords.x1 + ext->indic.pos.x - r - style_indic->body.padding.left;
 2823              		.loc 3 770 0
 2824 0070 3B68     		ldr	r3, [r7]
 2825 0072 B3F91030 		ldrsh	r3, [r3, #16]
 2826 0076 9AB2     		uxth	r2, r3
 2827 0078 3B6A     		ldr	r3, [r7, #32]
 2828 007a B3F90830 		ldrsh	r3, [r3, #8]
 2829 007e 9BB2     		uxth	r3, r3
 2830 0080 1344     		add	r3, r3, r2
 2831 0082 9AB2     		uxth	r2, r3
 2832 0084 FB8C     		ldrh	r3, [r7, #38]	@ movhi
 2833 0086 D31A     		subs	r3, r2, r3
 2834 0088 9AB2     		uxth	r2, r3
 2835 008a BB69     		ldr	r3, [r7, #24]
 2836 008c B3F92430 		ldrsh	r3, [r3, #36]
 2837 0090 9BB2     		uxth	r3, r3
 2838 0092 D31A     		subs	r3, r2, r3
 2839 0094 9BB2     		uxth	r3, r3
 2840 0096 1BB2     		sxth	r3, r3
 2841 0098 BB81     		strh	r3, [r7, #12]	@ movhi
 771:..\..\..\lvgl\version_6.1.2\lvgl\src\lv_objx/lv_cpicker.c ****     indic_area.y1 = cpicker->coords.y1 + ext->indic.pos.y - r - style_indic->body.padding.right;
 2842              		.loc 3 771 0
 2843 009a 3B68     		ldr	r3, [r7]
 2844 009c B3F91230 		ldrsh	r3, [r3, #18]
 2845 00a0 9AB2     		uxth	r2, r3
 2846 00a2 3B6A     		ldr	r3, [r7, #32]
 2847 00a4 B3F90A30 		ldrsh	r3, [r3, #10]
 2848 00a8 9BB2     		uxth	r3, r3
 2849 00aa 1344     		add	r3, r3, r2
 2850 00ac 9AB2     		uxth	r2, r3
 2851 00ae FB8C     		ldrh	r3, [r7, #38]	@ movhi
ARM GAS  C:\Users\tmj32\AppData\Local\Temp\cc11CUDk.s 			page 74


 2852 00b0 D31A     		subs	r3, r2, r3
 2853 00b2 9AB2     		uxth	r2, r3
 2854 00b4 BB69     		ldr	r3, [r7, #24]
 2855 00b6 B3F92630 		ldrsh	r3, [r3, #38]
 2856 00ba 9BB2     		uxth	r3, r3
 2857 00bc D31A     		subs	r3, r2, r3
 2858 00be 9BB2     		uxth	r3, r3
 2859 00c0 1BB2     		sxth	r3, r3
 2860 00c2 FB81     		strh	r3, [r7, #14]	@ movhi
 772:..\..\..\lvgl\version_6.1.2\lvgl\src\lv_objx/lv_cpicker.c ****     indic_area.x2 = cpicker->coords.x1 + ext->indic.pos.x + r + style_indic->body.padding.top;
 2861              		.loc 3 772 0
 2862 00c4 3B68     		ldr	r3, [r7]
 2863 00c6 B3F91030 		ldrsh	r3, [r3, #16]
 2864 00ca 9AB2     		uxth	r2, r3
 2865 00cc 3B6A     		ldr	r3, [r7, #32]
 2866 00ce B3F90830 		ldrsh	r3, [r3, #8]
 2867 00d2 9BB2     		uxth	r3, r3
 2868 00d4 1344     		add	r3, r3, r2
 2869 00d6 9AB2     		uxth	r2, r3
 2870 00d8 FB8C     		ldrh	r3, [r7, #38]	@ movhi
 2871 00da 1344     		add	r3, r3, r2
 2872 00dc 9AB2     		uxth	r2, r3
 2873 00de BB69     		ldr	r3, [r7, #24]
 2874 00e0 B3F92030 		ldrsh	r3, [r3, #32]
 2875 00e4 9BB2     		uxth	r3, r3
 2876 00e6 1344     		add	r3, r3, r2
 2877 00e8 9BB2     		uxth	r3, r3
 2878 00ea 1BB2     		sxth	r3, r3
 2879 00ec 3B82     		strh	r3, [r7, #16]	@ movhi
 773:..\..\..\lvgl\version_6.1.2\lvgl\src\lv_objx/lv_cpicker.c ****     indic_area.y2 = cpicker->coords.y1 + ext->indic.pos.y + r + style_indic->body.padding.bottom;
 2880              		.loc 3 773 0
 2881 00ee 3B68     		ldr	r3, [r7]
 2882 00f0 B3F91230 		ldrsh	r3, [r3, #18]
 2883 00f4 9AB2     		uxth	r2, r3
 2884 00f6 3B6A     		ldr	r3, [r7, #32]
 2885 00f8 B3F90A30 		ldrsh	r3, [r3, #10]
 2886 00fc 9BB2     		uxth	r3, r3
 2887 00fe 1344     		add	r3, r3, r2
 2888 0100 9AB2     		uxth	r2, r3
 2889 0102 FB8C     		ldrh	r3, [r7, #38]	@ movhi
 2890 0104 1344     		add	r3, r3, r2
 2891 0106 9AB2     		uxth	r2, r3
 2892 0108 BB69     		ldr	r3, [r7, #24]
 2893 010a B3F92230 		ldrsh	r3, [r3, #34]
 2894 010e 9BB2     		uxth	r3, r3
 2895 0110 1344     		add	r3, r3, r2
 2896 0112 9BB2     		uxth	r3, r3
 2897 0114 1BB2     		sxth	r3, r3
 2898 0116 7B82     		strh	r3, [r7, #18]	@ movhi
 774:..\..\..\lvgl\version_6.1.2\lvgl\src\lv_objx/lv_cpicker.c **** 
 775:..\..\..\lvgl\version_6.1.2\lvgl\src\lv_objx/lv_cpicker.c ****     return indic_area;
 2899              		.loc 3 775 0
 2900 0118 7B68     		ldr	r3, [r7, #4]
 2901 011a 1A46     		mov	r2, r3
 2902 011c 07F10C03 		add	r3, r7, #12
 2903 0120 03CB     		ldmia	r3!, {r0, r1}
 2904 0122 1060     		str	r0, [r2]	@ unaligned
ARM GAS  C:\Users\tmj32\AppData\Local\Temp\cc11CUDk.s 			page 75


 2905 0124 5160     		str	r1, [r2, #4]	@ unaligned
 776:..\..\..\lvgl\version_6.1.2\lvgl\src\lv_objx/lv_cpicker.c **** }
 2906              		.loc 3 776 0
 2907 0126 7868     		ldr	r0, [r7, #4]
 2908 0128 2837     		adds	r7, r7, #40
 2909              		.cfi_def_cfa_offset 8
 2910 012a BD46     		mov	sp, r7
 2911              		.cfi_def_cfa_register 13
 2912              		@ sp needed
 2913 012c 80BD     		pop	{r7, pc}
 2914              		.cfi_endproc
 2915              	.LFE58:
 2916              		.size	get_indic_area, .-get_indic_area
 2917 012e 00BF     		.section	.rodata
 2918              		.align	2
 2919              	.LC1:
 2920 0004 6C765F63 		.ascii	"lv_cpicker\000"
 2920      7069636B 
 2920      657200
 2921              		.section	.text.lv_cpicker_signal,"ax",%progbits
 2922              		.align	2
 2923              		.thumb
 2924              		.thumb_func
 2925              		.type	lv_cpicker_signal, %function
 2926              	lv_cpicker_signal:
 2927              	.LFB59:
 777:..\..\..\lvgl\version_6.1.2\lvgl\src\lv_objx/lv_cpicker.c **** 
 778:..\..\..\lvgl\version_6.1.2\lvgl\src\lv_objx/lv_cpicker.c **** /**
 779:..\..\..\lvgl\version_6.1.2\lvgl\src\lv_objx/lv_cpicker.c ****  * Signal function of the color_picker
 780:..\..\..\lvgl\version_6.1.2\lvgl\src\lv_objx/lv_cpicker.c ****  * @param cpicker pointer to a color_picker object
 781:..\..\..\lvgl\version_6.1.2\lvgl\src\lv_objx/lv_cpicker.c ****  * @param sign a signal type from lv_signal_t enum
 782:..\..\..\lvgl\version_6.1.2\lvgl\src\lv_objx/lv_cpicker.c ****  * @param param pointer to a signal specific variable
 783:..\..\..\lvgl\version_6.1.2\lvgl\src\lv_objx/lv_cpicker.c ****  * @return LV_RES_OK: the object is not deleted in the function; LV_RES_INV: the object is deleted
 784:..\..\..\lvgl\version_6.1.2\lvgl\src\lv_objx/lv_cpicker.c ****  */
 785:..\..\..\lvgl\version_6.1.2\lvgl\src\lv_objx/lv_cpicker.c **** static lv_res_t lv_cpicker_signal(lv_obj_t * cpicker, lv_signal_t sign, void * param)
 786:..\..\..\lvgl\version_6.1.2\lvgl\src\lv_objx/lv_cpicker.c **** {
 2928              		.loc 3 786 0
 2929              		.cfi_startproc
 2930              		@ args = 0, pretend = 0, frame = 72
 2931              		@ frame_needed = 1, uses_anonymous_args = 0
 2932 0000 90B5     		push	{r4, r7, lr}
 2933              		.cfi_def_cfa_offset 12
 2934              		.cfi_offset 4, -12
 2935              		.cfi_offset 7, -8
 2936              		.cfi_offset 14, -4
 2937 0002 93B0     		sub	sp, sp, #76
 2938              		.cfi_def_cfa_offset 88
 2939 0004 00AF     		add	r7, sp, #0
 2940              		.cfi_def_cfa_register 7
 2941 0006 F860     		str	r0, [r7, #12]
 2942 0008 0B46     		mov	r3, r1
 2943 000a 7A60     		str	r2, [r7, #4]
 2944 000c FB72     		strb	r3, [r7, #11]
 787:..\..\..\lvgl\version_6.1.2\lvgl\src\lv_objx/lv_cpicker.c ****     /* Include the ancient signal function */
 788:..\..\..\lvgl\version_6.1.2\lvgl\src\lv_objx/lv_cpicker.c ****     lv_res_t res = ancestor_signal(cpicker, sign, param);
 2945              		.loc 3 788 0
 2946 000e AD4B     		ldr	r3, .L180
ARM GAS  C:\Users\tmj32\AppData\Local\Temp\cc11CUDk.s 			page 76


 2947 0010 1B68     		ldr	r3, [r3]
 2948 0012 F97A     		ldrb	r1, [r7, #11]	@ zero_extendqisi2
 2949 0014 7A68     		ldr	r2, [r7, #4]
 2950 0016 F868     		ldr	r0, [r7, #12]
 2951 0018 9847     		blx	r3
 2952 001a 0346     		mov	r3, r0
 2953 001c 87F84730 		strb	r3, [r7, #71]
 789:..\..\..\lvgl\version_6.1.2\lvgl\src\lv_objx/lv_cpicker.c ****     if(res != LV_RES_OK) return res;
 2954              		.loc 3 789 0
 2955 0020 97F84730 		ldrb	r3, [r7, #71]	@ zero_extendqisi2
 2956 0024 012B     		cmp	r3, #1
 2957 0026 02D0     		beq	.L128
 2958              		.loc 3 789 0 is_stmt 0 discriminator 1
 2959 0028 97F84730 		ldrb	r3, [r7, #71]	@ zero_extendqisi2
 2960 002c EAE2     		b	.L129
 2961              	.L128:
 790:..\..\..\lvgl\version_6.1.2\lvgl\src\lv_objx/lv_cpicker.c ****     if(sign == LV_SIGNAL_GET_TYPE) return lv_obj_handle_get_type_signal(param, LV_OBJX_NAME);
 2962              		.loc 3 790 0 is_stmt 1
 2963 002e FB7A     		ldrb	r3, [r7, #11]	@ zero_extendqisi2
 2964 0030 072B     		cmp	r3, #7
 2965 0032 05D1     		bne	.L130
 2966              		.loc 3 790 0 is_stmt 0 discriminator 1
 2967 0034 A449     		ldr	r1, .L180+4
 2968 0036 7868     		ldr	r0, [r7, #4]
 2969 0038 FFF7FEFF 		bl	lv_obj_handle_get_type_signal
 2970 003c 0346     		mov	r3, r0
 2971 003e E1E2     		b	.L129
 2972              	.L130:
 791:..\..\..\lvgl\version_6.1.2\lvgl\src\lv_objx/lv_cpicker.c **** 
 792:..\..\..\lvgl\version_6.1.2\lvgl\src\lv_objx/lv_cpicker.c ****     lv_cpicker_ext_t * ext = lv_obj_get_ext_attr(cpicker);
 2973              		.loc 3 792 0 is_stmt 1
 2974 0040 F868     		ldr	r0, [r7, #12]
 2975 0042 FFF7FEFF 		bl	lv_obj_get_ext_attr
 2976 0046 F863     		str	r0, [r7, #60]
 793:..\..\..\lvgl\version_6.1.2\lvgl\src\lv_objx/lv_cpicker.c **** 
 794:..\..\..\lvgl\version_6.1.2\lvgl\src\lv_objx/lv_cpicker.c ****     if(sign == LV_SIGNAL_CLEANUP) {
 2977              		.loc 3 794 0
 2978 0048 FB7A     		ldrb	r3, [r7, #11]	@ zero_extendqisi2
 2979 004a 002B     		cmp	r3, #0
 2980 004c 00F0D882 		beq	.L131
 795:..\..\..\lvgl\version_6.1.2\lvgl\src\lv_objx/lv_cpicker.c ****         /*Nothing to cleanup. (No dynamically allocated memory in 'ext')*/
 796:..\..\..\lvgl\version_6.1.2\lvgl\src\lv_objx/lv_cpicker.c ****     } else if(sign == LV_SIGNAL_REFR_EXT_DRAW_PAD) {
 2981              		.loc 3 796 0
 2982 0050 FB7A     		ldrb	r3, [r7, #11]	@ zero_extendqisi2
 2983 0052 062B     		cmp	r3, #6
 2984 0054 54D1     		bne	.L132
 2985              	.LBB10:
 797:..\..\..\lvgl\version_6.1.2\lvgl\src\lv_objx/lv_cpicker.c ****         const lv_style_t * style_indic = lv_cpicker_get_style(cpicker, LV_CPICKER_STYLE_INDICATOR);
 2986              		.loc 3 797 0
 2987 0056 0121     		movs	r1, #1
 2988 0058 F868     		ldr	r0, [r7, #12]
 2989 005a FFF7FEFF 		bl	lv_cpicker_get_style
 2990 005e 3862     		str	r0, [r7, #32]
 798:..\..\..\lvgl\version_6.1.2\lvgl\src\lv_objx/lv_cpicker.c ****         lv_coord_t indic_pad = LV_MATH_MAX(style_indic->body.padding.left, style_indic->body.paddin
 2991              		.loc 3 798 0
 2992 0060 3B6A     		ldr	r3, [r7, #32]
 2993 0062 B3F92620 		ldrsh	r2, [r3, #38]
ARM GAS  C:\Users\tmj32\AppData\Local\Temp\cc11CUDk.s 			page 77


 2994 0066 3B6A     		ldr	r3, [r7, #32]
 2995 0068 B3F92430 		ldrsh	r3, [r3, #36]
 2996 006c 9342     		cmp	r3, r2
 2997 006e B8BF     		it	lt
 2998 0070 1346     		movlt	r3, r2
 2999 0072 A7F84430 		strh	r3, [r7, #68]	@ movhi
 799:..\..\..\lvgl\version_6.1.2\lvgl\src\lv_objx/lv_cpicker.c ****         indic_pad = LV_MATH_MAX(indic_pad, style_indic->body.padding.top);
 3000              		.loc 3 799 0
 3001 0076 3B6A     		ldr	r3, [r7, #32]
 3002 0078 B3F92020 		ldrsh	r2, [r3, #32]
 3003 007c B7F94430 		ldrsh	r3, [r7, #68]
 3004 0080 9342     		cmp	r3, r2
 3005 0082 B8BF     		it	lt
 3006 0084 1346     		movlt	r3, r2
 3007 0086 A7F84430 		strh	r3, [r7, #68]	@ movhi
 800:..\..\..\lvgl\version_6.1.2\lvgl\src\lv_objx/lv_cpicker.c ****         indic_pad = LV_MATH_MAX(indic_pad, style_indic->body.padding.bottom);
 3008              		.loc 3 800 0
 3009 008a 3B6A     		ldr	r3, [r7, #32]
 3010 008c B3F92220 		ldrsh	r2, [r3, #34]
 3011 0090 B7F94430 		ldrsh	r3, [r7, #68]
 3012 0094 9342     		cmp	r3, r2
 3013 0096 B8BF     		it	lt
 3014 0098 1346     		movlt	r3, r2
 3015 009a A7F84430 		strh	r3, [r7, #68]	@ movhi
 801:..\..\..\lvgl\version_6.1.2\lvgl\src\lv_objx/lv_cpicker.c **** 
 802:..\..\..\lvgl\version_6.1.2\lvgl\src\lv_objx/lv_cpicker.c ****         if(ext->type == LV_CPICKER_TYPE_RECT) indic_pad += LV_MATH_MAX(indic_pad, lv_obj_get_height
 3016              		.loc 3 802 0
 3017 009e FB6B     		ldr	r3, [r7, #60]
 3018 00a0 1B7F     		ldrb	r3, [r3, #28]	@ zero_extendqisi2
 3019 00a2 03F00803 		and	r3, r3, #8
 3020 00a6 DBB2     		uxtb	r3, r3
 3021 00a8 002B     		cmp	r3, #0
 3022 00aa 1DD1     		bne	.L133
 3023              		.loc 3 802 0 is_stmt 0 discriminator 1
 3024 00ac F868     		ldr	r0, [r7, #12]
 3025 00ae FFF7FEFF 		bl	lv_obj_get_height
 3026 00b2 0346     		mov	r3, r0
 3027 00b4 DA0F     		lsrs	r2, r3, #31
 3028 00b6 1344     		add	r3, r3, r2
 3029 00b8 5B10     		asrs	r3, r3, #1
 3030 00ba 1BB2     		sxth	r3, r3
 3031 00bc B7F94420 		ldrsh	r2, [r7, #68]
 3032 00c0 9A42     		cmp	r2, r3
 3033 00c2 02DD     		ble	.L134
 3034              		.loc 3 802 0 discriminator 2
 3035 00c4 B7F94430 		ldrsh	r3, [r7, #68]
 3036 00c8 07E0     		b	.L135
 3037              	.L134:
 3038              		.loc 3 802 0 discriminator 3
 3039 00ca F868     		ldr	r0, [r7, #12]
 3040 00cc FFF7FEFF 		bl	lv_obj_get_height
 3041 00d0 0346     		mov	r3, r0
 3042 00d2 DA0F     		lsrs	r2, r3, #31
 3043 00d4 1344     		add	r3, r3, r2
 3044 00d6 5B10     		asrs	r3, r3, #1
 3045 00d8 1BB2     		sxth	r3, r3
 3046              	.L135:
ARM GAS  C:\Users\tmj32\AppData\Local\Temp\cc11CUDk.s 			page 78


 3047              		.loc 3 802 0 discriminator 5
 3048 00da 9AB2     		uxth	r2, r3
 3049 00dc B7F84430 		ldrh	r3, [r7, #68]
 3050 00e0 1344     		add	r3, r3, r2
 3051 00e2 9BB2     		uxth	r3, r3
 3052 00e4 A7F84430 		strh	r3, [r7, #68]	@ movhi
 3053              	.L133:
 803:..\..\..\lvgl\version_6.1.2\lvgl\src\lv_objx/lv_cpicker.c **** 
 804:..\..\..\lvgl\version_6.1.2\lvgl\src\lv_objx/lv_cpicker.c ****         cpicker->ext_draw_pad = LV_MATH_MAX(cpicker->ext_draw_pad, indic_pad);
 3054              		.loc 3 804 0 is_stmt 1
 3055 00e8 FB68     		ldr	r3, [r7, #12]
 3056 00ea B3F93020 		ldrsh	r2, [r3, #48]
 3057 00ee B7F94430 		ldrsh	r3, [r7, #68]
 3058 00f2 9342     		cmp	r3, r2
 3059 00f4 B8BF     		it	lt
 3060 00f6 1346     		movlt	r3, r2
 3061 00f8 1AB2     		sxth	r2, r3
 3062 00fa FB68     		ldr	r3, [r7, #12]
 3063 00fc 1A86     		strh	r2, [r3, #48]	@ movhi
 3064              	.LBE10:
 3065 00fe 7FE2     		b	.L131
 3066              	.L132:
 805:..\..\..\lvgl\version_6.1.2\lvgl\src\lv_objx/lv_cpicker.c ****     } else if(sign == LV_SIGNAL_CORD_CHG) {
 3067              		.loc 3 805 0
 3068 0100 FB7A     		ldrb	r3, [r7, #11]	@ zero_extendqisi2
 3069 0102 022B     		cmp	r3, #2
 3070 0104 1DD1     		bne	.L136
 806:..\..\..\lvgl\version_6.1.2\lvgl\src\lv_objx/lv_cpicker.c ****         /*Refresh extended draw area to make knob visible*/
 807:..\..\..\lvgl\version_6.1.2\lvgl\src\lv_objx/lv_cpicker.c ****         if(lv_obj_get_width(cpicker) != lv_area_get_width(param) ||
 3071              		.loc 3 807 0
 3072 0106 F868     		ldr	r0, [r7, #12]
 3073 0108 FFF7FEFF 		bl	lv_obj_get_width
 3074 010c 0346     		mov	r3, r0
 3075 010e 1C46     		mov	r4, r3
 3076 0110 7868     		ldr	r0, [r7, #4]
 3077 0112 FFF7FEFF 		bl	lv_area_get_width
 3078 0116 0346     		mov	r3, r0
 3079 0118 9C42     		cmp	r4, r3
 3080 011a 0BD1     		bne	.L137
 808:..\..\..\lvgl\version_6.1.2\lvgl\src\lv_objx/lv_cpicker.c ****            lv_obj_get_height(cpicker) != lv_area_get_height(param)) {
 3081              		.loc 3 808 0 discriminator 1
 3082 011c F868     		ldr	r0, [r7, #12]
 3083 011e FFF7FEFF 		bl	lv_obj_get_height
 3084 0122 0346     		mov	r3, r0
 3085 0124 1C46     		mov	r4, r3
 3086 0126 7868     		ldr	r0, [r7, #4]
 3087 0128 FFF7FEFF 		bl	lv_area_get_height
 3088 012c 0346     		mov	r3, r0
 807:..\..\..\lvgl\version_6.1.2\lvgl\src\lv_objx/lv_cpicker.c ****            lv_obj_get_height(cpicker) != lv_area_get_height(param)) {
 3089              		.loc 3 807 0 discriminator 1
 3090 012e 9C42     		cmp	r4, r3
 3091 0130 00F06682 		beq	.L131
 3092              	.L137:
 809:..\..\..\lvgl\version_6.1.2\lvgl\src\lv_objx/lv_cpicker.c ****             lv_obj_refresh_ext_draw_pad(cpicker);
 3093              		.loc 3 809 0
 3094 0134 F868     		ldr	r0, [r7, #12]
 3095 0136 FFF7FEFF 		bl	lv_obj_refresh_ext_draw_pad
ARM GAS  C:\Users\tmj32\AppData\Local\Temp\cc11CUDk.s 			page 79


 810:..\..\..\lvgl\version_6.1.2\lvgl\src\lv_objx/lv_cpicker.c ****             refr_indic_pos(cpicker);
 3096              		.loc 3 810 0
 3097 013a F868     		ldr	r0, [r7, #12]
 3098 013c FFF7FEFF 		bl	refr_indic_pos
 3099 0140 5EE2     		b	.L131
 3100              	.L136:
 811:..\..\..\lvgl\version_6.1.2\lvgl\src\lv_objx/lv_cpicker.c ****         }
 812:..\..\..\lvgl\version_6.1.2\lvgl\src\lv_objx/lv_cpicker.c ****     }  else if(sign == LV_SIGNAL_STYLE_CHG) {
 3101              		.loc 3 812 0
 3102 0142 FB7A     		ldrb	r3, [r7, #11]	@ zero_extendqisi2
 3103 0144 042B     		cmp	r3, #4
 3104 0146 06D1     		bne	.L139
 813:..\..\..\lvgl\version_6.1.2\lvgl\src\lv_objx/lv_cpicker.c ****         /*Refresh extended draw area to make knob visible*/
 814:..\..\..\lvgl\version_6.1.2\lvgl\src\lv_objx/lv_cpicker.c ****         lv_obj_refresh_ext_draw_pad(cpicker);
 3105              		.loc 3 814 0
 3106 0148 F868     		ldr	r0, [r7, #12]
 3107 014a FFF7FEFF 		bl	lv_obj_refresh_ext_draw_pad
 815:..\..\..\lvgl\version_6.1.2\lvgl\src\lv_objx/lv_cpicker.c ****         refr_indic_pos(cpicker);
 3108              		.loc 3 815 0
 3109 014e F868     		ldr	r0, [r7, #12]
 3110 0150 FFF7FEFF 		bl	refr_indic_pos
 3111 0154 54E2     		b	.L131
 3112              	.L139:
 816:..\..\..\lvgl\version_6.1.2\lvgl\src\lv_objx/lv_cpicker.c ****     }
 817:..\..\..\lvgl\version_6.1.2\lvgl\src\lv_objx/lv_cpicker.c ****     else if(sign == LV_SIGNAL_CONTROL) {
 3113              		.loc 3 817 0
 3114 0156 FB7A     		ldrb	r3, [r7, #11]	@ zero_extendqisi2
 3115 0158 122B     		cmp	r3, #18
 3116 015a 40F0BB80 		bne	.L140
 3117              	.LBB11:
 818:..\..\..\lvgl\version_6.1.2\lvgl\src\lv_objx/lv_cpicker.c ****         uint32_t c = *((uint32_t *)param); /*uint32_t because can be UTF-8*/
 3118              		.loc 3 818 0
 3119 015e 7B68     		ldr	r3, [r7, #4]
 3120 0160 1B68     		ldr	r3, [r3]
 3121 0162 BB63     		str	r3, [r7, #56]
 819:..\..\..\lvgl\version_6.1.2\lvgl\src\lv_objx/lv_cpicker.c ****         if(c == LV_KEY_RIGHT || c == LV_KEY_UP) {
 3122              		.loc 3 819 0
 3123 0164 BB6B     		ldr	r3, [r7, #56]
 3124 0166 132B     		cmp	r3, #19
 3125 0168 02D0     		beq	.L141
 3126              		.loc 3 819 0 is_stmt 0 discriminator 1
 3127 016a BB6B     		ldr	r3, [r7, #56]
 3128 016c 112B     		cmp	r3, #17
 3129 016e 57D1     		bne	.L142
 3130              	.L141:
 3131              	.LBB12:
 820:..\..\..\lvgl\version_6.1.2\lvgl\src\lv_objx/lv_cpicker.c ****             lv_color_hsv_t hsv_cur;
 821:..\..\..\lvgl\version_6.1.2\lvgl\src\lv_objx/lv_cpicker.c ****             hsv_cur = ext->hsv;
 3132              		.loc 3 821 0 is_stmt 1
 3133 0170 FB6B     		ldr	r3, [r7, #60]
 3134 0172 1B68     		ldr	r3, [r3]
 3135 0174 FB61     		str	r3, [r7, #28]
 822:..\..\..\lvgl\version_6.1.2\lvgl\src\lv_objx/lv_cpicker.c **** 
 823:..\..\..\lvgl\version_6.1.2\lvgl\src\lv_objx/lv_cpicker.c ****             switch(ext->color_mode) {
 3136              		.loc 3 823 0
 3137 0176 FB6B     		ldr	r3, [r7, #60]
 3138 0178 1B7F     		ldrb	r3, [r3, #28]
ARM GAS  C:\Users\tmj32\AppData\Local\Temp\cc11CUDk.s 			page 80


 3139 017a C3F30103 		ubfx	r3, r3, #0, #2
 3140 017e DBB2     		uxtb	r3, r3
 3141 0180 012B     		cmp	r3, #1
 3142 0182 15D0     		beq	.L144
 3143 0184 022B     		cmp	r3, #2
 3144 0186 23D0     		beq	.L145
 3145 0188 002B     		cmp	r3, #0
 3146 018a 31D1     		bne	.L143
 824:..\..\..\lvgl\version_6.1.2\lvgl\src\lv_objx/lv_cpicker.c ****             case LV_CPICKER_COLOR_MODE_HUE:
 825:..\..\..\lvgl\version_6.1.2\lvgl\src\lv_objx/lv_cpicker.c ****                 hsv_cur.h = (ext->hsv.h + 1) % 360;
 3147              		.loc 3 825 0
 3148 018c FB6B     		ldr	r3, [r7, #60]
 3149 018e 1B88     		ldrh	r3, [r3]
 3150 0190 0133     		adds	r3, r3, #1
 3151 0192 4E4A     		ldr	r2, .L180+8
 3152 0194 83FB0212 		smull	r1, r2, r3, r2
 3153 0198 1A44     		add	r2, r2, r3
 3154 019a 1112     		asrs	r1, r2, #8
 3155 019c DA17     		asrs	r2, r3, #31
 3156 019e 8A1A     		subs	r2, r1, r2
 3157 01a0 4FF4B471 		mov	r1, #360
 3158 01a4 01FB02F2 		mul	r2, r1, r2
 3159 01a8 9A1A     		subs	r2, r3, r2
 3160 01aa 93B2     		uxth	r3, r2
 3161 01ac BB83     		strh	r3, [r7, #28]	@ movhi
 826:..\..\..\lvgl\version_6.1.2\lvgl\src\lv_objx/lv_cpicker.c ****                 break;
 3162              		.loc 3 826 0
 3163 01ae 1FE0     		b	.L143
 3164              	.L144:
 827:..\..\..\lvgl\version_6.1.2\lvgl\src\lv_objx/lv_cpicker.c ****             case LV_CPICKER_COLOR_MODE_SATURATION:
 828:..\..\..\lvgl\version_6.1.2\lvgl\src\lv_objx/lv_cpicker.c ****                 hsv_cur.s = (ext->hsv.s + 1) % 100;
 3165              		.loc 3 828 0
 3166 01b0 FB6B     		ldr	r3, [r7, #60]
 3167 01b2 9B78     		ldrb	r3, [r3, #2]	@ zero_extendqisi2
 3168 01b4 0133     		adds	r3, r3, #1
 3169 01b6 464A     		ldr	r2, .L180+12
 3170 01b8 82FB0312 		smull	r1, r2, r2, r3
 3171 01bc 5111     		asrs	r1, r2, #5
 3172 01be DA17     		asrs	r2, r3, #31
 3173 01c0 8A1A     		subs	r2, r1, r2
 3174 01c2 6421     		movs	r1, #100
 3175 01c4 01FB02F2 		mul	r2, r1, r2
 3176 01c8 9A1A     		subs	r2, r3, r2
 3177 01ca D3B2     		uxtb	r3, r2
 3178 01cc BB77     		strb	r3, [r7, #30]
 829:..\..\..\lvgl\version_6.1.2\lvgl\src\lv_objx/lv_cpicker.c ****                 break;
 3179              		.loc 3 829 0
 3180 01ce 0FE0     		b	.L143
 3181              	.L145:
 830:..\..\..\lvgl\version_6.1.2\lvgl\src\lv_objx/lv_cpicker.c ****             case LV_CPICKER_COLOR_MODE_VALUE:
 831:..\..\..\lvgl\version_6.1.2\lvgl\src\lv_objx/lv_cpicker.c ****                 hsv_cur.v = (ext->hsv.v + 1) % 100;
 3182              		.loc 3 831 0
 3183 01d0 FB6B     		ldr	r3, [r7, #60]
 3184 01d2 DB78     		ldrb	r3, [r3, #3]	@ zero_extendqisi2
 3185 01d4 0133     		adds	r3, r3, #1
 3186 01d6 3E4A     		ldr	r2, .L180+12
 3187 01d8 82FB0312 		smull	r1, r2, r2, r3
ARM GAS  C:\Users\tmj32\AppData\Local\Temp\cc11CUDk.s 			page 81


 3188 01dc 5111     		asrs	r1, r2, #5
 3189 01de DA17     		asrs	r2, r3, #31
 3190 01e0 8A1A     		subs	r2, r1, r2
 3191 01e2 6421     		movs	r1, #100
 3192 01e4 01FB02F2 		mul	r2, r1, r2
 3193 01e8 9A1A     		subs	r2, r3, r2
 3194 01ea D3B2     		uxtb	r3, r2
 3195 01ec FB77     		strb	r3, [r7, #31]
 832:..\..\..\lvgl\version_6.1.2\lvgl\src\lv_objx/lv_cpicker.c ****                 break;
 3196              		.loc 3 832 0
 3197 01ee 00BF     		nop
 3198              	.L143:
 833:..\..\..\lvgl\version_6.1.2\lvgl\src\lv_objx/lv_cpicker.c ****             }
 834:..\..\..\lvgl\version_6.1.2\lvgl\src\lv_objx/lv_cpicker.c **** 
 835:..\..\..\lvgl\version_6.1.2\lvgl\src\lv_objx/lv_cpicker.c ****             if (lv_cpicker_set_hsv(cpicker, hsv_cur)) {
 3199              		.loc 3 835 0
 3200 01f0 F969     		ldr	r1, [r7, #28]
 3201 01f2 F868     		ldr	r0, [r7, #12]
 3202 01f4 FFF7FEFF 		bl	lv_cpicker_set_hsv
 3203 01f8 0346     		mov	r3, r0
 3204 01fa 002B     		cmp	r3, #0
 3205 01fc 00F0FF81 		beq	.L179
 836:..\..\..\lvgl\version_6.1.2\lvgl\src\lv_objx/lv_cpicker.c ****                 res = lv_event_send(cpicker, LV_EVENT_VALUE_CHANGED, NULL);
 3206              		.loc 3 836 0
 3207 0200 0022     		movs	r2, #0
 3208 0202 0E21     		movs	r1, #14
 3209 0204 F868     		ldr	r0, [r7, #12]
 3210 0206 FFF7FEFF 		bl	lv_event_send
 3211 020a 0346     		mov	r3, r0
 3212 020c 87F84730 		strb	r3, [r7, #71]
 837:..\..\..\lvgl\version_6.1.2\lvgl\src\lv_objx/lv_cpicker.c ****                 if(res != LV_RES_OK) return res;
 3213              		.loc 3 837 0
 3214 0210 97F84730 		ldrb	r3, [r7, #71]	@ zero_extendqisi2
 3215 0214 012B     		cmp	r3, #1
 3216 0216 00F0F281 		beq	.L179
 3217              		.loc 3 837 0 is_stmt 0 discriminator 1
 3218 021a 97F84730 		ldrb	r3, [r7, #71]	@ zero_extendqisi2
 3219 021e F1E1     		b	.L129
 3220              	.L142:
 3221              	.LBE12:
 838:..\..\..\lvgl\version_6.1.2\lvgl\src\lv_objx/lv_cpicker.c ****             }
 839:..\..\..\lvgl\version_6.1.2\lvgl\src\lv_objx/lv_cpicker.c ****         }
 840:..\..\..\lvgl\version_6.1.2\lvgl\src\lv_objx/lv_cpicker.c ****         else if(c == LV_KEY_LEFT || c == LV_KEY_DOWN)  {
 3222              		.loc 3 840 0 is_stmt 1
 3223 0220 BB6B     		ldr	r3, [r7, #56]
 3224 0222 142B     		cmp	r3, #20
 3225 0224 03D0     		beq	.L149
 3226              		.loc 3 840 0 is_stmt 0 discriminator 1
 3227 0226 BB6B     		ldr	r3, [r7, #56]
 3228 0228 122B     		cmp	r3, #18
 3229 022a 40F0E981 		bne	.L131
 3230              	.L149:
 3231              	.LBB13:
 841:..\..\..\lvgl\version_6.1.2\lvgl\src\lv_objx/lv_cpicker.c ****             lv_color_hsv_t hsv_cur;
 842:..\..\..\lvgl\version_6.1.2\lvgl\src\lv_objx/lv_cpicker.c ****             hsv_cur = ext->hsv;
 3232              		.loc 3 842 0 is_stmt 1
 3233 022e FB6B     		ldr	r3, [r7, #60]
ARM GAS  C:\Users\tmj32\AppData\Local\Temp\cc11CUDk.s 			page 82


 3234 0230 1B68     		ldr	r3, [r3]
 3235 0232 BB61     		str	r3, [r7, #24]
 843:..\..\..\lvgl\version_6.1.2\lvgl\src\lv_objx/lv_cpicker.c **** 
 844:..\..\..\lvgl\version_6.1.2\lvgl\src\lv_objx/lv_cpicker.c ****             switch(ext->color_mode) {
 3236              		.loc 3 844 0
 3237 0234 FB6B     		ldr	r3, [r7, #60]
 3238 0236 1B7F     		ldrb	r3, [r3, #28]
 3239 0238 C3F30103 		ubfx	r3, r3, #0, #2
 3240 023c DBB2     		uxtb	r3, r3
 3241 023e 012B     		cmp	r3, #1
 3242 0240 10D0     		beq	.L151
 3243 0242 022B     		cmp	r3, #2
 3244 0244 1AD0     		beq	.L152
 3245 0246 002B     		cmp	r3, #0
 3246 0248 24D1     		bne	.L150
 845:..\..\..\lvgl\version_6.1.2\lvgl\src\lv_objx/lv_cpicker.c ****             case LV_CPICKER_COLOR_MODE_HUE:
 846:..\..\..\lvgl\version_6.1.2\lvgl\src\lv_objx/lv_cpicker.c ****                 hsv_cur.h = ext->hsv.h > 0?(ext->hsv.h - 1) : 360;
 3247              		.loc 3 846 0
 3248 024a FB6B     		ldr	r3, [r7, #60]
 3249 024c 1B88     		ldrh	r3, [r3]
 3250 024e 002B     		cmp	r3, #0
 3251 0250 04D0     		beq	.L154
 3252              		.loc 3 846 0 is_stmt 0 discriminator 1
 3253 0252 FB6B     		ldr	r3, [r7, #60]
 3254 0254 1B88     		ldrh	r3, [r3]
 3255 0256 013B     		subs	r3, r3, #1
 3256 0258 9BB2     		uxth	r3, r3
 3257 025a 01E0     		b	.L155
 3258              	.L154:
 3259              		.loc 3 846 0 discriminator 2
 3260 025c 4FF4B473 		mov	r3, #360
 3261              	.L155:
 3262              		.loc 3 846 0 discriminator 4
 3263 0260 3B83     		strh	r3, [r7, #24]	@ movhi
 847:..\..\..\lvgl\version_6.1.2\lvgl\src\lv_objx/lv_cpicker.c ****                 break;
 3264              		.loc 3 847 0 is_stmt 1 discriminator 4
 3265 0262 17E0     		b	.L150
 3266              	.L151:
 848:..\..\..\lvgl\version_6.1.2\lvgl\src\lv_objx/lv_cpicker.c ****             case LV_CPICKER_COLOR_MODE_SATURATION:
 849:..\..\..\lvgl\version_6.1.2\lvgl\src\lv_objx/lv_cpicker.c ****                 hsv_cur.s = ext->hsv.s > 0?(ext->hsv.s - 1) : 100;
 3267              		.loc 3 849 0
 3268 0264 FB6B     		ldr	r3, [r7, #60]
 3269 0266 9B78     		ldrb	r3, [r3, #2]	@ zero_extendqisi2
 3270 0268 002B     		cmp	r3, #0
 3271 026a 04D0     		beq	.L156
 3272              		.loc 3 849 0 is_stmt 0 discriminator 1
 3273 026c FB6B     		ldr	r3, [r7, #60]
 3274 026e 9B78     		ldrb	r3, [r3, #2]	@ zero_extendqisi2
 3275 0270 013B     		subs	r3, r3, #1
 3276 0272 DBB2     		uxtb	r3, r3
 3277 0274 00E0     		b	.L157
 3278              	.L156:
 3279              		.loc 3 849 0 discriminator 2
 3280 0276 6423     		movs	r3, #100
 3281              	.L157:
 3282              		.loc 3 849 0 discriminator 4
 3283 0278 BB76     		strb	r3, [r7, #26]
ARM GAS  C:\Users\tmj32\AppData\Local\Temp\cc11CUDk.s 			page 83


 850:..\..\..\lvgl\version_6.1.2\lvgl\src\lv_objx/lv_cpicker.c ****                 break;
 3284              		.loc 3 850 0 is_stmt 1 discriminator 4
 3285 027a 0BE0     		b	.L150
 3286              	.L152:
 851:..\..\..\lvgl\version_6.1.2\lvgl\src\lv_objx/lv_cpicker.c ****             case LV_CPICKER_COLOR_MODE_VALUE:
 852:..\..\..\lvgl\version_6.1.2\lvgl\src\lv_objx/lv_cpicker.c ****                 hsv_cur.v = ext->hsv.v > 0?(ext->hsv.v - 1) : 100;
 3287              		.loc 3 852 0
 3288 027c FB6B     		ldr	r3, [r7, #60]
 3289 027e DB78     		ldrb	r3, [r3, #3]	@ zero_extendqisi2
 3290 0280 002B     		cmp	r3, #0
 3291 0282 04D0     		beq	.L158
 3292              		.loc 3 852 0 is_stmt 0 discriminator 1
 3293 0284 FB6B     		ldr	r3, [r7, #60]
 3294 0286 DB78     		ldrb	r3, [r3, #3]	@ zero_extendqisi2
 3295 0288 013B     		subs	r3, r3, #1
 3296 028a DBB2     		uxtb	r3, r3
 3297 028c 00E0     		b	.L159
 3298              	.L158:
 3299              		.loc 3 852 0 discriminator 2
 3300 028e 6423     		movs	r3, #100
 3301              	.L159:
 3302              		.loc 3 852 0 discriminator 4
 3303 0290 FB76     		strb	r3, [r7, #27]
 853:..\..\..\lvgl\version_6.1.2\lvgl\src\lv_objx/lv_cpicker.c ****                 break;
 3304              		.loc 3 853 0 is_stmt 1 discriminator 4
 3305 0292 00BF     		nop
 3306              	.L150:
 854:..\..\..\lvgl\version_6.1.2\lvgl\src\lv_objx/lv_cpicker.c ****             }
 855:..\..\..\lvgl\version_6.1.2\lvgl\src\lv_objx/lv_cpicker.c **** 
 856:..\..\..\lvgl\version_6.1.2\lvgl\src\lv_objx/lv_cpicker.c ****             if (lv_cpicker_set_hsv(cpicker, hsv_cur)) {
 3307              		.loc 3 856 0
 3308 0294 B969     		ldr	r1, [r7, #24]
 3309 0296 F868     		ldr	r0, [r7, #12]
 3310 0298 FFF7FEFF 		bl	lv_cpicker_set_hsv
 3311 029c 0346     		mov	r3, r0
 3312 029e 002B     		cmp	r3, #0
 3313 02a0 00F0AE81 		beq	.L131
 857:..\..\..\lvgl\version_6.1.2\lvgl\src\lv_objx/lv_cpicker.c ****                 res = lv_event_send(cpicker, LV_EVENT_VALUE_CHANGED, NULL);
 3314              		.loc 3 857 0
 3315 02a4 0022     		movs	r2, #0
 3316 02a6 0E21     		movs	r1, #14
 3317 02a8 F868     		ldr	r0, [r7, #12]
 3318 02aa FFF7FEFF 		bl	lv_event_send
 3319 02ae 0346     		mov	r3, r0
 3320 02b0 87F84730 		strb	r3, [r7, #71]
 858:..\..\..\lvgl\version_6.1.2\lvgl\src\lv_objx/lv_cpicker.c ****                 if(res != LV_RES_OK) return res;
 3321              		.loc 3 858 0
 3322 02b4 97F84730 		ldrb	r3, [r7, #71]	@ zero_extendqisi2
 3323 02b8 012B     		cmp	r3, #1
 3324 02ba 00F0A181 		beq	.L131
 3325              		.loc 3 858 0 is_stmt 0 discriminator 1
 3326 02be 97F84730 		ldrb	r3, [r7, #71]	@ zero_extendqisi2
 3327 02c2 9FE1     		b	.L129
 3328              	.L181:
 3329              		.align	2
 3330              	.L180:
 3331 02c4 00000000 		.word	ancestor_signal
ARM GAS  C:\Users\tmj32\AppData\Local\Temp\cc11CUDk.s 			page 84


 3332 02c8 04000000 		.word	.LC1
 3333 02cc B7600BB6 		.word	-1240768329
 3334 02d0 1F85EB51 		.word	1374389535
 3335              	.L140:
 3336              	.LBE13:
 3337              	.LBE11:
 859:..\..\..\lvgl\version_6.1.2\lvgl\src\lv_objx/lv_cpicker.c ****             }
 860:..\..\..\lvgl\version_6.1.2\lvgl\src\lv_objx/lv_cpicker.c ****         }
 861:..\..\..\lvgl\version_6.1.2\lvgl\src\lv_objx/lv_cpicker.c ****     }
 862:..\..\..\lvgl\version_6.1.2\lvgl\src\lv_objx/lv_cpicker.c ****     else if(sign == LV_SIGNAL_PRESSED) {
 3338              		.loc 3 862 0 is_stmt 1
 3339 02d4 FB7A     		ldrb	r3, [r7, #11]	@ zero_extendqisi2
 3340 02d6 082B     		cmp	r3, #8
 3341 02d8 1BD1     		bne	.L161
 863:..\..\..\lvgl\version_6.1.2\lvgl\src\lv_objx/lv_cpicker.c ****         ext->last_change_time = lv_tick_get();
 3342              		.loc 3 863 0
 3343 02da FFF7FEFF 		bl	lv_tick_get
 3344 02de 0246     		mov	r2, r0
 3345 02e0 FB6B     		ldr	r3, [r7, #60]
 3346 02e2 5A61     		str	r2, [r3, #20]
 864:..\..\..\lvgl\version_6.1.2\lvgl\src\lv_objx/lv_cpicker.c ****         lv_indev_get_point(lv_indev_get_act(), &ext->last_press_point);
 3347              		.loc 3 864 0
 3348 02e4 FFF7FEFF 		bl	lv_indev_get_act
 3349 02e8 0246     		mov	r2, r0
 3350 02ea FB6B     		ldr	r3, [r7, #60]
 3351 02ec 1833     		adds	r3, r3, #24
 3352 02ee 1946     		mov	r1, r3
 3353 02f0 1046     		mov	r0, r2
 3354 02f2 FFF7FEFF 		bl	lv_indev_get_point
 865:..\..\..\lvgl\version_6.1.2\lvgl\src\lv_objx/lv_cpicker.c ****         res = double_click_reset(cpicker);
 3355              		.loc 3 865 0
 3356 02f6 F868     		ldr	r0, [r7, #12]
 3357 02f8 FFF7FEFF 		bl	double_click_reset
 3358 02fc 0346     		mov	r3, r0
 3359 02fe 87F84730 		strb	r3, [r7, #71]
 866:..\..\..\lvgl\version_6.1.2\lvgl\src\lv_objx/lv_cpicker.c ****         if(res != LV_RES_OK) return res;
 3360              		.loc 3 866 0
 3361 0302 97F84730 		ldrb	r3, [r7, #71]	@ zero_extendqisi2
 3362 0306 012B     		cmp	r3, #1
 3363 0308 00F07A81 		beq	.L131
 3364              		.loc 3 866 0 is_stmt 0 discriminator 1
 3365 030c 97F84730 		ldrb	r3, [r7, #71]	@ zero_extendqisi2
 3366 0310 78E1     		b	.L129
 3367              	.L161:
 867:..\..\..\lvgl\version_6.1.2\lvgl\src\lv_objx/lv_cpicker.c ****     } else if(sign == LV_SIGNAL_PRESSING) {
 3368              		.loc 3 867 0 is_stmt 1
 3369 0312 FB7A     		ldrb	r3, [r7, #11]	@ zero_extendqisi2
 3370 0314 092B     		cmp	r3, #9
 3371 0316 40F07381 		bne	.L131
 3372              	.LBB14:
 868:..\..\..\lvgl\version_6.1.2\lvgl\src\lv_objx/lv_cpicker.c ****         lv_indev_t * indev = lv_indev_get_act();
 3373              		.loc 3 868 0
 3374 031a FFF7FEFF 		bl	lv_indev_get_act
 3375 031e 7863     		str	r0, [r7, #52]
 869:..\..\..\lvgl\version_6.1.2\lvgl\src\lv_objx/lv_cpicker.c ****         if(indev == NULL) return res;
 3376              		.loc 3 869 0
 3377 0320 7B6B     		ldr	r3, [r7, #52]
ARM GAS  C:\Users\tmj32\AppData\Local\Temp\cc11CUDk.s 			page 85


 3378 0322 002B     		cmp	r3, #0
 3379 0324 02D1     		bne	.L162
 3380              		.loc 3 869 0 is_stmt 0 discriminator 1
 3381 0326 97F84730 		ldrb	r3, [r7, #71]	@ zero_extendqisi2
 3382 032a 6BE1     		b	.L129
 3383              	.L162:
 870:..\..\..\lvgl\version_6.1.2\lvgl\src\lv_objx/lv_cpicker.c **** 
 871:..\..\..\lvgl\version_6.1.2\lvgl\src\lv_objx/lv_cpicker.c ****         lv_point_t p;
 872:..\..\..\lvgl\version_6.1.2\lvgl\src\lv_objx/lv_cpicker.c ****         lv_indev_get_point(indev, &p);
 3384              		.loc 3 872 0 is_stmt 1
 3385 032c 07F11403 		add	r3, r7, #20
 3386 0330 1946     		mov	r1, r3
 3387 0332 786B     		ldr	r0, [r7, #52]
 3388 0334 FFF7FEFF 		bl	lv_indev_get_point
 873:..\..\..\lvgl\version_6.1.2\lvgl\src\lv_objx/lv_cpicker.c **** 
 874:..\..\..\lvgl\version_6.1.2\lvgl\src\lv_objx/lv_cpicker.c ****         if((LV_MATH_ABS(p.x - ext->last_press_point.x) > indev->driver.drag_limit / 2) ||
 3389              		.loc 3 874 0
 3390 0338 B7F91430 		ldrsh	r3, [r7, #20]
 3391 033c 1A46     		mov	r2, r3
 3392 033e FB6B     		ldr	r3, [r7, #60]
 3393 0340 B3F91830 		ldrsh	r3, [r3, #24]
 3394 0344 D31A     		subs	r3, r2, r3
 3395 0346 002B     		cmp	r3, #0
 3396 0348 B8BF     		it	lt
 3397 034a 5B42     		rsblt	r3, r3, #0
 3398 034c 7A6B     		ldr	r2, [r7, #52]
 3399 034e 127D     		ldrb	r2, [r2, #20]	@ zero_extendqisi2
 3400 0350 5208     		lsrs	r2, r2, #1
 3401 0352 D2B2     		uxtb	r2, r2
 3402 0354 9342     		cmp	r3, r2
 3403 0356 0FDC     		bgt	.L164
 875:..\..\..\lvgl\version_6.1.2\lvgl\src\lv_objx/lv_cpicker.c ****            (LV_MATH_ABS(p.y - ext->last_press_point.y) > indev->driver.drag_limit / 2)) {
 3404              		.loc 3 875 0 discriminator 1
 3405 0358 B7F91630 		ldrsh	r3, [r7, #22]
 3406 035c 1A46     		mov	r2, r3
 3407 035e FB6B     		ldr	r3, [r7, #60]
 3408 0360 B3F91A30 		ldrsh	r3, [r3, #26]
 3409 0364 D31A     		subs	r3, r2, r3
 3410 0366 002B     		cmp	r3, #0
 3411 0368 B8BF     		it	lt
 3412 036a 5B42     		rsblt	r3, r3, #0
 3413 036c 7A6B     		ldr	r2, [r7, #52]
 3414 036e 127D     		ldrb	r2, [r2, #20]	@ zero_extendqisi2
 3415 0370 5208     		lsrs	r2, r2, #1
 3416 0372 D2B2     		uxtb	r2, r2
 874:..\..\..\lvgl\version_6.1.2\lvgl\src\lv_objx/lv_cpicker.c ****            (LV_MATH_ABS(p.y - ext->last_press_point.y) > indev->driver.drag_limit / 2)) {
 3417              		.loc 3 874 0 discriminator 1
 3418 0374 9342     		cmp	r3, r2
 3419 0376 0CDD     		ble	.L165
 3420              	.L164:
 876:..\..\..\lvgl\version_6.1.2\lvgl\src\lv_objx/lv_cpicker.c ****             ext->last_change_time = lv_tick_get();
 3421              		.loc 3 876 0
 3422 0378 FFF7FEFF 		bl	lv_tick_get
 3423 037c 0246     		mov	r2, r0
 3424 037e FB6B     		ldr	r3, [r7, #60]
 3425 0380 5A61     		str	r2, [r3, #20]
 877:..\..\..\lvgl\version_6.1.2\lvgl\src\lv_objx/lv_cpicker.c ****             ext->last_press_point.x = p.x;
ARM GAS  C:\Users\tmj32\AppData\Local\Temp\cc11CUDk.s 			page 86


 3426              		.loc 3 877 0
 3427 0382 B7F91420 		ldrsh	r2, [r7, #20]
 3428 0386 FB6B     		ldr	r3, [r7, #60]
 3429 0388 1A83     		strh	r2, [r3, #24]	@ movhi
 878:..\..\..\lvgl\version_6.1.2\lvgl\src\lv_objx/lv_cpicker.c ****             ext->last_press_point.y = p.y;
 3430              		.loc 3 878 0
 3431 038a B7F91620 		ldrsh	r2, [r7, #22]
 3432 038e FB6B     		ldr	r3, [r7, #60]
 3433 0390 5A83     		strh	r2, [r3, #26]	@ movhi
 3434              	.L165:
 879:..\..\..\lvgl\version_6.1.2\lvgl\src\lv_objx/lv_cpicker.c ****         }
 880:..\..\..\lvgl\version_6.1.2\lvgl\src\lv_objx/lv_cpicker.c **** 
 881:..\..\..\lvgl\version_6.1.2\lvgl\src\lv_objx/lv_cpicker.c ****         p.x -= cpicker->coords.x1;
 3435              		.loc 3 881 0
 3436 0392 B7F91430 		ldrsh	r3, [r7, #20]
 3437 0396 9AB2     		uxth	r2, r3
 3438 0398 FB68     		ldr	r3, [r7, #12]
 3439 039a B3F91030 		ldrsh	r3, [r3, #16]
 3440 039e 9BB2     		uxth	r3, r3
 3441 03a0 D31A     		subs	r3, r2, r3
 3442 03a2 9BB2     		uxth	r3, r3
 3443 03a4 1BB2     		sxth	r3, r3
 3444 03a6 BB82     		strh	r3, [r7, #20]	@ movhi
 882:..\..\..\lvgl\version_6.1.2\lvgl\src\lv_objx/lv_cpicker.c ****         p.y -= cpicker->coords.y1;
 3445              		.loc 3 882 0
 3446 03a8 B7F91630 		ldrsh	r3, [r7, #22]
 3447 03ac 9AB2     		uxth	r2, r3
 3448 03ae FB68     		ldr	r3, [r7, #12]
 3449 03b0 B3F91230 		ldrsh	r3, [r3, #18]
 3450 03b4 9BB2     		uxth	r3, r3
 3451 03b6 D31A     		subs	r3, r2, r3
 3452 03b8 9BB2     		uxth	r3, r3
 3453 03ba 1BB2     		sxth	r3, r3
 3454 03bc FB82     		strh	r3, [r7, #22]	@ movhi
 883:..\..\..\lvgl\version_6.1.2\lvgl\src\lv_objx/lv_cpicker.c **** 
 884:..\..\..\lvgl\version_6.1.2\lvgl\src\lv_objx/lv_cpicker.c ****         /*Ignore pressing in the inner area*/
 885:..\..\..\lvgl\version_6.1.2\lvgl\src\lv_objx/lv_cpicker.c ****         uint16_t w = lv_obj_get_width(cpicker);
 3455              		.loc 3 885 0
 3456 03be F868     		ldr	r0, [r7, #12]
 3457 03c0 FFF7FEFF 		bl	lv_obj_get_width
 3458 03c4 0346     		mov	r3, r0
 3459 03c6 7B86     		strh	r3, [r7, #50]	@ movhi
 886:..\..\..\lvgl\version_6.1.2\lvgl\src\lv_objx/lv_cpicker.c **** 
 887:..\..\..\lvgl\version_6.1.2\lvgl\src\lv_objx/lv_cpicker.c ****         int16_t angle = 0;
 3460              		.loc 3 887 0
 3461 03c8 0023     		movs	r3, #0
 3462 03ca A7F84230 		strh	r3, [r7, #66]	@ movhi
 888:..\..\..\lvgl\version_6.1.2\lvgl\src\lv_objx/lv_cpicker.c **** 
 889:..\..\..\lvgl\version_6.1.2\lvgl\src\lv_objx/lv_cpicker.c ****         if(ext->type == LV_CPICKER_TYPE_RECT) {
 3463              		.loc 3 889 0
 3464 03ce FB6B     		ldr	r3, [r7, #60]
 3465 03d0 1B7F     		ldrb	r3, [r3, #28]	@ zero_extendqisi2
 3466 03d2 03F00803 		and	r3, r3, #8
 3467 03d6 DBB2     		uxtb	r3, r3
 3468 03d8 002B     		cmp	r3, #0
 3469 03da 3CD1     		bne	.L166
 3470              	.LBB15:
ARM GAS  C:\Users\tmj32\AppData\Local\Temp\cc11CUDk.s 			page 87


 890:..\..\..\lvgl\version_6.1.2\lvgl\src\lv_objx/lv_cpicker.c ****             /*If pressed long enough without change go to next color mode*/
 891:..\..\..\lvgl\version_6.1.2\lvgl\src\lv_objx/lv_cpicker.c ****             uint32_t diff = lv_tick_elaps(ext->last_change_time);
 3471              		.loc 3 891 0
 3472 03dc FB6B     		ldr	r3, [r7, #60]
 3473 03de 5B69     		ldr	r3, [r3, #20]
 3474 03e0 1846     		mov	r0, r3
 3475 03e2 FFF7FEFF 		bl	lv_tick_elaps
 3476 03e6 F862     		str	r0, [r7, #44]
 892:..\..\..\lvgl\version_6.1.2\lvgl\src\lv_objx/lv_cpicker.c ****             if(diff > (uint32_t)indev->driver.long_press_time * 2 && !ext->color_mode_fixed) {
 3477              		.loc 3 892 0
 3478 03e8 7B6B     		ldr	r3, [r7, #52]
 3479 03ea DB8A     		ldrh	r3, [r3, #22]
 3480 03ec 5A00     		lsls	r2, r3, #1
 3481 03ee FB6A     		ldr	r3, [r7, #44]
 3482 03f0 9A42     		cmp	r2, r3
 3483 03f2 12D2     		bcs	.L167
 3484              		.loc 3 892 0 is_stmt 0 discriminator 1
 3485 03f4 FB6B     		ldr	r3, [r7, #60]
 3486 03f6 1B7F     		ldrb	r3, [r3, #28]	@ zero_extendqisi2
 3487 03f8 03F00403 		and	r3, r3, #4
 3488 03fc DBB2     		uxtb	r3, r3
 3489 03fe 002B     		cmp	r3, #0
 3490 0400 0BD1     		bne	.L167
 893:..\..\..\lvgl\version_6.1.2\lvgl\src\lv_objx/lv_cpicker.c ****                 next_color_mode(cpicker);
 3491              		.loc 3 893 0 is_stmt 1
 3492 0402 F868     		ldr	r0, [r7, #12]
 3493 0404 FFF7FEFF 		bl	next_color_mode
 894:..\..\..\lvgl\version_6.1.2\lvgl\src\lv_objx/lv_cpicker.c ****                 lv_indev_wait_release(lv_indev_get_act());
 3494              		.loc 3 894 0
 3495 0408 FFF7FEFF 		bl	lv_indev_get_act
 3496 040c 0346     		mov	r3, r0
 3497 040e 1846     		mov	r0, r3
 3498 0410 FFF7FEFF 		bl	lv_indev_wait_release
 895:..\..\..\lvgl\version_6.1.2\lvgl\src\lv_objx/lv_cpicker.c ****                 return res;
 3499              		.loc 3 895 0
 3500 0414 97F84730 		ldrb	r3, [r7, #71]	@ zero_extendqisi2
 3501 0418 F4E0     		b	.L129
 3502              	.L167:
 896:..\..\..\lvgl\version_6.1.2\lvgl\src\lv_objx/lv_cpicker.c ****             }
 897:..\..\..\lvgl\version_6.1.2\lvgl\src\lv_objx/lv_cpicker.c **** 
 898:..\..\..\lvgl\version_6.1.2\lvgl\src\lv_objx/lv_cpicker.c ****             angle = (p.x * 360) / w;
 3503              		.loc 3 898 0
 3504 041a B7F91430 		ldrsh	r3, [r7, #20]
 3505 041e 1A46     		mov	r2, r3
 3506 0420 4FF4B473 		mov	r3, #360
 3507 0424 03FB02F2 		mul	r2, r3, r2
 3508 0428 7B8E     		ldrh	r3, [r7, #50]
 3509 042a 92FBF3F3 		sdiv	r3, r2, r3
 3510 042e A7F84230 		strh	r3, [r7, #66]	@ movhi
 899:..\..\..\lvgl\version_6.1.2\lvgl\src\lv_objx/lv_cpicker.c ****             if(angle < 0) angle = 0;
 3511              		.loc 3 899 0
 3512 0432 B7F94230 		ldrsh	r3, [r7, #66]
 3513 0436 002B     		cmp	r3, #0
 3514 0438 02DA     		bge	.L168
 3515              		.loc 3 899 0 is_stmt 0 discriminator 1
 3516 043a 0023     		movs	r3, #0
 3517 043c A7F84230 		strh	r3, [r7, #66]	@ movhi
ARM GAS  C:\Users\tmj32\AppData\Local\Temp\cc11CUDk.s 			page 88


 3518              	.L168:
 900:..\..\..\lvgl\version_6.1.2\lvgl\src\lv_objx/lv_cpicker.c ****             if(angle >= 360) angle = 359;
 3519              		.loc 3 900 0 is_stmt 1
 3520 0440 B7F94230 		ldrsh	r3, [r7, #66]
 3521 0444 B3F5B47F 		cmp	r3, #360
 3522 0448 C0F29380 		blt	.L170
 3523              		.loc 3 900 0 is_stmt 0 discriminator 1
 3524 044c 40F26713 		movw	r3, #359
 3525 0450 A7F84230 		strh	r3, [r7, #66]	@ movhi
 3526 0454 8DE0     		b	.L170
 3527              	.L166:
 3528              	.LBE15:
 901:..\..\..\lvgl\version_6.1.2\lvgl\src\lv_objx/lv_cpicker.c **** 
 902:..\..\..\lvgl\version_6.1.2\lvgl\src\lv_objx/lv_cpicker.c ****         } else if(ext->type == LV_CPICKER_TYPE_DISC) {
 3529              		.loc 3 902 0 is_stmt 1
 3530 0456 FB6B     		ldr	r3, [r7, #60]
 3531 0458 1B7F     		ldrb	r3, [r3, #28]	@ zero_extendqisi2
 3532 045a 03F00803 		and	r3, r3, #8
 3533 045e DBB2     		uxtb	r3, r3
 3534 0460 002B     		cmp	r3, #0
 3535 0462 00F08680 		beq	.L170
 3536              	.LBB16:
 903:..\..\..\lvgl\version_6.1.2\lvgl\src\lv_objx/lv_cpicker.c ****             const lv_style_t * style_main = lv_cpicker_get_style(cpicker, LV_CPICKER_STYLE_MAIN);
 3537              		.loc 3 903 0
 3538 0466 0021     		movs	r1, #0
 3539 0468 F868     		ldr	r0, [r7, #12]
 3540 046a FFF7FEFF 		bl	lv_cpicker_get_style
 3541 046e B862     		str	r0, [r7, #40]
 904:..\..\..\lvgl\version_6.1.2\lvgl\src\lv_objx/lv_cpicker.c ****             lv_coord_t r_in = w / 2;
 3542              		.loc 3 904 0
 3543 0470 7B8E     		ldrh	r3, [r7, #50]
 3544 0472 5B08     		lsrs	r3, r3, #1
 3545 0474 9BB2     		uxth	r3, r3
 3546 0476 A7F84030 		strh	r3, [r7, #64]	@ movhi
 905:..\..\..\lvgl\version_6.1.2\lvgl\src\lv_objx/lv_cpicker.c ****             p.x -= r_in;
 3547              		.loc 3 905 0
 3548 047a B7F91430 		ldrsh	r3, [r7, #20]
 3549 047e 9AB2     		uxth	r2, r3
 3550 0480 B7F84030 		ldrh	r3, [r7, #64]
 3551 0484 D31A     		subs	r3, r2, r3
 3552 0486 9BB2     		uxth	r3, r3
 3553 0488 1BB2     		sxth	r3, r3
 3554 048a BB82     		strh	r3, [r7, #20]	@ movhi
 906:..\..\..\lvgl\version_6.1.2\lvgl\src\lv_objx/lv_cpicker.c ****             p.y -= r_in;
 3555              		.loc 3 906 0
 3556 048c B7F91630 		ldrsh	r3, [r7, #22]
 3557 0490 9AB2     		uxth	r2, r3
 3558 0492 B7F84030 		ldrh	r3, [r7, #64]
 3559 0496 D31A     		subs	r3, r2, r3
 3560 0498 9BB2     		uxth	r3, r3
 3561 049a 1BB2     		sxth	r3, r3
 3562 049c FB82     		strh	r3, [r7, #22]	@ movhi
 907:..\..\..\lvgl\version_6.1.2\lvgl\src\lv_objx/lv_cpicker.c ****             r_in -= style_main->line.width;
 3563              		.loc 3 907 0
 3564 049e B7F84020 		ldrh	r2, [r7, #64]
 3565 04a2 BB6A     		ldr	r3, [r7, #40]
 3566 04a4 B3F94C30 		ldrsh	r3, [r3, #76]
ARM GAS  C:\Users\tmj32\AppData\Local\Temp\cc11CUDk.s 			page 89


 3567 04a8 9BB2     		uxth	r3, r3
 3568 04aa D31A     		subs	r3, r2, r3
 3569 04ac 9BB2     		uxth	r3, r3
 3570 04ae A7F84030 		strh	r3, [r7, #64]	@ movhi
 908:..\..\..\lvgl\version_6.1.2\lvgl\src\lv_objx/lv_cpicker.c **** 
 909:..\..\..\lvgl\version_6.1.2\lvgl\src\lv_objx/lv_cpicker.c ****             if(r_in > LV_DPI / 2) {
 3571              		.loc 3 909 0
 3572 04b2 B7F94030 		ldrsh	r3, [r7, #64]
 3573 04b6 4B2B     		cmp	r3, #75
 3574 04b8 10DD     		ble	.L171
 910:..\..\..\lvgl\version_6.1.2\lvgl\src\lv_objx/lv_cpicker.c ****             	r_in -= style_main->line.width; /* to let some sensitive space inside*/
 3575              		.loc 3 910 0
 3576 04ba B7F84020 		ldrh	r2, [r7, #64]
 3577 04be BB6A     		ldr	r3, [r7, #40]
 3578 04c0 B3F94C30 		ldrsh	r3, [r3, #76]
 3579 04c4 9BB2     		uxth	r3, r3
 3580 04c6 D31A     		subs	r3, r2, r3
 3581 04c8 9BB2     		uxth	r3, r3
 3582 04ca A7F84030 		strh	r3, [r7, #64]	@ movhi
 911:..\..\..\lvgl\version_6.1.2\lvgl\src\lv_objx/lv_cpicker.c **** 
 912:..\..\..\lvgl\version_6.1.2\lvgl\src\lv_objx/lv_cpicker.c ****             	if(r_in < LV_DPI / 2) r_in = LV_DPI / 2;
 3583              		.loc 3 912 0
 3584 04ce B7F94030 		ldrsh	r3, [r7, #64]
 3585 04d2 4A2B     		cmp	r3, #74
 3586 04d4 02DC     		bgt	.L171
 3587              		.loc 3 912 0 is_stmt 0 discriminator 1
 3588 04d6 4B23     		movs	r3, #75
 3589 04d8 A7F84030 		strh	r3, [r7, #64]	@ movhi
 3590              	.L171:
 913:..\..\..\lvgl\version_6.1.2\lvgl\src\lv_objx/lv_cpicker.c ****             }
 914:..\..\..\lvgl\version_6.1.2\lvgl\src\lv_objx/lv_cpicker.c **** 
 915:..\..\..\lvgl\version_6.1.2\lvgl\src\lv_objx/lv_cpicker.c ****             /*If the inner area is being pressed, go to the next color mode on long press*/
 916:..\..\..\lvgl\version_6.1.2\lvgl\src\lv_objx/lv_cpicker.c ****             if(p.x * p.x + p.y * p.y < r_in * r_in) {
 3591              		.loc 3 916 0 is_stmt 1
 3592 04dc B7F91430 		ldrsh	r3, [r7, #20]
 3593 04e0 B7F91420 		ldrsh	r2, [r7, #20]
 3594 04e4 02FB03F2 		mul	r2, r2, r3
 3595 04e8 B7F91630 		ldrsh	r3, [r7, #22]
 3596 04ec B7F91610 		ldrsh	r1, [r7, #22]
 3597 04f0 01FB03F3 		mul	r3, r1, r3
 3598 04f4 1A44     		add	r2, r2, r3
 3599 04f6 B7F94030 		ldrsh	r3, [r7, #64]
 3600 04fa B7F94010 		ldrsh	r1, [r7, #64]
 3601 04fe 01FB03F3 		mul	r3, r1, r3
 3602 0502 9A42     		cmp	r2, r3
 3603 0504 1EDA     		bge	.L172
 3604              	.LBB17:
 917:..\..\..\lvgl\version_6.1.2\lvgl\src\lv_objx/lv_cpicker.c ****                 uint32_t diff = lv_tick_elaps(ext->last_change_time);
 3605              		.loc 3 917 0
 3606 0506 FB6B     		ldr	r3, [r7, #60]
 3607 0508 5B69     		ldr	r3, [r3, #20]
 3608 050a 1846     		mov	r0, r3
 3609 050c FFF7FEFF 		bl	lv_tick_elaps
 3610 0510 7862     		str	r0, [r7, #36]
 918:..\..\..\lvgl\version_6.1.2\lvgl\src\lv_objx/lv_cpicker.c ****                 if(diff > indev->driver.long_press_time && !ext->color_mode_fixed) {
 3611              		.loc 3 918 0
 3612 0512 7B6B     		ldr	r3, [r7, #52]
ARM GAS  C:\Users\tmj32\AppData\Local\Temp\cc11CUDk.s 			page 90


 3613 0514 DB8A     		ldrh	r3, [r3, #22]
 3614 0516 1A46     		mov	r2, r3
 3615 0518 7B6A     		ldr	r3, [r7, #36]
 3616 051a 9A42     		cmp	r2, r3
 3617 051c 0FD2     		bcs	.L173
 3618              		.loc 3 918 0 is_stmt 0 discriminator 1
 3619 051e FB6B     		ldr	r3, [r7, #60]
 3620 0520 1B7F     		ldrb	r3, [r3, #28]	@ zero_extendqisi2
 3621 0522 03F00403 		and	r3, r3, #4
 3622 0526 DBB2     		uxtb	r3, r3
 3623 0528 002B     		cmp	r3, #0
 3624 052a 08D1     		bne	.L173
 919:..\..\..\lvgl\version_6.1.2\lvgl\src\lv_objx/lv_cpicker.c ****                     next_color_mode(cpicker);
 3625              		.loc 3 919 0 is_stmt 1
 3626 052c F868     		ldr	r0, [r7, #12]
 3627 052e FFF7FEFF 		bl	next_color_mode
 920:..\..\..\lvgl\version_6.1.2\lvgl\src\lv_objx/lv_cpicker.c ****                     lv_indev_wait_release(lv_indev_get_act());
 3628              		.loc 3 920 0
 3629 0532 FFF7FEFF 		bl	lv_indev_get_act
 3630 0536 0346     		mov	r3, r0
 3631 0538 1846     		mov	r0, r3
 3632 053a FFF7FEFF 		bl	lv_indev_wait_release
 3633              	.L173:
 921:..\..\..\lvgl\version_6.1.2\lvgl\src\lv_objx/lv_cpicker.c ****                 }
 922:..\..\..\lvgl\version_6.1.2\lvgl\src\lv_objx/lv_cpicker.c ****                 return res;
 3634              		.loc 3 922 0
 3635 053e 97F84730 		ldrb	r3, [r7, #71]	@ zero_extendqisi2
 3636 0542 5FE0     		b	.L129
 3637              	.L172:
 3638              	.LBE17:
 923:..\..\..\lvgl\version_6.1.2\lvgl\src\lv_objx/lv_cpicker.c ****             }
 924:..\..\..\lvgl\version_6.1.2\lvgl\src\lv_objx/lv_cpicker.c **** 
 925:..\..\..\lvgl\version_6.1.2\lvgl\src\lv_objx/lv_cpicker.c ****             angle = lv_atan2(p.x, p.y) % 360;
 3639              		.loc 3 925 0
 3640 0544 B7F91430 		ldrsh	r3, [r7, #20]
 3641 0548 1A46     		mov	r2, r3
 3642 054a B7F91630 		ldrsh	r3, [r7, #22]
 3643 054e 1946     		mov	r1, r3
 3644 0550 1046     		mov	r0, r2
 3645 0552 FFF7FEFF 		bl	lv_atan2
 3646 0556 0346     		mov	r3, r0
 3647 0558 DA08     		lsrs	r2, r3, #3
 3648 055a 2C49     		ldr	r1, .L182
 3649 055c A1FB0212 		umull	r1, r2, r1, r2
 3650 0560 9208     		lsrs	r2, r2, #2
 3651 0562 4FF4B471 		mov	r1, #360
 3652 0566 01FB02F2 		mul	r2, r1, r2
 3653 056a 9B1A     		subs	r3, r3, r2
 3654 056c 9BB2     		uxth	r3, r3
 3655 056e A7F84230 		strh	r3, [r7, #66]	@ movhi
 3656              	.L170:
 3657              	.LBE16:
 926:..\..\..\lvgl\version_6.1.2\lvgl\src\lv_objx/lv_cpicker.c ****         }
 927:..\..\..\lvgl\version_6.1.2\lvgl\src\lv_objx/lv_cpicker.c **** 
 928:..\..\..\lvgl\version_6.1.2\lvgl\src\lv_objx/lv_cpicker.c ****         lv_color_hsv_t hsv_cur;
 929:..\..\..\lvgl\version_6.1.2\lvgl\src\lv_objx/lv_cpicker.c ****         hsv_cur = ext->hsv;
 3658              		.loc 3 929 0
ARM GAS  C:\Users\tmj32\AppData\Local\Temp\cc11CUDk.s 			page 91


 3659 0572 FB6B     		ldr	r3, [r7, #60]
 3660 0574 1B68     		ldr	r3, [r3]
 3661 0576 3B61     		str	r3, [r7, #16]
 930:..\..\..\lvgl\version_6.1.2\lvgl\src\lv_objx/lv_cpicker.c **** 
 931:..\..\..\lvgl\version_6.1.2\lvgl\src\lv_objx/lv_cpicker.c ****         switch(ext->color_mode) {
 3662              		.loc 3 931 0
 3663 0578 FB6B     		ldr	r3, [r7, #60]
 3664 057a 1B7F     		ldrb	r3, [r3, #28]
 3665 057c C3F30103 		ubfx	r3, r3, #0, #2
 3666 0580 DBB2     		uxtb	r3, r3
 3667 0582 012B     		cmp	r3, #1
 3668 0584 07D0     		beq	.L175
 3669 0586 022B     		cmp	r3, #2
 3670 0588 14D0     		beq	.L176
 3671 058a 002B     		cmp	r3, #0
 3672 058c 21D1     		bne	.L174
 932:..\..\..\lvgl\version_6.1.2\lvgl\src\lv_objx/lv_cpicker.c ****         case LV_CPICKER_COLOR_MODE_HUE:
 933:..\..\..\lvgl\version_6.1.2\lvgl\src\lv_objx/lv_cpicker.c ****             hsv_cur.h = angle;
 3673              		.loc 3 933 0
 3674 058e B7F84230 		ldrh	r3, [r7, #66]
 3675 0592 3B82     		strh	r3, [r7, #16]	@ movhi
 934:..\..\..\lvgl\version_6.1.2\lvgl\src\lv_objx/lv_cpicker.c ****             break;
 3676              		.loc 3 934 0
 3677 0594 1DE0     		b	.L174
 3678              	.L175:
 935:..\..\..\lvgl\version_6.1.2\lvgl\src\lv_objx/lv_cpicker.c ****         case LV_CPICKER_COLOR_MODE_SATURATION:
 936:..\..\..\lvgl\version_6.1.2\lvgl\src\lv_objx/lv_cpicker.c ****             hsv_cur.s = (angle * 100) / 360;
 3679              		.loc 3 936 0
 3680 0596 B7F94230 		ldrsh	r3, [r7, #66]
 3681 059a 6422     		movs	r2, #100
 3682 059c 02FB03F3 		mul	r3, r2, r3
 3683 05a0 1B4A     		ldr	r2, .L182+4
 3684 05a2 82FB0312 		smull	r1, r2, r2, r3
 3685 05a6 1A44     		add	r2, r2, r3
 3686 05a8 1212     		asrs	r2, r2, #8
 3687 05aa DB17     		asrs	r3, r3, #31
 3688 05ac D31A     		subs	r3, r2, r3
 3689 05ae DBB2     		uxtb	r3, r3
 3690 05b0 BB74     		strb	r3, [r7, #18]
 937:..\..\..\lvgl\version_6.1.2\lvgl\src\lv_objx/lv_cpicker.c ****             break;
 3691              		.loc 3 937 0
 3692 05b2 0EE0     		b	.L174
 3693              	.L176:
 938:..\..\..\lvgl\version_6.1.2\lvgl\src\lv_objx/lv_cpicker.c ****         case LV_CPICKER_COLOR_MODE_VALUE:
 939:..\..\..\lvgl\version_6.1.2\lvgl\src\lv_objx/lv_cpicker.c ****             hsv_cur.v = (angle * 100) / 360;
 3694              		.loc 3 939 0
 3695 05b4 B7F94230 		ldrsh	r3, [r7, #66]
 3696 05b8 6422     		movs	r2, #100
 3697 05ba 02FB03F3 		mul	r3, r2, r3
 3698 05be 144A     		ldr	r2, .L182+4
 3699 05c0 82FB0312 		smull	r1, r2, r2, r3
 3700 05c4 1A44     		add	r2, r2, r3
 3701 05c6 1212     		asrs	r2, r2, #8
 3702 05c8 DB17     		asrs	r3, r3, #31
 3703 05ca D31A     		subs	r3, r2, r3
 3704 05cc DBB2     		uxtb	r3, r3
 3705 05ce FB74     		strb	r3, [r7, #19]
ARM GAS  C:\Users\tmj32\AppData\Local\Temp\cc11CUDk.s 			page 92


 940:..\..\..\lvgl\version_6.1.2\lvgl\src\lv_objx/lv_cpicker.c ****             break;
 3706              		.loc 3 940 0
 3707 05d0 00BF     		nop
 3708              	.L174:
 941:..\..\..\lvgl\version_6.1.2\lvgl\src\lv_objx/lv_cpicker.c ****         }
 942:..\..\..\lvgl\version_6.1.2\lvgl\src\lv_objx/lv_cpicker.c **** 
 943:..\..\..\lvgl\version_6.1.2\lvgl\src\lv_objx/lv_cpicker.c ****         if (lv_cpicker_set_hsv(cpicker, hsv_cur)) {
 3709              		.loc 3 943 0
 3710 05d2 3969     		ldr	r1, [r7, #16]
 3711 05d4 F868     		ldr	r0, [r7, #12]
 3712 05d6 FFF7FEFF 		bl	lv_cpicker_set_hsv
 3713 05da 0346     		mov	r3, r0
 3714 05dc 002B     		cmp	r3, #0
 3715 05de 0FD0     		beq	.L131
 944:..\..\..\lvgl\version_6.1.2\lvgl\src\lv_objx/lv_cpicker.c ****             res = lv_event_send(cpicker, LV_EVENT_VALUE_CHANGED, NULL);
 3716              		.loc 3 944 0
 3717 05e0 0022     		movs	r2, #0
 3718 05e2 0E21     		movs	r1, #14
 3719 05e4 F868     		ldr	r0, [r7, #12]
 3720 05e6 FFF7FEFF 		bl	lv_event_send
 3721 05ea 0346     		mov	r3, r0
 3722 05ec 87F84730 		strb	r3, [r7, #71]
 945:..\..\..\lvgl\version_6.1.2\lvgl\src\lv_objx/lv_cpicker.c ****             if(res != LV_RES_OK) return res;
 3723              		.loc 3 945 0
 3724 05f0 97F84730 		ldrb	r3, [r7, #71]	@ zero_extendqisi2
 3725 05f4 012B     		cmp	r3, #1
 3726 05f6 03D0     		beq	.L131
 3727              		.loc 3 945 0 is_stmt 0 discriminator 1
 3728 05f8 97F84730 		ldrb	r3, [r7, #71]	@ zero_extendqisi2
 3729 05fc 02E0     		b	.L129
 3730              	.L179:
 3731              	.LBE14:
 3732              	.LBB18:
 819:..\..\..\lvgl\version_6.1.2\lvgl\src\lv_objx/lv_cpicker.c ****             lv_color_hsv_t hsv_cur;
 3733              		.loc 3 819 0 is_stmt 1
 3734 05fe 00BF     		nop
 3735              	.L131:
 3736              	.LBE18:
 946:..\..\..\lvgl\version_6.1.2\lvgl\src\lv_objx/lv_cpicker.c ****         }
 947:..\..\..\lvgl\version_6.1.2\lvgl\src\lv_objx/lv_cpicker.c ****     }
 948:..\..\..\lvgl\version_6.1.2\lvgl\src\lv_objx/lv_cpicker.c **** 
 949:..\..\..\lvgl\version_6.1.2\lvgl\src\lv_objx/lv_cpicker.c ****     return res;
 3737              		.loc 3 949 0
 3738 0600 97F84730 		ldrb	r3, [r7, #71]	@ zero_extendqisi2
 3739              	.L129:
 950:..\..\..\lvgl\version_6.1.2\lvgl\src\lv_objx/lv_cpicker.c **** }
 3740              		.loc 3 950 0
 3741 0604 1846     		mov	r0, r3
 3742 0606 4C37     		adds	r7, r7, #76
 3743              		.cfi_def_cfa_offset 12
 3744 0608 BD46     		mov	sp, r7
 3745              		.cfi_def_cfa_register 13
 3746              		@ sp needed
 3747 060a 90BD     		pop	{r4, r7, pc}
 3748              	.L183:
 3749              		.align	2
 3750              	.L182:
ARM GAS  C:\Users\tmj32\AppData\Local\Temp\cc11CUDk.s 			page 93


 3751 060c 176CC116 		.word	381774871
 3752 0610 B7600BB6 		.word	-1240768329
 3753              		.cfi_endproc
 3754              	.LFE59:
 3755              		.size	lv_cpicker_signal, .-lv_cpicker_signal
 3756              		.section	.text.next_color_mode,"ax",%progbits
 3757              		.align	2
 3758              		.thumb
 3759              		.thumb_func
 3760              		.type	next_color_mode, %function
 3761              	next_color_mode:
 3762              	.LFB60:
 951:..\..\..\lvgl\version_6.1.2\lvgl\src\lv_objx/lv_cpicker.c **** 
 952:..\..\..\lvgl\version_6.1.2\lvgl\src\lv_objx/lv_cpicker.c **** static void next_color_mode(lv_obj_t * cpicker)
 953:..\..\..\lvgl\version_6.1.2\lvgl\src\lv_objx/lv_cpicker.c **** {
 3763              		.loc 3 953 0
 3764              		.cfi_startproc
 3765              		@ args = 0, pretend = 0, frame = 16
 3766              		@ frame_needed = 1, uses_anonymous_args = 0
 3767 0000 80B5     		push	{r7, lr}
 3768              		.cfi_def_cfa_offset 8
 3769              		.cfi_offset 7, -8
 3770              		.cfi_offset 14, -4
 3771 0002 84B0     		sub	sp, sp, #16
 3772              		.cfi_def_cfa_offset 24
 3773 0004 00AF     		add	r7, sp, #0
 3774              		.cfi_def_cfa_register 7
 3775 0006 7860     		str	r0, [r7, #4]
 954:..\..\..\lvgl\version_6.1.2\lvgl\src\lv_objx/lv_cpicker.c ****     lv_cpicker_ext_t * ext = lv_obj_get_ext_attr(cpicker);
 3776              		.loc 3 954 0
 3777 0008 7868     		ldr	r0, [r7, #4]
 3778 000a FFF7FEFF 		bl	lv_obj_get_ext_attr
 3779 000e F860     		str	r0, [r7, #12]
 955:..\..\..\lvgl\version_6.1.2\lvgl\src\lv_objx/lv_cpicker.c ****     ext->color_mode = (ext->color_mode + 1) % 3;
 3780              		.loc 3 955 0
 3781 0010 FB68     		ldr	r3, [r7, #12]
 3782 0012 1B7F     		ldrb	r3, [r3, #28]
 3783 0014 C3F30103 		ubfx	r3, r3, #0, #2
 3784 0018 DBB2     		uxtb	r3, r3
 3785 001a 5A1C     		adds	r2, r3, #1
 3786 001c 0D4B     		ldr	r3, .L185
 3787 001e 83FB0231 		smull	r3, r1, r3, r2
 3788 0022 D317     		asrs	r3, r2, #31
 3789 0024 C91A     		subs	r1, r1, r3
 3790 0026 0B46     		mov	r3, r1
 3791 0028 5B00     		lsls	r3, r3, #1
 3792 002a 0B44     		add	r3, r3, r1
 3793 002c D11A     		subs	r1, r2, r3
 3794 002e CBB2     		uxtb	r3, r1
 3795 0030 03F00303 		and	r3, r3, #3
 3796 0034 D9B2     		uxtb	r1, r3
 3797 0036 FA68     		ldr	r2, [r7, #12]
 3798 0038 137F     		ldrb	r3, [r2, #28]
 3799 003a 61F30103 		bfi	r3, r1, #0, #2
 3800 003e 1377     		strb	r3, [r2, #28]
 956:..\..\..\lvgl\version_6.1.2\lvgl\src\lv_objx/lv_cpicker.c ****     refr_indic_pos(cpicker);
 3801              		.loc 3 956 0
ARM GAS  C:\Users\tmj32\AppData\Local\Temp\cc11CUDk.s 			page 94


 3802 0040 7868     		ldr	r0, [r7, #4]
 3803 0042 FFF7FEFF 		bl	refr_indic_pos
 957:..\..\..\lvgl\version_6.1.2\lvgl\src\lv_objx/lv_cpicker.c ****     lv_obj_invalidate(cpicker);
 3804              		.loc 3 957 0
 3805 0046 7868     		ldr	r0, [r7, #4]
 3806 0048 FFF7FEFF 		bl	lv_obj_invalidate
 958:..\..\..\lvgl\version_6.1.2\lvgl\src\lv_objx/lv_cpicker.c **** }
 3807              		.loc 3 958 0
 3808 004c 00BF     		nop
 3809 004e 1037     		adds	r7, r7, #16
 3810              		.cfi_def_cfa_offset 8
 3811 0050 BD46     		mov	sp, r7
 3812              		.cfi_def_cfa_register 13
 3813              		@ sp needed
 3814 0052 80BD     		pop	{r7, pc}
 3815              	.L186:
 3816              		.align	2
 3817              	.L185:
 3818 0054 56555555 		.word	1431655766
 3819              		.cfi_endproc
 3820              	.LFE60:
 3821              		.size	next_color_mode, .-next_color_mode
 3822              		.section	.text.refr_indic_pos,"ax",%progbits
 3823              		.align	2
 3824              		.thumb
 3825              		.thumb_func
 3826              		.type	refr_indic_pos, %function
 3827              	refr_indic_pos:
 3828              	.LFB61:
 959:..\..\..\lvgl\version_6.1.2\lvgl\src\lv_objx/lv_cpicker.c **** 
 960:..\..\..\lvgl\version_6.1.2\lvgl\src\lv_objx/lv_cpicker.c **** static void refr_indic_pos(lv_obj_t * cpicker)
 961:..\..\..\lvgl\version_6.1.2\lvgl\src\lv_objx/lv_cpicker.c **** {
 3829              		.loc 3 961 0
 3830              		.cfi_startproc
 3831              		@ args = 0, pretend = 0, frame = 32
 3832              		@ frame_needed = 1, uses_anonymous_args = 0
 3833 0000 90B5     		push	{r4, r7, lr}
 3834              		.cfi_def_cfa_offset 12
 3835              		.cfi_offset 4, -12
 3836              		.cfi_offset 7, -8
 3837              		.cfi_offset 14, -4
 3838 0002 89B0     		sub	sp, sp, #36
 3839              		.cfi_def_cfa_offset 48
 3840 0004 00AF     		add	r7, sp, #0
 3841              		.cfi_def_cfa_register 7
 3842 0006 7860     		str	r0, [r7, #4]
 962:..\..\..\lvgl\version_6.1.2\lvgl\src\lv_objx/lv_cpicker.c ****     invalidate_indic(cpicker);
 3843              		.loc 3 962 0
 3844 0008 7868     		ldr	r0, [r7, #4]
 3845 000a FFF7FEFF 		bl	invalidate_indic
 963:..\..\..\lvgl\version_6.1.2\lvgl\src\lv_objx/lv_cpicker.c **** 
 964:..\..\..\lvgl\version_6.1.2\lvgl\src\lv_objx/lv_cpicker.c ****     lv_cpicker_ext_t * ext = lv_obj_get_ext_attr(cpicker);
 3846              		.loc 3 964 0
 3847 000e 7868     		ldr	r0, [r7, #4]
 3848 0010 FFF7FEFF 		bl	lv_obj_get_ext_attr
 3849 0014 B861     		str	r0, [r7, #24]
 965:..\..\..\lvgl\version_6.1.2\lvgl\src\lv_objx/lv_cpicker.c ****     lv_coord_t w = lv_obj_get_width(cpicker);
ARM GAS  C:\Users\tmj32\AppData\Local\Temp\cc11CUDk.s 			page 95


 3850              		.loc 3 965 0
 3851 0016 7868     		ldr	r0, [r7, #4]
 3852 0018 FFF7FEFF 		bl	lv_obj_get_width
 3853 001c 0346     		mov	r3, r0
 3854 001e FB82     		strh	r3, [r7, #22]	@ movhi
 966:..\..\..\lvgl\version_6.1.2\lvgl\src\lv_objx/lv_cpicker.c ****     lv_coord_t h = lv_obj_get_height(cpicker);
 3855              		.loc 3 966 0
 3856 0020 7868     		ldr	r0, [r7, #4]
 3857 0022 FFF7FEFF 		bl	lv_obj_get_height
 3858 0026 0346     		mov	r3, r0
 3859 0028 BB82     		strh	r3, [r7, #20]	@ movhi
 967:..\..\..\lvgl\version_6.1.2\lvgl\src\lv_objx/lv_cpicker.c **** 
 968:..\..\..\lvgl\version_6.1.2\lvgl\src\lv_objx/lv_cpicker.c ****     if(ext->type == LV_CPICKER_TYPE_RECT) {
 3860              		.loc 3 968 0
 3861 002a BB69     		ldr	r3, [r7, #24]
 3862 002c 1B7F     		ldrb	r3, [r3, #28]	@ zero_extendqisi2
 3863 002e 03F00803 		and	r3, r3, #8
 3864 0032 DBB2     		uxtb	r3, r3
 3865 0034 002B     		cmp	r3, #0
 3866 0036 52D1     		bne	.L188
 3867              	.LBB19:
 969:..\..\..\lvgl\version_6.1.2\lvgl\src\lv_objx/lv_cpicker.c ****         lv_coord_t ind_pos = 0;
 3868              		.loc 3 969 0
 3869 0038 0023     		movs	r3, #0
 3870 003a FB83     		strh	r3, [r7, #30]	@ movhi
 970:..\..\..\lvgl\version_6.1.2\lvgl\src\lv_objx/lv_cpicker.c ****         switch(ext->color_mode) {
 3871              		.loc 3 970 0
 3872 003c BB69     		ldr	r3, [r7, #24]
 3873 003e 1B7F     		ldrb	r3, [r3, #28]
 3874 0040 C3F30103 		ubfx	r3, r3, #0, #2
 3875 0044 DBB2     		uxtb	r3, r3
 3876 0046 012B     		cmp	r3, #1
 3877 0048 17D0     		beq	.L190
 3878 004a 022B     		cmp	r3, #2
 3879 004c 28D0     		beq	.L191
 3880 004e 002B     		cmp	r3, #0
 3881 0050 39D1     		bne	.L189
 971:..\..\..\lvgl\version_6.1.2\lvgl\src\lv_objx/lv_cpicker.c ****         case LV_CPICKER_COLOR_MODE_HUE:
 972:..\..\..\lvgl\version_6.1.2\lvgl\src\lv_objx/lv_cpicker.c ****             ind_pos += (ext->hsv.h * w) / 360;
 3882              		.loc 3 972 0
 3883 0052 BB69     		ldr	r3, [r7, #24]
 3884 0054 1B88     		ldrh	r3, [r3]
 3885 0056 1A46     		mov	r2, r3
 3886 0058 B7F91630 		ldrsh	r3, [r7, #22]
 3887 005c 03FB02F3 		mul	r3, r3, r2
 3888 0060 534A     		ldr	r2, .L194
 3889 0062 82FB0312 		smull	r1, r2, r2, r3
 3890 0066 1A44     		add	r2, r2, r3
 3891 0068 1212     		asrs	r2, r2, #8
 3892 006a DB17     		asrs	r3, r3, #31
 3893 006c D31A     		subs	r3, r2, r3
 3894 006e 9AB2     		uxth	r2, r3
 3895 0070 FB8B     		ldrh	r3, [r7, #30]
 3896 0072 1344     		add	r3, r3, r2
 3897 0074 9BB2     		uxth	r3, r3
 3898 0076 FB83     		strh	r3, [r7, #30]	@ movhi
 973:..\..\..\lvgl\version_6.1.2\lvgl\src\lv_objx/lv_cpicker.c ****             break;
ARM GAS  C:\Users\tmj32\AppData\Local\Temp\cc11CUDk.s 			page 96


 3899              		.loc 3 973 0
 3900 0078 25E0     		b	.L189
 3901              	.L190:
 974:..\..\..\lvgl\version_6.1.2\lvgl\src\lv_objx/lv_cpicker.c ****         case LV_CPICKER_COLOR_MODE_SATURATION:
 975:..\..\..\lvgl\version_6.1.2\lvgl\src\lv_objx/lv_cpicker.c ****             ind_pos += (ext->hsv.s * w) / 100;
 3902              		.loc 3 975 0
 3903 007a BB69     		ldr	r3, [r7, #24]
 3904 007c 9B78     		ldrb	r3, [r3, #2]	@ zero_extendqisi2
 3905 007e 1A46     		mov	r2, r3
 3906 0080 B7F91630 		ldrsh	r3, [r7, #22]
 3907 0084 03FB02F3 		mul	r3, r3, r2
 3908 0088 4A4A     		ldr	r2, .L194+4
 3909 008a 82FB0312 		smull	r1, r2, r2, r3
 3910 008e 5211     		asrs	r2, r2, #5
 3911 0090 DB17     		asrs	r3, r3, #31
 3912 0092 D31A     		subs	r3, r2, r3
 3913 0094 9AB2     		uxth	r2, r3
 3914 0096 FB8B     		ldrh	r3, [r7, #30]
 3915 0098 1344     		add	r3, r3, r2
 3916 009a 9BB2     		uxth	r3, r3
 3917 009c FB83     		strh	r3, [r7, #30]	@ movhi
 976:..\..\..\lvgl\version_6.1.2\lvgl\src\lv_objx/lv_cpicker.c ****             break;
 3918              		.loc 3 976 0
 3919 009e 12E0     		b	.L189
 3920              	.L191:
 977:..\..\..\lvgl\version_6.1.2\lvgl\src\lv_objx/lv_cpicker.c ****         case LV_CPICKER_COLOR_MODE_VALUE:
 978:..\..\..\lvgl\version_6.1.2\lvgl\src\lv_objx/lv_cpicker.c ****             ind_pos += (ext->hsv.v * w) / 100;
 3921              		.loc 3 978 0
 3922 00a0 BB69     		ldr	r3, [r7, #24]
 3923 00a2 DB78     		ldrb	r3, [r3, #3]	@ zero_extendqisi2
 3924 00a4 1A46     		mov	r2, r3
 3925 00a6 B7F91630 		ldrsh	r3, [r7, #22]
 3926 00aa 03FB02F3 		mul	r3, r3, r2
 3927 00ae 414A     		ldr	r2, .L194+4
 3928 00b0 82FB0312 		smull	r1, r2, r2, r3
 3929 00b4 5211     		asrs	r2, r2, #5
 3930 00b6 DB17     		asrs	r3, r3, #31
 3931 00b8 D31A     		subs	r3, r2, r3
 3932 00ba 9AB2     		uxth	r2, r3
 3933 00bc FB8B     		ldrh	r3, [r7, #30]
 3934 00be 1344     		add	r3, r3, r2
 3935 00c0 9BB2     		uxth	r3, r3
 3936 00c2 FB83     		strh	r3, [r7, #30]	@ movhi
 979:..\..\..\lvgl\version_6.1.2\lvgl\src\lv_objx/lv_cpicker.c ****             break;
 3937              		.loc 3 979 0
 3938 00c4 00BF     		nop
 3939              	.L189:
 980:..\..\..\lvgl\version_6.1.2\lvgl\src\lv_objx/lv_cpicker.c ****         }
 981:..\..\..\lvgl\version_6.1.2\lvgl\src\lv_objx/lv_cpicker.c **** 
 982:..\..\..\lvgl\version_6.1.2\lvgl\src\lv_objx/lv_cpicker.c ****         ext->indic.pos.x = ind_pos;
 3940              		.loc 3 982 0
 3941 00c6 BB69     		ldr	r3, [r7, #24]
 3942 00c8 FA8B     		ldrh	r2, [r7, #30]	@ movhi
 3943 00ca 1A81     		strh	r2, [r3, #8]	@ movhi
 983:..\..\..\lvgl\version_6.1.2\lvgl\src\lv_objx/lv_cpicker.c ****         ext->indic.pos.y = h / 2;
 3944              		.loc 3 983 0
 3945 00cc B7F91430 		ldrsh	r3, [r7, #20]
ARM GAS  C:\Users\tmj32\AppData\Local\Temp\cc11CUDk.s 			page 97


 3946 00d0 DA0F     		lsrs	r2, r3, #31
 3947 00d2 1344     		add	r3, r3, r2
 3948 00d4 5B10     		asrs	r3, r3, #1
 3949 00d6 1AB2     		sxth	r2, r3
 3950 00d8 BB69     		ldr	r3, [r7, #24]
 3951 00da 5A81     		strh	r2, [r3, #10]	@ movhi
 3952              	.LBE19:
 3953 00dc 60E0     		b	.L193
 3954              	.L188:
 984:..\..\..\lvgl\version_6.1.2\lvgl\src\lv_objx/lv_cpicker.c ****     } else if(ext->type == LV_CPICKER_TYPE_DISC) {
 3955              		.loc 3 984 0
 3956 00de BB69     		ldr	r3, [r7, #24]
 3957 00e0 1B7F     		ldrb	r3, [r3, #28]	@ zero_extendqisi2
 3958 00e2 03F00803 		and	r3, r3, #8
 3959 00e6 DBB2     		uxtb	r3, r3
 3960 00e8 002B     		cmp	r3, #0
 3961 00ea 59D0     		beq	.L193
 3962              	.LBB20:
 985:..\..\..\lvgl\version_6.1.2\lvgl\src\lv_objx/lv_cpicker.c ****         const lv_style_t * style_main = lv_cpicker_get_style(cpicker, LV_CPICKER_STYLE_MAIN);
 3963              		.loc 3 985 0
 3964 00ec 0021     		movs	r1, #0
 3965 00ee 7868     		ldr	r0, [r7, #4]
 3966 00f0 FFF7FEFF 		bl	lv_cpicker_get_style
 3967 00f4 3861     		str	r0, [r7, #16]
 986:..\..\..\lvgl\version_6.1.2\lvgl\src\lv_objx/lv_cpicker.c ****         lv_coord_t r = w / 2 - style_main->line.width / 2;
 3968              		.loc 3 986 0
 3969 00f6 B7F91630 		ldrsh	r3, [r7, #22]
 3970 00fa DA0F     		lsrs	r2, r3, #31
 3971 00fc 1344     		add	r3, r3, r2
 3972 00fe 5B10     		asrs	r3, r3, #1
 3973 0100 1BB2     		sxth	r3, r3
 3974 0102 9AB2     		uxth	r2, r3
 3975 0104 3B69     		ldr	r3, [r7, #16]
 3976 0106 B3F94C30 		ldrsh	r3, [r3, #76]
 3977 010a D90F     		lsrs	r1, r3, #31
 3978 010c 0B44     		add	r3, r3, r1
 3979 010e 5B10     		asrs	r3, r3, #1
 3980 0110 1BB2     		sxth	r3, r3
 3981 0112 9BB2     		uxth	r3, r3
 3982 0114 D31A     		subs	r3, r2, r3
 3983 0116 9BB2     		uxth	r3, r3
 3984 0118 FB81     		strh	r3, [r7, #14]	@ movhi
 987:..\..\..\lvgl\version_6.1.2\lvgl\src\lv_objx/lv_cpicker.c ****         uint16_t angle = get_angle(cpicker);
 3985              		.loc 3 987 0
 3986 011a 7868     		ldr	r0, [r7, #4]
 3987 011c FFF7FEFF 		bl	get_angle
 3988 0120 0346     		mov	r3, r0
 3989 0122 BB81     		strh	r3, [r7, #12]	@ movhi
 988:..\..\..\lvgl\version_6.1.2\lvgl\src\lv_objx/lv_cpicker.c ****         ext->indic.pos.x = (((int32_t)r * lv_trigo_sin(angle)) >> LV_TRIGO_SHIFT);
 3990              		.loc 3 988 0
 3991 0124 B7F90E40 		ldrsh	r4, [r7, #14]
 3992 0128 B7F90C30 		ldrsh	r3, [r7, #12]
 3993 012c 1846     		mov	r0, r3
 3994 012e FFF7FEFF 		bl	lv_trigo_sin
 3995 0132 0346     		mov	r3, r0
 3996 0134 03FB04F3 		mul	r3, r3, r4
 3997 0138 DB13     		asrs	r3, r3, #15
ARM GAS  C:\Users\tmj32\AppData\Local\Temp\cc11CUDk.s 			page 98


 3998 013a 1AB2     		sxth	r2, r3
 3999 013c BB69     		ldr	r3, [r7, #24]
 4000 013e 1A81     		strh	r2, [r3, #8]	@ movhi
 989:..\..\..\lvgl\version_6.1.2\lvgl\src\lv_objx/lv_cpicker.c ****         ext->indic.pos.y = (((int32_t)r * lv_trigo_sin(angle + 90)) >> LV_TRIGO_SHIFT);
 4001              		.loc 3 989 0
 4002 0140 B7F90E40 		ldrsh	r4, [r7, #14]
 4003 0144 BB89     		ldrh	r3, [r7, #12]	@ movhi
 4004 0146 5A33     		adds	r3, r3, #90
 4005 0148 9BB2     		uxth	r3, r3
 4006 014a 1BB2     		sxth	r3, r3
 4007 014c 1846     		mov	r0, r3
 4008 014e FFF7FEFF 		bl	lv_trigo_sin
 4009 0152 0346     		mov	r3, r0
 4010 0154 03FB04F3 		mul	r3, r3, r4
 4011 0158 DB13     		asrs	r3, r3, #15
 4012 015a 1AB2     		sxth	r2, r3
 4013 015c BB69     		ldr	r3, [r7, #24]
 4014 015e 5A81     		strh	r2, [r3, #10]	@ movhi
 990:..\..\..\lvgl\version_6.1.2\lvgl\src\lv_objx/lv_cpicker.c ****         ext->indic.pos.x = ext->indic.pos.x + w / 2;
 4015              		.loc 3 990 0
 4016 0160 BB69     		ldr	r3, [r7, #24]
 4017 0162 B3F90830 		ldrsh	r3, [r3, #8]
 4018 0166 9AB2     		uxth	r2, r3
 4019 0168 B7F91630 		ldrsh	r3, [r7, #22]
 4020 016c D90F     		lsrs	r1, r3, #31
 4021 016e 0B44     		add	r3, r3, r1
 4022 0170 5B10     		asrs	r3, r3, #1
 4023 0172 1BB2     		sxth	r3, r3
 4024 0174 9BB2     		uxth	r3, r3
 4025 0176 1344     		add	r3, r3, r2
 4026 0178 9BB2     		uxth	r3, r3
 4027 017a 1AB2     		sxth	r2, r3
 4028 017c BB69     		ldr	r3, [r7, #24]
 4029 017e 1A81     		strh	r2, [r3, #8]	@ movhi
 991:..\..\..\lvgl\version_6.1.2\lvgl\src\lv_objx/lv_cpicker.c ****         ext->indic.pos.y = ext->indic.pos.y + h / 2;
 4030              		.loc 3 991 0
 4031 0180 BB69     		ldr	r3, [r7, #24]
 4032 0182 B3F90A30 		ldrsh	r3, [r3, #10]
 4033 0186 9AB2     		uxth	r2, r3
 4034 0188 B7F91430 		ldrsh	r3, [r7, #20]
 4035 018c D90F     		lsrs	r1, r3, #31
 4036 018e 0B44     		add	r3, r3, r1
 4037 0190 5B10     		asrs	r3, r3, #1
 4038 0192 1BB2     		sxth	r3, r3
 4039 0194 9BB2     		uxth	r3, r3
 4040 0196 1344     		add	r3, r3, r2
 4041 0198 9BB2     		uxth	r3, r3
 4042 019a 1AB2     		sxth	r2, r3
 4043 019c BB69     		ldr	r3, [r7, #24]
 4044 019e 5A81     		strh	r2, [r3, #10]	@ movhi
 4045              	.L193:
 4046              	.LBE20:
 992:..\..\..\lvgl\version_6.1.2\lvgl\src\lv_objx/lv_cpicker.c ****     }
 993:..\..\..\lvgl\version_6.1.2\lvgl\src\lv_objx/lv_cpicker.c **** 
 994:..\..\..\lvgl\version_6.1.2\lvgl\src\lv_objx/lv_cpicker.c ****     invalidate_indic(cpicker);
 4047              		.loc 3 994 0
 4048 01a0 7868     		ldr	r0, [r7, #4]
ARM GAS  C:\Users\tmj32\AppData\Local\Temp\cc11CUDk.s 			page 99


 4049 01a2 FFF7FEFF 		bl	invalidate_indic
 995:..\..\..\lvgl\version_6.1.2\lvgl\src\lv_objx/lv_cpicker.c **** }
 4050              		.loc 3 995 0
 4051 01a6 00BF     		nop
 4052 01a8 2437     		adds	r7, r7, #36
 4053              		.cfi_def_cfa_offset 12
 4054 01aa BD46     		mov	sp, r7
 4055              		.cfi_def_cfa_register 13
 4056              		@ sp needed
 4057 01ac 90BD     		pop	{r4, r7, pc}
 4058              	.L195:
 4059 01ae 00BF     		.align	2
 4060              	.L194:
 4061 01b0 B7600BB6 		.word	-1240768329
 4062 01b4 1F85EB51 		.word	1374389535
 4063              		.cfi_endproc
 4064              	.LFE61:
 4065              		.size	refr_indic_pos, .-refr_indic_pos
 4066              		.section	.text.double_click_reset,"ax",%progbits
 4067              		.align	2
 4068              		.thumb
 4069              		.thumb_func
 4070              		.type	double_click_reset, %function
 4071              	double_click_reset:
 4072              	.LFB62:
 996:..\..\..\lvgl\version_6.1.2\lvgl\src\lv_objx/lv_cpicker.c **** 
 997:..\..\..\lvgl\version_6.1.2\lvgl\src\lv_objx/lv_cpicker.c **** static lv_res_t double_click_reset(lv_obj_t * cpicker)
 998:..\..\..\lvgl\version_6.1.2\lvgl\src\lv_objx/lv_cpicker.c **** {
 4073              		.loc 3 998 0
 4074              		.cfi_startproc
 4075              		@ args = 0, pretend = 0, frame = 24
 4076              		@ frame_needed = 1, uses_anonymous_args = 0
 4077 0000 80B5     		push	{r7, lr}
 4078              		.cfi_def_cfa_offset 8
 4079              		.cfi_offset 7, -8
 4080              		.cfi_offset 14, -4
 4081 0002 86B0     		sub	sp, sp, #24
 4082              		.cfi_def_cfa_offset 32
 4083 0004 00AF     		add	r7, sp, #0
 4084              		.cfi_def_cfa_register 7
 4085 0006 7860     		str	r0, [r7, #4]
 999:..\..\..\lvgl\version_6.1.2\lvgl\src\lv_objx/lv_cpicker.c ****     lv_cpicker_ext_t * ext = lv_obj_get_ext_attr(cpicker);
 4086              		.loc 3 999 0
 4087 0008 7868     		ldr	r0, [r7, #4]
 4088 000a FFF7FEFF 		bl	lv_obj_get_ext_attr
 4089 000e 7861     		str	r0, [r7, #20]
1000:..\..\..\lvgl\version_6.1.2\lvgl\src\lv_objx/lv_cpicker.c ****     lv_indev_t * indev = lv_indev_get_act();
 4090              		.loc 3 1000 0
 4091 0010 FFF7FEFF 		bl	lv_indev_get_act
 4092 0014 3861     		str	r0, [r7, #16]
1001:..\..\..\lvgl\version_6.1.2\lvgl\src\lv_objx/lv_cpicker.c ****     /*Double clicked? Use long press time as double click time out*/
1002:..\..\..\lvgl\version_6.1.2\lvgl\src\lv_objx/lv_cpicker.c ****     if(lv_tick_elaps(ext->last_click_time) < indev->driver.long_press_time) {
 4093              		.loc 3 1002 0
 4094 0016 7B69     		ldr	r3, [r7, #20]
 4095 0018 1B69     		ldr	r3, [r3, #16]
 4096 001a 1846     		mov	r0, r3
 4097 001c FFF7FEFF 		bl	lv_tick_elaps
ARM GAS  C:\Users\tmj32\AppData\Local\Temp\cc11CUDk.s 			page 100


 4098 0020 0246     		mov	r2, r0
 4099 0022 3B69     		ldr	r3, [r7, #16]
 4100 0024 DB8A     		ldrh	r3, [r3, #22]
 4101 0026 9A42     		cmp	r2, r3
 4102 0028 29D2     		bcs	.L197
 4103              	.LBB21:
1003:..\..\..\lvgl\version_6.1.2\lvgl\src\lv_objx/lv_cpicker.c ****         lv_color_hsv_t hsv_cur;
1004:..\..\..\lvgl\version_6.1.2\lvgl\src\lv_objx/lv_cpicker.c ****         hsv_cur = ext->hsv;
 4104              		.loc 3 1004 0
 4105 002a 7B69     		ldr	r3, [r7, #20]
 4106 002c 1B68     		ldr	r3, [r3]
 4107 002e BB60     		str	r3, [r7, #8]
1005:..\..\..\lvgl\version_6.1.2\lvgl\src\lv_objx/lv_cpicker.c **** 
1006:..\..\..\lvgl\version_6.1.2\lvgl\src\lv_objx/lv_cpicker.c ****         switch(ext->color_mode) {
 4108              		.loc 3 1006 0
 4109 0030 7B69     		ldr	r3, [r7, #20]
 4110 0032 1B7F     		ldrb	r3, [r3, #28]
 4111 0034 C3F30103 		ubfx	r3, r3, #0, #2
 4112 0038 DBB2     		uxtb	r3, r3
 4113 003a 012B     		cmp	r3, #1
 4114 003c 06D0     		beq	.L199
 4115 003e 022B     		cmp	r3, #2
 4116 0040 07D0     		beq	.L200
 4117 0042 002B     		cmp	r3, #0
 4118 0044 08D1     		bne	.L198
1007:..\..\..\lvgl\version_6.1.2\lvgl\src\lv_objx/lv_cpicker.c ****         case LV_CPICKER_COLOR_MODE_HUE:
1008:..\..\..\lvgl\version_6.1.2\lvgl\src\lv_objx/lv_cpicker.c ****             hsv_cur.h = LV_CPICKER_DEF_HUE;
 4119              		.loc 3 1008 0
 4120 0046 0023     		movs	r3, #0
 4121 0048 3B81     		strh	r3, [r7, #8]	@ movhi
1009:..\..\..\lvgl\version_6.1.2\lvgl\src\lv_objx/lv_cpicker.c ****             break;
 4122              		.loc 3 1009 0
 4123 004a 05E0     		b	.L198
 4124              	.L199:
1010:..\..\..\lvgl\version_6.1.2\lvgl\src\lv_objx/lv_cpicker.c ****         case LV_CPICKER_COLOR_MODE_SATURATION:
1011:..\..\..\lvgl\version_6.1.2\lvgl\src\lv_objx/lv_cpicker.c ****             hsv_cur.s = LV_CPICKER_DEF_SATURATION;
 4125              		.loc 3 1011 0
 4126 004c 6423     		movs	r3, #100
 4127 004e BB72     		strb	r3, [r7, #10]
1012:..\..\..\lvgl\version_6.1.2\lvgl\src\lv_objx/lv_cpicker.c ****             break;
 4128              		.loc 3 1012 0
 4129 0050 02E0     		b	.L198
 4130              	.L200:
1013:..\..\..\lvgl\version_6.1.2\lvgl\src\lv_objx/lv_cpicker.c ****         case LV_CPICKER_COLOR_MODE_VALUE:
1014:..\..\..\lvgl\version_6.1.2\lvgl\src\lv_objx/lv_cpicker.c ****             hsv_cur.v = LV_CPICKER_DEF_VALUE;
 4131              		.loc 3 1014 0
 4132 0052 6423     		movs	r3, #100
 4133 0054 FB72     		strb	r3, [r7, #11]
1015:..\..\..\lvgl\version_6.1.2\lvgl\src\lv_objx/lv_cpicker.c ****             break;
 4134              		.loc 3 1015 0
 4135 0056 00BF     		nop
 4136              	.L198:
1016:..\..\..\lvgl\version_6.1.2\lvgl\src\lv_objx/lv_cpicker.c ****         }
1017:..\..\..\lvgl\version_6.1.2\lvgl\src\lv_objx/lv_cpicker.c **** 
1018:..\..\..\lvgl\version_6.1.2\lvgl\src\lv_objx/lv_cpicker.c ****         if (lv_cpicker_set_hsv(cpicker, hsv_cur)) {
 4137              		.loc 3 1018 0
 4138 0058 B968     		ldr	r1, [r7, #8]
ARM GAS  C:\Users\tmj32\AppData\Local\Temp\cc11CUDk.s 			page 101


 4139 005a 7868     		ldr	r0, [r7, #4]
 4140 005c FFF7FEFF 		bl	lv_cpicker_set_hsv
 4141 0060 0346     		mov	r3, r0
 4142 0062 002B     		cmp	r3, #0
 4143 0064 0BD0     		beq	.L197
 4144              	.LBB22:
1019:..\..\..\lvgl\version_6.1.2\lvgl\src\lv_objx/lv_cpicker.c ****             lv_res_t res = lv_event_send(cpicker, LV_EVENT_VALUE_CHANGED, NULL);
 4145              		.loc 3 1019 0
 4146 0066 0022     		movs	r2, #0
 4147 0068 0E21     		movs	r1, #14
 4148 006a 7868     		ldr	r0, [r7, #4]
 4149 006c FFF7FEFF 		bl	lv_event_send
 4150 0070 0346     		mov	r3, r0
 4151 0072 FB73     		strb	r3, [r7, #15]
1020:..\..\..\lvgl\version_6.1.2\lvgl\src\lv_objx/lv_cpicker.c ****             if(res != LV_RES_OK) return res;
 4152              		.loc 3 1020 0
 4153 0074 FB7B     		ldrb	r3, [r7, #15]	@ zero_extendqisi2
 4154 0076 012B     		cmp	r3, #1
 4155 0078 01D0     		beq	.L197
 4156              		.loc 3 1020 0 is_stmt 0 discriminator 1
 4157 007a FB7B     		ldrb	r3, [r7, #15]	@ zero_extendqisi2
 4158 007c 05E0     		b	.L203
 4159              	.L197:
 4160              	.LBE22:
 4161              	.LBE21:
1021:..\..\..\lvgl\version_6.1.2\lvgl\src\lv_objx/lv_cpicker.c ****         }
1022:..\..\..\lvgl\version_6.1.2\lvgl\src\lv_objx/lv_cpicker.c ****     }
1023:..\..\..\lvgl\version_6.1.2\lvgl\src\lv_objx/lv_cpicker.c ****     ext->last_click_time = lv_tick_get();
 4162              		.loc 3 1023 0 is_stmt 1
 4163 007e FFF7FEFF 		bl	lv_tick_get
 4164 0082 0246     		mov	r2, r0
 4165 0084 7B69     		ldr	r3, [r7, #20]
 4166 0086 1A61     		str	r2, [r3, #16]
1024:..\..\..\lvgl\version_6.1.2\lvgl\src\lv_objx/lv_cpicker.c **** 
1025:..\..\..\lvgl\version_6.1.2\lvgl\src\lv_objx/lv_cpicker.c ****     return LV_RES_OK;
 4167              		.loc 3 1025 0
 4168 0088 0123     		movs	r3, #1
 4169              	.L203:
1026:..\..\..\lvgl\version_6.1.2\lvgl\src\lv_objx/lv_cpicker.c **** }
 4170              		.loc 3 1026 0
 4171 008a 1846     		mov	r0, r3
 4172 008c 1837     		adds	r7, r7, #24
 4173              		.cfi_def_cfa_offset 8
 4174 008e BD46     		mov	sp, r7
 4175              		.cfi_def_cfa_register 13
 4176              		@ sp needed
 4177 0090 80BD     		pop	{r7, pc}
 4178              		.cfi_endproc
 4179              	.LFE62:
 4180              		.size	double_click_reset, .-double_click_reset
 4181 0092 00BF     		.section	.text.angle_to_mode_color,"ax",%progbits
 4182              		.align	2
 4183              		.thumb
 4184              		.thumb_func
 4185              		.type	angle_to_mode_color, %function
 4186              	angle_to_mode_color:
 4187              	.LFB63:
ARM GAS  C:\Users\tmj32\AppData\Local\Temp\cc11CUDk.s 			page 102


1027:..\..\..\lvgl\version_6.1.2\lvgl\src\lv_objx/lv_cpicker.c **** 
1028:..\..\..\lvgl\version_6.1.2\lvgl\src\lv_objx/lv_cpicker.c **** static lv_color_t angle_to_mode_color(lv_obj_t * cpicker, uint16_t angle)
1029:..\..\..\lvgl\version_6.1.2\lvgl\src\lv_objx/lv_cpicker.c **** {
 4188              		.loc 3 1029 0
 4189              		.cfi_startproc
 4190              		@ args = 0, pretend = 0, frame = 16
 4191              		@ frame_needed = 1, uses_anonymous_args = 0
 4192 0000 90B5     		push	{r4, r7, lr}
 4193              		.cfi_def_cfa_offset 12
 4194              		.cfi_offset 4, -12
 4195              		.cfi_offset 7, -8
 4196              		.cfi_offset 14, -4
 4197 0002 85B0     		sub	sp, sp, #20
 4198              		.cfi_def_cfa_offset 32
 4199 0004 00AF     		add	r7, sp, #0
 4200              		.cfi_def_cfa_register 7
 4201 0006 7860     		str	r0, [r7, #4]
 4202 0008 0B46     		mov	r3, r1
 4203 000a 7B80     		strh	r3, [r7, #2]	@ movhi
1030:..\..\..\lvgl\version_6.1.2\lvgl\src\lv_objx/lv_cpicker.c ****     lv_cpicker_ext_t * ext = lv_obj_get_ext_attr(cpicker);
 4204              		.loc 3 1030 0
 4205 000c 7868     		ldr	r0, [r7, #4]
 4206 000e FFF7FEFF 		bl	lv_obj_get_ext_attr
 4207 0012 F860     		str	r0, [r7, #12]
1031:..\..\..\lvgl\version_6.1.2\lvgl\src\lv_objx/lv_cpicker.c ****     lv_color_t color;
1032:..\..\..\lvgl\version_6.1.2\lvgl\src\lv_objx/lv_cpicker.c ****     switch(ext->color_mode)
 4208              		.loc 3 1032 0
 4209 0014 FB68     		ldr	r3, [r7, #12]
 4210 0016 1B7F     		ldrb	r3, [r3, #28]
 4211 0018 C3F30103 		ubfx	r3, r3, #0, #2
 4212 001c DBB2     		uxtb	r3, r3
 4213 001e 012B     		cmp	r3, #1
 4214 0020 17D0     		beq	.L206
 4215 0022 022B     		cmp	r3, #2
 4216 0024 37D0     		beq	.L207
1033:..\..\..\lvgl\version_6.1.2\lvgl\src\lv_objx/lv_cpicker.c ****     {
1034:..\..\..\lvgl\version_6.1.2\lvgl\src\lv_objx/lv_cpicker.c ****     default:
1035:..\..\..\lvgl\version_6.1.2\lvgl\src\lv_objx/lv_cpicker.c ****     case LV_CPICKER_COLOR_MODE_HUE:
1036:..\..\..\lvgl\version_6.1.2\lvgl\src\lv_objx/lv_cpicker.c ****         color = lv_color_hsv_to_rgb(angle % 360, ext->hsv.s, ext->hsv.v);
 4217              		.loc 3 1036 0
 4218 0026 7B88     		ldrh	r3, [r7, #2]
 4219 0028 DA08     		lsrs	r2, r3, #3
 4220 002a 2F49     		ldr	r1, .L210
 4221 002c A1FB0212 		umull	r1, r2, r1, r2
 4222 0030 9208     		lsrs	r2, r2, #2
 4223 0032 4FF4B471 		mov	r1, #360
 4224 0036 01FB02F2 		mul	r2, r1, r2
 4225 003a 9B1A     		subs	r3, r3, r2
 4226 003c 98B2     		uxth	r0, r3
 4227 003e FB68     		ldr	r3, [r7, #12]
 4228 0040 9978     		ldrb	r1, [r3, #2]	@ zero_extendqisi2
 4229 0042 FB68     		ldr	r3, [r7, #12]
 4230 0044 DB78     		ldrb	r3, [r3, #3]	@ zero_extendqisi2
 4231 0046 1A46     		mov	r2, r3
 4232 0048 FFF7FEFF 		bl	lv_color_hsv_to_rgb
 4233 004c 0346     		mov	r3, r0
 4234 004e BB60     		str	r3, [r7, #8]
ARM GAS  C:\Users\tmj32\AppData\Local\Temp\cc11CUDk.s 			page 103


1037:..\..\..\lvgl\version_6.1.2\lvgl\src\lv_objx/lv_cpicker.c ****         break;
 4235              		.loc 3 1037 0
 4236 0050 44E0     		b	.L208
 4237              	.L206:
1038:..\..\..\lvgl\version_6.1.2\lvgl\src\lv_objx/lv_cpicker.c ****     case LV_CPICKER_COLOR_MODE_SATURATION:
1039:..\..\..\lvgl\version_6.1.2\lvgl\src\lv_objx/lv_cpicker.c ****         color = lv_color_hsv_to_rgb(ext->hsv.h, ((angle % 360) * 100) / 360, ext->hsv.v);
 4238              		.loc 3 1039 0
 4239 0052 FB68     		ldr	r3, [r7, #12]
 4240 0054 1888     		ldrh	r0, [r3]
 4241 0056 7B88     		ldrh	r3, [r7, #2]
 4242 0058 DA08     		lsrs	r2, r3, #3
 4243 005a 2349     		ldr	r1, .L210
 4244 005c A1FB0212 		umull	r1, r2, r1, r2
 4245 0060 9208     		lsrs	r2, r2, #2
 4246 0062 4FF4B471 		mov	r1, #360
 4247 0066 01FB02F2 		mul	r2, r1, r2
 4248 006a 9B1A     		subs	r3, r3, r2
 4249 006c 9BB2     		uxth	r3, r3
 4250 006e 1A46     		mov	r2, r3
 4251 0070 6423     		movs	r3, #100
 4252 0072 03FB02F3 		mul	r3, r3, r2
 4253 0076 1D4A     		ldr	r2, .L210+4
 4254 0078 82FB0312 		smull	r1, r2, r2, r3
 4255 007c 1A44     		add	r2, r2, r3
 4256 007e 1212     		asrs	r2, r2, #8
 4257 0080 DB17     		asrs	r3, r3, #31
 4258 0082 D31A     		subs	r3, r2, r3
 4259 0084 D9B2     		uxtb	r1, r3
 4260 0086 FB68     		ldr	r3, [r7, #12]
 4261 0088 DB78     		ldrb	r3, [r3, #3]	@ zero_extendqisi2
 4262 008a 1A46     		mov	r2, r3
 4263 008c FFF7FEFF 		bl	lv_color_hsv_to_rgb
 4264 0090 0346     		mov	r3, r0
 4265 0092 BB60     		str	r3, [r7, #8]
1040:..\..\..\lvgl\version_6.1.2\lvgl\src\lv_objx/lv_cpicker.c ****         break;
 4266              		.loc 3 1040 0
 4267 0094 22E0     		b	.L208
 4268              	.L207:
1041:..\..\..\lvgl\version_6.1.2\lvgl\src\lv_objx/lv_cpicker.c ****     case LV_CPICKER_COLOR_MODE_VALUE:
1042:..\..\..\lvgl\version_6.1.2\lvgl\src\lv_objx/lv_cpicker.c ****         color = lv_color_hsv_to_rgb(ext->hsv.h, ext->hsv.s, ((angle % 360) * 100) / 360);
 4269              		.loc 3 1042 0
 4270 0096 FB68     		ldr	r3, [r7, #12]
 4271 0098 1888     		ldrh	r0, [r3]
 4272 009a FB68     		ldr	r3, [r7, #12]
 4273 009c 9C78     		ldrb	r4, [r3, #2]	@ zero_extendqisi2
 4274 009e 7B88     		ldrh	r3, [r7, #2]
 4275 00a0 DA08     		lsrs	r2, r3, #3
 4276 00a2 1149     		ldr	r1, .L210
 4277 00a4 A1FB0212 		umull	r1, r2, r1, r2
 4278 00a8 9208     		lsrs	r2, r2, #2
 4279 00aa 4FF4B471 		mov	r1, #360
 4280 00ae 01FB02F2 		mul	r2, r1, r2
 4281 00b2 9B1A     		subs	r3, r3, r2
 4282 00b4 9BB2     		uxth	r3, r3
 4283 00b6 1A46     		mov	r2, r3
 4284 00b8 6423     		movs	r3, #100
 4285 00ba 03FB02F3 		mul	r3, r3, r2
ARM GAS  C:\Users\tmj32\AppData\Local\Temp\cc11CUDk.s 			page 104


 4286 00be 0B4A     		ldr	r2, .L210+4
 4287 00c0 82FB0312 		smull	r1, r2, r2, r3
 4288 00c4 1A44     		add	r2, r2, r3
 4289 00c6 1212     		asrs	r2, r2, #8
 4290 00c8 DB17     		asrs	r3, r3, #31
 4291 00ca D31A     		subs	r3, r2, r3
 4292 00cc DBB2     		uxtb	r3, r3
 4293 00ce 1A46     		mov	r2, r3
 4294 00d0 2146     		mov	r1, r4
 4295 00d2 FFF7FEFF 		bl	lv_color_hsv_to_rgb
 4296 00d6 0346     		mov	r3, r0
 4297 00d8 BB60     		str	r3, [r7, #8]
1043:..\..\..\lvgl\version_6.1.2\lvgl\src\lv_objx/lv_cpicker.c ****         break;
 4298              		.loc 3 1043 0
 4299 00da 00BF     		nop
 4300              	.L208:
1044:..\..\..\lvgl\version_6.1.2\lvgl\src\lv_objx/lv_cpicker.c ****     }
1045:..\..\..\lvgl\version_6.1.2\lvgl\src\lv_objx/lv_cpicker.c ****     return color;
 4301              		.loc 3 1045 0
 4302 00dc BB68     		ldr	r3, [r7, #8]
1046:..\..\..\lvgl\version_6.1.2\lvgl\src\lv_objx/lv_cpicker.c **** }
 4303              		.loc 3 1046 0
 4304 00de 1846     		mov	r0, r3
 4305 00e0 1437     		adds	r7, r7, #20
 4306              		.cfi_def_cfa_offset 12
 4307 00e2 BD46     		mov	sp, r7
 4308              		.cfi_def_cfa_register 13
 4309              		@ sp needed
 4310 00e4 90BD     		pop	{r4, r7, pc}
 4311              	.L211:
 4312 00e6 00BF     		.align	2
 4313              	.L210:
 4314 00e8 176CC116 		.word	381774871
 4315 00ec B7600BB6 		.word	-1240768329
 4316              		.cfi_endproc
 4317              	.LFE63:
 4318              		.size	angle_to_mode_color, .-angle_to_mode_color
 4319              		.section	.text.get_angle,"ax",%progbits
 4320              		.align	2
 4321              		.thumb
 4322              		.thumb_func
 4323              		.type	get_angle, %function
 4324              	get_angle:
 4325              	.LFB64:
1047:..\..\..\lvgl\version_6.1.2\lvgl\src\lv_objx/lv_cpicker.c **** 
1048:..\..\..\lvgl\version_6.1.2\lvgl\src\lv_objx/lv_cpicker.c **** static uint16_t get_angle(lv_obj_t * cpicker)
1049:..\..\..\lvgl\version_6.1.2\lvgl\src\lv_objx/lv_cpicker.c **** {
 4326              		.loc 3 1049 0
 4327              		.cfi_startproc
 4328              		@ args = 0, pretend = 0, frame = 16
 4329              		@ frame_needed = 1, uses_anonymous_args = 0
 4330 0000 80B5     		push	{r7, lr}
 4331              		.cfi_def_cfa_offset 8
 4332              		.cfi_offset 7, -8
 4333              		.cfi_offset 14, -4
 4334 0002 84B0     		sub	sp, sp, #16
 4335              		.cfi_def_cfa_offset 24
ARM GAS  C:\Users\tmj32\AppData\Local\Temp\cc11CUDk.s 			page 105


 4336 0004 00AF     		add	r7, sp, #0
 4337              		.cfi_def_cfa_register 7
 4338 0006 7860     		str	r0, [r7, #4]
1050:..\..\..\lvgl\version_6.1.2\lvgl\src\lv_objx/lv_cpicker.c ****     lv_cpicker_ext_t * ext = lv_obj_get_ext_attr(cpicker);
 4339              		.loc 3 1050 0
 4340 0008 7868     		ldr	r0, [r7, #4]
 4341 000a FFF7FEFF 		bl	lv_obj_get_ext_attr
 4342 000e B860     		str	r0, [r7, #8]
1051:..\..\..\lvgl\version_6.1.2\lvgl\src\lv_objx/lv_cpicker.c ****     uint16_t angle;
1052:..\..\..\lvgl\version_6.1.2\lvgl\src\lv_objx/lv_cpicker.c ****     switch(ext->color_mode)
 4343              		.loc 3 1052 0
 4344 0010 BB68     		ldr	r3, [r7, #8]
 4345 0012 1B7F     		ldrb	r3, [r3, #28]
 4346 0014 C3F30103 		ubfx	r3, r3, #0, #2
 4347 0018 DBB2     		uxtb	r3, r3
 4348 001a 012B     		cmp	r3, #1
 4349 001c 05D0     		beq	.L214
 4350 001e 022B     		cmp	r3, #2
 4351 0020 12D0     		beq	.L215
1053:..\..\..\lvgl\version_6.1.2\lvgl\src\lv_objx/lv_cpicker.c ****     {
1054:..\..\..\lvgl\version_6.1.2\lvgl\src\lv_objx/lv_cpicker.c ****     default:
1055:..\..\..\lvgl\version_6.1.2\lvgl\src\lv_objx/lv_cpicker.c ****     case LV_CPICKER_COLOR_MODE_HUE:
1056:..\..\..\lvgl\version_6.1.2\lvgl\src\lv_objx/lv_cpicker.c ****         angle = ext->hsv.h;
 4352              		.loc 3 1056 0
 4353 0022 BB68     		ldr	r3, [r7, #8]
 4354 0024 1B88     		ldrh	r3, [r3]	@ movhi
 4355 0026 FB81     		strh	r3, [r7, #14]	@ movhi
1057:..\..\..\lvgl\version_6.1.2\lvgl\src\lv_objx/lv_cpicker.c ****         break;
 4356              		.loc 3 1057 0
 4357 0028 1DE0     		b	.L216
 4358              	.L214:
1058:..\..\..\lvgl\version_6.1.2\lvgl\src\lv_objx/lv_cpicker.c ****     case LV_CPICKER_COLOR_MODE_SATURATION:
1059:..\..\..\lvgl\version_6.1.2\lvgl\src\lv_objx/lv_cpicker.c ****         angle = (ext->hsv.s * 360) / 100;
 4359              		.loc 3 1059 0
 4360 002a BB68     		ldr	r3, [r7, #8]
 4361 002c 9B78     		ldrb	r3, [r3, #2]	@ zero_extendqisi2
 4362 002e 1A46     		mov	r2, r3
 4363 0030 4FF4B473 		mov	r3, #360
 4364 0034 03FB02F3 		mul	r3, r3, r2
 4365 0038 0D4A     		ldr	r2, .L218
 4366 003a 82FB0312 		smull	r1, r2, r2, r3
 4367 003e 5211     		asrs	r2, r2, #5
 4368 0040 DB17     		asrs	r3, r3, #31
 4369 0042 D31A     		subs	r3, r2, r3
 4370 0044 FB81     		strh	r3, [r7, #14]	@ movhi
1060:..\..\..\lvgl\version_6.1.2\lvgl\src\lv_objx/lv_cpicker.c ****         break;
 4371              		.loc 3 1060 0
 4372 0046 0EE0     		b	.L216
 4373              	.L215:
1061:..\..\..\lvgl\version_6.1.2\lvgl\src\lv_objx/lv_cpicker.c ****     case LV_CPICKER_COLOR_MODE_VALUE:
1062:..\..\..\lvgl\version_6.1.2\lvgl\src\lv_objx/lv_cpicker.c ****         angle = (ext->hsv.v * 360) / 100 ;
 4374              		.loc 3 1062 0
 4375 0048 BB68     		ldr	r3, [r7, #8]
 4376 004a DB78     		ldrb	r3, [r3, #3]	@ zero_extendqisi2
 4377 004c 1A46     		mov	r2, r3
 4378 004e 4FF4B473 		mov	r3, #360
 4379 0052 03FB02F3 		mul	r3, r3, r2
ARM GAS  C:\Users\tmj32\AppData\Local\Temp\cc11CUDk.s 			page 106


 4380 0056 064A     		ldr	r2, .L218
 4381 0058 82FB0312 		smull	r1, r2, r2, r3
 4382 005c 5211     		asrs	r2, r2, #5
 4383 005e DB17     		asrs	r3, r3, #31
 4384 0060 D31A     		subs	r3, r2, r3
 4385 0062 FB81     		strh	r3, [r7, #14]	@ movhi
1063:..\..\..\lvgl\version_6.1.2\lvgl\src\lv_objx/lv_cpicker.c ****         break;
 4386              		.loc 3 1063 0
 4387 0064 00BF     		nop
 4388              	.L216:
1064:..\..\..\lvgl\version_6.1.2\lvgl\src\lv_objx/lv_cpicker.c ****     }
1065:..\..\..\lvgl\version_6.1.2\lvgl\src\lv_objx/lv_cpicker.c ****     return angle;
 4389              		.loc 3 1065 0
 4390 0066 FB89     		ldrh	r3, [r7, #14]
1066:..\..\..\lvgl\version_6.1.2\lvgl\src\lv_objx/lv_cpicker.c **** }
 4391              		.loc 3 1066 0
 4392 0068 1846     		mov	r0, r3
 4393 006a 1037     		adds	r7, r7, #16
 4394              		.cfi_def_cfa_offset 8
 4395 006c BD46     		mov	sp, r7
 4396              		.cfi_def_cfa_register 13
 4397              		@ sp needed
 4398 006e 80BD     		pop	{r7, pc}
 4399              	.L219:
 4400              		.align	2
 4401              	.L218:
 4402 0070 1F85EB51 		.word	1374389535
 4403              		.cfi_endproc
 4404              	.LFE64:
 4405              		.size	get_angle, .-get_angle
 4406              		.text
 4407              	.Letext0:
 4408              		.file 4 "c:\\program files (x86)\\cypress\\psoc creator\\4.3\\psoc creator\\import\\gnu\\arm\\5.4.
 4409              		.file 5 "c:\\program files (x86)\\cypress\\psoc creator\\4.3\\psoc creator\\import\\gnu\\arm\\5.4.
 4410              		.file 6 "..\\..\\..\\lvgl\\version_6.1.2\\lvgl\\src\\lv_objx\\../../../lv_conf.h"
 4411              		.file 7 "..\\..\\..\\lvgl\\version_6.1.2\\lvgl\\src\\lv_objx\\../lv_core/../lv_font/lv_font.h"
 4412              		.file 8 "..\\..\\..\\lvgl\\version_6.1.2\\lvgl\\src\\lv_objx\\../lv_core/lv_style.h"
 4413              		.file 9 "..\\..\\..\\lvgl\\version_6.1.2\\lvgl\\src\\lv_objx\\../lv_core/../lv_misc/lv_types.h"
 4414              		.file 10 "..\\..\\..\\lvgl\\version_6.1.2\\lvgl\\src\\lv_objx\\../lv_core/../lv_misc/lv_ll.h"
 4415              		.file 11 "..\\..\\..\\lvgl\\version_6.1.2\\lvgl\\src\\lv_objx\\../lv_core/../lv_misc/lv_bidi.h"
 4416              		.file 12 "..\\..\\..\\lvgl\\version_6.1.2\\lvgl\\src\\lv_objx\\../lv_core/../lv_hal/../lv_misc/lv_
 4417              		.file 13 "..\\..\\..\\lvgl\\version_6.1.2\\lvgl\\src\\lv_objx\\../lv_core/../lv_hal/lv_hal_disp.h"
 4418              		.file 14 "..\\..\\..\\lvgl\\version_6.1.2\\lvgl\\src\\lv_objx\\../lv_core/lv_obj.h"
 4419              		.file 15 "..\\..\\..\\lvgl\\version_6.1.2\\lvgl\\src\\lv_objx\\../lv_core/../lv_hal/lv_hal_indev.h
 4420              		.file 16 "..\\..\\..\\lvgl\\version_6.1.2\\lvgl\\src\\lv_objx\\lv_cpicker.h"
 4421              		.file 17 "..\\..\\..\\lvgl\\version_6.1.2\\lvgl\\src\\lv_objx\\../lv_themes/../lv_core/lv_group.h"
 4422              		.file 18 "..\\..\\..\\lvgl\\version_6.1.2\\lvgl\\src\\lv_objx\\../lv_themes/lv_theme.h"
 4423              		.section	.debug_info,"",%progbits
 4424              	.Ldebug_info0:
 4425 0000 B9270000 		.4byte	0x27b9
 4426 0004 0400     		.2byte	0x4
 4427 0006 00000000 		.4byte	.Ldebug_abbrev0
 4428 000a 04       		.byte	0x4
 4429 000b 01       		.uleb128 0x1
 4430 000c AE0F0000 		.4byte	.LASF419
 4431 0010 0C       		.byte	0xc
 4432 0011 9C0B0000 		.4byte	.LASF420
ARM GAS  C:\Users\tmj32\AppData\Local\Temp\cc11CUDk.s 			page 107


 4433 0015 F3090000 		.4byte	.LASF421
 4434 0019 18000000 		.4byte	.Ldebug_ranges0+0x18
 4435 001d 00000000 		.4byte	0
 4436 0021 00000000 		.4byte	.Ldebug_line0
 4437 0025 02       		.uleb128 0x2
 4438 0026 4A0E0000 		.4byte	.LASF0
 4439 002a 04       		.byte	0x4
 4440 002b 1B       		.byte	0x1b
 4441 002c 30000000 		.4byte	0x30
 4442 0030 03       		.uleb128 0x3
 4443 0031 01       		.byte	0x1
 4444 0032 06       		.byte	0x6
 4445 0033 09040000 		.4byte	.LASF2
 4446 0037 02       		.uleb128 0x2
 4447 0038 A8020000 		.4byte	.LASF1
 4448 003c 04       		.byte	0x4
 4449 003d 1D       		.byte	0x1d
 4450 003e 42000000 		.4byte	0x42
 4451 0042 03       		.uleb128 0x3
 4452 0043 01       		.byte	0x1
 4453 0044 08       		.byte	0x8
 4454 0045 96040000 		.4byte	.LASF3
 4455 0049 02       		.uleb128 0x2
 4456 004a 8B100000 		.4byte	.LASF4
 4457 004e 04       		.byte	0x4
 4458 004f 29       		.byte	0x29
 4459 0050 54000000 		.4byte	0x54
 4460 0054 03       		.uleb128 0x3
 4461 0055 02       		.byte	0x2
 4462 0056 05       		.byte	0x5
 4463 0057 C5110000 		.4byte	.LASF5
 4464 005b 02       		.uleb128 0x2
 4465 005c C2050000 		.4byte	.LASF6
 4466 0060 04       		.byte	0x4
 4467 0061 2B       		.byte	0x2b
 4468 0062 66000000 		.4byte	0x66
 4469 0066 03       		.uleb128 0x3
 4470 0067 02       		.byte	0x2
 4471 0068 07       		.byte	0x7
 4472 0069 B8130000 		.4byte	.LASF7
 4473 006d 02       		.uleb128 0x2
 4474 006e 51140000 		.4byte	.LASF8
 4475 0072 04       		.byte	0x4
 4476 0073 3F       		.byte	0x3f
 4477 0074 78000000 		.4byte	0x78
 4478 0078 03       		.uleb128 0x3
 4479 0079 04       		.byte	0x4
 4480 007a 05       		.byte	0x5
 4481 007b 47030000 		.4byte	.LASF9
 4482 007f 02       		.uleb128 0x2
 4483 0080 C3090000 		.4byte	.LASF10
 4484 0084 04       		.byte	0x4
 4485 0085 41       		.byte	0x41
 4486 0086 8A000000 		.4byte	0x8a
 4487 008a 03       		.uleb128 0x3
 4488 008b 04       		.byte	0x4
 4489 008c 07       		.byte	0x7
ARM GAS  C:\Users\tmj32\AppData\Local\Temp\cc11CUDk.s 			page 108


 4490 008d 0C080000 		.4byte	.LASF11
 4491 0091 03       		.uleb128 0x3
 4492 0092 08       		.byte	0x8
 4493 0093 05       		.byte	0x5
 4494 0094 E5090000 		.4byte	.LASF12
 4495 0098 03       		.uleb128 0x3
 4496 0099 08       		.byte	0x8
 4497 009a 07       		.byte	0x7
 4498 009b 850E0000 		.4byte	.LASF13
 4499 009f 04       		.uleb128 0x4
 4500 00a0 04       		.byte	0x4
 4501 00a1 05       		.byte	0x5
 4502 00a2 696E7400 		.ascii	"int\000"
 4503 00a6 03       		.uleb128 0x3
 4504 00a7 04       		.byte	0x4
 4505 00a8 07       		.byte	0x7
 4506 00a9 760B0000 		.4byte	.LASF14
 4507 00ad 02       		.uleb128 0x2
 4508 00ae 00000000 		.4byte	.LASF15
 4509 00b2 05       		.byte	0x5
 4510 00b3 14       		.byte	0x14
 4511 00b4 25000000 		.4byte	0x25
 4512 00b8 02       		.uleb128 0x2
 4513 00b9 15040000 		.4byte	.LASF16
 4514 00bd 05       		.byte	0x5
 4515 00be 18       		.byte	0x18
 4516 00bf 37000000 		.4byte	0x37
 4517 00c3 02       		.uleb128 0x2
 4518 00c4 FD110000 		.4byte	.LASF17
 4519 00c8 05       		.byte	0x5
 4520 00c9 20       		.byte	0x20
 4521 00ca 49000000 		.4byte	0x49
 4522 00ce 02       		.uleb128 0x2
 4523 00cf D40E0000 		.4byte	.LASF18
 4524 00d3 05       		.byte	0x5
 4525 00d4 24       		.byte	0x24
 4526 00d5 5B000000 		.4byte	0x5b
 4527 00d9 02       		.uleb128 0x2
 4528 00da A0000000 		.4byte	.LASF19
 4529 00de 05       		.byte	0x5
 4530 00df 2C       		.byte	0x2c
 4531 00e0 6D000000 		.4byte	0x6d
 4532 00e4 02       		.uleb128 0x2
 4533 00e5 5C130000 		.4byte	.LASF20
 4534 00e9 05       		.byte	0x5
 4535 00ea 30       		.byte	0x30
 4536 00eb 7F000000 		.4byte	0x7f
 4537 00ef 02       		.uleb128 0x2
 4538 00f0 D8130000 		.4byte	.LASF21
 4539 00f4 06       		.byte	0x6
 4540 00f5 3C       		.byte	0x3c
 4541 00f6 C3000000 		.4byte	0xc3
 4542 00fa 05       		.uleb128 0x5
 4543 00fb 04       		.byte	0x4
 4544 00fc 03       		.uleb128 0x3
 4545 00fd 08       		.byte	0x8
 4546 00fe 04       		.byte	0x4
ARM GAS  C:\Users\tmj32\AppData\Local\Temp\cc11CUDk.s 			page 109


 4547 00ff FB0C0000 		.4byte	.LASF22
 4548 0103 06       		.uleb128 0x6
 4549 0104 08       		.byte	0x8
 4550 0105 07       		.byte	0x7
 4551 0106 2E       		.byte	0x2e
 4552 0107 54010000 		.4byte	0x154
 4553 010b 07       		.uleb128 0x7
 4554 010c 25000000 		.4byte	.LASF23
 4555 0110 07       		.byte	0x7
 4556 0111 30       		.byte	0x30
 4557 0112 CE000000 		.4byte	0xce
 4558 0116 00       		.byte	0
 4559 0117 07       		.uleb128 0x7
 4560 0118 BF110000 		.4byte	.LASF24
 4561 011c 07       		.byte	0x7
 4562 011d 31       		.byte	0x31
 4563 011e B8000000 		.4byte	0xb8
 4564 0122 02       		.byte	0x2
 4565 0123 07       		.uleb128 0x7
 4566 0124 99110000 		.4byte	.LASF25
 4567 0128 07       		.byte	0x7
 4568 0129 32       		.byte	0x32
 4569 012a B8000000 		.4byte	0xb8
 4570 012e 03       		.byte	0x3
 4571 012f 07       		.uleb128 0x7
 4572 0130 1C050000 		.4byte	.LASF26
 4573 0134 07       		.byte	0x7
 4574 0135 33       		.byte	0x33
 4575 0136 AD000000 		.4byte	0xad
 4576 013a 04       		.byte	0x4
 4577 013b 07       		.uleb128 0x7
 4578 013c 22050000 		.4byte	.LASF27
 4579 0140 07       		.byte	0x7
 4580 0141 34       		.byte	0x34
 4581 0142 AD000000 		.4byte	0xad
 4582 0146 05       		.byte	0x5
 4583 0147 08       		.uleb128 0x8
 4584 0148 62707000 		.ascii	"bpp\000"
 4585 014c 07       		.byte	0x7
 4586 014d 35       		.byte	0x35
 4587 014e B8000000 		.4byte	0xb8
 4588 0152 06       		.byte	0x6
 4589 0153 00       		.byte	0
 4590 0154 02       		.uleb128 0x2
 4591 0155 4C0C0000 		.4byte	.LASF28
 4592 0159 07       		.byte	0x7
 4593 015a 36       		.byte	0x36
 4594 015b 03010000 		.4byte	0x103
 4595 015f 09       		.uleb128 0x9
 4596 0160 E3140000 		.4byte	.LASF99
 4597 0164 10       		.byte	0x10
 4598 0165 07       		.byte	0x7
 4599 0166 44       		.byte	0x44
 4600 0167 B7010000 		.4byte	0x1b7
 4601 016b 07       		.uleb128 0x7
 4602 016c 43140000 		.4byte	.LASF29
 4603 0170 07       		.byte	0x7
ARM GAS  C:\Users\tmj32\AppData\Local\Temp\cc11CUDk.s 			page 110


 4604 0171 47       		.byte	0x47
 4605 0172 ED010000 		.4byte	0x1ed
 4606 0176 00       		.byte	0
 4607 0177 07       		.uleb128 0x7
 4608 0178 5A040000 		.4byte	.LASF30
 4609 017c 07       		.byte	0x7
 4610 017d 4A       		.byte	0x4a
 4611 017e 12020000 		.4byte	0x212
 4612 0182 04       		.byte	0x4
 4613 0183 07       		.uleb128 0x7
 4614 0184 1E010000 		.4byte	.LASF31
 4615 0188 07       		.byte	0x7
 4616 0189 4D       		.byte	0x4d
 4617 018a B8000000 		.4byte	0xb8
 4618 018e 08       		.byte	0x8
 4619 018f 07       		.uleb128 0x7
 4620 0190 CF110000 		.4byte	.LASF32
 4621 0194 07       		.byte	0x7
 4622 0195 4E       		.byte	0x4e
 4623 0196 AD000000 		.4byte	0xad
 4624 019a 09       		.byte	0x9
 4625 019b 0A       		.uleb128 0xa
 4626 019c 690D0000 		.4byte	.LASF81
 4627 01a0 07       		.byte	0x7
 4628 01a1 4F       		.byte	0x4f
 4629 01a2 B8000000 		.4byte	0xb8
 4630 01a6 01       		.byte	0x1
 4631 01a7 02       		.byte	0x2
 4632 01a8 06       		.byte	0x6
 4633 01a9 0A       		.byte	0xa
 4634 01aa 08       		.uleb128 0x8
 4635 01ab 64736300 		.ascii	"dsc\000"
 4636 01af 07       		.byte	0x7
 4637 01b0 50       		.byte	0x50
 4638 01b1 FA000000 		.4byte	0xfa
 4639 01b5 0C       		.byte	0xc
 4640 01b6 00       		.byte	0
 4641 01b7 0B       		.uleb128 0xb
 4642 01b8 D5010000 		.4byte	0x1d5
 4643 01bc D5010000 		.4byte	0x1d5
 4644 01c0 0C       		.uleb128 0xc
 4645 01c1 DC010000 		.4byte	0x1dc
 4646 01c5 0C       		.uleb128 0xc
 4647 01c6 E7010000 		.4byte	0x1e7
 4648 01ca 0C       		.uleb128 0xc
 4649 01cb E4000000 		.4byte	0xe4
 4650 01cf 0C       		.uleb128 0xc
 4651 01d0 E4000000 		.4byte	0xe4
 4652 01d4 00       		.byte	0
 4653 01d5 03       		.uleb128 0x3
 4654 01d6 01       		.byte	0x1
 4655 01d7 02       		.byte	0x2
 4656 01d8 40050000 		.4byte	.LASF33
 4657 01dc 0D       		.uleb128 0xd
 4658 01dd 04       		.byte	0x4
 4659 01de E2010000 		.4byte	0x1e2
 4660 01e2 0E       		.uleb128 0xe
ARM GAS  C:\Users\tmj32\AppData\Local\Temp\cc11CUDk.s 			page 111


 4661 01e3 5F010000 		.4byte	0x15f
 4662 01e7 0D       		.uleb128 0xd
 4663 01e8 04       		.byte	0x4
 4664 01e9 54010000 		.4byte	0x154
 4665 01ed 0D       		.uleb128 0xd
 4666 01ee 04       		.byte	0x4
 4667 01ef B7010000 		.4byte	0x1b7
 4668 01f3 0B       		.uleb128 0xb
 4669 01f4 07020000 		.4byte	0x207
 4670 01f8 07020000 		.4byte	0x207
 4671 01fc 0C       		.uleb128 0xc
 4672 01fd DC010000 		.4byte	0x1dc
 4673 0201 0C       		.uleb128 0xc
 4674 0202 E4000000 		.4byte	0xe4
 4675 0206 00       		.byte	0
 4676 0207 0D       		.uleb128 0xd
 4677 0208 04       		.byte	0x4
 4678 0209 0D020000 		.4byte	0x20d
 4679 020d 0E       		.uleb128 0xe
 4680 020e B8000000 		.4byte	0xb8
 4681 0212 0D       		.uleb128 0xd
 4682 0213 04       		.byte	0x4
 4683 0214 F3010000 		.4byte	0x1f3
 4684 0218 02       		.uleb128 0x2
 4685 0219 90130000 		.4byte	.LASF34
 4686 021d 07       		.byte	0x7
 4687 021e 56       		.byte	0x56
 4688 021f 5F010000 		.4byte	0x15f
 4689 0223 0F       		.uleb128 0xf
 4690 0224 01       		.byte	0x1
 4691 0225 42000000 		.4byte	0x42
 4692 0229 01       		.byte	0x1
 4693 022a 3E       		.byte	0x3e
 4694 022b 7E020000 		.4byte	0x27e
 4695 022f 10       		.uleb128 0x10
 4696 0230 360B0000 		.4byte	.LASF35
 4697 0234 00       		.byte	0
 4698 0235 10       		.uleb128 0x10
 4699 0236 A5080000 		.4byte	.LASF36
 4700 023a 00       		.byte	0
 4701 023b 10       		.uleb128 0x10
 4702 023c 830F0000 		.4byte	.LASF37
 4703 0240 19       		.byte	0x19
 4704 0241 10       		.uleb128 0x10
 4705 0242 CF100000 		.4byte	.LASF38
 4706 0246 33       		.byte	0x33
 4707 0247 10       		.uleb128 0x10
 4708 0248 4A110000 		.4byte	.LASF39
 4709 024c 4C       		.byte	0x4c
 4710 024d 10       		.uleb128 0x10
 4711 024e F3110000 		.4byte	.LASF40
 4712 0252 66       		.byte	0x66
 4713 0253 10       		.uleb128 0x10
 4714 0254 88120000 		.4byte	.LASF41
 4715 0258 7F       		.byte	0x7f
 4716 0259 10       		.uleb128 0x10
 4717 025a 3D130000 		.4byte	.LASF42
ARM GAS  C:\Users\tmj32\AppData\Local\Temp\cc11CUDk.s 			page 112


 4718 025e 99       		.byte	0x99
 4719 025f 10       		.uleb128 0x10
 4720 0260 AE130000 		.4byte	.LASF43
 4721 0264 B2       		.byte	0xb2
 4722 0265 10       		.uleb128 0x10
 4723 0266 79140000 		.4byte	.LASF44
 4724 026a CC       		.byte	0xcc
 4725 026b 10       		.uleb128 0x10
 4726 026c 5C150000 		.4byte	.LASF45
 4727 0270 E5       		.byte	0xe5
 4728 0271 10       		.uleb128 0x10
 4729 0272 C20C0000 		.4byte	.LASF46
 4730 0276 FF       		.byte	0xff
 4731 0277 10       		.uleb128 0x10
 4732 0278 810D0000 		.4byte	.LASF47
 4733 027c FF       		.byte	0xff
 4734 027d 00       		.byte	0
 4735 027e 06       		.uleb128 0x6
 4736 027f 04       		.byte	0x4
 4737 0280 01       		.byte	0x1
 4738 0281 F3       		.byte	0xf3
 4739 0282 B7020000 		.4byte	0x2b7
 4740 0286 07       		.uleb128 0x7
 4741 0287 70040000 		.4byte	.LASF48
 4742 028b 01       		.byte	0x1
 4743 028c F5       		.byte	0xf5
 4744 028d B8000000 		.4byte	0xb8
 4745 0291 00       		.byte	0
 4746 0292 07       		.uleb128 0x7
 4747 0293 8A130000 		.4byte	.LASF49
 4748 0297 01       		.byte	0x1
 4749 0298 F6       		.byte	0xf6
 4750 0299 B8000000 		.4byte	0xb8
 4751 029d 01       		.byte	0x1
 4752 029e 08       		.uleb128 0x8
 4753 029f 72656400 		.ascii	"red\000"
 4754 02a3 01       		.byte	0x1
 4755 02a4 F7       		.byte	0xf7
 4756 02a5 B8000000 		.4byte	0xb8
 4757 02a9 02       		.byte	0x2
 4758 02aa 07       		.uleb128 0x7
 4759 02ab DA020000 		.4byte	.LASF50
 4760 02af 01       		.byte	0x1
 4761 02b0 F8       		.byte	0xf8
 4762 02b1 B8000000 		.4byte	0xb8
 4763 02b5 03       		.byte	0x3
 4764 02b6 00       		.byte	0
 4765 02b7 11       		.uleb128 0x11
 4766 02b8 04       		.byte	0x4
 4767 02b9 01       		.byte	0x1
 4768 02ba F1       		.byte	0xf1
 4769 02bb D5020000 		.4byte	0x2d5
 4770 02bf 12       		.uleb128 0x12
 4771 02c0 636800   		.ascii	"ch\000"
 4772 02c3 01       		.byte	0x1
 4773 02c4 F9       		.byte	0xf9
 4774 02c5 7E020000 		.4byte	0x27e
ARM GAS  C:\Users\tmj32\AppData\Local\Temp\cc11CUDk.s 			page 113


 4775 02c9 13       		.uleb128 0x13
 4776 02ca C2100000 		.4byte	.LASF51
 4777 02ce 01       		.byte	0x1
 4778 02cf FA       		.byte	0xfa
 4779 02d0 E4000000 		.4byte	0xe4
 4780 02d4 00       		.byte	0
 4781 02d5 02       		.uleb128 0x2
 4782 02d6 4B000000 		.4byte	.LASF52
 4783 02da 01       		.byte	0x1
 4784 02db FB       		.byte	0xfb
 4785 02dc B7020000 		.4byte	0x2b7
 4786 02e0 14       		.uleb128 0x14
 4787 02e1 FE0E0000 		.4byte	.LASF53
 4788 02e5 01       		.byte	0x1
 4789 02e6 0801     		.2byte	0x108
 4790 02e8 D5020000 		.4byte	0x2d5
 4791 02ec 14       		.uleb128 0x14
 4792 02ed 97000000 		.4byte	.LASF54
 4793 02f1 01       		.byte	0x1
 4794 02f2 0D01     		.2byte	0x10d
 4795 02f4 B8000000 		.4byte	0xb8
 4796 02f8 15       		.uleb128 0x15
 4797 02f9 04       		.byte	0x4
 4798 02fa 01       		.byte	0x1
 4799 02fb 0F01     		.2byte	0x10f
 4800 02fd 23030000 		.4byte	0x323
 4801 0301 16       		.uleb128 0x16
 4802 0302 6800     		.ascii	"h\000"
 4803 0304 01       		.byte	0x1
 4804 0305 1101     		.2byte	0x111
 4805 0307 CE000000 		.4byte	0xce
 4806 030b 00       		.byte	0
 4807 030c 16       		.uleb128 0x16
 4808 030d 7300     		.ascii	"s\000"
 4809 030f 01       		.byte	0x1
 4810 0310 1201     		.2byte	0x112
 4811 0312 B8000000 		.4byte	0xb8
 4812 0316 02       		.byte	0x2
 4813 0317 16       		.uleb128 0x16
 4814 0318 7600     		.ascii	"v\000"
 4815 031a 01       		.byte	0x1
 4816 031b 1301     		.2byte	0x113
 4817 031d B8000000 		.4byte	0xb8
 4818 0321 03       		.byte	0x3
 4819 0322 00       		.byte	0
 4820 0323 14       		.uleb128 0x14
 4821 0324 4B040000 		.4byte	.LASF55
 4822 0328 01       		.byte	0x1
 4823 0329 1401     		.2byte	0x114
 4824 032b F8020000 		.4byte	0x2f8
 4825 032f 03       		.uleb128 0x3
 4826 0330 04       		.byte	0x4
 4827 0331 07       		.byte	0x7
 4828 0332 35000000 		.4byte	.LASF56
 4829 0336 03       		.uleb128 0x3
 4830 0337 01       		.byte	0x1
 4831 0338 08       		.byte	0x8
ARM GAS  C:\Users\tmj32\AppData\Local\Temp\cc11CUDk.s 			page 114


 4832 0339 6B050000 		.4byte	.LASF57
 4833 033d 06       		.uleb128 0x6
 4834 033e 04       		.byte	0x4
 4835 033f 02       		.byte	0x2
 4836 0340 2A       		.byte	0x2a
 4837 0341 5A030000 		.4byte	0x35a
 4838 0345 08       		.uleb128 0x8
 4839 0346 7800     		.ascii	"x\000"
 4840 0348 02       		.byte	0x2
 4841 0349 2C       		.byte	0x2c
 4842 034a EF000000 		.4byte	0xef
 4843 034e 00       		.byte	0
 4844 034f 08       		.uleb128 0x8
 4845 0350 7900     		.ascii	"y\000"
 4846 0352 02       		.byte	0x2
 4847 0353 2D       		.byte	0x2d
 4848 0354 EF000000 		.4byte	0xef
 4849 0358 02       		.byte	0x2
 4850 0359 00       		.byte	0
 4851 035a 02       		.uleb128 0x2
 4852 035b C0000000 		.4byte	.LASF58
 4853 035f 02       		.byte	0x2
 4854 0360 2E       		.byte	0x2e
 4855 0361 3D030000 		.4byte	0x33d
 4856 0365 06       		.uleb128 0x6
 4857 0366 08       		.byte	0x8
 4858 0367 02       		.byte	0x2
 4859 0368 31       		.byte	0x31
 4860 0369 9A030000 		.4byte	0x39a
 4861 036d 08       		.uleb128 0x8
 4862 036e 783100   		.ascii	"x1\000"
 4863 0371 02       		.byte	0x2
 4864 0372 33       		.byte	0x33
 4865 0373 EF000000 		.4byte	0xef
 4866 0377 00       		.byte	0
 4867 0378 08       		.uleb128 0x8
 4868 0379 793100   		.ascii	"y1\000"
 4869 037c 02       		.byte	0x2
 4870 037d 34       		.byte	0x34
 4871 037e EF000000 		.4byte	0xef
 4872 0382 02       		.byte	0x2
 4873 0383 08       		.uleb128 0x8
 4874 0384 783200   		.ascii	"x2\000"
 4875 0387 02       		.byte	0x2
 4876 0388 35       		.byte	0x35
 4877 0389 EF000000 		.4byte	0xef
 4878 038d 04       		.byte	0x4
 4879 038e 08       		.uleb128 0x8
 4880 038f 793200   		.ascii	"y2\000"
 4881 0392 02       		.byte	0x2
 4882 0393 36       		.byte	0x36
 4883 0394 EF000000 		.4byte	0xef
 4884 0398 06       		.byte	0x6
 4885 0399 00       		.byte	0
 4886 039a 02       		.uleb128 0x2
 4887 039b F7060000 		.4byte	.LASF59
 4888 039f 02       		.byte	0x2
ARM GAS  C:\Users\tmj32\AppData\Local\Temp\cc11CUDk.s 			page 115


 4889 03a0 37       		.byte	0x37
 4890 03a1 65030000 		.4byte	0x365
 4891 03a5 02       		.uleb128 0x2
 4892 03a6 5B140000 		.4byte	.LASF60
 4893 03aa 08       		.byte	0x8
 4894 03ab 2C       		.byte	0x2c
 4895 03ac B8000000 		.4byte	0xb8
 4896 03b0 02       		.uleb128 0x2
 4897 03b1 0E110000 		.4byte	.LASF61
 4898 03b5 08       		.byte	0x8
 4899 03b6 33       		.byte	0x33
 4900 03b7 B8000000 		.4byte	0xb8
 4901 03bb 06       		.uleb128 0x6
 4902 03bc 08       		.byte	0x8
 4903 03bd 08       		.byte	0x8
 4904 03be 48       		.byte	0x48
 4905 03bf F4030000 		.4byte	0x3f4
 4906 03c3 07       		.uleb128 0x7
 4907 03c4 D9100000 		.4byte	.LASF62
 4908 03c8 08       		.byte	0x8
 4909 03c9 4A       		.byte	0x4a
 4910 03ca E0020000 		.4byte	0x2e0
 4911 03ce 00       		.byte	0
 4912 03cf 07       		.uleb128 0x7
 4913 03d0 900A0000 		.4byte	.LASF63
 4914 03d4 08       		.byte	0x8
 4915 03d5 4B       		.byte	0x4b
 4916 03d6 EF000000 		.4byte	0xef
 4917 03da 04       		.byte	0x4
 4918 03db 07       		.uleb128 0x7
 4919 03dc F9140000 		.4byte	.LASF64
 4920 03e0 08       		.byte	0x8
 4921 03e1 4C       		.byte	0x4c
 4922 03e2 A5030000 		.4byte	0x3a5
 4923 03e6 06       		.byte	0x6
 4924 03e7 08       		.uleb128 0x8
 4925 03e8 6F706100 		.ascii	"opa\000"
 4926 03ec 08       		.byte	0x8
 4927 03ed 4D       		.byte	0x4d
 4928 03ee EC020000 		.4byte	0x2ec
 4929 03f2 07       		.byte	0x7
 4930 03f3 00       		.byte	0
 4931 03f4 06       		.uleb128 0x6
 4932 03f5 08       		.byte	0x8
 4933 03f6 08       		.byte	0x8
 4934 03f7 51       		.byte	0x51
 4935 03f8 21040000 		.4byte	0x421
 4936 03fc 07       		.uleb128 0x7
 4937 03fd D9100000 		.4byte	.LASF62
 4938 0401 08       		.byte	0x8
 4939 0402 53       		.byte	0x53
 4940 0403 E0020000 		.4byte	0x2e0
 4941 0407 00       		.byte	0
 4942 0408 07       		.uleb128 0x7
 4943 0409 900A0000 		.4byte	.LASF63
 4944 040d 08       		.byte	0x8
 4945 040e 54       		.byte	0x54
ARM GAS  C:\Users\tmj32\AppData\Local\Temp\cc11CUDk.s 			page 116


 4946 040f EF000000 		.4byte	0xef
 4947 0413 04       		.byte	0x4
 4948 0414 07       		.uleb128 0x7
 4949 0415 1C020000 		.4byte	.LASF65
 4950 0419 08       		.byte	0x8
 4951 041a 55       		.byte	0x55
 4952 041b B0030000 		.4byte	0x3b0
 4953 041f 06       		.byte	0x6
 4954 0420 00       		.byte	0
 4955 0421 06       		.uleb128 0x6
 4956 0422 0A       		.byte	0xa
 4957 0423 08       		.byte	0x8
 4958 0424 58       		.byte	0x58
 4959 0425 66040000 		.4byte	0x466
 4960 0429 08       		.uleb128 0x8
 4961 042a 746F7000 		.ascii	"top\000"
 4962 042e 08       		.byte	0x8
 4963 042f 5A       		.byte	0x5a
 4964 0430 EF000000 		.4byte	0xef
 4965 0434 00       		.byte	0
 4966 0435 07       		.uleb128 0x7
 4967 0436 A80A0000 		.4byte	.LASF66
 4968 043a 08       		.byte	0x8
 4969 043b 5B       		.byte	0x5b
 4970 043c EF000000 		.4byte	0xef
 4971 0440 02       		.byte	0x2
 4972 0441 07       		.uleb128 0x7
 4973 0442 2B070000 		.4byte	.LASF67
 4974 0446 08       		.byte	0x8
 4975 0447 5C       		.byte	0x5c
 4976 0448 EF000000 		.4byte	0xef
 4977 044c 04       		.byte	0x4
 4978 044d 07       		.uleb128 0x7
 4979 044e D7090000 		.4byte	.LASF68
 4980 0452 08       		.byte	0x8
 4981 0453 5D       		.byte	0x5d
 4982 0454 EF000000 		.4byte	0xef
 4983 0458 06       		.byte	0x6
 4984 0459 07       		.uleb128 0x7
 4985 045a D7070000 		.4byte	.LASF69
 4986 045e 08       		.byte	0x8
 4987 045f 5E       		.byte	0x5e
 4988 0460 EF000000 		.4byte	0xef
 4989 0464 08       		.byte	0x8
 4990 0465 00       		.byte	0
 4991 0466 06       		.uleb128 0x6
 4992 0467 28       		.byte	0x28
 4993 0468 08       		.byte	0x8
 4994 0469 41       		.byte	0x41
 4995 046a C3040000 		.4byte	0x4c3
 4996 046e 07       		.uleb128 0x7
 4997 046f 3F0E0000 		.4byte	.LASF70
 4998 0473 08       		.byte	0x8
 4999 0474 43       		.byte	0x43
 5000 0475 E0020000 		.4byte	0x2e0
 5001 0479 00       		.byte	0
 5002 047a 07       		.uleb128 0x7
ARM GAS  C:\Users\tmj32\AppData\Local\Temp\cc11CUDk.s 			page 117


 5003 047b 650C0000 		.4byte	.LASF71
 5004 047f 08       		.byte	0x8
 5005 0480 44       		.byte	0x44
 5006 0481 E0020000 		.4byte	0x2e0
 5007 0485 04       		.byte	0x4
 5008 0486 07       		.uleb128 0x7
 5009 0487 0A010000 		.4byte	.LASF72
 5010 048b 08       		.byte	0x8
 5011 048c 45       		.byte	0x45
 5012 048d EF000000 		.4byte	0xef
 5013 0491 08       		.byte	0x8
 5014 0492 08       		.uleb128 0x8
 5015 0493 6F706100 		.ascii	"opa\000"
 5016 0497 08       		.byte	0x8
 5017 0498 46       		.byte	0x46
 5018 0499 EC020000 		.4byte	0x2ec
 5019 049d 0A       		.byte	0xa
 5020 049e 07       		.uleb128 0x7
 5021 049f 2E140000 		.4byte	.LASF73
 5022 04a3 08       		.byte	0x8
 5023 04a4 4E       		.byte	0x4e
 5024 04a5 BB030000 		.4byte	0x3bb
 5025 04a9 0C       		.byte	0xc
 5026 04aa 07       		.uleb128 0x7
 5027 04ab 71120000 		.4byte	.LASF74
 5028 04af 08       		.byte	0x8
 5029 04b0 56       		.byte	0x56
 5030 04b1 F4030000 		.4byte	0x3f4
 5031 04b5 14       		.byte	0x14
 5032 04b6 07       		.uleb128 0x7
 5033 04b7 2B130000 		.4byte	.LASF75
 5034 04bb 08       		.byte	0x8
 5035 04bc 5F       		.byte	0x5f
 5036 04bd 21040000 		.4byte	0x421
 5037 04c1 1C       		.byte	0x1c
 5038 04c2 00       		.byte	0
 5039 04c3 06       		.uleb128 0x6
 5040 04c4 14       		.byte	0x14
 5041 04c5 08       		.byte	0x8
 5042 04c6 63       		.byte	0x63
 5043 04c7 14050000 		.4byte	0x514
 5044 04cb 07       		.uleb128 0x7
 5045 04cc D9100000 		.4byte	.LASF62
 5046 04d0 08       		.byte	0x8
 5047 04d1 65       		.byte	0x65
 5048 04d2 E0020000 		.4byte	0x2e0
 5049 04d6 00       		.byte	0
 5050 04d7 07       		.uleb128 0x7
 5051 04d8 CC140000 		.4byte	.LASF76
 5052 04dc 08       		.byte	0x8
 5053 04dd 66       		.byte	0x66
 5054 04de E0020000 		.4byte	0x2e0
 5055 04e2 04       		.byte	0x4
 5056 04e3 07       		.uleb128 0x7
 5057 04e4 2E110000 		.4byte	.LASF77
 5058 04e8 08       		.byte	0x8
 5059 04e9 67       		.byte	0x67
ARM GAS  C:\Users\tmj32\AppData\Local\Temp\cc11CUDk.s 			page 118


 5060 04ea 14050000 		.4byte	0x514
 5061 04ee 08       		.byte	0x8
 5062 04ef 07       		.uleb128 0x7
 5063 04f0 33110000 		.4byte	.LASF78
 5064 04f4 08       		.byte	0x8
 5065 04f5 68       		.byte	0x68
 5066 04f6 EF000000 		.4byte	0xef
 5067 04fa 0C       		.byte	0xc
 5068 04fb 07       		.uleb128 0x7
 5069 04fc EE100000 		.4byte	.LASF79
 5070 0500 08       		.byte	0x8
 5071 0501 69       		.byte	0x69
 5072 0502 EF000000 		.4byte	0xef
 5073 0506 0E       		.byte	0xe
 5074 0507 08       		.uleb128 0x8
 5075 0508 6F706100 		.ascii	"opa\000"
 5076 050c 08       		.byte	0x8
 5077 050d 6A       		.byte	0x6a
 5078 050e EC020000 		.4byte	0x2ec
 5079 0512 10       		.byte	0x10
 5080 0513 00       		.byte	0
 5081 0514 0D       		.uleb128 0xd
 5082 0515 04       		.byte	0x4
 5083 0516 1A050000 		.4byte	0x51a
 5084 051a 0E       		.uleb128 0xe
 5085 051b 18020000 		.4byte	0x218
 5086 051f 06       		.uleb128 0x6
 5087 0520 08       		.byte	0x8
 5088 0521 08       		.byte	0x8
 5089 0522 6E       		.byte	0x6e
 5090 0523 4C050000 		.4byte	0x54c
 5091 0527 07       		.uleb128 0x7
 5092 0528 D9100000 		.4byte	.LASF62
 5093 052c 08       		.byte	0x8
 5094 052d 70       		.byte	0x70
 5095 052e E0020000 		.4byte	0x2e0
 5096 0532 00       		.byte	0
 5097 0533 07       		.uleb128 0x7
 5098 0534 A8000000 		.4byte	.LASF80
 5099 0538 08       		.byte	0x8
 5100 0539 71       		.byte	0x71
 5101 053a EC020000 		.4byte	0x2ec
 5102 053e 04       		.byte	0x4
 5103 053f 08       		.uleb128 0x8
 5104 0540 6F706100 		.ascii	"opa\000"
 5105 0544 08       		.byte	0x8
 5106 0545 72       		.byte	0x72
 5107 0546 EC020000 		.4byte	0x2ec
 5108 054a 05       		.byte	0x5
 5109 054b 00       		.byte	0
 5110 054c 06       		.uleb128 0x6
 5111 054d 08       		.byte	0x8
 5112 054e 08       		.byte	0x8
 5113 054f 76       		.byte	0x76
 5114 0550 88050000 		.4byte	0x588
 5115 0554 07       		.uleb128 0x7
 5116 0555 D9100000 		.4byte	.LASF62
ARM GAS  C:\Users\tmj32\AppData\Local\Temp\cc11CUDk.s 			page 119


 5117 0559 08       		.byte	0x8
 5118 055a 78       		.byte	0x78
 5119 055b E0020000 		.4byte	0x2e0
 5120 055f 00       		.byte	0
 5121 0560 07       		.uleb128 0x7
 5122 0561 900A0000 		.4byte	.LASF63
 5123 0565 08       		.byte	0x8
 5124 0566 79       		.byte	0x79
 5125 0567 EF000000 		.4byte	0xef
 5126 056b 04       		.byte	0x4
 5127 056c 08       		.uleb128 0x8
 5128 056d 6F706100 		.ascii	"opa\000"
 5129 0571 08       		.byte	0x8
 5130 0572 7A       		.byte	0x7a
 5131 0573 EC020000 		.4byte	0x2ec
 5132 0577 06       		.byte	0x6
 5133 0578 0A       		.uleb128 0xa
 5134 0579 7E060000 		.4byte	.LASF82
 5135 057d 08       		.byte	0x8
 5136 057e 7B       		.byte	0x7b
 5137 057f B8000000 		.4byte	0xb8
 5138 0583 01       		.byte	0x1
 5139 0584 01       		.byte	0x1
 5140 0585 07       		.byte	0x7
 5141 0586 07       		.byte	0x7
 5142 0587 00       		.byte	0
 5143 0588 06       		.uleb128 0x6
 5144 0589 50       		.byte	0x50
 5145 058a 08       		.byte	0x8
 5146 058b 3C       		.byte	0x3c
 5147 058c D0050000 		.4byte	0x5d0
 5148 0590 0A       		.uleb128 0xa
 5149 0591 440B0000 		.4byte	.LASF83
 5150 0595 08       		.byte	0x8
 5151 0596 3E       		.byte	0x3e
 5152 0597 B8000000 		.4byte	0xb8
 5153 059b 01       		.byte	0x1
 5154 059c 01       		.byte	0x1
 5155 059d 07       		.byte	0x7
 5156 059e 00       		.byte	0
 5157 059f 07       		.uleb128 0x7
 5158 05a0 98050000 		.4byte	.LASF84
 5159 05a4 08       		.byte	0x8
 5160 05a5 60       		.byte	0x60
 5161 05a6 66040000 		.4byte	0x466
 5162 05aa 04       		.byte	0x4
 5163 05ab 07       		.uleb128 0x7
 5164 05ac 57060000 		.4byte	.LASF85
 5165 05b0 08       		.byte	0x8
 5166 05b1 6B       		.byte	0x6b
 5167 05b2 C3040000 		.4byte	0x4c3
 5168 05b6 2C       		.byte	0x2c
 5169 05b7 07       		.uleb128 0x7
 5170 05b8 78060000 		.4byte	.LASF86
 5171 05bc 08       		.byte	0x8
 5172 05bd 73       		.byte	0x73
 5173 05be 1F050000 		.4byte	0x51f
ARM GAS  C:\Users\tmj32\AppData\Local\Temp\cc11CUDk.s 			page 120


 5174 05c2 40       		.byte	0x40
 5175 05c3 07       		.uleb128 0x7
 5176 05c4 79080000 		.4byte	.LASF87
 5177 05c8 08       		.byte	0x8
 5178 05c9 7C       		.byte	0x7c
 5179 05ca 4C050000 		.4byte	0x54c
 5180 05ce 48       		.byte	0x48
 5181 05cf 00       		.byte	0
 5182 05d0 02       		.uleb128 0x2
 5183 05d1 CC070000 		.4byte	.LASF88
 5184 05d5 08       		.byte	0x8
 5185 05d6 84       		.byte	0x84
 5186 05d7 88050000 		.4byte	0x588
 5187 05db 0D       		.uleb128 0xd
 5188 05dc 04       		.byte	0x4
 5189 05dd D0050000 		.4byte	0x5d0
 5190 05e1 0F       		.uleb128 0xf
 5191 05e2 01       		.byte	0x1
 5192 05e3 42000000 		.4byte	0x42
 5193 05e7 09       		.byte	0x9
 5194 05e8 27       		.byte	0x27
 5195 05e9 FA050000 		.4byte	0x5fa
 5196 05ed 10       		.uleb128 0x10
 5197 05ee E5010000 		.4byte	.LASF89
 5198 05f2 00       		.byte	0
 5199 05f3 10       		.uleb128 0x10
 5200 05f4 DD0E0000 		.4byte	.LASF90
 5201 05f8 01       		.byte	0x1
 5202 05f9 00       		.byte	0
 5203 05fa 02       		.uleb128 0x2
 5204 05fb EA0C0000 		.4byte	.LASF91
 5205 05ff 09       		.byte	0x9
 5206 0600 2C       		.byte	0x2c
 5207 0601 B8000000 		.4byte	0xb8
 5208 0605 02       		.uleb128 0x2
 5209 0606 18000000 		.4byte	.LASF92
 5210 060a 0A       		.byte	0xa
 5211 060b 1E       		.byte	0x1e
 5212 060c B8000000 		.4byte	0xb8
 5213 0610 06       		.uleb128 0x6
 5214 0611 0C       		.byte	0xc
 5215 0612 0A       		.byte	0xa
 5216 0613 21       		.byte	0x21
 5217 0614 3D060000 		.4byte	0x63d
 5218 0618 07       		.uleb128 0x7
 5219 0619 FE140000 		.4byte	.LASF93
 5220 061d 0A       		.byte	0xa
 5221 061e 23       		.byte	0x23
 5222 061f E4000000 		.4byte	0xe4
 5223 0623 00       		.byte	0
 5224 0624 07       		.uleb128 0x7
 5225 0625 BC030000 		.4byte	.LASF94
 5226 0629 0A       		.byte	0xa
 5227 062a 24       		.byte	0x24
 5228 062b 3D060000 		.4byte	0x63d
 5229 062f 04       		.byte	0x4
 5230 0630 07       		.uleb128 0x7
ARM GAS  C:\Users\tmj32\AppData\Local\Temp\cc11CUDk.s 			page 121


 5231 0631 5D000000 		.4byte	.LASF95
 5232 0635 0A       		.byte	0xa
 5233 0636 25       		.byte	0x25
 5234 0637 3D060000 		.4byte	0x63d
 5235 063b 08       		.byte	0x8
 5236 063c 00       		.byte	0
 5237 063d 0D       		.uleb128 0xd
 5238 063e 04       		.byte	0x4
 5239 063f 05060000 		.4byte	0x605
 5240 0643 02       		.uleb128 0x2
 5241 0644 DF110000 		.4byte	.LASF96
 5242 0648 0A       		.byte	0xa
 5243 0649 26       		.byte	0x26
 5244 064a 10060000 		.4byte	0x610
 5245 064e 02       		.uleb128 0x2
 5246 064f A2060000 		.4byte	.LASF97
 5247 0653 0B       		.byte	0xb
 5248 0654 30       		.byte	0x30
 5249 0655 B8000000 		.4byte	0xb8
 5250 0659 02       		.uleb128 0x2
 5251 065a D6140000 		.4byte	.LASF98
 5252 065e 0C       		.byte	0xc
 5253 065f 2B       		.byte	0x2b
 5254 0660 64060000 		.4byte	0x664
 5255 0664 0D       		.uleb128 0xd
 5256 0665 04       		.byte	0x4
 5257 0666 6A060000 		.4byte	0x66a
 5258 066a 17       		.uleb128 0x17
 5259 066b 75060000 		.4byte	0x675
 5260 066f 0C       		.uleb128 0xc
 5261 0670 75060000 		.4byte	0x675
 5262 0674 00       		.byte	0
 5263 0675 0D       		.uleb128 0xd
 5264 0676 04       		.byte	0x4
 5265 0677 7B060000 		.4byte	0x67b
 5266 067b 09       		.uleb128 0x9
 5267 067c B7050000 		.4byte	.LASF100
 5268 0680 14       		.byte	0x14
 5269 0681 0C       		.byte	0xc
 5270 0682 3E       		.byte	0x3e
 5271 0683 D6060000 		.4byte	0x6d6
 5272 0687 07       		.uleb128 0x7
 5273 0688 6C100000 		.4byte	.LASF101
 5274 068c 0C       		.byte	0xc
 5275 068d 40       		.byte	0x40
 5276 068e E4000000 		.4byte	0xe4
 5277 0692 00       		.byte	0
 5278 0693 07       		.uleb128 0x7
 5279 0694 E70E0000 		.4byte	.LASF102
 5280 0698 0C       		.byte	0xc
 5281 0699 41       		.byte	0x41
 5282 069a E4000000 		.4byte	0xe4
 5283 069e 04       		.byte	0x4
 5284 069f 07       		.uleb128 0x7
 5285 06a0 F7040000 		.4byte	.LASF103
 5286 06a4 0C       		.byte	0xc
 5287 06a5 42       		.byte	0x42
ARM GAS  C:\Users\tmj32\AppData\Local\Temp\cc11CUDk.s 			page 122


 5288 06a6 59060000 		.4byte	0x659
 5289 06aa 08       		.byte	0x8
 5290 06ab 07       		.uleb128 0x7
 5291 06ac FC130000 		.4byte	.LASF104
 5292 06b0 0C       		.byte	0xc
 5293 06b1 44       		.byte	0x44
 5294 06b2 FA000000 		.4byte	0xfa
 5295 06b6 0C       		.byte	0xc
 5296 06b7 0A       		.uleb128 0xa
 5297 06b8 7F020000 		.4byte	.LASF105
 5298 06bc 0C       		.byte	0xc
 5299 06bd 46       		.byte	0x46
 5300 06be B8000000 		.4byte	0xb8
 5301 06c2 01       		.byte	0x1
 5302 06c3 03       		.byte	0x3
 5303 06c4 05       		.byte	0x5
 5304 06c5 10       		.byte	0x10
 5305 06c6 0A       		.uleb128 0xa
 5306 06c7 330C0000 		.4byte	.LASF106
 5307 06cb 0C       		.byte	0xc
 5308 06cc 47       		.byte	0x47
 5309 06cd B8000000 		.4byte	0xb8
 5310 06d1 01       		.byte	0x1
 5311 06d2 01       		.byte	0x1
 5312 06d3 04       		.byte	0x4
 5313 06d4 10       		.byte	0x10
 5314 06d5 00       		.byte	0
 5315 06d6 02       		.uleb128 0x2
 5316 06d7 2A0F0000 		.4byte	.LASF107
 5317 06db 0C       		.byte	0xc
 5318 06dc 48       		.byte	0x48
 5319 06dd 7B060000 		.4byte	0x67b
 5320 06e1 06       		.uleb128 0x6
 5321 06e2 1C       		.byte	0x1c
 5322 06e3 0D       		.byte	0xd
 5323 06e4 2F       		.byte	0x2f
 5324 06e5 35070000 		.4byte	0x735
 5325 06e9 07       		.uleb128 0x7
 5326 06ea C60A0000 		.4byte	.LASF108
 5327 06ee 0D       		.byte	0xd
 5328 06ef 31       		.byte	0x31
 5329 06f0 FA000000 		.4byte	0xfa
 5330 06f4 00       		.byte	0
 5331 06f5 07       		.uleb128 0x7
 5332 06f6 CB0A0000 		.4byte	.LASF109
 5333 06fa 0D       		.byte	0xd
 5334 06fb 32       		.byte	0x32
 5335 06fc FA000000 		.4byte	0xfa
 5336 0700 04       		.byte	0x4
 5337 0701 07       		.uleb128 0x7
 5338 0702 F30C0000 		.4byte	.LASF110
 5339 0706 0D       		.byte	0xd
 5340 0707 35       		.byte	0x35
 5341 0708 FA000000 		.4byte	0xfa
 5342 070c 08       		.byte	0x8
 5343 070d 07       		.uleb128 0x7
 5344 070e 700E0000 		.4byte	.LASF111
ARM GAS  C:\Users\tmj32\AppData\Local\Temp\cc11CUDk.s 			page 123


 5345 0712 0D       		.byte	0xd
 5346 0713 36       		.byte	0x36
 5347 0714 E4000000 		.4byte	0xe4
 5348 0718 0C       		.byte	0xc
 5349 0719 07       		.uleb128 0x7
 5350 071a BE070000 		.4byte	.LASF112
 5351 071e 0D       		.byte	0xd
 5352 071f 37       		.byte	0x37
 5353 0720 9A030000 		.4byte	0x39a
 5354 0724 10       		.byte	0x10
 5355 0725 0A       		.uleb128 0xa
 5356 0726 0E060000 		.4byte	.LASF113
 5357 072a 0D       		.byte	0xd
 5358 072b 38       		.byte	0x38
 5359 072c 35070000 		.4byte	0x735
 5360 0730 04       		.byte	0x4
 5361 0731 01       		.byte	0x1
 5362 0732 1F       		.byte	0x1f
 5363 0733 18       		.byte	0x18
 5364 0734 00       		.byte	0
 5365 0735 18       		.uleb128 0x18
 5366 0736 E4000000 		.4byte	0xe4
 5367 073a 02       		.uleb128 0x2
 5368 073b A2090000 		.4byte	.LASF114
 5369 073f 0D       		.byte	0xd
 5370 0740 39       		.byte	0x39
 5371 0741 E1060000 		.4byte	0x6e1
 5372 0745 09       		.uleb128 0x9
 5373 0746 0B090000 		.4byte	.LASF115
 5374 074a 20       		.byte	0x20
 5375 074b 0D       		.byte	0xd
 5376 074c 3E       		.byte	0x3e
 5377 074d C1070000 		.4byte	0x7c1
 5378 0751 07       		.uleb128 0x7
 5379 0752 1D040000 		.4byte	.LASF116
 5380 0756 0D       		.byte	0xd
 5381 0757 41       		.byte	0x41
 5382 0758 EF000000 		.4byte	0xef
 5383 075c 00       		.byte	0
 5384 075d 07       		.uleb128 0x7
 5385 075e E0020000 		.4byte	.LASF117
 5386 0762 0D       		.byte	0xd
 5387 0763 42       		.byte	0x42
 5388 0764 EF000000 		.4byte	0xef
 5389 0768 02       		.byte	0x2
 5390 0769 07       		.uleb128 0x7
 5391 076a 13070000 		.4byte	.LASF118
 5392 076e 0D       		.byte	0xd
 5393 076f 46       		.byte	0x46
 5394 0770 C1070000 		.4byte	0x7c1
 5395 0774 04       		.byte	0x4
 5396 0775 0A       		.uleb128 0xa
 5397 0776 5A030000 		.4byte	.LASF119
 5398 077a 0D       		.byte	0xd
 5399 077b 4B       		.byte	0x4b
 5400 077c E4000000 		.4byte	0xe4
 5401 0780 04       		.byte	0x4
ARM GAS  C:\Users\tmj32\AppData\Local\Temp\cc11CUDk.s 			page 124


 5402 0781 01       		.byte	0x1
 5403 0782 1F       		.byte	0x1f
 5404 0783 08       		.byte	0x8
 5405 0784 07       		.uleb128 0x7
 5406 0785 F3130000 		.4byte	.LASF120
 5407 0789 0D       		.byte	0xd
 5408 078a 55       		.byte	0x55
 5409 078b F3070000 		.4byte	0x7f3
 5410 078f 0C       		.byte	0xc
 5411 0790 07       		.uleb128 0x7
 5412 0791 73100000 		.4byte	.LASF121
 5413 0795 0D       		.byte	0xd
 5414 0796 59       		.byte	0x59
 5415 0797 0F080000 		.4byte	0x80f
 5416 079b 10       		.byte	0x10
 5417 079c 07       		.uleb128 0x7
 5418 079d FF030000 		.4byte	.LASF122
 5419 07a1 0D       		.byte	0xd
 5420 07a2 5E       		.byte	0x5e
 5421 07a3 44080000 		.4byte	0x844
 5422 07a7 14       		.byte	0x14
 5423 07a8 07       		.uleb128 0x7
 5424 07a9 A3130000 		.4byte	.LASF123
 5425 07ad 0D       		.byte	0xd
 5426 07ae 63       		.byte	0x63
 5427 07af 5F080000 		.4byte	0x85f
 5428 07b3 18       		.byte	0x18
 5429 07b4 07       		.uleb128 0x7
 5430 07b5 07000000 		.4byte	.LASF124
 5431 07b9 0D       		.byte	0xd
 5432 07ba 71       		.byte	0x71
 5433 07bb E0020000 		.4byte	0x2e0
 5434 07bf 1C       		.byte	0x1c
 5435 07c0 00       		.byte	0
 5436 07c1 0D       		.uleb128 0xd
 5437 07c2 04       		.byte	0x4
 5438 07c3 3A070000 		.4byte	0x73a
 5439 07c7 17       		.uleb128 0x17
 5440 07c8 DC070000 		.4byte	0x7dc
 5441 07cc 0C       		.uleb128 0xc
 5442 07cd DC070000 		.4byte	0x7dc
 5443 07d1 0C       		.uleb128 0xc
 5444 07d2 E2070000 		.4byte	0x7e2
 5445 07d6 0C       		.uleb128 0xc
 5446 07d7 ED070000 		.4byte	0x7ed
 5447 07db 00       		.byte	0
 5448 07dc 0D       		.uleb128 0xd
 5449 07dd 04       		.byte	0x4
 5450 07de 45070000 		.4byte	0x745
 5451 07e2 0D       		.uleb128 0xd
 5452 07e3 04       		.byte	0x4
 5453 07e4 E8070000 		.4byte	0x7e8
 5454 07e8 0E       		.uleb128 0xe
 5455 07e9 9A030000 		.4byte	0x39a
 5456 07ed 0D       		.uleb128 0xd
 5457 07ee 04       		.byte	0x4
 5458 07ef E0020000 		.4byte	0x2e0
ARM GAS  C:\Users\tmj32\AppData\Local\Temp\cc11CUDk.s 			page 125


 5459 07f3 0D       		.uleb128 0xd
 5460 07f4 04       		.byte	0x4
 5461 07f5 C7070000 		.4byte	0x7c7
 5462 07f9 17       		.uleb128 0x17
 5463 07fa 09080000 		.4byte	0x809
 5464 07fe 0C       		.uleb128 0xc
 5465 07ff DC070000 		.4byte	0x7dc
 5466 0803 0C       		.uleb128 0xc
 5467 0804 09080000 		.4byte	0x809
 5468 0808 00       		.byte	0
 5469 0809 0D       		.uleb128 0xd
 5470 080a 04       		.byte	0x4
 5471 080b 9A030000 		.4byte	0x39a
 5472 080f 0D       		.uleb128 0xd
 5473 0810 04       		.byte	0x4
 5474 0811 F9070000 		.4byte	0x7f9
 5475 0815 17       		.uleb128 0x17
 5476 0816 3E080000 		.4byte	0x83e
 5477 081a 0C       		.uleb128 0xc
 5478 081b DC070000 		.4byte	0x7dc
 5479 081f 0C       		.uleb128 0xc
 5480 0820 3E080000 		.4byte	0x83e
 5481 0824 0C       		.uleb128 0xc
 5482 0825 EF000000 		.4byte	0xef
 5483 0829 0C       		.uleb128 0xc
 5484 082a EF000000 		.4byte	0xef
 5485 082e 0C       		.uleb128 0xc
 5486 082f EF000000 		.4byte	0xef
 5487 0833 0C       		.uleb128 0xc
 5488 0834 E0020000 		.4byte	0x2e0
 5489 0838 0C       		.uleb128 0xc
 5490 0839 EC020000 		.4byte	0x2ec
 5491 083d 00       		.byte	0
 5492 083e 0D       		.uleb128 0xd
 5493 083f 04       		.byte	0x4
 5494 0840 B8000000 		.4byte	0xb8
 5495 0844 0D       		.uleb128 0xd
 5496 0845 04       		.byte	0x4
 5497 0846 15080000 		.4byte	0x815
 5498 084a 17       		.uleb128 0x17
 5499 084b 5F080000 		.4byte	0x85f
 5500 084f 0C       		.uleb128 0xc
 5501 0850 DC070000 		.4byte	0x7dc
 5502 0854 0C       		.uleb128 0xc
 5503 0855 E4000000 		.4byte	0xe4
 5504 0859 0C       		.uleb128 0xc
 5505 085a E4000000 		.4byte	0xe4
 5506 085e 00       		.byte	0
 5507 085f 0D       		.uleb128 0xd
 5508 0860 04       		.byte	0x4
 5509 0861 4A080000 		.4byte	0x84a
 5510 0865 02       		.uleb128 0x2
 5511 0866 0C130000 		.4byte	.LASF125
 5512 086a 0D       		.byte	0xd
 5513 086b 77       		.byte	0x77
 5514 086c 45070000 		.4byte	0x745
 5515 0870 19       		.uleb128 0x19
ARM GAS  C:\Users\tmj32\AppData\Local\Temp\cc11CUDk.s 			page 126


 5516 0871 8C0C0000 		.4byte	.LASF126
 5517 0875 6401     		.2byte	0x164
 5518 0877 0D       		.byte	0xd
 5519 0878 7F       		.byte	0x7f
 5520 0879 FC080000 		.4byte	0x8fc
 5521 087d 07       		.uleb128 0x7
 5522 087e 07110000 		.4byte	.LASF127
 5523 0882 0D       		.byte	0xd
 5524 0883 82       		.byte	0x82
 5525 0884 65080000 		.4byte	0x865
 5526 0888 00       		.byte	0
 5527 0889 07       		.uleb128 0x7
 5528 088a 50030000 		.4byte	.LASF128
 5529 088e 0D       		.byte	0xd
 5530 088f 85       		.byte	0x85
 5531 0890 FC080000 		.4byte	0x8fc
 5532 0894 20       		.byte	0x20
 5533 0895 07       		.uleb128 0x7
 5534 0896 84020000 		.4byte	.LASF129
 5535 089a 0D       		.byte	0xd
 5536 089b 88       		.byte	0x88
 5537 089c 43060000 		.4byte	0x643
 5538 08a0 24       		.byte	0x24
 5539 08a1 07       		.uleb128 0x7
 5540 08a2 85000000 		.4byte	.LASF130
 5541 08a6 0D       		.byte	0xd
 5542 08a7 89       		.byte	0x89
 5543 08a8 440A0000 		.4byte	0xa44
 5544 08ac 30       		.byte	0x30
 5545 08ad 07       		.uleb128 0x7
 5546 08ae A4040000 		.4byte	.LASF131
 5547 08b2 0D       		.byte	0xd
 5548 08b3 8A       		.byte	0x8a
 5549 08b4 440A0000 		.4byte	0xa44
 5550 08b8 34       		.byte	0x34
 5551 08b9 07       		.uleb128 0x7
 5552 08ba 3F120000 		.4byte	.LASF132
 5553 08be 0D       		.byte	0xd
 5554 08bf 8B       		.byte	0x8b
 5555 08c0 440A0000 		.4byte	0xa44
 5556 08c4 38       		.byte	0x38
 5557 08c5 07       		.uleb128 0x7
 5558 08c6 030C0000 		.4byte	.LASF133
 5559 08ca 0D       		.byte	0xd
 5560 08cb 8E       		.byte	0x8e
 5561 08cc 4A0A0000 		.4byte	0xa4a
 5562 08d0 3C       		.byte	0x3c
 5563 08d1 1A       		.uleb128 0x1a
 5564 08d2 5B050000 		.4byte	.LASF134
 5565 08d6 0D       		.byte	0xd
 5566 08d7 8F       		.byte	0x8f
 5567 08d8 5A0A0000 		.4byte	0xa5a
 5568 08dc 3C01     		.2byte	0x13c
 5569 08de 1B       		.uleb128 0x1b
 5570 08df D9110000 		.4byte	.LASF135
 5571 08e3 0D       		.byte	0xd
 5572 08e4 90       		.byte	0x90
ARM GAS  C:\Users\tmj32\AppData\Local\Temp\cc11CUDk.s 			page 127


 5573 08e5 E4000000 		.4byte	0xe4
 5574 08e9 04       		.byte	0x4
 5575 08ea 0A       		.byte	0xa
 5576 08eb 16       		.byte	0x16
 5577 08ec 5C01     		.2byte	0x15c
 5578 08ee 1A       		.uleb128 0x1a
 5579 08ef 34030000 		.4byte	.LASF136
 5580 08f3 0D       		.byte	0xd
 5581 08f4 93       		.byte	0x93
 5582 08f5 E4000000 		.4byte	0xe4
 5583 08f9 6001     		.2byte	0x160
 5584 08fb 00       		.byte	0
 5585 08fc 0D       		.uleb128 0xd
 5586 08fd 04       		.byte	0x4
 5587 08fe D6060000 		.4byte	0x6d6
 5588 0902 09       		.uleb128 0x9
 5589 0903 24110000 		.4byte	.LASF137
 5590 0907 40       		.byte	0x40
 5591 0908 0E       		.byte	0xe
 5592 0909 BB       		.byte	0xbb
 5593 090a 440A0000 		.4byte	0xa44
 5594 090e 08       		.uleb128 0x8
 5595 090f 70617200 		.ascii	"par\000"
 5596 0913 0E       		.byte	0xe
 5597 0914 BD       		.byte	0xbd
 5598 0915 440A0000 		.4byte	0xa44
 5599 0919 00       		.byte	0
 5600 091a 07       		.uleb128 0x7
 5601 091b AF0A0000 		.4byte	.LASF138
 5602 091f 0E       		.byte	0xe
 5603 0920 BE       		.byte	0xbe
 5604 0921 43060000 		.4byte	0x643
 5605 0925 04       		.byte	0x4
 5606 0926 07       		.uleb128 0x7
 5607 0927 18120000 		.4byte	.LASF139
 5608 092b 0E       		.byte	0xe
 5609 092c C0       		.byte	0xc0
 5610 092d 9A030000 		.4byte	0x39a
 5611 0931 10       		.byte	0x10
 5612 0932 07       		.uleb128 0x7
 5613 0933 CE090000 		.4byte	.LASF140
 5614 0937 0E       		.byte	0xe
 5615 0938 C2       		.byte	0xc2
 5616 0939 2F0E0000 		.4byte	0xe2f
 5617 093d 18       		.byte	0x18
 5618 093e 07       		.uleb128 0x7
 5619 093f 33130000 		.4byte	.LASF141
 5620 0943 0E       		.byte	0xe
 5621 0944 C3       		.byte	0xc3
 5622 0945 E00E0000 		.4byte	0xee0
 5623 0949 1C       		.byte	0x1c
 5624 094a 07       		.uleb128 0x7
 5625 094b EF050000 		.4byte	.LASF142
 5626 094f 0E       		.byte	0xe
 5627 0950 C4       		.byte	0xc4
 5628 0951 750D0000 		.4byte	0xd75
 5629 0955 20       		.byte	0x20
ARM GAS  C:\Users\tmj32\AppData\Local\Temp\cc11CUDk.s 			page 128


 5630 0956 07       		.uleb128 0x7
 5631 0957 200D0000 		.4byte	.LASF143
 5632 095b 0E       		.byte	0xe
 5633 095c C6       		.byte	0xc6
 5634 095d FA000000 		.4byte	0xfa
 5635 0961 24       		.byte	0x24
 5636 0962 07       		.uleb128 0x7
 5637 0963 DD090000 		.4byte	.LASF144
 5638 0967 0E       		.byte	0xe
 5639 0968 C7       		.byte	0xc7
 5640 0969 8D0F0000 		.4byte	0xf8d
 5641 096d 28       		.byte	0x28
 5642 096e 0A       		.uleb128 0xa
 5643 096f 35010000 		.4byte	.LASF145
 5644 0973 0E       		.byte	0xe
 5645 0974 D7       		.byte	0xd7
 5646 0975 B8000000 		.4byte	0xb8
 5647 0979 01       		.byte	0x1
 5648 097a 01       		.byte	0x1
 5649 097b 07       		.byte	0x7
 5650 097c 2C       		.byte	0x2c
 5651 097d 0A       		.uleb128 0xa
 5652 097e 1F110000 		.4byte	.LASF146
 5653 0982 0E       		.byte	0xe
 5654 0983 D8       		.byte	0xd8
 5655 0984 B8000000 		.4byte	0xb8
 5656 0988 01       		.byte	0x1
 5657 0989 01       		.byte	0x1
 5658 098a 06       		.byte	0x6
 5659 098b 2C       		.byte	0x2c
 5660 098c 0A       		.uleb128 0xa
 5661 098d 86060000 		.4byte	.LASF147
 5662 0991 0E       		.byte	0xe
 5663 0992 D9       		.byte	0xd9
 5664 0993 B8000000 		.4byte	0xb8
 5665 0997 01       		.byte	0x1
 5666 0998 01       		.byte	0x1
 5667 0999 05       		.byte	0x5
 5668 099a 2C       		.byte	0x2c
 5669 099b 0A       		.uleb128 0xa
 5670 099c A4120000 		.4byte	.LASF148
 5671 09a0 0E       		.byte	0xe
 5672 09a1 DA       		.byte	0xda
 5673 09a2 B8000000 		.4byte	0xb8
 5674 09a6 01       		.byte	0x1
 5675 09a7 01       		.byte	0x1
 5676 09a8 04       		.byte	0x4
 5677 09a9 2C       		.byte	0x2c
 5678 09aa 0A       		.uleb128 0xa
 5679 09ab 21030000 		.4byte	.LASF149
 5680 09af 0E       		.byte	0xe
 5681 09b0 DB       		.byte	0xdb
 5682 09b1 B8000000 		.4byte	0xb8
 5683 09b5 01       		.byte	0x1
 5684 09b6 01       		.byte	0x1
 5685 09b7 03       		.byte	0x3
 5686 09b8 2C       		.byte	0x2c
ARM GAS  C:\Users\tmj32\AppData\Local\Temp\cc11CUDk.s 			page 129


 5687 09b9 1C       		.uleb128 0x1c
 5688 09ba 746F7000 		.ascii	"top\000"
 5689 09be 0E       		.byte	0xe
 5690 09bf DC       		.byte	0xdc
 5691 09c0 B8000000 		.4byte	0xb8
 5692 09c4 01       		.byte	0x1
 5693 09c5 01       		.byte	0x1
 5694 09c6 02       		.byte	0x2
 5695 09c7 2C       		.byte	0x2c
 5696 09c8 0A       		.uleb128 0xa
 5697 09c9 5A120000 		.4byte	.LASF150
 5698 09cd 0E       		.byte	0xe
 5699 09ce DD       		.byte	0xdd
 5700 09cf B8000000 		.4byte	0xb8
 5701 09d3 01       		.byte	0x1
 5702 09d4 01       		.byte	0x1
 5703 09d5 01       		.byte	0x1
 5704 09d6 2C       		.byte	0x2c
 5705 09d7 0A       		.uleb128 0xa
 5706 09d8 110B0000 		.4byte	.LASF151
 5707 09dc 0E       		.byte	0xe
 5708 09dd DE       		.byte	0xde
 5709 09de B8000000 		.4byte	0xb8
 5710 09e2 01       		.byte	0x1
 5711 09e3 01       		.byte	0x1
 5712 09e4 00       		.byte	0
 5713 09e5 2C       		.byte	0x2c
 5714 09e6 0A       		.uleb128 0xa
 5715 09e7 DC040000 		.4byte	.LASF152
 5716 09eb 0E       		.byte	0xe
 5717 09ec DF       		.byte	0xdf
 5718 09ed 820F0000 		.4byte	0xf82
 5719 09f1 01       		.byte	0x1
 5720 09f2 02       		.byte	0x2
 5721 09f3 06       		.byte	0x6
 5722 09f4 2D       		.byte	0x2d
 5723 09f5 0A       		.uleb128 0xa
 5724 09f6 65110000 		.4byte	.LASF153
 5725 09fa 0E       		.byte	0xe
 5726 09fb E0       		.byte	0xe0
 5727 09fc 4E060000 		.4byte	0x64e
 5728 0a00 01       		.byte	0x1
 5729 0a01 02       		.byte	0x2
 5730 0a02 04       		.byte	0x4
 5731 0a03 2D       		.byte	0x2d
 5732 0a04 0A       		.uleb128 0xa
 5733 0a05 9A130000 		.4byte	.LASF154
 5734 0a09 0E       		.byte	0xe
 5735 0a0a E1       		.byte	0xe1
 5736 0a0b B8000000 		.4byte	0xb8
 5737 0a0f 01       		.byte	0x1
 5738 0a10 03       		.byte	0x3
 5739 0a11 01       		.byte	0x1
 5740 0a12 2D       		.byte	0x2d
 5741 0a13 07       		.uleb128 0x7
 5742 0a14 BE0A0000 		.4byte	.LASF155
 5743 0a18 0E       		.byte	0xe
ARM GAS  C:\Users\tmj32\AppData\Local\Temp\cc11CUDk.s 			page 130


 5744 0a19 E2       		.byte	0xe2
 5745 0a1a B8000000 		.4byte	0xb8
 5746 0a1e 2E       		.byte	0x2e
 5747 0a1f 07       		.uleb128 0x7
 5748 0a20 80150000 		.4byte	.LASF156
 5749 0a24 0E       		.byte	0xe
 5750 0a25 E4       		.byte	0xe4
 5751 0a26 EC020000 		.4byte	0x2ec
 5752 0a2a 2F       		.byte	0x2f
 5753 0a2b 07       		.uleb128 0x7
 5754 0a2c C3060000 		.4byte	.LASF157
 5755 0a30 0E       		.byte	0xe
 5756 0a31 E6       		.byte	0xe6
 5757 0a32 EF000000 		.4byte	0xef
 5758 0a36 30       		.byte	0x30
 5759 0a37 07       		.uleb128 0x7
 5760 0a38 4A070000 		.4byte	.LASF158
 5761 0a3c 0E       		.byte	0xe
 5762 0a3d E9       		.byte	0xe9
 5763 0a3e 770F0000 		.4byte	0xf77
 5764 0a42 34       		.byte	0x34
 5765 0a43 00       		.byte	0
 5766 0a44 0D       		.uleb128 0xd
 5767 0a45 04       		.byte	0x4
 5768 0a46 02090000 		.4byte	0x902
 5769 0a4a 1D       		.uleb128 0x1d
 5770 0a4b 9A030000 		.4byte	0x39a
 5771 0a4f 5A0A0000 		.4byte	0xa5a
 5772 0a53 1E       		.uleb128 0x1e
 5773 0a54 2F030000 		.4byte	0x32f
 5774 0a58 1F       		.byte	0x1f
 5775 0a59 00       		.byte	0
 5776 0a5a 1D       		.uleb128 0x1d
 5777 0a5b B8000000 		.4byte	0xb8
 5778 0a5f 6A0A0000 		.4byte	0xa6a
 5779 0a63 1E       		.uleb128 0x1e
 5780 0a64 2F030000 		.4byte	0x32f
 5781 0a68 1F       		.byte	0x1f
 5782 0a69 00       		.byte	0
 5783 0a6a 02       		.uleb128 0x2
 5784 0a6b 30090000 		.4byte	.LASF159
 5785 0a6f 0F       		.byte	0xf
 5786 0a70 33       		.byte	0x33
 5787 0a71 B8000000 		.4byte	0xb8
 5788 0a75 02       		.uleb128 0x2
 5789 0a76 91060000 		.4byte	.LASF160
 5790 0a7a 0F       		.byte	0xf
 5791 0a7b 37       		.byte	0x37
 5792 0a7c B8000000 		.4byte	0xb8
 5793 0a80 06       		.uleb128 0x6
 5794 0a81 10       		.byte	0x10
 5795 0a82 0F       		.byte	0xf
 5796 0a83 3A       		.byte	0x3a
 5797 0a84 C50A0000 		.4byte	0xac5
 5798 0a88 07       		.uleb128 0x7
 5799 0a89 8B020000 		.4byte	.LASF161
 5800 0a8d 0F       		.byte	0xf
ARM GAS  C:\Users\tmj32\AppData\Local\Temp\cc11CUDk.s 			page 131


 5801 0a8e 3C       		.byte	0x3c
 5802 0a8f 5A030000 		.4byte	0x35a
 5803 0a93 00       		.byte	0
 5804 0a94 08       		.uleb128 0x8
 5805 0a95 6B657900 		.ascii	"key\000"
 5806 0a99 0F       		.byte	0xf
 5807 0a9a 3D       		.byte	0x3d
 5808 0a9b E4000000 		.4byte	0xe4
 5809 0a9f 04       		.byte	0x4
 5810 0aa0 07       		.uleb128 0x7
 5811 0aa1 70050000 		.4byte	.LASF162
 5812 0aa5 0F       		.byte	0xf
 5813 0aa6 3E       		.byte	0x3e
 5814 0aa7 E4000000 		.4byte	0xe4
 5815 0aab 08       		.byte	0x8
 5816 0aac 07       		.uleb128 0x7
 5817 0aad DB0B0000 		.4byte	.LASF163
 5818 0ab1 0F       		.byte	0xf
 5819 0ab2 3F       		.byte	0x3f
 5820 0ab3 C3000000 		.4byte	0xc3
 5821 0ab7 0C       		.byte	0xc
 5822 0ab8 07       		.uleb128 0x7
 5823 0ab9 D2010000 		.4byte	.LASF164
 5824 0abd 0F       		.byte	0xf
 5825 0abe 41       		.byte	0x41
 5826 0abf 750A0000 		.4byte	0xa75
 5827 0ac3 0E       		.byte	0xe
 5828 0ac4 00       		.byte	0
 5829 0ac5 02       		.uleb128 0x2
 5830 0ac6 E3130000 		.4byte	.LASF165
 5831 0aca 0F       		.byte	0xf
 5832 0acb 42       		.byte	0x42
 5833 0acc 800A0000 		.4byte	0xa80
 5834 0ad0 09       		.uleb128 0x9
 5835 0ad1 65020000 		.4byte	.LASF166
 5836 0ad5 1C       		.byte	0x1c
 5837 0ad6 0F       		.byte	0xf
 5838 0ad7 45       		.byte	0x45
 5839 0ad8 490B0000 		.4byte	0xb49
 5840 0adc 07       		.uleb128 0x7
 5841 0add 1C020000 		.4byte	.LASF65
 5842 0ae1 0F       		.byte	0xf
 5843 0ae2 49       		.byte	0x49
 5844 0ae3 6A0A0000 		.4byte	0xa6a
 5845 0ae7 00       		.byte	0
 5846 0ae8 07       		.uleb128 0x7
 5847 0ae9 C1030000 		.4byte	.LASF167
 5848 0aed 0F       		.byte	0xf
 5849 0aee 4E       		.byte	0x4e
 5850 0aef 690B0000 		.4byte	0xb69
 5851 0af3 04       		.byte	0x4
 5852 0af4 07       		.uleb128 0x7
 5853 0af5 D20D0000 		.4byte	.LASF168
 5854 0af9 0F       		.byte	0xf
 5855 0afa 52       		.byte	0x52
 5856 0afb 7F0B0000 		.4byte	0xb7f
 5857 0aff 08       		.byte	0x8
ARM GAS  C:\Users\tmj32\AppData\Local\Temp\cc11CUDk.s 			page 132


 5858 0b00 07       		.uleb128 0x7
 5859 0b01 970B0000 		.4byte	.LASF169
 5860 0b05 0F       		.byte	0xf
 5861 0b06 59       		.byte	0x59
 5862 0b07 850B0000 		.4byte	0xb85
 5863 0b0b 0C       		.byte	0xc
 5864 0b0c 07       		.uleb128 0x7
 5865 0b0d A80D0000 		.4byte	.LASF170
 5866 0b11 0F       		.byte	0xf
 5867 0b12 5C       		.byte	0x5c
 5868 0b13 FC080000 		.4byte	0x8fc
 5869 0b17 10       		.byte	0x10
 5870 0b18 07       		.uleb128 0x7
 5871 0b19 01130000 		.4byte	.LASF171
 5872 0b1d 0F       		.byte	0xf
 5873 0b1e 5F       		.byte	0x5f
 5874 0b1f B8000000 		.4byte	0xb8
 5875 0b23 14       		.byte	0x14
 5876 0b24 07       		.uleb128 0x7
 5877 0b25 86060000 		.4byte	.LASF147
 5878 0b29 0F       		.byte	0xf
 5879 0b2a 62       		.byte	0x62
 5880 0b2b B8000000 		.4byte	0xb8
 5881 0b2f 15       		.byte	0x15
 5882 0b30 07       		.uleb128 0x7
 5883 0b31 750E0000 		.4byte	.LASF172
 5884 0b35 0F       		.byte	0xf
 5885 0b36 65       		.byte	0x65
 5886 0b37 CE000000 		.4byte	0xce
 5887 0b3b 16       		.byte	0x16
 5888 0b3c 07       		.uleb128 0x7
 5889 0b3d E3060000 		.4byte	.LASF173
 5890 0b41 0F       		.byte	0xf
 5891 0b42 68       		.byte	0x68
 5892 0b43 CE000000 		.4byte	0xce
 5893 0b47 18       		.byte	0x18
 5894 0b48 00       		.byte	0
 5895 0b49 0B       		.uleb128 0xb
 5896 0b4a D5010000 		.4byte	0x1d5
 5897 0b4e 5D0B0000 		.4byte	0xb5d
 5898 0b52 0C       		.uleb128 0xc
 5899 0b53 5D0B0000 		.4byte	0xb5d
 5900 0b57 0C       		.uleb128 0xc
 5901 0b58 630B0000 		.4byte	0xb63
 5902 0b5c 00       		.byte	0
 5903 0b5d 0D       		.uleb128 0xd
 5904 0b5e 04       		.byte	0x4
 5905 0b5f D00A0000 		.4byte	0xad0
 5906 0b63 0D       		.uleb128 0xd
 5907 0b64 04       		.byte	0x4
 5908 0b65 C50A0000 		.4byte	0xac5
 5909 0b69 0D       		.uleb128 0xd
 5910 0b6a 04       		.byte	0x4
 5911 0b6b 490B0000 		.4byte	0xb49
 5912 0b6f 17       		.uleb128 0x17
 5913 0b70 7F0B0000 		.4byte	0xb7f
 5914 0b74 0C       		.uleb128 0xc
ARM GAS  C:\Users\tmj32\AppData\Local\Temp\cc11CUDk.s 			page 133


 5915 0b75 5D0B0000 		.4byte	0xb5d
 5916 0b79 0C       		.uleb128 0xc
 5917 0b7a B8000000 		.4byte	0xb8
 5918 0b7e 00       		.byte	0
 5919 0b7f 0D       		.uleb128 0xd
 5920 0b80 04       		.byte	0x4
 5921 0b81 6F0B0000 		.4byte	0xb6f
 5922 0b85 0D       		.uleb128 0xd
 5923 0b86 04       		.byte	0x4
 5924 0b87 70080000 		.4byte	0x870
 5925 0b8b 02       		.uleb128 0x2
 5926 0b8c B0120000 		.4byte	.LASF174
 5927 0b90 0F       		.byte	0xf
 5928 0b91 69       		.byte	0x69
 5929 0b92 D00A0000 		.4byte	0xad0
 5930 0b96 06       		.uleb128 0x6
 5931 0b97 24       		.byte	0x24
 5932 0b98 0F       		.byte	0xf
 5933 0b99 73       		.byte	0x73
 5934 0b9a 1D0C0000 		.4byte	0xc1d
 5935 0b9e 07       		.uleb128 0x7
 5936 0b9f 1D090000 		.4byte	.LASF175
 5937 0ba3 0F       		.byte	0xf
 5938 0ba4 75       		.byte	0x75
 5939 0ba5 5A030000 		.4byte	0x35a
 5940 0ba9 00       		.byte	0
 5941 0baa 07       		.uleb128 0x7
 5942 0bab E00A0000 		.4byte	.LASF176
 5943 0baf 0F       		.byte	0xf
 5944 0bb0 76       		.byte	0x76
 5945 0bb1 5A030000 		.4byte	0x35a
 5946 0bb5 04       		.byte	0x4
 5947 0bb6 07       		.uleb128 0x7
 5948 0bb7 1B0D0000 		.4byte	.LASF177
 5949 0bbb 0F       		.byte	0xf
 5950 0bbc 77       		.byte	0x77
 5951 0bbd 5A030000 		.4byte	0x35a
 5952 0bc1 08       		.byte	0x8
 5953 0bc2 07       		.uleb128 0x7
 5954 0bc3 290D0000 		.4byte	.LASF178
 5955 0bc7 0F       		.byte	0xf
 5956 0bc8 78       		.byte	0x78
 5957 0bc9 5A030000 		.4byte	0x35a
 5958 0bcd 0C       		.byte	0xc
 5959 0bce 07       		.uleb128 0x7
 5960 0bcf 9D050000 		.4byte	.LASF179
 5961 0bd3 0F       		.byte	0xf
 5962 0bd4 79       		.byte	0x79
 5963 0bd5 5A030000 		.4byte	0x35a
 5964 0bd9 10       		.byte	0x10
 5965 0bda 07       		.uleb128 0x7
 5966 0bdb EB0A0000 		.4byte	.LASF180
 5967 0bdf 0F       		.byte	0xf
 5968 0be0 7A       		.byte	0x7a
 5969 0be1 440A0000 		.4byte	0xa44
 5970 0be5 14       		.byte	0x14
 5971 0be6 07       		.uleb128 0x7
ARM GAS  C:\Users\tmj32\AppData\Local\Temp\cc11CUDk.s 			page 134


 5972 0be7 27090000 		.4byte	.LASF181
 5973 0beb 0F       		.byte	0xf
 5974 0bec 7B       		.byte	0x7b
 5975 0bed 440A0000 		.4byte	0xa44
 5976 0bf1 18       		.byte	0x18
 5977 0bf2 07       		.uleb128 0x7
 5978 0bf3 D9030000 		.4byte	.LASF182
 5979 0bf7 0F       		.byte	0xf
 5980 0bf8 7D       		.byte	0x7d
 5981 0bf9 440A0000 		.4byte	0xa44
 5982 0bfd 1C       		.byte	0x1c
 5983 0bfe 0A       		.uleb128 0xa
 5984 0bff DF100000 		.4byte	.LASF183
 5985 0c03 0F       		.byte	0xf
 5986 0c04 80       		.byte	0x80
 5987 0c05 B8000000 		.4byte	0xb8
 5988 0c09 01       		.byte	0x1
 5989 0c0a 01       		.byte	0x1
 5990 0c0b 07       		.byte	0x7
 5991 0c0c 20       		.byte	0x20
 5992 0c0d 0A       		.uleb128 0xa
 5993 0c0e B0100000 		.4byte	.LASF184
 5994 0c12 0F       		.byte	0xf
 5995 0c13 81       		.byte	0x81
 5996 0c14 B8000000 		.4byte	0xb8
 5997 0c18 01       		.byte	0x1
 5998 0c19 01       		.byte	0x1
 5999 0c1a 06       		.byte	0x6
 6000 0c1b 20       		.byte	0x20
 6001 0c1c 00       		.byte	0
 6002 0c1d 06       		.uleb128 0x6
 6003 0c1e 08       		.byte	0x8
 6004 0c1f 0F       		.byte	0xf
 6005 0c20 83       		.byte	0x83
 6006 0c21 3E0C0000 		.4byte	0xc3e
 6007 0c25 07       		.uleb128 0x7
 6008 0c26 62030000 		.4byte	.LASF185
 6009 0c2a 0F       		.byte	0xf
 6010 0c2b 85       		.byte	0x85
 6011 0c2c 750A0000 		.4byte	0xa75
 6012 0c30 00       		.byte	0
 6013 0c31 07       		.uleb128 0x7
 6014 0c32 C3070000 		.4byte	.LASF186
 6015 0c36 0F       		.byte	0xf
 6016 0c37 86       		.byte	0x86
 6017 0c38 E4000000 		.4byte	0xe4
 6018 0c3c 04       		.byte	0x4
 6019 0c3d 00       		.byte	0
 6020 0c3e 11       		.uleb128 0x11
 6021 0c3f 24       		.byte	0x24
 6022 0c40 0F       		.byte	0xf
 6023 0c41 71       		.byte	0x71
 6024 0c42 5D0C0000 		.4byte	0xc5d
 6025 0c46 13       		.uleb128 0x13
 6026 0c47 5C060000 		.4byte	.LASF187
 6027 0c4b 0F       		.byte	0xf
 6028 0c4c 82       		.byte	0x82
ARM GAS  C:\Users\tmj32\AppData\Local\Temp\cc11CUDk.s 			page 135


 6029 0c4d 960B0000 		.4byte	0xb96
 6030 0c51 13       		.uleb128 0x13
 6031 0c52 EC110000 		.4byte	.LASF188
 6032 0c56 0F       		.byte	0xf
 6033 0c57 87       		.byte	0x87
 6034 0c58 1D0C0000 		.4byte	0xc1d
 6035 0c5c 00       		.byte	0
 6036 0c5d 09       		.uleb128 0x9
 6037 0c5e 530E0000 		.4byte	.LASF189
 6038 0c62 34       		.byte	0x34
 6039 0c63 0F       		.byte	0xf
 6040 0c64 6E       		.byte	0x6e
 6041 0c65 D60C0000 		.4byte	0xcd6
 6042 0c69 07       		.uleb128 0x7
 6043 0c6a D2010000 		.4byte	.LASF164
 6044 0c6e 0F       		.byte	0xf
 6045 0c6f 70       		.byte	0x70
 6046 0c70 750A0000 		.4byte	0xa75
 6047 0c74 00       		.byte	0
 6048 0c75 07       		.uleb128 0x7
 6049 0c76 F3140000 		.4byte	.LASF190
 6050 0c7a 0F       		.byte	0xf
 6051 0c7b 88       		.byte	0x88
 6052 0c7c 3E0C0000 		.4byte	0xc3e
 6053 0c80 04       		.byte	0x4
 6054 0c81 07       		.uleb128 0x7
 6055 0c82 4B0D0000 		.4byte	.LASF191
 6056 0c86 0F       		.byte	0xf
 6057 0c87 8A       		.byte	0x8a
 6058 0c88 E4000000 		.4byte	0xe4
 6059 0c8c 28       		.byte	0x28
 6060 0c8d 07       		.uleb128 0x7
 6061 0c8e 95100000 		.4byte	.LASF192
 6062 0c92 0F       		.byte	0xf
 6063 0c93 8B       		.byte	0x8b
 6064 0c94 E4000000 		.4byte	0xe4
 6065 0c98 2C       		.byte	0x2c
 6066 0c99 0A       		.uleb128 0xa
 6067 0c9a 6C140000 		.4byte	.LASF193
 6068 0c9e 0F       		.byte	0xf
 6069 0c9f 8E       		.byte	0x8e
 6070 0ca0 B8000000 		.4byte	0xb8
 6071 0ca4 01       		.byte	0x1
 6072 0ca5 01       		.byte	0x1
 6073 0ca6 07       		.byte	0x7
 6074 0ca7 30       		.byte	0x30
 6075 0ca8 0A       		.uleb128 0xa
 6076 0ca9 1E0F0000 		.4byte	.LASF194
 6077 0cad 0F       		.byte	0xf
 6078 0cae 8F       		.byte	0x8f
 6079 0caf B8000000 		.4byte	0xb8
 6080 0cb3 01       		.byte	0x1
 6081 0cb4 01       		.byte	0x1
 6082 0cb5 06       		.byte	0x6
 6083 0cb6 30       		.byte	0x30
 6084 0cb7 0A       		.uleb128 0xa
 6085 0cb8 DD070000 		.4byte	.LASF195
ARM GAS  C:\Users\tmj32\AppData\Local\Temp\cc11CUDk.s 			page 136


 6086 0cbc 0F       		.byte	0xf
 6087 0cbd 90       		.byte	0x90
 6088 0cbe B8000000 		.4byte	0xb8
 6089 0cc2 01       		.byte	0x1
 6090 0cc3 01       		.byte	0x1
 6091 0cc4 05       		.byte	0x5
 6092 0cc5 30       		.byte	0x30
 6093 0cc6 0A       		.uleb128 0xa
 6094 0cc7 95070000 		.4byte	.LASF196
 6095 0ccb 0F       		.byte	0xf
 6096 0ccc 91       		.byte	0x91
 6097 0ccd B8000000 		.4byte	0xb8
 6098 0cd1 01       		.byte	0x1
 6099 0cd2 01       		.byte	0x1
 6100 0cd3 04       		.byte	0x4
 6101 0cd4 30       		.byte	0x30
 6102 0cd5 00       		.byte	0
 6103 0cd6 02       		.uleb128 0x2
 6104 0cd7 78120000 		.4byte	.LASF197
 6105 0cdb 0F       		.byte	0xf
 6106 0cdc 92       		.byte	0x92
 6107 0cdd 5D0C0000 		.4byte	0xc5d
 6108 0ce1 09       		.uleb128 0x9
 6109 0ce2 ED020000 		.4byte	.LASF198
 6110 0ce6 5C       		.byte	0x5c
 6111 0ce7 0F       		.byte	0xf
 6112 0ce8 99       		.byte	0x99
 6113 0ce9 2A0D0000 		.4byte	0xd2a
 6114 0ced 07       		.uleb128 0x7
 6115 0cee 07110000 		.4byte	.LASF127
 6116 0cf2 0F       		.byte	0xf
 6117 0cf3 9B       		.byte	0x9b
 6118 0cf4 8B0B0000 		.4byte	0xb8b
 6119 0cf8 00       		.byte	0
 6120 0cf9 07       		.uleb128 0x7
 6121 0cfa EA050000 		.4byte	.LASF199
 6122 0cfe 0F       		.byte	0xf
 6123 0cff 9C       		.byte	0x9c
 6124 0d00 D60C0000 		.4byte	0xcd6
 6125 0d04 1C       		.byte	0x1c
 6126 0d05 07       		.uleb128 0x7
 6127 0d06 05150000 		.4byte	.LASF200
 6128 0d0a 0F       		.byte	0xf
 6129 0d0b 9D       		.byte	0x9d
 6130 0d0c 440A0000 		.4byte	0xa44
 6131 0d10 50       		.byte	0x50
 6132 0d11 07       		.uleb128 0x7
 6133 0d12 17090000 		.4byte	.LASF201
 6134 0d16 0F       		.byte	0xf
 6135 0d17 9E       		.byte	0x9e
 6136 0d18 2F0D0000 		.4byte	0xd2f
 6137 0d1c 54       		.byte	0x54
 6138 0d1d 07       		.uleb128 0x7
 6139 0d1e 77070000 		.4byte	.LASF202
 6140 0d22 0F       		.byte	0xf
 6141 0d23 9F       		.byte	0x9f
 6142 0d24 350D0000 		.4byte	0xd35
ARM GAS  C:\Users\tmj32\AppData\Local\Temp\cc11CUDk.s 			page 137


 6143 0d28 58       		.byte	0x58
 6144 0d29 00       		.byte	0
 6145 0d2a 1F       		.uleb128 0x1f
 6146 0d2b 0C150000 		.4byte	.LASF422
 6147 0d2f 0D       		.uleb128 0xd
 6148 0d30 04       		.byte	0x4
 6149 0d31 2A0D0000 		.4byte	0xd2a
 6150 0d35 0D       		.uleb128 0xd
 6151 0d36 04       		.byte	0x4
 6152 0d37 3B0D0000 		.4byte	0xd3b
 6153 0d3b 0E       		.uleb128 0xe
 6154 0d3c 5A030000 		.4byte	0x35a
 6155 0d40 02       		.uleb128 0x2
 6156 0d41 6C070000 		.4byte	.LASF203
 6157 0d45 0F       		.byte	0xf
 6158 0d46 A1       		.byte	0xa1
 6159 0d47 E10C0000 		.4byte	0xce1
 6160 0d4b 0F       		.uleb128 0xf
 6161 0d4c 01       		.byte	0x1
 6162 0d4d 42000000 		.4byte	0x42
 6163 0d51 0E       		.byte	0xe
 6164 0d52 3D       		.byte	0x3d
 6165 0d53 6A0D0000 		.4byte	0xd6a
 6166 0d57 10       		.uleb128 0x10
 6167 0d58 380C0000 		.4byte	.LASF204
 6168 0d5c 00       		.byte	0
 6169 0d5d 10       		.uleb128 0x10
 6170 0d5e 84050000 		.4byte	.LASF205
 6171 0d62 01       		.byte	0x1
 6172 0d63 10       		.uleb128 0x10
 6173 0d64 D6050000 		.4byte	.LASF206
 6174 0d68 02       		.byte	0x2
 6175 0d69 00       		.byte	0
 6176 0d6a 02       		.uleb128 0x2
 6177 0d6b 580D0000 		.4byte	.LASF207
 6178 0d6f 0E       		.byte	0xe
 6179 0d70 42       		.byte	0x42
 6180 0d71 B8000000 		.4byte	0xb8
 6181 0d75 02       		.uleb128 0x2
 6182 0d76 4D150000 		.4byte	.LASF208
 6183 0d7a 0E       		.byte	0xe
 6184 0d7b 48       		.byte	0x48
 6185 0d7c 800D0000 		.4byte	0xd80
 6186 0d80 0D       		.uleb128 0xd
 6187 0d81 04       		.byte	0x4
 6188 0d82 860D0000 		.4byte	0xd86
 6189 0d86 0B       		.uleb128 0xb
 6190 0d87 D5010000 		.4byte	0x1d5
 6191 0d8b 9F0D0000 		.4byte	0xd9f
 6192 0d8f 0C       		.uleb128 0xc
 6193 0d90 440A0000 		.4byte	0xa44
 6194 0d94 0C       		.uleb128 0xc
 6195 0d95 E2070000 		.4byte	0x7e2
 6196 0d99 0C       		.uleb128 0xc
 6197 0d9a 6A0D0000 		.4byte	0xd6a
 6198 0d9e 00       		.byte	0
 6199 0d9f 0F       		.uleb128 0xf
ARM GAS  C:\Users\tmj32\AppData\Local\Temp\cc11CUDk.s 			page 138


 6200 0da0 01       		.byte	0x1
 6201 0da1 42000000 		.4byte	0x42
 6202 0da5 0E       		.byte	0xe
 6203 0da6 4A       		.byte	0x4a
 6204 0da7 240E0000 		.4byte	0xe24
 6205 0dab 10       		.uleb128 0x10
 6206 0dac F10D0000 		.4byte	.LASF209
 6207 0db0 00       		.byte	0
 6208 0db1 10       		.uleb128 0x10
 6209 0db2 750C0000 		.4byte	.LASF210
 6210 0db6 01       		.byte	0x1
 6211 0db7 10       		.uleb128 0x10
 6212 0db8 06140000 		.4byte	.LASF211
 6213 0dbc 02       		.byte	0x2
 6214 0dbd 10       		.uleb128 0x10
 6215 0dbe 91020000 		.4byte	.LASF212
 6216 0dc2 03       		.byte	0x3
 6217 0dc3 10       		.uleb128 0x10
 6218 0dc4 21020000 		.4byte	.LASF213
 6219 0dc8 04       		.byte	0x4
 6220 0dc9 10       		.uleb128 0x10
 6221 0dca CD0C0000 		.4byte	.LASF214
 6222 0dce 05       		.byte	0x5
 6223 0dcf 10       		.uleb128 0x10
 6224 0dd0 1A070000 		.4byte	.LASF215
 6225 0dd4 06       		.byte	0x6
 6226 0dd5 10       		.uleb128 0x10
 6227 0dd6 18150000 		.4byte	.LASF216
 6228 0dda 07       		.byte	0x7
 6229 0ddb 10       		.uleb128 0x10
 6230 0ddc 64060000 		.4byte	.LASF217
 6231 0de0 08       		.byte	0x8
 6232 0de1 10       		.uleb128 0x10
 6233 0de2 6F0D0000 		.4byte	.LASF218
 6234 0de6 09       		.byte	0x9
 6235 0de7 10       		.uleb128 0x10
 6236 0de8 52070000 		.4byte	.LASF219
 6237 0dec 0A       		.byte	0xa
 6238 0ded 10       		.uleb128 0x10
 6239 0dee CB130000 		.4byte	.LASF220
 6240 0df2 0B       		.byte	0xb
 6241 0df3 10       		.uleb128 0x10
 6242 0df4 30060000 		.4byte	.LASF221
 6243 0df8 0C       		.byte	0xc
 6244 0df9 10       		.uleb128 0x10
 6245 0dfa D6120000 		.4byte	.LASF222
 6246 0dfe 0D       		.byte	0xd
 6247 0dff 10       		.uleb128 0x10
 6248 0e00 EC0B0000 		.4byte	.LASF223
 6249 0e04 0E       		.byte	0xe
 6250 0e05 10       		.uleb128 0x10
 6251 0e06 B0000000 		.4byte	.LASF224
 6252 0e0a 0F       		.byte	0xf
 6253 0e0b 10       		.uleb128 0x10
 6254 0e0c CF080000 		.4byte	.LASF225
 6255 0e10 10       		.byte	0x10
 6256 0e11 10       		.uleb128 0x10
ARM GAS  C:\Users\tmj32\AppData\Local\Temp\cc11CUDk.s 			page 139


 6257 0e12 3B070000 		.4byte	.LASF226
 6258 0e16 11       		.byte	0x11
 6259 0e17 10       		.uleb128 0x10
 6260 0e18 1C0E0000 		.4byte	.LASF227
 6261 0e1c 12       		.byte	0x12
 6262 0e1d 10       		.uleb128 0x10
 6263 0e1e 660B0000 		.4byte	.LASF228
 6264 0e22 13       		.byte	0x13
 6265 0e23 00       		.byte	0
 6266 0e24 02       		.uleb128 0x2
 6267 0e25 B2010000 		.4byte	.LASF229
 6268 0e29 0E       		.byte	0xe
 6269 0e2a 61       		.byte	0x61
 6270 0e2b B8000000 		.4byte	0xb8
 6271 0e2f 02       		.uleb128 0x2
 6272 0e30 F9050000 		.4byte	.LASF230
 6273 0e34 0E       		.byte	0xe
 6274 0e35 68       		.byte	0x68
 6275 0e36 3A0E0000 		.4byte	0xe3a
 6276 0e3a 0D       		.uleb128 0xd
 6277 0e3b 04       		.byte	0x4
 6278 0e3c 400E0000 		.4byte	0xe40
 6279 0e40 17       		.uleb128 0x17
 6280 0e41 500E0000 		.4byte	0xe50
 6281 0e45 0C       		.uleb128 0xc
 6282 0e46 440A0000 		.4byte	0xa44
 6283 0e4a 0C       		.uleb128 0xc
 6284 0e4b 240E0000 		.4byte	0xe24
 6285 0e4f 00       		.byte	0
 6286 0e50 0F       		.uleb128 0xf
 6287 0e51 01       		.byte	0x1
 6288 0e52 42000000 		.4byte	0x42
 6289 0e56 0E       		.byte	0xe
 6290 0e57 6D       		.byte	0x6d
 6291 0e58 D50E0000 		.4byte	0xed5
 6292 0e5c 10       		.uleb128 0x10
 6293 0e5d 1E0B0000 		.4byte	.LASF231
 6294 0e61 00       		.byte	0
 6295 0e62 10       		.uleb128 0x10
 6296 0e63 830B0000 		.4byte	.LASF232
 6297 0e67 01       		.byte	0x1
 6298 0e68 10       		.uleb128 0x10
 6299 0e69 05120000 		.4byte	.LASF233
 6300 0e6d 02       		.byte	0x2
 6301 0e6e 10       		.uleb128 0x10
 6302 0e6f 020E0000 		.4byte	.LASF234
 6303 0e73 03       		.byte	0x3
 6304 0e74 10       		.uleb128 0x10
 6305 0e75 71000000 		.4byte	.LASF235
 6306 0e79 04       		.byte	0x4
 6307 0e7a 10       		.uleb128 0x10
 6308 0e7b BF120000 		.4byte	.LASF236
 6309 0e7f 05       		.byte	0x5
 6310 0e80 10       		.uleb128 0x10
 6311 0e81 C0040000 		.4byte	.LASF237
 6312 0e85 06       		.byte	0x6
 6313 0e86 10       		.uleb128 0x10
ARM GAS  C:\Users\tmj32\AppData\Local\Temp\cc11CUDk.s 			page 140


 6314 0e87 82070000 		.4byte	.LASF238
 6315 0e8b 07       		.byte	0x7
 6316 0e8c 10       		.uleb128 0x10
 6317 0e8d 0A020000 		.4byte	.LASF239
 6318 0e91 08       		.byte	0x8
 6319 0e92 10       		.uleb128 0x10
 6320 0e93 AF0C0000 		.4byte	.LASF240
 6321 0e97 09       		.byte	0x9
 6322 0e98 10       		.uleb128 0x10
 6323 0e99 B20D0000 		.4byte	.LASF241
 6324 0e9d 0A       		.byte	0xa
 6325 0e9e 10       		.uleb128 0x10
 6326 0e9f 2C0E0000 		.4byte	.LASF242
 6327 0ea3 0B       		.byte	0xb
 6328 0ea4 10       		.uleb128 0x10
 6329 0ea5 E4000000 		.4byte	.LASF243
 6330 0ea9 0C       		.byte	0xc
 6331 0eaa 10       		.uleb128 0x10
 6332 0eab 75040000 		.4byte	.LASF244
 6333 0eaf 0D       		.byte	0xd
 6334 0eb0 10       		.uleb128 0x10
 6335 0eb1 66010000 		.4byte	.LASF245
 6336 0eb5 0E       		.byte	0xe
 6337 0eb6 10       		.uleb128 0x10
 6338 0eb7 DE0D0000 		.4byte	.LASF246
 6339 0ebb 0F       		.byte	0xf
 6340 0ebc 10       		.uleb128 0x10
 6341 0ebd 95080000 		.4byte	.LASF247
 6342 0ec1 10       		.byte	0x10
 6343 0ec2 10       		.uleb128 0x10
 6344 0ec3 17060000 		.4byte	.LASF248
 6345 0ec7 11       		.byte	0x11
 6346 0ec8 10       		.uleb128 0x10
 6347 0ec9 960A0000 		.4byte	.LASF249
 6348 0ecd 12       		.byte	0x12
 6349 0ece 10       		.uleb128 0x10
 6350 0ecf 40090000 		.4byte	.LASF250
 6351 0ed3 13       		.byte	0x13
 6352 0ed4 00       		.byte	0
 6353 0ed5 02       		.uleb128 0x2
 6354 0ed6 640E0000 		.4byte	.LASF251
 6355 0eda 0E       		.byte	0xe
 6356 0edb 88       		.byte	0x88
 6357 0edc B8000000 		.4byte	0xb8
 6358 0ee0 02       		.uleb128 0x2
 6359 0ee1 46050000 		.4byte	.LASF252
 6360 0ee5 0E       		.byte	0xe
 6361 0ee6 8A       		.byte	0x8a
 6362 0ee7 EB0E0000 		.4byte	0xeeb
 6363 0eeb 0D       		.uleb128 0xd
 6364 0eec 04       		.byte	0x4
 6365 0eed F10E0000 		.4byte	0xef1
 6366 0ef1 0B       		.uleb128 0xb
 6367 0ef2 FA050000 		.4byte	0x5fa
 6368 0ef6 0A0F0000 		.4byte	0xf0a
 6369 0efa 0C       		.uleb128 0xc
 6370 0efb 440A0000 		.4byte	0xa44
ARM GAS  C:\Users\tmj32\AppData\Local\Temp\cc11CUDk.s 			page 141


 6371 0eff 0C       		.uleb128 0xc
 6372 0f00 D50E0000 		.4byte	0xed5
 6373 0f04 0C       		.uleb128 0xc
 6374 0f05 FA000000 		.4byte	0xfa
 6375 0f09 00       		.byte	0
 6376 0f0a 02       		.uleb128 0x2
 6377 0f0b 3B010000 		.4byte	.LASF253
 6378 0f0f 0E       		.byte	0xe
 6379 0f10 A4       		.byte	0xa4
 6380 0f11 B8000000 		.4byte	0xb8
 6381 0f15 06       		.uleb128 0x6
 6382 0f16 0C       		.byte	0xc
 6383 0f17 0E       		.byte	0xe
 6384 0f18 A7       		.byte	0xa7
 6385 0f19 6C0F0000 		.4byte	0xf6c
 6386 0f1d 07       		.uleb128 0x7
 6387 0f1e BA110000 		.4byte	.LASF254
 6388 0f22 0E       		.byte	0xe
 6389 0f23 A9       		.byte	0xa9
 6390 0f24 6C0F0000 		.4byte	0xf6c
 6391 0f28 00       		.byte	0
 6392 0f29 07       		.uleb128 0x7
 6393 0f2a F9100000 		.4byte	.LASF255
 6394 0f2e 0E       		.byte	0xe
 6395 0f2f AA       		.byte	0xaa
 6396 0f30 EF000000 		.4byte	0xef
 6397 0f34 04       		.byte	0x4
 6398 0f35 07       		.uleb128 0x7
 6399 0f36 190F0000 		.4byte	.LASF256
 6400 0f3a 0E       		.byte	0xe
 6401 0f3b AB       		.byte	0xab
 6402 0f3c EF000000 		.4byte	0xef
 6403 0f40 06       		.byte	0x6
 6404 0f41 07       		.uleb128 0x7
 6405 0f42 300B0000 		.4byte	.LASF257
 6406 0f46 0E       		.byte	0xe
 6407 0f47 AC       		.byte	0xac
 6408 0f48 0A0F0000 		.4byte	0xf0a
 6409 0f4c 08       		.byte	0x8
 6410 0f4d 0A       		.uleb128 0xa
 6411 0f4e 0D0C0000 		.4byte	.LASF258
 6412 0f52 0E       		.byte	0xe
 6413 0f53 AD       		.byte	0xad
 6414 0f54 B8000000 		.4byte	0xb8
 6415 0f58 01       		.byte	0x1
 6416 0f59 01       		.byte	0x1
 6417 0f5a 07       		.byte	0x7
 6418 0f5b 09       		.byte	0x9
 6419 0f5c 0A       		.uleb128 0xa
 6420 0f5d 8B140000 		.4byte	.LASF259
 6421 0f61 0E       		.byte	0xe
 6422 0f62 AE       		.byte	0xae
 6423 0f63 B8000000 		.4byte	0xb8
 6424 0f67 01       		.byte	0x1
 6425 0f68 01       		.byte	0x1
 6426 0f69 06       		.byte	0x6
 6427 0f6a 09       		.byte	0x9
ARM GAS  C:\Users\tmj32\AppData\Local\Temp\cc11CUDk.s 			page 142


 6428 0f6b 00       		.byte	0
 6429 0f6c 0D       		.uleb128 0xd
 6430 0f6d 04       		.byte	0x4
 6431 0f6e 720F0000 		.4byte	0xf72
 6432 0f72 0E       		.uleb128 0xe
 6433 0f73 02090000 		.4byte	0x902
 6434 0f77 02       		.uleb128 0x2
 6435 0f78 11010000 		.4byte	.LASF260
 6436 0f7c 0E       		.byte	0xe
 6437 0f7d B0       		.byte	0xb0
 6438 0f7e 150F0000 		.4byte	0xf15
 6439 0f82 02       		.uleb128 0x2
 6440 0f83 070D0000 		.4byte	.LASF261
 6441 0f87 0E       		.byte	0xe
 6442 0f88 B9       		.byte	0xb9
 6443 0f89 B8000000 		.4byte	0xb8
 6444 0f8d 0D       		.uleb128 0xd
 6445 0f8e 04       		.byte	0x4
 6446 0f8f 930F0000 		.4byte	0xf93
 6447 0f93 0E       		.uleb128 0xe
 6448 0f94 D0050000 		.4byte	0x5d0
 6449 0f98 02       		.uleb128 0x2
 6450 0f99 FE100000 		.4byte	.LASF262
 6451 0f9d 0E       		.byte	0xe
 6452 0f9e F0       		.byte	0xf0
 6453 0f9f 02090000 		.4byte	0x902
 6454 0fa3 0F       		.uleb128 0xf
 6455 0fa4 01       		.byte	0x1
 6456 0fa5 42000000 		.4byte	0x42
 6457 0fa9 0E       		.byte	0xe
 6458 0faa F3       		.byte	0xf3
 6459 0fab DA0F0000 		.4byte	0xfda
 6460 0faf 10       		.uleb128 0x10
 6461 0fb0 320D0000 		.4byte	.LASF263
 6462 0fb4 00       		.byte	0
 6463 0fb5 10       		.uleb128 0x10
 6464 0fb6 6E110000 		.4byte	.LASF264
 6465 0fba 01       		.byte	0x1
 6466 0fbb 10       		.uleb128 0x10
 6467 0fbc E5040000 		.4byte	.LASF265
 6468 0fc0 02       		.byte	0x2
 6469 0fc1 10       		.uleb128 0x10
 6470 0fc2 62000000 		.4byte	.LASF266
 6471 0fc6 04       		.byte	0x4
 6472 0fc7 10       		.uleb128 0x10
 6473 0fc8 01070000 		.4byte	.LASF267
 6474 0fcc 08       		.byte	0x8
 6475 0fcd 10       		.uleb128 0x10
 6476 0fce 83110000 		.4byte	.LASF268
 6477 0fd2 10       		.byte	0x10
 6478 0fd3 10       		.uleb128 0x10
 6479 0fd4 BD0E0000 		.4byte	.LASF269
 6480 0fd8 20       		.byte	0x20
 6481 0fd9 00       		.byte	0
 6482 0fda 0F       		.uleb128 0xf
 6483 0fdb 01       		.byte	0x1
 6484 0fdc 42000000 		.4byte	0x42
ARM GAS  C:\Users\tmj32\AppData\Local\Temp\cc11CUDk.s 			page 143


 6485 0fe0 10       		.byte	0x10
 6486 0fe1 22       		.byte	0x22
 6487 0fe2 F30F0000 		.4byte	0xff3
 6488 0fe6 10       		.uleb128 0x10
 6489 0fe7 68090000 		.4byte	.LASF270
 6490 0feb 00       		.byte	0
 6491 0fec 10       		.uleb128 0x10
 6492 0fed 6E0F0000 		.4byte	.LASF271
 6493 0ff1 01       		.byte	0x1
 6494 0ff2 00       		.byte	0
 6495 0ff3 02       		.uleb128 0x2
 6496 0ff4 93030000 		.4byte	.LASF272
 6497 0ff8 10       		.byte	0x10
 6498 0ff9 26       		.byte	0x26
 6499 0ffa B8000000 		.4byte	0xb8
 6500 0ffe 0F       		.uleb128 0xf
 6501 0fff 01       		.byte	0x1
 6502 1000 42000000 		.4byte	0x42
 6503 1004 10       		.byte	0x10
 6504 1005 28       		.byte	0x28
 6505 1006 1D100000 		.4byte	0x101d
 6506 100a 10       		.uleb128 0x10
 6507 100b F0010000 		.4byte	.LASF273
 6508 100f 00       		.byte	0
 6509 1010 10       		.uleb128 0x10
 6510 1011 9C0E0000 		.4byte	.LASF274
 6511 1015 01       		.byte	0x1
 6512 1016 10       		.uleb128 0x10
 6513 1017 4A0B0000 		.4byte	.LASF275
 6514 101b 02       		.byte	0x2
 6515 101c 00       		.byte	0
 6516 101d 02       		.uleb128 0x2
 6517 101e E9120000 		.4byte	.LASF276
 6518 1022 10       		.byte	0x10
 6519 1023 2D       		.byte	0x2d
 6520 1024 B8000000 		.4byte	0xb8
 6521 1028 06       		.uleb128 0x6
 6522 1029 0C       		.byte	0xc
 6523 102a 10       		.byte	0x10
 6524 102b 34       		.byte	0x34
 6525 102c 58100000 		.4byte	0x1058
 6526 1030 07       		.uleb128 0x7
 6527 1031 150D0000 		.4byte	.LASF277
 6528 1035 10       		.byte	0x10
 6529 1036 35       		.byte	0x35
 6530 1037 DB050000 		.4byte	0x5db
 6531 103b 00       		.byte	0
 6532 103c 08       		.uleb128 0x8
 6533 103d 706F7300 		.ascii	"pos\000"
 6534 1041 10       		.byte	0x10
 6535 1042 36       		.byte	0x36
 6536 1043 5A030000 		.4byte	0x35a
 6537 1047 04       		.byte	0x4
 6538 1048 0A       		.uleb128 0xa
 6539 1049 2A150000 		.4byte	.LASF278
 6540 104d 10       		.byte	0x10
 6541 104e 37       		.byte	0x37
ARM GAS  C:\Users\tmj32\AppData\Local\Temp\cc11CUDk.s 			page 144


 6542 104f B8000000 		.4byte	0xb8
 6543 1053 01       		.byte	0x1
 6544 1054 01       		.byte	0x1
 6545 1055 07       		.byte	0x7
 6546 1056 08       		.byte	0x8
 6547 1057 00       		.byte	0
 6548 1058 06       		.uleb128 0x6
 6549 1059 20       		.byte	0x20
 6550 105a 10       		.byte	0x10
 6551 105b 32       		.byte	0x32
 6552 105c D9100000 		.4byte	0x10d9
 6553 1060 08       		.uleb128 0x8
 6554 1061 68737600 		.ascii	"hsv\000"
 6555 1065 10       		.byte	0x10
 6556 1066 33       		.byte	0x33
 6557 1067 23030000 		.4byte	0x323
 6558 106b 00       		.byte	0
 6559 106c 07       		.uleb128 0x7
 6560 106d B80A0000 		.4byte	.LASF279
 6561 1071 10       		.byte	0x10
 6562 1072 39       		.byte	0x39
 6563 1073 28100000 		.4byte	0x1028
 6564 1077 04       		.byte	0x4
 6565 1078 07       		.uleb128 0x7
 6566 1079 56080000 		.4byte	.LASF280
 6567 107d 10       		.byte	0x10
 6568 107e 3A       		.byte	0x3a
 6569 107f E4000000 		.4byte	0xe4
 6570 1083 10       		.byte	0x10
 6571 1084 07       		.uleb128 0x7
 6572 1085 54110000 		.4byte	.LASF281
 6573 1089 10       		.byte	0x10
 6574 108a 3B       		.byte	0x3b
 6575 108b E4000000 		.4byte	0xe4
 6576 108f 14       		.byte	0x14
 6577 1090 07       		.uleb128 0x7
 6578 1091 57090000 		.4byte	.LASF282
 6579 1095 10       		.byte	0x10
 6580 1096 3C       		.byte	0x3c
 6581 1097 5A030000 		.4byte	0x35a
 6582 109b 18       		.byte	0x18
 6583 109c 0A       		.uleb128 0xa
 6584 109d B8060000 		.4byte	.LASF283
 6585 10a1 10       		.byte	0x10
 6586 10a2 3D       		.byte	0x3d
 6587 10a3 1D100000 		.4byte	0x101d
 6588 10a7 01       		.byte	0x1
 6589 10a8 02       		.byte	0x2
 6590 10a9 06       		.byte	0x6
 6591 10aa 1C       		.byte	0x1c
 6592 10ab 0A       		.uleb128 0xa
 6593 10ac F9000000 		.4byte	.LASF284
 6594 10b0 10       		.byte	0x10
 6595 10b1 3E       		.byte	0x3e
 6596 10b2 B8000000 		.4byte	0xb8
 6597 10b6 01       		.byte	0x1
 6598 10b7 01       		.byte	0x1
ARM GAS  C:\Users\tmj32\AppData\Local\Temp\cc11CUDk.s 			page 145


 6599 10b8 05       		.byte	0x5
 6600 10b9 1C       		.byte	0x1c
 6601 10ba 0A       		.uleb128 0xa
 6602 10bb 1C020000 		.4byte	.LASF65
 6603 10bf 10       		.byte	0x10
 6604 10c0 3F       		.byte	0x3f
 6605 10c1 F30F0000 		.4byte	0xff3
 6606 10c5 01       		.byte	0x1
 6607 10c6 01       		.byte	0x1
 6608 10c7 04       		.byte	0x4
 6609 10c8 1C       		.byte	0x1c
 6610 10c9 0A       		.uleb128 0xa
 6611 10ca 35140000 		.4byte	.LASF285
 6612 10ce 10       		.byte	0x10
 6613 10cf 40       		.byte	0x40
 6614 10d0 B8000000 		.4byte	0xb8
 6615 10d4 01       		.byte	0x1
 6616 10d5 01       		.byte	0x1
 6617 10d6 03       		.byte	0x3
 6618 10d7 1C       		.byte	0x1c
 6619 10d8 00       		.byte	0
 6620 10d9 02       		.uleb128 0x2
 6621 10da F30A0000 		.4byte	.LASF286
 6622 10de 10       		.byte	0x10
 6623 10df 41       		.byte	0x41
 6624 10e0 58100000 		.4byte	0x1058
 6625 10e4 0F       		.uleb128 0xf
 6626 10e5 01       		.byte	0x1
 6627 10e6 42000000 		.4byte	0x42
 6628 10ea 10       		.byte	0x10
 6629 10eb 44       		.byte	0x44
 6630 10ec FD100000 		.4byte	0x10fd
 6631 10f0 10       		.uleb128 0x10
 6632 10f1 A8070000 		.4byte	.LASF287
 6633 10f5 00       		.byte	0
 6634 10f6 10       		.uleb128 0x10
 6635 10f7 32150000 		.4byte	.LASF288
 6636 10fb 01       		.byte	0x1
 6637 10fc 00       		.byte	0
 6638 10fd 02       		.uleb128 0x2
 6639 10fe F9070000 		.4byte	.LASF289
 6640 1102 10       		.byte	0x10
 6641 1103 48       		.byte	0x48
 6642 1104 B8000000 		.4byte	0xb8
 6643 1108 0F       		.uleb128 0xf
 6644 1109 01       		.byte	0x1
 6645 110a 42000000 		.4byte	0x42
 6646 110e 11       		.byte	0x11
 6647 110f 1E       		.byte	0x1e
 6648 1110 5D110000 		.4byte	0x115d
 6649 1114 10       		.uleb128 0x10
 6650 1115 BC140000 		.4byte	.LASF290
 6651 1119 11       		.byte	0x11
 6652 111a 10       		.uleb128 0x10
 6653 111b 970F0000 		.4byte	.LASF291
 6654 111f 12       		.byte	0x12
 6655 1120 10       		.uleb128 0x10
ARM GAS  C:\Users\tmj32\AppData\Local\Temp\cc11CUDk.s 			page 146


 6656 1121 3E000000 		.4byte	.LASF292
 6657 1125 13       		.byte	0x13
 6658 1126 10       		.uleb128 0x10
 6659 1127 F3030000 		.4byte	.LASF293
 6660 112b 14       		.byte	0x14
 6661 112c 10       		.uleb128 0x10
 6662 112d A30F0000 		.4byte	.LASF294
 6663 1131 1B       		.byte	0x1b
 6664 1132 10       		.uleb128 0x10
 6665 1133 A5030000 		.4byte	.LASF295
 6666 1137 7F       		.byte	0x7f
 6667 1138 10       		.uleb128 0x10
 6668 1139 28050000 		.4byte	.LASF296
 6669 113d 08       		.byte	0x8
 6670 113e 10       		.uleb128 0x10
 6671 113f D8010000 		.4byte	.LASF297
 6672 1143 0A       		.byte	0xa
 6673 1144 10       		.uleb128 0x10
 6674 1145 A30C0000 		.4byte	.LASF298
 6675 1149 09       		.byte	0x9
 6676 114a 10       		.uleb128 0x10
 6677 114b AE110000 		.4byte	.LASF299
 6678 114f 0B       		.byte	0xb
 6679 1150 10       		.uleb128 0x10
 6680 1151 33080000 		.4byte	.LASF300
 6681 1155 02       		.byte	0x2
 6682 1156 10       		.uleb128 0x10
 6683 1157 C70D0000 		.4byte	.LASF301
 6684 115b 03       		.byte	0x3
 6685 115c 00       		.byte	0
 6686 115d 06       		.uleb128 0x6
 6687 115e 14       		.byte	0x14
 6688 115f 12       		.byte	0x12
 6689 1160 34       		.byte	0x34
 6690 1161 A1110000 		.4byte	0x11a1
 6691 1165 08       		.uleb128 0x8
 6692 1166 72656C00 		.ascii	"rel\000"
 6693 116a 12       		.byte	0x12
 6694 116b 36       		.byte	0x36
 6695 116c DB050000 		.4byte	0x5db
 6696 1170 00       		.byte	0
 6697 1171 08       		.uleb128 0x8
 6698 1172 707200   		.ascii	"pr\000"
 6699 1175 12       		.byte	0x12
 6700 1176 37       		.byte	0x37
 6701 1177 DB050000 		.4byte	0x5db
 6702 117b 04       		.byte	0x4
 6703 117c 07       		.uleb128 0x7
 6704 117d E40B0000 		.4byte	.LASF302
 6705 1181 12       		.byte	0x12
 6706 1182 38       		.byte	0x38
 6707 1183 DB050000 		.4byte	0x5db
 6708 1187 08       		.byte	0x8
 6709 1188 07       		.uleb128 0x7
 6710 1189 2F040000 		.4byte	.LASF303
 6711 118d 12       		.byte	0x12
 6712 118e 39       		.byte	0x39
ARM GAS  C:\Users\tmj32\AppData\Local\Temp\cc11CUDk.s 			page 147


 6713 118f DB050000 		.4byte	0x5db
 6714 1193 0C       		.byte	0xc
 6715 1194 08       		.uleb128 0x8
 6716 1195 696E6100 		.ascii	"ina\000"
 6717 1199 12       		.byte	0x12
 6718 119a 3A       		.byte	0x3a
 6719 119b DB050000 		.4byte	0x5db
 6720 119f 10       		.byte	0x10
 6721 11a0 00       		.byte	0
 6722 11a1 06       		.uleb128 0x6
 6723 11a2 14       		.byte	0x14
 6724 11a3 12       		.byte	0x12
 6725 11a4 3F       		.byte	0x3f
 6726 11a5 E5110000 		.4byte	0x11e5
 6727 11a9 08       		.uleb128 0x8
 6728 11aa 72656C00 		.ascii	"rel\000"
 6729 11ae 12       		.byte	0x12
 6730 11af 41       		.byte	0x41
 6731 11b0 DB050000 		.4byte	0x5db
 6732 11b4 00       		.byte	0
 6733 11b5 08       		.uleb128 0x8
 6734 11b6 707200   		.ascii	"pr\000"
 6735 11b9 12       		.byte	0x12
 6736 11ba 42       		.byte	0x42
 6737 11bb DB050000 		.4byte	0x5db
 6738 11bf 04       		.byte	0x4
 6739 11c0 07       		.uleb128 0x7
 6740 11c1 E40B0000 		.4byte	.LASF302
 6741 11c5 12       		.byte	0x12
 6742 11c6 43       		.byte	0x43
 6743 11c7 DB050000 		.4byte	0x5db
 6744 11cb 08       		.byte	0x8
 6745 11cc 07       		.uleb128 0x7
 6746 11cd 2F040000 		.4byte	.LASF303
 6747 11d1 12       		.byte	0x12
 6748 11d2 44       		.byte	0x44
 6749 11d3 DB050000 		.4byte	0x5db
 6750 11d7 0C       		.byte	0xc
 6751 11d8 08       		.uleb128 0x8
 6752 11d9 696E6100 		.ascii	"ina\000"
 6753 11dd 12       		.byte	0x12
 6754 11de 45       		.byte	0x45
 6755 11df DB050000 		.4byte	0x5db
 6756 11e3 10       		.byte	0x10
 6757 11e4 00       		.byte	0
 6758 11e5 06       		.uleb128 0x6
 6759 11e6 0C       		.byte	0xc
 6760 11e7 12       		.byte	0x12
 6761 11e8 4A       		.byte	0x4a
 6762 11e9 12120000 		.4byte	0x1212
 6763 11ed 07       		.uleb128 0x7
 6764 11ee 7A020000 		.4byte	.LASF304
 6765 11f2 12       		.byte	0x12
 6766 11f3 4C       		.byte	0x4c
 6767 11f4 DB050000 		.4byte	0x5db
 6768 11f8 00       		.byte	0
 6769 11f9 08       		.uleb128 0x8
ARM GAS  C:\Users\tmj32\AppData\Local\Temp\cc11CUDk.s 			page 148


 6770 11fa 73656300 		.ascii	"sec\000"
 6771 11fe 12       		.byte	0x12
 6772 11ff 4D       		.byte	0x4d
 6773 1200 DB050000 		.4byte	0x5db
 6774 1204 04       		.byte	0x4
 6775 1205 07       		.uleb128 0x7
 6776 1206 4B080000 		.4byte	.LASF305
 6777 120a 12       		.byte	0x12
 6778 120b 4E       		.byte	0x4e
 6779 120c DB050000 		.4byte	0x5db
 6780 1210 08       		.byte	0x8
 6781 1211 00       		.byte	0
 6782 1212 06       		.uleb128 0x6
 6783 1213 08       		.byte	0x8
 6784 1214 12       		.byte	0x12
 6785 1215 53       		.byte	0x53
 6786 1216 33120000 		.4byte	0x1233
 6787 121a 07       		.uleb128 0x7
 6788 121b 58020000 		.4byte	.LASF306
 6789 121f 12       		.byte	0x12
 6790 1220 55       		.byte	0x55
 6791 1221 DB050000 		.4byte	0x5db
 6792 1225 00       		.byte	0
 6793 1226 07       		.uleb128 0x7
 6794 1227 85130000 		.4byte	.LASF307
 6795 122b 12       		.byte	0x12
 6796 122c 56       		.byte	0x56
 6797 122d DB050000 		.4byte	0x5db
 6798 1231 04       		.byte	0x4
 6799 1232 00       		.byte	0
 6800 1233 06       		.uleb128 0x6
 6801 1234 04       		.byte	0x4
 6802 1235 12       		.byte	0x12
 6803 1236 5B       		.byte	0x5b
 6804 1237 48120000 		.4byte	0x1248
 6805 123b 07       		.uleb128 0x7
 6806 123c 7E100000 		.4byte	.LASF308
 6807 1240 12       		.byte	0x12
 6808 1241 5D       		.byte	0x5d
 6809 1242 DB050000 		.4byte	0x5db
 6810 1246 00       		.byte	0
 6811 1247 00       		.byte	0
 6812 1248 06       		.uleb128 0x6
 6813 1249 08       		.byte	0x8
 6814 124a 12       		.byte	0x12
 6815 124b 66       		.byte	0x66
 6816 124c 68120000 		.4byte	0x1268
 6817 1250 08       		.uleb128 0x8
 6818 1251 626700   		.ascii	"bg\000"
 6819 1254 12       		.byte	0x12
 6820 1255 68       		.byte	0x68
 6821 1256 DB050000 		.4byte	0x5db
 6822 125a 00       		.byte	0
 6823 125b 07       		.uleb128 0x7
 6824 125c B80A0000 		.4byte	.LASF279
 6825 1260 12       		.byte	0x12
 6826 1261 69       		.byte	0x69
ARM GAS  C:\Users\tmj32\AppData\Local\Temp\cc11CUDk.s 			page 149


 6827 1262 DB050000 		.4byte	0x5db
 6828 1266 04       		.byte	0x4
 6829 1267 00       		.byte	0
 6830 1268 06       		.uleb128 0x6
 6831 1269 0C       		.byte	0xc
 6832 126a 12       		.byte	0x12
 6833 126b 6E       		.byte	0x6e
 6834 126c 94120000 		.4byte	0x1294
 6835 1270 08       		.uleb128 0x8
 6836 1271 626700   		.ascii	"bg\000"
 6837 1274 12       		.byte	0x12
 6838 1275 70       		.byte	0x70
 6839 1276 DB050000 		.4byte	0x5db
 6840 127a 00       		.byte	0
 6841 127b 07       		.uleb128 0x7
 6842 127c B80A0000 		.4byte	.LASF279
 6843 1280 12       		.byte	0x12
 6844 1281 71       		.byte	0x71
 6845 1282 DB050000 		.4byte	0x5db
 6846 1286 04       		.byte	0x4
 6847 1287 07       		.uleb128 0x7
 6848 1288 97140000 		.4byte	.LASF309
 6849 128c 12       		.byte	0x12
 6850 128d 72       		.byte	0x72
 6851 128e DB050000 		.4byte	0x5db
 6852 1292 08       		.byte	0x8
 6853 1293 00       		.byte	0
 6854 1294 06       		.uleb128 0x6
 6855 1295 10       		.byte	0x10
 6856 1296 12       		.byte	0x12
 6857 1297 87       		.byte	0x87
 6858 1298 CC120000 		.4byte	0x12cc
 6859 129c 08       		.uleb128 0x8
 6860 129d 626700   		.ascii	"bg\000"
 6861 12a0 12       		.byte	0x12
 6862 12a1 89       		.byte	0x89
 6863 12a2 DB050000 		.4byte	0x5db
 6864 12a6 00       		.byte	0
 6865 12a7 07       		.uleb128 0x7
 6866 12a8 B80A0000 		.4byte	.LASF279
 6867 12ac 12       		.byte	0x12
 6868 12ad 8A       		.byte	0x8a
 6869 12ae DB050000 		.4byte	0x5db
 6870 12b2 04       		.byte	0x4
 6871 12b3 07       		.uleb128 0x7
 6872 12b4 940C0000 		.4byte	.LASF310
 6873 12b8 12       		.byte	0x12
 6874 12b9 8B       		.byte	0x8b
 6875 12ba DB050000 		.4byte	0x5db
 6876 12be 08       		.byte	0x8
 6877 12bf 07       		.uleb128 0x7
 6878 12c0 14050000 		.4byte	.LASF311
 6879 12c4 12       		.byte	0x12
 6880 12c5 8C       		.byte	0x8c
 6881 12c6 DB050000 		.4byte	0x5db
 6882 12ca 0C       		.byte	0xc
 6883 12cb 00       		.byte	0
ARM GAS  C:\Users\tmj32\AppData\Local\Temp\cc11CUDk.s 			page 150


 6884 12cc 06       		.uleb128 0x6
 6885 12cd 20       		.byte	0x20
 6886 12ce 12       		.byte	0x12
 6887 12cf 95       		.byte	0x95
 6888 12d0 34130000 		.4byte	0x1334
 6889 12d4 08       		.uleb128 0x8
 6890 12d5 626700   		.ascii	"bg\000"
 6891 12d8 12       		.byte	0x12
 6892 12d9 97       		.byte	0x97
 6893 12da DB050000 		.4byte	0x5db
 6894 12de 00       		.byte	0
 6895 12df 07       		.uleb128 0x7
 6896 12e0 39050000 		.4byte	.LASF312
 6897 12e4 12       		.byte	0x12
 6898 12e5 98       		.byte	0x98
 6899 12e6 DB050000 		.4byte	0x5db
 6900 12ea 04       		.byte	0x4
 6901 12eb 07       		.uleb128 0x7
 6902 12ec 2B000000 		.4byte	.LASF313
 6903 12f0 12       		.byte	0x12
 6904 12f1 99       		.byte	0x99
 6905 12f2 DB050000 		.4byte	0x5db
 6906 12f6 08       		.byte	0x8
 6907 12f7 07       		.uleb128 0x7
 6908 12f8 67120000 		.4byte	.LASF314
 6909 12fc 12       		.byte	0x12
 6910 12fd 9A       		.byte	0x9a
 6911 12fe DB050000 		.4byte	0x5db
 6912 1302 0C       		.byte	0xc
 6913 1303 07       		.uleb128 0x7
 6914 1304 7B010000 		.4byte	.LASF315
 6915 1308 12       		.byte	0x12
 6916 1309 9B       		.byte	0x9b
 6917 130a DB050000 		.4byte	0x5db
 6918 130e 10       		.byte	0x10
 6919 130f 07       		.uleb128 0x7
 6920 1310 F00E0000 		.4byte	.LASF316
 6921 1314 12       		.byte	0x12
 6922 1315 9C       		.byte	0x9c
 6923 1316 DB050000 		.4byte	0x5db
 6924 131a 14       		.byte	0x14
 6925 131b 07       		.uleb128 0x7
 6926 131c CD050000 		.4byte	.LASF317
 6927 1320 12       		.byte	0x12
 6928 1321 9D       		.byte	0x9d
 6929 1322 DB050000 		.4byte	0x5db
 6930 1326 18       		.byte	0x18
 6931 1327 07       		.uleb128 0x7
 6932 1328 25040000 		.4byte	.LASF318
 6933 132c 12       		.byte	0x12
 6934 132d 9E       		.byte	0x9e
 6935 132e DB050000 		.4byte	0x5db
 6936 1332 1C       		.byte	0x1c
 6937 1333 00       		.byte	0
 6938 1334 06       		.uleb128 0x6
 6939 1335 14       		.byte	0x14
 6940 1336 12       		.byte	0x12
ARM GAS  C:\Users\tmj32\AppData\Local\Temp\cc11CUDk.s 			page 151


 6941 1337 A6       		.byte	0xa6
 6942 1338 78130000 		.4byte	0x1378
 6943 133c 08       		.uleb128 0x8
 6944 133d 72656C00 		.ascii	"rel\000"
 6945 1341 12       		.byte	0x12
 6946 1342 A8       		.byte	0xa8
 6947 1343 DB050000 		.4byte	0x5db
 6948 1347 00       		.byte	0
 6949 1348 08       		.uleb128 0x8
 6950 1349 707200   		.ascii	"pr\000"
 6951 134c 12       		.byte	0x12
 6952 134d A9       		.byte	0xa9
 6953 134e DB050000 		.4byte	0x5db
 6954 1352 04       		.byte	0x4
 6955 1353 07       		.uleb128 0x7
 6956 1354 E40B0000 		.4byte	.LASF302
 6957 1358 12       		.byte	0x12
 6958 1359 AA       		.byte	0xaa
 6959 135a DB050000 		.4byte	0x5db
 6960 135e 08       		.byte	0x8
 6961 135f 07       		.uleb128 0x7
 6962 1360 2F040000 		.4byte	.LASF303
 6963 1364 12       		.byte	0x12
 6964 1365 AB       		.byte	0xab
 6965 1366 DB050000 		.4byte	0x5db
 6966 136a 0C       		.byte	0xc
 6967 136b 08       		.uleb128 0x8
 6968 136c 696E6100 		.ascii	"ina\000"
 6969 1370 12       		.byte	0x12
 6970 1371 AC       		.byte	0xac
 6971 1372 DB050000 		.4byte	0x5db
 6972 1376 10       		.byte	0x10
 6973 1377 00       		.byte	0
 6974 1378 06       		.uleb128 0x6
 6975 1379 18       		.byte	0x18
 6976 137a 12       		.byte	0x12
 6977 137b A3       		.byte	0xa3
 6978 137c 98130000 		.4byte	0x1398
 6979 1380 08       		.uleb128 0x8
 6980 1381 626700   		.ascii	"bg\000"
 6981 1384 12       		.byte	0x12
 6982 1385 A5       		.byte	0xa5
 6983 1386 DB050000 		.4byte	0x5db
 6984 138a 00       		.byte	0
 6985 138b 08       		.uleb128 0x8
 6986 138c 626F7800 		.ascii	"box\000"
 6987 1390 12       		.byte	0x12
 6988 1391 AD       		.byte	0xad
 6989 1392 34130000 		.4byte	0x1334
 6990 1396 04       		.byte	0x4
 6991 1397 00       		.byte	0
 6992 1398 06       		.uleb128 0x6
 6993 1399 14       		.byte	0x14
 6994 139a 12       		.byte	0x12
 6995 139b B5       		.byte	0xb5
 6996 139c DC130000 		.4byte	0x13dc
 6997 13a0 08       		.uleb128 0x8
ARM GAS  C:\Users\tmj32\AppData\Local\Temp\cc11CUDk.s 			page 152


 6998 13a1 72656C00 		.ascii	"rel\000"
 6999 13a5 12       		.byte	0x12
 7000 13a6 B7       		.byte	0xb7
 7001 13a7 DB050000 		.4byte	0x5db
 7002 13ab 00       		.byte	0
 7003 13ac 08       		.uleb128 0x8
 7004 13ad 707200   		.ascii	"pr\000"
 7005 13b0 12       		.byte	0x12
 7006 13b1 B8       		.byte	0xb8
 7007 13b2 DB050000 		.4byte	0x5db
 7008 13b6 04       		.byte	0x4
 7009 13b7 07       		.uleb128 0x7
 7010 13b8 E40B0000 		.4byte	.LASF302
 7011 13bc 12       		.byte	0x12
 7012 13bd B9       		.byte	0xb9
 7013 13be DB050000 		.4byte	0x5db
 7014 13c2 08       		.byte	0x8
 7015 13c3 07       		.uleb128 0x7
 7016 13c4 2F040000 		.4byte	.LASF303
 7017 13c8 12       		.byte	0x12
 7018 13c9 BA       		.byte	0xba
 7019 13ca DB050000 		.4byte	0x5db
 7020 13ce 0C       		.byte	0xc
 7021 13cf 08       		.uleb128 0x8
 7022 13d0 696E6100 		.ascii	"ina\000"
 7023 13d4 12       		.byte	0x12
 7024 13d5 BB       		.byte	0xbb
 7025 13d6 DB050000 		.4byte	0x5db
 7026 13da 10       		.byte	0x10
 7027 13db 00       		.byte	0
 7028 13dc 06       		.uleb128 0x6
 7029 13dd 18       		.byte	0x18
 7030 13de 12       		.byte	0x12
 7031 13df B2       		.byte	0xb2
 7032 13e0 FC130000 		.4byte	0x13fc
 7033 13e4 08       		.uleb128 0x8
 7034 13e5 626700   		.ascii	"bg\000"
 7035 13e8 12       		.byte	0x12
 7036 13e9 B4       		.byte	0xb4
 7037 13ea DB050000 		.4byte	0x5db
 7038 13ee 00       		.byte	0
 7039 13ef 08       		.uleb128 0x8
 7040 13f0 62746E00 		.ascii	"btn\000"
 7041 13f4 12       		.byte	0x12
 7042 13f5 BC       		.byte	0xbc
 7043 13f6 98130000 		.4byte	0x1398
 7044 13fa 04       		.byte	0x4
 7045 13fb 00       		.byte	0
 7046 13fc 06       		.uleb128 0x6
 7047 13fd 14       		.byte	0x14
 7048 13fe 12       		.byte	0x12
 7049 13ff C4       		.byte	0xc4
 7050 1400 40140000 		.4byte	0x1440
 7051 1404 08       		.uleb128 0x8
 7052 1405 72656C00 		.ascii	"rel\000"
 7053 1409 12       		.byte	0x12
 7054 140a C6       		.byte	0xc6
ARM GAS  C:\Users\tmj32\AppData\Local\Temp\cc11CUDk.s 			page 153


 7055 140b DB050000 		.4byte	0x5db
 7056 140f 00       		.byte	0
 7057 1410 08       		.uleb128 0x8
 7058 1411 707200   		.ascii	"pr\000"
 7059 1414 12       		.byte	0x12
 7060 1415 C7       		.byte	0xc7
 7061 1416 DB050000 		.4byte	0x5db
 7062 141a 04       		.byte	0x4
 7063 141b 07       		.uleb128 0x7
 7064 141c E40B0000 		.4byte	.LASF302
 7065 1420 12       		.byte	0x12
 7066 1421 C8       		.byte	0xc8
 7067 1422 DB050000 		.4byte	0x5db
 7068 1426 08       		.byte	0x8
 7069 1427 07       		.uleb128 0x7
 7070 1428 2F040000 		.4byte	.LASF303
 7071 142c 12       		.byte	0x12
 7072 142d C9       		.byte	0xc9
 7073 142e DB050000 		.4byte	0x5db
 7074 1432 0C       		.byte	0xc
 7075 1433 08       		.uleb128 0x8
 7076 1434 696E6100 		.ascii	"ina\000"
 7077 1438 12       		.byte	0x12
 7078 1439 CA       		.byte	0xca
 7079 143a DB050000 		.4byte	0x5db
 7080 143e 10       		.byte	0x10
 7081 143f 00       		.byte	0
 7082 1440 06       		.uleb128 0x6
 7083 1441 18       		.byte	0x18
 7084 1442 12       		.byte	0x12
 7085 1443 C1       		.byte	0xc1
 7086 1444 60140000 		.4byte	0x1460
 7087 1448 08       		.uleb128 0x8
 7088 1449 626700   		.ascii	"bg\000"
 7089 144c 12       		.byte	0x12
 7090 144d C3       		.byte	0xc3
 7091 144e DB050000 		.4byte	0x5db
 7092 1452 00       		.byte	0
 7093 1453 08       		.uleb128 0x8
 7094 1454 62746E00 		.ascii	"btn\000"
 7095 1458 12       		.byte	0x12
 7096 1459 CB       		.byte	0xcb
 7097 145a FC130000 		.4byte	0x13fc
 7098 145e 04       		.byte	0x4
 7099 145f 00       		.byte	0
 7100 1460 06       		.uleb128 0x6
 7101 1461 0C       		.byte	0xc
 7102 1462 12       		.byte	0x12
 7103 1463 D3       		.byte	0xd3
 7104 1464 8B140000 		.4byte	0x148b
 7105 1468 08       		.uleb128 0x8
 7106 1469 626700   		.ascii	"bg\000"
 7107 146c 12       		.byte	0x12
 7108 146d D5       		.byte	0xd5
 7109 146e DB050000 		.4byte	0x5db
 7110 1472 00       		.byte	0
 7111 1473 08       		.uleb128 0x8
ARM GAS  C:\Users\tmj32\AppData\Local\Temp\cc11CUDk.s 			page 154


 7112 1474 72656C00 		.ascii	"rel\000"
 7113 1478 12       		.byte	0x12
 7114 1479 D6       		.byte	0xd6
 7115 147a DB050000 		.4byte	0x5db
 7116 147e 04       		.byte	0x4
 7117 147f 08       		.uleb128 0x8
 7118 1480 707200   		.ascii	"pr\000"
 7119 1483 12       		.byte	0x12
 7120 1484 D7       		.byte	0xd7
 7121 1485 DB050000 		.4byte	0x5db
 7122 1489 08       		.byte	0x8
 7123 148a 00       		.byte	0
 7124 148b 06       		.uleb128 0x6
 7125 148c 10       		.byte	0x10
 7126 148d 12       		.byte	0x12
 7127 148e D0       		.byte	0xd0
 7128 148f AB140000 		.4byte	0x14ab
 7129 1493 08       		.uleb128 0x8
 7130 1494 626700   		.ascii	"bg\000"
 7131 1497 12       		.byte	0x12
 7132 1498 D2       		.byte	0xd2
 7133 1499 DB050000 		.4byte	0x5db
 7134 149d 00       		.byte	0
 7135 149e 08       		.uleb128 0x8
 7136 149f 62746E00 		.ascii	"btn\000"
 7137 14a3 12       		.byte	0x12
 7138 14a4 D8       		.byte	0xd8
 7139 14a5 60140000 		.4byte	0x1460
 7140 14a9 04       		.byte	0x4
 7141 14aa 00       		.byte	0
 7142 14ab 06       		.uleb128 0x6
 7143 14ac 0C       		.byte	0xc
 7144 14ad 12       		.byte	0x12
 7145 14ae DD       		.byte	0xdd
 7146 14af D6140000 		.4byte	0x14d6
 7147 14b3 08       		.uleb128 0x8
 7148 14b4 626700   		.ascii	"bg\000"
 7149 14b7 12       		.byte	0x12
 7150 14b8 DF       		.byte	0xdf
 7151 14b9 DB050000 		.4byte	0x5db
 7152 14bd 00       		.byte	0
 7153 14be 07       		.uleb128 0x7
 7154 14bf 6B040000 		.4byte	.LASF319
 7155 14c3 12       		.byte	0x12
 7156 14c4 E0       		.byte	0xe0
 7157 14c5 DB050000 		.4byte	0x5db
 7158 14c9 04       		.byte	0x4
 7159 14ca 08       		.uleb128 0x8
 7160 14cb 736200   		.ascii	"sb\000"
 7161 14ce 12       		.byte	0x12
 7162 14cf E1       		.byte	0xe1
 7163 14d0 DB050000 		.4byte	0x5db
 7164 14d4 08       		.byte	0x8
 7165 14d5 00       		.byte	0
 7166 14d6 06       		.uleb128 0x6
 7167 14d7 10       		.byte	0x10
 7168 14d8 12       		.byte	0x12
ARM GAS  C:\Users\tmj32\AppData\Local\Temp\cc11CUDk.s 			page 155


 7169 14d9 E6       		.byte	0xe6
 7170 14da 0E150000 		.4byte	0x150e
 7171 14de 07       		.uleb128 0x7
 7172 14df BE070000 		.4byte	.LASF112
 7173 14e3 12       		.byte	0x12
 7174 14e4 E8       		.byte	0xe8
 7175 14e5 DB050000 		.4byte	0x5db
 7176 14e9 00       		.byte	0
 7177 14ea 07       		.uleb128 0x7
 7178 14eb 7D090000 		.4byte	.LASF320
 7179 14ef 12       		.byte	0x12
 7180 14f0 E9       		.byte	0xe9
 7181 14f1 DB050000 		.4byte	0x5db
 7182 14f5 04       		.byte	0x4
 7183 14f6 07       		.uleb128 0x7
 7184 14f7 05150000 		.4byte	.LASF200
 7185 14fb 12       		.byte	0x12
 7186 14fc EA       		.byte	0xea
 7187 14fd DB050000 		.4byte	0x5db
 7188 1501 08       		.byte	0x8
 7189 1502 08       		.uleb128 0x8
 7190 1503 736200   		.ascii	"sb\000"
 7191 1506 12       		.byte	0x12
 7192 1507 EB       		.byte	0xeb
 7193 1508 DB050000 		.4byte	0x5db
 7194 150c 0C       		.byte	0xc
 7195 150d 00       		.byte	0
 7196 150e 06       		.uleb128 0x6
 7197 150f 0C       		.byte	0xc
 7198 1510 12       		.byte	0x12
 7199 1511 F0       		.byte	0xf0
 7200 1512 39150000 		.4byte	0x1539
 7201 1516 08       		.uleb128 0x8
 7202 1517 626700   		.ascii	"bg\000"
 7203 151a 12       		.byte	0x12
 7204 151b F2       		.byte	0xf2
 7205 151c DB050000 		.4byte	0x5db
 7206 1520 00       		.byte	0
 7207 1521 07       		.uleb128 0x7
 7208 1522 05150000 		.4byte	.LASF200
 7209 1526 12       		.byte	0x12
 7210 1527 F3       		.byte	0xf3
 7211 1528 DB050000 		.4byte	0x5db
 7212 152c 04       		.byte	0x4
 7213 152d 08       		.uleb128 0x8
 7214 152e 736200   		.ascii	"sb\000"
 7215 1531 12       		.byte	0x12
 7216 1532 F4       		.byte	0xf4
 7217 1533 DB050000 		.4byte	0x5db
 7218 1537 08       		.byte	0x8
 7219 1538 00       		.byte	0
 7220 1539 06       		.uleb128 0x6
 7221 153a 14       		.byte	0x14
 7222 153b 12       		.byte	0x12
 7223 153c FE       		.byte	0xfe
 7224 153d 82150000 		.4byte	0x1582
 7225 1541 16       		.uleb128 0x16
ARM GAS  C:\Users\tmj32\AppData\Local\Temp\cc11CUDk.s 			page 156


 7226 1542 72656C00 		.ascii	"rel\000"
 7227 1546 12       		.byte	0x12
 7228 1547 0001     		.2byte	0x100
 7229 1549 DB050000 		.4byte	0x5db
 7230 154d 00       		.byte	0
 7231 154e 16       		.uleb128 0x16
 7232 154f 707200   		.ascii	"pr\000"
 7233 1552 12       		.byte	0x12
 7234 1553 0101     		.2byte	0x101
 7235 1555 DB050000 		.4byte	0x5db
 7236 1559 04       		.byte	0x4
 7237 155a 20       		.uleb128 0x20
 7238 155b E40B0000 		.4byte	.LASF302
 7239 155f 12       		.byte	0x12
 7240 1560 0201     		.2byte	0x102
 7241 1562 DB050000 		.4byte	0x5db
 7242 1566 08       		.byte	0x8
 7243 1567 20       		.uleb128 0x20
 7244 1568 2F040000 		.4byte	.LASF303
 7245 156c 12       		.byte	0x12
 7246 156d 0301     		.2byte	0x103
 7247 156f DB050000 		.4byte	0x5db
 7248 1573 0C       		.byte	0xc
 7249 1574 16       		.uleb128 0x16
 7250 1575 696E6100 		.ascii	"ina\000"
 7251 1579 12       		.byte	0x12
 7252 157a 0401     		.2byte	0x104
 7253 157c DB050000 		.4byte	0x5db
 7254 1580 10       		.byte	0x10
 7255 1581 00       		.byte	0
 7256 1582 06       		.uleb128 0x6
 7257 1583 20       		.byte	0x20
 7258 1584 12       		.byte	0x12
 7259 1585 F9       		.byte	0xf9
 7260 1586 BA150000 		.4byte	0x15ba
 7261 158a 08       		.uleb128 0x8
 7262 158b 626700   		.ascii	"bg\000"
 7263 158e 12       		.byte	0x12
 7264 158f FB       		.byte	0xfb
 7265 1590 DB050000 		.4byte	0x5db
 7266 1594 00       		.byte	0
 7267 1595 07       		.uleb128 0x7
 7268 1596 6B040000 		.4byte	.LASF319
 7269 159a 12       		.byte	0x12
 7270 159b FC       		.byte	0xfc
 7271 159c DB050000 		.4byte	0x5db
 7272 15a0 04       		.byte	0x4
 7273 15a1 08       		.uleb128 0x8
 7274 15a2 736200   		.ascii	"sb\000"
 7275 15a5 12       		.byte	0x12
 7276 15a6 FD       		.byte	0xfd
 7277 15a7 DB050000 		.4byte	0x5db
 7278 15ab 08       		.byte	0x8
 7279 15ac 16       		.uleb128 0x16
 7280 15ad 62746E00 		.ascii	"btn\000"
 7281 15b1 12       		.byte	0x12
 7282 15b2 0501     		.2byte	0x105
ARM GAS  C:\Users\tmj32\AppData\Local\Temp\cc11CUDk.s 			page 157


 7283 15b4 39150000 		.4byte	0x1539
 7284 15b8 0C       		.byte	0xc
 7285 15b9 00       		.byte	0
 7286 15ba 15       		.uleb128 0x15
 7287 15bb 0C       		.byte	0xc
 7288 15bc 12       		.byte	0x12
 7289 15bd 0A01     		.2byte	0x10a
 7290 15bf E9150000 		.4byte	0x15e9
 7291 15c3 16       		.uleb128 0x16
 7292 15c4 626700   		.ascii	"bg\000"
 7293 15c7 12       		.byte	0x12
 7294 15c8 0C01     		.2byte	0x10c
 7295 15ca DB050000 		.4byte	0x5db
 7296 15ce 00       		.byte	0
 7297 15cf 16       		.uleb128 0x16
 7298 15d0 73656C00 		.ascii	"sel\000"
 7299 15d4 12       		.byte	0x12
 7300 15d5 0D01     		.2byte	0x10d
 7301 15d7 DB050000 		.4byte	0x5db
 7302 15db 04       		.byte	0x4
 7303 15dc 16       		.uleb128 0x16
 7304 15dd 736200   		.ascii	"sb\000"
 7305 15e0 12       		.byte	0x12
 7306 15e1 0E01     		.2byte	0x10e
 7307 15e3 DB050000 		.4byte	0x5db
 7308 15e7 08       		.byte	0x8
 7309 15e8 00       		.byte	0
 7310 15e9 15       		.uleb128 0x15
 7311 15ea 08       		.byte	0x8
 7312 15eb 12       		.byte	0x12
 7313 15ec 1301     		.2byte	0x113
 7314 15ee 0C160000 		.4byte	0x160c
 7315 15f2 16       		.uleb128 0x16
 7316 15f3 626700   		.ascii	"bg\000"
 7317 15f6 12       		.byte	0x12
 7318 15f7 1501     		.2byte	0x115
 7319 15f9 DB050000 		.4byte	0x5db
 7320 15fd 00       		.byte	0
 7321 15fe 16       		.uleb128 0x16
 7322 15ff 73656C00 		.ascii	"sel\000"
 7323 1603 12       		.byte	0x12
 7324 1604 1601     		.2byte	0x116
 7325 1606 DB050000 		.4byte	0x5db
 7326 160a 04       		.byte	0x4
 7327 160b 00       		.byte	0
 7328 160c 15       		.uleb128 0x15
 7329 160d 14       		.byte	0x14
 7330 160e 12       		.byte	0x12
 7331 160f 1F01     		.2byte	0x11f
 7332 1611 55160000 		.4byte	0x1655
 7333 1615 16       		.uleb128 0x16
 7334 1616 626700   		.ascii	"bg\000"
 7335 1619 12       		.byte	0x12
 7336 161a 2101     		.2byte	0x121
 7337 161c DB050000 		.4byte	0x5db
 7338 1620 00       		.byte	0
 7339 1621 16       		.uleb128 0x16
ARM GAS  C:\Users\tmj32\AppData\Local\Temp\cc11CUDk.s 			page 158


 7340 1622 72656C00 		.ascii	"rel\000"
 7341 1626 12       		.byte	0x12
 7342 1627 2201     		.2byte	0x122
 7343 1629 DB050000 		.4byte	0x5db
 7344 162d 04       		.byte	0x4
 7345 162e 16       		.uleb128 0x16
 7346 162f 707200   		.ascii	"pr\000"
 7347 1632 12       		.byte	0x12
 7348 1633 2301     		.2byte	0x123
 7349 1635 DB050000 		.4byte	0x5db
 7350 1639 08       		.byte	0x8
 7351 163a 20       		.uleb128 0x20
 7352 163b E40B0000 		.4byte	.LASF302
 7353 163f 12       		.byte	0x12
 7354 1640 2401     		.2byte	0x124
 7355 1642 DB050000 		.4byte	0x5db
 7356 1646 0C       		.byte	0xc
 7357 1647 20       		.uleb128 0x20
 7358 1648 2F040000 		.4byte	.LASF303
 7359 164c 12       		.byte	0x12
 7360 164d 2501     		.2byte	0x125
 7361 164f DB050000 		.4byte	0x5db
 7362 1653 10       		.byte	0x10
 7363 1654 00       		.byte	0
 7364 1655 15       		.uleb128 0x15
 7365 1656 1C       		.byte	0x1c
 7366 1657 12       		.byte	0x12
 7367 1658 1B01     		.2byte	0x11b
 7368 165a 85160000 		.4byte	0x1685
 7369 165e 16       		.uleb128 0x16
 7370 165f 626700   		.ascii	"bg\000"
 7371 1662 12       		.byte	0x12
 7372 1663 1D01     		.2byte	0x11d
 7373 1665 DB050000 		.4byte	0x5db
 7374 1669 00       		.byte	0
 7375 166a 20       		.uleb128 0x20
 7376 166b B80A0000 		.4byte	.LASF279
 7377 166f 12       		.byte	0x12
 7378 1670 1E01     		.2byte	0x11e
 7379 1672 DB050000 		.4byte	0x5db
 7380 1676 04       		.byte	0x4
 7381 1677 16       		.uleb128 0x16
 7382 1678 62746E00 		.ascii	"btn\000"
 7383 167c 12       		.byte	0x12
 7384 167d 2601     		.2byte	0x126
 7385 167f 0C160000 		.4byte	0x160c
 7386 1683 08       		.byte	0x8
 7387 1684 00       		.byte	0
 7388 1685 15       		.uleb128 0x15
 7389 1686 0C       		.byte	0xc
 7390 1687 12       		.byte	0x12
 7391 1688 2B01     		.2byte	0x12b
 7392 168a B4160000 		.4byte	0x16b4
 7393 168e 16       		.uleb128 0x16
 7394 168f 626700   		.ascii	"bg\000"
 7395 1692 12       		.byte	0x12
 7396 1693 2D01     		.2byte	0x12d
ARM GAS  C:\Users\tmj32\AppData\Local\Temp\cc11CUDk.s 			page 159


 7397 1695 DB050000 		.4byte	0x5db
 7398 1699 00       		.byte	0
 7399 169a 20       		.uleb128 0x20
 7400 169b 6B040000 		.4byte	.LASF319
 7401 169f 12       		.byte	0x12
 7402 16a0 2E01     		.2byte	0x12e
 7403 16a2 DB050000 		.4byte	0x5db
 7404 16a6 04       		.byte	0x4
 7405 16a7 16       		.uleb128 0x16
 7406 16a8 736200   		.ascii	"sb\000"
 7407 16ab 12       		.byte	0x12
 7408 16ac 2F01     		.2byte	0x12f
 7409 16ae DB050000 		.4byte	0x5db
 7410 16b2 08       		.byte	0x8
 7411 16b3 00       		.byte	0
 7412 16b4 15       		.uleb128 0x15
 7413 16b5 08       		.byte	0x8
 7414 16b6 12       		.byte	0x12
 7415 16b7 3401     		.2byte	0x134
 7416 16b9 D7160000 		.4byte	0x16d7
 7417 16bd 16       		.uleb128 0x16
 7418 16be 626700   		.ascii	"bg\000"
 7419 16c1 12       		.byte	0x12
 7420 16c2 3601     		.2byte	0x136
 7421 16c4 DB050000 		.4byte	0x5db
 7422 16c8 00       		.byte	0
 7423 16c9 20       		.uleb128 0x20
 7424 16ca 58000000 		.4byte	.LASF321
 7425 16ce 12       		.byte	0x12
 7426 16cf 3701     		.2byte	0x137
 7427 16d1 DB050000 		.4byte	0x5db
 7428 16d5 04       		.byte	0x4
 7429 16d6 00       		.byte	0
 7430 16d7 15       		.uleb128 0x15
 7431 16d8 08       		.byte	0x8
 7432 16d9 12       		.byte	0x12
 7433 16da 4201     		.2byte	0x142
 7434 16dc FA160000 		.4byte	0x16fa
 7435 16e0 16       		.uleb128 0x16
 7436 16e1 72656C00 		.ascii	"rel\000"
 7437 16e5 12       		.byte	0x12
 7438 16e6 4401     		.2byte	0x144
 7439 16e8 DB050000 		.4byte	0x5db
 7440 16ec 00       		.byte	0
 7441 16ed 16       		.uleb128 0x16
 7442 16ee 707200   		.ascii	"pr\000"
 7443 16f1 12       		.byte	0x12
 7444 16f2 4501     		.2byte	0x145
 7445 16f4 DB050000 		.4byte	0x5db
 7446 16f8 04       		.byte	0x4
 7447 16f9 00       		.byte	0
 7448 16fa 15       		.uleb128 0x15
 7449 16fb 18       		.byte	0x18
 7450 16fc 12       		.byte	0x12
 7451 16fd 3C01     		.2byte	0x13c
 7452 16ff 43170000 		.4byte	0x1743
 7453 1703 16       		.uleb128 0x16
ARM GAS  C:\Users\tmj32\AppData\Local\Temp\cc11CUDk.s 			page 160


 7454 1704 626700   		.ascii	"bg\000"
 7455 1707 12       		.byte	0x12
 7456 1708 3E01     		.2byte	0x13e
 7457 170a DB050000 		.4byte	0x5db
 7458 170e 00       		.byte	0
 7459 170f 16       		.uleb128 0x16
 7460 1710 736200   		.ascii	"sb\000"
 7461 1713 12       		.byte	0x12
 7462 1714 3F01     		.2byte	0x13f
 7463 1716 DB050000 		.4byte	0x5db
 7464 171a 04       		.byte	0x4
 7465 171b 20       		.uleb128 0x20
 7466 171c 39050000 		.4byte	.LASF312
 7467 1720 12       		.byte	0x12
 7468 1721 4001     		.2byte	0x140
 7469 1723 DB050000 		.4byte	0x5db
 7470 1727 08       		.byte	0x8
 7471 1728 20       		.uleb128 0x20
 7472 1729 23130000 		.4byte	.LASF322
 7473 172d 12       		.byte	0x12
 7474 172e 4101     		.2byte	0x141
 7475 1730 DB050000 		.4byte	0x5db
 7476 1734 0C       		.byte	0xc
 7477 1735 16       		.uleb128 0x16
 7478 1736 62746E00 		.ascii	"btn\000"
 7479 173a 12       		.byte	0x12
 7480 173b 4601     		.2byte	0x146
 7481 173d D7160000 		.4byte	0x16d7
 7482 1741 10       		.byte	0x10
 7483 1742 00       		.byte	0
 7484 1743 21       		.uleb128 0x21
 7485 1744 A801     		.2byte	0x1a8
 7486 1746 12       		.byte	0x12
 7487 1747 29       		.byte	0x29
 7488 1748 E5180000 		.4byte	0x18e5
 7489 174c 08       		.uleb128 0x8
 7490 174d 73637200 		.ascii	"scr\000"
 7491 1751 12       		.byte	0x12
 7492 1752 2B       		.byte	0x2b
 7493 1753 DB050000 		.4byte	0x5db
 7494 1757 00       		.byte	0
 7495 1758 08       		.uleb128 0x8
 7496 1759 626700   		.ascii	"bg\000"
 7497 175c 12       		.byte	0x12
 7498 175d 2C       		.byte	0x2c
 7499 175e DB050000 		.4byte	0x5db
 7500 1762 04       		.byte	0x4
 7501 1763 07       		.uleb128 0x7
 7502 1764 AA100000 		.4byte	.LASF323
 7503 1768 12       		.byte	0x12
 7504 1769 2D       		.byte	0x2d
 7505 176a DB050000 		.4byte	0x5db
 7506 176e 08       		.byte	0x8
 7507 176f 07       		.uleb128 0x7
 7508 1770 75020000 		.4byte	.LASF324
 7509 1774 12       		.byte	0x12
 7510 1775 30       		.byte	0x30
ARM GAS  C:\Users\tmj32\AppData\Local\Temp\cc11CUDk.s 			page 161


 7511 1776 DB050000 		.4byte	0x5db
 7512 177a 0C       		.byte	0xc
 7513 177b 08       		.uleb128 0x8
 7514 177c 62746E00 		.ascii	"btn\000"
 7515 1780 12       		.byte	0x12
 7516 1781 3B       		.byte	0x3b
 7517 1782 5D110000 		.4byte	0x115d
 7518 1786 10       		.byte	0x10
 7519 1787 07       		.uleb128 0x7
 7520 1788 84100000 		.4byte	.LASF325
 7521 178c 12       		.byte	0x12
 7522 178d 46       		.byte	0x46
 7523 178e A1110000 		.4byte	0x11a1
 7524 1792 24       		.byte	0x24
 7525 1793 07       		.uleb128 0x7
 7526 1794 3D140000 		.4byte	.LASF326
 7527 1798 12       		.byte	0x12
 7528 1799 4F       		.byte	0x4f
 7529 179a E5110000 		.4byte	0x11e5
 7530 179e 38       		.byte	0x38
 7531 179f 08       		.uleb128 0x8
 7532 17a0 696D6700 		.ascii	"img\000"
 7533 17a4 12       		.byte	0x12
 7534 17a5 57       		.byte	0x57
 7535 17a6 12120000 		.4byte	0x1212
 7536 17aa 44       		.byte	0x44
 7537 17ab 07       		.uleb128 0x7
 7538 17ac 79080000 		.4byte	.LASF87
 7539 17b0 12       		.byte	0x12
 7540 17b1 5E       		.byte	0x5e
 7541 17b2 33120000 		.4byte	0x1233
 7542 17b6 4C       		.byte	0x4c
 7543 17b7 08       		.uleb128 0x8
 7544 17b8 6C656400 		.ascii	"led\000"
 7545 17bc 12       		.byte	0x12
 7546 17bd 62       		.byte	0x62
 7547 17be DB050000 		.4byte	0x5db
 7548 17c2 50       		.byte	0x50
 7549 17c3 08       		.uleb128 0x8
 7550 17c4 62617200 		.ascii	"bar\000"
 7551 17c8 12       		.byte	0x12
 7552 17c9 6A       		.byte	0x6a
 7553 17ca 48120000 		.4byte	0x1248
 7554 17ce 54       		.byte	0x54
 7555 17cf 07       		.uleb128 0x7
 7556 17d0 AE080000 		.4byte	.LASF327
 7557 17d4 12       		.byte	0x12
 7558 17d5 73       		.byte	0x73
 7559 17d6 68120000 		.4byte	0x1268
 7560 17da 5C       		.byte	0x5c
 7561 17db 07       		.uleb128 0x7
 7562 17dc CB000000 		.4byte	.LASF328
 7563 17e0 12       		.byte	0x12
 7564 17e1 77       		.byte	0x77
 7565 17e2 DB050000 		.4byte	0x5db
 7566 17e6 68       		.byte	0x68
 7567 17e7 07       		.uleb128 0x7
ARM GAS  C:\Users\tmj32\AppData\Local\Temp\cc11CUDk.s 			page 162


 7568 17e8 9D0C0000 		.4byte	.LASF329
 7569 17ec 12       		.byte	0x12
 7570 17ed 7B       		.byte	0x7b
 7571 17ee DB050000 		.4byte	0x5db
 7572 17f2 6C       		.byte	0x6c
 7573 17f3 08       		.uleb128 0x8
 7574 17f4 61726300 		.ascii	"arc\000"
 7575 17f8 12       		.byte	0x12
 7576 17f9 7F       		.byte	0x7f
 7577 17fa DB050000 		.4byte	0x5db
 7578 17fe 70       		.byte	0x70
 7579 17ff 07       		.uleb128 0x7
 7580 1800 83140000 		.4byte	.LASF330
 7581 1804 12       		.byte	0x12
 7582 1805 83       		.byte	0x83
 7583 1806 DB050000 		.4byte	0x5db
 7584 180a 74       		.byte	0x74
 7585 180b 08       		.uleb128 0x8
 7586 180c 737700   		.ascii	"sw\000"
 7587 180f 12       		.byte	0x12
 7588 1810 8D       		.byte	0x8d
 7589 1811 94120000 		.4byte	0x1294
 7590 1815 78       		.byte	0x78
 7591 1816 07       		.uleb128 0x7
 7592 1817 C9030000 		.4byte	.LASF331
 7593 181b 12       		.byte	0x12
 7594 181c 91       		.byte	0x91
 7595 181d DB050000 		.4byte	0x5db
 7596 1821 88       		.byte	0x88
 7597 1822 07       		.uleb128 0x7
 7598 1823 420D0000 		.4byte	.LASF332
 7599 1827 12       		.byte	0x12
 7600 1828 9F       		.byte	0x9f
 7601 1829 CC120000 		.4byte	0x12cc
 7602 182d 8C       		.byte	0x8c
 7603 182e 08       		.uleb128 0x8
 7604 182f 636200   		.ascii	"cb\000"
 7605 1832 12       		.byte	0x12
 7606 1833 AE       		.byte	0xae
 7607 1834 78130000 		.4byte	0x1378
 7608 1838 AC       		.byte	0xac
 7609 1839 07       		.uleb128 0x7
 7610 183a E6030000 		.4byte	.LASF333
 7611 183e 12       		.byte	0x12
 7612 183f BD       		.byte	0xbd
 7613 1840 DC130000 		.4byte	0x13dc
 7614 1844 C4       		.byte	0xc4
 7615 1845 08       		.uleb128 0x8
 7616 1846 6B6200   		.ascii	"kb\000"
 7617 1849 12       		.byte	0x12
 7618 184a CC       		.byte	0xcc
 7619 184b 40140000 		.4byte	0x1440
 7620 184f DC       		.byte	0xdc
 7621 1850 07       		.uleb128 0x7
 7622 1851 D60B0000 		.4byte	.LASF334
 7623 1855 12       		.byte	0x12
 7624 1856 D9       		.byte	0xd9
ARM GAS  C:\Users\tmj32\AppData\Local\Temp\cc11CUDk.s 			page 163


 7625 1857 8B140000 		.4byte	0x148b
 7626 185b F4       		.byte	0xf4
 7627 185c 1A       		.uleb128 0x1a
 7628 185d 870C0000 		.4byte	.LASF335
 7629 1861 12       		.byte	0x12
 7630 1862 E2       		.byte	0xe2
 7631 1863 AB140000 		.4byte	0x14ab
 7632 1867 0401     		.2byte	0x104
 7633 1869 22       		.uleb128 0x22
 7634 186a 746100   		.ascii	"ta\000"
 7635 186d 12       		.byte	0x12
 7636 186e EC       		.byte	0xec
 7637 186f D6140000 		.4byte	0x14d6
 7638 1873 1001     		.2byte	0x110
 7639 1875 1A       		.uleb128 0x1a
 7640 1876 49120000 		.4byte	.LASF336
 7641 187a 12       		.byte	0x12
 7642 187b F5       		.byte	0xf5
 7643 187c 0E150000 		.4byte	0x150e
 7644 1880 2001     		.2byte	0x120
 7645 1882 23       		.uleb128 0x23
 7646 1883 600C0000 		.4byte	.LASF337
 7647 1887 12       		.byte	0x12
 7648 1888 0601     		.2byte	0x106
 7649 188a 82150000 		.4byte	0x1582
 7650 188e 2C01     		.2byte	0x12c
 7651 1890 23       		.uleb128 0x23
 7652 1891 41060000 		.4byte	.LASF338
 7653 1895 12       		.byte	0x12
 7654 1896 0F01     		.2byte	0x10f
 7655 1898 BA150000 		.4byte	0x15ba
 7656 189c 4C01     		.2byte	0x14c
 7657 189e 23       		.uleb128 0x23
 7658 189f 8A150000 		.4byte	.LASF339
 7659 18a3 12       		.byte	0x12
 7660 18a4 1701     		.2byte	0x117
 7661 18a6 E9150000 		.4byte	0x15e9
 7662 18aa 5801     		.2byte	0x158
 7663 18ac 23       		.uleb128 0x23
 7664 18ad 090B0000 		.4byte	.LASF340
 7665 18b1 12       		.byte	0x12
 7666 18b2 2701     		.2byte	0x127
 7667 18b4 55160000 		.4byte	0x1655
 7668 18b8 6001     		.2byte	0x160
 7669 18ba 23       		.uleb128 0x23
 7670 18bb 6D030000 		.4byte	.LASF341
 7671 18bf 12       		.byte	0x12
 7672 18c0 3001     		.2byte	0x130
 7673 18c2 85160000 		.4byte	0x1685
 7674 18c6 7C01     		.2byte	0x17c
 7675 18c8 23       		.uleb128 0x23
 7676 18c9 55050000 		.4byte	.LASF342
 7677 18cd 12       		.byte	0x12
 7678 18ce 3801     		.2byte	0x138
 7679 18d0 B4160000 		.4byte	0x16b4
 7680 18d4 8801     		.2byte	0x188
 7681 18d6 24       		.uleb128 0x24
ARM GAS  C:\Users\tmj32\AppData\Local\Temp\cc11CUDk.s 			page 164


 7682 18d7 77696E00 		.ascii	"win\000"
 7683 18db 12       		.byte	0x12
 7684 18dc 4701     		.2byte	0x147
 7685 18de FA160000 		.4byte	0x16fa
 7686 18e2 9001     		.2byte	0x190
 7687 18e4 00       		.byte	0
 7688 18e5 21       		.uleb128 0x21
 7689 18e6 A801     		.2byte	0x1a8
 7690 18e8 12       		.byte	0x12
 7691 18e9 27       		.byte	0x27
 7692 18ea FC180000 		.4byte	0x18fc
 7693 18ee 20       		.uleb128 0x20
 7694 18ef 150D0000 		.4byte	.LASF277
 7695 18f3 12       		.byte	0x12
 7696 18f4 4901     		.2byte	0x149
 7697 18f6 43170000 		.4byte	0x1743
 7698 18fa 00       		.byte	0
 7699 18fb 00       		.byte	0
 7700 18fc 14       		.uleb128 0x14
 7701 18fd 30070000 		.4byte	.LASF343
 7702 1901 12       		.byte	0x12
 7703 1902 5401     		.2byte	0x154
 7704 1904 E5180000 		.4byte	0x18e5
 7705 1908 25       		.uleb128 0x25
 7706 1909 4A020000 		.4byte	.LASF345
 7707 190d 01       		.byte	0x1
 7708 190e 7A01     		.2byte	0x17a
 7709 1910 E4000000 		.4byte	0xe4
 7710 1914 00000000 		.4byte	.LFB4
 7711 1918 16000000 		.4byte	.LFE4-.LFB4
 7712 191c 01       		.uleb128 0x1
 7713 191d 9C       		.byte	0x9c
 7714 191e 32190000 		.4byte	0x1932
 7715 1922 26       		.uleb128 0x26
 7716 1923 D9100000 		.4byte	.LASF62
 7717 1927 01       		.byte	0x1
 7718 1928 7A01     		.2byte	0x17a
 7719 192a E0020000 		.4byte	0x2e0
 7720 192e 02       		.uleb128 0x2
 7721 192f 91       		.byte	0x91
 7722 1930 74       		.sleb128 -12
 7723 1931 00       		.byte	0
 7724 1932 27       		.uleb128 0x27
 7725 1933 77050000 		.4byte	.LASF380
 7726 1937 02       		.byte	0x2
 7727 1938 4C       		.byte	0x4c
 7728 1939 00000000 		.4byte	.LFB10
 7729 193d 1C000000 		.4byte	.LFE10-.LFB10
 7730 1941 01       		.uleb128 0x1
 7731 1942 9C       		.byte	0x9c
 7732 1943 64190000 		.4byte	0x1964
 7733 1947 28       		.uleb128 0x28
 7734 1948 BD100000 		.4byte	.LASF344
 7735 194c 02       		.byte	0x2
 7736 194d 4C       		.byte	0x4c
 7737 194e 09080000 		.4byte	0x809
 7738 1952 02       		.uleb128 0x2
ARM GAS  C:\Users\tmj32\AppData\Local\Temp\cc11CUDk.s 			page 165


 7739 1953 91       		.byte	0x91
 7740 1954 74       		.sleb128 -12
 7741 1955 29       		.uleb128 0x29
 7742 1956 73726300 		.ascii	"src\000"
 7743 195a 02       		.byte	0x2
 7744 195b 4C       		.byte	0x4c
 7745 195c E2070000 		.4byte	0x7e2
 7746 1960 02       		.uleb128 0x2
 7747 1961 91       		.byte	0x91
 7748 1962 70       		.sleb128 -16
 7749 1963 00       		.byte	0
 7750 1964 2A       		.uleb128 0x2a
 7751 1965 92120000 		.4byte	.LASF346
 7752 1969 02       		.byte	0x2
 7753 196a 56       		.byte	0x56
 7754 196b EF000000 		.4byte	0xef
 7755 196f 00000000 		.4byte	.LFB11
 7756 1973 2E000000 		.4byte	.LFE11-.LFB11
 7757 1977 01       		.uleb128 0x1
 7758 1978 9C       		.byte	0x9c
 7759 1979 8C190000 		.4byte	0x198c
 7760 197d 28       		.uleb128 0x28
 7761 197e B5030000 		.4byte	.LASF347
 7762 1982 02       		.byte	0x2
 7763 1983 56       		.byte	0x56
 7764 1984 E2070000 		.4byte	0x7e2
 7765 1988 02       		.uleb128 0x2
 7766 1989 91       		.byte	0x91
 7767 198a 74       		.sleb128 -12
 7768 198b 00       		.byte	0
 7769 198c 2A       		.uleb128 0x2a
 7770 198d 4B0F0000 		.4byte	.LASF348
 7771 1991 02       		.byte	0x2
 7772 1992 60       		.byte	0x60
 7773 1993 EF000000 		.4byte	0xef
 7774 1997 00000000 		.4byte	.LFB12
 7775 199b 2E000000 		.4byte	.LFE12-.LFB12
 7776 199f 01       		.uleb128 0x1
 7777 19a0 9C       		.byte	0x9c
 7778 19a1 B4190000 		.4byte	0x19b4
 7779 19a5 28       		.uleb128 0x28
 7780 19a6 B5030000 		.4byte	.LASF347
 7781 19aa 02       		.byte	0x2
 7782 19ab 60       		.byte	0x60
 7783 19ac E2070000 		.4byte	0x7e2
 7784 19b0 02       		.uleb128 0x2
 7785 19b1 91       		.byte	0x91
 7786 19b2 74       		.sleb128 -12
 7787 19b3 00       		.byte	0
 7788 19b4 2B       		.uleb128 0x2b
 7789 19b5 76030000 		.4byte	.LASF355
 7790 19b9 03       		.byte	0x3
 7791 19ba 5D       		.byte	0x5d
 7792 19bb 391A0000 		.4byte	0x1a39
 7793 19bf 00000000 		.4byte	.LFB31
 7794 19c3 A4010000 		.4byte	.LFE31-.LFB31
 7795 19c7 01       		.uleb128 0x1
ARM GAS  C:\Users\tmj32\AppData\Local\Temp\cc11CUDk.s 			page 166


 7796 19c8 9C       		.byte	0x9c
 7797 19c9 391A0000 		.4byte	0x1a39
 7798 19cd 29       		.uleb128 0x29
 7799 19ce 70617200 		.ascii	"par\000"
 7800 19d2 03       		.byte	0x3
 7801 19d3 5D       		.byte	0x5d
 7802 19d4 391A0000 		.4byte	0x1a39
 7803 19d8 02       		.uleb128 0x2
 7804 19d9 91       		.byte	0x91
 7805 19da 64       		.sleb128 -28
 7806 19db 28       		.uleb128 0x28
 7807 19dc B0030000 		.4byte	.LASF349
 7808 19e0 03       		.byte	0x3
 7809 19e1 5D       		.byte	0x5d
 7810 19e2 3F1A0000 		.4byte	0x1a3f
 7811 19e6 02       		.uleb128 0x2
 7812 19e7 91       		.byte	0x91
 7813 19e8 60       		.sleb128 -32
 7814 19e9 2C       		.uleb128 0x2c
 7815 19ea 5A010000 		.4byte	.LASF350
 7816 19ee 03       		.byte	0x3
 7817 19ef 61       		.byte	0x61
 7818 19f0 391A0000 		.4byte	0x1a39
 7819 19f4 02       		.uleb128 0x2
 7820 19f5 91       		.byte	0x91
 7821 19f6 74       		.sleb128 -12
 7822 19f7 2D       		.uleb128 0x2d
 7823 19f8 65787400 		.ascii	"ext\000"
 7824 19fc 03       		.byte	0x3
 7825 19fd 69       		.byte	0x69
 7826 19fe 4A1A0000 		.4byte	0x1a4a
 7827 1a02 02       		.uleb128 0x2
 7828 1a03 91       		.byte	0x91
 7829 1a04 70       		.sleb128 -16
 7830 1a05 2E       		.uleb128 0x2e
 7831 1a06 BC000000 		.4byte	.LBB2
 7832 1a0a 3E000000 		.4byte	.LBE2-.LBB2
 7833 1a0e 201A0000 		.4byte	0x1a20
 7834 1a12 2D       		.uleb128 0x2d
 7835 1a13 746800   		.ascii	"th\000"
 7836 1a16 03       		.byte	0x3
 7837 1a17 80       		.byte	0x80
 7838 1a18 501A0000 		.4byte	0x1a50
 7839 1a1c 02       		.uleb128 0x2
 7840 1a1d 91       		.byte	0x91
 7841 1a1e 6C       		.sleb128 -20
 7842 1a1f 00       		.byte	0
 7843 1a20 2F       		.uleb128 0x2f
 7844 1a21 FA000000 		.4byte	.LBB3
 7845 1a25 82000000 		.4byte	.LBE3-.LBB3
 7846 1a29 2C       		.uleb128 0x2c
 7847 1a2a 1A130000 		.4byte	.LASF351
 7848 1a2e 03       		.byte	0x3
 7849 1a2f 89       		.byte	0x89
 7850 1a30 4A1A0000 		.4byte	0x1a4a
 7851 1a34 02       		.uleb128 0x2
 7852 1a35 91       		.byte	0x91
ARM GAS  C:\Users\tmj32\AppData\Local\Temp\cc11CUDk.s 			page 167


 7853 1a36 68       		.sleb128 -24
 7854 1a37 00       		.byte	0
 7855 1a38 00       		.byte	0
 7856 1a39 0D       		.uleb128 0xd
 7857 1a3a 04       		.byte	0x4
 7858 1a3b 980F0000 		.4byte	0xf98
 7859 1a3f 0D       		.uleb128 0xd
 7860 1a40 04       		.byte	0x4
 7861 1a41 451A0000 		.4byte	0x1a45
 7862 1a45 0E       		.uleb128 0xe
 7863 1a46 980F0000 		.4byte	0xf98
 7864 1a4a 0D       		.uleb128 0xd
 7865 1a4b 04       		.byte	0x4
 7866 1a4c D9100000 		.4byte	0x10d9
 7867 1a50 0D       		.uleb128 0xd
 7868 1a51 04       		.byte	0x4
 7869 1a52 FC180000 		.4byte	0x18fc
 7870 1a56 30       		.uleb128 0x30
 7871 1a57 1A140000 		.4byte	.LASF353
 7872 1a5b 03       		.byte	0x3
 7873 1a5c A5       		.byte	0xa5
 7874 1a5d 00000000 		.4byte	.LFB32
 7875 1a61 54000000 		.4byte	.LFE32-.LFB32
 7876 1a65 01       		.uleb128 0x1
 7877 1a66 9C       		.byte	0x9c
 7878 1a67 961A0000 		.4byte	0x1a96
 7879 1a6b 28       		.uleb128 0x28
 7880 1a6c 7E080000 		.4byte	.LASF352
 7881 1a70 03       		.byte	0x3
 7882 1a71 A5       		.byte	0xa5
 7883 1a72 391A0000 		.4byte	0x1a39
 7884 1a76 02       		.uleb128 0x2
 7885 1a77 91       		.byte	0x91
 7886 1a78 6C       		.sleb128 -20
 7887 1a79 28       		.uleb128 0x28
 7888 1a7a 1C020000 		.4byte	.LASF65
 7889 1a7e 03       		.byte	0x3
 7890 1a7f A5       		.byte	0xa5
 7891 1a80 F30F0000 		.4byte	0xff3
 7892 1a84 02       		.uleb128 0x2
 7893 1a85 91       		.byte	0x91
 7894 1a86 6B       		.sleb128 -21
 7895 1a87 2D       		.uleb128 0x2d
 7896 1a88 65787400 		.ascii	"ext\000"
 7897 1a8c 03       		.byte	0x3
 7898 1a8d A9       		.byte	0xa9
 7899 1a8e 4A1A0000 		.4byte	0x1a4a
 7900 1a92 02       		.uleb128 0x2
 7901 1a93 91       		.byte	0x91
 7902 1a94 74       		.sleb128 -12
 7903 1a95 00       		.byte	0
 7904 1a96 30       		.uleb128 0x30
 7905 1a97 F6080000 		.4byte	.LASF354
 7906 1a9b 03       		.byte	0x3
 7907 1a9c B9       		.byte	0xb9
 7908 1a9d 00000000 		.4byte	.LFB33
 7909 1aa1 42000000 		.4byte	.LFE33-.LFB33
ARM GAS  C:\Users\tmj32\AppData\Local\Temp\cc11CUDk.s 			page 168


 7910 1aa5 01       		.uleb128 0x1
 7911 1aa6 9C       		.byte	0x9c
 7912 1aa7 E41A0000 		.4byte	0x1ae4
 7913 1aab 28       		.uleb128 0x28
 7914 1aac 7E080000 		.4byte	.LASF352
 7915 1ab0 03       		.byte	0x3
 7916 1ab1 B9       		.byte	0xb9
 7917 1ab2 391A0000 		.4byte	0x1a39
 7918 1ab6 02       		.uleb128 0x2
 7919 1ab7 91       		.byte	0x91
 7920 1ab8 6C       		.sleb128 -20
 7921 1ab9 28       		.uleb128 0x28
 7922 1aba 1C020000 		.4byte	.LASF65
 7923 1abe 03       		.byte	0x3
 7924 1abf B9       		.byte	0xb9
 7925 1ac0 FD100000 		.4byte	0x10fd
 7926 1ac4 02       		.uleb128 0x2
 7927 1ac5 91       		.byte	0x91
 7928 1ac6 6B       		.sleb128 -21
 7929 1ac7 28       		.uleb128 0x28
 7930 1ac8 150D0000 		.4byte	.LASF277
 7931 1acc 03       		.byte	0x3
 7932 1acd B9       		.byte	0xb9
 7933 1ace DB050000 		.4byte	0x5db
 7934 1ad2 02       		.uleb128 0x2
 7935 1ad3 91       		.byte	0x91
 7936 1ad4 64       		.sleb128 -28
 7937 1ad5 2D       		.uleb128 0x2d
 7938 1ad6 65787400 		.ascii	"ext\000"
 7939 1ada 03       		.byte	0x3
 7940 1adb BD       		.byte	0xbd
 7941 1adc 4A1A0000 		.4byte	0x1a4a
 7942 1ae0 02       		.uleb128 0x2
 7943 1ae1 91       		.byte	0x91
 7944 1ae2 74       		.sleb128 -12
 7945 1ae3 00       		.byte	0
 7946 1ae4 2B       		.uleb128 0x2b
 7947 1ae5 E6070000 		.4byte	.LASF356
 7948 1ae9 03       		.byte	0x3
 7949 1aea D0       		.byte	0xd0
 7950 1aeb D5010000 		.4byte	0x1d5
 7951 1aef 00000000 		.4byte	.LFB34
 7952 1af3 2C000000 		.4byte	.LFE34-.LFB34
 7953 1af7 01       		.uleb128 0x1
 7954 1af8 9C       		.byte	0x9c
 7955 1af9 281B0000 		.4byte	0x1b28
 7956 1afd 28       		.uleb128 0x28
 7957 1afe 7E080000 		.4byte	.LASF352
 7958 1b02 03       		.byte	0x3
 7959 1b03 D0       		.byte	0xd0
 7960 1b04 391A0000 		.4byte	0x1a39
 7961 1b08 02       		.uleb128 0x2
 7962 1b09 91       		.byte	0x91
 7963 1b0a 6C       		.sleb128 -20
 7964 1b0b 29       		.uleb128 0x29
 7965 1b0c 68756500 		.ascii	"hue\000"
 7966 1b10 03       		.byte	0x3
ARM GAS  C:\Users\tmj32\AppData\Local\Temp\cc11CUDk.s 			page 169


 7967 1b11 D0       		.byte	0xd0
 7968 1b12 CE000000 		.4byte	0xce
 7969 1b16 02       		.uleb128 0x2
 7970 1b17 91       		.byte	0x91
 7971 1b18 6A       		.sleb128 -22
 7972 1b19 2D       		.uleb128 0x2d
 7973 1b1a 68737600 		.ascii	"hsv\000"
 7974 1b1e 03       		.byte	0x3
 7975 1b1f D2       		.byte	0xd2
 7976 1b20 23030000 		.4byte	0x323
 7977 1b24 02       		.uleb128 0x2
 7978 1b25 91       		.byte	0x91
 7979 1b26 74       		.sleb128 -12
 7980 1b27 00       		.byte	0
 7981 1b28 2B       		.uleb128 0x2b
 7982 1b29 B5080000 		.4byte	.LASF357
 7983 1b2d 03       		.byte	0x3
 7984 1b2e DD       		.byte	0xdd
 7985 1b2f D5010000 		.4byte	0x1d5
 7986 1b33 00000000 		.4byte	.LFB35
 7987 1b37 2C000000 		.4byte	.LFE35-.LFB35
 7988 1b3b 01       		.uleb128 0x1
 7989 1b3c 9C       		.byte	0x9c
 7990 1b3d 6C1B0000 		.4byte	0x1b6c
 7991 1b41 28       		.uleb128 0x28
 7992 1b42 7E080000 		.4byte	.LASF352
 7993 1b46 03       		.byte	0x3
 7994 1b47 DD       		.byte	0xdd
 7995 1b48 391A0000 		.4byte	0x1a39
 7996 1b4c 02       		.uleb128 0x2
 7997 1b4d 91       		.byte	0x91
 7998 1b4e 6C       		.sleb128 -20
 7999 1b4f 28       		.uleb128 0x28
 8000 1b50 16030000 		.4byte	.LASF358
 8001 1b54 03       		.byte	0x3
 8002 1b55 DD       		.byte	0xdd
 8003 1b56 B8000000 		.4byte	0xb8
 8004 1b5a 02       		.uleb128 0x2
 8005 1b5b 91       		.byte	0x91
 8006 1b5c 6B       		.sleb128 -21
 8007 1b5d 2D       		.uleb128 0x2d
 8008 1b5e 68737600 		.ascii	"hsv\000"
 8009 1b62 03       		.byte	0x3
 8010 1b63 DF       		.byte	0xdf
 8011 1b64 23030000 		.4byte	0x323
 8012 1b68 02       		.uleb128 0x2
 8013 1b69 91       		.byte	0x91
 8014 1b6a 74       		.sleb128 -12
 8015 1b6b 00       		.byte	0
 8016 1b6c 2B       		.uleb128 0x2b
 8017 1b6d BD010000 		.4byte	.LASF359
 8018 1b71 03       		.byte	0x3
 8019 1b72 EA       		.byte	0xea
 8020 1b73 D5010000 		.4byte	0x1d5
 8021 1b77 00000000 		.4byte	.LFB36
 8022 1b7b 2C000000 		.4byte	.LFE36-.LFB36
 8023 1b7f 01       		.uleb128 0x1
ARM GAS  C:\Users\tmj32\AppData\Local\Temp\cc11CUDk.s 			page 170


 8024 1b80 9C       		.byte	0x9c
 8025 1b81 B01B0000 		.4byte	0x1bb0
 8026 1b85 28       		.uleb128 0x28
 8027 1b86 7E080000 		.4byte	.LASF352
 8028 1b8a 03       		.byte	0x3
 8029 1b8b EA       		.byte	0xea
 8030 1b8c 391A0000 		.4byte	0x1a39
 8031 1b90 02       		.uleb128 0x2
 8032 1b91 91       		.byte	0x91
 8033 1b92 6C       		.sleb128 -20
 8034 1b93 29       		.uleb128 0x29
 8035 1b94 76616C00 		.ascii	"val\000"
 8036 1b98 03       		.byte	0x3
 8037 1b99 EA       		.byte	0xea
 8038 1b9a B8000000 		.4byte	0xb8
 8039 1b9e 02       		.uleb128 0x2
 8040 1b9f 91       		.byte	0x91
 8041 1ba0 6B       		.sleb128 -21
 8042 1ba1 2D       		.uleb128 0x2d
 8043 1ba2 68737600 		.ascii	"hsv\000"
 8044 1ba6 03       		.byte	0x3
 8045 1ba7 EC       		.byte	0xec
 8046 1ba8 23030000 		.4byte	0x323
 8047 1bac 02       		.uleb128 0x2
 8048 1bad 91       		.byte	0x91
 8049 1bae 74       		.sleb128 -12
 8050 1baf 00       		.byte	0
 8051 1bb0 2B       		.uleb128 0x2b
 8052 1bb1 D0060000 		.4byte	.LASF360
 8053 1bb5 03       		.byte	0x3
 8054 1bb6 F7       		.byte	0xf7
 8055 1bb7 D5010000 		.4byte	0x1d5
 8056 1bbb 00000000 		.4byte	.LFB37
 8057 1bbf A8000000 		.4byte	.LFE37-.LFB37
 8058 1bc3 01       		.uleb128 0x1
 8059 1bc4 9C       		.byte	0x9c
 8060 1bc5 F41B0000 		.4byte	0x1bf4
 8061 1bc9 28       		.uleb128 0x28
 8062 1bca 7E080000 		.4byte	.LASF352
 8063 1bce 03       		.byte	0x3
 8064 1bcf F7       		.byte	0xf7
 8065 1bd0 391A0000 		.4byte	0x1a39
 8066 1bd4 02       		.uleb128 0x2
 8067 1bd5 91       		.byte	0x91
 8068 1bd6 6C       		.sleb128 -20
 8069 1bd7 29       		.uleb128 0x29
 8070 1bd8 68737600 		.ascii	"hsv\000"
 8071 1bdc 03       		.byte	0x3
 8072 1bdd F7       		.byte	0xf7
 8073 1bde 23030000 		.4byte	0x323
 8074 1be2 02       		.uleb128 0x2
 8075 1be3 91       		.byte	0x91
 8076 1be4 68       		.sleb128 -24
 8077 1be5 2D       		.uleb128 0x2d
 8078 1be6 65787400 		.ascii	"ext\000"
 8079 1bea 03       		.byte	0x3
 8080 1beb FF       		.byte	0xff
ARM GAS  C:\Users\tmj32\AppData\Local\Temp\cc11CUDk.s 			page 171


 8081 1bec 4A1A0000 		.4byte	0x1a4a
 8082 1bf0 02       		.uleb128 0x2
 8083 1bf1 91       		.byte	0x91
 8084 1bf2 74       		.sleb128 -12
 8085 1bf3 00       		.byte	0
 8086 1bf4 31       		.uleb128 0x31
 8087 1bf5 47130000 		.4byte	.LASF361
 8088 1bf9 03       		.byte	0x3
 8089 1bfa 1401     		.2byte	0x114
 8090 1bfc D5010000 		.4byte	0x1d5
 8091 1c00 00000000 		.4byte	.LFB38
 8092 1c04 36000000 		.4byte	.LFE38-.LFB38
 8093 1c08 01       		.uleb128 0x1
 8094 1c09 9C       		.byte	0x9c
 8095 1c0a 3C1C0000 		.4byte	0x1c3c
 8096 1c0e 26       		.uleb128 0x26
 8097 1c0f 7E080000 		.4byte	.LASF352
 8098 1c13 03       		.byte	0x3
 8099 1c14 1401     		.2byte	0x114
 8100 1c16 391A0000 		.4byte	0x1a39
 8101 1c1a 02       		.uleb128 0x2
 8102 1c1b 91       		.byte	0x91
 8103 1c1c 6C       		.sleb128 -20
 8104 1c1d 26       		.uleb128 0x26
 8105 1c1e D9100000 		.4byte	.LASF62
 8106 1c22 03       		.byte	0x3
 8107 1c23 1401     		.2byte	0x114
 8108 1c25 E0020000 		.4byte	0x2e0
 8109 1c29 02       		.uleb128 0x2
 8110 1c2a 91       		.byte	0x91
 8111 1c2b 68       		.sleb128 -24
 8112 1c2c 32       		.uleb128 0x32
 8113 1c2d 63333200 		.ascii	"c32\000"
 8114 1c31 03       		.byte	0x3
 8115 1c32 1601     		.2byte	0x116
 8116 1c34 D5020000 		.4byte	0x2d5
 8117 1c38 02       		.uleb128 0x2
 8118 1c39 91       		.byte	0x91
 8119 1c3a 70       		.sleb128 -16
 8120 1c3b 00       		.byte	0
 8121 1c3c 33       		.uleb128 0x33
 8122 1c3d 8E0D0000 		.4byte	.LASF362
 8123 1c41 03       		.byte	0x3
 8124 1c42 2201     		.2byte	0x122
 8125 1c44 00000000 		.4byte	.LFB39
 8126 1c48 3A000000 		.4byte	.LFE39-.LFB39
 8127 1c4c 01       		.uleb128 0x1
 8128 1c4d 9C       		.byte	0x9c
 8129 1c4e 801C0000 		.4byte	0x1c80
 8130 1c52 26       		.uleb128 0x26
 8131 1c53 7E080000 		.4byte	.LASF352
 8132 1c57 03       		.byte	0x3
 8133 1c58 2201     		.2byte	0x122
 8134 1c5a 391A0000 		.4byte	0x1a39
 8135 1c5e 02       		.uleb128 0x2
 8136 1c5f 91       		.byte	0x91
 8137 1c60 6C       		.sleb128 -20
ARM GAS  C:\Users\tmj32\AppData\Local\Temp\cc11CUDk.s 			page 172


 8138 1c61 26       		.uleb128 0x26
 8139 1c62 E7110000 		.4byte	.LASF363
 8140 1c66 03       		.byte	0x3
 8141 1c67 2201     		.2byte	0x122
 8142 1c69 1D100000 		.4byte	0x101d
 8143 1c6d 02       		.uleb128 0x2
 8144 1c6e 91       		.byte	0x91
 8145 1c6f 6B       		.sleb128 -21
 8146 1c70 32       		.uleb128 0x32
 8147 1c71 65787400 		.ascii	"ext\000"
 8148 1c75 03       		.byte	0x3
 8149 1c76 2601     		.2byte	0x126
 8150 1c78 4A1A0000 		.4byte	0x1a4a
 8151 1c7c 02       		.uleb128 0x2
 8152 1c7d 91       		.byte	0x91
 8153 1c7e 74       		.sleb128 -12
 8154 1c7f 00       		.byte	0
 8155 1c80 33       		.uleb128 0x33
 8156 1c81 65130000 		.4byte	.LASF364
 8157 1c85 03       		.byte	0x3
 8158 1c86 3201     		.2byte	0x132
 8159 1c88 00000000 		.4byte	.LFB40
 8160 1c8c 28000000 		.4byte	.LFE40-.LFB40
 8161 1c90 01       		.uleb128 0x1
 8162 1c91 9C       		.byte	0x9c
 8163 1c92 C41C0000 		.4byte	0x1cc4
 8164 1c96 26       		.uleb128 0x26
 8165 1c97 7E080000 		.4byte	.LASF352
 8166 1c9b 03       		.byte	0x3
 8167 1c9c 3201     		.2byte	0x132
 8168 1c9e 391A0000 		.4byte	0x1a39
 8169 1ca2 02       		.uleb128 0x2
 8170 1ca3 91       		.byte	0x91
 8171 1ca4 6C       		.sleb128 -20
 8172 1ca5 26       		.uleb128 0x26
 8173 1ca6 C6140000 		.4byte	.LASF365
 8174 1caa 03       		.byte	0x3
 8175 1cab 3201     		.2byte	0x132
 8176 1cad D5010000 		.4byte	0x1d5
 8177 1cb1 02       		.uleb128 0x2
 8178 1cb2 91       		.byte	0x91
 8179 1cb3 6B       		.sleb128 -21
 8180 1cb4 32       		.uleb128 0x32
 8181 1cb5 65787400 		.ascii	"ext\000"
 8182 1cb9 03       		.byte	0x3
 8183 1cba 3601     		.2byte	0x136
 8184 1cbc 4A1A0000 		.4byte	0x1a4a
 8185 1cc0 02       		.uleb128 0x2
 8186 1cc1 91       		.byte	0x91
 8187 1cc2 74       		.sleb128 -12
 8188 1cc3 00       		.byte	0
 8189 1cc4 33       		.uleb128 0x33
 8190 1cc5 F9020000 		.4byte	.LASF366
 8191 1cc9 03       		.byte	0x3
 8192 1cca 4001     		.2byte	0x140
 8193 1ccc 00000000 		.4byte	.LFB41
 8194 1cd0 34000000 		.4byte	.LFE41-.LFB41
ARM GAS  C:\Users\tmj32\AppData\Local\Temp\cc11CUDk.s 			page 173


 8195 1cd4 01       		.uleb128 0x1
 8196 1cd5 9C       		.byte	0x9c
 8197 1cd6 071D0000 		.4byte	0x1d07
 8198 1cda 26       		.uleb128 0x26
 8199 1cdb 7E080000 		.4byte	.LASF352
 8200 1cdf 03       		.byte	0x3
 8201 1ce0 4001     		.2byte	0x140
 8202 1ce2 391A0000 		.4byte	0x1a39
 8203 1ce6 02       		.uleb128 0x2
 8204 1ce7 91       		.byte	0x91
 8205 1ce8 6C       		.sleb128 -20
 8206 1ce9 34       		.uleb128 0x34
 8207 1cea 656E00   		.ascii	"en\000"
 8208 1ced 03       		.byte	0x3
 8209 1cee 4001     		.2byte	0x140
 8210 1cf0 D5010000 		.4byte	0x1d5
 8211 1cf4 02       		.uleb128 0x2
 8212 1cf5 91       		.byte	0x91
 8213 1cf6 6B       		.sleb128 -21
 8214 1cf7 32       		.uleb128 0x32
 8215 1cf8 65787400 		.ascii	"ext\000"
 8216 1cfc 03       		.byte	0x3
 8217 1cfd 4401     		.2byte	0x144
 8218 1cff 4A1A0000 		.4byte	0x1a4a
 8219 1d03 02       		.uleb128 0x2
 8220 1d04 91       		.byte	0x91
 8221 1d05 74       		.sleb128 -12
 8222 1d06 00       		.byte	0
 8223 1d07 33       		.uleb128 0x33
 8224 1d08 340F0000 		.4byte	.LASF367
 8225 1d0c 03       		.byte	0x3
 8226 1d0d 4E01     		.2byte	0x14e
 8227 1d0f 00000000 		.4byte	.LFB42
 8228 1d13 34000000 		.4byte	.LFE42-.LFB42
 8229 1d17 01       		.uleb128 0x1
 8230 1d18 9C       		.byte	0x9c
 8231 1d19 4A1D0000 		.4byte	0x1d4a
 8232 1d1d 26       		.uleb128 0x26
 8233 1d1e 7E080000 		.4byte	.LASF352
 8234 1d22 03       		.byte	0x3
 8235 1d23 4E01     		.2byte	0x14e
 8236 1d25 391A0000 		.4byte	0x1a39
 8237 1d29 02       		.uleb128 0x2
 8238 1d2a 91       		.byte	0x91
 8239 1d2b 6C       		.sleb128 -20
 8240 1d2c 34       		.uleb128 0x34
 8241 1d2d 656E00   		.ascii	"en\000"
 8242 1d30 03       		.byte	0x3
 8243 1d31 4E01     		.2byte	0x14e
 8244 1d33 D5010000 		.4byte	0x1d5
 8245 1d37 02       		.uleb128 0x2
 8246 1d38 91       		.byte	0x91
 8247 1d39 6B       		.sleb128 -21
 8248 1d3a 32       		.uleb128 0x32
 8249 1d3b 65787400 		.ascii	"ext\000"
 8250 1d3f 03       		.byte	0x3
 8251 1d40 5201     		.2byte	0x152
ARM GAS  C:\Users\tmj32\AppData\Local\Temp\cc11CUDk.s 			page 174


 8252 1d42 4A1A0000 		.4byte	0x1a4a
 8253 1d46 02       		.uleb128 0x2
 8254 1d47 91       		.byte	0x91
 8255 1d48 74       		.sleb128 -12
 8256 1d49 00       		.byte	0
 8257 1d4a 31       		.uleb128 0x31
 8258 1d4b 66150000 		.4byte	.LASF368
 8259 1d4f 03       		.byte	0x3
 8260 1d50 5F01     		.2byte	0x15f
 8261 1d52 1D100000 		.4byte	0x101d
 8262 1d56 00000000 		.4byte	.LFB43
 8263 1d5a 22000000 		.4byte	.LFE43-.LFB43
 8264 1d5e 01       		.uleb128 0x1
 8265 1d5f 9C       		.byte	0x9c
 8266 1d60 831D0000 		.4byte	0x1d83
 8267 1d64 26       		.uleb128 0x26
 8268 1d65 7E080000 		.4byte	.LASF352
 8269 1d69 03       		.byte	0x3
 8270 1d6a 5F01     		.2byte	0x15f
 8271 1d6c 391A0000 		.4byte	0x1a39
 8272 1d70 02       		.uleb128 0x2
 8273 1d71 91       		.byte	0x91
 8274 1d72 6C       		.sleb128 -20
 8275 1d73 32       		.uleb128 0x32
 8276 1d74 65787400 		.ascii	"ext\000"
 8277 1d78 03       		.byte	0x3
 8278 1d79 6301     		.2byte	0x163
 8279 1d7b 4A1A0000 		.4byte	0x1a4a
 8280 1d7f 02       		.uleb128 0x2
 8281 1d80 91       		.byte	0x91
 8282 1d81 74       		.sleb128 -12
 8283 1d82 00       		.byte	0
 8284 1d83 31       		.uleb128 0x31
 8285 1d84 9C140000 		.4byte	.LASF369
 8286 1d88 03       		.byte	0x3
 8287 1d89 6D01     		.2byte	0x16d
 8288 1d8b D5010000 		.4byte	0x1d5
 8289 1d8f 00000000 		.4byte	.LFB44
 8290 1d93 2C000000 		.4byte	.LFE44-.LFB44
 8291 1d97 01       		.uleb128 0x1
 8292 1d98 9C       		.byte	0x9c
 8293 1d99 BC1D0000 		.4byte	0x1dbc
 8294 1d9d 26       		.uleb128 0x26
 8295 1d9e 7E080000 		.4byte	.LASF352
 8296 1da2 03       		.byte	0x3
 8297 1da3 6D01     		.2byte	0x16d
 8298 1da5 391A0000 		.4byte	0x1a39
 8299 1da9 02       		.uleb128 0x2
 8300 1daa 91       		.byte	0x91
 8301 1dab 6C       		.sleb128 -20
 8302 1dac 32       		.uleb128 0x32
 8303 1dad 65787400 		.ascii	"ext\000"
 8304 1db1 03       		.byte	0x3
 8305 1db2 7101     		.2byte	0x171
 8306 1db4 4A1A0000 		.4byte	0x1a4a
 8307 1db8 02       		.uleb128 0x2
 8308 1db9 91       		.byte	0x91
ARM GAS  C:\Users\tmj32\AppData\Local\Temp\cc11CUDk.s 			page 175


 8309 1dba 74       		.sleb128 -12
 8310 1dbb 00       		.byte	0
 8311 1dbc 31       		.uleb128 0x31
 8312 1dbd 36040000 		.4byte	.LASF370
 8313 1dc1 03       		.byte	0x3
 8314 1dc2 7C01     		.2byte	0x17c
 8315 1dc4 8D0F0000 		.4byte	0xf8d
 8316 1dc8 00000000 		.4byte	.LFB45
 8317 1dcc 3A000000 		.4byte	.LFE45-.LFB45
 8318 1dd0 01       		.uleb128 0x1
 8319 1dd1 9C       		.byte	0x9c
 8320 1dd2 041E0000 		.4byte	0x1e04
 8321 1dd6 26       		.uleb128 0x26
 8322 1dd7 7E080000 		.4byte	.LASF352
 8323 1ddb 03       		.byte	0x3
 8324 1ddc 7C01     		.2byte	0x17c
 8325 1dde 3F1A0000 		.4byte	0x1a3f
 8326 1de2 02       		.uleb128 0x2
 8327 1de3 91       		.byte	0x91
 8328 1de4 6C       		.sleb128 -20
 8329 1de5 26       		.uleb128 0x26
 8330 1de6 1C020000 		.4byte	.LASF65
 8331 1dea 03       		.byte	0x3
 8332 1deb 7C01     		.2byte	0x17c
 8333 1ded FD100000 		.4byte	0x10fd
 8334 1df1 02       		.uleb128 0x2
 8335 1df2 91       		.byte	0x91
 8336 1df3 6B       		.sleb128 -21
 8337 1df4 32       		.uleb128 0x32
 8338 1df5 65787400 		.ascii	"ext\000"
 8339 1df9 03       		.byte	0x3
 8340 1dfa 8001     		.2byte	0x180
 8341 1dfc 4A1A0000 		.4byte	0x1a4a
 8342 1e00 02       		.uleb128 0x2
 8343 1e01 91       		.byte	0x91
 8344 1e02 74       		.sleb128 -12
 8345 1e03 00       		.byte	0
 8346 1e04 31       		.uleb128 0x31
 8347 1e05 B0090000 		.4byte	.LASF371
 8348 1e09 03       		.byte	0x3
 8349 1e0a 9401     		.2byte	0x194
 8350 1e0c CE000000 		.4byte	0xce
 8351 1e10 00000000 		.4byte	.LFB46
 8352 1e14 1C000000 		.4byte	.LFE46-.LFB46
 8353 1e18 01       		.uleb128 0x1
 8354 1e19 9C       		.byte	0x9c
 8355 1e1a 3D1E0000 		.4byte	0x1e3d
 8356 1e1e 26       		.uleb128 0x26
 8357 1e1f 7E080000 		.4byte	.LASF352
 8358 1e23 03       		.byte	0x3
 8359 1e24 9401     		.2byte	0x194
 8360 1e26 391A0000 		.4byte	0x1a39
 8361 1e2a 02       		.uleb128 0x2
 8362 1e2b 91       		.byte	0x91
 8363 1e2c 6C       		.sleb128 -20
 8364 1e2d 32       		.uleb128 0x32
 8365 1e2e 65787400 		.ascii	"ext\000"
ARM GAS  C:\Users\tmj32\AppData\Local\Temp\cc11CUDk.s 			page 176


 8366 1e32 03       		.byte	0x3
 8367 1e33 9801     		.2byte	0x198
 8368 1e35 4A1A0000 		.4byte	0x1a4a
 8369 1e39 02       		.uleb128 0x2
 8370 1e3a 91       		.byte	0x91
 8371 1e3b 74       		.sleb128 -12
 8372 1e3c 00       		.byte	0
 8373 1e3d 31       		.uleb128 0x31
 8374 1e3e 25120000 		.4byte	.LASF372
 8375 1e42 03       		.byte	0x3
 8376 1e43 A201     		.2byte	0x1a2
 8377 1e45 B8000000 		.4byte	0xb8
 8378 1e49 00000000 		.4byte	.LFB47
 8379 1e4d 1C000000 		.4byte	.LFE47-.LFB47
 8380 1e51 01       		.uleb128 0x1
 8381 1e52 9C       		.byte	0x9c
 8382 1e53 761E0000 		.4byte	0x1e76
 8383 1e57 26       		.uleb128 0x26
 8384 1e58 7E080000 		.4byte	.LASF352
 8385 1e5c 03       		.byte	0x3
 8386 1e5d A201     		.2byte	0x1a2
 8387 1e5f 391A0000 		.4byte	0x1a39
 8388 1e63 02       		.uleb128 0x2
 8389 1e64 91       		.byte	0x91
 8390 1e65 6C       		.sleb128 -20
 8391 1e66 32       		.uleb128 0x32
 8392 1e67 65787400 		.ascii	"ext\000"
 8393 1e6b 03       		.byte	0x3
 8394 1e6c A601     		.2byte	0x1a6
 8395 1e6e 4A1A0000 		.4byte	0x1a4a
 8396 1e72 02       		.uleb128 0x2
 8397 1e73 91       		.byte	0x91
 8398 1e74 74       		.sleb128 -12
 8399 1e75 00       		.byte	0
 8400 1e76 31       		.uleb128 0x31
 8401 1e77 1E080000 		.4byte	.LASF373
 8402 1e7b 03       		.byte	0x3
 8403 1e7c B001     		.2byte	0x1b0
 8404 1e7e B8000000 		.4byte	0xb8
 8405 1e82 00000000 		.4byte	.LFB48
 8406 1e86 1C000000 		.4byte	.LFE48-.LFB48
 8407 1e8a 01       		.uleb128 0x1
 8408 1e8b 9C       		.byte	0x9c
 8409 1e8c AF1E0000 		.4byte	0x1eaf
 8410 1e90 26       		.uleb128 0x26
 8411 1e91 7E080000 		.4byte	.LASF352
 8412 1e95 03       		.byte	0x3
 8413 1e96 B001     		.2byte	0x1b0
 8414 1e98 391A0000 		.4byte	0x1a39
 8415 1e9c 02       		.uleb128 0x2
 8416 1e9d 91       		.byte	0x91
 8417 1e9e 6C       		.sleb128 -20
 8418 1e9f 32       		.uleb128 0x32
 8419 1ea0 65787400 		.ascii	"ext\000"
 8420 1ea4 03       		.byte	0x3
 8421 1ea5 B401     		.2byte	0x1b4
 8422 1ea7 4A1A0000 		.4byte	0x1a4a
ARM GAS  C:\Users\tmj32\AppData\Local\Temp\cc11CUDk.s 			page 177


 8423 1eab 02       		.uleb128 0x2
 8424 1eac 91       		.byte	0x91
 8425 1ead 74       		.sleb128 -12
 8426 1eae 00       		.byte	0
 8427 1eaf 31       		.uleb128 0x31
 8428 1eb0 66080000 		.4byte	.LASF374
 8429 1eb4 03       		.byte	0x3
 8430 1eb5 BE01     		.2byte	0x1be
 8431 1eb7 23030000 		.4byte	0x323
 8432 1ebb 00000000 		.4byte	.LFB49
 8433 1ebf 2C000000 		.4byte	.LFE49-.LFB49
 8434 1ec3 01       		.uleb128 0x1
 8435 1ec4 9C       		.byte	0x9c
 8436 1ec5 E81E0000 		.4byte	0x1ee8
 8437 1ec9 26       		.uleb128 0x26
 8438 1eca 7E080000 		.4byte	.LASF352
 8439 1ece 03       		.byte	0x3
 8440 1ecf BE01     		.2byte	0x1be
 8441 1ed1 391A0000 		.4byte	0x1a39
 8442 1ed5 02       		.uleb128 0x2
 8443 1ed6 91       		.byte	0x91
 8444 1ed7 6C       		.sleb128 -20
 8445 1ed8 32       		.uleb128 0x32
 8446 1ed9 65787400 		.ascii	"ext\000"
 8447 1edd 03       		.byte	0x3
 8448 1ede C201     		.2byte	0x1c2
 8449 1ee0 4A1A0000 		.4byte	0x1a4a
 8450 1ee4 02       		.uleb128 0x2
 8451 1ee5 91       		.byte	0x91
 8452 1ee6 74       		.sleb128 -12
 8453 1ee7 00       		.byte	0
 8454 1ee8 31       		.uleb128 0x31
 8455 1ee9 FF040000 		.4byte	.LASF375
 8456 1eed 03       		.byte	0x3
 8457 1eee CC01     		.2byte	0x1cc
 8458 1ef0 E0020000 		.4byte	0x2e0
 8459 1ef4 00000000 		.4byte	.LFB50
 8460 1ef8 2C000000 		.4byte	.LFE50-.LFB50
 8461 1efc 01       		.uleb128 0x1
 8462 1efd 9C       		.byte	0x9c
 8463 1efe 211F0000 		.4byte	0x1f21
 8464 1f02 26       		.uleb128 0x26
 8465 1f03 7E080000 		.4byte	.LASF352
 8466 1f07 03       		.byte	0x3
 8467 1f08 CC01     		.2byte	0x1cc
 8468 1f0a 391A0000 		.4byte	0x1a39
 8469 1f0e 02       		.uleb128 0x2
 8470 1f0f 91       		.byte	0x91
 8471 1f10 6C       		.sleb128 -20
 8472 1f11 32       		.uleb128 0x32
 8473 1f12 65787400 		.ascii	"ext\000"
 8474 1f16 03       		.byte	0x3
 8475 1f17 D001     		.2byte	0x1d0
 8476 1f19 4A1A0000 		.4byte	0x1a4a
 8477 1f1d 02       		.uleb128 0x2
 8478 1f1e 91       		.byte	0x91
 8479 1f1f 74       		.sleb128 -12
ARM GAS  C:\Users\tmj32\AppData\Local\Temp\cc11CUDk.s 			page 178


 8480 1f20 00       		.byte	0
 8481 1f21 31       		.uleb128 0x31
 8482 1f22 85090000 		.4byte	.LASF376
 8483 1f26 03       		.byte	0x3
 8484 1f27 DA01     		.2byte	0x1da
 8485 1f29 D5010000 		.4byte	0x1d5
 8486 1f2d 00000000 		.4byte	.LFB51
 8487 1f31 2C000000 		.4byte	.LFE51-.LFB51
 8488 1f35 01       		.uleb128 0x1
 8489 1f36 9C       		.byte	0x9c
 8490 1f37 5A1F0000 		.4byte	0x1f5a
 8491 1f3b 26       		.uleb128 0x26
 8492 1f3c 7E080000 		.4byte	.LASF352
 8493 1f40 03       		.byte	0x3
 8494 1f41 DA01     		.2byte	0x1da
 8495 1f43 391A0000 		.4byte	0x1a39
 8496 1f47 02       		.uleb128 0x2
 8497 1f48 91       		.byte	0x91
 8498 1f49 6C       		.sleb128 -20
 8499 1f4a 32       		.uleb128 0x32
 8500 1f4b 65787400 		.ascii	"ext\000"
 8501 1f4f 03       		.byte	0x3
 8502 1f50 DE01     		.2byte	0x1de
 8503 1f52 4A1A0000 		.4byte	0x1a4a
 8504 1f56 02       		.uleb128 0x2
 8505 1f57 91       		.byte	0x91
 8506 1f58 74       		.sleb128 -12
 8507 1f59 00       		.byte	0
 8508 1f5a 31       		.uleb128 0x31
 8509 1f5b C3020000 		.4byte	.LASF377
 8510 1f5f 03       		.byte	0x3
 8511 1f60 E801     		.2byte	0x1e8
 8512 1f62 D5010000 		.4byte	0x1d5
 8513 1f66 00000000 		.4byte	.LFB52
 8514 1f6a 2C000000 		.4byte	.LFE52-.LFB52
 8515 1f6e 01       		.uleb128 0x1
 8516 1f6f 9C       		.byte	0x9c
 8517 1f70 931F0000 		.4byte	0x1f93
 8518 1f74 26       		.uleb128 0x26
 8519 1f75 7E080000 		.4byte	.LASF352
 8520 1f79 03       		.byte	0x3
 8521 1f7a E801     		.2byte	0x1e8
 8522 1f7c 391A0000 		.4byte	0x1a39
 8523 1f80 02       		.uleb128 0x2
 8524 1f81 91       		.byte	0x91
 8525 1f82 6C       		.sleb128 -20
 8526 1f83 32       		.uleb128 0x32
 8527 1f84 65787400 		.ascii	"ext\000"
 8528 1f88 03       		.byte	0x3
 8529 1f89 EC01     		.2byte	0x1ec
 8530 1f8b 4A1A0000 		.4byte	0x1a4a
 8531 1f8f 02       		.uleb128 0x2
 8532 1f90 91       		.byte	0x91
 8533 1f91 74       		.sleb128 -12
 8534 1f92 00       		.byte	0
 8535 1f93 35       		.uleb128 0x35
 8536 1f94 8C010000 		.4byte	.LASF378
ARM GAS  C:\Users\tmj32\AppData\Local\Temp\cc11CUDk.s 			page 179


 8537 1f98 03       		.byte	0x3
 8538 1f99 0502     		.2byte	0x205
 8539 1f9b D5010000 		.4byte	0x1d5
 8540 1f9f 00000000 		.4byte	.LFB53
 8541 1fa3 7C000000 		.4byte	.LFE53-.LFB53
 8542 1fa7 01       		.uleb128 0x1
 8543 1fa8 9C       		.byte	0x9c
 8544 1fa9 03200000 		.4byte	0x2003
 8545 1fad 26       		.uleb128 0x26
 8546 1fae 7E080000 		.4byte	.LASF352
 8547 1fb2 03       		.byte	0x3
 8548 1fb3 0502     		.2byte	0x205
 8549 1fb5 391A0000 		.4byte	0x1a39
 8550 1fb9 02       		.uleb128 0x2
 8551 1fba 91       		.byte	0x91
 8552 1fbb 6C       		.sleb128 -20
 8553 1fbc 26       		.uleb128 0x26
 8554 1fbd 040B0000 		.4byte	.LASF379
 8555 1fc1 03       		.byte	0x3
 8556 1fc2 0502     		.2byte	0x205
 8557 1fc4 E2070000 		.4byte	0x7e2
 8558 1fc8 02       		.uleb128 0x2
 8559 1fc9 91       		.byte	0x91
 8560 1fca 68       		.sleb128 -24
 8561 1fcb 26       		.uleb128 0x26
 8562 1fcc E7110000 		.4byte	.LASF363
 8563 1fd0 03       		.byte	0x3
 8564 1fd1 0502     		.2byte	0x205
 8565 1fd3 6A0D0000 		.4byte	0xd6a
 8566 1fd7 02       		.uleb128 0x2
 8567 1fd8 91       		.byte	0x91
 8568 1fd9 67       		.sleb128 -25
 8569 1fda 2F       		.uleb128 0x2f
 8570 1fdb 1E000000 		.4byte	.LBB4
 8571 1fdf 54000000 		.4byte	.LBE4-.LBB4
 8572 1fe3 32       		.uleb128 0x32
 8573 1fe4 65787400 		.ascii	"ext\000"
 8574 1fe8 03       		.byte	0x3
 8575 1fe9 0D02     		.2byte	0x20d
 8576 1feb 4A1A0000 		.4byte	0x1a4a
 8577 1fef 02       		.uleb128 0x2
 8578 1ff0 91       		.byte	0x91
 8579 1ff1 74       		.sleb128 -12
 8580 1ff2 36       		.uleb128 0x36
 8581 1ff3 80150000 		.4byte	.LASF156
 8582 1ff7 03       		.byte	0x3
 8583 1ff8 0E02     		.2byte	0x20e
 8584 1ffa EC020000 		.4byte	0x2ec
 8585 1ffe 02       		.uleb128 0x2
 8586 1fff 91       		.byte	0x91
 8587 2000 73       		.sleb128 -13
 8588 2001 00       		.byte	0
 8589 2002 00       		.byte	0
 8590 2003 37       		.uleb128 0x37
 8591 2004 9F110000 		.4byte	.LASF381
 8592 2008 03       		.byte	0x3
 8593 2009 1F02     		.2byte	0x21f
ARM GAS  C:\Users\tmj32\AppData\Local\Temp\cc11CUDk.s 			page 180


 8594 200b 00000000 		.4byte	.LFB54
 8595 200f 64060000 		.4byte	.LFE54-.LFB54
 8596 2013 01       		.uleb128 0x1
 8597 2014 9C       		.byte	0x9c
 8598 2015 CF210000 		.4byte	0x21cf
 8599 2019 26       		.uleb128 0x26
 8600 201a 7E080000 		.4byte	.LASF352
 8601 201e 03       		.byte	0x3
 8602 201f 1F02     		.2byte	0x21f
 8603 2021 391A0000 		.4byte	0x1a39
 8604 2025 03       		.uleb128 0x3
 8605 2026 91       		.byte	0x91
 8606 2027 D47E     		.sleb128 -172
 8607 2029 26       		.uleb128 0x26
 8608 202a 040B0000 		.4byte	.LASF379
 8609 202e 03       		.byte	0x3
 8610 202f 1F02     		.2byte	0x21f
 8611 2031 E2070000 		.4byte	0x7e2
 8612 2035 03       		.uleb128 0x3
 8613 2036 91       		.byte	0x91
 8614 2037 D07E     		.sleb128 -176
 8615 2039 26       		.uleb128 0x26
 8616 203a 80150000 		.4byte	.LASF156
 8617 203e 03       		.byte	0x3
 8618 203f 1F02     		.2byte	0x21f
 8619 2041 EC020000 		.4byte	0x2ec
 8620 2045 03       		.uleb128 0x3
 8621 2046 91       		.byte	0x91
 8622 2047 CF7E     		.sleb128 -177
 8623 2049 32       		.uleb128 0x32
 8624 204a 65787400 		.ascii	"ext\000"
 8625 204e 03       		.byte	0x3
 8626 204f 2102     		.2byte	0x221
 8627 2051 4A1A0000 		.4byte	0x1a4a
 8628 2055 02       		.uleb128 0x2
 8629 2056 91       		.byte	0x91
 8630 2057 64       		.sleb128 -28
 8631 2058 36       		.uleb128 0x36
 8632 2059 3F080000 		.4byte	.LASF382
 8633 205d 03       		.byte	0x3
 8634 205e 2202     		.2byte	0x222
 8635 2060 C3000000 		.4byte	0xc3
 8636 2064 02       		.uleb128 0x2
 8637 2065 91       		.byte	0x91
 8638 2066 6E       		.sleb128 -18
 8639 2067 36       		.uleb128 0x36
 8640 2068 AD050000 		.4byte	.LASF383
 8641 206c 03       		.byte	0x3
 8642 206d 2302     		.2byte	0x223
 8643 206f C3000000 		.4byte	0xc3
 8644 2073 02       		.uleb128 0x2
 8645 2074 91       		.byte	0x91
 8646 2075 6C       		.sleb128 -20
 8647 2076 32       		.uleb128 0x32
 8648 2077 7700     		.ascii	"w\000"
 8649 2079 03       		.byte	0x3
 8650 207a 2502     		.2byte	0x225
ARM GAS  C:\Users\tmj32\AppData\Local\Temp\cc11CUDk.s 			page 181


 8651 207c EF000000 		.4byte	0xef
 8652 2080 02       		.uleb128 0x2
 8653 2081 91       		.byte	0x91
 8654 2082 62       		.sleb128 -30
 8655 2083 32       		.uleb128 0x32
 8656 2084 6800     		.ascii	"h\000"
 8657 2086 03       		.byte	0x3
 8658 2087 2602     		.2byte	0x226
 8659 2089 EF000000 		.4byte	0xef
 8660 208d 02       		.uleb128 0x2
 8661 208e 91       		.byte	0x91
 8662 208f 60       		.sleb128 -32
 8663 2090 32       		.uleb128 0x32
 8664 2091 637800   		.ascii	"cx\000"
 8665 2094 03       		.byte	0x3
 8666 2095 2702     		.2byte	0x227
 8667 2097 EF000000 		.4byte	0xef
 8668 209b 02       		.uleb128 0x2
 8669 209c 91       		.byte	0x91
 8670 209d 5E       		.sleb128 -34
 8671 209e 32       		.uleb128 0x32
 8672 209f 637900   		.ascii	"cy\000"
 8673 20a2 03       		.byte	0x3
 8674 20a3 2802     		.2byte	0x228
 8675 20a5 EF000000 		.4byte	0xef
 8676 20a9 02       		.uleb128 0x2
 8677 20aa 91       		.byte	0x91
 8678 20ab 5C       		.sleb128 -36
 8679 20ac 32       		.uleb128 0x32
 8680 20ad 7200     		.ascii	"r\000"
 8681 20af 03       		.byte	0x3
 8682 20b0 2902     		.2byte	0x229
 8683 20b2 EF000000 		.4byte	0xef
 8684 20b6 02       		.uleb128 0x2
 8685 20b7 91       		.byte	0x91
 8686 20b8 5A       		.sleb128 -38
 8687 20b9 36       		.uleb128 0x36
 8688 20ba 07060000 		.4byte	.LASF384
 8689 20be 03       		.byte	0x3
 8690 20bf 2F02     		.2byte	0x22f
 8691 20c1 5A030000 		.4byte	0x35a
 8692 20c5 02       		.uleb128 0x2
 8693 20c6 91       		.byte	0x91
 8694 20c7 44       		.sleb128 -60
 8695 20c8 36       		.uleb128 0x36
 8696 20c9 D00A0000 		.4byte	.LASF385
 8697 20cd 03       		.byte	0x3
 8698 20ce 6E02     		.2byte	0x26e
 8699 20d0 CF210000 		.4byte	0x21cf
 8700 20d4 03       		.uleb128 0x3
 8701 20d5 91       		.byte	0x91
 8702 20d6 B87F     		.sleb128 -72
 8703 20d8 36       		.uleb128 0x36
 8704 20d9 150D0000 		.4byte	.LASF277
 8705 20dd 03       		.byte	0x3
 8706 20de 6F02     		.2byte	0x26f
 8707 20e0 D0050000 		.4byte	0x5d0
ARM GAS  C:\Users\tmj32\AppData\Local\Temp\cc11CUDk.s 			page 182


 8708 20e4 03       		.uleb128 0x3
 8709 20e5 91       		.byte	0x91
 8710 20e6 E87E     		.sleb128 -152
 8711 20e8 32       		.uleb128 0x32
 8712 20e9 6900     		.ascii	"i\000"
 8713 20eb 03       		.byte	0x3
 8714 20ec 7102     		.2byte	0x271
 8715 20ee CE000000 		.4byte	0xce
 8716 20f2 02       		.uleb128 0x2
 8717 20f3 91       		.byte	0x91
 8718 20f4 6A       		.sleb128 -22
 8719 20f5 36       		.uleb128 0x36
 8720 20f6 61100000 		.4byte	.LASF386
 8721 20fa 03       		.byte	0x3
 8722 20fb 8902     		.2byte	0x289
 8723 20fd 8D0F0000 		.4byte	0xf8d
 8724 2101 02       		.uleb128 0x2
 8725 2102 91       		.byte	0x91
 8726 2103 48       		.sleb128 -56
 8727 2104 36       		.uleb128 0x36
 8728 2105 51120000 		.4byte	.LASF387
 8729 2109 03       		.byte	0x3
 8730 210a 8C02     		.2byte	0x28c
 8731 210c 9A030000 		.4byte	0x39a
 8732 2110 03       		.uleb128 0x3
 8733 2111 91       		.byte	0x91
 8734 2112 E07E     		.sleb128 -160
 8735 2114 2E       		.uleb128 0x2e
 8736 2115 B2000000 		.4byte	.LBB5
 8737 2119 76030000 		.4byte	.LBE5-.LBB5
 8738 211d B4210000 		.4byte	0x21b4
 8739 2121 32       		.uleb128 0x32
 8740 2122 647200   		.ascii	"dr\000"
 8741 2125 03       		.byte	0x3
 8742 2126 3302     		.2byte	0x233
 8743 2128 C3000000 		.4byte	0xc3
 8744 212c 02       		.uleb128 0x2
 8745 212d 91       		.byte	0x91
 8746 212e 58       		.sleb128 -40
 8747 212f 32       		.uleb128 0x32
 8748 2130 757200   		.ascii	"ur\000"
 8749 2133 03       		.byte	0x3
 8750 2134 3302     		.2byte	0x233
 8751 2136 C3000000 		.4byte	0xc3
 8752 213a 02       		.uleb128 0x2
 8753 213b 91       		.byte	0x91
 8754 213c 56       		.sleb128 -42
 8755 213d 32       		.uleb128 0x32
 8756 213e 756C00   		.ascii	"ul\000"
 8757 2141 03       		.byte	0x3
 8758 2142 3302     		.2byte	0x233
 8759 2144 C3000000 		.4byte	0xc3
 8760 2148 02       		.uleb128 0x2
 8761 2149 91       		.byte	0x91
 8762 214a 54       		.sleb128 -44
 8763 214b 32       		.uleb128 0x32
 8764 214c 646C00   		.ascii	"dl\000"
ARM GAS  C:\Users\tmj32\AppData\Local\Temp\cc11CUDk.s 			page 183


 8765 214f 03       		.byte	0x3
 8766 2150 3302     		.2byte	0x233
 8767 2152 C3000000 		.4byte	0xc3
 8768 2156 02       		.uleb128 0x2
 8769 2157 91       		.byte	0x91
 8770 2158 52       		.sleb128 -46
 8771 2159 36       		.uleb128 0x36
 8772 215a 2B070000 		.4byte	.LASF67
 8773 215e 03       		.byte	0x3
 8774 215f 3A02     		.2byte	0x23a
 8775 2161 D5010000 		.4byte	0x1d5
 8776 2165 02       		.uleb128 0x2
 8777 2166 91       		.byte	0x91
 8778 2167 51       		.sleb128 -47
 8779 2168 36       		.uleb128 0x36
 8780 2169 EB030000 		.4byte	.LASF388
 8781 216d 03       		.byte	0x3
 8782 216e 3B02     		.2byte	0x23b
 8783 2170 D5010000 		.4byte	0x1d5
 8784 2174 02       		.uleb128 0x2
 8785 2175 91       		.byte	0x91
 8786 2176 50       		.sleb128 -48
 8787 2177 36       		.uleb128 0x36
 8788 2178 D7090000 		.4byte	.LASF68
 8789 217c 03       		.byte	0x3
 8790 217d 3C02     		.2byte	0x23c
 8791 217f D5010000 		.4byte	0x1d5
 8792 2183 02       		.uleb128 0x2
 8793 2184 91       		.byte	0x91
 8794 2185 4F       		.sleb128 -49
 8795 2186 32       		.uleb128 0x32
 8796 2187 746F7000 		.ascii	"top\000"
 8797 218b 03       		.byte	0x3
 8798 218c 3D02     		.2byte	0x23d
 8799 218e D5010000 		.4byte	0x1d5
 8800 2192 02       		.uleb128 0x2
 8801 2193 91       		.byte	0x91
 8802 2194 4E       		.sleb128 -50
 8803 2195 36       		.uleb128 0x36
 8804 2196 B0060000 		.4byte	.LASF389
 8805 219a 03       		.byte	0x3
 8806 219b 3E02     		.2byte	0x23e
 8807 219d D5010000 		.4byte	0x1d5
 8808 21a1 02       		.uleb128 0x2
 8809 21a2 91       		.byte	0x91
 8810 21a3 4D       		.sleb128 -51
 8811 21a4 36       		.uleb128 0x36
 8812 21a5 A80A0000 		.4byte	.LASF66
 8813 21a9 03       		.byte	0x3
 8814 21aa 3F02     		.2byte	0x23f
 8815 21ac D5010000 		.4byte	0x1d5
 8816 21b0 02       		.uleb128 0x2
 8817 21b1 91       		.byte	0x91
 8818 21b2 4C       		.sleb128 -52
 8819 21b3 00       		.byte	0
 8820 21b4 2F       		.uleb128 0x2f
 8821 21b5 12060000 		.4byte	.LBB6
ARM GAS  C:\Users\tmj32\AppData\Local\Temp\cc11CUDk.s 			page 184


 8822 21b9 40000000 		.4byte	.LBE6-.LBB6
 8823 21bd 36       		.uleb128 0x36
 8824 21be D9100000 		.4byte	.LASF62
 8825 21c2 03       		.byte	0x3
 8826 21c3 9302     		.2byte	0x293
 8827 21c5 E0020000 		.4byte	0x2e0
 8828 21c9 03       		.uleb128 0x3
 8829 21ca 91       		.byte	0x91
 8830 21cb DC7E     		.sleb128 -164
 8831 21cd 00       		.byte	0
 8832 21ce 00       		.byte	0
 8833 21cf 1D       		.uleb128 0x1d
 8834 21d0 5A030000 		.4byte	0x35a
 8835 21d4 DF210000 		.4byte	0x21df
 8836 21d8 1E       		.uleb128 0x1e
 8837 21d9 2F030000 		.4byte	0x32f
 8838 21dd 02       		.byte	0x2
 8839 21de 00       		.byte	0
 8840 21df 37       		.uleb128 0x37
 8841 21e0 48060000 		.4byte	.LASF390
 8842 21e4 03       		.byte	0x3
 8843 21e5 9C02     		.2byte	0x29c
 8844 21e7 00000000 		.4byte	.LFB55
 8845 21eb 00020000 		.4byte	.LFE55-.LFB55
 8846 21ef 01       		.uleb128 0x1
 8847 21f0 9C       		.byte	0x9c
 8848 21f1 D1220000 		.4byte	0x22d1
 8849 21f5 26       		.uleb128 0x26
 8850 21f6 7E080000 		.4byte	.LASF352
 8851 21fa 03       		.byte	0x3
 8852 21fb 9C02     		.2byte	0x29c
 8853 21fd 391A0000 		.4byte	0x1a39
 8854 2201 03       		.uleb128 0x3
 8855 2202 91       		.byte	0x91
 8856 2203 FC7E     		.sleb128 -132
 8857 2205 26       		.uleb128 0x26
 8858 2206 040B0000 		.4byte	.LASF379
 8859 220a 03       		.byte	0x3
 8860 220b 9C02     		.2byte	0x29c
 8861 220d E2070000 		.4byte	0x7e2
 8862 2211 03       		.uleb128 0x3
 8863 2212 91       		.byte	0x91
 8864 2213 F87E     		.sleb128 -136
 8865 2215 26       		.uleb128 0x26
 8866 2216 80150000 		.4byte	.LASF156
 8867 221a 03       		.byte	0x3
 8868 221b 9C02     		.2byte	0x29c
 8869 221d EC020000 		.4byte	0x2ec
 8870 2221 03       		.uleb128 0x3
 8871 2222 91       		.byte	0x91
 8872 2223 F77E     		.sleb128 -137
 8873 2225 36       		.uleb128 0x36
 8874 2226 150D0000 		.4byte	.LASF277
 8875 222a 03       		.byte	0x3
 8876 222b 9E02     		.2byte	0x29e
 8877 222d D0050000 		.4byte	0x5d0
 8878 2231 03       		.uleb128 0x3
ARM GAS  C:\Users\tmj32\AppData\Local\Temp\cc11CUDk.s 			page 185


 8879 2232 91       		.byte	0x91
 8880 2233 9C7F     		.sleb128 -100
 8881 2235 36       		.uleb128 0x36
 8882 2236 CF030000 		.4byte	.LASF391
 8883 223a 03       		.byte	0x3
 8884 223b A102     		.2byte	0x2a1
 8885 223d 9A030000 		.4byte	0x39a
 8886 2241 03       		.uleb128 0x3
 8887 2242 91       		.byte	0x91
 8888 2243 947F     		.sleb128 -108
 8889 2245 36       		.uleb128 0x36
 8890 2246 5E020000 		.4byte	.LASF392
 8891 224a 03       		.byte	0x3
 8892 224b C002     		.2byte	0x2c0
 8893 224d EF000000 		.4byte	0xef
 8894 2251 02       		.uleb128 0x2
 8895 2252 91       		.byte	0x91
 8896 2253 70       		.sleb128 -16
 8897 2254 36       		.uleb128 0x36
 8898 2255 29060000 		.4byte	.LASF393
 8899 2259 03       		.byte	0x3
 8900 225a C102     		.2byte	0x2c1
 8901 225c CE000000 		.4byte	0xce
 8902 2260 02       		.uleb128 0x2
 8903 2261 91       		.byte	0x91
 8904 2262 6E       		.sleb128 -18
 8905 2263 32       		.uleb128 0x32
 8906 2264 6900     		.ascii	"i\000"
 8907 2266 03       		.byte	0x3
 8908 2267 C702     		.2byte	0x2c7
 8909 2269 CE000000 		.4byte	0xce
 8910 226d 02       		.uleb128 0x2
 8911 226e 91       		.byte	0x91
 8912 226f 74       		.sleb128 -12
 8913 2270 2E       		.uleb128 0x2e
 8914 2271 38000000 		.4byte	.LBB7
 8915 2275 DA000000 		.4byte	.LBE7-.LBB7
 8916 2279 A8220000 		.4byte	0x22a8
 8917 227d 32       		.uleb128 0x32
 8918 227e 6800     		.ascii	"h\000"
 8919 2280 03       		.byte	0x3
 8920 2281 A502     		.2byte	0x2a5
 8921 2283 EF000000 		.4byte	0xef
 8922 2287 02       		.uleb128 0x2
 8923 2288 91       		.byte	0x91
 8924 2289 72       		.sleb128 -14
 8925 228a 32       		.uleb128 0x32
 8926 228b 7200     		.ascii	"r\000"
 8927 228d 03       		.byte	0x3
 8928 228e A602     		.2byte	0x2a6
 8929 2290 EF000000 		.4byte	0xef
 8930 2294 02       		.uleb128 0x2
 8931 2295 91       		.byte	0x91
 8932 2296 76       		.sleb128 -10
 8933 2297 36       		.uleb128 0x36
 8934 2298 AE040000 		.4byte	.LASF394
 8935 229c 03       		.byte	0x3
ARM GAS  C:\Users\tmj32\AppData\Local\Temp\cc11CUDk.s 			page 186


 8936 229d AD02     		.2byte	0x2ad
 8937 229f 9A030000 		.4byte	0x39a
 8938 22a3 03       		.uleb128 0x3
 8939 22a4 91       		.byte	0x91
 8940 22a5 8C7F     		.sleb128 -116
 8941 22a7 00       		.byte	0
 8942 22a8 2F       		.uleb128 0x2f
 8943 22a9 56010000 		.4byte	.LBB8
 8944 22ad 86000000 		.4byte	.LBE8-.LBB8
 8945 22b1 36       		.uleb128 0x36
 8946 22b2 1A0C0000 		.4byte	.LASF395
 8947 22b6 03       		.byte	0x3
 8948 22b7 CD02     		.2byte	0x2cd
 8949 22b9 9A030000 		.4byte	0x39a
 8950 22bd 03       		.uleb128 0x3
 8951 22be 91       		.byte	0x91
 8952 22bf 847F     		.sleb128 -124
 8953 22c1 32       		.uleb128 0x32
 8954 22c2 786900   		.ascii	"xi\000"
 8955 22c5 03       		.byte	0x3
 8956 22c6 D002     		.2byte	0x2d0
 8957 22c8 EF000000 		.4byte	0xef
 8958 22cc 02       		.uleb128 0x2
 8959 22cd 91       		.byte	0x91
 8960 22ce 6C       		.sleb128 -20
 8961 22cf 00       		.byte	0
 8962 22d0 00       		.byte	0
 8963 22d1 37       		.uleb128 0x37
 8964 22d2 88030000 		.4byte	.LASF396
 8965 22d6 03       		.byte	0x3
 8966 22d7 DB02     		.2byte	0x2db
 8967 22d9 00000000 		.4byte	.LFB56
 8968 22dd 6A000000 		.4byte	.LFE56-.LFB56
 8969 22e1 01       		.uleb128 0x1
 8970 22e2 9C       		.byte	0x9c
 8971 22e3 47230000 		.4byte	0x2347
 8972 22e7 26       		.uleb128 0x26
 8973 22e8 7E080000 		.4byte	.LASF352
 8974 22ec 03       		.byte	0x3
 8975 22ed DB02     		.2byte	0x2db
 8976 22ef 391A0000 		.4byte	0x1a39
 8977 22f3 03       		.uleb128 0x3
 8978 22f4 91       		.byte	0x91
 8979 22f5 947F     		.sleb128 -108
 8980 22f7 26       		.uleb128 0x26
 8981 22f8 040B0000 		.4byte	.LASF379
 8982 22fc 03       		.byte	0x3
 8983 22fd DB02     		.2byte	0x2db
 8984 22ff E2070000 		.4byte	0x7e2
 8985 2303 03       		.uleb128 0x3
 8986 2304 91       		.byte	0x91
 8987 2305 907F     		.sleb128 -112
 8988 2307 26       		.uleb128 0x26
 8989 2308 80150000 		.4byte	.LASF156
 8990 230c 03       		.byte	0x3
 8991 230d DB02     		.2byte	0x2db
 8992 230f EC020000 		.4byte	0x2ec
ARM GAS  C:\Users\tmj32\AppData\Local\Temp\cc11CUDk.s 			page 187


 8993 2313 03       		.uleb128 0x3
 8994 2314 91       		.byte	0x91
 8995 2315 8F7F     		.sleb128 -113
 8996 2317 32       		.uleb128 0x32
 8997 2318 65787400 		.ascii	"ext\000"
 8998 231c 03       		.byte	0x3
 8999 231d DD02     		.2byte	0x2dd
 9000 231f 4A1A0000 		.4byte	0x1a4a
 9001 2323 02       		.uleb128 0x2
 9002 2324 91       		.byte	0x91
 9003 2325 74       		.sleb128 -12
 9004 2326 36       		.uleb128 0x36
 9005 2327 8D000000 		.4byte	.LASF397
 9006 232b 03       		.byte	0x3
 9007 232c DF02     		.2byte	0x2df
 9008 232e D0050000 		.4byte	0x5d0
 9009 2332 03       		.uleb128 0x3
 9010 2333 91       		.byte	0x91
 9011 2334 A47F     		.sleb128 -92
 9012 2336 36       		.uleb128 0x36
 9013 2337 2A010000 		.4byte	.LASF398
 9014 233b 03       		.byte	0x3
 9015 233c E802     		.2byte	0x2e8
 9016 233e 9A030000 		.4byte	0x39a
 9017 2342 03       		.uleb128 0x3
 9018 2343 91       		.byte	0x91
 9019 2344 9C7F     		.sleb128 -100
 9020 2346 00       		.byte	0
 9021 2347 37       		.uleb128 0x37
 9022 2348 B2020000 		.4byte	.LASF399
 9023 234c 03       		.byte	0x3
 9024 234d ED02     		.2byte	0x2ed
 9025 234f 00000000 		.4byte	.LFB57
 9026 2353 28000000 		.4byte	.LFE57-.LFB57
 9027 2357 01       		.uleb128 0x1
 9028 2358 9C       		.byte	0x9c
 9029 2359 7C230000 		.4byte	0x237c
 9030 235d 26       		.uleb128 0x26
 9031 235e 7E080000 		.4byte	.LASF352
 9032 2362 03       		.byte	0x3
 9033 2363 ED02     		.2byte	0x2ed
 9034 2365 391A0000 		.4byte	0x1a39
 9035 2369 02       		.uleb128 0x2
 9036 236a 91       		.byte	0x91
 9037 236b 6C       		.sleb128 -20
 9038 236c 36       		.uleb128 0x36
 9039 236d 2A010000 		.4byte	.LASF398
 9040 2371 03       		.byte	0x3
 9041 2372 EF02     		.2byte	0x2ef
 9042 2374 9A030000 		.4byte	0x39a
 9043 2378 02       		.uleb128 0x2
 9044 2379 91       		.byte	0x91
 9045 237a 70       		.sleb128 -16
 9046 237b 00       		.byte	0
 9047 237c 35       		.uleb128 0x35
 9048 237d A3010000 		.4byte	.LASF400
 9049 2381 03       		.byte	0x3
ARM GAS  C:\Users\tmj32\AppData\Local\Temp\cc11CUDk.s 			page 188


 9050 2382 F402     		.2byte	0x2f4
 9051 2384 9A030000 		.4byte	0x39a
 9052 2388 00000000 		.4byte	.LFB58
 9053 238c 2E010000 		.4byte	.LFE58-.LFB58
 9054 2390 01       		.uleb128 0x1
 9055 2391 9C       		.byte	0x9c
 9056 2392 06240000 		.4byte	0x2406
 9057 2396 26       		.uleb128 0x26
 9058 2397 7E080000 		.4byte	.LASF352
 9059 239b 03       		.byte	0x3
 9060 239c F402     		.2byte	0x2f4
 9061 239e 391A0000 		.4byte	0x1a39
 9062 23a2 02       		.uleb128 0x2
 9063 23a3 91       		.byte	0x91
 9064 23a4 50       		.sleb128 -48
 9065 23a5 32       		.uleb128 0x32
 9066 23a6 65787400 		.ascii	"ext\000"
 9067 23aa 03       		.byte	0x3
 9068 23ab F602     		.2byte	0x2f6
 9069 23ad 4A1A0000 		.4byte	0x1a4a
 9070 23b1 02       		.uleb128 0x2
 9071 23b2 91       		.byte	0x91
 9072 23b3 70       		.sleb128 -16
 9073 23b4 36       		.uleb128 0x36
 9074 23b5 61100000 		.4byte	.LASF386
 9075 23b9 03       		.byte	0x3
 9076 23ba F702     		.2byte	0x2f7
 9077 23bc 8D0F0000 		.4byte	0xf8d
 9078 23c0 02       		.uleb128 0x2
 9079 23c1 91       		.byte	0x91
 9080 23c2 6C       		.sleb128 -20
 9081 23c3 36       		.uleb128 0x36
 9082 23c4 28030000 		.4byte	.LASF401
 9083 23c8 03       		.byte	0x3
 9084 23c9 F802     		.2byte	0x2f8
 9085 23cb 8D0F0000 		.4byte	0xf8d
 9086 23cf 02       		.uleb128 0x2
 9087 23d0 91       		.byte	0x91
 9088 23d1 68       		.sleb128 -24
 9089 23d2 32       		.uleb128 0x32
 9090 23d3 7200     		.ascii	"r\000"
 9091 23d5 03       		.byte	0x3
 9092 23d6 FA02     		.2byte	0x2fa
 9093 23d8 CE000000 		.4byte	0xce
 9094 23dc 02       		.uleb128 0x2
 9095 23dd 91       		.byte	0x91
 9096 23de 76       		.sleb128 -10
 9097 23df 36       		.uleb128 0x36
 9098 23e0 2A010000 		.4byte	.LASF398
 9099 23e4 03       		.byte	0x3
 9100 23e5 0103     		.2byte	0x301
 9101 23e7 9A030000 		.4byte	0x39a
 9102 23eb 02       		.uleb128 0x2
 9103 23ec 91       		.byte	0x91
 9104 23ed 5C       		.sleb128 -36
 9105 23ee 2F       		.uleb128 0x2f
 9106 23ef 58000000 		.4byte	.LBB9
ARM GAS  C:\Users\tmj32\AppData\Local\Temp\cc11CUDk.s 			page 189


 9107 23f3 18000000 		.4byte	.LBE9-.LBB9
 9108 23f7 32       		.uleb128 0x32
 9109 23f8 6800     		.ascii	"h\000"
 9110 23fa 03       		.byte	0x3
 9111 23fb FD02     		.2byte	0x2fd
 9112 23fd EF000000 		.4byte	0xef
 9113 2401 02       		.uleb128 0x2
 9114 2402 91       		.byte	0x91
 9115 2403 66       		.sleb128 -26
 9116 2404 00       		.byte	0
 9117 2405 00       		.byte	0
 9118 2406 35       		.uleb128 0x35
 9119 2407 D2000000 		.4byte	.LASF402
 9120 240b 03       		.byte	0x3
 9121 240c 1103     		.2byte	0x311
 9122 240e FA050000 		.4byte	0x5fa
 9123 2412 00000000 		.4byte	.LFB59
 9124 2416 14060000 		.4byte	.LFE59-.LFB59
 9125 241a 01       		.uleb128 0x1
 9126 241b 9C       		.byte	0x9c
 9127 241c 99250000 		.4byte	0x2599
 9128 2420 26       		.uleb128 0x26
 9129 2421 7E080000 		.4byte	.LASF352
 9130 2425 03       		.byte	0x3
 9131 2426 1103     		.2byte	0x311
 9132 2428 391A0000 		.4byte	0x1a39
 9133 242c 03       		.uleb128 0x3
 9134 242d 91       		.byte	0x91
 9135 242e B47F     		.sleb128 -76
 9136 2430 26       		.uleb128 0x26
 9137 2431 9E010000 		.4byte	.LASF403
 9138 2435 03       		.byte	0x3
 9139 2436 1103     		.2byte	0x311
 9140 2438 D50E0000 		.4byte	0xed5
 9141 243c 03       		.uleb128 0x3
 9142 243d 91       		.byte	0x91
 9143 243e B37F     		.sleb128 -77
 9144 2440 26       		.uleb128 0x26
 9145 2441 50080000 		.4byte	.LASF404
 9146 2445 03       		.byte	0x3
 9147 2446 1103     		.2byte	0x311
 9148 2448 FA000000 		.4byte	0xfa
 9149 244c 03       		.uleb128 0x3
 9150 244d 91       		.byte	0x91
 9151 244e AC7F     		.sleb128 -84
 9152 2450 32       		.uleb128 0x32
 9153 2451 72657300 		.ascii	"res\000"
 9154 2455 03       		.byte	0x3
 9155 2456 1403     		.2byte	0x314
 9156 2458 FA050000 		.4byte	0x5fa
 9157 245c 02       		.uleb128 0x2
 9158 245d 91       		.byte	0x91
 9159 245e 6F       		.sleb128 -17
 9160 245f 32       		.uleb128 0x32
 9161 2460 65787400 		.ascii	"ext\000"
 9162 2464 03       		.byte	0x3
 9163 2465 1803     		.2byte	0x318
ARM GAS  C:\Users\tmj32\AppData\Local\Temp\cc11CUDk.s 			page 190


 9164 2467 4A1A0000 		.4byte	0x1a4a
 9165 246b 02       		.uleb128 0x2
 9166 246c 91       		.byte	0x91
 9167 246d 64       		.sleb128 -28
 9168 246e 2E       		.uleb128 0x2e
 9169 246f 56000000 		.4byte	.LBB10
 9170 2473 A8000000 		.4byte	.LBE10-.LBB10
 9171 2477 9A240000 		.4byte	0x249a
 9172 247b 36       		.uleb128 0x36
 9173 247c 28030000 		.4byte	.LASF401
 9174 2480 03       		.byte	0x3
 9175 2481 1D03     		.2byte	0x31d
 9176 2483 8D0F0000 		.4byte	0xf8d
 9177 2487 02       		.uleb128 0x2
 9178 2488 91       		.byte	0x91
 9179 2489 48       		.sleb128 -56
 9180 248a 36       		.uleb128 0x36
 9181 248b 40110000 		.4byte	.LASF405
 9182 248f 03       		.byte	0x3
 9183 2490 1E03     		.2byte	0x31e
 9184 2492 EF000000 		.4byte	0xef
 9185 2496 02       		.uleb128 0x2
 9186 2497 91       		.byte	0x91
 9187 2498 6C       		.sleb128 -20
 9188 2499 00       		.byte	0
 9189 249a 38       		.uleb128 0x38
 9190 249b 00000000 		.4byte	.Ldebug_ranges0+0
 9191 249f E7240000 		.4byte	0x24e7
 9192 24a3 32       		.uleb128 0x32
 9193 24a4 6300     		.ascii	"c\000"
 9194 24a6 03       		.byte	0x3
 9195 24a7 3203     		.2byte	0x332
 9196 24a9 E4000000 		.4byte	0xe4
 9197 24ad 02       		.uleb128 0x2
 9198 24ae 91       		.byte	0x91
 9199 24af 60       		.sleb128 -32
 9200 24b0 2E       		.uleb128 0x2e
 9201 24b1 70010000 		.4byte	.LBB12
 9202 24b5 B0000000 		.4byte	.LBE12-.LBB12
 9203 24b9 CD240000 		.4byte	0x24cd
 9204 24bd 36       		.uleb128 0x36
 9205 24be 8E040000 		.4byte	.LASF406
 9206 24c2 03       		.byte	0x3
 9207 24c3 3403     		.2byte	0x334
 9208 24c5 23030000 		.4byte	0x323
 9209 24c9 02       		.uleb128 0x2
 9210 24ca 91       		.byte	0x91
 9211 24cb 44       		.sleb128 -60
 9212 24cc 00       		.byte	0
 9213 24cd 2F       		.uleb128 0x2f
 9214 24ce 2E020000 		.4byte	.LBB13
 9215 24d2 A6000000 		.4byte	.LBE13-.LBB13
 9216 24d6 36       		.uleb128 0x36
 9217 24d7 8E040000 		.4byte	.LASF406
 9218 24db 03       		.byte	0x3
 9219 24dc 4903     		.2byte	0x349
 9220 24de 23030000 		.4byte	0x323
ARM GAS  C:\Users\tmj32\AppData\Local\Temp\cc11CUDk.s 			page 191


 9221 24e2 02       		.uleb128 0x2
 9222 24e3 91       		.byte	0x91
 9223 24e4 40       		.sleb128 -64
 9224 24e5 00       		.byte	0
 9225 24e6 00       		.byte	0
 9226 24e7 2F       		.uleb128 0x2f
 9227 24e8 1A030000 		.4byte	.LBB14
 9228 24ec E4020000 		.4byte	.LBE14-.LBB14
 9229 24f0 36       		.uleb128 0x36
 9230 24f1 1F120000 		.4byte	.LASF407
 9231 24f5 03       		.byte	0x3
 9232 24f6 6403     		.2byte	0x364
 9233 24f8 99250000 		.4byte	0x2599
 9234 24fc 02       		.uleb128 0x2
 9235 24fd 91       		.byte	0x91
 9236 24fe 5C       		.sleb128 -36
 9237 24ff 32       		.uleb128 0x32
 9238 2500 7000     		.ascii	"p\000"
 9239 2502 03       		.byte	0x3
 9240 2503 6703     		.2byte	0x367
 9241 2505 5A030000 		.4byte	0x35a
 9242 2509 03       		.uleb128 0x3
 9243 250a 91       		.byte	0x91
 9244 250b BC7F     		.sleb128 -68
 9245 250d 32       		.uleb128 0x32
 9246 250e 7700     		.ascii	"w\000"
 9247 2510 03       		.byte	0x3
 9248 2511 7503     		.2byte	0x375
 9249 2513 CE000000 		.4byte	0xce
 9250 2517 02       		.uleb128 0x2
 9251 2518 91       		.byte	0x91
 9252 2519 5A       		.sleb128 -38
 9253 251a 36       		.uleb128 0x36
 9254 251b E0080000 		.4byte	.LASF408
 9255 251f 03       		.byte	0x3
 9256 2520 7703     		.2byte	0x377
 9257 2522 C3000000 		.4byte	0xc3
 9258 2526 02       		.uleb128 0x2
 9259 2527 91       		.byte	0x91
 9260 2528 6A       		.sleb128 -22
 9261 2529 36       		.uleb128 0x36
 9262 252a 8E040000 		.4byte	.LASF406
 9263 252e 03       		.byte	0x3
 9264 252f A003     		.2byte	0x3a0
 9265 2531 23030000 		.4byte	0x323
 9266 2535 03       		.uleb128 0x3
 9267 2536 91       		.byte	0x91
 9268 2537 B87F     		.sleb128 -72
 9269 2539 2E       		.uleb128 0x2e
 9270 253a DC030000 		.4byte	.LBB15
 9271 253e 7A000000 		.4byte	.LBE15-.LBB15
 9272 2542 56250000 		.4byte	0x2556
 9273 2546 36       		.uleb128 0x36
 9274 2547 E8020000 		.4byte	.LASF409
 9275 254b 03       		.byte	0x3
 9276 254c 7B03     		.2byte	0x37b
 9277 254e E4000000 		.4byte	0xe4
ARM GAS  C:\Users\tmj32\AppData\Local\Temp\cc11CUDk.s 			page 192


 9278 2552 02       		.uleb128 0x2
 9279 2553 91       		.byte	0x91
 9280 2554 54       		.sleb128 -44
 9281 2555 00       		.byte	0
 9282 2556 2F       		.uleb128 0x2f
 9283 2557 66040000 		.4byte	.LBB16
 9284 255b 0C010000 		.4byte	.LBE16-.LBB16
 9285 255f 36       		.uleb128 0x36
 9286 2560 61100000 		.4byte	.LASF386
 9287 2564 03       		.byte	0x3
 9288 2565 8703     		.2byte	0x387
 9289 2567 8D0F0000 		.4byte	0xf8d
 9290 256b 02       		.uleb128 0x2
 9291 256c 91       		.byte	0x91
 9292 256d 50       		.sleb128 -48
 9293 256e 36       		.uleb128 0x36
 9294 256f 700C0000 		.4byte	.LASF410
 9295 2573 03       		.byte	0x3
 9296 2574 8803     		.2byte	0x388
 9297 2576 EF000000 		.4byte	0xef
 9298 257a 02       		.uleb128 0x2
 9299 257b 91       		.byte	0x91
 9300 257c 68       		.sleb128 -24
 9301 257d 2F       		.uleb128 0x2f
 9302 257e 06050000 		.4byte	.LBB17
 9303 2582 3E000000 		.4byte	.LBE17-.LBB17
 9304 2586 36       		.uleb128 0x36
 9305 2587 E8020000 		.4byte	.LASF409
 9306 258b 03       		.byte	0x3
 9307 258c 9503     		.2byte	0x395
 9308 258e E4000000 		.4byte	0xe4
 9309 2592 02       		.uleb128 0x2
 9310 2593 91       		.byte	0x91
 9311 2594 4C       		.sleb128 -52
 9312 2595 00       		.byte	0
 9313 2596 00       		.byte	0
 9314 2597 00       		.byte	0
 9315 2598 00       		.byte	0
 9316 2599 0D       		.uleb128 0xd
 9317 259a 04       		.byte	0x4
 9318 259b 400D0000 		.4byte	0xd40
 9319 259f 37       		.uleb128 0x37
 9320 25a0 E6080000 		.4byte	.LASF411
 9321 25a4 03       		.byte	0x3
 9322 25a5 B803     		.2byte	0x3b8
 9323 25a7 00000000 		.4byte	.LFB60
 9324 25ab 58000000 		.4byte	.LFE60-.LFB60
 9325 25af 01       		.uleb128 0x1
 9326 25b0 9C       		.byte	0x9c
 9327 25b1 D4250000 		.4byte	0x25d4
 9328 25b5 26       		.uleb128 0x26
 9329 25b6 7E080000 		.4byte	.LASF352
 9330 25ba 03       		.byte	0x3
 9331 25bb B803     		.2byte	0x3b8
 9332 25bd 391A0000 		.4byte	0x1a39
 9333 25c1 02       		.uleb128 0x2
 9334 25c2 91       		.byte	0x91
ARM GAS  C:\Users\tmj32\AppData\Local\Temp\cc11CUDk.s 			page 193


 9335 25c3 6C       		.sleb128 -20
 9336 25c4 32       		.uleb128 0x32
 9337 25c5 65787400 		.ascii	"ext\000"
 9338 25c9 03       		.byte	0x3
 9339 25ca BA03     		.2byte	0x3ba
 9340 25cc 4A1A0000 		.4byte	0x1a4a
 9341 25d0 02       		.uleb128 0x2
 9342 25d1 91       		.byte	0x91
 9343 25d2 74       		.sleb128 -12
 9344 25d3 00       		.byte	0
 9345 25d4 37       		.uleb128 0x37
 9346 25d5 86080000 		.4byte	.LASF412
 9347 25d9 03       		.byte	0x3
 9348 25da C003     		.2byte	0x3c0
 9349 25dc 00000000 		.4byte	.LFB61
 9350 25e0 B8010000 		.4byte	.LFE61-.LFB61
 9351 25e4 01       		.uleb128 0x1
 9352 25e5 9C       		.byte	0x9c
 9353 25e6 75260000 		.4byte	0x2675
 9354 25ea 26       		.uleb128 0x26
 9355 25eb 7E080000 		.4byte	.LASF352
 9356 25ef 03       		.byte	0x3
 9357 25f0 C003     		.2byte	0x3c0
 9358 25f2 391A0000 		.4byte	0x1a39
 9359 25f6 02       		.uleb128 0x2
 9360 25f7 91       		.byte	0x91
 9361 25f8 54       		.sleb128 -44
 9362 25f9 32       		.uleb128 0x32
 9363 25fa 65787400 		.ascii	"ext\000"
 9364 25fe 03       		.byte	0x3
 9365 25ff C403     		.2byte	0x3c4
 9366 2601 4A1A0000 		.4byte	0x1a4a
 9367 2605 02       		.uleb128 0x2
 9368 2606 91       		.byte	0x91
 9369 2607 68       		.sleb128 -24
 9370 2608 32       		.uleb128 0x32
 9371 2609 7700     		.ascii	"w\000"
 9372 260b 03       		.byte	0x3
 9373 260c C503     		.2byte	0x3c5
 9374 260e EF000000 		.4byte	0xef
 9375 2612 02       		.uleb128 0x2
 9376 2613 91       		.byte	0x91
 9377 2614 66       		.sleb128 -26
 9378 2615 32       		.uleb128 0x32
 9379 2616 6800     		.ascii	"h\000"
 9380 2618 03       		.byte	0x3
 9381 2619 C603     		.2byte	0x3c6
 9382 261b EF000000 		.4byte	0xef
 9383 261f 02       		.uleb128 0x2
 9384 2620 91       		.byte	0x91
 9385 2621 64       		.sleb128 -28
 9386 2622 2E       		.uleb128 0x2e
 9387 2623 38000000 		.4byte	.LBB19
 9388 2627 A4000000 		.4byte	.LBE19-.LBB19
 9389 262b 3F260000 		.4byte	0x263f
 9390 262f 36       		.uleb128 0x36
 9391 2630 C7100000 		.4byte	.LASF413
ARM GAS  C:\Users\tmj32\AppData\Local\Temp\cc11CUDk.s 			page 194


 9392 2634 03       		.byte	0x3
 9393 2635 C903     		.2byte	0x3c9
 9394 2637 EF000000 		.4byte	0xef
 9395 263b 02       		.uleb128 0x2
 9396 263c 91       		.byte	0x91
 9397 263d 6E       		.sleb128 -18
 9398 263e 00       		.byte	0
 9399 263f 2F       		.uleb128 0x2f
 9400 2640 EC000000 		.4byte	.LBB20
 9401 2644 B4000000 		.4byte	.LBE20-.LBB20
 9402 2648 36       		.uleb128 0x36
 9403 2649 61100000 		.4byte	.LASF386
 9404 264d 03       		.byte	0x3
 9405 264e D903     		.2byte	0x3d9
 9406 2650 8D0F0000 		.4byte	0xf8d
 9407 2654 02       		.uleb128 0x2
 9408 2655 91       		.byte	0x91
 9409 2656 60       		.sleb128 -32
 9410 2657 32       		.uleb128 0x32
 9411 2658 7200     		.ascii	"r\000"
 9412 265a 03       		.byte	0x3
 9413 265b DA03     		.2byte	0x3da
 9414 265d EF000000 		.4byte	0xef
 9415 2661 02       		.uleb128 0x2
 9416 2662 91       		.byte	0x91
 9417 2663 5E       		.sleb128 -34
 9418 2664 36       		.uleb128 0x36
 9419 2665 E0080000 		.4byte	.LASF408
 9420 2669 03       		.byte	0x3
 9421 266a DB03     		.2byte	0x3db
 9422 266c CE000000 		.4byte	0xce
 9423 2670 02       		.uleb128 0x2
 9424 2671 91       		.byte	0x91
 9425 2672 5C       		.sleb128 -36
 9426 2673 00       		.byte	0
 9427 2674 00       		.byte	0
 9428 2675 35       		.uleb128 0x35
 9429 2676 37020000 		.4byte	.LASF414
 9430 267a 03       		.byte	0x3
 9431 267b E503     		.2byte	0x3e5
 9432 267d FA050000 		.4byte	0x5fa
 9433 2681 00000000 		.4byte	.LFB62
 9434 2685 92000000 		.4byte	.LFE62-.LFB62
 9435 2689 01       		.uleb128 0x1
 9436 268a 9C       		.byte	0x9c
 9437 268b EF260000 		.4byte	0x26ef
 9438 268f 26       		.uleb128 0x26
 9439 2690 7E080000 		.4byte	.LASF352
 9440 2694 03       		.byte	0x3
 9441 2695 E503     		.2byte	0x3e5
 9442 2697 391A0000 		.4byte	0x1a39
 9443 269b 02       		.uleb128 0x2
 9444 269c 91       		.byte	0x91
 9445 269d 64       		.sleb128 -28
 9446 269e 32       		.uleb128 0x32
 9447 269f 65787400 		.ascii	"ext\000"
 9448 26a3 03       		.byte	0x3
ARM GAS  C:\Users\tmj32\AppData\Local\Temp\cc11CUDk.s 			page 195


 9449 26a4 E703     		.2byte	0x3e7
 9450 26a6 4A1A0000 		.4byte	0x1a4a
 9451 26aa 02       		.uleb128 0x2
 9452 26ab 91       		.byte	0x91
 9453 26ac 74       		.sleb128 -12
 9454 26ad 36       		.uleb128 0x36
 9455 26ae 1F120000 		.4byte	.LASF407
 9456 26b2 03       		.byte	0x3
 9457 26b3 E803     		.2byte	0x3e8
 9458 26b5 99250000 		.4byte	0x2599
 9459 26b9 02       		.uleb128 0x2
 9460 26ba 91       		.byte	0x91
 9461 26bb 70       		.sleb128 -16
 9462 26bc 2F       		.uleb128 0x2f
 9463 26bd 2A000000 		.4byte	.LBB21
 9464 26c1 54000000 		.4byte	.LBE21-.LBB21
 9465 26c5 36       		.uleb128 0x36
 9466 26c6 8E040000 		.4byte	.LASF406
 9467 26ca 03       		.byte	0x3
 9468 26cb EB03     		.2byte	0x3eb
 9469 26cd 23030000 		.4byte	0x323
 9470 26d1 02       		.uleb128 0x2
 9471 26d2 91       		.byte	0x91
 9472 26d3 68       		.sleb128 -24
 9473 26d4 2F       		.uleb128 0x2f
 9474 26d5 66000000 		.4byte	.LBB22
 9475 26d9 18000000 		.4byte	.LBE22-.LBB22
 9476 26dd 32       		.uleb128 0x32
 9477 26de 72657300 		.ascii	"res\000"
 9478 26e2 03       		.byte	0x3
 9479 26e3 FB03     		.2byte	0x3fb
 9480 26e5 FA050000 		.4byte	0x5fa
 9481 26e9 02       		.uleb128 0x2
 9482 26ea 91       		.byte	0x91
 9483 26eb 6F       		.sleb128 -17
 9484 26ec 00       		.byte	0
 9485 26ed 00       		.byte	0
 9486 26ee 00       		.byte	0
 9487 26ef 35       		.uleb128 0x35
 9488 26f0 46010000 		.4byte	.LASF415
 9489 26f4 03       		.byte	0x3
 9490 26f5 0404     		.2byte	0x404
 9491 26f7 E0020000 		.4byte	0x2e0
 9492 26fb 00000000 		.4byte	.LFB63
 9493 26ff F0000000 		.4byte	.LFE63-.LFB63
 9494 2703 01       		.uleb128 0x1
 9495 2704 9C       		.byte	0x9c
 9496 2705 46270000 		.4byte	0x2746
 9497 2709 26       		.uleb128 0x26
 9498 270a 7E080000 		.4byte	.LASF352
 9499 270e 03       		.byte	0x3
 9500 270f 0404     		.2byte	0x404
 9501 2711 391A0000 		.4byte	0x1a39
 9502 2715 02       		.uleb128 0x2
 9503 2716 91       		.byte	0x91
 9504 2717 64       		.sleb128 -28
 9505 2718 26       		.uleb128 0x26
ARM GAS  C:\Users\tmj32\AppData\Local\Temp\cc11CUDk.s 			page 196


 9506 2719 E0080000 		.4byte	.LASF408
 9507 271d 03       		.byte	0x3
 9508 271e 0404     		.2byte	0x404
 9509 2720 CE000000 		.4byte	0xce
 9510 2724 02       		.uleb128 0x2
 9511 2725 91       		.byte	0x91
 9512 2726 62       		.sleb128 -30
 9513 2727 32       		.uleb128 0x32
 9514 2728 65787400 		.ascii	"ext\000"
 9515 272c 03       		.byte	0x3
 9516 272d 0604     		.2byte	0x406
 9517 272f 4A1A0000 		.4byte	0x1a4a
 9518 2733 02       		.uleb128 0x2
 9519 2734 91       		.byte	0x91
 9520 2735 6C       		.sleb128 -20
 9521 2736 36       		.uleb128 0x36
 9522 2737 D9100000 		.4byte	.LASF62
 9523 273b 03       		.byte	0x3
 9524 273c 0704     		.2byte	0x407
 9525 273e E0020000 		.4byte	0x2e0
 9526 2742 02       		.uleb128 0x2
 9527 2743 91       		.byte	0x91
 9528 2744 68       		.sleb128 -24
 9529 2745 00       		.byte	0
 9530 2746 35       		.uleb128 0x35
 9531 2747 8D0F0000 		.4byte	.LASF416
 9532 274b 03       		.byte	0x3
 9533 274c 1804     		.2byte	0x418
 9534 274e CE000000 		.4byte	0xce
 9535 2752 00000000 		.4byte	.LFB64
 9536 2756 74000000 		.4byte	.LFE64-.LFB64
 9537 275a 01       		.uleb128 0x1
 9538 275b 9C       		.byte	0x9c
 9539 275c 8E270000 		.4byte	0x278e
 9540 2760 26       		.uleb128 0x26
 9541 2761 7E080000 		.4byte	.LASF352
 9542 2765 03       		.byte	0x3
 9543 2766 1804     		.2byte	0x418
 9544 2768 391A0000 		.4byte	0x1a39
 9545 276c 02       		.uleb128 0x2
 9546 276d 91       		.byte	0x91
 9547 276e 6C       		.sleb128 -20
 9548 276f 32       		.uleb128 0x32
 9549 2770 65787400 		.ascii	"ext\000"
 9550 2774 03       		.byte	0x3
 9551 2775 1A04     		.2byte	0x41a
 9552 2777 4A1A0000 		.4byte	0x1a4a
 9553 277b 02       		.uleb128 0x2
 9554 277c 91       		.byte	0x91
 9555 277d 70       		.sleb128 -16
 9556 277e 36       		.uleb128 0x36
 9557 277f E0080000 		.4byte	.LASF408
 9558 2783 03       		.byte	0x3
 9559 2784 1B04     		.2byte	0x41b
 9560 2786 CE000000 		.4byte	0xce
 9561 278a 02       		.uleb128 0x2
 9562 278b 91       		.byte	0x91
ARM GAS  C:\Users\tmj32\AppData\Local\Temp\cc11CUDk.s 			page 197


 9563 278c 76       		.sleb128 -10
 9564 278d 00       		.byte	0
 9565 278e 2C       		.uleb128 0x2c
 9566 278f 090F0000 		.4byte	.LASF417
 9567 2793 03       		.byte	0x3
 9568 2794 4C       		.byte	0x4c
 9569 2795 E00E0000 		.4byte	0xee0
 9570 2799 05       		.uleb128 0x5
 9571 279a 03       		.byte	0x3
 9572 279b 00000000 		.4byte	ancestor_signal
 9573 279f 2C       		.uleb128 0x2c
 9574 27a0 5E0F0000 		.4byte	.LASF418
 9575 27a4 03       		.byte	0x3
 9576 27a5 4D       		.byte	0x4d
 9577 27a6 750D0000 		.4byte	0xd75
 9578 27aa 05       		.uleb128 0x5
 9579 27ab 03       		.byte	0x3
 9580 27ac 04000000 		.4byte	ancestor_design
 9581 27b0 39       		.uleb128 0x39
 9582 27b1 240C0000 		.4byte	.LASF423
 9583 27b5 08       		.byte	0x8
 9584 27b6 0F01     		.2byte	0x10f
 9585 27b8 D0050000 		.4byte	0x5d0
 9586 27bc 00       		.byte	0
 9587              		.section	.debug_abbrev,"",%progbits
 9588              	.Ldebug_abbrev0:
 9589 0000 01       		.uleb128 0x1
 9590 0001 11       		.uleb128 0x11
 9591 0002 01       		.byte	0x1
 9592 0003 25       		.uleb128 0x25
 9593 0004 0E       		.uleb128 0xe
 9594 0005 13       		.uleb128 0x13
 9595 0006 0B       		.uleb128 0xb
 9596 0007 03       		.uleb128 0x3
 9597 0008 0E       		.uleb128 0xe
 9598 0009 1B       		.uleb128 0x1b
 9599 000a 0E       		.uleb128 0xe
 9600 000b 55       		.uleb128 0x55
 9601 000c 17       		.uleb128 0x17
 9602 000d 11       		.uleb128 0x11
 9603 000e 01       		.uleb128 0x1
 9604 000f 10       		.uleb128 0x10
 9605 0010 17       		.uleb128 0x17
 9606 0011 00       		.byte	0
 9607 0012 00       		.byte	0
 9608 0013 02       		.uleb128 0x2
 9609 0014 16       		.uleb128 0x16
 9610 0015 00       		.byte	0
 9611 0016 03       		.uleb128 0x3
 9612 0017 0E       		.uleb128 0xe
 9613 0018 3A       		.uleb128 0x3a
 9614 0019 0B       		.uleb128 0xb
 9615 001a 3B       		.uleb128 0x3b
 9616 001b 0B       		.uleb128 0xb
 9617 001c 49       		.uleb128 0x49
 9618 001d 13       		.uleb128 0x13
 9619 001e 00       		.byte	0
ARM GAS  C:\Users\tmj32\AppData\Local\Temp\cc11CUDk.s 			page 198


 9620 001f 00       		.byte	0
 9621 0020 03       		.uleb128 0x3
 9622 0021 24       		.uleb128 0x24
 9623 0022 00       		.byte	0
 9624 0023 0B       		.uleb128 0xb
 9625 0024 0B       		.uleb128 0xb
 9626 0025 3E       		.uleb128 0x3e
 9627 0026 0B       		.uleb128 0xb
 9628 0027 03       		.uleb128 0x3
 9629 0028 0E       		.uleb128 0xe
 9630 0029 00       		.byte	0
 9631 002a 00       		.byte	0
 9632 002b 04       		.uleb128 0x4
 9633 002c 24       		.uleb128 0x24
 9634 002d 00       		.byte	0
 9635 002e 0B       		.uleb128 0xb
 9636 002f 0B       		.uleb128 0xb
 9637 0030 3E       		.uleb128 0x3e
 9638 0031 0B       		.uleb128 0xb
 9639 0032 03       		.uleb128 0x3
 9640 0033 08       		.uleb128 0x8
 9641 0034 00       		.byte	0
 9642 0035 00       		.byte	0
 9643 0036 05       		.uleb128 0x5
 9644 0037 0F       		.uleb128 0xf
 9645 0038 00       		.byte	0
 9646 0039 0B       		.uleb128 0xb
 9647 003a 0B       		.uleb128 0xb
 9648 003b 00       		.byte	0
 9649 003c 00       		.byte	0
 9650 003d 06       		.uleb128 0x6
 9651 003e 13       		.uleb128 0x13
 9652 003f 01       		.byte	0x1
 9653 0040 0B       		.uleb128 0xb
 9654 0041 0B       		.uleb128 0xb
 9655 0042 3A       		.uleb128 0x3a
 9656 0043 0B       		.uleb128 0xb
 9657 0044 3B       		.uleb128 0x3b
 9658 0045 0B       		.uleb128 0xb
 9659 0046 01       		.uleb128 0x1
 9660 0047 13       		.uleb128 0x13
 9661 0048 00       		.byte	0
 9662 0049 00       		.byte	0
 9663 004a 07       		.uleb128 0x7
 9664 004b 0D       		.uleb128 0xd
 9665 004c 00       		.byte	0
 9666 004d 03       		.uleb128 0x3
 9667 004e 0E       		.uleb128 0xe
 9668 004f 3A       		.uleb128 0x3a
 9669 0050 0B       		.uleb128 0xb
 9670 0051 3B       		.uleb128 0x3b
 9671 0052 0B       		.uleb128 0xb
 9672 0053 49       		.uleb128 0x49
 9673 0054 13       		.uleb128 0x13
 9674 0055 38       		.uleb128 0x38
 9675 0056 0B       		.uleb128 0xb
 9676 0057 00       		.byte	0
ARM GAS  C:\Users\tmj32\AppData\Local\Temp\cc11CUDk.s 			page 199


 9677 0058 00       		.byte	0
 9678 0059 08       		.uleb128 0x8
 9679 005a 0D       		.uleb128 0xd
 9680 005b 00       		.byte	0
 9681 005c 03       		.uleb128 0x3
 9682 005d 08       		.uleb128 0x8
 9683 005e 3A       		.uleb128 0x3a
 9684 005f 0B       		.uleb128 0xb
 9685 0060 3B       		.uleb128 0x3b
 9686 0061 0B       		.uleb128 0xb
 9687 0062 49       		.uleb128 0x49
 9688 0063 13       		.uleb128 0x13
 9689 0064 38       		.uleb128 0x38
 9690 0065 0B       		.uleb128 0xb
 9691 0066 00       		.byte	0
 9692 0067 00       		.byte	0
 9693 0068 09       		.uleb128 0x9
 9694 0069 13       		.uleb128 0x13
 9695 006a 01       		.byte	0x1
 9696 006b 03       		.uleb128 0x3
 9697 006c 0E       		.uleb128 0xe
 9698 006d 0B       		.uleb128 0xb
 9699 006e 0B       		.uleb128 0xb
 9700 006f 3A       		.uleb128 0x3a
 9701 0070 0B       		.uleb128 0xb
 9702 0071 3B       		.uleb128 0x3b
 9703 0072 0B       		.uleb128 0xb
 9704 0073 01       		.uleb128 0x1
 9705 0074 13       		.uleb128 0x13
 9706 0075 00       		.byte	0
 9707 0076 00       		.byte	0
 9708 0077 0A       		.uleb128 0xa
 9709 0078 0D       		.uleb128 0xd
 9710 0079 00       		.byte	0
 9711 007a 03       		.uleb128 0x3
 9712 007b 0E       		.uleb128 0xe
 9713 007c 3A       		.uleb128 0x3a
 9714 007d 0B       		.uleb128 0xb
 9715 007e 3B       		.uleb128 0x3b
 9716 007f 0B       		.uleb128 0xb
 9717 0080 49       		.uleb128 0x49
 9718 0081 13       		.uleb128 0x13
 9719 0082 0B       		.uleb128 0xb
 9720 0083 0B       		.uleb128 0xb
 9721 0084 0D       		.uleb128 0xd
 9722 0085 0B       		.uleb128 0xb
 9723 0086 0C       		.uleb128 0xc
 9724 0087 0B       		.uleb128 0xb
 9725 0088 38       		.uleb128 0x38
 9726 0089 0B       		.uleb128 0xb
 9727 008a 00       		.byte	0
 9728 008b 00       		.byte	0
 9729 008c 0B       		.uleb128 0xb
 9730 008d 15       		.uleb128 0x15
 9731 008e 01       		.byte	0x1
 9732 008f 27       		.uleb128 0x27
 9733 0090 19       		.uleb128 0x19
ARM GAS  C:\Users\tmj32\AppData\Local\Temp\cc11CUDk.s 			page 200


 9734 0091 49       		.uleb128 0x49
 9735 0092 13       		.uleb128 0x13
 9736 0093 01       		.uleb128 0x1
 9737 0094 13       		.uleb128 0x13
 9738 0095 00       		.byte	0
 9739 0096 00       		.byte	0
 9740 0097 0C       		.uleb128 0xc
 9741 0098 05       		.uleb128 0x5
 9742 0099 00       		.byte	0
 9743 009a 49       		.uleb128 0x49
 9744 009b 13       		.uleb128 0x13
 9745 009c 00       		.byte	0
 9746 009d 00       		.byte	0
 9747 009e 0D       		.uleb128 0xd
 9748 009f 0F       		.uleb128 0xf
 9749 00a0 00       		.byte	0
 9750 00a1 0B       		.uleb128 0xb
 9751 00a2 0B       		.uleb128 0xb
 9752 00a3 49       		.uleb128 0x49
 9753 00a4 13       		.uleb128 0x13
 9754 00a5 00       		.byte	0
 9755 00a6 00       		.byte	0
 9756 00a7 0E       		.uleb128 0xe
 9757 00a8 26       		.uleb128 0x26
 9758 00a9 00       		.byte	0
 9759 00aa 49       		.uleb128 0x49
 9760 00ab 13       		.uleb128 0x13
 9761 00ac 00       		.byte	0
 9762 00ad 00       		.byte	0
 9763 00ae 0F       		.uleb128 0xf
 9764 00af 04       		.uleb128 0x4
 9765 00b0 01       		.byte	0x1
 9766 00b1 0B       		.uleb128 0xb
 9767 00b2 0B       		.uleb128 0xb
 9768 00b3 49       		.uleb128 0x49
 9769 00b4 13       		.uleb128 0x13
 9770 00b5 3A       		.uleb128 0x3a
 9771 00b6 0B       		.uleb128 0xb
 9772 00b7 3B       		.uleb128 0x3b
 9773 00b8 0B       		.uleb128 0xb
 9774 00b9 01       		.uleb128 0x1
 9775 00ba 13       		.uleb128 0x13
 9776 00bb 00       		.byte	0
 9777 00bc 00       		.byte	0
 9778 00bd 10       		.uleb128 0x10
 9779 00be 28       		.uleb128 0x28
 9780 00bf 00       		.byte	0
 9781 00c0 03       		.uleb128 0x3
 9782 00c1 0E       		.uleb128 0xe
 9783 00c2 1C       		.uleb128 0x1c
 9784 00c3 0B       		.uleb128 0xb
 9785 00c4 00       		.byte	0
 9786 00c5 00       		.byte	0
 9787 00c6 11       		.uleb128 0x11
 9788 00c7 17       		.uleb128 0x17
 9789 00c8 01       		.byte	0x1
 9790 00c9 0B       		.uleb128 0xb
ARM GAS  C:\Users\tmj32\AppData\Local\Temp\cc11CUDk.s 			page 201


 9791 00ca 0B       		.uleb128 0xb
 9792 00cb 3A       		.uleb128 0x3a
 9793 00cc 0B       		.uleb128 0xb
 9794 00cd 3B       		.uleb128 0x3b
 9795 00ce 0B       		.uleb128 0xb
 9796 00cf 01       		.uleb128 0x1
 9797 00d0 13       		.uleb128 0x13
 9798 00d1 00       		.byte	0
 9799 00d2 00       		.byte	0
 9800 00d3 12       		.uleb128 0x12
 9801 00d4 0D       		.uleb128 0xd
 9802 00d5 00       		.byte	0
 9803 00d6 03       		.uleb128 0x3
 9804 00d7 08       		.uleb128 0x8
 9805 00d8 3A       		.uleb128 0x3a
 9806 00d9 0B       		.uleb128 0xb
 9807 00da 3B       		.uleb128 0x3b
 9808 00db 0B       		.uleb128 0xb
 9809 00dc 49       		.uleb128 0x49
 9810 00dd 13       		.uleb128 0x13
 9811 00de 00       		.byte	0
 9812 00df 00       		.byte	0
 9813 00e0 13       		.uleb128 0x13
 9814 00e1 0D       		.uleb128 0xd
 9815 00e2 00       		.byte	0
 9816 00e3 03       		.uleb128 0x3
 9817 00e4 0E       		.uleb128 0xe
 9818 00e5 3A       		.uleb128 0x3a
 9819 00e6 0B       		.uleb128 0xb
 9820 00e7 3B       		.uleb128 0x3b
 9821 00e8 0B       		.uleb128 0xb
 9822 00e9 49       		.uleb128 0x49
 9823 00ea 13       		.uleb128 0x13
 9824 00eb 00       		.byte	0
 9825 00ec 00       		.byte	0
 9826 00ed 14       		.uleb128 0x14
 9827 00ee 16       		.uleb128 0x16
 9828 00ef 00       		.byte	0
 9829 00f0 03       		.uleb128 0x3
 9830 00f1 0E       		.uleb128 0xe
 9831 00f2 3A       		.uleb128 0x3a
 9832 00f3 0B       		.uleb128 0xb
 9833 00f4 3B       		.uleb128 0x3b
 9834 00f5 05       		.uleb128 0x5
 9835 00f6 49       		.uleb128 0x49
 9836 00f7 13       		.uleb128 0x13
 9837 00f8 00       		.byte	0
 9838 00f9 00       		.byte	0
 9839 00fa 15       		.uleb128 0x15
 9840 00fb 13       		.uleb128 0x13
 9841 00fc 01       		.byte	0x1
 9842 00fd 0B       		.uleb128 0xb
 9843 00fe 0B       		.uleb128 0xb
 9844 00ff 3A       		.uleb128 0x3a
 9845 0100 0B       		.uleb128 0xb
 9846 0101 3B       		.uleb128 0x3b
 9847 0102 05       		.uleb128 0x5
ARM GAS  C:\Users\tmj32\AppData\Local\Temp\cc11CUDk.s 			page 202


 9848 0103 01       		.uleb128 0x1
 9849 0104 13       		.uleb128 0x13
 9850 0105 00       		.byte	0
 9851 0106 00       		.byte	0
 9852 0107 16       		.uleb128 0x16
 9853 0108 0D       		.uleb128 0xd
 9854 0109 00       		.byte	0
 9855 010a 03       		.uleb128 0x3
 9856 010b 08       		.uleb128 0x8
 9857 010c 3A       		.uleb128 0x3a
 9858 010d 0B       		.uleb128 0xb
 9859 010e 3B       		.uleb128 0x3b
 9860 010f 05       		.uleb128 0x5
 9861 0110 49       		.uleb128 0x49
 9862 0111 13       		.uleb128 0x13
 9863 0112 38       		.uleb128 0x38
 9864 0113 0B       		.uleb128 0xb
 9865 0114 00       		.byte	0
 9866 0115 00       		.byte	0
 9867 0116 17       		.uleb128 0x17
 9868 0117 15       		.uleb128 0x15
 9869 0118 01       		.byte	0x1
 9870 0119 27       		.uleb128 0x27
 9871 011a 19       		.uleb128 0x19
 9872 011b 01       		.uleb128 0x1
 9873 011c 13       		.uleb128 0x13
 9874 011d 00       		.byte	0
 9875 011e 00       		.byte	0
 9876 011f 18       		.uleb128 0x18
 9877 0120 35       		.uleb128 0x35
 9878 0121 00       		.byte	0
 9879 0122 49       		.uleb128 0x49
 9880 0123 13       		.uleb128 0x13
 9881 0124 00       		.byte	0
 9882 0125 00       		.byte	0
 9883 0126 19       		.uleb128 0x19
 9884 0127 13       		.uleb128 0x13
 9885 0128 01       		.byte	0x1
 9886 0129 03       		.uleb128 0x3
 9887 012a 0E       		.uleb128 0xe
 9888 012b 0B       		.uleb128 0xb
 9889 012c 05       		.uleb128 0x5
 9890 012d 3A       		.uleb128 0x3a
 9891 012e 0B       		.uleb128 0xb
 9892 012f 3B       		.uleb128 0x3b
 9893 0130 0B       		.uleb128 0xb
 9894 0131 01       		.uleb128 0x1
 9895 0132 13       		.uleb128 0x13
 9896 0133 00       		.byte	0
 9897 0134 00       		.byte	0
 9898 0135 1A       		.uleb128 0x1a
 9899 0136 0D       		.uleb128 0xd
 9900 0137 00       		.byte	0
 9901 0138 03       		.uleb128 0x3
 9902 0139 0E       		.uleb128 0xe
 9903 013a 3A       		.uleb128 0x3a
 9904 013b 0B       		.uleb128 0xb
ARM GAS  C:\Users\tmj32\AppData\Local\Temp\cc11CUDk.s 			page 203


 9905 013c 3B       		.uleb128 0x3b
 9906 013d 0B       		.uleb128 0xb
 9907 013e 49       		.uleb128 0x49
 9908 013f 13       		.uleb128 0x13
 9909 0140 38       		.uleb128 0x38
 9910 0141 05       		.uleb128 0x5
 9911 0142 00       		.byte	0
 9912 0143 00       		.byte	0
 9913 0144 1B       		.uleb128 0x1b
 9914 0145 0D       		.uleb128 0xd
 9915 0146 00       		.byte	0
 9916 0147 03       		.uleb128 0x3
 9917 0148 0E       		.uleb128 0xe
 9918 0149 3A       		.uleb128 0x3a
 9919 014a 0B       		.uleb128 0xb
 9920 014b 3B       		.uleb128 0x3b
 9921 014c 0B       		.uleb128 0xb
 9922 014d 49       		.uleb128 0x49
 9923 014e 13       		.uleb128 0x13
 9924 014f 0B       		.uleb128 0xb
 9925 0150 0B       		.uleb128 0xb
 9926 0151 0D       		.uleb128 0xd
 9927 0152 0B       		.uleb128 0xb
 9928 0153 0C       		.uleb128 0xc
 9929 0154 0B       		.uleb128 0xb
 9930 0155 38       		.uleb128 0x38
 9931 0156 05       		.uleb128 0x5
 9932 0157 00       		.byte	0
 9933 0158 00       		.byte	0
 9934 0159 1C       		.uleb128 0x1c
 9935 015a 0D       		.uleb128 0xd
 9936 015b 00       		.byte	0
 9937 015c 03       		.uleb128 0x3
 9938 015d 08       		.uleb128 0x8
 9939 015e 3A       		.uleb128 0x3a
 9940 015f 0B       		.uleb128 0xb
 9941 0160 3B       		.uleb128 0x3b
 9942 0161 0B       		.uleb128 0xb
 9943 0162 49       		.uleb128 0x49
 9944 0163 13       		.uleb128 0x13
 9945 0164 0B       		.uleb128 0xb
 9946 0165 0B       		.uleb128 0xb
 9947 0166 0D       		.uleb128 0xd
 9948 0167 0B       		.uleb128 0xb
 9949 0168 0C       		.uleb128 0xc
 9950 0169 0B       		.uleb128 0xb
 9951 016a 38       		.uleb128 0x38
 9952 016b 0B       		.uleb128 0xb
 9953 016c 00       		.byte	0
 9954 016d 00       		.byte	0
 9955 016e 1D       		.uleb128 0x1d
 9956 016f 01       		.uleb128 0x1
 9957 0170 01       		.byte	0x1
 9958 0171 49       		.uleb128 0x49
 9959 0172 13       		.uleb128 0x13
 9960 0173 01       		.uleb128 0x1
 9961 0174 13       		.uleb128 0x13
ARM GAS  C:\Users\tmj32\AppData\Local\Temp\cc11CUDk.s 			page 204


 9962 0175 00       		.byte	0
 9963 0176 00       		.byte	0
 9964 0177 1E       		.uleb128 0x1e
 9965 0178 21       		.uleb128 0x21
 9966 0179 00       		.byte	0
 9967 017a 49       		.uleb128 0x49
 9968 017b 13       		.uleb128 0x13
 9969 017c 2F       		.uleb128 0x2f
 9970 017d 0B       		.uleb128 0xb
 9971 017e 00       		.byte	0
 9972 017f 00       		.byte	0
 9973 0180 1F       		.uleb128 0x1f
 9974 0181 13       		.uleb128 0x13
 9975 0182 00       		.byte	0
 9976 0183 03       		.uleb128 0x3
 9977 0184 0E       		.uleb128 0xe
 9978 0185 3C       		.uleb128 0x3c
 9979 0186 19       		.uleb128 0x19
 9980 0187 00       		.byte	0
 9981 0188 00       		.byte	0
 9982 0189 20       		.uleb128 0x20
 9983 018a 0D       		.uleb128 0xd
 9984 018b 00       		.byte	0
 9985 018c 03       		.uleb128 0x3
 9986 018d 0E       		.uleb128 0xe
 9987 018e 3A       		.uleb128 0x3a
 9988 018f 0B       		.uleb128 0xb
 9989 0190 3B       		.uleb128 0x3b
 9990 0191 05       		.uleb128 0x5
 9991 0192 49       		.uleb128 0x49
 9992 0193 13       		.uleb128 0x13
 9993 0194 38       		.uleb128 0x38
 9994 0195 0B       		.uleb128 0xb
 9995 0196 00       		.byte	0
 9996 0197 00       		.byte	0
 9997 0198 21       		.uleb128 0x21
 9998 0199 13       		.uleb128 0x13
 9999 019a 01       		.byte	0x1
 10000 019b 0B       		.uleb128 0xb
 10001 019c 05       		.uleb128 0x5
 10002 019d 3A       		.uleb128 0x3a
 10003 019e 0B       		.uleb128 0xb
 10004 019f 3B       		.uleb128 0x3b
 10005 01a0 0B       		.uleb128 0xb
 10006 01a1 01       		.uleb128 0x1
 10007 01a2 13       		.uleb128 0x13
 10008 01a3 00       		.byte	0
 10009 01a4 00       		.byte	0
 10010 01a5 22       		.uleb128 0x22
 10011 01a6 0D       		.uleb128 0xd
 10012 01a7 00       		.byte	0
 10013 01a8 03       		.uleb128 0x3
 10014 01a9 08       		.uleb128 0x8
 10015 01aa 3A       		.uleb128 0x3a
 10016 01ab 0B       		.uleb128 0xb
 10017 01ac 3B       		.uleb128 0x3b
 10018 01ad 0B       		.uleb128 0xb
ARM GAS  C:\Users\tmj32\AppData\Local\Temp\cc11CUDk.s 			page 205


 10019 01ae 49       		.uleb128 0x49
 10020 01af 13       		.uleb128 0x13
 10021 01b0 38       		.uleb128 0x38
 10022 01b1 05       		.uleb128 0x5
 10023 01b2 00       		.byte	0
 10024 01b3 00       		.byte	0
 10025 01b4 23       		.uleb128 0x23
 10026 01b5 0D       		.uleb128 0xd
 10027 01b6 00       		.byte	0
 10028 01b7 03       		.uleb128 0x3
 10029 01b8 0E       		.uleb128 0xe
 10030 01b9 3A       		.uleb128 0x3a
 10031 01ba 0B       		.uleb128 0xb
 10032 01bb 3B       		.uleb128 0x3b
 10033 01bc 05       		.uleb128 0x5
 10034 01bd 49       		.uleb128 0x49
 10035 01be 13       		.uleb128 0x13
 10036 01bf 38       		.uleb128 0x38
 10037 01c0 05       		.uleb128 0x5
 10038 01c1 00       		.byte	0
 10039 01c2 00       		.byte	0
 10040 01c3 24       		.uleb128 0x24
 10041 01c4 0D       		.uleb128 0xd
 10042 01c5 00       		.byte	0
 10043 01c6 03       		.uleb128 0x3
 10044 01c7 08       		.uleb128 0x8
 10045 01c8 3A       		.uleb128 0x3a
 10046 01c9 0B       		.uleb128 0xb
 10047 01ca 3B       		.uleb128 0x3b
 10048 01cb 05       		.uleb128 0x5
 10049 01cc 49       		.uleb128 0x49
 10050 01cd 13       		.uleb128 0x13
 10051 01ce 38       		.uleb128 0x38
 10052 01cf 05       		.uleb128 0x5
 10053 01d0 00       		.byte	0
 10054 01d1 00       		.byte	0
 10055 01d2 25       		.uleb128 0x25
 10056 01d3 2E       		.uleb128 0x2e
 10057 01d4 01       		.byte	0x1
 10058 01d5 03       		.uleb128 0x3
 10059 01d6 0E       		.uleb128 0xe
 10060 01d7 3A       		.uleb128 0x3a
 10061 01d8 0B       		.uleb128 0xb
 10062 01d9 3B       		.uleb128 0x3b
 10063 01da 05       		.uleb128 0x5
 10064 01db 27       		.uleb128 0x27
 10065 01dc 19       		.uleb128 0x19
 10066 01dd 49       		.uleb128 0x49
 10067 01de 13       		.uleb128 0x13
 10068 01df 11       		.uleb128 0x11
 10069 01e0 01       		.uleb128 0x1
 10070 01e1 12       		.uleb128 0x12
 10071 01e2 06       		.uleb128 0x6
 10072 01e3 40       		.uleb128 0x40
 10073 01e4 18       		.uleb128 0x18
 10074 01e5 9742     		.uleb128 0x2117
 10075 01e7 19       		.uleb128 0x19
ARM GAS  C:\Users\tmj32\AppData\Local\Temp\cc11CUDk.s 			page 206


 10076 01e8 01       		.uleb128 0x1
 10077 01e9 13       		.uleb128 0x13
 10078 01ea 00       		.byte	0
 10079 01eb 00       		.byte	0
 10080 01ec 26       		.uleb128 0x26
 10081 01ed 05       		.uleb128 0x5
 10082 01ee 00       		.byte	0
 10083 01ef 03       		.uleb128 0x3
 10084 01f0 0E       		.uleb128 0xe
 10085 01f1 3A       		.uleb128 0x3a
 10086 01f2 0B       		.uleb128 0xb
 10087 01f3 3B       		.uleb128 0x3b
 10088 01f4 05       		.uleb128 0x5
 10089 01f5 49       		.uleb128 0x49
 10090 01f6 13       		.uleb128 0x13
 10091 01f7 02       		.uleb128 0x2
 10092 01f8 18       		.uleb128 0x18
 10093 01f9 00       		.byte	0
 10094 01fa 00       		.byte	0
 10095 01fb 27       		.uleb128 0x27
 10096 01fc 2E       		.uleb128 0x2e
 10097 01fd 01       		.byte	0x1
 10098 01fe 03       		.uleb128 0x3
 10099 01ff 0E       		.uleb128 0xe
 10100 0200 3A       		.uleb128 0x3a
 10101 0201 0B       		.uleb128 0xb
 10102 0202 3B       		.uleb128 0x3b
 10103 0203 0B       		.uleb128 0xb
 10104 0204 27       		.uleb128 0x27
 10105 0205 19       		.uleb128 0x19
 10106 0206 11       		.uleb128 0x11
 10107 0207 01       		.uleb128 0x1
 10108 0208 12       		.uleb128 0x12
 10109 0209 06       		.uleb128 0x6
 10110 020a 40       		.uleb128 0x40
 10111 020b 18       		.uleb128 0x18
 10112 020c 9642     		.uleb128 0x2116
 10113 020e 19       		.uleb128 0x19
 10114 020f 01       		.uleb128 0x1
 10115 0210 13       		.uleb128 0x13
 10116 0211 00       		.byte	0
 10117 0212 00       		.byte	0
 10118 0213 28       		.uleb128 0x28
 10119 0214 05       		.uleb128 0x5
 10120 0215 00       		.byte	0
 10121 0216 03       		.uleb128 0x3
 10122 0217 0E       		.uleb128 0xe
 10123 0218 3A       		.uleb128 0x3a
 10124 0219 0B       		.uleb128 0xb
 10125 021a 3B       		.uleb128 0x3b
 10126 021b 0B       		.uleb128 0xb
 10127 021c 49       		.uleb128 0x49
 10128 021d 13       		.uleb128 0x13
 10129 021e 02       		.uleb128 0x2
 10130 021f 18       		.uleb128 0x18
 10131 0220 00       		.byte	0
 10132 0221 00       		.byte	0
ARM GAS  C:\Users\tmj32\AppData\Local\Temp\cc11CUDk.s 			page 207


 10133 0222 29       		.uleb128 0x29
 10134 0223 05       		.uleb128 0x5
 10135 0224 00       		.byte	0
 10136 0225 03       		.uleb128 0x3
 10137 0226 08       		.uleb128 0x8
 10138 0227 3A       		.uleb128 0x3a
 10139 0228 0B       		.uleb128 0xb
 10140 0229 3B       		.uleb128 0x3b
 10141 022a 0B       		.uleb128 0xb
 10142 022b 49       		.uleb128 0x49
 10143 022c 13       		.uleb128 0x13
 10144 022d 02       		.uleb128 0x2
 10145 022e 18       		.uleb128 0x18
 10146 022f 00       		.byte	0
 10147 0230 00       		.byte	0
 10148 0231 2A       		.uleb128 0x2a
 10149 0232 2E       		.uleb128 0x2e
 10150 0233 01       		.byte	0x1
 10151 0234 03       		.uleb128 0x3
 10152 0235 0E       		.uleb128 0xe
 10153 0236 3A       		.uleb128 0x3a
 10154 0237 0B       		.uleb128 0xb
 10155 0238 3B       		.uleb128 0x3b
 10156 0239 0B       		.uleb128 0xb
 10157 023a 27       		.uleb128 0x27
 10158 023b 19       		.uleb128 0x19
 10159 023c 49       		.uleb128 0x49
 10160 023d 13       		.uleb128 0x13
 10161 023e 11       		.uleb128 0x11
 10162 023f 01       		.uleb128 0x1
 10163 0240 12       		.uleb128 0x12
 10164 0241 06       		.uleb128 0x6
 10165 0242 40       		.uleb128 0x40
 10166 0243 18       		.uleb128 0x18
 10167 0244 9742     		.uleb128 0x2117
 10168 0246 19       		.uleb128 0x19
 10169 0247 01       		.uleb128 0x1
 10170 0248 13       		.uleb128 0x13
 10171 0249 00       		.byte	0
 10172 024a 00       		.byte	0
 10173 024b 2B       		.uleb128 0x2b
 10174 024c 2E       		.uleb128 0x2e
 10175 024d 01       		.byte	0x1
 10176 024e 3F       		.uleb128 0x3f
 10177 024f 19       		.uleb128 0x19
 10178 0250 03       		.uleb128 0x3
 10179 0251 0E       		.uleb128 0xe
 10180 0252 3A       		.uleb128 0x3a
 10181 0253 0B       		.uleb128 0xb
 10182 0254 3B       		.uleb128 0x3b
 10183 0255 0B       		.uleb128 0xb
 10184 0256 27       		.uleb128 0x27
 10185 0257 19       		.uleb128 0x19
 10186 0258 49       		.uleb128 0x49
 10187 0259 13       		.uleb128 0x13
 10188 025a 11       		.uleb128 0x11
 10189 025b 01       		.uleb128 0x1
ARM GAS  C:\Users\tmj32\AppData\Local\Temp\cc11CUDk.s 			page 208


 10190 025c 12       		.uleb128 0x12
 10191 025d 06       		.uleb128 0x6
 10192 025e 40       		.uleb128 0x40
 10193 025f 18       		.uleb128 0x18
 10194 0260 9642     		.uleb128 0x2116
 10195 0262 19       		.uleb128 0x19
 10196 0263 01       		.uleb128 0x1
 10197 0264 13       		.uleb128 0x13
 10198 0265 00       		.byte	0
 10199 0266 00       		.byte	0
 10200 0267 2C       		.uleb128 0x2c
 10201 0268 34       		.uleb128 0x34
 10202 0269 00       		.byte	0
 10203 026a 03       		.uleb128 0x3
 10204 026b 0E       		.uleb128 0xe
 10205 026c 3A       		.uleb128 0x3a
 10206 026d 0B       		.uleb128 0xb
 10207 026e 3B       		.uleb128 0x3b
 10208 026f 0B       		.uleb128 0xb
 10209 0270 49       		.uleb128 0x49
 10210 0271 13       		.uleb128 0x13
 10211 0272 02       		.uleb128 0x2
 10212 0273 18       		.uleb128 0x18
 10213 0274 00       		.byte	0
 10214 0275 00       		.byte	0
 10215 0276 2D       		.uleb128 0x2d
 10216 0277 34       		.uleb128 0x34
 10217 0278 00       		.byte	0
 10218 0279 03       		.uleb128 0x3
 10219 027a 08       		.uleb128 0x8
 10220 027b 3A       		.uleb128 0x3a
 10221 027c 0B       		.uleb128 0xb
 10222 027d 3B       		.uleb128 0x3b
 10223 027e 0B       		.uleb128 0xb
 10224 027f 49       		.uleb128 0x49
 10225 0280 13       		.uleb128 0x13
 10226 0281 02       		.uleb128 0x2
 10227 0282 18       		.uleb128 0x18
 10228 0283 00       		.byte	0
 10229 0284 00       		.byte	0
 10230 0285 2E       		.uleb128 0x2e
 10231 0286 0B       		.uleb128 0xb
 10232 0287 01       		.byte	0x1
 10233 0288 11       		.uleb128 0x11
 10234 0289 01       		.uleb128 0x1
 10235 028a 12       		.uleb128 0x12
 10236 028b 06       		.uleb128 0x6
 10237 028c 01       		.uleb128 0x1
 10238 028d 13       		.uleb128 0x13
 10239 028e 00       		.byte	0
 10240 028f 00       		.byte	0
 10241 0290 2F       		.uleb128 0x2f
 10242 0291 0B       		.uleb128 0xb
 10243 0292 01       		.byte	0x1
 10244 0293 11       		.uleb128 0x11
 10245 0294 01       		.uleb128 0x1
 10246 0295 12       		.uleb128 0x12
ARM GAS  C:\Users\tmj32\AppData\Local\Temp\cc11CUDk.s 			page 209


 10247 0296 06       		.uleb128 0x6
 10248 0297 00       		.byte	0
 10249 0298 00       		.byte	0
 10250 0299 30       		.uleb128 0x30
 10251 029a 2E       		.uleb128 0x2e
 10252 029b 01       		.byte	0x1
 10253 029c 3F       		.uleb128 0x3f
 10254 029d 19       		.uleb128 0x19
 10255 029e 03       		.uleb128 0x3
 10256 029f 0E       		.uleb128 0xe
 10257 02a0 3A       		.uleb128 0x3a
 10258 02a1 0B       		.uleb128 0xb
 10259 02a2 3B       		.uleb128 0x3b
 10260 02a3 0B       		.uleb128 0xb
 10261 02a4 27       		.uleb128 0x27
 10262 02a5 19       		.uleb128 0x19
 10263 02a6 11       		.uleb128 0x11
 10264 02a7 01       		.uleb128 0x1
 10265 02a8 12       		.uleb128 0x12
 10266 02a9 06       		.uleb128 0x6
 10267 02aa 40       		.uleb128 0x40
 10268 02ab 18       		.uleb128 0x18
 10269 02ac 9642     		.uleb128 0x2116
 10270 02ae 19       		.uleb128 0x19
 10271 02af 01       		.uleb128 0x1
 10272 02b0 13       		.uleb128 0x13
 10273 02b1 00       		.byte	0
 10274 02b2 00       		.byte	0
 10275 02b3 31       		.uleb128 0x31
 10276 02b4 2E       		.uleb128 0x2e
 10277 02b5 01       		.byte	0x1
 10278 02b6 3F       		.uleb128 0x3f
 10279 02b7 19       		.uleb128 0x19
 10280 02b8 03       		.uleb128 0x3
 10281 02b9 0E       		.uleb128 0xe
 10282 02ba 3A       		.uleb128 0x3a
 10283 02bb 0B       		.uleb128 0xb
 10284 02bc 3B       		.uleb128 0x3b
 10285 02bd 05       		.uleb128 0x5
 10286 02be 27       		.uleb128 0x27
 10287 02bf 19       		.uleb128 0x19
 10288 02c0 49       		.uleb128 0x49
 10289 02c1 13       		.uleb128 0x13
 10290 02c2 11       		.uleb128 0x11
 10291 02c3 01       		.uleb128 0x1
 10292 02c4 12       		.uleb128 0x12
 10293 02c5 06       		.uleb128 0x6
 10294 02c6 40       		.uleb128 0x40
 10295 02c7 18       		.uleb128 0x18
 10296 02c8 9642     		.uleb128 0x2116
 10297 02ca 19       		.uleb128 0x19
 10298 02cb 01       		.uleb128 0x1
 10299 02cc 13       		.uleb128 0x13
 10300 02cd 00       		.byte	0
 10301 02ce 00       		.byte	0
 10302 02cf 32       		.uleb128 0x32
 10303 02d0 34       		.uleb128 0x34
ARM GAS  C:\Users\tmj32\AppData\Local\Temp\cc11CUDk.s 			page 210


 10304 02d1 00       		.byte	0
 10305 02d2 03       		.uleb128 0x3
 10306 02d3 08       		.uleb128 0x8
 10307 02d4 3A       		.uleb128 0x3a
 10308 02d5 0B       		.uleb128 0xb
 10309 02d6 3B       		.uleb128 0x3b
 10310 02d7 05       		.uleb128 0x5
 10311 02d8 49       		.uleb128 0x49
 10312 02d9 13       		.uleb128 0x13
 10313 02da 02       		.uleb128 0x2
 10314 02db 18       		.uleb128 0x18
 10315 02dc 00       		.byte	0
 10316 02dd 00       		.byte	0
 10317 02de 33       		.uleb128 0x33
 10318 02df 2E       		.uleb128 0x2e
 10319 02e0 01       		.byte	0x1
 10320 02e1 3F       		.uleb128 0x3f
 10321 02e2 19       		.uleb128 0x19
 10322 02e3 03       		.uleb128 0x3
 10323 02e4 0E       		.uleb128 0xe
 10324 02e5 3A       		.uleb128 0x3a
 10325 02e6 0B       		.uleb128 0xb
 10326 02e7 3B       		.uleb128 0x3b
 10327 02e8 05       		.uleb128 0x5
 10328 02e9 27       		.uleb128 0x27
 10329 02ea 19       		.uleb128 0x19
 10330 02eb 11       		.uleb128 0x11
 10331 02ec 01       		.uleb128 0x1
 10332 02ed 12       		.uleb128 0x12
 10333 02ee 06       		.uleb128 0x6
 10334 02ef 40       		.uleb128 0x40
 10335 02f0 18       		.uleb128 0x18
 10336 02f1 9642     		.uleb128 0x2116
 10337 02f3 19       		.uleb128 0x19
 10338 02f4 01       		.uleb128 0x1
 10339 02f5 13       		.uleb128 0x13
 10340 02f6 00       		.byte	0
 10341 02f7 00       		.byte	0
 10342 02f8 34       		.uleb128 0x34
 10343 02f9 05       		.uleb128 0x5
 10344 02fa 00       		.byte	0
 10345 02fb 03       		.uleb128 0x3
 10346 02fc 08       		.uleb128 0x8
 10347 02fd 3A       		.uleb128 0x3a
 10348 02fe 0B       		.uleb128 0xb
 10349 02ff 3B       		.uleb128 0x3b
 10350 0300 05       		.uleb128 0x5
 10351 0301 49       		.uleb128 0x49
 10352 0302 13       		.uleb128 0x13
 10353 0303 02       		.uleb128 0x2
 10354 0304 18       		.uleb128 0x18
 10355 0305 00       		.byte	0
 10356 0306 00       		.byte	0
 10357 0307 35       		.uleb128 0x35
 10358 0308 2E       		.uleb128 0x2e
 10359 0309 01       		.byte	0x1
 10360 030a 03       		.uleb128 0x3
ARM GAS  C:\Users\tmj32\AppData\Local\Temp\cc11CUDk.s 			page 211


 10361 030b 0E       		.uleb128 0xe
 10362 030c 3A       		.uleb128 0x3a
 10363 030d 0B       		.uleb128 0xb
 10364 030e 3B       		.uleb128 0x3b
 10365 030f 05       		.uleb128 0x5
 10366 0310 27       		.uleb128 0x27
 10367 0311 19       		.uleb128 0x19
 10368 0312 49       		.uleb128 0x49
 10369 0313 13       		.uleb128 0x13
 10370 0314 11       		.uleb128 0x11
 10371 0315 01       		.uleb128 0x1
 10372 0316 12       		.uleb128 0x12
 10373 0317 06       		.uleb128 0x6
 10374 0318 40       		.uleb128 0x40
 10375 0319 18       		.uleb128 0x18
 10376 031a 9642     		.uleb128 0x2116
 10377 031c 19       		.uleb128 0x19
 10378 031d 01       		.uleb128 0x1
 10379 031e 13       		.uleb128 0x13
 10380 031f 00       		.byte	0
 10381 0320 00       		.byte	0
 10382 0321 36       		.uleb128 0x36
 10383 0322 34       		.uleb128 0x34
 10384 0323 00       		.byte	0
 10385 0324 03       		.uleb128 0x3
 10386 0325 0E       		.uleb128 0xe
 10387 0326 3A       		.uleb128 0x3a
 10388 0327 0B       		.uleb128 0xb
 10389 0328 3B       		.uleb128 0x3b
 10390 0329 05       		.uleb128 0x5
 10391 032a 49       		.uleb128 0x49
 10392 032b 13       		.uleb128 0x13
 10393 032c 02       		.uleb128 0x2
 10394 032d 18       		.uleb128 0x18
 10395 032e 00       		.byte	0
 10396 032f 00       		.byte	0
 10397 0330 37       		.uleb128 0x37
 10398 0331 2E       		.uleb128 0x2e
 10399 0332 01       		.byte	0x1
 10400 0333 03       		.uleb128 0x3
 10401 0334 0E       		.uleb128 0xe
 10402 0335 3A       		.uleb128 0x3a
 10403 0336 0B       		.uleb128 0xb
 10404 0337 3B       		.uleb128 0x3b
 10405 0338 05       		.uleb128 0x5
 10406 0339 27       		.uleb128 0x27
 10407 033a 19       		.uleb128 0x19
 10408 033b 11       		.uleb128 0x11
 10409 033c 01       		.uleb128 0x1
 10410 033d 12       		.uleb128 0x12
 10411 033e 06       		.uleb128 0x6
 10412 033f 40       		.uleb128 0x40
 10413 0340 18       		.uleb128 0x18
 10414 0341 9642     		.uleb128 0x2116
 10415 0343 19       		.uleb128 0x19
 10416 0344 01       		.uleb128 0x1
 10417 0345 13       		.uleb128 0x13
ARM GAS  C:\Users\tmj32\AppData\Local\Temp\cc11CUDk.s 			page 212


 10418 0346 00       		.byte	0
 10419 0347 00       		.byte	0
 10420 0348 38       		.uleb128 0x38
 10421 0349 0B       		.uleb128 0xb
 10422 034a 01       		.byte	0x1
 10423 034b 55       		.uleb128 0x55
 10424 034c 17       		.uleb128 0x17
 10425 034d 01       		.uleb128 0x1
 10426 034e 13       		.uleb128 0x13
 10427 034f 00       		.byte	0
 10428 0350 00       		.byte	0
 10429 0351 39       		.uleb128 0x39
 10430 0352 34       		.uleb128 0x34
 10431 0353 00       		.byte	0
 10432 0354 03       		.uleb128 0x3
 10433 0355 0E       		.uleb128 0xe
 10434 0356 3A       		.uleb128 0x3a
 10435 0357 0B       		.uleb128 0xb
 10436 0358 3B       		.uleb128 0x3b
 10437 0359 05       		.uleb128 0x5
 10438 035a 49       		.uleb128 0x49
 10439 035b 13       		.uleb128 0x13
 10440 035c 3F       		.uleb128 0x3f
 10441 035d 19       		.uleb128 0x19
 10442 035e 3C       		.uleb128 0x3c
 10443 035f 19       		.uleb128 0x19
 10444 0360 00       		.byte	0
 10445 0361 00       		.byte	0
 10446 0362 00       		.byte	0
 10447              		.section	.debug_aranges,"",%progbits
 10448 0000 44010000 		.4byte	0x144
 10449 0004 0200     		.2byte	0x2
 10450 0006 00000000 		.4byte	.Ldebug_info0
 10451 000a 04       		.byte	0x4
 10452 000b 00       		.byte	0
 10453 000c 0000     		.2byte	0
 10454 000e 0000     		.2byte	0
 10455 0010 00000000 		.4byte	.LFB4
 10456 0014 16000000 		.4byte	.LFE4-.LFB4
 10457 0018 00000000 		.4byte	.LFB10
 10458 001c 1C000000 		.4byte	.LFE10-.LFB10
 10459 0020 00000000 		.4byte	.LFB11
 10460 0024 2E000000 		.4byte	.LFE11-.LFB11
 10461 0028 00000000 		.4byte	.LFB12
 10462 002c 2E000000 		.4byte	.LFE12-.LFB12
 10463 0030 00000000 		.4byte	.LFB31
 10464 0034 A4010000 		.4byte	.LFE31-.LFB31
 10465 0038 00000000 		.4byte	.LFB32
 10466 003c 54000000 		.4byte	.LFE32-.LFB32
 10467 0040 00000000 		.4byte	.LFB33
 10468 0044 42000000 		.4byte	.LFE33-.LFB33
 10469 0048 00000000 		.4byte	.LFB34
 10470 004c 2C000000 		.4byte	.LFE34-.LFB34
 10471 0050 00000000 		.4byte	.LFB35
 10472 0054 2C000000 		.4byte	.LFE35-.LFB35
 10473 0058 00000000 		.4byte	.LFB36
 10474 005c 2C000000 		.4byte	.LFE36-.LFB36
ARM GAS  C:\Users\tmj32\AppData\Local\Temp\cc11CUDk.s 			page 213


 10475 0060 00000000 		.4byte	.LFB37
 10476 0064 A8000000 		.4byte	.LFE37-.LFB37
 10477 0068 00000000 		.4byte	.LFB38
 10478 006c 36000000 		.4byte	.LFE38-.LFB38
 10479 0070 00000000 		.4byte	.LFB39
 10480 0074 3A000000 		.4byte	.LFE39-.LFB39
 10481 0078 00000000 		.4byte	.LFB40
 10482 007c 28000000 		.4byte	.LFE40-.LFB40
 10483 0080 00000000 		.4byte	.LFB41
 10484 0084 34000000 		.4byte	.LFE41-.LFB41
 10485 0088 00000000 		.4byte	.LFB42
 10486 008c 34000000 		.4byte	.LFE42-.LFB42
 10487 0090 00000000 		.4byte	.LFB43
 10488 0094 22000000 		.4byte	.LFE43-.LFB43
 10489 0098 00000000 		.4byte	.LFB44
 10490 009c 2C000000 		.4byte	.LFE44-.LFB44
 10491 00a0 00000000 		.4byte	.LFB45
 10492 00a4 3A000000 		.4byte	.LFE45-.LFB45
 10493 00a8 00000000 		.4byte	.LFB46
 10494 00ac 1C000000 		.4byte	.LFE46-.LFB46
 10495 00b0 00000000 		.4byte	.LFB47
 10496 00b4 1C000000 		.4byte	.LFE47-.LFB47
 10497 00b8 00000000 		.4byte	.LFB48
 10498 00bc 1C000000 		.4byte	.LFE48-.LFB48
 10499 00c0 00000000 		.4byte	.LFB49
 10500 00c4 2C000000 		.4byte	.LFE49-.LFB49
 10501 00c8 00000000 		.4byte	.LFB50
 10502 00cc 2C000000 		.4byte	.LFE50-.LFB50
 10503 00d0 00000000 		.4byte	.LFB51
 10504 00d4 2C000000 		.4byte	.LFE51-.LFB51
 10505 00d8 00000000 		.4byte	.LFB52
 10506 00dc 2C000000 		.4byte	.LFE52-.LFB52
 10507 00e0 00000000 		.4byte	.LFB53
 10508 00e4 7C000000 		.4byte	.LFE53-.LFB53
 10509 00e8 00000000 		.4byte	.LFB54
 10510 00ec 64060000 		.4byte	.LFE54-.LFB54
 10511 00f0 00000000 		.4byte	.LFB55
 10512 00f4 00020000 		.4byte	.LFE55-.LFB55
 10513 00f8 00000000 		.4byte	.LFB56
 10514 00fc 6A000000 		.4byte	.LFE56-.LFB56
 10515 0100 00000000 		.4byte	.LFB57
 10516 0104 28000000 		.4byte	.LFE57-.LFB57
 10517 0108 00000000 		.4byte	.LFB58
 10518 010c 2E010000 		.4byte	.LFE58-.LFB58
 10519 0110 00000000 		.4byte	.LFB59
 10520 0114 14060000 		.4byte	.LFE59-.LFB59
 10521 0118 00000000 		.4byte	.LFB60
 10522 011c 58000000 		.4byte	.LFE60-.LFB60
 10523 0120 00000000 		.4byte	.LFB61
 10524 0124 B8010000 		.4byte	.LFE61-.LFB61
 10525 0128 00000000 		.4byte	.LFB62
 10526 012c 92000000 		.4byte	.LFE62-.LFB62
 10527 0130 00000000 		.4byte	.LFB63
 10528 0134 F0000000 		.4byte	.LFE63-.LFB63
 10529 0138 00000000 		.4byte	.LFB64
 10530 013c 74000000 		.4byte	.LFE64-.LFB64
 10531 0140 00000000 		.4byte	0
ARM GAS  C:\Users\tmj32\AppData\Local\Temp\cc11CUDk.s 			page 214


 10532 0144 00000000 		.4byte	0
 10533              		.section	.debug_ranges,"",%progbits
 10534              	.Ldebug_ranges0:
 10535 0000 5E010000 		.4byte	.LBB11
 10536 0004 D4020000 		.4byte	.LBE11
 10537 0008 FE050000 		.4byte	.LBB18
 10538 000c 00060000 		.4byte	.LBE18
 10539 0010 00000000 		.4byte	0
 10540 0014 00000000 		.4byte	0
 10541 0018 00000000 		.4byte	.LFB4
 10542 001c 16000000 		.4byte	.LFE4
 10543 0020 00000000 		.4byte	.LFB10
 10544 0024 1C000000 		.4byte	.LFE10
 10545 0028 00000000 		.4byte	.LFB11
 10546 002c 2E000000 		.4byte	.LFE11
 10547 0030 00000000 		.4byte	.LFB12
 10548 0034 2E000000 		.4byte	.LFE12
 10549 0038 00000000 		.4byte	.LFB31
 10550 003c A4010000 		.4byte	.LFE31
 10551 0040 00000000 		.4byte	.LFB32
 10552 0044 54000000 		.4byte	.LFE32
 10553 0048 00000000 		.4byte	.LFB33
 10554 004c 42000000 		.4byte	.LFE33
 10555 0050 00000000 		.4byte	.LFB34
 10556 0054 2C000000 		.4byte	.LFE34
 10557 0058 00000000 		.4byte	.LFB35
 10558 005c 2C000000 		.4byte	.LFE35
 10559 0060 00000000 		.4byte	.LFB36
 10560 0064 2C000000 		.4byte	.LFE36
 10561 0068 00000000 		.4byte	.LFB37
 10562 006c A8000000 		.4byte	.LFE37
 10563 0070 00000000 		.4byte	.LFB38
 10564 0074 36000000 		.4byte	.LFE38
 10565 0078 00000000 		.4byte	.LFB39
 10566 007c 3A000000 		.4byte	.LFE39
 10567 0080 00000000 		.4byte	.LFB40
 10568 0084 28000000 		.4byte	.LFE40
 10569 0088 00000000 		.4byte	.LFB41
 10570 008c 34000000 		.4byte	.LFE41
 10571 0090 00000000 		.4byte	.LFB42
 10572 0094 34000000 		.4byte	.LFE42
 10573 0098 00000000 		.4byte	.LFB43
 10574 009c 22000000 		.4byte	.LFE43
 10575 00a0 00000000 		.4byte	.LFB44
 10576 00a4 2C000000 		.4byte	.LFE44
 10577 00a8 00000000 		.4byte	.LFB45
 10578 00ac 3A000000 		.4byte	.LFE45
 10579 00b0 00000000 		.4byte	.LFB46
 10580 00b4 1C000000 		.4byte	.LFE46
 10581 00b8 00000000 		.4byte	.LFB47
 10582 00bc 1C000000 		.4byte	.LFE47
 10583 00c0 00000000 		.4byte	.LFB48
 10584 00c4 1C000000 		.4byte	.LFE48
 10585 00c8 00000000 		.4byte	.LFB49
 10586 00cc 2C000000 		.4byte	.LFE49
 10587 00d0 00000000 		.4byte	.LFB50
 10588 00d4 2C000000 		.4byte	.LFE50
ARM GAS  C:\Users\tmj32\AppData\Local\Temp\cc11CUDk.s 			page 215


 10589 00d8 00000000 		.4byte	.LFB51
 10590 00dc 2C000000 		.4byte	.LFE51
 10591 00e0 00000000 		.4byte	.LFB52
 10592 00e4 2C000000 		.4byte	.LFE52
 10593 00e8 00000000 		.4byte	.LFB53
 10594 00ec 7C000000 		.4byte	.LFE53
 10595 00f0 00000000 		.4byte	.LFB54
 10596 00f4 64060000 		.4byte	.LFE54
 10597 00f8 00000000 		.4byte	.LFB55
 10598 00fc 00020000 		.4byte	.LFE55
 10599 0100 00000000 		.4byte	.LFB56
 10600 0104 6A000000 		.4byte	.LFE56
 10601 0108 00000000 		.4byte	.LFB57
 10602 010c 28000000 		.4byte	.LFE57
 10603 0110 00000000 		.4byte	.LFB58
 10604 0114 2E010000 		.4byte	.LFE58
 10605 0118 00000000 		.4byte	.LFB59
 10606 011c 14060000 		.4byte	.LFE59
 10607 0120 00000000 		.4byte	.LFB60
 10608 0124 58000000 		.4byte	.LFE60
 10609 0128 00000000 		.4byte	.LFB61
 10610 012c B8010000 		.4byte	.LFE61
 10611 0130 00000000 		.4byte	.LFB62
 10612 0134 92000000 		.4byte	.LFE62
 10613 0138 00000000 		.4byte	.LFB63
 10614 013c F0000000 		.4byte	.LFE63
 10615 0140 00000000 		.4byte	.LFB64
 10616 0144 74000000 		.4byte	.LFE64
 10617 0148 00000000 		.4byte	0
 10618 014c 00000000 		.4byte	0
 10619              		.section	.debug_line,"",%progbits
 10620              	.Ldebug_line0:
 10621 0000 0F0B0000 		.section	.debug_str,"MS",%progbits,1
 10621      02002004 
 10621      00000201 
 10621      FB0E0D00 
 10621      01010101 
 10622              	.LASF15:
 10623 0000 696E7438 		.ascii	"int8_t\000"
 10623      5F7400
 10624              	.LASF124:
 10625 0007 636F6C6F 		.ascii	"color_chroma_key\000"
 10625      725F6368 
 10625      726F6D61 
 10625      5F6B6579 
 10625      00
 10626              	.LASF92:
 10627 0018 6C765F6C 		.ascii	"lv_ll_node_t\000"
 10627      6C5F6E6F 
 10627      64655F74 
 10627      00
 10628              	.LASF23:
 10629 0025 6164765F 		.ascii	"adv_w\000"
 10629      7700
 10630              	.LASF313:
 10631 002b 68656164 		.ascii	"header_pr\000"
 10631      65725F70 
ARM GAS  C:\Users\tmj32\AppData\Local\Temp\cc11CUDk.s 			page 216


 10631      7200
 10632              	.LASF56:
 10633 0035 73697A65 		.ascii	"sizetype\000"
 10633      74797065 
 10633      00
 10634              	.LASF292:
 10635 003e 4C565F4B 		.ascii	"LV_KEY_RIGHT\000"
 10635      45595F52 
 10635      49474854 
 10635      00
 10636              	.LASF52:
 10637 004b 6C765F63 		.ascii	"lv_color32_t\000"
 10637      6F6C6F72 
 10637      33325F74 
 10637      00
 10638              	.LASF321:
 10639 0058 63656C6C 		.ascii	"cell\000"
 10639      00
 10640              	.LASF95:
 10641 005d 7461696C 		.ascii	"tail\000"
 10641      00
 10642              	.LASF266:
 10643 0062 4C565F50 		.ascii	"LV_PROTECT_POS\000"
 10643      524F5445 
 10643      43545F50 
 10643      4F5300
 10644              	.LASF235:
 10645 0071 4C565F53 		.ascii	"LV_SIGNAL_STYLE_CHG\000"
 10645      49474E41 
 10645      4C5F5354 
 10645      594C455F 
 10645      43484700 
 10646              	.LASF130:
 10647 0085 6163745F 		.ascii	"act_scr\000"
 10647      73637200 
 10648              	.LASF397:
 10649 008d 7374796C 		.ascii	"style_cir\000"
 10649      655F6369 
 10649      7200
 10650              	.LASF54:
 10651 0097 6C765F6F 		.ascii	"lv_opa_t\000"
 10651      70615F74 
 10651      00
 10652              	.LASF19:
 10653 00a0 696E7433 		.ascii	"int32_t\000"
 10653      325F7400 
 10654              	.LASF80:
 10655 00a8 696E7465 		.ascii	"intense\000"
 10655      6E736500 
 10656              	.LASF224:
 10657 00b0 4C565F45 		.ascii	"LV_EVENT_INSERT\000"
 10657      56454E54 
 10657      5F494E53 
 10657      45525400 
 10658              	.LASF58:
 10659 00c0 6C765F70 		.ascii	"lv_point_t\000"
 10659      6F696E74 
ARM GAS  C:\Users\tmj32\AppData\Local\Temp\cc11CUDk.s 			page 217


 10659      5F7400
 10660              	.LASF328:
 10661 00cb 6C6D6574 		.ascii	"lmeter\000"
 10661      657200
 10662              	.LASF402:
 10663 00d2 6C765F63 		.ascii	"lv_cpicker_signal\000"
 10663      7069636B 
 10663      65725F73 
 10663      69676E61 
 10663      6C00
 10664              	.LASF243:
 10665 00e4 4C565F53 		.ascii	"LV_SIGNAL_LONG_PRESS\000"
 10665      49474E41 
 10665      4C5F4C4F 
 10665      4E475F50 
 10665      52455353 
 10666              	.LASF284:
 10667 00f9 636F6C6F 		.ascii	"color_mode_fixed\000"
 10667      725F6D6F 
 10667      64655F66 
 10667      69786564 
 10667      00
 10668              	.LASF72:
 10669 010a 72616469 		.ascii	"radius\000"
 10669      757300
 10670              	.LASF260:
 10671 0111 6C765F72 		.ascii	"lv_reailgn_t\000"
 10671      6561696C 
 10671      676E5F74 
 10671      00
 10672              	.LASF31:
 10673 011e 6C696E65 		.ascii	"line_height\000"
 10673      5F686569 
 10673      67687400 
 10674              	.LASF398:
 10675 012a 696E6469 		.ascii	"indic_area\000"
 10675      635F6172 
 10675      656100
 10676              	.LASF145:
 10677 0135 636C6963 		.ascii	"click\000"
 10677      6B00
 10678              	.LASF253:
 10679 013b 6C765F61 		.ascii	"lv_align_t\000"
 10679      6C69676E 
 10679      5F7400
 10680              	.LASF415:
 10681 0146 616E676C 		.ascii	"angle_to_mode_color\000"
 10681      655F746F 
 10681      5F6D6F64 
 10681      655F636F 
 10681      6C6F7200 
 10682              	.LASF350:
 10683 015a 6E65775F 		.ascii	"new_cpicker\000"
 10683      63706963 
 10683      6B657200 
 10684              	.LASF245:
 10685 0166 4C565F53 		.ascii	"LV_SIGNAL_DRAG_BEGIN\000"
ARM GAS  C:\Users\tmj32\AppData\Local\Temp\cc11CUDk.s 			page 218


 10685      49474E41 
 10685      4C5F4452 
 10685      41475F42 
 10685      4547494E 
 10686              	.LASF315:
 10687 017b 68696768 		.ascii	"highlighted_days\000"
 10687      6C696768 
 10687      7465645F 
 10687      64617973 
 10687      00
 10688              	.LASF378:
 10689 018c 6C765F63 		.ascii	"lv_cpicker_design\000"
 10689      7069636B 
 10689      65725F64 
 10689      65736967 
 10689      6E00
 10690              	.LASF403:
 10691 019e 7369676E 		.ascii	"sign\000"
 10691      00
 10692              	.LASF400:
 10693 01a3 6765745F 		.ascii	"get_indic_area\000"
 10693      696E6469 
 10693      635F6172 
 10693      656100
 10694              	.LASF229:
 10695 01b2 6C765F65 		.ascii	"lv_event_t\000"
 10695      76656E74 
 10695      5F7400
 10696              	.LASF359:
 10697 01bd 6C765F63 		.ascii	"lv_cpicker_set_value\000"
 10697      7069636B 
 10697      65725F73 
 10697      65745F76 
 10697      616C7565 
 10698              	.LASF164:
 10699 01d2 73746174 		.ascii	"state\000"
 10699      6500
 10700              	.LASF297:
 10701 01d8 4C565F4B 		.ascii	"LV_KEY_ENTER\000"
 10701      45595F45 
 10701      4E544552 
 10701      00
 10702              	.LASF89:
 10703 01e5 4C565F52 		.ascii	"LV_RES_INV\000"
 10703      45535F49 
 10703      4E5600
 10704              	.LASF273:
 10705 01f0 4C565F43 		.ascii	"LV_CPICKER_COLOR_MODE_HUE\000"
 10705      5049434B 
 10705      45525F43 
 10705      4F4C4F52 
 10705      5F4D4F44 
 10706              	.LASF239:
 10707 020a 4C565F53 		.ascii	"LV_SIGNAL_PRESSED\000"
 10707      49474E41 
 10707      4C5F5052 
 10707      45535345 
ARM GAS  C:\Users\tmj32\AppData\Local\Temp\cc11CUDk.s 			page 219


 10707      4400
 10708              	.LASF65:
 10709 021c 74797065 		.ascii	"type\000"
 10709      00
 10710              	.LASF213:
 10711 0221 4C565F45 		.ascii	"LV_EVENT_LONG_PRESSED\000"
 10711      56454E54 
 10711      5F4C4F4E 
 10711      475F5052 
 10711      45535345 
 10712              	.LASF414:
 10713 0237 646F7562 		.ascii	"double_click_reset\000"
 10713      6C655F63 
 10713      6C69636B 
 10713      5F726573 
 10713      657400
 10714              	.LASF345:
 10715 024a 6C765F63 		.ascii	"lv_color_to32\000"
 10715      6F6C6F72 
 10715      5F746F33 
 10715      3200
 10716              	.LASF306:
 10717 0258 6C696768 		.ascii	"light\000"
 10717      7400
 10718              	.LASF392:
 10719 025e 67726164 		.ascii	"grad_w\000"
 10719      5F7700
 10720              	.LASF166:
 10721 0265 5F6C765F 		.ascii	"_lv_indev_drv_t\000"
 10721      696E6465 
 10721      765F6472 
 10721      765F7400 
 10722              	.LASF324:
 10723 0275 636F6E74 		.ascii	"cont\000"
 10723      00
 10724              	.LASF304:
 10725 027a 7072696D 		.ascii	"prim\000"
 10725      00
 10726              	.LASF105:
 10727 027f 7072696F 		.ascii	"prio\000"
 10727      00
 10728              	.LASF129:
 10729 0284 7363725F 		.ascii	"scr_ll\000"
 10729      6C6C00
 10730              	.LASF161:
 10731 028b 706F696E 		.ascii	"point\000"
 10731      7400
 10732              	.LASF212:
 10733 0291 4C565F45 		.ascii	"LV_EVENT_SHORT_CLICKED\000"
 10733      56454E54 
 10733      5F53484F 
 10733      52545F43 
 10733      4C49434B 
 10734              	.LASF1:
 10735 02a8 5F5F7569 		.ascii	"__uint8_t\000"
 10735      6E74385F 
 10735      7400
ARM GAS  C:\Users\tmj32\AppData\Local\Temp\cc11CUDk.s 			page 220


 10736              	.LASF399:
 10737 02b2 696E7661 		.ascii	"invalidate_indic\000"
 10737      6C696461 
 10737      74655F69 
 10737      6E646963 
 10737      00
 10738              	.LASF377:
 10739 02c3 6C765F63 		.ascii	"lv_cpicker_get_preview\000"
 10739      7069636B 
 10739      65725F67 
 10739      65745F70 
 10739      72657669 
 10740              	.LASF50:
 10741 02da 616C7068 		.ascii	"alpha\000"
 10741      6100
 10742              	.LASF117:
 10743 02e0 7665725F 		.ascii	"ver_res\000"
 10743      72657300 
 10744              	.LASF409:
 10745 02e8 64696666 		.ascii	"diff\000"
 10745      00
 10746              	.LASF198:
 10747 02ed 5F6C765F 		.ascii	"_lv_indev_t\000"
 10747      696E6465 
 10747      765F7400 
 10748              	.LASF366:
 10749 02f9 6C765F63 		.ascii	"lv_cpicker_set_indic_colored\000"
 10749      7069636B 
 10749      65725F73 
 10749      65745F69 
 10749      6E646963 
 10750              	.LASF358:
 10751 0316 73617475 		.ascii	"saturation\000"
 10751      72617469 
 10751      6F6E00
 10752              	.LASF149:
 10753 0321 68696464 		.ascii	"hidden\000"
 10753      656E00
 10754              	.LASF401:
 10755 0328 7374796C 		.ascii	"style_indic\000"
 10755      655F696E 
 10755      64696300 
 10756              	.LASF136:
 10757 0334 6C617374 		.ascii	"last_activity_time\000"
 10757      5F616374 
 10757      69766974 
 10757      795F7469 
 10757      6D6500
 10758              	.LASF9:
 10759 0347 6C6F6E67 		.ascii	"long int\000"
 10759      20696E74 
 10759      00
 10760              	.LASF128:
 10761 0350 72656672 		.ascii	"refr_task\000"
 10761      5F746173 
 10761      6B00
 10762              	.LASF119:
ARM GAS  C:\Users\tmj32\AppData\Local\Temp\cc11CUDk.s 			page 221


 10763 035a 726F7461 		.ascii	"rotated\000"
 10763      74656400 
 10764              	.LASF185:
 10765 0362 6C617374 		.ascii	"last_state\000"
 10765      5F737461 
 10765      746500
 10766              	.LASF341:
 10767 036d 74696C65 		.ascii	"tileview\000"
 10767      76696577 
 10767      00
 10768              	.LASF355:
 10769 0376 6C765F63 		.ascii	"lv_cpicker_create\000"
 10769      7069636B 
 10769      65725F63 
 10769      72656174 
 10769      6500
 10770              	.LASF396:
 10771 0388 64726177 		.ascii	"draw_indic\000"
 10771      5F696E64 
 10771      696300
 10772              	.LASF272:
 10773 0393 6C765F63 		.ascii	"lv_cpicker_type_t\000"
 10773      7069636B 
 10773      65725F74 
 10773      7970655F 
 10773      7400
 10774              	.LASF295:
 10775 03a5 4C565F4B 		.ascii	"LV_KEY_DEL\000"
 10775      45595F44 
 10775      454C00
 10776              	.LASF349:
 10777 03b0 636F7079 		.ascii	"copy\000"
 10777      00
 10778              	.LASF347:
 10779 03b5 61726561 		.ascii	"area_p\000"
 10779      5F7000
 10780              	.LASF94:
 10781 03bc 68656164 		.ascii	"head\000"
 10781      00
 10782              	.LASF167:
 10783 03c1 72656164 		.ascii	"read_cb\000"
 10783      5F636200 
 10784              	.LASF331:
 10785 03c9 63686172 		.ascii	"chart\000"
 10785      7400
 10786              	.LASF391:
 10787 03cf 67726164 		.ascii	"grad_area\000"
 10787      5F617265 
 10787      6100
 10788              	.LASF182:
 10789 03d9 6C617374 		.ascii	"last_pressed\000"
 10789      5F707265 
 10789      73736564 
 10789      00
 10790              	.LASF333:
 10791 03e6 62746E6D 		.ascii	"btnm\000"
 10791      00
ARM GAS  C:\Users\tmj32\AppData\Local\Temp\cc11CUDk.s 			page 222


 10792              	.LASF388:
 10793 03eb 6F6E5961 		.ascii	"onYaxis\000"
 10793      78697300 
 10794              	.LASF293:
 10795 03f3 4C565F4B 		.ascii	"LV_KEY_LEFT\000"
 10795      45595F4C 
 10795      45465400 
 10796              	.LASF122:
 10797 03ff 7365745F 		.ascii	"set_px_cb\000"
 10797      70785F63 
 10797      6200
 10798              	.LASF2:
 10799 0409 7369676E 		.ascii	"signed char\000"
 10799      65642063 
 10799      68617200 
 10800              	.LASF16:
 10801 0415 75696E74 		.ascii	"uint8_t\000"
 10801      385F7400 
 10802              	.LASF116:
 10803 041d 686F725F 		.ascii	"hor_res\000"
 10803      72657300 
 10804              	.LASF318:
 10805 0425 746F6461 		.ascii	"today_box\000"
 10805      795F626F 
 10805      7800
 10806              	.LASF303:
 10807 042f 74676C5F 		.ascii	"tgl_pr\000"
 10807      707200
 10808              	.LASF370:
 10809 0436 6C765F63 		.ascii	"lv_cpicker_get_style\000"
 10809      7069636B 
 10809      65725F67 
 10809      65745F73 
 10809      74796C65 
 10810              	.LASF55:
 10811 044b 6C765F63 		.ascii	"lv_color_hsv_t\000"
 10811      6F6C6F72 
 10811      5F687376 
 10811      5F7400
 10812              	.LASF30:
 10813 045a 6765745F 		.ascii	"get_glyph_bitmap\000"
 10813      676C7970 
 10813      685F6269 
 10813      746D6170 
 10813      00
 10814              	.LASF319:
 10815 046b 7363726C 		.ascii	"scrl\000"
 10815      00
 10816              	.LASF48:
 10817 0470 626C7565 		.ascii	"blue\000"
 10817      00
 10818              	.LASF244:
 10819 0475 4C565F53 		.ascii	"LV_SIGNAL_LONG_PRESS_REP\000"
 10819      49474E41 
 10819      4C5F4C4F 
 10819      4E475F50 
 10819      52455353 
ARM GAS  C:\Users\tmj32\AppData\Local\Temp\cc11CUDk.s 			page 223


 10820              	.LASF406:
 10821 048e 6873765F 		.ascii	"hsv_cur\000"
 10821      63757200 
 10822              	.LASF3:
 10823 0496 756E7369 		.ascii	"unsigned char\000"
 10823      676E6564 
 10823      20636861 
 10823      7200
 10824              	.LASF131:
 10825 04a4 746F705F 		.ascii	"top_layer\000"
 10825      6C617965 
 10825      7200
 10826              	.LASF394:
 10827 04ae 726F756E 		.ascii	"rounded_edge_area\000"
 10827      6465645F 
 10827      65646765 
 10827      5F617265 
 10827      6100
 10828              	.LASF237:
 10829 04c0 4C565F53 		.ascii	"LV_SIGNAL_REFR_EXT_DRAW_PAD\000"
 10829      49474E41 
 10829      4C5F5245 
 10829      46525F45 
 10829      58545F44 
 10830              	.LASF152:
 10831 04dc 64726167 		.ascii	"drag_dir\000"
 10831      5F646972 
 10831      00
 10832              	.LASF265:
 10833 04e5 4C565F50 		.ascii	"LV_PROTECT_PARENT\000"
 10833      524F5445 
 10833      43545F50 
 10833      4152454E 
 10833      5400
 10834              	.LASF103:
 10835 04f7 7461736B 		.ascii	"task_cb\000"
 10835      5F636200 
 10836              	.LASF375:
 10837 04ff 6C765F63 		.ascii	"lv_cpicker_get_color\000"
 10837      7069636B 
 10837      65725F67 
 10837      65745F63 
 10837      6F6C6F72 
 10838              	.LASF311:
 10839 0514 6B6E6F62 		.ascii	"knob_on\000"
 10839      5F6F6E00 
 10840              	.LASF26:
 10841 051c 6F66735F 		.ascii	"ofs_x\000"
 10841      7800
 10842              	.LASF27:
 10843 0522 6F66735F 		.ascii	"ofs_y\000"
 10843      7900
 10844              	.LASF296:
 10845 0528 4C565F4B 		.ascii	"LV_KEY_BACKSPACE\000"
 10845      45595F42 
 10845      41434B53 
 10845      50414345 
ARM GAS  C:\Users\tmj32\AppData\Local\Temp\cc11CUDk.s 			page 224


 10845      00
 10846              	.LASF312:
 10847 0539 68656164 		.ascii	"header\000"
 10847      657200
 10848              	.LASF33:
 10849 0540 5F426F6F 		.ascii	"_Bool\000"
 10849      6C00
 10850              	.LASF252:
 10851 0546 6C765F73 		.ascii	"lv_signal_cb_t\000"
 10851      69676E61 
 10851      6C5F6362 
 10851      5F7400
 10852              	.LASF342:
 10853 0555 7461626C 		.ascii	"table\000"
 10853      6500
 10854              	.LASF134:
 10855 055b 696E765F 		.ascii	"inv_area_joined\000"
 10855      61726561 
 10855      5F6A6F69 
 10855      6E656400 
 10856              	.LASF57:
 10857 056b 63686172 		.ascii	"char\000"
 10857      00
 10858              	.LASF162:
 10859 0570 62746E5F 		.ascii	"btn_id\000"
 10859      696400
 10860              	.LASF380:
 10861 0577 6C765F61 		.ascii	"lv_area_copy\000"
 10861      7265615F 
 10861      636F7079 
 10861      00
 10862              	.LASF205:
 10863 0584 4C565F44 		.ascii	"LV_DESIGN_DRAW_POST\000"
 10863      45534947 
 10863      4E5F4452 
 10863      41575F50 
 10863      4F535400 
 10864              	.LASF84:
 10865 0598 626F6479 		.ascii	"body\000"
 10865      00
 10866              	.LASF179:
 10867 059d 64726167 		.ascii	"drag_throw_vect\000"
 10867      5F746872 
 10867      6F775F76 
 10867      65637400 
 10868              	.LASF383:
 10869 05ad 656E645F 		.ascii	"end_angle\000"
 10869      616E676C 
 10869      6500
 10870              	.LASF100:
 10871 05b7 5F6C765F 		.ascii	"_lv_task_t\000"
 10871      7461736B 
 10871      5F7400
 10872              	.LASF6:
 10873 05c2 5F5F7569 		.ascii	"__uint16_t\000"
 10873      6E743136 
 10873      5F7400
ARM GAS  C:\Users\tmj32\AppData\Local\Temp\cc11CUDk.s 			page 225


 10874              	.LASF317:
 10875 05cd 7765656B 		.ascii	"week_box\000"
 10875      5F626F78 
 10875      00
 10876              	.LASF206:
 10877 05d6 4C565F44 		.ascii	"LV_DESIGN_COVER_CHK\000"
 10877      45534947 
 10877      4E5F434F 
 10877      5645525F 
 10877      43484B00 
 10878              	.LASF199:
 10879 05ea 70726F63 		.ascii	"proc\000"
 10879      00
 10880              	.LASF142:
 10881 05ef 64657369 		.ascii	"design_cb\000"
 10881      676E5F63 
 10881      6200
 10882              	.LASF230:
 10883 05f9 6C765F65 		.ascii	"lv_event_cb_t\000"
 10883      76656E74 
 10883      5F63625F 
 10883      7400
 10884              	.LASF384:
 10885 0607 63656E74 		.ascii	"center\000"
 10885      657200
 10886              	.LASF113:
 10887 060e 666C7573 		.ascii	"flushing\000"
 10887      68696E67 
 10887      00
 10888              	.LASF248:
 10889 0617 4C565F53 		.ascii	"LV_SIGNAL_DEFOCUS\000"
 10889      49474E41 
 10889      4C5F4445 
 10889      464F4355 
 10889      5300
 10890              	.LASF393:
 10891 0629 695F7374 		.ascii	"i_step\000"
 10891      657000
 10892              	.LASF221:
 10893 0630 4C565F45 		.ascii	"LV_EVENT_FOCUSED\000"
 10893      56454E54 
 10893      5F464F43 
 10893      55534544 
 10893      00
 10894              	.LASF338:
 10895 0641 64646C69 		.ascii	"ddlist\000"
 10895      737400
 10896              	.LASF390:
 10897 0648 64726177 		.ascii	"draw_rect_grad\000"
 10897      5F726563 
 10897      745F6772 
 10897      616400
 10898              	.LASF85:
 10899 0657 74657874 		.ascii	"text\000"
 10899      00
 10900              	.LASF187:
 10901 065c 706F696E 		.ascii	"pointer\000"
ARM GAS  C:\Users\tmj32\AppData\Local\Temp\cc11CUDk.s 			page 226


 10901      74657200 
 10902              	.LASF217:
 10903 0664 4C565F45 		.ascii	"LV_EVENT_DRAG_BEGIN\000"
 10903      56454E54 
 10903      5F445241 
 10903      475F4245 
 10903      47494E00 
 10904              	.LASF86:
 10905 0678 696D6167 		.ascii	"image\000"
 10905      6500
 10906              	.LASF82:
 10907 067e 726F756E 		.ascii	"rounded\000"
 10907      64656400 
 10908              	.LASF147:
 10909 0686 64726167 		.ascii	"drag_throw\000"
 10909      5F746872 
 10909      6F7700
 10910              	.LASF160:
 10911 0691 6C765F69 		.ascii	"lv_indev_state_t\000"
 10911      6E646576 
 10911      5F737461 
 10911      74655F74 
 10911      00
 10912              	.LASF97:
 10913 06a2 6C765F62 		.ascii	"lv_bidi_dir_t\000"
 10913      6964695F 
 10913      6469725F 
 10913      7400
 10914              	.LASF389:
 10915 06b0 6F6E5861 		.ascii	"onXaxis\000"
 10915      78697300 
 10916              	.LASF283:
 10917 06b8 636F6C6F 		.ascii	"color_mode\000"
 10917      725F6D6F 
 10917      646500
 10918              	.LASF157:
 10919 06c3 6578745F 		.ascii	"ext_draw_pad\000"
 10919      64726177 
 10919      5F706164 
 10919      00
 10920              	.LASF360:
 10921 06d0 6C765F63 		.ascii	"lv_cpicker_set_hsv\000"
 10921      7069636B 
 10921      65725F73 
 10921      65745F68 
 10921      737600
 10922              	.LASF173:
 10923 06e3 6C6F6E67 		.ascii	"long_press_rep_time\000"
 10923      5F707265 
 10923      73735F72 
 10923      65705F74 
 10923      696D6500 
 10924              	.LASF59:
 10925 06f7 6C765F61 		.ascii	"lv_area_t\000"
 10925      7265615F 
 10925      7400
 10926              	.LASF267:
ARM GAS  C:\Users\tmj32\AppData\Local\Temp\cc11CUDk.s 			page 227


 10927 0701 4C565F50 		.ascii	"LV_PROTECT_FOLLOW\000"
 10927      524F5445 
 10927      43545F46 
 10927      4F4C4C4F 
 10927      5700
 10928              	.LASF118:
 10929 0713 62756666 		.ascii	"buffer\000"
 10929      657200
 10930              	.LASF215:
 10931 071a 4C565F45 		.ascii	"LV_EVENT_CLICKED\000"
 10931      56454E54 
 10931      5F434C49 
 10931      434B4544 
 10931      00
 10932              	.LASF67:
 10933 072b 6C656674 		.ascii	"left\000"
 10933      00
 10934              	.LASF343:
 10935 0730 6C765F74 		.ascii	"lv_theme_t\000"
 10935      68656D65 
 10935      5F7400
 10936              	.LASF226:
 10937 073b 4C565F45 		.ascii	"LV_EVENT_APPLY\000"
 10937      56454E54 
 10937      5F415050 
 10937      4C5900
 10938              	.LASF158:
 10939 074a 7265616C 		.ascii	"realign\000"
 10939      69676E00 
 10940              	.LASF219:
 10941 0752 4C565F45 		.ascii	"LV_EVENT_DRAG_THROW_BEGIN\000"
 10941      56454E54 
 10941      5F445241 
 10941      475F5448 
 10941      524F575F 
 10942              	.LASF203:
 10943 076c 6C765F69 		.ascii	"lv_indev_t\000"
 10943      6E646576 
 10943      5F7400
 10944              	.LASF202:
 10945 0777 62746E5F 		.ascii	"btn_points\000"
 10945      706F696E 
 10945      747300
 10946              	.LASF238:
 10947 0782 4C565F53 		.ascii	"LV_SIGNAL_GET_TYPE\000"
 10947      49474E41 
 10947      4C5F4745 
 10947      545F5459 
 10947      504500
 10948              	.LASF196:
 10949 0795 77616974 		.ascii	"wait_until_release\000"
 10949      5F756E74 
 10949      696C5F72 
 10949      656C6561 
 10949      736500
 10950              	.LASF287:
 10951 07a8 4C565F43 		.ascii	"LV_CPICKER_STYLE_MAIN\000"
ARM GAS  C:\Users\tmj32\AppData\Local\Temp\cc11CUDk.s 			page 228


 10951      5049434B 
 10951      45525F53 
 10951      54594C45 
 10951      5F4D4149 
 10952              	.LASF112:
 10953 07be 61726561 		.ascii	"area\000"
 10953      00
 10954              	.LASF186:
 10955 07c3 6C617374 		.ascii	"last_key\000"
 10955      5F6B6579 
 10955      00
 10956              	.LASF88:
 10957 07cc 6C765F73 		.ascii	"lv_style_t\000"
 10957      74796C65 
 10957      5F7400
 10958              	.LASF69:
 10959 07d7 696E6E65 		.ascii	"inner\000"
 10959      7200
 10960              	.LASF195:
 10961 07dd 64697361 		.ascii	"disabled\000"
 10961      626C6564 
 10961      00
 10962              	.LASF356:
 10963 07e6 6C765F63 		.ascii	"lv_cpicker_set_hue\000"
 10963      7069636B 
 10963      65725F73 
 10963      65745F68 
 10963      756500
 10964              	.LASF289:
 10965 07f9 6C765F63 		.ascii	"lv_cpicker_style_t\000"
 10965      7069636B 
 10965      65725F73 
 10965      74796C65 
 10965      5F7400
 10966              	.LASF11:
 10967 080c 6C6F6E67 		.ascii	"long unsigned int\000"
 10967      20756E73 
 10967      69676E65 
 10967      6420696E 
 10967      7400
 10968              	.LASF373:
 10969 081e 6C765F63 		.ascii	"lv_cpicker_get_value\000"
 10969      7069636B 
 10969      65725F67 
 10969      65745F76 
 10969      616C7565 
 10970              	.LASF300:
 10971 0833 4C565F4B 		.ascii	"LV_KEY_HOME\000"
 10971      45595F48 
 10971      4F4D4500 
 10972              	.LASF382:
 10973 083f 73746172 		.ascii	"start_angle\000"
 10973      745F616E 
 10973      676C6500 
 10974              	.LASF305:
 10975 084b 68696E74 		.ascii	"hint\000"
 10975      00
ARM GAS  C:\Users\tmj32\AppData\Local\Temp\cc11CUDk.s 			page 229


 10976              	.LASF404:
 10977 0850 70617261 		.ascii	"param\000"
 10977      6D00
 10978              	.LASF280:
 10979 0856 6C617374 		.ascii	"last_click_time\000"
 10979      5F636C69 
 10979      636B5F74 
 10979      696D6500 
 10980              	.LASF374:
 10981 0866 6C765F63 		.ascii	"lv_cpicker_get_hsv\000"
 10981      7069636B 
 10981      65725F67 
 10981      65745F68 
 10981      737600
 10982              	.LASF87:
 10983 0879 6C696E65 		.ascii	"line\000"
 10983      00
 10984              	.LASF352:
 10985 087e 63706963 		.ascii	"cpicker\000"
 10985      6B657200 
 10986              	.LASF412:
 10987 0886 72656672 		.ascii	"refr_indic_pos\000"
 10987      5F696E64 
 10987      69635F70 
 10987      6F7300
 10988              	.LASF247:
 10989 0895 4C565F53 		.ascii	"LV_SIGNAL_FOCUS\000"
 10989      49474E41 
 10989      4C5F464F 
 10989      43555300 
 10990              	.LASF36:
 10991 08a5 4C565F4F 		.ascii	"LV_OPA_0\000"
 10991      50415F30 
 10991      00
 10992              	.LASF327:
 10993 08ae 736C6964 		.ascii	"slider\000"
 10993      657200
 10994              	.LASF357:
 10995 08b5 6C765F63 		.ascii	"lv_cpicker_set_saturation\000"
 10995      7069636B 
 10995      65725F73 
 10995      65745F73 
 10995      61747572 
 10996              	.LASF225:
 10997 08cf 4C565F45 		.ascii	"LV_EVENT_REFRESH\000"
 10997      56454E54 
 10997      5F524546 
 10997      52455348 
 10997      00
 10998              	.LASF408:
 10999 08e0 616E676C 		.ascii	"angle\000"
 10999      6500
 11000              	.LASF411:
 11001 08e6 6E657874 		.ascii	"next_color_mode\000"
 11001      5F636F6C 
 11001      6F725F6D 
 11001      6F646500 
ARM GAS  C:\Users\tmj32\AppData\Local\Temp\cc11CUDk.s 			page 230


 11002              	.LASF354:
 11003 08f6 6C765F63 		.ascii	"lv_cpicker_set_style\000"
 11003      7069636B 
 11003      65725F73 
 11003      65745F73 
 11003      74796C65 
 11004              	.LASF115:
 11005 090b 5F646973 		.ascii	"_disp_drv_t\000"
 11005      705F6472 
 11005      765F7400 
 11006              	.LASF201:
 11007 0917 67726F75 		.ascii	"group\000"
 11007      7000
 11008              	.LASF175:
 11009 091d 6163745F 		.ascii	"act_point\000"
 11009      706F696E 
 11009      7400
 11010              	.LASF181:
 11011 0927 6C617374 		.ascii	"last_obj\000"
 11011      5F6F626A 
 11011      00
 11012              	.LASF159:
 11013 0930 6C765F69 		.ascii	"lv_indev_type_t\000"
 11013      6E646576 
 11013      5F747970 
 11013      655F7400 
 11014              	.LASF250:
 11015 0940 4C565F53 		.ascii	"LV_SIGNAL_GET_EDITABLE\000"
 11015      49474E41 
 11015      4C5F4745 
 11015      545F4544 
 11015      49544142 
 11016              	.LASF282:
 11017 0957 6C617374 		.ascii	"last_press_point\000"
 11017      5F707265 
 11017      73735F70 
 11017      6F696E74 
 11017      00
 11018              	.LASF270:
 11019 0968 4C565F43 		.ascii	"LV_CPICKER_TYPE_RECT\000"
 11019      5049434B 
 11019      45525F54 
 11019      5950455F 
 11019      52454354 
 11020              	.LASF320:
 11021 097d 6F6E656C 		.ascii	"oneline\000"
 11021      696E6500 
 11022              	.LASF376:
 11023 0985 6C765F63 		.ascii	"lv_cpicker_get_indic_colored\000"
 11023      7069636B 
 11023      65725F67 
 11023      65745F69 
 11023      6E646963 
 11024              	.LASF114:
 11025 09a2 6C765F64 		.ascii	"lv_disp_buf_t\000"
 11025      6973705F 
 11025      6275665F 
ARM GAS  C:\Users\tmj32\AppData\Local\Temp\cc11CUDk.s 			page 231


 11025      7400
 11026              	.LASF371:
 11027 09b0 6C765F63 		.ascii	"lv_cpicker_get_hue\000"
 11027      7069636B 
 11027      65725F67 
 11027      65745F68 
 11027      756500
 11028              	.LASF10:
 11029 09c3 5F5F7569 		.ascii	"__uint32_t\000"
 11029      6E743332 
 11029      5F7400
 11030              	.LASF140:
 11031 09ce 6576656E 		.ascii	"event_cb\000"
 11031      745F6362 
 11031      00
 11032              	.LASF68:
 11033 09d7 72696768 		.ascii	"right\000"
 11033      7400
 11034              	.LASF144:
 11035 09dd 7374796C 		.ascii	"style_p\000"
 11035      655F7000 
 11036              	.LASF12:
 11037 09e5 6C6F6E67 		.ascii	"long long int\000"
 11037      206C6F6E 
 11037      6720696E 
 11037      7400
 11038              	.LASF421:
 11039 09f3 433A5C55 		.ascii	"C:\\Users\\tmj32\\Documents\\TCNJ\\Senior_Project\\"
 11039      73657273 
 11039      5C746D6A 
 11039      33325C44 
 11039      6F63756D 
 11040 0a20 4F736369 		.ascii	"Oscilloscope_Senior_Project\\tcom_engineering\\embe"
 11040      6C6C6F73 
 11040      636F7065 
 11040      5F53656E 
 11040      696F725F 
 11041 0a51 645F7377 		.ascii	"d_sw\\tcom_app\\tcom_app_psoc6_lvgl6\\tcom_displ_te"
 11041      5C74636F 
 11041      6D5F6170 
 11041      705C7463 
 11041      6F6D5F61 
 11042 0a81 73745F70 		.ascii	"st_psoc6.cydsn\000"
 11042      736F6336 
 11042      2E637964 
 11042      736E00
 11043              	.LASF63:
 11044 0a90 77696474 		.ascii	"width\000"
 11044      6800
 11045              	.LASF249:
 11046 0a96 4C565F53 		.ascii	"LV_SIGNAL_CONTROL\000"
 11046      49474E41 
 11046      4C5F434F 
 11046      4E54524F 
 11046      4C00
 11047              	.LASF66:
 11048 0aa8 626F7474 		.ascii	"bottom\000"
ARM GAS  C:\Users\tmj32\AppData\Local\Temp\cc11CUDk.s 			page 232


 11048      6F6D00
 11049              	.LASF138:
 11050 0aaf 6368696C 		.ascii	"child_ll\000"
 11050      645F6C6C 
 11050      00
 11051              	.LASF279:
 11052 0ab8 696E6469 		.ascii	"indic\000"
 11052      6300
 11053              	.LASF155:
 11054 0abe 70726F74 		.ascii	"protect\000"
 11054      65637400 
 11055              	.LASF108:
 11056 0ac6 62756631 		.ascii	"buf1\000"
 11056      00
 11057              	.LASF109:
 11058 0acb 62756632 		.ascii	"buf2\000"
 11058      00
 11059              	.LASF385:
 11060 0ad0 74726961 		.ascii	"triangle_points\000"
 11060      6E676C65 
 11060      5F706F69 
 11060      6E747300 
 11061              	.LASF176:
 11062 0ae0 6C617374 		.ascii	"last_point\000"
 11062      5F706F69 
 11062      6E7400
 11063              	.LASF180:
 11064 0aeb 6163745F 		.ascii	"act_obj\000"
 11064      6F626A00 
 11065              	.LASF286:
 11066 0af3 6C765F63 		.ascii	"lv_cpicker_ext_t\000"
 11066      7069636B 
 11066      65725F65 
 11066      78745F74 
 11066      00
 11067              	.LASF379:
 11068 0b04 6D61736B 		.ascii	"mask\000"
 11068      00
 11069              	.LASF340:
 11070 0b09 74616276 		.ascii	"tabview\000"
 11070      69657700 
 11071              	.LASF151:
 11072 0b11 70617265 		.ascii	"parent_event\000"
 11072      6E745F65 
 11072      76656E74 
 11072      00
 11073              	.LASF231:
 11074 0b1e 4C565F53 		.ascii	"LV_SIGNAL_CLEANUP\000"
 11074      49474E41 
 11074      4C5F434C 
 11074      45414E55 
 11074      5000
 11075              	.LASF257:
 11076 0b30 616C6967 		.ascii	"align\000"
 11076      6E00
 11077              	.LASF35:
 11078 0b36 4C565F4F 		.ascii	"LV_OPA_TRANSP\000"
ARM GAS  C:\Users\tmj32\AppData\Local\Temp\cc11CUDk.s 			page 233


 11078      50415F54 
 11078      52414E53 
 11078      5000
 11079              	.LASF83:
 11080 0b44 676C6173 		.ascii	"glass\000"
 11080      7300
 11081              	.LASF275:
 11082 0b4a 4C565F43 		.ascii	"LV_CPICKER_COLOR_MODE_VALUE\000"
 11082      5049434B 
 11082      45525F43 
 11082      4F4C4F52 
 11082      5F4D4F44 
 11083              	.LASF228:
 11084 0b66 4C565F45 		.ascii	"LV_EVENT_DELETE\000"
 11084      56454E54 
 11084      5F44454C 
 11084      45544500 
 11085              	.LASF14:
 11086 0b76 756E7369 		.ascii	"unsigned int\000"
 11086      676E6564 
 11086      20696E74 
 11086      00
 11087              	.LASF232:
 11088 0b83 4C565F53 		.ascii	"LV_SIGNAL_CHILD_CHG\000"
 11088      49474E41 
 11088      4C5F4348 
 11088      494C445F 
 11088      43484700 
 11089              	.LASF169:
 11090 0b97 64697370 		.ascii	"disp\000"
 11090      00
 11091              	.LASF420:
 11092 0b9c 2E2E5C2E 		.ascii	"..\\..\\..\\lvgl\\version_6.1.2\\lvgl\\src\\lv_objx"
 11092      2E5C2E2E 
 11092      5C6C7667 
 11092      6C5C7665 
 11092      7273696F 
 11093 0bc8 5C6C765F 		.ascii	"\\lv_cpicker.c\000"
 11093      63706963 
 11093      6B65722E 
 11093      6300
 11094              	.LASF334:
 11095 0bd6 6D626F78 		.ascii	"mbox\000"
 11095      00
 11096              	.LASF163:
 11097 0bdb 656E635F 		.ascii	"enc_diff\000"
 11097      64696666 
 11097      00
 11098              	.LASF302:
 11099 0be4 74676C5F 		.ascii	"tgl_rel\000"
 11099      72656C00 
 11100              	.LASF223:
 11101 0bec 4C565F45 		.ascii	"LV_EVENT_VALUE_CHANGED\000"
 11101      56454E54 
 11101      5F56414C 
 11101      55455F43 
 11101      48414E47 
ARM GAS  C:\Users\tmj32\AppData\Local\Temp\cc11CUDk.s 			page 234


 11102              	.LASF133:
 11103 0c03 696E765F 		.ascii	"inv_areas\000"
 11103      61726561 
 11103      7300
 11104              	.LASF258:
 11105 0c0d 6175746F 		.ascii	"auto_realign\000"
 11105      5F726561 
 11105      6C69676E 
 11105      00
 11106              	.LASF395:
 11107 0c1a 72656374 		.ascii	"rect_area\000"
 11107      5F617265 
 11107      6100
 11108              	.LASF423:
 11109 0c24 6C765F73 		.ascii	"lv_style_plain\000"
 11109      74796C65 
 11109      5F706C61 
 11109      696E00
 11110              	.LASF106:
 11111 0c33 6F6E6365 		.ascii	"once\000"
 11111      00
 11112              	.LASF204:
 11113 0c38 4C565F44 		.ascii	"LV_DESIGN_DRAW_MAIN\000"
 11113      45534947 
 11113      4E5F4452 
 11113      41575F4D 
 11113      41494E00 
 11114              	.LASF28:
 11115 0c4c 6C765F66 		.ascii	"lv_font_glyph_dsc_t\000"
 11115      6F6E745F 
 11115      676C7970 
 11115      685F6473 
 11115      635F7400 
 11116              	.LASF337:
 11117 0c60 6C697374 		.ascii	"list\000"
 11117      00
 11118              	.LASF71:
 11119 0c65 67726164 		.ascii	"grad_color\000"
 11119      5F636F6C 
 11119      6F7200
 11120              	.LASF410:
 11121 0c70 725F696E 		.ascii	"r_in\000"
 11121      00
 11122              	.LASF210:
 11123 0c75 4C565F45 		.ascii	"LV_EVENT_PRESSING\000"
 11123      56454E54 
 11123      5F505245 
 11123      5353494E 
 11123      4700
 11124              	.LASF335:
 11125 0c87 70616765 		.ascii	"page\000"
 11125      00
 11126              	.LASF126:
 11127 0c8c 5F646973 		.ascii	"_disp_t\000"
 11127      705F7400 
 11128              	.LASF310:
 11129 0c94 6B6E6F62 		.ascii	"knob_off\000"
ARM GAS  C:\Users\tmj32\AppData\Local\Temp\cc11CUDk.s 			page 235


 11129      5F6F6666 
 11129      00
 11130              	.LASF329:
 11131 0c9d 67617567 		.ascii	"gauge\000"
 11131      6500
 11132              	.LASF298:
 11133 0ca3 4C565F4B 		.ascii	"LV_KEY_NEXT\000"
 11133      45595F4E 
 11133      45585400 
 11134              	.LASF240:
 11135 0caf 4C565F53 		.ascii	"LV_SIGNAL_PRESSING\000"
 11135      49474E41 
 11135      4C5F5052 
 11135      45535349 
 11135      4E4700
 11136              	.LASF46:
 11137 0cc2 4C565F4F 		.ascii	"LV_OPA_100\000"
 11137      50415F31 
 11137      303000
 11138              	.LASF214:
 11139 0ccd 4C565F45 		.ascii	"LV_EVENT_LONG_PRESSED_REPEAT\000"
 11139      56454E54 
 11139      5F4C4F4E 
 11139      475F5052 
 11139      45535345 
 11140              	.LASF91:
 11141 0cea 6C765F72 		.ascii	"lv_res_t\000"
 11141      65735F74 
 11141      00
 11142              	.LASF110:
 11143 0cf3 6275665F 		.ascii	"buf_act\000"
 11143      61637400 
 11144              	.LASF22:
 11145 0cfb 6C6F6E67 		.ascii	"long double\000"
 11145      20646F75 
 11145      626C6500 
 11146              	.LASF261:
 11147 0d07 6C765F64 		.ascii	"lv_drag_dir_t\000"
 11147      7261675F 
 11147      6469725F 
 11147      7400
 11148              	.LASF277:
 11149 0d15 7374796C 		.ascii	"style\000"
 11149      6500
 11150              	.LASF177:
 11151 0d1b 76656374 		.ascii	"vect\000"
 11151      00
 11152              	.LASF143:
 11153 0d20 6578745F 		.ascii	"ext_attr\000"
 11153      61747472 
 11153      00
 11154              	.LASF178:
 11155 0d29 64726167 		.ascii	"drag_sum\000"
 11155      5F73756D 
 11155      00
 11156              	.LASF263:
 11157 0d32 4C565F50 		.ascii	"LV_PROTECT_NONE\000"
ARM GAS  C:\Users\tmj32\AppData\Local\Temp\cc11CUDk.s 			page 236


 11157      524F5445 
 11157      43545F4E 
 11157      4F4E4500 
 11158              	.LASF332:
 11159 0d42 63616C65 		.ascii	"calendar\000"
 11159      6E646172 
 11159      00
 11160              	.LASF191:
 11161 0d4b 70725F74 		.ascii	"pr_timestamp\000"
 11161      696D6573 
 11161      74616D70 
 11161      00
 11162              	.LASF207:
 11163 0d58 6C765F64 		.ascii	"lv_design_mode_t\000"
 11163      65736967 
 11163      6E5F6D6F 
 11163      64655F74 
 11163      00
 11164              	.LASF81:
 11165 0d69 73756270 		.ascii	"subpx\000"
 11165      7800
 11166              	.LASF218:
 11167 0d6f 4C565F45 		.ascii	"LV_EVENT_DRAG_END\000"
 11167      56454E54 
 11167      5F445241 
 11167      475F454E 
 11167      4400
 11168              	.LASF47:
 11169 0d81 4C565F4F 		.ascii	"LV_OPA_COVER\000"
 11169      50415F43 
 11169      4F564552 
 11169      00
 11170              	.LASF362:
 11171 0d8e 6C765F63 		.ascii	"lv_cpicker_set_color_mode\000"
 11171      7069636B 
 11171      65725F73 
 11171      65745F63 
 11171      6F6C6F72 
 11172              	.LASF170:
 11173 0da8 72656164 		.ascii	"read_task\000"
 11173      5F746173 
 11173      6B00
 11174              	.LASF241:
 11175 0db2 4C565F53 		.ascii	"LV_SIGNAL_PRESS_LOST\000"
 11175      49474E41 
 11175      4C5F5052 
 11175      4553535F 
 11175      4C4F5354 
 11176              	.LASF301:
 11177 0dc7 4C565F4B 		.ascii	"LV_KEY_END\000"
 11177      45595F45 
 11177      4E4400
 11178              	.LASF168:
 11179 0dd2 66656564 		.ascii	"feedback_cb\000"
 11179      6261636B 
 11179      5F636200 
 11180              	.LASF246:
ARM GAS  C:\Users\tmj32\AppData\Local\Temp\cc11CUDk.s 			page 237


 11181 0dde 4C565F53 		.ascii	"LV_SIGNAL_DRAG_END\000"
 11181      49474E41 
 11181      4C5F4452 
 11181      41475F45 
 11181      4E4400
 11182              	.LASF209:
 11183 0df1 4C565F45 		.ascii	"LV_EVENT_PRESSED\000"
 11183      56454E54 
 11183      5F505245 
 11183      53534544 
 11183      00
 11184              	.LASF234:
 11185 0e02 4C565F53 		.ascii	"LV_SIGNAL_PARENT_SIZE_CHG\000"
 11185      49474E41 
 11185      4C5F5041 
 11185      52454E54 
 11185      5F53495A 
 11186              	.LASF227:
 11187 0e1c 4C565F45 		.ascii	"LV_EVENT_CANCEL\000"
 11187      56454E54 
 11187      5F43414E 
 11187      43454C00 
 11188              	.LASF242:
 11189 0e2c 4C565F53 		.ascii	"LV_SIGNAL_RELEASED\000"
 11189      49474E41 
 11189      4C5F5245 
 11189      4C454153 
 11189      454400
 11190              	.LASF70:
 11191 0e3f 6D61696E 		.ascii	"main_color\000"
 11191      5F636F6C 
 11191      6F7200
 11192              	.LASF0:
 11193 0e4a 5F5F696E 		.ascii	"__int8_t\000"
 11193      74385F74 
 11193      00
 11194              	.LASF189:
 11195 0e53 5F6C765F 		.ascii	"_lv_indev_proc_t\000"
 11195      696E6465 
 11195      765F7072 
 11195      6F635F74 
 11195      00
 11196              	.LASF251:
 11197 0e64 6C765F73 		.ascii	"lv_signal_t\000"
 11197      69676E61 
 11197      6C5F7400 
 11198              	.LASF111:
 11199 0e70 73697A65 		.ascii	"size\000"
 11199      00
 11200              	.LASF172:
 11201 0e75 6C6F6E67 		.ascii	"long_press_time\000"
 11201      5F707265 
 11201      73735F74 
 11201      696D6500 
 11202              	.LASF13:
 11203 0e85 6C6F6E67 		.ascii	"long long unsigned int\000"
 11203      206C6F6E 
ARM GAS  C:\Users\tmj32\AppData\Local\Temp\cc11CUDk.s 			page 238


 11203      6720756E 
 11203      7369676E 
 11203      65642069 
 11204              	.LASF274:
 11205 0e9c 4C565F43 		.ascii	"LV_CPICKER_COLOR_MODE_SATURATION\000"
 11205      5049434B 
 11205      45525F43 
 11205      4F4C4F52 
 11205      5F4D4F44 
 11206              	.LASF269:
 11207 0ebd 4C565F50 		.ascii	"LV_PROTECT_CLICK_FOCUS\000"
 11207      524F5445 
 11207      43545F43 
 11207      4C49434B 
 11207      5F464F43 
 11208              	.LASF18:
 11209 0ed4 75696E74 		.ascii	"uint16_t\000"
 11209      31365F74 
 11209      00
 11210              	.LASF90:
 11211 0edd 4C565F52 		.ascii	"LV_RES_OK\000"
 11211      45535F4F 
 11211      4B00
 11212              	.LASF102:
 11213 0ee7 6C617374 		.ascii	"last_run\000"
 11213      5F72756E 
 11213      00
 11214              	.LASF316:
 11215 0ef0 696E6163 		.ascii	"inactive_days\000"
 11215      74697665 
 11215      5F646179 
 11215      7300
 11216              	.LASF53:
 11217 0efe 6C765F63 		.ascii	"lv_color_t\000"
 11217      6F6C6F72 
 11217      5F7400
 11218              	.LASF417:
 11219 0f09 616E6365 		.ascii	"ancestor_signal\000"
 11219      73746F72 
 11219      5F736967 
 11219      6E616C00 
 11220              	.LASF256:
 11221 0f19 796F6673 		.ascii	"yofs\000"
 11221      00
 11222              	.LASF194:
 11223 0f1e 72657365 		.ascii	"reset_query\000"
 11223      745F7175 
 11223      65727900 
 11224              	.LASF107:
 11225 0f2a 6C765F74 		.ascii	"lv_task_t\000"
 11225      61736B5F 
 11225      7400
 11226              	.LASF367:
 11227 0f34 6C765F63 		.ascii	"lv_cpicker_set_preview\000"
 11227      7069636B 
 11227      65725F73 
 11227      65745F70 
ARM GAS  C:\Users\tmj32\AppData\Local\Temp\cc11CUDk.s 			page 239


 11227      72657669 
 11228              	.LASF348:
 11229 0f4b 6C765F61 		.ascii	"lv_area_get_height\000"
 11229      7265615F 
 11229      6765745F 
 11229      68656967 
 11229      687400
 11230              	.LASF418:
 11231 0f5e 616E6365 		.ascii	"ancestor_design\000"
 11231      73746F72 
 11231      5F646573 
 11231      69676E00 
 11232              	.LASF271:
 11233 0f6e 4C565F43 		.ascii	"LV_CPICKER_TYPE_DISC\000"
 11233      5049434B 
 11233      45525F54 
 11233      5950455F 
 11233      44495343 
 11234              	.LASF37:
 11235 0f83 4C565F4F 		.ascii	"LV_OPA_10\000"
 11235      50415F31 
 11235      3000
 11236              	.LASF416:
 11237 0f8d 6765745F 		.ascii	"get_angle\000"
 11237      616E676C 
 11237      6500
 11238              	.LASF291:
 11239 0f97 4C565F4B 		.ascii	"LV_KEY_DOWN\000"
 11239      45595F44 
 11239      4F574E00 
 11240              	.LASF294:
 11241 0fa3 4C565F4B 		.ascii	"LV_KEY_ESC\000"
 11241      45595F45 
 11241      534300
 11242              	.LASF419:
 11243 0fae 474E5520 		.ascii	"GNU C11 5.4.1 20160609 (release) [ARM/embedded-5-br"
 11243      43313120 
 11243      352E342E 
 11243      31203230 
 11243      31363036 
 11244 0fe1 616E6368 		.ascii	"anch revision 237715] -mcpu=cortex-m4 -mfloat-abi=s"
 11244      20726576 
 11244      6973696F 
 11244      6E203233 
 11244      37373135 
 11245 1014 6F667466 		.ascii	"oftfp -mfpu=fpv4-sp-d16 -mthumb -g -O0 -ffunction-s"
 11245      70202D6D 
 11245      6670753D 
 11245      66707634 
 11245      2D73702D 
 11246 1047 65637469 		.ascii	"ections -ffat-lto-objects\000"
 11246      6F6E7320 
 11246      2D666661 
 11246      742D6C74 
 11246      6F2D6F62 
 11247              	.LASF386:
 11248 1061 7374796C 		.ascii	"style_main\000"
ARM GAS  C:\Users\tmj32\AppData\Local\Temp\cc11CUDk.s 			page 240


 11248      655F6D61 
 11248      696E00
 11249              	.LASF101:
 11250 106c 70657269 		.ascii	"period\000"
 11250      6F6400
 11251              	.LASF121:
 11252 1073 726F756E 		.ascii	"rounder_cb\000"
 11252      6465725F 
 11252      636200
 11253              	.LASF308:
 11254 107e 6465636F 		.ascii	"decor\000"
 11254      7200
 11255              	.LASF325:
 11256 1084 696D6762 		.ascii	"imgbtn\000"
 11256      746E00
 11257              	.LASF4:
 11258 108b 5F5F696E 		.ascii	"__int16_t\000"
 11258      7431365F 
 11258      7400
 11259              	.LASF192:
 11260 1095 6C6F6E67 		.ascii	"longpr_rep_timestamp\000"
 11260      70725F72 
 11260      65705F74 
 11260      696D6573 
 11260      74616D70 
 11261              	.LASF323:
 11262 10aa 70616E65 		.ascii	"panel\000"
 11262      6C00
 11263              	.LASF184:
 11264 10b0 64726167 		.ascii	"drag_in_prog\000"
 11264      5F696E5F 
 11264      70726F67 
 11264      00
 11265              	.LASF344:
 11266 10bd 64657374 		.ascii	"dest\000"
 11266      00
 11267              	.LASF51:
 11268 10c2 66756C6C 		.ascii	"full\000"
 11268      00
 11269              	.LASF413:
 11270 10c7 696E645F 		.ascii	"ind_pos\000"
 11270      706F7300 
 11271              	.LASF38:
 11272 10cf 4C565F4F 		.ascii	"LV_OPA_20\000"
 11272      50415F32 
 11272      3000
 11273              	.LASF62:
 11274 10d9 636F6C6F 		.ascii	"color\000"
 11274      7200
 11275              	.LASF183:
 11276 10df 64726167 		.ascii	"drag_limit_out\000"
 11276      5F6C696D 
 11276      69745F6F 
 11276      757400
 11277              	.LASF79:
 11278 10ee 6C696E65 		.ascii	"line_space\000"
 11278      5F737061 
ARM GAS  C:\Users\tmj32\AppData\Local\Temp\cc11CUDk.s 			page 241


 11278      636500
 11279              	.LASF255:
 11280 10f9 786F6673 		.ascii	"xofs\000"
 11280      00
 11281              	.LASF262:
 11282 10fe 6C765F6F 		.ascii	"lv_obj_t\000"
 11282      626A5F74 
 11282      00
 11283              	.LASF127:
 11284 1107 64726976 		.ascii	"driver\000"
 11284      657200
 11285              	.LASF61:
 11286 110e 6C765F73 		.ascii	"lv_shadow_type_t\000"
 11286      6861646F 
 11286      775F7479 
 11286      70655F74 
 11286      00
 11287              	.LASF146:
 11288 111f 64726167 		.ascii	"drag\000"
 11288      00
 11289              	.LASF137:
 11290 1124 5F6C765F 		.ascii	"_lv_obj_t\000"
 11290      6F626A5F 
 11290      7400
 11291              	.LASF77:
 11292 112e 666F6E74 		.ascii	"font\000"
 11292      00
 11293              	.LASF78:
 11294 1133 6C657474 		.ascii	"letter_space\000"
 11294      65725F73 
 11294      70616365 
 11294      00
 11295              	.LASF405:
 11296 1140 696E6469 		.ascii	"indic_pad\000"
 11296      635F7061 
 11296      6400
 11297              	.LASF39:
 11298 114a 4C565F4F 		.ascii	"LV_OPA_30\000"
 11298      50415F33 
 11298      3000
 11299              	.LASF281:
 11300 1154 6C617374 		.ascii	"last_change_time\000"
 11300      5F636861 
 11300      6E67655F 
 11300      74696D65 
 11300      00
 11301              	.LASF153:
 11302 1165 62617365 		.ascii	"base_dir\000"
 11302      5F646972 
 11302      00
 11303              	.LASF264:
 11304 116e 4C565F50 		.ascii	"LV_PROTECT_CHILD_CHG\000"
 11304      524F5445 
 11304      43545F43 
 11304      48494C44 
 11304      5F434847 
 11305              	.LASF268:
ARM GAS  C:\Users\tmj32\AppData\Local\Temp\cc11CUDk.s 			page 242


 11306 1183 4C565F50 		.ascii	"LV_PROTECT_PRESS_LOST\000"
 11306      524F5445 
 11306      43545F50 
 11306      52455353 
 11306      5F4C4F53 
 11307              	.LASF25:
 11308 1199 626F785F 		.ascii	"box_h\000"
 11308      6800
 11309              	.LASF381:
 11310 119f 64726177 		.ascii	"draw_disc_grad\000"
 11310      5F646973 
 11310      635F6772 
 11310      616400
 11311              	.LASF299:
 11312 11ae 4C565F4B 		.ascii	"LV_KEY_PREV\000"
 11312      45595F50 
 11312      52455600 
 11313              	.LASF254:
 11314 11ba 62617365 		.ascii	"base\000"
 11314      00
 11315              	.LASF24:
 11316 11bf 626F785F 		.ascii	"box_w\000"
 11316      7700
 11317              	.LASF5:
 11318 11c5 73686F72 		.ascii	"short int\000"
 11318      7420696E 
 11318      7400
 11319              	.LASF32:
 11320 11cf 62617365 		.ascii	"base_line\000"
 11320      5F6C696E 
 11320      6500
 11321              	.LASF135:
 11322 11d9 696E765F 		.ascii	"inv_p\000"
 11322      7000
 11323              	.LASF96:
 11324 11df 6C765F6C 		.ascii	"lv_ll_t\000"
 11324      6C5F7400 
 11325              	.LASF363:
 11326 11e7 6D6F6465 		.ascii	"mode\000"
 11326      00
 11327              	.LASF188:
 11328 11ec 6B657970 		.ascii	"keypad\000"
 11328      616400
 11329              	.LASF40:
 11330 11f3 4C565F4F 		.ascii	"LV_OPA_40\000"
 11330      50415F34 
 11330      3000
 11331              	.LASF17:
 11332 11fd 696E7431 		.ascii	"int16_t\000"
 11332      365F7400 
 11333              	.LASF233:
 11334 1205 4C565F53 		.ascii	"LV_SIGNAL_CORD_CHG\000"
 11334      49474E41 
 11334      4C5F434F 
 11334      52445F43 
 11334      484700
 11335              	.LASF139:
ARM GAS  C:\Users\tmj32\AppData\Local\Temp\cc11CUDk.s 			page 243


 11336 1218 636F6F72 		.ascii	"coords\000"
 11336      647300
 11337              	.LASF407:
 11338 121f 696E6465 		.ascii	"indev\000"
 11338      7600
 11339              	.LASF372:
 11340 1225 6C765F63 		.ascii	"lv_cpicker_get_saturation\000"
 11340      7069636B 
 11340      65725F67 
 11340      65745F73 
 11340      61747572 
 11341              	.LASF132:
 11342 123f 7379735F 		.ascii	"sys_layer\000"
 11342      6C617965 
 11342      7200
 11343              	.LASF336:
 11344 1249 7370696E 		.ascii	"spinbox\000"
 11344      626F7800 
 11345              	.LASF387:
 11346 1251 61726561 		.ascii	"area_mid\000"
 11346      5F6D6964 
 11346      00
 11347              	.LASF150:
 11348 125a 6F70615F 		.ascii	"opa_scale_en\000"
 11348      7363616C 
 11348      655F656E 
 11348      00
 11349              	.LASF314:
 11350 1267 6461795F 		.ascii	"day_names\000"
 11350      6E616D65 
 11350      7300
 11351              	.LASF74:
 11352 1271 73686164 		.ascii	"shadow\000"
 11352      6F7700
 11353              	.LASF197:
 11354 1278 6C765F69 		.ascii	"lv_indev_proc_t\000"
 11354      6E646576 
 11354      5F70726F 
 11354      635F7400 
 11355              	.LASF41:
 11356 1288 4C565F4F 		.ascii	"LV_OPA_50\000"
 11356      50415F35 
 11356      3000
 11357              	.LASF346:
 11358 1292 6C765F61 		.ascii	"lv_area_get_width\000"
 11358      7265615F 
 11358      6765745F 
 11358      77696474 
 11358      6800
 11359              	.LASF148:
 11360 12a4 64726167 		.ascii	"drag_parent\000"
 11360      5F706172 
 11360      656E7400 
 11361              	.LASF174:
 11362 12b0 6C765F69 		.ascii	"lv_indev_drv_t\000"
 11362      6E646576 
 11362      5F647276 
ARM GAS  C:\Users\tmj32\AppData\Local\Temp\cc11CUDk.s 			page 244


 11362      5F7400
 11363              	.LASF236:
 11364 12bf 4C565F53 		.ascii	"LV_SIGNAL_BASE_DIR_CHG\000"
 11364      49474E41 
 11364      4C5F4241 
 11364      53455F44 
 11364      49525F43 
 11365              	.LASF222:
 11366 12d6 4C565F45 		.ascii	"LV_EVENT_DEFOCUSED\000"
 11366      56454E54 
 11366      5F444546 
 11366      4F435553 
 11366      454400
 11367              	.LASF276:
 11368 12e9 6C765F63 		.ascii	"lv_cpicker_color_mode_t\000"
 11368      7069636B 
 11368      65725F63 
 11368      6F6C6F72 
 11368      5F6D6F64 
 11369              	.LASF171:
 11370 1301 64726167 		.ascii	"drag_limit\000"
 11370      5F6C696D 
 11370      697400
 11371              	.LASF125:
 11372 130c 6C765F64 		.ascii	"lv_disp_drv_t\000"
 11372      6973705F 
 11372      6472765F 
 11372      7400
 11373              	.LASF351:
 11374 131a 636F7079 		.ascii	"copy_ext\000"
 11374      5F657874 
 11374      00
 11375              	.LASF322:
 11376 1323 636F6E74 		.ascii	"content\000"
 11376      656E7400 
 11377              	.LASF75:
 11378 132b 70616464 		.ascii	"padding\000"
 11378      696E6700 
 11379              	.LASF141:
 11380 1333 7369676E 		.ascii	"signal_cb\000"
 11380      616C5F63 
 11380      6200
 11381              	.LASF42:
 11382 133d 4C565F4F 		.ascii	"LV_OPA_60\000"
 11382      50415F36 
 11382      3000
 11383              	.LASF361:
 11384 1347 6C765F63 		.ascii	"lv_cpicker_set_color\000"
 11384      7069636B 
 11384      65725F73 
 11384      65745F63 
 11384      6F6C6F72 
 11385              	.LASF20:
 11386 135c 75696E74 		.ascii	"uint32_t\000"
 11386      33325F74 
 11386      00
 11387              	.LASF364:
ARM GAS  C:\Users\tmj32\AppData\Local\Temp\cc11CUDk.s 			page 245


 11388 1365 6C765F63 		.ascii	"lv_cpicker_set_color_mode_fixed\000"
 11388      7069636B 
 11388      65725F73 
 11388      65745F63 
 11388      6F6C6F72 
 11389              	.LASF307:
 11390 1385 6461726B 		.ascii	"dark\000"
 11390      00
 11391              	.LASF49:
 11392 138a 67726565 		.ascii	"green\000"
 11392      6E00
 11393              	.LASF34:
 11394 1390 6C765F66 		.ascii	"lv_font_t\000"
 11394      6F6E745F 
 11394      7400
 11395              	.LASF154:
 11396 139a 72657365 		.ascii	"reserved\000"
 11396      72766564 
 11396      00
 11397              	.LASF123:
 11398 13a3 6D6F6E69 		.ascii	"monitor_cb\000"
 11398      746F725F 
 11398      636200
 11399              	.LASF43:
 11400 13ae 4C565F4F 		.ascii	"LV_OPA_70\000"
 11400      50415F37 
 11400      3000
 11401              	.LASF7:
 11402 13b8 73686F72 		.ascii	"short unsigned int\000"
 11402      7420756E 
 11402      7369676E 
 11402      65642069 
 11402      6E7400
 11403              	.LASF220:
 11404 13cb 4C565F45 		.ascii	"LV_EVENT_KEY\000"
 11404      56454E54 
 11404      5F4B4559 
 11404      00
 11405              	.LASF21:
 11406 13d8 6C765F63 		.ascii	"lv_coord_t\000"
 11406      6F6F7264 
 11406      5F7400
 11407              	.LASF165:
 11408 13e3 6C765F69 		.ascii	"lv_indev_data_t\000"
 11408      6E646576 
 11408      5F646174 
 11408      615F7400 
 11409              	.LASF120:
 11410 13f3 666C7573 		.ascii	"flush_cb\000"
 11410      685F6362 
 11410      00
 11411              	.LASF104:
 11412 13fc 75736572 		.ascii	"user_data\000"
 11412      5F646174 
 11412      6100
 11413              	.LASF211:
 11414 1406 4C565F45 		.ascii	"LV_EVENT_PRESS_LOST\000"
ARM GAS  C:\Users\tmj32\AppData\Local\Temp\cc11CUDk.s 			page 246


 11414      56454E54 
 11414      5F505245 
 11414      53535F4C 
 11414      4F535400 
 11415              	.LASF353:
 11416 141a 6C765F63 		.ascii	"lv_cpicker_set_type\000"
 11416      7069636B 
 11416      65725F73 
 11416      65745F74 
 11416      79706500 
 11417              	.LASF73:
 11418 142e 626F7264 		.ascii	"border\000"
 11418      657200
 11419              	.LASF285:
 11420 1435 70726576 		.ascii	"preview\000"
 11420      69657700 
 11421              	.LASF326:
 11422 143d 6C616265 		.ascii	"label\000"
 11422      6C00
 11423              	.LASF29:
 11424 1443 6765745F 		.ascii	"get_glyph_dsc\000"
 11424      676C7970 
 11424      685F6473 
 11424      6300
 11425              	.LASF8:
 11426 1451 5F5F696E 		.ascii	"__int32_t\000"
 11426      7433325F 
 11426      7400
 11427              	.LASF60:
 11428 145b 6C765F62 		.ascii	"lv_border_part_t\000"
 11428      6F726465 
 11428      725F7061 
 11428      72745F74 
 11428      00
 11429              	.LASF193:
 11430 146c 6C6F6E67 		.ascii	"long_pr_sent\000"
 11430      5F70725F 
 11430      73656E74 
 11430      00
 11431              	.LASF44:
 11432 1479 4C565F4F 		.ascii	"LV_OPA_80\000"
 11432      50415F38 
 11432      3000
 11433              	.LASF330:
 11434 1483 7072656C 		.ascii	"preload\000"
 11434      6F616400 
 11435              	.LASF259:
 11436 148b 6F726967 		.ascii	"origo_align\000"
 11436      6F5F616C 
 11436      69676E00 
 11437              	.LASF309:
 11438 1497 6B6E6F62 		.ascii	"knob\000"
 11438      00
 11439              	.LASF369:
 11440 149c 6C765F63 		.ascii	"lv_cpicker_get_color_mode_fixed\000"
 11440      7069636B 
 11440      65725F67 
ARM GAS  C:\Users\tmj32\AppData\Local\Temp\cc11CUDk.s 			page 247


 11440      65745F63 
 11440      6F6C6F72 
 11441              	.LASF290:
 11442 14bc 4C565F4B 		.ascii	"LV_KEY_UP\000"
 11442      45595F55 
 11442      5000
 11443              	.LASF365:
 11444 14c6 66697865 		.ascii	"fixed\000"
 11444      6400
 11445              	.LASF76:
 11446 14cc 73656C5F 		.ascii	"sel_color\000"
 11446      636F6C6F 
 11446      7200
 11447              	.LASF98:
 11448 14d6 6C765F74 		.ascii	"lv_task_cb_t\000"
 11448      61736B5F 
 11448      63625F74 
 11448      00
 11449              	.LASF99:
 11450 14e3 5F6C765F 		.ascii	"_lv_font_struct\000"
 11450      666F6E74 
 11450      5F737472 
 11450      75637400 
 11451              	.LASF190:
 11452 14f3 74797065 		.ascii	"types\000"
 11452      7300
 11453              	.LASF64:
 11454 14f9 70617274 		.ascii	"part\000"
 11454      00
 11455              	.LASF93:
 11456 14fe 6E5F7369 		.ascii	"n_size\000"
 11456      7A6500
 11457              	.LASF200:
 11458 1505 63757273 		.ascii	"cursor\000"
 11458      6F7200
 11459              	.LASF422:
 11460 150c 5F6C765F 		.ascii	"_lv_group_t\000"
 11460      67726F75 
 11460      705F7400 
 11461              	.LASF216:
 11462 1518 4C565F45 		.ascii	"LV_EVENT_RELEASED\000"
 11462      56454E54 
 11462      5F52454C 
 11462      45415345 
 11462      4400
 11463              	.LASF278:
 11464 152a 636F6C6F 		.ascii	"colored\000"
 11464      72656400 
 11465              	.LASF288:
 11466 1532 4C565F43 		.ascii	"LV_CPICKER_STYLE_INDICATOR\000"
 11466      5049434B 
 11466      45525F53 
 11466      54594C45 
 11466      5F494E44 
 11467              	.LASF208:
 11468 154d 6C765F64 		.ascii	"lv_design_cb_t\000"
 11468      65736967 
ARM GAS  C:\Users\tmj32\AppData\Local\Temp\cc11CUDk.s 			page 248


 11468      6E5F6362 
 11468      5F7400
 11469              	.LASF45:
 11470 155c 4C565F4F 		.ascii	"LV_OPA_90\000"
 11470      50415F39 
 11470      3000
 11471              	.LASF368:
 11472 1566 6C765F63 		.ascii	"lv_cpicker_get_color_mode\000"
 11472      7069636B 
 11472      65725F67 
 11472      65745F63 
 11472      6F6C6F72 
 11473              	.LASF156:
 11474 1580 6F70615F 		.ascii	"opa_scale\000"
 11474      7363616C 
 11474      6500
 11475              	.LASF339:
 11476 158a 726F6C6C 		.ascii	"roller\000"
 11476      657200
 11477              		.ident	"GCC: (GNU Tools for ARM Embedded Processors) 5.4.1 20160609 (release) [ARM/embedded-5-bran
