ARM GAS  C:\Users\tmj32\AppData\Local\Temp\ccnLJfS3.s 			page 1


   1              		.syntax unified
   2              		.cpu cortex-m4
   3              		.eabi_attribute 27, 1
   4              		.fpu fpv4-sp-d16
   5              		.eabi_attribute 20, 1
   6              		.eabi_attribute 21, 1
   7              		.eabi_attribute 23, 3
   8              		.eabi_attribute 24, 1
   9              		.eabi_attribute 25, 1
  10              		.eabi_attribute 26, 1
  11              		.eabi_attribute 30, 6
  12              		.eabi_attribute 34, 1
  13              		.eabi_attribute 18, 4
  14              		.thumb
  15              		.syntax unified
  16              		.file	"lv_cont.c"
  17              		.text
  18              	.Ltext0:
  19              		.cfi_sections	.debug_frame
  20              		.section	.text.lv_area_copy,"ax",%progbits
  21              		.align	2
  22              		.thumb
  23              		.thumb_func
  24              		.type	lv_area_copy, %function
  25              	lv_area_copy:
  26              	.LFB10:
  27              		.file 1 "..\\..\\..\\lvgl\\version_6.1.2\\lvgl\\src\\lv_objx\\../lv_core/../lv_misc/lv_area.h"
   1:..\..\..\lvgl\version_6.1.2\lvgl\src\lv_objx\../lv_core/../lv_misc/lv_area.h **** /**
   2:..\..\..\lvgl\version_6.1.2\lvgl\src\lv_objx\../lv_core/../lv_misc/lv_area.h ****  * @file lv_area.h
   3:..\..\..\lvgl\version_6.1.2\lvgl\src\lv_objx\../lv_core/../lv_misc/lv_area.h ****  *
   4:..\..\..\lvgl\version_6.1.2\lvgl\src\lv_objx\../lv_core/../lv_misc/lv_area.h ****  */
   5:..\..\..\lvgl\version_6.1.2\lvgl\src\lv_objx\../lv_core/../lv_misc/lv_area.h **** 
   6:..\..\..\lvgl\version_6.1.2\lvgl\src\lv_objx\../lv_core/../lv_misc/lv_area.h **** #ifndef LV_AREA_H
   7:..\..\..\lvgl\version_6.1.2\lvgl\src\lv_objx\../lv_core/../lv_misc/lv_area.h **** #define LV_AREA_H
   8:..\..\..\lvgl\version_6.1.2\lvgl\src\lv_objx\../lv_core/../lv_misc/lv_area.h **** 
   9:..\..\..\lvgl\version_6.1.2\lvgl\src\lv_objx\../lv_core/../lv_misc/lv_area.h **** #ifdef __cplusplus
  10:..\..\..\lvgl\version_6.1.2\lvgl\src\lv_objx\../lv_core/../lv_misc/lv_area.h **** extern "C" {
  11:..\..\..\lvgl\version_6.1.2\lvgl\src\lv_objx\../lv_core/../lv_misc/lv_area.h **** #endif
  12:..\..\..\lvgl\version_6.1.2\lvgl\src\lv_objx\../lv_core/../lv_misc/lv_area.h **** 
  13:..\..\..\lvgl\version_6.1.2\lvgl\src\lv_objx\../lv_core/../lv_misc/lv_area.h **** /*********************
  14:..\..\..\lvgl\version_6.1.2\lvgl\src\lv_objx\../lv_core/../lv_misc/lv_area.h ****  *      INCLUDES
  15:..\..\..\lvgl\version_6.1.2\lvgl\src\lv_objx\../lv_core/../lv_misc/lv_area.h ****  *********************/
  16:..\..\..\lvgl\version_6.1.2\lvgl\src\lv_objx\../lv_core/../lv_misc/lv_area.h **** #include <string.h>
  17:..\..\..\lvgl\version_6.1.2\lvgl\src\lv_objx\../lv_core/../lv_misc/lv_area.h **** #include <stdbool.h>
  18:..\..\..\lvgl\version_6.1.2\lvgl\src\lv_objx\../lv_core/../lv_misc/lv_area.h **** #include <stdint.h>
  19:..\..\..\lvgl\version_6.1.2\lvgl\src\lv_objx\../lv_core/../lv_misc/lv_area.h **** #ifdef LV_CONF_INCLUDE_SIMPLE
  20:..\..\..\lvgl\version_6.1.2\lvgl\src\lv_objx\../lv_core/../lv_misc/lv_area.h **** #include "lv_conf.h"
  21:..\..\..\lvgl\version_6.1.2\lvgl\src\lv_objx\../lv_core/../lv_misc/lv_area.h **** #else
  22:..\..\..\lvgl\version_6.1.2\lvgl\src\lv_objx\../lv_core/../lv_misc/lv_area.h **** #include "../../../lv_conf.h"
  23:..\..\..\lvgl\version_6.1.2\lvgl\src\lv_objx\../lv_core/../lv_misc/lv_area.h **** #endif
  24:..\..\..\lvgl\version_6.1.2\lvgl\src\lv_objx\../lv_core/../lv_misc/lv_area.h **** 
  25:..\..\..\lvgl\version_6.1.2\lvgl\src\lv_objx\../lv_core/../lv_misc/lv_area.h **** /*********************
  26:..\..\..\lvgl\version_6.1.2\lvgl\src\lv_objx\../lv_core/../lv_misc/lv_area.h ****  *      DEFINES
  27:..\..\..\lvgl\version_6.1.2\lvgl\src\lv_objx\../lv_core/../lv_misc/lv_area.h ****  *********************/
  28:..\..\..\lvgl\version_6.1.2\lvgl\src\lv_objx\../lv_core/../lv_misc/lv_area.h **** /*To avoid overflow don't let the max ranges (reduce with 1000) */
  29:..\..\..\lvgl\version_6.1.2\lvgl\src\lv_objx\../lv_core/../lv_misc/lv_area.h **** #define LV_COORD_MAX ((lv_coord_t)((uint32_t)((uint32_t)1 << (8 * sizeof(lv_coord_t) - 1)) - 1000))
  30:..\..\..\lvgl\version_6.1.2\lvgl\src\lv_objx\../lv_core/../lv_misc/lv_area.h **** #define LV_COORD_MIN (-LV_COORD_MAX)
ARM GAS  C:\Users\tmj32\AppData\Local\Temp\ccnLJfS3.s 			page 2


  31:..\..\..\lvgl\version_6.1.2\lvgl\src\lv_objx\../lv_core/../lv_misc/lv_area.h **** 
  32:..\..\..\lvgl\version_6.1.2\lvgl\src\lv_objx\../lv_core/../lv_misc/lv_area.h **** LV_EXPORT_CONST_INT(LV_COORD_MAX);
  33:..\..\..\lvgl\version_6.1.2\lvgl\src\lv_objx\../lv_core/../lv_misc/lv_area.h **** LV_EXPORT_CONST_INT(LV_COORD_MIN);
  34:..\..\..\lvgl\version_6.1.2\lvgl\src\lv_objx\../lv_core/../lv_misc/lv_area.h **** 
  35:..\..\..\lvgl\version_6.1.2\lvgl\src\lv_objx\../lv_core/../lv_misc/lv_area.h **** /**********************
  36:..\..\..\lvgl\version_6.1.2\lvgl\src\lv_objx\../lv_core/../lv_misc/lv_area.h ****  *      TYPEDEFS
  37:..\..\..\lvgl\version_6.1.2\lvgl\src\lv_objx\../lv_core/../lv_misc/lv_area.h ****  **********************/
  38:..\..\..\lvgl\version_6.1.2\lvgl\src\lv_objx\../lv_core/../lv_misc/lv_area.h **** 
  39:..\..\..\lvgl\version_6.1.2\lvgl\src\lv_objx\../lv_core/../lv_misc/lv_area.h **** /**
  40:..\..\..\lvgl\version_6.1.2\lvgl\src\lv_objx\../lv_core/../lv_misc/lv_area.h ****  * Represents a point on the screen.
  41:..\..\..\lvgl\version_6.1.2\lvgl\src\lv_objx\../lv_core/../lv_misc/lv_area.h ****  */
  42:..\..\..\lvgl\version_6.1.2\lvgl\src\lv_objx\../lv_core/../lv_misc/lv_area.h **** typedef struct
  43:..\..\..\lvgl\version_6.1.2\lvgl\src\lv_objx\../lv_core/../lv_misc/lv_area.h **** {
  44:..\..\..\lvgl\version_6.1.2\lvgl\src\lv_objx\../lv_core/../lv_misc/lv_area.h ****     lv_coord_t x;
  45:..\..\..\lvgl\version_6.1.2\lvgl\src\lv_objx\../lv_core/../lv_misc/lv_area.h ****     lv_coord_t y;
  46:..\..\..\lvgl\version_6.1.2\lvgl\src\lv_objx\../lv_core/../lv_misc/lv_area.h **** } lv_point_t;
  47:..\..\..\lvgl\version_6.1.2\lvgl\src\lv_objx\../lv_core/../lv_misc/lv_area.h **** 
  48:..\..\..\lvgl\version_6.1.2\lvgl\src\lv_objx\../lv_core/../lv_misc/lv_area.h **** /** Represents an area of the screen. */
  49:..\..\..\lvgl\version_6.1.2\lvgl\src\lv_objx\../lv_core/../lv_misc/lv_area.h **** typedef struct
  50:..\..\..\lvgl\version_6.1.2\lvgl\src\lv_objx\../lv_core/../lv_misc/lv_area.h **** {
  51:..\..\..\lvgl\version_6.1.2\lvgl\src\lv_objx\../lv_core/../lv_misc/lv_area.h ****     lv_coord_t x1;
  52:..\..\..\lvgl\version_6.1.2\lvgl\src\lv_objx\../lv_core/../lv_misc/lv_area.h ****     lv_coord_t y1;
  53:..\..\..\lvgl\version_6.1.2\lvgl\src\lv_objx\../lv_core/../lv_misc/lv_area.h ****     lv_coord_t x2;
  54:..\..\..\lvgl\version_6.1.2\lvgl\src\lv_objx\../lv_core/../lv_misc/lv_area.h ****     lv_coord_t y2;
  55:..\..\..\lvgl\version_6.1.2\lvgl\src\lv_objx\../lv_core/../lv_misc/lv_area.h **** } lv_area_t;
  56:..\..\..\lvgl\version_6.1.2\lvgl\src\lv_objx\../lv_core/../lv_misc/lv_area.h **** 
  57:..\..\..\lvgl\version_6.1.2\lvgl\src\lv_objx\../lv_core/../lv_misc/lv_area.h **** /**********************
  58:..\..\..\lvgl\version_6.1.2\lvgl\src\lv_objx\../lv_core/../lv_misc/lv_area.h ****  * GLOBAL PROTOTYPES
  59:..\..\..\lvgl\version_6.1.2\lvgl\src\lv_objx\../lv_core/../lv_misc/lv_area.h ****  **********************/
  60:..\..\..\lvgl\version_6.1.2\lvgl\src\lv_objx\../lv_core/../lv_misc/lv_area.h **** 
  61:..\..\..\lvgl\version_6.1.2\lvgl\src\lv_objx\../lv_core/../lv_misc/lv_area.h **** /**
  62:..\..\..\lvgl\version_6.1.2\lvgl\src\lv_objx\../lv_core/../lv_misc/lv_area.h ****  * Initialize an area
  63:..\..\..\lvgl\version_6.1.2\lvgl\src\lv_objx\../lv_core/../lv_misc/lv_area.h ****  * @param area_p pointer to an area
  64:..\..\..\lvgl\version_6.1.2\lvgl\src\lv_objx\../lv_core/../lv_misc/lv_area.h ****  * @param x1 left coordinate of the area
  65:..\..\..\lvgl\version_6.1.2\lvgl\src\lv_objx\../lv_core/../lv_misc/lv_area.h ****  * @param y1 top coordinate of the area
  66:..\..\..\lvgl\version_6.1.2\lvgl\src\lv_objx\../lv_core/../lv_misc/lv_area.h ****  * @param x2 right coordinate of the area
  67:..\..\..\lvgl\version_6.1.2\lvgl\src\lv_objx\../lv_core/../lv_misc/lv_area.h ****  * @param y2 bottom coordinate of the area
  68:..\..\..\lvgl\version_6.1.2\lvgl\src\lv_objx\../lv_core/../lv_misc/lv_area.h ****  */
  69:..\..\..\lvgl\version_6.1.2\lvgl\src\lv_objx\../lv_core/../lv_misc/lv_area.h **** void lv_area_set(lv_area_t * area_p, lv_coord_t x1, lv_coord_t y1, lv_coord_t x2, lv_coord_t y2);
  70:..\..\..\lvgl\version_6.1.2\lvgl\src\lv_objx\../lv_core/../lv_misc/lv_area.h **** 
  71:..\..\..\lvgl\version_6.1.2\lvgl\src\lv_objx\../lv_core/../lv_misc/lv_area.h **** /**
  72:..\..\..\lvgl\version_6.1.2\lvgl\src\lv_objx\../lv_core/../lv_misc/lv_area.h ****  * Copy an area
  73:..\..\..\lvgl\version_6.1.2\lvgl\src\lv_objx\../lv_core/../lv_misc/lv_area.h ****  * @param dest pointer to the destination area
  74:..\..\..\lvgl\version_6.1.2\lvgl\src\lv_objx\../lv_core/../lv_misc/lv_area.h ****  * @param src pointer to the source area
  75:..\..\..\lvgl\version_6.1.2\lvgl\src\lv_objx\../lv_core/../lv_misc/lv_area.h ****  */
  76:..\..\..\lvgl\version_6.1.2\lvgl\src\lv_objx\../lv_core/../lv_misc/lv_area.h **** inline static void lv_area_copy(lv_area_t * dest, const lv_area_t * src)
  77:..\..\..\lvgl\version_6.1.2\lvgl\src\lv_objx\../lv_core/../lv_misc/lv_area.h **** {
  28              		.loc 1 77 0
  29              		.cfi_startproc
  30              		@ args = 0, pretend = 0, frame = 8
  31              		@ frame_needed = 1, uses_anonymous_args = 0
  32 0000 80B5     		push	{r7, lr}
  33              		.cfi_def_cfa_offset 8
  34              		.cfi_offset 7, -8
  35              		.cfi_offset 14, -4
  36 0002 82B0     		sub	sp, sp, #8
  37              		.cfi_def_cfa_offset 16
ARM GAS  C:\Users\tmj32\AppData\Local\Temp\ccnLJfS3.s 			page 3


  38 0004 00AF     		add	r7, sp, #0
  39              		.cfi_def_cfa_register 7
  40 0006 7860     		str	r0, [r7, #4]
  41 0008 3960     		str	r1, [r7]
  78:..\..\..\lvgl\version_6.1.2\lvgl\src\lv_objx\../lv_core/../lv_misc/lv_area.h ****     memcpy(dest, src, sizeof(lv_area_t));
  42              		.loc 1 78 0
  43 000a 0822     		movs	r2, #8
  44 000c 3968     		ldr	r1, [r7]
  45 000e 7868     		ldr	r0, [r7, #4]
  46 0010 FFF7FEFF 		bl	memcpy
  79:..\..\..\lvgl\version_6.1.2\lvgl\src\lv_objx\../lv_core/../lv_misc/lv_area.h **** }
  47              		.loc 1 79 0
  48 0014 00BF     		nop
  49 0016 0837     		adds	r7, r7, #8
  50              		.cfi_def_cfa_offset 8
  51 0018 BD46     		mov	sp, r7
  52              		.cfi_def_cfa_register 13
  53              		@ sp needed
  54 001a 80BD     		pop	{r7, pc}
  55              		.cfi_endproc
  56              	.LFE10:
  57              		.size	lv_area_copy, .-lv_area_copy
  58              		.section	.text.lv_area_get_width,"ax",%progbits
  59              		.align	2
  60              		.thumb
  61              		.thumb_func
  62              		.type	lv_area_get_width, %function
  63              	lv_area_get_width:
  64              	.LFB11:
  80:..\..\..\lvgl\version_6.1.2\lvgl\src\lv_objx\../lv_core/../lv_misc/lv_area.h **** 
  81:..\..\..\lvgl\version_6.1.2\lvgl\src\lv_objx\../lv_core/../lv_misc/lv_area.h **** /**
  82:..\..\..\lvgl\version_6.1.2\lvgl\src\lv_objx\../lv_core/../lv_misc/lv_area.h ****  * Get the width of an area
  83:..\..\..\lvgl\version_6.1.2\lvgl\src\lv_objx\../lv_core/../lv_misc/lv_area.h ****  * @param area_p pointer to an area
  84:..\..\..\lvgl\version_6.1.2\lvgl\src\lv_objx\../lv_core/../lv_misc/lv_area.h ****  * @return the width of the area (if x1 == x2 -> width = 1)
  85:..\..\..\lvgl\version_6.1.2\lvgl\src\lv_objx\../lv_core/../lv_misc/lv_area.h ****  */
  86:..\..\..\lvgl\version_6.1.2\lvgl\src\lv_objx\../lv_core/../lv_misc/lv_area.h **** static inline lv_coord_t lv_area_get_width(const lv_area_t * area_p)
  87:..\..\..\lvgl\version_6.1.2\lvgl\src\lv_objx\../lv_core/../lv_misc/lv_area.h **** {
  65              		.loc 1 87 0
  66              		.cfi_startproc
  67              		@ args = 0, pretend = 0, frame = 8
  68              		@ frame_needed = 1, uses_anonymous_args = 0
  69              		@ link register save eliminated.
  70 0000 80B4     		push	{r7}
  71              		.cfi_def_cfa_offset 4
  72              		.cfi_offset 7, -4
  73 0002 83B0     		sub	sp, sp, #12
  74              		.cfi_def_cfa_offset 16
  75 0004 00AF     		add	r7, sp, #0
  76              		.cfi_def_cfa_register 7
  77 0006 7860     		str	r0, [r7, #4]
  88:..\..\..\lvgl\version_6.1.2\lvgl\src\lv_objx\../lv_core/../lv_misc/lv_area.h ****     return (lv_coord_t)(area_p->x2 - area_p->x1 + 1);
  78              		.loc 1 88 0
  79 0008 7B68     		ldr	r3, [r7, #4]
  80 000a B3F90430 		ldrsh	r3, [r3, #4]
  81 000e 9AB2     		uxth	r2, r3
  82 0010 7B68     		ldr	r3, [r7, #4]
  83 0012 B3F90030 		ldrsh	r3, [r3]
ARM GAS  C:\Users\tmj32\AppData\Local\Temp\ccnLJfS3.s 			page 4


  84 0016 9BB2     		uxth	r3, r3
  85 0018 D31A     		subs	r3, r2, r3
  86 001a 9BB2     		uxth	r3, r3
  87 001c 0133     		adds	r3, r3, #1
  88 001e 9BB2     		uxth	r3, r3
  89 0020 1BB2     		sxth	r3, r3
  89:..\..\..\lvgl\version_6.1.2\lvgl\src\lv_objx\../lv_core/../lv_misc/lv_area.h **** }
  90              		.loc 1 89 0
  91 0022 1846     		mov	r0, r3
  92 0024 0C37     		adds	r7, r7, #12
  93              		.cfi_def_cfa_offset 4
  94 0026 BD46     		mov	sp, r7
  95              		.cfi_def_cfa_register 13
  96              		@ sp needed
  97 0028 5DF8047B 		ldr	r7, [sp], #4
  98              		.cfi_restore 7
  99              		.cfi_def_cfa_offset 0
 100 002c 7047     		bx	lr
 101              		.cfi_endproc
 102              	.LFE11:
 103              		.size	lv_area_get_width, .-lv_area_get_width
 104 002e 00BF     		.section	.text.lv_area_get_height,"ax",%progbits
 105              		.align	2
 106              		.thumb
 107              		.thumb_func
 108              		.type	lv_area_get_height, %function
 109              	lv_area_get_height:
 110              	.LFB12:
  90:..\..\..\lvgl\version_6.1.2\lvgl\src\lv_objx\../lv_core/../lv_misc/lv_area.h **** 
  91:..\..\..\lvgl\version_6.1.2\lvgl\src\lv_objx\../lv_core/../lv_misc/lv_area.h **** /**
  92:..\..\..\lvgl\version_6.1.2\lvgl\src\lv_objx\../lv_core/../lv_misc/lv_area.h ****  * Get the height of an area
  93:..\..\..\lvgl\version_6.1.2\lvgl\src\lv_objx\../lv_core/../lv_misc/lv_area.h ****  * @param area_p pointer to an area
  94:..\..\..\lvgl\version_6.1.2\lvgl\src\lv_objx\../lv_core/../lv_misc/lv_area.h ****  * @return the height of the area (if y1 == y2 -> height = 1)
  95:..\..\..\lvgl\version_6.1.2\lvgl\src\lv_objx\../lv_core/../lv_misc/lv_area.h ****  */
  96:..\..\..\lvgl\version_6.1.2\lvgl\src\lv_objx\../lv_core/../lv_misc/lv_area.h **** static inline lv_coord_t lv_area_get_height(const lv_area_t * area_p)
  97:..\..\..\lvgl\version_6.1.2\lvgl\src\lv_objx\../lv_core/../lv_misc/lv_area.h **** {
 111              		.loc 1 97 0
 112              		.cfi_startproc
 113              		@ args = 0, pretend = 0, frame = 8
 114              		@ frame_needed = 1, uses_anonymous_args = 0
 115              		@ link register save eliminated.
 116 0000 80B4     		push	{r7}
 117              		.cfi_def_cfa_offset 4
 118              		.cfi_offset 7, -4
 119 0002 83B0     		sub	sp, sp, #12
 120              		.cfi_def_cfa_offset 16
 121 0004 00AF     		add	r7, sp, #0
 122              		.cfi_def_cfa_register 7
 123 0006 7860     		str	r0, [r7, #4]
  98:..\..\..\lvgl\version_6.1.2\lvgl\src\lv_objx\../lv_core/../lv_misc/lv_area.h ****     return (lv_coord_t)(area_p->y2 - area_p->y1 + 1);
 124              		.loc 1 98 0
 125 0008 7B68     		ldr	r3, [r7, #4]
 126 000a B3F90630 		ldrsh	r3, [r3, #6]
 127 000e 9AB2     		uxth	r2, r3
 128 0010 7B68     		ldr	r3, [r7, #4]
 129 0012 B3F90230 		ldrsh	r3, [r3, #2]
 130 0016 9BB2     		uxth	r3, r3
ARM GAS  C:\Users\tmj32\AppData\Local\Temp\ccnLJfS3.s 			page 5


 131 0018 D31A     		subs	r3, r2, r3
 132 001a 9BB2     		uxth	r3, r3
 133 001c 0133     		adds	r3, r3, #1
 134 001e 9BB2     		uxth	r3, r3
 135 0020 1BB2     		sxth	r3, r3
  99:..\..\..\lvgl\version_6.1.2\lvgl\src\lv_objx\../lv_core/../lv_misc/lv_area.h **** }
 136              		.loc 1 99 0
 137 0022 1846     		mov	r0, r3
 138 0024 0C37     		adds	r7, r7, #12
 139              		.cfi_def_cfa_offset 4
 140 0026 BD46     		mov	sp, r7
 141              		.cfi_def_cfa_register 13
 142              		@ sp needed
 143 0028 5DF8047B 		ldr	r7, [sp], #4
 144              		.cfi_restore 7
 145              		.cfi_def_cfa_offset 0
 146 002c 7047     		bx	lr
 147              		.cfi_endproc
 148              	.LFE12:
 149              		.size	lv_area_get_height, .-lv_area_get_height
 150 002e 00BF     		.section	.text.lv_cont_set_style,"ax",%progbits
 151              		.align	2
 152              		.thumb
 153              		.thumb_func
 154              		.type	lv_cont_set_style, %function
 155              	lv_cont_set_style:
 156              	.LFB33:
 157              		.file 2 "..\\..\\..\\lvgl\\version_6.1.2\\lvgl\\src\\lv_objx\\lv_cont.h"
   1:..\..\..\lvgl\version_6.1.2\lvgl\src\lv_objx/lv_cont.h **** /**
   2:..\..\..\lvgl\version_6.1.2\lvgl\src\lv_objx/lv_cont.h ****  * @file lv_cont.h
   3:..\..\..\lvgl\version_6.1.2\lvgl\src\lv_objx/lv_cont.h ****  *
   4:..\..\..\lvgl\version_6.1.2\lvgl\src\lv_objx/lv_cont.h ****  */
   5:..\..\..\lvgl\version_6.1.2\lvgl\src\lv_objx/lv_cont.h **** 
   6:..\..\..\lvgl\version_6.1.2\lvgl\src\lv_objx/lv_cont.h **** #ifndef LV_CONT_H
   7:..\..\..\lvgl\version_6.1.2\lvgl\src\lv_objx/lv_cont.h **** #define LV_CONT_H
   8:..\..\..\lvgl\version_6.1.2\lvgl\src\lv_objx/lv_cont.h **** 
   9:..\..\..\lvgl\version_6.1.2\lvgl\src\lv_objx/lv_cont.h **** #ifdef __cplusplus
  10:..\..\..\lvgl\version_6.1.2\lvgl\src\lv_objx/lv_cont.h **** extern "C" {
  11:..\..\..\lvgl\version_6.1.2\lvgl\src\lv_objx/lv_cont.h **** #endif
  12:..\..\..\lvgl\version_6.1.2\lvgl\src\lv_objx/lv_cont.h **** 
  13:..\..\..\lvgl\version_6.1.2\lvgl\src\lv_objx/lv_cont.h **** /*********************
  14:..\..\..\lvgl\version_6.1.2\lvgl\src\lv_objx/lv_cont.h ****  *      INCLUDES
  15:..\..\..\lvgl\version_6.1.2\lvgl\src\lv_objx/lv_cont.h ****  *********************/
  16:..\..\..\lvgl\version_6.1.2\lvgl\src\lv_objx/lv_cont.h **** #ifdef LV_CONF_INCLUDE_SIMPLE
  17:..\..\..\lvgl\version_6.1.2\lvgl\src\lv_objx/lv_cont.h **** #include "lv_conf.h"
  18:..\..\..\lvgl\version_6.1.2\lvgl\src\lv_objx/lv_cont.h **** #else
  19:..\..\..\lvgl\version_6.1.2\lvgl\src\lv_objx/lv_cont.h **** #include "../../../lv_conf.h"
  20:..\..\..\lvgl\version_6.1.2\lvgl\src\lv_objx/lv_cont.h **** #endif
  21:..\..\..\lvgl\version_6.1.2\lvgl\src\lv_objx/lv_cont.h **** 
  22:..\..\..\lvgl\version_6.1.2\lvgl\src\lv_objx/lv_cont.h **** #if LV_USE_CONT != 0
  23:..\..\..\lvgl\version_6.1.2\lvgl\src\lv_objx/lv_cont.h **** 
  24:..\..\..\lvgl\version_6.1.2\lvgl\src\lv_objx/lv_cont.h **** #include "../lv_core/lv_obj.h"
  25:..\..\..\lvgl\version_6.1.2\lvgl\src\lv_objx/lv_cont.h **** 
  26:..\..\..\lvgl\version_6.1.2\lvgl\src\lv_objx/lv_cont.h **** /*********************
  27:..\..\..\lvgl\version_6.1.2\lvgl\src\lv_objx/lv_cont.h ****  *      DEFINES
  28:..\..\..\lvgl\version_6.1.2\lvgl\src\lv_objx/lv_cont.h ****  *********************/
  29:..\..\..\lvgl\version_6.1.2\lvgl\src\lv_objx/lv_cont.h **** 
ARM GAS  C:\Users\tmj32\AppData\Local\Temp\ccnLJfS3.s 			page 6


  30:..\..\..\lvgl\version_6.1.2\lvgl\src\lv_objx/lv_cont.h **** /**********************
  31:..\..\..\lvgl\version_6.1.2\lvgl\src\lv_objx/lv_cont.h ****  *      TYPEDEFS
  32:..\..\..\lvgl\version_6.1.2\lvgl\src\lv_objx/lv_cont.h ****  **********************/
  33:..\..\..\lvgl\version_6.1.2\lvgl\src\lv_objx/lv_cont.h **** 
  34:..\..\..\lvgl\version_6.1.2\lvgl\src\lv_objx/lv_cont.h **** /** Container layout options*/
  35:..\..\..\lvgl\version_6.1.2\lvgl\src\lv_objx/lv_cont.h **** enum {
  36:..\..\..\lvgl\version_6.1.2\lvgl\src\lv_objx/lv_cont.h ****     LV_LAYOUT_OFF = 0, /**< No layout */
  37:..\..\..\lvgl\version_6.1.2\lvgl\src\lv_objx/lv_cont.h ****     LV_LAYOUT_CENTER, /**< Center objects */
  38:..\..\..\lvgl\version_6.1.2\lvgl\src\lv_objx/lv_cont.h ****     LV_LAYOUT_COL_L,  /**< Column left align*/
  39:..\..\..\lvgl\version_6.1.2\lvgl\src\lv_objx/lv_cont.h ****     LV_LAYOUT_COL_M,  /**< Column middle align*/
  40:..\..\..\lvgl\version_6.1.2\lvgl\src\lv_objx/lv_cont.h ****     LV_LAYOUT_COL_R,  /**< Column right align*/
  41:..\..\..\lvgl\version_6.1.2\lvgl\src\lv_objx/lv_cont.h ****     LV_LAYOUT_ROW_T,  /**< Row top align*/
  42:..\..\..\lvgl\version_6.1.2\lvgl\src\lv_objx/lv_cont.h ****     LV_LAYOUT_ROW_M,  /**< Row middle align*/
  43:..\..\..\lvgl\version_6.1.2\lvgl\src\lv_objx/lv_cont.h ****     LV_LAYOUT_ROW_B,  /**< Row bottom align*/
  44:..\..\..\lvgl\version_6.1.2\lvgl\src\lv_objx/lv_cont.h ****     LV_LAYOUT_PRETTY, /**< Put as many object as possible in row and begin a new row*/
  45:..\..\..\lvgl\version_6.1.2\lvgl\src\lv_objx/lv_cont.h ****     LV_LAYOUT_GRID,   /**< Align same-sized object into a grid*/
  46:..\..\..\lvgl\version_6.1.2\lvgl\src\lv_objx/lv_cont.h ****     _LV_LAYOUT_NUM
  47:..\..\..\lvgl\version_6.1.2\lvgl\src\lv_objx/lv_cont.h **** };
  48:..\..\..\lvgl\version_6.1.2\lvgl\src\lv_objx/lv_cont.h **** typedef uint8_t lv_layout_t;
  49:..\..\..\lvgl\version_6.1.2\lvgl\src\lv_objx/lv_cont.h **** 
  50:..\..\..\lvgl\version_6.1.2\lvgl\src\lv_objx/lv_cont.h **** /**
  51:..\..\..\lvgl\version_6.1.2\lvgl\src\lv_objx/lv_cont.h ****  * How to resize the container around the children.
  52:..\..\..\lvgl\version_6.1.2\lvgl\src\lv_objx/lv_cont.h ****  */
  53:..\..\..\lvgl\version_6.1.2\lvgl\src\lv_objx/lv_cont.h **** enum {
  54:..\..\..\lvgl\version_6.1.2\lvgl\src\lv_objx/lv_cont.h ****     LV_FIT_NONE,  /**< Do not change the size automatically*/
  55:..\..\..\lvgl\version_6.1.2\lvgl\src\lv_objx/lv_cont.h ****     LV_FIT_TIGHT, /**< Shrink wrap around the children */
  56:..\..\..\lvgl\version_6.1.2\lvgl\src\lv_objx/lv_cont.h ****     LV_FIT_FLOOD, /**< Align the size to the parent's edge*/
  57:..\..\..\lvgl\version_6.1.2\lvgl\src\lv_objx/lv_cont.h ****     LV_FIT_FILL,  /**< Align the size to the parent's edge first but if there is an object out of i
  58:..\..\..\lvgl\version_6.1.2\lvgl\src\lv_objx/lv_cont.h ****                      then get larger */
  59:..\..\..\lvgl\version_6.1.2\lvgl\src\lv_objx/lv_cont.h ****     _LV_FIT_NUM
  60:..\..\..\lvgl\version_6.1.2\lvgl\src\lv_objx/lv_cont.h **** };
  61:..\..\..\lvgl\version_6.1.2\lvgl\src\lv_objx/lv_cont.h **** typedef uint8_t lv_fit_t;
  62:..\..\..\lvgl\version_6.1.2\lvgl\src\lv_objx/lv_cont.h **** 
  63:..\..\..\lvgl\version_6.1.2\lvgl\src\lv_objx/lv_cont.h **** typedef struct
  64:..\..\..\lvgl\version_6.1.2\lvgl\src\lv_objx/lv_cont.h **** {
  65:..\..\..\lvgl\version_6.1.2\lvgl\src\lv_objx/lv_cont.h ****     /*Inherited from 'base_obj' so no inherited ext. */ /*Ext. of ancestor*/
  66:..\..\..\lvgl\version_6.1.2\lvgl\src\lv_objx/lv_cont.h ****     /*New data for this type */
  67:..\..\..\lvgl\version_6.1.2\lvgl\src\lv_objx/lv_cont.h ****     uint8_t layout : 4;     /*A layout from 'lv_layout_t' enum*/
  68:..\..\..\lvgl\version_6.1.2\lvgl\src\lv_objx/lv_cont.h ****     uint8_t fit_left : 2;   /*A fit type from `lv_fit_t` enum */
  69:..\..\..\lvgl\version_6.1.2\lvgl\src\lv_objx/lv_cont.h ****     uint8_t fit_right : 2;  /*A fit type from `lv_fit_t` enum */
  70:..\..\..\lvgl\version_6.1.2\lvgl\src\lv_objx/lv_cont.h ****     uint8_t fit_top : 2;    /*A fit type from `lv_fit_t` enum */
  71:..\..\..\lvgl\version_6.1.2\lvgl\src\lv_objx/lv_cont.h ****     uint8_t fit_bottom : 2; /*A fit type from `lv_fit_t` enum */
  72:..\..\..\lvgl\version_6.1.2\lvgl\src\lv_objx/lv_cont.h **** } lv_cont_ext_t;
  73:..\..\..\lvgl\version_6.1.2\lvgl\src\lv_objx/lv_cont.h **** 
  74:..\..\..\lvgl\version_6.1.2\lvgl\src\lv_objx/lv_cont.h **** /*Styles*/
  75:..\..\..\lvgl\version_6.1.2\lvgl\src\lv_objx/lv_cont.h **** enum {
  76:..\..\..\lvgl\version_6.1.2\lvgl\src\lv_objx/lv_cont.h ****     LV_CONT_STYLE_MAIN,
  77:..\..\..\lvgl\version_6.1.2\lvgl\src\lv_objx/lv_cont.h **** };
  78:..\..\..\lvgl\version_6.1.2\lvgl\src\lv_objx/lv_cont.h **** typedef uint8_t lv_cont_style_t;
  79:..\..\..\lvgl\version_6.1.2\lvgl\src\lv_objx/lv_cont.h **** 
  80:..\..\..\lvgl\version_6.1.2\lvgl\src\lv_objx/lv_cont.h **** /**********************
  81:..\..\..\lvgl\version_6.1.2\lvgl\src\lv_objx/lv_cont.h ****  * GLOBAL PROTOTYPES
  82:..\..\..\lvgl\version_6.1.2\lvgl\src\lv_objx/lv_cont.h ****  **********************/
  83:..\..\..\lvgl\version_6.1.2\lvgl\src\lv_objx/lv_cont.h **** 
  84:..\..\..\lvgl\version_6.1.2\lvgl\src\lv_objx/lv_cont.h **** /**
  85:..\..\..\lvgl\version_6.1.2\lvgl\src\lv_objx/lv_cont.h ****  * Create a container objects
  86:..\..\..\lvgl\version_6.1.2\lvgl\src\lv_objx/lv_cont.h ****  * @param par pointer to an object, it will be the parent of the new container
ARM GAS  C:\Users\tmj32\AppData\Local\Temp\ccnLJfS3.s 			page 7


  87:..\..\..\lvgl\version_6.1.2\lvgl\src\lv_objx/lv_cont.h ****  * @param copy pointer to a container object, if not NULL then the new object will be copied from i
  88:..\..\..\lvgl\version_6.1.2\lvgl\src\lv_objx/lv_cont.h ****  * @return pointer to the created container
  89:..\..\..\lvgl\version_6.1.2\lvgl\src\lv_objx/lv_cont.h ****  */
  90:..\..\..\lvgl\version_6.1.2\lvgl\src\lv_objx/lv_cont.h **** lv_obj_t * lv_cont_create(lv_obj_t * par, const lv_obj_t * copy);
  91:..\..\..\lvgl\version_6.1.2\lvgl\src\lv_objx/lv_cont.h **** 
  92:..\..\..\lvgl\version_6.1.2\lvgl\src\lv_objx/lv_cont.h **** /*=====================
  93:..\..\..\lvgl\version_6.1.2\lvgl\src\lv_objx/lv_cont.h ****  * Setter functions
  94:..\..\..\lvgl\version_6.1.2\lvgl\src\lv_objx/lv_cont.h ****  *====================*/
  95:..\..\..\lvgl\version_6.1.2\lvgl\src\lv_objx/lv_cont.h **** 
  96:..\..\..\lvgl\version_6.1.2\lvgl\src\lv_objx/lv_cont.h **** /**
  97:..\..\..\lvgl\version_6.1.2\lvgl\src\lv_objx/lv_cont.h ****  * Set a layout on a container
  98:..\..\..\lvgl\version_6.1.2\lvgl\src\lv_objx/lv_cont.h ****  * @param cont pointer to a container object
  99:..\..\..\lvgl\version_6.1.2\lvgl\src\lv_objx/lv_cont.h ****  * @param layout a layout from 'lv_cont_layout_t'
 100:..\..\..\lvgl\version_6.1.2\lvgl\src\lv_objx/lv_cont.h ****  */
 101:..\..\..\lvgl\version_6.1.2\lvgl\src\lv_objx/lv_cont.h **** void lv_cont_set_layout(lv_obj_t * cont, lv_layout_t layout);
 102:..\..\..\lvgl\version_6.1.2\lvgl\src\lv_objx/lv_cont.h **** 
 103:..\..\..\lvgl\version_6.1.2\lvgl\src\lv_objx/lv_cont.h **** /**
 104:..\..\..\lvgl\version_6.1.2\lvgl\src\lv_objx/lv_cont.h ****  * Set the fit policy in all 4 directions separately.
 105:..\..\..\lvgl\version_6.1.2\lvgl\src\lv_objx/lv_cont.h ****  * It tell how to change the container's size automatically.
 106:..\..\..\lvgl\version_6.1.2\lvgl\src\lv_objx/lv_cont.h ****  * @param cont pointer to a container object
 107:..\..\..\lvgl\version_6.1.2\lvgl\src\lv_objx/lv_cont.h ****  * @param left left fit policy from `lv_fit_t`
 108:..\..\..\lvgl\version_6.1.2\lvgl\src\lv_objx/lv_cont.h ****  * @param right right fit policy from `lv_fit_t`
 109:..\..\..\lvgl\version_6.1.2\lvgl\src\lv_objx/lv_cont.h ****  * @param top top fit policy from `lv_fit_t`
 110:..\..\..\lvgl\version_6.1.2\lvgl\src\lv_objx/lv_cont.h ****  * @param bottom bottom fit policy from `lv_fit_t`
 111:..\..\..\lvgl\version_6.1.2\lvgl\src\lv_objx/lv_cont.h ****  */
 112:..\..\..\lvgl\version_6.1.2\lvgl\src\lv_objx/lv_cont.h **** void lv_cont_set_fit4(lv_obj_t * cont, lv_fit_t left, lv_fit_t right, lv_fit_t top, lv_fit_t bottom
 113:..\..\..\lvgl\version_6.1.2\lvgl\src\lv_objx/lv_cont.h **** 
 114:..\..\..\lvgl\version_6.1.2\lvgl\src\lv_objx/lv_cont.h **** /**
 115:..\..\..\lvgl\version_6.1.2\lvgl\src\lv_objx/lv_cont.h ****  * Set the fit policy horizontally and vertically separately.
 116:..\..\..\lvgl\version_6.1.2\lvgl\src\lv_objx/lv_cont.h ****  * It tells how to change the container's size automatically.
 117:..\..\..\lvgl\version_6.1.2\lvgl\src\lv_objx/lv_cont.h ****  * @param cont pointer to a container object
 118:..\..\..\lvgl\version_6.1.2\lvgl\src\lv_objx/lv_cont.h ****  * @param hor horizontal fit policy from `lv_fit_t`
 119:..\..\..\lvgl\version_6.1.2\lvgl\src\lv_objx/lv_cont.h ****  * @param ver vertical fit policy from `lv_fit_t`
 120:..\..\..\lvgl\version_6.1.2\lvgl\src\lv_objx/lv_cont.h ****  */
 121:..\..\..\lvgl\version_6.1.2\lvgl\src\lv_objx/lv_cont.h **** static inline void lv_cont_set_fit2(lv_obj_t * cont, lv_fit_t hor, lv_fit_t ver)
 122:..\..\..\lvgl\version_6.1.2\lvgl\src\lv_objx/lv_cont.h **** {
 123:..\..\..\lvgl\version_6.1.2\lvgl\src\lv_objx/lv_cont.h ****     lv_cont_set_fit4(cont, hor, hor, ver, ver);
 124:..\..\..\lvgl\version_6.1.2\lvgl\src\lv_objx/lv_cont.h **** }
 125:..\..\..\lvgl\version_6.1.2\lvgl\src\lv_objx/lv_cont.h **** 
 126:..\..\..\lvgl\version_6.1.2\lvgl\src\lv_objx/lv_cont.h **** /**
 127:..\..\..\lvgl\version_6.1.2\lvgl\src\lv_objx/lv_cont.h ****  * Set the fit policy in all 4 direction at once.
 128:..\..\..\lvgl\version_6.1.2\lvgl\src\lv_objx/lv_cont.h ****  * It tells how to change the container's size automatically.
 129:..\..\..\lvgl\version_6.1.2\lvgl\src\lv_objx/lv_cont.h ****  * @param cont pointer to a container object
 130:..\..\..\lvgl\version_6.1.2\lvgl\src\lv_objx/lv_cont.h ****  * @param fit fit policy from `lv_fit_t`
 131:..\..\..\lvgl\version_6.1.2\lvgl\src\lv_objx/lv_cont.h ****  */
 132:..\..\..\lvgl\version_6.1.2\lvgl\src\lv_objx/lv_cont.h **** static inline void lv_cont_set_fit(lv_obj_t * cont, lv_fit_t fit)
 133:..\..\..\lvgl\version_6.1.2\lvgl\src\lv_objx/lv_cont.h **** {
 134:..\..\..\lvgl\version_6.1.2\lvgl\src\lv_objx/lv_cont.h ****     lv_cont_set_fit4(cont, fit, fit, fit, fit);
 135:..\..\..\lvgl\version_6.1.2\lvgl\src\lv_objx/lv_cont.h **** }
 136:..\..\..\lvgl\version_6.1.2\lvgl\src\lv_objx/lv_cont.h **** 
 137:..\..\..\lvgl\version_6.1.2\lvgl\src\lv_objx/lv_cont.h **** /**
 138:..\..\..\lvgl\version_6.1.2\lvgl\src\lv_objx/lv_cont.h ****  * Set the style of a container
 139:..\..\..\lvgl\version_6.1.2\lvgl\src\lv_objx/lv_cont.h ****  * @param cont pointer to a container object
 140:..\..\..\lvgl\version_6.1.2\lvgl\src\lv_objx/lv_cont.h ****  * @param type which style should be set (can be only `LV_CONT_STYLE_MAIN`)
 141:..\..\..\lvgl\version_6.1.2\lvgl\src\lv_objx/lv_cont.h ****  * @param style pointer to the new style
 142:..\..\..\lvgl\version_6.1.2\lvgl\src\lv_objx/lv_cont.h ****  */
 143:..\..\..\lvgl\version_6.1.2\lvgl\src\lv_objx/lv_cont.h **** static inline void lv_cont_set_style(lv_obj_t * cont, lv_cont_style_t type, const lv_style_t * styl
ARM GAS  C:\Users\tmj32\AppData\Local\Temp\ccnLJfS3.s 			page 8


 144:..\..\..\lvgl\version_6.1.2\lvgl\src\lv_objx/lv_cont.h **** {
 158              		.loc 2 144 0
 159              		.cfi_startproc
 160              		@ args = 0, pretend = 0, frame = 16
 161              		@ frame_needed = 1, uses_anonymous_args = 0
 162 0000 80B5     		push	{r7, lr}
 163              		.cfi_def_cfa_offset 8
 164              		.cfi_offset 7, -8
 165              		.cfi_offset 14, -4
 166 0002 84B0     		sub	sp, sp, #16
 167              		.cfi_def_cfa_offset 24
 168 0004 00AF     		add	r7, sp, #0
 169              		.cfi_def_cfa_register 7
 170 0006 F860     		str	r0, [r7, #12]
 171 0008 0B46     		mov	r3, r1
 172 000a 7A60     		str	r2, [r7, #4]
 173 000c FB72     		strb	r3, [r7, #11]
 145:..\..\..\lvgl\version_6.1.2\lvgl\src\lv_objx/lv_cont.h ****     (void)type; /*Unused*/
 146:..\..\..\lvgl\version_6.1.2\lvgl\src\lv_objx/lv_cont.h ****     lv_obj_set_style(cont, style);
 174              		.loc 2 146 0
 175 000e 7968     		ldr	r1, [r7, #4]
 176 0010 F868     		ldr	r0, [r7, #12]
 177 0012 FFF7FEFF 		bl	lv_obj_set_style
 147:..\..\..\lvgl\version_6.1.2\lvgl\src\lv_objx/lv_cont.h **** }
 178              		.loc 2 147 0
 179 0016 00BF     		nop
 180 0018 1037     		adds	r7, r7, #16
 181              		.cfi_def_cfa_offset 8
 182 001a BD46     		mov	sp, r7
 183              		.cfi_def_cfa_register 13
 184              		@ sp needed
 185 001c 80BD     		pop	{r7, pc}
 186              		.cfi_endproc
 187              	.LFE33:
 188              		.size	lv_cont_set_style, .-lv_cont_set_style
 189 001e 00BF     		.bss
 190              		.align	2
 191              	ancestor_signal:
 192 0000 00000000 		.space	4
 193              		.section	.text.lv_cont_create,"ax",%progbits
 194              		.align	2
 195              		.global	lv_cont_create
 196              		.thumb
 197              		.thumb_func
 198              		.type	lv_cont_create, %function
 199              	lv_cont_create:
 200              	.LFB35:
 201              		.file 3 "..\\..\\..\\lvgl\\version_6.1.2\\lvgl\\src\\lv_objx\\lv_cont.c"
   1:..\..\..\lvgl\version_6.1.2\lvgl\src\lv_objx/lv_cont.c **** /**
   2:..\..\..\lvgl\version_6.1.2\lvgl\src\lv_objx/lv_cont.c ****  * @file lv_cont.c
   3:..\..\..\lvgl\version_6.1.2\lvgl\src\lv_objx/lv_cont.c ****  *
   4:..\..\..\lvgl\version_6.1.2\lvgl\src\lv_objx/lv_cont.c ****  */
   5:..\..\..\lvgl\version_6.1.2\lvgl\src\lv_objx/lv_cont.c **** 
   6:..\..\..\lvgl\version_6.1.2\lvgl\src\lv_objx/lv_cont.c **** /*********************
   7:..\..\..\lvgl\version_6.1.2\lvgl\src\lv_objx/lv_cont.c ****  *      INCLUDES
   8:..\..\..\lvgl\version_6.1.2\lvgl\src\lv_objx/lv_cont.c ****  *********************/
   9:..\..\..\lvgl\version_6.1.2\lvgl\src\lv_objx/lv_cont.c **** 
ARM GAS  C:\Users\tmj32\AppData\Local\Temp\ccnLJfS3.s 			page 9


  10:..\..\..\lvgl\version_6.1.2\lvgl\src\lv_objx/lv_cont.c **** #include "lv_cont.h"
  11:..\..\..\lvgl\version_6.1.2\lvgl\src\lv_objx/lv_cont.c **** #if LV_USE_CONT != 0
  12:..\..\..\lvgl\version_6.1.2\lvgl\src\lv_objx/lv_cont.c **** 
  13:..\..\..\lvgl\version_6.1.2\lvgl\src\lv_objx/lv_cont.c **** #include <stdbool.h>
  14:..\..\..\lvgl\version_6.1.2\lvgl\src\lv_objx/lv_cont.c **** #include <stdint.h>
  15:..\..\..\lvgl\version_6.1.2\lvgl\src\lv_objx/lv_cont.c **** #include <string.h>
  16:..\..\..\lvgl\version_6.1.2\lvgl\src\lv_objx/lv_cont.c **** 
  17:..\..\..\lvgl\version_6.1.2\lvgl\src\lv_objx/lv_cont.c **** #include "../lv_core/lv_debug.h"
  18:..\..\..\lvgl\version_6.1.2\lvgl\src\lv_objx/lv_cont.c **** #include "../lv_draw/lv_draw.h"
  19:..\..\..\lvgl\version_6.1.2\lvgl\src\lv_objx/lv_cont.c **** #include "../lv_draw/lv_draw_basic.h"
  20:..\..\..\lvgl\version_6.1.2\lvgl\src\lv_objx/lv_cont.c **** #include "../lv_themes/lv_theme.h"
  21:..\..\..\lvgl\version_6.1.2\lvgl\src\lv_objx/lv_cont.c **** #include "../lv_misc/lv_area.h"
  22:..\..\..\lvgl\version_6.1.2\lvgl\src\lv_objx/lv_cont.c **** #include "../lv_misc/lv_color.h"
  23:..\..\..\lvgl\version_6.1.2\lvgl\src\lv_objx/lv_cont.c **** #include "../lv_misc/lv_math.h"
  24:..\..\..\lvgl\version_6.1.2\lvgl\src\lv_objx/lv_cont.c **** #include "../lv_misc/lv_bidi.h"
  25:..\..\..\lvgl\version_6.1.2\lvgl\src\lv_objx/lv_cont.c **** 
  26:..\..\..\lvgl\version_6.1.2\lvgl\src\lv_objx/lv_cont.c **** /*********************
  27:..\..\..\lvgl\version_6.1.2\lvgl\src\lv_objx/lv_cont.c ****  *      DEFINES
  28:..\..\..\lvgl\version_6.1.2\lvgl\src\lv_objx/lv_cont.c ****  *********************/
  29:..\..\..\lvgl\version_6.1.2\lvgl\src\lv_objx/lv_cont.c **** #define LV_OBJX_NAME "lv_cont"
  30:..\..\..\lvgl\version_6.1.2\lvgl\src\lv_objx/lv_cont.c **** 
  31:..\..\..\lvgl\version_6.1.2\lvgl\src\lv_objx/lv_cont.c **** /**********************
  32:..\..\..\lvgl\version_6.1.2\lvgl\src\lv_objx/lv_cont.c ****  *      TYPEDEFS
  33:..\..\..\lvgl\version_6.1.2\lvgl\src\lv_objx/lv_cont.c ****  **********************/
  34:..\..\..\lvgl\version_6.1.2\lvgl\src\lv_objx/lv_cont.c **** 
  35:..\..\..\lvgl\version_6.1.2\lvgl\src\lv_objx/lv_cont.c **** /**********************
  36:..\..\..\lvgl\version_6.1.2\lvgl\src\lv_objx/lv_cont.c ****  *  STATIC PROTOTYPES
  37:..\..\..\lvgl\version_6.1.2\lvgl\src\lv_objx/lv_cont.c ****  **********************/
  38:..\..\..\lvgl\version_6.1.2\lvgl\src\lv_objx/lv_cont.c **** static lv_res_t lv_cont_signal(lv_obj_t * cont, lv_signal_t sign, void * param);
  39:..\..\..\lvgl\version_6.1.2\lvgl\src\lv_objx/lv_cont.c **** static void lv_cont_refr_layout(lv_obj_t * cont);
  40:..\..\..\lvgl\version_6.1.2\lvgl\src\lv_objx/lv_cont.c **** static void lv_cont_layout_col(lv_obj_t * cont);
  41:..\..\..\lvgl\version_6.1.2\lvgl\src\lv_objx/lv_cont.c **** static void lv_cont_layout_row(lv_obj_t * cont);
  42:..\..\..\lvgl\version_6.1.2\lvgl\src\lv_objx/lv_cont.c **** static void lv_cont_layout_center(lv_obj_t * cont);
  43:..\..\..\lvgl\version_6.1.2\lvgl\src\lv_objx/lv_cont.c **** static void lv_cont_layout_pretty(lv_obj_t * cont);
  44:..\..\..\lvgl\version_6.1.2\lvgl\src\lv_objx/lv_cont.c **** static void lv_cont_layout_grid(lv_obj_t * cont);
  45:..\..\..\lvgl\version_6.1.2\lvgl\src\lv_objx/lv_cont.c **** static void lv_cont_refr_autofit(lv_obj_t * cont);
  46:..\..\..\lvgl\version_6.1.2\lvgl\src\lv_objx/lv_cont.c **** 
  47:..\..\..\lvgl\version_6.1.2\lvgl\src\lv_objx/lv_cont.c **** /**********************
  48:..\..\..\lvgl\version_6.1.2\lvgl\src\lv_objx/lv_cont.c ****  *  STATIC VARIABLES
  49:..\..\..\lvgl\version_6.1.2\lvgl\src\lv_objx/lv_cont.c ****  **********************/
  50:..\..\..\lvgl\version_6.1.2\lvgl\src\lv_objx/lv_cont.c **** static lv_signal_cb_t ancestor_signal;
  51:..\..\..\lvgl\version_6.1.2\lvgl\src\lv_objx/lv_cont.c **** 
  52:..\..\..\lvgl\version_6.1.2\lvgl\src\lv_objx/lv_cont.c **** /**********************
  53:..\..\..\lvgl\version_6.1.2\lvgl\src\lv_objx/lv_cont.c ****  *      MACROS
  54:..\..\..\lvgl\version_6.1.2\lvgl\src\lv_objx/lv_cont.c ****  **********************/
  55:..\..\..\lvgl\version_6.1.2\lvgl\src\lv_objx/lv_cont.c **** 
  56:..\..\..\lvgl\version_6.1.2\lvgl\src\lv_objx/lv_cont.c **** /**********************
  57:..\..\..\lvgl\version_6.1.2\lvgl\src\lv_objx/lv_cont.c ****  *   GLOBAL FUNCTIONS
  58:..\..\..\lvgl\version_6.1.2\lvgl\src\lv_objx/lv_cont.c ****  **********************/
  59:..\..\..\lvgl\version_6.1.2\lvgl\src\lv_objx/lv_cont.c **** 
  60:..\..\..\lvgl\version_6.1.2\lvgl\src\lv_objx/lv_cont.c **** /**
  61:..\..\..\lvgl\version_6.1.2\lvgl\src\lv_objx/lv_cont.c ****  * Create a container objects
  62:..\..\..\lvgl\version_6.1.2\lvgl\src\lv_objx/lv_cont.c ****  * @param par pointer to an object, it will be the parent of the new container
  63:..\..\..\lvgl\version_6.1.2\lvgl\src\lv_objx/lv_cont.c ****  * @param copy pointer to a container object, if not NULL then the new object will be copied from i
  64:..\..\..\lvgl\version_6.1.2\lvgl\src\lv_objx/lv_cont.c ****  * @return pointer to the created container
  65:..\..\..\lvgl\version_6.1.2\lvgl\src\lv_objx/lv_cont.c ****  */
  66:..\..\..\lvgl\version_6.1.2\lvgl\src\lv_objx/lv_cont.c **** lv_obj_t * lv_cont_create(lv_obj_t * par, const lv_obj_t * copy)
ARM GAS  C:\Users\tmj32\AppData\Local\Temp\ccnLJfS3.s 			page 10


  67:..\..\..\lvgl\version_6.1.2\lvgl\src\lv_objx/lv_cont.c **** {
 202              		.loc 3 67 0
 203              		.cfi_startproc
 204              		@ args = 0, pretend = 0, frame = 24
 205              		@ frame_needed = 1, uses_anonymous_args = 0
 206 0000 80B5     		push	{r7, lr}
 207              		.cfi_def_cfa_offset 8
 208              		.cfi_offset 7, -8
 209              		.cfi_offset 14, -4
 210 0002 86B0     		sub	sp, sp, #24
 211              		.cfi_def_cfa_offset 32
 212 0004 00AF     		add	r7, sp, #0
 213              		.cfi_def_cfa_register 7
 214 0006 7860     		str	r0, [r7, #4]
 215 0008 3960     		str	r1, [r7]
  68:..\..\..\lvgl\version_6.1.2\lvgl\src\lv_objx/lv_cont.c **** 
  69:..\..\..\lvgl\version_6.1.2\lvgl\src\lv_objx/lv_cont.c ****     LV_LOG_TRACE("container create started");
  70:..\..\..\lvgl\version_6.1.2\lvgl\src\lv_objx/lv_cont.c **** 
  71:..\..\..\lvgl\version_6.1.2\lvgl\src\lv_objx/lv_cont.c ****     /*Create a basic object*/
  72:..\..\..\lvgl\version_6.1.2\lvgl\src\lv_objx/lv_cont.c ****     lv_obj_t * new_cont = lv_obj_create(par, copy);
 216              		.loc 3 72 0
 217 000a 3968     		ldr	r1, [r7]
 218 000c 7868     		ldr	r0, [r7, #4]
 219 000e FFF7FEFF 		bl	lv_obj_create
 220 0012 7861     		str	r0, [r7, #20]
  73:..\..\..\lvgl\version_6.1.2\lvgl\src\lv_objx/lv_cont.c ****     LV_ASSERT_MEM(new_cont);
  74:..\..\..\lvgl\version_6.1.2\lvgl\src\lv_objx/lv_cont.c ****     if(new_cont == NULL) return NULL;
 221              		.loc 3 74 0
 222 0014 7B69     		ldr	r3, [r7, #20]
 223 0016 002B     		cmp	r3, #0
 224 0018 01D1     		bne	.L8
 225              		.loc 3 74 0 is_stmt 0 discriminator 1
 226 001a 0023     		movs	r3, #0
 227 001c 87E0     		b	.L9
 228              	.L8:
  75:..\..\..\lvgl\version_6.1.2\lvgl\src\lv_objx/lv_cont.c **** 
  76:..\..\..\lvgl\version_6.1.2\lvgl\src\lv_objx/lv_cont.c ****     if(ancestor_signal == NULL) ancestor_signal = lv_obj_get_signal_cb(new_cont);
 229              		.loc 3 76 0 is_stmt 1
 230 001e 464B     		ldr	r3, .L16
 231 0020 1B68     		ldr	r3, [r3]
 232 0022 002B     		cmp	r3, #0
 233 0024 05D1     		bne	.L10
 234              		.loc 3 76 0 is_stmt 0 discriminator 1
 235 0026 7869     		ldr	r0, [r7, #20]
 236 0028 FFF7FEFF 		bl	lv_obj_get_signal_cb
 237 002c 0246     		mov	r2, r0
 238 002e 424B     		ldr	r3, .L16
 239 0030 1A60     		str	r2, [r3]
 240              	.L10:
  77:..\..\..\lvgl\version_6.1.2\lvgl\src\lv_objx/lv_cont.c **** 
  78:..\..\..\lvgl\version_6.1.2\lvgl\src\lv_objx/lv_cont.c ****     lv_obj_allocate_ext_attr(new_cont, sizeof(lv_cont_ext_t));
 241              		.loc 3 78 0 is_stmt 1
 242 0032 0221     		movs	r1, #2
 243 0034 7869     		ldr	r0, [r7, #20]
 244 0036 FFF7FEFF 		bl	lv_obj_allocate_ext_attr
  79:..\..\..\lvgl\version_6.1.2\lvgl\src\lv_objx/lv_cont.c ****     lv_cont_ext_t * ext = lv_obj_get_ext_attr(new_cont);
 245              		.loc 3 79 0
ARM GAS  C:\Users\tmj32\AppData\Local\Temp\ccnLJfS3.s 			page 11


 246 003a 7869     		ldr	r0, [r7, #20]
 247 003c FFF7FEFF 		bl	lv_obj_get_ext_attr
 248 0040 3861     		str	r0, [r7, #16]
  80:..\..\..\lvgl\version_6.1.2\lvgl\src\lv_objx/lv_cont.c ****     if(ext == NULL) return NULL;
 249              		.loc 3 80 0
 250 0042 3B69     		ldr	r3, [r7, #16]
 251 0044 002B     		cmp	r3, #0
 252 0046 01D1     		bne	.L11
 253              		.loc 3 80 0 is_stmt 0 discriminator 1
 254 0048 0023     		movs	r3, #0
 255 004a 70E0     		b	.L9
 256              	.L11:
  81:..\..\..\lvgl\version_6.1.2\lvgl\src\lv_objx/lv_cont.c **** 
  82:..\..\..\lvgl\version_6.1.2\lvgl\src\lv_objx/lv_cont.c ****     LV_ASSERT_MEM(ext);
  83:..\..\..\lvgl\version_6.1.2\lvgl\src\lv_objx/lv_cont.c ****     ext->fit_left   = LV_FIT_NONE;
 257              		.loc 3 83 0 is_stmt 1
 258 004c 3A69     		ldr	r2, [r7, #16]
 259 004e 1378     		ldrb	r3, [r2]
 260 0050 6FF30513 		bfc	r3, #4, #2
 261 0054 1370     		strb	r3, [r2]
  84:..\..\..\lvgl\version_6.1.2\lvgl\src\lv_objx/lv_cont.c ****     ext->fit_right  = LV_FIT_NONE;
 262              		.loc 3 84 0
 263 0056 3A69     		ldr	r2, [r7, #16]
 264 0058 1378     		ldrb	r3, [r2]
 265 005a 6FF38713 		bfc	r3, #6, #2
 266 005e 1370     		strb	r3, [r2]
  85:..\..\..\lvgl\version_6.1.2\lvgl\src\lv_objx/lv_cont.c ****     ext->fit_top    = LV_FIT_NONE;
 267              		.loc 3 85 0
 268 0060 3A69     		ldr	r2, [r7, #16]
 269 0062 5378     		ldrb	r3, [r2, #1]
 270 0064 6FF30103 		bfc	r3, #0, #2
 271 0068 5370     		strb	r3, [r2, #1]
  86:..\..\..\lvgl\version_6.1.2\lvgl\src\lv_objx/lv_cont.c ****     ext->fit_bottom = LV_FIT_NONE;
 272              		.loc 3 86 0
 273 006a 3A69     		ldr	r2, [r7, #16]
 274 006c 5378     		ldrb	r3, [r2, #1]
 275 006e 6FF38303 		bfc	r3, #2, #2
 276 0072 5370     		strb	r3, [r2, #1]
  87:..\..\..\lvgl\version_6.1.2\lvgl\src\lv_objx/lv_cont.c ****     ext->layout     = LV_LAYOUT_OFF;
 277              		.loc 3 87 0
 278 0074 3A69     		ldr	r2, [r7, #16]
 279 0076 1378     		ldrb	r3, [r2]
 280 0078 6FF30303 		bfc	r3, #0, #4
 281 007c 1370     		strb	r3, [r2]
  88:..\..\..\lvgl\version_6.1.2\lvgl\src\lv_objx/lv_cont.c **** 
  89:..\..\..\lvgl\version_6.1.2\lvgl\src\lv_objx/lv_cont.c ****     lv_obj_set_signal_cb(new_cont, lv_cont_signal);
 282              		.loc 3 89 0
 283 007e 2F49     		ldr	r1, .L16+4
 284 0080 7869     		ldr	r0, [r7, #20]
 285 0082 FFF7FEFF 		bl	lv_obj_set_signal_cb
  90:..\..\..\lvgl\version_6.1.2\lvgl\src\lv_objx/lv_cont.c **** 
  91:..\..\..\lvgl\version_6.1.2\lvgl\src\lv_objx/lv_cont.c ****     /*Init the new container*/
  92:..\..\..\lvgl\version_6.1.2\lvgl\src\lv_objx/lv_cont.c ****     if(copy == NULL) {
 286              		.loc 3 92 0
 287 0086 3B68     		ldr	r3, [r7]
 288 0088 002B     		cmp	r3, #0
 289 008a 16D1     		bne	.L12
ARM GAS  C:\Users\tmj32\AppData\Local\Temp\ccnLJfS3.s 			page 12


  93:..\..\..\lvgl\version_6.1.2\lvgl\src\lv_objx/lv_cont.c ****         /*Set the default styles if it's not screen*/
  94:..\..\..\lvgl\version_6.1.2\lvgl\src\lv_objx/lv_cont.c ****         if(par != NULL) {
 290              		.loc 3 94 0
 291 008c 7B68     		ldr	r3, [r7, #4]
 292 008e 002B     		cmp	r3, #0
 293 0090 4CD0     		beq	.L15
 294              	.LBB2:
  95:..\..\..\lvgl\version_6.1.2\lvgl\src\lv_objx/lv_cont.c ****             lv_theme_t * th = lv_theme_get_current();
 295              		.loc 3 95 0
 296 0092 FFF7FEFF 		bl	lv_theme_get_current
 297 0096 F860     		str	r0, [r7, #12]
  96:..\..\..\lvgl\version_6.1.2\lvgl\src\lv_objx/lv_cont.c ****             if(th) {
 298              		.loc 3 96 0
 299 0098 FB68     		ldr	r3, [r7, #12]
 300 009a 002B     		cmp	r3, #0
 301 009c 07D0     		beq	.L14
  97:..\..\..\lvgl\version_6.1.2\lvgl\src\lv_objx/lv_cont.c ****                 lv_cont_set_style(new_cont, LV_CONT_STYLE_MAIN, th->style.cont);
 302              		.loc 3 97 0
 303 009e FB68     		ldr	r3, [r7, #12]
 304 00a0 DB68     		ldr	r3, [r3, #12]
 305 00a2 1A46     		mov	r2, r3
 306 00a4 0021     		movs	r1, #0
 307 00a6 7869     		ldr	r0, [r7, #20]
 308 00a8 FFF7FEFF 		bl	lv_cont_set_style
 309 00ac 3EE0     		b	.L15
 310              	.L14:
  98:..\..\..\lvgl\version_6.1.2\lvgl\src\lv_objx/lv_cont.c ****             } else {
  99:..\..\..\lvgl\version_6.1.2\lvgl\src\lv_objx/lv_cont.c ****                 lv_cont_set_style(new_cont, LV_CONT_STYLE_MAIN, &lv_style_pretty);
 311              		.loc 3 99 0
 312 00ae 244A     		ldr	r2, .L16+8
 313 00b0 0021     		movs	r1, #0
 314 00b2 7869     		ldr	r0, [r7, #20]
 315 00b4 FFF7FEFF 		bl	lv_cont_set_style
 316 00b8 38E0     		b	.L15
 317              	.L12:
 318              	.LBE2:
 319              	.LBB3:
 100:..\..\..\lvgl\version_6.1.2\lvgl\src\lv_objx/lv_cont.c ****             }
 101:..\..\..\lvgl\version_6.1.2\lvgl\src\lv_objx/lv_cont.c ****         }
 102:..\..\..\lvgl\version_6.1.2\lvgl\src\lv_objx/lv_cont.c ****     }
 103:..\..\..\lvgl\version_6.1.2\lvgl\src\lv_objx/lv_cont.c ****     /*Copy an existing object*/
 104:..\..\..\lvgl\version_6.1.2\lvgl\src\lv_objx/lv_cont.c ****     else {
 105:..\..\..\lvgl\version_6.1.2\lvgl\src\lv_objx/lv_cont.c ****         lv_cont_ext_t * copy_ext = lv_obj_get_ext_attr(copy);
 320              		.loc 3 105 0
 321 00ba 3868     		ldr	r0, [r7]
 322 00bc FFF7FEFF 		bl	lv_obj_get_ext_attr
 323 00c0 B860     		str	r0, [r7, #8]
 106:..\..\..\lvgl\version_6.1.2\lvgl\src\lv_objx/lv_cont.c ****         ext->fit_left            = copy_ext->fit_left;
 324              		.loc 3 106 0
 325 00c2 BB68     		ldr	r3, [r7, #8]
 326 00c4 1B78     		ldrb	r3, [r3]
 327 00c6 C3F30113 		ubfx	r3, r3, #4, #2
 328 00ca D9B2     		uxtb	r1, r3
 329 00cc 3A69     		ldr	r2, [r7, #16]
 330 00ce 1378     		ldrb	r3, [r2]
 331 00d0 61F30513 		bfi	r3, r1, #4, #2
 332 00d4 1370     		strb	r3, [r2]
ARM GAS  C:\Users\tmj32\AppData\Local\Temp\ccnLJfS3.s 			page 13


 107:..\..\..\lvgl\version_6.1.2\lvgl\src\lv_objx/lv_cont.c ****         ext->fit_right           = copy_ext->fit_right;
 333              		.loc 3 107 0
 334 00d6 BB68     		ldr	r3, [r7, #8]
 335 00d8 1B78     		ldrb	r3, [r3]
 336 00da C3F38113 		ubfx	r3, r3, #6, #2
 337 00de D9B2     		uxtb	r1, r3
 338 00e0 3A69     		ldr	r2, [r7, #16]
 339 00e2 1378     		ldrb	r3, [r2]
 340 00e4 61F38713 		bfi	r3, r1, #6, #2
 341 00e8 1370     		strb	r3, [r2]
 108:..\..\..\lvgl\version_6.1.2\lvgl\src\lv_objx/lv_cont.c ****         ext->fit_top             = copy_ext->fit_top;
 342              		.loc 3 108 0
 343 00ea BB68     		ldr	r3, [r7, #8]
 344 00ec 5B78     		ldrb	r3, [r3, #1]
 345 00ee C3F30103 		ubfx	r3, r3, #0, #2
 346 00f2 D9B2     		uxtb	r1, r3
 347 00f4 3A69     		ldr	r2, [r7, #16]
 348 00f6 5378     		ldrb	r3, [r2, #1]
 349 00f8 61F30103 		bfi	r3, r1, #0, #2
 350 00fc 5370     		strb	r3, [r2, #1]
 109:..\..\..\lvgl\version_6.1.2\lvgl\src\lv_objx/lv_cont.c ****         ext->fit_bottom          = copy_ext->fit_bottom;
 351              		.loc 3 109 0
 352 00fe BB68     		ldr	r3, [r7, #8]
 353 0100 5B78     		ldrb	r3, [r3, #1]
 354 0102 C3F38103 		ubfx	r3, r3, #2, #2
 355 0106 D9B2     		uxtb	r1, r3
 356 0108 3A69     		ldr	r2, [r7, #16]
 357 010a 5378     		ldrb	r3, [r2, #1]
 358 010c 61F38303 		bfi	r3, r1, #2, #2
 359 0110 5370     		strb	r3, [r2, #1]
 110:..\..\..\lvgl\version_6.1.2\lvgl\src\lv_objx/lv_cont.c ****         ext->layout              = copy_ext->layout;
 360              		.loc 3 110 0
 361 0112 BB68     		ldr	r3, [r7, #8]
 362 0114 1B78     		ldrb	r3, [r3]
 363 0116 C3F30303 		ubfx	r3, r3, #0, #4
 364 011a D9B2     		uxtb	r1, r3
 365 011c 3A69     		ldr	r2, [r7, #16]
 366 011e 1378     		ldrb	r3, [r2]
 367 0120 61F30303 		bfi	r3, r1, #0, #4
 368 0124 1370     		strb	r3, [r2]
 111:..\..\..\lvgl\version_6.1.2\lvgl\src\lv_objx/lv_cont.c **** 
 112:..\..\..\lvgl\version_6.1.2\lvgl\src\lv_objx/lv_cont.c ****         /*Refresh the style with new signal function*/
 113:..\..\..\lvgl\version_6.1.2\lvgl\src\lv_objx/lv_cont.c ****         lv_obj_refresh_style(new_cont);
 369              		.loc 3 113 0
 370 0126 7869     		ldr	r0, [r7, #20]
 371 0128 FFF7FEFF 		bl	lv_obj_refresh_style
 372              	.L15:
 373              	.LBE3:
 114:..\..\..\lvgl\version_6.1.2\lvgl\src\lv_objx/lv_cont.c ****     }
 115:..\..\..\lvgl\version_6.1.2\lvgl\src\lv_objx/lv_cont.c **** 
 116:..\..\..\lvgl\version_6.1.2\lvgl\src\lv_objx/lv_cont.c ****     LV_LOG_INFO("container created");
 117:..\..\..\lvgl\version_6.1.2\lvgl\src\lv_objx/lv_cont.c **** 
 118:..\..\..\lvgl\version_6.1.2\lvgl\src\lv_objx/lv_cont.c ****     return new_cont;
 374              		.loc 3 118 0
 375 012c 7B69     		ldr	r3, [r7, #20]
 376              	.L9:
 119:..\..\..\lvgl\version_6.1.2\lvgl\src\lv_objx/lv_cont.c **** }
ARM GAS  C:\Users\tmj32\AppData\Local\Temp\ccnLJfS3.s 			page 14


 377              		.loc 3 119 0
 378 012e 1846     		mov	r0, r3
 379 0130 1837     		adds	r7, r7, #24
 380              		.cfi_def_cfa_offset 8
 381 0132 BD46     		mov	sp, r7
 382              		.cfi_def_cfa_register 13
 383              		@ sp needed
 384 0134 80BD     		pop	{r7, pc}
 385              	.L17:
 386 0136 00BF     		.align	2
 387              	.L16:
 388 0138 00000000 		.word	ancestor_signal
 389 013c 00000000 		.word	lv_cont_signal
 390 0140 00000000 		.word	lv_style_pretty
 391              		.cfi_endproc
 392              	.LFE35:
 393              		.size	lv_cont_create, .-lv_cont_create
 394              		.section	.text.lv_cont_set_layout,"ax",%progbits
 395              		.align	2
 396              		.global	lv_cont_set_layout
 397              		.thumb
 398              		.thumb_func
 399              		.type	lv_cont_set_layout, %function
 400              	lv_cont_set_layout:
 401              	.LFB36:
 120:..\..\..\lvgl\version_6.1.2\lvgl\src\lv_objx/lv_cont.c **** 
 121:..\..\..\lvgl\version_6.1.2\lvgl\src\lv_objx/lv_cont.c **** /*=====================
 122:..\..\..\lvgl\version_6.1.2\lvgl\src\lv_objx/lv_cont.c ****  * Setter functions
 123:..\..\..\lvgl\version_6.1.2\lvgl\src\lv_objx/lv_cont.c ****  *====================*/
 124:..\..\..\lvgl\version_6.1.2\lvgl\src\lv_objx/lv_cont.c **** 
 125:..\..\..\lvgl\version_6.1.2\lvgl\src\lv_objx/lv_cont.c **** /**
 126:..\..\..\lvgl\version_6.1.2\lvgl\src\lv_objx/lv_cont.c ****  * Set a layout on a container
 127:..\..\..\lvgl\version_6.1.2\lvgl\src\lv_objx/lv_cont.c ****  * @param cont pointer to a container object
 128:..\..\..\lvgl\version_6.1.2\lvgl\src\lv_objx/lv_cont.c ****  * @param layout a layout from 'lv_cont_layout_t'
 129:..\..\..\lvgl\version_6.1.2\lvgl\src\lv_objx/lv_cont.c ****  */
 130:..\..\..\lvgl\version_6.1.2\lvgl\src\lv_objx/lv_cont.c **** void lv_cont_set_layout(lv_obj_t * cont, lv_layout_t layout)
 131:..\..\..\lvgl\version_6.1.2\lvgl\src\lv_objx/lv_cont.c **** {
 402              		.loc 3 131 0
 403              		.cfi_startproc
 404              		@ args = 0, pretend = 0, frame = 16
 405              		@ frame_needed = 1, uses_anonymous_args = 0
 406 0000 80B5     		push	{r7, lr}
 407              		.cfi_def_cfa_offset 8
 408              		.cfi_offset 7, -8
 409              		.cfi_offset 14, -4
 410 0002 84B0     		sub	sp, sp, #16
 411              		.cfi_def_cfa_offset 24
 412 0004 00AF     		add	r7, sp, #0
 413              		.cfi_def_cfa_register 7
 414 0006 7860     		str	r0, [r7, #4]
 415 0008 0B46     		mov	r3, r1
 416 000a FB70     		strb	r3, [r7, #3]
 132:..\..\..\lvgl\version_6.1.2\lvgl\src\lv_objx/lv_cont.c ****     LV_ASSERT_OBJ(cont, LV_OBJX_NAME);
 133:..\..\..\lvgl\version_6.1.2\lvgl\src\lv_objx/lv_cont.c **** 
 134:..\..\..\lvgl\version_6.1.2\lvgl\src\lv_objx/lv_cont.c ****     lv_cont_ext_t * ext = lv_obj_get_ext_attr(cont);
 417              		.loc 3 134 0
 418 000c 7868     		ldr	r0, [r7, #4]
ARM GAS  C:\Users\tmj32\AppData\Local\Temp\ccnLJfS3.s 			page 15


 419 000e FFF7FEFF 		bl	lv_obj_get_ext_attr
 420 0012 F860     		str	r0, [r7, #12]
 135:..\..\..\lvgl\version_6.1.2\lvgl\src\lv_objx/lv_cont.c ****     if(ext->layout == layout) return;
 421              		.loc 3 135 0
 422 0014 FB68     		ldr	r3, [r7, #12]
 423 0016 1B78     		ldrb	r3, [r3]
 424 0018 C3F30303 		ubfx	r3, r3, #0, #4
 425 001c DBB2     		uxtb	r3, r3
 426 001e 1A46     		mov	r2, r3
 427 0020 FB78     		ldrb	r3, [r7, #3]	@ zero_extendqisi2
 428 0022 9A42     		cmp	r2, r3
 429 0024 0FD0     		beq	.L21
 136:..\..\..\lvgl\version_6.1.2\lvgl\src\lv_objx/lv_cont.c **** 
 137:..\..\..\lvgl\version_6.1.2\lvgl\src\lv_objx/lv_cont.c ****     ext->layout = layout;
 430              		.loc 3 137 0
 431 0026 FB78     		ldrb	r3, [r7, #3]
 432 0028 03F00F03 		and	r3, r3, #15
 433 002c D9B2     		uxtb	r1, r3
 434 002e FA68     		ldr	r2, [r7, #12]
 435 0030 1378     		ldrb	r3, [r2]
 436 0032 61F30303 		bfi	r3, r1, #0, #4
 437 0036 1370     		strb	r3, [r2]
 138:..\..\..\lvgl\version_6.1.2\lvgl\src\lv_objx/lv_cont.c **** 
 139:..\..\..\lvgl\version_6.1.2\lvgl\src\lv_objx/lv_cont.c ****     /*Send a signal to refresh the layout*/
 140:..\..\..\lvgl\version_6.1.2\lvgl\src\lv_objx/lv_cont.c ****     cont->signal_cb(cont, LV_SIGNAL_CHILD_CHG, NULL);
 438              		.loc 3 140 0
 439 0038 7B68     		ldr	r3, [r7, #4]
 440 003a DB69     		ldr	r3, [r3, #28]
 441 003c 0022     		movs	r2, #0
 442 003e 0121     		movs	r1, #1
 443 0040 7868     		ldr	r0, [r7, #4]
 444 0042 9847     		blx	r3
 445 0044 00E0     		b	.L18
 446              	.L21:
 135:..\..\..\lvgl\version_6.1.2\lvgl\src\lv_objx/lv_cont.c **** 
 447              		.loc 3 135 0
 448 0046 00BF     		nop
 449              	.L18:
 141:..\..\..\lvgl\version_6.1.2\lvgl\src\lv_objx/lv_cont.c **** }
 450              		.loc 3 141 0
 451 0048 1037     		adds	r7, r7, #16
 452              		.cfi_def_cfa_offset 8
 453 004a BD46     		mov	sp, r7
 454              		.cfi_def_cfa_register 13
 455              		@ sp needed
 456 004c 80BD     		pop	{r7, pc}
 457              		.cfi_endproc
 458              	.LFE36:
 459              		.size	lv_cont_set_layout, .-lv_cont_set_layout
 460 004e 00BF     		.section	.text.lv_cont_set_fit4,"ax",%progbits
 461              		.align	2
 462              		.global	lv_cont_set_fit4
 463              		.thumb
 464              		.thumb_func
 465              		.type	lv_cont_set_fit4, %function
 466              	lv_cont_set_fit4:
 467              	.LFB37:
ARM GAS  C:\Users\tmj32\AppData\Local\Temp\ccnLJfS3.s 			page 16


 142:..\..\..\lvgl\version_6.1.2\lvgl\src\lv_objx/lv_cont.c **** 
 143:..\..\..\lvgl\version_6.1.2\lvgl\src\lv_objx/lv_cont.c **** /**
 144:..\..\..\lvgl\version_6.1.2\lvgl\src\lv_objx/lv_cont.c ****  * Set the fit policy in all 4 directions separately.
 145:..\..\..\lvgl\version_6.1.2\lvgl\src\lv_objx/lv_cont.c ****  * It tell how to change the container's size automatically.
 146:..\..\..\lvgl\version_6.1.2\lvgl\src\lv_objx/lv_cont.c ****  * @param cont pointer to a container object
 147:..\..\..\lvgl\version_6.1.2\lvgl\src\lv_objx/lv_cont.c ****  * @param left left fit policy from `lv_fit_t`
 148:..\..\..\lvgl\version_6.1.2\lvgl\src\lv_objx/lv_cont.c ****  * @param right right fit policy from `lv_fit_t`
 149:..\..\..\lvgl\version_6.1.2\lvgl\src\lv_objx/lv_cont.c ****  * @param top bottom fit policy from `lv_fit_t`
 150:..\..\..\lvgl\version_6.1.2\lvgl\src\lv_objx/lv_cont.c ****  * @param bottom bottom fit policy from `lv_fit_t`
 151:..\..\..\lvgl\version_6.1.2\lvgl\src\lv_objx/lv_cont.c ****  */
 152:..\..\..\lvgl\version_6.1.2\lvgl\src\lv_objx/lv_cont.c **** void lv_cont_set_fit4(lv_obj_t * cont, lv_fit_t left, lv_fit_t right, lv_fit_t top, lv_fit_t bottom
 153:..\..\..\lvgl\version_6.1.2\lvgl\src\lv_objx/lv_cont.c **** {
 468              		.loc 3 153 0
 469              		.cfi_startproc
 470              		@ args = 4, pretend = 0, frame = 16
 471              		@ frame_needed = 1, uses_anonymous_args = 0
 472 0000 80B5     		push	{r7, lr}
 473              		.cfi_def_cfa_offset 8
 474              		.cfi_offset 7, -8
 475              		.cfi_offset 14, -4
 476 0002 84B0     		sub	sp, sp, #16
 477              		.cfi_def_cfa_offset 24
 478 0004 00AF     		add	r7, sp, #0
 479              		.cfi_def_cfa_register 7
 480 0006 7860     		str	r0, [r7, #4]
 481 0008 0846     		mov	r0, r1
 482 000a 1146     		mov	r1, r2
 483 000c 1A46     		mov	r2, r3
 484 000e 0346     		mov	r3, r0
 485 0010 FB70     		strb	r3, [r7, #3]
 486 0012 0B46     		mov	r3, r1
 487 0014 BB70     		strb	r3, [r7, #2]
 488 0016 1346     		mov	r3, r2
 489 0018 7B70     		strb	r3, [r7, #1]
 154:..\..\..\lvgl\version_6.1.2\lvgl\src\lv_objx/lv_cont.c ****     LV_ASSERT_OBJ(cont, LV_OBJX_NAME);
 155:..\..\..\lvgl\version_6.1.2\lvgl\src\lv_objx/lv_cont.c **** 
 156:..\..\..\lvgl\version_6.1.2\lvgl\src\lv_objx/lv_cont.c ****     lv_obj_invalidate(cont);
 490              		.loc 3 156 0
 491 001a 7868     		ldr	r0, [r7, #4]
 492 001c FFF7FEFF 		bl	lv_obj_invalidate
 157:..\..\..\lvgl\version_6.1.2\lvgl\src\lv_objx/lv_cont.c ****     lv_cont_ext_t * ext = lv_obj_get_ext_attr(cont);
 493              		.loc 3 157 0
 494 0020 7868     		ldr	r0, [r7, #4]
 495 0022 FFF7FEFF 		bl	lv_obj_get_ext_attr
 496 0026 F860     		str	r0, [r7, #12]
 158:..\..\..\lvgl\version_6.1.2\lvgl\src\lv_objx/lv_cont.c ****     if(ext->fit_left == left && ext->fit_right == right && ext->fit_top == top && ext->fit_bottom =
 497              		.loc 3 158 0
 498 0028 FB68     		ldr	r3, [r7, #12]
 499 002a 1B78     		ldrb	r3, [r3]
 500 002c C3F30113 		ubfx	r3, r3, #4, #2
 501 0030 DBB2     		uxtb	r3, r3
 502 0032 1A46     		mov	r2, r3
 503 0034 FB78     		ldrb	r3, [r7, #3]	@ zero_extendqisi2
 504 0036 9A42     		cmp	r2, r3
 505 0038 1AD1     		bne	.L23
 506              		.loc 3 158 0 is_stmt 0 discriminator 1
 507 003a FB68     		ldr	r3, [r7, #12]
ARM GAS  C:\Users\tmj32\AppData\Local\Temp\ccnLJfS3.s 			page 17


 508 003c 1B78     		ldrb	r3, [r3]
 509 003e C3F38113 		ubfx	r3, r3, #6, #2
 510 0042 DBB2     		uxtb	r3, r3
 511 0044 1A46     		mov	r2, r3
 512 0046 BB78     		ldrb	r3, [r7, #2]	@ zero_extendqisi2
 513 0048 9A42     		cmp	r2, r3
 514 004a 11D1     		bne	.L23
 515              		.loc 3 158 0 discriminator 2
 516 004c FB68     		ldr	r3, [r7, #12]
 517 004e 5B78     		ldrb	r3, [r3, #1]
 518 0050 C3F30103 		ubfx	r3, r3, #0, #2
 519 0054 DBB2     		uxtb	r3, r3
 520 0056 1A46     		mov	r2, r3
 521 0058 7B78     		ldrb	r3, [r7, #1]	@ zero_extendqisi2
 522 005a 9A42     		cmp	r2, r3
 523 005c 08D1     		bne	.L23
 524              		.loc 3 158 0 discriminator 3
 525 005e FB68     		ldr	r3, [r7, #12]
 526 0060 5B78     		ldrb	r3, [r3, #1]
 527 0062 C3F38103 		ubfx	r3, r3, #2, #2
 528 0066 DBB2     		uxtb	r3, r3
 529 0068 1A46     		mov	r2, r3
 530 006a 3B7E     		ldrb	r3, [r7, #24]	@ zero_extendqisi2
 531 006c 9A42     		cmp	r2, r3
 532 006e 2AD0     		beq	.L25
 533              	.L23:
 159:..\..\..\lvgl\version_6.1.2\lvgl\src\lv_objx/lv_cont.c ****         return;
 160:..\..\..\lvgl\version_6.1.2\lvgl\src\lv_objx/lv_cont.c ****     }
 161:..\..\..\lvgl\version_6.1.2\lvgl\src\lv_objx/lv_cont.c **** 
 162:..\..\..\lvgl\version_6.1.2\lvgl\src\lv_objx/lv_cont.c ****     ext->fit_left   = left;
 534              		.loc 3 162 0 is_stmt 1
 535 0070 FB78     		ldrb	r3, [r7, #3]
 536 0072 03F00303 		and	r3, r3, #3
 537 0076 D9B2     		uxtb	r1, r3
 538 0078 FA68     		ldr	r2, [r7, #12]
 539 007a 1378     		ldrb	r3, [r2]
 540 007c 61F30513 		bfi	r3, r1, #4, #2
 541 0080 1370     		strb	r3, [r2]
 163:..\..\..\lvgl\version_6.1.2\lvgl\src\lv_objx/lv_cont.c ****     ext->fit_right  = right;
 542              		.loc 3 163 0
 543 0082 BB78     		ldrb	r3, [r7, #2]
 544 0084 03F00303 		and	r3, r3, #3
 545 0088 D9B2     		uxtb	r1, r3
 546 008a FA68     		ldr	r2, [r7, #12]
 547 008c 1378     		ldrb	r3, [r2]
 548 008e 61F38713 		bfi	r3, r1, #6, #2
 549 0092 1370     		strb	r3, [r2]
 164:..\..\..\lvgl\version_6.1.2\lvgl\src\lv_objx/lv_cont.c ****     ext->fit_top    = top;
 550              		.loc 3 164 0
 551 0094 7B78     		ldrb	r3, [r7, #1]
 552 0096 03F00303 		and	r3, r3, #3
 553 009a D9B2     		uxtb	r1, r3
 554 009c FA68     		ldr	r2, [r7, #12]
 555 009e 5378     		ldrb	r3, [r2, #1]
 556 00a0 61F30103 		bfi	r3, r1, #0, #2
 557 00a4 5370     		strb	r3, [r2, #1]
 165:..\..\..\lvgl\version_6.1.2\lvgl\src\lv_objx/lv_cont.c ****     ext->fit_bottom = bottom;
ARM GAS  C:\Users\tmj32\AppData\Local\Temp\ccnLJfS3.s 			page 18


 558              		.loc 3 165 0
 559 00a6 3B7E     		ldrb	r3, [r7, #24]
 560 00a8 03F00303 		and	r3, r3, #3
 561 00ac D9B2     		uxtb	r1, r3
 562 00ae FA68     		ldr	r2, [r7, #12]
 563 00b0 5378     		ldrb	r3, [r2, #1]
 564 00b2 61F38303 		bfi	r3, r1, #2, #2
 565 00b6 5370     		strb	r3, [r2, #1]
 166:..\..\..\lvgl\version_6.1.2\lvgl\src\lv_objx/lv_cont.c **** 
 167:..\..\..\lvgl\version_6.1.2\lvgl\src\lv_objx/lv_cont.c ****     /*Send a signal to refresh the layout*/
 168:..\..\..\lvgl\version_6.1.2\lvgl\src\lv_objx/lv_cont.c ****     cont->signal_cb(cont, LV_SIGNAL_CHILD_CHG, NULL);
 566              		.loc 3 168 0
 567 00b8 7B68     		ldr	r3, [r7, #4]
 568 00ba DB69     		ldr	r3, [r3, #28]
 569 00bc 0022     		movs	r2, #0
 570 00be 0121     		movs	r1, #1
 571 00c0 7868     		ldr	r0, [r7, #4]
 572 00c2 9847     		blx	r3
 573 00c4 00E0     		b	.L22
 574              	.L25:
 159:..\..\..\lvgl\version_6.1.2\lvgl\src\lv_objx/lv_cont.c ****     }
 575              		.loc 3 159 0
 576 00c6 00BF     		nop
 577              	.L22:
 169:..\..\..\lvgl\version_6.1.2\lvgl\src\lv_objx/lv_cont.c **** }
 578              		.loc 3 169 0
 579 00c8 1037     		adds	r7, r7, #16
 580              		.cfi_def_cfa_offset 8
 581 00ca BD46     		mov	sp, r7
 582              		.cfi_def_cfa_register 13
 583              		@ sp needed
 584 00cc 80BD     		pop	{r7, pc}
 585              		.cfi_endproc
 586              	.LFE37:
 587              		.size	lv_cont_set_fit4, .-lv_cont_set_fit4
 588 00ce 00BF     		.section	.text.lv_cont_get_layout,"ax",%progbits
 589              		.align	2
 590              		.global	lv_cont_get_layout
 591              		.thumb
 592              		.thumb_func
 593              		.type	lv_cont_get_layout, %function
 594              	lv_cont_get_layout:
 595              	.LFB38:
 170:..\..\..\lvgl\version_6.1.2\lvgl\src\lv_objx/lv_cont.c **** 
 171:..\..\..\lvgl\version_6.1.2\lvgl\src\lv_objx/lv_cont.c **** /*=====================
 172:..\..\..\lvgl\version_6.1.2\lvgl\src\lv_objx/lv_cont.c ****  * Getter functions
 173:..\..\..\lvgl\version_6.1.2\lvgl\src\lv_objx/lv_cont.c ****  *====================*/
 174:..\..\..\lvgl\version_6.1.2\lvgl\src\lv_objx/lv_cont.c **** 
 175:..\..\..\lvgl\version_6.1.2\lvgl\src\lv_objx/lv_cont.c **** /**
 176:..\..\..\lvgl\version_6.1.2\lvgl\src\lv_objx/lv_cont.c ****  * Get the layout of a container
 177:..\..\..\lvgl\version_6.1.2\lvgl\src\lv_objx/lv_cont.c ****  * @param cont pointer to container object
 178:..\..\..\lvgl\version_6.1.2\lvgl\src\lv_objx/lv_cont.c ****  * @return the layout from 'lv_cont_layout_t'
 179:..\..\..\lvgl\version_6.1.2\lvgl\src\lv_objx/lv_cont.c ****  */
 180:..\..\..\lvgl\version_6.1.2\lvgl\src\lv_objx/lv_cont.c **** lv_layout_t lv_cont_get_layout(const lv_obj_t * cont)
 181:..\..\..\lvgl\version_6.1.2\lvgl\src\lv_objx/lv_cont.c **** {
 596              		.loc 3 181 0
 597              		.cfi_startproc
ARM GAS  C:\Users\tmj32\AppData\Local\Temp\ccnLJfS3.s 			page 19


 598              		@ args = 0, pretend = 0, frame = 16
 599              		@ frame_needed = 1, uses_anonymous_args = 0
 600 0000 80B5     		push	{r7, lr}
 601              		.cfi_def_cfa_offset 8
 602              		.cfi_offset 7, -8
 603              		.cfi_offset 14, -4
 604 0002 84B0     		sub	sp, sp, #16
 605              		.cfi_def_cfa_offset 24
 606 0004 00AF     		add	r7, sp, #0
 607              		.cfi_def_cfa_register 7
 608 0006 7860     		str	r0, [r7, #4]
 182:..\..\..\lvgl\version_6.1.2\lvgl\src\lv_objx/lv_cont.c ****     LV_ASSERT_OBJ(cont, LV_OBJX_NAME);
 183:..\..\..\lvgl\version_6.1.2\lvgl\src\lv_objx/lv_cont.c **** 
 184:..\..\..\lvgl\version_6.1.2\lvgl\src\lv_objx/lv_cont.c ****     lv_cont_ext_t * ext = lv_obj_get_ext_attr(cont);
 609              		.loc 3 184 0
 610 0008 7868     		ldr	r0, [r7, #4]
 611 000a FFF7FEFF 		bl	lv_obj_get_ext_attr
 612 000e F860     		str	r0, [r7, #12]
 185:..\..\..\lvgl\version_6.1.2\lvgl\src\lv_objx/lv_cont.c ****     return ext->layout;
 613              		.loc 3 185 0
 614 0010 FB68     		ldr	r3, [r7, #12]
 615 0012 1B78     		ldrb	r3, [r3]
 616 0014 C3F30303 		ubfx	r3, r3, #0, #4
 617 0018 DBB2     		uxtb	r3, r3
 186:..\..\..\lvgl\version_6.1.2\lvgl\src\lv_objx/lv_cont.c **** }
 618              		.loc 3 186 0
 619 001a 1846     		mov	r0, r3
 620 001c 1037     		adds	r7, r7, #16
 621              		.cfi_def_cfa_offset 8
 622 001e BD46     		mov	sp, r7
 623              		.cfi_def_cfa_register 13
 624              		@ sp needed
 625 0020 80BD     		pop	{r7, pc}
 626              		.cfi_endproc
 627              	.LFE38:
 628              		.size	lv_cont_get_layout, .-lv_cont_get_layout
 629 0022 00BF     		.section	.text.lv_cont_get_fit_left,"ax",%progbits
 630              		.align	2
 631              		.global	lv_cont_get_fit_left
 632              		.thumb
 633              		.thumb_func
 634              		.type	lv_cont_get_fit_left, %function
 635              	lv_cont_get_fit_left:
 636              	.LFB39:
 187:..\..\..\lvgl\version_6.1.2\lvgl\src\lv_objx/lv_cont.c **** 
 188:..\..\..\lvgl\version_6.1.2\lvgl\src\lv_objx/lv_cont.c **** /**
 189:..\..\..\lvgl\version_6.1.2\lvgl\src\lv_objx/lv_cont.c ****  * Get left fit mode of a container
 190:..\..\..\lvgl\version_6.1.2\lvgl\src\lv_objx/lv_cont.c ****  * @param cont pointer to a container object
 191:..\..\..\lvgl\version_6.1.2\lvgl\src\lv_objx/lv_cont.c ****  * @return an element of `lv_fit_t`
 192:..\..\..\lvgl\version_6.1.2\lvgl\src\lv_objx/lv_cont.c ****  */
 193:..\..\..\lvgl\version_6.1.2\lvgl\src\lv_objx/lv_cont.c **** lv_fit_t lv_cont_get_fit_left(const lv_obj_t * cont)
 194:..\..\..\lvgl\version_6.1.2\lvgl\src\lv_objx/lv_cont.c **** {
 637              		.loc 3 194 0
 638              		.cfi_startproc
 639              		@ args = 0, pretend = 0, frame = 16
 640              		@ frame_needed = 1, uses_anonymous_args = 0
 641 0000 80B5     		push	{r7, lr}
ARM GAS  C:\Users\tmj32\AppData\Local\Temp\ccnLJfS3.s 			page 20


 642              		.cfi_def_cfa_offset 8
 643              		.cfi_offset 7, -8
 644              		.cfi_offset 14, -4
 645 0002 84B0     		sub	sp, sp, #16
 646              		.cfi_def_cfa_offset 24
 647 0004 00AF     		add	r7, sp, #0
 648              		.cfi_def_cfa_register 7
 649 0006 7860     		str	r0, [r7, #4]
 195:..\..\..\lvgl\version_6.1.2\lvgl\src\lv_objx/lv_cont.c ****     LV_ASSERT_OBJ(cont, LV_OBJX_NAME);
 196:..\..\..\lvgl\version_6.1.2\lvgl\src\lv_objx/lv_cont.c **** 
 197:..\..\..\lvgl\version_6.1.2\lvgl\src\lv_objx/lv_cont.c ****     lv_cont_ext_t * ext = lv_obj_get_ext_attr(cont);
 650              		.loc 3 197 0
 651 0008 7868     		ldr	r0, [r7, #4]
 652 000a FFF7FEFF 		bl	lv_obj_get_ext_attr
 653 000e F860     		str	r0, [r7, #12]
 198:..\..\..\lvgl\version_6.1.2\lvgl\src\lv_objx/lv_cont.c ****     return ext->fit_left;
 654              		.loc 3 198 0
 655 0010 FB68     		ldr	r3, [r7, #12]
 656 0012 1B78     		ldrb	r3, [r3]
 657 0014 C3F30113 		ubfx	r3, r3, #4, #2
 658 0018 DBB2     		uxtb	r3, r3
 199:..\..\..\lvgl\version_6.1.2\lvgl\src\lv_objx/lv_cont.c **** }
 659              		.loc 3 199 0
 660 001a 1846     		mov	r0, r3
 661 001c 1037     		adds	r7, r7, #16
 662              		.cfi_def_cfa_offset 8
 663 001e BD46     		mov	sp, r7
 664              		.cfi_def_cfa_register 13
 665              		@ sp needed
 666 0020 80BD     		pop	{r7, pc}
 667              		.cfi_endproc
 668              	.LFE39:
 669              		.size	lv_cont_get_fit_left, .-lv_cont_get_fit_left
 670 0022 00BF     		.section	.text.lv_cont_get_fit_right,"ax",%progbits
 671              		.align	2
 672              		.global	lv_cont_get_fit_right
 673              		.thumb
 674              		.thumb_func
 675              		.type	lv_cont_get_fit_right, %function
 676              	lv_cont_get_fit_right:
 677              	.LFB40:
 200:..\..\..\lvgl\version_6.1.2\lvgl\src\lv_objx/lv_cont.c **** 
 201:..\..\..\lvgl\version_6.1.2\lvgl\src\lv_objx/lv_cont.c **** /**
 202:..\..\..\lvgl\version_6.1.2\lvgl\src\lv_objx/lv_cont.c ****  * Get right fit mode of a container
 203:..\..\..\lvgl\version_6.1.2\lvgl\src\lv_objx/lv_cont.c ****  * @param cont pointer to a container object
 204:..\..\..\lvgl\version_6.1.2\lvgl\src\lv_objx/lv_cont.c ****  * @return an element of `lv_fit_t`
 205:..\..\..\lvgl\version_6.1.2\lvgl\src\lv_objx/lv_cont.c ****  */
 206:..\..\..\lvgl\version_6.1.2\lvgl\src\lv_objx/lv_cont.c **** lv_fit_t lv_cont_get_fit_right(const lv_obj_t * cont)
 207:..\..\..\lvgl\version_6.1.2\lvgl\src\lv_objx/lv_cont.c **** {
 678              		.loc 3 207 0
 679              		.cfi_startproc
 680              		@ args = 0, pretend = 0, frame = 16
 681              		@ frame_needed = 1, uses_anonymous_args = 0
 682 0000 80B5     		push	{r7, lr}
 683              		.cfi_def_cfa_offset 8
 684              		.cfi_offset 7, -8
 685              		.cfi_offset 14, -4
ARM GAS  C:\Users\tmj32\AppData\Local\Temp\ccnLJfS3.s 			page 21


 686 0002 84B0     		sub	sp, sp, #16
 687              		.cfi_def_cfa_offset 24
 688 0004 00AF     		add	r7, sp, #0
 689              		.cfi_def_cfa_register 7
 690 0006 7860     		str	r0, [r7, #4]
 208:..\..\..\lvgl\version_6.1.2\lvgl\src\lv_objx/lv_cont.c ****     LV_ASSERT_OBJ(cont, LV_OBJX_NAME);
 209:..\..\..\lvgl\version_6.1.2\lvgl\src\lv_objx/lv_cont.c **** 
 210:..\..\..\lvgl\version_6.1.2\lvgl\src\lv_objx/lv_cont.c ****     lv_cont_ext_t * ext = lv_obj_get_ext_attr(cont);
 691              		.loc 3 210 0
 692 0008 7868     		ldr	r0, [r7, #4]
 693 000a FFF7FEFF 		bl	lv_obj_get_ext_attr
 694 000e F860     		str	r0, [r7, #12]
 211:..\..\..\lvgl\version_6.1.2\lvgl\src\lv_objx/lv_cont.c ****     return ext->fit_right;
 695              		.loc 3 211 0
 696 0010 FB68     		ldr	r3, [r7, #12]
 697 0012 1B78     		ldrb	r3, [r3]
 698 0014 C3F38113 		ubfx	r3, r3, #6, #2
 699 0018 DBB2     		uxtb	r3, r3
 212:..\..\..\lvgl\version_6.1.2\lvgl\src\lv_objx/lv_cont.c **** }
 700              		.loc 3 212 0
 701 001a 1846     		mov	r0, r3
 702 001c 1037     		adds	r7, r7, #16
 703              		.cfi_def_cfa_offset 8
 704 001e BD46     		mov	sp, r7
 705              		.cfi_def_cfa_register 13
 706              		@ sp needed
 707 0020 80BD     		pop	{r7, pc}
 708              		.cfi_endproc
 709              	.LFE40:
 710              		.size	lv_cont_get_fit_right, .-lv_cont_get_fit_right
 711 0022 00BF     		.section	.text.lv_cont_get_fit_top,"ax",%progbits
 712              		.align	2
 713              		.global	lv_cont_get_fit_top
 714              		.thumb
 715              		.thumb_func
 716              		.type	lv_cont_get_fit_top, %function
 717              	lv_cont_get_fit_top:
 718              	.LFB41:
 213:..\..\..\lvgl\version_6.1.2\lvgl\src\lv_objx/lv_cont.c **** 
 214:..\..\..\lvgl\version_6.1.2\lvgl\src\lv_objx/lv_cont.c **** /**
 215:..\..\..\lvgl\version_6.1.2\lvgl\src\lv_objx/lv_cont.c ****  * Get top fit mode of a container
 216:..\..\..\lvgl\version_6.1.2\lvgl\src\lv_objx/lv_cont.c ****  * @param cont pointer to a container object
 217:..\..\..\lvgl\version_6.1.2\lvgl\src\lv_objx/lv_cont.c ****  * @return an element of `lv_fit_t`
 218:..\..\..\lvgl\version_6.1.2\lvgl\src\lv_objx/lv_cont.c ****  */
 219:..\..\..\lvgl\version_6.1.2\lvgl\src\lv_objx/lv_cont.c **** lv_fit_t lv_cont_get_fit_top(const lv_obj_t * cont)
 220:..\..\..\lvgl\version_6.1.2\lvgl\src\lv_objx/lv_cont.c **** {
 719              		.loc 3 220 0
 720              		.cfi_startproc
 721              		@ args = 0, pretend = 0, frame = 16
 722              		@ frame_needed = 1, uses_anonymous_args = 0
 723 0000 80B5     		push	{r7, lr}
 724              		.cfi_def_cfa_offset 8
 725              		.cfi_offset 7, -8
 726              		.cfi_offset 14, -4
 727 0002 84B0     		sub	sp, sp, #16
 728              		.cfi_def_cfa_offset 24
 729 0004 00AF     		add	r7, sp, #0
ARM GAS  C:\Users\tmj32\AppData\Local\Temp\ccnLJfS3.s 			page 22


 730              		.cfi_def_cfa_register 7
 731 0006 7860     		str	r0, [r7, #4]
 221:..\..\..\lvgl\version_6.1.2\lvgl\src\lv_objx/lv_cont.c ****     LV_ASSERT_OBJ(cont, LV_OBJX_NAME);
 222:..\..\..\lvgl\version_6.1.2\lvgl\src\lv_objx/lv_cont.c **** 
 223:..\..\..\lvgl\version_6.1.2\lvgl\src\lv_objx/lv_cont.c ****     lv_cont_ext_t * ext = lv_obj_get_ext_attr(cont);
 732              		.loc 3 223 0
 733 0008 7868     		ldr	r0, [r7, #4]
 734 000a FFF7FEFF 		bl	lv_obj_get_ext_attr
 735 000e F860     		str	r0, [r7, #12]
 224:..\..\..\lvgl\version_6.1.2\lvgl\src\lv_objx/lv_cont.c ****     return ext->fit_top;
 736              		.loc 3 224 0
 737 0010 FB68     		ldr	r3, [r7, #12]
 738 0012 5B78     		ldrb	r3, [r3, #1]
 739 0014 C3F30103 		ubfx	r3, r3, #0, #2
 740 0018 DBB2     		uxtb	r3, r3
 225:..\..\..\lvgl\version_6.1.2\lvgl\src\lv_objx/lv_cont.c **** }
 741              		.loc 3 225 0
 742 001a 1846     		mov	r0, r3
 743 001c 1037     		adds	r7, r7, #16
 744              		.cfi_def_cfa_offset 8
 745 001e BD46     		mov	sp, r7
 746              		.cfi_def_cfa_register 13
 747              		@ sp needed
 748 0020 80BD     		pop	{r7, pc}
 749              		.cfi_endproc
 750              	.LFE41:
 751              		.size	lv_cont_get_fit_top, .-lv_cont_get_fit_top
 752 0022 00BF     		.section	.text.lv_cont_get_fit_bottom,"ax",%progbits
 753              		.align	2
 754              		.global	lv_cont_get_fit_bottom
 755              		.thumb
 756              		.thumb_func
 757              		.type	lv_cont_get_fit_bottom, %function
 758              	lv_cont_get_fit_bottom:
 759              	.LFB42:
 226:..\..\..\lvgl\version_6.1.2\lvgl\src\lv_objx/lv_cont.c **** 
 227:..\..\..\lvgl\version_6.1.2\lvgl\src\lv_objx/lv_cont.c **** /**
 228:..\..\..\lvgl\version_6.1.2\lvgl\src\lv_objx/lv_cont.c ****  * Get bottom fit mode of a container
 229:..\..\..\lvgl\version_6.1.2\lvgl\src\lv_objx/lv_cont.c ****  * @param cont pointer to a container object
 230:..\..\..\lvgl\version_6.1.2\lvgl\src\lv_objx/lv_cont.c ****  * @return an element of `lv_fit_t`
 231:..\..\..\lvgl\version_6.1.2\lvgl\src\lv_objx/lv_cont.c ****  */
 232:..\..\..\lvgl\version_6.1.2\lvgl\src\lv_objx/lv_cont.c **** lv_fit_t lv_cont_get_fit_bottom(const lv_obj_t * cont)
 233:..\..\..\lvgl\version_6.1.2\lvgl\src\lv_objx/lv_cont.c **** {
 760              		.loc 3 233 0
 761              		.cfi_startproc
 762              		@ args = 0, pretend = 0, frame = 16
 763              		@ frame_needed = 1, uses_anonymous_args = 0
 764 0000 80B5     		push	{r7, lr}
 765              		.cfi_def_cfa_offset 8
 766              		.cfi_offset 7, -8
 767              		.cfi_offset 14, -4
 768 0002 84B0     		sub	sp, sp, #16
 769              		.cfi_def_cfa_offset 24
 770 0004 00AF     		add	r7, sp, #0
 771              		.cfi_def_cfa_register 7
 772 0006 7860     		str	r0, [r7, #4]
 234:..\..\..\lvgl\version_6.1.2\lvgl\src\lv_objx/lv_cont.c ****     LV_ASSERT_OBJ(cont, LV_OBJX_NAME);
ARM GAS  C:\Users\tmj32\AppData\Local\Temp\ccnLJfS3.s 			page 23


 235:..\..\..\lvgl\version_6.1.2\lvgl\src\lv_objx/lv_cont.c **** 
 236:..\..\..\lvgl\version_6.1.2\lvgl\src\lv_objx/lv_cont.c ****     lv_cont_ext_t * ext = lv_obj_get_ext_attr(cont);
 773              		.loc 3 236 0
 774 0008 7868     		ldr	r0, [r7, #4]
 775 000a FFF7FEFF 		bl	lv_obj_get_ext_attr
 776 000e F860     		str	r0, [r7, #12]
 237:..\..\..\lvgl\version_6.1.2\lvgl\src\lv_objx/lv_cont.c ****     return ext->fit_bottom;
 777              		.loc 3 237 0
 778 0010 FB68     		ldr	r3, [r7, #12]
 779 0012 5B78     		ldrb	r3, [r3, #1]
 780 0014 C3F38103 		ubfx	r3, r3, #2, #2
 781 0018 DBB2     		uxtb	r3, r3
 238:..\..\..\lvgl\version_6.1.2\lvgl\src\lv_objx/lv_cont.c **** }
 782              		.loc 3 238 0
 783 001a 1846     		mov	r0, r3
 784 001c 1037     		adds	r7, r7, #16
 785              		.cfi_def_cfa_offset 8
 786 001e BD46     		mov	sp, r7
 787              		.cfi_def_cfa_register 13
 788              		@ sp needed
 789 0020 80BD     		pop	{r7, pc}
 790              		.cfi_endproc
 791              	.LFE42:
 792              		.size	lv_cont_get_fit_bottom, .-lv_cont_get_fit_bottom
 793 0022 00BF     		.section	.rodata
 794              		.align	2
 795              	.LC0:
 796 0000 6C765F63 		.ascii	"lv_cont\000"
 796      6F6E7400 
 797              		.section	.text.lv_cont_signal,"ax",%progbits
 798              		.align	2
 799              		.thumb
 800              		.thumb_func
 801              		.type	lv_cont_signal, %function
 802              	lv_cont_signal:
 803              	.LFB43:
 239:..\..\..\lvgl\version_6.1.2\lvgl\src\lv_objx/lv_cont.c **** 
 240:..\..\..\lvgl\version_6.1.2\lvgl\src\lv_objx/lv_cont.c **** /**********************
 241:..\..\..\lvgl\version_6.1.2\lvgl\src\lv_objx/lv_cont.c ****  *   STATIC FUNCTIONS
 242:..\..\..\lvgl\version_6.1.2\lvgl\src\lv_objx/lv_cont.c ****  **********************/
 243:..\..\..\lvgl\version_6.1.2\lvgl\src\lv_objx/lv_cont.c **** 
 244:..\..\..\lvgl\version_6.1.2\lvgl\src\lv_objx/lv_cont.c **** /**
 245:..\..\..\lvgl\version_6.1.2\lvgl\src\lv_objx/lv_cont.c ****  * Signal function of the container
 246:..\..\..\lvgl\version_6.1.2\lvgl\src\lv_objx/lv_cont.c ****  * @param cont pointer to a container object
 247:..\..\..\lvgl\version_6.1.2\lvgl\src\lv_objx/lv_cont.c ****  * @param sign a signal type from lv_signal_t enum
 248:..\..\..\lvgl\version_6.1.2\lvgl\src\lv_objx/lv_cont.c ****  * @param param pointer to a signal specific variable
 249:..\..\..\lvgl\version_6.1.2\lvgl\src\lv_objx/lv_cont.c ****  * @return LV_RES_OK: the object is not deleted in the function; LV_RES_INV: the object is deleted
 250:..\..\..\lvgl\version_6.1.2\lvgl\src\lv_objx/lv_cont.c ****  */
 251:..\..\..\lvgl\version_6.1.2\lvgl\src\lv_objx/lv_cont.c **** static lv_res_t lv_cont_signal(lv_obj_t * cont, lv_signal_t sign, void * param)
 252:..\..\..\lvgl\version_6.1.2\lvgl\src\lv_objx/lv_cont.c **** {
 804              		.loc 3 252 0
 805              		.cfi_startproc
 806              		@ args = 0, pretend = 0, frame = 24
 807              		@ frame_needed = 1, uses_anonymous_args = 0
 808 0000 90B5     		push	{r4, r7, lr}
 809              		.cfi_def_cfa_offset 12
 810              		.cfi_offset 4, -12
ARM GAS  C:\Users\tmj32\AppData\Local\Temp\ccnLJfS3.s 			page 24


 811              		.cfi_offset 7, -8
 812              		.cfi_offset 14, -4
 813 0002 87B0     		sub	sp, sp, #28
 814              		.cfi_def_cfa_offset 40
 815 0004 00AF     		add	r7, sp, #0
 816              		.cfi_def_cfa_register 7
 817 0006 F860     		str	r0, [r7, #12]
 818 0008 0B46     		mov	r3, r1
 819 000a 7A60     		str	r2, [r7, #4]
 820 000c FB72     		strb	r3, [r7, #11]
 253:..\..\..\lvgl\version_6.1.2\lvgl\src\lv_objx/lv_cont.c ****     lv_res_t res;
 254:..\..\..\lvgl\version_6.1.2\lvgl\src\lv_objx/lv_cont.c **** 
 255:..\..\..\lvgl\version_6.1.2\lvgl\src\lv_objx/lv_cont.c ****     /* Include the ancient signal function */
 256:..\..\..\lvgl\version_6.1.2\lvgl\src\lv_objx/lv_cont.c ****     res = ancestor_signal(cont, sign, param);
 821              		.loc 3 256 0
 822 000e 2A4B     		ldr	r3, .L46
 823 0010 1B68     		ldr	r3, [r3]
 824 0012 F97A     		ldrb	r1, [r7, #11]	@ zero_extendqisi2
 825 0014 7A68     		ldr	r2, [r7, #4]
 826 0016 F868     		ldr	r0, [r7, #12]
 827 0018 9847     		blx	r3
 828 001a 0346     		mov	r3, r0
 829 001c FB75     		strb	r3, [r7, #23]
 257:..\..\..\lvgl\version_6.1.2\lvgl\src\lv_objx/lv_cont.c ****     if(res != LV_RES_OK) return res;
 830              		.loc 3 257 0
 831 001e FB7D     		ldrb	r3, [r7, #23]	@ zero_extendqisi2
 832 0020 012B     		cmp	r3, #1
 833 0022 01D0     		beq	.L37
 834              		.loc 3 257 0 is_stmt 0 discriminator 1
 835 0024 FB7D     		ldrb	r3, [r7, #23]	@ zero_extendqisi2
 836 0026 43E0     		b	.L38
 837              	.L37:
 258:..\..\..\lvgl\version_6.1.2\lvgl\src\lv_objx/lv_cont.c ****     if(sign == LV_SIGNAL_GET_TYPE) return lv_obj_handle_get_type_signal(param, LV_OBJX_NAME);
 838              		.loc 3 258 0 is_stmt 1
 839 0028 FB7A     		ldrb	r3, [r7, #11]	@ zero_extendqisi2
 840 002a 072B     		cmp	r3, #7
 841 002c 05D1     		bne	.L39
 842              		.loc 3 258 0 is_stmt 0 discriminator 1
 843 002e 2349     		ldr	r1, .L46+4
 844 0030 7868     		ldr	r0, [r7, #4]
 845 0032 FFF7FEFF 		bl	lv_obj_handle_get_type_signal
 846 0036 0346     		mov	r3, r0
 847 0038 3AE0     		b	.L38
 848              	.L39:
 259:..\..\..\lvgl\version_6.1.2\lvgl\src\lv_objx/lv_cont.c **** 
 260:..\..\..\lvgl\version_6.1.2\lvgl\src\lv_objx/lv_cont.c ****     if(sign == LV_SIGNAL_STYLE_CHG) { /*Recalculate the padding if the style changed*/
 849              		.loc 3 260 0 is_stmt 1
 850 003a FB7A     		ldrb	r3, [r7, #11]	@ zero_extendqisi2
 851 003c 042B     		cmp	r3, #4
 852 003e 06D1     		bne	.L40
 261:..\..\..\lvgl\version_6.1.2\lvgl\src\lv_objx/lv_cont.c ****         lv_cont_refr_layout(cont);
 853              		.loc 3 261 0
 854 0040 F868     		ldr	r0, [r7, #12]
 855 0042 FFF7FEFF 		bl	lv_cont_refr_layout
 262:..\..\..\lvgl\version_6.1.2\lvgl\src\lv_objx/lv_cont.c ****         lv_cont_refr_autofit(cont);
 856              		.loc 3 262 0
 857 0046 F868     		ldr	r0, [r7, #12]
ARM GAS  C:\Users\tmj32\AppData\Local\Temp\ccnLJfS3.s 			page 25


 858 0048 FFF7FEFF 		bl	lv_cont_refr_autofit
 859 004c 2FE0     		b	.L41
 860              	.L40:
 263:..\..\..\lvgl\version_6.1.2\lvgl\src\lv_objx/lv_cont.c ****     } else if(sign == LV_SIGNAL_CHILD_CHG) {
 861              		.loc 3 263 0
 862 004e FB7A     		ldrb	r3, [r7, #11]	@ zero_extendqisi2
 863 0050 012B     		cmp	r3, #1
 864 0052 06D1     		bne	.L42
 264:..\..\..\lvgl\version_6.1.2\lvgl\src\lv_objx/lv_cont.c ****         lv_cont_refr_layout(cont);
 865              		.loc 3 264 0
 866 0054 F868     		ldr	r0, [r7, #12]
 867 0056 FFF7FEFF 		bl	lv_cont_refr_layout
 265:..\..\..\lvgl\version_6.1.2\lvgl\src\lv_objx/lv_cont.c ****         lv_cont_refr_autofit(cont);
 868              		.loc 3 265 0
 869 005a F868     		ldr	r0, [r7, #12]
 870 005c FFF7FEFF 		bl	lv_cont_refr_autofit
 871 0060 25E0     		b	.L41
 872              	.L42:
 266:..\..\..\lvgl\version_6.1.2\lvgl\src\lv_objx/lv_cont.c ****     } else if(sign == LV_SIGNAL_CORD_CHG) {
 873              		.loc 3 266 0
 874 0062 FB7A     		ldrb	r3, [r7, #11]	@ zero_extendqisi2
 875 0064 022B     		cmp	r3, #2
 876 0066 1CD1     		bne	.L43
 267:..\..\..\lvgl\version_6.1.2\lvgl\src\lv_objx/lv_cont.c ****         if(lv_obj_get_width(cont) != lv_area_get_width(param) || lv_obj_get_height(cont) != lv_area
 877              		.loc 3 267 0
 878 0068 F868     		ldr	r0, [r7, #12]
 879 006a FFF7FEFF 		bl	lv_obj_get_width
 880 006e 0346     		mov	r3, r0
 881 0070 1C46     		mov	r4, r3
 882 0072 7868     		ldr	r0, [r7, #4]
 883 0074 FFF7FEFF 		bl	lv_area_get_width
 884 0078 0346     		mov	r3, r0
 885 007a 9C42     		cmp	r4, r3
 886 007c 0AD1     		bne	.L44
 887              		.loc 3 267 0 is_stmt 0 discriminator 1
 888 007e F868     		ldr	r0, [r7, #12]
 889 0080 FFF7FEFF 		bl	lv_obj_get_height
 890 0084 0346     		mov	r3, r0
 891 0086 1C46     		mov	r4, r3
 892 0088 7868     		ldr	r0, [r7, #4]
 893 008a FFF7FEFF 		bl	lv_area_get_height
 894 008e 0346     		mov	r3, r0
 895 0090 9C42     		cmp	r4, r3
 896 0092 0CD0     		beq	.L41
 897              	.L44:
 268:..\..\..\lvgl\version_6.1.2\lvgl\src\lv_objx/lv_cont.c ****             lv_cont_refr_layout(cont);
 898              		.loc 3 268 0 is_stmt 1
 899 0094 F868     		ldr	r0, [r7, #12]
 900 0096 FFF7FEFF 		bl	lv_cont_refr_layout
 269:..\..\..\lvgl\version_6.1.2\lvgl\src\lv_objx/lv_cont.c ****             lv_cont_refr_autofit(cont);
 901              		.loc 3 269 0
 902 009a F868     		ldr	r0, [r7, #12]
 903 009c FFF7FEFF 		bl	lv_cont_refr_autofit
 904 00a0 05E0     		b	.L41
 905              	.L43:
 270:..\..\..\lvgl\version_6.1.2\lvgl\src\lv_objx/lv_cont.c ****         }
 271:..\..\..\lvgl\version_6.1.2\lvgl\src\lv_objx/lv_cont.c ****     } else if(sign == LV_SIGNAL_PARENT_SIZE_CHG) {
ARM GAS  C:\Users\tmj32\AppData\Local\Temp\ccnLJfS3.s 			page 26


 906              		.loc 3 271 0
 907 00a2 FB7A     		ldrb	r3, [r7, #11]	@ zero_extendqisi2
 908 00a4 032B     		cmp	r3, #3
 909 00a6 02D1     		bne	.L41
 272:..\..\..\lvgl\version_6.1.2\lvgl\src\lv_objx/lv_cont.c ****         /*FLOOD and FILL fit needs to be refreshed if the parent size has changed*/
 273:..\..\..\lvgl\version_6.1.2\lvgl\src\lv_objx/lv_cont.c ****         lv_cont_refr_autofit(cont);
 910              		.loc 3 273 0
 911 00a8 F868     		ldr	r0, [r7, #12]
 912 00aa FFF7FEFF 		bl	lv_cont_refr_autofit
 913              	.L41:
 274:..\..\..\lvgl\version_6.1.2\lvgl\src\lv_objx/lv_cont.c **** 
 275:..\..\..\lvgl\version_6.1.2\lvgl\src\lv_objx/lv_cont.c ****     }
 276:..\..\..\lvgl\version_6.1.2\lvgl\src\lv_objx/lv_cont.c **** 
 277:..\..\..\lvgl\version_6.1.2\lvgl\src\lv_objx/lv_cont.c ****     return res;
 914              		.loc 3 277 0
 915 00ae FB7D     		ldrb	r3, [r7, #23]	@ zero_extendqisi2
 916              	.L38:
 278:..\..\..\lvgl\version_6.1.2\lvgl\src\lv_objx/lv_cont.c **** }
 917              		.loc 3 278 0
 918 00b0 1846     		mov	r0, r3
 919 00b2 1C37     		adds	r7, r7, #28
 920              		.cfi_def_cfa_offset 12
 921 00b4 BD46     		mov	sp, r7
 922              		.cfi_def_cfa_register 13
 923              		@ sp needed
 924 00b6 90BD     		pop	{r4, r7, pc}
 925              	.L47:
 926              		.align	2
 927              	.L46:
 928 00b8 00000000 		.word	ancestor_signal
 929 00bc 00000000 		.word	.LC0
 930              		.cfi_endproc
 931              	.LFE43:
 932              		.size	lv_cont_signal, .-lv_cont_signal
 933              		.section	.text.lv_cont_refr_layout,"ax",%progbits
 934              		.align	2
 935              		.thumb
 936              		.thumb_func
 937              		.type	lv_cont_refr_layout, %function
 938              	lv_cont_refr_layout:
 939              	.LFB44:
 279:..\..\..\lvgl\version_6.1.2\lvgl\src\lv_objx/lv_cont.c **** 
 280:..\..\..\lvgl\version_6.1.2\lvgl\src\lv_objx/lv_cont.c **** /**
 281:..\..\..\lvgl\version_6.1.2\lvgl\src\lv_objx/lv_cont.c ****  * Refresh the layout of a container
 282:..\..\..\lvgl\version_6.1.2\lvgl\src\lv_objx/lv_cont.c ****  * @param cont pointer to an object which layout should be refreshed
 283:..\..\..\lvgl\version_6.1.2\lvgl\src\lv_objx/lv_cont.c ****  */
 284:..\..\..\lvgl\version_6.1.2\lvgl\src\lv_objx/lv_cont.c **** static void lv_cont_refr_layout(lv_obj_t * cont)
 285:..\..\..\lvgl\version_6.1.2\lvgl\src\lv_objx/lv_cont.c **** {
 940              		.loc 3 285 0
 941              		.cfi_startproc
 942              		@ args = 0, pretend = 0, frame = 16
 943              		@ frame_needed = 1, uses_anonymous_args = 0
 944 0000 80B5     		push	{r7, lr}
 945              		.cfi_def_cfa_offset 8
 946              		.cfi_offset 7, -8
 947              		.cfi_offset 14, -4
 948 0002 84B0     		sub	sp, sp, #16
ARM GAS  C:\Users\tmj32\AppData\Local\Temp\ccnLJfS3.s 			page 27


 949              		.cfi_def_cfa_offset 24
 950 0004 00AF     		add	r7, sp, #0
 951              		.cfi_def_cfa_register 7
 952 0006 7860     		str	r0, [r7, #4]
 286:..\..\..\lvgl\version_6.1.2\lvgl\src\lv_objx/lv_cont.c ****     lv_layout_t type = lv_cont_get_layout(cont);
 953              		.loc 3 286 0
 954 0008 7868     		ldr	r0, [r7, #4]
 955 000a FFF7FEFF 		bl	lv_cont_get_layout
 956 000e 0346     		mov	r3, r0
 957 0010 FB73     		strb	r3, [r7, #15]
 287:..\..\..\lvgl\version_6.1.2\lvgl\src\lv_objx/lv_cont.c **** 
 288:..\..\..\lvgl\version_6.1.2\lvgl\src\lv_objx/lv_cont.c ****     /*'cont' has to be at least 1 child*/
 289:..\..\..\lvgl\version_6.1.2\lvgl\src\lv_objx/lv_cont.c ****     if(lv_obj_get_child(cont, NULL) == NULL) return;
 958              		.loc 3 289 0
 959 0012 0021     		movs	r1, #0
 960 0014 7868     		ldr	r0, [r7, #4]
 961 0016 FFF7FEFF 		bl	lv_obj_get_child
 962 001a 0346     		mov	r3, r0
 963 001c 002B     		cmp	r3, #0
 964 001e 31D0     		beq	.L58
 290:..\..\..\lvgl\version_6.1.2\lvgl\src\lv_objx/lv_cont.c **** 
 291:..\..\..\lvgl\version_6.1.2\lvgl\src\lv_objx/lv_cont.c ****     if(type == LV_LAYOUT_OFF) return;
 965              		.loc 3 291 0
 966 0020 FB7B     		ldrb	r3, [r7, #15]	@ zero_extendqisi2
 967 0022 002B     		cmp	r3, #0
 968 0024 30D0     		beq	.L59
 292:..\..\..\lvgl\version_6.1.2\lvgl\src\lv_objx/lv_cont.c **** 
 293:..\..\..\lvgl\version_6.1.2\lvgl\src\lv_objx/lv_cont.c ****     if(type == LV_LAYOUT_CENTER) {
 969              		.loc 3 293 0
 970 0026 FB7B     		ldrb	r3, [r7, #15]	@ zero_extendqisi2
 971 0028 012B     		cmp	r3, #1
 972 002a 03D1     		bne	.L52
 294:..\..\..\lvgl\version_6.1.2\lvgl\src\lv_objx/lv_cont.c ****         lv_cont_layout_center(cont);
 973              		.loc 3 294 0
 974 002c 7868     		ldr	r0, [r7, #4]
 975 002e FFF7FEFF 		bl	lv_cont_layout_center
 976 0032 2AE0     		b	.L48
 977              	.L52:
 295:..\..\..\lvgl\version_6.1.2\lvgl\src\lv_objx/lv_cont.c ****     } else if(type == LV_LAYOUT_COL_L || type == LV_LAYOUT_COL_M || type == LV_LAYOUT_COL_R) {
 978              		.loc 3 295 0
 979 0034 FB7B     		ldrb	r3, [r7, #15]	@ zero_extendqisi2
 980 0036 022B     		cmp	r3, #2
 981 0038 05D0     		beq	.L53
 982              		.loc 3 295 0 is_stmt 0 discriminator 1
 983 003a FB7B     		ldrb	r3, [r7, #15]	@ zero_extendqisi2
 984 003c 032B     		cmp	r3, #3
 985 003e 02D0     		beq	.L53
 986              		.loc 3 295 0 discriminator 2
 987 0040 FB7B     		ldrb	r3, [r7, #15]	@ zero_extendqisi2
 988 0042 042B     		cmp	r3, #4
 989 0044 03D1     		bne	.L54
 990              	.L53:
 296:..\..\..\lvgl\version_6.1.2\lvgl\src\lv_objx/lv_cont.c ****         lv_cont_layout_col(cont);
 991              		.loc 3 296 0 is_stmt 1
 992 0046 7868     		ldr	r0, [r7, #4]
 993 0048 FFF7FEFF 		bl	lv_cont_layout_col
 994 004c 1DE0     		b	.L48
ARM GAS  C:\Users\tmj32\AppData\Local\Temp\ccnLJfS3.s 			page 28


 995              	.L54:
 297:..\..\..\lvgl\version_6.1.2\lvgl\src\lv_objx/lv_cont.c ****     } else if(type == LV_LAYOUT_ROW_T || type == LV_LAYOUT_ROW_M || type == LV_LAYOUT_ROW_B) {
 996              		.loc 3 297 0
 997 004e FB7B     		ldrb	r3, [r7, #15]	@ zero_extendqisi2
 998 0050 052B     		cmp	r3, #5
 999 0052 05D0     		beq	.L55
 1000              		.loc 3 297 0 is_stmt 0 discriminator 1
 1001 0054 FB7B     		ldrb	r3, [r7, #15]	@ zero_extendqisi2
 1002 0056 062B     		cmp	r3, #6
 1003 0058 02D0     		beq	.L55
 1004              		.loc 3 297 0 discriminator 2
 1005 005a FB7B     		ldrb	r3, [r7, #15]	@ zero_extendqisi2
 1006 005c 072B     		cmp	r3, #7
 1007 005e 03D1     		bne	.L56
 1008              	.L55:
 298:..\..\..\lvgl\version_6.1.2\lvgl\src\lv_objx/lv_cont.c ****         lv_cont_layout_row(cont);
 1009              		.loc 3 298 0 is_stmt 1
 1010 0060 7868     		ldr	r0, [r7, #4]
 1011 0062 FFF7FEFF 		bl	lv_cont_layout_row
 1012 0066 10E0     		b	.L48
 1013              	.L56:
 299:..\..\..\lvgl\version_6.1.2\lvgl\src\lv_objx/lv_cont.c ****     } else if(type == LV_LAYOUT_PRETTY) {
 1014              		.loc 3 299 0
 1015 0068 FB7B     		ldrb	r3, [r7, #15]	@ zero_extendqisi2
 1016 006a 082B     		cmp	r3, #8
 1017 006c 03D1     		bne	.L57
 300:..\..\..\lvgl\version_6.1.2\lvgl\src\lv_objx/lv_cont.c ****         lv_cont_layout_pretty(cont);
 1018              		.loc 3 300 0
 1019 006e 7868     		ldr	r0, [r7, #4]
 1020 0070 FFF7FEFF 		bl	lv_cont_layout_pretty
 1021 0074 09E0     		b	.L48
 1022              	.L57:
 301:..\..\..\lvgl\version_6.1.2\lvgl\src\lv_objx/lv_cont.c ****     } else if(type == LV_LAYOUT_GRID) {
 1023              		.loc 3 301 0
 1024 0076 FB7B     		ldrb	r3, [r7, #15]	@ zero_extendqisi2
 1025 0078 092B     		cmp	r3, #9
 1026 007a 06D1     		bne	.L48
 302:..\..\..\lvgl\version_6.1.2\lvgl\src\lv_objx/lv_cont.c ****         lv_cont_layout_grid(cont);
 1027              		.loc 3 302 0
 1028 007c 7868     		ldr	r0, [r7, #4]
 1029 007e FFF7FEFF 		bl	lv_cont_layout_grid
 1030 0082 02E0     		b	.L48
 1031              	.L58:
 289:..\..\..\lvgl\version_6.1.2\lvgl\src\lv_objx/lv_cont.c **** 
 1032              		.loc 3 289 0
 1033 0084 00BF     		nop
 1034 0086 00E0     		b	.L48
 1035              	.L59:
 291:..\..\..\lvgl\version_6.1.2\lvgl\src\lv_objx/lv_cont.c **** 
 1036              		.loc 3 291 0
 1037 0088 00BF     		nop
 1038              	.L48:
 303:..\..\..\lvgl\version_6.1.2\lvgl\src\lv_objx/lv_cont.c ****     }
 304:..\..\..\lvgl\version_6.1.2\lvgl\src\lv_objx/lv_cont.c **** }
 1039              		.loc 3 304 0
 1040 008a 1037     		adds	r7, r7, #16
 1041              		.cfi_def_cfa_offset 8
ARM GAS  C:\Users\tmj32\AppData\Local\Temp\ccnLJfS3.s 			page 29


 1042 008c BD46     		mov	sp, r7
 1043              		.cfi_def_cfa_register 13
 1044              		@ sp needed
 1045 008e 80BD     		pop	{r7, pc}
 1046              		.cfi_endproc
 1047              	.LFE44:
 1048              		.size	lv_cont_refr_layout, .-lv_cont_refr_layout
 1049              		.section	.text.lv_cont_layout_col,"ax",%progbits
 1050              		.align	2
 1051              		.thumb
 1052              		.thumb_func
 1053              		.type	lv_cont_layout_col, %function
 1054              	lv_cont_layout_col:
 1055              	.LFB45:
 305:..\..\..\lvgl\version_6.1.2\lvgl\src\lv_objx/lv_cont.c **** 
 306:..\..\..\lvgl\version_6.1.2\lvgl\src\lv_objx/lv_cont.c **** /**
 307:..\..\..\lvgl\version_6.1.2\lvgl\src\lv_objx/lv_cont.c ****  * Handle column type layouts
 308:..\..\..\lvgl\version_6.1.2\lvgl\src\lv_objx/lv_cont.c ****  * @param cont pointer to an object which layout should be handled
 309:..\..\..\lvgl\version_6.1.2\lvgl\src\lv_objx/lv_cont.c ****  */
 310:..\..\..\lvgl\version_6.1.2\lvgl\src\lv_objx/lv_cont.c **** static void lv_cont_layout_col(lv_obj_t * cont)
 311:..\..\..\lvgl\version_6.1.2\lvgl\src\lv_objx/lv_cont.c **** {
 1056              		.loc 3 311 0
 1057              		.cfi_startproc
 1058              		@ args = 0, pretend = 0, frame = 24
 1059              		@ frame_needed = 1, uses_anonymous_args = 0
 1060 0000 80B5     		push	{r7, lr}
 1061              		.cfi_def_cfa_offset 8
 1062              		.cfi_offset 7, -8
 1063              		.cfi_offset 14, -4
 1064 0002 88B0     		sub	sp, sp, #32
 1065              		.cfi_def_cfa_offset 40
 1066 0004 02AF     		add	r7, sp, #8
 1067              		.cfi_def_cfa 7, 32
 1068 0006 7860     		str	r0, [r7, #4]
 312:..\..\..\lvgl\version_6.1.2\lvgl\src\lv_objx/lv_cont.c ****     lv_layout_t type = lv_cont_get_layout(cont);
 1069              		.loc 3 312 0
 1070 0008 7868     		ldr	r0, [r7, #4]
 1071 000a FFF7FEFF 		bl	lv_cont_get_layout
 1072 000e 0346     		mov	r3, r0
 1073 0010 7B73     		strb	r3, [r7, #13]
 313:..\..\..\lvgl\version_6.1.2\lvgl\src\lv_objx/lv_cont.c ****     lv_obj_t * child;
 314:..\..\..\lvgl\version_6.1.2\lvgl\src\lv_objx/lv_cont.c **** 
 315:..\..\..\lvgl\version_6.1.2\lvgl\src\lv_objx/lv_cont.c ****     /*Adjust margin and get the alignment type*/
 316:..\..\..\lvgl\version_6.1.2\lvgl\src\lv_objx/lv_cont.c ****     lv_align_t align;
 317:..\..\..\lvgl\version_6.1.2\lvgl\src\lv_objx/lv_cont.c ****     const lv_style_t * style = lv_obj_get_style(cont);
 1074              		.loc 3 317 0
 1075 0012 7868     		ldr	r0, [r7, #4]
 1076 0014 FFF7FEFF 		bl	lv_obj_get_style
 1077 0018 B860     		str	r0, [r7, #8]
 318:..\..\..\lvgl\version_6.1.2\lvgl\src\lv_objx/lv_cont.c ****     lv_coord_t hpad_corr;
 319:..\..\..\lvgl\version_6.1.2\lvgl\src\lv_objx/lv_cont.c **** 
 320:..\..\..\lvgl\version_6.1.2\lvgl\src\lv_objx/lv_cont.c ****     switch(type) {
 1078              		.loc 3 320 0
 1079 001a 7B7B     		ldrb	r3, [r7, #13]	@ zero_extendqisi2
 1080 001c 032B     		cmp	r3, #3
 1081 001e 09D0     		beq	.L62
 1082 0020 042B     		cmp	r3, #4
ARM GAS  C:\Users\tmj32\AppData\Local\Temp\ccnLJfS3.s 			page 30


 1083 0022 0CD0     		beq	.L63
 1084 0024 022B     		cmp	r3, #2
 1085 0026 14D1     		bne	.L71
 321:..\..\..\lvgl\version_6.1.2\lvgl\src\lv_objx/lv_cont.c ****         case LV_LAYOUT_COL_L:
 322:..\..\..\lvgl\version_6.1.2\lvgl\src\lv_objx/lv_cont.c ****             hpad_corr = style->body.padding.left;
 1086              		.loc 3 322 0
 1087 0028 BB68     		ldr	r3, [r7, #8]
 1088 002a 9B8C     		ldrh	r3, [r3, #36]	@ movhi
 1089 002c 3B82     		strh	r3, [r7, #16]	@ movhi
 323:..\..\..\lvgl\version_6.1.2\lvgl\src\lv_objx/lv_cont.c ****             align     = LV_ALIGN_IN_TOP_LEFT;
 1090              		.loc 3 323 0
 1091 002e 0123     		movs	r3, #1
 1092 0030 FB74     		strb	r3, [r7, #19]
 324:..\..\..\lvgl\version_6.1.2\lvgl\src\lv_objx/lv_cont.c ****             break;
 1093              		.loc 3 324 0
 1094 0032 13E0     		b	.L65
 1095              	.L62:
 325:..\..\..\lvgl\version_6.1.2\lvgl\src\lv_objx/lv_cont.c ****         case LV_LAYOUT_COL_M:
 326:..\..\..\lvgl\version_6.1.2\lvgl\src\lv_objx/lv_cont.c ****             hpad_corr = 0;
 1096              		.loc 3 326 0
 1097 0034 0023     		movs	r3, #0
 1098 0036 3B82     		strh	r3, [r7, #16]	@ movhi
 327:..\..\..\lvgl\version_6.1.2\lvgl\src\lv_objx/lv_cont.c ****             align     = LV_ALIGN_IN_TOP_MID;
 1099              		.loc 3 327 0
 1100 0038 0223     		movs	r3, #2
 1101 003a FB74     		strb	r3, [r7, #19]
 328:..\..\..\lvgl\version_6.1.2\lvgl\src\lv_objx/lv_cont.c ****             break;
 1102              		.loc 3 328 0
 1103 003c 0EE0     		b	.L65
 1104              	.L63:
 329:..\..\..\lvgl\version_6.1.2\lvgl\src\lv_objx/lv_cont.c ****         case LV_LAYOUT_COL_R:
 330:..\..\..\lvgl\version_6.1.2\lvgl\src\lv_objx/lv_cont.c ****             hpad_corr = -style->body.padding.right;
 1105              		.loc 3 330 0
 1106 003e BB68     		ldr	r3, [r7, #8]
 1107 0040 B3F92630 		ldrsh	r3, [r3, #38]
 1108 0044 9BB2     		uxth	r3, r3
 1109 0046 5B42     		negs	r3, r3
 1110 0048 9BB2     		uxth	r3, r3
 1111 004a 3B82     		strh	r3, [r7, #16]	@ movhi
 331:..\..\..\lvgl\version_6.1.2\lvgl\src\lv_objx/lv_cont.c ****             align     = LV_ALIGN_IN_TOP_RIGHT;
 1112              		.loc 3 331 0
 1113 004c 0323     		movs	r3, #3
 1114 004e FB74     		strb	r3, [r7, #19]
 332:..\..\..\lvgl\version_6.1.2\lvgl\src\lv_objx/lv_cont.c ****             break;
 1115              		.loc 3 332 0
 1116 0050 04E0     		b	.L65
 1117              	.L71:
 333:..\..\..\lvgl\version_6.1.2\lvgl\src\lv_objx/lv_cont.c ****         default:
 334:..\..\..\lvgl\version_6.1.2\lvgl\src\lv_objx/lv_cont.c ****             hpad_corr = 0;
 1118              		.loc 3 334 0
 1119 0052 0023     		movs	r3, #0
 1120 0054 3B82     		strh	r3, [r7, #16]	@ movhi
 335:..\..\..\lvgl\version_6.1.2\lvgl\src\lv_objx/lv_cont.c ****             align     = LV_ALIGN_IN_TOP_LEFT;
 1121              		.loc 3 335 0
 1122 0056 0123     		movs	r3, #1
 1123 0058 FB74     		strb	r3, [r7, #19]
 336:..\..\..\lvgl\version_6.1.2\lvgl\src\lv_objx/lv_cont.c ****             break;
ARM GAS  C:\Users\tmj32\AppData\Local\Temp\ccnLJfS3.s 			page 31


 1124              		.loc 3 336 0
 1125 005a 00BF     		nop
 1126              	.L65:
 337:..\..\..\lvgl\version_6.1.2\lvgl\src\lv_objx/lv_cont.c ****     }
 338:..\..\..\lvgl\version_6.1.2\lvgl\src\lv_objx/lv_cont.c **** 
 339:..\..\..\lvgl\version_6.1.2\lvgl\src\lv_objx/lv_cont.c ****     /* Disable child change action because the children will be moved a lot
 340:..\..\..\lvgl\version_6.1.2\lvgl\src\lv_objx/lv_cont.c ****      * an unnecessary child change signals could be sent*/
 341:..\..\..\lvgl\version_6.1.2\lvgl\src\lv_objx/lv_cont.c ****     lv_obj_set_protect(cont, LV_PROTECT_CHILD_CHG);
 1127              		.loc 3 341 0
 1128 005c 0121     		movs	r1, #1
 1129 005e 7868     		ldr	r0, [r7, #4]
 1130 0060 FFF7FEFF 		bl	lv_obj_set_protect
 342:..\..\..\lvgl\version_6.1.2\lvgl\src\lv_objx/lv_cont.c ****     /* Align the children */
 343:..\..\..\lvgl\version_6.1.2\lvgl\src\lv_objx/lv_cont.c ****     lv_coord_t last_cord = style->body.padding.top;
 1131              		.loc 3 343 0
 1132 0064 BB68     		ldr	r3, [r7, #8]
 1133 0066 1B8C     		ldrh	r3, [r3, #32]	@ movhi
 1134 0068 FB81     		strh	r3, [r7, #14]	@ movhi
 344:..\..\..\lvgl\version_6.1.2\lvgl\src\lv_objx/lv_cont.c ****     LV_LL_READ_BACK(cont->child_ll, child)
 1135              		.loc 3 344 0
 1136 006a 7B68     		ldr	r3, [r7, #4]
 1137 006c 0433     		adds	r3, r3, #4
 1138 006e 1846     		mov	r0, r3
 1139 0070 FFF7FEFF 		bl	lv_ll_get_tail
 1140 0074 7861     		str	r0, [r7, #20]
 1141 0076 2EE0     		b	.L66
 1142              	.L70:
 345:..\..\..\lvgl\version_6.1.2\lvgl\src\lv_objx/lv_cont.c ****     {
 346:..\..\..\lvgl\version_6.1.2\lvgl\src\lv_objx/lv_cont.c ****         if(lv_obj_get_hidden(child) != false || lv_obj_is_protected(child, LV_PROTECT_POS) != false
 1143              		.loc 3 346 0
 1144 0078 7869     		ldr	r0, [r7, #20]
 1145 007a FFF7FEFF 		bl	lv_obj_get_hidden
 1146 007e 0346     		mov	r3, r0
 1147 0080 002B     		cmp	r3, #0
 1148 0082 20D1     		bne	.L72
 1149              		.loc 3 346 0 is_stmt 0 discriminator 2
 1150 0084 0421     		movs	r1, #4
 1151 0086 7869     		ldr	r0, [r7, #20]
 1152 0088 FFF7FEFF 		bl	lv_obj_is_protected
 1153 008c 0346     		mov	r3, r0
 1154 008e 002B     		cmp	r3, #0
 1155 0090 19D1     		bne	.L72
 347:..\..\..\lvgl\version_6.1.2\lvgl\src\lv_objx/lv_cont.c **** 
 348:..\..\..\lvgl\version_6.1.2\lvgl\src\lv_objx/lv_cont.c ****         lv_obj_align(child, cont, align, hpad_corr, last_cord);
 1156              		.loc 3 348 0 is_stmt 1
 1157 0092 B7F91010 		ldrsh	r1, [r7, #16]
 1158 0096 FA7C     		ldrb	r2, [r7, #19]	@ zero_extendqisi2
 1159 0098 B7F90E30 		ldrsh	r3, [r7, #14]
 1160 009c 0093     		str	r3, [sp]
 1161 009e 0B46     		mov	r3, r1
 1162 00a0 7968     		ldr	r1, [r7, #4]
 1163 00a2 7869     		ldr	r0, [r7, #20]
 1164 00a4 FFF7FEFF 		bl	lv_obj_align
 349:..\..\..\lvgl\version_6.1.2\lvgl\src\lv_objx/lv_cont.c ****         last_cord += lv_obj_get_height(child) + style->body.padding.inner;
 1165              		.loc 3 349 0
 1166 00a8 7869     		ldr	r0, [r7, #20]
 1167 00aa FFF7FEFF 		bl	lv_obj_get_height
ARM GAS  C:\Users\tmj32\AppData\Local\Temp\ccnLJfS3.s 			page 32


 1168 00ae 0346     		mov	r3, r0
 1169 00b0 1A46     		mov	r2, r3
 1170 00b2 BB68     		ldr	r3, [r7, #8]
 1171 00b4 B3F92830 		ldrsh	r3, [r3, #40]
 1172 00b8 1344     		add	r3, r3, r2
 1173 00ba 9AB2     		uxth	r2, r3
 1174 00bc FB89     		ldrh	r3, [r7, #14]
 1175 00be 1344     		add	r3, r3, r2
 1176 00c0 9BB2     		uxth	r3, r3
 1177 00c2 FB81     		strh	r3, [r7, #14]	@ movhi
 1178 00c4 00E0     		b	.L69
 1179              	.L72:
 346:..\..\..\lvgl\version_6.1.2\lvgl\src\lv_objx/lv_cont.c **** 
 1180              		.loc 3 346 0
 1181 00c6 00BF     		nop
 1182              	.L69:
 344:..\..\..\lvgl\version_6.1.2\lvgl\src\lv_objx/lv_cont.c ****     {
 1183              		.loc 3 344 0 discriminator 2
 1184 00c8 7B68     		ldr	r3, [r7, #4]
 1185 00ca 0433     		adds	r3, r3, #4
 1186 00cc 7969     		ldr	r1, [r7, #20]
 1187 00ce 1846     		mov	r0, r3
 1188 00d0 FFF7FEFF 		bl	lv_ll_get_prev
 1189 00d4 7861     		str	r0, [r7, #20]
 1190              	.L66:
 344:..\..\..\lvgl\version_6.1.2\lvgl\src\lv_objx/lv_cont.c ****     {
 1191              		.loc 3 344 0 is_stmt 0 discriminator 1
 1192 00d6 7B69     		ldr	r3, [r7, #20]
 1193 00d8 002B     		cmp	r3, #0
 1194 00da CDD1     		bne	.L70
 350:..\..\..\lvgl\version_6.1.2\lvgl\src\lv_objx/lv_cont.c ****     }
 351:..\..\..\lvgl\version_6.1.2\lvgl\src\lv_objx/lv_cont.c **** 
 352:..\..\..\lvgl\version_6.1.2\lvgl\src\lv_objx/lv_cont.c ****     lv_obj_clear_protect(cont, LV_PROTECT_CHILD_CHG);
 1195              		.loc 3 352 0 is_stmt 1
 1196 00dc 0121     		movs	r1, #1
 1197 00de 7868     		ldr	r0, [r7, #4]
 1198 00e0 FFF7FEFF 		bl	lv_obj_clear_protect
 353:..\..\..\lvgl\version_6.1.2\lvgl\src\lv_objx/lv_cont.c **** }
 1199              		.loc 3 353 0
 1200 00e4 00BF     		nop
 1201 00e6 1837     		adds	r7, r7, #24
 1202              		.cfi_def_cfa_offset 8
 1203 00e8 BD46     		mov	sp, r7
 1204              		.cfi_def_cfa_register 13
 1205              		@ sp needed
 1206 00ea 80BD     		pop	{r7, pc}
 1207              		.cfi_endproc
 1208              	.LFE45:
 1209              		.size	lv_cont_layout_col, .-lv_cont_layout_col
 1210              		.section	.text.lv_cont_layout_row,"ax",%progbits
 1211              		.align	2
 1212              		.thumb
 1213              		.thumb_func
 1214              		.type	lv_cont_layout_row, %function
 1215              	lv_cont_layout_row:
 1216              	.LFB46:
 354:..\..\..\lvgl\version_6.1.2\lvgl\src\lv_objx/lv_cont.c **** 
ARM GAS  C:\Users\tmj32\AppData\Local\Temp\ccnLJfS3.s 			page 33


 355:..\..\..\lvgl\version_6.1.2\lvgl\src\lv_objx/lv_cont.c **** /**
 356:..\..\..\lvgl\version_6.1.2\lvgl\src\lv_objx/lv_cont.c ****  * Handle row type layouts
 357:..\..\..\lvgl\version_6.1.2\lvgl\src\lv_objx/lv_cont.c ****  * @param cont pointer to an object which layout should be handled
 358:..\..\..\lvgl\version_6.1.2\lvgl\src\lv_objx/lv_cont.c ****  */
 359:..\..\..\lvgl\version_6.1.2\lvgl\src\lv_objx/lv_cont.c **** static void lv_cont_layout_row(lv_obj_t * cont)
 360:..\..\..\lvgl\version_6.1.2\lvgl\src\lv_objx/lv_cont.c **** {
 1217              		.loc 3 360 0
 1218              		.cfi_startproc
 1219              		@ args = 0, pretend = 0, frame = 32
 1220              		@ frame_needed = 1, uses_anonymous_args = 0
 1221 0000 80B5     		push	{r7, lr}
 1222              		.cfi_def_cfa_offset 8
 1223              		.cfi_offset 7, -8
 1224              		.cfi_offset 14, -4
 1225 0002 8AB0     		sub	sp, sp, #40
 1226              		.cfi_def_cfa_offset 48
 1227 0004 02AF     		add	r7, sp, #8
 1228              		.cfi_def_cfa 7, 40
 1229 0006 7860     		str	r0, [r7, #4]
 361:..\..\..\lvgl\version_6.1.2\lvgl\src\lv_objx/lv_cont.c ****     lv_layout_t type = lv_cont_get_layout(cont);
 1230              		.loc 3 361 0
 1231 0008 7868     		ldr	r0, [r7, #4]
 1232 000a FFF7FEFF 		bl	lv_cont_get_layout
 1233 000e 0346     		mov	r3, r0
 1234 0010 7B75     		strb	r3, [r7, #21]
 362:..\..\..\lvgl\version_6.1.2\lvgl\src\lv_objx/lv_cont.c ****     lv_obj_t * child;
 363:..\..\..\lvgl\version_6.1.2\lvgl\src\lv_objx/lv_cont.c **** 
 364:..\..\..\lvgl\version_6.1.2\lvgl\src\lv_objx/lv_cont.c ****     /*Adjust margin and get the alignment type*/
 365:..\..\..\lvgl\version_6.1.2\lvgl\src\lv_objx/lv_cont.c ****     lv_align_t align;
 366:..\..\..\lvgl\version_6.1.2\lvgl\src\lv_objx/lv_cont.c ****     const lv_style_t * style = lv_obj_get_style(cont);
 1235              		.loc 3 366 0
 1236 0012 7868     		ldr	r0, [r7, #4]
 1237 0014 FFF7FEFF 		bl	lv_obj_get_style
 1238 0018 3861     		str	r0, [r7, #16]
 367:..\..\..\lvgl\version_6.1.2\lvgl\src\lv_objx/lv_cont.c ****     lv_coord_t vpad_corr;
 368:..\..\..\lvgl\version_6.1.2\lvgl\src\lv_objx/lv_cont.c ****     lv_bidi_dir_t base_dir = lv_obj_get_base_dir(cont);
 1239              		.loc 3 368 0
 1240 001a 7868     		ldr	r0, [r7, #4]
 1241 001c FFF7FEFF 		bl	lv_obj_get_base_dir
 1242 0020 0346     		mov	r3, r0
 1243 0022 FB73     		strb	r3, [r7, #15]
 369:..\..\..\lvgl\version_6.1.2\lvgl\src\lv_objx/lv_cont.c ****     switch(type) {
 1244              		.loc 3 369 0
 1245 0024 7B7D     		ldrb	r3, [r7, #21]	@ zero_extendqisi2
 1246 0026 062B     		cmp	r3, #6
 1247 0028 0ED0     		beq	.L75
 1248 002a 072B     		cmp	r3, #7
 1249 002c 16D0     		beq	.L76
 1250 002e 052B     		cmp	r3, #5
 1251 0030 23D1     		bne	.L96
 370:..\..\..\lvgl\version_6.1.2\lvgl\src\lv_objx/lv_cont.c ****         case LV_LAYOUT_ROW_T:
 371:..\..\..\lvgl\version_6.1.2\lvgl\src\lv_objx/lv_cont.c ****             vpad_corr = style->body.padding.top;
 1252              		.loc 3 371 0
 1253 0032 3B69     		ldr	r3, [r7, #16]
 1254 0034 1B8C     		ldrh	r3, [r3, #32]	@ movhi
 1255 0036 3B83     		strh	r3, [r7, #24]	@ movhi
 372:..\..\..\lvgl\version_6.1.2\lvgl\src\lv_objx/lv_cont.c ****             align     = base_dir == LV_BIDI_DIR_RTL ? LV_ALIGN_IN_TOP_RIGHT : LV_ALIGN_IN_TOP_LEFT;
ARM GAS  C:\Users\tmj32\AppData\Local\Temp\ccnLJfS3.s 			page 34


 1256              		.loc 3 372 0
 1257 0038 FB7B     		ldrb	r3, [r7, #15]	@ zero_extendqisi2
 1258 003a 012B     		cmp	r3, #1
 1259 003c 01D1     		bne	.L78
 1260              		.loc 3 372 0 is_stmt 0 discriminator 1
 1261 003e 0323     		movs	r3, #3
 1262 0040 00E0     		b	.L79
 1263              	.L78:
 1264              		.loc 3 372 0 discriminator 2
 1265 0042 0123     		movs	r3, #1
 1266              	.L79:
 1267              		.loc 3 372 0 discriminator 4
 1268 0044 FB76     		strb	r3, [r7, #27]
 373:..\..\..\lvgl\version_6.1.2\lvgl\src\lv_objx/lv_cont.c ****             break;
 1269              		.loc 3 373 0 is_stmt 1 discriminator 4
 1270 0046 22E0     		b	.L80
 1271              	.L75:
 374:..\..\..\lvgl\version_6.1.2\lvgl\src\lv_objx/lv_cont.c ****         case LV_LAYOUT_ROW_M:
 375:..\..\..\lvgl\version_6.1.2\lvgl\src\lv_objx/lv_cont.c ****             vpad_corr = 0;
 1272              		.loc 3 375 0
 1273 0048 0023     		movs	r3, #0
 1274 004a 3B83     		strh	r3, [r7, #24]	@ movhi
 376:..\..\..\lvgl\version_6.1.2\lvgl\src\lv_objx/lv_cont.c ****             align     = base_dir == LV_BIDI_DIR_RTL ? LV_ALIGN_IN_RIGHT_MID: LV_ALIGN_IN_LEFT_MID;
 1275              		.loc 3 376 0
 1276 004c FB7B     		ldrb	r3, [r7, #15]	@ zero_extendqisi2
 1277 004e 012B     		cmp	r3, #1
 1278 0050 01D1     		bne	.L81
 1279              		.loc 3 376 0 is_stmt 0 discriminator 1
 1280 0052 0823     		movs	r3, #8
 1281 0054 00E0     		b	.L82
 1282              	.L81:
 1283              		.loc 3 376 0 discriminator 2
 1284 0056 0723     		movs	r3, #7
 1285              	.L82:
 1286              		.loc 3 376 0 discriminator 4
 1287 0058 FB76     		strb	r3, [r7, #27]
 377:..\..\..\lvgl\version_6.1.2\lvgl\src\lv_objx/lv_cont.c ****             break;
 1288              		.loc 3 377 0 is_stmt 1 discriminator 4
 1289 005a 18E0     		b	.L80
 1290              	.L76:
 378:..\..\..\lvgl\version_6.1.2\lvgl\src\lv_objx/lv_cont.c ****         case LV_LAYOUT_ROW_B:
 379:..\..\..\lvgl\version_6.1.2\lvgl\src\lv_objx/lv_cont.c ****             vpad_corr = -style->body.padding.bottom;
 1291              		.loc 3 379 0
 1292 005c 3B69     		ldr	r3, [r7, #16]
 1293 005e B3F92230 		ldrsh	r3, [r3, #34]
 1294 0062 9BB2     		uxth	r3, r3
 1295 0064 5B42     		negs	r3, r3
 1296 0066 9BB2     		uxth	r3, r3
 1297 0068 3B83     		strh	r3, [r7, #24]	@ movhi
 380:..\..\..\lvgl\version_6.1.2\lvgl\src\lv_objx/lv_cont.c ****             align     = base_dir == LV_BIDI_DIR_RTL ? LV_ALIGN_IN_BOTTOM_RIGHT: LV_ALIGN_IN_BOTTOM_
 1298              		.loc 3 380 0
 1299 006a FB7B     		ldrb	r3, [r7, #15]	@ zero_extendqisi2
 1300 006c 012B     		cmp	r3, #1
 1301 006e 01D1     		bne	.L83
 1302              		.loc 3 380 0 is_stmt 0 discriminator 1
 1303 0070 0623     		movs	r3, #6
 1304 0072 00E0     		b	.L84
ARM GAS  C:\Users\tmj32\AppData\Local\Temp\ccnLJfS3.s 			page 35


 1305              	.L83:
 1306              		.loc 3 380 0 discriminator 2
 1307 0074 0423     		movs	r3, #4
 1308              	.L84:
 1309              		.loc 3 380 0 discriminator 4
 1310 0076 FB76     		strb	r3, [r7, #27]
 381:..\..\..\lvgl\version_6.1.2\lvgl\src\lv_objx/lv_cont.c ****             break;
 1311              		.loc 3 381 0 is_stmt 1 discriminator 4
 1312 0078 09E0     		b	.L80
 1313              	.L96:
 382:..\..\..\lvgl\version_6.1.2\lvgl\src\lv_objx/lv_cont.c ****         default:
 383:..\..\..\lvgl\version_6.1.2\lvgl\src\lv_objx/lv_cont.c ****             vpad_corr = 0;
 1314              		.loc 3 383 0
 1315 007a 0023     		movs	r3, #0
 1316 007c 3B83     		strh	r3, [r7, #24]	@ movhi
 384:..\..\..\lvgl\version_6.1.2\lvgl\src\lv_objx/lv_cont.c ****             align     = base_dir == LV_BIDI_DIR_RTL ? LV_ALIGN_IN_TOP_RIGHT : LV_ALIGN_IN_TOP_LEFT;
 1317              		.loc 3 384 0
 1318 007e FB7B     		ldrb	r3, [r7, #15]	@ zero_extendqisi2
 1319 0080 012B     		cmp	r3, #1
 1320 0082 01D1     		bne	.L85
 1321              		.loc 3 384 0 is_stmt 0 discriminator 1
 1322 0084 0323     		movs	r3, #3
 1323 0086 00E0     		b	.L86
 1324              	.L85:
 1325              		.loc 3 384 0 discriminator 2
 1326 0088 0123     		movs	r3, #1
 1327              	.L86:
 1328              		.loc 3 384 0 discriminator 4
 1329 008a FB76     		strb	r3, [r7, #27]
 385:..\..\..\lvgl\version_6.1.2\lvgl\src\lv_objx/lv_cont.c ****             break;
 1330              		.loc 3 385 0 is_stmt 1 discriminator 4
 1331 008c 00BF     		nop
 1332              	.L80:
 386:..\..\..\lvgl\version_6.1.2\lvgl\src\lv_objx/lv_cont.c ****     }
 387:..\..\..\lvgl\version_6.1.2\lvgl\src\lv_objx/lv_cont.c **** 
 388:..\..\..\lvgl\version_6.1.2\lvgl\src\lv_objx/lv_cont.c ****     /* Disable child change action because the children will be moved a lot
 389:..\..\..\lvgl\version_6.1.2\lvgl\src\lv_objx/lv_cont.c ****      * an unnecessary child change signals could be sent*/
 390:..\..\..\lvgl\version_6.1.2\lvgl\src\lv_objx/lv_cont.c ****     lv_obj_set_protect(cont, LV_PROTECT_CHILD_CHG);
 1333              		.loc 3 390 0
 1334 008e 0121     		movs	r1, #1
 1335 0090 7868     		ldr	r0, [r7, #4]
 1336 0092 FFF7FEFF 		bl	lv_obj_set_protect
 391:..\..\..\lvgl\version_6.1.2\lvgl\src\lv_objx/lv_cont.c **** 
 392:..\..\..\lvgl\version_6.1.2\lvgl\src\lv_objx/lv_cont.c ****     /* Align the children */
 393:..\..\..\lvgl\version_6.1.2\lvgl\src\lv_objx/lv_cont.c ****     lv_coord_t last_cord;
 394:..\..\..\lvgl\version_6.1.2\lvgl\src\lv_objx/lv_cont.c ****     if(base_dir == LV_BIDI_DIR_RTL) last_cord = style->body.padding.right;
 1337              		.loc 3 394 0
 1338 0096 FB7B     		ldrb	r3, [r7, #15]	@ zero_extendqisi2
 1339 0098 012B     		cmp	r3, #1
 1340 009a 03D1     		bne	.L87
 1341              		.loc 3 394 0 is_stmt 0 discriminator 1
 1342 009c 3B69     		ldr	r3, [r7, #16]
 1343 009e DB8C     		ldrh	r3, [r3, #38]	@ movhi
 1344 00a0 FB82     		strh	r3, [r7, #22]	@ movhi
 1345 00a2 02E0     		b	.L88
 1346              	.L87:
 395:..\..\..\lvgl\version_6.1.2\lvgl\src\lv_objx/lv_cont.c ****     else last_cord = style->body.padding.left;
ARM GAS  C:\Users\tmj32\AppData\Local\Temp\ccnLJfS3.s 			page 36


 1347              		.loc 3 395 0 is_stmt 1
 1348 00a4 3B69     		ldr	r3, [r7, #16]
 1349 00a6 9B8C     		ldrh	r3, [r3, #36]	@ movhi
 1350 00a8 FB82     		strh	r3, [r7, #22]	@ movhi
 1351              	.L88:
 396:..\..\..\lvgl\version_6.1.2\lvgl\src\lv_objx/lv_cont.c **** 
 397:..\..\..\lvgl\version_6.1.2\lvgl\src\lv_objx/lv_cont.c ****     LV_LL_READ_BACK(cont->child_ll, child)
 1352              		.loc 3 397 0
 1353 00aa 7B68     		ldr	r3, [r7, #4]
 1354 00ac 0433     		adds	r3, r3, #4
 1355 00ae 1846     		mov	r0, r3
 1356 00b0 FFF7FEFF 		bl	lv_ll_get_tail
 1357 00b4 F861     		str	r0, [r7, #28]
 1358 00b6 3FE0     		b	.L89
 1359              	.L95:
 398:..\..\..\lvgl\version_6.1.2\lvgl\src\lv_objx/lv_cont.c ****     {
 399:..\..\..\lvgl\version_6.1.2\lvgl\src\lv_objx/lv_cont.c ****         if(lv_obj_get_hidden(child) != false || lv_obj_is_protected(child, LV_PROTECT_POS) != false
 1360              		.loc 3 399 0
 1361 00b8 F869     		ldr	r0, [r7, #28]
 1362 00ba FFF7FEFF 		bl	lv_obj_get_hidden
 1363 00be 0346     		mov	r3, r0
 1364 00c0 002B     		cmp	r3, #0
 1365 00c2 31D1     		bne	.L97
 1366              		.loc 3 399 0 is_stmt 0 discriminator 2
 1367 00c4 0421     		movs	r1, #4
 1368 00c6 F869     		ldr	r0, [r7, #28]
 1369 00c8 FFF7FEFF 		bl	lv_obj_is_protected
 1370 00cc 0346     		mov	r3, r0
 1371 00ce 002B     		cmp	r3, #0
 1372 00d0 2AD1     		bne	.L97
 400:..\..\..\lvgl\version_6.1.2\lvgl\src\lv_objx/lv_cont.c **** 
 401:..\..\..\lvgl\version_6.1.2\lvgl\src\lv_objx/lv_cont.c **** //        last_cord -= lv_obj_get_width(child);
 402:..\..\..\lvgl\version_6.1.2\lvgl\src\lv_objx/lv_cont.c **** 
 403:..\..\..\lvgl\version_6.1.2\lvgl\src\lv_objx/lv_cont.c ****         if(base_dir == LV_BIDI_DIR_RTL) lv_obj_align(child, cont, align, -last_cord, vpad_corr);
 1373              		.loc 3 403 0 is_stmt 1
 1374 00d2 FB7B     		ldrb	r3, [r7, #15]	@ zero_extendqisi2
 1375 00d4 012B     		cmp	r3, #1
 1376 00d6 0DD1     		bne	.L93
 1377              		.loc 3 403 0 is_stmt 0 discriminator 1
 1378 00d8 FB8A     		ldrh	r3, [r7, #22]
 1379 00da 5B42     		negs	r3, r3
 1380 00dc 9BB2     		uxth	r3, r3
 1381 00de 19B2     		sxth	r1, r3
 1382 00e0 FA7E     		ldrb	r2, [r7, #27]	@ zero_extendqisi2
 1383 00e2 B7F91830 		ldrsh	r3, [r7, #24]
 1384 00e6 0093     		str	r3, [sp]
 1385 00e8 0B46     		mov	r3, r1
 1386 00ea 7968     		ldr	r1, [r7, #4]
 1387 00ec F869     		ldr	r0, [r7, #28]
 1388 00ee FFF7FEFF 		bl	lv_obj_align
 1389 00f2 0AE0     		b	.L94
 1390              	.L93:
 404:..\..\..\lvgl\version_6.1.2\lvgl\src\lv_objx/lv_cont.c ****         else lv_obj_align(child, cont, align, last_cord, vpad_corr);
 1391              		.loc 3 404 0 is_stmt 1
 1392 00f4 B7F91610 		ldrsh	r1, [r7, #22]
 1393 00f8 FA7E     		ldrb	r2, [r7, #27]	@ zero_extendqisi2
 1394 00fa B7F91830 		ldrsh	r3, [r7, #24]
ARM GAS  C:\Users\tmj32\AppData\Local\Temp\ccnLJfS3.s 			page 37


 1395 00fe 0093     		str	r3, [sp]
 1396 0100 0B46     		mov	r3, r1
 1397 0102 7968     		ldr	r1, [r7, #4]
 1398 0104 F869     		ldr	r0, [r7, #28]
 1399 0106 FFF7FEFF 		bl	lv_obj_align
 1400              	.L94:
 405:..\..\..\lvgl\version_6.1.2\lvgl\src\lv_objx/lv_cont.c **** 
 406:..\..\..\lvgl\version_6.1.2\lvgl\src\lv_objx/lv_cont.c ****         last_cord += lv_obj_get_width(child) + style->body.padding.inner;
 1401              		.loc 3 406 0
 1402 010a F869     		ldr	r0, [r7, #28]
 1403 010c FFF7FEFF 		bl	lv_obj_get_width
 1404 0110 0346     		mov	r3, r0
 1405 0112 1A46     		mov	r2, r3
 1406 0114 3B69     		ldr	r3, [r7, #16]
 1407 0116 B3F92830 		ldrsh	r3, [r3, #40]
 1408 011a 1344     		add	r3, r3, r2
 1409 011c 9AB2     		uxth	r2, r3
 1410 011e FB8A     		ldrh	r3, [r7, #22]
 1411 0120 1344     		add	r3, r3, r2
 1412 0122 9BB2     		uxth	r3, r3
 1413 0124 FB82     		strh	r3, [r7, #22]	@ movhi
 1414 0126 00E0     		b	.L92
 1415              	.L97:
 399:..\..\..\lvgl\version_6.1.2\lvgl\src\lv_objx/lv_cont.c **** 
 1416              		.loc 3 399 0
 1417 0128 00BF     		nop
 1418              	.L92:
 397:..\..\..\lvgl\version_6.1.2\lvgl\src\lv_objx/lv_cont.c ****     {
 1419              		.loc 3 397 0 discriminator 2
 1420 012a 7B68     		ldr	r3, [r7, #4]
 1421 012c 0433     		adds	r3, r3, #4
 1422 012e F969     		ldr	r1, [r7, #28]
 1423 0130 1846     		mov	r0, r3
 1424 0132 FFF7FEFF 		bl	lv_ll_get_prev
 1425 0136 F861     		str	r0, [r7, #28]
 1426              	.L89:
 397:..\..\..\lvgl\version_6.1.2\lvgl\src\lv_objx/lv_cont.c ****     {
 1427              		.loc 3 397 0 is_stmt 0 discriminator 1
 1428 0138 FB69     		ldr	r3, [r7, #28]
 1429 013a 002B     		cmp	r3, #0
 1430 013c BCD1     		bne	.L95
 407:..\..\..\lvgl\version_6.1.2\lvgl\src\lv_objx/lv_cont.c ****     }
 408:..\..\..\lvgl\version_6.1.2\lvgl\src\lv_objx/lv_cont.c **** 
 409:..\..\..\lvgl\version_6.1.2\lvgl\src\lv_objx/lv_cont.c ****     lv_obj_clear_protect(cont, LV_PROTECT_CHILD_CHG);
 1431              		.loc 3 409 0 is_stmt 1
 1432 013e 0121     		movs	r1, #1
 1433 0140 7868     		ldr	r0, [r7, #4]
 1434 0142 FFF7FEFF 		bl	lv_obj_clear_protect
 410:..\..\..\lvgl\version_6.1.2\lvgl\src\lv_objx/lv_cont.c **** }
 1435              		.loc 3 410 0
 1436 0146 00BF     		nop
 1437 0148 2037     		adds	r7, r7, #32
 1438              		.cfi_def_cfa_offset 8
 1439 014a BD46     		mov	sp, r7
 1440              		.cfi_def_cfa_register 13
 1441              		@ sp needed
 1442 014c 80BD     		pop	{r7, pc}
ARM GAS  C:\Users\tmj32\AppData\Local\Temp\ccnLJfS3.s 			page 38


 1443              		.cfi_endproc
 1444              	.LFE46:
 1445              		.size	lv_cont_layout_row, .-lv_cont_layout_row
 1446 014e 00BF     		.section	.text.lv_cont_layout_center,"ax",%progbits
 1447              		.align	2
 1448              		.thumb
 1449              		.thumb_func
 1450              		.type	lv_cont_layout_center, %function
 1451              	lv_cont_layout_center:
 1452              	.LFB47:
 411:..\..\..\lvgl\version_6.1.2\lvgl\src\lv_objx/lv_cont.c **** 
 412:..\..\..\lvgl\version_6.1.2\lvgl\src\lv_objx/lv_cont.c **** /**
 413:..\..\..\lvgl\version_6.1.2\lvgl\src\lv_objx/lv_cont.c ****  * Handle the center layout
 414:..\..\..\lvgl\version_6.1.2\lvgl\src\lv_objx/lv_cont.c ****  * @param cont pointer to an object which layout should be handled
 415:..\..\..\lvgl\version_6.1.2\lvgl\src\lv_objx/lv_cont.c ****  */
 416:..\..\..\lvgl\version_6.1.2\lvgl\src\lv_objx/lv_cont.c **** static void lv_cont_layout_center(lv_obj_t * cont)
 417:..\..\..\lvgl\version_6.1.2\lvgl\src\lv_objx/lv_cont.c **** {
 1453              		.loc 3 417 0
 1454              		.cfi_startproc
 1455              		@ args = 0, pretend = 0, frame = 24
 1456              		@ frame_needed = 1, uses_anonymous_args = 0
 1457 0000 80B5     		push	{r7, lr}
 1458              		.cfi_def_cfa_offset 8
 1459              		.cfi_offset 7, -8
 1460              		.cfi_offset 14, -4
 1461 0002 88B0     		sub	sp, sp, #32
 1462              		.cfi_def_cfa_offset 40
 1463 0004 02AF     		add	r7, sp, #8
 1464              		.cfi_def_cfa 7, 32
 1465 0006 7860     		str	r0, [r7, #4]
 418:..\..\..\lvgl\version_6.1.2\lvgl\src\lv_objx/lv_cont.c ****     lv_obj_t * child;
 419:..\..\..\lvgl\version_6.1.2\lvgl\src\lv_objx/lv_cont.c ****     const lv_style_t * style = lv_obj_get_style(cont);
 1466              		.loc 3 419 0
 1467 0008 7868     		ldr	r0, [r7, #4]
 1468 000a FFF7FEFF 		bl	lv_obj_get_style
 1469 000e B860     		str	r0, [r7, #8]
 420:..\..\..\lvgl\version_6.1.2\lvgl\src\lv_objx/lv_cont.c ****     uint32_t obj_num         = 0;
 1470              		.loc 3 420 0
 1471 0010 0023     		movs	r3, #0
 1472 0012 3B61     		str	r3, [r7, #16]
 421:..\..\..\lvgl\version_6.1.2\lvgl\src\lv_objx/lv_cont.c ****     lv_coord_t h_tot         = 0;
 1473              		.loc 3 421 0
 1474 0014 0023     		movs	r3, #0
 1475 0016 FB81     		strh	r3, [r7, #14]	@ movhi
 422:..\..\..\lvgl\version_6.1.2\lvgl\src\lv_objx/lv_cont.c **** 
 423:..\..\..\lvgl\version_6.1.2\lvgl\src\lv_objx/lv_cont.c ****     LV_LL_READ(cont->child_ll, child)
 1476              		.loc 3 423 0
 1477 0018 7B68     		ldr	r3, [r7, #4]
 1478 001a 0433     		adds	r3, r3, #4
 1479 001c 1846     		mov	r0, r3
 1480 001e FFF7FEFF 		bl	lv_ll_get_head
 1481 0022 7861     		str	r0, [r7, #20]
 1482 0024 26E0     		b	.L99
 1483              	.L103:
 424:..\..\..\lvgl\version_6.1.2\lvgl\src\lv_objx/lv_cont.c ****     {
 425:..\..\..\lvgl\version_6.1.2\lvgl\src\lv_objx/lv_cont.c ****         if(lv_obj_get_hidden(child) != false || lv_obj_is_protected(child, LV_PROTECT_POS) != false
 1484              		.loc 3 425 0
ARM GAS  C:\Users\tmj32\AppData\Local\Temp\ccnLJfS3.s 			page 39


 1485 0026 7869     		ldr	r0, [r7, #20]
 1486 0028 FFF7FEFF 		bl	lv_obj_get_hidden
 1487 002c 0346     		mov	r3, r0
 1488 002e 002B     		cmp	r3, #0
 1489 0030 18D1     		bne	.L111
 1490              		.loc 3 425 0 is_stmt 0 discriminator 2
 1491 0032 0421     		movs	r1, #4
 1492 0034 7869     		ldr	r0, [r7, #20]
 1493 0036 FFF7FEFF 		bl	lv_obj_is_protected
 1494 003a 0346     		mov	r3, r0
 1495 003c 002B     		cmp	r3, #0
 1496 003e 11D1     		bne	.L111
 426:..\..\..\lvgl\version_6.1.2\lvgl\src\lv_objx/lv_cont.c ****         h_tot += lv_obj_get_height(child) + style->body.padding.inner;
 1497              		.loc 3 426 0 is_stmt 1
 1498 0040 7869     		ldr	r0, [r7, #20]
 1499 0042 FFF7FEFF 		bl	lv_obj_get_height
 1500 0046 0346     		mov	r3, r0
 1501 0048 1A46     		mov	r2, r3
 1502 004a BB68     		ldr	r3, [r7, #8]
 1503 004c B3F92830 		ldrsh	r3, [r3, #40]
 1504 0050 1344     		add	r3, r3, r2
 1505 0052 9AB2     		uxth	r2, r3
 1506 0054 FB89     		ldrh	r3, [r7, #14]
 1507 0056 1344     		add	r3, r3, r2
 1508 0058 9BB2     		uxth	r3, r3
 1509 005a FB81     		strh	r3, [r7, #14]	@ movhi
 427:..\..\..\lvgl\version_6.1.2\lvgl\src\lv_objx/lv_cont.c ****         obj_num++;
 1510              		.loc 3 427 0
 1511 005c 3B69     		ldr	r3, [r7, #16]
 1512 005e 0133     		adds	r3, r3, #1
 1513 0060 3B61     		str	r3, [r7, #16]
 1514 0062 00E0     		b	.L102
 1515              	.L111:
 425:..\..\..\lvgl\version_6.1.2\lvgl\src\lv_objx/lv_cont.c ****         h_tot += lv_obj_get_height(child) + style->body.padding.inner;
 1516              		.loc 3 425 0
 1517 0064 00BF     		nop
 1518              	.L102:
 423:..\..\..\lvgl\version_6.1.2\lvgl\src\lv_objx/lv_cont.c ****     {
 1519              		.loc 3 423 0 discriminator 2
 1520 0066 7B68     		ldr	r3, [r7, #4]
 1521 0068 0433     		adds	r3, r3, #4
 1522 006a 7969     		ldr	r1, [r7, #20]
 1523 006c 1846     		mov	r0, r3
 1524 006e FFF7FEFF 		bl	lv_ll_get_next
 1525 0072 7861     		str	r0, [r7, #20]
 1526              	.L99:
 423:..\..\..\lvgl\version_6.1.2\lvgl\src\lv_objx/lv_cont.c ****     {
 1527              		.loc 3 423 0 is_stmt 0 discriminator 1
 1528 0074 7B69     		ldr	r3, [r7, #20]
 1529 0076 002B     		cmp	r3, #0
 1530 0078 D5D1     		bne	.L103
 428:..\..\..\lvgl\version_6.1.2\lvgl\src\lv_objx/lv_cont.c ****     }
 429:..\..\..\lvgl\version_6.1.2\lvgl\src\lv_objx/lv_cont.c **** 
 430:..\..\..\lvgl\version_6.1.2\lvgl\src\lv_objx/lv_cont.c ****     if(obj_num == 0) return;
 1531              		.loc 3 430 0 is_stmt 1
 1532 007a 3B69     		ldr	r3, [r7, #16]
 1533 007c 002B     		cmp	r3, #0
ARM GAS  C:\Users\tmj32\AppData\Local\Temp\ccnLJfS3.s 			page 40


 1534 007e 5CD0     		beq	.L112
 431:..\..\..\lvgl\version_6.1.2\lvgl\src\lv_objx/lv_cont.c **** 
 432:..\..\..\lvgl\version_6.1.2\lvgl\src\lv_objx/lv_cont.c ****     h_tot -= style->body.padding.inner;
 1535              		.loc 3 432 0
 1536 0080 FA89     		ldrh	r2, [r7, #14]
 1537 0082 BB68     		ldr	r3, [r7, #8]
 1538 0084 B3F92830 		ldrsh	r3, [r3, #40]
 1539 0088 9BB2     		uxth	r3, r3
 1540 008a D31A     		subs	r3, r2, r3
 1541 008c 9BB2     		uxth	r3, r3
 1542 008e FB81     		strh	r3, [r7, #14]	@ movhi
 433:..\..\..\lvgl\version_6.1.2\lvgl\src\lv_objx/lv_cont.c **** 
 434:..\..\..\lvgl\version_6.1.2\lvgl\src\lv_objx/lv_cont.c ****     /* Disable child change action because the children will be moved a lot
 435:..\..\..\lvgl\version_6.1.2\lvgl\src\lv_objx/lv_cont.c ****      * an unnecessary child change signals could be sent*/
 436:..\..\..\lvgl\version_6.1.2\lvgl\src\lv_objx/lv_cont.c ****     lv_obj_set_protect(cont, LV_PROTECT_CHILD_CHG);
 1543              		.loc 3 436 0
 1544 0090 0121     		movs	r1, #1
 1545 0092 7868     		ldr	r0, [r7, #4]
 1546 0094 FFF7FEFF 		bl	lv_obj_set_protect
 437:..\..\..\lvgl\version_6.1.2\lvgl\src\lv_objx/lv_cont.c **** 
 438:..\..\..\lvgl\version_6.1.2\lvgl\src\lv_objx/lv_cont.c ****     /* Align the children */
 439:..\..\..\lvgl\version_6.1.2\lvgl\src\lv_objx/lv_cont.c ****     lv_coord_t last_cord = -(h_tot / 2);
 1547              		.loc 3 439 0
 1548 0098 B7F90E30 		ldrsh	r3, [r7, #14]
 1549 009c DA0F     		lsrs	r2, r3, #31
 1550 009e 1344     		add	r3, r3, r2
 1551 00a0 5B10     		asrs	r3, r3, #1
 1552 00a2 1BB2     		sxth	r3, r3
 1553 00a4 9BB2     		uxth	r3, r3
 1554 00a6 5B42     		negs	r3, r3
 1555 00a8 9BB2     		uxth	r3, r3
 1556 00aa BB81     		strh	r3, [r7, #12]	@ movhi
 440:..\..\..\lvgl\version_6.1.2\lvgl\src\lv_objx/lv_cont.c ****     LV_LL_READ_BACK(cont->child_ll, child)
 1557              		.loc 3 440 0
 1558 00ac 7B68     		ldr	r3, [r7, #4]
 1559 00ae 0433     		adds	r3, r3, #4
 1560 00b0 1846     		mov	r0, r3
 1561 00b2 FFF7FEFF 		bl	lv_ll_get_tail
 1562 00b6 7861     		str	r0, [r7, #20]
 1563 00b8 37E0     		b	.L106
 1564              	.L110:
 441:..\..\..\lvgl\version_6.1.2\lvgl\src\lv_objx/lv_cont.c ****     {
 442:..\..\..\lvgl\version_6.1.2\lvgl\src\lv_objx/lv_cont.c ****         if(lv_obj_get_hidden(child) != false || lv_obj_is_protected(child, LV_PROTECT_POS) != false
 1565              		.loc 3 442 0
 1566 00ba 7869     		ldr	r0, [r7, #20]
 1567 00bc FFF7FEFF 		bl	lv_obj_get_hidden
 1568 00c0 0346     		mov	r3, r0
 1569 00c2 002B     		cmp	r3, #0
 1570 00c4 29D1     		bne	.L113
 1571              		.loc 3 442 0 is_stmt 0 discriminator 2
 1572 00c6 0421     		movs	r1, #4
 1573 00c8 7869     		ldr	r0, [r7, #20]
 1574 00ca FFF7FEFF 		bl	lv_obj_is_protected
 1575 00ce 0346     		mov	r3, r0
 1576 00d0 002B     		cmp	r3, #0
 1577 00d2 22D1     		bne	.L113
 443:..\..\..\lvgl\version_6.1.2\lvgl\src\lv_objx/lv_cont.c **** 
ARM GAS  C:\Users\tmj32\AppData\Local\Temp\ccnLJfS3.s 			page 41


 444:..\..\..\lvgl\version_6.1.2\lvgl\src\lv_objx/lv_cont.c ****         lv_obj_align(child, cont, LV_ALIGN_CENTER, 0, last_cord + lv_obj_get_height(child) / 2);
 1578              		.loc 3 444 0 is_stmt 1
 1579 00d4 7869     		ldr	r0, [r7, #20]
 1580 00d6 FFF7FEFF 		bl	lv_obj_get_height
 1581 00da 0346     		mov	r3, r0
 1582 00dc DA0F     		lsrs	r2, r3, #31
 1583 00de 1344     		add	r3, r3, r2
 1584 00e0 5B10     		asrs	r3, r3, #1
 1585 00e2 1BB2     		sxth	r3, r3
 1586 00e4 9AB2     		uxth	r2, r3
 1587 00e6 BB89     		ldrh	r3, [r7, #12]
 1588 00e8 1344     		add	r3, r3, r2
 1589 00ea 9BB2     		uxth	r3, r3
 1590 00ec 1BB2     		sxth	r3, r3
 1591 00ee 0093     		str	r3, [sp]
 1592 00f0 0023     		movs	r3, #0
 1593 00f2 0022     		movs	r2, #0
 1594 00f4 7968     		ldr	r1, [r7, #4]
 1595 00f6 7869     		ldr	r0, [r7, #20]
 1596 00f8 FFF7FEFF 		bl	lv_obj_align
 445:..\..\..\lvgl\version_6.1.2\lvgl\src\lv_objx/lv_cont.c ****         last_cord += lv_obj_get_height(child) + style->body.padding.inner;
 1597              		.loc 3 445 0
 1598 00fc 7869     		ldr	r0, [r7, #20]
 1599 00fe FFF7FEFF 		bl	lv_obj_get_height
 1600 0102 0346     		mov	r3, r0
 1601 0104 1A46     		mov	r2, r3
 1602 0106 BB68     		ldr	r3, [r7, #8]
 1603 0108 B3F92830 		ldrsh	r3, [r3, #40]
 1604 010c 1344     		add	r3, r3, r2
 1605 010e 9AB2     		uxth	r2, r3
 1606 0110 BB89     		ldrh	r3, [r7, #12]
 1607 0112 1344     		add	r3, r3, r2
 1608 0114 9BB2     		uxth	r3, r3
 1609 0116 BB81     		strh	r3, [r7, #12]	@ movhi
 1610 0118 00E0     		b	.L109
 1611              	.L113:
 442:..\..\..\lvgl\version_6.1.2\lvgl\src\lv_objx/lv_cont.c **** 
 1612              		.loc 3 442 0
 1613 011a 00BF     		nop
 1614              	.L109:
 440:..\..\..\lvgl\version_6.1.2\lvgl\src\lv_objx/lv_cont.c ****     {
 1615              		.loc 3 440 0 discriminator 2
 1616 011c 7B68     		ldr	r3, [r7, #4]
 1617 011e 0433     		adds	r3, r3, #4
 1618 0120 7969     		ldr	r1, [r7, #20]
 1619 0122 1846     		mov	r0, r3
 1620 0124 FFF7FEFF 		bl	lv_ll_get_prev
 1621 0128 7861     		str	r0, [r7, #20]
 1622              	.L106:
 440:..\..\..\lvgl\version_6.1.2\lvgl\src\lv_objx/lv_cont.c ****     {
 1623              		.loc 3 440 0 is_stmt 0 discriminator 1
 1624 012a 7B69     		ldr	r3, [r7, #20]
 1625 012c 002B     		cmp	r3, #0
 1626 012e C4D1     		bne	.L110
 446:..\..\..\lvgl\version_6.1.2\lvgl\src\lv_objx/lv_cont.c ****     }
 447:..\..\..\lvgl\version_6.1.2\lvgl\src\lv_objx/lv_cont.c **** 
 448:..\..\..\lvgl\version_6.1.2\lvgl\src\lv_objx/lv_cont.c ****     lv_obj_clear_protect(cont, LV_PROTECT_CHILD_CHG);
ARM GAS  C:\Users\tmj32\AppData\Local\Temp\ccnLJfS3.s 			page 42


 1627              		.loc 3 448 0 is_stmt 1
 1628 0130 0121     		movs	r1, #1
 1629 0132 7868     		ldr	r0, [r7, #4]
 1630 0134 FFF7FEFF 		bl	lv_obj_clear_protect
 1631 0138 00E0     		b	.L98
 1632              	.L112:
 430:..\..\..\lvgl\version_6.1.2\lvgl\src\lv_objx/lv_cont.c **** 
 1633              		.loc 3 430 0
 1634 013a 00BF     		nop
 1635              	.L98:
 449:..\..\..\lvgl\version_6.1.2\lvgl\src\lv_objx/lv_cont.c **** }
 1636              		.loc 3 449 0
 1637 013c 1837     		adds	r7, r7, #24
 1638              		.cfi_def_cfa_offset 8
 1639 013e BD46     		mov	sp, r7
 1640              		.cfi_def_cfa_register 13
 1641              		@ sp needed
 1642 0140 80BD     		pop	{r7, pc}
 1643              		.cfi_endproc
 1644              	.LFE47:
 1645              		.size	lv_cont_layout_center, .-lv_cont_layout_center
 1646 0142 00BF     		.section	.text.lv_cont_layout_pretty,"ax",%progbits
 1647              		.align	2
 1648              		.thumb
 1649              		.thumb_func
 1650              		.type	lv_cont_layout_pretty, %function
 1651              	lv_cont_layout_pretty:
 1652              	.LFB48:
 450:..\..\..\lvgl\version_6.1.2\lvgl\src\lv_objx/lv_cont.c **** 
 451:..\..\..\lvgl\version_6.1.2\lvgl\src\lv_objx/lv_cont.c **** /**
 452:..\..\..\lvgl\version_6.1.2\lvgl\src\lv_objx/lv_cont.c ****  * Handle the pretty layout. Put as many object as possible in row
 453:..\..\..\lvgl\version_6.1.2\lvgl\src\lv_objx/lv_cont.c ****  * then begin a new row
 454:..\..\..\lvgl\version_6.1.2\lvgl\src\lv_objx/lv_cont.c ****  * @param cont pointer to an object which layout should be handled
 455:..\..\..\lvgl\version_6.1.2\lvgl\src\lv_objx/lv_cont.c ****  */
 456:..\..\..\lvgl\version_6.1.2\lvgl\src\lv_objx/lv_cont.c **** static void lv_cont_layout_pretty(lv_obj_t * cont)
 457:..\..\..\lvgl\version_6.1.2\lvgl\src\lv_objx/lv_cont.c **** {
 1653              		.loc 3 457 0
 1654              		.cfi_startproc
 1655              		@ args = 0, pretend = 0, frame = 56
 1656              		@ frame_needed = 1, uses_anonymous_args = 0
 1657 0000 B0B5     		push	{r4, r5, r7, lr}
 1658              		.cfi_def_cfa_offset 16
 1659              		.cfi_offset 4, -16
 1660              		.cfi_offset 5, -12
 1661              		.cfi_offset 7, -8
 1662              		.cfi_offset 14, -4
 1663 0002 90B0     		sub	sp, sp, #64
 1664              		.cfi_def_cfa_offset 80
 1665 0004 02AF     		add	r7, sp, #8
 1666              		.cfi_def_cfa 7, 72
 1667 0006 7860     		str	r0, [r7, #4]
 458:..\..\..\lvgl\version_6.1.2\lvgl\src\lv_objx/lv_cont.c ****     lv_obj_t * child_rs;  /* Row starter child */
 459:..\..\..\lvgl\version_6.1.2\lvgl\src\lv_objx/lv_cont.c ****     lv_obj_t * child_rc;  /* Row closer child */
 460:..\..\..\lvgl\version_6.1.2\lvgl\src\lv_objx/lv_cont.c ****     lv_obj_t * child_tmp; /* Temporary child */
 461:..\..\..\lvgl\version_6.1.2\lvgl\src\lv_objx/lv_cont.c ****     const lv_style_t * style = lv_obj_get_style(cont);
 1668              		.loc 3 461 0
 1669 0008 7868     		ldr	r0, [r7, #4]
ARM GAS  C:\Users\tmj32\AppData\Local\Temp\ccnLJfS3.s 			page 43


 1670 000a FFF7FEFF 		bl	lv_obj_get_style
 1671 000e B861     		str	r0, [r7, #24]
 462:..\..\..\lvgl\version_6.1.2\lvgl\src\lv_objx/lv_cont.c ****     lv_coord_t w_obj         = lv_obj_get_width(cont);
 1672              		.loc 3 462 0
 1673 0010 7868     		ldr	r0, [r7, #4]
 1674 0012 FFF7FEFF 		bl	lv_obj_get_width
 1675 0016 0346     		mov	r3, r0
 1676 0018 FB82     		strh	r3, [r7, #22]	@ movhi
 463:..\..\..\lvgl\version_6.1.2\lvgl\src\lv_objx/lv_cont.c ****     lv_coord_t act_y         = style->body.padding.top;
 1677              		.loc 3 463 0
 1678 001a BB69     		ldr	r3, [r7, #24]
 1679 001c 1B8C     		ldrh	r3, [r3, #32]	@ movhi
 1680 001e 7B85     		strh	r3, [r7, #42]	@ movhi
 464:..\..\..\lvgl\version_6.1.2\lvgl\src\lv_objx/lv_cont.c ****     /* Disable child change action because the children will be moved a lot
 465:..\..\..\lvgl\version_6.1.2\lvgl\src\lv_objx/lv_cont.c ****      * an unnecessary child change signals could be sent*/
 466:..\..\..\lvgl\version_6.1.2\lvgl\src\lv_objx/lv_cont.c **** 
 467:..\..\..\lvgl\version_6.1.2\lvgl\src\lv_objx/lv_cont.c ****     child_rs = lv_ll_get_tail(&cont->child_ll); /*Set the row starter child*/
 1681              		.loc 3 467 0
 1682 0020 7B68     		ldr	r3, [r7, #4]
 1683 0022 0433     		adds	r3, r3, #4
 1684 0024 1846     		mov	r0, r3
 1685 0026 FFF7FEFF 		bl	lv_ll_get_tail
 1686 002a 7863     		str	r0, [r7, #52]
 468:..\..\..\lvgl\version_6.1.2\lvgl\src\lv_objx/lv_cont.c ****     if(child_rs == NULL) return;                /*Return if no child*/
 1687              		.loc 3 468 0
 1688 002c 7B6B     		ldr	r3, [r7, #52]
 1689 002e 002B     		cmp	r3, #0
 1690 0030 00F08081 		beq	.L138
 469:..\..\..\lvgl\version_6.1.2\lvgl\src\lv_objx/lv_cont.c **** 
 470:..\..\..\lvgl\version_6.1.2\lvgl\src\lv_objx/lv_cont.c ****     lv_obj_set_protect(cont, LV_PROTECT_CHILD_CHG);
 1691              		.loc 3 470 0
 1692 0034 0121     		movs	r1, #1
 1693 0036 7868     		ldr	r0, [r7, #4]
 1694 0038 FFF7FEFF 		bl	lv_obj_set_protect
 471:..\..\..\lvgl\version_6.1.2\lvgl\src\lv_objx/lv_cont.c **** 
 472:..\..\..\lvgl\version_6.1.2\lvgl\src\lv_objx/lv_cont.c ****     child_rc = child_rs; /*Initially the the row starter and closer is the same*/
 1695              		.loc 3 472 0
 1696 003c 7B6B     		ldr	r3, [r7, #52]
 1697 003e 3B63     		str	r3, [r7, #48]
 473:..\..\..\lvgl\version_6.1.2\lvgl\src\lv_objx/lv_cont.c ****     while(child_rs != NULL) {
 1698              		.loc 3 473 0
 1699 0040 6DE1     		b	.L117
 1700              	.L137:
 1701              	.LBB4:
 474:..\..\..\lvgl\version_6.1.2\lvgl\src\lv_objx/lv_cont.c ****         lv_coord_t h_row = 0;
 1702              		.loc 3 474 0
 1703 0042 0023     		movs	r3, #0
 1704 0044 3B85     		strh	r3, [r7, #40]	@ movhi
 475:..\..\..\lvgl\version_6.1.2\lvgl\src\lv_objx/lv_cont.c ****         lv_coord_t w_row =
 476:..\..\..\lvgl\version_6.1.2\lvgl\src\lv_objx/lv_cont.c ****             style->body.padding.left + style->body.padding.right; /*The width is at least the left+
 1705              		.loc 3 476 0
 1706 0046 BB69     		ldr	r3, [r7, #24]
 1707 0048 B3F92430 		ldrsh	r3, [r3, #36]
 475:..\..\..\lvgl\version_6.1.2\lvgl\src\lv_objx/lv_cont.c ****         lv_coord_t w_row =
 1708              		.loc 3 475 0
 1709 004c 9AB2     		uxth	r2, r3
 1710              		.loc 3 476 0
ARM GAS  C:\Users\tmj32\AppData\Local\Temp\ccnLJfS3.s 			page 44


 1711 004e BB69     		ldr	r3, [r7, #24]
 1712 0050 B3F92630 		ldrsh	r3, [r3, #38]
 475:..\..\..\lvgl\version_6.1.2\lvgl\src\lv_objx/lv_cont.c ****         lv_coord_t w_row =
 1713              		.loc 3 475 0
 1714 0054 9BB2     		uxth	r3, r3
 1715 0056 1344     		add	r3, r3, r2
 1716 0058 9BB2     		uxth	r3, r3
 1717 005a FB84     		strh	r3, [r7, #38]	@ movhi
 477:..\..\..\lvgl\version_6.1.2\lvgl\src\lv_objx/lv_cont.c ****         uint32_t obj_num = 0;
 1718              		.loc 3 477 0
 1719 005c 0023     		movs	r3, #0
 1720 005e 3B62     		str	r3, [r7, #32]
 1721              	.L125:
 478:..\..\..\lvgl\version_6.1.2\lvgl\src\lv_objx/lv_cont.c **** 
 479:..\..\..\lvgl\version_6.1.2\lvgl\src\lv_objx/lv_cont.c ****         /*Find the row closer object and collect some data*/
 480:..\..\..\lvgl\version_6.1.2\lvgl\src\lv_objx/lv_cont.c ****         do {
 481:..\..\..\lvgl\version_6.1.2\lvgl\src\lv_objx/lv_cont.c ****             if(lv_obj_get_hidden(child_rc) == false && lv_obj_is_protected(child_rc, LV_PROTECT_POS
 1722              		.loc 3 481 0
 1723 0060 386B     		ldr	r0, [r7, #48]
 1724 0062 FFF7FEFF 		bl	lv_obj_get_hidden
 1725 0066 0346     		mov	r3, r0
 1726 0068 83F00103 		eor	r3, r3, #1
 1727 006c DBB2     		uxtb	r3, r3
 1728 006e 002B     		cmp	r3, #0
 1729 0070 4BD0     		beq	.L118
 1730              		.loc 3 481 0 is_stmt 0 discriminator 1
 1731 0072 0421     		movs	r1, #4
 1732 0074 386B     		ldr	r0, [r7, #48]
 1733 0076 FFF7FEFF 		bl	lv_obj_is_protected
 1734 007a 0346     		mov	r3, r0
 1735 007c 83F00103 		eor	r3, r3, #1
 1736 0080 DBB2     		uxtb	r3, r3
 1737 0082 002B     		cmp	r3, #0
 1738 0084 41D0     		beq	.L118
 482:..\..\..\lvgl\version_6.1.2\lvgl\src\lv_objx/lv_cont.c ****                 /*If this object is already not fit then break*/
 483:..\..\..\lvgl\version_6.1.2\lvgl\src\lv_objx/lv_cont.c ****                 if(w_row + lv_obj_get_width(child_rc) > w_obj) {
 1739              		.loc 3 483 0 is_stmt 1
 1740 0086 B7F92640 		ldrsh	r4, [r7, #38]
 1741 008a 386B     		ldr	r0, [r7, #48]
 1742 008c FFF7FEFF 		bl	lv_obj_get_width
 1743 0090 0346     		mov	r3, r0
 1744 0092 E218     		adds	r2, r4, r3
 1745 0094 B7F91630 		ldrsh	r3, [r7, #22]
 1746 0098 9A42     		cmp	r2, r3
 1747 009a 0DDD     		ble	.L119
 484:..\..\..\lvgl\version_6.1.2\lvgl\src\lv_objx/lv_cont.c ****                     /*Step back one child because the last already not fit, so the previous is the
 485:..\..\..\lvgl\version_6.1.2\lvgl\src\lv_objx/lv_cont.c ****                      * closer*/
 486:..\..\..\lvgl\version_6.1.2\lvgl\src\lv_objx/lv_cont.c ****                     if(child_rc != NULL && obj_num != 0) {
 1748              		.loc 3 486 0
 1749 009c 3B6B     		ldr	r3, [r7, #48]
 1750 009e 002B     		cmp	r3, #0
 1751 00a0 43D0     		beq	.L139
 1752              		.loc 3 486 0 is_stmt 0 discriminator 1
 1753 00a2 3B6A     		ldr	r3, [r7, #32]
 1754 00a4 002B     		cmp	r3, #0
 1755 00a6 40D0     		beq	.L139
 487:..\..\..\lvgl\version_6.1.2\lvgl\src\lv_objx/lv_cont.c ****                         child_rc = lv_ll_get_next(&cont->child_ll, child_rc);
ARM GAS  C:\Users\tmj32\AppData\Local\Temp\ccnLJfS3.s 			page 45


 1756              		.loc 3 487 0 is_stmt 1
 1757 00a8 7B68     		ldr	r3, [r7, #4]
 1758 00aa 0433     		adds	r3, r3, #4
 1759 00ac 396B     		ldr	r1, [r7, #48]
 1760 00ae 1846     		mov	r0, r3
 1761 00b0 FFF7FEFF 		bl	lv_ll_get_next
 1762 00b4 3863     		str	r0, [r7, #48]
 488:..\..\..\lvgl\version_6.1.2\lvgl\src\lv_objx/lv_cont.c ****                     }
 489:..\..\..\lvgl\version_6.1.2\lvgl\src\lv_objx/lv_cont.c ****                     break;
 1763              		.loc 3 489 0
 1764 00b6 38E0     		b	.L139
 1765              	.L119:
 490:..\..\..\lvgl\version_6.1.2\lvgl\src\lv_objx/lv_cont.c ****                 }
 491:..\..\..\lvgl\version_6.1.2\lvgl\src\lv_objx/lv_cont.c ****                 w_row += lv_obj_get_width(child_rc) + style->body.padding.inner; /*Add the object w
 1766              		.loc 3 491 0
 1767 00b8 386B     		ldr	r0, [r7, #48]
 1768 00ba FFF7FEFF 		bl	lv_obj_get_width
 1769 00be 0346     		mov	r3, r0
 1770 00c0 1A46     		mov	r2, r3
 1771 00c2 BB69     		ldr	r3, [r7, #24]
 1772 00c4 B3F92830 		ldrsh	r3, [r3, #40]
 1773 00c8 1344     		add	r3, r3, r2
 1774 00ca 9AB2     		uxth	r2, r3
 1775 00cc FB8C     		ldrh	r3, [r7, #38]
 1776 00ce 1344     		add	r3, r3, r2
 1777 00d0 9BB2     		uxth	r3, r3
 1778 00d2 FB84     		strh	r3, [r7, #38]	@ movhi
 492:..\..\..\lvgl\version_6.1.2\lvgl\src\lv_objx/lv_cont.c ****                 h_row = LV_MATH_MAX(h_row, lv_obj_get_height(child_rc));         /*Search the highe
 1779              		.loc 3 492 0
 1780 00d4 386B     		ldr	r0, [r7, #48]
 1781 00d6 FFF7FEFF 		bl	lv_obj_get_height
 1782 00da 0346     		mov	r3, r0
 1783 00dc 1A46     		mov	r2, r3
 1784 00de B7F92830 		ldrsh	r3, [r7, #40]
 1785 00e2 9342     		cmp	r3, r2
 1786 00e4 04DC     		bgt	.L122
 1787              		.loc 3 492 0 is_stmt 0 discriminator 1
 1788 00e6 386B     		ldr	r0, [r7, #48]
 1789 00e8 FFF7FEFF 		bl	lv_obj_get_height
 1790 00ec 0346     		mov	r3, r0
 1791 00ee 01E0     		b	.L123
 1792              	.L122:
 1793              		.loc 3 492 0 discriminator 2
 1794 00f0 B7F92830 		ldrsh	r3, [r7, #40]
 1795              	.L123:
 1796              		.loc 3 492 0 discriminator 4
 1797 00f4 3B85     		strh	r3, [r7, #40]	@ movhi
 493:..\..\..\lvgl\version_6.1.2\lvgl\src\lv_objx/lv_cont.c ****                 obj_num++;
 1798              		.loc 3 493 0 is_stmt 1 discriminator 4
 1799 00f6 3B6A     		ldr	r3, [r7, #32]
 1800 00f8 0133     		adds	r3, r3, #1
 1801 00fa 3B62     		str	r3, [r7, #32]
 494:..\..\..\lvgl\version_6.1.2\lvgl\src\lv_objx/lv_cont.c ****                 if(lv_obj_is_protected(child_rc, LV_PROTECT_FOLLOW))
 1802              		.loc 3 494 0 discriminator 4
 1803 00fc 0821     		movs	r1, #8
 1804 00fe 386B     		ldr	r0, [r7, #48]
 1805 0100 FFF7FEFF 		bl	lv_obj_is_protected
ARM GAS  C:\Users\tmj32\AppData\Local\Temp\ccnLJfS3.s 			page 46


 1806 0104 0346     		mov	r3, r0
 1807 0106 002B     		cmp	r3, #0
 1808 0108 11D1     		bne	.L140
 1809              	.L118:
 495:..\..\..\lvgl\version_6.1.2\lvgl\src\lv_objx/lv_cont.c ****                     break; /*If can not be followed by an other object then break here*/
 496:..\..\..\lvgl\version_6.1.2\lvgl\src\lv_objx/lv_cont.c ****             }
 497:..\..\..\lvgl\version_6.1.2\lvgl\src\lv_objx/lv_cont.c ****             child_rc = lv_ll_get_prev(&cont->child_ll, child_rc); /*Load the next object*/
 1810              		.loc 3 497 0
 1811 010a 7B68     		ldr	r3, [r7, #4]
 1812 010c 0433     		adds	r3, r3, #4
 1813 010e 396B     		ldr	r1, [r7, #48]
 1814 0110 1846     		mov	r0, r3
 1815 0112 FFF7FEFF 		bl	lv_ll_get_prev
 1816 0116 3863     		str	r0, [r7, #48]
 498:..\..\..\lvgl\version_6.1.2\lvgl\src\lv_objx/lv_cont.c ****             if(obj_num == 0)
 1817              		.loc 3 498 0
 1818 0118 3B6A     		ldr	r3, [r7, #32]
 1819 011a 002B     		cmp	r3, #0
 1820 011c 01D1     		bne	.L124
 499:..\..\..\lvgl\version_6.1.2\lvgl\src\lv_objx/lv_cont.c ****                 child_rs = child_rc; /*If the first object was hidden (or too long) then set the
 1821              		.loc 3 499 0
 1822 011e 3B6B     		ldr	r3, [r7, #48]
 1823 0120 7B63     		str	r3, [r7, #52]
 1824              	.L124:
 500:..\..\..\lvgl\version_6.1.2\lvgl\src\lv_objx/lv_cont.c ****                                         next as first */
 501:..\..\..\lvgl\version_6.1.2\lvgl\src\lv_objx/lv_cont.c ****         } while(child_rc != NULL);
 1825              		.loc 3 501 0
 1826 0122 3B6B     		ldr	r3, [r7, #48]
 1827 0124 002B     		cmp	r3, #0
 1828 0126 9BD1     		bne	.L125
 1829 0128 02E0     		b	.L121
 1830              	.L139:
 489:..\..\..\lvgl\version_6.1.2\lvgl\src\lv_objx/lv_cont.c ****                 }
 1831              		.loc 3 489 0
 1832 012a 00BF     		nop
 1833 012c 00E0     		b	.L121
 1834              	.L140:
 495:..\..\..\lvgl\version_6.1.2\lvgl\src\lv_objx/lv_cont.c ****             }
 1835              		.loc 3 495 0
 1836 012e 00BF     		nop
 1837              	.L121:
 502:..\..\..\lvgl\version_6.1.2\lvgl\src\lv_objx/lv_cont.c **** 
 503:..\..\..\lvgl\version_6.1.2\lvgl\src\lv_objx/lv_cont.c ****         /*If the object is too long  then align it to the middle*/
 504:..\..\..\lvgl\version_6.1.2\lvgl\src\lv_objx/lv_cont.c ****         if(obj_num == 0) {
 1838              		.loc 3 504 0
 1839 0130 3B6A     		ldr	r3, [r7, #32]
 1840 0132 002B     		cmp	r3, #0
 1841 0134 12D1     		bne	.L126
 505:..\..\..\lvgl\version_6.1.2\lvgl\src\lv_objx/lv_cont.c ****             if(child_rc != NULL) {
 1842              		.loc 3 505 0
 1843 0136 3B6B     		ldr	r3, [r7, #48]
 1844 0138 002B     		cmp	r3, #0
 1845 013a 00F0D980 		beq	.L128
 506:..\..\..\lvgl\version_6.1.2\lvgl\src\lv_objx/lv_cont.c ****                 lv_obj_align(child_rc, cont, LV_ALIGN_IN_TOP_MID, 0, act_y);
 1846              		.loc 3 506 0
 1847 013e B7F92A30 		ldrsh	r3, [r7, #42]
 1848 0142 0093     		str	r3, [sp]
ARM GAS  C:\Users\tmj32\AppData\Local\Temp\ccnLJfS3.s 			page 47


 1849 0144 0023     		movs	r3, #0
 1850 0146 0222     		movs	r2, #2
 1851 0148 7968     		ldr	r1, [r7, #4]
 1852 014a 386B     		ldr	r0, [r7, #48]
 1853 014c FFF7FEFF 		bl	lv_obj_align
 507:..\..\..\lvgl\version_6.1.2\lvgl\src\lv_objx/lv_cont.c ****                 h_row = lv_obj_get_height(child_rc); /*Not set previously because of the early brea
 1854              		.loc 3 507 0
 1855 0150 386B     		ldr	r0, [r7, #48]
 1856 0152 FFF7FEFF 		bl	lv_obj_get_height
 1857 0156 0346     		mov	r3, r0
 1858 0158 3B85     		strh	r3, [r7, #40]	@ movhi
 1859 015a C9E0     		b	.L128
 1860              	.L126:
 508:..\..\..\lvgl\version_6.1.2\lvgl\src\lv_objx/lv_cont.c ****             }
 509:..\..\..\lvgl\version_6.1.2\lvgl\src\lv_objx/lv_cont.c ****         }
 510:..\..\..\lvgl\version_6.1.2\lvgl\src\lv_objx/lv_cont.c ****         /*If there is only one object in the row then align it to the middle*/
 511:..\..\..\lvgl\version_6.1.2\lvgl\src\lv_objx/lv_cont.c ****         else if(obj_num == 1) {
 1861              		.loc 3 511 0
 1862 015c 3B6A     		ldr	r3, [r7, #32]
 1863 015e 012B     		cmp	r3, #1
 1864 0160 09D1     		bne	.L129
 512:..\..\..\lvgl\version_6.1.2\lvgl\src\lv_objx/lv_cont.c ****             lv_obj_align(child_rs, cont, LV_ALIGN_IN_TOP_MID, 0, act_y);
 1865              		.loc 3 512 0
 1866 0162 B7F92A30 		ldrsh	r3, [r7, #42]
 1867 0166 0093     		str	r3, [sp]
 1868 0168 0023     		movs	r3, #0
 1869 016a 0222     		movs	r2, #2
 1870 016c 7968     		ldr	r1, [r7, #4]
 1871 016e 786B     		ldr	r0, [r7, #52]
 1872 0170 FFF7FEFF 		bl	lv_obj_align
 1873 0174 BCE0     		b	.L128
 1874              	.L129:
 513:..\..\..\lvgl\version_6.1.2\lvgl\src\lv_objx/lv_cont.c ****         }
 514:..\..\..\lvgl\version_6.1.2\lvgl\src\lv_objx/lv_cont.c ****         /*If there are two object in the row then align them proportionally*/
 515:..\..\..\lvgl\version_6.1.2\lvgl\src\lv_objx/lv_cont.c ****         else if(obj_num == 2) {
 1875              		.loc 3 515 0
 1876 0176 3B6A     		ldr	r3, [r7, #32]
 1877 0178 022B     		cmp	r3, #2
 1878 017a 53D1     		bne	.L130
 1879              	.LBB5:
 516:..\..\..\lvgl\version_6.1.2\lvgl\src\lv_objx/lv_cont.c ****             lv_obj_t * obj1 = child_rs;
 1880              		.loc 3 516 0
 1881 017c 7B6B     		ldr	r3, [r7, #52]
 1882 017e 3B61     		str	r3, [r7, #16]
 517:..\..\..\lvgl\version_6.1.2\lvgl\src\lv_objx/lv_cont.c ****             lv_obj_t * obj2 = lv_ll_get_prev(&cont->child_ll, child_rs);
 1883              		.loc 3 517 0
 1884 0180 7B68     		ldr	r3, [r7, #4]
 1885 0182 0433     		adds	r3, r3, #4
 1886 0184 796B     		ldr	r1, [r7, #52]
 1887 0186 1846     		mov	r0, r3
 1888 0188 FFF7FEFF 		bl	lv_ll_get_prev
 1889 018c F860     		str	r0, [r7, #12]
 518:..\..\..\lvgl\version_6.1.2\lvgl\src\lv_objx/lv_cont.c ****             w_row           = lv_obj_get_width(obj1) + lv_obj_get_width(obj2);
 1890              		.loc 3 518 0
 1891 018e 3869     		ldr	r0, [r7, #16]
 1892 0190 FFF7FEFF 		bl	lv_obj_get_width
 1893 0194 0346     		mov	r3, r0
ARM GAS  C:\Users\tmj32\AppData\Local\Temp\ccnLJfS3.s 			page 48


 1894 0196 9CB2     		uxth	r4, r3
 1895 0198 F868     		ldr	r0, [r7, #12]
 1896 019a FFF7FEFF 		bl	lv_obj_get_width
 1897 019e 0346     		mov	r3, r0
 1898 01a0 9BB2     		uxth	r3, r3
 1899 01a2 2344     		add	r3, r3, r4
 1900 01a4 9BB2     		uxth	r3, r3
 1901 01a6 FB84     		strh	r3, [r7, #38]	@ movhi
 519:..\..\..\lvgl\version_6.1.2\lvgl\src\lv_objx/lv_cont.c ****             lv_coord_t pad  = (w_obj - w_row) / 3;
 1902              		.loc 3 519 0
 1903 01a8 B7F91620 		ldrsh	r2, [r7, #22]
 1904 01ac B7F92630 		ldrsh	r3, [r7, #38]
 1905 01b0 D31A     		subs	r3, r2, r3
 1906 01b2 624A     		ldr	r2, .L143
 1907 01b4 82FB0312 		smull	r1, r2, r2, r3
 1908 01b8 DB17     		asrs	r3, r3, #31
 1909 01ba D31A     		subs	r3, r2, r3
 1910 01bc 7B81     		strh	r3, [r7, #10]	@ movhi
 520:..\..\..\lvgl\version_6.1.2\lvgl\src\lv_objx/lv_cont.c ****             lv_obj_align(obj1, cont, LV_ALIGN_IN_TOP_LEFT, pad, act_y + (h_row - lv_obj_get_height(
 1911              		.loc 3 520 0
 1912 01be B7F92840 		ldrsh	r4, [r7, #40]
 1913 01c2 3869     		ldr	r0, [r7, #16]
 1914 01c4 FFF7FEFF 		bl	lv_obj_get_height
 1915 01c8 0346     		mov	r3, r0
 1916 01ca E31A     		subs	r3, r4, r3
 1917 01cc DA0F     		lsrs	r2, r3, #31
 1918 01ce 1344     		add	r3, r3, r2
 1919 01d0 5B10     		asrs	r3, r3, #1
 1920 01d2 9AB2     		uxth	r2, r3
 1921 01d4 7B8D     		ldrh	r3, [r7, #42]
 1922 01d6 1344     		add	r3, r3, r2
 1923 01d8 9BB2     		uxth	r3, r3
 1924 01da 1BB2     		sxth	r3, r3
 1925 01dc B7F90A20 		ldrsh	r2, [r7, #10]
 1926 01e0 0093     		str	r3, [sp]
 1927 01e2 1346     		mov	r3, r2
 1928 01e4 0122     		movs	r2, #1
 1929 01e6 7968     		ldr	r1, [r7, #4]
 1930 01e8 3869     		ldr	r0, [r7, #16]
 1931 01ea FFF7FEFF 		bl	lv_obj_align
 521:..\..\..\lvgl\version_6.1.2\lvgl\src\lv_objx/lv_cont.c ****             lv_obj_align(obj2, cont, LV_ALIGN_IN_TOP_RIGHT, -pad, act_y + (h_row - lv_obj_get_heigh
 1932              		.loc 3 521 0
 1933 01ee 7B89     		ldrh	r3, [r7, #10]
 1934 01f0 5B42     		negs	r3, r3
 1935 01f2 9BB2     		uxth	r3, r3
 1936 01f4 1DB2     		sxth	r5, r3
 1937 01f6 B7F92840 		ldrsh	r4, [r7, #40]
 1938 01fa F868     		ldr	r0, [r7, #12]
 1939 01fc FFF7FEFF 		bl	lv_obj_get_height
 1940 0200 0346     		mov	r3, r0
 1941 0202 E31A     		subs	r3, r4, r3
 1942 0204 DA0F     		lsrs	r2, r3, #31
 1943 0206 1344     		add	r3, r3, r2
 1944 0208 5B10     		asrs	r3, r3, #1
 1945 020a 9AB2     		uxth	r2, r3
 1946 020c 7B8D     		ldrh	r3, [r7, #42]
 1947 020e 1344     		add	r3, r3, r2
ARM GAS  C:\Users\tmj32\AppData\Local\Temp\ccnLJfS3.s 			page 49


 1948 0210 9BB2     		uxth	r3, r3
 1949 0212 1BB2     		sxth	r3, r3
 1950 0214 0093     		str	r3, [sp]
 1951 0216 2B46     		mov	r3, r5
 1952 0218 0322     		movs	r2, #3
 1953 021a 7968     		ldr	r1, [r7, #4]
 1954 021c F868     		ldr	r0, [r7, #12]
 1955 021e FFF7FEFF 		bl	lv_obj_align
 1956              	.LBE5:
 1957 0222 65E0     		b	.L128
 1958              	.L130:
 1959              	.LBB6:
 522:..\..\..\lvgl\version_6.1.2\lvgl\src\lv_objx/lv_cont.c ****         }
 523:..\..\..\lvgl\version_6.1.2\lvgl\src\lv_objx/lv_cont.c ****         /* Align the children (from child_rs to child_rc)*/
 524:..\..\..\lvgl\version_6.1.2\lvgl\src\lv_objx/lv_cont.c ****         else {
 525:..\..\..\lvgl\version_6.1.2\lvgl\src\lv_objx/lv_cont.c ****             w_row -= style->body.padding.inner * obj_num;
 1960              		.loc 3 525 0
 1961 0224 FA8C     		ldrh	r2, [r7, #38]
 1962 0226 BB69     		ldr	r3, [r7, #24]
 1963 0228 B3F92830 		ldrsh	r3, [r3, #40]
 1964 022c 99B2     		uxth	r1, r3
 1965 022e 3B6A     		ldr	r3, [r7, #32]
 1966 0230 9BB2     		uxth	r3, r3
 1967 0232 11FB03F3 		smulbb	r3, r1, r3
 1968 0236 9BB2     		uxth	r3, r3
 1969 0238 D31A     		subs	r3, r2, r3
 1970 023a 9BB2     		uxth	r3, r3
 1971 023c FB84     		strh	r3, [r7, #38]	@ movhi
 526:..\..\..\lvgl\version_6.1.2\lvgl\src\lv_objx/lv_cont.c ****             lv_coord_t new_opad = (w_obj - w_row) / (obj_num - 1);
 1972              		.loc 3 526 0
 1973 023e B7F91620 		ldrsh	r2, [r7, #22]
 1974 0242 B7F92630 		ldrsh	r3, [r7, #38]
 1975 0246 D31A     		subs	r3, r2, r3
 1976 0248 1A46     		mov	r2, r3
 1977 024a 3B6A     		ldr	r3, [r7, #32]
 1978 024c 013B     		subs	r3, r3, #1
 1979 024e B2FBF3F3 		udiv	r3, r2, r3
 1980 0252 3B81     		strh	r3, [r7, #8]	@ movhi
 527:..\..\..\lvgl\version_6.1.2\lvgl\src\lv_objx/lv_cont.c ****             lv_coord_t act_x    = style->body.padding.left; /*x init*/
 1981              		.loc 3 527 0
 1982 0254 BB69     		ldr	r3, [r7, #24]
 1983 0256 9B8C     		ldrh	r3, [r3, #36]	@ movhi
 1984 0258 FB83     		strh	r3, [r7, #30]	@ movhi
 528:..\..\..\lvgl\version_6.1.2\lvgl\src\lv_objx/lv_cont.c ****             child_tmp           = child_rs;
 1985              		.loc 3 528 0
 1986 025a 7B6B     		ldr	r3, [r7, #52]
 1987 025c FB62     		str	r3, [r7, #44]
 529:..\..\..\lvgl\version_6.1.2\lvgl\src\lv_objx/lv_cont.c ****             while(child_tmp != NULL) {
 1988              		.loc 3 529 0
 1989 025e 42E0     		b	.L131
 1990              	.L134:
 530:..\..\..\lvgl\version_6.1.2\lvgl\src\lv_objx/lv_cont.c ****                 if(lv_obj_get_hidden(child_tmp) == false && lv_obj_is_protected(child_tmp, LV_PROTE
 1991              		.loc 3 530 0
 1992 0260 F86A     		ldr	r0, [r7, #44]
 1993 0262 FFF7FEFF 		bl	lv_obj_get_hidden
 1994 0266 0346     		mov	r3, r0
 1995 0268 83F00103 		eor	r3, r3, #1
ARM GAS  C:\Users\tmj32\AppData\Local\Temp\ccnLJfS3.s 			page 50


 1996 026c DBB2     		uxtb	r3, r3
 1997 026e 002B     		cmp	r3, #0
 1998 0270 2ED0     		beq	.L132
 1999              		.loc 3 530 0 is_stmt 0 discriminator 1
 2000 0272 0421     		movs	r1, #4
 2001 0274 F86A     		ldr	r0, [r7, #44]
 2002 0276 FFF7FEFF 		bl	lv_obj_is_protected
 2003 027a 0346     		mov	r3, r0
 2004 027c 83F00103 		eor	r3, r3, #1
 2005 0280 DBB2     		uxtb	r3, r3
 2006 0282 002B     		cmp	r3, #0
 2007 0284 24D0     		beq	.L132
 531:..\..\..\lvgl\version_6.1.2\lvgl\src\lv_objx/lv_cont.c ****                     lv_obj_align(child_tmp, cont, LV_ALIGN_IN_TOP_LEFT, act_x,
 532:..\..\..\lvgl\version_6.1.2\lvgl\src\lv_objx/lv_cont.c ****                                  act_y + (h_row - lv_obj_get_height(child_tmp)) / 2);
 2008              		.loc 3 532 0 is_stmt 1
 2009 0286 B7F92840 		ldrsh	r4, [r7, #40]
 2010 028a F86A     		ldr	r0, [r7, #44]
 2011 028c FFF7FEFF 		bl	lv_obj_get_height
 2012 0290 0346     		mov	r3, r0
 2013 0292 E31A     		subs	r3, r4, r3
 2014 0294 DA0F     		lsrs	r2, r3, #31
 2015 0296 1344     		add	r3, r3, r2
 2016 0298 5B10     		asrs	r3, r3, #1
 531:..\..\..\lvgl\version_6.1.2\lvgl\src\lv_objx/lv_cont.c ****                     lv_obj_align(child_tmp, cont, LV_ALIGN_IN_TOP_LEFT, act_x,
 2017              		.loc 3 531 0
 2018 029a 9AB2     		uxth	r2, r3
 2019 029c 7B8D     		ldrh	r3, [r7, #42]
 2020 029e 1344     		add	r3, r3, r2
 2021 02a0 9BB2     		uxth	r3, r3
 2022 02a2 1BB2     		sxth	r3, r3
 2023 02a4 B7F91E20 		ldrsh	r2, [r7, #30]
 2024 02a8 0093     		str	r3, [sp]
 2025 02aa 1346     		mov	r3, r2
 2026 02ac 0122     		movs	r2, #1
 2027 02ae 7968     		ldr	r1, [r7, #4]
 2028 02b0 F86A     		ldr	r0, [r7, #44]
 2029 02b2 FFF7FEFF 		bl	lv_obj_align
 533:..\..\..\lvgl\version_6.1.2\lvgl\src\lv_objx/lv_cont.c ****                     act_x += lv_obj_get_width(child_tmp) + new_opad;
 2030              		.loc 3 533 0
 2031 02b6 F86A     		ldr	r0, [r7, #44]
 2032 02b8 FFF7FEFF 		bl	lv_obj_get_width
 2033 02bc 0346     		mov	r3, r0
 2034 02be 1A46     		mov	r2, r3
 2035 02c0 B7F90830 		ldrsh	r3, [r7, #8]
 2036 02c4 1344     		add	r3, r3, r2
 2037 02c6 9AB2     		uxth	r2, r3
 2038 02c8 FB8B     		ldrh	r3, [r7, #30]
 2039 02ca 1344     		add	r3, r3, r2
 2040 02cc 9BB2     		uxth	r3, r3
 2041 02ce FB83     		strh	r3, [r7, #30]	@ movhi
 2042              	.L132:
 534:..\..\..\lvgl\version_6.1.2\lvgl\src\lv_objx/lv_cont.c ****                 }
 535:..\..\..\lvgl\version_6.1.2\lvgl\src\lv_objx/lv_cont.c ****                 if(child_tmp == child_rc) break;
 2043              		.loc 3 535 0
 2044 02d0 FA6A     		ldr	r2, [r7, #44]
 2045 02d2 3B6B     		ldr	r3, [r7, #48]
 2046 02d4 9A42     		cmp	r2, r3
ARM GAS  C:\Users\tmj32\AppData\Local\Temp\ccnLJfS3.s 			page 51


 2047 02d6 0AD0     		beq	.L141
 536:..\..\..\lvgl\version_6.1.2\lvgl\src\lv_objx/lv_cont.c ****                 child_tmp = lv_ll_get_prev(&cont->child_ll, child_tmp);
 2048              		.loc 3 536 0
 2049 02d8 7B68     		ldr	r3, [r7, #4]
 2050 02da 0433     		adds	r3, r3, #4
 2051 02dc F96A     		ldr	r1, [r7, #44]
 2052 02de 1846     		mov	r0, r3
 2053 02e0 FFF7FEFF 		bl	lv_ll_get_prev
 2054 02e4 F862     		str	r0, [r7, #44]
 2055              	.L131:
 529:..\..\..\lvgl\version_6.1.2\lvgl\src\lv_objx/lv_cont.c ****                 if(lv_obj_get_hidden(child_tmp) == false && lv_obj_is_protected(child_tmp, LV_PROTE
 2056              		.loc 3 529 0
 2057 02e6 FB6A     		ldr	r3, [r7, #44]
 2058 02e8 002B     		cmp	r3, #0
 2059 02ea B9D1     		bne	.L134
 2060 02ec 00E0     		b	.L128
 2061              	.L141:
 535:..\..\..\lvgl\version_6.1.2\lvgl\src\lv_objx/lv_cont.c ****                 child_tmp = lv_ll_get_prev(&cont->child_ll, child_tmp);
 2062              		.loc 3 535 0
 2063 02ee 00BF     		nop
 2064              	.L128:
 2065              	.LBE6:
 537:..\..\..\lvgl\version_6.1.2\lvgl\src\lv_objx/lv_cont.c ****             }
 538:..\..\..\lvgl\version_6.1.2\lvgl\src\lv_objx/lv_cont.c ****         }
 539:..\..\..\lvgl\version_6.1.2\lvgl\src\lv_objx/lv_cont.c **** 
 540:..\..\..\lvgl\version_6.1.2\lvgl\src\lv_objx/lv_cont.c ****         if(child_rc == NULL) break;
 2066              		.loc 3 540 0
 2067 02f0 3B6B     		ldr	r3, [r7, #48]
 2068 02f2 002B     		cmp	r3, #0
 2069 02f4 18D0     		beq	.L142
 541:..\..\..\lvgl\version_6.1.2\lvgl\src\lv_objx/lv_cont.c ****         act_y += style->body.padding.inner + h_row;           /*y increment*/
 2070              		.loc 3 541 0
 2071 02f6 BB69     		ldr	r3, [r7, #24]
 2072 02f8 B3F92830 		ldrsh	r3, [r3, #40]
 2073 02fc 9AB2     		uxth	r2, r3
 2074 02fe 3B8D     		ldrh	r3, [r7, #40]
 2075 0300 1344     		add	r3, r3, r2
 2076 0302 9AB2     		uxth	r2, r3
 2077 0304 7B8D     		ldrh	r3, [r7, #42]
 2078 0306 1344     		add	r3, r3, r2
 2079 0308 9BB2     		uxth	r3, r3
 2080 030a 7B85     		strh	r3, [r7, #42]	@ movhi
 542:..\..\..\lvgl\version_6.1.2\lvgl\src\lv_objx/lv_cont.c ****         child_rs = lv_ll_get_prev(&cont->child_ll, child_rc); /*Go to the next object*/
 2081              		.loc 3 542 0
 2082 030c 7B68     		ldr	r3, [r7, #4]
 2083 030e 0433     		adds	r3, r3, #4
 2084 0310 396B     		ldr	r1, [r7, #48]
 2085 0312 1846     		mov	r0, r3
 2086 0314 FFF7FEFF 		bl	lv_ll_get_prev
 2087 0318 7863     		str	r0, [r7, #52]
 543:..\..\..\lvgl\version_6.1.2\lvgl\src\lv_objx/lv_cont.c ****         child_rc = child_rs;
 2088              		.loc 3 543 0
 2089 031a 7B6B     		ldr	r3, [r7, #52]
 2090 031c 3B63     		str	r3, [r7, #48]
 2091              	.L117:
 2092              	.LBE4:
 473:..\..\..\lvgl\version_6.1.2\lvgl\src\lv_objx/lv_cont.c ****         lv_coord_t h_row = 0;
ARM GAS  C:\Users\tmj32\AppData\Local\Temp\ccnLJfS3.s 			page 52


 2093              		.loc 3 473 0
 2094 031e 7B6B     		ldr	r3, [r7, #52]
 2095 0320 002B     		cmp	r3, #0
 2096 0322 7FF48EAE 		bne	.L137
 2097 0326 00E0     		b	.L136
 2098              	.L142:
 2099              	.LBB7:
 540:..\..\..\lvgl\version_6.1.2\lvgl\src\lv_objx/lv_cont.c ****         act_y += style->body.padding.inner + h_row;           /*y increment*/
 2100              		.loc 3 540 0
 2101 0328 00BF     		nop
 2102              	.L136:
 2103              	.LBE7:
 544:..\..\..\lvgl\version_6.1.2\lvgl\src\lv_objx/lv_cont.c ****     }
 545:..\..\..\lvgl\version_6.1.2\lvgl\src\lv_objx/lv_cont.c ****     lv_obj_clear_protect(cont, LV_PROTECT_CHILD_CHG);
 2104              		.loc 3 545 0
 2105 032a 0121     		movs	r1, #1
 2106 032c 7868     		ldr	r0, [r7, #4]
 2107 032e FFF7FEFF 		bl	lv_obj_clear_protect
 2108 0332 00E0     		b	.L114
 2109              	.L138:
 468:..\..\..\lvgl\version_6.1.2\lvgl\src\lv_objx/lv_cont.c **** 
 2110              		.loc 3 468 0
 2111 0334 00BF     		nop
 2112              	.L114:
 546:..\..\..\lvgl\version_6.1.2\lvgl\src\lv_objx/lv_cont.c **** }
 2113              		.loc 3 546 0
 2114 0336 3837     		adds	r7, r7, #56
 2115              		.cfi_def_cfa_offset 16
 2116 0338 BD46     		mov	sp, r7
 2117              		.cfi_def_cfa_register 13
 2118              		@ sp needed
 2119 033a B0BD     		pop	{r4, r5, r7, pc}
 2120              	.L144:
 2121              		.align	2
 2122              	.L143:
 2123 033c 56555555 		.word	1431655766
 2124              		.cfi_endproc
 2125              	.LFE48:
 2126              		.size	lv_cont_layout_pretty, .-lv_cont_layout_pretty
 2127              		.section	.text.lv_cont_layout_grid,"ax",%progbits
 2128              		.align	2
 2129              		.thumb
 2130              		.thumb_func
 2131              		.type	lv_cont_layout_grid, %function
 2132              	lv_cont_layout_grid:
 2133              	.LFB49:
 547:..\..\..\lvgl\version_6.1.2\lvgl\src\lv_objx/lv_cont.c **** 
 548:..\..\..\lvgl\version_6.1.2\lvgl\src\lv_objx/lv_cont.c **** /**
 549:..\..\..\lvgl\version_6.1.2\lvgl\src\lv_objx/lv_cont.c ****  * Handle the grid layout. Align same-sized objects in a grid
 550:..\..\..\lvgl\version_6.1.2\lvgl\src\lv_objx/lv_cont.c ****  * @param cont pointer to an object which layout should be handled
 551:..\..\..\lvgl\version_6.1.2\lvgl\src\lv_objx/lv_cont.c ****  */
 552:..\..\..\lvgl\version_6.1.2\lvgl\src\lv_objx/lv_cont.c **** static void lv_cont_layout_grid(lv_obj_t * cont)
 553:..\..\..\lvgl\version_6.1.2\lvgl\src\lv_objx/lv_cont.c **** {
 2134              		.loc 3 553 0
 2135              		.cfi_startproc
 2136              		@ args = 0, pretend = 0, frame = 40
 2137              		@ frame_needed = 1, uses_anonymous_args = 0
ARM GAS  C:\Users\tmj32\AppData\Local\Temp\ccnLJfS3.s 			page 53


 2138 0000 80B5     		push	{r7, lr}
 2139              		.cfi_def_cfa_offset 8
 2140              		.cfi_offset 7, -8
 2141              		.cfi_offset 14, -4
 2142 0002 8AB0     		sub	sp, sp, #40
 2143              		.cfi_def_cfa_offset 48
 2144 0004 00AF     		add	r7, sp, #0
 2145              		.cfi_def_cfa_register 7
 2146 0006 7860     		str	r0, [r7, #4]
 554:..\..\..\lvgl\version_6.1.2\lvgl\src\lv_objx/lv_cont.c ****     lv_obj_t * child;
 555:..\..\..\lvgl\version_6.1.2\lvgl\src\lv_objx/lv_cont.c ****     const lv_style_t * style = lv_obj_get_style(cont);
 2147              		.loc 3 555 0
 2148 0008 7868     		ldr	r0, [r7, #4]
 2149 000a FFF7FEFF 		bl	lv_obj_get_style
 2150 000e B861     		str	r0, [r7, #24]
 556:..\..\..\lvgl\version_6.1.2\lvgl\src\lv_objx/lv_cont.c ****     lv_coord_t w_tot         = lv_obj_get_width(cont);
 2151              		.loc 3 556 0
 2152 0010 7868     		ldr	r0, [r7, #4]
 2153 0012 FFF7FEFF 		bl	lv_obj_get_width
 2154 0016 0346     		mov	r3, r0
 2155 0018 FB82     		strh	r3, [r7, #22]	@ movhi
 557:..\..\..\lvgl\version_6.1.2\lvgl\src\lv_objx/lv_cont.c ****     lv_coord_t w_obj         = lv_obj_get_width(lv_obj_get_child(cont, NULL));
 2156              		.loc 3 557 0
 2157 001a 0021     		movs	r1, #0
 2158 001c 7868     		ldr	r0, [r7, #4]
 2159 001e FFF7FEFF 		bl	lv_obj_get_child
 2160 0022 0346     		mov	r3, r0
 2161 0024 1846     		mov	r0, r3
 2162 0026 FFF7FEFF 		bl	lv_obj_get_width
 2163 002a 0346     		mov	r3, r0
 2164 002c BB82     		strh	r3, [r7, #20]	@ movhi
 558:..\..\..\lvgl\version_6.1.2\lvgl\src\lv_objx/lv_cont.c ****     lv_coord_t w_fit         =  lv_obj_get_width_fit(cont);
 2165              		.loc 3 558 0
 2166 002e 7868     		ldr	r0, [r7, #4]
 2167 0030 FFF7FEFF 		bl	lv_obj_get_width_fit
 2168 0034 0346     		mov	r3, r0
 2169 0036 7B82     		strh	r3, [r7, #18]	@ movhi
 559:..\..\..\lvgl\version_6.1.2\lvgl\src\lv_objx/lv_cont.c ****     lv_coord_t h_obj         = lv_obj_get_height(lv_obj_get_child(cont, NULL));
 2170              		.loc 3 559 0
 2171 0038 0021     		movs	r1, #0
 2172 003a 7868     		ldr	r0, [r7, #4]
 2173 003c FFF7FEFF 		bl	lv_obj_get_child
 2174 0040 0346     		mov	r3, r0
 2175 0042 1846     		mov	r0, r3
 2176 0044 FFF7FEFF 		bl	lv_obj_get_height
 2177 0048 0346     		mov	r3, r0
 2178 004a 3B82     		strh	r3, [r7, #16]	@ movhi
 560:..\..\..\lvgl\version_6.1.2\lvgl\src\lv_objx/lv_cont.c ****     uint16_t obj_row         = (w_fit) / (w_obj + style->body.padding.inner); /*Obj. num. in a row*
 2179              		.loc 3 560 0
 2180 004c B7F91220 		ldrsh	r2, [r7, #18]
 2181 0050 B7F91430 		ldrsh	r3, [r7, #20]
 2182 0054 B969     		ldr	r1, [r7, #24]
 2183 0056 B1F92810 		ldrsh	r1, [r1, #40]
 2184 005a 0B44     		add	r3, r3, r1
 2185 005c 92FBF3F3 		sdiv	r3, r2, r3
 2186 0060 FB81     		strh	r3, [r7, #14]	@ movhi
 561:..\..\..\lvgl\version_6.1.2\lvgl\src\lv_objx/lv_cont.c ****     lv_coord_t x_ofs;
ARM GAS  C:\Users\tmj32\AppData\Local\Temp\ccnLJfS3.s 			page 54


 562:..\..\..\lvgl\version_6.1.2\lvgl\src\lv_objx/lv_cont.c ****     if(obj_row > 1) {
 2187              		.loc 3 562 0
 2188 0062 FB89     		ldrh	r3, [r7, #14]
 2189 0064 012B     		cmp	r3, #1
 2190 0066 11D9     		bls	.L146
 563:..\..\..\lvgl\version_6.1.2\lvgl\src\lv_objx/lv_cont.c ****         x_ofs = w_obj + (w_fit - (obj_row * w_obj)) / (obj_row - 1);
 2191              		.loc 3 563 0
 2192 0068 B7F91220 		ldrsh	r2, [r7, #18]
 2193 006c FB89     		ldrh	r3, [r7, #14]
 2194 006e B7F91410 		ldrsh	r1, [r7, #20]
 2195 0072 01FB03F3 		mul	r3, r1, r3
 2196 0076 D21A     		subs	r2, r2, r3
 2197 0078 FB89     		ldrh	r3, [r7, #14]
 2198 007a 013B     		subs	r3, r3, #1
 2199 007c 92FBF3F3 		sdiv	r3, r2, r3
 2200 0080 9AB2     		uxth	r2, r3
 2201 0082 BB8A     		ldrh	r3, [r7, #20]
 2202 0084 1344     		add	r3, r3, r2
 2203 0086 9BB2     		uxth	r3, r3
 2204 0088 7B84     		strh	r3, [r7, #34]	@ movhi
 2205 008a 10E0     		b	.L147
 2206              	.L146:
 564:..\..\..\lvgl\version_6.1.2\lvgl\src\lv_objx/lv_cont.c ****     } else {
 565:..\..\..\lvgl\version_6.1.2\lvgl\src\lv_objx/lv_cont.c ****         x_ofs = w_tot / 2 - w_obj / 2;
 2207              		.loc 3 565 0
 2208 008c B7F91630 		ldrsh	r3, [r7, #22]
 2209 0090 DA0F     		lsrs	r2, r3, #31
 2210 0092 1344     		add	r3, r3, r2
 2211 0094 5B10     		asrs	r3, r3, #1
 2212 0096 1BB2     		sxth	r3, r3
 2213 0098 9AB2     		uxth	r2, r3
 2214 009a B7F91430 		ldrsh	r3, [r7, #20]
 2215 009e D90F     		lsrs	r1, r3, #31
 2216 00a0 0B44     		add	r3, r3, r1
 2217 00a2 5B10     		asrs	r3, r3, #1
 2218 00a4 1BB2     		sxth	r3, r3
 2219 00a6 9BB2     		uxth	r3, r3
 2220 00a8 D31A     		subs	r3, r2, r3
 2221 00aa 9BB2     		uxth	r3, r3
 2222 00ac 7B84     		strh	r3, [r7, #34]	@ movhi
 2223              	.L147:
 566:..\..\..\lvgl\version_6.1.2\lvgl\src\lv_objx/lv_cont.c ****     }
 567:..\..\..\lvgl\version_6.1.2\lvgl\src\lv_objx/lv_cont.c ****     lv_coord_t y_ofs = h_obj + style->body.padding.inner;
 2224              		.loc 3 567 0
 2225 00ae BB69     		ldr	r3, [r7, #24]
 2226 00b0 B3F92830 		ldrsh	r3, [r3, #40]
 2227 00b4 9AB2     		uxth	r2, r3
 2228 00b6 3B8A     		ldrh	r3, [r7, #16]
 2229 00b8 1344     		add	r3, r3, r2
 2230 00ba 9BB2     		uxth	r3, r3
 2231 00bc BB81     		strh	r3, [r7, #12]	@ movhi
 568:..\..\..\lvgl\version_6.1.2\lvgl\src\lv_objx/lv_cont.c **** 
 569:..\..\..\lvgl\version_6.1.2\lvgl\src\lv_objx/lv_cont.c ****     /* Disable child change action because the children will be moved a lot
 570:..\..\..\lvgl\version_6.1.2\lvgl\src\lv_objx/lv_cont.c ****      * an unnecessary child change signals could be sent*/
 571:..\..\..\lvgl\version_6.1.2\lvgl\src\lv_objx/lv_cont.c ****     lv_obj_set_protect(cont, LV_PROTECT_CHILD_CHG);
 2232              		.loc 3 571 0
 2233 00be 0121     		movs	r1, #1
ARM GAS  C:\Users\tmj32\AppData\Local\Temp\ccnLJfS3.s 			page 55


 2234 00c0 7868     		ldr	r0, [r7, #4]
 2235 00c2 FFF7FEFF 		bl	lv_obj_set_protect
 572:..\..\..\lvgl\version_6.1.2\lvgl\src\lv_objx/lv_cont.c **** 
 573:..\..\..\lvgl\version_6.1.2\lvgl\src\lv_objx/lv_cont.c ****     /* Align the children */
 574:..\..\..\lvgl\version_6.1.2\lvgl\src\lv_objx/lv_cont.c ****     lv_coord_t act_x = style->body.padding.left;
 2236              		.loc 3 574 0
 2237 00c6 BB69     		ldr	r3, [r7, #24]
 2238 00c8 9B8C     		ldrh	r3, [r3, #36]	@ movhi
 2239 00ca 3B84     		strh	r3, [r7, #32]	@ movhi
 575:..\..\..\lvgl\version_6.1.2\lvgl\src\lv_objx/lv_cont.c ****     lv_coord_t act_y = style->body.padding.top;
 2240              		.loc 3 575 0
 2241 00cc BB69     		ldr	r3, [r7, #24]
 2242 00ce 1B8C     		ldrh	r3, [r3, #32]	@ movhi
 2243 00d0 FB83     		strh	r3, [r7, #30]	@ movhi
 576:..\..\..\lvgl\version_6.1.2\lvgl\src\lv_objx/lv_cont.c ****     uint16_t obj_cnt = 0;
 2244              		.loc 3 576 0
 2245 00d2 0023     		movs	r3, #0
 2246 00d4 BB83     		strh	r3, [r7, #28]	@ movhi
 577:..\..\..\lvgl\version_6.1.2\lvgl\src\lv_objx/lv_cont.c ****     LV_LL_READ_BACK(cont->child_ll, child)
 2247              		.loc 3 577 0
 2248 00d6 7B68     		ldr	r3, [r7, #4]
 2249 00d8 0433     		adds	r3, r3, #4
 2250 00da 1846     		mov	r0, r3
 2251 00dc FFF7FEFF 		bl	lv_ll_get_tail
 2252 00e0 7862     		str	r0, [r7, #36]
 2253 00e2 3FE0     		b	.L148
 2254              	.L154:
 578:..\..\..\lvgl\version_6.1.2\lvgl\src\lv_objx/lv_cont.c ****     {
 579:..\..\..\lvgl\version_6.1.2\lvgl\src\lv_objx/lv_cont.c ****         if(lv_obj_get_hidden(child) != false || lv_obj_is_protected(child, LV_PROTECT_POS) != false
 2255              		.loc 3 579 0
 2256 00e4 786A     		ldr	r0, [r7, #36]
 2257 00e6 FFF7FEFF 		bl	lv_obj_get_hidden
 2258 00ea 0346     		mov	r3, r0
 2259 00ec 002B     		cmp	r3, #0
 2260 00ee 31D1     		bne	.L155
 2261              		.loc 3 579 0 is_stmt 0 discriminator 2
 2262 00f0 0421     		movs	r1, #4
 2263 00f2 786A     		ldr	r0, [r7, #36]
 2264 00f4 FFF7FEFF 		bl	lv_obj_is_protected
 2265 00f8 0346     		mov	r3, r0
 2266 00fa 002B     		cmp	r3, #0
 2267 00fc 2AD1     		bne	.L155
 580:..\..\..\lvgl\version_6.1.2\lvgl\src\lv_objx/lv_cont.c **** 
 581:..\..\..\lvgl\version_6.1.2\lvgl\src\lv_objx/lv_cont.c ****         if(obj_row > 1) {
 2268              		.loc 3 581 0 is_stmt 1
 2269 00fe FB89     		ldrh	r3, [r7, #14]
 2270 0100 012B     		cmp	r3, #1
 2271 0102 0DD9     		bls	.L152
 582:..\..\..\lvgl\version_6.1.2\lvgl\src\lv_objx/lv_cont.c ****             lv_obj_set_pos(child, act_x, act_y);
 2272              		.loc 3 582 0
 2273 0104 B7F91E20 		ldrsh	r2, [r7, #30]
 2274 0108 B7F92030 		ldrsh	r3, [r7, #32]
 2275 010c 1946     		mov	r1, r3
 2276 010e 786A     		ldr	r0, [r7, #36]
 2277 0110 FFF7FEFF 		bl	lv_obj_set_pos
 583:..\..\..\lvgl\version_6.1.2\lvgl\src\lv_objx/lv_cont.c ****             act_x += x_ofs;
 2278              		.loc 3 583 0
ARM GAS  C:\Users\tmj32\AppData\Local\Temp\ccnLJfS3.s 			page 56


 2279 0114 3A8C     		ldrh	r2, [r7, #32]
 2280 0116 7B8C     		ldrh	r3, [r7, #34]
 2281 0118 1344     		add	r3, r3, r2
 2282 011a 9BB2     		uxth	r3, r3
 2283 011c 3B84     		strh	r3, [r7, #32]	@ movhi
 2284 011e 07E0     		b	.L153
 2285              	.L152:
 584:..\..\..\lvgl\version_6.1.2\lvgl\src\lv_objx/lv_cont.c ****         } else {
 585:..\..\..\lvgl\version_6.1.2\lvgl\src\lv_objx/lv_cont.c ****             lv_obj_set_pos(child, x_ofs, act_y);
 2286              		.loc 3 585 0
 2287 0120 B7F91E20 		ldrsh	r2, [r7, #30]
 2288 0124 B7F92230 		ldrsh	r3, [r7, #34]
 2289 0128 1946     		mov	r1, r3
 2290 012a 786A     		ldr	r0, [r7, #36]
 2291 012c FFF7FEFF 		bl	lv_obj_set_pos
 2292              	.L153:
 586:..\..\..\lvgl\version_6.1.2\lvgl\src\lv_objx/lv_cont.c ****         }
 587:..\..\..\lvgl\version_6.1.2\lvgl\src\lv_objx/lv_cont.c ****         obj_cnt++;
 2293              		.loc 3 587 0
 2294 0130 BB8B     		ldrh	r3, [r7, #28]
 2295 0132 0133     		adds	r3, r3, #1
 2296 0134 BB83     		strh	r3, [r7, #28]	@ movhi
 588:..\..\..\lvgl\version_6.1.2\lvgl\src\lv_objx/lv_cont.c **** 
 589:..\..\..\lvgl\version_6.1.2\lvgl\src\lv_objx/lv_cont.c ****         if(obj_cnt >= obj_row) {
 2297              		.loc 3 589 0
 2298 0136 BA8B     		ldrh	r2, [r7, #28]
 2299 0138 FB89     		ldrh	r3, [r7, #14]
 2300 013a 9A42     		cmp	r2, r3
 2301 013c 0BD3     		bcc	.L151
 590:..\..\..\lvgl\version_6.1.2\lvgl\src\lv_objx/lv_cont.c ****             obj_cnt = 0;
 2302              		.loc 3 590 0
 2303 013e 0023     		movs	r3, #0
 2304 0140 BB83     		strh	r3, [r7, #28]	@ movhi
 591:..\..\..\lvgl\version_6.1.2\lvgl\src\lv_objx/lv_cont.c ****             act_x   = style->body.padding.left;
 2305              		.loc 3 591 0
 2306 0142 BB69     		ldr	r3, [r7, #24]
 2307 0144 9B8C     		ldrh	r3, [r3, #36]	@ movhi
 2308 0146 3B84     		strh	r3, [r7, #32]	@ movhi
 592:..\..\..\lvgl\version_6.1.2\lvgl\src\lv_objx/lv_cont.c ****             act_y += y_ofs;
 2309              		.loc 3 592 0
 2310 0148 FA8B     		ldrh	r2, [r7, #30]
 2311 014a BB89     		ldrh	r3, [r7, #12]
 2312 014c 1344     		add	r3, r3, r2
 2313 014e 9BB2     		uxth	r3, r3
 2314 0150 FB83     		strh	r3, [r7, #30]	@ movhi
 2315 0152 00E0     		b	.L151
 2316              	.L155:
 579:..\..\..\lvgl\version_6.1.2\lvgl\src\lv_objx/lv_cont.c **** 
 2317              		.loc 3 579 0
 2318 0154 00BF     		nop
 2319              	.L151:
 577:..\..\..\lvgl\version_6.1.2\lvgl\src\lv_objx/lv_cont.c ****     {
 2320              		.loc 3 577 0 discriminator 2
 2321 0156 7B68     		ldr	r3, [r7, #4]
 2322 0158 0433     		adds	r3, r3, #4
 2323 015a 796A     		ldr	r1, [r7, #36]
 2324 015c 1846     		mov	r0, r3
ARM GAS  C:\Users\tmj32\AppData\Local\Temp\ccnLJfS3.s 			page 57


 2325 015e FFF7FEFF 		bl	lv_ll_get_prev
 2326 0162 7862     		str	r0, [r7, #36]
 2327              	.L148:
 577:..\..\..\lvgl\version_6.1.2\lvgl\src\lv_objx/lv_cont.c ****     {
 2328              		.loc 3 577 0 is_stmt 0 discriminator 1
 2329 0164 7B6A     		ldr	r3, [r7, #36]
 2330 0166 002B     		cmp	r3, #0
 2331 0168 BCD1     		bne	.L154
 593:..\..\..\lvgl\version_6.1.2\lvgl\src\lv_objx/lv_cont.c ****         }
 594:..\..\..\lvgl\version_6.1.2\lvgl\src\lv_objx/lv_cont.c ****     }
 595:..\..\..\lvgl\version_6.1.2\lvgl\src\lv_objx/lv_cont.c **** 
 596:..\..\..\lvgl\version_6.1.2\lvgl\src\lv_objx/lv_cont.c ****     lv_obj_clear_protect(cont, LV_PROTECT_CHILD_CHG);
 2332              		.loc 3 596 0 is_stmt 1
 2333 016a 0121     		movs	r1, #1
 2334 016c 7868     		ldr	r0, [r7, #4]
 2335 016e FFF7FEFF 		bl	lv_obj_clear_protect
 597:..\..\..\lvgl\version_6.1.2\lvgl\src\lv_objx/lv_cont.c **** }
 2336              		.loc 3 597 0
 2337 0172 00BF     		nop
 2338 0174 2837     		adds	r7, r7, #40
 2339              		.cfi_def_cfa_offset 8
 2340 0176 BD46     		mov	sp, r7
 2341              		.cfi_def_cfa_register 13
 2342              		@ sp needed
 2343 0178 80BD     		pop	{r7, pc}
 2344              		.cfi_endproc
 2345              	.LFE49:
 2346              		.size	lv_cont_layout_grid, .-lv_cont_layout_grid
 2347 017a 00BF     		.section	.text.lv_cont_refr_autofit,"ax",%progbits
 2348              		.align	2
 2349              		.thumb
 2350              		.thumb_func
 2351              		.type	lv_cont_refr_autofit, %function
 2352              	lv_cont_refr_autofit:
 2353              	.LFB50:
 598:..\..\..\lvgl\version_6.1.2\lvgl\src\lv_objx/lv_cont.c **** 
 599:..\..\..\lvgl\version_6.1.2\lvgl\src\lv_objx/lv_cont.c **** /**
 600:..\..\..\lvgl\version_6.1.2\lvgl\src\lv_objx/lv_cont.c ****  * Handle auto fit. Set the size of the object to involve all children.
 601:..\..\..\lvgl\version_6.1.2\lvgl\src\lv_objx/lv_cont.c ****  * @param cont pointer to an object which size will be modified
 602:..\..\..\lvgl\version_6.1.2\lvgl\src\lv_objx/lv_cont.c ****  */
 603:..\..\..\lvgl\version_6.1.2\lvgl\src\lv_objx/lv_cont.c **** static void lv_cont_refr_autofit(lv_obj_t * cont)
 604:..\..\..\lvgl\version_6.1.2\lvgl\src\lv_objx/lv_cont.c **** {
 2354              		.loc 3 604 0
 2355              		.cfi_startproc
 2356              		@ args = 0, pretend = 0, frame = 64
 2357              		@ frame_needed = 1, uses_anonymous_args = 0
 2358 0000 80B5     		push	{r7, lr}
 2359              		.cfi_def_cfa_offset 8
 2360              		.cfi_offset 7, -8
 2361              		.cfi_offset 14, -4
 2362 0002 90B0     		sub	sp, sp, #64
 2363              		.cfi_def_cfa_offset 72
 2364 0004 00AF     		add	r7, sp, #0
 2365              		.cfi_def_cfa_register 7
 2366 0006 7860     		str	r0, [r7, #4]
 605:..\..\..\lvgl\version_6.1.2\lvgl\src\lv_objx/lv_cont.c ****     lv_cont_ext_t * ext = lv_obj_get_ext_attr(cont);
 2367              		.loc 3 605 0
ARM GAS  C:\Users\tmj32\AppData\Local\Temp\ccnLJfS3.s 			page 58


 2368 0008 7868     		ldr	r0, [r7, #4]
 2369 000a FFF7FEFF 		bl	lv_obj_get_ext_attr
 2370 000e B863     		str	r0, [r7, #56]
 606:..\..\..\lvgl\version_6.1.2\lvgl\src\lv_objx/lv_cont.c **** 
 607:..\..\..\lvgl\version_6.1.2\lvgl\src\lv_objx/lv_cont.c ****     if(ext->fit_left == LV_FIT_NONE && ext->fit_right == LV_FIT_NONE && ext->fit_top == LV_FIT_NONE
 2371              		.loc 3 607 0
 2372 0010 BB6B     		ldr	r3, [r7, #56]
 2373 0012 1B78     		ldrb	r3, [r3]	@ zero_extendqisi2
 2374 0014 03F03003 		and	r3, r3, #48
 2375 0018 DBB2     		uxtb	r3, r3
 2376 001a 002B     		cmp	r3, #0
 2377 001c 15D1     		bne	.L157
 2378              		.loc 3 607 0 is_stmt 0 discriminator 1
 2379 001e BB6B     		ldr	r3, [r7, #56]
 2380 0020 1B78     		ldrb	r3, [r3]	@ zero_extendqisi2
 2381 0022 23F03F03 		bic	r3, r3, #63
 2382 0026 DBB2     		uxtb	r3, r3
 2383 0028 002B     		cmp	r3, #0
 2384 002a 0ED1     		bne	.L157
 2385              		.loc 3 607 0 discriminator 2
 2386 002c BB6B     		ldr	r3, [r7, #56]
 2387 002e 5B78     		ldrb	r3, [r3, #1]	@ zero_extendqisi2
 2388 0030 03F00303 		and	r3, r3, #3
 2389 0034 DBB2     		uxtb	r3, r3
 2390 0036 002B     		cmp	r3, #0
 2391 0038 07D1     		bne	.L157
 608:..\..\..\lvgl\version_6.1.2\lvgl\src\lv_objx/lv_cont.c ****        ext->fit_bottom == LV_FIT_NONE) {
 2392              		.loc 3 608 0 is_stmt 1 discriminator 3
 2393 003a BB6B     		ldr	r3, [r7, #56]
 2394 003c 5B78     		ldrb	r3, [r3, #1]	@ zero_extendqisi2
 2395 003e 03F00C03 		and	r3, r3, #12
 2396 0042 DBB2     		uxtb	r3, r3
 607:..\..\..\lvgl\version_6.1.2\lvgl\src\lv_objx/lv_cont.c ****        ext->fit_bottom == LV_FIT_NONE) {
 2397              		.loc 3 607 0 discriminator 3
 2398 0044 002B     		cmp	r3, #0
 2399 0046 00F0CB81 		beq	.L199
 2400              	.L157:
 609:..\..\..\lvgl\version_6.1.2\lvgl\src\lv_objx/lv_cont.c ****         return;
 610:..\..\..\lvgl\version_6.1.2\lvgl\src\lv_objx/lv_cont.c ****     }
 611:..\..\..\lvgl\version_6.1.2\lvgl\src\lv_objx/lv_cont.c **** 
 612:..\..\..\lvgl\version_6.1.2\lvgl\src\lv_objx/lv_cont.c ****     lv_area_t tight_area;
 613:..\..\..\lvgl\version_6.1.2\lvgl\src\lv_objx/lv_cont.c ****     lv_area_t ori;
 614:..\..\..\lvgl\version_6.1.2\lvgl\src\lv_objx/lv_cont.c ****     const lv_style_t * style = lv_obj_get_style(cont);
 2401              		.loc 3 614 0
 2402 004a 7868     		ldr	r0, [r7, #4]
 2403 004c FFF7FEFF 		bl	lv_obj_get_style
 2404 0050 7863     		str	r0, [r7, #52]
 615:..\..\..\lvgl\version_6.1.2\lvgl\src\lv_objx/lv_cont.c ****     lv_obj_t * child_i;
 616:..\..\..\lvgl\version_6.1.2\lvgl\src\lv_objx/lv_cont.c **** 
 617:..\..\..\lvgl\version_6.1.2\lvgl\src\lv_objx/lv_cont.c ****     lv_obj_t * par               = lv_obj_get_parent(cont);
 2405              		.loc 3 617 0
 2406 0052 7868     		ldr	r0, [r7, #4]
 2407 0054 FFF7FEFF 		bl	lv_obj_get_parent
 2408 0058 3863     		str	r0, [r7, #48]
 618:..\..\..\lvgl\version_6.1.2\lvgl\src\lv_objx/lv_cont.c ****     const lv_style_t * par_style = lv_obj_get_style(par);
 2409              		.loc 3 618 0
 2410 005a 386B     		ldr	r0, [r7, #48]
ARM GAS  C:\Users\tmj32\AppData\Local\Temp\ccnLJfS3.s 			page 59


 2411 005c FFF7FEFF 		bl	lv_obj_get_style
 2412 0060 F862     		str	r0, [r7, #44]
 619:..\..\..\lvgl\version_6.1.2\lvgl\src\lv_objx/lv_cont.c ****     lv_area_t flood_area;
 620:..\..\..\lvgl\version_6.1.2\lvgl\src\lv_objx/lv_cont.c ****     lv_area_copy(&flood_area, &par->coords);
 2413              		.loc 3 620 0
 2414 0062 3B6B     		ldr	r3, [r7, #48]
 2415 0064 03F11002 		add	r2, r3, #16
 2416 0068 07F11003 		add	r3, r7, #16
 2417 006c 1146     		mov	r1, r2
 2418 006e 1846     		mov	r0, r3
 2419 0070 FFF7FEFF 		bl	lv_area_copy
 621:..\..\..\lvgl\version_6.1.2\lvgl\src\lv_objx/lv_cont.c ****     flood_area.x1 += par_style->body.padding.left;
 2420              		.loc 3 621 0
 2421 0074 B7F91030 		ldrsh	r3, [r7, #16]
 2422 0078 9AB2     		uxth	r2, r3
 2423 007a FB6A     		ldr	r3, [r7, #44]
 2424 007c B3F92430 		ldrsh	r3, [r3, #36]
 2425 0080 9BB2     		uxth	r3, r3
 2426 0082 1344     		add	r3, r3, r2
 2427 0084 9BB2     		uxth	r3, r3
 2428 0086 1BB2     		sxth	r3, r3
 2429 0088 3B82     		strh	r3, [r7, #16]	@ movhi
 622:..\..\..\lvgl\version_6.1.2\lvgl\src\lv_objx/lv_cont.c ****     flood_area.x2 -= par_style->body.padding.right;
 2430              		.loc 3 622 0
 2431 008a B7F91430 		ldrsh	r3, [r7, #20]
 2432 008e 9AB2     		uxth	r2, r3
 2433 0090 FB6A     		ldr	r3, [r7, #44]
 2434 0092 B3F92630 		ldrsh	r3, [r3, #38]
 2435 0096 9BB2     		uxth	r3, r3
 2436 0098 D31A     		subs	r3, r2, r3
 2437 009a 9BB2     		uxth	r3, r3
 2438 009c 1BB2     		sxth	r3, r3
 2439 009e BB82     		strh	r3, [r7, #20]	@ movhi
 623:..\..\..\lvgl\version_6.1.2\lvgl\src\lv_objx/lv_cont.c ****     flood_area.y1 += par_style->body.padding.top;
 2440              		.loc 3 623 0
 2441 00a0 B7F91230 		ldrsh	r3, [r7, #18]
 2442 00a4 9AB2     		uxth	r2, r3
 2443 00a6 FB6A     		ldr	r3, [r7, #44]
 2444 00a8 B3F92030 		ldrsh	r3, [r3, #32]
 2445 00ac 9BB2     		uxth	r3, r3
 2446 00ae 1344     		add	r3, r3, r2
 2447 00b0 9BB2     		uxth	r3, r3
 2448 00b2 1BB2     		sxth	r3, r3
 2449 00b4 7B82     		strh	r3, [r7, #18]	@ movhi
 624:..\..\..\lvgl\version_6.1.2\lvgl\src\lv_objx/lv_cont.c ****     flood_area.y2 -= par_style->body.padding.bottom;
 2450              		.loc 3 624 0
 2451 00b6 B7F91630 		ldrsh	r3, [r7, #22]
 2452 00ba 9AB2     		uxth	r2, r3
 2453 00bc FB6A     		ldr	r3, [r7, #44]
 2454 00be B3F92230 		ldrsh	r3, [r3, #34]
 2455 00c2 9BB2     		uxth	r3, r3
 2456 00c4 D31A     		subs	r3, r2, r3
 2457 00c6 9BB2     		uxth	r3, r3
 2458 00c8 1BB2     		sxth	r3, r3
 2459 00ca FB82     		strh	r3, [r7, #22]	@ movhi
 625:..\..\..\lvgl\version_6.1.2\lvgl\src\lv_objx/lv_cont.c **** 
 626:..\..\..\lvgl\version_6.1.2\lvgl\src\lv_objx/lv_cont.c ****     /*Search the side coordinates of the children*/
ARM GAS  C:\Users\tmj32\AppData\Local\Temp\ccnLJfS3.s 			page 60


 627:..\..\..\lvgl\version_6.1.2\lvgl\src\lv_objx/lv_cont.c ****     lv_obj_get_coords(cont, &ori);
 2460              		.loc 3 627 0
 2461 00cc 07F11803 		add	r3, r7, #24
 2462 00d0 1946     		mov	r1, r3
 2463 00d2 7868     		ldr	r0, [r7, #4]
 2464 00d4 FFF7FEFF 		bl	lv_obj_get_coords
 628:..\..\..\lvgl\version_6.1.2\lvgl\src\lv_objx/lv_cont.c ****     lv_obj_get_coords(cont, &tight_area);
 2465              		.loc 3 628 0
 2466 00d8 07F12003 		add	r3, r7, #32
 2467 00dc 1946     		mov	r1, r3
 2468 00de 7868     		ldr	r0, [r7, #4]
 2469 00e0 FFF7FEFF 		bl	lv_obj_get_coords
 629:..\..\..\lvgl\version_6.1.2\lvgl\src\lv_objx/lv_cont.c **** 
 630:..\..\..\lvgl\version_6.1.2\lvgl\src\lv_objx/lv_cont.c ****     bool has_children = lv_ll_is_empty(&cont->child_ll) ? false : true;
 2470              		.loc 3 630 0
 2471 00e4 7B68     		ldr	r3, [r7, #4]
 2472 00e6 0433     		adds	r3, r3, #4
 2473 00e8 1846     		mov	r0, r3
 2474 00ea FFF7FEFF 		bl	lv_ll_is_empty
 2475 00ee 0346     		mov	r3, r0
 2476 00f0 002B     		cmp	r3, #0
 2477 00f2 01D0     		beq	.L159
 2478              		.loc 3 630 0 is_stmt 0 discriminator 1
 2479 00f4 0023     		movs	r3, #0
 2480 00f6 00E0     		b	.L160
 2481              	.L159:
 2482              		.loc 3 630 0 discriminator 2
 2483 00f8 0123     		movs	r3, #1
 2484              	.L160:
 2485              		.loc 3 630 0 discriminator 4
 2486 00fa 87F82B30 		strb	r3, [r7, #43]
 631:..\..\..\lvgl\version_6.1.2\lvgl\src\lv_objx/lv_cont.c **** 
 632:..\..\..\lvgl\version_6.1.2\lvgl\src\lv_objx/lv_cont.c ****     if(has_children) {
 2487              		.loc 3 632 0 is_stmt 1 discriminator 4
 2488 00fe 97F82B30 		ldrb	r3, [r7, #43]	@ zero_extendqisi2
 2489 0102 002B     		cmp	r3, #0
 2490 0104 78D0     		beq	.L161
 633:..\..\..\lvgl\version_6.1.2\lvgl\src\lv_objx/lv_cont.c ****         tight_area.x1 = LV_COORD_MAX;
 2491              		.loc 3 633 0
 2492 0106 47F61843 		movw	r3, #31768
 2493 010a 3B84     		strh	r3, [r7, #32]	@ movhi
 634:..\..\..\lvgl\version_6.1.2\lvgl\src\lv_objx/lv_cont.c ****         tight_area.y1 = LV_COORD_MAX;
 2494              		.loc 3 634 0
 2495 010c 47F61843 		movw	r3, #31768
 2496 0110 7B84     		strh	r3, [r7, #34]	@ movhi
 635:..\..\..\lvgl\version_6.1.2\lvgl\src\lv_objx/lv_cont.c ****         tight_area.x2 = LV_COORD_MIN;
 2497              		.loc 3 635 0
 2498 0112 48F2E833 		movw	r3, #33768
 2499 0116 BB84     		strh	r3, [r7, #36]	@ movhi
 636:..\..\..\lvgl\version_6.1.2\lvgl\src\lv_objx/lv_cont.c ****         tight_area.y2 = LV_COORD_MIN;
 2500              		.loc 3 636 0
 2501 0118 48F2E833 		movw	r3, #33768
 2502 011c FB84     		strh	r3, [r7, #38]	@ movhi
 637:..\..\..\lvgl\version_6.1.2\lvgl\src\lv_objx/lv_cont.c **** 
 638:..\..\..\lvgl\version_6.1.2\lvgl\src\lv_objx/lv_cont.c ****         LV_LL_READ(cont->child_ll, child_i)
 2503              		.loc 3 638 0
 2504 011e 7B68     		ldr	r3, [r7, #4]
ARM GAS  C:\Users\tmj32\AppData\Local\Temp\ccnLJfS3.s 			page 61


 2505 0120 0433     		adds	r3, r3, #4
 2506 0122 1846     		mov	r0, r3
 2507 0124 FFF7FEFF 		bl	lv_ll_get_head
 2508 0128 F863     		str	r0, [r7, #60]
 2509 012a 36E0     		b	.L162
 2510              	.L165:
 639:..\..\..\lvgl\version_6.1.2\lvgl\src\lv_objx/lv_cont.c ****         {
 640:..\..\..\lvgl\version_6.1.2\lvgl\src\lv_objx/lv_cont.c ****             if(lv_obj_get_hidden(child_i) != false) continue;
 2511              		.loc 3 640 0
 2512 012c F86B     		ldr	r0, [r7, #60]
 2513 012e FFF7FEFF 		bl	lv_obj_get_hidden
 2514 0132 0346     		mov	r3, r0
 2515 0134 002B     		cmp	r3, #0
 2516 0136 28D1     		bne	.L200
 641:..\..\..\lvgl\version_6.1.2\lvgl\src\lv_objx/lv_cont.c ****             tight_area.x1 = LV_MATH_MIN(tight_area.x1, child_i->coords.x1);
 2517              		.loc 3 641 0
 2518 0138 FB6B     		ldr	r3, [r7, #60]
 2519 013a B3F91020 		ldrsh	r2, [r3, #16]
 2520 013e B7F92030 		ldrsh	r3, [r7, #32]
 2521 0142 9342     		cmp	r3, r2
 2522 0144 A8BF     		it	ge
 2523 0146 1346     		movge	r3, r2
 2524 0148 1BB2     		sxth	r3, r3
 2525 014a 3B84     		strh	r3, [r7, #32]	@ movhi
 642:..\..\..\lvgl\version_6.1.2\lvgl\src\lv_objx/lv_cont.c ****             tight_area.y1 = LV_MATH_MIN(tight_area.y1, child_i->coords.y1);
 2526              		.loc 3 642 0
 2527 014c FB6B     		ldr	r3, [r7, #60]
 2528 014e B3F91220 		ldrsh	r2, [r3, #18]
 2529 0152 B7F92230 		ldrsh	r3, [r7, #34]
 2530 0156 9342     		cmp	r3, r2
 2531 0158 A8BF     		it	ge
 2532 015a 1346     		movge	r3, r2
 2533 015c 1BB2     		sxth	r3, r3
 2534 015e 7B84     		strh	r3, [r7, #34]	@ movhi
 643:..\..\..\lvgl\version_6.1.2\lvgl\src\lv_objx/lv_cont.c ****             tight_area.x2 = LV_MATH_MAX(tight_area.x2, child_i->coords.x2);
 2535              		.loc 3 643 0
 2536 0160 FB6B     		ldr	r3, [r7, #60]
 2537 0162 B3F91420 		ldrsh	r2, [r3, #20]
 2538 0166 B7F92430 		ldrsh	r3, [r7, #36]
 2539 016a 9342     		cmp	r3, r2
 2540 016c B8BF     		it	lt
 2541 016e 1346     		movlt	r3, r2
 2542 0170 1BB2     		sxth	r3, r3
 2543 0172 BB84     		strh	r3, [r7, #36]	@ movhi
 644:..\..\..\lvgl\version_6.1.2\lvgl\src\lv_objx/lv_cont.c ****             tight_area.y2 = LV_MATH_MAX(tight_area.y2, child_i->coords.y2);
 2544              		.loc 3 644 0
 2545 0174 FB6B     		ldr	r3, [r7, #60]
 2546 0176 B3F91620 		ldrsh	r2, [r3, #22]
 2547 017a B7F92630 		ldrsh	r3, [r7, #38]
 2548 017e 9342     		cmp	r3, r2
 2549 0180 B8BF     		it	lt
 2550 0182 1346     		movlt	r3, r2
 2551 0184 1BB2     		sxth	r3, r3
 2552 0186 FB84     		strh	r3, [r7, #38]	@ movhi
 2553 0188 00E0     		b	.L164
 2554              	.L200:
 640:..\..\..\lvgl\version_6.1.2\lvgl\src\lv_objx/lv_cont.c ****             tight_area.x1 = LV_MATH_MIN(tight_area.x1, child_i->coords.x1);
ARM GAS  C:\Users\tmj32\AppData\Local\Temp\ccnLJfS3.s 			page 62


 2555              		.loc 3 640 0
 2556 018a 00BF     		nop
 2557              	.L164:
 638:..\..\..\lvgl\version_6.1.2\lvgl\src\lv_objx/lv_cont.c ****         {
 2558              		.loc 3 638 0 discriminator 2
 2559 018c 7B68     		ldr	r3, [r7, #4]
 2560 018e 0433     		adds	r3, r3, #4
 2561 0190 F96B     		ldr	r1, [r7, #60]
 2562 0192 1846     		mov	r0, r3
 2563 0194 FFF7FEFF 		bl	lv_ll_get_next
 2564 0198 F863     		str	r0, [r7, #60]
 2565              	.L162:
 638:..\..\..\lvgl\version_6.1.2\lvgl\src\lv_objx/lv_cont.c ****         {
 2566              		.loc 3 638 0 is_stmt 0 discriminator 1
 2567 019a FB6B     		ldr	r3, [r7, #60]
 2568 019c 002B     		cmp	r3, #0
 2569 019e C5D1     		bne	.L165
 645:..\..\..\lvgl\version_6.1.2\lvgl\src\lv_objx/lv_cont.c ****         }
 646:..\..\..\lvgl\version_6.1.2\lvgl\src\lv_objx/lv_cont.c **** 
 647:..\..\..\lvgl\version_6.1.2\lvgl\src\lv_objx/lv_cont.c ****         tight_area.x1 -= style->body.padding.left;
 2570              		.loc 3 647 0 is_stmt 1
 2571 01a0 B7F92030 		ldrsh	r3, [r7, #32]
 2572 01a4 9AB2     		uxth	r2, r3
 2573 01a6 7B6B     		ldr	r3, [r7, #52]
 2574 01a8 B3F92430 		ldrsh	r3, [r3, #36]
 2575 01ac 9BB2     		uxth	r3, r3
 2576 01ae D31A     		subs	r3, r2, r3
 2577 01b0 9BB2     		uxth	r3, r3
 2578 01b2 1BB2     		sxth	r3, r3
 2579 01b4 3B84     		strh	r3, [r7, #32]	@ movhi
 648:..\..\..\lvgl\version_6.1.2\lvgl\src\lv_objx/lv_cont.c ****         tight_area.x2 += style->body.padding.right;
 2580              		.loc 3 648 0
 2581 01b6 B7F92430 		ldrsh	r3, [r7, #36]
 2582 01ba 9AB2     		uxth	r2, r3
 2583 01bc 7B6B     		ldr	r3, [r7, #52]
 2584 01be B3F92630 		ldrsh	r3, [r3, #38]
 2585 01c2 9BB2     		uxth	r3, r3
 2586 01c4 1344     		add	r3, r3, r2
 2587 01c6 9BB2     		uxth	r3, r3
 2588 01c8 1BB2     		sxth	r3, r3
 2589 01ca BB84     		strh	r3, [r7, #36]	@ movhi
 649:..\..\..\lvgl\version_6.1.2\lvgl\src\lv_objx/lv_cont.c ****         tight_area.y1 -= style->body.padding.top;
 2590              		.loc 3 649 0
 2591 01cc B7F92230 		ldrsh	r3, [r7, #34]
 2592 01d0 9AB2     		uxth	r2, r3
 2593 01d2 7B6B     		ldr	r3, [r7, #52]
 2594 01d4 B3F92030 		ldrsh	r3, [r3, #32]
 2595 01d8 9BB2     		uxth	r3, r3
 2596 01da D31A     		subs	r3, r2, r3
 2597 01dc 9BB2     		uxth	r3, r3
 2598 01de 1BB2     		sxth	r3, r3
 2599 01e0 7B84     		strh	r3, [r7, #34]	@ movhi
 650:..\..\..\lvgl\version_6.1.2\lvgl\src\lv_objx/lv_cont.c ****         tight_area.y2 += style->body.padding.bottom;
 2600              		.loc 3 650 0
 2601 01e2 B7F92630 		ldrsh	r3, [r7, #38]
 2602 01e6 9AB2     		uxth	r2, r3
 2603 01e8 7B6B     		ldr	r3, [r7, #52]
ARM GAS  C:\Users\tmj32\AppData\Local\Temp\ccnLJfS3.s 			page 63


 2604 01ea B3F92230 		ldrsh	r3, [r3, #34]
 2605 01ee 9BB2     		uxth	r3, r3
 2606 01f0 1344     		add	r3, r3, r2
 2607 01f2 9BB2     		uxth	r3, r3
 2608 01f4 1BB2     		sxth	r3, r3
 2609 01f6 FB84     		strh	r3, [r7, #38]	@ movhi
 2610              	.L161:
 651:..\..\..\lvgl\version_6.1.2\lvgl\src\lv_objx/lv_cont.c ****     }
 652:..\..\..\lvgl\version_6.1.2\lvgl\src\lv_objx/lv_cont.c **** 
 653:..\..\..\lvgl\version_6.1.2\lvgl\src\lv_objx/lv_cont.c ****     lv_area_t new_area;
 654:..\..\..\lvgl\version_6.1.2\lvgl\src\lv_objx/lv_cont.c ****     lv_area_copy(&new_area, &ori);
 2611              		.loc 3 654 0
 2612 01f8 07F11802 		add	r2, r7, #24
 2613 01fc 07F10803 		add	r3, r7, #8
 2614 0200 1146     		mov	r1, r2
 2615 0202 1846     		mov	r0, r3
 2616 0204 FFF7FEFF 		bl	lv_area_copy
 655:..\..\..\lvgl\version_6.1.2\lvgl\src\lv_objx/lv_cont.c **** 
 656:..\..\..\lvgl\version_6.1.2\lvgl\src\lv_objx/lv_cont.c ****     switch(ext->fit_left) {
 2617              		.loc 3 656 0
 2618 0208 BB6B     		ldr	r3, [r7, #56]
 2619 020a 1B78     		ldrb	r3, [r3]
 2620 020c C3F30113 		ubfx	r3, r3, #4, #2
 2621 0210 DBB2     		uxtb	r3, r3
 2622 0212 022B     		cmp	r3, #2
 2623 0214 08D0     		beq	.L167
 2624 0216 032B     		cmp	r3, #3
 2625 0218 0AD0     		beq	.L168
 2626 021a 012B     		cmp	r3, #1
 2627 021c 00D0     		beq	.L169
 657:..\..\..\lvgl\version_6.1.2\lvgl\src\lv_objx/lv_cont.c ****         case LV_FIT_TIGHT: new_area.x1 = tight_area.x1; break;
 658:..\..\..\lvgl\version_6.1.2\lvgl\src\lv_objx/lv_cont.c ****         case LV_FIT_FLOOD: new_area.x1 = flood_area.x1; break;
 659:..\..\..\lvgl\version_6.1.2\lvgl\src\lv_objx/lv_cont.c ****         case LV_FIT_FILL: new_area.x1 = has_children ? LV_MATH_MIN(tight_area.x1, flood_area.x1) : 
 660:..\..\..\lvgl\version_6.1.2\lvgl\src\lv_objx/lv_cont.c ****         default: break;
 2628              		.loc 3 660 0
 2629 021e 18E0     		b	.L170
 2630              	.L169:
 657:..\..\..\lvgl\version_6.1.2\lvgl\src\lv_objx/lv_cont.c ****         case LV_FIT_TIGHT: new_area.x1 = tight_area.x1; break;
 2631              		.loc 3 657 0
 2632 0220 B7F92030 		ldrsh	r3, [r7, #32]
 2633 0224 3B81     		strh	r3, [r7, #8]	@ movhi
 2634 0226 14E0     		b	.L170
 2635              	.L167:
 658:..\..\..\lvgl\version_6.1.2\lvgl\src\lv_objx/lv_cont.c ****         case LV_FIT_FILL: new_area.x1 = has_children ? LV_MATH_MIN(tight_area.x1, flood_area.x1) : 
 2636              		.loc 3 658 0
 2637 0228 B7F91030 		ldrsh	r3, [r7, #16]
 2638 022c 3B81     		strh	r3, [r7, #8]	@ movhi
 2639 022e 10E0     		b	.L170
 2640              	.L168:
 659:..\..\..\lvgl\version_6.1.2\lvgl\src\lv_objx/lv_cont.c ****         default: break;
 2641              		.loc 3 659 0
 2642 0230 97F82B30 		ldrb	r3, [r7, #43]	@ zero_extendqisi2
 2643 0234 002B     		cmp	r3, #0
 2644 0236 08D0     		beq	.L171
 659:..\..\..\lvgl\version_6.1.2\lvgl\src\lv_objx/lv_cont.c ****         default: break;
 2645              		.loc 3 659 0 is_stmt 0 discriminator 1
 2646 0238 B7F91020 		ldrsh	r2, [r7, #16]
ARM GAS  C:\Users\tmj32\AppData\Local\Temp\ccnLJfS3.s 			page 64


 2647 023c B7F92030 		ldrsh	r3, [r7, #32]
 2648 0240 9342     		cmp	r3, r2
 2649 0242 A8BF     		it	ge
 2650 0244 1346     		movge	r3, r2
 2651 0246 1BB2     		sxth	r3, r3
 2652 0248 01E0     		b	.L172
 2653              	.L171:
 659:..\..\..\lvgl\version_6.1.2\lvgl\src\lv_objx/lv_cont.c ****         default: break;
 2654              		.loc 3 659 0 discriminator 2
 2655 024a B7F91030 		ldrsh	r3, [r7, #16]
 2656              	.L172:
 659:..\..\..\lvgl\version_6.1.2\lvgl\src\lv_objx/lv_cont.c ****         default: break;
 2657              		.loc 3 659 0 discriminator 4
 2658 024e 3B81     		strh	r3, [r7, #8]	@ movhi
 2659 0250 00BF     		nop
 2660              	.L170:
 661:..\..\..\lvgl\version_6.1.2\lvgl\src\lv_objx/lv_cont.c ****     }
 662:..\..\..\lvgl\version_6.1.2\lvgl\src\lv_objx/lv_cont.c **** 
 663:..\..\..\lvgl\version_6.1.2\lvgl\src\lv_objx/lv_cont.c ****     switch(ext->fit_right) {
 2661              		.loc 3 663 0 is_stmt 1
 2662 0252 BB6B     		ldr	r3, [r7, #56]
 2663 0254 1B78     		ldrb	r3, [r3]
 2664 0256 C3F38113 		ubfx	r3, r3, #6, #2
 2665 025a DBB2     		uxtb	r3, r3
 2666 025c 022B     		cmp	r3, #2
 2667 025e 08D0     		beq	.L174
 2668 0260 032B     		cmp	r3, #3
 2669 0262 0AD0     		beq	.L175
 2670 0264 012B     		cmp	r3, #1
 2671 0266 00D0     		beq	.L176
 664:..\..\..\lvgl\version_6.1.2\lvgl\src\lv_objx/lv_cont.c ****         case LV_FIT_TIGHT: new_area.x2 = tight_area.x2; break;
 665:..\..\..\lvgl\version_6.1.2\lvgl\src\lv_objx/lv_cont.c ****         case LV_FIT_FLOOD: new_area.x2 = flood_area.x2; break;
 666:..\..\..\lvgl\version_6.1.2\lvgl\src\lv_objx/lv_cont.c ****         case LV_FIT_FILL: new_area.x2 = has_children ? LV_MATH_MAX(tight_area.x2, flood_area.x2) : 
 667:..\..\..\lvgl\version_6.1.2\lvgl\src\lv_objx/lv_cont.c ****         default: break;
 2672              		.loc 3 667 0
 2673 0268 18E0     		b	.L177
 2674              	.L176:
 664:..\..\..\lvgl\version_6.1.2\lvgl\src\lv_objx/lv_cont.c ****         case LV_FIT_TIGHT: new_area.x2 = tight_area.x2; break;
 2675              		.loc 3 664 0
 2676 026a B7F92430 		ldrsh	r3, [r7, #36]
 2677 026e BB81     		strh	r3, [r7, #12]	@ movhi
 2678 0270 14E0     		b	.L177
 2679              	.L174:
 665:..\..\..\lvgl\version_6.1.2\lvgl\src\lv_objx/lv_cont.c ****         case LV_FIT_FILL: new_area.x2 = has_children ? LV_MATH_MAX(tight_area.x2, flood_area.x2) : 
 2680              		.loc 3 665 0
 2681 0272 B7F91430 		ldrsh	r3, [r7, #20]
 2682 0276 BB81     		strh	r3, [r7, #12]	@ movhi
 2683 0278 10E0     		b	.L177
 2684              	.L175:
 666:..\..\..\lvgl\version_6.1.2\lvgl\src\lv_objx/lv_cont.c ****         default: break;
 2685              		.loc 3 666 0
 2686 027a 97F82B30 		ldrb	r3, [r7, #43]	@ zero_extendqisi2
 2687 027e 002B     		cmp	r3, #0
 2688 0280 08D0     		beq	.L178
 666:..\..\..\lvgl\version_6.1.2\lvgl\src\lv_objx/lv_cont.c ****         default: break;
 2689              		.loc 3 666 0 is_stmt 0 discriminator 1
 2690 0282 B7F91420 		ldrsh	r2, [r7, #20]
ARM GAS  C:\Users\tmj32\AppData\Local\Temp\ccnLJfS3.s 			page 65


 2691 0286 B7F92430 		ldrsh	r3, [r7, #36]
 2692 028a 9342     		cmp	r3, r2
 2693 028c B8BF     		it	lt
 2694 028e 1346     		movlt	r3, r2
 2695 0290 1BB2     		sxth	r3, r3
 2696 0292 01E0     		b	.L179
 2697              	.L178:
 666:..\..\..\lvgl\version_6.1.2\lvgl\src\lv_objx/lv_cont.c ****         default: break;
 2698              		.loc 3 666 0 discriminator 2
 2699 0294 B7F91430 		ldrsh	r3, [r7, #20]
 2700              	.L179:
 666:..\..\..\lvgl\version_6.1.2\lvgl\src\lv_objx/lv_cont.c ****         default: break;
 2701              		.loc 3 666 0 discriminator 4
 2702 0298 BB81     		strh	r3, [r7, #12]	@ movhi
 2703 029a 00BF     		nop
 2704              	.L177:
 668:..\..\..\lvgl\version_6.1.2\lvgl\src\lv_objx/lv_cont.c ****     }
 669:..\..\..\lvgl\version_6.1.2\lvgl\src\lv_objx/lv_cont.c **** 
 670:..\..\..\lvgl\version_6.1.2\lvgl\src\lv_objx/lv_cont.c ****     switch(ext->fit_top) {
 2705              		.loc 3 670 0 is_stmt 1
 2706 029c BB6B     		ldr	r3, [r7, #56]
 2707 029e 5B78     		ldrb	r3, [r3, #1]
 2708 02a0 C3F30103 		ubfx	r3, r3, #0, #2
 2709 02a4 DBB2     		uxtb	r3, r3
 2710 02a6 022B     		cmp	r3, #2
 2711 02a8 08D0     		beq	.L181
 2712 02aa 032B     		cmp	r3, #3
 2713 02ac 0AD0     		beq	.L182
 2714 02ae 012B     		cmp	r3, #1
 2715 02b0 00D0     		beq	.L183
 671:..\..\..\lvgl\version_6.1.2\lvgl\src\lv_objx/lv_cont.c ****         case LV_FIT_TIGHT: new_area.y1 = tight_area.y1; break;
 672:..\..\..\lvgl\version_6.1.2\lvgl\src\lv_objx/lv_cont.c ****         case LV_FIT_FLOOD: new_area.y1 = flood_area.y1; break;
 673:..\..\..\lvgl\version_6.1.2\lvgl\src\lv_objx/lv_cont.c ****         case LV_FIT_FILL: new_area.y1 = has_children ? LV_MATH_MIN(tight_area.y1, flood_area.y1) : 
 674:..\..\..\lvgl\version_6.1.2\lvgl\src\lv_objx/lv_cont.c ****         default: break;
 2716              		.loc 3 674 0
 2717 02b2 18E0     		b	.L184
 2718              	.L183:
 671:..\..\..\lvgl\version_6.1.2\lvgl\src\lv_objx/lv_cont.c ****         case LV_FIT_TIGHT: new_area.y1 = tight_area.y1; break;
 2719              		.loc 3 671 0
 2720 02b4 B7F92230 		ldrsh	r3, [r7, #34]
 2721 02b8 7B81     		strh	r3, [r7, #10]	@ movhi
 2722 02ba 14E0     		b	.L184
 2723              	.L181:
 672:..\..\..\lvgl\version_6.1.2\lvgl\src\lv_objx/lv_cont.c ****         case LV_FIT_FILL: new_area.y1 = has_children ? LV_MATH_MIN(tight_area.y1, flood_area.y1) : 
 2724              		.loc 3 672 0
 2725 02bc B7F91230 		ldrsh	r3, [r7, #18]
 2726 02c0 7B81     		strh	r3, [r7, #10]	@ movhi
 2727 02c2 10E0     		b	.L184
 2728              	.L182:
 673:..\..\..\lvgl\version_6.1.2\lvgl\src\lv_objx/lv_cont.c ****         default: break;
 2729              		.loc 3 673 0
 2730 02c4 97F82B30 		ldrb	r3, [r7, #43]	@ zero_extendqisi2
 2731 02c8 002B     		cmp	r3, #0
 2732 02ca 08D0     		beq	.L185
 673:..\..\..\lvgl\version_6.1.2\lvgl\src\lv_objx/lv_cont.c ****         default: break;
 2733              		.loc 3 673 0 is_stmt 0 discriminator 1
 2734 02cc B7F91220 		ldrsh	r2, [r7, #18]
ARM GAS  C:\Users\tmj32\AppData\Local\Temp\ccnLJfS3.s 			page 66


 2735 02d0 B7F92230 		ldrsh	r3, [r7, #34]
 2736 02d4 9342     		cmp	r3, r2
 2737 02d6 A8BF     		it	ge
 2738 02d8 1346     		movge	r3, r2
 2739 02da 1BB2     		sxth	r3, r3
 2740 02dc 01E0     		b	.L186
 2741              	.L185:
 673:..\..\..\lvgl\version_6.1.2\lvgl\src\lv_objx/lv_cont.c ****         default: break;
 2742              		.loc 3 673 0 discriminator 2
 2743 02de B7F91230 		ldrsh	r3, [r7, #18]
 2744              	.L186:
 673:..\..\..\lvgl\version_6.1.2\lvgl\src\lv_objx/lv_cont.c ****         default: break;
 2745              		.loc 3 673 0 discriminator 4
 2746 02e2 7B81     		strh	r3, [r7, #10]	@ movhi
 2747 02e4 00BF     		nop
 2748              	.L184:
 675:..\..\..\lvgl\version_6.1.2\lvgl\src\lv_objx/lv_cont.c ****     }
 676:..\..\..\lvgl\version_6.1.2\lvgl\src\lv_objx/lv_cont.c **** 
 677:..\..\..\lvgl\version_6.1.2\lvgl\src\lv_objx/lv_cont.c ****     switch(ext->fit_bottom) {
 2749              		.loc 3 677 0 is_stmt 1
 2750 02e6 BB6B     		ldr	r3, [r7, #56]
 2751 02e8 5B78     		ldrb	r3, [r3, #1]
 2752 02ea C3F38103 		ubfx	r3, r3, #2, #2
 2753 02ee DBB2     		uxtb	r3, r3
 2754 02f0 022B     		cmp	r3, #2
 2755 02f2 08D0     		beq	.L188
 2756 02f4 032B     		cmp	r3, #3
 2757 02f6 0AD0     		beq	.L189
 2758 02f8 012B     		cmp	r3, #1
 2759 02fa 00D0     		beq	.L190
 678:..\..\..\lvgl\version_6.1.2\lvgl\src\lv_objx/lv_cont.c ****         case LV_FIT_TIGHT: new_area.y2 = tight_area.y2; break;
 679:..\..\..\lvgl\version_6.1.2\lvgl\src\lv_objx/lv_cont.c ****         case LV_FIT_FLOOD: new_area.y2 = flood_area.y2; break;
 680:..\..\..\lvgl\version_6.1.2\lvgl\src\lv_objx/lv_cont.c ****         case LV_FIT_FILL: new_area.y2 = has_children ? LV_MATH_MAX(tight_area.y2, flood_area.y2) : 
 681:..\..\..\lvgl\version_6.1.2\lvgl\src\lv_objx/lv_cont.c ****         default: break;
 2760              		.loc 3 681 0
 2761 02fc 18E0     		b	.L191
 2762              	.L190:
 678:..\..\..\lvgl\version_6.1.2\lvgl\src\lv_objx/lv_cont.c ****         case LV_FIT_TIGHT: new_area.y2 = tight_area.y2; break;
 2763              		.loc 3 678 0
 2764 02fe B7F92630 		ldrsh	r3, [r7, #38]
 2765 0302 FB81     		strh	r3, [r7, #14]	@ movhi
 2766 0304 14E0     		b	.L191
 2767              	.L188:
 679:..\..\..\lvgl\version_6.1.2\lvgl\src\lv_objx/lv_cont.c ****         case LV_FIT_FILL: new_area.y2 = has_children ? LV_MATH_MAX(tight_area.y2, flood_area.y2) : 
 2768              		.loc 3 679 0
 2769 0306 B7F91630 		ldrsh	r3, [r7, #22]
 2770 030a FB81     		strh	r3, [r7, #14]	@ movhi
 2771 030c 10E0     		b	.L191
 2772              	.L189:
 680:..\..\..\lvgl\version_6.1.2\lvgl\src\lv_objx/lv_cont.c ****         default: break;
 2773              		.loc 3 680 0
 2774 030e 97F82B30 		ldrb	r3, [r7, #43]	@ zero_extendqisi2
 2775 0312 002B     		cmp	r3, #0
 2776 0314 08D0     		beq	.L192
 680:..\..\..\lvgl\version_6.1.2\lvgl\src\lv_objx/lv_cont.c ****         default: break;
 2777              		.loc 3 680 0 is_stmt 0 discriminator 1
 2778 0316 B7F91620 		ldrsh	r2, [r7, #22]
ARM GAS  C:\Users\tmj32\AppData\Local\Temp\ccnLJfS3.s 			page 67


 2779 031a B7F92630 		ldrsh	r3, [r7, #38]
 2780 031e 9342     		cmp	r3, r2
 2781 0320 B8BF     		it	lt
 2782 0322 1346     		movlt	r3, r2
 2783 0324 1BB2     		sxth	r3, r3
 2784 0326 01E0     		b	.L193
 2785              	.L192:
 680:..\..\..\lvgl\version_6.1.2\lvgl\src\lv_objx/lv_cont.c ****         default: break;
 2786              		.loc 3 680 0 discriminator 2
 2787 0328 B7F91630 		ldrsh	r3, [r7, #22]
 2788              	.L193:
 680:..\..\..\lvgl\version_6.1.2\lvgl\src\lv_objx/lv_cont.c ****         default: break;
 2789              		.loc 3 680 0 discriminator 4
 2790 032c FB81     		strh	r3, [r7, #14]	@ movhi
 2791 032e 00BF     		nop
 2792              	.L191:
 682:..\..\..\lvgl\version_6.1.2\lvgl\src\lv_objx/lv_cont.c ****     }
 683:..\..\..\lvgl\version_6.1.2\lvgl\src\lv_objx/lv_cont.c **** 
 684:..\..\..\lvgl\version_6.1.2\lvgl\src\lv_objx/lv_cont.c ****     /*Do nothing if the coordinates are not changed*/
 685:..\..\..\lvgl\version_6.1.2\lvgl\src\lv_objx/lv_cont.c ****     if(cont->coords.x1 != new_area.x1 || cont->coords.y1 != new_area.y1 || cont->coords.x2 != new_a
 2793              		.loc 3 685 0 is_stmt 1
 2794 0330 7B68     		ldr	r3, [r7, #4]
 2795 0332 B3F91020 		ldrsh	r2, [r3, #16]
 2796 0336 B7F90830 		ldrsh	r3, [r7, #8]
 2797 033a 9A42     		cmp	r2, r3
 2798 033c 14D1     		bne	.L194
 2799              		.loc 3 685 0 is_stmt 0 discriminator 1
 2800 033e 7B68     		ldr	r3, [r7, #4]
 2801 0340 B3F91220 		ldrsh	r2, [r3, #18]
 2802 0344 B7F90A30 		ldrsh	r3, [r7, #10]
 2803 0348 9A42     		cmp	r2, r3
 2804 034a 0DD1     		bne	.L194
 2805              		.loc 3 685 0 discriminator 2
 2806 034c 7B68     		ldr	r3, [r7, #4]
 2807 034e B3F91420 		ldrsh	r2, [r3, #20]
 2808 0352 B7F90C30 		ldrsh	r3, [r7, #12]
 2809 0356 9A42     		cmp	r2, r3
 2810 0358 06D1     		bne	.L194
 686:..\..\..\lvgl\version_6.1.2\lvgl\src\lv_objx/lv_cont.c ****        cont->coords.y2 != new_area.y2) {
 2811              		.loc 3 686 0 is_stmt 1 discriminator 3
 2812 035a 7B68     		ldr	r3, [r7, #4]
 2813 035c B3F91620 		ldrsh	r2, [r3, #22]
 2814 0360 B7F90E30 		ldrsh	r3, [r7, #14]
 685:..\..\..\lvgl\version_6.1.2\lvgl\src\lv_objx/lv_cont.c ****        cont->coords.y2 != new_area.y2) {
 2815              		.loc 3 685 0 discriminator 3
 2816 0364 9A42     		cmp	r2, r3
 2817 0366 3CD0     		beq	.L156
 2818              	.L194:
 687:..\..\..\lvgl\version_6.1.2\lvgl\src\lv_objx/lv_cont.c **** 
 688:..\..\..\lvgl\version_6.1.2\lvgl\src\lv_objx/lv_cont.c ****         lv_obj_invalidate(cont);
 2819              		.loc 3 688 0
 2820 0368 7868     		ldr	r0, [r7, #4]
 2821 036a FFF7FEFF 		bl	lv_obj_invalidate
 689:..\..\..\lvgl\version_6.1.2\lvgl\src\lv_objx/lv_cont.c ****         lv_area_copy(&cont->coords, &new_area);
 2822              		.loc 3 689 0
 2823 036e 7B68     		ldr	r3, [r7, #4]
 2824 0370 1033     		adds	r3, r3, #16
ARM GAS  C:\Users\tmj32\AppData\Local\Temp\ccnLJfS3.s 			page 68


 2825 0372 07F10802 		add	r2, r7, #8
 2826 0376 1146     		mov	r1, r2
 2827 0378 1846     		mov	r0, r3
 2828 037a FFF7FEFF 		bl	lv_area_copy
 690:..\..\..\lvgl\version_6.1.2\lvgl\src\lv_objx/lv_cont.c ****         lv_obj_invalidate(cont);
 2829              		.loc 3 690 0
 2830 037e 7868     		ldr	r0, [r7, #4]
 2831 0380 FFF7FEFF 		bl	lv_obj_invalidate
 691:..\..\..\lvgl\version_6.1.2\lvgl\src\lv_objx/lv_cont.c **** 
 692:..\..\..\lvgl\version_6.1.2\lvgl\src\lv_objx/lv_cont.c ****         /*Notify the object about its new coordinates*/
 693:..\..\..\lvgl\version_6.1.2\lvgl\src\lv_objx/lv_cont.c ****         cont->signal_cb(cont, LV_SIGNAL_CORD_CHG, &ori);
 2832              		.loc 3 693 0
 2833 0384 7B68     		ldr	r3, [r7, #4]
 2834 0386 DB69     		ldr	r3, [r3, #28]
 2835 0388 07F11802 		add	r2, r7, #24
 2836 038c 0221     		movs	r1, #2
 2837 038e 7868     		ldr	r0, [r7, #4]
 2838 0390 9847     		blx	r3
 694:..\..\..\lvgl\version_6.1.2\lvgl\src\lv_objx/lv_cont.c **** 
 695:..\..\..\lvgl\version_6.1.2\lvgl\src\lv_objx/lv_cont.c ****         /*Inform the parent about the new coordinates*/
 696:..\..\..\lvgl\version_6.1.2\lvgl\src\lv_objx/lv_cont.c ****         par->signal_cb(par, LV_SIGNAL_CHILD_CHG, cont);
 2839              		.loc 3 696 0
 2840 0392 3B6B     		ldr	r3, [r7, #48]
 2841 0394 DB69     		ldr	r3, [r3, #28]
 2842 0396 7A68     		ldr	r2, [r7, #4]
 2843 0398 0121     		movs	r1, #1
 2844 039a 386B     		ldr	r0, [r7, #48]
 2845 039c 9847     		blx	r3
 697:..\..\..\lvgl\version_6.1.2\lvgl\src\lv_objx/lv_cont.c **** 
 698:..\..\..\lvgl\version_6.1.2\lvgl\src\lv_objx/lv_cont.c ****         if(lv_obj_get_auto_realign(cont)) {
 2846              		.loc 3 698 0
 2847 039e 7868     		ldr	r0, [r7, #4]
 2848 03a0 FFF7FEFF 		bl	lv_obj_get_auto_realign
 2849 03a4 0346     		mov	r3, r0
 2850 03a6 002B     		cmp	r3, #0
 2851 03a8 02D0     		beq	.L196
 699:..\..\..\lvgl\version_6.1.2\lvgl\src\lv_objx/lv_cont.c ****             lv_obj_realign(cont);
 2852              		.loc 3 699 0
 2853 03aa 7868     		ldr	r0, [r7, #4]
 2854 03ac FFF7FEFF 		bl	lv_obj_realign
 2855              	.L196:
 700:..\..\..\lvgl\version_6.1.2\lvgl\src\lv_objx/lv_cont.c ****         }
 701:..\..\..\lvgl\version_6.1.2\lvgl\src\lv_objx/lv_cont.c **** 
 702:..\..\..\lvgl\version_6.1.2\lvgl\src\lv_objx/lv_cont.c ****         /*Tell the children the parent's size has changed*/
 703:..\..\..\lvgl\version_6.1.2\lvgl\src\lv_objx/lv_cont.c ****         LV_LL_READ(cont->child_ll, child_i)
 2856              		.loc 3 703 0
 2857 03b0 7B68     		ldr	r3, [r7, #4]
 2858 03b2 0433     		adds	r3, r3, #4
 2859 03b4 1846     		mov	r0, r3
 2860 03b6 FFF7FEFF 		bl	lv_ll_get_head
 2861 03ba F863     		str	r0, [r7, #60]
 2862 03bc 0CE0     		b	.L197
 2863              	.L198:
 704:..\..\..\lvgl\version_6.1.2\lvgl\src\lv_objx/lv_cont.c ****         {
 705:..\..\..\lvgl\version_6.1.2\lvgl\src\lv_objx/lv_cont.c ****             child_i->signal_cb(child_i, LV_SIGNAL_PARENT_SIZE_CHG, NULL);
 2864              		.loc 3 705 0 discriminator 3
 2865 03be FB6B     		ldr	r3, [r7, #60]
ARM GAS  C:\Users\tmj32\AppData\Local\Temp\ccnLJfS3.s 			page 69


 2866 03c0 DB69     		ldr	r3, [r3, #28]
 2867 03c2 0022     		movs	r2, #0
 2868 03c4 0321     		movs	r1, #3
 2869 03c6 F86B     		ldr	r0, [r7, #60]
 2870 03c8 9847     		blx	r3
 703:..\..\..\lvgl\version_6.1.2\lvgl\src\lv_objx/lv_cont.c ****         {
 2871              		.loc 3 703 0 discriminator 3
 2872 03ca 7B68     		ldr	r3, [r7, #4]
 2873 03cc 0433     		adds	r3, r3, #4
 2874 03ce F96B     		ldr	r1, [r7, #60]
 2875 03d0 1846     		mov	r0, r3
 2876 03d2 FFF7FEFF 		bl	lv_ll_get_next
 2877 03d6 F863     		str	r0, [r7, #60]
 2878              	.L197:
 703:..\..\..\lvgl\version_6.1.2\lvgl\src\lv_objx/lv_cont.c ****         {
 2879              		.loc 3 703 0 is_stmt 0 discriminator 1
 2880 03d8 FB6B     		ldr	r3, [r7, #60]
 2881 03da 002B     		cmp	r3, #0
 2882 03dc EFD1     		bne	.L198
 2883 03de 00E0     		b	.L156
 2884              	.L199:
 609:..\..\..\lvgl\version_6.1.2\lvgl\src\lv_objx/lv_cont.c ****     }
 2885              		.loc 3 609 0 is_stmt 1
 2886 03e0 00BF     		nop
 2887              	.L156:
 706:..\..\..\lvgl\version_6.1.2\lvgl\src\lv_objx/lv_cont.c ****         }
 707:..\..\..\lvgl\version_6.1.2\lvgl\src\lv_objx/lv_cont.c ****     }
 708:..\..\..\lvgl\version_6.1.2\lvgl\src\lv_objx/lv_cont.c **** }
 2888              		.loc 3 708 0
 2889 03e2 4037     		adds	r7, r7, #64
 2890              		.cfi_def_cfa_offset 8
 2891 03e4 BD46     		mov	sp, r7
 2892              		.cfi_def_cfa_register 13
 2893              		@ sp needed
 2894 03e6 80BD     		pop	{r7, pc}
 2895              		.cfi_endproc
 2896              	.LFE50:
 2897              		.size	lv_cont_refr_autofit, .-lv_cont_refr_autofit
 2898              		.text
 2899              	.Letext0:
 2900              		.file 4 "c:\\program files (x86)\\cypress\\psoc creator\\4.3\\psoc creator\\import\\gnu\\arm\\5.4.
 2901              		.file 5 "c:\\program files (x86)\\cypress\\psoc creator\\4.3\\psoc creator\\import\\gnu\\arm\\5.4.
 2902              		.file 6 "..\\..\\..\\lvgl\\version_6.1.2\\lvgl\\src\\lv_objx\\../../../lv_conf.h"
 2903              		.file 7 "..\\..\\..\\lvgl\\version_6.1.2\\lvgl\\src\\lv_objx\\../lv_core/../lv_font/lv_font.h"
 2904              		.file 8 "..\\..\\..\\lvgl\\version_6.1.2\\lvgl\\src\\lv_objx\\../lv_core/../lv_misc/lv_color.h"
 2905              		.file 9 "..\\..\\..\\lvgl\\version_6.1.2\\lvgl\\src\\lv_objx\\../lv_core/lv_style.h"
 2906              		.file 10 "..\\..\\..\\lvgl\\version_6.1.2\\lvgl\\src\\lv_objx\\../lv_core/../lv_misc/lv_types.h"
 2907              		.file 11 "..\\..\\..\\lvgl\\version_6.1.2\\lvgl\\src\\lv_objx\\../lv_core/../lv_misc/lv_ll.h"
 2908              		.file 12 "..\\..\\..\\lvgl\\version_6.1.2\\lvgl\\src\\lv_objx\\../lv_core/../lv_misc/lv_bidi.h"
 2909              		.file 13 "..\\..\\..\\lvgl\\version_6.1.2\\lvgl\\src\\lv_objx\\../lv_core/lv_obj.h"
 2910              		.file 14 "..\\..\\..\\lvgl\\version_6.1.2\\lvgl\\src\\lv_objx\\../lv_themes/lv_theme.h"
 2911              		.section	.debug_info,"",%progbits
 2912              	.Ldebug_info0:
 2913 0000 2C1A0000 		.4byte	0x1a2c
 2914 0004 0400     		.2byte	0x4
 2915 0006 00000000 		.4byte	.Ldebug_abbrev0
 2916 000a 04       		.byte	0x4
ARM GAS  C:\Users\tmj32\AppData\Local\Temp\ccnLJfS3.s 			page 70


 2917 000b 01       		.uleb128 0x1
 2918 000c 1A0B0000 		.4byte	.LASF304
 2919 0010 0C       		.byte	0xc
 2920 0011 C6030000 		.4byte	.LASF305
 2921 0015 96060000 		.4byte	.LASF306
 2922 0019 18000000 		.4byte	.Ldebug_ranges0+0x18
 2923 001d 00000000 		.4byte	0
 2924 0021 00000000 		.4byte	.Ldebug_line0
 2925 0025 02       		.uleb128 0x2
 2926 0026 310A0000 		.4byte	.LASF0
 2927 002a 04       		.byte	0x4
 2928 002b 1B       		.byte	0x1b
 2929 002c 30000000 		.4byte	0x30
 2930 0030 03       		.uleb128 0x3
 2931 0031 01       		.byte	0x1
 2932 0032 06       		.byte	0x6
 2933 0033 B8020000 		.4byte	.LASF2
 2934 0037 02       		.uleb128 0x2
 2935 0038 F0010000 		.4byte	.LASF1
 2936 003c 04       		.byte	0x4
 2937 003d 1D       		.byte	0x1d
 2938 003e 42000000 		.4byte	0x42
 2939 0042 03       		.uleb128 0x3
 2940 0043 01       		.byte	0x1
 2941 0044 08       		.byte	0x8
 2942 0045 19030000 		.4byte	.LASF3
 2943 0049 02       		.uleb128 0x2
 2944 004a DA0B0000 		.4byte	.LASF4
 2945 004e 04       		.byte	0x4
 2946 004f 29       		.byte	0x29
 2947 0050 54000000 		.4byte	0x54
 2948 0054 03       		.uleb128 0x3
 2949 0055 02       		.byte	0x2
 2950 0056 05       		.byte	0x5
 2951 0057 2E0D0000 		.4byte	.LASF5
 2952 005b 02       		.uleb128 0x2
 2953 005c 07040000 		.4byte	.LASF6
 2954 0060 04       		.byte	0x4
 2955 0061 2B       		.byte	0x2b
 2956 0062 66000000 		.4byte	0x66
 2957 0066 03       		.uleb128 0x3
 2958 0067 02       		.byte	0x2
 2959 0068 07       		.byte	0x7
 2960 0069 C60E0000 		.4byte	.LASF7
 2961 006d 03       		.uleb128 0x3
 2962 006e 04       		.byte	0x4
 2963 006f 05       		.byte	0x5
 2964 0070 07020000 		.4byte	.LASF8
 2965 0074 02       		.uleb128 0x2
 2966 0075 66060000 		.4byte	.LASF9
 2967 0079 04       		.byte	0x4
 2968 007a 41       		.byte	0x41
 2969 007b 7F000000 		.4byte	0x7f
 2970 007f 03       		.uleb128 0x3
 2971 0080 04       		.byte	0x4
 2972 0081 07       		.byte	0x7
 2973 0082 EE050000 		.4byte	.LASF10
ARM GAS  C:\Users\tmj32\AppData\Local\Temp\ccnLJfS3.s 			page 71


 2974 0086 03       		.uleb128 0x3
 2975 0087 08       		.byte	0x8
 2976 0088 05       		.byte	0x5
 2977 0089 88060000 		.4byte	.LASF11
 2978 008d 03       		.uleb128 0x3
 2979 008e 08       		.byte	0x8
 2980 008f 07       		.byte	0x7
 2981 0090 460A0000 		.4byte	.LASF12
 2982 0094 04       		.uleb128 0x4
 2983 0095 04       		.byte	0x4
 2984 0096 05       		.byte	0x5
 2985 0097 696E7400 		.ascii	"int\000"
 2986 009b 03       		.uleb128 0x3
 2987 009c 04       		.byte	0x4
 2988 009d 07       		.byte	0x7
 2989 009e 19080000 		.4byte	.LASF13
 2990 00a2 02       		.uleb128 0x2
 2991 00a3 00000000 		.4byte	.LASF14
 2992 00a7 05       		.byte	0x5
 2993 00a8 14       		.byte	0x14
 2994 00a9 25000000 		.4byte	0x25
 2995 00ad 02       		.uleb128 0x2
 2996 00ae C4020000 		.4byte	.LASF15
 2997 00b2 05       		.byte	0x5
 2998 00b3 18       		.byte	0x18
 2999 00b4 37000000 		.4byte	0x37
 3000 00b8 02       		.uleb128 0x2
 3001 00b9 610D0000 		.4byte	.LASF16
 3002 00bd 05       		.byte	0x5
 3003 00be 20       		.byte	0x20
 3004 00bf 49000000 		.4byte	0x49
 3005 00c3 02       		.uleb128 0x2
 3006 00c4 940A0000 		.4byte	.LASF17
 3007 00c8 05       		.byte	0x5
 3008 00c9 24       		.byte	0x24
 3009 00ca 5B000000 		.4byte	0x5b
 3010 00ce 02       		.uleb128 0x2
 3011 00cf 610E0000 		.4byte	.LASF18
 3012 00d3 05       		.byte	0x5
 3013 00d4 30       		.byte	0x30
 3014 00d5 74000000 		.4byte	0x74
 3015 00d9 02       		.uleb128 0x2
 3016 00da D90E0000 		.4byte	.LASF19
 3017 00de 06       		.byte	0x6
 3018 00df 3C       		.byte	0x3c
 3019 00e0 B8000000 		.4byte	0xb8
 3020 00e4 05       		.uleb128 0x5
 3021 00e5 04       		.byte	0x4
 3022 00e6 03       		.uleb128 0x3
 3023 00e7 08       		.byte	0x8
 3024 00e8 04       		.byte	0x4
 3025 00e9 37090000 		.4byte	.LASF20
 3026 00ed 06       		.uleb128 0x6
 3027 00ee 08       		.byte	0x8
 3028 00ef 07       		.byte	0x7
 3029 00f0 2E       		.byte	0x2e
 3030 00f1 3E010000 		.4byte	0x13e
ARM GAS  C:\Users\tmj32\AppData\Local\Temp\ccnLJfS3.s 			page 72


 3031 00f5 07       		.uleb128 0x7
 3032 00f6 14000000 		.4byte	.LASF21
 3033 00fa 07       		.byte	0x7
 3034 00fb 30       		.byte	0x30
 3035 00fc C3000000 		.4byte	0xc3
 3036 0100 00       		.byte	0
 3037 0101 07       		.uleb128 0x7
 3038 0102 280D0000 		.4byte	.LASF22
 3039 0106 07       		.byte	0x7
 3040 0107 31       		.byte	0x31
 3041 0108 AD000000 		.4byte	0xad
 3042 010c 02       		.byte	0x2
 3043 010d 07       		.uleb128 0x7
 3044 010e 090D0000 		.4byte	.LASF23
 3045 0112 07       		.byte	0x7
 3046 0113 32       		.byte	0x32
 3047 0114 AD000000 		.4byte	0xad
 3048 0118 03       		.byte	0x3
 3049 0119 07       		.uleb128 0x7
 3050 011a 6F030000 		.4byte	.LASF24
 3051 011e 07       		.byte	0x7
 3052 011f 33       		.byte	0x33
 3053 0120 A2000000 		.4byte	0xa2
 3054 0124 04       		.byte	0x4
 3055 0125 07       		.uleb128 0x7
 3056 0126 75030000 		.4byte	.LASF25
 3057 012a 07       		.byte	0x7
 3058 012b 34       		.byte	0x34
 3059 012c A2000000 		.4byte	0xa2
 3060 0130 05       		.byte	0x5
 3061 0131 08       		.uleb128 0x8
 3062 0132 62707000 		.ascii	"bpp\000"
 3063 0136 07       		.byte	0x7
 3064 0137 35       		.byte	0x35
 3065 0138 AD000000 		.4byte	0xad
 3066 013c 06       		.byte	0x6
 3067 013d 00       		.byte	0
 3068 013e 02       		.uleb128 0x2
 3069 013f 91080000 		.4byte	.LASF26
 3070 0143 07       		.byte	0x7
 3071 0144 36       		.byte	0x36
 3072 0145 ED000000 		.4byte	0xed
 3073 0149 09       		.uleb128 0x9
 3074 014a 910F0000 		.4byte	.LASF87
 3075 014e 10       		.byte	0x10
 3076 014f 07       		.byte	0x7
 3077 0150 44       		.byte	0x44
 3078 0151 A1010000 		.4byte	0x1a1
 3079 0155 07       		.uleb128 0x7
 3080 0156 150F0000 		.4byte	.LASF27
 3081 015a 07       		.byte	0x7
 3082 015b 47       		.byte	0x47
 3083 015c D7010000 		.4byte	0x1d7
 3084 0160 00       		.byte	0
 3085 0161 07       		.uleb128 0x7
 3086 0162 E5020000 		.4byte	.LASF28
 3087 0166 07       		.byte	0x7
ARM GAS  C:\Users\tmj32\AppData\Local\Temp\ccnLJfS3.s 			page 73


 3088 0167 4A       		.byte	0x4a
 3089 0168 FC010000 		.4byte	0x1fc
 3090 016c 04       		.byte	0x4
 3091 016d 07       		.uleb128 0x7
 3092 016e B9000000 		.4byte	.LASF29
 3093 0172 07       		.byte	0x7
 3094 0173 4D       		.byte	0x4d
 3095 0174 AD000000 		.4byte	0xad
 3096 0178 08       		.byte	0x8
 3097 0179 07       		.uleb128 0x7
 3098 017a 380D0000 		.4byte	.LASF30
 3099 017e 07       		.byte	0x7
 3100 017f 4E       		.byte	0x4e
 3101 0180 A2000000 		.4byte	0xa2
 3102 0184 09       		.byte	0x9
 3103 0185 0A       		.uleb128 0xa
 3104 0186 97090000 		.4byte	.LASF64
 3105 018a 07       		.byte	0x7
 3106 018b 4F       		.byte	0x4f
 3107 018c AD000000 		.4byte	0xad
 3108 0190 01       		.byte	0x1
 3109 0191 02       		.byte	0x2
 3110 0192 06       		.byte	0x6
 3111 0193 0A       		.byte	0xa
 3112 0194 08       		.uleb128 0x8
 3113 0195 64736300 		.ascii	"dsc\000"
 3114 0199 07       		.byte	0x7
 3115 019a 50       		.byte	0x50
 3116 019b E4000000 		.4byte	0xe4
 3117 019f 0C       		.byte	0xc
 3118 01a0 00       		.byte	0
 3119 01a1 0B       		.uleb128 0xb
 3120 01a2 BF010000 		.4byte	0x1bf
 3121 01a6 BF010000 		.4byte	0x1bf
 3122 01aa 0C       		.uleb128 0xc
 3123 01ab C6010000 		.4byte	0x1c6
 3124 01af 0C       		.uleb128 0xc
 3125 01b0 D1010000 		.4byte	0x1d1
 3126 01b4 0C       		.uleb128 0xc
 3127 01b5 CE000000 		.4byte	0xce
 3128 01b9 0C       		.uleb128 0xc
 3129 01ba CE000000 		.4byte	0xce
 3130 01be 00       		.byte	0
 3131 01bf 03       		.uleb128 0x3
 3132 01c0 01       		.byte	0x1
 3133 01c1 02       		.byte	0x2
 3134 01c2 82030000 		.4byte	.LASF31
 3135 01c6 0D       		.uleb128 0xd
 3136 01c7 04       		.byte	0x4
 3137 01c8 CC010000 		.4byte	0x1cc
 3138 01cc 0E       		.uleb128 0xe
 3139 01cd 49010000 		.4byte	0x149
 3140 01d1 0D       		.uleb128 0xd
 3141 01d2 04       		.byte	0x4
 3142 01d3 3E010000 		.4byte	0x13e
 3143 01d7 0D       		.uleb128 0xd
 3144 01d8 04       		.byte	0x4
ARM GAS  C:\Users\tmj32\AppData\Local\Temp\ccnLJfS3.s 			page 74


 3145 01d9 A1010000 		.4byte	0x1a1
 3146 01dd 0B       		.uleb128 0xb
 3147 01de F1010000 		.4byte	0x1f1
 3148 01e2 F1010000 		.4byte	0x1f1
 3149 01e6 0C       		.uleb128 0xc
 3150 01e7 C6010000 		.4byte	0x1c6
 3151 01eb 0C       		.uleb128 0xc
 3152 01ec CE000000 		.4byte	0xce
 3153 01f0 00       		.byte	0
 3154 01f1 0D       		.uleb128 0xd
 3155 01f2 04       		.byte	0x4
 3156 01f3 F7010000 		.4byte	0x1f7
 3157 01f7 0E       		.uleb128 0xe
 3158 01f8 AD000000 		.4byte	0xad
 3159 01fc 0D       		.uleb128 0xd
 3160 01fd 04       		.byte	0x4
 3161 01fe DD010000 		.4byte	0x1dd
 3162 0202 02       		.uleb128 0x2
 3163 0203 9E0E0000 		.4byte	.LASF32
 3164 0207 07       		.byte	0x7
 3165 0208 56       		.byte	0x56
 3166 0209 49010000 		.4byte	0x149
 3167 020d 06       		.uleb128 0x6
 3168 020e 04       		.byte	0x4
 3169 020f 08       		.byte	0x8
 3170 0210 F3       		.byte	0xf3
 3171 0211 46020000 		.4byte	0x246
 3172 0215 07       		.uleb128 0x7
 3173 0216 FB020000 		.4byte	.LASF33
 3174 021a 08       		.byte	0x8
 3175 021b F5       		.byte	0xf5
 3176 021c AD000000 		.4byte	0xad
 3177 0220 00       		.byte	0
 3178 0221 07       		.uleb128 0x7
 3179 0222 980E0000 		.4byte	.LASF34
 3180 0226 08       		.byte	0x8
 3181 0227 F6       		.byte	0xf6
 3182 0228 AD000000 		.4byte	0xad
 3183 022c 01       		.byte	0x1
 3184 022d 08       		.uleb128 0x8
 3185 022e 72656400 		.ascii	"red\000"
 3186 0232 08       		.byte	0x8
 3187 0233 F7       		.byte	0xf7
 3188 0234 AD000000 		.4byte	0xad
 3189 0238 02       		.byte	0x2
 3190 0239 07       		.uleb128 0x7
 3191 023a FA010000 		.4byte	.LASF35
 3192 023e 08       		.byte	0x8
 3193 023f F8       		.byte	0xf8
 3194 0240 AD000000 		.4byte	0xad
 3195 0244 03       		.byte	0x3
 3196 0245 00       		.byte	0
 3197 0246 0F       		.uleb128 0xf
 3198 0247 04       		.byte	0x4
 3199 0248 08       		.byte	0x8
 3200 0249 F1       		.byte	0xf1
 3201 024a 64020000 		.4byte	0x264
ARM GAS  C:\Users\tmj32\AppData\Local\Temp\ccnLJfS3.s 			page 75


 3202 024e 10       		.uleb128 0x10
 3203 024f 636800   		.ascii	"ch\000"
 3204 0252 08       		.byte	0x8
 3205 0253 F9       		.byte	0xf9
 3206 0254 0D020000 		.4byte	0x20d
 3207 0258 11       		.uleb128 0x11
 3208 0259 000C0000 		.4byte	.LASF36
 3209 025d 08       		.byte	0x8
 3210 025e FA       		.byte	0xfa
 3211 025f CE000000 		.4byte	0xce
 3212 0263 00       		.byte	0
 3213 0264 02       		.uleb128 0x2
 3214 0265 2D000000 		.4byte	.LASF37
 3215 0269 08       		.byte	0x8
 3216 026a FB       		.byte	0xfb
 3217 026b 46020000 		.4byte	0x246
 3218 026f 12       		.uleb128 0x12
 3219 0270 B00A0000 		.4byte	.LASF38
 3220 0274 08       		.byte	0x8
 3221 0275 0801     		.2byte	0x108
 3222 0277 64020000 		.4byte	0x264
 3223 027b 12       		.uleb128 0x12
 3224 027c 78000000 		.4byte	.LASF39
 3225 0280 08       		.byte	0x8
 3226 0281 0D01     		.2byte	0x10d
 3227 0283 AD000000 		.4byte	0xad
 3228 0287 03       		.uleb128 0x3
 3229 0288 04       		.byte	0x4
 3230 0289 07       		.byte	0x7
 3231 028a 24000000 		.4byte	.LASF40
 3232 028e 03       		.uleb128 0x3
 3233 028f 01       		.byte	0x1
 3234 0290 08       		.byte	0x8
 3235 0291 A5030000 		.4byte	.LASF41
 3236 0295 06       		.uleb128 0x6
 3237 0296 08       		.byte	0x8
 3238 0297 01       		.byte	0x1
 3239 0298 31       		.byte	0x31
 3240 0299 CA020000 		.4byte	0x2ca
 3241 029d 08       		.uleb128 0x8
 3242 029e 783100   		.ascii	"x1\000"
 3243 02a1 01       		.byte	0x1
 3244 02a2 33       		.byte	0x33
 3245 02a3 D9000000 		.4byte	0xd9
 3246 02a7 00       		.byte	0
 3247 02a8 08       		.uleb128 0x8
 3248 02a9 793100   		.ascii	"y1\000"
 3249 02ac 01       		.byte	0x1
 3250 02ad 34       		.byte	0x34
 3251 02ae D9000000 		.4byte	0xd9
 3252 02b2 02       		.byte	0x2
 3253 02b3 08       		.uleb128 0x8
 3254 02b4 783200   		.ascii	"x2\000"
 3255 02b7 01       		.byte	0x1
 3256 02b8 35       		.byte	0x35
 3257 02b9 D9000000 		.4byte	0xd9
 3258 02bd 04       		.byte	0x4
ARM GAS  C:\Users\tmj32\AppData\Local\Temp\ccnLJfS3.s 			page 76


 3259 02be 08       		.uleb128 0x8
 3260 02bf 793200   		.ascii	"y2\000"
 3261 02c2 01       		.byte	0x1
 3262 02c3 36       		.byte	0x36
 3263 02c4 D9000000 		.4byte	0xd9
 3264 02c8 06       		.byte	0x6
 3265 02c9 00       		.byte	0
 3266 02ca 02       		.uleb128 0x2
 3267 02cb DC040000 		.4byte	.LASF42
 3268 02cf 01       		.byte	0x1
 3269 02d0 37       		.byte	0x37
 3270 02d1 95020000 		.4byte	0x295
 3271 02d5 02       		.uleb128 0x2
 3272 02d6 2A0F0000 		.4byte	.LASF43
 3273 02da 09       		.byte	0x9
 3274 02db 2C       		.byte	0x2c
 3275 02dc AD000000 		.4byte	0xad
 3276 02e0 02       		.uleb128 0x2
 3277 02e1 5F0C0000 		.4byte	.LASF44
 3278 02e5 09       		.byte	0x9
 3279 02e6 33       		.byte	0x33
 3280 02e7 AD000000 		.4byte	0xad
 3281 02eb 06       		.uleb128 0x6
 3282 02ec 08       		.byte	0x8
 3283 02ed 09       		.byte	0x9
 3284 02ee 48       		.byte	0x48
 3285 02ef 24030000 		.4byte	0x324
 3286 02f3 07       		.uleb128 0x7
 3287 02f4 1B0C0000 		.4byte	.LASF45
 3288 02f8 09       		.byte	0x9
 3289 02f9 4A       		.byte	0x4a
 3290 02fa 6F020000 		.4byte	0x26f
 3291 02fe 00       		.byte	0
 3292 02ff 07       		.uleb128 0x7
 3293 0300 4C070000 		.4byte	.LASF46
 3294 0304 09       		.byte	0x9
 3295 0305 4B       		.byte	0x4b
 3296 0306 D9000000 		.4byte	0xd9
 3297 030a 04       		.byte	0x4
 3298 030b 07       		.uleb128 0x7
 3299 030c A10F0000 		.4byte	.LASF47
 3300 0310 09       		.byte	0x9
 3301 0311 4C       		.byte	0x4c
 3302 0312 D5020000 		.4byte	0x2d5
 3303 0316 06       		.byte	0x6
 3304 0317 08       		.uleb128 0x8
 3305 0318 6F706100 		.ascii	"opa\000"
 3306 031c 09       		.byte	0x9
 3307 031d 4D       		.byte	0x4d
 3308 031e 7B020000 		.4byte	0x27b
 3309 0322 07       		.byte	0x7
 3310 0323 00       		.byte	0
 3311 0324 06       		.uleb128 0x6
 3312 0325 08       		.byte	0x8
 3313 0326 09       		.byte	0x9
 3314 0327 51       		.byte	0x51
 3315 0328 51030000 		.4byte	0x351
ARM GAS  C:\Users\tmj32\AppData\Local\Temp\ccnLJfS3.s 			page 77


 3316 032c 07       		.uleb128 0x7
 3317 032d 1B0C0000 		.4byte	.LASF45
 3318 0331 09       		.byte	0x9
 3319 0332 53       		.byte	0x53
 3320 0333 6F020000 		.4byte	0x26f
 3321 0337 00       		.byte	0
 3322 0338 07       		.uleb128 0x7
 3323 0339 4C070000 		.4byte	.LASF46
 3324 033d 09       		.byte	0x9
 3325 033e 54       		.byte	0x54
 3326 033f D9000000 		.4byte	0xd9
 3327 0343 04       		.byte	0x4
 3328 0344 07       		.uleb128 0x7
 3329 0345 81010000 		.4byte	.LASF48
 3330 0349 09       		.byte	0x9
 3331 034a 55       		.byte	0x55
 3332 034b E0020000 		.4byte	0x2e0
 3333 034f 06       		.byte	0x6
 3334 0350 00       		.byte	0
 3335 0351 06       		.uleb128 0x6
 3336 0352 0A       		.byte	0xa
 3337 0353 09       		.byte	0x9
 3338 0354 58       		.byte	0x58
 3339 0355 96030000 		.4byte	0x396
 3340 0359 08       		.uleb128 0x8
 3341 035a 746F7000 		.ascii	"top\000"
 3342 035e 09       		.byte	0x9
 3343 035f 5A       		.byte	0x5a
 3344 0360 D9000000 		.4byte	0xd9
 3345 0364 00       		.byte	0
 3346 0365 07       		.uleb128 0x7
 3347 0366 89070000 		.4byte	.LASF49
 3348 036a 09       		.byte	0x9
 3349 036b 5B       		.byte	0x5b
 3350 036c D9000000 		.4byte	0xd9
 3351 0370 02       		.byte	0x2
 3352 0371 07       		.uleb128 0x7
 3353 0372 23050000 		.4byte	.LASF50
 3354 0376 09       		.byte	0x9
 3355 0377 5C       		.byte	0x5c
 3356 0378 D9000000 		.4byte	0xd9
 3357 037c 04       		.byte	0x4
 3358 037d 07       		.uleb128 0x7
 3359 037e 7A060000 		.4byte	.LASF51
 3360 0382 09       		.byte	0x9
 3361 0383 5D       		.byte	0x5d
 3362 0384 D9000000 		.4byte	0xd9
 3363 0388 06       		.byte	0x6
 3364 0389 07       		.uleb128 0x7
 3365 038a BA050000 		.4byte	.LASF52
 3366 038e 09       		.byte	0x9
 3367 038f 5E       		.byte	0x5e
 3368 0390 D9000000 		.4byte	0xd9
 3369 0394 08       		.byte	0x8
 3370 0395 00       		.byte	0
 3371 0396 06       		.uleb128 0x6
 3372 0397 28       		.byte	0x28
ARM GAS  C:\Users\tmj32\AppData\Local\Temp\ccnLJfS3.s 			page 78


 3373 0398 09       		.byte	0x9
 3374 0399 41       		.byte	0x41
 3375 039a F3030000 		.4byte	0x3f3
 3376 039e 07       		.uleb128 0x7
 3377 039f 120A0000 		.4byte	.LASF53
 3378 03a3 09       		.byte	0x9
 3379 03a4 43       		.byte	0x43
 3380 03a5 6F020000 		.4byte	0x26f
 3381 03a9 00       		.byte	0
 3382 03aa 07       		.uleb128 0x7
 3383 03ab BD080000 		.4byte	.LASF54
 3384 03af 09       		.byte	0x9
 3385 03b0 44       		.byte	0x44
 3386 03b1 6F020000 		.4byte	0x26f
 3387 03b5 04       		.byte	0x4
 3388 03b6 07       		.uleb128 0x7
 3389 03b7 A5000000 		.4byte	.LASF55
 3390 03bb 09       		.byte	0x9
 3391 03bc 45       		.byte	0x45
 3392 03bd D9000000 		.4byte	0xd9
 3393 03c1 08       		.byte	0x8
 3394 03c2 08       		.uleb128 0x8
 3395 03c3 6F706100 		.ascii	"opa\000"
 3396 03c7 09       		.byte	0x9
 3397 03c8 46       		.byte	0x46
 3398 03c9 7B020000 		.4byte	0x27b
 3399 03cd 0A       		.byte	0xa
 3400 03ce 07       		.uleb128 0x7
 3401 03cf 080F0000 		.4byte	.LASF56
 3402 03d3 09       		.byte	0x9
 3403 03d4 4E       		.byte	0x4e
 3404 03d5 EB020000 		.4byte	0x2eb
 3405 03d9 0C       		.byte	0xc
 3406 03da 07       		.uleb128 0x7
 3407 03db A20D0000 		.4byte	.LASF57
 3408 03df 09       		.byte	0x9
 3409 03e0 56       		.byte	0x56
 3410 03e1 24030000 		.4byte	0x324
 3411 03e5 14       		.byte	0x14
 3412 03e6 07       		.uleb128 0x7
 3413 03e7 2C0E0000 		.4byte	.LASF58
 3414 03eb 09       		.byte	0x9
 3415 03ec 5F       		.byte	0x5f
 3416 03ed 51030000 		.4byte	0x351
 3417 03f1 1C       		.byte	0x1c
 3418 03f2 00       		.byte	0
 3419 03f3 06       		.uleb128 0x6
 3420 03f4 14       		.byte	0x14
 3421 03f5 09       		.byte	0x9
 3422 03f6 63       		.byte	0x63
 3423 03f7 44040000 		.4byte	0x444
 3424 03fb 07       		.uleb128 0x7
 3425 03fc 1B0C0000 		.4byte	.LASF45
 3426 0400 09       		.byte	0x9
 3427 0401 65       		.byte	0x65
 3428 0402 6F020000 		.4byte	0x26f
 3429 0406 00       		.byte	0
ARM GAS  C:\Users\tmj32\AppData\Local\Temp\ccnLJfS3.s 			page 79


 3430 0407 07       		.uleb128 0x7
 3431 0408 7D0F0000 		.4byte	.LASF59
 3432 040c 09       		.byte	0x9
 3433 040d 66       		.byte	0x66
 3434 040e 6F020000 		.4byte	0x26f
 3435 0412 04       		.byte	0x4
 3436 0413 07       		.uleb128 0x7
 3437 0414 B00C0000 		.4byte	.LASF60
 3438 0418 09       		.byte	0x9
 3439 0419 67       		.byte	0x67
 3440 041a 44040000 		.4byte	0x444
 3441 041e 08       		.byte	0x8
 3442 041f 07       		.uleb128 0x7
 3443 0420 B50C0000 		.4byte	.LASF61
 3444 0424 09       		.byte	0x9
 3445 0425 68       		.byte	0x68
 3446 0426 D9000000 		.4byte	0xd9
 3447 042a 0C       		.byte	0xc
 3448 042b 07       		.uleb128 0x7
 3449 042c 210C0000 		.4byte	.LASF62
 3450 0430 09       		.byte	0x9
 3451 0431 69       		.byte	0x69
 3452 0432 D9000000 		.4byte	0xd9
 3453 0436 0E       		.byte	0xe
 3454 0437 08       		.uleb128 0x8
 3455 0438 6F706100 		.ascii	"opa\000"
 3456 043c 09       		.byte	0x9
 3457 043d 6A       		.byte	0x6a
 3458 043e 7B020000 		.4byte	0x27b
 3459 0442 10       		.byte	0x10
 3460 0443 00       		.byte	0
 3461 0444 0D       		.uleb128 0xd
 3462 0445 04       		.byte	0x4
 3463 0446 4A040000 		.4byte	0x44a
 3464 044a 0E       		.uleb128 0xe
 3465 044b 02020000 		.4byte	0x202
 3466 044f 06       		.uleb128 0x6
 3467 0450 08       		.byte	0x8
 3468 0451 09       		.byte	0x9
 3469 0452 6E       		.byte	0x6e
 3470 0453 7C040000 		.4byte	0x47c
 3471 0457 07       		.uleb128 0x7
 3472 0458 1B0C0000 		.4byte	.LASF45
 3473 045c 09       		.byte	0x9
 3474 045d 70       		.byte	0x70
 3475 045e 6F020000 		.4byte	0x26f
 3476 0462 00       		.byte	0
 3477 0463 07       		.uleb128 0x7
 3478 0464 81000000 		.4byte	.LASF63
 3479 0468 09       		.byte	0x9
 3480 0469 71       		.byte	0x71
 3481 046a 7B020000 		.4byte	0x27b
 3482 046e 04       		.byte	0x4
 3483 046f 08       		.uleb128 0x8
 3484 0470 6F706100 		.ascii	"opa\000"
 3485 0474 09       		.byte	0x9
 3486 0475 72       		.byte	0x72
ARM GAS  C:\Users\tmj32\AppData\Local\Temp\ccnLJfS3.s 			page 80


 3487 0476 7B020000 		.4byte	0x27b
 3488 047a 05       		.byte	0x5
 3489 047b 00       		.byte	0
 3490 047c 06       		.uleb128 0x6
 3491 047d 08       		.byte	0x8
 3492 047e 09       		.byte	0x9
 3493 047f 76       		.byte	0x76
 3494 0480 B8040000 		.4byte	0x4b8
 3495 0484 07       		.uleb128 0x7
 3496 0485 1B0C0000 		.4byte	.LASF45
 3497 0489 09       		.byte	0x9
 3498 048a 78       		.byte	0x78
 3499 048b 6F020000 		.4byte	0x26f
 3500 048f 00       		.byte	0
 3501 0490 07       		.uleb128 0x7
 3502 0491 4C070000 		.4byte	.LASF46
 3503 0495 09       		.byte	0x9
 3504 0496 79       		.byte	0x79
 3505 0497 D9000000 		.4byte	0xd9
 3506 049b 04       		.byte	0x4
 3507 049c 08       		.uleb128 0x8
 3508 049d 6F706100 		.ascii	"opa\000"
 3509 04a1 09       		.byte	0x9
 3510 04a2 7A       		.byte	0x7a
 3511 04a3 7B020000 		.4byte	0x27b
 3512 04a7 06       		.byte	0x6
 3513 04a8 0A       		.uleb128 0xa
 3514 04a9 A0040000 		.4byte	.LASF65
 3515 04ad 09       		.byte	0x9
 3516 04ae 7B       		.byte	0x7b
 3517 04af AD000000 		.4byte	0xad
 3518 04b3 01       		.byte	0x1
 3519 04b4 01       		.byte	0x1
 3520 04b5 07       		.byte	0x7
 3521 04b6 07       		.byte	0x7
 3522 04b7 00       		.byte	0
 3523 04b8 06       		.uleb128 0x6
 3524 04b9 50       		.byte	0x50
 3525 04ba 09       		.byte	0x9
 3526 04bb 3C       		.byte	0x3c
 3527 04bc 00050000 		.4byte	0x500
 3528 04c0 0A       		.uleb128 0xa
 3529 04c1 05080000 		.4byte	.LASF66
 3530 04c5 09       		.byte	0x9
 3531 04c6 3E       		.byte	0x3e
 3532 04c7 AD000000 		.4byte	0xad
 3533 04cb 01       		.byte	0x1
 3534 04cc 01       		.byte	0x1
 3535 04cd 07       		.byte	0x7
 3536 04ce 00       		.byte	0
 3537 04cf 07       		.uleb128 0x7
 3538 04d0 FD030000 		.4byte	.LASF67
 3539 04d4 09       		.byte	0x9
 3540 04d5 60       		.byte	0x60
 3541 04d6 96030000 		.4byte	0x396
 3542 04da 04       		.byte	0x4
 3543 04db 07       		.uleb128 0x7
ARM GAS  C:\Users\tmj32\AppData\Local\Temp\ccnLJfS3.s 			page 81


 3544 04dc 84040000 		.4byte	.LASF68
 3545 04e0 09       		.byte	0x9
 3546 04e1 6B       		.byte	0x6b
 3547 04e2 F3030000 		.4byte	0x3f3
 3548 04e6 2C       		.byte	0x2c
 3549 04e7 07       		.uleb128 0x7
 3550 04e8 9A040000 		.4byte	.LASF69
 3551 04ec 09       		.byte	0x9
 3552 04ed 73       		.byte	0x73
 3553 04ee 4F040000 		.4byte	0x44f
 3554 04f2 40       		.byte	0x40
 3555 04f3 07       		.uleb128 0x7
 3556 04f4 19060000 		.4byte	.LASF70
 3557 04f8 09       		.byte	0x9
 3558 04f9 7C       		.byte	0x7c
 3559 04fa 7C040000 		.4byte	0x47c
 3560 04fe 48       		.byte	0x48
 3561 04ff 00       		.byte	0
 3562 0500 02       		.uleb128 0x2
 3563 0501 AF050000 		.4byte	.LASF71
 3564 0505 09       		.byte	0x9
 3565 0506 84       		.byte	0x84
 3566 0507 B8040000 		.4byte	0x4b8
 3567 050b 0D       		.uleb128 0xd
 3568 050c 04       		.byte	0x4
 3569 050d 00050000 		.4byte	0x500
 3570 0511 13       		.uleb128 0x13
 3571 0512 01       		.byte	0x1
 3572 0513 42000000 		.4byte	0x42
 3573 0517 0A       		.byte	0xa
 3574 0518 27       		.byte	0x27
 3575 0519 2A050000 		.4byte	0x52a
 3576 051d 14       		.uleb128 0x14
 3577 051e 4D010000 		.4byte	.LASF72
 3578 0522 00       		.byte	0
 3579 0523 14       		.uleb128 0x14
 3580 0524 9D0A0000 		.4byte	.LASF73
 3581 0528 01       		.byte	0x1
 3582 0529 00       		.byte	0
 3583 052a 02       		.uleb128 0x2
 3584 052b 14090000 		.4byte	.LASF74
 3585 052f 0A       		.byte	0xa
 3586 0530 2C       		.byte	0x2c
 3587 0531 AD000000 		.4byte	0xad
 3588 0535 02       		.uleb128 0x2
 3589 0536 07000000 		.4byte	.LASF75
 3590 053a 0B       		.byte	0xb
 3591 053b 1E       		.byte	0x1e
 3592 053c AD000000 		.4byte	0xad
 3593 0540 06       		.uleb128 0x6
 3594 0541 0C       		.byte	0xc
 3595 0542 0B       		.byte	0xb
 3596 0543 21       		.byte	0x21
 3597 0544 6D050000 		.4byte	0x56d
 3598 0548 07       		.uleb128 0x7
 3599 0549 A60F0000 		.4byte	.LASF76
 3600 054d 0B       		.byte	0xb
ARM GAS  C:\Users\tmj32\AppData\Local\Temp\ccnLJfS3.s 			page 82


 3601 054e 23       		.byte	0x23
 3602 054f CE000000 		.4byte	0xce
 3603 0553 00       		.byte	0
 3604 0554 07       		.uleb128 0x7
 3605 0555 78020000 		.4byte	.LASF77
 3606 0559 0B       		.byte	0xb
 3607 055a 24       		.byte	0x24
 3608 055b 6D050000 		.4byte	0x56d
 3609 055f 04       		.byte	0x4
 3610 0560 07       		.uleb128 0x7
 3611 0561 50000000 		.4byte	.LASF78
 3612 0565 0B       		.byte	0xb
 3613 0566 25       		.byte	0x25
 3614 0567 6D050000 		.4byte	0x56d
 3615 056b 08       		.byte	0x8
 3616 056c 00       		.byte	0
 3617 056d 0D       		.uleb128 0xd
 3618 056e 04       		.byte	0x4
 3619 056f 35050000 		.4byte	0x535
 3620 0573 02       		.uleb128 0x2
 3621 0574 420D0000 		.4byte	.LASF79
 3622 0578 0B       		.byte	0xb
 3623 0579 26       		.byte	0x26
 3624 057a 40050000 		.4byte	0x540
 3625 057e 13       		.uleb128 0x13
 3626 057f 01       		.byte	0x1
 3627 0580 42000000 		.4byte	0x42
 3628 0584 0C       		.byte	0xc
 3629 0585 25       		.byte	0x25
 3630 0586 AF050000 		.4byte	0x5af
 3631 058a 14       		.uleb128 0x14
 3632 058b CB000000 		.4byte	.LASF80
 3633 058f 00       		.byte	0
 3634 0590 14       		.uleb128 0x14
 3635 0591 140E0000 		.4byte	.LASF81
 3636 0595 01       		.byte	0x1
 3637 0596 14       		.uleb128 0x14
 3638 0597 EF0B0000 		.4byte	.LASF82
 3639 059b 02       		.byte	0x2
 3640 059c 14       		.uleb128 0x14
 3641 059d 0F050000 		.4byte	.LASF83
 3642 05a1 03       		.byte	0x3
 3643 05a2 14       		.uleb128 0x14
 3644 05a3 F20A0000 		.4byte	.LASF84
 3645 05a7 20       		.byte	0x20
 3646 05a8 14       		.uleb128 0x14
 3647 05a9 3F000000 		.4byte	.LASF85
 3648 05ad 21       		.byte	0x21
 3649 05ae 00       		.byte	0
 3650 05af 02       		.uleb128 0x2
 3651 05b0 C1040000 		.4byte	.LASF86
 3652 05b4 0C       		.byte	0xc
 3653 05b5 30       		.byte	0x30
 3654 05b6 AD000000 		.4byte	0xad
 3655 05ba 0D       		.uleb128 0xd
 3656 05bb 04       		.byte	0x4
 3657 05bc C0050000 		.4byte	0x5c0
ARM GAS  C:\Users\tmj32\AppData\Local\Temp\ccnLJfS3.s 			page 83


 3658 05c0 0E       		.uleb128 0xe
 3659 05c1 CA020000 		.4byte	0x2ca
 3660 05c5 0D       		.uleb128 0xd
 3661 05c6 04       		.byte	0x4
 3662 05c7 CA020000 		.4byte	0x2ca
 3663 05cb 09       		.uleb128 0x9
 3664 05cc 910C0000 		.4byte	.LASF88
 3665 05d0 40       		.byte	0x40
 3666 05d1 0D       		.byte	0xd
 3667 05d2 BB       		.byte	0xbb
 3668 05d3 0D070000 		.4byte	0x70d
 3669 05d7 08       		.uleb128 0x8
 3670 05d8 70617200 		.ascii	"par\000"
 3671 05dc 0D       		.byte	0xd
 3672 05dd BD       		.byte	0xbd
 3673 05de 0D070000 		.4byte	0x70d
 3674 05e2 00       		.byte	0
 3675 05e3 07       		.uleb128 0x7
 3676 05e4 90070000 		.4byte	.LASF89
 3677 05e8 0D       		.byte	0xd
 3678 05e9 BE       		.byte	0xbe
 3679 05ea 73050000 		.4byte	0x573
 3680 05ee 04       		.byte	0x4
 3681 05ef 07       		.uleb128 0x7
 3682 05f0 7C0D0000 		.4byte	.LASF90
 3683 05f4 0D       		.byte	0xd
 3684 05f5 C0       		.byte	0xc0
 3685 05f6 CA020000 		.4byte	0x2ca
 3686 05fa 10       		.byte	0x10
 3687 05fb 07       		.uleb128 0x7
 3688 05fc 71060000 		.4byte	.LASF91
 3689 0600 0D       		.byte	0xd
 3690 0601 C2       		.byte	0xc2
 3691 0602 53070000 		.4byte	0x753
 3692 0606 18       		.byte	0x18
 3693 0607 07       		.uleb128 0x7
 3694 0608 570E0000 		.4byte	.LASF92
 3695 060c 0D       		.byte	0xd
 3696 060d C3       		.byte	0xc3
 3697 060e 04080000 		.4byte	0x804
 3698 0612 1C       		.byte	0x1c
 3699 0613 07       		.uleb128 0x7
 3700 0614 61040000 		.4byte	.LASF93
 3701 0618 0D       		.byte	0xd
 3702 0619 C4       		.byte	0xc4
 3703 061a 1E070000 		.4byte	0x71e
 3704 061e 20       		.byte	0x20
 3705 061f 07       		.uleb128 0x7
 3706 0620 57090000 		.4byte	.LASF94
 3707 0624 0D       		.byte	0xd
 3708 0625 C6       		.byte	0xc6
 3709 0626 E4000000 		.4byte	0xe4
 3710 062a 24       		.byte	0x24
 3711 062b 07       		.uleb128 0x7
 3712 062c 80060000 		.4byte	.LASF95
 3713 0630 0D       		.byte	0xd
 3714 0631 C7       		.byte	0xc7
ARM GAS  C:\Users\tmj32\AppData\Local\Temp\ccnLJfS3.s 			page 84


 3715 0632 3C090000 		.4byte	0x93c
 3716 0636 28       		.byte	0x28
 3717 0637 0A       		.uleb128 0xa
 3718 0638 C5000000 		.4byte	.LASF96
 3719 063c 0D       		.byte	0xd
 3720 063d D7       		.byte	0xd7
 3721 063e AD000000 		.4byte	0xad
 3722 0642 01       		.byte	0x1
 3723 0643 01       		.byte	0x1
 3724 0644 07       		.byte	0x7
 3725 0645 2C       		.byte	0x2c
 3726 0646 0A       		.uleb128 0xa
 3727 0647 700C0000 		.4byte	.LASF97
 3728 064b 0D       		.byte	0xd
 3729 064c D8       		.byte	0xd8
 3730 064d AD000000 		.4byte	0xad
 3731 0651 01       		.byte	0x1
 3732 0652 01       		.byte	0x1
 3733 0653 06       		.byte	0x6
 3734 0654 2C       		.byte	0x2c
 3735 0655 0A       		.uleb128 0xa
 3736 0656 A8040000 		.4byte	.LASF98
 3737 065a 0D       		.byte	0xd
 3738 065b D9       		.byte	0xd9
 3739 065c AD000000 		.4byte	0xad
 3740 0660 01       		.byte	0x1
 3741 0661 01       		.byte	0x1
 3742 0662 05       		.byte	0x5
 3743 0663 2C       		.byte	0x2c
 3744 0664 0A       		.uleb128 0xa
 3745 0665 DC0D0000 		.4byte	.LASF99
 3746 0669 0D       		.byte	0xd
 3747 066a DA       		.byte	0xda
 3748 066b AD000000 		.4byte	0xad
 3749 066f 01       		.byte	0x1
 3750 0670 01       		.byte	0x1
 3751 0671 04       		.byte	0x4
 3752 0672 2C       		.byte	0x2c
 3753 0673 0A       		.uleb128 0xa
 3754 0674 00020000 		.4byte	.LASF100
 3755 0678 0D       		.byte	0xd
 3756 0679 DB       		.byte	0xdb
 3757 067a AD000000 		.4byte	0xad
 3758 067e 01       		.byte	0x1
 3759 067f 01       		.byte	0x1
 3760 0680 03       		.byte	0x3
 3761 0681 2C       		.byte	0x2c
 3762 0682 15       		.uleb128 0x15
 3763 0683 746F7000 		.ascii	"top\000"
 3764 0687 0D       		.byte	0xd
 3765 0688 DC       		.byte	0xdc
 3766 0689 AD000000 		.4byte	0xad
 3767 068d 01       		.byte	0x1
 3768 068e 01       		.byte	0x1
 3769 068f 02       		.byte	0x2
 3770 0690 2C       		.byte	0x2c
 3771 0691 0A       		.uleb128 0xa
ARM GAS  C:\Users\tmj32\AppData\Local\Temp\ccnLJfS3.s 			page 85


 3772 0692 8B0D0000 		.4byte	.LASF101
 3773 0696 0D       		.byte	0xd
 3774 0697 DD       		.byte	0xdd
 3775 0698 AD000000 		.4byte	0xad
 3776 069c 01       		.byte	0x1
 3777 069d 01       		.byte	0x1
 3778 069e 01       		.byte	0x1
 3779 069f 2C       		.byte	0x2c
 3780 06a0 0A       		.uleb128 0xa
 3781 06a1 C8070000 		.4byte	.LASF102
 3782 06a5 0D       		.byte	0xd
 3783 06a6 DE       		.byte	0xde
 3784 06a7 AD000000 		.4byte	0xad
 3785 06ab 01       		.byte	0x1
 3786 06ac 01       		.byte	0x1
 3787 06ad 00       		.byte	0
 3788 06ae 2C       		.byte	0x2c
 3789 06af 0A       		.uleb128 0xa
 3790 06b0 4C030000 		.4byte	.LASF103
 3791 06b4 0D       		.byte	0xd
 3792 06b5 DF       		.byte	0xdf
 3793 06b6 31090000 		.4byte	0x931
 3794 06ba 01       		.byte	0x1
 3795 06bb 02       		.byte	0x2
 3796 06bc 06       		.byte	0x6
 3797 06bd 2D       		.byte	0x2d
 3798 06be 0A       		.uleb128 0xa
 3799 06bf D50C0000 		.4byte	.LASF104
 3800 06c3 0D       		.byte	0xd
 3801 06c4 E0       		.byte	0xe0
 3802 06c5 AF050000 		.4byte	0x5af
 3803 06c9 01       		.byte	0x1
 3804 06ca 02       		.byte	0x2
 3805 06cb 04       		.byte	0x4
 3806 06cc 2D       		.byte	0x2d
 3807 06cd 0A       		.uleb128 0xa
 3808 06ce A80E0000 		.4byte	.LASF105
 3809 06d2 0D       		.byte	0xd
 3810 06d3 E1       		.byte	0xe1
 3811 06d4 AD000000 		.4byte	0xad
 3812 06d8 01       		.byte	0x1
 3813 06d9 03       		.byte	0x3
 3814 06da 01       		.byte	0x1
 3815 06db 2D       		.byte	0x2d
 3816 06dc 07       		.uleb128 0x7
 3817 06dd 9F070000 		.4byte	.LASF106
 3818 06e1 0D       		.byte	0xd
 3819 06e2 E2       		.byte	0xe2
 3820 06e3 AD000000 		.4byte	0xad
 3821 06e7 2E       		.byte	0x2e
 3822 06e8 07       		.uleb128 0x7
 3823 06e9 C30F0000 		.4byte	.LASF107
 3824 06ed 0D       		.byte	0xd
 3825 06ee E4       		.byte	0xe4
 3826 06ef 7B020000 		.4byte	0x27b
 3827 06f3 2F       		.byte	0x2f
 3828 06f4 07       		.uleb128 0x7
ARM GAS  C:\Users\tmj32\AppData\Local\Temp\ccnLJfS3.s 			page 86


 3829 06f5 CF040000 		.4byte	.LASF108
 3830 06f9 0D       		.byte	0xd
 3831 06fa E6       		.byte	0xe6
 3832 06fb D9000000 		.4byte	0xd9
 3833 06ff 30       		.byte	0x30
 3834 0700 07       		.uleb128 0x7
 3835 0701 33050000 		.4byte	.LASF109
 3836 0705 0D       		.byte	0xd
 3837 0706 E9       		.byte	0xe9
 3838 0707 26090000 		.4byte	0x926
 3839 070b 34       		.byte	0x34
 3840 070c 00       		.byte	0
 3841 070d 0D       		.uleb128 0xd
 3842 070e 04       		.byte	0x4
 3843 070f CB050000 		.4byte	0x5cb
 3844 0713 02       		.uleb128 0x2
 3845 0714 86090000 		.4byte	.LASF110
 3846 0718 0D       		.byte	0xd
 3847 0719 42       		.byte	0x42
 3848 071a AD000000 		.4byte	0xad
 3849 071e 02       		.uleb128 0x2
 3850 071f B40F0000 		.4byte	.LASF111
 3851 0723 0D       		.byte	0xd
 3852 0724 48       		.byte	0x48
 3853 0725 29070000 		.4byte	0x729
 3854 0729 0D       		.uleb128 0xd
 3855 072a 04       		.byte	0x4
 3856 072b 2F070000 		.4byte	0x72f
 3857 072f 0B       		.uleb128 0xb
 3858 0730 BF010000 		.4byte	0x1bf
 3859 0734 48070000 		.4byte	0x748
 3860 0738 0C       		.uleb128 0xc
 3861 0739 0D070000 		.4byte	0x70d
 3862 073d 0C       		.uleb128 0xc
 3863 073e BA050000 		.4byte	0x5ba
 3864 0742 0C       		.uleb128 0xc
 3865 0743 13070000 		.4byte	0x713
 3866 0747 00       		.byte	0
 3867 0748 02       		.uleb128 0x2
 3868 0749 17010000 		.4byte	.LASF112
 3869 074d 0D       		.byte	0xd
 3870 074e 61       		.byte	0x61
 3871 074f AD000000 		.4byte	0xad
 3872 0753 02       		.uleb128 0x2
 3873 0754 3B0F0000 		.4byte	.LASF113
 3874 0758 0D       		.byte	0xd
 3875 0759 68       		.byte	0x68
 3876 075a 5E070000 		.4byte	0x75e
 3877 075e 0D       		.uleb128 0xd
 3878 075f 04       		.byte	0x4
 3879 0760 64070000 		.4byte	0x764
 3880 0764 16       		.uleb128 0x16
 3881 0765 74070000 		.4byte	0x774
 3882 0769 0C       		.uleb128 0xc
 3883 076a 0D070000 		.4byte	0x70d
 3884 076e 0C       		.uleb128 0xc
 3885 076f 48070000 		.4byte	0x748
ARM GAS  C:\Users\tmj32\AppData\Local\Temp\ccnLJfS3.s 			page 87


 3886 0773 00       		.byte	0
 3887 0774 13       		.uleb128 0x13
 3888 0775 01       		.byte	0x1
 3889 0776 42000000 		.4byte	0x42
 3890 077a 0D       		.byte	0xd
 3891 077b 6D       		.byte	0x6d
 3892 077c F9070000 		.4byte	0x7f9
 3893 0780 14       		.uleb128 0x14
 3894 0781 D5070000 		.4byte	.LASF114
 3895 0785 00       		.byte	0
 3896 0786 14       		.uleb128 0x14
 3897 0787 26080000 		.4byte	.LASF115
 3898 078b 01       		.byte	0x1
 3899 078c 14       		.uleb128 0x14
 3900 078d 690D0000 		.4byte	.LASF116
 3901 0791 02       		.byte	0x2
 3902 0792 14       		.uleb128 0x14
 3903 0793 DB090000 		.4byte	.LASF117
 3904 0797 03       		.byte	0x3
 3905 0798 14       		.uleb128 0x14
 3906 0799 64000000 		.4byte	.LASF118
 3907 079d 04       		.byte	0x4
 3908 079e 14       		.uleb128 0x14
 3909 079f E80D0000 		.4byte	.LASF119
 3910 07a3 05       		.byte	0x5
 3911 07a4 14       		.uleb128 0x14
 3912 07a5 30030000 		.4byte	.LASF120
 3913 07a9 06       		.byte	0x6
 3914 07aa 14       		.uleb128 0x14
 3915 07ab 87050000 		.4byte	.LASF121
 3916 07af 07       		.byte	0x7
 3917 07b0 14       		.uleb128 0x14
 3918 07b1 6F010000 		.4byte	.LASF122
 3919 07b5 08       		.byte	0x8
 3920 07b6 14       		.uleb128 0x14
 3921 07b7 F7080000 		.4byte	.LASF123
 3922 07bb 09       		.byte	0x9
 3923 07bc 14       		.uleb128 0x14
 3924 07bd B3090000 		.4byte	.LASF124
 3925 07c1 0A       		.byte	0xa
 3926 07c2 14       		.uleb128 0x14
 3927 07c3 FF090000 		.4byte	.LASF125
 3928 07c7 0B       		.byte	0xb
 3929 07c8 14       		.uleb128 0x14
 3930 07c9 90000000 		.4byte	.LASF126
 3931 07cd 0C       		.byte	0xc
 3932 07ce 14       		.uleb128 0x14
 3933 07cf 00030000 		.4byte	.LASF127
 3934 07d3 0D       		.byte	0xd
 3935 07d4 14       		.uleb128 0x14
 3936 07d5 E6000000 		.4byte	.LASF128
 3937 07d9 0E       		.byte	0xe
 3938 07da 14       		.uleb128 0x14
 3939 07db C8090000 		.4byte	.LASF129
 3940 07df 0F       		.byte	0xf
 3941 07e0 14       		.uleb128 0x14
 3942 07e1 1E060000 		.4byte	.LASF130
ARM GAS  C:\Users\tmj32\AppData\Local\Temp\ccnLJfS3.s 			page 88


 3943 07e5 10       		.byte	0x10
 3944 07e6 14       		.uleb128 0x14
 3945 07e7 6B040000 		.4byte	.LASF131
 3946 07eb 11       		.byte	0x11
 3947 07ec 14       		.uleb128 0x14
 3948 07ed 77070000 		.4byte	.LASF132
 3949 07f1 12       		.byte	0x12
 3950 07f2 14       		.uleb128 0x14
 3951 07f3 2E060000 		.4byte	.LASF133
 3952 07f7 13       		.byte	0x13
 3953 07f8 00       		.byte	0
 3954 07f9 02       		.uleb128 0x2
 3955 07fa 3A0A0000 		.4byte	.LASF134
 3956 07fe 0D       		.byte	0xd
 3957 07ff 88       		.byte	0x88
 3958 0800 AD000000 		.4byte	0xad
 3959 0804 02       		.uleb128 0x2
 3960 0805 90030000 		.4byte	.LASF135
 3961 0809 0D       		.byte	0xd
 3962 080a 8A       		.byte	0x8a
 3963 080b 0F080000 		.4byte	0x80f
 3964 080f 0D       		.uleb128 0xd
 3965 0810 04       		.byte	0x4
 3966 0811 15080000 		.4byte	0x815
 3967 0815 0B       		.uleb128 0xb
 3968 0816 2A050000 		.4byte	0x52a
 3969 081a 2E080000 		.4byte	0x82e
 3970 081e 0C       		.uleb128 0xc
 3971 081f 0D070000 		.4byte	0x70d
 3972 0823 0C       		.uleb128 0xc
 3973 0824 F9070000 		.4byte	0x7f9
 3974 0828 0C       		.uleb128 0xc
 3975 0829 E4000000 		.4byte	0xe4
 3976 082d 00       		.byte	0
 3977 082e 13       		.uleb128 0x13
 3978 082f 01       		.byte	0x1
 3979 0830 42000000 		.4byte	0x42
 3980 0834 0D       		.byte	0xd
 3981 0835 8D       		.byte	0x8d
 3982 0836 B9080000 		.4byte	0x8b9
 3983 083a 14       		.uleb128 0x14
 3984 083b 4F080000 		.4byte	.LASF136
 3985 083f 00       		.byte	0
 3986 0840 14       		.uleb128 0x14
 3987 0841 9B0C0000 		.4byte	.LASF137
 3988 0845 01       		.byte	0x1
 3989 0846 14       		.uleb128 0x14
 3990 0847 1D0A0000 		.4byte	.LASF138
 3991 084b 02       		.byte	0x2
 3992 084c 14       		.uleb128 0x14
 3993 084d 61070000 		.4byte	.LASF139
 3994 0851 03       		.byte	0x3
 3995 0852 14       		.uleb128 0x14
 3996 0853 ED070000 		.4byte	.LASF140
 3997 0857 04       		.byte	0x4
 3998 0858 14       		.uleb128 0x14
 3999 0859 19020000 		.4byte	.LASF141
ARM GAS  C:\Users\tmj32\AppData\Local\Temp\ccnLJfS3.s 			page 89


 4000 085d 05       		.byte	0x5
 4001 085e 14       		.uleb128 0x14
 4002 085f 54050000 		.4byte	.LASF142
 4003 0863 06       		.byte	0x6
 4004 0864 14       		.uleb128 0x14
 4005 0865 C70D0000 		.4byte	.LASF143
 4006 0869 07       		.byte	0x7
 4007 086a 14       		.uleb128 0x14
 4008 086b 050C0000 		.4byte	.LASF144
 4009 086f 08       		.byte	0x8
 4010 0870 14       		.uleb128 0x14
 4011 0871 70090000 		.4byte	.LASF145
 4012 0875 09       		.byte	0x9
 4013 0876 14       		.uleb128 0x14
 4014 0877 FF0D0000 		.4byte	.LASF146
 4015 087b 0A       		.byte	0xa
 4016 087c 14       		.uleb128 0x14
 4017 087d 4A0D0000 		.4byte	.LASF147
 4018 0881 0B       		.byte	0xb
 4019 0882 14       		.uleb128 0x14
 4020 0883 4D060000 		.4byte	.LASF148
 4021 0887 0C       		.byte	0xc
 4022 0888 14       		.uleb128 0x14
 4023 0889 C9050000 		.4byte	.LASF149
 4024 088d 0D       		.byte	0xd
 4025 088e 14       		.uleb128 0x14
 4026 088f 6D050000 		.4byte	.LASF150
 4027 0893 0E       		.byte	0xe
 4028 0894 14       		.uleb128 0x14
 4029 0895 700E0000 		.4byte	.LASF151
 4030 0899 0F       		.byte	0xf
 4031 089a 14       		.uleb128 0x14
 4032 089b 4B040000 		.4byte	.LASF152
 4033 089f 10       		.byte	0x10
 4034 08a0 14       		.uleb128 0x14
 4035 08a1 33070000 		.4byte	.LASF153
 4036 08a5 11       		.byte	0x11
 4037 08a6 14       		.uleb128 0x14
 4038 08a7 7D0A0000 		.4byte	.LASF154
 4039 08ab 12       		.byte	0x12
 4040 08ac 14       		.uleb128 0x14
 4041 08ad 58010000 		.4byte	.LASF155
 4042 08b1 13       		.byte	0x13
 4043 08b2 14       		.uleb128 0x14
 4044 08b3 1D090000 		.4byte	.LASF156
 4045 08b7 14       		.byte	0x14
 4046 08b8 00       		.byte	0
 4047 08b9 02       		.uleb128 0x2
 4048 08ba DB000000 		.4byte	.LASF157
 4049 08be 0D       		.byte	0xd
 4050 08bf A4       		.byte	0xa4
 4051 08c0 AD000000 		.4byte	0xad
 4052 08c4 06       		.uleb128 0x6
 4053 08c5 0C       		.byte	0xc
 4054 08c6 0D       		.byte	0xd
 4055 08c7 A7       		.byte	0xa7
 4056 08c8 1B090000 		.4byte	0x91b
ARM GAS  C:\Users\tmj32\AppData\Local\Temp\ccnLJfS3.s 			page 90


 4057 08cc 07       		.uleb128 0x7
 4058 08cd 230D0000 		.4byte	.LASF158
 4059 08d1 0D       		.byte	0xd
 4060 08d2 A9       		.byte	0xa9
 4061 08d3 1B090000 		.4byte	0x91b
 4062 08d7 00       		.byte	0
 4063 08d8 07       		.uleb128 0x7
 4064 08d9 2C0C0000 		.4byte	.LASF159
 4065 08dd 0D       		.byte	0xd
 4066 08de AA       		.byte	0xaa
 4067 08df D9000000 		.4byte	0xd9
 4068 08e3 04       		.byte	0x4
 4069 08e4 07       		.uleb128 0x7
 4070 08e5 02040000 		.4byte	.LASF160
 4071 08e9 0D       		.byte	0xd
 4072 08ea AB       		.byte	0xab
 4073 08eb D9000000 		.4byte	0xd9
 4074 08ef 06       		.byte	0x6
 4075 08f0 07       		.uleb128 0x7
 4076 08f1 E7070000 		.4byte	.LASF161
 4077 08f5 0D       		.byte	0xd
 4078 08f6 AC       		.byte	0xac
 4079 08f7 B9080000 		.4byte	0x8b9
 4080 08fb 08       		.byte	0x8
 4081 08fc 0A       		.uleb128 0xa
 4082 08fd 84080000 		.4byte	.LASF162
 4083 0901 0D       		.byte	0xd
 4084 0902 AD       		.byte	0xad
 4085 0903 AD000000 		.4byte	0xad
 4086 0907 01       		.byte	0x1
 4087 0908 01       		.byte	0x1
 4088 0909 07       		.byte	0x7
 4089 090a 09       		.byte	0x9
 4090 090b 0A       		.uleb128 0xa
 4091 090c 6C0F0000 		.4byte	.LASF163
 4092 0910 0D       		.byte	0xd
 4093 0911 AE       		.byte	0xae
 4094 0912 AD000000 		.4byte	0xad
 4095 0916 01       		.byte	0x1
 4096 0917 01       		.byte	0x1
 4097 0918 06       		.byte	0x6
 4098 0919 09       		.byte	0x9
 4099 091a 00       		.byte	0
 4100 091b 0D       		.uleb128 0xd
 4101 091c 04       		.byte	0x4
 4102 091d 21090000 		.4byte	0x921
 4103 0921 0E       		.uleb128 0xe
 4104 0922 CB050000 		.4byte	0x5cb
 4105 0926 02       		.uleb128 0x2
 4106 0927 AC000000 		.4byte	.LASF164
 4107 092b 0D       		.byte	0xd
 4108 092c B0       		.byte	0xb0
 4109 092d C4080000 		.4byte	0x8c4
 4110 0931 02       		.uleb128 0x2
 4111 0932 43090000 		.4byte	.LASF165
 4112 0936 0D       		.byte	0xd
 4113 0937 B9       		.byte	0xb9
ARM GAS  C:\Users\tmj32\AppData\Local\Temp\ccnLJfS3.s 			page 91


 4114 0938 AD000000 		.4byte	0xad
 4115 093c 0D       		.uleb128 0xd
 4116 093d 04       		.byte	0x4
 4117 093e 42090000 		.4byte	0x942
 4118 0942 0E       		.uleb128 0xe
 4119 0943 00050000 		.4byte	0x500
 4120 0947 02       		.uleb128 0x2
 4121 0948 470C0000 		.4byte	.LASF166
 4122 094c 0D       		.byte	0xd
 4123 094d F0       		.byte	0xf0
 4124 094e CB050000 		.4byte	0x5cb
 4125 0952 13       		.uleb128 0x13
 4126 0953 01       		.byte	0x1
 4127 0954 42000000 		.4byte	0x42
 4128 0958 0D       		.byte	0xd
 4129 0959 F3       		.byte	0xf3
 4130 095a 89090000 		.4byte	0x989
 4131 095e 14       		.uleb128 0x14
 4132 095f 60090000 		.4byte	.LASF167
 4133 0963 00       		.byte	0
 4134 0964 14       		.uleb128 0x14
 4135 0965 DE0C0000 		.4byte	.LASF168
 4136 0969 01       		.byte	0x1
 4137 096a 14       		.uleb128 0x14
 4138 096b 55030000 		.4byte	.LASF169
 4139 096f 02       		.byte	0x2
 4140 0970 14       		.uleb128 0x14
 4141 0971 55000000 		.4byte	.LASF170
 4142 0975 04       		.byte	0x4
 4143 0976 14       		.uleb128 0x14
 4144 0977 FD040000 		.4byte	.LASF171
 4145 097b 08       		.byte	0x8
 4146 097c 14       		.uleb128 0x14
 4147 097d F30C0000 		.4byte	.LASF172
 4148 0981 10       		.byte	0x10
 4149 0982 14       		.uleb128 0x14
 4150 0983 660A0000 		.4byte	.LASF173
 4151 0987 20       		.byte	0x20
 4152 0988 00       		.byte	0
 4153 0989 13       		.uleb128 0x13
 4154 098a 01       		.byte	0x1
 4155 098b 42000000 		.4byte	0x42
 4156 098f 02       		.byte	0x2
 4157 0990 23       		.byte	0x23
 4158 0991 D8090000 		.4byte	0x9d8
 4159 0995 14       		.uleb128 0x14
 4160 0996 0B060000 		.4byte	.LASF174
 4161 099a 00       		.byte	0
 4162 099b 14       		.uleb128 0x14
 4163 099c F70E0000 		.4byte	.LASF175
 4164 09a0 01       		.byte	0x1
 4165 09a1 14       		.uleb128 0x14
 4166 09a2 1B040000 		.4byte	.LASF176
 4167 09a6 02       		.byte	0x2
 4168 09a7 14       		.uleb128 0x14
 4169 09a8 2B040000 		.4byte	.LASF177
 4170 09ac 03       		.byte	0x3
ARM GAS  C:\Users\tmj32\AppData\Local\Temp\ccnLJfS3.s 			page 92


 4171 09ad 14       		.uleb128 0x14
 4172 09ae 3B040000 		.4byte	.LASF178
 4173 09b2 04       		.byte	0x4
 4174 09b3 14       		.uleb128 0x14
 4175 09b4 8D020000 		.4byte	.LASF179
 4176 09b8 05       		.byte	0x5
 4177 09b9 14       		.uleb128 0x14
 4178 09ba 7D020000 		.4byte	.LASF180
 4179 09be 06       		.byte	0x6
 4180 09bf 14       		.uleb128 0x14
 4181 09c0 4F020000 		.4byte	.LASF181
 4182 09c4 07       		.byte	0x7
 4183 09c5 14       		.uleb128 0x14
 4184 09c6 67020000 		.4byte	.LASF182
 4185 09ca 08       		.byte	0x8
 4186 09cb 14       		.uleb128 0x14
 4187 09cc 500C0000 		.4byte	.LASF183
 4188 09d0 09       		.byte	0x9
 4189 09d1 14       		.uleb128 0x14
 4190 09d2 B7030000 		.4byte	.LASF184
 4191 09d6 0A       		.byte	0xa
 4192 09d7 00       		.byte	0
 4193 09d8 02       		.uleb128 0x2
 4194 09d9 A90D0000 		.4byte	.LASF185
 4195 09dd 02       		.byte	0x2
 4196 09de 30       		.byte	0x30
 4197 09df AD000000 		.4byte	0xad
 4198 09e3 13       		.uleb128 0x13
 4199 09e4 01       		.byte	0x1
 4200 09e5 42000000 		.4byte	0x42
 4201 09e9 02       		.byte	0x2
 4202 09ea 35       		.byte	0x35
 4203 09eb 0E0A0000 		.4byte	0xa0e
 4204 09ef 14       		.uleb128 0x14
 4205 09f0 86010000 		.4byte	.LASF186
 4206 09f4 00       		.byte	0
 4207 09f5 14       		.uleb128 0x14
 4208 09f6 4A0E0000 		.4byte	.LASF187
 4209 09fa 01       		.byte	0x1
 4210 09fb 14       		.uleb128 0x14
 4211 09fc E1050000 		.4byte	.LASF188
 4212 0a00 02       		.byte	0x2
 4213 0a01 14       		.uleb128 0x14
 4214 0a02 850C0000 		.4byte	.LASF189
 4215 0a06 03       		.byte	0x3
 4216 0a07 14       		.uleb128 0x14
 4217 0a08 3B0C0000 		.4byte	.LASF190
 4218 0a0c 04       		.byte	0x4
 4219 0a0d 00       		.byte	0
 4220 0a0e 02       		.uleb128 0x2
 4221 0a0f 060B0000 		.4byte	.LASF191
 4222 0a13 02       		.byte	0x2
 4223 0a14 3D       		.byte	0x3d
 4224 0a15 AD000000 		.4byte	0xad
 4225 0a19 06       		.uleb128 0x6
 4226 0a1a 02       		.byte	0x2
 4227 0a1b 02       		.byte	0x2
ARM GAS  C:\Users\tmj32\AppData\Local\Temp\ccnLJfS3.s 			page 93


 4228 0a1c 3F       		.byte	0x3f
 4229 0a1d 6D0A0000 		.4byte	0xa6d
 4230 0a21 0A       		.uleb128 0xa
 4231 0a22 B9070000 		.4byte	.LASF192
 4232 0a26 02       		.byte	0x2
 4233 0a27 43       		.byte	0x43
 4234 0a28 AD000000 		.4byte	0xad
 4235 0a2c 01       		.byte	0x1
 4236 0a2d 04       		.byte	0x4
 4237 0a2e 04       		.byte	0x4
 4238 0a2f 00       		.byte	0
 4239 0a30 0A       		.uleb128 0xa
 4240 0a31 C8080000 		.4byte	.LASF193
 4241 0a35 02       		.byte	0x2
 4242 0a36 44       		.byte	0x44
 4243 0a37 AD000000 		.4byte	0xad
 4244 0a3b 01       		.byte	0x1
 4245 0a3c 02       		.byte	0x2
 4246 0a3d 02       		.byte	0x2
 4247 0a3e 00       		.byte	0
 4248 0a3f 0A       		.uleb128 0xa
 4249 0a40 310C0000 		.4byte	.LASF194
 4250 0a44 02       		.byte	0x2
 4251 0a45 45       		.byte	0x45
 4252 0a46 AD000000 		.4byte	0xad
 4253 0a4a 01       		.byte	0x1
 4254 0a4b 02       		.byte	0x2
 4255 0a4c 00       		.byte	0
 4256 0a4d 00       		.byte	0
 4257 0a4e 0A       		.uleb128 0xa
 4258 0a4f DD020000 		.4byte	.LASF195
 4259 0a53 02       		.byte	0x2
 4260 0a54 46       		.byte	0x46
 4261 0a55 AD000000 		.4byte	0xad
 4262 0a59 01       		.byte	0x1
 4263 0a5a 02       		.byte	0x2
 4264 0a5b 06       		.byte	0x6
 4265 0a5c 01       		.byte	0x1
 4266 0a5d 0A       		.uleb128 0xa
 4267 0a5e 0F0B0000 		.4byte	.LASF196
 4268 0a62 02       		.byte	0x2
 4269 0a63 47       		.byte	0x47
 4270 0a64 AD000000 		.4byte	0xad
 4271 0a68 01       		.byte	0x1
 4272 0a69 02       		.byte	0x2
 4273 0a6a 04       		.byte	0x4
 4274 0a6b 01       		.byte	0x1
 4275 0a6c 00       		.byte	0
 4276 0a6d 02       		.uleb128 0x2
 4277 0a6e 0B080000 		.4byte	.LASF197
 4278 0a72 02       		.byte	0x2
 4279 0a73 48       		.byte	0x48
 4280 0a74 190A0000 		.4byte	0xa19
 4281 0a78 13       		.uleb128 0x13
 4282 0a79 01       		.byte	0x1
 4283 0a7a 42000000 		.4byte	0x42
 4284 0a7e 02       		.byte	0x2
ARM GAS  C:\Users\tmj32\AppData\Local\Temp\ccnLJfS3.s 			page 94


 4285 0a7f 4B       		.byte	0x4b
 4286 0a80 8B0A0000 		.4byte	0xa8b
 4287 0a84 14       		.uleb128 0x14
 4288 0a85 30020000 		.4byte	.LASF198
 4289 0a89 00       		.byte	0
 4290 0a8a 00       		.byte	0
 4291 0a8b 02       		.uleb128 0x2
 4292 0a8c 9A050000 		.4byte	.LASF199
 4293 0a90 02       		.byte	0x2
 4294 0a91 4E       		.byte	0x4e
 4295 0a92 AD000000 		.4byte	0xad
 4296 0a96 06       		.uleb128 0x6
 4297 0a97 14       		.byte	0x14
 4298 0a98 0E       		.byte	0xe
 4299 0a99 34       		.byte	0x34
 4300 0a9a DA0A0000 		.4byte	0xada
 4301 0a9e 08       		.uleb128 0x8
 4302 0a9f 72656C00 		.ascii	"rel\000"
 4303 0aa3 0E       		.byte	0xe
 4304 0aa4 36       		.byte	0x36
 4305 0aa5 0B050000 		.4byte	0x50b
 4306 0aa9 00       		.byte	0
 4307 0aaa 08       		.uleb128 0x8
 4308 0aab 707200   		.ascii	"pr\000"
 4309 0aae 0E       		.byte	0xe
 4310 0aaf 37       		.byte	0x37
 4311 0ab0 0B050000 		.4byte	0x50b
 4312 0ab4 04       		.byte	0x4
 4313 0ab5 07       		.uleb128 0x7
 4314 0ab6 47080000 		.4byte	.LASF200
 4315 0aba 0E       		.byte	0xe
 4316 0abb 38       		.byte	0x38
 4317 0abc 0B050000 		.4byte	0x50b
 4318 0ac0 08       		.byte	0x8
 4319 0ac1 07       		.uleb128 0x7
 4320 0ac2 D6020000 		.4byte	.LASF201
 4321 0ac6 0E       		.byte	0xe
 4322 0ac7 39       		.byte	0x39
 4323 0ac8 0B050000 		.4byte	0x50b
 4324 0acc 0C       		.byte	0xc
 4325 0acd 08       		.uleb128 0x8
 4326 0ace 696E6100 		.ascii	"ina\000"
 4327 0ad2 0E       		.byte	0xe
 4328 0ad3 3A       		.byte	0x3a
 4329 0ad4 0B050000 		.4byte	0x50b
 4330 0ad8 10       		.byte	0x10
 4331 0ad9 00       		.byte	0
 4332 0ada 06       		.uleb128 0x6
 4333 0adb 14       		.byte	0x14
 4334 0adc 0E       		.byte	0xe
 4335 0add 3F       		.byte	0x3f
 4336 0ade 1E0B0000 		.4byte	0xb1e
 4337 0ae2 08       		.uleb128 0x8
 4338 0ae3 72656C00 		.ascii	"rel\000"
 4339 0ae7 0E       		.byte	0xe
 4340 0ae8 41       		.byte	0x41
 4341 0ae9 0B050000 		.4byte	0x50b
ARM GAS  C:\Users\tmj32\AppData\Local\Temp\ccnLJfS3.s 			page 95


 4342 0aed 00       		.byte	0
 4343 0aee 08       		.uleb128 0x8
 4344 0aef 707200   		.ascii	"pr\000"
 4345 0af2 0E       		.byte	0xe
 4346 0af3 42       		.byte	0x42
 4347 0af4 0B050000 		.4byte	0x50b
 4348 0af8 04       		.byte	0x4
 4349 0af9 07       		.uleb128 0x7
 4350 0afa 47080000 		.4byte	.LASF200
 4351 0afe 0E       		.byte	0xe
 4352 0aff 43       		.byte	0x43
 4353 0b00 0B050000 		.4byte	0x50b
 4354 0b04 08       		.byte	0x8
 4355 0b05 07       		.uleb128 0x7
 4356 0b06 D6020000 		.4byte	.LASF201
 4357 0b0a 0E       		.byte	0xe
 4358 0b0b 44       		.byte	0x44
 4359 0b0c 0B050000 		.4byte	0x50b
 4360 0b10 0C       		.byte	0xc
 4361 0b11 08       		.uleb128 0x8
 4362 0b12 696E6100 		.ascii	"ina\000"
 4363 0b16 0E       		.byte	0xe
 4364 0b17 45       		.byte	0x45
 4365 0b18 0B050000 		.4byte	0x50b
 4366 0b1c 10       		.byte	0x10
 4367 0b1d 00       		.byte	0
 4368 0b1e 06       		.uleb128 0x6
 4369 0b1f 0C       		.byte	0xc
 4370 0b20 0E       		.byte	0xe
 4371 0b21 4A       		.byte	0x4a
 4372 0b22 4B0B0000 		.4byte	0xb4b
 4373 0b26 07       		.uleb128 0x7
 4374 0b27 BD010000 		.4byte	.LASF202
 4375 0b2b 0E       		.byte	0xe
 4376 0b2c 4C       		.byte	0x4c
 4377 0b2d 0B050000 		.4byte	0x50b
 4378 0b31 00       		.byte	0
 4379 0b32 08       		.uleb128 0x8
 4380 0b33 73656300 		.ascii	"sec\000"
 4381 0b37 0E       		.byte	0xe
 4382 0b38 4D       		.byte	0x4d
 4383 0b39 0B050000 		.4byte	0x50b
 4384 0b3d 04       		.byte	0x4
 4385 0b3e 07       		.uleb128 0x7
 4386 0b3f 00060000 		.4byte	.LASF203
 4387 0b43 0E       		.byte	0xe
 4388 0b44 4E       		.byte	0x4e
 4389 0b45 0B050000 		.4byte	0x50b
 4390 0b49 08       		.byte	0x8
 4391 0b4a 00       		.byte	0
 4392 0b4b 06       		.uleb128 0x6
 4393 0b4c 08       		.byte	0x8
 4394 0b4d 0E       		.byte	0xe
 4395 0b4e 53       		.byte	0x53
 4396 0b4f 6C0B0000 		.4byte	0xb6c
 4397 0b53 07       		.uleb128 0x7
 4398 0b54 92010000 		.4byte	.LASF204
ARM GAS  C:\Users\tmj32\AppData\Local\Temp\ccnLJfS3.s 			page 96


 4399 0b58 0E       		.byte	0xe
 4400 0b59 55       		.byte	0x55
 4401 0b5a 0B050000 		.4byte	0x50b
 4402 0b5e 00       		.byte	0
 4403 0b5f 07       		.uleb128 0x7
 4404 0b60 930E0000 		.4byte	.LASF205
 4405 0b64 0E       		.byte	0xe
 4406 0b65 56       		.byte	0x56
 4407 0b66 0B050000 		.4byte	0x50b
 4408 0b6a 04       		.byte	0x4
 4409 0b6b 00       		.byte	0
 4410 0b6c 06       		.uleb128 0x6
 4411 0b6d 04       		.byte	0x4
 4412 0b6e 0E       		.byte	0xe
 4413 0b6f 5B       		.byte	0x5b
 4414 0b70 810B0000 		.4byte	0xb81
 4415 0b74 07       		.uleb128 0x7
 4416 0b75 CD0B0000 		.4byte	.LASF206
 4417 0b79 0E       		.byte	0xe
 4418 0b7a 5D       		.byte	0x5d
 4419 0b7b 0B050000 		.4byte	0x50b
 4420 0b7f 00       		.byte	0
 4421 0b80 00       		.byte	0
 4422 0b81 06       		.uleb128 0x6
 4423 0b82 08       		.byte	0x8
 4424 0b83 0E       		.byte	0xe
 4425 0b84 66       		.byte	0x66
 4426 0b85 A10B0000 		.4byte	0xba1
 4427 0b89 08       		.uleb128 0x8
 4428 0b8a 626700   		.ascii	"bg\000"
 4429 0b8d 0E       		.byte	0xe
 4430 0b8e 68       		.byte	0x68
 4431 0b8f 0B050000 		.4byte	0x50b
 4432 0b93 00       		.byte	0
 4433 0b94 07       		.uleb128 0x7
 4434 0b95 99070000 		.4byte	.LASF207
 4435 0b99 0E       		.byte	0xe
 4436 0b9a 69       		.byte	0x69
 4437 0b9b 0B050000 		.4byte	0x50b
 4438 0b9f 04       		.byte	0x4
 4439 0ba0 00       		.byte	0
 4440 0ba1 06       		.uleb128 0x6
 4441 0ba2 0C       		.byte	0xc
 4442 0ba3 0E       		.byte	0xe
 4443 0ba4 6E       		.byte	0x6e
 4444 0ba5 CD0B0000 		.4byte	0xbcd
 4445 0ba9 08       		.uleb128 0x8
 4446 0baa 626700   		.ascii	"bg\000"
 4447 0bad 0E       		.byte	0xe
 4448 0bae 70       		.byte	0x70
 4449 0baf 0B050000 		.4byte	0x50b
 4450 0bb3 00       		.byte	0
 4451 0bb4 07       		.uleb128 0x7
 4452 0bb5 99070000 		.4byte	.LASF207
 4453 0bb9 0E       		.byte	0xe
 4454 0bba 71       		.byte	0x71
 4455 0bbb 0B050000 		.4byte	0x50b
ARM GAS  C:\Users\tmj32\AppData\Local\Temp\ccnLJfS3.s 			page 97


 4456 0bbf 04       		.byte	0x4
 4457 0bc0 07       		.uleb128 0x7
 4458 0bc1 780F0000 		.4byte	.LASF208
 4459 0bc5 0E       		.byte	0xe
 4460 0bc6 72       		.byte	0x72
 4461 0bc7 0B050000 		.4byte	0x50b
 4462 0bcb 08       		.byte	0x8
 4463 0bcc 00       		.byte	0
 4464 0bcd 06       		.uleb128 0x6
 4465 0bce 10       		.byte	0x10
 4466 0bcf 0E       		.byte	0xe
 4467 0bd0 87       		.byte	0x87
 4468 0bd1 050C0000 		.4byte	0xc05
 4469 0bd5 08       		.uleb128 0x8
 4470 0bd6 626700   		.ascii	"bg\000"
 4471 0bd9 0E       		.byte	0xe
 4472 0bda 89       		.byte	0x89
 4473 0bdb 0B050000 		.4byte	0x50b
 4474 0bdf 00       		.byte	0
 4475 0be0 07       		.uleb128 0x7
 4476 0be1 99070000 		.4byte	.LASF207
 4477 0be5 0E       		.byte	0xe
 4478 0be6 8A       		.byte	0x8a
 4479 0be7 0B050000 		.4byte	0x50b
 4480 0beb 04       		.byte	0x4
 4481 0bec 07       		.uleb128 0x7
 4482 0bed D6080000 		.4byte	.LASF209
 4483 0bf1 0E       		.byte	0xe
 4484 0bf2 8B       		.byte	0x8b
 4485 0bf3 0B050000 		.4byte	0x50b
 4486 0bf7 08       		.byte	0x8
 4487 0bf8 07       		.uleb128 0x7
 4488 0bf9 67030000 		.4byte	.LASF210
 4489 0bfd 0E       		.byte	0xe
 4490 0bfe 8C       		.byte	0x8c
 4491 0bff 0B050000 		.4byte	0x50b
 4492 0c03 0C       		.byte	0xc
 4493 0c04 00       		.byte	0
 4494 0c05 06       		.uleb128 0x6
 4495 0c06 20       		.byte	0x20
 4496 0c07 0E       		.byte	0xe
 4497 0c08 95       		.byte	0x95
 4498 0c09 6D0C0000 		.4byte	0xc6d
 4499 0c0d 08       		.uleb128 0x8
 4500 0c0e 626700   		.ascii	"bg\000"
 4501 0c11 0E       		.byte	0xe
 4502 0c12 97       		.byte	0x97
 4503 0c13 0B050000 		.4byte	0x50b
 4504 0c17 00       		.byte	0
 4505 0c18 07       		.uleb128 0x7
 4506 0c19 7B030000 		.4byte	.LASF211
 4507 0c1d 0E       		.byte	0xe
 4508 0c1e 98       		.byte	0x98
 4509 0c1f 0B050000 		.4byte	0x50b
 4510 0c23 04       		.byte	0x4
 4511 0c24 07       		.uleb128 0x7
 4512 0c25 1A000000 		.4byte	.LASF212
ARM GAS  C:\Users\tmj32\AppData\Local\Temp\ccnLJfS3.s 			page 98


 4513 0c29 0E       		.byte	0xe
 4514 0c2a 99       		.byte	0x99
 4515 0c2b 0B050000 		.4byte	0x50b
 4516 0c2f 08       		.byte	0x8
 4517 0c30 07       		.uleb128 0x7
 4518 0c31 980D0000 		.4byte	.LASF213
 4519 0c35 0E       		.byte	0xe
 4520 0c36 9A       		.byte	0x9a
 4521 0c37 0B050000 		.4byte	0x50b
 4522 0c3b 0C       		.byte	0xc
 4523 0c3c 07       		.uleb128 0x7
 4524 0c3d 01010000 		.4byte	.LASF214
 4525 0c41 0E       		.byte	0xe
 4526 0c42 9B       		.byte	0x9b
 4527 0c43 0B050000 		.4byte	0x50b
 4528 0c47 10       		.byte	0x10
 4529 0c48 07       		.uleb128 0x7
 4530 0c49 B3040000 		.4byte	.LASF215
 4531 0c4d 0E       		.byte	0xe
 4532 0c4e 9C       		.byte	0x9c
 4533 0c4f 0B050000 		.4byte	0x50b
 4534 0c53 14       		.byte	0x14
 4535 0c54 07       		.uleb128 0x7
 4536 0c55 12040000 		.4byte	.LASF216
 4537 0c59 0E       		.byte	0xe
 4538 0c5a 9D       		.byte	0x9d
 4539 0c5b 0B050000 		.4byte	0x50b
 4540 0c5f 18       		.byte	0x18
 4541 0c60 07       		.uleb128 0x7
 4542 0c61 CC020000 		.4byte	.LASF217
 4543 0c65 0E       		.byte	0xe
 4544 0c66 9E       		.byte	0x9e
 4545 0c67 0B050000 		.4byte	0x50b
 4546 0c6b 1C       		.byte	0x1c
 4547 0c6c 00       		.byte	0
 4548 0c6d 06       		.uleb128 0x6
 4549 0c6e 14       		.byte	0x14
 4550 0c6f 0E       		.byte	0xe
 4551 0c70 A6       		.byte	0xa6
 4552 0c71 B10C0000 		.4byte	0xcb1
 4553 0c75 08       		.uleb128 0x8
 4554 0c76 72656C00 		.ascii	"rel\000"
 4555 0c7a 0E       		.byte	0xe
 4556 0c7b A8       		.byte	0xa8
 4557 0c7c 0B050000 		.4byte	0x50b
 4558 0c80 00       		.byte	0
 4559 0c81 08       		.uleb128 0x8
 4560 0c82 707200   		.ascii	"pr\000"
 4561 0c85 0E       		.byte	0xe
 4562 0c86 A9       		.byte	0xa9
 4563 0c87 0B050000 		.4byte	0x50b
 4564 0c8b 04       		.byte	0x4
 4565 0c8c 07       		.uleb128 0x7
 4566 0c8d 47080000 		.4byte	.LASF200
 4567 0c91 0E       		.byte	0xe
 4568 0c92 AA       		.byte	0xaa
 4569 0c93 0B050000 		.4byte	0x50b
ARM GAS  C:\Users\tmj32\AppData\Local\Temp\ccnLJfS3.s 			page 99


 4570 0c97 08       		.byte	0x8
 4571 0c98 07       		.uleb128 0x7
 4572 0c99 D6020000 		.4byte	.LASF201
 4573 0c9d 0E       		.byte	0xe
 4574 0c9e AB       		.byte	0xab
 4575 0c9f 0B050000 		.4byte	0x50b
 4576 0ca3 0C       		.byte	0xc
 4577 0ca4 08       		.uleb128 0x8
 4578 0ca5 696E6100 		.ascii	"ina\000"
 4579 0ca9 0E       		.byte	0xe
 4580 0caa AC       		.byte	0xac
 4581 0cab 0B050000 		.4byte	0x50b
 4582 0caf 10       		.byte	0x10
 4583 0cb0 00       		.byte	0
 4584 0cb1 06       		.uleb128 0x6
 4585 0cb2 18       		.byte	0x18
 4586 0cb3 0E       		.byte	0xe
 4587 0cb4 A3       		.byte	0xa3
 4588 0cb5 D10C0000 		.4byte	0xcd1
 4589 0cb9 08       		.uleb128 0x8
 4590 0cba 626700   		.ascii	"bg\000"
 4591 0cbd 0E       		.byte	0xe
 4592 0cbe A5       		.byte	0xa5
 4593 0cbf 0B050000 		.4byte	0x50b
 4594 0cc3 00       		.byte	0
 4595 0cc4 08       		.uleb128 0x8
 4596 0cc5 626F7800 		.ascii	"box\000"
 4597 0cc9 0E       		.byte	0xe
 4598 0cca AD       		.byte	0xad
 4599 0ccb 6D0C0000 		.4byte	0xc6d
 4600 0ccf 04       		.byte	0x4
 4601 0cd0 00       		.byte	0
 4602 0cd1 06       		.uleb128 0x6
 4603 0cd2 14       		.byte	0x14
 4604 0cd3 0E       		.byte	0xe
 4605 0cd4 B5       		.byte	0xb5
 4606 0cd5 150D0000 		.4byte	0xd15
 4607 0cd9 08       		.uleb128 0x8
 4608 0cda 72656C00 		.ascii	"rel\000"
 4609 0cde 0E       		.byte	0xe
 4610 0cdf B7       		.byte	0xb7
 4611 0ce0 0B050000 		.4byte	0x50b
 4612 0ce4 00       		.byte	0
 4613 0ce5 08       		.uleb128 0x8
 4614 0ce6 707200   		.ascii	"pr\000"
 4615 0ce9 0E       		.byte	0xe
 4616 0cea B8       		.byte	0xb8
 4617 0ceb 0B050000 		.4byte	0x50b
 4618 0cef 04       		.byte	0x4
 4619 0cf0 07       		.uleb128 0x7
 4620 0cf1 47080000 		.4byte	.LASF200
 4621 0cf5 0E       		.byte	0xe
 4622 0cf6 B9       		.byte	0xb9
 4623 0cf7 0B050000 		.4byte	0x50b
 4624 0cfb 08       		.byte	0x8
 4625 0cfc 07       		.uleb128 0x7
 4626 0cfd D6020000 		.4byte	.LASF201
ARM GAS  C:\Users\tmj32\AppData\Local\Temp\ccnLJfS3.s 			page 100


 4627 0d01 0E       		.byte	0xe
 4628 0d02 BA       		.byte	0xba
 4629 0d03 0B050000 		.4byte	0x50b
 4630 0d07 0C       		.byte	0xc
 4631 0d08 08       		.uleb128 0x8
 4632 0d09 696E6100 		.ascii	"ina\000"
 4633 0d0d 0E       		.byte	0xe
 4634 0d0e BB       		.byte	0xbb
 4635 0d0f 0B050000 		.4byte	0x50b
 4636 0d13 10       		.byte	0x10
 4637 0d14 00       		.byte	0
 4638 0d15 06       		.uleb128 0x6
 4639 0d16 18       		.byte	0x18
 4640 0d17 0E       		.byte	0xe
 4641 0d18 B2       		.byte	0xb2
 4642 0d19 350D0000 		.4byte	0xd35
 4643 0d1d 08       		.uleb128 0x8
 4644 0d1e 626700   		.ascii	"bg\000"
 4645 0d21 0E       		.byte	0xe
 4646 0d22 B4       		.byte	0xb4
 4647 0d23 0B050000 		.4byte	0x50b
 4648 0d27 00       		.byte	0
 4649 0d28 08       		.uleb128 0x8
 4650 0d29 62746E00 		.ascii	"btn\000"
 4651 0d2d 0E       		.byte	0xe
 4652 0d2e BC       		.byte	0xbc
 4653 0d2f D10C0000 		.4byte	0xcd1
 4654 0d33 04       		.byte	0x4
 4655 0d34 00       		.byte	0
 4656 0d35 06       		.uleb128 0x6
 4657 0d36 14       		.byte	0x14
 4658 0d37 0E       		.byte	0xe
 4659 0d38 C4       		.byte	0xc4
 4660 0d39 790D0000 		.4byte	0xd79
 4661 0d3d 08       		.uleb128 0x8
 4662 0d3e 72656C00 		.ascii	"rel\000"
 4663 0d42 0E       		.byte	0xe
 4664 0d43 C6       		.byte	0xc6
 4665 0d44 0B050000 		.4byte	0x50b
 4666 0d48 00       		.byte	0
 4667 0d49 08       		.uleb128 0x8
 4668 0d4a 707200   		.ascii	"pr\000"
 4669 0d4d 0E       		.byte	0xe
 4670 0d4e C7       		.byte	0xc7
 4671 0d4f 0B050000 		.4byte	0x50b
 4672 0d53 04       		.byte	0x4
 4673 0d54 07       		.uleb128 0x7
 4674 0d55 47080000 		.4byte	.LASF200
 4675 0d59 0E       		.byte	0xe
 4676 0d5a C8       		.byte	0xc8
 4677 0d5b 0B050000 		.4byte	0x50b
 4678 0d5f 08       		.byte	0x8
 4679 0d60 07       		.uleb128 0x7
 4680 0d61 D6020000 		.4byte	.LASF201
 4681 0d65 0E       		.byte	0xe
 4682 0d66 C9       		.byte	0xc9
 4683 0d67 0B050000 		.4byte	0x50b
ARM GAS  C:\Users\tmj32\AppData\Local\Temp\ccnLJfS3.s 			page 101


 4684 0d6b 0C       		.byte	0xc
 4685 0d6c 08       		.uleb128 0x8
 4686 0d6d 696E6100 		.ascii	"ina\000"
 4687 0d71 0E       		.byte	0xe
 4688 0d72 CA       		.byte	0xca
 4689 0d73 0B050000 		.4byte	0x50b
 4690 0d77 10       		.byte	0x10
 4691 0d78 00       		.byte	0
 4692 0d79 06       		.uleb128 0x6
 4693 0d7a 18       		.byte	0x18
 4694 0d7b 0E       		.byte	0xe
 4695 0d7c C1       		.byte	0xc1
 4696 0d7d 990D0000 		.4byte	0xd99
 4697 0d81 08       		.uleb128 0x8
 4698 0d82 626700   		.ascii	"bg\000"
 4699 0d85 0E       		.byte	0xe
 4700 0d86 C3       		.byte	0xc3
 4701 0d87 0B050000 		.4byte	0x50b
 4702 0d8b 00       		.byte	0
 4703 0d8c 08       		.uleb128 0x8
 4704 0d8d 62746E00 		.ascii	"btn\000"
 4705 0d91 0E       		.byte	0xe
 4706 0d92 CB       		.byte	0xcb
 4707 0d93 350D0000 		.4byte	0xd35
 4708 0d97 04       		.byte	0x4
 4709 0d98 00       		.byte	0
 4710 0d99 06       		.uleb128 0x6
 4711 0d9a 0C       		.byte	0xc
 4712 0d9b 0E       		.byte	0xe
 4713 0d9c D3       		.byte	0xd3
 4714 0d9d C40D0000 		.4byte	0xdc4
 4715 0da1 08       		.uleb128 0x8
 4716 0da2 626700   		.ascii	"bg\000"
 4717 0da5 0E       		.byte	0xe
 4718 0da6 D5       		.byte	0xd5
 4719 0da7 0B050000 		.4byte	0x50b
 4720 0dab 00       		.byte	0
 4721 0dac 08       		.uleb128 0x8
 4722 0dad 72656C00 		.ascii	"rel\000"
 4723 0db1 0E       		.byte	0xe
 4724 0db2 D6       		.byte	0xd6
 4725 0db3 0B050000 		.4byte	0x50b
 4726 0db7 04       		.byte	0x4
 4727 0db8 08       		.uleb128 0x8
 4728 0db9 707200   		.ascii	"pr\000"
 4729 0dbc 0E       		.byte	0xe
 4730 0dbd D7       		.byte	0xd7
 4731 0dbe 0B050000 		.4byte	0x50b
 4732 0dc2 08       		.byte	0x8
 4733 0dc3 00       		.byte	0
 4734 0dc4 06       		.uleb128 0x6
 4735 0dc5 10       		.byte	0x10
 4736 0dc6 0E       		.byte	0xe
 4737 0dc7 D0       		.byte	0xd0
 4738 0dc8 E40D0000 		.4byte	0xde4
 4739 0dcc 08       		.uleb128 0x8
 4740 0dcd 626700   		.ascii	"bg\000"
ARM GAS  C:\Users\tmj32\AppData\Local\Temp\ccnLJfS3.s 			page 102


 4741 0dd0 0E       		.byte	0xe
 4742 0dd1 D2       		.byte	0xd2
 4743 0dd2 0B050000 		.4byte	0x50b
 4744 0dd6 00       		.byte	0
 4745 0dd7 08       		.uleb128 0x8
 4746 0dd8 62746E00 		.ascii	"btn\000"
 4747 0ddc 0E       		.byte	0xe
 4748 0ddd D8       		.byte	0xd8
 4749 0dde 990D0000 		.4byte	0xd99
 4750 0de2 04       		.byte	0x4
 4751 0de3 00       		.byte	0
 4752 0de4 06       		.uleb128 0x6
 4753 0de5 0C       		.byte	0xc
 4754 0de6 0E       		.byte	0xe
 4755 0de7 DD       		.byte	0xdd
 4756 0de8 0F0E0000 		.4byte	0xe0f
 4757 0dec 08       		.uleb128 0x8
 4758 0ded 626700   		.ascii	"bg\000"
 4759 0df0 0E       		.byte	0xe
 4760 0df1 DF       		.byte	0xdf
 4761 0df2 0B050000 		.4byte	0x50b
 4762 0df6 00       		.byte	0
 4763 0df7 07       		.uleb128 0x7
 4764 0df8 F6020000 		.4byte	.LASF218
 4765 0dfc 0E       		.byte	0xe
 4766 0dfd E0       		.byte	0xe0
 4767 0dfe 0B050000 		.4byte	0x50b
 4768 0e02 04       		.byte	0x4
 4769 0e03 08       		.uleb128 0x8
 4770 0e04 736200   		.ascii	"sb\000"
 4771 0e07 0E       		.byte	0xe
 4772 0e08 E1       		.byte	0xe1
 4773 0e09 0B050000 		.4byte	0x50b
 4774 0e0d 08       		.byte	0x8
 4775 0e0e 00       		.byte	0
 4776 0e0f 06       		.uleb128 0x6
 4777 0e10 10       		.byte	0x10
 4778 0e11 0E       		.byte	0xe
 4779 0e12 E6       		.byte	0xe6
 4780 0e13 470E0000 		.4byte	0xe47
 4781 0e17 07       		.uleb128 0x7
 4782 0e18 AA050000 		.4byte	.LASF219
 4783 0e1c 0E       		.byte	0xe
 4784 0e1d E8       		.byte	0xe8
 4785 0e1e 0B050000 		.4byte	0x50b
 4786 0e22 00       		.byte	0
 4787 0e23 07       		.uleb128 0x7
 4788 0e24 45060000 		.4byte	.LASF220
 4789 0e28 0E       		.byte	0xe
 4790 0e29 E9       		.byte	0xe9
 4791 0e2a 0B050000 		.4byte	0x50b
 4792 0e2e 04       		.byte	0x4
 4793 0e2f 07       		.uleb128 0x7
 4794 0e30 AD0F0000 		.4byte	.LASF221
 4795 0e34 0E       		.byte	0xe
 4796 0e35 EA       		.byte	0xea
 4797 0e36 0B050000 		.4byte	0x50b
ARM GAS  C:\Users\tmj32\AppData\Local\Temp\ccnLJfS3.s 			page 103


 4798 0e3a 08       		.byte	0x8
 4799 0e3b 08       		.uleb128 0x8
 4800 0e3c 736200   		.ascii	"sb\000"
 4801 0e3f 0E       		.byte	0xe
 4802 0e40 EB       		.byte	0xeb
 4803 0e41 0B050000 		.4byte	0x50b
 4804 0e45 0C       		.byte	0xc
 4805 0e46 00       		.byte	0
 4806 0e47 06       		.uleb128 0x6
 4807 0e48 0C       		.byte	0xc
 4808 0e49 0E       		.byte	0xe
 4809 0e4a F0       		.byte	0xf0
 4810 0e4b 720E0000 		.4byte	0xe72
 4811 0e4f 08       		.uleb128 0x8
 4812 0e50 626700   		.ascii	"bg\000"
 4813 0e53 0E       		.byte	0xe
 4814 0e54 F2       		.byte	0xf2
 4815 0e55 0B050000 		.4byte	0x50b
 4816 0e59 00       		.byte	0
 4817 0e5a 07       		.uleb128 0x7
 4818 0e5b AD0F0000 		.4byte	.LASF221
 4819 0e5f 0E       		.byte	0xe
 4820 0e60 F3       		.byte	0xf3
 4821 0e61 0B050000 		.4byte	0x50b
 4822 0e65 04       		.byte	0x4
 4823 0e66 08       		.uleb128 0x8
 4824 0e67 736200   		.ascii	"sb\000"
 4825 0e6a 0E       		.byte	0xe
 4826 0e6b F4       		.byte	0xf4
 4827 0e6c 0B050000 		.4byte	0x50b
 4828 0e70 08       		.byte	0x8
 4829 0e71 00       		.byte	0
 4830 0e72 06       		.uleb128 0x6
 4831 0e73 14       		.byte	0x14
 4832 0e74 0E       		.byte	0xe
 4833 0e75 FE       		.byte	0xfe
 4834 0e76 BB0E0000 		.4byte	0xebb
 4835 0e7a 17       		.uleb128 0x17
 4836 0e7b 72656C00 		.ascii	"rel\000"
 4837 0e7f 0E       		.byte	0xe
 4838 0e80 0001     		.2byte	0x100
 4839 0e82 0B050000 		.4byte	0x50b
 4840 0e86 00       		.byte	0
 4841 0e87 17       		.uleb128 0x17
 4842 0e88 707200   		.ascii	"pr\000"
 4843 0e8b 0E       		.byte	0xe
 4844 0e8c 0101     		.2byte	0x101
 4845 0e8e 0B050000 		.4byte	0x50b
 4846 0e92 04       		.byte	0x4
 4847 0e93 18       		.uleb128 0x18
 4848 0e94 47080000 		.4byte	.LASF200
 4849 0e98 0E       		.byte	0xe
 4850 0e99 0201     		.2byte	0x102
 4851 0e9b 0B050000 		.4byte	0x50b
 4852 0e9f 08       		.byte	0x8
 4853 0ea0 18       		.uleb128 0x18
 4854 0ea1 D6020000 		.4byte	.LASF201
ARM GAS  C:\Users\tmj32\AppData\Local\Temp\ccnLJfS3.s 			page 104


 4855 0ea5 0E       		.byte	0xe
 4856 0ea6 0301     		.2byte	0x103
 4857 0ea8 0B050000 		.4byte	0x50b
 4858 0eac 0C       		.byte	0xc
 4859 0ead 17       		.uleb128 0x17
 4860 0eae 696E6100 		.ascii	"ina\000"
 4861 0eb2 0E       		.byte	0xe
 4862 0eb3 0401     		.2byte	0x104
 4863 0eb5 0B050000 		.4byte	0x50b
 4864 0eb9 10       		.byte	0x10
 4865 0eba 00       		.byte	0
 4866 0ebb 06       		.uleb128 0x6
 4867 0ebc 20       		.byte	0x20
 4868 0ebd 0E       		.byte	0xe
 4869 0ebe F9       		.byte	0xf9
 4870 0ebf F30E0000 		.4byte	0xef3
 4871 0ec3 08       		.uleb128 0x8
 4872 0ec4 626700   		.ascii	"bg\000"
 4873 0ec7 0E       		.byte	0xe
 4874 0ec8 FB       		.byte	0xfb
 4875 0ec9 0B050000 		.4byte	0x50b
 4876 0ecd 00       		.byte	0
 4877 0ece 07       		.uleb128 0x7
 4878 0ecf F6020000 		.4byte	.LASF218
 4879 0ed3 0E       		.byte	0xe
 4880 0ed4 FC       		.byte	0xfc
 4881 0ed5 0B050000 		.4byte	0x50b
 4882 0ed9 04       		.byte	0x4
 4883 0eda 08       		.uleb128 0x8
 4884 0edb 736200   		.ascii	"sb\000"
 4885 0ede 0E       		.byte	0xe
 4886 0edf FD       		.byte	0xfd
 4887 0ee0 0B050000 		.4byte	0x50b
 4888 0ee4 08       		.byte	0x8
 4889 0ee5 17       		.uleb128 0x17
 4890 0ee6 62746E00 		.ascii	"btn\000"
 4891 0eea 0E       		.byte	0xe
 4892 0eeb 0501     		.2byte	0x105
 4893 0eed 720E0000 		.4byte	0xe72
 4894 0ef1 0C       		.byte	0xc
 4895 0ef2 00       		.byte	0
 4896 0ef3 19       		.uleb128 0x19
 4897 0ef4 0C       		.byte	0xc
 4898 0ef5 0E       		.byte	0xe
 4899 0ef6 0A01     		.2byte	0x10a
 4900 0ef8 220F0000 		.4byte	0xf22
 4901 0efc 17       		.uleb128 0x17
 4902 0efd 626700   		.ascii	"bg\000"
 4903 0f00 0E       		.byte	0xe
 4904 0f01 0C01     		.2byte	0x10c
 4905 0f03 0B050000 		.4byte	0x50b
 4906 0f07 00       		.byte	0
 4907 0f08 17       		.uleb128 0x17
 4908 0f09 73656C00 		.ascii	"sel\000"
 4909 0f0d 0E       		.byte	0xe
 4910 0f0e 0D01     		.2byte	0x10d
 4911 0f10 0B050000 		.4byte	0x50b
ARM GAS  C:\Users\tmj32\AppData\Local\Temp\ccnLJfS3.s 			page 105


 4912 0f14 04       		.byte	0x4
 4913 0f15 17       		.uleb128 0x17
 4914 0f16 736200   		.ascii	"sb\000"
 4915 0f19 0E       		.byte	0xe
 4916 0f1a 0E01     		.2byte	0x10e
 4917 0f1c 0B050000 		.4byte	0x50b
 4918 0f20 08       		.byte	0x8
 4919 0f21 00       		.byte	0
 4920 0f22 19       		.uleb128 0x19
 4921 0f23 08       		.byte	0x8
 4922 0f24 0E       		.byte	0xe
 4923 0f25 1301     		.2byte	0x113
 4924 0f27 450F0000 		.4byte	0xf45
 4925 0f2b 17       		.uleb128 0x17
 4926 0f2c 626700   		.ascii	"bg\000"
 4927 0f2f 0E       		.byte	0xe
 4928 0f30 1501     		.2byte	0x115
 4929 0f32 0B050000 		.4byte	0x50b
 4930 0f36 00       		.byte	0
 4931 0f37 17       		.uleb128 0x17
 4932 0f38 73656C00 		.ascii	"sel\000"
 4933 0f3c 0E       		.byte	0xe
 4934 0f3d 1601     		.2byte	0x116
 4935 0f3f 0B050000 		.4byte	0x50b
 4936 0f43 04       		.byte	0x4
 4937 0f44 00       		.byte	0
 4938 0f45 19       		.uleb128 0x19
 4939 0f46 14       		.byte	0x14
 4940 0f47 0E       		.byte	0xe
 4941 0f48 1F01     		.2byte	0x11f
 4942 0f4a 8E0F0000 		.4byte	0xf8e
 4943 0f4e 17       		.uleb128 0x17
 4944 0f4f 626700   		.ascii	"bg\000"
 4945 0f52 0E       		.byte	0xe
 4946 0f53 2101     		.2byte	0x121
 4947 0f55 0B050000 		.4byte	0x50b
 4948 0f59 00       		.byte	0
 4949 0f5a 17       		.uleb128 0x17
 4950 0f5b 72656C00 		.ascii	"rel\000"
 4951 0f5f 0E       		.byte	0xe
 4952 0f60 2201     		.2byte	0x122
 4953 0f62 0B050000 		.4byte	0x50b
 4954 0f66 04       		.byte	0x4
 4955 0f67 17       		.uleb128 0x17
 4956 0f68 707200   		.ascii	"pr\000"
 4957 0f6b 0E       		.byte	0xe
 4958 0f6c 2301     		.2byte	0x123
 4959 0f6e 0B050000 		.4byte	0x50b
 4960 0f72 08       		.byte	0x8
 4961 0f73 18       		.uleb128 0x18
 4962 0f74 47080000 		.4byte	.LASF200
 4963 0f78 0E       		.byte	0xe
 4964 0f79 2401     		.2byte	0x124
 4965 0f7b 0B050000 		.4byte	0x50b
 4966 0f7f 0C       		.byte	0xc
 4967 0f80 18       		.uleb128 0x18
 4968 0f81 D6020000 		.4byte	.LASF201
ARM GAS  C:\Users\tmj32\AppData\Local\Temp\ccnLJfS3.s 			page 106


 4969 0f85 0E       		.byte	0xe
 4970 0f86 2501     		.2byte	0x125
 4971 0f88 0B050000 		.4byte	0x50b
 4972 0f8c 10       		.byte	0x10
 4973 0f8d 00       		.byte	0
 4974 0f8e 19       		.uleb128 0x19
 4975 0f8f 1C       		.byte	0x1c
 4976 0f90 0E       		.byte	0xe
 4977 0f91 1B01     		.2byte	0x11b
 4978 0f93 BE0F0000 		.4byte	0xfbe
 4979 0f97 17       		.uleb128 0x17
 4980 0f98 626700   		.ascii	"bg\000"
 4981 0f9b 0E       		.byte	0xe
 4982 0f9c 1D01     		.2byte	0x11d
 4983 0f9e 0B050000 		.4byte	0x50b
 4984 0fa2 00       		.byte	0
 4985 0fa3 18       		.uleb128 0x18
 4986 0fa4 99070000 		.4byte	.LASF207
 4987 0fa8 0E       		.byte	0xe
 4988 0fa9 1E01     		.2byte	0x11e
 4989 0fab 0B050000 		.4byte	0x50b
 4990 0faf 04       		.byte	0x4
 4991 0fb0 17       		.uleb128 0x17
 4992 0fb1 62746E00 		.ascii	"btn\000"
 4993 0fb5 0E       		.byte	0xe
 4994 0fb6 2601     		.2byte	0x126
 4995 0fb8 450F0000 		.4byte	0xf45
 4996 0fbc 08       		.byte	0x8
 4997 0fbd 00       		.byte	0
 4998 0fbe 19       		.uleb128 0x19
 4999 0fbf 0C       		.byte	0xc
 5000 0fc0 0E       		.byte	0xe
 5001 0fc1 2B01     		.2byte	0x12b
 5002 0fc3 ED0F0000 		.4byte	0xfed
 5003 0fc7 17       		.uleb128 0x17
 5004 0fc8 626700   		.ascii	"bg\000"
 5005 0fcb 0E       		.byte	0xe
 5006 0fcc 2D01     		.2byte	0x12d
 5007 0fce 0B050000 		.4byte	0x50b
 5008 0fd2 00       		.byte	0
 5009 0fd3 18       		.uleb128 0x18
 5010 0fd4 F6020000 		.4byte	.LASF218
 5011 0fd8 0E       		.byte	0xe
 5012 0fd9 2E01     		.2byte	0x12e
 5013 0fdb 0B050000 		.4byte	0x50b
 5014 0fdf 04       		.byte	0x4
 5015 0fe0 17       		.uleb128 0x17
 5016 0fe1 736200   		.ascii	"sb\000"
 5017 0fe4 0E       		.byte	0xe
 5018 0fe5 2F01     		.2byte	0x12f
 5019 0fe7 0B050000 		.4byte	0x50b
 5020 0feb 08       		.byte	0x8
 5021 0fec 00       		.byte	0
 5022 0fed 19       		.uleb128 0x19
 5023 0fee 08       		.byte	0x8
 5024 0fef 0E       		.byte	0xe
 5025 0ff0 3401     		.2byte	0x134
ARM GAS  C:\Users\tmj32\AppData\Local\Temp\ccnLJfS3.s 			page 107


 5026 0ff2 10100000 		.4byte	0x1010
 5027 0ff6 17       		.uleb128 0x17
 5028 0ff7 626700   		.ascii	"bg\000"
 5029 0ffa 0E       		.byte	0xe
 5030 0ffb 3601     		.2byte	0x136
 5031 0ffd 0B050000 		.4byte	0x50b
 5032 1001 00       		.byte	0
 5033 1002 18       		.uleb128 0x18
 5034 1003 3A000000 		.4byte	.LASF222
 5035 1007 0E       		.byte	0xe
 5036 1008 3701     		.2byte	0x137
 5037 100a 0B050000 		.4byte	0x50b
 5038 100e 04       		.byte	0x4
 5039 100f 00       		.byte	0
 5040 1010 19       		.uleb128 0x19
 5041 1011 08       		.byte	0x8
 5042 1012 0E       		.byte	0xe
 5043 1013 4201     		.2byte	0x142
 5044 1015 33100000 		.4byte	0x1033
 5045 1019 17       		.uleb128 0x17
 5046 101a 72656C00 		.ascii	"rel\000"
 5047 101e 0E       		.byte	0xe
 5048 101f 4401     		.2byte	0x144
 5049 1021 0B050000 		.4byte	0x50b
 5050 1025 00       		.byte	0
 5051 1026 17       		.uleb128 0x17
 5052 1027 707200   		.ascii	"pr\000"
 5053 102a 0E       		.byte	0xe
 5054 102b 4501     		.2byte	0x145
 5055 102d 0B050000 		.4byte	0x50b
 5056 1031 04       		.byte	0x4
 5057 1032 00       		.byte	0
 5058 1033 19       		.uleb128 0x19
 5059 1034 18       		.byte	0x18
 5060 1035 0E       		.byte	0xe
 5061 1036 3C01     		.2byte	0x13c
 5062 1038 7C100000 		.4byte	0x107c
 5063 103c 17       		.uleb128 0x17
 5064 103d 626700   		.ascii	"bg\000"
 5065 1040 0E       		.byte	0xe
 5066 1041 3E01     		.2byte	0x13e
 5067 1043 0B050000 		.4byte	0x50b
 5068 1047 00       		.byte	0
 5069 1048 17       		.uleb128 0x17
 5070 1049 736200   		.ascii	"sb\000"
 5071 104c 0E       		.byte	0xe
 5072 104d 3F01     		.2byte	0x13f
 5073 104f 0B050000 		.4byte	0x50b
 5074 1053 04       		.byte	0x4
 5075 1054 18       		.uleb128 0x18
 5076 1055 7B030000 		.4byte	.LASF211
 5077 1059 0E       		.byte	0xe
 5078 105a 4001     		.2byte	0x140
 5079 105c 0B050000 		.4byte	0x50b
 5080 1060 08       		.byte	0x8
 5081 1061 18       		.uleb128 0x18
 5082 1062 240E0000 		.4byte	.LASF223
ARM GAS  C:\Users\tmj32\AppData\Local\Temp\ccnLJfS3.s 			page 108


 5083 1066 0E       		.byte	0xe
 5084 1067 4101     		.2byte	0x141
 5085 1069 0B050000 		.4byte	0x50b
 5086 106d 0C       		.byte	0xc
 5087 106e 17       		.uleb128 0x17
 5088 106f 62746E00 		.ascii	"btn\000"
 5089 1073 0E       		.byte	0xe
 5090 1074 4601     		.2byte	0x146
 5091 1076 10100000 		.4byte	0x1010
 5092 107a 10       		.byte	0x10
 5093 107b 00       		.byte	0
 5094 107c 1A       		.uleb128 0x1a
 5095 107d A801     		.2byte	0x1a8
 5096 107f 0E       		.byte	0xe
 5097 1080 29       		.byte	0x29
 5098 1081 1E120000 		.4byte	0x121e
 5099 1085 08       		.uleb128 0x8
 5100 1086 73637200 		.ascii	"scr\000"
 5101 108a 0E       		.byte	0xe
 5102 108b 2B       		.byte	0x2b
 5103 108c 0B050000 		.4byte	0x50b
 5104 1090 00       		.byte	0
 5105 1091 08       		.uleb128 0x8
 5106 1092 626700   		.ascii	"bg\000"
 5107 1095 0E       		.byte	0xe
 5108 1096 2C       		.byte	0x2c
 5109 1097 0B050000 		.4byte	0x50b
 5110 109b 04       		.byte	0x4
 5111 109c 07       		.uleb128 0x7
 5112 109d E40B0000 		.4byte	.LASF224
 5113 10a1 0E       		.byte	0xe
 5114 10a2 2D       		.byte	0x2d
 5115 10a3 0B050000 		.4byte	0x50b
 5116 10a7 08       		.byte	0x8
 5117 10a8 07       		.uleb128 0x7
 5118 10a9 B8010000 		.4byte	.LASF225
 5119 10ad 0E       		.byte	0xe
 5120 10ae 30       		.byte	0x30
 5121 10af 0B050000 		.4byte	0x50b
 5122 10b3 0C       		.byte	0xc
 5123 10b4 08       		.uleb128 0x8
 5124 10b5 62746E00 		.ascii	"btn\000"
 5125 10b9 0E       		.byte	0xe
 5126 10ba 3B       		.byte	0x3b
 5127 10bb 960A0000 		.4byte	0xa96
 5128 10bf 10       		.byte	0x10
 5129 10c0 07       		.uleb128 0x7
 5130 10c1 D30B0000 		.4byte	.LASF226
 5131 10c5 0E       		.byte	0xe
 5132 10c6 46       		.byte	0x46
 5133 10c7 DA0A0000 		.4byte	0xada
 5134 10cb 24       		.byte	0x24
 5135 10cc 07       		.uleb128 0x7
 5136 10cd 0F0F0000 		.4byte	.LASF227
 5137 10d1 0E       		.byte	0xe
 5138 10d2 4F       		.byte	0x4f
 5139 10d3 1E0B0000 		.4byte	0xb1e
ARM GAS  C:\Users\tmj32\AppData\Local\Temp\ccnLJfS3.s 			page 109


 5140 10d7 38       		.byte	0x38
 5141 10d8 08       		.uleb128 0x8
 5142 10d9 696D6700 		.ascii	"img\000"
 5143 10dd 0E       		.byte	0xe
 5144 10de 57       		.byte	0x57
 5145 10df 4B0B0000 		.4byte	0xb4b
 5146 10e3 44       		.byte	0x44
 5147 10e4 07       		.uleb128 0x7
 5148 10e5 19060000 		.4byte	.LASF70
 5149 10e9 0E       		.byte	0xe
 5150 10ea 5E       		.byte	0x5e
 5151 10eb 6C0B0000 		.4byte	0xb6c
 5152 10ef 4C       		.byte	0x4c
 5153 10f0 08       		.uleb128 0x8
 5154 10f1 6C656400 		.ascii	"led\000"
 5155 10f5 0E       		.byte	0xe
 5156 10f6 62       		.byte	0x62
 5157 10f7 0B050000 		.4byte	0x50b
 5158 10fb 50       		.byte	0x50
 5159 10fc 08       		.uleb128 0x8
 5160 10fd 62617200 		.ascii	"bar\000"
 5161 1101 0E       		.byte	0xe
 5162 1102 6A       		.byte	0x6a
 5163 1103 810B0000 		.4byte	0xb81
 5164 1107 54       		.byte	0x54
 5165 1108 07       		.uleb128 0x7
 5166 1109 230F0000 		.4byte	.LASF228
 5167 110d 0E       		.byte	0xe
 5168 110e 73       		.byte	0x73
 5169 110f A10B0000 		.4byte	0xba1
 5170 1113 5C       		.byte	0x5c
 5171 1114 07       		.uleb128 0x7
 5172 1115 89000000 		.4byte	.LASF229
 5173 1119 0E       		.byte	0xe
 5174 111a 77       		.byte	0x77
 5175 111b 0B050000 		.4byte	0x50b
 5176 111f 68       		.byte	0x68
 5177 1120 07       		.uleb128 0x7
 5178 1121 DF080000 		.4byte	.LASF230
 5179 1125 0E       		.byte	0xe
 5180 1126 7B       		.byte	0x7b
 5181 1127 0B050000 		.4byte	0x50b
 5182 112b 6C       		.byte	0x6c
 5183 112c 08       		.uleb128 0x8
 5184 112d 61726300 		.ascii	"arc\000"
 5185 1131 0E       		.byte	0xe
 5186 1132 7F       		.byte	0x7f
 5187 1133 0B050000 		.4byte	0x50b
 5188 1137 70       		.byte	0x70
 5189 1138 07       		.uleb128 0x7
 5190 1139 510F0000 		.4byte	.LASF231
 5191 113d 0E       		.byte	0xe
 5192 113e 83       		.byte	0x83
 5193 113f 0B050000 		.4byte	0x50b
 5194 1143 74       		.byte	0x74
 5195 1144 08       		.uleb128 0x8
 5196 1145 737700   		.ascii	"sw\000"
ARM GAS  C:\Users\tmj32\AppData\Local\Temp\ccnLJfS3.s 			page 110


 5197 1148 0E       		.byte	0xe
 5198 1149 8D       		.byte	0x8d
 5199 114a CD0B0000 		.4byte	0xbcd
 5200 114e 78       		.byte	0x78
 5201 114f 07       		.uleb128 0x7
 5202 1150 C2010000 		.4byte	.LASF232
 5203 1154 0E       		.byte	0xe
 5204 1155 91       		.byte	0x91
 5205 1156 0B050000 		.4byte	0x50b
 5206 115a 88       		.byte	0x88
 5207 115b 07       		.uleb128 0x7
 5208 115c C20C0000 		.4byte	.LASF233
 5209 1160 0E       		.byte	0xe
 5210 1161 9F       		.byte	0x9f
 5211 1162 050C0000 		.4byte	0xc05
 5212 1166 8C       		.byte	0x8c
 5213 1167 08       		.uleb128 0x8
 5214 1168 636200   		.ascii	"cb\000"
 5215 116b 0E       		.byte	0xe
 5216 116c AE       		.byte	0xae
 5217 116d B10C0000 		.4byte	0xcb1
 5218 1171 AC       		.byte	0xac
 5219 1172 07       		.uleb128 0x7
 5220 1173 9D020000 		.4byte	.LASF234
 5221 1177 0E       		.byte	0xe
 5222 1178 BD       		.byte	0xbd
 5223 1179 150D0000 		.4byte	0xd15
 5224 117d C4       		.byte	0xc4
 5225 117e 08       		.uleb128 0x8
 5226 117f 6B6200   		.ascii	"kb\000"
 5227 1182 0E       		.byte	0xe
 5228 1183 CC       		.byte	0xcc
 5229 1184 790D0000 		.4byte	0xd79
 5230 1188 DC       		.byte	0xdc
 5231 1189 07       		.uleb128 0x7
 5232 118a 42080000 		.4byte	.LASF235
 5233 118e 0E       		.byte	0xe
 5234 118f D9       		.byte	0xd9
 5235 1190 C40D0000 		.4byte	0xdc4
 5236 1194 F4       		.byte	0xf4
 5237 1195 1B       		.uleb128 0x1b
 5238 1196 D1080000 		.4byte	.LASF236
 5239 119a 0E       		.byte	0xe
 5240 119b E2       		.byte	0xe2
 5241 119c E40D0000 		.4byte	0xde4
 5242 11a0 0401     		.2byte	0x104
 5243 11a2 1C       		.uleb128 0x1c
 5244 11a3 746100   		.ascii	"ta\000"
 5245 11a6 0E       		.byte	0xe
 5246 11a7 EC       		.byte	0xec
 5247 11a8 0F0E0000 		.4byte	0xe0f
 5248 11ac 1001     		.2byte	0x110
 5249 11ae 1B       		.uleb128 0x1b
 5250 11af 830D0000 		.4byte	.LASF237
 5251 11b3 0E       		.byte	0xe
 5252 11b4 F5       		.byte	0xf5
 5253 11b5 470E0000 		.4byte	0xe47
ARM GAS  C:\Users\tmj32\AppData\Local\Temp\ccnLJfS3.s 			page 111


 5254 11b9 2001     		.2byte	0x120
 5255 11bb 1D       		.uleb128 0x1d
 5256 11bc B8080000 		.4byte	.LASF238
 5257 11c0 0E       		.byte	0xe
 5258 11c1 0601     		.2byte	0x106
 5259 11c3 BB0E0000 		.4byte	0xebb
 5260 11c7 2C01     		.2byte	0x12c
 5261 11c9 1D       		.uleb128 0x1d
 5262 11ca 7D040000 		.4byte	.LASF239
 5263 11ce 0E       		.byte	0xe
 5264 11cf 0F01     		.2byte	0x10f
 5265 11d1 F30E0000 		.4byte	0xef3
 5266 11d5 4C01     		.2byte	0x14c
 5267 11d7 1D       		.uleb128 0x1d
 5268 11d8 CD0F0000 		.4byte	.LASF240
 5269 11dc 0E       		.byte	0xe
 5270 11dd 1701     		.2byte	0x117
 5271 11df 220F0000 		.4byte	0xf22
 5272 11e3 5801     		.2byte	0x158
 5273 11e5 1D       		.uleb128 0x1d
 5274 11e6 C0070000 		.4byte	.LASF241
 5275 11ea 0E       		.byte	0xe
 5276 11eb 2701     		.2byte	0x127
 5277 11ed 8E0F0000 		.4byte	0xf8e
 5278 11f1 6001     		.2byte	0x160
 5279 11f3 1D       		.uleb128 0x1d
 5280 11f4 10020000 		.4byte	.LASF242
 5281 11f8 0E       		.byte	0xe
 5282 11f9 3001     		.2byte	0x130
 5283 11fb BE0F0000 		.4byte	0xfbe
 5284 11ff 7C01     		.2byte	0x17c
 5285 1201 1D       		.uleb128 0x1d
 5286 1202 9F030000 		.4byte	.LASF243
 5287 1206 0E       		.byte	0xe
 5288 1207 3801     		.2byte	0x138
 5289 1209 ED0F0000 		.4byte	0xfed
 5290 120d 8801     		.2byte	0x188
 5291 120f 1E       		.uleb128 0x1e
 5292 1210 77696E00 		.ascii	"win\000"
 5293 1214 0E       		.byte	0xe
 5294 1215 4701     		.2byte	0x147
 5295 1217 33100000 		.4byte	0x1033
 5296 121b 9001     		.2byte	0x190
 5297 121d 00       		.byte	0
 5298 121e 1A       		.uleb128 0x1a
 5299 121f A801     		.2byte	0x1a8
 5300 1221 0E       		.byte	0xe
 5301 1222 27       		.byte	0x27
 5302 1223 35120000 		.4byte	0x1235
 5303 1227 18       		.uleb128 0x18
 5304 1228 51090000 		.4byte	.LASF244
 5305 122c 0E       		.byte	0xe
 5306 122d 4901     		.2byte	0x149
 5307 122f 7C100000 		.4byte	0x107c
 5308 1233 00       		.byte	0
 5309 1234 00       		.byte	0
 5310 1235 12       		.uleb128 0x12
ARM GAS  C:\Users\tmj32\AppData\Local\Temp\ccnLJfS3.s 			page 112


 5311 1236 28050000 		.4byte	.LASF245
 5312 123a 0E       		.byte	0xe
 5313 123b 5401     		.2byte	0x154
 5314 123d 1E120000 		.4byte	0x121e
 5315 1241 1F       		.uleb128 0x1f
 5316 1242 AA030000 		.4byte	.LASF250
 5317 1246 01       		.byte	0x1
 5318 1247 4C       		.byte	0x4c
 5319 1248 00000000 		.4byte	.LFB10
 5320 124c 1C000000 		.4byte	.LFE10-.LFB10
 5321 1250 01       		.uleb128 0x1
 5322 1251 9C       		.byte	0x9c
 5323 1252 73120000 		.4byte	0x1273
 5324 1256 20       		.uleb128 0x20
 5325 1257 EA0B0000 		.4byte	.LASF246
 5326 125b 01       		.byte	0x1
 5327 125c 4C       		.byte	0x4c
 5328 125d C5050000 		.4byte	0x5c5
 5329 1261 02       		.uleb128 0x2
 5330 1262 91       		.byte	0x91
 5331 1263 74       		.sleb128 -12
 5332 1264 21       		.uleb128 0x21
 5333 1265 73726300 		.ascii	"src\000"
 5334 1269 01       		.byte	0x1
 5335 126a 4C       		.byte	0x4c
 5336 126b BA050000 		.4byte	0x5ba
 5337 126f 02       		.uleb128 0x2
 5338 1270 91       		.byte	0x91
 5339 1271 70       		.sleb128 -16
 5340 1272 00       		.byte	0
 5341 1273 22       		.uleb128 0x22
 5342 1274 B50D0000 		.4byte	.LASF248
 5343 1278 01       		.byte	0x1
 5344 1279 56       		.byte	0x56
 5345 127a D9000000 		.4byte	0xd9
 5346 127e 00000000 		.4byte	.LFB11
 5347 1282 2E000000 		.4byte	.LFE11-.LFB11
 5348 1286 01       		.uleb128 0x1
 5349 1287 9C       		.byte	0x9c
 5350 1288 9B120000 		.4byte	0x129b
 5351 128c 20       		.uleb128 0x20
 5352 128d 48020000 		.4byte	.LASF247
 5353 1291 01       		.byte	0x1
 5354 1292 56       		.byte	0x56
 5355 1293 BA050000 		.4byte	0x5ba
 5356 1297 02       		.uleb128 0x2
 5357 1298 91       		.byte	0x91
 5358 1299 74       		.sleb128 -12
 5359 129a 00       		.byte	0
 5360 129b 22       		.uleb128 0x22
 5361 129c DF0A0000 		.4byte	.LASF249
 5362 12a0 01       		.byte	0x1
 5363 12a1 60       		.byte	0x60
 5364 12a2 D9000000 		.4byte	0xd9
 5365 12a6 00000000 		.4byte	.LFB12
 5366 12aa 2E000000 		.4byte	.LFE12-.LFB12
 5367 12ae 01       		.uleb128 0x1
ARM GAS  C:\Users\tmj32\AppData\Local\Temp\ccnLJfS3.s 			page 113


 5368 12af 9C       		.byte	0x9c
 5369 12b0 C3120000 		.4byte	0x12c3
 5370 12b4 20       		.uleb128 0x20
 5371 12b5 48020000 		.4byte	.LASF247
 5372 12b9 01       		.byte	0x1
 5373 12ba 60       		.byte	0x60
 5374 12bb BA050000 		.4byte	0x5ba
 5375 12bf 02       		.uleb128 0x2
 5376 12c0 91       		.byte	0x91
 5377 12c1 74       		.sleb128 -12
 5378 12c2 00       		.byte	0
 5379 12c3 1F       		.uleb128 0x1f
 5380 12c4 E5080000 		.4byte	.LASF251
 5381 12c8 02       		.byte	0x2
 5382 12c9 8F       		.byte	0x8f
 5383 12ca 00000000 		.4byte	.LFB33
 5384 12ce 1E000000 		.4byte	.LFE33-.LFB33
 5385 12d2 01       		.uleb128 0x1
 5386 12d3 9C       		.byte	0x9c
 5387 12d4 03130000 		.4byte	0x1303
 5388 12d8 20       		.uleb128 0x20
 5389 12d9 B8010000 		.4byte	.LASF225
 5390 12dd 02       		.byte	0x2
 5391 12de 8F       		.byte	0x8f
 5392 12df 03130000 		.4byte	0x1303
 5393 12e3 02       		.uleb128 0x2
 5394 12e4 91       		.byte	0x91
 5395 12e5 74       		.sleb128 -12
 5396 12e6 20       		.uleb128 0x20
 5397 12e7 81010000 		.4byte	.LASF48
 5398 12eb 02       		.byte	0x2
 5399 12ec 8F       		.byte	0x8f
 5400 12ed 8B0A0000 		.4byte	0xa8b
 5401 12f1 02       		.uleb128 0x2
 5402 12f2 91       		.byte	0x91
 5403 12f3 73       		.sleb128 -13
 5404 12f4 20       		.uleb128 0x20
 5405 12f5 51090000 		.4byte	.LASF244
 5406 12f9 02       		.byte	0x2
 5407 12fa 8F       		.byte	0x8f
 5408 12fb 3C090000 		.4byte	0x93c
 5409 12ff 02       		.uleb128 0x2
 5410 1300 91       		.byte	0x91
 5411 1301 6C       		.sleb128 -20
 5412 1302 00       		.byte	0
 5413 1303 0D       		.uleb128 0xd
 5414 1304 04       		.byte	0x4
 5415 1305 47090000 		.4byte	0x947
 5416 1309 23       		.uleb128 0x23
 5417 130a 52070000 		.4byte	.LASF257
 5418 130e 03       		.byte	0x3
 5419 130f 42       		.byte	0x42
 5420 1310 03130000 		.4byte	0x1303
 5421 1314 00000000 		.4byte	.LFB35
 5422 1318 44010000 		.4byte	.LFE35-.LFB35
 5423 131c 01       		.uleb128 0x1
 5424 131d 9C       		.byte	0x9c
ARM GAS  C:\Users\tmj32\AppData\Local\Temp\ccnLJfS3.s 			page 114


 5425 131e 8E130000 		.4byte	0x138e
 5426 1322 21       		.uleb128 0x21
 5427 1323 70617200 		.ascii	"par\000"
 5428 1327 03       		.byte	0x3
 5429 1328 42       		.byte	0x42
 5430 1329 03130000 		.4byte	0x1303
 5431 132d 02       		.uleb128 0x2
 5432 132e 91       		.byte	0x91
 5433 132f 64       		.sleb128 -28
 5434 1330 20       		.uleb128 0x20
 5435 1331 43020000 		.4byte	.LASF252
 5436 1335 03       		.byte	0x3
 5437 1336 42       		.byte	0x42
 5438 1337 8E130000 		.4byte	0x138e
 5439 133b 02       		.uleb128 0x2
 5440 133c 91       		.byte	0x91
 5441 133d 60       		.sleb128 -32
 5442 133e 24       		.uleb128 0x24
 5443 133f C0050000 		.4byte	.LASF253
 5444 1343 03       		.byte	0x3
 5445 1344 48       		.byte	0x48
 5446 1345 03130000 		.4byte	0x1303
 5447 1349 02       		.uleb128 0x2
 5448 134a 91       		.byte	0x91
 5449 134b 74       		.sleb128 -12
 5450 134c 25       		.uleb128 0x25
 5451 134d 65787400 		.ascii	"ext\000"
 5452 1351 03       		.byte	0x3
 5453 1352 4F       		.byte	0x4f
 5454 1353 99130000 		.4byte	0x1399
 5455 1357 02       		.uleb128 0x2
 5456 1358 91       		.byte	0x91
 5457 1359 70       		.sleb128 -16
 5458 135a 26       		.uleb128 0x26
 5459 135b 92000000 		.4byte	.LBB2
 5460 135f 28000000 		.4byte	.LBE2-.LBB2
 5461 1363 75130000 		.4byte	0x1375
 5462 1367 25       		.uleb128 0x25
 5463 1368 746800   		.ascii	"th\000"
 5464 136b 03       		.byte	0x3
 5465 136c 5F       		.byte	0x5f
 5466 136d 9F130000 		.4byte	0x139f
 5467 1371 02       		.uleb128 0x2
 5468 1372 91       		.byte	0x91
 5469 1373 6C       		.sleb128 -20
 5470 1374 00       		.byte	0
 5471 1375 27       		.uleb128 0x27
 5472 1376 BA000000 		.4byte	.LBB3
 5473 137a 72000000 		.4byte	.LBE3-.LBB3
 5474 137e 24       		.uleb128 0x24
 5475 137f E7010000 		.4byte	.LASF254
 5476 1383 03       		.byte	0x3
 5477 1384 69       		.byte	0x69
 5478 1385 99130000 		.4byte	0x1399
 5479 1389 02       		.uleb128 0x2
 5480 138a 91       		.byte	0x91
 5481 138b 68       		.sleb128 -24
ARM GAS  C:\Users\tmj32\AppData\Local\Temp\ccnLJfS3.s 			page 115


 5482 138c 00       		.byte	0
 5483 138d 00       		.byte	0
 5484 138e 0D       		.uleb128 0xd
 5485 138f 04       		.byte	0x4
 5486 1390 94130000 		.4byte	0x1394
 5487 1394 0E       		.uleb128 0xe
 5488 1395 47090000 		.4byte	0x947
 5489 1399 0D       		.uleb128 0xd
 5490 139a 04       		.byte	0x4
 5491 139b 6D0A0000 		.4byte	0xa6d
 5492 139f 0D       		.uleb128 0xd
 5493 13a0 04       		.byte	0x4
 5494 13a1 35120000 		.4byte	0x1235
 5495 13a5 28       		.uleb128 0x28
 5496 13a6 CE010000 		.4byte	.LASF255
 5497 13aa 03       		.byte	0x3
 5498 13ab 82       		.byte	0x82
 5499 13ac 00000000 		.4byte	.LFB36
 5500 13b0 4E000000 		.4byte	.LFE36-.LFB36
 5501 13b4 01       		.uleb128 0x1
 5502 13b5 9C       		.byte	0x9c
 5503 13b6 E5130000 		.4byte	0x13e5
 5504 13ba 20       		.uleb128 0x20
 5505 13bb B8010000 		.4byte	.LASF225
 5506 13bf 03       		.byte	0x3
 5507 13c0 82       		.byte	0x82
 5508 13c1 03130000 		.4byte	0x1303
 5509 13c5 02       		.uleb128 0x2
 5510 13c6 91       		.byte	0x91
 5511 13c7 6C       		.sleb128 -20
 5512 13c8 20       		.uleb128 0x20
 5513 13c9 B9070000 		.4byte	.LASF192
 5514 13cd 03       		.byte	0x3
 5515 13ce 82       		.byte	0x82
 5516 13cf D8090000 		.4byte	0x9d8
 5517 13d3 02       		.uleb128 0x2
 5518 13d4 91       		.byte	0x91
 5519 13d5 6B       		.sleb128 -21
 5520 13d6 25       		.uleb128 0x25
 5521 13d7 65787400 		.ascii	"ext\000"
 5522 13db 03       		.byte	0x3
 5523 13dc 86       		.byte	0x86
 5524 13dd 99130000 		.4byte	0x1399
 5525 13e1 02       		.uleb128 0x2
 5526 13e2 91       		.byte	0x91
 5527 13e3 74       		.sleb128 -12
 5528 13e4 00       		.byte	0
 5529 13e5 28       		.uleb128 0x28
 5530 13e6 89040000 		.4byte	.LASF256
 5531 13ea 03       		.byte	0x3
 5532 13eb 98       		.byte	0x98
 5533 13ec 00000000 		.4byte	.LFB37
 5534 13f0 CE000000 		.4byte	.LFE37-.LFB37
 5535 13f4 01       		.uleb128 0x1
 5536 13f5 9C       		.byte	0x9c
 5537 13f6 4F140000 		.4byte	0x144f
 5538 13fa 20       		.uleb128 0x20
ARM GAS  C:\Users\tmj32\AppData\Local\Temp\ccnLJfS3.s 			page 116


 5539 13fb B8010000 		.4byte	.LASF225
 5540 13ff 03       		.byte	0x3
 5541 1400 98       		.byte	0x98
 5542 1401 03130000 		.4byte	0x1303
 5543 1405 02       		.uleb128 0x2
 5544 1406 91       		.byte	0x91
 5545 1407 6C       		.sleb128 -20
 5546 1408 20       		.uleb128 0x20
 5547 1409 23050000 		.4byte	.LASF50
 5548 140d 03       		.byte	0x3
 5549 140e 98       		.byte	0x98
 5550 140f 0E0A0000 		.4byte	0xa0e
 5551 1413 02       		.uleb128 0x2
 5552 1414 91       		.byte	0x91
 5553 1415 6B       		.sleb128 -21
 5554 1416 20       		.uleb128 0x20
 5555 1417 7A060000 		.4byte	.LASF51
 5556 141b 03       		.byte	0x3
 5557 141c 98       		.byte	0x98
 5558 141d 0E0A0000 		.4byte	0xa0e
 5559 1421 02       		.uleb128 0x2
 5560 1422 91       		.byte	0x91
 5561 1423 6A       		.sleb128 -22
 5562 1424 21       		.uleb128 0x21
 5563 1425 746F7000 		.ascii	"top\000"
 5564 1429 03       		.byte	0x3
 5565 142a 98       		.byte	0x98
 5566 142b 0E0A0000 		.4byte	0xa0e
 5567 142f 02       		.uleb128 0x2
 5568 1430 91       		.byte	0x91
 5569 1431 69       		.sleb128 -23
 5570 1432 20       		.uleb128 0x20
 5571 1433 89070000 		.4byte	.LASF49
 5572 1437 03       		.byte	0x3
 5573 1438 98       		.byte	0x98
 5574 1439 0E0A0000 		.4byte	0xa0e
 5575 143d 02       		.uleb128 0x2
 5576 143e 91       		.byte	0x91
 5577 143f 00       		.sleb128 0
 5578 1440 25       		.uleb128 0x25
 5579 1441 65787400 		.ascii	"ext\000"
 5580 1445 03       		.byte	0x3
 5581 1446 9D       		.byte	0x9d
 5582 1447 99130000 		.4byte	0x1399
 5583 144b 02       		.uleb128 0x2
 5584 144c 91       		.byte	0x91
 5585 144d 74       		.sleb128 -12
 5586 144e 00       		.byte	0
 5587 144f 23       		.uleb128 0x23
 5588 1450 A5080000 		.4byte	.LASF258
 5589 1454 03       		.byte	0x3
 5590 1455 B4       		.byte	0xb4
 5591 1456 D8090000 		.4byte	0x9d8
 5592 145a 00000000 		.4byte	.LFB38
 5593 145e 22000000 		.4byte	.LFE38-.LFB38
 5594 1462 01       		.uleb128 0x1
 5595 1463 9C       		.byte	0x9c
ARM GAS  C:\Users\tmj32\AppData\Local\Temp\ccnLJfS3.s 			page 117


 5596 1464 85140000 		.4byte	0x1485
 5597 1468 20       		.uleb128 0x20
 5598 1469 B8010000 		.4byte	.LASF225
 5599 146d 03       		.byte	0x3
 5600 146e B4       		.byte	0xb4
 5601 146f 8E130000 		.4byte	0x138e
 5602 1473 02       		.uleb128 0x2
 5603 1474 91       		.byte	0x91
 5604 1475 6C       		.sleb128 -20
 5605 1476 25       		.uleb128 0x25
 5606 1477 65787400 		.ascii	"ext\000"
 5607 147b 03       		.byte	0x3
 5608 147c B8       		.byte	0xb8
 5609 147d 99130000 		.4byte	0x1399
 5610 1481 02       		.uleb128 0x2
 5611 1482 91       		.byte	0x91
 5612 1483 74       		.sleb128 -12
 5613 1484 00       		.byte	0
 5614 1485 23       		.uleb128 0x23
 5615 1486 B10E0000 		.4byte	.LASF259
 5616 148a 03       		.byte	0x3
 5617 148b C1       		.byte	0xc1
 5618 148c 0E0A0000 		.4byte	0xa0e
 5619 1490 00000000 		.4byte	.LFB39
 5620 1494 22000000 		.4byte	.LFE39-.LFB39
 5621 1498 01       		.uleb128 0x1
 5622 1499 9C       		.byte	0x9c
 5623 149a BB140000 		.4byte	0x14bb
 5624 149e 20       		.uleb128 0x20
 5625 149f B8010000 		.4byte	.LASF225
 5626 14a3 03       		.byte	0x3
 5627 14a4 C1       		.byte	0xc1
 5628 14a5 8E130000 		.4byte	0x138e
 5629 14a9 02       		.uleb128 0x2
 5630 14aa 91       		.byte	0x91
 5631 14ab 6C       		.sleb128 -20
 5632 14ac 25       		.uleb128 0x25
 5633 14ad 65787400 		.ascii	"ext\000"
 5634 14b1 03       		.byte	0x3
 5635 14b2 C5       		.byte	0xc5
 5636 14b3 99130000 		.4byte	0x1399
 5637 14b7 02       		.uleb128 0x2
 5638 14b8 91       		.byte	0x91
 5639 14b9 74       		.sleb128 -12
 5640 14ba 00       		.byte	0
 5641 14bb 23       		.uleb128 0x23
 5642 14bc A2020000 		.4byte	.LASF260
 5643 14c0 03       		.byte	0x3
 5644 14c1 CE       		.byte	0xce
 5645 14c2 0E0A0000 		.4byte	0xa0e
 5646 14c6 00000000 		.4byte	.LFB40
 5647 14ca 22000000 		.4byte	.LFE40-.LFB40
 5648 14ce 01       		.uleb128 0x1
 5649 14cf 9C       		.byte	0x9c
 5650 14d0 F1140000 		.4byte	0x14f1
 5651 14d4 20       		.uleb128 0x20
 5652 14d5 B8010000 		.4byte	.LASF225
ARM GAS  C:\Users\tmj32\AppData\Local\Temp\ccnLJfS3.s 			page 118


 5653 14d9 03       		.byte	0x3
 5654 14da CE       		.byte	0xce
 5655 14db 8E130000 		.4byte	0x138e
 5656 14df 02       		.uleb128 0x2
 5657 14e0 91       		.byte	0x91
 5658 14e1 6C       		.sleb128 -20
 5659 14e2 25       		.uleb128 0x25
 5660 14e3 65787400 		.ascii	"ext\000"
 5661 14e7 03       		.byte	0x3
 5662 14e8 D2       		.byte	0xd2
 5663 14e9 99130000 		.4byte	0x1399
 5664 14ed 02       		.uleb128 0x2
 5665 14ee 91       		.byte	0x91
 5666 14ef 74       		.sleb128 -12
 5667 14f0 00       		.byte	0
 5668 14f1 23       		.uleb128 0x23
 5669 14f2 A4010000 		.4byte	.LASF261
 5670 14f6 03       		.byte	0x3
 5671 14f7 DB       		.byte	0xdb
 5672 14f8 0E0A0000 		.4byte	0xa0e
 5673 14fc 00000000 		.4byte	.LFB41
 5674 1500 22000000 		.4byte	.LFE41-.LFB41
 5675 1504 01       		.uleb128 0x1
 5676 1505 9C       		.byte	0x9c
 5677 1506 27150000 		.4byte	0x1527
 5678 150a 20       		.uleb128 0x20
 5679 150b B8010000 		.4byte	.LASF225
 5680 150f 03       		.byte	0x3
 5681 1510 DB       		.byte	0xdb
 5682 1511 8E130000 		.4byte	0x138e
 5683 1515 02       		.uleb128 0x2
 5684 1516 91       		.byte	0x91
 5685 1517 6C       		.sleb128 -20
 5686 1518 25       		.uleb128 0x25
 5687 1519 65787400 		.ascii	"ext\000"
 5688 151d 03       		.byte	0x3
 5689 151e DF       		.byte	0xdf
 5690 151f 99130000 		.4byte	0x1399
 5691 1523 02       		.uleb128 0x2
 5692 1524 91       		.byte	0x91
 5693 1525 74       		.sleb128 -12
 5694 1526 00       		.byte	0
 5695 1527 23       		.uleb128 0x23
 5696 1528 E6040000 		.4byte	.LASF262
 5697 152c 03       		.byte	0x3
 5698 152d E8       		.byte	0xe8
 5699 152e 0E0A0000 		.4byte	0xa0e
 5700 1532 00000000 		.4byte	.LFB42
 5701 1536 22000000 		.4byte	.LFE42-.LFB42
 5702 153a 01       		.uleb128 0x1
 5703 153b 9C       		.byte	0x9c
 5704 153c 5D150000 		.4byte	0x155d
 5705 1540 20       		.uleb128 0x20
 5706 1541 B8010000 		.4byte	.LASF225
 5707 1545 03       		.byte	0x3
 5708 1546 E8       		.byte	0xe8
 5709 1547 8E130000 		.4byte	0x138e
ARM GAS  C:\Users\tmj32\AppData\Local\Temp\ccnLJfS3.s 			page 119


 5710 154b 02       		.uleb128 0x2
 5711 154c 91       		.byte	0x91
 5712 154d 6C       		.sleb128 -20
 5713 154e 25       		.uleb128 0x25
 5714 154f 65787400 		.ascii	"ext\000"
 5715 1553 03       		.byte	0x3
 5716 1554 EC       		.byte	0xec
 5717 1555 99130000 		.4byte	0x1399
 5718 1559 02       		.uleb128 0x2
 5719 155a 91       		.byte	0x91
 5720 155b 74       		.sleb128 -12
 5721 155c 00       		.byte	0
 5722 155d 29       		.uleb128 0x29
 5723 155e 3B050000 		.4byte	.LASF263
 5724 1562 03       		.byte	0x3
 5725 1563 FB       		.byte	0xfb
 5726 1564 2A050000 		.4byte	0x52a
 5727 1568 00000000 		.4byte	.LFB43
 5728 156c C0000000 		.4byte	.LFE43-.LFB43
 5729 1570 01       		.uleb128 0x1
 5730 1571 9C       		.byte	0x9c
 5731 1572 AF150000 		.4byte	0x15af
 5732 1576 20       		.uleb128 0x20
 5733 1577 B8010000 		.4byte	.LASF225
 5734 157b 03       		.byte	0x3
 5735 157c FB       		.byte	0xfb
 5736 157d 03130000 		.4byte	0x1303
 5737 1581 02       		.uleb128 0x2
 5738 1582 91       		.byte	0x91
 5739 1583 64       		.sleb128 -28
 5740 1584 20       		.uleb128 0x20
 5741 1585 12010000 		.4byte	.LASF264
 5742 1589 03       		.byte	0x3
 5743 158a FB       		.byte	0xfb
 5744 158b F9070000 		.4byte	0x7f9
 5745 158f 02       		.uleb128 0x2
 5746 1590 91       		.byte	0x91
 5747 1591 63       		.sleb128 -29
 5748 1592 20       		.uleb128 0x20
 5749 1593 05060000 		.4byte	.LASF265
 5750 1597 03       		.byte	0x3
 5751 1598 FB       		.byte	0xfb
 5752 1599 E4000000 		.4byte	0xe4
 5753 159d 02       		.uleb128 0x2
 5754 159e 91       		.byte	0x91
 5755 159f 5C       		.sleb128 -36
 5756 15a0 25       		.uleb128 0x25
 5757 15a1 72657300 		.ascii	"res\000"
 5758 15a5 03       		.byte	0x3
 5759 15a6 FD       		.byte	0xfd
 5760 15a7 2A050000 		.4byte	0x52a
 5761 15ab 02       		.uleb128 0x2
 5762 15ac 91       		.byte	0x91
 5763 15ad 6F       		.sleb128 -17
 5764 15ae 00       		.byte	0
 5765 15af 2A       		.uleb128 0x2a
 5766 15b0 5F080000 		.4byte	.LASF266
ARM GAS  C:\Users\tmj32\AppData\Local\Temp\ccnLJfS3.s 			page 120


 5767 15b4 03       		.byte	0x3
 5768 15b5 1C01     		.2byte	0x11c
 5769 15b7 00000000 		.4byte	.LFB44
 5770 15bb 90000000 		.4byte	.LFE44-.LFB44
 5771 15bf 01       		.uleb128 0x1
 5772 15c0 9C       		.byte	0x9c
 5773 15c1 E4150000 		.4byte	0x15e4
 5774 15c5 2B       		.uleb128 0x2b
 5775 15c6 B8010000 		.4byte	.LASF225
 5776 15ca 03       		.byte	0x3
 5777 15cb 1C01     		.2byte	0x11c
 5778 15cd 03130000 		.4byte	0x1303
 5779 15d1 02       		.uleb128 0x2
 5780 15d2 91       		.byte	0x91
 5781 15d3 6C       		.sleb128 -20
 5782 15d4 2C       		.uleb128 0x2c
 5783 15d5 81010000 		.4byte	.LASF48
 5784 15d9 03       		.byte	0x3
 5785 15da 1E01     		.2byte	0x11e
 5786 15dc D8090000 		.4byte	0x9d8
 5787 15e0 02       		.uleb128 0x2
 5788 15e1 91       		.byte	0x91
 5789 15e2 77       		.sleb128 -9
 5790 15e3 00       		.byte	0
 5791 15e4 2A       		.uleb128 0x2a
 5792 15e5 E40E0000 		.4byte	.LASF267
 5793 15e9 03       		.byte	0x3
 5794 15ea 3601     		.2byte	0x136
 5795 15ec 00000000 		.4byte	.LFB45
 5796 15f0 EC000000 		.4byte	.LFE45-.LFB45
 5797 15f4 01       		.uleb128 0x1
 5798 15f5 9C       		.byte	0x9c
 5799 15f6 64160000 		.4byte	0x1664
 5800 15fa 2B       		.uleb128 0x2b
 5801 15fb B8010000 		.4byte	.LASF225
 5802 15ff 03       		.byte	0x3
 5803 1600 3601     		.2byte	0x136
 5804 1602 03130000 		.4byte	0x1303
 5805 1606 02       		.uleb128 0x2
 5806 1607 91       		.byte	0x91
 5807 1608 64       		.sleb128 -28
 5808 1609 2C       		.uleb128 0x2c
 5809 160a 81010000 		.4byte	.LASF48
 5810 160e 03       		.byte	0x3
 5811 160f 3801     		.2byte	0x138
 5812 1611 D8090000 		.4byte	0x9d8
 5813 1615 02       		.uleb128 0x2
 5814 1616 91       		.byte	0x91
 5815 1617 6D       		.sleb128 -19
 5816 1618 2C       		.uleb128 0x2c
 5817 1619 AD070000 		.4byte	.LASF268
 5818 161d 03       		.byte	0x3
 5819 161e 3901     		.2byte	0x139
 5820 1620 03130000 		.4byte	0x1303
 5821 1624 02       		.uleb128 0x2
 5822 1625 91       		.byte	0x91
 5823 1626 74       		.sleb128 -12
ARM GAS  C:\Users\tmj32\AppData\Local\Temp\ccnLJfS3.s 			page 121


 5824 1627 2C       		.uleb128 0x2c
 5825 1628 E7070000 		.4byte	.LASF161
 5826 162c 03       		.byte	0x3
 5827 162d 3C01     		.2byte	0x13c
 5828 162f B9080000 		.4byte	0x8b9
 5829 1633 02       		.uleb128 0x2
 5830 1634 91       		.byte	0x91
 5831 1635 73       		.sleb128 -13
 5832 1636 2C       		.uleb128 0x2c
 5833 1637 51090000 		.4byte	.LASF244
 5834 163b 03       		.byte	0x3
 5835 163c 3D01     		.2byte	0x13d
 5836 163e 3C090000 		.4byte	0x93c
 5837 1642 02       		.uleb128 0x2
 5838 1643 91       		.byte	0x91
 5839 1644 68       		.sleb128 -24
 5840 1645 2C       		.uleb128 0x2c
 5841 1646 870F0000 		.4byte	.LASF269
 5842 164a 03       		.byte	0x3
 5843 164b 3E01     		.2byte	0x13e
 5844 164d D9000000 		.4byte	0xd9
 5845 1651 02       		.uleb128 0x2
 5846 1652 91       		.byte	0x91
 5847 1653 70       		.sleb128 -16
 5848 1654 2C       		.uleb128 0x2c
 5849 1655 F5090000 		.4byte	.LASF270
 5850 1659 03       		.byte	0x3
 5851 165a 5701     		.2byte	0x157
 5852 165c D9000000 		.4byte	0xd9
 5853 1660 02       		.uleb128 0x2
 5854 1661 91       		.byte	0x91
 5855 1662 6E       		.sleb128 -18
 5856 1663 00       		.byte	0
 5857 1664 2A       		.uleb128 0x2a
 5858 1665 590F0000 		.4byte	.LASF271
 5859 1669 03       		.byte	0x3
 5860 166a 6701     		.2byte	0x167
 5861 166c 00000000 		.4byte	.LFB46
 5862 1670 4E010000 		.4byte	.LFE46-.LFB46
 5863 1674 01       		.uleb128 0x1
 5864 1675 9C       		.byte	0x9c
 5865 1676 F3160000 		.4byte	0x16f3
 5866 167a 2B       		.uleb128 0x2b
 5867 167b B8010000 		.4byte	.LASF225
 5868 167f 03       		.byte	0x3
 5869 1680 6701     		.2byte	0x167
 5870 1682 03130000 		.4byte	0x1303
 5871 1686 02       		.uleb128 0x2
 5872 1687 91       		.byte	0x91
 5873 1688 5C       		.sleb128 -36
 5874 1689 2C       		.uleb128 0x2c
 5875 168a 81010000 		.4byte	.LASF48
 5876 168e 03       		.byte	0x3
 5877 168f 6901     		.2byte	0x169
 5878 1691 D8090000 		.4byte	0x9d8
 5879 1695 02       		.uleb128 0x2
 5880 1696 91       		.byte	0x91
ARM GAS  C:\Users\tmj32\AppData\Local\Temp\ccnLJfS3.s 			page 122


 5881 1697 6D       		.sleb128 -19
 5882 1698 2C       		.uleb128 0x2c
 5883 1699 AD070000 		.4byte	.LASF268
 5884 169d 03       		.byte	0x3
 5885 169e 6A01     		.2byte	0x16a
 5886 16a0 03130000 		.4byte	0x1303
 5887 16a4 02       		.uleb128 0x2
 5888 16a5 91       		.byte	0x91
 5889 16a6 74       		.sleb128 -12
 5890 16a7 2C       		.uleb128 0x2c
 5891 16a8 E7070000 		.4byte	.LASF161
 5892 16ac 03       		.byte	0x3
 5893 16ad 6D01     		.2byte	0x16d
 5894 16af B9080000 		.4byte	0x8b9
 5895 16b3 02       		.uleb128 0x2
 5896 16b4 91       		.byte	0x91
 5897 16b5 73       		.sleb128 -13
 5898 16b6 2C       		.uleb128 0x2c
 5899 16b7 51090000 		.4byte	.LASF244
 5900 16bb 03       		.byte	0x3
 5901 16bc 6E01     		.2byte	0x16e
 5902 16be 3C090000 		.4byte	0x93c
 5903 16c2 02       		.uleb128 0x2
 5904 16c3 91       		.byte	0x91
 5905 16c4 68       		.sleb128 -24
 5906 16c5 2C       		.uleb128 0x2c
 5907 16c6 22010000 		.4byte	.LASF272
 5908 16ca 03       		.byte	0x3
 5909 16cb 6F01     		.2byte	0x16f
 5910 16cd D9000000 		.4byte	0xd9
 5911 16d1 02       		.uleb128 0x2
 5912 16d2 91       		.byte	0x91
 5913 16d3 70       		.sleb128 -16
 5914 16d4 2C       		.uleb128 0x2c
 5915 16d5 D50C0000 		.4byte	.LASF104
 5916 16d9 03       		.byte	0x3
 5917 16da 7001     		.2byte	0x170
 5918 16dc AF050000 		.4byte	0x5af
 5919 16e0 02       		.uleb128 0x2
 5920 16e1 91       		.byte	0x91
 5921 16e2 67       		.sleb128 -25
 5922 16e3 2C       		.uleb128 0x2c
 5923 16e4 F5090000 		.4byte	.LASF270
 5924 16e8 03       		.byte	0x3
 5925 16e9 8901     		.2byte	0x189
 5926 16eb D9000000 		.4byte	0xd9
 5927 16ef 02       		.uleb128 0x2
 5928 16f0 91       		.byte	0x91
 5929 16f1 6E       		.sleb128 -18
 5930 16f2 00       		.byte	0
 5931 16f3 2A       		.uleb128 0x2a
 5932 16f4 9D090000 		.4byte	.LASF273
 5933 16f8 03       		.byte	0x3
 5934 16f9 A001     		.2byte	0x1a0
 5935 16fb 00000000 		.4byte	.LFB47
 5936 16ff 42010000 		.4byte	.LFE47-.LFB47
 5937 1703 01       		.uleb128 0x1
ARM GAS  C:\Users\tmj32\AppData\Local\Temp\ccnLJfS3.s 			page 123


 5938 1704 9C       		.byte	0x9c
 5939 1705 64170000 		.4byte	0x1764
 5940 1709 2B       		.uleb128 0x2b
 5941 170a B8010000 		.4byte	.LASF225
 5942 170e 03       		.byte	0x3
 5943 170f A001     		.2byte	0x1a0
 5944 1711 03130000 		.4byte	0x1303
 5945 1715 02       		.uleb128 0x2
 5946 1716 91       		.byte	0x91
 5947 1717 64       		.sleb128 -28
 5948 1718 2C       		.uleb128 0x2c
 5949 1719 AD070000 		.4byte	.LASF268
 5950 171d 03       		.byte	0x3
 5951 171e A201     		.2byte	0x1a2
 5952 1720 03130000 		.4byte	0x1303
 5953 1724 02       		.uleb128 0x2
 5954 1725 91       		.byte	0x91
 5955 1726 74       		.sleb128 -12
 5956 1727 2C       		.uleb128 0x2c
 5957 1728 51090000 		.4byte	.LASF244
 5958 172c 03       		.byte	0x3
 5959 172d A301     		.2byte	0x1a3
 5960 172f 3C090000 		.4byte	0x93c
 5961 1733 02       		.uleb128 0x2
 5962 1734 91       		.byte	0x91
 5963 1735 68       		.sleb128 -24
 5964 1736 2C       		.uleb128 0x2c
 5965 1737 3A080000 		.4byte	.LASF274
 5966 173b 03       		.byte	0x3
 5967 173c A401     		.2byte	0x1a4
 5968 173e CE000000 		.4byte	0xce
 5969 1742 02       		.uleb128 0x2
 5970 1743 91       		.byte	0x91
 5971 1744 70       		.sleb128 -16
 5972 1745 2C       		.uleb128 0x2c
 5973 1746 B3070000 		.4byte	.LASF275
 5974 174a 03       		.byte	0x3
 5975 174b A501     		.2byte	0x1a5
 5976 174d D9000000 		.4byte	0xd9
 5977 1751 02       		.uleb128 0x2
 5978 1752 91       		.byte	0x91
 5979 1753 6E       		.sleb128 -18
 5980 1754 2C       		.uleb128 0x2c
 5981 1755 F5090000 		.4byte	.LASF270
 5982 1759 03       		.byte	0x3
 5983 175a B701     		.2byte	0x1b7
 5984 175c D9000000 		.4byte	0xd9
 5985 1760 02       		.uleb128 0x2
 5986 1761 91       		.byte	0x91
 5987 1762 6C       		.sleb128 -20
 5988 1763 00       		.byte	0
 5989 1764 2A       		.uleb128 0x2a
 5990 1765 340E0000 		.4byte	.LASF276
 5991 1769 03       		.byte	0x3
 5992 176a C801     		.2byte	0x1c8
 5993 176c 00000000 		.4byte	.LFB48
 5994 1770 40030000 		.4byte	.LFE48-.LFB48
ARM GAS  C:\Users\tmj32\AppData\Local\Temp\ccnLJfS3.s 			page 124


 5995 1774 01       		.uleb128 0x1
 5996 1775 9C       		.byte	0x9c
 5997 1776 7B180000 		.4byte	0x187b
 5998 177a 2B       		.uleb128 0x2b
 5999 177b B8010000 		.4byte	.LASF225
 6000 177f 03       		.byte	0x3
 6001 1780 C801     		.2byte	0x1c8
 6002 1782 03130000 		.4byte	0x1303
 6003 1786 03       		.uleb128 0x3
 6004 1787 91       		.byte	0x91
 6005 1788 BC7F     		.sleb128 -68
 6006 178a 2C       		.uleb128 0x2c
 6007 178b CB0A0000 		.4byte	.LASF277
 6008 178f 03       		.byte	0x3
 6009 1790 CA01     		.2byte	0x1ca
 6010 1792 03130000 		.4byte	0x1303
 6011 1796 02       		.uleb128 0x2
 6012 1797 91       		.byte	0x91
 6013 1798 6C       		.sleb128 -20
 6014 1799 2C       		.uleb128 0x2c
 6015 179a A70A0000 		.4byte	.LASF278
 6016 179e 03       		.byte	0x3
 6017 179f CB01     		.2byte	0x1cb
 6018 17a1 03130000 		.4byte	0x1303
 6019 17a5 02       		.uleb128 0x2
 6020 17a6 91       		.byte	0x91
 6021 17a7 68       		.sleb128 -24
 6022 17a8 2C       		.uleb128 0x2c
 6023 17a9 CB0C0000 		.4byte	.LASF279
 6024 17ad 03       		.byte	0x3
 6025 17ae CC01     		.2byte	0x1cc
 6026 17b0 03130000 		.4byte	0x1303
 6027 17b4 02       		.uleb128 0x2
 6028 17b5 91       		.byte	0x91
 6029 17b6 64       		.sleb128 -28
 6030 17b7 2C       		.uleb128 0x2c
 6031 17b8 51090000 		.4byte	.LASF244
 6032 17bc 03       		.byte	0x3
 6033 17bd CD01     		.2byte	0x1cd
 6034 17bf 3C090000 		.4byte	0x93c
 6035 17c3 02       		.uleb128 0x2
 6036 17c4 91       		.byte	0x91
 6037 17c5 50       		.sleb128 -48
 6038 17c6 2C       		.uleb128 0x2c
 6039 17c7 2C010000 		.4byte	.LASF280
 6040 17cb 03       		.byte	0x3
 6041 17cc CE01     		.2byte	0x1ce
 6042 17ce D9000000 		.4byte	0xd9
 6043 17d2 02       		.uleb128 0x2
 6044 17d3 91       		.byte	0x91
 6045 17d4 4E       		.sleb128 -50
 6046 17d5 2C       		.uleb128 0x2c
 6047 17d6 9E010000 		.4byte	.LASF281
 6048 17da 03       		.byte	0x3
 6049 17db CF01     		.2byte	0x1cf
 6050 17dd D9000000 		.4byte	0xd9
 6051 17e1 02       		.uleb128 0x2
ARM GAS  C:\Users\tmj32\AppData\Local\Temp\ccnLJfS3.s 			page 125


 6052 17e2 91       		.byte	0x91
 6053 17e3 62       		.sleb128 -30
 6054 17e4 2D       		.uleb128 0x2d
 6055 17e5 00000000 		.4byte	.Ldebug_ranges0+0
 6056 17e9 2C       		.uleb128 0x2c
 6057 17ea E1010000 		.4byte	.LASF282
 6058 17ee 03       		.byte	0x3
 6059 17ef DA01     		.2byte	0x1da
 6060 17f1 D9000000 		.4byte	0xd9
 6061 17f5 02       		.uleb128 0x2
 6062 17f6 91       		.byte	0x91
 6063 17f7 60       		.sleb128 -32
 6064 17f8 2C       		.uleb128 0x2c
 6065 17f9 C8010000 		.4byte	.LASF283
 6066 17fd 03       		.byte	0x3
 6067 17fe DB01     		.2byte	0x1db
 6068 1800 D9000000 		.4byte	0xd9
 6069 1804 02       		.uleb128 0x2
 6070 1805 91       		.byte	0x91
 6071 1806 5E       		.sleb128 -34
 6072 1807 2C       		.uleb128 0x2c
 6073 1808 3A080000 		.4byte	.LASF274
 6074 180c 03       		.byte	0x3
 6075 180d DD01     		.2byte	0x1dd
 6076 180f CE000000 		.4byte	0xce
 6077 1813 02       		.uleb128 0x2
 6078 1814 91       		.byte	0x91
 6079 1815 58       		.sleb128 -40
 6080 1816 26       		.uleb128 0x26
 6081 1817 7C010000 		.4byte	.LBB5
 6082 181b A6000000 		.4byte	.LBE5-.LBB5
 6083 181f 51180000 		.4byte	0x1851
 6084 1823 2C       		.uleb128 0x2c
 6085 1824 4A050000 		.4byte	.LASF284
 6086 1828 03       		.byte	0x3
 6087 1829 0402     		.2byte	0x204
 6088 182b 03130000 		.4byte	0x1303
 6089 182f 02       		.uleb128 0x2
 6090 1830 91       		.byte	0x91
 6091 1831 48       		.sleb128 -56
 6092 1832 2C       		.uleb128 0x2c
 6093 1833 4F050000 		.4byte	.LASF285
 6094 1837 03       		.byte	0x3
 6095 1838 0502     		.2byte	0x205
 6096 183a 03130000 		.4byte	0x1303
 6097 183e 02       		.uleb128 0x2
 6098 183f 91       		.byte	0x91
 6099 1840 44       		.sleb128 -60
 6100 1841 2E       		.uleb128 0x2e
 6101 1842 70616400 		.ascii	"pad\000"
 6102 1846 03       		.byte	0x3
 6103 1847 0702     		.2byte	0x207
 6104 1849 D9000000 		.4byte	0xd9
 6105 184d 02       		.uleb128 0x2
 6106 184e 91       		.byte	0x91
 6107 184f 42       		.sleb128 -62
 6108 1850 00       		.byte	0
ARM GAS  C:\Users\tmj32\AppData\Local\Temp\ccnLJfS3.s 			page 126


 6109 1851 27       		.uleb128 0x27
 6110 1852 24020000 		.4byte	.LBB6
 6111 1856 CC000000 		.4byte	.LBE6-.LBB6
 6112 185a 2C       		.uleb128 0x2c
 6113 185b 27030000 		.4byte	.LASF286
 6114 185f 03       		.byte	0x3
 6115 1860 0E02     		.2byte	0x20e
 6116 1862 D9000000 		.4byte	0xd9
 6117 1866 02       		.uleb128 0x2
 6118 1867 91       		.byte	0x91
 6119 1868 40       		.sleb128 -64
 6120 1869 2C       		.uleb128 0x2c
 6121 186a 98010000 		.4byte	.LASF287
 6122 186e 03       		.byte	0x3
 6123 186f 0F02     		.2byte	0x20f
 6124 1871 D9000000 		.4byte	0xd9
 6125 1875 02       		.uleb128 0x2
 6126 1876 91       		.byte	0x91
 6127 1877 56       		.sleb128 -42
 6128 1878 00       		.byte	0
 6129 1879 00       		.byte	0
 6130 187a 00       		.byte	0
 6131 187b 2A       		.uleb128 0x2a
 6132 187c 0F0D0000 		.4byte	.LASF288
 6133 1880 03       		.byte	0x3
 6134 1881 2802     		.2byte	0x228
 6135 1883 00000000 		.4byte	.LFB49
 6136 1887 7A010000 		.4byte	.LFE49-.LFB49
 6137 188b 01       		.uleb128 0x1
 6138 188c 9C       		.byte	0x9c
 6139 188d 55190000 		.4byte	0x1955
 6140 1891 2B       		.uleb128 0x2b
 6141 1892 B8010000 		.4byte	.LASF225
 6142 1896 03       		.byte	0x3
 6143 1897 2802     		.2byte	0x228
 6144 1899 03130000 		.4byte	0x1303
 6145 189d 02       		.uleb128 0x2
 6146 189e 91       		.byte	0x91
 6147 189f 54       		.sleb128 -44
 6148 18a0 2C       		.uleb128 0x2c
 6149 18a1 AD070000 		.4byte	.LASF268
 6150 18a5 03       		.byte	0x3
 6151 18a6 2A02     		.2byte	0x22a
 6152 18a8 03130000 		.4byte	0x1303
 6153 18ac 02       		.uleb128 0x2
 6154 18ad 91       		.byte	0x91
 6155 18ae 74       		.sleb128 -12
 6156 18af 2C       		.uleb128 0x2c
 6157 18b0 51090000 		.4byte	.LASF244
 6158 18b4 03       		.byte	0x3
 6159 18b5 2B02     		.2byte	0x22b
 6160 18b7 3C090000 		.4byte	0x93c
 6161 18bb 02       		.uleb128 0x2
 6162 18bc 91       		.byte	0x91
 6163 18bd 68       		.sleb128 -24
 6164 18be 2C       		.uleb128 0x2c
 6165 18bf A7070000 		.4byte	.LASF289
ARM GAS  C:\Users\tmj32\AppData\Local\Temp\ccnLJfS3.s 			page 127


 6166 18c3 03       		.byte	0x3
 6167 18c4 2C02     		.2byte	0x22c
 6168 18c6 D9000000 		.4byte	0xd9
 6169 18ca 02       		.uleb128 0x2
 6170 18cb 91       		.byte	0x91
 6171 18cc 66       		.sleb128 -26
 6172 18cd 2C       		.uleb128 0x2c
 6173 18ce 2C010000 		.4byte	.LASF280
 6174 18d2 03       		.byte	0x3
 6175 18d3 2D02     		.2byte	0x22d
 6176 18d5 D9000000 		.4byte	0xd9
 6177 18d9 02       		.uleb128 0x2
 6178 18da 91       		.byte	0x91
 6179 18db 64       		.sleb128 -28
 6180 18dc 2C       		.uleb128 0x2c
 6181 18dd 7E080000 		.4byte	.LASF290
 6182 18e1 03       		.byte	0x3
 6183 18e2 2E02     		.2byte	0x22e
 6184 18e4 D9000000 		.4byte	0xd9
 6185 18e8 02       		.uleb128 0x2
 6186 18e9 91       		.byte	0x91
 6187 18ea 62       		.sleb128 -30
 6188 18eb 2C       		.uleb128 0x2c
 6189 18ec 47010000 		.4byte	.LASF291
 6190 18f0 03       		.byte	0x3
 6191 18f1 2F02     		.2byte	0x22f
 6192 18f3 D9000000 		.4byte	0xd9
 6193 18f7 02       		.uleb128 0x2
 6194 18f8 91       		.byte	0x91
 6195 18f9 60       		.sleb128 -32
 6196 18fa 2C       		.uleb128 0x2c
 6197 18fb 5F020000 		.4byte	.LASF292
 6198 18ff 03       		.byte	0x3
 6199 1900 3002     		.2byte	0x230
 6200 1902 C3000000 		.4byte	0xc3
 6201 1906 02       		.uleb128 0x2
 6202 1907 91       		.byte	0x91
 6203 1908 5E       		.sleb128 -34
 6204 1909 2C       		.uleb128 0x2c
 6205 190a FB000000 		.4byte	.LASF293
 6206 190e 03       		.byte	0x3
 6207 190f 3102     		.2byte	0x231
 6208 1911 D9000000 		.4byte	0xd9
 6209 1915 02       		.uleb128 0x2
 6210 1916 91       		.byte	0x91
 6211 1917 72       		.sleb128 -14
 6212 1918 2C       		.uleb128 0x2c
 6213 1919 6A0E0000 		.4byte	.LASF294
 6214 191d 03       		.byte	0x3
 6215 191e 3702     		.2byte	0x237
 6216 1920 D9000000 		.4byte	0xd9
 6217 1924 02       		.uleb128 0x2
 6218 1925 91       		.byte	0x91
 6219 1926 5C       		.sleb128 -36
 6220 1927 2C       		.uleb128 0x2c
 6221 1928 98010000 		.4byte	.LASF287
 6222 192c 03       		.byte	0x3
ARM GAS  C:\Users\tmj32\AppData\Local\Temp\ccnLJfS3.s 			page 128


 6223 192d 3E02     		.2byte	0x23e
 6224 192f D9000000 		.4byte	0xd9
 6225 1933 02       		.uleb128 0x2
 6226 1934 91       		.byte	0x91
 6227 1935 70       		.sleb128 -16
 6228 1936 2C       		.uleb128 0x2c
 6229 1937 9E010000 		.4byte	.LASF281
 6230 193b 03       		.byte	0x3
 6231 193c 3F02     		.2byte	0x23f
 6232 193e D9000000 		.4byte	0xd9
 6233 1942 02       		.uleb128 0x2
 6234 1943 91       		.byte	0x91
 6235 1944 6E       		.sleb128 -18
 6236 1945 2C       		.uleb128 0x2c
 6237 1946 88030000 		.4byte	.LASF295
 6238 194a 03       		.byte	0x3
 6239 194b 4002     		.2byte	0x240
 6240 194d C3000000 		.4byte	0xc3
 6241 1951 02       		.uleb128 0x2
 6242 1952 91       		.byte	0x91
 6243 1953 6C       		.sleb128 -20
 6244 1954 00       		.byte	0
 6245 1955 2A       		.uleb128 0x2a
 6246 1956 32010000 		.4byte	.LASF296
 6247 195a 03       		.byte	0x3
 6248 195b 5B02     		.2byte	0x25b
 6249 195d 00000000 		.4byte	.LFB50
 6250 1961 E8030000 		.4byte	.LFE50-.LFB50
 6251 1965 01       		.uleb128 0x1
 6252 1966 9C       		.byte	0x9c
 6253 1967 121A0000 		.4byte	0x1a12
 6254 196b 2B       		.uleb128 0x2b
 6255 196c B8010000 		.4byte	.LASF225
 6256 1970 03       		.byte	0x3
 6257 1971 5B02     		.2byte	0x25b
 6258 1973 03130000 		.4byte	0x1303
 6259 1977 03       		.uleb128 0x3
 6260 1978 91       		.byte	0x91
 6261 1979 BC7F     		.sleb128 -68
 6262 197b 2E       		.uleb128 0x2e
 6263 197c 65787400 		.ascii	"ext\000"
 6264 1980 03       		.byte	0x3
 6265 1981 5D02     		.2byte	0x25d
 6266 1983 99130000 		.4byte	0x1399
 6267 1987 02       		.uleb128 0x2
 6268 1988 91       		.byte	0x91
 6269 1989 70       		.sleb128 -16
 6270 198a 2C       		.uleb128 0x2c
 6271 198b 73080000 		.4byte	.LASF297
 6272 198f 03       		.byte	0x3
 6273 1990 6402     		.2byte	0x264
 6274 1992 CA020000 		.4byte	0x2ca
 6275 1996 02       		.uleb128 0x2
 6276 1997 91       		.byte	0x91
 6277 1998 58       		.sleb128 -40
 6278 1999 2E       		.uleb128 0x2e
 6279 199a 6F726900 		.ascii	"ori\000"
ARM GAS  C:\Users\tmj32\AppData\Local\Temp\ccnLJfS3.s 			page 129


 6280 199e 03       		.byte	0x3
 6281 199f 6502     		.2byte	0x265
 6282 19a1 CA020000 		.4byte	0x2ca
 6283 19a5 02       		.uleb128 0x2
 6284 19a6 91       		.byte	0x91
 6285 19a7 50       		.sleb128 -48
 6286 19a8 2C       		.uleb128 0x2c
 6287 19a9 51090000 		.4byte	.LASF244
 6288 19ad 03       		.byte	0x3
 6289 19ae 6602     		.2byte	0x266
 6290 19b0 3C090000 		.4byte	0x93c
 6291 19b4 02       		.uleb128 0x2
 6292 19b5 91       		.byte	0x91
 6293 19b6 6C       		.sleb128 -20
 6294 19b7 2C       		.uleb128 0x2c
 6295 19b8 490F0000 		.4byte	.LASF298
 6296 19bc 03       		.byte	0x3
 6297 19bd 6702     		.2byte	0x267
 6298 19bf 03130000 		.4byte	0x1303
 6299 19c3 02       		.uleb128 0x2
 6300 19c4 91       		.byte	0x91
 6301 19c5 74       		.sleb128 -12
 6302 19c6 2E       		.uleb128 0x2e
 6303 19c7 70617200 		.ascii	"par\000"
 6304 19cb 03       		.byte	0x3
 6305 19cc 6902     		.2byte	0x269
 6306 19ce 03130000 		.4byte	0x1303
 6307 19d2 02       		.uleb128 0x2
 6308 19d3 91       		.byte	0x91
 6309 19d4 68       		.sleb128 -24
 6310 19d5 2C       		.uleb128 0x2c
 6311 19d6 0A090000 		.4byte	.LASF299
 6312 19da 03       		.byte	0x3
 6313 19db 6A02     		.2byte	0x26a
 6314 19dd 3C090000 		.4byte	0x93c
 6315 19e1 02       		.uleb128 0x2
 6316 19e2 91       		.byte	0x91
 6317 19e3 64       		.sleb128 -28
 6318 19e4 2C       		.uleb128 0x2c
 6319 19e5 D40A0000 		.4byte	.LASF300
 6320 19e9 03       		.byte	0x3
 6321 19ea 6B02     		.2byte	0x26b
 6322 19ec CA020000 		.4byte	0x2ca
 6323 19f0 02       		.uleb128 0x2
 6324 19f1 91       		.byte	0x91
 6325 19f2 48       		.sleb128 -56
 6326 19f3 2C       		.uleb128 0x2c
 6327 19f4 860E0000 		.4byte	.LASF301
 6328 19f8 03       		.byte	0x3
 6329 19f9 7602     		.2byte	0x276
 6330 19fb BF010000 		.4byte	0x1bf
 6331 19ff 02       		.uleb128 0x2
 6332 1a00 91       		.byte	0x91
 6333 1a01 63       		.sleb128 -29
 6334 1a02 2C       		.uleb128 0x2c
 6335 1a03 5D0A0000 		.4byte	.LASF302
 6336 1a07 03       		.byte	0x3
ARM GAS  C:\Users\tmj32\AppData\Local\Temp\ccnLJfS3.s 			page 130


 6337 1a08 8D02     		.2byte	0x28d
 6338 1a0a CA020000 		.4byte	0x2ca
 6339 1a0e 02       		.uleb128 0x2
 6340 1a0f 91       		.byte	0x91
 6341 1a10 40       		.sleb128 -64
 6342 1a11 00       		.byte	0
 6343 1a12 24       		.uleb128 0x24
 6344 1a13 BB0A0000 		.4byte	.LASF303
 6345 1a17 03       		.byte	0x3
 6346 1a18 32       		.byte	0x32
 6347 1a19 04080000 		.4byte	0x804
 6348 1a1d 05       		.uleb128 0x5
 6349 1a1e 03       		.byte	0x3
 6350 1a1f 00000000 		.4byte	ancestor_signal
 6351 1a23 2F       		.uleb128 0x2f
 6352 1a24 750C0000 		.4byte	.LASF307
 6353 1a28 09       		.byte	0x9
 6354 1a29 1101     		.2byte	0x111
 6355 1a2b 00050000 		.4byte	0x500
 6356 1a2f 00       		.byte	0
 6357              		.section	.debug_abbrev,"",%progbits
 6358              	.Ldebug_abbrev0:
 6359 0000 01       		.uleb128 0x1
 6360 0001 11       		.uleb128 0x11
 6361 0002 01       		.byte	0x1
 6362 0003 25       		.uleb128 0x25
 6363 0004 0E       		.uleb128 0xe
 6364 0005 13       		.uleb128 0x13
 6365 0006 0B       		.uleb128 0xb
 6366 0007 03       		.uleb128 0x3
 6367 0008 0E       		.uleb128 0xe
 6368 0009 1B       		.uleb128 0x1b
 6369 000a 0E       		.uleb128 0xe
 6370 000b 55       		.uleb128 0x55
 6371 000c 17       		.uleb128 0x17
 6372 000d 11       		.uleb128 0x11
 6373 000e 01       		.uleb128 0x1
 6374 000f 10       		.uleb128 0x10
 6375 0010 17       		.uleb128 0x17
 6376 0011 00       		.byte	0
 6377 0012 00       		.byte	0
 6378 0013 02       		.uleb128 0x2
 6379 0014 16       		.uleb128 0x16
 6380 0015 00       		.byte	0
 6381 0016 03       		.uleb128 0x3
 6382 0017 0E       		.uleb128 0xe
 6383 0018 3A       		.uleb128 0x3a
 6384 0019 0B       		.uleb128 0xb
 6385 001a 3B       		.uleb128 0x3b
 6386 001b 0B       		.uleb128 0xb
 6387 001c 49       		.uleb128 0x49
 6388 001d 13       		.uleb128 0x13
 6389 001e 00       		.byte	0
 6390 001f 00       		.byte	0
 6391 0020 03       		.uleb128 0x3
 6392 0021 24       		.uleb128 0x24
 6393 0022 00       		.byte	0
ARM GAS  C:\Users\tmj32\AppData\Local\Temp\ccnLJfS3.s 			page 131


 6394 0023 0B       		.uleb128 0xb
 6395 0024 0B       		.uleb128 0xb
 6396 0025 3E       		.uleb128 0x3e
 6397 0026 0B       		.uleb128 0xb
 6398 0027 03       		.uleb128 0x3
 6399 0028 0E       		.uleb128 0xe
 6400 0029 00       		.byte	0
 6401 002a 00       		.byte	0
 6402 002b 04       		.uleb128 0x4
 6403 002c 24       		.uleb128 0x24
 6404 002d 00       		.byte	0
 6405 002e 0B       		.uleb128 0xb
 6406 002f 0B       		.uleb128 0xb
 6407 0030 3E       		.uleb128 0x3e
 6408 0031 0B       		.uleb128 0xb
 6409 0032 03       		.uleb128 0x3
 6410 0033 08       		.uleb128 0x8
 6411 0034 00       		.byte	0
 6412 0035 00       		.byte	0
 6413 0036 05       		.uleb128 0x5
 6414 0037 0F       		.uleb128 0xf
 6415 0038 00       		.byte	0
 6416 0039 0B       		.uleb128 0xb
 6417 003a 0B       		.uleb128 0xb
 6418 003b 00       		.byte	0
 6419 003c 00       		.byte	0
 6420 003d 06       		.uleb128 0x6
 6421 003e 13       		.uleb128 0x13
 6422 003f 01       		.byte	0x1
 6423 0040 0B       		.uleb128 0xb
 6424 0041 0B       		.uleb128 0xb
 6425 0042 3A       		.uleb128 0x3a
 6426 0043 0B       		.uleb128 0xb
 6427 0044 3B       		.uleb128 0x3b
 6428 0045 0B       		.uleb128 0xb
 6429 0046 01       		.uleb128 0x1
 6430 0047 13       		.uleb128 0x13
 6431 0048 00       		.byte	0
 6432 0049 00       		.byte	0
 6433 004a 07       		.uleb128 0x7
 6434 004b 0D       		.uleb128 0xd
 6435 004c 00       		.byte	0
 6436 004d 03       		.uleb128 0x3
 6437 004e 0E       		.uleb128 0xe
 6438 004f 3A       		.uleb128 0x3a
 6439 0050 0B       		.uleb128 0xb
 6440 0051 3B       		.uleb128 0x3b
 6441 0052 0B       		.uleb128 0xb
 6442 0053 49       		.uleb128 0x49
 6443 0054 13       		.uleb128 0x13
 6444 0055 38       		.uleb128 0x38
 6445 0056 0B       		.uleb128 0xb
 6446 0057 00       		.byte	0
 6447 0058 00       		.byte	0
 6448 0059 08       		.uleb128 0x8
 6449 005a 0D       		.uleb128 0xd
 6450 005b 00       		.byte	0
ARM GAS  C:\Users\tmj32\AppData\Local\Temp\ccnLJfS3.s 			page 132


 6451 005c 03       		.uleb128 0x3
 6452 005d 08       		.uleb128 0x8
 6453 005e 3A       		.uleb128 0x3a
 6454 005f 0B       		.uleb128 0xb
 6455 0060 3B       		.uleb128 0x3b
 6456 0061 0B       		.uleb128 0xb
 6457 0062 49       		.uleb128 0x49
 6458 0063 13       		.uleb128 0x13
 6459 0064 38       		.uleb128 0x38
 6460 0065 0B       		.uleb128 0xb
 6461 0066 00       		.byte	0
 6462 0067 00       		.byte	0
 6463 0068 09       		.uleb128 0x9
 6464 0069 13       		.uleb128 0x13
 6465 006a 01       		.byte	0x1
 6466 006b 03       		.uleb128 0x3
 6467 006c 0E       		.uleb128 0xe
 6468 006d 0B       		.uleb128 0xb
 6469 006e 0B       		.uleb128 0xb
 6470 006f 3A       		.uleb128 0x3a
 6471 0070 0B       		.uleb128 0xb
 6472 0071 3B       		.uleb128 0x3b
 6473 0072 0B       		.uleb128 0xb
 6474 0073 01       		.uleb128 0x1
 6475 0074 13       		.uleb128 0x13
 6476 0075 00       		.byte	0
 6477 0076 00       		.byte	0
 6478 0077 0A       		.uleb128 0xa
 6479 0078 0D       		.uleb128 0xd
 6480 0079 00       		.byte	0
 6481 007a 03       		.uleb128 0x3
 6482 007b 0E       		.uleb128 0xe
 6483 007c 3A       		.uleb128 0x3a
 6484 007d 0B       		.uleb128 0xb
 6485 007e 3B       		.uleb128 0x3b
 6486 007f 0B       		.uleb128 0xb
 6487 0080 49       		.uleb128 0x49
 6488 0081 13       		.uleb128 0x13
 6489 0082 0B       		.uleb128 0xb
 6490 0083 0B       		.uleb128 0xb
 6491 0084 0D       		.uleb128 0xd
 6492 0085 0B       		.uleb128 0xb
 6493 0086 0C       		.uleb128 0xc
 6494 0087 0B       		.uleb128 0xb
 6495 0088 38       		.uleb128 0x38
 6496 0089 0B       		.uleb128 0xb
 6497 008a 00       		.byte	0
 6498 008b 00       		.byte	0
 6499 008c 0B       		.uleb128 0xb
 6500 008d 15       		.uleb128 0x15
 6501 008e 01       		.byte	0x1
 6502 008f 27       		.uleb128 0x27
 6503 0090 19       		.uleb128 0x19
 6504 0091 49       		.uleb128 0x49
 6505 0092 13       		.uleb128 0x13
 6506 0093 01       		.uleb128 0x1
 6507 0094 13       		.uleb128 0x13
ARM GAS  C:\Users\tmj32\AppData\Local\Temp\ccnLJfS3.s 			page 133


 6508 0095 00       		.byte	0
 6509 0096 00       		.byte	0
 6510 0097 0C       		.uleb128 0xc
 6511 0098 05       		.uleb128 0x5
 6512 0099 00       		.byte	0
 6513 009a 49       		.uleb128 0x49
 6514 009b 13       		.uleb128 0x13
 6515 009c 00       		.byte	0
 6516 009d 00       		.byte	0
 6517 009e 0D       		.uleb128 0xd
 6518 009f 0F       		.uleb128 0xf
 6519 00a0 00       		.byte	0
 6520 00a1 0B       		.uleb128 0xb
 6521 00a2 0B       		.uleb128 0xb
 6522 00a3 49       		.uleb128 0x49
 6523 00a4 13       		.uleb128 0x13
 6524 00a5 00       		.byte	0
 6525 00a6 00       		.byte	0
 6526 00a7 0E       		.uleb128 0xe
 6527 00a8 26       		.uleb128 0x26
 6528 00a9 00       		.byte	0
 6529 00aa 49       		.uleb128 0x49
 6530 00ab 13       		.uleb128 0x13
 6531 00ac 00       		.byte	0
 6532 00ad 00       		.byte	0
 6533 00ae 0F       		.uleb128 0xf
 6534 00af 17       		.uleb128 0x17
 6535 00b0 01       		.byte	0x1
 6536 00b1 0B       		.uleb128 0xb
 6537 00b2 0B       		.uleb128 0xb
 6538 00b3 3A       		.uleb128 0x3a
 6539 00b4 0B       		.uleb128 0xb
 6540 00b5 3B       		.uleb128 0x3b
 6541 00b6 0B       		.uleb128 0xb
 6542 00b7 01       		.uleb128 0x1
 6543 00b8 13       		.uleb128 0x13
 6544 00b9 00       		.byte	0
 6545 00ba 00       		.byte	0
 6546 00bb 10       		.uleb128 0x10
 6547 00bc 0D       		.uleb128 0xd
 6548 00bd 00       		.byte	0
 6549 00be 03       		.uleb128 0x3
 6550 00bf 08       		.uleb128 0x8
 6551 00c0 3A       		.uleb128 0x3a
 6552 00c1 0B       		.uleb128 0xb
 6553 00c2 3B       		.uleb128 0x3b
 6554 00c3 0B       		.uleb128 0xb
 6555 00c4 49       		.uleb128 0x49
 6556 00c5 13       		.uleb128 0x13
 6557 00c6 00       		.byte	0
 6558 00c7 00       		.byte	0
 6559 00c8 11       		.uleb128 0x11
 6560 00c9 0D       		.uleb128 0xd
 6561 00ca 00       		.byte	0
 6562 00cb 03       		.uleb128 0x3
 6563 00cc 0E       		.uleb128 0xe
 6564 00cd 3A       		.uleb128 0x3a
ARM GAS  C:\Users\tmj32\AppData\Local\Temp\ccnLJfS3.s 			page 134


 6565 00ce 0B       		.uleb128 0xb
 6566 00cf 3B       		.uleb128 0x3b
 6567 00d0 0B       		.uleb128 0xb
 6568 00d1 49       		.uleb128 0x49
 6569 00d2 13       		.uleb128 0x13
 6570 00d3 00       		.byte	0
 6571 00d4 00       		.byte	0
 6572 00d5 12       		.uleb128 0x12
 6573 00d6 16       		.uleb128 0x16
 6574 00d7 00       		.byte	0
 6575 00d8 03       		.uleb128 0x3
 6576 00d9 0E       		.uleb128 0xe
 6577 00da 3A       		.uleb128 0x3a
 6578 00db 0B       		.uleb128 0xb
 6579 00dc 3B       		.uleb128 0x3b
 6580 00dd 05       		.uleb128 0x5
 6581 00de 49       		.uleb128 0x49
 6582 00df 13       		.uleb128 0x13
 6583 00e0 00       		.byte	0
 6584 00e1 00       		.byte	0
 6585 00e2 13       		.uleb128 0x13
 6586 00e3 04       		.uleb128 0x4
 6587 00e4 01       		.byte	0x1
 6588 00e5 0B       		.uleb128 0xb
 6589 00e6 0B       		.uleb128 0xb
 6590 00e7 49       		.uleb128 0x49
 6591 00e8 13       		.uleb128 0x13
 6592 00e9 3A       		.uleb128 0x3a
 6593 00ea 0B       		.uleb128 0xb
 6594 00eb 3B       		.uleb128 0x3b
 6595 00ec 0B       		.uleb128 0xb
 6596 00ed 01       		.uleb128 0x1
 6597 00ee 13       		.uleb128 0x13
 6598 00ef 00       		.byte	0
 6599 00f0 00       		.byte	0
 6600 00f1 14       		.uleb128 0x14
 6601 00f2 28       		.uleb128 0x28
 6602 00f3 00       		.byte	0
 6603 00f4 03       		.uleb128 0x3
 6604 00f5 0E       		.uleb128 0xe
 6605 00f6 1C       		.uleb128 0x1c
 6606 00f7 0B       		.uleb128 0xb
 6607 00f8 00       		.byte	0
 6608 00f9 00       		.byte	0
 6609 00fa 15       		.uleb128 0x15
 6610 00fb 0D       		.uleb128 0xd
 6611 00fc 00       		.byte	0
 6612 00fd 03       		.uleb128 0x3
 6613 00fe 08       		.uleb128 0x8
 6614 00ff 3A       		.uleb128 0x3a
 6615 0100 0B       		.uleb128 0xb
 6616 0101 3B       		.uleb128 0x3b
 6617 0102 0B       		.uleb128 0xb
 6618 0103 49       		.uleb128 0x49
 6619 0104 13       		.uleb128 0x13
 6620 0105 0B       		.uleb128 0xb
 6621 0106 0B       		.uleb128 0xb
ARM GAS  C:\Users\tmj32\AppData\Local\Temp\ccnLJfS3.s 			page 135


 6622 0107 0D       		.uleb128 0xd
 6623 0108 0B       		.uleb128 0xb
 6624 0109 0C       		.uleb128 0xc
 6625 010a 0B       		.uleb128 0xb
 6626 010b 38       		.uleb128 0x38
 6627 010c 0B       		.uleb128 0xb
 6628 010d 00       		.byte	0
 6629 010e 00       		.byte	0
 6630 010f 16       		.uleb128 0x16
 6631 0110 15       		.uleb128 0x15
 6632 0111 01       		.byte	0x1
 6633 0112 27       		.uleb128 0x27
 6634 0113 19       		.uleb128 0x19
 6635 0114 01       		.uleb128 0x1
 6636 0115 13       		.uleb128 0x13
 6637 0116 00       		.byte	0
 6638 0117 00       		.byte	0
 6639 0118 17       		.uleb128 0x17
 6640 0119 0D       		.uleb128 0xd
 6641 011a 00       		.byte	0
 6642 011b 03       		.uleb128 0x3
 6643 011c 08       		.uleb128 0x8
 6644 011d 3A       		.uleb128 0x3a
 6645 011e 0B       		.uleb128 0xb
 6646 011f 3B       		.uleb128 0x3b
 6647 0120 05       		.uleb128 0x5
 6648 0121 49       		.uleb128 0x49
 6649 0122 13       		.uleb128 0x13
 6650 0123 38       		.uleb128 0x38
 6651 0124 0B       		.uleb128 0xb
 6652 0125 00       		.byte	0
 6653 0126 00       		.byte	0
 6654 0127 18       		.uleb128 0x18
 6655 0128 0D       		.uleb128 0xd
 6656 0129 00       		.byte	0
 6657 012a 03       		.uleb128 0x3
 6658 012b 0E       		.uleb128 0xe
 6659 012c 3A       		.uleb128 0x3a
 6660 012d 0B       		.uleb128 0xb
 6661 012e 3B       		.uleb128 0x3b
 6662 012f 05       		.uleb128 0x5
 6663 0130 49       		.uleb128 0x49
 6664 0131 13       		.uleb128 0x13
 6665 0132 38       		.uleb128 0x38
 6666 0133 0B       		.uleb128 0xb
 6667 0134 00       		.byte	0
 6668 0135 00       		.byte	0
 6669 0136 19       		.uleb128 0x19
 6670 0137 13       		.uleb128 0x13
 6671 0138 01       		.byte	0x1
 6672 0139 0B       		.uleb128 0xb
 6673 013a 0B       		.uleb128 0xb
 6674 013b 3A       		.uleb128 0x3a
 6675 013c 0B       		.uleb128 0xb
 6676 013d 3B       		.uleb128 0x3b
 6677 013e 05       		.uleb128 0x5
 6678 013f 01       		.uleb128 0x1
ARM GAS  C:\Users\tmj32\AppData\Local\Temp\ccnLJfS3.s 			page 136


 6679 0140 13       		.uleb128 0x13
 6680 0141 00       		.byte	0
 6681 0142 00       		.byte	0
 6682 0143 1A       		.uleb128 0x1a
 6683 0144 13       		.uleb128 0x13
 6684 0145 01       		.byte	0x1
 6685 0146 0B       		.uleb128 0xb
 6686 0147 05       		.uleb128 0x5
 6687 0148 3A       		.uleb128 0x3a
 6688 0149 0B       		.uleb128 0xb
 6689 014a 3B       		.uleb128 0x3b
 6690 014b 0B       		.uleb128 0xb
 6691 014c 01       		.uleb128 0x1
 6692 014d 13       		.uleb128 0x13
 6693 014e 00       		.byte	0
 6694 014f 00       		.byte	0
 6695 0150 1B       		.uleb128 0x1b
 6696 0151 0D       		.uleb128 0xd
 6697 0152 00       		.byte	0
 6698 0153 03       		.uleb128 0x3
 6699 0154 0E       		.uleb128 0xe
 6700 0155 3A       		.uleb128 0x3a
 6701 0156 0B       		.uleb128 0xb
 6702 0157 3B       		.uleb128 0x3b
 6703 0158 0B       		.uleb128 0xb
 6704 0159 49       		.uleb128 0x49
 6705 015a 13       		.uleb128 0x13
 6706 015b 38       		.uleb128 0x38
 6707 015c 05       		.uleb128 0x5
 6708 015d 00       		.byte	0
 6709 015e 00       		.byte	0
 6710 015f 1C       		.uleb128 0x1c
 6711 0160 0D       		.uleb128 0xd
 6712 0161 00       		.byte	0
 6713 0162 03       		.uleb128 0x3
 6714 0163 08       		.uleb128 0x8
 6715 0164 3A       		.uleb128 0x3a
 6716 0165 0B       		.uleb128 0xb
 6717 0166 3B       		.uleb128 0x3b
 6718 0167 0B       		.uleb128 0xb
 6719 0168 49       		.uleb128 0x49
 6720 0169 13       		.uleb128 0x13
 6721 016a 38       		.uleb128 0x38
 6722 016b 05       		.uleb128 0x5
 6723 016c 00       		.byte	0
 6724 016d 00       		.byte	0
 6725 016e 1D       		.uleb128 0x1d
 6726 016f 0D       		.uleb128 0xd
 6727 0170 00       		.byte	0
 6728 0171 03       		.uleb128 0x3
 6729 0172 0E       		.uleb128 0xe
 6730 0173 3A       		.uleb128 0x3a
 6731 0174 0B       		.uleb128 0xb
 6732 0175 3B       		.uleb128 0x3b
 6733 0176 05       		.uleb128 0x5
 6734 0177 49       		.uleb128 0x49
 6735 0178 13       		.uleb128 0x13
ARM GAS  C:\Users\tmj32\AppData\Local\Temp\ccnLJfS3.s 			page 137


 6736 0179 38       		.uleb128 0x38
 6737 017a 05       		.uleb128 0x5
 6738 017b 00       		.byte	0
 6739 017c 00       		.byte	0
 6740 017d 1E       		.uleb128 0x1e
 6741 017e 0D       		.uleb128 0xd
 6742 017f 00       		.byte	0
 6743 0180 03       		.uleb128 0x3
 6744 0181 08       		.uleb128 0x8
 6745 0182 3A       		.uleb128 0x3a
 6746 0183 0B       		.uleb128 0xb
 6747 0184 3B       		.uleb128 0x3b
 6748 0185 05       		.uleb128 0x5
 6749 0186 49       		.uleb128 0x49
 6750 0187 13       		.uleb128 0x13
 6751 0188 38       		.uleb128 0x38
 6752 0189 05       		.uleb128 0x5
 6753 018a 00       		.byte	0
 6754 018b 00       		.byte	0
 6755 018c 1F       		.uleb128 0x1f
 6756 018d 2E       		.uleb128 0x2e
 6757 018e 01       		.byte	0x1
 6758 018f 03       		.uleb128 0x3
 6759 0190 0E       		.uleb128 0xe
 6760 0191 3A       		.uleb128 0x3a
 6761 0192 0B       		.uleb128 0xb
 6762 0193 3B       		.uleb128 0x3b
 6763 0194 0B       		.uleb128 0xb
 6764 0195 27       		.uleb128 0x27
 6765 0196 19       		.uleb128 0x19
 6766 0197 11       		.uleb128 0x11
 6767 0198 01       		.uleb128 0x1
 6768 0199 12       		.uleb128 0x12
 6769 019a 06       		.uleb128 0x6
 6770 019b 40       		.uleb128 0x40
 6771 019c 18       		.uleb128 0x18
 6772 019d 9642     		.uleb128 0x2116
 6773 019f 19       		.uleb128 0x19
 6774 01a0 01       		.uleb128 0x1
 6775 01a1 13       		.uleb128 0x13
 6776 01a2 00       		.byte	0
 6777 01a3 00       		.byte	0
 6778 01a4 20       		.uleb128 0x20
 6779 01a5 05       		.uleb128 0x5
 6780 01a6 00       		.byte	0
 6781 01a7 03       		.uleb128 0x3
 6782 01a8 0E       		.uleb128 0xe
 6783 01a9 3A       		.uleb128 0x3a
 6784 01aa 0B       		.uleb128 0xb
 6785 01ab 3B       		.uleb128 0x3b
 6786 01ac 0B       		.uleb128 0xb
 6787 01ad 49       		.uleb128 0x49
 6788 01ae 13       		.uleb128 0x13
 6789 01af 02       		.uleb128 0x2
 6790 01b0 18       		.uleb128 0x18
 6791 01b1 00       		.byte	0
 6792 01b2 00       		.byte	0
ARM GAS  C:\Users\tmj32\AppData\Local\Temp\ccnLJfS3.s 			page 138


 6793 01b3 21       		.uleb128 0x21
 6794 01b4 05       		.uleb128 0x5
 6795 01b5 00       		.byte	0
 6796 01b6 03       		.uleb128 0x3
 6797 01b7 08       		.uleb128 0x8
 6798 01b8 3A       		.uleb128 0x3a
 6799 01b9 0B       		.uleb128 0xb
 6800 01ba 3B       		.uleb128 0x3b
 6801 01bb 0B       		.uleb128 0xb
 6802 01bc 49       		.uleb128 0x49
 6803 01bd 13       		.uleb128 0x13
 6804 01be 02       		.uleb128 0x2
 6805 01bf 18       		.uleb128 0x18
 6806 01c0 00       		.byte	0
 6807 01c1 00       		.byte	0
 6808 01c2 22       		.uleb128 0x22
 6809 01c3 2E       		.uleb128 0x2e
 6810 01c4 01       		.byte	0x1
 6811 01c5 03       		.uleb128 0x3
 6812 01c6 0E       		.uleb128 0xe
 6813 01c7 3A       		.uleb128 0x3a
 6814 01c8 0B       		.uleb128 0xb
 6815 01c9 3B       		.uleb128 0x3b
 6816 01ca 0B       		.uleb128 0xb
 6817 01cb 27       		.uleb128 0x27
 6818 01cc 19       		.uleb128 0x19
 6819 01cd 49       		.uleb128 0x49
 6820 01ce 13       		.uleb128 0x13
 6821 01cf 11       		.uleb128 0x11
 6822 01d0 01       		.uleb128 0x1
 6823 01d1 12       		.uleb128 0x12
 6824 01d2 06       		.uleb128 0x6
 6825 01d3 40       		.uleb128 0x40
 6826 01d4 18       		.uleb128 0x18
 6827 01d5 9742     		.uleb128 0x2117
 6828 01d7 19       		.uleb128 0x19
 6829 01d8 01       		.uleb128 0x1
 6830 01d9 13       		.uleb128 0x13
 6831 01da 00       		.byte	0
 6832 01db 00       		.byte	0
 6833 01dc 23       		.uleb128 0x23
 6834 01dd 2E       		.uleb128 0x2e
 6835 01de 01       		.byte	0x1
 6836 01df 3F       		.uleb128 0x3f
 6837 01e0 19       		.uleb128 0x19
 6838 01e1 03       		.uleb128 0x3
 6839 01e2 0E       		.uleb128 0xe
 6840 01e3 3A       		.uleb128 0x3a
 6841 01e4 0B       		.uleb128 0xb
 6842 01e5 3B       		.uleb128 0x3b
 6843 01e6 0B       		.uleb128 0xb
 6844 01e7 27       		.uleb128 0x27
 6845 01e8 19       		.uleb128 0x19
 6846 01e9 49       		.uleb128 0x49
 6847 01ea 13       		.uleb128 0x13
 6848 01eb 11       		.uleb128 0x11
 6849 01ec 01       		.uleb128 0x1
ARM GAS  C:\Users\tmj32\AppData\Local\Temp\ccnLJfS3.s 			page 139


 6850 01ed 12       		.uleb128 0x12
 6851 01ee 06       		.uleb128 0x6
 6852 01ef 40       		.uleb128 0x40
 6853 01f0 18       		.uleb128 0x18
 6854 01f1 9642     		.uleb128 0x2116
 6855 01f3 19       		.uleb128 0x19
 6856 01f4 01       		.uleb128 0x1
 6857 01f5 13       		.uleb128 0x13
 6858 01f6 00       		.byte	0
 6859 01f7 00       		.byte	0
 6860 01f8 24       		.uleb128 0x24
 6861 01f9 34       		.uleb128 0x34
 6862 01fa 00       		.byte	0
 6863 01fb 03       		.uleb128 0x3
 6864 01fc 0E       		.uleb128 0xe
 6865 01fd 3A       		.uleb128 0x3a
 6866 01fe 0B       		.uleb128 0xb
 6867 01ff 3B       		.uleb128 0x3b
 6868 0200 0B       		.uleb128 0xb
 6869 0201 49       		.uleb128 0x49
 6870 0202 13       		.uleb128 0x13
 6871 0203 02       		.uleb128 0x2
 6872 0204 18       		.uleb128 0x18
 6873 0205 00       		.byte	0
 6874 0206 00       		.byte	0
 6875 0207 25       		.uleb128 0x25
 6876 0208 34       		.uleb128 0x34
 6877 0209 00       		.byte	0
 6878 020a 03       		.uleb128 0x3
 6879 020b 08       		.uleb128 0x8
 6880 020c 3A       		.uleb128 0x3a
 6881 020d 0B       		.uleb128 0xb
 6882 020e 3B       		.uleb128 0x3b
 6883 020f 0B       		.uleb128 0xb
 6884 0210 49       		.uleb128 0x49
 6885 0211 13       		.uleb128 0x13
 6886 0212 02       		.uleb128 0x2
 6887 0213 18       		.uleb128 0x18
 6888 0214 00       		.byte	0
 6889 0215 00       		.byte	0
 6890 0216 26       		.uleb128 0x26
 6891 0217 0B       		.uleb128 0xb
 6892 0218 01       		.byte	0x1
 6893 0219 11       		.uleb128 0x11
 6894 021a 01       		.uleb128 0x1
 6895 021b 12       		.uleb128 0x12
 6896 021c 06       		.uleb128 0x6
 6897 021d 01       		.uleb128 0x1
 6898 021e 13       		.uleb128 0x13
 6899 021f 00       		.byte	0
 6900 0220 00       		.byte	0
 6901 0221 27       		.uleb128 0x27
 6902 0222 0B       		.uleb128 0xb
 6903 0223 01       		.byte	0x1
 6904 0224 11       		.uleb128 0x11
 6905 0225 01       		.uleb128 0x1
 6906 0226 12       		.uleb128 0x12
ARM GAS  C:\Users\tmj32\AppData\Local\Temp\ccnLJfS3.s 			page 140


 6907 0227 06       		.uleb128 0x6
 6908 0228 00       		.byte	0
 6909 0229 00       		.byte	0
 6910 022a 28       		.uleb128 0x28
 6911 022b 2E       		.uleb128 0x2e
 6912 022c 01       		.byte	0x1
 6913 022d 3F       		.uleb128 0x3f
 6914 022e 19       		.uleb128 0x19
 6915 022f 03       		.uleb128 0x3
 6916 0230 0E       		.uleb128 0xe
 6917 0231 3A       		.uleb128 0x3a
 6918 0232 0B       		.uleb128 0xb
 6919 0233 3B       		.uleb128 0x3b
 6920 0234 0B       		.uleb128 0xb
 6921 0235 27       		.uleb128 0x27
 6922 0236 19       		.uleb128 0x19
 6923 0237 11       		.uleb128 0x11
 6924 0238 01       		.uleb128 0x1
 6925 0239 12       		.uleb128 0x12
 6926 023a 06       		.uleb128 0x6
 6927 023b 40       		.uleb128 0x40
 6928 023c 18       		.uleb128 0x18
 6929 023d 9642     		.uleb128 0x2116
 6930 023f 19       		.uleb128 0x19
 6931 0240 01       		.uleb128 0x1
 6932 0241 13       		.uleb128 0x13
 6933 0242 00       		.byte	0
 6934 0243 00       		.byte	0
 6935 0244 29       		.uleb128 0x29
 6936 0245 2E       		.uleb128 0x2e
 6937 0246 01       		.byte	0x1
 6938 0247 03       		.uleb128 0x3
 6939 0248 0E       		.uleb128 0xe
 6940 0249 3A       		.uleb128 0x3a
 6941 024a 0B       		.uleb128 0xb
 6942 024b 3B       		.uleb128 0x3b
 6943 024c 0B       		.uleb128 0xb
 6944 024d 27       		.uleb128 0x27
 6945 024e 19       		.uleb128 0x19
 6946 024f 49       		.uleb128 0x49
 6947 0250 13       		.uleb128 0x13
 6948 0251 11       		.uleb128 0x11
 6949 0252 01       		.uleb128 0x1
 6950 0253 12       		.uleb128 0x12
 6951 0254 06       		.uleb128 0x6
 6952 0255 40       		.uleb128 0x40
 6953 0256 18       		.uleb128 0x18
 6954 0257 9642     		.uleb128 0x2116
 6955 0259 19       		.uleb128 0x19
 6956 025a 01       		.uleb128 0x1
 6957 025b 13       		.uleb128 0x13
 6958 025c 00       		.byte	0
 6959 025d 00       		.byte	0
 6960 025e 2A       		.uleb128 0x2a
 6961 025f 2E       		.uleb128 0x2e
 6962 0260 01       		.byte	0x1
 6963 0261 03       		.uleb128 0x3
ARM GAS  C:\Users\tmj32\AppData\Local\Temp\ccnLJfS3.s 			page 141


 6964 0262 0E       		.uleb128 0xe
 6965 0263 3A       		.uleb128 0x3a
 6966 0264 0B       		.uleb128 0xb
 6967 0265 3B       		.uleb128 0x3b
 6968 0266 05       		.uleb128 0x5
 6969 0267 27       		.uleb128 0x27
 6970 0268 19       		.uleb128 0x19
 6971 0269 11       		.uleb128 0x11
 6972 026a 01       		.uleb128 0x1
 6973 026b 12       		.uleb128 0x12
 6974 026c 06       		.uleb128 0x6
 6975 026d 40       		.uleb128 0x40
 6976 026e 18       		.uleb128 0x18
 6977 026f 9642     		.uleb128 0x2116
 6978 0271 19       		.uleb128 0x19
 6979 0272 01       		.uleb128 0x1
 6980 0273 13       		.uleb128 0x13
 6981 0274 00       		.byte	0
 6982 0275 00       		.byte	0
 6983 0276 2B       		.uleb128 0x2b
 6984 0277 05       		.uleb128 0x5
 6985 0278 00       		.byte	0
 6986 0279 03       		.uleb128 0x3
 6987 027a 0E       		.uleb128 0xe
 6988 027b 3A       		.uleb128 0x3a
 6989 027c 0B       		.uleb128 0xb
 6990 027d 3B       		.uleb128 0x3b
 6991 027e 05       		.uleb128 0x5
 6992 027f 49       		.uleb128 0x49
 6993 0280 13       		.uleb128 0x13
 6994 0281 02       		.uleb128 0x2
 6995 0282 18       		.uleb128 0x18
 6996 0283 00       		.byte	0
 6997 0284 00       		.byte	0
 6998 0285 2C       		.uleb128 0x2c
 6999 0286 34       		.uleb128 0x34
 7000 0287 00       		.byte	0
 7001 0288 03       		.uleb128 0x3
 7002 0289 0E       		.uleb128 0xe
 7003 028a 3A       		.uleb128 0x3a
 7004 028b 0B       		.uleb128 0xb
 7005 028c 3B       		.uleb128 0x3b
 7006 028d 05       		.uleb128 0x5
 7007 028e 49       		.uleb128 0x49
 7008 028f 13       		.uleb128 0x13
 7009 0290 02       		.uleb128 0x2
 7010 0291 18       		.uleb128 0x18
 7011 0292 00       		.byte	0
 7012 0293 00       		.byte	0
 7013 0294 2D       		.uleb128 0x2d
 7014 0295 0B       		.uleb128 0xb
 7015 0296 01       		.byte	0x1
 7016 0297 55       		.uleb128 0x55
 7017 0298 17       		.uleb128 0x17
 7018 0299 00       		.byte	0
 7019 029a 00       		.byte	0
 7020 029b 2E       		.uleb128 0x2e
ARM GAS  C:\Users\tmj32\AppData\Local\Temp\ccnLJfS3.s 			page 142


 7021 029c 34       		.uleb128 0x34
 7022 029d 00       		.byte	0
 7023 029e 03       		.uleb128 0x3
 7024 029f 08       		.uleb128 0x8
 7025 02a0 3A       		.uleb128 0x3a
 7026 02a1 0B       		.uleb128 0xb
 7027 02a2 3B       		.uleb128 0x3b
 7028 02a3 05       		.uleb128 0x5
 7029 02a4 49       		.uleb128 0x49
 7030 02a5 13       		.uleb128 0x13
 7031 02a6 02       		.uleb128 0x2
 7032 02a7 18       		.uleb128 0x18
 7033 02a8 00       		.byte	0
 7034 02a9 00       		.byte	0
 7035 02aa 2F       		.uleb128 0x2f
 7036 02ab 34       		.uleb128 0x34
 7037 02ac 00       		.byte	0
 7038 02ad 03       		.uleb128 0x3
 7039 02ae 0E       		.uleb128 0xe
 7040 02af 3A       		.uleb128 0x3a
 7041 02b0 0B       		.uleb128 0xb
 7042 02b1 3B       		.uleb128 0x3b
 7043 02b2 05       		.uleb128 0x5
 7044 02b3 49       		.uleb128 0x49
 7045 02b4 13       		.uleb128 0x13
 7046 02b5 3F       		.uleb128 0x3f
 7047 02b6 19       		.uleb128 0x19
 7048 02b7 3C       		.uleb128 0x3c
 7049 02b8 19       		.uleb128 0x19
 7050 02b9 00       		.byte	0
 7051 02ba 00       		.byte	0
 7052 02bb 00       		.byte	0
 7053              		.section	.debug_aranges,"",%progbits
 7054 0000 B4000000 		.4byte	0xb4
 7055 0004 0200     		.2byte	0x2
 7056 0006 00000000 		.4byte	.Ldebug_info0
 7057 000a 04       		.byte	0x4
 7058 000b 00       		.byte	0
 7059 000c 0000     		.2byte	0
 7060 000e 0000     		.2byte	0
 7061 0010 00000000 		.4byte	.LFB10
 7062 0014 1C000000 		.4byte	.LFE10-.LFB10
 7063 0018 00000000 		.4byte	.LFB11
 7064 001c 2E000000 		.4byte	.LFE11-.LFB11
 7065 0020 00000000 		.4byte	.LFB12
 7066 0024 2E000000 		.4byte	.LFE12-.LFB12
 7067 0028 00000000 		.4byte	.LFB33
 7068 002c 1E000000 		.4byte	.LFE33-.LFB33
 7069 0030 00000000 		.4byte	.LFB35
 7070 0034 44010000 		.4byte	.LFE35-.LFB35
 7071 0038 00000000 		.4byte	.LFB36
 7072 003c 4E000000 		.4byte	.LFE36-.LFB36
 7073 0040 00000000 		.4byte	.LFB37
 7074 0044 CE000000 		.4byte	.LFE37-.LFB37
 7075 0048 00000000 		.4byte	.LFB38
 7076 004c 22000000 		.4byte	.LFE38-.LFB38
 7077 0050 00000000 		.4byte	.LFB39
ARM GAS  C:\Users\tmj32\AppData\Local\Temp\ccnLJfS3.s 			page 143


 7078 0054 22000000 		.4byte	.LFE39-.LFB39
 7079 0058 00000000 		.4byte	.LFB40
 7080 005c 22000000 		.4byte	.LFE40-.LFB40
 7081 0060 00000000 		.4byte	.LFB41
 7082 0064 22000000 		.4byte	.LFE41-.LFB41
 7083 0068 00000000 		.4byte	.LFB42
 7084 006c 22000000 		.4byte	.LFE42-.LFB42
 7085 0070 00000000 		.4byte	.LFB43
 7086 0074 C0000000 		.4byte	.LFE43-.LFB43
 7087 0078 00000000 		.4byte	.LFB44
 7088 007c 90000000 		.4byte	.LFE44-.LFB44
 7089 0080 00000000 		.4byte	.LFB45
 7090 0084 EC000000 		.4byte	.LFE45-.LFB45
 7091 0088 00000000 		.4byte	.LFB46
 7092 008c 4E010000 		.4byte	.LFE46-.LFB46
 7093 0090 00000000 		.4byte	.LFB47
 7094 0094 42010000 		.4byte	.LFE47-.LFB47
 7095 0098 00000000 		.4byte	.LFB48
 7096 009c 40030000 		.4byte	.LFE48-.LFB48
 7097 00a0 00000000 		.4byte	.LFB49
 7098 00a4 7A010000 		.4byte	.LFE49-.LFB49
 7099 00a8 00000000 		.4byte	.LFB50
 7100 00ac E8030000 		.4byte	.LFE50-.LFB50
 7101 00b0 00000000 		.4byte	0
 7102 00b4 00000000 		.4byte	0
 7103              		.section	.debug_ranges,"",%progbits
 7104              	.Ldebug_ranges0:
 7105 0000 42000000 		.4byte	.LBB4
 7106 0004 1E030000 		.4byte	.LBE4
 7107 0008 28030000 		.4byte	.LBB7
 7108 000c 2A030000 		.4byte	.LBE7
 7109 0010 00000000 		.4byte	0
 7110 0014 00000000 		.4byte	0
 7111 0018 00000000 		.4byte	.LFB10
 7112 001c 1C000000 		.4byte	.LFE10
 7113 0020 00000000 		.4byte	.LFB11
 7114 0024 2E000000 		.4byte	.LFE11
 7115 0028 00000000 		.4byte	.LFB12
 7116 002c 2E000000 		.4byte	.LFE12
 7117 0030 00000000 		.4byte	.LFB33
 7118 0034 1E000000 		.4byte	.LFE33
 7119 0038 00000000 		.4byte	.LFB35
 7120 003c 44010000 		.4byte	.LFE35
 7121 0040 00000000 		.4byte	.LFB36
 7122 0044 4E000000 		.4byte	.LFE36
 7123 0048 00000000 		.4byte	.LFB37
 7124 004c CE000000 		.4byte	.LFE37
 7125 0050 00000000 		.4byte	.LFB38
 7126 0054 22000000 		.4byte	.LFE38
 7127 0058 00000000 		.4byte	.LFB39
 7128 005c 22000000 		.4byte	.LFE39
 7129 0060 00000000 		.4byte	.LFB40
 7130 0064 22000000 		.4byte	.LFE40
 7131 0068 00000000 		.4byte	.LFB41
 7132 006c 22000000 		.4byte	.LFE41
 7133 0070 00000000 		.4byte	.LFB42
 7134 0074 22000000 		.4byte	.LFE42
ARM GAS  C:\Users\tmj32\AppData\Local\Temp\ccnLJfS3.s 			page 144


 7135 0078 00000000 		.4byte	.LFB43
 7136 007c C0000000 		.4byte	.LFE43
 7137 0080 00000000 		.4byte	.LFB44
 7138 0084 90000000 		.4byte	.LFE44
 7139 0088 00000000 		.4byte	.LFB45
 7140 008c EC000000 		.4byte	.LFE45
 7141 0090 00000000 		.4byte	.LFB46
 7142 0094 4E010000 		.4byte	.LFE46
 7143 0098 00000000 		.4byte	.LFB47
 7144 009c 42010000 		.4byte	.LFE47
 7145 00a0 00000000 		.4byte	.LFB48
 7146 00a4 40030000 		.4byte	.LFE48
 7147 00a8 00000000 		.4byte	.LFB49
 7148 00ac 7A010000 		.4byte	.LFE49
 7149 00b0 00000000 		.4byte	.LFB50
 7150 00b4 E8030000 		.4byte	.LFE50
 7151 00b8 00000000 		.4byte	0
 7152 00bc 00000000 		.4byte	0
 7153              		.section	.debug_line,"",%progbits
 7154              	.Ldebug_line0:
 7155 0000 CA070000 		.section	.debug_str,"MS",%progbits,1
 7155      02000803 
 7155      00000201 
 7155      FB0E0D00 
 7155      01010101 
 7156              	.LASF14:
 7157 0000 696E7438 		.ascii	"int8_t\000"
 7157      5F7400
 7158              	.LASF75:
 7159 0007 6C765F6C 		.ascii	"lv_ll_node_t\000"
 7159      6C5F6E6F 
 7159      64655F74 
 7159      00
 7160              	.LASF21:
 7161 0014 6164765F 		.ascii	"adv_w\000"
 7161      7700
 7162              	.LASF212:
 7163 001a 68656164 		.ascii	"header_pr\000"
 7163      65725F70 
 7163      7200
 7164              	.LASF40:
 7165 0024 73697A65 		.ascii	"sizetype\000"
 7165      74797065 
 7165      00
 7166              	.LASF37:
 7167 002d 6C765F63 		.ascii	"lv_color32_t\000"
 7167      6F6C6F72 
 7167      33325F74 
 7167      00
 7168              	.LASF222:
 7169 003a 63656C6C 		.ascii	"cell\000"
 7169      00
 7170              	.LASF85:
 7171 003f 4C565F42 		.ascii	"LV_BIDI_DIR_WEAK\000"
 7171      4944495F 
 7171      4449525F 
 7171      5745414B 
ARM GAS  C:\Users\tmj32\AppData\Local\Temp\ccnLJfS3.s 			page 145


 7171      00
 7172              	.LASF78:
 7173 0050 7461696C 		.ascii	"tail\000"
 7173      00
 7174              	.LASF170:
 7175 0055 4C565F50 		.ascii	"LV_PROTECT_POS\000"
 7175      524F5445 
 7175      43545F50 
 7175      4F5300
 7176              	.LASF118:
 7177 0064 4C565F53 		.ascii	"LV_SIGNAL_STYLE_CHG\000"
 7177      49474E41 
 7177      4C5F5354 
 7177      594C455F 
 7177      43484700 
 7178              	.LASF39:
 7179 0078 6C765F6F 		.ascii	"lv_opa_t\000"
 7179      70615F74 
 7179      00
 7180              	.LASF63:
 7181 0081 696E7465 		.ascii	"intense\000"
 7181      6E736500 
 7182              	.LASF229:
 7183 0089 6C6D6574 		.ascii	"lmeter\000"
 7183      657200
 7184              	.LASF126:
 7185 0090 4C565F53 		.ascii	"LV_SIGNAL_LONG_PRESS\000"
 7185      49474E41 
 7185      4C5F4C4F 
 7185      4E475F50 
 7185      52455353 
 7186              	.LASF55:
 7187 00a5 72616469 		.ascii	"radius\000"
 7187      757300
 7188              	.LASF164:
 7189 00ac 6C765F72 		.ascii	"lv_reailgn_t\000"
 7189      6561696C 
 7189      676E5F74 
 7189      00
 7190              	.LASF29:
 7191 00b9 6C696E65 		.ascii	"line_height\000"
 7191      5F686569 
 7191      67687400 
 7192              	.LASF96:
 7193 00c5 636C6963 		.ascii	"click\000"
 7193      6B00
 7194              	.LASF80:
 7195 00cb 4C565F42 		.ascii	"LV_BIDI_DIR_LTR\000"
 7195      4944495F 
 7195      4449525F 
 7195      4C545200 
 7196              	.LASF157:
 7197 00db 6C765F61 		.ascii	"lv_align_t\000"
 7197      6C69676E 
 7197      5F7400
 7198              	.LASF128:
 7199 00e6 4C565F53 		.ascii	"LV_SIGNAL_DRAG_BEGIN\000"
ARM GAS  C:\Users\tmj32\AppData\Local\Temp\ccnLJfS3.s 			page 146


 7199      49474E41 
 7199      4C5F4452 
 7199      41475F42 
 7199      4547494E 
 7200              	.LASF293:
 7201 00fb 785F6F66 		.ascii	"x_ofs\000"
 7201      7300
 7202              	.LASF214:
 7203 0101 68696768 		.ascii	"highlighted_days\000"
 7203      6C696768 
 7203      7465645F 
 7203      64617973 
 7203      00
 7204              	.LASF264:
 7205 0112 7369676E 		.ascii	"sign\000"
 7205      00
 7206              	.LASF112:
 7207 0117 6C765F65 		.ascii	"lv_event_t\000"
 7207      76656E74 
 7207      5F7400
 7208              	.LASF272:
 7209 0122 76706164 		.ascii	"vpad_corr\000"
 7209      5F636F72 
 7209      7200
 7210              	.LASF280:
 7211 012c 775F6F62 		.ascii	"w_obj\000"
 7211      6A00
 7212              	.LASF296:
 7213 0132 6C765F63 		.ascii	"lv_cont_refr_autofit\000"
 7213      6F6E745F 
 7213      72656672 
 7213      5F617574 
 7213      6F666974 
 7214              	.LASF291:
 7215 0147 685F6F62 		.ascii	"h_obj\000"
 7215      6A00
 7216              	.LASF72:
 7217 014d 4C565F52 		.ascii	"LV_RES_INV\000"
 7217      45535F49 
 7217      4E5600
 7218              	.LASF155:
 7219 0158 4C565F41 		.ascii	"LV_ALIGN_OUT_RIGHT_MID\000"
 7219      4C49474E 
 7219      5F4F5554 
 7219      5F524947 
 7219      48545F4D 
 7220              	.LASF122:
 7221 016f 4C565F53 		.ascii	"LV_SIGNAL_PRESSED\000"
 7221      49474E41 
 7221      4C5F5052 
 7221      45535345 
 7221      4400
 7222              	.LASF48:
 7223 0181 74797065 		.ascii	"type\000"
 7223      00
 7224              	.LASF186:
 7225 0186 4C565F46 		.ascii	"LV_FIT_NONE\000"
ARM GAS  C:\Users\tmj32\AppData\Local\Temp\ccnLJfS3.s 			page 147


 7225      49545F4E 
 7225      4F4E4500 
 7226              	.LASF204:
 7227 0192 6C696768 		.ascii	"light\000"
 7227      7400
 7228              	.LASF287:
 7229 0198 6163745F 		.ascii	"act_x\000"
 7229      7800
 7230              	.LASF281:
 7231 019e 6163745F 		.ascii	"act_y\000"
 7231      7900
 7232              	.LASF261:
 7233 01a4 6C765F63 		.ascii	"lv_cont_get_fit_top\000"
 7233      6F6E745F 
 7233      6765745F 
 7233      6669745F 
 7233      746F7000 
 7234              	.LASF225:
 7235 01b8 636F6E74 		.ascii	"cont\000"
 7235      00
 7236              	.LASF202:
 7237 01bd 7072696D 		.ascii	"prim\000"
 7237      00
 7238              	.LASF232:
 7239 01c2 63686172 		.ascii	"chart\000"
 7239      7400
 7240              	.LASF283:
 7241 01c8 775F726F 		.ascii	"w_row\000"
 7241      7700
 7242              	.LASF255:
 7243 01ce 6C765F63 		.ascii	"lv_cont_set_layout\000"
 7243      6F6E745F 
 7243      7365745F 
 7243      6C61796F 
 7243      757400
 7244              	.LASF282:
 7245 01e1 685F726F 		.ascii	"h_row\000"
 7245      7700
 7246              	.LASF254:
 7247 01e7 636F7079 		.ascii	"copy_ext\000"
 7247      5F657874 
 7247      00
 7248              	.LASF1:
 7249 01f0 5F5F7569 		.ascii	"__uint8_t\000"
 7249      6E74385F 
 7249      7400
 7250              	.LASF35:
 7251 01fa 616C7068 		.ascii	"alpha\000"
 7251      6100
 7252              	.LASF100:
 7253 0200 68696464 		.ascii	"hidden\000"
 7253      656E00
 7254              	.LASF8:
 7255 0207 6C6F6E67 		.ascii	"long int\000"
 7255      20696E74 
 7255      00
 7256              	.LASF242:
ARM GAS  C:\Users\tmj32\AppData\Local\Temp\ccnLJfS3.s 			page 148


 7257 0210 74696C65 		.ascii	"tileview\000"
 7257      76696577 
 7257      00
 7258              	.LASF141:
 7259 0219 4C565F41 		.ascii	"LV_ALIGN_IN_BOTTOM_MID\000"
 7259      4C49474E 
 7259      5F494E5F 
 7259      424F5454 
 7259      4F4D5F4D 
 7260              	.LASF198:
 7261 0230 4C565F43 		.ascii	"LV_CONT_STYLE_MAIN\000"
 7261      4F4E545F 
 7261      5354594C 
 7261      455F4D41 
 7261      494E00
 7262              	.LASF252:
 7263 0243 636F7079 		.ascii	"copy\000"
 7263      00
 7264              	.LASF247:
 7265 0248 61726561 		.ascii	"area_p\000"
 7265      5F7000
 7266              	.LASF181:
 7267 024f 4C565F4C 		.ascii	"LV_LAYOUT_ROW_B\000"
 7267      41594F55 
 7267      545F524F 
 7267      575F4200 
 7268              	.LASF292:
 7269 025f 6F626A5F 		.ascii	"obj_row\000"
 7269      726F7700 
 7270              	.LASF182:
 7271 0267 4C565F4C 		.ascii	"LV_LAYOUT_PRETTY\000"
 7271      41594F55 
 7271      545F5052 
 7271      45545459 
 7271      00
 7272              	.LASF77:
 7273 0278 68656164 		.ascii	"head\000"
 7273      00
 7274              	.LASF180:
 7275 027d 4C565F4C 		.ascii	"LV_LAYOUT_ROW_M\000"
 7275      41594F55 
 7275      545F524F 
 7275      575F4D00 
 7276              	.LASF179:
 7277 028d 4C565F4C 		.ascii	"LV_LAYOUT_ROW_T\000"
 7277      41594F55 
 7277      545F524F 
 7277      575F5400 
 7278              	.LASF234:
 7279 029d 62746E6D 		.ascii	"btnm\000"
 7279      00
 7280              	.LASF260:
 7281 02a2 6C765F63 		.ascii	"lv_cont_get_fit_right\000"
 7281      6F6E745F 
 7281      6765745F 
 7281      6669745F 
 7281      72696768 
ARM GAS  C:\Users\tmj32\AppData\Local\Temp\ccnLJfS3.s 			page 149


 7282              	.LASF2:
 7283 02b8 7369676E 		.ascii	"signed char\000"
 7283      65642063 
 7283      68617200 
 7284              	.LASF15:
 7285 02c4 75696E74 		.ascii	"uint8_t\000"
 7285      385F7400 
 7286              	.LASF217:
 7287 02cc 746F6461 		.ascii	"today_box\000"
 7287      795F626F 
 7287      7800
 7288              	.LASF201:
 7289 02d6 74676C5F 		.ascii	"tgl_pr\000"
 7289      707200
 7290              	.LASF195:
 7291 02dd 6669745F 		.ascii	"fit_top\000"
 7291      746F7000 
 7292              	.LASF28:
 7293 02e5 6765745F 		.ascii	"get_glyph_bitmap\000"
 7293      676C7970 
 7293      685F6269 
 7293      746D6170 
 7293      00
 7294              	.LASF218:
 7295 02f6 7363726C 		.ascii	"scrl\000"
 7295      00
 7296              	.LASF33:
 7297 02fb 626C7565 		.ascii	"blue\000"
 7297      00
 7298              	.LASF127:
 7299 0300 4C565F53 		.ascii	"LV_SIGNAL_LONG_PRESS_REP\000"
 7299      49474E41 
 7299      4C5F4C4F 
 7299      4E475F50 
 7299      52455353 
 7300              	.LASF3:
 7301 0319 756E7369 		.ascii	"unsigned char\000"
 7301      676E6564 
 7301      20636861 
 7301      7200
 7302              	.LASF286:
 7303 0327 6E65775F 		.ascii	"new_opad\000"
 7303      6F706164 
 7303      00
 7304              	.LASF120:
 7305 0330 4C565F53 		.ascii	"LV_SIGNAL_REFR_EXT_DRAW_PAD\000"
 7305      49474E41 
 7305      4C5F5245 
 7305      46525F45 
 7305      58545F44 
 7306              	.LASF103:
 7307 034c 64726167 		.ascii	"drag_dir\000"
 7307      5F646972 
 7307      00
 7308              	.LASF169:
 7309 0355 4C565F50 		.ascii	"LV_PROTECT_PARENT\000"
 7309      524F5445 
ARM GAS  C:\Users\tmj32\AppData\Local\Temp\ccnLJfS3.s 			page 150


 7309      43545F50 
 7309      4152454E 
 7309      5400
 7310              	.LASF210:
 7311 0367 6B6E6F62 		.ascii	"knob_on\000"
 7311      5F6F6E00 
 7312              	.LASF24:
 7313 036f 6F66735F 		.ascii	"ofs_x\000"
 7313      7800
 7314              	.LASF25:
 7315 0375 6F66735F 		.ascii	"ofs_y\000"
 7315      7900
 7316              	.LASF211:
 7317 037b 68656164 		.ascii	"header\000"
 7317      657200
 7318              	.LASF31:
 7319 0382 5F426F6F 		.ascii	"_Bool\000"
 7319      6C00
 7320              	.LASF295:
 7321 0388 6F626A5F 		.ascii	"obj_cnt\000"
 7321      636E7400 
 7322              	.LASF135:
 7323 0390 6C765F73 		.ascii	"lv_signal_cb_t\000"
 7323      69676E61 
 7323      6C5F6362 
 7323      5F7400
 7324              	.LASF243:
 7325 039f 7461626C 		.ascii	"table\000"
 7325      6500
 7326              	.LASF41:
 7327 03a5 63686172 		.ascii	"char\000"
 7327      00
 7328              	.LASF250:
 7329 03aa 6C765F61 		.ascii	"lv_area_copy\000"
 7329      7265615F 
 7329      636F7079 
 7329      00
 7330              	.LASF184:
 7331 03b7 5F4C565F 		.ascii	"_LV_LAYOUT_NUM\000"
 7331      4C41594F 
 7331      55545F4E 
 7331      554D00
 7332              	.LASF305:
 7333 03c6 2E2E5C2E 		.ascii	"..\\..\\..\\lvgl\\version_6.1.2\\lvgl\\src\\lv_objx"
 7333      2E5C2E2E 
 7333      5C6C7667 
 7333      6C5C7665 
 7333      7273696F 
 7334 03f2 5C6C765F 		.ascii	"\\lv_cont.c\000"
 7334      636F6E74 
 7334      2E6300
 7335              	.LASF67:
 7336 03fd 626F6479 		.ascii	"body\000"
 7336      00
 7337              	.LASF160:
 7338 0402 796F6673 		.ascii	"yofs\000"
 7338      00
ARM GAS  C:\Users\tmj32\AppData\Local\Temp\ccnLJfS3.s 			page 151


 7339              	.LASF6:
 7340 0407 5F5F7569 		.ascii	"__uint16_t\000"
 7340      6E743136 
 7340      5F7400
 7341              	.LASF216:
 7342 0412 7765656B 		.ascii	"week_box\000"
 7342      5F626F78 
 7342      00
 7343              	.LASF176:
 7344 041b 4C565F4C 		.ascii	"LV_LAYOUT_COL_L\000"
 7344      41594F55 
 7344      545F434F 
 7344      4C5F4C00 
 7345              	.LASF177:
 7346 042b 4C565F4C 		.ascii	"LV_LAYOUT_COL_M\000"
 7346      41594F55 
 7346      545F434F 
 7346      4C5F4D00 
 7347              	.LASF178:
 7348 043b 4C565F4C 		.ascii	"LV_LAYOUT_COL_R\000"
 7348      41594F55 
 7348      545F434F 
 7348      4C5F5200 
 7349              	.LASF152:
 7350 044b 4C565F41 		.ascii	"LV_ALIGN_OUT_LEFT_MID\000"
 7350      4C49474E 
 7350      5F4F5554 
 7350      5F4C4546 
 7350      545F4D49 
 7351              	.LASF93:
 7352 0461 64657369 		.ascii	"design_cb\000"
 7352      676E5F63 
 7352      6200
 7353              	.LASF131:
 7354 046b 4C565F53 		.ascii	"LV_SIGNAL_DEFOCUS\000"
 7354      49474E41 
 7354      4C5F4445 
 7354      464F4355 
 7354      5300
 7355              	.LASF239:
 7356 047d 64646C69 		.ascii	"ddlist\000"
 7356      737400
 7357              	.LASF68:
 7358 0484 74657874 		.ascii	"text\000"
 7358      00
 7359              	.LASF256:
 7360 0489 6C765F63 		.ascii	"lv_cont_set_fit4\000"
 7360      6F6E745F 
 7360      7365745F 
 7360      66697434 
 7360      00
 7361              	.LASF69:
 7362 049a 696D6167 		.ascii	"image\000"
 7362      6500
 7363              	.LASF65:
 7364 04a0 726F756E 		.ascii	"rounded\000"
 7364      64656400 
ARM GAS  C:\Users\tmj32\AppData\Local\Temp\ccnLJfS3.s 			page 152


 7365              	.LASF98:
 7366 04a8 64726167 		.ascii	"drag_throw\000"
 7366      5F746872 
 7366      6F7700
 7367              	.LASF215:
 7368 04b3 696E6163 		.ascii	"inactive_days\000"
 7368      74697665 
 7368      5F646179 
 7368      7300
 7369              	.LASF86:
 7370 04c1 6C765F62 		.ascii	"lv_bidi_dir_t\000"
 7370      6964695F 
 7370      6469725F 
 7370      7400
 7371              	.LASF108:
 7372 04cf 6578745F 		.ascii	"ext_draw_pad\000"
 7372      64726177 
 7372      5F706164 
 7372      00
 7373              	.LASF42:
 7374 04dc 6C765F61 		.ascii	"lv_area_t\000"
 7374      7265615F 
 7374      7400
 7375              	.LASF262:
 7376 04e6 6C765F63 		.ascii	"lv_cont_get_fit_bottom\000"
 7376      6F6E745F 
 7376      6765745F 
 7376      6669745F 
 7376      626F7474 
 7377              	.LASF171:
 7378 04fd 4C565F50 		.ascii	"LV_PROTECT_FOLLOW\000"
 7378      524F5445 
 7378      43545F46 
 7378      4F4C4C4F 
 7378      5700
 7379              	.LASF83:
 7380 050f 4C565F42 		.ascii	"LV_BIDI_DIR_INHERIT\000"
 7380      4944495F 
 7380      4449525F 
 7380      494E4845 
 7380      52495400 
 7381              	.LASF50:
 7382 0523 6C656674 		.ascii	"left\000"
 7382      00
 7383              	.LASF245:
 7384 0528 6C765F74 		.ascii	"lv_theme_t\000"
 7384      68656D65 
 7384      5F7400
 7385              	.LASF109:
 7386 0533 7265616C 		.ascii	"realign\000"
 7386      69676E00 
 7387              	.LASF263:
 7388 053b 6C765F63 		.ascii	"lv_cont_signal\000"
 7388      6F6E745F 
 7388      7369676E 
 7388      616C00
 7389              	.LASF284:
ARM GAS  C:\Users\tmj32\AppData\Local\Temp\ccnLJfS3.s 			page 153


 7390 054a 6F626A31 		.ascii	"obj1\000"
 7390      00
 7391              	.LASF285:
 7392 054f 6F626A32 		.ascii	"obj2\000"
 7392      00
 7393              	.LASF142:
 7394 0554 4C565F41 		.ascii	"LV_ALIGN_IN_BOTTOM_RIGHT\000"
 7394      4C49474E 
 7394      5F494E5F 
 7394      424F5454 
 7394      4F4D5F52 
 7395              	.LASF150:
 7396 056d 4C565F41 		.ascii	"LV_ALIGN_OUT_BOTTOM_RIGHT\000"
 7396      4C49474E 
 7396      5F4F5554 
 7396      5F424F54 
 7396      544F4D5F 
 7397              	.LASF121:
 7398 0587 4C565F53 		.ascii	"LV_SIGNAL_GET_TYPE\000"
 7398      49474E41 
 7398      4C5F4745 
 7398      545F5459 
 7398      504500
 7399              	.LASF199:
 7400 059a 6C765F63 		.ascii	"lv_cont_style_t\000"
 7400      6F6E745F 
 7400      7374796C 
 7400      655F7400 
 7401              	.LASF219:
 7402 05aa 61726561 		.ascii	"area\000"
 7402      00
 7403              	.LASF71:
 7404 05af 6C765F73 		.ascii	"lv_style_t\000"
 7404      74796C65 
 7404      5F7400
 7405              	.LASF52:
 7406 05ba 696E6E65 		.ascii	"inner\000"
 7406      7200
 7407              	.LASF253:
 7408 05c0 6E65775F 		.ascii	"new_cont\000"
 7408      636F6E74 
 7408      00
 7409              	.LASF149:
 7410 05c9 4C565F41 		.ascii	"LV_ALIGN_OUT_BOTTOM_MID\000"
 7410      4C49474E 
 7410      5F4F5554 
 7410      5F424F54 
 7410      544F4D5F 
 7411              	.LASF188:
 7412 05e1 4C565F46 		.ascii	"LV_FIT_FLOOD\000"
 7412      49545F46 
 7412      4C4F4F44 
 7412      00
 7413              	.LASF10:
 7414 05ee 6C6F6E67 		.ascii	"long unsigned int\000"
 7414      20756E73 
 7414      69676E65 
ARM GAS  C:\Users\tmj32\AppData\Local\Temp\ccnLJfS3.s 			page 154


 7414      6420696E 
 7414      7400
 7415              	.LASF203:
 7416 0600 68696E74 		.ascii	"hint\000"
 7416      00
 7417              	.LASF265:
 7418 0605 70617261 		.ascii	"param\000"
 7418      6D00
 7419              	.LASF174:
 7420 060b 4C565F4C 		.ascii	"LV_LAYOUT_OFF\000"
 7420      41594F55 
 7420      545F4F46 
 7420      4600
 7421              	.LASF70:
 7422 0619 6C696E65 		.ascii	"line\000"
 7422      00
 7423              	.LASF130:
 7424 061e 4C565F53 		.ascii	"LV_SIGNAL_FOCUS\000"
 7424      49474E41 
 7424      4C5F464F 
 7424      43555300 
 7425              	.LASF133:
 7426 062e 4C565F53 		.ascii	"LV_SIGNAL_GET_EDITABLE\000"
 7426      49474E41 
 7426      4C5F4745 
 7426      545F4544 
 7426      49544142 
 7427              	.LASF220:
 7428 0645 6F6E656C 		.ascii	"oneline\000"
 7428      696E6500 
 7429              	.LASF148:
 7430 064d 4C565F41 		.ascii	"LV_ALIGN_OUT_BOTTOM_LEFT\000"
 7430      4C49474E 
 7430      5F4F5554 
 7430      5F424F54 
 7430      544F4D5F 
 7431              	.LASF9:
 7432 0666 5F5F7569 		.ascii	"__uint32_t\000"
 7432      6E743332 
 7432      5F7400
 7433              	.LASF91:
 7434 0671 6576656E 		.ascii	"event_cb\000"
 7434      745F6362 
 7434      00
 7435              	.LASF51:
 7436 067a 72696768 		.ascii	"right\000"
 7436      7400
 7437              	.LASF95:
 7438 0680 7374796C 		.ascii	"style_p\000"
 7438      655F7000 
 7439              	.LASF11:
 7440 0688 6C6F6E67 		.ascii	"long long int\000"
 7440      206C6F6E 
 7440      6720696E 
 7440      7400
 7441              	.LASF306:
 7442 0696 433A5C55 		.ascii	"C:\\Users\\tmj32\\Documents\\TCNJ\\Senior_Project\\"
ARM GAS  C:\Users\tmj32\AppData\Local\Temp\ccnLJfS3.s 			page 155


 7442      73657273 
 7442      5C746D6A 
 7442      33325C44 
 7442      6F63756D 
 7443 06c3 4F736369 		.ascii	"Oscilloscope_Senior_Project\\tcom_engineering\\embe"
 7443      6C6C6F73 
 7443      636F7065 
 7443      5F53656E 
 7443      696F725F 
 7444 06f4 645F7377 		.ascii	"d_sw\\tcom_app\\tcom_app_psoc6_lvgl6\\tcom_displ_te"
 7444      5C74636F 
 7444      6D5F6170 
 7444      705C7463 
 7444      6F6D5F61 
 7445 0724 73745F70 		.ascii	"st_psoc6.cydsn\000"
 7445      736F6336 
 7445      2E637964 
 7445      736E00
 7446              	.LASF153:
 7447 0733 4C565F41 		.ascii	"LV_ALIGN_OUT_LEFT_BOTTOM\000"
 7447      4C49474E 
 7447      5F4F5554 
 7447      5F4C4546 
 7447      545F424F 
 7448              	.LASF46:
 7449 074c 77696474 		.ascii	"width\000"
 7449      6800
 7450              	.LASF257:
 7451 0752 6C765F63 		.ascii	"lv_cont_create\000"
 7451      6F6E745F 
 7451      63726561 
 7451      746500
 7452              	.LASF139:
 7453 0761 4C565F41 		.ascii	"LV_ALIGN_IN_TOP_RIGHT\000"
 7453      4C49474E 
 7453      5F494E5F 
 7453      544F505F 
 7453      52494748 
 7454              	.LASF132:
 7455 0777 4C565F53 		.ascii	"LV_SIGNAL_CONTROL\000"
 7455      49474E41 
 7455      4C5F434F 
 7455      4E54524F 
 7455      4C00
 7456              	.LASF49:
 7457 0789 626F7474 		.ascii	"bottom\000"
 7457      6F6D00
 7458              	.LASF89:
 7459 0790 6368696C 		.ascii	"child_ll\000"
 7459      645F6C6C 
 7459      00
 7460              	.LASF207:
 7461 0799 696E6469 		.ascii	"indic\000"
 7461      6300
 7462              	.LASF106:
 7463 079f 70726F74 		.ascii	"protect\000"
 7463      65637400 
ARM GAS  C:\Users\tmj32\AppData\Local\Temp\ccnLJfS3.s 			page 156


 7464              	.LASF289:
 7465 07a7 775F746F 		.ascii	"w_tot\000"
 7465      7400
 7466              	.LASF268:
 7467 07ad 6368696C 		.ascii	"child\000"
 7467      6400
 7468              	.LASF275:
 7469 07b3 685F746F 		.ascii	"h_tot\000"
 7469      7400
 7470              	.LASF192:
 7471 07b9 6C61796F 		.ascii	"layout\000"
 7471      757400
 7472              	.LASF241:
 7473 07c0 74616276 		.ascii	"tabview\000"
 7473      69657700 
 7474              	.LASF102:
 7475 07c8 70617265 		.ascii	"parent_event\000"
 7475      6E745F65 
 7475      76656E74 
 7475      00
 7476              	.LASF114:
 7477 07d5 4C565F53 		.ascii	"LV_SIGNAL_CLEANUP\000"
 7477      49474E41 
 7477      4C5F434C 
 7477      45414E55 
 7477      5000
 7478              	.LASF161:
 7479 07e7 616C6967 		.ascii	"align\000"
 7479      6E00
 7480              	.LASF140:
 7481 07ed 4C565F41 		.ascii	"LV_ALIGN_IN_BOTTOM_LEFT\000"
 7481      4C49474E 
 7481      5F494E5F 
 7481      424F5454 
 7481      4F4D5F4C 
 7482              	.LASF66:
 7483 0805 676C6173 		.ascii	"glass\000"
 7483      7300
 7484              	.LASF197:
 7485 080b 6C765F63 		.ascii	"lv_cont_ext_t\000"
 7485      6F6E745F 
 7485      6578745F 
 7485      7400
 7486              	.LASF13:
 7487 0819 756E7369 		.ascii	"unsigned int\000"
 7487      676E6564 
 7487      20696E74 
 7487      00
 7488              	.LASF115:
 7489 0826 4C565F53 		.ascii	"LV_SIGNAL_CHILD_CHG\000"
 7489      49474E41 
 7489      4C5F4348 
 7489      494C445F 
 7489      43484700 
 7490              	.LASF274:
 7491 083a 6F626A5F 		.ascii	"obj_num\000"
 7491      6E756D00 
ARM GAS  C:\Users\tmj32\AppData\Local\Temp\ccnLJfS3.s 			page 157


 7492              	.LASF235:
 7493 0842 6D626F78 		.ascii	"mbox\000"
 7493      00
 7494              	.LASF200:
 7495 0847 74676C5F 		.ascii	"tgl_rel\000"
 7495      72656C00 
 7496              	.LASF136:
 7497 084f 4C565F41 		.ascii	"LV_ALIGN_CENTER\000"
 7497      4C49474E 
 7497      5F43454E 
 7497      54455200 
 7498              	.LASF266:
 7499 085f 6C765F63 		.ascii	"lv_cont_refr_layout\000"
 7499      6F6E745F 
 7499      72656672 
 7499      5F6C6179 
 7499      6F757400 
 7500              	.LASF297:
 7501 0873 74696768 		.ascii	"tight_area\000"
 7501      745F6172 
 7501      656100
 7502              	.LASF290:
 7503 087e 775F6669 		.ascii	"w_fit\000"
 7503      7400
 7504              	.LASF162:
 7505 0884 6175746F 		.ascii	"auto_realign\000"
 7505      5F726561 
 7505      6C69676E 
 7505      00
 7506              	.LASF26:
 7507 0891 6C765F66 		.ascii	"lv_font_glyph_dsc_t\000"
 7507      6F6E745F 
 7507      676C7970 
 7507      685F6473 
 7507      635F7400 
 7508              	.LASF258:
 7509 08a5 6C765F63 		.ascii	"lv_cont_get_layout\000"
 7509      6F6E745F 
 7509      6765745F 
 7509      6C61796F 
 7509      757400
 7510              	.LASF238:
 7511 08b8 6C697374 		.ascii	"list\000"
 7511      00
 7512              	.LASF54:
 7513 08bd 67726164 		.ascii	"grad_color\000"
 7513      5F636F6C 
 7513      6F7200
 7514              	.LASF193:
 7515 08c8 6669745F 		.ascii	"fit_left\000"
 7515      6C656674 
 7515      00
 7516              	.LASF236:
 7517 08d1 70616765 		.ascii	"page\000"
 7517      00
 7518              	.LASF209:
 7519 08d6 6B6E6F62 		.ascii	"knob_off\000"
ARM GAS  C:\Users\tmj32\AppData\Local\Temp\ccnLJfS3.s 			page 158


 7519      5F6F6666 
 7519      00
 7520              	.LASF230:
 7521 08df 67617567 		.ascii	"gauge\000"
 7521      6500
 7522              	.LASF251:
 7523 08e5 6C765F63 		.ascii	"lv_cont_set_style\000"
 7523      6F6E745F 
 7523      7365745F 
 7523      7374796C 
 7523      6500
 7524              	.LASF123:
 7525 08f7 4C565F53 		.ascii	"LV_SIGNAL_PRESSING\000"
 7525      49474E41 
 7525      4C5F5052 
 7525      45535349 
 7525      4E4700
 7526              	.LASF299:
 7527 090a 7061725F 		.ascii	"par_style\000"
 7527      7374796C 
 7527      6500
 7528              	.LASF74:
 7529 0914 6C765F72 		.ascii	"lv_res_t\000"
 7529      65735F74 
 7529      00
 7530              	.LASF156:
 7531 091d 4C565F41 		.ascii	"LV_ALIGN_OUT_RIGHT_BOTTOM\000"
 7531      4C49474E 
 7531      5F4F5554 
 7531      5F524947 
 7531      48545F42 
 7532              	.LASF20:
 7533 0937 6C6F6E67 		.ascii	"long double\000"
 7533      20646F75 
 7533      626C6500 
 7534              	.LASF165:
 7535 0943 6C765F64 		.ascii	"lv_drag_dir_t\000"
 7535      7261675F 
 7535      6469725F 
 7535      7400
 7536              	.LASF244:
 7537 0951 7374796C 		.ascii	"style\000"
 7537      6500
 7538              	.LASF94:
 7539 0957 6578745F 		.ascii	"ext_attr\000"
 7539      61747472 
 7539      00
 7540              	.LASF167:
 7541 0960 4C565F50 		.ascii	"LV_PROTECT_NONE\000"
 7541      524F5445 
 7541      43545F4E 
 7541      4F4E4500 
 7542              	.LASF145:
 7543 0970 4C565F41 		.ascii	"LV_ALIGN_OUT_TOP_LEFT\000"
 7543      4C49474E 
 7543      5F4F5554 
 7543      5F544F50 
ARM GAS  C:\Users\tmj32\AppData\Local\Temp\ccnLJfS3.s 			page 159


 7543      5F4C4546 
 7544              	.LASF110:
 7545 0986 6C765F64 		.ascii	"lv_design_mode_t\000"
 7545      65736967 
 7545      6E5F6D6F 
 7545      64655F74 
 7545      00
 7546              	.LASF64:
 7547 0997 73756270 		.ascii	"subpx\000"
 7547      7800
 7548              	.LASF273:
 7549 099d 6C765F63 		.ascii	"lv_cont_layout_center\000"
 7549      6F6E745F 
 7549      6C61796F 
 7549      75745F63 
 7549      656E7465 
 7550              	.LASF124:
 7551 09b3 4C565F53 		.ascii	"LV_SIGNAL_PRESS_LOST\000"
 7551      49474E41 
 7551      4C5F5052 
 7551      4553535F 
 7551      4C4F5354 
 7552              	.LASF129:
 7553 09c8 4C565F53 		.ascii	"LV_SIGNAL_DRAG_END\000"
 7553      49474E41 
 7553      4C5F4452 
 7553      41475F45 
 7553      4E4400
 7554              	.LASF117:
 7555 09db 4C565F53 		.ascii	"LV_SIGNAL_PARENT_SIZE_CHG\000"
 7555      49474E41 
 7555      4C5F5041 
 7555      52454E54 
 7555      5F53495A 
 7556              	.LASF270:
 7557 09f5 6C617374 		.ascii	"last_cord\000"
 7557      5F636F72 
 7557      6400
 7558              	.LASF125:
 7559 09ff 4C565F53 		.ascii	"LV_SIGNAL_RELEASED\000"
 7559      49474E41 
 7559      4C5F5245 
 7559      4C454153 
 7559      454400
 7560              	.LASF53:
 7561 0a12 6D61696E 		.ascii	"main_color\000"
 7561      5F636F6C 
 7561      6F7200
 7562              	.LASF138:
 7563 0a1d 4C565F41 		.ascii	"LV_ALIGN_IN_TOP_MID\000"
 7563      4C49474E 
 7563      5F494E5F 
 7563      544F505F 
 7563      4D494400 
 7564              	.LASF0:
 7565 0a31 5F5F696E 		.ascii	"__int8_t\000"
 7565      74385F74 
ARM GAS  C:\Users\tmj32\AppData\Local\Temp\ccnLJfS3.s 			page 160


 7565      00
 7566              	.LASF134:
 7567 0a3a 6C765F73 		.ascii	"lv_signal_t\000"
 7567      69676E61 
 7567      6C5F7400 
 7568              	.LASF12:
 7569 0a46 6C6F6E67 		.ascii	"long long unsigned int\000"
 7569      206C6F6E 
 7569      6720756E 
 7569      7369676E 
 7569      65642069 
 7570              	.LASF302:
 7571 0a5d 6E65775F 		.ascii	"new_area\000"
 7571      61726561 
 7571      00
 7572              	.LASF173:
 7573 0a66 4C565F50 		.ascii	"LV_PROTECT_CLICK_FOCUS\000"
 7573      524F5445 
 7573      43545F43 
 7573      4C49434B 
 7573      5F464F43 
 7574              	.LASF154:
 7575 0a7d 4C565F41 		.ascii	"LV_ALIGN_OUT_RIGHT_TOP\000"
 7575      4C49474E 
 7575      5F4F5554 
 7575      5F524947 
 7575      48545F54 
 7576              	.LASF17:
 7577 0a94 75696E74 		.ascii	"uint16_t\000"
 7577      31365F74 
 7577      00
 7578              	.LASF73:
 7579 0a9d 4C565F52 		.ascii	"LV_RES_OK\000"
 7579      45535F4F 
 7579      4B00
 7580              	.LASF278:
 7581 0aa7 6368696C 		.ascii	"child_rc\000"
 7581      645F7263 
 7581      00
 7582              	.LASF38:
 7583 0ab0 6C765F63 		.ascii	"lv_color_t\000"
 7583      6F6C6F72 
 7583      5F7400
 7584              	.LASF303:
 7585 0abb 616E6365 		.ascii	"ancestor_signal\000"
 7585      73746F72 
 7585      5F736967 
 7585      6E616C00 
 7586              	.LASF277:
 7587 0acb 6368696C 		.ascii	"child_rs\000"
 7587      645F7273 
 7587      00
 7588              	.LASF300:
 7589 0ad4 666C6F6F 		.ascii	"flood_area\000"
 7589      645F6172 
 7589      656100
 7590              	.LASF249:
ARM GAS  C:\Users\tmj32\AppData\Local\Temp\ccnLJfS3.s 			page 161


 7591 0adf 6C765F61 		.ascii	"lv_area_get_height\000"
 7591      7265615F 
 7591      6765745F 
 7591      68656967 
 7591      687400
 7592              	.LASF84:
 7593 0af2 4C565F42 		.ascii	"LV_BIDI_DIR_NEUTRAL\000"
 7593      4944495F 
 7593      4449525F 
 7593      4E455554 
 7593      52414C00 
 7594              	.LASF191:
 7595 0b06 6C765F66 		.ascii	"lv_fit_t\000"
 7595      69745F74 
 7595      00
 7596              	.LASF196:
 7597 0b0f 6669745F 		.ascii	"fit_bottom\000"
 7597      626F7474 
 7597      6F6D00
 7598              	.LASF304:
 7599 0b1a 474E5520 		.ascii	"GNU C11 5.4.1 20160609 (release) [ARM/embedded-5-br"
 7599      43313120 
 7599      352E342E 
 7599      31203230 
 7599      31363036 
 7600 0b4d 616E6368 		.ascii	"anch revision 237715] -mcpu=cortex-m4 -mfloat-abi=s"
 7600      20726576 
 7600      6973696F 
 7600      6E203233 
 7600      37373135 
 7601 0b80 6F667466 		.ascii	"oftfp -mfpu=fpv4-sp-d16 -mthumb -g -O0 -ffunction-s"
 7601      70202D6D 
 7601      6670753D 
 7601      66707634 
 7601      2D73702D 
 7602 0bb3 65637469 		.ascii	"ections -ffat-lto-objects\000"
 7602      6F6E7320 
 7602      2D666661 
 7602      742D6C74 
 7602      6F2D6F62 
 7603              	.LASF206:
 7604 0bcd 6465636F 		.ascii	"decor\000"
 7604      7200
 7605              	.LASF226:
 7606 0bd3 696D6762 		.ascii	"imgbtn\000"
 7606      746E00
 7607              	.LASF4:
 7608 0bda 5F5F696E 		.ascii	"__int16_t\000"
 7608      7431365F 
 7608      7400
 7609              	.LASF224:
 7610 0be4 70616E65 		.ascii	"panel\000"
 7610      6C00
 7611              	.LASF246:
 7612 0bea 64657374 		.ascii	"dest\000"
 7612      00
 7613              	.LASF82:
ARM GAS  C:\Users\tmj32\AppData\Local\Temp\ccnLJfS3.s 			page 162


 7614 0bef 4C565F42 		.ascii	"LV_BIDI_DIR_AUTO\000"
 7614      4944495F 
 7614      4449525F 
 7614      4155544F 
 7614      00
 7615              	.LASF36:
 7616 0c00 66756C6C 		.ascii	"full\000"
 7616      00
 7617              	.LASF144:
 7618 0c05 4C565F41 		.ascii	"LV_ALIGN_IN_RIGHT_MID\000"
 7618      4C49474E 
 7618      5F494E5F 
 7618      52494748 
 7618      545F4D49 
 7619              	.LASF45:
 7620 0c1b 636F6C6F 		.ascii	"color\000"
 7620      7200
 7621              	.LASF62:
 7622 0c21 6C696E65 		.ascii	"line_space\000"
 7622      5F737061 
 7622      636500
 7623              	.LASF159:
 7624 0c2c 786F6673 		.ascii	"xofs\000"
 7624      00
 7625              	.LASF194:
 7626 0c31 6669745F 		.ascii	"fit_right\000"
 7626      72696768 
 7626      7400
 7627              	.LASF190:
 7628 0c3b 5F4C565F 		.ascii	"_LV_FIT_NUM\000"
 7628      4649545F 
 7628      4E554D00 
 7629              	.LASF166:
 7630 0c47 6C765F6F 		.ascii	"lv_obj_t\000"
 7630      626A5F74 
 7630      00
 7631              	.LASF183:
 7632 0c50 4C565F4C 		.ascii	"LV_LAYOUT_GRID\000"
 7632      41594F55 
 7632      545F4752 
 7632      494400
 7633              	.LASF44:
 7634 0c5f 6C765F73 		.ascii	"lv_shadow_type_t\000"
 7634      6861646F 
 7634      775F7479 
 7634      70655F74 
 7634      00
 7635              	.LASF97:
 7636 0c70 64726167 		.ascii	"drag\000"
 7636      00
 7637              	.LASF307:
 7638 0c75 6C765F73 		.ascii	"lv_style_pretty\000"
 7638      74796C65 
 7638      5F707265 
 7638      74747900 
 7639              	.LASF189:
 7640 0c85 4C565F46 		.ascii	"LV_FIT_FILL\000"
ARM GAS  C:\Users\tmj32\AppData\Local\Temp\ccnLJfS3.s 			page 163


 7640      49545F46 
 7640      494C4C00 
 7641              	.LASF88:
 7642 0c91 5F6C765F 		.ascii	"_lv_obj_t\000"
 7642      6F626A5F 
 7642      7400
 7643              	.LASF137:
 7644 0c9b 4C565F41 		.ascii	"LV_ALIGN_IN_TOP_LEFT\000"
 7644      4C49474E 
 7644      5F494E5F 
 7644      544F505F 
 7644      4C454654 
 7645              	.LASF60:
 7646 0cb0 666F6E74 		.ascii	"font\000"
 7646      00
 7647              	.LASF61:
 7648 0cb5 6C657474 		.ascii	"letter_space\000"
 7648      65725F73 
 7648      70616365 
 7648      00
 7649              	.LASF233:
 7650 0cc2 63616C65 		.ascii	"calendar\000"
 7650      6E646172 
 7650      00
 7651              	.LASF279:
 7652 0ccb 6368696C 		.ascii	"child_tmp\000"
 7652      645F746D 
 7652      7000
 7653              	.LASF104:
 7654 0cd5 62617365 		.ascii	"base_dir\000"
 7654      5F646972 
 7654      00
 7655              	.LASF168:
 7656 0cde 4C565F50 		.ascii	"LV_PROTECT_CHILD_CHG\000"
 7656      524F5445 
 7656      43545F43 
 7656      48494C44 
 7656      5F434847 
 7657              	.LASF172:
 7658 0cf3 4C565F50 		.ascii	"LV_PROTECT_PRESS_LOST\000"
 7658      524F5445 
 7658      43545F50 
 7658      52455353 
 7658      5F4C4F53 
 7659              	.LASF23:
 7660 0d09 626F785F 		.ascii	"box_h\000"
 7660      6800
 7661              	.LASF288:
 7662 0d0f 6C765F63 		.ascii	"lv_cont_layout_grid\000"
 7662      6F6E745F 
 7662      6C61796F 
 7662      75745F67 
 7662      72696400 
 7663              	.LASF158:
 7664 0d23 62617365 		.ascii	"base\000"
 7664      00
 7665              	.LASF22:
ARM GAS  C:\Users\tmj32\AppData\Local\Temp\ccnLJfS3.s 			page 164


 7666 0d28 626F785F 		.ascii	"box_w\000"
 7666      7700
 7667              	.LASF5:
 7668 0d2e 73686F72 		.ascii	"short int\000"
 7668      7420696E 
 7668      7400
 7669              	.LASF30:
 7670 0d38 62617365 		.ascii	"base_line\000"
 7670      5F6C696E 
 7670      6500
 7671              	.LASF79:
 7672 0d42 6C765F6C 		.ascii	"lv_ll_t\000"
 7672      6C5F7400 
 7673              	.LASF147:
 7674 0d4a 4C565F41 		.ascii	"LV_ALIGN_OUT_TOP_RIGHT\000"
 7674      4C49474E 
 7674      5F4F5554 
 7674      5F544F50 
 7674      5F524947 
 7675              	.LASF16:
 7676 0d61 696E7431 		.ascii	"int16_t\000"
 7676      365F7400 
 7677              	.LASF116:
 7678 0d69 4C565F53 		.ascii	"LV_SIGNAL_CORD_CHG\000"
 7678      49474E41 
 7678      4C5F434F 
 7678      52445F43 
 7678      484700
 7679              	.LASF90:
 7680 0d7c 636F6F72 		.ascii	"coords\000"
 7680      647300
 7681              	.LASF237:
 7682 0d83 7370696E 		.ascii	"spinbox\000"
 7682      626F7800 
 7683              	.LASF101:
 7684 0d8b 6F70615F 		.ascii	"opa_scale_en\000"
 7684      7363616C 
 7684      655F656E 
 7684      00
 7685              	.LASF213:
 7686 0d98 6461795F 		.ascii	"day_names\000"
 7686      6E616D65 
 7686      7300
 7687              	.LASF57:
 7688 0da2 73686164 		.ascii	"shadow\000"
 7688      6F7700
 7689              	.LASF185:
 7690 0da9 6C765F6C 		.ascii	"lv_layout_t\000"
 7690      61796F75 
 7690      745F7400 
 7691              	.LASF248:
 7692 0db5 6C765F61 		.ascii	"lv_area_get_width\000"
 7692      7265615F 
 7692      6765745F 
 7692      77696474 
 7692      6800
 7693              	.LASF143:
ARM GAS  C:\Users\tmj32\AppData\Local\Temp\ccnLJfS3.s 			page 165


 7694 0dc7 4C565F41 		.ascii	"LV_ALIGN_IN_LEFT_MID\000"
 7694      4C49474E 
 7694      5F494E5F 
 7694      4C454654 
 7694      5F4D4944 
 7695              	.LASF99:
 7696 0ddc 64726167 		.ascii	"drag_parent\000"
 7696      5F706172 
 7696      656E7400 
 7697              	.LASF119:
 7698 0de8 4C565F53 		.ascii	"LV_SIGNAL_BASE_DIR_CHG\000"
 7698      49474E41 
 7698      4C5F4241 
 7698      53455F44 
 7698      49525F43 
 7699              	.LASF146:
 7700 0dff 4C565F41 		.ascii	"LV_ALIGN_OUT_TOP_MID\000"
 7700      4C49474E 
 7700      5F4F5554 
 7700      5F544F50 
 7700      5F4D4944 
 7701              	.LASF81:
 7702 0e14 4C565F42 		.ascii	"LV_BIDI_DIR_RTL\000"
 7702      4944495F 
 7702      4449525F 
 7702      52544C00 
 7703              	.LASF223:
 7704 0e24 636F6E74 		.ascii	"content\000"
 7704      656E7400 
 7705              	.LASF58:
 7706 0e2c 70616464 		.ascii	"padding\000"
 7706      696E6700 
 7707              	.LASF276:
 7708 0e34 6C765F63 		.ascii	"lv_cont_layout_pretty\000"
 7708      6F6E745F 
 7708      6C61796F 
 7708      75745F70 
 7708      72657474 
 7709              	.LASF187:
 7710 0e4a 4C565F46 		.ascii	"LV_FIT_TIGHT\000"
 7710      49545F54 
 7710      49474854 
 7710      00
 7711              	.LASF92:
 7712 0e57 7369676E 		.ascii	"signal_cb\000"
 7712      616C5F63 
 7712      6200
 7713              	.LASF18:
 7714 0e61 75696E74 		.ascii	"uint32_t\000"
 7714      33325F74 
 7714      00
 7715              	.LASF294:
 7716 0e6a 795F6F66 		.ascii	"y_ofs\000"
 7716      7300
 7717              	.LASF151:
 7718 0e70 4C565F41 		.ascii	"LV_ALIGN_OUT_LEFT_TOP\000"
 7718      4C49474E 
ARM GAS  C:\Users\tmj32\AppData\Local\Temp\ccnLJfS3.s 			page 166


 7718      5F4F5554 
 7718      5F4C4546 
 7718      545F544F 
 7719              	.LASF301:
 7720 0e86 6861735F 		.ascii	"has_children\000"
 7720      6368696C 
 7720      6472656E 
 7720      00
 7721              	.LASF205:
 7722 0e93 6461726B 		.ascii	"dark\000"
 7722      00
 7723              	.LASF34:
 7724 0e98 67726565 		.ascii	"green\000"
 7724      6E00
 7725              	.LASF32:
 7726 0e9e 6C765F66 		.ascii	"lv_font_t\000"
 7726      6F6E745F 
 7726      7400
 7727              	.LASF105:
 7728 0ea8 72657365 		.ascii	"reserved\000"
 7728      72766564 
 7728      00
 7729              	.LASF259:
 7730 0eb1 6C765F63 		.ascii	"lv_cont_get_fit_left\000"
 7730      6F6E745F 
 7730      6765745F 
 7730      6669745F 
 7730      6C656674 
 7731              	.LASF7:
 7732 0ec6 73686F72 		.ascii	"short unsigned int\000"
 7732      7420756E 
 7732      7369676E 
 7732      65642069 
 7732      6E7400
 7733              	.LASF19:
 7734 0ed9 6C765F63 		.ascii	"lv_coord_t\000"
 7734      6F6F7264 
 7734      5F7400
 7735              	.LASF267:
 7736 0ee4 6C765F63 		.ascii	"lv_cont_layout_col\000"
 7736      6F6E745F 
 7736      6C61796F 
 7736      75745F63 
 7736      6F6C00
 7737              	.LASF175:
 7738 0ef7 4C565F4C 		.ascii	"LV_LAYOUT_CENTER\000"
 7738      41594F55 
 7738      545F4345 
 7738      4E544552 
 7738      00
 7739              	.LASF56:
 7740 0f08 626F7264 		.ascii	"border\000"
 7740      657200
 7741              	.LASF227:
 7742 0f0f 6C616265 		.ascii	"label\000"
 7742      6C00
 7743              	.LASF27:
ARM GAS  C:\Users\tmj32\AppData\Local\Temp\ccnLJfS3.s 			page 167


 7744 0f15 6765745F 		.ascii	"get_glyph_dsc\000"
 7744      676C7970 
 7744      685F6473 
 7744      6300
 7745              	.LASF228:
 7746 0f23 736C6964 		.ascii	"slider\000"
 7746      657200
 7747              	.LASF43:
 7748 0f2a 6C765F62 		.ascii	"lv_border_part_t\000"
 7748      6F726465 
 7748      725F7061 
 7748      72745F74 
 7748      00
 7749              	.LASF113:
 7750 0f3b 6C765F65 		.ascii	"lv_event_cb_t\000"
 7750      76656E74 
 7750      5F63625F 
 7750      7400
 7751              	.LASF298:
 7752 0f49 6368696C 		.ascii	"child_i\000"
 7752      645F6900 
 7753              	.LASF231:
 7754 0f51 7072656C 		.ascii	"preload\000"
 7754      6F616400 
 7755              	.LASF271:
 7756 0f59 6C765F63 		.ascii	"lv_cont_layout_row\000"
 7756      6F6E745F 
 7756      6C61796F 
 7756      75745F72 
 7756      6F7700
 7757              	.LASF163:
 7758 0f6c 6F726967 		.ascii	"origo_align\000"
 7758      6F5F616C 
 7758      69676E00 
 7759              	.LASF208:
 7760 0f78 6B6E6F62 		.ascii	"knob\000"
 7760      00
 7761              	.LASF59:
 7762 0f7d 73656C5F 		.ascii	"sel_color\000"
 7762      636F6C6F 
 7762      7200
 7763              	.LASF269:
 7764 0f87 68706164 		.ascii	"hpad_corr\000"
 7764      5F636F72 
 7764      7200
 7765              	.LASF87:
 7766 0f91 5F6C765F 		.ascii	"_lv_font_struct\000"
 7766      666F6E74 
 7766      5F737472 
 7766      75637400 
 7767              	.LASF47:
 7768 0fa1 70617274 		.ascii	"part\000"
 7768      00
 7769              	.LASF76:
 7770 0fa6 6E5F7369 		.ascii	"n_size\000"
 7770      7A6500
 7771              	.LASF221:
ARM GAS  C:\Users\tmj32\AppData\Local\Temp\ccnLJfS3.s 			page 168


 7772 0fad 63757273 		.ascii	"cursor\000"
 7772      6F7200
 7773              	.LASF111:
 7774 0fb4 6C765F64 		.ascii	"lv_design_cb_t\000"
 7774      65736967 
 7774      6E5F6362 
 7774      5F7400
 7775              	.LASF107:
 7776 0fc3 6F70615F 		.ascii	"opa_scale\000"
 7776      7363616C 
 7776      6500
 7777              	.LASF240:
 7778 0fcd 726F6C6C 		.ascii	"roller\000"
 7778      657200
 7779              		.ident	"GCC: (GNU Tools for ARM Embedded Processors) 5.4.1 20160609 (release) [ARM/embedded-5-bran
