ARM GAS  C:\Users\tmj32\AppData\Local\Temp\ccH9iEPr.s 			page 1


   1              		.syntax unified
   2              		.cpu cortex-m4
   3              		.eabi_attribute 27, 1
   4              		.fpu fpv4-sp-d16
   5              		.eabi_attribute 20, 1
   6              		.eabi_attribute 21, 1
   7              		.eabi_attribute 23, 3
   8              		.eabi_attribute 24, 1
   9              		.eabi_attribute 25, 1
  10              		.eabi_attribute 26, 1
  11              		.eabi_attribute 30, 6
  12              		.eabi_attribute 34, 1
  13              		.eabi_attribute 18, 4
  14              		.thumb
  15              		.syntax unified
  16              		.file	"lv_cb.c"
  17              		.text
  18              	.Ltext0:
  19              		.cfi_sections	.debug_frame
  20              		.section	.text.lv_font_get_line_height,"ax",%progbits
  21              		.align	2
  22              		.thumb
  23              		.thumb_func
  24              		.type	lv_font_get_line_height, %function
  25              	lv_font_get_line_height:
  26              	.LFB0:
  27              		.file 1 "..\\..\\..\\lvgl\\version_6.1.2\\lvgl\\src\\lv_objx\\../lv_core/../lv_font/lv_font.h"
   1:..\..\..\lvgl\version_6.1.2\lvgl\src\lv_objx\../lv_core/../lv_font/lv_font.h **** /**
   2:..\..\..\lvgl\version_6.1.2\lvgl\src\lv_objx\../lv_core/../lv_font/lv_font.h ****  * @file lv_font.h
   3:..\..\..\lvgl\version_6.1.2\lvgl\src\lv_objx\../lv_core/../lv_font/lv_font.h ****  *
   4:..\..\..\lvgl\version_6.1.2\lvgl\src\lv_objx\../lv_core/../lv_font/lv_font.h ****  */
   5:..\..\..\lvgl\version_6.1.2\lvgl\src\lv_objx\../lv_core/../lv_font/lv_font.h **** 
   6:..\..\..\lvgl\version_6.1.2\lvgl\src\lv_objx\../lv_core/../lv_font/lv_font.h **** #ifndef LV_FONT_H
   7:..\..\..\lvgl\version_6.1.2\lvgl\src\lv_objx\../lv_core/../lv_font/lv_font.h **** #define LV_FONT_H
   8:..\..\..\lvgl\version_6.1.2\lvgl\src\lv_objx\../lv_core/../lv_font/lv_font.h **** 
   9:..\..\..\lvgl\version_6.1.2\lvgl\src\lv_objx\../lv_core/../lv_font/lv_font.h **** #ifdef __cplusplus
  10:..\..\..\lvgl\version_6.1.2\lvgl\src\lv_objx\../lv_core/../lv_font/lv_font.h **** extern "C" {
  11:..\..\..\lvgl\version_6.1.2\lvgl\src\lv_objx\../lv_core/../lv_font/lv_font.h **** #endif
  12:..\..\..\lvgl\version_6.1.2\lvgl\src\lv_objx\../lv_core/../lv_font/lv_font.h **** 
  13:..\..\..\lvgl\version_6.1.2\lvgl\src\lv_objx\../lv_core/../lv_font/lv_font.h **** /*********************
  14:..\..\..\lvgl\version_6.1.2\lvgl\src\lv_objx\../lv_core/../lv_font/lv_font.h ****  *      INCLUDES
  15:..\..\..\lvgl\version_6.1.2\lvgl\src\lv_objx\../lv_core/../lv_font/lv_font.h ****  *********************/
  16:..\..\..\lvgl\version_6.1.2\lvgl\src\lv_objx\../lv_core/../lv_font/lv_font.h **** #ifdef LV_CONF_INCLUDE_SIMPLE
  17:..\..\..\lvgl\version_6.1.2\lvgl\src\lv_objx\../lv_core/../lv_font/lv_font.h **** #include "lv_conf.h"
  18:..\..\..\lvgl\version_6.1.2\lvgl\src\lv_objx\../lv_core/../lv_font/lv_font.h **** #else
  19:..\..\..\lvgl\version_6.1.2\lvgl\src\lv_objx\../lv_core/../lv_font/lv_font.h **** #include "../../../lv_conf.h"
  20:..\..\..\lvgl\version_6.1.2\lvgl\src\lv_objx\../lv_core/../lv_font/lv_font.h **** #endif
  21:..\..\..\lvgl\version_6.1.2\lvgl\src\lv_objx\../lv_core/../lv_font/lv_font.h **** 
  22:..\..\..\lvgl\version_6.1.2\lvgl\src\lv_objx\../lv_core/../lv_font/lv_font.h **** #include <stdint.h>
  23:..\..\..\lvgl\version_6.1.2\lvgl\src\lv_objx\../lv_core/../lv_font/lv_font.h **** #include <stddef.h>
  24:..\..\..\lvgl\version_6.1.2\lvgl\src\lv_objx\../lv_core/../lv_font/lv_font.h **** #include <stdbool.h>
  25:..\..\..\lvgl\version_6.1.2\lvgl\src\lv_objx\../lv_core/../lv_font/lv_font.h **** 
  26:..\..\..\lvgl\version_6.1.2\lvgl\src\lv_objx\../lv_core/../lv_font/lv_font.h **** #include "lv_symbol_def.h"
  27:..\..\..\lvgl\version_6.1.2\lvgl\src\lv_objx\../lv_core/../lv_font/lv_font.h **** 
  28:..\..\..\lvgl\version_6.1.2\lvgl\src\lv_objx\../lv_core/../lv_font/lv_font.h **** /*********************
  29:..\..\..\lvgl\version_6.1.2\lvgl\src\lv_objx\../lv_core/../lv_font/lv_font.h ****  *      DEFINES
  30:..\..\..\lvgl\version_6.1.2\lvgl\src\lv_objx\../lv_core/../lv_font/lv_font.h ****  *********************/
ARM GAS  C:\Users\tmj32\AppData\Local\Temp\ccH9iEPr.s 			page 2


  31:..\..\..\lvgl\version_6.1.2\lvgl\src\lv_objx\../lv_core/../lv_font/lv_font.h **** /*Number of fractional digits in the advanced width (`adv_w`) field of `lv_font_glyph_dsc_t`*/
  32:..\..\..\lvgl\version_6.1.2\lvgl\src\lv_objx\../lv_core/../lv_font/lv_font.h **** #define LV_FONT_WIDTH_FRACT_DIGIT       4
  33:..\..\..\lvgl\version_6.1.2\lvgl\src\lv_objx\../lv_core/../lv_font/lv_font.h **** 
  34:..\..\..\lvgl\version_6.1.2\lvgl\src\lv_objx\../lv_core/../lv_font/lv_font.h **** #define LV_FONT_KERN_POSITIVE        0
  35:..\..\..\lvgl\version_6.1.2\lvgl\src\lv_objx\../lv_core/../lv_font/lv_font.h **** #define LV_FONT_KERN_NEGATIVE        1
  36:..\..\..\lvgl\version_6.1.2\lvgl\src\lv_objx\../lv_core/../lv_font/lv_font.h **** 
  37:..\..\..\lvgl\version_6.1.2\lvgl\src\lv_objx\../lv_core/../lv_font/lv_font.h **** /**********************
  38:..\..\..\lvgl\version_6.1.2\lvgl\src\lv_objx\../lv_core/../lv_font/lv_font.h ****  *      TYPEDEFS
  39:..\..\..\lvgl\version_6.1.2\lvgl\src\lv_objx\../lv_core/../lv_font/lv_font.h ****  **********************/
  40:..\..\..\lvgl\version_6.1.2\lvgl\src\lv_objx\../lv_core/../lv_font/lv_font.h **** 
  41:..\..\..\lvgl\version_6.1.2\lvgl\src\lv_objx\../lv_core/../lv_font/lv_font.h **** /*------------------
  42:..\..\..\lvgl\version_6.1.2\lvgl\src\lv_objx\../lv_core/../lv_font/lv_font.h ****  * General types
  43:..\..\..\lvgl\version_6.1.2\lvgl\src\lv_objx\../lv_core/../lv_font/lv_font.h ****  *-----------------*/
  44:..\..\..\lvgl\version_6.1.2\lvgl\src\lv_objx\../lv_core/../lv_font/lv_font.h **** 
  45:..\..\..\lvgl\version_6.1.2\lvgl\src\lv_objx\../lv_core/../lv_font/lv_font.h **** /** Describes the properties of a glyph. */
  46:..\..\..\lvgl\version_6.1.2\lvgl\src\lv_objx\../lv_core/../lv_font/lv_font.h **** typedef struct
  47:..\..\..\lvgl\version_6.1.2\lvgl\src\lv_objx\../lv_core/../lv_font/lv_font.h **** {
  48:..\..\..\lvgl\version_6.1.2\lvgl\src\lv_objx\../lv_core/../lv_font/lv_font.h ****     uint16_t adv_w; /**< The glyph needs this space. Draw the next glyph after this width. 8 bit in
  49:..\..\..\lvgl\version_6.1.2\lvgl\src\lv_objx\../lv_core/../lv_font/lv_font.h ****     uint8_t box_w;  /**< Width of the glyph's bounding box*/
  50:..\..\..\lvgl\version_6.1.2\lvgl\src\lv_objx\../lv_core/../lv_font/lv_font.h ****     uint8_t box_h;  /**< Height of the glyph's bounding box*/
  51:..\..\..\lvgl\version_6.1.2\lvgl\src\lv_objx\../lv_core/../lv_font/lv_font.h ****     int8_t ofs_x;   /**< x offset of the bounding box*/
  52:..\..\..\lvgl\version_6.1.2\lvgl\src\lv_objx\../lv_core/../lv_font/lv_font.h ****     int8_t ofs_y;  /**< y offset of the bounding box*/
  53:..\..\..\lvgl\version_6.1.2\lvgl\src\lv_objx\../lv_core/../lv_font/lv_font.h ****     uint8_t bpp;   /**< Bit-per-pixel: 1, 2, 4, 8*/
  54:..\..\..\lvgl\version_6.1.2\lvgl\src\lv_objx\../lv_core/../lv_font/lv_font.h **** }lv_font_glyph_dsc_t;
  55:..\..\..\lvgl\version_6.1.2\lvgl\src\lv_objx\../lv_core/../lv_font/lv_font.h **** 
  56:..\..\..\lvgl\version_6.1.2\lvgl\src\lv_objx\../lv_core/../lv_font/lv_font.h **** 
  57:..\..\..\lvgl\version_6.1.2\lvgl\src\lv_objx\../lv_core/../lv_font/lv_font.h **** /** The bitmaps might be upscaled by 3 to achieve subpixel rendering. */
  58:..\..\..\lvgl\version_6.1.2\lvgl\src\lv_objx\../lv_core/../lv_font/lv_font.h **** enum {
  59:..\..\..\lvgl\version_6.1.2\lvgl\src\lv_objx\../lv_core/../lv_font/lv_font.h ****     LV_FONT_SUBPX_NONE,
  60:..\..\..\lvgl\version_6.1.2\lvgl\src\lv_objx\../lv_core/../lv_font/lv_font.h ****     LV_FONT_SUBPX_HOR,
  61:..\..\..\lvgl\version_6.1.2\lvgl\src\lv_objx\../lv_core/../lv_font/lv_font.h ****     LV_FONT_SUBPX_VER,
  62:..\..\..\lvgl\version_6.1.2\lvgl\src\lv_objx\../lv_core/../lv_font/lv_font.h ****     LV_FONT_SUBPX_BOTH,
  63:..\..\..\lvgl\version_6.1.2\lvgl\src\lv_objx\../lv_core/../lv_font/lv_font.h **** };
  64:..\..\..\lvgl\version_6.1.2\lvgl\src\lv_objx\../lv_core/../lv_font/lv_font.h **** 
  65:..\..\..\lvgl\version_6.1.2\lvgl\src\lv_objx\../lv_core/../lv_font/lv_font.h **** typedef uint8_t lv_font_subpx_t;
  66:..\..\..\lvgl\version_6.1.2\lvgl\src\lv_objx\../lv_core/../lv_font/lv_font.h **** 
  67:..\..\..\lvgl\version_6.1.2\lvgl\src\lv_objx\../lv_core/../lv_font/lv_font.h **** /** Describe the properties of a font*/
  68:..\..\..\lvgl\version_6.1.2\lvgl\src\lv_objx\../lv_core/../lv_font/lv_font.h **** typedef struct _lv_font_struct
  69:..\..\..\lvgl\version_6.1.2\lvgl\src\lv_objx\../lv_core/../lv_font/lv_font.h **** {
  70:..\..\..\lvgl\version_6.1.2\lvgl\src\lv_objx\../lv_core/../lv_font/lv_font.h ****     /** Get a glyph's  descriptor from a font*/
  71:..\..\..\lvgl\version_6.1.2\lvgl\src\lv_objx\../lv_core/../lv_font/lv_font.h ****     bool (*get_glyph_dsc)(const struct _lv_font_struct *, lv_font_glyph_dsc_t *, uint32_t letter, u
  72:..\..\..\lvgl\version_6.1.2\lvgl\src\lv_objx\../lv_core/../lv_font/lv_font.h **** 
  73:..\..\..\lvgl\version_6.1.2\lvgl\src\lv_objx\../lv_core/../lv_font/lv_font.h ****     /** Get a glyph's bitmap from a font*/
  74:..\..\..\lvgl\version_6.1.2\lvgl\src\lv_objx\../lv_core/../lv_font/lv_font.h ****     const uint8_t * (*get_glyph_bitmap)(const struct _lv_font_struct *, uint32_t);
  75:..\..\..\lvgl\version_6.1.2\lvgl\src\lv_objx\../lv_core/../lv_font/lv_font.h **** 
  76:..\..\..\lvgl\version_6.1.2\lvgl\src\lv_objx\../lv_core/../lv_font/lv_font.h ****     /*Pointer to the font in a font pack (must have the same line height)*/
  77:..\..\..\lvgl\version_6.1.2\lvgl\src\lv_objx\../lv_core/../lv_font/lv_font.h ****     uint8_t line_height;      /**< The real line height where any text fits*/
  78:..\..\..\lvgl\version_6.1.2\lvgl\src\lv_objx\../lv_core/../lv_font/lv_font.h ****     int8_t base_line;        /**< Base line measured from the top of the line_height*/
  79:..\..\..\lvgl\version_6.1.2\lvgl\src\lv_objx\../lv_core/../lv_font/lv_font.h ****     uint8_t subpx  :2;        /**< An element of `lv_font_subpx_t`*/
  80:..\..\..\lvgl\version_6.1.2\lvgl\src\lv_objx\../lv_core/../lv_font/lv_font.h ****     void * dsc;               /**< Store implementation specific or run_time data or caching here*/
  81:..\..\..\lvgl\version_6.1.2\lvgl\src\lv_objx\../lv_core/../lv_font/lv_font.h **** #if LV_USE_USER_DATA
  82:..\..\..\lvgl\version_6.1.2\lvgl\src\lv_objx\../lv_core/../lv_font/lv_font.h ****     lv_font_user_data_t user_data; /**< Custom user data for font. */
  83:..\..\..\lvgl\version_6.1.2\lvgl\src\lv_objx\../lv_core/../lv_font/lv_font.h **** #endif
  84:..\..\..\lvgl\version_6.1.2\lvgl\src\lv_objx\../lv_core/../lv_font/lv_font.h **** 
  85:..\..\..\lvgl\version_6.1.2\lvgl\src\lv_objx\../lv_core/../lv_font/lv_font.h **** 
  86:..\..\..\lvgl\version_6.1.2\lvgl\src\lv_objx\../lv_core/../lv_font/lv_font.h **** } lv_font_t;
  87:..\..\..\lvgl\version_6.1.2\lvgl\src\lv_objx\../lv_core/../lv_font/lv_font.h **** 
ARM GAS  C:\Users\tmj32\AppData\Local\Temp\ccH9iEPr.s 			page 3


  88:..\..\..\lvgl\version_6.1.2\lvgl\src\lv_objx\../lv_core/../lv_font/lv_font.h **** /**********************
  89:..\..\..\lvgl\version_6.1.2\lvgl\src\lv_objx\../lv_core/../lv_font/lv_font.h ****  * GLOBAL PROTOTYPES
  90:..\..\..\lvgl\version_6.1.2\lvgl\src\lv_objx\../lv_core/../lv_font/lv_font.h ****  **********************/
  91:..\..\..\lvgl\version_6.1.2\lvgl\src\lv_objx\../lv_core/../lv_font/lv_font.h **** 
  92:..\..\..\lvgl\version_6.1.2\lvgl\src\lv_objx\../lv_core/../lv_font/lv_font.h **** /**
  93:..\..\..\lvgl\version_6.1.2\lvgl\src\lv_objx\../lv_core/../lv_font/lv_font.h ****  * Return with the bitmap of a font.
  94:..\..\..\lvgl\version_6.1.2\lvgl\src\lv_objx\../lv_core/../lv_font/lv_font.h ****  * @param font_p pointer to a font
  95:..\..\..\lvgl\version_6.1.2\lvgl\src\lv_objx\../lv_core/../lv_font/lv_font.h ****  * @param letter an UNICODE character code
  96:..\..\..\lvgl\version_6.1.2\lvgl\src\lv_objx\../lv_core/../lv_font/lv_font.h ****  * @return  pointer to the bitmap of the letter
  97:..\..\..\lvgl\version_6.1.2\lvgl\src\lv_objx\../lv_core/../lv_font/lv_font.h ****  */
  98:..\..\..\lvgl\version_6.1.2\lvgl\src\lv_objx\../lv_core/../lv_font/lv_font.h **** const uint8_t * lv_font_get_glyph_bitmap(const lv_font_t * font_p, uint32_t letter);
  99:..\..\..\lvgl\version_6.1.2\lvgl\src\lv_objx\../lv_core/../lv_font/lv_font.h **** 
 100:..\..\..\lvgl\version_6.1.2\lvgl\src\lv_objx\../lv_core/../lv_font/lv_font.h **** /**
 101:..\..\..\lvgl\version_6.1.2\lvgl\src\lv_objx\../lv_core/../lv_font/lv_font.h ****  * Get the descriptor of a glyph
 102:..\..\..\lvgl\version_6.1.2\lvgl\src\lv_objx\../lv_core/../lv_font/lv_font.h ****  * @param font_p pointer to font
 103:..\..\..\lvgl\version_6.1.2\lvgl\src\lv_objx\../lv_core/../lv_font/lv_font.h ****  * @param dsc_out store the result descriptor here
 104:..\..\..\lvgl\version_6.1.2\lvgl\src\lv_objx\../lv_core/../lv_font/lv_font.h ****  * @param letter an UNICODE letter code
 105:..\..\..\lvgl\version_6.1.2\lvgl\src\lv_objx\../lv_core/../lv_font/lv_font.h ****  * @return true: descriptor is successfully loaded into `dsc_out`.
 106:..\..\..\lvgl\version_6.1.2\lvgl\src\lv_objx\../lv_core/../lv_font/lv_font.h ****  *         false: the letter was not found, no data is loaded to `dsc_out`
 107:..\..\..\lvgl\version_6.1.2\lvgl\src\lv_objx\../lv_core/../lv_font/lv_font.h ****  */
 108:..\..\..\lvgl\version_6.1.2\lvgl\src\lv_objx\../lv_core/../lv_font/lv_font.h **** bool lv_font_get_glyph_dsc(const lv_font_t * font_p, lv_font_glyph_dsc_t * dsc_out, uint32_t letter
 109:..\..\..\lvgl\version_6.1.2\lvgl\src\lv_objx\../lv_core/../lv_font/lv_font.h **** 
 110:..\..\..\lvgl\version_6.1.2\lvgl\src\lv_objx\../lv_core/../lv_font/lv_font.h **** /**
 111:..\..\..\lvgl\version_6.1.2\lvgl\src\lv_objx\../lv_core/../lv_font/lv_font.h ****  * Get the width of a glyph with kerning
 112:..\..\..\lvgl\version_6.1.2\lvgl\src\lv_objx\../lv_core/../lv_font/lv_font.h ****  * @param font pointer to a font
 113:..\..\..\lvgl\version_6.1.2\lvgl\src\lv_objx\../lv_core/../lv_font/lv_font.h ****  * @param letter an UNICODE letter
 114:..\..\..\lvgl\version_6.1.2\lvgl\src\lv_objx\../lv_core/../lv_font/lv_font.h ****  * @param letter_next the next letter after `letter`. Used for kerning
 115:..\..\..\lvgl\version_6.1.2\lvgl\src\lv_objx\../lv_core/../lv_font/lv_font.h ****  * @return the width of the glyph
 116:..\..\..\lvgl\version_6.1.2\lvgl\src\lv_objx\../lv_core/../lv_font/lv_font.h ****  */
 117:..\..\..\lvgl\version_6.1.2\lvgl\src\lv_objx\../lv_core/../lv_font/lv_font.h **** uint16_t lv_font_get_glyph_width(const lv_font_t * font, uint32_t letter, uint32_t letter_next);
 118:..\..\..\lvgl\version_6.1.2\lvgl\src\lv_objx\../lv_core/../lv_font/lv_font.h **** 
 119:..\..\..\lvgl\version_6.1.2\lvgl\src\lv_objx\../lv_core/../lv_font/lv_font.h **** /**
 120:..\..\..\lvgl\version_6.1.2\lvgl\src\lv_objx\../lv_core/../lv_font/lv_font.h ****  * Get the line height of a font. All characters fit into this height
 121:..\..\..\lvgl\version_6.1.2\lvgl\src\lv_objx\../lv_core/../lv_font/lv_font.h ****  * @param font_p pointer to a font
 122:..\..\..\lvgl\version_6.1.2\lvgl\src\lv_objx\../lv_core/../lv_font/lv_font.h ****  * @return the height of a font
 123:..\..\..\lvgl\version_6.1.2\lvgl\src\lv_objx\../lv_core/../lv_font/lv_font.h ****  */
 124:..\..\..\lvgl\version_6.1.2\lvgl\src\lv_objx\../lv_core/../lv_font/lv_font.h **** static inline uint8_t lv_font_get_line_height(const lv_font_t * font_p)
 125:..\..\..\lvgl\version_6.1.2\lvgl\src\lv_objx\../lv_core/../lv_font/lv_font.h **** {
  28              		.loc 1 125 0
  29              		.cfi_startproc
  30              		@ args = 0, pretend = 0, frame = 8
  31              		@ frame_needed = 1, uses_anonymous_args = 0
  32              		@ link register save eliminated.
  33 0000 80B4     		push	{r7}
  34              		.cfi_def_cfa_offset 4
  35              		.cfi_offset 7, -4
  36 0002 83B0     		sub	sp, sp, #12
  37              		.cfi_def_cfa_offset 16
  38 0004 00AF     		add	r7, sp, #0
  39              		.cfi_def_cfa_register 7
  40 0006 7860     		str	r0, [r7, #4]
 126:..\..\..\lvgl\version_6.1.2\lvgl\src\lv_objx\../lv_core/../lv_font/lv_font.h ****     return font_p->line_height;
  41              		.loc 1 126 0
  42 0008 7B68     		ldr	r3, [r7, #4]
  43 000a 1B7A     		ldrb	r3, [r3, #8]	@ zero_extendqisi2
 127:..\..\..\lvgl\version_6.1.2\lvgl\src\lv_objx\../lv_core/../lv_font/lv_font.h **** }
  44              		.loc 1 127 0
ARM GAS  C:\Users\tmj32\AppData\Local\Temp\ccH9iEPr.s 			page 4


  45 000c 1846     		mov	r0, r3
  46 000e 0C37     		adds	r7, r7, #12
  47              		.cfi_def_cfa_offset 4
  48 0010 BD46     		mov	sp, r7
  49              		.cfi_def_cfa_register 13
  50              		@ sp needed
  51 0012 5DF8047B 		ldr	r7, [sp], #4
  52              		.cfi_restore 7
  53              		.cfi_def_cfa_offset 0
  54 0016 7047     		bx	lr
  55              		.cfi_endproc
  56              	.LFE0:
  57              		.size	lv_font_get_line_height, .-lv_font_get_line_height
  58              		.section	.text.lv_cont_set_fit,"ax",%progbits
  59              		.align	2
  60              		.thumb
  61              		.thumb_func
  62              		.type	lv_cont_set_fit, %function
  63              	lv_cont_set_fit:
  64              	.LFB32:
  65              		.file 2 "..\\..\\..\\lvgl\\version_6.1.2\\lvgl\\src\\lv_objx\\lv_cont.h"
   1:..\..\..\lvgl\version_6.1.2\lvgl\src\lv_objx/lv_cont.h **** /**
   2:..\..\..\lvgl\version_6.1.2\lvgl\src\lv_objx/lv_cont.h ****  * @file lv_cont.h
   3:..\..\..\lvgl\version_6.1.2\lvgl\src\lv_objx/lv_cont.h ****  *
   4:..\..\..\lvgl\version_6.1.2\lvgl\src\lv_objx/lv_cont.h ****  */
   5:..\..\..\lvgl\version_6.1.2\lvgl\src\lv_objx/lv_cont.h **** 
   6:..\..\..\lvgl\version_6.1.2\lvgl\src\lv_objx/lv_cont.h **** #ifndef LV_CONT_H
   7:..\..\..\lvgl\version_6.1.2\lvgl\src\lv_objx/lv_cont.h **** #define LV_CONT_H
   8:..\..\..\lvgl\version_6.1.2\lvgl\src\lv_objx/lv_cont.h **** 
   9:..\..\..\lvgl\version_6.1.2\lvgl\src\lv_objx/lv_cont.h **** #ifdef __cplusplus
  10:..\..\..\lvgl\version_6.1.2\lvgl\src\lv_objx/lv_cont.h **** extern "C" {
  11:..\..\..\lvgl\version_6.1.2\lvgl\src\lv_objx/lv_cont.h **** #endif
  12:..\..\..\lvgl\version_6.1.2\lvgl\src\lv_objx/lv_cont.h **** 
  13:..\..\..\lvgl\version_6.1.2\lvgl\src\lv_objx/lv_cont.h **** /*********************
  14:..\..\..\lvgl\version_6.1.2\lvgl\src\lv_objx/lv_cont.h ****  *      INCLUDES
  15:..\..\..\lvgl\version_6.1.2\lvgl\src\lv_objx/lv_cont.h ****  *********************/
  16:..\..\..\lvgl\version_6.1.2\lvgl\src\lv_objx/lv_cont.h **** #ifdef LV_CONF_INCLUDE_SIMPLE
  17:..\..\..\lvgl\version_6.1.2\lvgl\src\lv_objx/lv_cont.h **** #include "lv_conf.h"
  18:..\..\..\lvgl\version_6.1.2\lvgl\src\lv_objx/lv_cont.h **** #else
  19:..\..\..\lvgl\version_6.1.2\lvgl\src\lv_objx/lv_cont.h **** #include "../../../lv_conf.h"
  20:..\..\..\lvgl\version_6.1.2\lvgl\src\lv_objx/lv_cont.h **** #endif
  21:..\..\..\lvgl\version_6.1.2\lvgl\src\lv_objx/lv_cont.h **** 
  22:..\..\..\lvgl\version_6.1.2\lvgl\src\lv_objx/lv_cont.h **** #if LV_USE_CONT != 0
  23:..\..\..\lvgl\version_6.1.2\lvgl\src\lv_objx/lv_cont.h **** 
  24:..\..\..\lvgl\version_6.1.2\lvgl\src\lv_objx/lv_cont.h **** #include "../lv_core/lv_obj.h"
  25:..\..\..\lvgl\version_6.1.2\lvgl\src\lv_objx/lv_cont.h **** 
  26:..\..\..\lvgl\version_6.1.2\lvgl\src\lv_objx/lv_cont.h **** /*********************
  27:..\..\..\lvgl\version_6.1.2\lvgl\src\lv_objx/lv_cont.h ****  *      DEFINES
  28:..\..\..\lvgl\version_6.1.2\lvgl\src\lv_objx/lv_cont.h ****  *********************/
  29:..\..\..\lvgl\version_6.1.2\lvgl\src\lv_objx/lv_cont.h **** 
  30:..\..\..\lvgl\version_6.1.2\lvgl\src\lv_objx/lv_cont.h **** /**********************
  31:..\..\..\lvgl\version_6.1.2\lvgl\src\lv_objx/lv_cont.h ****  *      TYPEDEFS
  32:..\..\..\lvgl\version_6.1.2\lvgl\src\lv_objx/lv_cont.h ****  **********************/
  33:..\..\..\lvgl\version_6.1.2\lvgl\src\lv_objx/lv_cont.h **** 
  34:..\..\..\lvgl\version_6.1.2\lvgl\src\lv_objx/lv_cont.h **** /** Container layout options*/
  35:..\..\..\lvgl\version_6.1.2\lvgl\src\lv_objx/lv_cont.h **** enum {
  36:..\..\..\lvgl\version_6.1.2\lvgl\src\lv_objx/lv_cont.h ****     LV_LAYOUT_OFF = 0, /**< No layout */
ARM GAS  C:\Users\tmj32\AppData\Local\Temp\ccH9iEPr.s 			page 5


  37:..\..\..\lvgl\version_6.1.2\lvgl\src\lv_objx/lv_cont.h ****     LV_LAYOUT_CENTER, /**< Center objects */
  38:..\..\..\lvgl\version_6.1.2\lvgl\src\lv_objx/lv_cont.h ****     LV_LAYOUT_COL_L,  /**< Column left align*/
  39:..\..\..\lvgl\version_6.1.2\lvgl\src\lv_objx/lv_cont.h ****     LV_LAYOUT_COL_M,  /**< Column middle align*/
  40:..\..\..\lvgl\version_6.1.2\lvgl\src\lv_objx/lv_cont.h ****     LV_LAYOUT_COL_R,  /**< Column right align*/
  41:..\..\..\lvgl\version_6.1.2\lvgl\src\lv_objx/lv_cont.h ****     LV_LAYOUT_ROW_T,  /**< Row top align*/
  42:..\..\..\lvgl\version_6.1.2\lvgl\src\lv_objx/lv_cont.h ****     LV_LAYOUT_ROW_M,  /**< Row middle align*/
  43:..\..\..\lvgl\version_6.1.2\lvgl\src\lv_objx/lv_cont.h ****     LV_LAYOUT_ROW_B,  /**< Row bottom align*/
  44:..\..\..\lvgl\version_6.1.2\lvgl\src\lv_objx/lv_cont.h ****     LV_LAYOUT_PRETTY, /**< Put as many object as possible in row and begin a new row*/
  45:..\..\..\lvgl\version_6.1.2\lvgl\src\lv_objx/lv_cont.h ****     LV_LAYOUT_GRID,   /**< Align same-sized object into a grid*/
  46:..\..\..\lvgl\version_6.1.2\lvgl\src\lv_objx/lv_cont.h ****     _LV_LAYOUT_NUM
  47:..\..\..\lvgl\version_6.1.2\lvgl\src\lv_objx/lv_cont.h **** };
  48:..\..\..\lvgl\version_6.1.2\lvgl\src\lv_objx/lv_cont.h **** typedef uint8_t lv_layout_t;
  49:..\..\..\lvgl\version_6.1.2\lvgl\src\lv_objx/lv_cont.h **** 
  50:..\..\..\lvgl\version_6.1.2\lvgl\src\lv_objx/lv_cont.h **** /**
  51:..\..\..\lvgl\version_6.1.2\lvgl\src\lv_objx/lv_cont.h ****  * How to resize the container around the children.
  52:..\..\..\lvgl\version_6.1.2\lvgl\src\lv_objx/lv_cont.h ****  */
  53:..\..\..\lvgl\version_6.1.2\lvgl\src\lv_objx/lv_cont.h **** enum {
  54:..\..\..\lvgl\version_6.1.2\lvgl\src\lv_objx/lv_cont.h ****     LV_FIT_NONE,  /**< Do not change the size automatically*/
  55:..\..\..\lvgl\version_6.1.2\lvgl\src\lv_objx/lv_cont.h ****     LV_FIT_TIGHT, /**< Shrink wrap around the children */
  56:..\..\..\lvgl\version_6.1.2\lvgl\src\lv_objx/lv_cont.h ****     LV_FIT_FLOOD, /**< Align the size to the parent's edge*/
  57:..\..\..\lvgl\version_6.1.2\lvgl\src\lv_objx/lv_cont.h ****     LV_FIT_FILL,  /**< Align the size to the parent's edge first but if there is an object out of i
  58:..\..\..\lvgl\version_6.1.2\lvgl\src\lv_objx/lv_cont.h ****                      then get larger */
  59:..\..\..\lvgl\version_6.1.2\lvgl\src\lv_objx/lv_cont.h ****     _LV_FIT_NUM
  60:..\..\..\lvgl\version_6.1.2\lvgl\src\lv_objx/lv_cont.h **** };
  61:..\..\..\lvgl\version_6.1.2\lvgl\src\lv_objx/lv_cont.h **** typedef uint8_t lv_fit_t;
  62:..\..\..\lvgl\version_6.1.2\lvgl\src\lv_objx/lv_cont.h **** 
  63:..\..\..\lvgl\version_6.1.2\lvgl\src\lv_objx/lv_cont.h **** typedef struct
  64:..\..\..\lvgl\version_6.1.2\lvgl\src\lv_objx/lv_cont.h **** {
  65:..\..\..\lvgl\version_6.1.2\lvgl\src\lv_objx/lv_cont.h ****     /*Inherited from 'base_obj' so no inherited ext. */ /*Ext. of ancestor*/
  66:..\..\..\lvgl\version_6.1.2\lvgl\src\lv_objx/lv_cont.h ****     /*New data for this type */
  67:..\..\..\lvgl\version_6.1.2\lvgl\src\lv_objx/lv_cont.h ****     uint8_t layout : 4;     /*A layout from 'lv_layout_t' enum*/
  68:..\..\..\lvgl\version_6.1.2\lvgl\src\lv_objx/lv_cont.h ****     uint8_t fit_left : 2;   /*A fit type from `lv_fit_t` enum */
  69:..\..\..\lvgl\version_6.1.2\lvgl\src\lv_objx/lv_cont.h ****     uint8_t fit_right : 2;  /*A fit type from `lv_fit_t` enum */
  70:..\..\..\lvgl\version_6.1.2\lvgl\src\lv_objx/lv_cont.h ****     uint8_t fit_top : 2;    /*A fit type from `lv_fit_t` enum */
  71:..\..\..\lvgl\version_6.1.2\lvgl\src\lv_objx/lv_cont.h ****     uint8_t fit_bottom : 2; /*A fit type from `lv_fit_t` enum */
  72:..\..\..\lvgl\version_6.1.2\lvgl\src\lv_objx/lv_cont.h **** } lv_cont_ext_t;
  73:..\..\..\lvgl\version_6.1.2\lvgl\src\lv_objx/lv_cont.h **** 
  74:..\..\..\lvgl\version_6.1.2\lvgl\src\lv_objx/lv_cont.h **** /*Styles*/
  75:..\..\..\lvgl\version_6.1.2\lvgl\src\lv_objx/lv_cont.h **** enum {
  76:..\..\..\lvgl\version_6.1.2\lvgl\src\lv_objx/lv_cont.h ****     LV_CONT_STYLE_MAIN,
  77:..\..\..\lvgl\version_6.1.2\lvgl\src\lv_objx/lv_cont.h **** };
  78:..\..\..\lvgl\version_6.1.2\lvgl\src\lv_objx/lv_cont.h **** typedef uint8_t lv_cont_style_t;
  79:..\..\..\lvgl\version_6.1.2\lvgl\src\lv_objx/lv_cont.h **** 
  80:..\..\..\lvgl\version_6.1.2\lvgl\src\lv_objx/lv_cont.h **** /**********************
  81:..\..\..\lvgl\version_6.1.2\lvgl\src\lv_objx/lv_cont.h ****  * GLOBAL PROTOTYPES
  82:..\..\..\lvgl\version_6.1.2\lvgl\src\lv_objx/lv_cont.h ****  **********************/
  83:..\..\..\lvgl\version_6.1.2\lvgl\src\lv_objx/lv_cont.h **** 
  84:..\..\..\lvgl\version_6.1.2\lvgl\src\lv_objx/lv_cont.h **** /**
  85:..\..\..\lvgl\version_6.1.2\lvgl\src\lv_objx/lv_cont.h ****  * Create a container objects
  86:..\..\..\lvgl\version_6.1.2\lvgl\src\lv_objx/lv_cont.h ****  * @param par pointer to an object, it will be the parent of the new container
  87:..\..\..\lvgl\version_6.1.2\lvgl\src\lv_objx/lv_cont.h ****  * @param copy pointer to a container object, if not NULL then the new object will be copied from i
  88:..\..\..\lvgl\version_6.1.2\lvgl\src\lv_objx/lv_cont.h ****  * @return pointer to the created container
  89:..\..\..\lvgl\version_6.1.2\lvgl\src\lv_objx/lv_cont.h ****  */
  90:..\..\..\lvgl\version_6.1.2\lvgl\src\lv_objx/lv_cont.h **** lv_obj_t * lv_cont_create(lv_obj_t * par, const lv_obj_t * copy);
  91:..\..\..\lvgl\version_6.1.2\lvgl\src\lv_objx/lv_cont.h **** 
  92:..\..\..\lvgl\version_6.1.2\lvgl\src\lv_objx/lv_cont.h **** /*=====================
  93:..\..\..\lvgl\version_6.1.2\lvgl\src\lv_objx/lv_cont.h ****  * Setter functions
ARM GAS  C:\Users\tmj32\AppData\Local\Temp\ccH9iEPr.s 			page 6


  94:..\..\..\lvgl\version_6.1.2\lvgl\src\lv_objx/lv_cont.h ****  *====================*/
  95:..\..\..\lvgl\version_6.1.2\lvgl\src\lv_objx/lv_cont.h **** 
  96:..\..\..\lvgl\version_6.1.2\lvgl\src\lv_objx/lv_cont.h **** /**
  97:..\..\..\lvgl\version_6.1.2\lvgl\src\lv_objx/lv_cont.h ****  * Set a layout on a container
  98:..\..\..\lvgl\version_6.1.2\lvgl\src\lv_objx/lv_cont.h ****  * @param cont pointer to a container object
  99:..\..\..\lvgl\version_6.1.2\lvgl\src\lv_objx/lv_cont.h ****  * @param layout a layout from 'lv_cont_layout_t'
 100:..\..\..\lvgl\version_6.1.2\lvgl\src\lv_objx/lv_cont.h ****  */
 101:..\..\..\lvgl\version_6.1.2\lvgl\src\lv_objx/lv_cont.h **** void lv_cont_set_layout(lv_obj_t * cont, lv_layout_t layout);
 102:..\..\..\lvgl\version_6.1.2\lvgl\src\lv_objx/lv_cont.h **** 
 103:..\..\..\lvgl\version_6.1.2\lvgl\src\lv_objx/lv_cont.h **** /**
 104:..\..\..\lvgl\version_6.1.2\lvgl\src\lv_objx/lv_cont.h ****  * Set the fit policy in all 4 directions separately.
 105:..\..\..\lvgl\version_6.1.2\lvgl\src\lv_objx/lv_cont.h ****  * It tell how to change the container's size automatically.
 106:..\..\..\lvgl\version_6.1.2\lvgl\src\lv_objx/lv_cont.h ****  * @param cont pointer to a container object
 107:..\..\..\lvgl\version_6.1.2\lvgl\src\lv_objx/lv_cont.h ****  * @param left left fit policy from `lv_fit_t`
 108:..\..\..\lvgl\version_6.1.2\lvgl\src\lv_objx/lv_cont.h ****  * @param right right fit policy from `lv_fit_t`
 109:..\..\..\lvgl\version_6.1.2\lvgl\src\lv_objx/lv_cont.h ****  * @param top top fit policy from `lv_fit_t`
 110:..\..\..\lvgl\version_6.1.2\lvgl\src\lv_objx/lv_cont.h ****  * @param bottom bottom fit policy from `lv_fit_t`
 111:..\..\..\lvgl\version_6.1.2\lvgl\src\lv_objx/lv_cont.h ****  */
 112:..\..\..\lvgl\version_6.1.2\lvgl\src\lv_objx/lv_cont.h **** void lv_cont_set_fit4(lv_obj_t * cont, lv_fit_t left, lv_fit_t right, lv_fit_t top, lv_fit_t bottom
 113:..\..\..\lvgl\version_6.1.2\lvgl\src\lv_objx/lv_cont.h **** 
 114:..\..\..\lvgl\version_6.1.2\lvgl\src\lv_objx/lv_cont.h **** /**
 115:..\..\..\lvgl\version_6.1.2\lvgl\src\lv_objx/lv_cont.h ****  * Set the fit policy horizontally and vertically separately.
 116:..\..\..\lvgl\version_6.1.2\lvgl\src\lv_objx/lv_cont.h ****  * It tells how to change the container's size automatically.
 117:..\..\..\lvgl\version_6.1.2\lvgl\src\lv_objx/lv_cont.h ****  * @param cont pointer to a container object
 118:..\..\..\lvgl\version_6.1.2\lvgl\src\lv_objx/lv_cont.h ****  * @param hor horizontal fit policy from `lv_fit_t`
 119:..\..\..\lvgl\version_6.1.2\lvgl\src\lv_objx/lv_cont.h ****  * @param ver vertical fit policy from `lv_fit_t`
 120:..\..\..\lvgl\version_6.1.2\lvgl\src\lv_objx/lv_cont.h ****  */
 121:..\..\..\lvgl\version_6.1.2\lvgl\src\lv_objx/lv_cont.h **** static inline void lv_cont_set_fit2(lv_obj_t * cont, lv_fit_t hor, lv_fit_t ver)
 122:..\..\..\lvgl\version_6.1.2\lvgl\src\lv_objx/lv_cont.h **** {
 123:..\..\..\lvgl\version_6.1.2\lvgl\src\lv_objx/lv_cont.h ****     lv_cont_set_fit4(cont, hor, hor, ver, ver);
 124:..\..\..\lvgl\version_6.1.2\lvgl\src\lv_objx/lv_cont.h **** }
 125:..\..\..\lvgl\version_6.1.2\lvgl\src\lv_objx/lv_cont.h **** 
 126:..\..\..\lvgl\version_6.1.2\lvgl\src\lv_objx/lv_cont.h **** /**
 127:..\..\..\lvgl\version_6.1.2\lvgl\src\lv_objx/lv_cont.h ****  * Set the fit policy in all 4 direction at once.
 128:..\..\..\lvgl\version_6.1.2\lvgl\src\lv_objx/lv_cont.h ****  * It tells how to change the container's size automatically.
 129:..\..\..\lvgl\version_6.1.2\lvgl\src\lv_objx/lv_cont.h ****  * @param cont pointer to a container object
 130:..\..\..\lvgl\version_6.1.2\lvgl\src\lv_objx/lv_cont.h ****  * @param fit fit policy from `lv_fit_t`
 131:..\..\..\lvgl\version_6.1.2\lvgl\src\lv_objx/lv_cont.h ****  */
 132:..\..\..\lvgl\version_6.1.2\lvgl\src\lv_objx/lv_cont.h **** static inline void lv_cont_set_fit(lv_obj_t * cont, lv_fit_t fit)
 133:..\..\..\lvgl\version_6.1.2\lvgl\src\lv_objx/lv_cont.h **** {
  66              		.loc 2 133 0
  67              		.cfi_startproc
  68              		@ args = 0, pretend = 0, frame = 8
  69              		@ frame_needed = 1, uses_anonymous_args = 0
  70 0000 80B5     		push	{r7, lr}
  71              		.cfi_def_cfa_offset 8
  72              		.cfi_offset 7, -8
  73              		.cfi_offset 14, -4
  74 0002 84B0     		sub	sp, sp, #16
  75              		.cfi_def_cfa_offset 24
  76 0004 02AF     		add	r7, sp, #8
  77              		.cfi_def_cfa 7, 16
  78 0006 7860     		str	r0, [r7, #4]
  79 0008 0B46     		mov	r3, r1
  80 000a FB70     		strb	r3, [r7, #3]
 134:..\..\..\lvgl\version_6.1.2\lvgl\src\lv_objx/lv_cont.h ****     lv_cont_set_fit4(cont, fit, fit, fit, fit);
  81              		.loc 2 134 0
ARM GAS  C:\Users\tmj32\AppData\Local\Temp\ccH9iEPr.s 			page 7


  82 000c F878     		ldrb	r0, [r7, #3]	@ zero_extendqisi2
  83 000e FA78     		ldrb	r2, [r7, #3]	@ zero_extendqisi2
  84 0010 F978     		ldrb	r1, [r7, #3]	@ zero_extendqisi2
  85 0012 FB78     		ldrb	r3, [r7, #3]	@ zero_extendqisi2
  86 0014 0093     		str	r3, [sp]
  87 0016 0346     		mov	r3, r0
  88 0018 7868     		ldr	r0, [r7, #4]
  89 001a FFF7FEFF 		bl	lv_cont_set_fit4
 135:..\..\..\lvgl\version_6.1.2\lvgl\src\lv_objx/lv_cont.h **** }
  90              		.loc 2 135 0
  91 001e 00BF     		nop
  92 0020 0837     		adds	r7, r7, #8
  93              		.cfi_def_cfa_offset 8
  94 0022 BD46     		mov	sp, r7
  95              		.cfi_def_cfa_register 13
  96              		@ sp needed
  97 0024 80BD     		pop	{r7, pc}
  98              		.cfi_endproc
  99              	.LFE32:
 100              		.size	lv_cont_set_fit, .-lv_cont_set_fit
 101 0026 00BF     		.section	.text.lv_btn_set_layout,"ax",%progbits
 102              		.align	2
 103              		.thumb
 104              		.thumb_func
 105              		.type	lv_btn_set_layout, %function
 106              	lv_btn_set_layout:
 107              	.LFB35:
 108              		.file 3 "..\\..\\..\\lvgl\\version_6.1.2\\lvgl\\src\\lv_objx\\lv_btn.h"
   1:..\..\..\lvgl\version_6.1.2\lvgl\src\lv_objx/lv_btn.h **** /**
   2:..\..\..\lvgl\version_6.1.2\lvgl\src\lv_objx/lv_btn.h ****  * @file lv_btn.h
   3:..\..\..\lvgl\version_6.1.2\lvgl\src\lv_objx/lv_btn.h ****  *
   4:..\..\..\lvgl\version_6.1.2\lvgl\src\lv_objx/lv_btn.h ****  */
   5:..\..\..\lvgl\version_6.1.2\lvgl\src\lv_objx/lv_btn.h **** 
   6:..\..\..\lvgl\version_6.1.2\lvgl\src\lv_objx/lv_btn.h **** #ifndef LV_BTN_H
   7:..\..\..\lvgl\version_6.1.2\lvgl\src\lv_objx/lv_btn.h **** #define LV_BTN_H
   8:..\..\..\lvgl\version_6.1.2\lvgl\src\lv_objx/lv_btn.h **** 
   9:..\..\..\lvgl\version_6.1.2\lvgl\src\lv_objx/lv_btn.h **** #ifdef __cplusplus
  10:..\..\..\lvgl\version_6.1.2\lvgl\src\lv_objx/lv_btn.h **** extern "C" {
  11:..\..\..\lvgl\version_6.1.2\lvgl\src\lv_objx/lv_btn.h **** #endif
  12:..\..\..\lvgl\version_6.1.2\lvgl\src\lv_objx/lv_btn.h **** 
  13:..\..\..\lvgl\version_6.1.2\lvgl\src\lv_objx/lv_btn.h **** /*********************
  14:..\..\..\lvgl\version_6.1.2\lvgl\src\lv_objx/lv_btn.h ****  *      INCLUDES
  15:..\..\..\lvgl\version_6.1.2\lvgl\src\lv_objx/lv_btn.h ****  *********************/
  16:..\..\..\lvgl\version_6.1.2\lvgl\src\lv_objx/lv_btn.h **** #ifdef LV_CONF_INCLUDE_SIMPLE
  17:..\..\..\lvgl\version_6.1.2\lvgl\src\lv_objx/lv_btn.h **** #include "lv_conf.h"
  18:..\..\..\lvgl\version_6.1.2\lvgl\src\lv_objx/lv_btn.h **** #else
  19:..\..\..\lvgl\version_6.1.2\lvgl\src\lv_objx/lv_btn.h **** #include "../../../lv_conf.h"
  20:..\..\..\lvgl\version_6.1.2\lvgl\src\lv_objx/lv_btn.h **** #endif
  21:..\..\..\lvgl\version_6.1.2\lvgl\src\lv_objx/lv_btn.h **** 
  22:..\..\..\lvgl\version_6.1.2\lvgl\src\lv_objx/lv_btn.h **** #if LV_USE_BTN != 0
  23:..\..\..\lvgl\version_6.1.2\lvgl\src\lv_objx/lv_btn.h **** 
  24:..\..\..\lvgl\version_6.1.2\lvgl\src\lv_objx/lv_btn.h **** /*Testing of dependencies*/
  25:..\..\..\lvgl\version_6.1.2\lvgl\src\lv_objx/lv_btn.h **** #if LV_USE_CONT == 0
  26:..\..\..\lvgl\version_6.1.2\lvgl\src\lv_objx/lv_btn.h **** #error "lv_btn: lv_cont is required. Enable it in lv_conf.h (LV_USE_CONT  1) "
  27:..\..\..\lvgl\version_6.1.2\lvgl\src\lv_objx/lv_btn.h **** #endif
  28:..\..\..\lvgl\version_6.1.2\lvgl\src\lv_objx/lv_btn.h **** 
  29:..\..\..\lvgl\version_6.1.2\lvgl\src\lv_objx/lv_btn.h **** #include "lv_cont.h"
ARM GAS  C:\Users\tmj32\AppData\Local\Temp\ccH9iEPr.s 			page 8


  30:..\..\..\lvgl\version_6.1.2\lvgl\src\lv_objx/lv_btn.h **** #include "../lv_core/lv_indev.h"
  31:..\..\..\lvgl\version_6.1.2\lvgl\src\lv_objx/lv_btn.h **** 
  32:..\..\..\lvgl\version_6.1.2\lvgl\src\lv_objx/lv_btn.h **** /*********************
  33:..\..\..\lvgl\version_6.1.2\lvgl\src\lv_objx/lv_btn.h ****  *      DEFINES
  34:..\..\..\lvgl\version_6.1.2\lvgl\src\lv_objx/lv_btn.h ****  *********************/
  35:..\..\..\lvgl\version_6.1.2\lvgl\src\lv_objx/lv_btn.h **** 
  36:..\..\..\lvgl\version_6.1.2\lvgl\src\lv_objx/lv_btn.h **** /**********************
  37:..\..\..\lvgl\version_6.1.2\lvgl\src\lv_objx/lv_btn.h ****  *      TYPEDEFS
  38:..\..\..\lvgl\version_6.1.2\lvgl\src\lv_objx/lv_btn.h ****  **********************/
  39:..\..\..\lvgl\version_6.1.2\lvgl\src\lv_objx/lv_btn.h **** 
  40:..\..\..\lvgl\version_6.1.2\lvgl\src\lv_objx/lv_btn.h **** /** Possible states of a button.
  41:..\..\..\lvgl\version_6.1.2\lvgl\src\lv_objx/lv_btn.h ****  * It can be used not only by buttons but other button-like objects too*/
  42:..\..\..\lvgl\version_6.1.2\lvgl\src\lv_objx/lv_btn.h **** enum {
  43:..\..\..\lvgl\version_6.1.2\lvgl\src\lv_objx/lv_btn.h ****     /**Released*/
  44:..\..\..\lvgl\version_6.1.2\lvgl\src\lv_objx/lv_btn.h ****     LV_BTN_STATE_REL,
  45:..\..\..\lvgl\version_6.1.2\lvgl\src\lv_objx/lv_btn.h **** 
  46:..\..\..\lvgl\version_6.1.2\lvgl\src\lv_objx/lv_btn.h ****     /**Pressed*/
  47:..\..\..\lvgl\version_6.1.2\lvgl\src\lv_objx/lv_btn.h ****     LV_BTN_STATE_PR,
  48:..\..\..\lvgl\version_6.1.2\lvgl\src\lv_objx/lv_btn.h **** 
  49:..\..\..\lvgl\version_6.1.2\lvgl\src\lv_objx/lv_btn.h ****     /**Toggled released*/
  50:..\..\..\lvgl\version_6.1.2\lvgl\src\lv_objx/lv_btn.h ****     LV_BTN_STATE_TGL_REL,
  51:..\..\..\lvgl\version_6.1.2\lvgl\src\lv_objx/lv_btn.h **** 
  52:..\..\..\lvgl\version_6.1.2\lvgl\src\lv_objx/lv_btn.h ****     /**Toggled pressed*/
  53:..\..\..\lvgl\version_6.1.2\lvgl\src\lv_objx/lv_btn.h ****     LV_BTN_STATE_TGL_PR,
  54:..\..\..\lvgl\version_6.1.2\lvgl\src\lv_objx/lv_btn.h **** 
  55:..\..\..\lvgl\version_6.1.2\lvgl\src\lv_objx/lv_btn.h ****     /**Inactive*/
  56:..\..\..\lvgl\version_6.1.2\lvgl\src\lv_objx/lv_btn.h ****     LV_BTN_STATE_INA,
  57:..\..\..\lvgl\version_6.1.2\lvgl\src\lv_objx/lv_btn.h **** 
  58:..\..\..\lvgl\version_6.1.2\lvgl\src\lv_objx/lv_btn.h ****     /**Number of states*/
  59:..\..\..\lvgl\version_6.1.2\lvgl\src\lv_objx/lv_btn.h ****     _LV_BTN_STATE_NUM,
  60:..\..\..\lvgl\version_6.1.2\lvgl\src\lv_objx/lv_btn.h **** };
  61:..\..\..\lvgl\version_6.1.2\lvgl\src\lv_objx/lv_btn.h **** typedef uint8_t lv_btn_state_t;
  62:..\..\..\lvgl\version_6.1.2\lvgl\src\lv_objx/lv_btn.h **** 
  63:..\..\..\lvgl\version_6.1.2\lvgl\src\lv_objx/lv_btn.h **** /** Extended data of button*/
  64:..\..\..\lvgl\version_6.1.2\lvgl\src\lv_objx/lv_btn.h **** typedef struct
  65:..\..\..\lvgl\version_6.1.2\lvgl\src\lv_objx/lv_btn.h **** {
  66:..\..\..\lvgl\version_6.1.2\lvgl\src\lv_objx/lv_btn.h ****     /** Ext. of ancestor*/
  67:..\..\..\lvgl\version_6.1.2\lvgl\src\lv_objx/lv_btn.h ****     lv_cont_ext_t cont;
  68:..\..\..\lvgl\version_6.1.2\lvgl\src\lv_objx/lv_btn.h **** 
  69:..\..\..\lvgl\version_6.1.2\lvgl\src\lv_objx/lv_btn.h ****     /*New data for this type */
  70:..\..\..\lvgl\version_6.1.2\lvgl\src\lv_objx/lv_btn.h **** 
  71:..\..\..\lvgl\version_6.1.2\lvgl\src\lv_objx/lv_btn.h ****     /**Styles in each state*/
  72:..\..\..\lvgl\version_6.1.2\lvgl\src\lv_objx/lv_btn.h ****     const lv_style_t * styles[_LV_BTN_STATE_NUM];
  73:..\..\..\lvgl\version_6.1.2\lvgl\src\lv_objx/lv_btn.h **** #if LV_BTN_INK_EFFECT
  74:..\..\..\lvgl\version_6.1.2\lvgl\src\lv_objx/lv_btn.h ****     /** [ms] Time of ink fill effect (0: disable ink effect)*/
  75:..\..\..\lvgl\version_6.1.2\lvgl\src\lv_objx/lv_btn.h ****     uint16_t ink_in_time;
  76:..\..\..\lvgl\version_6.1.2\lvgl\src\lv_objx/lv_btn.h **** 
  77:..\..\..\lvgl\version_6.1.2\lvgl\src\lv_objx/lv_btn.h ****     /** [ms] Wait before the ink disappears */
  78:..\..\..\lvgl\version_6.1.2\lvgl\src\lv_objx/lv_btn.h ****     uint16_t ink_wait_time;
  79:..\..\..\lvgl\version_6.1.2\lvgl\src\lv_objx/lv_btn.h **** 
  80:..\..\..\lvgl\version_6.1.2\lvgl\src\lv_objx/lv_btn.h ****     /** [ms] Time of ink disappearing*/
  81:..\..\..\lvgl\version_6.1.2\lvgl\src\lv_objx/lv_btn.h ****     uint16_t ink_out_time;
  82:..\..\..\lvgl\version_6.1.2\lvgl\src\lv_objx/lv_btn.h **** #endif
  83:..\..\..\lvgl\version_6.1.2\lvgl\src\lv_objx/lv_btn.h **** 
  84:..\..\..\lvgl\version_6.1.2\lvgl\src\lv_objx/lv_btn.h ****     /** Current state of the button from 'lv_btn_state_t' enum*/
  85:..\..\..\lvgl\version_6.1.2\lvgl\src\lv_objx/lv_btn.h ****     lv_btn_state_t state : 3;
  86:..\..\..\lvgl\version_6.1.2\lvgl\src\lv_objx/lv_btn.h **** 
ARM GAS  C:\Users\tmj32\AppData\Local\Temp\ccH9iEPr.s 			page 9


  87:..\..\..\lvgl\version_6.1.2\lvgl\src\lv_objx/lv_btn.h ****     /** 1: Toggle enabled*/
  88:..\..\..\lvgl\version_6.1.2\lvgl\src\lv_objx/lv_btn.h ****     uint8_t toggle : 1;
  89:..\..\..\lvgl\version_6.1.2\lvgl\src\lv_objx/lv_btn.h **** } lv_btn_ext_t;
  90:..\..\..\lvgl\version_6.1.2\lvgl\src\lv_objx/lv_btn.h **** 
  91:..\..\..\lvgl\version_6.1.2\lvgl\src\lv_objx/lv_btn.h **** /**Styles*/
  92:..\..\..\lvgl\version_6.1.2\lvgl\src\lv_objx/lv_btn.h **** enum {
  93:..\..\..\lvgl\version_6.1.2\lvgl\src\lv_objx/lv_btn.h ****     /** Release style */
  94:..\..\..\lvgl\version_6.1.2\lvgl\src\lv_objx/lv_btn.h ****     LV_BTN_STYLE_REL,
  95:..\..\..\lvgl\version_6.1.2\lvgl\src\lv_objx/lv_btn.h **** 
  96:..\..\..\lvgl\version_6.1.2\lvgl\src\lv_objx/lv_btn.h ****     /**Pressed style*/
  97:..\..\..\lvgl\version_6.1.2\lvgl\src\lv_objx/lv_btn.h ****     LV_BTN_STYLE_PR,
  98:..\..\..\lvgl\version_6.1.2\lvgl\src\lv_objx/lv_btn.h **** 
  99:..\..\..\lvgl\version_6.1.2\lvgl\src\lv_objx/lv_btn.h ****     /** Toggle released style*/
 100:..\..\..\lvgl\version_6.1.2\lvgl\src\lv_objx/lv_btn.h ****     LV_BTN_STYLE_TGL_REL,
 101:..\..\..\lvgl\version_6.1.2\lvgl\src\lv_objx/lv_btn.h **** 
 102:..\..\..\lvgl\version_6.1.2\lvgl\src\lv_objx/lv_btn.h ****     /** Toggle pressed style */
 103:..\..\..\lvgl\version_6.1.2\lvgl\src\lv_objx/lv_btn.h ****     LV_BTN_STYLE_TGL_PR,
 104:..\..\..\lvgl\version_6.1.2\lvgl\src\lv_objx/lv_btn.h **** 
 105:..\..\..\lvgl\version_6.1.2\lvgl\src\lv_objx/lv_btn.h ****     /** Inactive style*/
 106:..\..\..\lvgl\version_6.1.2\lvgl\src\lv_objx/lv_btn.h ****     LV_BTN_STYLE_INA,
 107:..\..\..\lvgl\version_6.1.2\lvgl\src\lv_objx/lv_btn.h **** };
 108:..\..\..\lvgl\version_6.1.2\lvgl\src\lv_objx/lv_btn.h **** typedef uint8_t lv_btn_style_t;
 109:..\..\..\lvgl\version_6.1.2\lvgl\src\lv_objx/lv_btn.h **** 
 110:..\..\..\lvgl\version_6.1.2\lvgl\src\lv_objx/lv_btn.h **** /**********************
 111:..\..\..\lvgl\version_6.1.2\lvgl\src\lv_objx/lv_btn.h ****  * GLOBAL PROTOTYPES
 112:..\..\..\lvgl\version_6.1.2\lvgl\src\lv_objx/lv_btn.h ****  **********************/
 113:..\..\..\lvgl\version_6.1.2\lvgl\src\lv_objx/lv_btn.h **** 
 114:..\..\..\lvgl\version_6.1.2\lvgl\src\lv_objx/lv_btn.h **** /**
 115:..\..\..\lvgl\version_6.1.2\lvgl\src\lv_objx/lv_btn.h ****  * Create a button object
 116:..\..\..\lvgl\version_6.1.2\lvgl\src\lv_objx/lv_btn.h ****  * @param par pointer to an object, it will be the parent of the new button
 117:..\..\..\lvgl\version_6.1.2\lvgl\src\lv_objx/lv_btn.h ****  * @param copy pointer to a button object, if not NULL then the new object will be copied from it
 118:..\..\..\lvgl\version_6.1.2\lvgl\src\lv_objx/lv_btn.h ****  * @return pointer to the created button
 119:..\..\..\lvgl\version_6.1.2\lvgl\src\lv_objx/lv_btn.h ****  */
 120:..\..\..\lvgl\version_6.1.2\lvgl\src\lv_objx/lv_btn.h **** lv_obj_t * lv_btn_create(lv_obj_t * par, const lv_obj_t * copy);
 121:..\..\..\lvgl\version_6.1.2\lvgl\src\lv_objx/lv_btn.h **** 
 122:..\..\..\lvgl\version_6.1.2\lvgl\src\lv_objx/lv_btn.h **** /*=====================
 123:..\..\..\lvgl\version_6.1.2\lvgl\src\lv_objx/lv_btn.h ****  * Setter functions
 124:..\..\..\lvgl\version_6.1.2\lvgl\src\lv_objx/lv_btn.h ****  *====================*/
 125:..\..\..\lvgl\version_6.1.2\lvgl\src\lv_objx/lv_btn.h **** 
 126:..\..\..\lvgl\version_6.1.2\lvgl\src\lv_objx/lv_btn.h **** /**
 127:..\..\..\lvgl\version_6.1.2\lvgl\src\lv_objx/lv_btn.h ****  * Enable the toggled states. On release the button will change from/to toggled state.
 128:..\..\..\lvgl\version_6.1.2\lvgl\src\lv_objx/lv_btn.h ****  * @param btn pointer to a button object
 129:..\..\..\lvgl\version_6.1.2\lvgl\src\lv_objx/lv_btn.h ****  * @param tgl true: enable toggled states, false: disable
 130:..\..\..\lvgl\version_6.1.2\lvgl\src\lv_objx/lv_btn.h ****  */
 131:..\..\..\lvgl\version_6.1.2\lvgl\src\lv_objx/lv_btn.h **** void lv_btn_set_toggle(lv_obj_t * btn, bool tgl);
 132:..\..\..\lvgl\version_6.1.2\lvgl\src\lv_objx/lv_btn.h **** 
 133:..\..\..\lvgl\version_6.1.2\lvgl\src\lv_objx/lv_btn.h **** /**
 134:..\..\..\lvgl\version_6.1.2\lvgl\src\lv_objx/lv_btn.h ****  * Set the state of the button
 135:..\..\..\lvgl\version_6.1.2\lvgl\src\lv_objx/lv_btn.h ****  * @param btn pointer to a button object
 136:..\..\..\lvgl\version_6.1.2\lvgl\src\lv_objx/lv_btn.h ****  * @param state the new state of the button (from lv_btn_state_t enum)
 137:..\..\..\lvgl\version_6.1.2\lvgl\src\lv_objx/lv_btn.h ****  */
 138:..\..\..\lvgl\version_6.1.2\lvgl\src\lv_objx/lv_btn.h **** void lv_btn_set_state(lv_obj_t * btn, lv_btn_state_t state);
 139:..\..\..\lvgl\version_6.1.2\lvgl\src\lv_objx/lv_btn.h **** 
 140:..\..\..\lvgl\version_6.1.2\lvgl\src\lv_objx/lv_btn.h **** /**
 141:..\..\..\lvgl\version_6.1.2\lvgl\src\lv_objx/lv_btn.h ****  * Toggle the state of the button (ON->OFF, OFF->ON)
 142:..\..\..\lvgl\version_6.1.2\lvgl\src\lv_objx/lv_btn.h ****  * @param btn pointer to a button object
 143:..\..\..\lvgl\version_6.1.2\lvgl\src\lv_objx/lv_btn.h ****  */
ARM GAS  C:\Users\tmj32\AppData\Local\Temp\ccH9iEPr.s 			page 10


 144:..\..\..\lvgl\version_6.1.2\lvgl\src\lv_objx/lv_btn.h **** void lv_btn_toggle(lv_obj_t * btn);
 145:..\..\..\lvgl\version_6.1.2\lvgl\src\lv_objx/lv_btn.h **** 
 146:..\..\..\lvgl\version_6.1.2\lvgl\src\lv_objx/lv_btn.h **** /**
 147:..\..\..\lvgl\version_6.1.2\lvgl\src\lv_objx/lv_btn.h ****  * Set the layout on a button
 148:..\..\..\lvgl\version_6.1.2\lvgl\src\lv_objx/lv_btn.h ****  * @param btn pointer to a button object
 149:..\..\..\lvgl\version_6.1.2\lvgl\src\lv_objx/lv_btn.h ****  * @param layout a layout from 'lv_cont_layout_t'
 150:..\..\..\lvgl\version_6.1.2\lvgl\src\lv_objx/lv_btn.h ****  */
 151:..\..\..\lvgl\version_6.1.2\lvgl\src\lv_objx/lv_btn.h **** static inline void lv_btn_set_layout(lv_obj_t * btn, lv_layout_t layout)
 152:..\..\..\lvgl\version_6.1.2\lvgl\src\lv_objx/lv_btn.h **** {
 109              		.loc 3 152 0
 110              		.cfi_startproc
 111              		@ args = 0, pretend = 0, frame = 8
 112              		@ frame_needed = 1, uses_anonymous_args = 0
 113 0000 80B5     		push	{r7, lr}
 114              		.cfi_def_cfa_offset 8
 115              		.cfi_offset 7, -8
 116              		.cfi_offset 14, -4
 117 0002 82B0     		sub	sp, sp, #8
 118              		.cfi_def_cfa_offset 16
 119 0004 00AF     		add	r7, sp, #0
 120              		.cfi_def_cfa_register 7
 121 0006 7860     		str	r0, [r7, #4]
 122 0008 0B46     		mov	r3, r1
 123 000a FB70     		strb	r3, [r7, #3]
 153:..\..\..\lvgl\version_6.1.2\lvgl\src\lv_objx/lv_btn.h ****     lv_cont_set_layout(btn, layout);
 124              		.loc 3 153 0
 125 000c FB78     		ldrb	r3, [r7, #3]	@ zero_extendqisi2
 126 000e 1946     		mov	r1, r3
 127 0010 7868     		ldr	r0, [r7, #4]
 128 0012 FFF7FEFF 		bl	lv_cont_set_layout
 154:..\..\..\lvgl\version_6.1.2\lvgl\src\lv_objx/lv_btn.h **** }
 129              		.loc 3 154 0
 130 0016 00BF     		nop
 131 0018 0837     		adds	r7, r7, #8
 132              		.cfi_def_cfa_offset 8
 133 001a BD46     		mov	sp, r7
 134              		.cfi_def_cfa_register 13
 135              		@ sp needed
 136 001c 80BD     		pop	{r7, pc}
 137              		.cfi_endproc
 138              	.LFE35:
 139              		.size	lv_btn_set_layout, .-lv_btn_set_layout
 140 001e 00BF     		.section	.text.lv_btn_set_fit,"ax",%progbits
 141              		.align	2
 142              		.thumb
 143              		.thumb_func
 144              		.type	lv_btn_set_fit, %function
 145              	lv_btn_set_fit:
 146              	.LFB38:
 155:..\..\..\lvgl\version_6.1.2\lvgl\src\lv_objx/lv_btn.h **** 
 156:..\..\..\lvgl\version_6.1.2\lvgl\src\lv_objx/lv_btn.h **** /**
 157:..\..\..\lvgl\version_6.1.2\lvgl\src\lv_objx/lv_btn.h ****  * Set the fit policy in all 4 directions separately.
 158:..\..\..\lvgl\version_6.1.2\lvgl\src\lv_objx/lv_btn.h ****  * It tells how to change the button size automatically.
 159:..\..\..\lvgl\version_6.1.2\lvgl\src\lv_objx/lv_btn.h ****  * @param btn pointer to a button object
 160:..\..\..\lvgl\version_6.1.2\lvgl\src\lv_objx/lv_btn.h ****  * @param left left fit policy from `lv_fit_t`
 161:..\..\..\lvgl\version_6.1.2\lvgl\src\lv_objx/lv_btn.h ****  * @param right right fit policy from `lv_fit_t`
 162:..\..\..\lvgl\version_6.1.2\lvgl\src\lv_objx/lv_btn.h ****  * @param top top fit policy from `lv_fit_t`
ARM GAS  C:\Users\tmj32\AppData\Local\Temp\ccH9iEPr.s 			page 11


 163:..\..\..\lvgl\version_6.1.2\lvgl\src\lv_objx/lv_btn.h ****  * @param bottom bottom fit policy from `lv_fit_t`
 164:..\..\..\lvgl\version_6.1.2\lvgl\src\lv_objx/lv_btn.h ****  */
 165:..\..\..\lvgl\version_6.1.2\lvgl\src\lv_objx/lv_btn.h **** static inline void lv_btn_set_fit4(lv_obj_t * btn, lv_fit_t left, lv_fit_t right, lv_fit_t top, lv_
 166:..\..\..\lvgl\version_6.1.2\lvgl\src\lv_objx/lv_btn.h **** {
 167:..\..\..\lvgl\version_6.1.2\lvgl\src\lv_objx/lv_btn.h ****     lv_cont_set_fit4(btn, left, right, top, bottom);
 168:..\..\..\lvgl\version_6.1.2\lvgl\src\lv_objx/lv_btn.h **** }
 169:..\..\..\lvgl\version_6.1.2\lvgl\src\lv_objx/lv_btn.h **** 
 170:..\..\..\lvgl\version_6.1.2\lvgl\src\lv_objx/lv_btn.h **** /**
 171:..\..\..\lvgl\version_6.1.2\lvgl\src\lv_objx/lv_btn.h ****  * Set the fit policy horizontally and vertically separately.
 172:..\..\..\lvgl\version_6.1.2\lvgl\src\lv_objx/lv_btn.h ****  * It tells how to change the button size automatically.
 173:..\..\..\lvgl\version_6.1.2\lvgl\src\lv_objx/lv_btn.h ****  * @param btn pointer to a button object
 174:..\..\..\lvgl\version_6.1.2\lvgl\src\lv_objx/lv_btn.h ****  * @param hor horizontal fit policy from `lv_fit_t`
 175:..\..\..\lvgl\version_6.1.2\lvgl\src\lv_objx/lv_btn.h ****  * @param ver vertical fit policy from `lv_fit_t`
 176:..\..\..\lvgl\version_6.1.2\lvgl\src\lv_objx/lv_btn.h ****  */
 177:..\..\..\lvgl\version_6.1.2\lvgl\src\lv_objx/lv_btn.h **** static inline void lv_btn_set_fit2(lv_obj_t * btn, lv_fit_t hor, lv_fit_t ver)
 178:..\..\..\lvgl\version_6.1.2\lvgl\src\lv_objx/lv_btn.h **** {
 179:..\..\..\lvgl\version_6.1.2\lvgl\src\lv_objx/lv_btn.h ****     lv_cont_set_fit2(btn, hor, ver);
 180:..\..\..\lvgl\version_6.1.2\lvgl\src\lv_objx/lv_btn.h **** }
 181:..\..\..\lvgl\version_6.1.2\lvgl\src\lv_objx/lv_btn.h **** 
 182:..\..\..\lvgl\version_6.1.2\lvgl\src\lv_objx/lv_btn.h **** /**
 183:..\..\..\lvgl\version_6.1.2\lvgl\src\lv_objx/lv_btn.h ****  * Set the fit policy in all 4 direction at once.
 184:..\..\..\lvgl\version_6.1.2\lvgl\src\lv_objx/lv_btn.h ****  * It tells how to change the button size automatically.
 185:..\..\..\lvgl\version_6.1.2\lvgl\src\lv_objx/lv_btn.h ****  * @param btn pointer to a button object
 186:..\..\..\lvgl\version_6.1.2\lvgl\src\lv_objx/lv_btn.h ****  * @param fit fit policy from `lv_fit_t`
 187:..\..\..\lvgl\version_6.1.2\lvgl\src\lv_objx/lv_btn.h ****  */
 188:..\..\..\lvgl\version_6.1.2\lvgl\src\lv_objx/lv_btn.h **** static inline void lv_btn_set_fit(lv_obj_t * btn, lv_fit_t fit)
 189:..\..\..\lvgl\version_6.1.2\lvgl\src\lv_objx/lv_btn.h **** {
 147              		.loc 3 189 0
 148              		.cfi_startproc
 149              		@ args = 0, pretend = 0, frame = 8
 150              		@ frame_needed = 1, uses_anonymous_args = 0
 151 0000 80B5     		push	{r7, lr}
 152              		.cfi_def_cfa_offset 8
 153              		.cfi_offset 7, -8
 154              		.cfi_offset 14, -4
 155 0002 82B0     		sub	sp, sp, #8
 156              		.cfi_def_cfa_offset 16
 157 0004 00AF     		add	r7, sp, #0
 158              		.cfi_def_cfa_register 7
 159 0006 7860     		str	r0, [r7, #4]
 160 0008 0B46     		mov	r3, r1
 161 000a FB70     		strb	r3, [r7, #3]
 190:..\..\..\lvgl\version_6.1.2\lvgl\src\lv_objx/lv_btn.h ****     lv_cont_set_fit(btn, fit);
 162              		.loc 3 190 0
 163 000c FB78     		ldrb	r3, [r7, #3]	@ zero_extendqisi2
 164 000e 1946     		mov	r1, r3
 165 0010 7868     		ldr	r0, [r7, #4]
 166 0012 FFF7FEFF 		bl	lv_cont_set_fit
 191:..\..\..\lvgl\version_6.1.2\lvgl\src\lv_objx/lv_btn.h **** }
 167              		.loc 3 191 0
 168 0016 00BF     		nop
 169 0018 0837     		adds	r7, r7, #8
 170              		.cfi_def_cfa_offset 8
 171 001a BD46     		mov	sp, r7
 172              		.cfi_def_cfa_register 13
 173              		@ sp needed
 174 001c 80BD     		pop	{r7, pc}
ARM GAS  C:\Users\tmj32\AppData\Local\Temp\ccH9iEPr.s 			page 12


 175              		.cfi_endproc
 176              	.LFE38:
 177              		.size	lv_btn_set_fit, .-lv_btn_set_fit
 178 001e 00BF     		.section	.text.lv_label_get_style,"ax",%progbits
 179              		.align	2
 180              		.thumb
 181              		.thumb_func
 182              		.type	lv_label_get_style, %function
 183              	lv_label_get_style:
 184              	.LFB45:
 185              		.file 4 "..\\..\\..\\lvgl\\version_6.1.2\\lvgl\\src\\lv_objx\\lv_label.h"
   1:..\..\..\lvgl\version_6.1.2\lvgl\src\lv_objx/lv_label.h **** /**
   2:..\..\..\lvgl\version_6.1.2\lvgl\src\lv_objx/lv_label.h ****  * @file lv_rect.h
   3:..\..\..\lvgl\version_6.1.2\lvgl\src\lv_objx/lv_label.h ****  *
   4:..\..\..\lvgl\version_6.1.2\lvgl\src\lv_objx/lv_label.h ****  */
   5:..\..\..\lvgl\version_6.1.2\lvgl\src\lv_objx/lv_label.h **** 
   6:..\..\..\lvgl\version_6.1.2\lvgl\src\lv_objx/lv_label.h **** #ifndef LV_LABEL_H
   7:..\..\..\lvgl\version_6.1.2\lvgl\src\lv_objx/lv_label.h **** #define LV_LABEL_H
   8:..\..\..\lvgl\version_6.1.2\lvgl\src\lv_objx/lv_label.h **** 
   9:..\..\..\lvgl\version_6.1.2\lvgl\src\lv_objx/lv_label.h **** #ifdef __cplusplus
  10:..\..\..\lvgl\version_6.1.2\lvgl\src\lv_objx/lv_label.h **** extern "C" {
  11:..\..\..\lvgl\version_6.1.2\lvgl\src\lv_objx/lv_label.h **** #endif
  12:..\..\..\lvgl\version_6.1.2\lvgl\src\lv_objx/lv_label.h **** 
  13:..\..\..\lvgl\version_6.1.2\lvgl\src\lv_objx/lv_label.h **** /*********************
  14:..\..\..\lvgl\version_6.1.2\lvgl\src\lv_objx/lv_label.h ****  *      INCLUDES
  15:..\..\..\lvgl\version_6.1.2\lvgl\src\lv_objx/lv_label.h ****  *********************/
  16:..\..\..\lvgl\version_6.1.2\lvgl\src\lv_objx/lv_label.h **** #ifdef LV_CONF_INCLUDE_SIMPLE
  17:..\..\..\lvgl\version_6.1.2\lvgl\src\lv_objx/lv_label.h **** #include "lv_conf.h"
  18:..\..\..\lvgl\version_6.1.2\lvgl\src\lv_objx/lv_label.h **** #else
  19:..\..\..\lvgl\version_6.1.2\lvgl\src\lv_objx/lv_label.h **** #include "../../../lv_conf.h"
  20:..\..\..\lvgl\version_6.1.2\lvgl\src\lv_objx/lv_label.h **** #endif
  21:..\..\..\lvgl\version_6.1.2\lvgl\src\lv_objx/lv_label.h **** 
  22:..\..\..\lvgl\version_6.1.2\lvgl\src\lv_objx/lv_label.h **** #if LV_USE_LABEL != 0
  23:..\..\..\lvgl\version_6.1.2\lvgl\src\lv_objx/lv_label.h **** 
  24:..\..\..\lvgl\version_6.1.2\lvgl\src\lv_objx/lv_label.h **** #include <stdarg.h>
  25:..\..\..\lvgl\version_6.1.2\lvgl\src\lv_objx/lv_label.h **** #include "../lv_core/lv_obj.h"
  26:..\..\..\lvgl\version_6.1.2\lvgl\src\lv_objx/lv_label.h **** #include "../lv_font/lv_font.h"
  27:..\..\..\lvgl\version_6.1.2\lvgl\src\lv_objx/lv_label.h **** #include "../lv_font/lv_symbol_def.h"
  28:..\..\..\lvgl\version_6.1.2\lvgl\src\lv_objx/lv_label.h **** #include "../lv_misc/lv_txt.h"
  29:..\..\..\lvgl\version_6.1.2\lvgl\src\lv_objx/lv_label.h **** #include "../lv_draw/lv_draw.h"
  30:..\..\..\lvgl\version_6.1.2\lvgl\src\lv_objx/lv_label.h **** 
  31:..\..\..\lvgl\version_6.1.2\lvgl\src\lv_objx/lv_label.h **** /*********************
  32:..\..\..\lvgl\version_6.1.2\lvgl\src\lv_objx/lv_label.h ****  *      DEFINES
  33:..\..\..\lvgl\version_6.1.2\lvgl\src\lv_objx/lv_label.h ****  *********************/
  34:..\..\..\lvgl\version_6.1.2\lvgl\src\lv_objx/lv_label.h **** #define LV_LABEL_DOT_NUM 3
  35:..\..\..\lvgl\version_6.1.2\lvgl\src\lv_objx/lv_label.h **** #define LV_LABEL_POS_LAST 0xFFFF
  36:..\..\..\lvgl\version_6.1.2\lvgl\src\lv_objx/lv_label.h **** #define LV_LABEL_TEXT_SEL_OFF LV_DRAW_LABEL_NO_TXT_SEL
  37:..\..\..\lvgl\version_6.1.2\lvgl\src\lv_objx/lv_label.h **** 
  38:..\..\..\lvgl\version_6.1.2\lvgl\src\lv_objx/lv_label.h **** LV_EXPORT_CONST_INT(LV_LABEL_DOT_NUM);
  39:..\..\..\lvgl\version_6.1.2\lvgl\src\lv_objx/lv_label.h **** LV_EXPORT_CONST_INT(LV_LABEL_POS_LAST);
  40:..\..\..\lvgl\version_6.1.2\lvgl\src\lv_objx/lv_label.h **** LV_EXPORT_CONST_INT(LV_LABEL_TEXT_SEL_OFF);
  41:..\..\..\lvgl\version_6.1.2\lvgl\src\lv_objx/lv_label.h **** 
  42:..\..\..\lvgl\version_6.1.2\lvgl\src\lv_objx/lv_label.h **** /**********************
  43:..\..\..\lvgl\version_6.1.2\lvgl\src\lv_objx/lv_label.h ****  *      TYPEDEFS
  44:..\..\..\lvgl\version_6.1.2\lvgl\src\lv_objx/lv_label.h ****  **********************/
  45:..\..\..\lvgl\version_6.1.2\lvgl\src\lv_objx/lv_label.h **** 
  46:..\..\..\lvgl\version_6.1.2\lvgl\src\lv_objx/lv_label.h **** /** Long mode behaviors. Used in 'lv_label_ext_t' */
ARM GAS  C:\Users\tmj32\AppData\Local\Temp\ccH9iEPr.s 			page 13


  47:..\..\..\lvgl\version_6.1.2\lvgl\src\lv_objx/lv_label.h **** enum {
  48:..\..\..\lvgl\version_6.1.2\lvgl\src\lv_objx/lv_label.h ****     LV_LABEL_LONG_EXPAND,    /**< Expand the object size to the text size*/
  49:..\..\..\lvgl\version_6.1.2\lvgl\src\lv_objx/lv_label.h ****     LV_LABEL_LONG_BREAK,     /**< Keep the object width, break the too long lines and expand the ob
  50:..\..\..\lvgl\version_6.1.2\lvgl\src\lv_objx/lv_label.h ****                                 height*/
  51:..\..\..\lvgl\version_6.1.2\lvgl\src\lv_objx/lv_label.h ****     LV_LABEL_LONG_DOT,       /**< Keep the size and write dots at the end if the text is too long*/
  52:..\..\..\lvgl\version_6.1.2\lvgl\src\lv_objx/lv_label.h ****     LV_LABEL_LONG_SROLL,      /**< Keep the size and roll the text back and forth*/
  53:..\..\..\lvgl\version_6.1.2\lvgl\src\lv_objx/lv_label.h ****     LV_LABEL_LONG_SROLL_CIRC, /**< Keep the size and roll the text circularly*/
  54:..\..\..\lvgl\version_6.1.2\lvgl\src\lv_objx/lv_label.h ****     LV_LABEL_LONG_CROP,      /**< Keep the size and crop the text out of it*/
  55:..\..\..\lvgl\version_6.1.2\lvgl\src\lv_objx/lv_label.h **** };
  56:..\..\..\lvgl\version_6.1.2\lvgl\src\lv_objx/lv_label.h **** typedef uint8_t lv_label_long_mode_t;
  57:..\..\..\lvgl\version_6.1.2\lvgl\src\lv_objx/lv_label.h **** 
  58:..\..\..\lvgl\version_6.1.2\lvgl\src\lv_objx/lv_label.h **** /** Label align policy*/
  59:..\..\..\lvgl\version_6.1.2\lvgl\src\lv_objx/lv_label.h **** enum {
  60:..\..\..\lvgl\version_6.1.2\lvgl\src\lv_objx/lv_label.h ****     LV_LABEL_ALIGN_LEFT, /**< Align text to left */
  61:..\..\..\lvgl\version_6.1.2\lvgl\src\lv_objx/lv_label.h ****     LV_LABEL_ALIGN_CENTER, /**< Align text to center */
  62:..\..\..\lvgl\version_6.1.2\lvgl\src\lv_objx/lv_label.h ****     LV_LABEL_ALIGN_RIGHT, /**< Align text to right */
  63:..\..\..\lvgl\version_6.1.2\lvgl\src\lv_objx/lv_label.h ****     LV_LABEL_ALIGN_AUTO, /**< Use LEFT or RIGHT depending on the direction of the text (LTR/RTL)*/
  64:..\..\..\lvgl\version_6.1.2\lvgl\src\lv_objx/lv_label.h **** };
  65:..\..\..\lvgl\version_6.1.2\lvgl\src\lv_objx/lv_label.h **** typedef uint8_t lv_label_align_t;
  66:..\..\..\lvgl\version_6.1.2\lvgl\src\lv_objx/lv_label.h **** 
  67:..\..\..\lvgl\version_6.1.2\lvgl\src\lv_objx/lv_label.h **** /** Data of label*/
  68:..\..\..\lvgl\version_6.1.2\lvgl\src\lv_objx/lv_label.h **** typedef struct
  69:..\..\..\lvgl\version_6.1.2\lvgl\src\lv_objx/lv_label.h **** {
  70:..\..\..\lvgl\version_6.1.2\lvgl\src\lv_objx/lv_label.h ****     /*Inherited from 'base_obj' so no inherited ext.*/ /*Ext. of ancestor*/
  71:..\..\..\lvgl\version_6.1.2\lvgl\src\lv_objx/lv_label.h ****     /*New data for this type */
  72:..\..\..\lvgl\version_6.1.2\lvgl\src\lv_objx/lv_label.h ****     char * text;        /*Text of the label*/
  73:..\..\..\lvgl\version_6.1.2\lvgl\src\lv_objx/lv_label.h **** 
  74:..\..\..\lvgl\version_6.1.2\lvgl\src\lv_objx/lv_label.h ****     union
  75:..\..\..\lvgl\version_6.1.2\lvgl\src\lv_objx/lv_label.h ****     {
  76:..\..\..\lvgl\version_6.1.2\lvgl\src\lv_objx/lv_label.h ****         char * tmp_ptr; /* Pointer to the allocated memory containing the character which are repla
  77:..\..\..\lvgl\version_6.1.2\lvgl\src\lv_objx/lv_label.h ****                            by the library)*/
  78:..\..\..\lvgl\version_6.1.2\lvgl\src\lv_objx/lv_label.h ****         char tmp[LV_LABEL_DOT_NUM + 1]; /* Directly store the characters if <=4 characters */
  79:..\..\..\lvgl\version_6.1.2\lvgl\src\lv_objx/lv_label.h ****     } dot;
  80:..\..\..\lvgl\version_6.1.2\lvgl\src\lv_objx/lv_label.h ****     uint16_t dot_end;  /*The text end position in dot mode (Handled by the library)*/
  81:..\..\..\lvgl\version_6.1.2\lvgl\src\lv_objx/lv_label.h ****     lv_point_t offset; /*Text draw position offset*/
  82:..\..\..\lvgl\version_6.1.2\lvgl\src\lv_objx/lv_label.h **** #if LV_LABEL_LONG_TXT_HINT
  83:..\..\..\lvgl\version_6.1.2\lvgl\src\lv_objx/lv_label.h ****     lv_draw_label_hint_t hint; /*Used to buffer info about large text*/
  84:..\..\..\lvgl\version_6.1.2\lvgl\src\lv_objx/lv_label.h **** #endif
  85:..\..\..\lvgl\version_6.1.2\lvgl\src\lv_objx/lv_label.h **** 
  86:..\..\..\lvgl\version_6.1.2\lvgl\src\lv_objx/lv_label.h **** #if LV_USE_ANIMATION
  87:..\..\..\lvgl\version_6.1.2\lvgl\src\lv_objx/lv_label.h ****     uint16_t anim_speed; /*Speed of scroll and roll animation in px/sec unit*/
  88:..\..\..\lvgl\version_6.1.2\lvgl\src\lv_objx/lv_label.h **** #endif
  89:..\..\..\lvgl\version_6.1.2\lvgl\src\lv_objx/lv_label.h **** 
  90:..\..\..\lvgl\version_6.1.2\lvgl\src\lv_objx/lv_label.h **** #if LV_LABEL_TEXT_SEL
  91:..\..\..\lvgl\version_6.1.2\lvgl\src\lv_objx/lv_label.h ****     uint16_t txt_sel_start; /*Left-most selection character*/
  92:..\..\..\lvgl\version_6.1.2\lvgl\src\lv_objx/lv_label.h ****     uint16_t txt_sel_end;   /*Right-most selection character*/
  93:..\..\..\lvgl\version_6.1.2\lvgl\src\lv_objx/lv_label.h **** #endif
  94:..\..\..\lvgl\version_6.1.2\lvgl\src\lv_objx/lv_label.h **** 
  95:..\..\..\lvgl\version_6.1.2\lvgl\src\lv_objx/lv_label.h ****     lv_label_long_mode_t long_mode : 3; /*Determinate what to do with the long texts*/
  96:..\..\..\lvgl\version_6.1.2\lvgl\src\lv_objx/lv_label.h ****     uint8_t static_txt : 1;             /*Flag to indicate the text is static*/
  97:..\..\..\lvgl\version_6.1.2\lvgl\src\lv_objx/lv_label.h ****     uint8_t align : 2;                  /*Align type from 'lv_label_align_t'*/
  98:..\..\..\lvgl\version_6.1.2\lvgl\src\lv_objx/lv_label.h ****     uint8_t recolor : 1;                /*Enable in-line letter re-coloring*/
  99:..\..\..\lvgl\version_6.1.2\lvgl\src\lv_objx/lv_label.h ****     uint8_t expand : 1;                 /*Ignore real width (used by the library with LV_LABEL_LONG
 100:..\..\..\lvgl\version_6.1.2\lvgl\src\lv_objx/lv_label.h ****     uint8_t body_draw : 1;              /*Draw background body*/
 101:..\..\..\lvgl\version_6.1.2\lvgl\src\lv_objx/lv_label.h ****     uint8_t dot_tmp_alloc : 1; /*True if dot_tmp has been allocated. False if dot_tmp directly hold
 102:..\..\..\lvgl\version_6.1.2\lvgl\src\lv_objx/lv_label.h ****                                   characters */
 103:..\..\..\lvgl\version_6.1.2\lvgl\src\lv_objx/lv_label.h **** } lv_label_ext_t;
ARM GAS  C:\Users\tmj32\AppData\Local\Temp\ccH9iEPr.s 			page 14


 104:..\..\..\lvgl\version_6.1.2\lvgl\src\lv_objx/lv_label.h **** 
 105:..\..\..\lvgl\version_6.1.2\lvgl\src\lv_objx/lv_label.h **** /** Label styles*/
 106:..\..\..\lvgl\version_6.1.2\lvgl\src\lv_objx/lv_label.h **** enum {
 107:..\..\..\lvgl\version_6.1.2\lvgl\src\lv_objx/lv_label.h ****     LV_LABEL_STYLE_MAIN,
 108:..\..\..\lvgl\version_6.1.2\lvgl\src\lv_objx/lv_label.h **** };
 109:..\..\..\lvgl\version_6.1.2\lvgl\src\lv_objx/lv_label.h **** typedef uint8_t lv_label_style_t;
 110:..\..\..\lvgl\version_6.1.2\lvgl\src\lv_objx/lv_label.h **** 
 111:..\..\..\lvgl\version_6.1.2\lvgl\src\lv_objx/lv_label.h **** /**********************
 112:..\..\..\lvgl\version_6.1.2\lvgl\src\lv_objx/lv_label.h ****  * GLOBAL PROTOTYPES
 113:..\..\..\lvgl\version_6.1.2\lvgl\src\lv_objx/lv_label.h ****  **********************/
 114:..\..\..\lvgl\version_6.1.2\lvgl\src\lv_objx/lv_label.h **** 
 115:..\..\..\lvgl\version_6.1.2\lvgl\src\lv_objx/lv_label.h **** /**
 116:..\..\..\lvgl\version_6.1.2\lvgl\src\lv_objx/lv_label.h ****  * Create a label objects
 117:..\..\..\lvgl\version_6.1.2\lvgl\src\lv_objx/lv_label.h ****  * @param par pointer to an object, it will be the parent of the new label
 118:..\..\..\lvgl\version_6.1.2\lvgl\src\lv_objx/lv_label.h ****  * @param copy pointer to a button object, if not NULL then the new object will be copied from it
 119:..\..\..\lvgl\version_6.1.2\lvgl\src\lv_objx/lv_label.h ****  * @return pointer to the created button
 120:..\..\..\lvgl\version_6.1.2\lvgl\src\lv_objx/lv_label.h ****  */
 121:..\..\..\lvgl\version_6.1.2\lvgl\src\lv_objx/lv_label.h **** lv_obj_t * lv_label_create(lv_obj_t * par, const lv_obj_t * copy);
 122:..\..\..\lvgl\version_6.1.2\lvgl\src\lv_objx/lv_label.h **** 
 123:..\..\..\lvgl\version_6.1.2\lvgl\src\lv_objx/lv_label.h **** /*=====================
 124:..\..\..\lvgl\version_6.1.2\lvgl\src\lv_objx/lv_label.h ****  * Setter functions
 125:..\..\..\lvgl\version_6.1.2\lvgl\src\lv_objx/lv_label.h ****  *====================*/
 126:..\..\..\lvgl\version_6.1.2\lvgl\src\lv_objx/lv_label.h **** 
 127:..\..\..\lvgl\version_6.1.2\lvgl\src\lv_objx/lv_label.h **** /**
 128:..\..\..\lvgl\version_6.1.2\lvgl\src\lv_objx/lv_label.h ****  * Set a new text for a label. Memory will be allocated to store the text by the label.
 129:..\..\..\lvgl\version_6.1.2\lvgl\src\lv_objx/lv_label.h ****  * @param label pointer to a label object
 130:..\..\..\lvgl\version_6.1.2\lvgl\src\lv_objx/lv_label.h ****  * @param text '\0' terminated character string. NULL to refresh with the current text.
 131:..\..\..\lvgl\version_6.1.2\lvgl\src\lv_objx/lv_label.h ****  */
 132:..\..\..\lvgl\version_6.1.2\lvgl\src\lv_objx/lv_label.h **** void lv_label_set_text(lv_obj_t * label, const char * text);
 133:..\..\..\lvgl\version_6.1.2\lvgl\src\lv_objx/lv_label.h **** 
 134:..\..\..\lvgl\version_6.1.2\lvgl\src\lv_objx/lv_label.h **** /**
 135:..\..\..\lvgl\version_6.1.2\lvgl\src\lv_objx/lv_label.h ****  * Set a new formatted text for a label. Memory will be allocated to store the text by the label.
 136:..\..\..\lvgl\version_6.1.2\lvgl\src\lv_objx/lv_label.h ****  * @param label pointer to a label object
 137:..\..\..\lvgl\version_6.1.2\lvgl\src\lv_objx/lv_label.h ****  * @param fmt `printf`-like format
 138:..\..\..\lvgl\version_6.1.2\lvgl\src\lv_objx/lv_label.h ****  */
 139:..\..\..\lvgl\version_6.1.2\lvgl\src\lv_objx/lv_label.h **** void lv_label_set_text_fmt(lv_obj_t * label, const char * fmt, ...);
 140:..\..\..\lvgl\version_6.1.2\lvgl\src\lv_objx/lv_label.h **** 
 141:..\..\..\lvgl\version_6.1.2\lvgl\src\lv_objx/lv_label.h **** /**
 142:..\..\..\lvgl\version_6.1.2\lvgl\src\lv_objx/lv_label.h ****  * Set a new text for a label from a character array. The array don't has to be '\0' terminated.
 143:..\..\..\lvgl\version_6.1.2\lvgl\src\lv_objx/lv_label.h ****  * Memory will be allocated to store the array by the label.
 144:..\..\..\lvgl\version_6.1.2\lvgl\src\lv_objx/lv_label.h ****  * @param label pointer to a label object
 145:..\..\..\lvgl\version_6.1.2\lvgl\src\lv_objx/lv_label.h ****  * @param array array of characters or NULL to refresh the label
 146:..\..\..\lvgl\version_6.1.2\lvgl\src\lv_objx/lv_label.h ****  * @param size the size of 'array' in bytes
 147:..\..\..\lvgl\version_6.1.2\lvgl\src\lv_objx/lv_label.h ****  */
 148:..\..\..\lvgl\version_6.1.2\lvgl\src\lv_objx/lv_label.h **** void lv_label_set_array_text(lv_obj_t * label, const char * array, uint16_t size);
 149:..\..\..\lvgl\version_6.1.2\lvgl\src\lv_objx/lv_label.h **** 
 150:..\..\..\lvgl\version_6.1.2\lvgl\src\lv_objx/lv_label.h **** /**
 151:..\..\..\lvgl\version_6.1.2\lvgl\src\lv_objx/lv_label.h ****  * Set a static text. It will not be saved by the label so the 'text' variable
 152:..\..\..\lvgl\version_6.1.2\lvgl\src\lv_objx/lv_label.h ****  * has to be 'alive' while the label exist.
 153:..\..\..\lvgl\version_6.1.2\lvgl\src\lv_objx/lv_label.h ****  * @param label pointer to a label object
 154:..\..\..\lvgl\version_6.1.2\lvgl\src\lv_objx/lv_label.h ****  * @param text pointer to a text. NULL to refresh with the current text.
 155:..\..\..\lvgl\version_6.1.2\lvgl\src\lv_objx/lv_label.h ****  */
 156:..\..\..\lvgl\version_6.1.2\lvgl\src\lv_objx/lv_label.h **** void lv_label_set_static_text(lv_obj_t * label, const char * text);
 157:..\..\..\lvgl\version_6.1.2\lvgl\src\lv_objx/lv_label.h **** 
 158:..\..\..\lvgl\version_6.1.2\lvgl\src\lv_objx/lv_label.h **** /**
 159:..\..\..\lvgl\version_6.1.2\lvgl\src\lv_objx/lv_label.h ****  * Set the behavior of the label with longer text then the object size
 160:..\..\..\lvgl\version_6.1.2\lvgl\src\lv_objx/lv_label.h ****  * @param label pointer to a label object
ARM GAS  C:\Users\tmj32\AppData\Local\Temp\ccH9iEPr.s 			page 15


 161:..\..\..\lvgl\version_6.1.2\lvgl\src\lv_objx/lv_label.h ****  * @param long_mode the new mode from 'lv_label_long_mode' enum.
 162:..\..\..\lvgl\version_6.1.2\lvgl\src\lv_objx/lv_label.h ****  *                  In LV_LONG_BREAK/LONG/ROLL the size of the label should be set AFTER this
 163:..\..\..\lvgl\version_6.1.2\lvgl\src\lv_objx/lv_label.h ****  * function
 164:..\..\..\lvgl\version_6.1.2\lvgl\src\lv_objx/lv_label.h ****  */
 165:..\..\..\lvgl\version_6.1.2\lvgl\src\lv_objx/lv_label.h **** void lv_label_set_long_mode(lv_obj_t * label, lv_label_long_mode_t long_mode);
 166:..\..\..\lvgl\version_6.1.2\lvgl\src\lv_objx/lv_label.h **** 
 167:..\..\..\lvgl\version_6.1.2\lvgl\src\lv_objx/lv_label.h **** /**
 168:..\..\..\lvgl\version_6.1.2\lvgl\src\lv_objx/lv_label.h ****  * Set the align of the label (left or center)
 169:..\..\..\lvgl\version_6.1.2\lvgl\src\lv_objx/lv_label.h ****  * @param label pointer to a label object
 170:..\..\..\lvgl\version_6.1.2\lvgl\src\lv_objx/lv_label.h ****  * @param align 'LV_LABEL_ALIGN_LEFT' or 'LV_LABEL_ALIGN_LEFT'
 171:..\..\..\lvgl\version_6.1.2\lvgl\src\lv_objx/lv_label.h ****  */
 172:..\..\..\lvgl\version_6.1.2\lvgl\src\lv_objx/lv_label.h **** void lv_label_set_align(lv_obj_t * label, lv_label_align_t align);
 173:..\..\..\lvgl\version_6.1.2\lvgl\src\lv_objx/lv_label.h **** 
 174:..\..\..\lvgl\version_6.1.2\lvgl\src\lv_objx/lv_label.h **** /**
 175:..\..\..\lvgl\version_6.1.2\lvgl\src\lv_objx/lv_label.h ****  * Enable the recoloring by in-line commands
 176:..\..\..\lvgl\version_6.1.2\lvgl\src\lv_objx/lv_label.h ****  * @param label pointer to a label object
 177:..\..\..\lvgl\version_6.1.2\lvgl\src\lv_objx/lv_label.h ****  * @param en true: enable recoloring, false: disable
 178:..\..\..\lvgl\version_6.1.2\lvgl\src\lv_objx/lv_label.h ****  */
 179:..\..\..\lvgl\version_6.1.2\lvgl\src\lv_objx/lv_label.h **** void lv_label_set_recolor(lv_obj_t * label, bool en);
 180:..\..\..\lvgl\version_6.1.2\lvgl\src\lv_objx/lv_label.h **** 
 181:..\..\..\lvgl\version_6.1.2\lvgl\src\lv_objx/lv_label.h **** /**
 182:..\..\..\lvgl\version_6.1.2\lvgl\src\lv_objx/lv_label.h ****  * Set the label to draw (or not draw) background specified in its style's body
 183:..\..\..\lvgl\version_6.1.2\lvgl\src\lv_objx/lv_label.h ****  * @param label pointer to a label object
 184:..\..\..\lvgl\version_6.1.2\lvgl\src\lv_objx/lv_label.h ****  * @param en true: draw body; false: don't draw body
 185:..\..\..\lvgl\version_6.1.2\lvgl\src\lv_objx/lv_label.h ****  */
 186:..\..\..\lvgl\version_6.1.2\lvgl\src\lv_objx/lv_label.h **** void lv_label_set_body_draw(lv_obj_t * label, bool en);
 187:..\..\..\lvgl\version_6.1.2\lvgl\src\lv_objx/lv_label.h **** 
 188:..\..\..\lvgl\version_6.1.2\lvgl\src\lv_objx/lv_label.h **** /**
 189:..\..\..\lvgl\version_6.1.2\lvgl\src\lv_objx/lv_label.h ****  * Set the label's animation speed in LV_LABEL_LONG_SROLL/SCROLL_CIRC modes
 190:..\..\..\lvgl\version_6.1.2\lvgl\src\lv_objx/lv_label.h ****  * @param label pointer to a label object
 191:..\..\..\lvgl\version_6.1.2\lvgl\src\lv_objx/lv_label.h ****  * @param anim_speed speed of animation in px/sec unit
 192:..\..\..\lvgl\version_6.1.2\lvgl\src\lv_objx/lv_label.h ****  */
 193:..\..\..\lvgl\version_6.1.2\lvgl\src\lv_objx/lv_label.h **** void lv_label_set_anim_speed(lv_obj_t * label, uint16_t anim_speed);
 194:..\..\..\lvgl\version_6.1.2\lvgl\src\lv_objx/lv_label.h **** 
 195:..\..\..\lvgl\version_6.1.2\lvgl\src\lv_objx/lv_label.h **** /**
 196:..\..\..\lvgl\version_6.1.2\lvgl\src\lv_objx/lv_label.h ****  * Set the style of an label
 197:..\..\..\lvgl\version_6.1.2\lvgl\src\lv_objx/lv_label.h ****  * @param label pointer to an label object
 198:..\..\..\lvgl\version_6.1.2\lvgl\src\lv_objx/lv_label.h ****  * @param type which style should be get (can be only `LV_LABEL_STYLE_MAIN`)
 199:..\..\..\lvgl\version_6.1.2\lvgl\src\lv_objx/lv_label.h ****  * @param style pointer to a style
 200:..\..\..\lvgl\version_6.1.2\lvgl\src\lv_objx/lv_label.h ****  */
 201:..\..\..\lvgl\version_6.1.2\lvgl\src\lv_objx/lv_label.h **** static inline void lv_label_set_style(lv_obj_t * label, lv_label_style_t type, const lv_style_t * s
 202:..\..\..\lvgl\version_6.1.2\lvgl\src\lv_objx/lv_label.h **** {
 203:..\..\..\lvgl\version_6.1.2\lvgl\src\lv_objx/lv_label.h ****     (void)type; /*Unused*/
 204:..\..\..\lvgl\version_6.1.2\lvgl\src\lv_objx/lv_label.h ****     lv_obj_set_style(label, style);
 205:..\..\..\lvgl\version_6.1.2\lvgl\src\lv_objx/lv_label.h **** }
 206:..\..\..\lvgl\version_6.1.2\lvgl\src\lv_objx/lv_label.h **** 
 207:..\..\..\lvgl\version_6.1.2\lvgl\src\lv_objx/lv_label.h **** /**
 208:..\..\..\lvgl\version_6.1.2\lvgl\src\lv_objx/lv_label.h ****  * @brief Set the selection start index.
 209:..\..\..\lvgl\version_6.1.2\lvgl\src\lv_objx/lv_label.h ****  * @param label pointer to a label object.
 210:..\..\..\lvgl\version_6.1.2\lvgl\src\lv_objx/lv_label.h ****  * @param index index to set. `LV_LABEL_TXT_SEL_OFF` to select nothing.
 211:..\..\..\lvgl\version_6.1.2\lvgl\src\lv_objx/lv_label.h ****  */
 212:..\..\..\lvgl\version_6.1.2\lvgl\src\lv_objx/lv_label.h **** void lv_label_set_text_sel_start(lv_obj_t * label, uint16_t index);
 213:..\..\..\lvgl\version_6.1.2\lvgl\src\lv_objx/lv_label.h **** 
 214:..\..\..\lvgl\version_6.1.2\lvgl\src\lv_objx/lv_label.h **** /**
 215:..\..\..\lvgl\version_6.1.2\lvgl\src\lv_objx/lv_label.h ****  * @brief Set the selection end index.
 216:..\..\..\lvgl\version_6.1.2\lvgl\src\lv_objx/lv_label.h ****  * @param label pointer to a label object.
 217:..\..\..\lvgl\version_6.1.2\lvgl\src\lv_objx/lv_label.h ****  * @param index index to set. `LV_LABEL_TXT_SEL_OFF` to select nothing.
ARM GAS  C:\Users\tmj32\AppData\Local\Temp\ccH9iEPr.s 			page 16


 218:..\..\..\lvgl\version_6.1.2\lvgl\src\lv_objx/lv_label.h ****  */
 219:..\..\..\lvgl\version_6.1.2\lvgl\src\lv_objx/lv_label.h **** void lv_label_set_text_sel_end(lv_obj_t * label, uint16_t index);
 220:..\..\..\lvgl\version_6.1.2\lvgl\src\lv_objx/lv_label.h **** 
 221:..\..\..\lvgl\version_6.1.2\lvgl\src\lv_objx/lv_label.h **** /*=====================
 222:..\..\..\lvgl\version_6.1.2\lvgl\src\lv_objx/lv_label.h ****  * Getter functions
 223:..\..\..\lvgl\version_6.1.2\lvgl\src\lv_objx/lv_label.h ****  *====================*/
 224:..\..\..\lvgl\version_6.1.2\lvgl\src\lv_objx/lv_label.h **** 
 225:..\..\..\lvgl\version_6.1.2\lvgl\src\lv_objx/lv_label.h **** /**
 226:..\..\..\lvgl\version_6.1.2\lvgl\src\lv_objx/lv_label.h ****  * Get the text of a label
 227:..\..\..\lvgl\version_6.1.2\lvgl\src\lv_objx/lv_label.h ****  * @param label pointer to a label object
 228:..\..\..\lvgl\version_6.1.2\lvgl\src\lv_objx/lv_label.h ****  * @return the text of the label
 229:..\..\..\lvgl\version_6.1.2\lvgl\src\lv_objx/lv_label.h ****  */
 230:..\..\..\lvgl\version_6.1.2\lvgl\src\lv_objx/lv_label.h **** char * lv_label_get_text(const lv_obj_t * label);
 231:..\..\..\lvgl\version_6.1.2\lvgl\src\lv_objx/lv_label.h **** 
 232:..\..\..\lvgl\version_6.1.2\lvgl\src\lv_objx/lv_label.h **** /**
 233:..\..\..\lvgl\version_6.1.2\lvgl\src\lv_objx/lv_label.h ****  * Get the long mode of a label
 234:..\..\..\lvgl\version_6.1.2\lvgl\src\lv_objx/lv_label.h ****  * @param label pointer to a label object
 235:..\..\..\lvgl\version_6.1.2\lvgl\src\lv_objx/lv_label.h ****  * @return the long mode
 236:..\..\..\lvgl\version_6.1.2\lvgl\src\lv_objx/lv_label.h ****  */
 237:..\..\..\lvgl\version_6.1.2\lvgl\src\lv_objx/lv_label.h **** lv_label_long_mode_t lv_label_get_long_mode(const lv_obj_t * label);
 238:..\..\..\lvgl\version_6.1.2\lvgl\src\lv_objx/lv_label.h **** 
 239:..\..\..\lvgl\version_6.1.2\lvgl\src\lv_objx/lv_label.h **** /**
 240:..\..\..\lvgl\version_6.1.2\lvgl\src\lv_objx/lv_label.h ****  * Get the align attribute
 241:..\..\..\lvgl\version_6.1.2\lvgl\src\lv_objx/lv_label.h ****  * @param label pointer to a label object
 242:..\..\..\lvgl\version_6.1.2\lvgl\src\lv_objx/lv_label.h ****  * @return LV_LABEL_ALIGN_LEFT or LV_LABEL_ALIGN_CENTER
 243:..\..\..\lvgl\version_6.1.2\lvgl\src\lv_objx/lv_label.h ****  */
 244:..\..\..\lvgl\version_6.1.2\lvgl\src\lv_objx/lv_label.h **** lv_label_align_t lv_label_get_align(const lv_obj_t * label);
 245:..\..\..\lvgl\version_6.1.2\lvgl\src\lv_objx/lv_label.h **** 
 246:..\..\..\lvgl\version_6.1.2\lvgl\src\lv_objx/lv_label.h **** /**
 247:..\..\..\lvgl\version_6.1.2\lvgl\src\lv_objx/lv_label.h ****  * Get the recoloring attribute
 248:..\..\..\lvgl\version_6.1.2\lvgl\src\lv_objx/lv_label.h ****  * @param label pointer to a label object
 249:..\..\..\lvgl\version_6.1.2\lvgl\src\lv_objx/lv_label.h ****  * @return true: recoloring is enabled, false: disable
 250:..\..\..\lvgl\version_6.1.2\lvgl\src\lv_objx/lv_label.h ****  */
 251:..\..\..\lvgl\version_6.1.2\lvgl\src\lv_objx/lv_label.h **** bool lv_label_get_recolor(const lv_obj_t * label);
 252:..\..\..\lvgl\version_6.1.2\lvgl\src\lv_objx/lv_label.h **** 
 253:..\..\..\lvgl\version_6.1.2\lvgl\src\lv_objx/lv_label.h **** /**
 254:..\..\..\lvgl\version_6.1.2\lvgl\src\lv_objx/lv_label.h ****  * Get the body draw attribute
 255:..\..\..\lvgl\version_6.1.2\lvgl\src\lv_objx/lv_label.h ****  * @param label pointer to a label object
 256:..\..\..\lvgl\version_6.1.2\lvgl\src\lv_objx/lv_label.h ****  * @return true: draw body; false: don't draw body
 257:..\..\..\lvgl\version_6.1.2\lvgl\src\lv_objx/lv_label.h ****  */
 258:..\..\..\lvgl\version_6.1.2\lvgl\src\lv_objx/lv_label.h **** bool lv_label_get_body_draw(const lv_obj_t * label);
 259:..\..\..\lvgl\version_6.1.2\lvgl\src\lv_objx/lv_label.h **** 
 260:..\..\..\lvgl\version_6.1.2\lvgl\src\lv_objx/lv_label.h **** /**
 261:..\..\..\lvgl\version_6.1.2\lvgl\src\lv_objx/lv_label.h ****  * Get the label's animation speed in LV_LABEL_LONG_ROLL and SCROLL modes
 262:..\..\..\lvgl\version_6.1.2\lvgl\src\lv_objx/lv_label.h ****  * @param label pointer to a label object
 263:..\..\..\lvgl\version_6.1.2\lvgl\src\lv_objx/lv_label.h ****  * @return speed of animation in px/sec unit
 264:..\..\..\lvgl\version_6.1.2\lvgl\src\lv_objx/lv_label.h ****  */
 265:..\..\..\lvgl\version_6.1.2\lvgl\src\lv_objx/lv_label.h **** uint16_t lv_label_get_anim_speed(const lv_obj_t * label);
 266:..\..\..\lvgl\version_6.1.2\lvgl\src\lv_objx/lv_label.h **** 
 267:..\..\..\lvgl\version_6.1.2\lvgl\src\lv_objx/lv_label.h **** /**
 268:..\..\..\lvgl\version_6.1.2\lvgl\src\lv_objx/lv_label.h ****  * Get the relative x and y coordinates of a letter
 269:..\..\..\lvgl\version_6.1.2\lvgl\src\lv_objx/lv_label.h ****  * @param label pointer to a label object
 270:..\..\..\lvgl\version_6.1.2\lvgl\src\lv_objx/lv_label.h ****  * @param index index of the letter [0 ... text length]. Expressed in character index, not byte
 271:..\..\..\lvgl\version_6.1.2\lvgl\src\lv_objx/lv_label.h ****  * index (different in UTF-8)
 272:..\..\..\lvgl\version_6.1.2\lvgl\src\lv_objx/lv_label.h ****  * @param pos store the result here (E.g. index = 0 gives 0;0 coordinates)
 273:..\..\..\lvgl\version_6.1.2\lvgl\src\lv_objx/lv_label.h ****  */
 274:..\..\..\lvgl\version_6.1.2\lvgl\src\lv_objx/lv_label.h **** void lv_label_get_letter_pos(const lv_obj_t * label, uint16_t index, lv_point_t * pos);
ARM GAS  C:\Users\tmj32\AppData\Local\Temp\ccH9iEPr.s 			page 17


 275:..\..\..\lvgl\version_6.1.2\lvgl\src\lv_objx/lv_label.h **** 
 276:..\..\..\lvgl\version_6.1.2\lvgl\src\lv_objx/lv_label.h **** /**
 277:..\..\..\lvgl\version_6.1.2\lvgl\src\lv_objx/lv_label.h ****  * Get the index of letter on a relative point of a label
 278:..\..\..\lvgl\version_6.1.2\lvgl\src\lv_objx/lv_label.h ****  * @param label pointer to label object
 279:..\..\..\lvgl\version_6.1.2\lvgl\src\lv_objx/lv_label.h ****  * @param pos pointer to point with coordinates on a the label
 280:..\..\..\lvgl\version_6.1.2\lvgl\src\lv_objx/lv_label.h ****  * @return the index of the letter on the 'pos_p' point (E.g. on 0;0 is the 0. letter)
 281:..\..\..\lvgl\version_6.1.2\lvgl\src\lv_objx/lv_label.h ****  * Expressed in character index and not byte index (different in UTF-8)
 282:..\..\..\lvgl\version_6.1.2\lvgl\src\lv_objx/lv_label.h ****  */
 283:..\..\..\lvgl\version_6.1.2\lvgl\src\lv_objx/lv_label.h **** uint16_t lv_label_get_letter_on(const lv_obj_t * label, lv_point_t * pos);
 284:..\..\..\lvgl\version_6.1.2\lvgl\src\lv_objx/lv_label.h **** 
 285:..\..\..\lvgl\version_6.1.2\lvgl\src\lv_objx/lv_label.h **** /**
 286:..\..\..\lvgl\version_6.1.2\lvgl\src\lv_objx/lv_label.h ****  * Check if a character is drawn under a point.
 287:..\..\..\lvgl\version_6.1.2\lvgl\src\lv_objx/lv_label.h ****  * @param label Label object
 288:..\..\..\lvgl\version_6.1.2\lvgl\src\lv_objx/lv_label.h ****  * @param pos Point to check for characte under
 289:..\..\..\lvgl\version_6.1.2\lvgl\src\lv_objx/lv_label.h ****  * @return whether a character is drawn under the point
 290:..\..\..\lvgl\version_6.1.2\lvgl\src\lv_objx/lv_label.h ****  */
 291:..\..\..\lvgl\version_6.1.2\lvgl\src\lv_objx/lv_label.h **** bool lv_label_is_char_under_pos(const lv_obj_t * label, lv_point_t * pos);
 292:..\..\..\lvgl\version_6.1.2\lvgl\src\lv_objx/lv_label.h **** 
 293:..\..\..\lvgl\version_6.1.2\lvgl\src\lv_objx/lv_label.h **** /**
 294:..\..\..\lvgl\version_6.1.2\lvgl\src\lv_objx/lv_label.h ****  * Get the style of an label object
 295:..\..\..\lvgl\version_6.1.2\lvgl\src\lv_objx/lv_label.h ****  * @param label pointer to an label object
 296:..\..\..\lvgl\version_6.1.2\lvgl\src\lv_objx/lv_label.h ****  * @param type which style should be get (can be only `LV_LABEL_STYLE_MAIN`)
 297:..\..\..\lvgl\version_6.1.2\lvgl\src\lv_objx/lv_label.h ****  * @return pointer to the label's style
 298:..\..\..\lvgl\version_6.1.2\lvgl\src\lv_objx/lv_label.h ****  */
 299:..\..\..\lvgl\version_6.1.2\lvgl\src\lv_objx/lv_label.h **** static inline const lv_style_t * lv_label_get_style(const lv_obj_t * label, lv_label_style_t type)
 300:..\..\..\lvgl\version_6.1.2\lvgl\src\lv_objx/lv_label.h **** {
 186              		.loc 4 300 0
 187              		.cfi_startproc
 188              		@ args = 0, pretend = 0, frame = 8
 189              		@ frame_needed = 1, uses_anonymous_args = 0
 190 0000 80B5     		push	{r7, lr}
 191              		.cfi_def_cfa_offset 8
 192              		.cfi_offset 7, -8
 193              		.cfi_offset 14, -4
 194 0002 82B0     		sub	sp, sp, #8
 195              		.cfi_def_cfa_offset 16
 196 0004 00AF     		add	r7, sp, #0
 197              		.cfi_def_cfa_register 7
 198 0006 7860     		str	r0, [r7, #4]
 199 0008 0B46     		mov	r3, r1
 200 000a FB70     		strb	r3, [r7, #3]
 301:..\..\..\lvgl\version_6.1.2\lvgl\src\lv_objx/lv_label.h ****     (void)type; /*Unused*/
 302:..\..\..\lvgl\version_6.1.2\lvgl\src\lv_objx/lv_label.h ****     return lv_obj_get_style(label);
 201              		.loc 4 302 0
 202 000c 7868     		ldr	r0, [r7, #4]
 203 000e FFF7FEFF 		bl	lv_obj_get_style
 204 0012 0346     		mov	r3, r0
 303:..\..\..\lvgl\version_6.1.2\lvgl\src\lv_objx/lv_label.h **** }
 205              		.loc 4 303 0
 206 0014 1846     		mov	r0, r3
 207 0016 0837     		adds	r7, r7, #8
 208              		.cfi_def_cfa_offset 8
 209 0018 BD46     		mov	sp, r7
 210              		.cfi_def_cfa_register 13
 211              		@ sp needed
 212 001a 80BD     		pop	{r7, pc}
 213              		.cfi_endproc
ARM GAS  C:\Users\tmj32\AppData\Local\Temp\ccH9iEPr.s 			page 18


 214              	.LFE45:
 215              		.size	lv_label_get_style, .-lv_label_get_style
 216              		.bss
 217              		.align	2
 218              	ancestor_bg_design:
 219 0000 00000000 		.space	4
 220              		.align	2
 221              	ancestor_bullet_design:
 222 0004 00000000 		.space	4
 223              		.align	2
 224              	ancestor_signal:
 225 0008 00000000 		.space	4
 226              		.section	.rodata
 227              		.align	2
 228              	.LC0:
 229 0000 43686563 		.ascii	"Check box\000"
 229      6B20626F 
 229      7800
 230              		.section	.text.lv_cb_create,"ax",%progbits
 231              		.align	2
 232              		.global	lv_cb_create
 233              		.thumb
 234              		.thumb_func
 235              		.type	lv_cb_create, %function
 236              	lv_cb_create:
 237              	.LFB50:
 238              		.file 5 "..\\..\\..\\lvgl\\version_6.1.2\\lvgl\\src\\lv_objx\\lv_cb.c"
   1:..\..\..\lvgl\version_6.1.2\lvgl\src\lv_objx/lv_cb.c **** /**
   2:..\..\..\lvgl\version_6.1.2\lvgl\src\lv_objx/lv_cb.c ****  * @file lv_cb.c
   3:..\..\..\lvgl\version_6.1.2\lvgl\src\lv_objx/lv_cb.c ****  *
   4:..\..\..\lvgl\version_6.1.2\lvgl\src\lv_objx/lv_cb.c ****  */
   5:..\..\..\lvgl\version_6.1.2\lvgl\src\lv_objx/lv_cb.c **** 
   6:..\..\..\lvgl\version_6.1.2\lvgl\src\lv_objx/lv_cb.c **** /*********************
   7:..\..\..\lvgl\version_6.1.2\lvgl\src\lv_objx/lv_cb.c ****  *      INCLUDES
   8:..\..\..\lvgl\version_6.1.2\lvgl\src\lv_objx/lv_cb.c ****  *********************/
   9:..\..\..\lvgl\version_6.1.2\lvgl\src\lv_objx/lv_cb.c **** #include "lv_cb.h"
  10:..\..\..\lvgl\version_6.1.2\lvgl\src\lv_objx/lv_cb.c **** #if LV_USE_CB != 0
  11:..\..\..\lvgl\version_6.1.2\lvgl\src\lv_objx/lv_cb.c **** 
  12:..\..\..\lvgl\version_6.1.2\lvgl\src\lv_objx/lv_cb.c **** #include "../lv_core/lv_debug.h"
  13:..\..\..\lvgl\version_6.1.2\lvgl\src\lv_objx/lv_cb.c **** #include "../lv_core/lv_group.h"
  14:..\..\..\lvgl\version_6.1.2\lvgl\src\lv_objx/lv_cb.c **** #include "../lv_themes/lv_theme.h"
  15:..\..\..\lvgl\version_6.1.2\lvgl\src\lv_objx/lv_cb.c **** 
  16:..\..\..\lvgl\version_6.1.2\lvgl\src\lv_objx/lv_cb.c **** /*********************
  17:..\..\..\lvgl\version_6.1.2\lvgl\src\lv_objx/lv_cb.c ****  *      DEFINES
  18:..\..\..\lvgl\version_6.1.2\lvgl\src\lv_objx/lv_cb.c ****  *********************/
  19:..\..\..\lvgl\version_6.1.2\lvgl\src\lv_objx/lv_cb.c **** #define LV_OBJX_NAME "lv_cb"
  20:..\..\..\lvgl\version_6.1.2\lvgl\src\lv_objx/lv_cb.c **** 
  21:..\..\..\lvgl\version_6.1.2\lvgl\src\lv_objx/lv_cb.c **** /**********************
  22:..\..\..\lvgl\version_6.1.2\lvgl\src\lv_objx/lv_cb.c ****  *      TYPEDEFS
  23:..\..\..\lvgl\version_6.1.2\lvgl\src\lv_objx/lv_cb.c ****  **********************/
  24:..\..\..\lvgl\version_6.1.2\lvgl\src\lv_objx/lv_cb.c **** 
  25:..\..\..\lvgl\version_6.1.2\lvgl\src\lv_objx/lv_cb.c **** /**********************
  26:..\..\..\lvgl\version_6.1.2\lvgl\src\lv_objx/lv_cb.c ****  *  STATIC PROTOTYPES
  27:..\..\..\lvgl\version_6.1.2\lvgl\src\lv_objx/lv_cb.c ****  **********************/
  28:..\..\..\lvgl\version_6.1.2\lvgl\src\lv_objx/lv_cb.c **** static bool lv_cb_design(lv_obj_t * cb, const lv_area_t * mask, lv_design_mode_t mode);
  29:..\..\..\lvgl\version_6.1.2\lvgl\src\lv_objx/lv_cb.c **** static bool lv_bullet_design(lv_obj_t * bullet, const lv_area_t * mask, lv_design_mode_t mode);
  30:..\..\..\lvgl\version_6.1.2\lvgl\src\lv_objx/lv_cb.c **** static lv_res_t lv_cb_signal(lv_obj_t * cb, lv_signal_t sign, void * param);
ARM GAS  C:\Users\tmj32\AppData\Local\Temp\ccH9iEPr.s 			page 19


  31:..\..\..\lvgl\version_6.1.2\lvgl\src\lv_objx/lv_cb.c **** 
  32:..\..\..\lvgl\version_6.1.2\lvgl\src\lv_objx/lv_cb.c **** /**********************
  33:..\..\..\lvgl\version_6.1.2\lvgl\src\lv_objx/lv_cb.c ****  *  STATIC VARIABLES
  34:..\..\..\lvgl\version_6.1.2\lvgl\src\lv_objx/lv_cb.c ****  **********************/
  35:..\..\..\lvgl\version_6.1.2\lvgl\src\lv_objx/lv_cb.c **** static lv_design_cb_t ancestor_bg_design;
  36:..\..\..\lvgl\version_6.1.2\lvgl\src\lv_objx/lv_cb.c **** static lv_design_cb_t ancestor_bullet_design;
  37:..\..\..\lvgl\version_6.1.2\lvgl\src\lv_objx/lv_cb.c **** static lv_signal_cb_t ancestor_signal;
  38:..\..\..\lvgl\version_6.1.2\lvgl\src\lv_objx/lv_cb.c **** 
  39:..\..\..\lvgl\version_6.1.2\lvgl\src\lv_objx/lv_cb.c **** /**********************
  40:..\..\..\lvgl\version_6.1.2\lvgl\src\lv_objx/lv_cb.c ****  *      MACROS
  41:..\..\..\lvgl\version_6.1.2\lvgl\src\lv_objx/lv_cb.c ****  **********************/
  42:..\..\..\lvgl\version_6.1.2\lvgl\src\lv_objx/lv_cb.c **** 
  43:..\..\..\lvgl\version_6.1.2\lvgl\src\lv_objx/lv_cb.c **** /**********************
  44:..\..\..\lvgl\version_6.1.2\lvgl\src\lv_objx/lv_cb.c ****  *   GLOBAL FUNCTIONS
  45:..\..\..\lvgl\version_6.1.2\lvgl\src\lv_objx/lv_cb.c ****  **********************/
  46:..\..\..\lvgl\version_6.1.2\lvgl\src\lv_objx/lv_cb.c **** 
  47:..\..\..\lvgl\version_6.1.2\lvgl\src\lv_objx/lv_cb.c **** /**
  48:..\..\..\lvgl\version_6.1.2\lvgl\src\lv_objx/lv_cb.c ****  * Create a check box objects
  49:..\..\..\lvgl\version_6.1.2\lvgl\src\lv_objx/lv_cb.c ****  * @param par pointer to an object, it will be the parent of the new check box
  50:..\..\..\lvgl\version_6.1.2\lvgl\src\lv_objx/lv_cb.c ****  * @param copy pointer to a check box object, if not NULL then the new object will be copied from i
  51:..\..\..\lvgl\version_6.1.2\lvgl\src\lv_objx/lv_cb.c ****  * @return pointer to the created check box
  52:..\..\..\lvgl\version_6.1.2\lvgl\src\lv_objx/lv_cb.c ****  */
  53:..\..\..\lvgl\version_6.1.2\lvgl\src\lv_objx/lv_cb.c **** lv_obj_t * lv_cb_create(lv_obj_t * par, const lv_obj_t * copy)
  54:..\..\..\lvgl\version_6.1.2\lvgl\src\lv_objx/lv_cb.c **** {
 239              		.loc 5 54 0
 240              		.cfi_startproc
 241              		@ args = 0, pretend = 0, frame = 24
 242              		@ frame_needed = 1, uses_anonymous_args = 0
 243 0000 80B5     		push	{r7, lr}
 244              		.cfi_def_cfa_offset 8
 245              		.cfi_offset 7, -8
 246              		.cfi_offset 14, -4
 247 0002 86B0     		sub	sp, sp, #24
 248              		.cfi_def_cfa_offset 32
 249 0004 00AF     		add	r7, sp, #0
 250              		.cfi_def_cfa_register 7
 251 0006 7860     		str	r0, [r7, #4]
 252 0008 3960     		str	r1, [r7]
  55:..\..\..\lvgl\version_6.1.2\lvgl\src\lv_objx/lv_cb.c **** 
  56:..\..\..\lvgl\version_6.1.2\lvgl\src\lv_objx/lv_cb.c ****     LV_LOG_TRACE("check box create started");
  57:..\..\..\lvgl\version_6.1.2\lvgl\src\lv_objx/lv_cb.c **** 
  58:..\..\..\lvgl\version_6.1.2\lvgl\src\lv_objx/lv_cb.c ****     /*Create the ancestor basic object*/
  59:..\..\..\lvgl\version_6.1.2\lvgl\src\lv_objx/lv_cb.c ****     lv_obj_t * new_cb = lv_btn_create(par, copy);
 253              		.loc 5 59 0
 254 000a 3968     		ldr	r1, [r7]
 255 000c 7868     		ldr	r0, [r7, #4]
 256 000e FFF7FEFF 		bl	lv_btn_create
 257 0012 7861     		str	r0, [r7, #20]
  60:..\..\..\lvgl\version_6.1.2\lvgl\src\lv_objx/lv_cb.c ****     LV_ASSERT_MEM(new_cb);
  61:..\..\..\lvgl\version_6.1.2\lvgl\src\lv_objx/lv_cb.c ****     if(new_cb == NULL) return NULL;
 258              		.loc 5 61 0
 259 0014 7B69     		ldr	r3, [r7, #20]
 260 0016 002B     		cmp	r3, #0
 261 0018 01D1     		bne	.L9
 262              		.loc 5 61 0 is_stmt 0 discriminator 1
 263 001a 0023     		movs	r3, #0
 264 001c C4E0     		b	.L10
ARM GAS  C:\Users\tmj32\AppData\Local\Temp\ccH9iEPr.s 			page 20


 265              	.L9:
  62:..\..\..\lvgl\version_6.1.2\lvgl\src\lv_objx/lv_cb.c **** 
  63:..\..\..\lvgl\version_6.1.2\lvgl\src\lv_objx/lv_cb.c ****     if(ancestor_signal == NULL) ancestor_signal = lv_obj_get_signal_cb(new_cb);
 266              		.loc 5 63 0 is_stmt 1
 267 001e 644B     		ldr	r3, .L19
 268 0020 1B68     		ldr	r3, [r3]
 269 0022 002B     		cmp	r3, #0
 270 0024 05D1     		bne	.L11
 271              		.loc 5 63 0 is_stmt 0 discriminator 1
 272 0026 7869     		ldr	r0, [r7, #20]
 273 0028 FFF7FEFF 		bl	lv_obj_get_signal_cb
 274 002c 0246     		mov	r2, r0
 275 002e 604B     		ldr	r3, .L19
 276 0030 1A60     		str	r2, [r3]
 277              	.L11:
  64:..\..\..\lvgl\version_6.1.2\lvgl\src\lv_objx/lv_cb.c ****     if(ancestor_bg_design == NULL) ancestor_bg_design = lv_obj_get_design_cb(new_cb);
 278              		.loc 5 64 0 is_stmt 1
 279 0032 604B     		ldr	r3, .L19+4
 280 0034 1B68     		ldr	r3, [r3]
 281 0036 002B     		cmp	r3, #0
 282 0038 05D1     		bne	.L12
 283              		.loc 5 64 0 is_stmt 0 discriminator 1
 284 003a 7869     		ldr	r0, [r7, #20]
 285 003c FFF7FEFF 		bl	lv_obj_get_design_cb
 286 0040 0246     		mov	r2, r0
 287 0042 5C4B     		ldr	r3, .L19+4
 288 0044 1A60     		str	r2, [r3]
 289              	.L12:
  65:..\..\..\lvgl\version_6.1.2\lvgl\src\lv_objx/lv_cb.c **** 
  66:..\..\..\lvgl\version_6.1.2\lvgl\src\lv_objx/lv_cb.c ****     lv_cb_ext_t * ext = lv_obj_allocate_ext_attr(new_cb, sizeof(lv_cb_ext_t));
 290              		.loc 5 66 0 is_stmt 1
 291 0046 2421     		movs	r1, #36
 292 0048 7869     		ldr	r0, [r7, #20]
 293 004a FFF7FEFF 		bl	lv_obj_allocate_ext_attr
 294 004e 3861     		str	r0, [r7, #16]
  67:..\..\..\lvgl\version_6.1.2\lvgl\src\lv_objx/lv_cb.c ****     LV_ASSERT_MEM(ext);
  68:..\..\..\lvgl\version_6.1.2\lvgl\src\lv_objx/lv_cb.c ****     if(ext == NULL) return NULL;
 295              		.loc 5 68 0
 296 0050 3B69     		ldr	r3, [r7, #16]
 297 0052 002B     		cmp	r3, #0
 298 0054 01D1     		bne	.L13
 299              		.loc 5 68 0 is_stmt 0 discriminator 1
 300 0056 0023     		movs	r3, #0
 301 0058 A6E0     		b	.L10
 302              	.L13:
  69:..\..\..\lvgl\version_6.1.2\lvgl\src\lv_objx/lv_cb.c **** 
  70:..\..\..\lvgl\version_6.1.2\lvgl\src\lv_objx/lv_cb.c ****     ext->bullet = NULL;
 303              		.loc 5 70 0 is_stmt 1
 304 005a 3B69     		ldr	r3, [r7, #16]
 305 005c 0022     		movs	r2, #0
 306 005e DA61     		str	r2, [r3, #28]
  71:..\..\..\lvgl\version_6.1.2\lvgl\src\lv_objx/lv_cb.c ****     ext->label  = NULL;
 307              		.loc 5 71 0
 308 0060 3B69     		ldr	r3, [r7, #16]
 309 0062 0022     		movs	r2, #0
 310 0064 1A62     		str	r2, [r3, #32]
  72:..\..\..\lvgl\version_6.1.2\lvgl\src\lv_objx/lv_cb.c **** 
ARM GAS  C:\Users\tmj32\AppData\Local\Temp\ccH9iEPr.s 			page 21


  73:..\..\..\lvgl\version_6.1.2\lvgl\src\lv_objx/lv_cb.c ****     lv_obj_set_signal_cb(new_cb, lv_cb_signal);
 311              		.loc 5 73 0
 312 0066 5449     		ldr	r1, .L19+8
 313 0068 7869     		ldr	r0, [r7, #20]
 314 006a FFF7FEFF 		bl	lv_obj_set_signal_cb
  74:..\..\..\lvgl\version_6.1.2\lvgl\src\lv_objx/lv_cb.c ****     lv_obj_set_design_cb(new_cb, lv_cb_design);
 315              		.loc 5 74 0
 316 006e 5349     		ldr	r1, .L19+12
 317 0070 7869     		ldr	r0, [r7, #20]
 318 0072 FFF7FEFF 		bl	lv_obj_set_design_cb
  75:..\..\..\lvgl\version_6.1.2\lvgl\src\lv_objx/lv_cb.c **** 
  76:..\..\..\lvgl\version_6.1.2\lvgl\src\lv_objx/lv_cb.c ****     /*Init the new checkbox object*/
  77:..\..\..\lvgl\version_6.1.2\lvgl\src\lv_objx/lv_cb.c ****     if(copy == NULL) {
 319              		.loc 5 77 0
 320 0076 3B68     		ldr	r3, [r7]
 321 0078 002B     		cmp	r3, #0
 322 007a 75D1     		bne	.L14
 323              	.LBB2:
  78:..\..\..\lvgl\version_6.1.2\lvgl\src\lv_objx/lv_cb.c ****         ext->bullet = lv_btn_create(new_cb, NULL);
 324              		.loc 5 78 0
 325 007c 0021     		movs	r1, #0
 326 007e 7869     		ldr	r0, [r7, #20]
 327 0080 FFF7FEFF 		bl	lv_btn_create
 328 0084 0246     		mov	r2, r0
 329 0086 3B69     		ldr	r3, [r7, #16]
 330 0088 DA61     		str	r2, [r3, #28]
  79:..\..\..\lvgl\version_6.1.2\lvgl\src\lv_objx/lv_cb.c ****         if(ancestor_bullet_design == NULL) ancestor_bullet_design = lv_obj_get_design_cb(ext->bulle
 331              		.loc 5 79 0
 332 008a 4D4B     		ldr	r3, .L19+16
 333 008c 1B68     		ldr	r3, [r3]
 334 008e 002B     		cmp	r3, #0
 335 0090 07D1     		bne	.L15
 336              		.loc 5 79 0 is_stmt 0 discriminator 1
 337 0092 3B69     		ldr	r3, [r7, #16]
 338 0094 DB69     		ldr	r3, [r3, #28]
 339 0096 1846     		mov	r0, r3
 340 0098 FFF7FEFF 		bl	lv_obj_get_design_cb
 341 009c 0246     		mov	r2, r0
 342 009e 484B     		ldr	r3, .L19+16
 343 00a0 1A60     		str	r2, [r3]
 344              	.L15:
  80:..\..\..\lvgl\version_6.1.2\lvgl\src\lv_objx/lv_cb.c ****         lv_obj_set_click(ext->bullet, false);
 345              		.loc 5 80 0 is_stmt 1
 346 00a2 3B69     		ldr	r3, [r7, #16]
 347 00a4 DB69     		ldr	r3, [r3, #28]
 348 00a6 0021     		movs	r1, #0
 349 00a8 1846     		mov	r0, r3
 350 00aa FFF7FEFF 		bl	lv_obj_set_click
  81:..\..\..\lvgl\version_6.1.2\lvgl\src\lv_objx/lv_cb.c **** 
  82:..\..\..\lvgl\version_6.1.2\lvgl\src\lv_objx/lv_cb.c ****         ext->label = lv_label_create(new_cb, NULL);
 351              		.loc 5 82 0
 352 00ae 0021     		movs	r1, #0
 353 00b0 7869     		ldr	r0, [r7, #20]
 354 00b2 FFF7FEFF 		bl	lv_label_create
 355 00b6 0246     		mov	r2, r0
 356 00b8 3B69     		ldr	r3, [r7, #16]
 357 00ba 1A62     		str	r2, [r3, #32]
ARM GAS  C:\Users\tmj32\AppData\Local\Temp\ccH9iEPr.s 			page 22


  83:..\..\..\lvgl\version_6.1.2\lvgl\src\lv_objx/lv_cb.c **** 
  84:..\..\..\lvgl\version_6.1.2\lvgl\src\lv_objx/lv_cb.c ****         lv_cb_set_text(new_cb, "Check box");
 358              		.loc 5 84 0
 359 00bc 4149     		ldr	r1, .L19+20
 360 00be 7869     		ldr	r0, [r7, #20]
 361 00c0 FFF7FEFF 		bl	lv_cb_set_text
  85:..\..\..\lvgl\version_6.1.2\lvgl\src\lv_objx/lv_cb.c ****         lv_btn_set_layout(new_cb, LV_LAYOUT_ROW_M);
 362              		.loc 5 85 0
 363 00c4 0621     		movs	r1, #6
 364 00c6 7869     		ldr	r0, [r7, #20]
 365 00c8 FFF7FEFF 		bl	lv_btn_set_layout
  86:..\..\..\lvgl\version_6.1.2\lvgl\src\lv_objx/lv_cb.c ****         lv_btn_set_fit(new_cb, LV_FIT_TIGHT);
 366              		.loc 5 86 0
 367 00cc 0121     		movs	r1, #1
 368 00ce 7869     		ldr	r0, [r7, #20]
 369 00d0 FFF7FEFF 		bl	lv_btn_set_fit
  87:..\..\..\lvgl\version_6.1.2\lvgl\src\lv_objx/lv_cb.c ****         lv_btn_set_toggle(new_cb, true);
 370              		.loc 5 87 0
 371 00d4 0121     		movs	r1, #1
 372 00d6 7869     		ldr	r0, [r7, #20]
 373 00d8 FFF7FEFF 		bl	lv_btn_set_toggle
  88:..\..\..\lvgl\version_6.1.2\lvgl\src\lv_objx/lv_cb.c ****         lv_obj_set_protect(new_cb, LV_PROTECT_PRESS_LOST);
 374              		.loc 5 88 0
 375 00dc 1021     		movs	r1, #16
 376 00de 7869     		ldr	r0, [r7, #20]
 377 00e0 FFF7FEFF 		bl	lv_obj_set_protect
  89:..\..\..\lvgl\version_6.1.2\lvgl\src\lv_objx/lv_cb.c **** 
  90:..\..\..\lvgl\version_6.1.2\lvgl\src\lv_objx/lv_cb.c ****         /*Set the default styles*/
  91:..\..\..\lvgl\version_6.1.2\lvgl\src\lv_objx/lv_cb.c ****         lv_theme_t * th = lv_theme_get_current();
 378              		.loc 5 91 0
 379 00e4 FFF7FEFF 		bl	lv_theme_get_current
 380 00e8 F860     		str	r0, [r7, #12]
  92:..\..\..\lvgl\version_6.1.2\lvgl\src\lv_objx/lv_cb.c ****         if(th) {
 381              		.loc 5 92 0
 382 00ea FB68     		ldr	r3, [r7, #12]
 383 00ec 002B     		cmp	r3, #0
 384 00ee 30D0     		beq	.L16
  93:..\..\..\lvgl\version_6.1.2\lvgl\src\lv_objx/lv_cb.c ****             lv_cb_set_style(new_cb, LV_CB_STYLE_BG, th->style.cb.bg);
 385              		.loc 5 93 0
 386 00f0 FB68     		ldr	r3, [r7, #12]
 387 00f2 D3F8AC30 		ldr	r3, [r3, #172]
 388 00f6 1A46     		mov	r2, r3
 389 00f8 0021     		movs	r1, #0
 390 00fa 7869     		ldr	r0, [r7, #20]
 391 00fc FFF7FEFF 		bl	lv_cb_set_style
  94:..\..\..\lvgl\version_6.1.2\lvgl\src\lv_objx/lv_cb.c ****             lv_cb_set_style(new_cb, LV_CB_STYLE_BOX_REL, th->style.cb.box.rel);
 392              		.loc 5 94 0
 393 0100 FB68     		ldr	r3, [r7, #12]
 394 0102 D3F8B030 		ldr	r3, [r3, #176]
 395 0106 1A46     		mov	r2, r3
 396 0108 0121     		movs	r1, #1
 397 010a 7869     		ldr	r0, [r7, #20]
 398 010c FFF7FEFF 		bl	lv_cb_set_style
  95:..\..\..\lvgl\version_6.1.2\lvgl\src\lv_objx/lv_cb.c ****             lv_cb_set_style(new_cb, LV_CB_STYLE_BOX_PR, th->style.cb.box.pr);
 399              		.loc 5 95 0
 400 0110 FB68     		ldr	r3, [r7, #12]
 401 0112 D3F8B430 		ldr	r3, [r3, #180]
ARM GAS  C:\Users\tmj32\AppData\Local\Temp\ccH9iEPr.s 			page 23


 402 0116 1A46     		mov	r2, r3
 403 0118 0221     		movs	r1, #2
 404 011a 7869     		ldr	r0, [r7, #20]
 405 011c FFF7FEFF 		bl	lv_cb_set_style
  96:..\..\..\lvgl\version_6.1.2\lvgl\src\lv_objx/lv_cb.c ****             lv_cb_set_style(new_cb, LV_CB_STYLE_BOX_TGL_REL, th->style.cb.box.tgl_rel);
 406              		.loc 5 96 0
 407 0120 FB68     		ldr	r3, [r7, #12]
 408 0122 D3F8B830 		ldr	r3, [r3, #184]
 409 0126 1A46     		mov	r2, r3
 410 0128 0321     		movs	r1, #3
 411 012a 7869     		ldr	r0, [r7, #20]
 412 012c FFF7FEFF 		bl	lv_cb_set_style
  97:..\..\..\lvgl\version_6.1.2\lvgl\src\lv_objx/lv_cb.c ****             lv_cb_set_style(new_cb, LV_CB_STYLE_BOX_TGL_PR, th->style.cb.box.tgl_pr);
 413              		.loc 5 97 0
 414 0130 FB68     		ldr	r3, [r7, #12]
 415 0132 D3F8BC30 		ldr	r3, [r3, #188]
 416 0136 1A46     		mov	r2, r3
 417 0138 0421     		movs	r1, #4
 418 013a 7869     		ldr	r0, [r7, #20]
 419 013c FFF7FEFF 		bl	lv_cb_set_style
  98:..\..\..\lvgl\version_6.1.2\lvgl\src\lv_objx/lv_cb.c ****             lv_cb_set_style(new_cb, LV_CB_STYLE_BOX_INA, th->style.cb.box.ina);
 420              		.loc 5 98 0
 421 0140 FB68     		ldr	r3, [r7, #12]
 422 0142 D3F8C030 		ldr	r3, [r3, #192]
 423 0146 1A46     		mov	r2, r3
 424 0148 0521     		movs	r1, #5
 425 014a 7869     		ldr	r0, [r7, #20]
 426 014c FFF7FEFF 		bl	lv_cb_set_style
 427 0150 23E0     		b	.L18
 428              	.L16:
  99:..\..\..\lvgl\version_6.1.2\lvgl\src\lv_objx/lv_cb.c ****         } else {
 100:..\..\..\lvgl\version_6.1.2\lvgl\src\lv_objx/lv_cb.c ****             lv_cb_set_style(new_cb, LV_CB_STYLE_BG, &lv_style_transp);
 429              		.loc 5 100 0
 430 0152 1D4A     		ldr	r2, .L19+24
 431 0154 0021     		movs	r1, #0
 432 0156 7869     		ldr	r0, [r7, #20]
 433 0158 FFF7FEFF 		bl	lv_cb_set_style
 101:..\..\..\lvgl\version_6.1.2\lvgl\src\lv_objx/lv_cb.c ****             lv_cb_set_style(new_cb, LV_CB_STYLE_BOX_REL, &lv_style_pretty);
 434              		.loc 5 101 0
 435 015c 1B4A     		ldr	r2, .L19+28
 436 015e 0121     		movs	r1, #1
 437 0160 7869     		ldr	r0, [r7, #20]
 438 0162 FFF7FEFF 		bl	lv_cb_set_style
 439 0166 18E0     		b	.L18
 440              	.L14:
 441              	.LBE2:
 442              	.LBB3:
 102:..\..\..\lvgl\version_6.1.2\lvgl\src\lv_objx/lv_cb.c ****         }
 103:..\..\..\lvgl\version_6.1.2\lvgl\src\lv_objx/lv_cb.c ****     } else {
 104:..\..\..\lvgl\version_6.1.2\lvgl\src\lv_objx/lv_cb.c ****         lv_cb_ext_t * copy_ext = lv_obj_get_ext_attr(copy);
 443              		.loc 5 104 0
 444 0168 3868     		ldr	r0, [r7]
 445 016a FFF7FEFF 		bl	lv_obj_get_ext_attr
 446 016e B860     		str	r0, [r7, #8]
 105:..\..\..\lvgl\version_6.1.2\lvgl\src\lv_objx/lv_cb.c ****         ext->bullet            = lv_btn_create(new_cb, copy_ext->bullet);
 447              		.loc 5 105 0
 448 0170 BB68     		ldr	r3, [r7, #8]
ARM GAS  C:\Users\tmj32\AppData\Local\Temp\ccH9iEPr.s 			page 24


 449 0172 DB69     		ldr	r3, [r3, #28]
 450 0174 1946     		mov	r1, r3
 451 0176 7869     		ldr	r0, [r7, #20]
 452 0178 FFF7FEFF 		bl	lv_btn_create
 453 017c 0246     		mov	r2, r0
 454 017e 3B69     		ldr	r3, [r7, #16]
 455 0180 DA61     		str	r2, [r3, #28]
 106:..\..\..\lvgl\version_6.1.2\lvgl\src\lv_objx/lv_cb.c ****         ext->label             = lv_label_create(new_cb, copy_ext->label);
 456              		.loc 5 106 0
 457 0182 BB68     		ldr	r3, [r7, #8]
 458 0184 1B6A     		ldr	r3, [r3, #32]
 459 0186 1946     		mov	r1, r3
 460 0188 7869     		ldr	r0, [r7, #20]
 461 018a FFF7FEFF 		bl	lv_label_create
 462 018e 0246     		mov	r2, r0
 463 0190 3B69     		ldr	r3, [r7, #16]
 464 0192 1A62     		str	r2, [r3, #32]
 107:..\..\..\lvgl\version_6.1.2\lvgl\src\lv_objx/lv_cb.c **** 
 108:..\..\..\lvgl\version_6.1.2\lvgl\src\lv_objx/lv_cb.c ****         /*Refresh the style with new signal function*/
 109:..\..\..\lvgl\version_6.1.2\lvgl\src\lv_objx/lv_cb.c ****         lv_obj_refresh_style(new_cb);
 465              		.loc 5 109 0
 466 0194 7869     		ldr	r0, [r7, #20]
 467 0196 FFF7FEFF 		bl	lv_obj_refresh_style
 468              	.L18:
 469              	.LBE3:
 110:..\..\..\lvgl\version_6.1.2\lvgl\src\lv_objx/lv_cb.c ****     }
 111:..\..\..\lvgl\version_6.1.2\lvgl\src\lv_objx/lv_cb.c **** 
 112:..\..\..\lvgl\version_6.1.2\lvgl\src\lv_objx/lv_cb.c ****     lv_obj_set_design_cb(ext->bullet, lv_bullet_design);
 470              		.loc 5 112 0
 471 019a 3B69     		ldr	r3, [r7, #16]
 472 019c DB69     		ldr	r3, [r3, #28]
 473 019e 0C49     		ldr	r1, .L19+32
 474 01a0 1846     		mov	r0, r3
 475 01a2 FFF7FEFF 		bl	lv_obj_set_design_cb
 113:..\..\..\lvgl\version_6.1.2\lvgl\src\lv_objx/lv_cb.c **** 
 114:..\..\..\lvgl\version_6.1.2\lvgl\src\lv_objx/lv_cb.c ****     LV_LOG_INFO("check box created");
 115:..\..\..\lvgl\version_6.1.2\lvgl\src\lv_objx/lv_cb.c **** 
 116:..\..\..\lvgl\version_6.1.2\lvgl\src\lv_objx/lv_cb.c ****     return new_cb;
 476              		.loc 5 116 0
 477 01a6 7B69     		ldr	r3, [r7, #20]
 478              	.L10:
 117:..\..\..\lvgl\version_6.1.2\lvgl\src\lv_objx/lv_cb.c **** }
 479              		.loc 5 117 0
 480 01a8 1846     		mov	r0, r3
 481 01aa 1837     		adds	r7, r7, #24
 482              		.cfi_def_cfa_offset 8
 483 01ac BD46     		mov	sp, r7
 484              		.cfi_def_cfa_register 13
 485              		@ sp needed
 486 01ae 80BD     		pop	{r7, pc}
 487              	.L20:
 488              		.align	2
 489              	.L19:
 490 01b0 08000000 		.word	ancestor_signal
 491 01b4 00000000 		.word	ancestor_bg_design
 492 01b8 00000000 		.word	lv_cb_signal
 493 01bc 00000000 		.word	lv_cb_design
ARM GAS  C:\Users\tmj32\AppData\Local\Temp\ccH9iEPr.s 			page 25


 494 01c0 04000000 		.word	ancestor_bullet_design
 495 01c4 00000000 		.word	.LC0
 496 01c8 00000000 		.word	lv_style_transp
 497 01cc 00000000 		.word	lv_style_pretty
 498 01d0 00000000 		.word	lv_bullet_design
 499              		.cfi_endproc
 500              	.LFE50:
 501              		.size	lv_cb_create, .-lv_cb_create
 502              		.section	.text.lv_cb_set_text,"ax",%progbits
 503              		.align	2
 504              		.global	lv_cb_set_text
 505              		.thumb
 506              		.thumb_func
 507              		.type	lv_cb_set_text, %function
 508              	lv_cb_set_text:
 509              	.LFB51:
 118:..\..\..\lvgl\version_6.1.2\lvgl\src\lv_objx/lv_cb.c **** 
 119:..\..\..\lvgl\version_6.1.2\lvgl\src\lv_objx/lv_cb.c **** /*=====================
 120:..\..\..\lvgl\version_6.1.2\lvgl\src\lv_objx/lv_cb.c ****  * Setter functions
 121:..\..\..\lvgl\version_6.1.2\lvgl\src\lv_objx/lv_cb.c ****  *====================*/
 122:..\..\..\lvgl\version_6.1.2\lvgl\src\lv_objx/lv_cb.c **** 
 123:..\..\..\lvgl\version_6.1.2\lvgl\src\lv_objx/lv_cb.c **** /**
 124:..\..\..\lvgl\version_6.1.2\lvgl\src\lv_objx/lv_cb.c ****  * Set the text of a check box. `txt` will be copied and may be deallocated
 125:..\..\..\lvgl\version_6.1.2\lvgl\src\lv_objx/lv_cb.c ****  * after this function returns.
 126:..\..\..\lvgl\version_6.1.2\lvgl\src\lv_objx/lv_cb.c ****  * @param cb pointer to a check box
 127:..\..\..\lvgl\version_6.1.2\lvgl\src\lv_objx/lv_cb.c ****  * @param txt the text of the check box. NULL to refresh with the current text.
 128:..\..\..\lvgl\version_6.1.2\lvgl\src\lv_objx/lv_cb.c ****  */
 129:..\..\..\lvgl\version_6.1.2\lvgl\src\lv_objx/lv_cb.c **** void lv_cb_set_text(lv_obj_t * cb, const char * txt)
 130:..\..\..\lvgl\version_6.1.2\lvgl\src\lv_objx/lv_cb.c **** {
 510              		.loc 5 130 0
 511              		.cfi_startproc
 512              		@ args = 0, pretend = 0, frame = 16
 513              		@ frame_needed = 1, uses_anonymous_args = 0
 514 0000 80B5     		push	{r7, lr}
 515              		.cfi_def_cfa_offset 8
 516              		.cfi_offset 7, -8
 517              		.cfi_offset 14, -4
 518 0002 84B0     		sub	sp, sp, #16
 519              		.cfi_def_cfa_offset 24
 520 0004 00AF     		add	r7, sp, #0
 521              		.cfi_def_cfa_register 7
 522 0006 7860     		str	r0, [r7, #4]
 523 0008 3960     		str	r1, [r7]
 131:..\..\..\lvgl\version_6.1.2\lvgl\src\lv_objx/lv_cb.c ****     LV_ASSERT_OBJ(cb, LV_OBJX_NAME);
 132:..\..\..\lvgl\version_6.1.2\lvgl\src\lv_objx/lv_cb.c **** 
 133:..\..\..\lvgl\version_6.1.2\lvgl\src\lv_objx/lv_cb.c ****     lv_cb_ext_t * ext = lv_obj_get_ext_attr(cb);
 524              		.loc 5 133 0
 525 000a 7868     		ldr	r0, [r7, #4]
 526 000c FFF7FEFF 		bl	lv_obj_get_ext_attr
 527 0010 F860     		str	r0, [r7, #12]
 134:..\..\..\lvgl\version_6.1.2\lvgl\src\lv_objx/lv_cb.c ****     lv_label_set_text(ext->label, txt);
 528              		.loc 5 134 0
 529 0012 FB68     		ldr	r3, [r7, #12]
 530 0014 1B6A     		ldr	r3, [r3, #32]
 531 0016 3968     		ldr	r1, [r7]
 532 0018 1846     		mov	r0, r3
 533 001a FFF7FEFF 		bl	lv_label_set_text
ARM GAS  C:\Users\tmj32\AppData\Local\Temp\ccH9iEPr.s 			page 26


 135:..\..\..\lvgl\version_6.1.2\lvgl\src\lv_objx/lv_cb.c **** }
 534              		.loc 5 135 0
 535 001e 00BF     		nop
 536 0020 1037     		adds	r7, r7, #16
 537              		.cfi_def_cfa_offset 8
 538 0022 BD46     		mov	sp, r7
 539              		.cfi_def_cfa_register 13
 540              		@ sp needed
 541 0024 80BD     		pop	{r7, pc}
 542              		.cfi_endproc
 543              	.LFE51:
 544              		.size	lv_cb_set_text, .-lv_cb_set_text
 545 0026 00BF     		.section	.text.lv_cb_set_static_text,"ax",%progbits
 546              		.align	2
 547              		.global	lv_cb_set_static_text
 548              		.thumb
 549              		.thumb_func
 550              		.type	lv_cb_set_static_text, %function
 551              	lv_cb_set_static_text:
 552              	.LFB52:
 136:..\..\..\lvgl\version_6.1.2\lvgl\src\lv_objx/lv_cb.c **** 
 137:..\..\..\lvgl\version_6.1.2\lvgl\src\lv_objx/lv_cb.c **** /**
 138:..\..\..\lvgl\version_6.1.2\lvgl\src\lv_objx/lv_cb.c ****  * Set the text of a check box. `txt` must not be deallocated during the life
 139:..\..\..\lvgl\version_6.1.2\lvgl\src\lv_objx/lv_cb.c ****  * of this checkbox.
 140:..\..\..\lvgl\version_6.1.2\lvgl\src\lv_objx/lv_cb.c ****  * @param cb pointer to a check box
 141:..\..\..\lvgl\version_6.1.2\lvgl\src\lv_objx/lv_cb.c ****  * @param txt the text of the check box. NULL to refresh with the current text.
 142:..\..\..\lvgl\version_6.1.2\lvgl\src\lv_objx/lv_cb.c ****  */
 143:..\..\..\lvgl\version_6.1.2\lvgl\src\lv_objx/lv_cb.c **** void lv_cb_set_static_text(lv_obj_t * cb, const char * txt)
 144:..\..\..\lvgl\version_6.1.2\lvgl\src\lv_objx/lv_cb.c **** {
 553              		.loc 5 144 0
 554              		.cfi_startproc
 555              		@ args = 0, pretend = 0, frame = 16
 556              		@ frame_needed = 1, uses_anonymous_args = 0
 557 0000 80B5     		push	{r7, lr}
 558              		.cfi_def_cfa_offset 8
 559              		.cfi_offset 7, -8
 560              		.cfi_offset 14, -4
 561 0002 84B0     		sub	sp, sp, #16
 562              		.cfi_def_cfa_offset 24
 563 0004 00AF     		add	r7, sp, #0
 564              		.cfi_def_cfa_register 7
 565 0006 7860     		str	r0, [r7, #4]
 566 0008 3960     		str	r1, [r7]
 145:..\..\..\lvgl\version_6.1.2\lvgl\src\lv_objx/lv_cb.c ****     LV_ASSERT_OBJ(cb, LV_OBJX_NAME);
 146:..\..\..\lvgl\version_6.1.2\lvgl\src\lv_objx/lv_cb.c **** 
 147:..\..\..\lvgl\version_6.1.2\lvgl\src\lv_objx/lv_cb.c ****     lv_cb_ext_t * ext = lv_obj_get_ext_attr(cb);
 567              		.loc 5 147 0
 568 000a 7868     		ldr	r0, [r7, #4]
 569 000c FFF7FEFF 		bl	lv_obj_get_ext_attr
 570 0010 F860     		str	r0, [r7, #12]
 148:..\..\..\lvgl\version_6.1.2\lvgl\src\lv_objx/lv_cb.c ****     lv_label_set_static_text(ext->label, txt);
 571              		.loc 5 148 0
 572 0012 FB68     		ldr	r3, [r7, #12]
 573 0014 1B6A     		ldr	r3, [r3, #32]
 574 0016 3968     		ldr	r1, [r7]
 575 0018 1846     		mov	r0, r3
 576 001a FFF7FEFF 		bl	lv_label_set_static_text
ARM GAS  C:\Users\tmj32\AppData\Local\Temp\ccH9iEPr.s 			page 27


 149:..\..\..\lvgl\version_6.1.2\lvgl\src\lv_objx/lv_cb.c **** }
 577              		.loc 5 149 0
 578 001e 00BF     		nop
 579 0020 1037     		adds	r7, r7, #16
 580              		.cfi_def_cfa_offset 8
 581 0022 BD46     		mov	sp, r7
 582              		.cfi_def_cfa_register 13
 583              		@ sp needed
 584 0024 80BD     		pop	{r7, pc}
 585              		.cfi_endproc
 586              	.LFE52:
 587              		.size	lv_cb_set_static_text, .-lv_cb_set_static_text
 588 0026 00BF     		.section	.text.lv_cb_set_style,"ax",%progbits
 589              		.align	2
 590              		.global	lv_cb_set_style
 591              		.thumb
 592              		.thumb_func
 593              		.type	lv_cb_set_style, %function
 594              	lv_cb_set_style:
 595              	.LFB53:
 150:..\..\..\lvgl\version_6.1.2\lvgl\src\lv_objx/lv_cb.c **** 
 151:..\..\..\lvgl\version_6.1.2\lvgl\src\lv_objx/lv_cb.c **** /**
 152:..\..\..\lvgl\version_6.1.2\lvgl\src\lv_objx/lv_cb.c ****  * Set a style of a check box
 153:..\..\..\lvgl\version_6.1.2\lvgl\src\lv_objx/lv_cb.c ****  * @param cb pointer to check box object
 154:..\..\..\lvgl\version_6.1.2\lvgl\src\lv_objx/lv_cb.c ****  * @param type which style should be set
 155:..\..\..\lvgl\version_6.1.2\lvgl\src\lv_objx/lv_cb.c ****  * @param style pointer to a style
 156:..\..\..\lvgl\version_6.1.2\lvgl\src\lv_objx/lv_cb.c ****  *  */
 157:..\..\..\lvgl\version_6.1.2\lvgl\src\lv_objx/lv_cb.c **** void lv_cb_set_style(lv_obj_t * cb, lv_cb_style_t type, const lv_style_t * style)
 158:..\..\..\lvgl\version_6.1.2\lvgl\src\lv_objx/lv_cb.c **** {
 596              		.loc 5 158 0
 597              		.cfi_startproc
 598              		@ args = 0, pretend = 0, frame = 24
 599              		@ frame_needed = 1, uses_anonymous_args = 0
 600 0000 80B5     		push	{r7, lr}
 601              		.cfi_def_cfa_offset 8
 602              		.cfi_offset 7, -8
 603              		.cfi_offset 14, -4
 604 0002 86B0     		sub	sp, sp, #24
 605              		.cfi_def_cfa_offset 32
 606 0004 00AF     		add	r7, sp, #0
 607              		.cfi_def_cfa_register 7
 608 0006 F860     		str	r0, [r7, #12]
 609 0008 0B46     		mov	r3, r1
 610 000a 7A60     		str	r2, [r7, #4]
 611 000c FB72     		strb	r3, [r7, #11]
 159:..\..\..\lvgl\version_6.1.2\lvgl\src\lv_objx/lv_cb.c ****     LV_ASSERT_OBJ(cb, LV_OBJX_NAME);
 160:..\..\..\lvgl\version_6.1.2\lvgl\src\lv_objx/lv_cb.c **** 
 161:..\..\..\lvgl\version_6.1.2\lvgl\src\lv_objx/lv_cb.c ****     lv_cb_ext_t * ext = lv_obj_get_ext_attr(cb);
 612              		.loc 5 161 0
 613 000e F868     		ldr	r0, [r7, #12]
 614 0010 FFF7FEFF 		bl	lv_obj_get_ext_attr
 615 0014 7861     		str	r0, [r7, #20]
 162:..\..\..\lvgl\version_6.1.2\lvgl\src\lv_objx/lv_cb.c **** 
 163:..\..\..\lvgl\version_6.1.2\lvgl\src\lv_objx/lv_cb.c ****     switch(type) {
 616              		.loc 5 163 0
 617 0016 FB7A     		ldrb	r3, [r7, #11]	@ zero_extendqisi2
 618 0018 052B     		cmp	r3, #5
ARM GAS  C:\Users\tmj32\AppData\Local\Temp\ccH9iEPr.s 			page 28


 619 001a 51D8     		bhi	.L32
 620 001c 01A2     		adr	r2, .L26
 621 001e 52F823F0 		ldr	pc, [r2, r3, lsl #2]
 622 0022 00BF     		.p2align 2
 623              	.L26:
 624 0024 3D000000 		.word	.L25+1
 625 0028 71000000 		.word	.L27+1
 626 002c 81000000 		.word	.L28+1
 627 0030 91000000 		.word	.L29+1
 628 0034 A1000000 		.word	.L30+1
 629 0038 B1000000 		.word	.L31+1
 630              		.p2align 1
 631              	.L25:
 164:..\..\..\lvgl\version_6.1.2\lvgl\src\lv_objx/lv_cb.c ****         case LV_CB_STYLE_BG:
 165:..\..\..\lvgl\version_6.1.2\lvgl\src\lv_objx/lv_cb.c ****             lv_btn_set_style(cb, LV_BTN_STYLE_REL, style);
 632              		.loc 5 165 0
 633 003c 7A68     		ldr	r2, [r7, #4]
 634 003e 0021     		movs	r1, #0
 635 0040 F868     		ldr	r0, [r7, #12]
 636 0042 FFF7FEFF 		bl	lv_btn_set_style
 166:..\..\..\lvgl\version_6.1.2\lvgl\src\lv_objx/lv_cb.c ****             lv_btn_set_style(cb, LV_BTN_STYLE_PR, style);
 637              		.loc 5 166 0
 638 0046 7A68     		ldr	r2, [r7, #4]
 639 0048 0121     		movs	r1, #1
 640 004a F868     		ldr	r0, [r7, #12]
 641 004c FFF7FEFF 		bl	lv_btn_set_style
 167:..\..\..\lvgl\version_6.1.2\lvgl\src\lv_objx/lv_cb.c ****             lv_btn_set_style(cb, LV_BTN_STYLE_TGL_REL, style);
 642              		.loc 5 167 0
 643 0050 7A68     		ldr	r2, [r7, #4]
 644 0052 0221     		movs	r1, #2
 645 0054 F868     		ldr	r0, [r7, #12]
 646 0056 FFF7FEFF 		bl	lv_btn_set_style
 168:..\..\..\lvgl\version_6.1.2\lvgl\src\lv_objx/lv_cb.c ****             lv_btn_set_style(cb, LV_BTN_STYLE_TGL_PR, style);
 647              		.loc 5 168 0
 648 005a 7A68     		ldr	r2, [r7, #4]
 649 005c 0321     		movs	r1, #3
 650 005e F868     		ldr	r0, [r7, #12]
 651 0060 FFF7FEFF 		bl	lv_btn_set_style
 169:..\..\..\lvgl\version_6.1.2\lvgl\src\lv_objx/lv_cb.c ****             lv_btn_set_style(cb, LV_BTN_STYLE_INA, style);
 652              		.loc 5 169 0
 653 0064 7A68     		ldr	r2, [r7, #4]
 654 0066 0421     		movs	r1, #4
 655 0068 F868     		ldr	r0, [r7, #12]
 656 006a FFF7FEFF 		bl	lv_btn_set_style
 170:..\..\..\lvgl\version_6.1.2\lvgl\src\lv_objx/lv_cb.c ****             break;
 657              		.loc 5 170 0
 658 006e 27E0     		b	.L24
 659              	.L27:
 171:..\..\..\lvgl\version_6.1.2\lvgl\src\lv_objx/lv_cb.c ****         case LV_CB_STYLE_BOX_REL: lv_btn_set_style(ext->bullet, LV_BTN_STYLE_REL, style); break;
 660              		.loc 5 171 0
 661 0070 7B69     		ldr	r3, [r7, #20]
 662 0072 DB69     		ldr	r3, [r3, #28]
 663 0074 7A68     		ldr	r2, [r7, #4]
 664 0076 0021     		movs	r1, #0
 665 0078 1846     		mov	r0, r3
 666 007a FFF7FEFF 		bl	lv_btn_set_style
 667 007e 1FE0     		b	.L24
ARM GAS  C:\Users\tmj32\AppData\Local\Temp\ccH9iEPr.s 			page 29


 668              	.L28:
 172:..\..\..\lvgl\version_6.1.2\lvgl\src\lv_objx/lv_cb.c ****         case LV_CB_STYLE_BOX_PR: lv_btn_set_style(ext->bullet, LV_BTN_STYLE_PR, style); break;
 669              		.loc 5 172 0
 670 0080 7B69     		ldr	r3, [r7, #20]
 671 0082 DB69     		ldr	r3, [r3, #28]
 672 0084 7A68     		ldr	r2, [r7, #4]
 673 0086 0121     		movs	r1, #1
 674 0088 1846     		mov	r0, r3
 675 008a FFF7FEFF 		bl	lv_btn_set_style
 676 008e 17E0     		b	.L24
 677              	.L29:
 173:..\..\..\lvgl\version_6.1.2\lvgl\src\lv_objx/lv_cb.c ****         case LV_CB_STYLE_BOX_TGL_REL: lv_btn_set_style(ext->bullet, LV_BTN_STYLE_TGL_REL, style); b
 678              		.loc 5 173 0
 679 0090 7B69     		ldr	r3, [r7, #20]
 680 0092 DB69     		ldr	r3, [r3, #28]
 681 0094 7A68     		ldr	r2, [r7, #4]
 682 0096 0221     		movs	r1, #2
 683 0098 1846     		mov	r0, r3
 684 009a FFF7FEFF 		bl	lv_btn_set_style
 685 009e 0FE0     		b	.L24
 686              	.L30:
 174:..\..\..\lvgl\version_6.1.2\lvgl\src\lv_objx/lv_cb.c ****         case LV_CB_STYLE_BOX_TGL_PR: lv_btn_set_style(ext->bullet, LV_BTN_STYLE_TGL_PR, style); bre
 687              		.loc 5 174 0
 688 00a0 7B69     		ldr	r3, [r7, #20]
 689 00a2 DB69     		ldr	r3, [r3, #28]
 690 00a4 7A68     		ldr	r2, [r7, #4]
 691 00a6 0321     		movs	r1, #3
 692 00a8 1846     		mov	r0, r3
 693 00aa FFF7FEFF 		bl	lv_btn_set_style
 694 00ae 07E0     		b	.L24
 695              	.L31:
 175:..\..\..\lvgl\version_6.1.2\lvgl\src\lv_objx/lv_cb.c ****         case LV_CB_STYLE_BOX_INA: lv_btn_set_style(ext->bullet, LV_BTN_STYLE_INA, style); break;
 696              		.loc 5 175 0
 697 00b0 7B69     		ldr	r3, [r7, #20]
 698 00b2 DB69     		ldr	r3, [r3, #28]
 699 00b4 7A68     		ldr	r2, [r7, #4]
 700 00b6 0421     		movs	r1, #4
 701 00b8 1846     		mov	r0, r3
 702 00ba FFF7FEFF 		bl	lv_btn_set_style
 703 00be 00BF     		nop
 704              	.L24:
 705              	.L32:
 176:..\..\..\lvgl\version_6.1.2\lvgl\src\lv_objx/lv_cb.c ****     }
 177:..\..\..\lvgl\version_6.1.2\lvgl\src\lv_objx/lv_cb.c **** }
 706              		.loc 5 177 0
 707 00c0 00BF     		nop
 708 00c2 1837     		adds	r7, r7, #24
 709              		.cfi_def_cfa_offset 8
 710 00c4 BD46     		mov	sp, r7
 711              		.cfi_def_cfa_register 13
 712              		@ sp needed
 713 00c6 80BD     		pop	{r7, pc}
 714              		.cfi_endproc
 715              	.LFE53:
 716              		.size	lv_cb_set_style, .-lv_cb_set_style
 717              		.section	.text.lv_cb_get_text,"ax",%progbits
 718              		.align	2
ARM GAS  C:\Users\tmj32\AppData\Local\Temp\ccH9iEPr.s 			page 30


 719              		.global	lv_cb_get_text
 720              		.thumb
 721              		.thumb_func
 722              		.type	lv_cb_get_text, %function
 723              	lv_cb_get_text:
 724              	.LFB54:
 178:..\..\..\lvgl\version_6.1.2\lvgl\src\lv_objx/lv_cb.c **** 
 179:..\..\..\lvgl\version_6.1.2\lvgl\src\lv_objx/lv_cb.c **** /*=====================
 180:..\..\..\lvgl\version_6.1.2\lvgl\src\lv_objx/lv_cb.c ****  * Getter functions
 181:..\..\..\lvgl\version_6.1.2\lvgl\src\lv_objx/lv_cb.c ****  *====================*/
 182:..\..\..\lvgl\version_6.1.2\lvgl\src\lv_objx/lv_cb.c **** 
 183:..\..\..\lvgl\version_6.1.2\lvgl\src\lv_objx/lv_cb.c **** /**
 184:..\..\..\lvgl\version_6.1.2\lvgl\src\lv_objx/lv_cb.c ****  * Get the text of a check box
 185:..\..\..\lvgl\version_6.1.2\lvgl\src\lv_objx/lv_cb.c ****  * @param cb pointer to check box object
 186:..\..\..\lvgl\version_6.1.2\lvgl\src\lv_objx/lv_cb.c ****  * @return pointer to the text of the check box
 187:..\..\..\lvgl\version_6.1.2\lvgl\src\lv_objx/lv_cb.c ****  */
 188:..\..\..\lvgl\version_6.1.2\lvgl\src\lv_objx/lv_cb.c **** const char * lv_cb_get_text(const lv_obj_t * cb)
 189:..\..\..\lvgl\version_6.1.2\lvgl\src\lv_objx/lv_cb.c **** {
 725              		.loc 5 189 0
 726              		.cfi_startproc
 727              		@ args = 0, pretend = 0, frame = 16
 728              		@ frame_needed = 1, uses_anonymous_args = 0
 729 0000 80B5     		push	{r7, lr}
 730              		.cfi_def_cfa_offset 8
 731              		.cfi_offset 7, -8
 732              		.cfi_offset 14, -4
 733 0002 84B0     		sub	sp, sp, #16
 734              		.cfi_def_cfa_offset 24
 735 0004 00AF     		add	r7, sp, #0
 736              		.cfi_def_cfa_register 7
 737 0006 7860     		str	r0, [r7, #4]
 190:..\..\..\lvgl\version_6.1.2\lvgl\src\lv_objx/lv_cb.c ****     LV_ASSERT_OBJ(cb, LV_OBJX_NAME);
 191:..\..\..\lvgl\version_6.1.2\lvgl\src\lv_objx/lv_cb.c **** 
 192:..\..\..\lvgl\version_6.1.2\lvgl\src\lv_objx/lv_cb.c ****     lv_cb_ext_t * ext = lv_obj_get_ext_attr(cb);
 738              		.loc 5 192 0
 739 0008 7868     		ldr	r0, [r7, #4]
 740 000a FFF7FEFF 		bl	lv_obj_get_ext_attr
 741 000e F860     		str	r0, [r7, #12]
 193:..\..\..\lvgl\version_6.1.2\lvgl\src\lv_objx/lv_cb.c ****     return lv_label_get_text(ext->label);
 742              		.loc 5 193 0
 743 0010 FB68     		ldr	r3, [r7, #12]
 744 0012 1B6A     		ldr	r3, [r3, #32]
 745 0014 1846     		mov	r0, r3
 746 0016 FFF7FEFF 		bl	lv_label_get_text
 747 001a 0346     		mov	r3, r0
 194:..\..\..\lvgl\version_6.1.2\lvgl\src\lv_objx/lv_cb.c **** }
 748              		.loc 5 194 0
 749 001c 1846     		mov	r0, r3
 750 001e 1037     		adds	r7, r7, #16
 751              		.cfi_def_cfa_offset 8
 752 0020 BD46     		mov	sp, r7
 753              		.cfi_def_cfa_register 13
 754              		@ sp needed
 755 0022 80BD     		pop	{r7, pc}
 756              		.cfi_endproc
 757              	.LFE54:
 758              		.size	lv_cb_get_text, .-lv_cb_get_text
ARM GAS  C:\Users\tmj32\AppData\Local\Temp\ccH9iEPr.s 			page 31


 759              		.section	.text.lv_cb_get_style,"ax",%progbits
 760              		.align	2
 761              		.global	lv_cb_get_style
 762              		.thumb
 763              		.thumb_func
 764              		.type	lv_cb_get_style, %function
 765              	lv_cb_get_style:
 766              	.LFB55:
 195:..\..\..\lvgl\version_6.1.2\lvgl\src\lv_objx/lv_cb.c **** 
 196:..\..\..\lvgl\version_6.1.2\lvgl\src\lv_objx/lv_cb.c **** /**
 197:..\..\..\lvgl\version_6.1.2\lvgl\src\lv_objx/lv_cb.c ****  * Get a style of a button
 198:..\..\..\lvgl\version_6.1.2\lvgl\src\lv_objx/lv_cb.c ****  * @param cb pointer to check box object
 199:..\..\..\lvgl\version_6.1.2\lvgl\src\lv_objx/lv_cb.c ****  * @param type which style should be get
 200:..\..\..\lvgl\version_6.1.2\lvgl\src\lv_objx/lv_cb.c ****  * @return style pointer to the style
 201:..\..\..\lvgl\version_6.1.2\lvgl\src\lv_objx/lv_cb.c ****  *  */
 202:..\..\..\lvgl\version_6.1.2\lvgl\src\lv_objx/lv_cb.c **** const lv_style_t * lv_cb_get_style(const lv_obj_t * cb, lv_cb_style_t type)
 203:..\..\..\lvgl\version_6.1.2\lvgl\src\lv_objx/lv_cb.c **** {
 767              		.loc 5 203 0
 768              		.cfi_startproc
 769              		@ args = 0, pretend = 0, frame = 16
 770              		@ frame_needed = 1, uses_anonymous_args = 0
 771 0000 80B5     		push	{r7, lr}
 772              		.cfi_def_cfa_offset 8
 773              		.cfi_offset 7, -8
 774              		.cfi_offset 14, -4
 775 0002 84B0     		sub	sp, sp, #16
 776              		.cfi_def_cfa_offset 24
 777 0004 00AF     		add	r7, sp, #0
 778              		.cfi_def_cfa_register 7
 779 0006 7860     		str	r0, [r7, #4]
 780 0008 0B46     		mov	r3, r1
 781 000a FB70     		strb	r3, [r7, #3]
 204:..\..\..\lvgl\version_6.1.2\lvgl\src\lv_objx/lv_cb.c ****     LV_ASSERT_OBJ(cb, LV_OBJX_NAME);
 205:..\..\..\lvgl\version_6.1.2\lvgl\src\lv_objx/lv_cb.c **** 
 206:..\..\..\lvgl\version_6.1.2\lvgl\src\lv_objx/lv_cb.c ****     const lv_style_t * style = NULL;
 782              		.loc 5 206 0
 783 000c 0023     		movs	r3, #0
 784 000e FB60     		str	r3, [r7, #12]
 207:..\..\..\lvgl\version_6.1.2\lvgl\src\lv_objx/lv_cb.c ****     lv_cb_ext_t * ext        = lv_obj_get_ext_attr(cb);
 785              		.loc 5 207 0
 786 0010 7868     		ldr	r0, [r7, #4]
 787 0012 FFF7FEFF 		bl	lv_obj_get_ext_attr
 788 0016 B860     		str	r0, [r7, #8]
 208:..\..\..\lvgl\version_6.1.2\lvgl\src\lv_objx/lv_cb.c **** 
 209:..\..\..\lvgl\version_6.1.2\lvgl\src\lv_objx/lv_cb.c ****     switch(type) {
 789              		.loc 5 209 0
 790 0018 FB78     		ldrb	r3, [r7, #3]	@ zero_extendqisi2
 791 001a 052B     		cmp	r3, #5
 792 001c 3CD8     		bhi	.L36
 793 001e 01A2     		adr	r2, .L38
 794 0020 52F823F0 		ldr	pc, [r2, r3, lsl #2]
 795              		.p2align 2
 796              	.L38:
 797 0024 3D000000 		.word	.L37+1
 798 0028 49000000 		.word	.L39+1
 799 002c 59000000 		.word	.L40+1
 800 0030 69000000 		.word	.L41+1
ARM GAS  C:\Users\tmj32\AppData\Local\Temp\ccH9iEPr.s 			page 32


 801 0034 79000000 		.word	.L42+1
 802 0038 89000000 		.word	.L43+1
 803              		.p2align 1
 804              	.L37:
 210:..\..\..\lvgl\version_6.1.2\lvgl\src\lv_objx/lv_cb.c ****         case LV_CB_STYLE_BG: style = lv_btn_get_style(cb, LV_BTN_STYLE_REL); break;
 805              		.loc 5 210 0
 806 003c 0021     		movs	r1, #0
 807 003e 7868     		ldr	r0, [r7, #4]
 808 0040 FFF7FEFF 		bl	lv_btn_get_style
 809 0044 F860     		str	r0, [r7, #12]
 810 0046 2AE0     		b	.L44
 811              	.L39:
 211:..\..\..\lvgl\version_6.1.2\lvgl\src\lv_objx/lv_cb.c ****         case LV_CB_STYLE_BOX_REL: style = lv_btn_get_style(ext->bullet, LV_BTN_STYLE_REL); break;
 812              		.loc 5 211 0
 813 0048 BB68     		ldr	r3, [r7, #8]
 814 004a DB69     		ldr	r3, [r3, #28]
 815 004c 0021     		movs	r1, #0
 816 004e 1846     		mov	r0, r3
 817 0050 FFF7FEFF 		bl	lv_btn_get_style
 818 0054 F860     		str	r0, [r7, #12]
 819 0056 22E0     		b	.L44
 820              	.L40:
 212:..\..\..\lvgl\version_6.1.2\lvgl\src\lv_objx/lv_cb.c ****         case LV_CB_STYLE_BOX_PR: style = lv_btn_get_style(ext->bullet, LV_BTN_STYLE_PR); break;
 821              		.loc 5 212 0
 822 0058 BB68     		ldr	r3, [r7, #8]
 823 005a DB69     		ldr	r3, [r3, #28]
 824 005c 0121     		movs	r1, #1
 825 005e 1846     		mov	r0, r3
 826 0060 FFF7FEFF 		bl	lv_btn_get_style
 827 0064 F860     		str	r0, [r7, #12]
 828 0066 1AE0     		b	.L44
 829              	.L41:
 213:..\..\..\lvgl\version_6.1.2\lvgl\src\lv_objx/lv_cb.c ****         case LV_CB_STYLE_BOX_TGL_REL: style = lv_btn_get_style(ext->bullet, LV_BTN_STYLE_TGL_REL); 
 830              		.loc 5 213 0
 831 0068 BB68     		ldr	r3, [r7, #8]
 832 006a DB69     		ldr	r3, [r3, #28]
 833 006c 0221     		movs	r1, #2
 834 006e 1846     		mov	r0, r3
 835 0070 FFF7FEFF 		bl	lv_btn_get_style
 836 0074 F860     		str	r0, [r7, #12]
 837 0076 12E0     		b	.L44
 838              	.L42:
 214:..\..\..\lvgl\version_6.1.2\lvgl\src\lv_objx/lv_cb.c ****         case LV_CB_STYLE_BOX_TGL_PR: style = lv_btn_get_style(ext->bullet, LV_BTN_STYLE_TGL_PR); br
 839              		.loc 5 214 0
 840 0078 BB68     		ldr	r3, [r7, #8]
 841 007a DB69     		ldr	r3, [r3, #28]
 842 007c 0321     		movs	r1, #3
 843 007e 1846     		mov	r0, r3
 844 0080 FFF7FEFF 		bl	lv_btn_get_style
 845 0084 F860     		str	r0, [r7, #12]
 846 0086 0AE0     		b	.L44
 847              	.L43:
 215:..\..\..\lvgl\version_6.1.2\lvgl\src\lv_objx/lv_cb.c ****         case LV_CB_STYLE_BOX_INA: style = lv_btn_get_style(ext->bullet, LV_BTN_STYLE_INA); break;
 848              		.loc 5 215 0
 849 0088 BB68     		ldr	r3, [r7, #8]
 850 008a DB69     		ldr	r3, [r3, #28]
 851 008c 0421     		movs	r1, #4
ARM GAS  C:\Users\tmj32\AppData\Local\Temp\ccH9iEPr.s 			page 33


 852 008e 1846     		mov	r0, r3
 853 0090 FFF7FEFF 		bl	lv_btn_get_style
 854 0094 F860     		str	r0, [r7, #12]
 855 0096 02E0     		b	.L44
 856              	.L36:
 216:..\..\..\lvgl\version_6.1.2\lvgl\src\lv_objx/lv_cb.c ****         default: style = NULL; break;
 857              		.loc 5 216 0
 858 0098 0023     		movs	r3, #0
 859 009a FB60     		str	r3, [r7, #12]
 860 009c 00BF     		nop
 861              	.L44:
 217:..\..\..\lvgl\version_6.1.2\lvgl\src\lv_objx/lv_cb.c ****     }
 218:..\..\..\lvgl\version_6.1.2\lvgl\src\lv_objx/lv_cb.c **** 
 219:..\..\..\lvgl\version_6.1.2\lvgl\src\lv_objx/lv_cb.c ****     return style;
 862              		.loc 5 219 0
 863 009e FB68     		ldr	r3, [r7, #12]
 220:..\..\..\lvgl\version_6.1.2\lvgl\src\lv_objx/lv_cb.c **** }
 864              		.loc 5 220 0
 865 00a0 1846     		mov	r0, r3
 866 00a2 1037     		adds	r7, r7, #16
 867              		.cfi_def_cfa_offset 8
 868 00a4 BD46     		mov	sp, r7
 869              		.cfi_def_cfa_register 13
 870              		@ sp needed
 871 00a6 80BD     		pop	{r7, pc}
 872              		.cfi_endproc
 873              	.LFE55:
 874              		.size	lv_cb_get_style, .-lv_cb_get_style
 875              		.section	.text.lv_cb_design,"ax",%progbits
 876              		.align	2
 877              		.thumb
 878              		.thumb_func
 879              		.type	lv_cb_design, %function
 880              	lv_cb_design:
 881              	.LFB56:
 221:..\..\..\lvgl\version_6.1.2\lvgl\src\lv_objx/lv_cb.c **** 
 222:..\..\..\lvgl\version_6.1.2\lvgl\src\lv_objx/lv_cb.c **** /**********************
 223:..\..\..\lvgl\version_6.1.2\lvgl\src\lv_objx/lv_cb.c ****  *   STATIC FUNCTIONS
 224:..\..\..\lvgl\version_6.1.2\lvgl\src\lv_objx/lv_cb.c ****  **********************/
 225:..\..\..\lvgl\version_6.1.2\lvgl\src\lv_objx/lv_cb.c **** 
 226:..\..\..\lvgl\version_6.1.2\lvgl\src\lv_objx/lv_cb.c **** /**
 227:..\..\..\lvgl\version_6.1.2\lvgl\src\lv_objx/lv_cb.c ****  * Handle the drawing related tasks of the check boxes
 228:..\..\..\lvgl\version_6.1.2\lvgl\src\lv_objx/lv_cb.c ****  * @param cb pointer to an object
 229:..\..\..\lvgl\version_6.1.2\lvgl\src\lv_objx/lv_cb.c ****  * @param mask the object will be drawn only in this area
 230:..\..\..\lvgl\version_6.1.2\lvgl\src\lv_objx/lv_cb.c ****  * @param mode LV_DESIGN_COVER_CHK: only check if the object fully covers the 'mask_p' area
 231:..\..\..\lvgl\version_6.1.2\lvgl\src\lv_objx/lv_cb.c ****  *                                  (return 'true' if yes)
 232:..\..\..\lvgl\version_6.1.2\lvgl\src\lv_objx/lv_cb.c ****  *             LV_DESIGN_DRAW: draw the object (always return 'true')
 233:..\..\..\lvgl\version_6.1.2\lvgl\src\lv_objx/lv_cb.c ****  *             LV_DESIGN_DRAW_POST: drawing after every children are drawn
 234:..\..\..\lvgl\version_6.1.2\lvgl\src\lv_objx/lv_cb.c ****  * @param return true/false, depends on 'mode'
 235:..\..\..\lvgl\version_6.1.2\lvgl\src\lv_objx/lv_cb.c ****  */
 236:..\..\..\lvgl\version_6.1.2\lvgl\src\lv_objx/lv_cb.c **** static bool lv_cb_design(lv_obj_t * cb, const lv_area_t * mask, lv_design_mode_t mode)
 237:..\..\..\lvgl\version_6.1.2\lvgl\src\lv_objx/lv_cb.c **** {
 882              		.loc 5 237 0
 883              		.cfi_startproc
 884              		@ args = 0, pretend = 0, frame = 32
 885              		@ frame_needed = 1, uses_anonymous_args = 0
 886 0000 80B5     		push	{r7, lr}
ARM GAS  C:\Users\tmj32\AppData\Local\Temp\ccH9iEPr.s 			page 34


 887              		.cfi_def_cfa_offset 8
 888              		.cfi_offset 7, -8
 889              		.cfi_offset 14, -4
 890 0002 88B0     		sub	sp, sp, #32
 891              		.cfi_def_cfa_offset 40
 892 0004 00AF     		add	r7, sp, #0
 893              		.cfi_def_cfa_register 7
 894 0006 F860     		str	r0, [r7, #12]
 895 0008 B960     		str	r1, [r7, #8]
 896 000a 1346     		mov	r3, r2
 897 000c FB71     		strb	r3, [r7, #7]
 238:..\..\..\lvgl\version_6.1.2\lvgl\src\lv_objx/lv_cb.c ****     bool result = true;
 898              		.loc 5 238 0
 899 000e 0123     		movs	r3, #1
 900 0010 FB77     		strb	r3, [r7, #31]
 239:..\..\..\lvgl\version_6.1.2\lvgl\src\lv_objx/lv_cb.c **** 
 240:..\..\..\lvgl\version_6.1.2\lvgl\src\lv_objx/lv_cb.c ****     if(mode == LV_DESIGN_COVER_CHK) {
 901              		.loc 5 240 0
 902 0012 FB79     		ldrb	r3, [r7, #7]	@ zero_extendqisi2
 903 0014 022B     		cmp	r3, #2
 904 0016 08D1     		bne	.L47
 241:..\..\..\lvgl\version_6.1.2\lvgl\src\lv_objx/lv_cb.c ****         /*Return false if the object is not covers the mask_p area*/
 242:..\..\..\lvgl\version_6.1.2\lvgl\src\lv_objx/lv_cb.c ****         result = ancestor_bg_design(cb, mask, mode);
 905              		.loc 5 242 0
 906 0018 1C4B     		ldr	r3, .L52
 907 001a 1B68     		ldr	r3, [r3]
 908 001c FA79     		ldrb	r2, [r7, #7]	@ zero_extendqisi2
 909 001e B968     		ldr	r1, [r7, #8]
 910 0020 F868     		ldr	r0, [r7, #12]
 911 0022 9847     		blx	r3
 912 0024 0346     		mov	r3, r0
 913 0026 FB77     		strb	r3, [r7, #31]
 914 0028 2AE0     		b	.L48
 915              	.L47:
 243:..\..\..\lvgl\version_6.1.2\lvgl\src\lv_objx/lv_cb.c ****     } else if(mode == LV_DESIGN_DRAW_MAIN || mode == LV_DESIGN_DRAW_POST) {
 916              		.loc 5 243 0
 917 002a FB79     		ldrb	r3, [r7, #7]	@ zero_extendqisi2
 918 002c 002B     		cmp	r3, #0
 919 002e 02D0     		beq	.L49
 920              		.loc 5 243 0 is_stmt 0 discriminator 1
 921 0030 FB79     		ldrb	r3, [r7, #7]	@ zero_extendqisi2
 922 0032 012B     		cmp	r3, #1
 923 0034 1CD1     		bne	.L50
 924              	.L49:
 925              	.LBB4:
 244:..\..\..\lvgl\version_6.1.2\lvgl\src\lv_objx/lv_cb.c ****         lv_cb_ext_t * cb_ext      = lv_obj_get_ext_attr(cb);
 926              		.loc 5 244 0 is_stmt 1
 927 0036 F868     		ldr	r0, [r7, #12]
 928 0038 FFF7FEFF 		bl	lv_obj_get_ext_attr
 929 003c B861     		str	r0, [r7, #24]
 245:..\..\..\lvgl\version_6.1.2\lvgl\src\lv_objx/lv_cb.c ****         lv_btn_ext_t * bullet_ext = lv_obj_get_ext_attr(cb_ext->bullet);
 930              		.loc 5 245 0
 931 003e BB69     		ldr	r3, [r7, #24]
 932 0040 DB69     		ldr	r3, [r3, #28]
 933 0042 1846     		mov	r0, r3
 934 0044 FFF7FEFF 		bl	lv_obj_get_ext_attr
 935 0048 7861     		str	r0, [r7, #20]
ARM GAS  C:\Users\tmj32\AppData\Local\Temp\ccH9iEPr.s 			page 35


 246:..\..\..\lvgl\version_6.1.2\lvgl\src\lv_objx/lv_cb.c **** 
 247:..\..\..\lvgl\version_6.1.2\lvgl\src\lv_objx/lv_cb.c ****         /*Be sure the state of the bullet is the same as the parent button*/
 248:..\..\..\lvgl\version_6.1.2\lvgl\src\lv_objx/lv_cb.c ****         bullet_ext->state = cb_ext->bg_btn.state;
 936              		.loc 5 248 0
 937 004a BB69     		ldr	r3, [r7, #24]
 938 004c 1B7E     		ldrb	r3, [r3, #24]
 939 004e C3F30203 		ubfx	r3, r3, #0, #3
 940 0052 D9B2     		uxtb	r1, r3
 941 0054 7A69     		ldr	r2, [r7, #20]
 942 0056 137E     		ldrb	r3, [r2, #24]
 943 0058 61F30203 		bfi	r3, r1, #0, #3
 944 005c 1376     		strb	r3, [r2, #24]
 249:..\..\..\lvgl\version_6.1.2\lvgl\src\lv_objx/lv_cb.c **** 
 250:..\..\..\lvgl\version_6.1.2\lvgl\src\lv_objx/lv_cb.c ****         result = ancestor_bg_design(cb, mask, mode);
 945              		.loc 5 250 0
 946 005e 0B4B     		ldr	r3, .L52
 947 0060 1B68     		ldr	r3, [r3]
 948 0062 FA79     		ldrb	r2, [r7, #7]	@ zero_extendqisi2
 949 0064 B968     		ldr	r1, [r7, #8]
 950 0066 F868     		ldr	r0, [r7, #12]
 951 0068 9847     		blx	r3
 952 006a 0346     		mov	r3, r0
 953 006c FB77     		strb	r3, [r7, #31]
 954              	.LBE4:
 243:..\..\..\lvgl\version_6.1.2\lvgl\src\lv_objx/lv_cb.c ****         lv_cb_ext_t * cb_ext      = lv_obj_get_ext_attr(cb);
 955              		.loc 5 243 0
 956 006e 07E0     		b	.L48
 957              	.L50:
 251:..\..\..\lvgl\version_6.1.2\lvgl\src\lv_objx/lv_cb.c **** 
 252:..\..\..\lvgl\version_6.1.2\lvgl\src\lv_objx/lv_cb.c ****     } else {
 253:..\..\..\lvgl\version_6.1.2\lvgl\src\lv_objx/lv_cb.c ****         result = ancestor_bg_design(cb, mask, mode);
 958              		.loc 5 253 0
 959 0070 064B     		ldr	r3, .L52
 960 0072 1B68     		ldr	r3, [r3]
 961 0074 FA79     		ldrb	r2, [r7, #7]	@ zero_extendqisi2
 962 0076 B968     		ldr	r1, [r7, #8]
 963 0078 F868     		ldr	r0, [r7, #12]
 964 007a 9847     		blx	r3
 965 007c 0346     		mov	r3, r0
 966 007e FB77     		strb	r3, [r7, #31]
 967              	.L48:
 254:..\..\..\lvgl\version_6.1.2\lvgl\src\lv_objx/lv_cb.c ****     }
 255:..\..\..\lvgl\version_6.1.2\lvgl\src\lv_objx/lv_cb.c **** 
 256:..\..\..\lvgl\version_6.1.2\lvgl\src\lv_objx/lv_cb.c ****     return result;
 968              		.loc 5 256 0
 969 0080 FB7F     		ldrb	r3, [r7, #31]	@ zero_extendqisi2
 257:..\..\..\lvgl\version_6.1.2\lvgl\src\lv_objx/lv_cb.c **** }
 970              		.loc 5 257 0
 971 0082 1846     		mov	r0, r3
 972 0084 2037     		adds	r7, r7, #32
 973              		.cfi_def_cfa_offset 8
 974 0086 BD46     		mov	sp, r7
 975              		.cfi_def_cfa_register 13
 976              		@ sp needed
 977 0088 80BD     		pop	{r7, pc}
 978              	.L53:
 979 008a 00BF     		.align	2
ARM GAS  C:\Users\tmj32\AppData\Local\Temp\ccH9iEPr.s 			page 36


 980              	.L52:
 981 008c 00000000 		.word	ancestor_bg_design
 982              		.cfi_endproc
 983              	.LFE56:
 984              		.size	lv_cb_design, .-lv_cb_design
 985              		.section	.text.lv_bullet_design,"ax",%progbits
 986              		.align	2
 987              		.thumb
 988              		.thumb_func
 989              		.type	lv_bullet_design, %function
 990              	lv_bullet_design:
 991              	.LFB57:
 258:..\..\..\lvgl\version_6.1.2\lvgl\src\lv_objx/lv_cb.c **** 
 259:..\..\..\lvgl\version_6.1.2\lvgl\src\lv_objx/lv_cb.c **** /**
 260:..\..\..\lvgl\version_6.1.2\lvgl\src\lv_objx/lv_cb.c ****  * Handle the drawing related tasks of the check boxes
 261:..\..\..\lvgl\version_6.1.2\lvgl\src\lv_objx/lv_cb.c ****  * @param bullet pointer to an object
 262:..\..\..\lvgl\version_6.1.2\lvgl\src\lv_objx/lv_cb.c ****  * @param mask the object will be drawn only in this area
 263:..\..\..\lvgl\version_6.1.2\lvgl\src\lv_objx/lv_cb.c ****  * @param mode LV_DESIGN_COVER_CHK: only check if the object fully covers the 'mask_p' area
 264:..\..\..\lvgl\version_6.1.2\lvgl\src\lv_objx/lv_cb.c ****  *                                  (return 'true' if yes)
 265:..\..\..\lvgl\version_6.1.2\lvgl\src\lv_objx/lv_cb.c ****  *             LV_DESIGN_DRAW: draw the object (always return 'true')
 266:..\..\..\lvgl\version_6.1.2\lvgl\src\lv_objx/lv_cb.c ****  *             LV_DESIGN_DRAW_POST: drawing after every children are drawn
 267:..\..\..\lvgl\version_6.1.2\lvgl\src\lv_objx/lv_cb.c ****  * @param return true/false, depends on 'mode'
 268:..\..\..\lvgl\version_6.1.2\lvgl\src\lv_objx/lv_cb.c ****  */
 269:..\..\..\lvgl\version_6.1.2\lvgl\src\lv_objx/lv_cb.c **** static bool lv_bullet_design(lv_obj_t * bullet, const lv_area_t * mask, lv_design_mode_t mode)
 270:..\..\..\lvgl\version_6.1.2\lvgl\src\lv_objx/lv_cb.c **** {
 992              		.loc 5 270 0
 993              		.cfi_startproc
 994              		@ args = 0, pretend = 0, frame = 16
 995              		@ frame_needed = 1, uses_anonymous_args = 0
 996 0000 80B5     		push	{r7, lr}
 997              		.cfi_def_cfa_offset 8
 998              		.cfi_offset 7, -8
 999              		.cfi_offset 14, -4
 1000 0002 84B0     		sub	sp, sp, #16
 1001              		.cfi_def_cfa_offset 24
 1002 0004 00AF     		add	r7, sp, #0
 1003              		.cfi_def_cfa_register 7
 1004 0006 F860     		str	r0, [r7, #12]
 1005 0008 B960     		str	r1, [r7, #8]
 1006 000a 1346     		mov	r3, r2
 1007 000c FB71     		strb	r3, [r7, #7]
 271:..\..\..\lvgl\version_6.1.2\lvgl\src\lv_objx/lv_cb.c ****     if(mode == LV_DESIGN_COVER_CHK) {
 1008              		.loc 5 271 0
 1009 000e FB79     		ldrb	r3, [r7, #7]	@ zero_extendqisi2
 1010 0010 022B     		cmp	r3, #2
 1011 0012 07D1     		bne	.L55
 272:..\..\..\lvgl\version_6.1.2\lvgl\src\lv_objx/lv_cb.c ****         return ancestor_bullet_design(bullet, mask, mode);
 1012              		.loc 5 272 0
 1013 0014 0F4B     		ldr	r3, .L59
 1014 0016 1B68     		ldr	r3, [r3]
 1015 0018 FA79     		ldrb	r2, [r7, #7]	@ zero_extendqisi2
 1016 001a B968     		ldr	r1, [r7, #8]
 1017 001c F868     		ldr	r0, [r7, #12]
 1018 001e 9847     		blx	r3
 1019 0020 0346     		mov	r3, r0
 1020 0022 13E0     		b	.L56
 1021              	.L55:
ARM GAS  C:\Users\tmj32\AppData\Local\Temp\ccH9iEPr.s 			page 37


 273:..\..\..\lvgl\version_6.1.2\lvgl\src\lv_objx/lv_cb.c ****     } else if(mode == LV_DESIGN_DRAW_MAIN) {
 1022              		.loc 5 273 0
 1023 0024 FB79     		ldrb	r3, [r7, #7]	@ zero_extendqisi2
 1024 0026 002B     		cmp	r3, #0
 1025 0028 06D1     		bne	.L57
 274:..\..\..\lvgl\version_6.1.2\lvgl\src\lv_objx/lv_cb.c **** #if LV_USE_GROUP
 275:..\..\..\lvgl\version_6.1.2\lvgl\src\lv_objx/lv_cb.c ****         /* If the check box is the active in a group and
 276:..\..\..\lvgl\version_6.1.2\lvgl\src\lv_objx/lv_cb.c ****          * the background is not visible (transparent)
 277:..\..\..\lvgl\version_6.1.2\lvgl\src\lv_objx/lv_cb.c ****          * then activate the style of the bullet*/
 278:..\..\..\lvgl\version_6.1.2\lvgl\src\lv_objx/lv_cb.c ****         const lv_style_t * style_ori  = lv_obj_get_style(bullet);
 279:..\..\..\lvgl\version_6.1.2\lvgl\src\lv_objx/lv_cb.c ****         lv_obj_t * bg                 = lv_obj_get_parent(bullet);
 280:..\..\..\lvgl\version_6.1.2\lvgl\src\lv_objx/lv_cb.c ****         const lv_style_t * style_page = lv_obj_get_style(bg);
 281:..\..\..\lvgl\version_6.1.2\lvgl\src\lv_objx/lv_cb.c ****         lv_group_t * g                = lv_obj_get_group(bg);
 282:..\..\..\lvgl\version_6.1.2\lvgl\src\lv_objx/lv_cb.c ****         if(style_page->body.opa == LV_OPA_TRANSP) { /*Is the Background visible?*/
 283:..\..\..\lvgl\version_6.1.2\lvgl\src\lv_objx/lv_cb.c ****             if(lv_group_get_focused(g) == bg) {
 284:..\..\..\lvgl\version_6.1.2\lvgl\src\lv_objx/lv_cb.c ****                 lv_style_t * style_mod;
 285:..\..\..\lvgl\version_6.1.2\lvgl\src\lv_objx/lv_cb.c ****                 style_mod       = lv_group_mod_style(g, style_ori);
 286:..\..\..\lvgl\version_6.1.2\lvgl\src\lv_objx/lv_cb.c ****                 bullet->style_p = style_mod; /*Temporally change the style to the activated */
 287:..\..\..\lvgl\version_6.1.2\lvgl\src\lv_objx/lv_cb.c ****             }
 288:..\..\..\lvgl\version_6.1.2\lvgl\src\lv_objx/lv_cb.c ****         }
 289:..\..\..\lvgl\version_6.1.2\lvgl\src\lv_objx/lv_cb.c **** #endif
 290:..\..\..\lvgl\version_6.1.2\lvgl\src\lv_objx/lv_cb.c ****         ancestor_bullet_design(bullet, mask, mode);
 1026              		.loc 5 290 0
 1027 002a 0A4B     		ldr	r3, .L59
 1028 002c 1B68     		ldr	r3, [r3]
 1029 002e FA79     		ldrb	r2, [r7, #7]	@ zero_extendqisi2
 1030 0030 B968     		ldr	r1, [r7, #8]
 1031 0032 F868     		ldr	r0, [r7, #12]
 1032 0034 9847     		blx	r3
 1033 0036 08E0     		b	.L58
 1034              	.L57:
 291:..\..\..\lvgl\version_6.1.2\lvgl\src\lv_objx/lv_cb.c **** 
 292:..\..\..\lvgl\version_6.1.2\lvgl\src\lv_objx/lv_cb.c **** #if LV_USE_GROUP
 293:..\..\..\lvgl\version_6.1.2\lvgl\src\lv_objx/lv_cb.c ****         bullet->style_p = style_ori; /*Revert the style*/
 294:..\..\..\lvgl\version_6.1.2\lvgl\src\lv_objx/lv_cb.c **** #endif
 295:..\..\..\lvgl\version_6.1.2\lvgl\src\lv_objx/lv_cb.c ****     } else if(mode == LV_DESIGN_DRAW_POST) {
 1035              		.loc 5 295 0
 1036 0038 FB79     		ldrb	r3, [r7, #7]	@ zero_extendqisi2
 1037 003a 012B     		cmp	r3, #1
 1038 003c 05D1     		bne	.L58
 296:..\..\..\lvgl\version_6.1.2\lvgl\src\lv_objx/lv_cb.c ****         ancestor_bullet_design(bullet, mask, mode);
 1039              		.loc 5 296 0
 1040 003e 054B     		ldr	r3, .L59
 1041 0040 1B68     		ldr	r3, [r3]
 1042 0042 FA79     		ldrb	r2, [r7, #7]	@ zero_extendqisi2
 1043 0044 B968     		ldr	r1, [r7, #8]
 1044 0046 F868     		ldr	r0, [r7, #12]
 1045 0048 9847     		blx	r3
 1046              	.L58:
 297:..\..\..\lvgl\version_6.1.2\lvgl\src\lv_objx/lv_cb.c ****     }
 298:..\..\..\lvgl\version_6.1.2\lvgl\src\lv_objx/lv_cb.c **** 
 299:..\..\..\lvgl\version_6.1.2\lvgl\src\lv_objx/lv_cb.c ****     return true;
 1047              		.loc 5 299 0
 1048 004a 0123     		movs	r3, #1
 1049              	.L56:
 300:..\..\..\lvgl\version_6.1.2\lvgl\src\lv_objx/lv_cb.c **** }
 1050              		.loc 5 300 0
ARM GAS  C:\Users\tmj32\AppData\Local\Temp\ccH9iEPr.s 			page 38


 1051 004c 1846     		mov	r0, r3
 1052 004e 1037     		adds	r7, r7, #16
 1053              		.cfi_def_cfa_offset 8
 1054 0050 BD46     		mov	sp, r7
 1055              		.cfi_def_cfa_register 13
 1056              		@ sp needed
 1057 0052 80BD     		pop	{r7, pc}
 1058              	.L60:
 1059              		.align	2
 1060              	.L59:
 1061 0054 04000000 		.word	ancestor_bullet_design
 1062              		.cfi_endproc
 1063              	.LFE57:
 1064              		.size	lv_bullet_design, .-lv_bullet_design
 1065              		.section	.rodata
 1066 000a 0000     		.align	2
 1067              	.LC1:
 1068 000c 6C765F63 		.ascii	"lv_cb\000"
 1068      6200
 1069              		.section	.text.lv_cb_signal,"ax",%progbits
 1070              		.align	2
 1071              		.thumb
 1072              		.thumb_func
 1073              		.type	lv_cb_signal, %function
 1074              	lv_cb_signal:
 1075              	.LFB58:
 301:..\..\..\lvgl\version_6.1.2\lvgl\src\lv_objx/lv_cb.c **** 
 302:..\..\..\lvgl\version_6.1.2\lvgl\src\lv_objx/lv_cb.c **** /**
 303:..\..\..\lvgl\version_6.1.2\lvgl\src\lv_objx/lv_cb.c ****  * Signal function of the check box
 304:..\..\..\lvgl\version_6.1.2\lvgl\src\lv_objx/lv_cb.c ****  * @param cb pointer to a check box object
 305:..\..\..\lvgl\version_6.1.2\lvgl\src\lv_objx/lv_cb.c ****  * @param sign a signal type from lv_signal_t enum
 306:..\..\..\lvgl\version_6.1.2\lvgl\src\lv_objx/lv_cb.c ****  * @param param pointer to a signal specific variable
 307:..\..\..\lvgl\version_6.1.2\lvgl\src\lv_objx/lv_cb.c ****  * @return LV_RES_OK: the object is not deleted in the function; LV_RES_INV: the object is deleted
 308:..\..\..\lvgl\version_6.1.2\lvgl\src\lv_objx/lv_cb.c ****  */
 309:..\..\..\lvgl\version_6.1.2\lvgl\src\lv_objx/lv_cb.c **** static lv_res_t lv_cb_signal(lv_obj_t * cb, lv_signal_t sign, void * param)
 310:..\..\..\lvgl\version_6.1.2\lvgl\src\lv_objx/lv_cb.c **** {
 1076              		.loc 5 310 0
 1077              		.cfi_startproc
 1078              		@ args = 0, pretend = 0, frame = 32
 1079              		@ frame_needed = 1, uses_anonymous_args = 0
 1080 0000 B0B5     		push	{r4, r5, r7, lr}
 1081              		.cfi_def_cfa_offset 16
 1082              		.cfi_offset 4, -16
 1083              		.cfi_offset 5, -12
 1084              		.cfi_offset 7, -8
 1085              		.cfi_offset 14, -4
 1086 0002 88B0     		sub	sp, sp, #32
 1087              		.cfi_def_cfa_offset 48
 1088 0004 00AF     		add	r7, sp, #0
 1089              		.cfi_def_cfa_register 7
 1090 0006 F860     		str	r0, [r7, #12]
 1091 0008 0B46     		mov	r3, r1
 1092 000a 7A60     		str	r2, [r7, #4]
 1093 000c FB72     		strb	r3, [r7, #11]
 311:..\..\..\lvgl\version_6.1.2\lvgl\src\lv_objx/lv_cb.c ****     lv_res_t res;
 312:..\..\..\lvgl\version_6.1.2\lvgl\src\lv_objx/lv_cb.c **** 
 313:..\..\..\lvgl\version_6.1.2\lvgl\src\lv_objx/lv_cb.c ****     /* Include the ancient signal function */
ARM GAS  C:\Users\tmj32\AppData\Local\Temp\ccH9iEPr.s 			page 39


 314:..\..\..\lvgl\version_6.1.2\lvgl\src\lv_objx/lv_cb.c ****     res = ancestor_signal(cb, sign, param);
 1094              		.loc 5 314 0
 1095 000e 3C4B     		ldr	r3, .L70
 1096 0010 1B68     		ldr	r3, [r3]
 1097 0012 F97A     		ldrb	r1, [r7, #11]	@ zero_extendqisi2
 1098 0014 7A68     		ldr	r2, [r7, #4]
 1099 0016 F868     		ldr	r0, [r7, #12]
 1100 0018 9847     		blx	r3
 1101 001a 0346     		mov	r3, r0
 1102 001c FB77     		strb	r3, [r7, #31]
 315:..\..\..\lvgl\version_6.1.2\lvgl\src\lv_objx/lv_cb.c ****     if(res != LV_RES_OK) return res;
 1103              		.loc 5 315 0
 1104 001e FB7F     		ldrb	r3, [r7, #31]	@ zero_extendqisi2
 1105 0020 012B     		cmp	r3, #1
 1106 0022 01D0     		beq	.L62
 1107              		.loc 5 315 0 is_stmt 0 discriminator 1
 1108 0024 FB7F     		ldrb	r3, [r7, #31]	@ zero_extendqisi2
 1109 0026 67E0     		b	.L63
 1110              	.L62:
 316:..\..\..\lvgl\version_6.1.2\lvgl\src\lv_objx/lv_cb.c ****     if(sign == LV_SIGNAL_GET_TYPE) return lv_obj_handle_get_type_signal(param, LV_OBJX_NAME);
 1111              		.loc 5 316 0 is_stmt 1
 1112 0028 FB7A     		ldrb	r3, [r7, #11]	@ zero_extendqisi2
 1113 002a 072B     		cmp	r3, #7
 1114 002c 05D1     		bne	.L64
 1115              		.loc 5 316 0 is_stmt 0 discriminator 1
 1116 002e 3549     		ldr	r1, .L70+4
 1117 0030 7868     		ldr	r0, [r7, #4]
 1118 0032 FFF7FEFF 		bl	lv_obj_handle_get_type_signal
 1119 0036 0346     		mov	r3, r0
 1120 0038 5EE0     		b	.L63
 1121              	.L64:
 317:..\..\..\lvgl\version_6.1.2\lvgl\src\lv_objx/lv_cb.c **** 
 318:..\..\..\lvgl\version_6.1.2\lvgl\src\lv_objx/lv_cb.c ****     lv_cb_ext_t * ext = lv_obj_get_ext_attr(cb);
 1122              		.loc 5 318 0 is_stmt 1
 1123 003a F868     		ldr	r0, [r7, #12]
 1124 003c FFF7FEFF 		bl	lv_obj_get_ext_attr
 1125 0040 B861     		str	r0, [r7, #24]
 319:..\..\..\lvgl\version_6.1.2\lvgl\src\lv_objx/lv_cb.c **** 
 320:..\..\..\lvgl\version_6.1.2\lvgl\src\lv_objx/lv_cb.c ****     if(sign == LV_SIGNAL_STYLE_CHG) {
 1126              		.loc 5 320 0
 1127 0042 FB7A     		ldrb	r3, [r7, #11]	@ zero_extendqisi2
 1128 0044 042B     		cmp	r3, #4
 1129 0046 26D1     		bne	.L65
 1130              	.LBB5:
 321:..\..\..\lvgl\version_6.1.2\lvgl\src\lv_objx/lv_cb.c ****         const lv_style_t * label_style = lv_label_get_style(ext->label, LV_LABEL_STYLE_MAIN);
 1131              		.loc 5 321 0
 1132 0048 BB69     		ldr	r3, [r7, #24]
 1133 004a 1B6A     		ldr	r3, [r3, #32]
 1134 004c 0021     		movs	r1, #0
 1135 004e 1846     		mov	r0, r3
 1136 0050 FFF7FEFF 		bl	lv_label_get_style
 1137 0054 7861     		str	r0, [r7, #20]
 322:..\..\..\lvgl\version_6.1.2\lvgl\src\lv_objx/lv_cb.c ****         lv_obj_set_size(ext->bullet, lv_font_get_line_height(label_style->text.font),
 1138              		.loc 5 322 0
 1139 0056 BB69     		ldr	r3, [r7, #24]
 1140 0058 DC69     		ldr	r4, [r3, #28]
 1141 005a 7B69     		ldr	r3, [r7, #20]
ARM GAS  C:\Users\tmj32\AppData\Local\Temp\ccH9iEPr.s 			page 40


 1142 005c 5B6B     		ldr	r3, [r3, #52]
 1143 005e 1846     		mov	r0, r3
 1144 0060 FFF7FEFF 		bl	lv_font_get_line_height
 1145 0064 0346     		mov	r3, r0
 1146 0066 1DB2     		sxth	r5, r3
 323:..\..\..\lvgl\version_6.1.2\lvgl\src\lv_objx/lv_cb.c ****                         lv_font_get_line_height(label_style->text.font));
 1147              		.loc 5 323 0
 1148 0068 7B69     		ldr	r3, [r7, #20]
 1149 006a 5B6B     		ldr	r3, [r3, #52]
 1150 006c 1846     		mov	r0, r3
 1151 006e FFF7FEFF 		bl	lv_font_get_line_height
 1152 0072 0346     		mov	r3, r0
 322:..\..\..\lvgl\version_6.1.2\lvgl\src\lv_objx/lv_cb.c ****         lv_obj_set_size(ext->bullet, lv_font_get_line_height(label_style->text.font),
 1153              		.loc 5 322 0
 1154 0074 1BB2     		sxth	r3, r3
 1155 0076 1A46     		mov	r2, r3
 1156 0078 2946     		mov	r1, r5
 1157 007a 2046     		mov	r0, r4
 1158 007c FFF7FEFF 		bl	lv_obj_set_size
 324:..\..\..\lvgl\version_6.1.2\lvgl\src\lv_objx/lv_cb.c ****         lv_btn_set_state(ext->bullet, lv_btn_get_state(cb));
 1159              		.loc 5 324 0
 1160 0080 BB69     		ldr	r3, [r7, #24]
 1161 0082 DC69     		ldr	r4, [r3, #28]
 1162 0084 F868     		ldr	r0, [r7, #12]
 1163 0086 FFF7FEFF 		bl	lv_btn_get_state
 1164 008a 0346     		mov	r3, r0
 1165 008c 1946     		mov	r1, r3
 1166 008e 2046     		mov	r0, r4
 1167 0090 FFF7FEFF 		bl	lv_btn_set_state
 1168              	.LBE5:
 1169 0094 2FE0     		b	.L66
 1170              	.L65:
 325:..\..\..\lvgl\version_6.1.2\lvgl\src\lv_objx/lv_cb.c ****     } else if(sign == LV_SIGNAL_PRESSED || sign == LV_SIGNAL_RELEASED || sign == LV_SIGNAL_PRESS_LO
 1171              		.loc 5 325 0
 1172 0096 FB7A     		ldrb	r3, [r7, #11]	@ zero_extendqisi2
 1173 0098 082B     		cmp	r3, #8
 1174 009a 05D0     		beq	.L67
 1175              		.loc 5 325 0 is_stmt 0 discriminator 1
 1176 009c FB7A     		ldrb	r3, [r7, #11]	@ zero_extendqisi2
 1177 009e 0B2B     		cmp	r3, #11
 1178 00a0 02D0     		beq	.L67
 1179              		.loc 5 325 0 discriminator 2
 1180 00a2 FB7A     		ldrb	r3, [r7, #11]	@ zero_extendqisi2
 1181 00a4 0A2B     		cmp	r3, #10
 1182 00a6 0AD1     		bne	.L68
 1183              	.L67:
 326:..\..\..\lvgl\version_6.1.2\lvgl\src\lv_objx/lv_cb.c ****         lv_btn_set_state(ext->bullet, lv_btn_get_state(cb));
 1184              		.loc 5 326 0 is_stmt 1
 1185 00a8 BB69     		ldr	r3, [r7, #24]
 1186 00aa DC69     		ldr	r4, [r3, #28]
 1187 00ac F868     		ldr	r0, [r7, #12]
 1188 00ae FFF7FEFF 		bl	lv_btn_get_state
 1189 00b2 0346     		mov	r3, r0
 1190 00b4 1946     		mov	r1, r3
 1191 00b6 2046     		mov	r0, r4
 1192 00b8 FFF7FEFF 		bl	lv_btn_set_state
 1193 00bc 1BE0     		b	.L66
ARM GAS  C:\Users\tmj32\AppData\Local\Temp\ccH9iEPr.s 			page 41


 1194              	.L68:
 327:..\..\..\lvgl\version_6.1.2\lvgl\src\lv_objx/lv_cb.c ****     } else if(sign == LV_SIGNAL_CONTROL) {
 1195              		.loc 5 327 0
 1196 00be FB7A     		ldrb	r3, [r7, #11]	@ zero_extendqisi2
 1197 00c0 122B     		cmp	r3, #18
 1198 00c2 18D1     		bne	.L66
 1199              	.LBB6:
 328:..\..\..\lvgl\version_6.1.2\lvgl\src\lv_objx/lv_cb.c ****         char c = *((char *)param);
 1200              		.loc 5 328 0
 1201 00c4 7B68     		ldr	r3, [r7, #4]
 1202 00c6 1B78     		ldrb	r3, [r3]
 1203 00c8 FB74     		strb	r3, [r7, #19]
 329:..\..\..\lvgl\version_6.1.2\lvgl\src\lv_objx/lv_cb.c ****         if(c == LV_KEY_RIGHT || c == LV_KEY_DOWN || c == LV_KEY_LEFT || c == LV_KEY_UP) {
 1204              		.loc 5 329 0
 1205 00ca FB7C     		ldrb	r3, [r7, #19]	@ zero_extendqisi2
 1206 00cc 132B     		cmp	r3, #19
 1207 00ce 08D0     		beq	.L69
 1208              		.loc 5 329 0 is_stmt 0 discriminator 1
 1209 00d0 FB7C     		ldrb	r3, [r7, #19]	@ zero_extendqisi2
 1210 00d2 122B     		cmp	r3, #18
 1211 00d4 05D0     		beq	.L69
 1212              		.loc 5 329 0 discriminator 2
 1213 00d6 FB7C     		ldrb	r3, [r7, #19]	@ zero_extendqisi2
 1214 00d8 142B     		cmp	r3, #20
 1215 00da 02D0     		beq	.L69
 1216              		.loc 5 329 0 discriminator 3
 1217 00dc FB7C     		ldrb	r3, [r7, #19]	@ zero_extendqisi2
 1218 00de 112B     		cmp	r3, #17
 1219 00e0 09D1     		bne	.L66
 1220              	.L69:
 330:..\..\..\lvgl\version_6.1.2\lvgl\src\lv_objx/lv_cb.c ****             /*Follow the backgrounds state with the bullet*/
 331:..\..\..\lvgl\version_6.1.2\lvgl\src\lv_objx/lv_cb.c ****             lv_btn_set_state(ext->bullet, lv_btn_get_state(cb));
 1221              		.loc 5 331 0 is_stmt 1
 1222 00e2 BB69     		ldr	r3, [r7, #24]
 1223 00e4 DC69     		ldr	r4, [r3, #28]
 1224 00e6 F868     		ldr	r0, [r7, #12]
 1225 00e8 FFF7FEFF 		bl	lv_btn_get_state
 1226 00ec 0346     		mov	r3, r0
 1227 00ee 1946     		mov	r1, r3
 1228 00f0 2046     		mov	r0, r4
 1229 00f2 FFF7FEFF 		bl	lv_btn_set_state
 1230              	.L66:
 1231              	.LBE6:
 332:..\..\..\lvgl\version_6.1.2\lvgl\src\lv_objx/lv_cb.c ****         }
 333:..\..\..\lvgl\version_6.1.2\lvgl\src\lv_objx/lv_cb.c ****     }
 334:..\..\..\lvgl\version_6.1.2\lvgl\src\lv_objx/lv_cb.c **** 
 335:..\..\..\lvgl\version_6.1.2\lvgl\src\lv_objx/lv_cb.c ****     return res;
 1232              		.loc 5 335 0
 1233 00f6 FB7F     		ldrb	r3, [r7, #31]	@ zero_extendqisi2
 1234              	.L63:
 336:..\..\..\lvgl\version_6.1.2\lvgl\src\lv_objx/lv_cb.c **** }
 1235              		.loc 5 336 0
 1236 00f8 1846     		mov	r0, r3
 1237 00fa 2037     		adds	r7, r7, #32
 1238              		.cfi_def_cfa_offset 16
 1239 00fc BD46     		mov	sp, r7
 1240              		.cfi_def_cfa_register 13
ARM GAS  C:\Users\tmj32\AppData\Local\Temp\ccH9iEPr.s 			page 42


 1241              		@ sp needed
 1242 00fe B0BD     		pop	{r4, r5, r7, pc}
 1243              	.L71:
 1244              		.align	2
 1245              	.L70:
 1246 0100 08000000 		.word	ancestor_signal
 1247 0104 0C000000 		.word	.LC1
 1248              		.cfi_endproc
 1249              	.LFE58:
 1250              		.size	lv_cb_signal, .-lv_cb_signal
 1251              		.text
 1252              	.Letext0:
 1253              		.file 6 "c:\\program files (x86)\\cypress\\psoc creator\\4.3\\psoc creator\\import\\gnu\\arm\\5.4.
 1254              		.file 7 "c:\\program files (x86)\\cypress\\psoc creator\\4.3\\psoc creator\\import\\gnu\\arm\\5.4.
 1255              		.file 8 "..\\..\\..\\lvgl\\version_6.1.2\\lvgl\\src\\lv_objx\\../../../lv_conf.h"
 1256              		.file 9 "..\\..\\..\\lvgl\\version_6.1.2\\lvgl\\src\\lv_objx\\../lv_core/../lv_misc/lv_color.h"
 1257              		.file 10 "..\\..\\..\\lvgl\\version_6.1.2\\lvgl\\src\\lv_objx\\../lv_core/../lv_misc/lv_area.h"
 1258              		.file 11 "..\\..\\..\\lvgl\\version_6.1.2\\lvgl\\src\\lv_objx\\../lv_core/lv_style.h"
 1259              		.file 12 "..\\..\\..\\lvgl\\version_6.1.2\\lvgl\\src\\lv_objx\\../lv_core/../lv_misc/lv_types.h"
 1260              		.file 13 "..\\..\\..\\lvgl\\version_6.1.2\\lvgl\\src\\lv_objx\\../lv_core/../lv_misc/lv_ll.h"
 1261              		.file 14 "..\\..\\..\\lvgl\\version_6.1.2\\lvgl\\src\\lv_objx\\../lv_core/../lv_misc/lv_bidi.h"
 1262              		.file 15 "..\\..\\..\\lvgl\\version_6.1.2\\lvgl\\src\\lv_objx\\../lv_core/lv_obj.h"
 1263              		.file 16 "..\\..\\..\\lvgl\\version_6.1.2\\lvgl\\src\\lv_objx\\../lv_core/../lv_core/lv_group.h"
 1264              		.file 17 "..\\..\\..\\lvgl\\version_6.1.2\\lvgl\\src\\lv_objx\\lv_cb.h"
 1265              		.file 18 "..\\..\\..\\lvgl\\version_6.1.2\\lvgl\\src\\lv_objx\\../lv_themes/lv_theme.h"
 1266              		.section	.debug_info,"",%progbits
 1267              	.Ldebug_info0:
 1268 0000 C3170000 		.4byte	0x17c3
 1269 0004 0400     		.2byte	0x4
 1270 0006 00000000 		.4byte	.Ldebug_abbrev0
 1271 000a 04       		.byte	0x4
 1272 000b 01       		.uleb128 0x1
 1273 000c 790A0000 		.4byte	.LASF291
 1274 0010 0C       		.byte	0xc
 1275 0011 79010000 		.4byte	.LASF292
 1276 0015 8F060000 		.4byte	.LASF293
 1277 0019 00000000 		.4byte	.Ldebug_ranges0+0
 1278 001d 00000000 		.4byte	0
 1279 0021 00000000 		.4byte	.Ldebug_line0
 1280 0025 02       		.uleb128 0x2
 1281 0026 B3090000 		.4byte	.LASF0
 1282 002a 06       		.byte	0x6
 1283 002b 1B       		.byte	0x1b
 1284 002c 30000000 		.4byte	0x30
 1285 0030 03       		.uleb128 0x3
 1286 0031 01       		.byte	0x1
 1287 0032 06       		.byte	0x6
 1288 0033 C0020000 		.4byte	.LASF2
 1289 0037 02       		.uleb128 0x2
 1290 0038 FD010000 		.4byte	.LASF1
 1291 003c 06       		.byte	0x6
 1292 003d 1D       		.byte	0x1d
 1293 003e 42000000 		.4byte	0x42
 1294 0042 03       		.uleb128 0x3
 1295 0043 01       		.byte	0x1
 1296 0044 08       		.byte	0x8
 1297 0045 21030000 		.4byte	.LASF3
ARM GAS  C:\Users\tmj32\AppData\Local\Temp\ccH9iEPr.s 			page 43


 1298 0049 02       		.uleb128 0x2
 1299 004a 390B0000 		.4byte	.LASF4
 1300 004e 06       		.byte	0x6
 1301 004f 29       		.byte	0x29
 1302 0050 54000000 		.4byte	0x54
 1303 0054 03       		.uleb128 0x3
 1304 0055 02       		.byte	0x2
 1305 0056 05       		.byte	0x5
 1306 0057 770C0000 		.4byte	.LASF5
 1307 005b 02       		.uleb128 0x2
 1308 005c F6030000 		.4byte	.LASF6
 1309 0060 06       		.byte	0x6
 1310 0061 2B       		.byte	0x2b
 1311 0062 66000000 		.4byte	0x66
 1312 0066 03       		.uleb128 0x3
 1313 0067 02       		.byte	0x2
 1314 0068 07       		.byte	0x7
 1315 0069 AF0D0000 		.4byte	.LASF7
 1316 006d 03       		.uleb128 0x3
 1317 006e 04       		.byte	0x4
 1318 006f 05       		.byte	0x5
 1319 0070 27020000 		.4byte	.LASF8
 1320 0074 02       		.uleb128 0x2
 1321 0075 5F060000 		.4byte	.LASF9
 1322 0079 06       		.byte	0x6
 1323 007a 41       		.byte	0x41
 1324 007b 7F000000 		.4byte	0x7f
 1325 007f 03       		.uleb128 0x3
 1326 0080 04       		.byte	0x4
 1327 0081 07       		.byte	0x7
 1328 0082 BE050000 		.4byte	.LASF10
 1329 0086 03       		.uleb128 0x3
 1330 0087 08       		.byte	0x8
 1331 0088 05       		.byte	0x5
 1332 0089 81060000 		.4byte	.LASF11
 1333 008d 03       		.uleb128 0x3
 1334 008e 08       		.byte	0x8
 1335 008f 07       		.byte	0x7
 1336 0090 E7090000 		.4byte	.LASF12
 1337 0094 04       		.uleb128 0x4
 1338 0095 04       		.byte	0x4
 1339 0096 05       		.byte	0x5
 1340 0097 696E7400 		.ascii	"int\000"
 1341 009b 03       		.uleb128 0x3
 1342 009c 04       		.byte	0x4
 1343 009d 07       		.byte	0x7
 1344 009e E4070000 		.4byte	.LASF13
 1345 00a2 02       		.uleb128 0x2
 1346 00a3 00000000 		.4byte	.LASF14
 1347 00a7 07       		.byte	0x7
 1348 00a8 14       		.byte	0x14
 1349 00a9 25000000 		.4byte	0x25
 1350 00ad 02       		.uleb128 0x2
 1351 00ae CC020000 		.4byte	.LASF15
 1352 00b2 07       		.byte	0x7
 1353 00b3 18       		.byte	0x18
 1354 00b4 37000000 		.4byte	0x37
ARM GAS  C:\Users\tmj32\AppData\Local\Temp\ccH9iEPr.s 			page 44


 1355 00b8 02       		.uleb128 0x2
 1356 00b9 980C0000 		.4byte	.LASF16
 1357 00bd 07       		.byte	0x7
 1358 00be 20       		.byte	0x20
 1359 00bf 49000000 		.4byte	0x49
 1360 00c3 02       		.uleb128 0x2
 1361 00c4 150A0000 		.4byte	.LASF17
 1362 00c8 07       		.byte	0x7
 1363 00c9 24       		.byte	0x24
 1364 00ca 5B000000 		.4byte	0x5b
 1365 00ce 02       		.uleb128 0x2
 1366 00cf 5D0D0000 		.4byte	.LASF18
 1367 00d3 07       		.byte	0x7
 1368 00d4 30       		.byte	0x30
 1369 00d5 74000000 		.4byte	0x74
 1370 00d9 02       		.uleb128 0x2
 1371 00da C20D0000 		.4byte	.LASF19
 1372 00de 08       		.byte	0x8
 1373 00df 3C       		.byte	0x3c
 1374 00e0 B8000000 		.4byte	0xb8
 1375 00e4 05       		.uleb128 0x5
 1376 00e5 04       		.byte	0x4
 1377 00e6 03       		.uleb128 0x3
 1378 00e7 08       		.byte	0x8
 1379 00e8 04       		.byte	0x4
 1380 00e9 DD080000 		.4byte	.LASF20
 1381 00ed 06       		.uleb128 0x6
 1382 00ee 08       		.byte	0x8
 1383 00ef 01       		.byte	0x1
 1384 00f0 2E       		.byte	0x2e
 1385 00f1 3E010000 		.4byte	0x13e
 1386 00f5 07       		.uleb128 0x7
 1387 00f6 14000000 		.4byte	.LASF21
 1388 00fa 01       		.byte	0x1
 1389 00fb 30       		.byte	0x30
 1390 00fc C3000000 		.4byte	0xc3
 1391 0100 00       		.byte	0
 1392 0101 07       		.uleb128 0x7
 1393 0102 710C0000 		.4byte	.LASF22
 1394 0106 01       		.byte	0x1
 1395 0107 31       		.byte	0x31
 1396 0108 AD000000 		.4byte	0xad
 1397 010c 02       		.byte	0x2
 1398 010d 07       		.uleb128 0x7
 1399 010e 5A0C0000 		.4byte	.LASF23
 1400 0112 01       		.byte	0x1
 1401 0113 32       		.byte	0x32
 1402 0114 AD000000 		.4byte	0xad
 1403 0118 03       		.byte	0x3
 1404 0119 07       		.uleb128 0x7
 1405 011a 75030000 		.4byte	.LASF24
 1406 011e 01       		.byte	0x1
 1407 011f 33       		.byte	0x33
 1408 0120 A2000000 		.4byte	0xa2
 1409 0124 04       		.byte	0x4
 1410 0125 07       		.uleb128 0x7
 1411 0126 7B030000 		.4byte	.LASF25
ARM GAS  C:\Users\tmj32\AppData\Local\Temp\ccH9iEPr.s 			page 45


 1412 012a 01       		.byte	0x1
 1413 012b 34       		.byte	0x34
 1414 012c A2000000 		.4byte	0xa2
 1415 0130 05       		.byte	0x5
 1416 0131 08       		.uleb128 0x8
 1417 0132 62707000 		.ascii	"bpp\000"
 1418 0136 01       		.byte	0x1
 1419 0137 35       		.byte	0x35
 1420 0138 AD000000 		.4byte	0xad
 1421 013c 06       		.byte	0x6
 1422 013d 00       		.byte	0
 1423 013e 02       		.uleb128 0x2
 1424 013f 62080000 		.4byte	.LASF26
 1425 0143 01       		.byte	0x1
 1426 0144 36       		.byte	0x36
 1427 0145 ED000000 		.4byte	0xed
 1428 0149 09       		.uleb128 0x9
 1429 014a 810E0000 		.4byte	.LASF81
 1430 014e 10       		.byte	0x10
 1431 014f 01       		.byte	0x1
 1432 0150 44       		.byte	0x44
 1433 0151 A1010000 		.4byte	0x1a1
 1434 0155 07       		.uleb128 0x7
 1435 0156 0B0E0000 		.4byte	.LASF27
 1436 015a 01       		.byte	0x1
 1437 015b 47       		.byte	0x47
 1438 015c D7010000 		.4byte	0x1d7
 1439 0160 00       		.byte	0
 1440 0161 07       		.uleb128 0x7
 1441 0162 ED020000 		.4byte	.LASF28
 1442 0166 01       		.byte	0x1
 1443 0167 4A       		.byte	0x4a
 1444 0168 FC010000 		.4byte	0x1fc
 1445 016c 04       		.byte	0x4
 1446 016d 07       		.uleb128 0x7
 1447 016e D5000000 		.4byte	.LASF29
 1448 0172 01       		.byte	0x1
 1449 0173 4D       		.byte	0x4d
 1450 0174 AD000000 		.4byte	0xad
 1451 0178 08       		.byte	0x8
 1452 0179 07       		.uleb128 0x7
 1453 017a 810C0000 		.4byte	.LASF30
 1454 017e 01       		.byte	0x1
 1455 017f 4E       		.byte	0x4e
 1456 0180 A2000000 		.4byte	0xa2
 1457 0184 09       		.byte	0x9
 1458 0185 0A       		.uleb128 0xa
 1459 0186 27090000 		.4byte	.LASF64
 1460 018a 01       		.byte	0x1
 1461 018b 4F       		.byte	0x4f
 1462 018c AD000000 		.4byte	0xad
 1463 0190 01       		.byte	0x1
 1464 0191 02       		.byte	0x2
 1465 0192 06       		.byte	0x6
 1466 0193 0A       		.byte	0xa
 1467 0194 08       		.uleb128 0x8
 1468 0195 64736300 		.ascii	"dsc\000"
ARM GAS  C:\Users\tmj32\AppData\Local\Temp\ccH9iEPr.s 			page 46


 1469 0199 01       		.byte	0x1
 1470 019a 50       		.byte	0x50
 1471 019b E4000000 		.4byte	0xe4
 1472 019f 0C       		.byte	0xc
 1473 01a0 00       		.byte	0
 1474 01a1 0B       		.uleb128 0xb
 1475 01a2 BF010000 		.4byte	0x1bf
 1476 01a6 BF010000 		.4byte	0x1bf
 1477 01aa 0C       		.uleb128 0xc
 1478 01ab C6010000 		.4byte	0x1c6
 1479 01af 0C       		.uleb128 0xc
 1480 01b0 D1010000 		.4byte	0x1d1
 1481 01b4 0C       		.uleb128 0xc
 1482 01b5 CE000000 		.4byte	0xce
 1483 01b9 0C       		.uleb128 0xc
 1484 01ba CE000000 		.4byte	0xce
 1485 01be 00       		.byte	0
 1486 01bf 03       		.uleb128 0x3
 1487 01c0 01       		.byte	0x1
 1488 01c1 02       		.byte	0x2
 1489 01c2 99030000 		.4byte	.LASF31
 1490 01c6 0D       		.uleb128 0xd
 1491 01c7 04       		.byte	0x4
 1492 01c8 CC010000 		.4byte	0x1cc
 1493 01cc 0E       		.uleb128 0xe
 1494 01cd 49010000 		.4byte	0x149
 1495 01d1 0D       		.uleb128 0xd
 1496 01d2 04       		.byte	0x4
 1497 01d3 3E010000 		.4byte	0x13e
 1498 01d7 0D       		.uleb128 0xd
 1499 01d8 04       		.byte	0x4
 1500 01d9 A1010000 		.4byte	0x1a1
 1501 01dd 0B       		.uleb128 0xb
 1502 01de F1010000 		.4byte	0x1f1
 1503 01e2 F1010000 		.4byte	0x1f1
 1504 01e6 0C       		.uleb128 0xc
 1505 01e7 C6010000 		.4byte	0x1c6
 1506 01eb 0C       		.uleb128 0xc
 1507 01ec CE000000 		.4byte	0xce
 1508 01f0 00       		.byte	0
 1509 01f1 0D       		.uleb128 0xd
 1510 01f2 04       		.byte	0x4
 1511 01f3 F7010000 		.4byte	0x1f7
 1512 01f7 0E       		.uleb128 0xe
 1513 01f8 AD000000 		.4byte	0xad
 1514 01fc 0D       		.uleb128 0xd
 1515 01fd 04       		.byte	0x4
 1516 01fe DD010000 		.4byte	0x1dd
 1517 0202 02       		.uleb128 0x2
 1518 0203 810D0000 		.4byte	.LASF32
 1519 0207 01       		.byte	0x1
 1520 0208 56       		.byte	0x56
 1521 0209 49010000 		.4byte	0x149
 1522 020d 06       		.uleb128 0x6
 1523 020e 04       		.byte	0x4
 1524 020f 09       		.byte	0x9
 1525 0210 F3       		.byte	0xf3
ARM GAS  C:\Users\tmj32\AppData\Local\Temp\ccH9iEPr.s 			page 47


 1526 0211 46020000 		.4byte	0x246
 1527 0215 07       		.uleb128 0x7
 1528 0216 03030000 		.4byte	.LASF33
 1529 021a 09       		.byte	0x9
 1530 021b F5       		.byte	0xf5
 1531 021c AD000000 		.4byte	0xad
 1532 0220 00       		.byte	0
 1533 0221 07       		.uleb128 0x7
 1534 0222 7B0D0000 		.4byte	.LASF34
 1535 0226 09       		.byte	0x9
 1536 0227 F6       		.byte	0xf6
 1537 0228 AD000000 		.4byte	0xad
 1538 022c 01       		.byte	0x1
 1539 022d 08       		.uleb128 0x8
 1540 022e 72656400 		.ascii	"red\000"
 1541 0232 09       		.byte	0x9
 1542 0233 F7       		.byte	0xf7
 1543 0234 AD000000 		.4byte	0xad
 1544 0238 02       		.byte	0x2
 1545 0239 07       		.uleb128 0x7
 1546 023a 07020000 		.4byte	.LASF35
 1547 023e 09       		.byte	0x9
 1548 023f F8       		.byte	0xf8
 1549 0240 AD000000 		.4byte	0xad
 1550 0244 03       		.byte	0x3
 1551 0245 00       		.byte	0
 1552 0246 0F       		.uleb128 0xf
 1553 0247 04       		.byte	0x4
 1554 0248 09       		.byte	0x9
 1555 0249 F1       		.byte	0xf1
 1556 024a 64020000 		.4byte	0x264
 1557 024e 10       		.uleb128 0x10
 1558 024f 636800   		.ascii	"ch\000"
 1559 0252 09       		.byte	0x9
 1560 0253 F9       		.byte	0xf9
 1561 0254 0D020000 		.4byte	0x20d
 1562 0258 11       		.uleb128 0x11
 1563 0259 550B0000 		.4byte	.LASF36
 1564 025d 09       		.byte	0x9
 1565 025e FA       		.byte	0xfa
 1566 025f CE000000 		.4byte	0xce
 1567 0263 00       		.byte	0
 1568 0264 02       		.uleb128 0x2
 1569 0265 3A000000 		.4byte	.LASF37
 1570 0269 09       		.byte	0x9
 1571 026a FB       		.byte	0xfb
 1572 026b 46020000 		.4byte	0x246
 1573 026f 12       		.uleb128 0x12
 1574 0270 280A0000 		.4byte	.LASF38
 1575 0274 09       		.byte	0x9
 1576 0275 0801     		.2byte	0x108
 1577 0277 64020000 		.4byte	0x264
 1578 027b 12       		.uleb128 0x12
 1579 027c 85000000 		.4byte	.LASF39
 1580 0280 09       		.byte	0x9
 1581 0281 0D01     		.2byte	0x10d
 1582 0283 AD000000 		.4byte	0xad
ARM GAS  C:\Users\tmj32\AppData\Local\Temp\ccH9iEPr.s 			page 48


 1583 0287 03       		.uleb128 0x3
 1584 0288 04       		.byte	0x4
 1585 0289 07       		.byte	0x7
 1586 028a 24000000 		.4byte	.LASF40
 1587 028e 03       		.uleb128 0x3
 1588 028f 01       		.byte	0x1
 1589 0290 08       		.byte	0x8
 1590 0291 C4030000 		.4byte	.LASF41
 1591 0295 0D       		.uleb128 0xd
 1592 0296 04       		.byte	0x4
 1593 0297 9B020000 		.4byte	0x29b
 1594 029b 0E       		.uleb128 0xe
 1595 029c 8E020000 		.4byte	0x28e
 1596 02a0 06       		.uleb128 0x6
 1597 02a1 08       		.byte	0x8
 1598 02a2 0A       		.byte	0xa
 1599 02a3 31       		.byte	0x31
 1600 02a4 D5020000 		.4byte	0x2d5
 1601 02a8 08       		.uleb128 0x8
 1602 02a9 783100   		.ascii	"x1\000"
 1603 02ac 0A       		.byte	0xa
 1604 02ad 33       		.byte	0x33
 1605 02ae D9000000 		.4byte	0xd9
 1606 02b2 00       		.byte	0
 1607 02b3 08       		.uleb128 0x8
 1608 02b4 793100   		.ascii	"y1\000"
 1609 02b7 0A       		.byte	0xa
 1610 02b8 34       		.byte	0x34
 1611 02b9 D9000000 		.4byte	0xd9
 1612 02bd 02       		.byte	0x2
 1613 02be 08       		.uleb128 0x8
 1614 02bf 783200   		.ascii	"x2\000"
 1615 02c2 0A       		.byte	0xa
 1616 02c3 35       		.byte	0x35
 1617 02c4 D9000000 		.4byte	0xd9
 1618 02c8 04       		.byte	0x4
 1619 02c9 08       		.uleb128 0x8
 1620 02ca 793200   		.ascii	"y2\000"
 1621 02cd 0A       		.byte	0xa
 1622 02ce 36       		.byte	0x36
 1623 02cf D9000000 		.4byte	0xd9
 1624 02d3 06       		.byte	0x6
 1625 02d4 00       		.byte	0
 1626 02d5 02       		.uleb128 0x2
 1627 02d6 F7040000 		.4byte	.LASF42
 1628 02da 0A       		.byte	0xa
 1629 02db 37       		.byte	0x37
 1630 02dc A0020000 		.4byte	0x2a0
 1631 02e0 02       		.uleb128 0x2
 1632 02e1 200E0000 		.4byte	.LASF43
 1633 02e5 0B       		.byte	0xb
 1634 02e6 2C       		.byte	0x2c
 1635 02e7 AD000000 		.4byte	0xad
 1636 02eb 02       		.uleb128 0x2
 1637 02ec C80B0000 		.4byte	.LASF44
 1638 02f0 0B       		.byte	0xb
 1639 02f1 33       		.byte	0x33
ARM GAS  C:\Users\tmj32\AppData\Local\Temp\ccH9iEPr.s 			page 49


 1640 02f2 AD000000 		.4byte	0xad
 1641 02f6 06       		.uleb128 0x6
 1642 02f7 08       		.byte	0x8
 1643 02f8 0B       		.byte	0xb
 1644 02f9 48       		.byte	0x48
 1645 02fa 2F030000 		.4byte	0x32f
 1646 02fe 07       		.uleb128 0x7
 1647 02ff 5A0B0000 		.4byte	.LASF45
 1648 0303 0B       		.byte	0xb
 1649 0304 4A       		.byte	0x4a
 1650 0305 6F020000 		.4byte	0x26f
 1651 0309 00       		.byte	0
 1652 030a 07       		.uleb128 0x7
 1653 030b 3D070000 		.4byte	.LASF46
 1654 030f 0B       		.byte	0xb
 1655 0310 4B       		.byte	0x4b
 1656 0311 D9000000 		.4byte	0xd9
 1657 0315 04       		.byte	0x4
 1658 0316 07       		.uleb128 0x7
 1659 0317 910E0000 		.4byte	.LASF47
 1660 031b 0B       		.byte	0xb
 1661 031c 4C       		.byte	0x4c
 1662 031d E0020000 		.4byte	0x2e0
 1663 0321 06       		.byte	0x6
 1664 0322 08       		.uleb128 0x8
 1665 0323 6F706100 		.ascii	"opa\000"
 1666 0327 0B       		.byte	0xb
 1667 0328 4D       		.byte	0x4d
 1668 0329 7B020000 		.4byte	0x27b
 1669 032d 07       		.byte	0x7
 1670 032e 00       		.byte	0
 1671 032f 06       		.uleb128 0x6
 1672 0330 08       		.byte	0x8
 1673 0331 0B       		.byte	0xb
 1674 0332 51       		.byte	0x51
 1675 0333 5C030000 		.4byte	0x35c
 1676 0337 07       		.uleb128 0x7
 1677 0338 5A0B0000 		.4byte	.LASF45
 1678 033c 0B       		.byte	0xb
 1679 033d 53       		.byte	0x53
 1680 033e 6F020000 		.4byte	0x26f
 1681 0342 00       		.byte	0
 1682 0343 07       		.uleb128 0x7
 1683 0344 3D070000 		.4byte	.LASF46
 1684 0348 0B       		.byte	0xb
 1685 0349 54       		.byte	0x54
 1686 034a D9000000 		.4byte	0xd9
 1687 034e 04       		.byte	0x4
 1688 034f 07       		.uleb128 0x7
 1689 0350 74010000 		.4byte	.LASF48
 1690 0354 0B       		.byte	0xb
 1691 0355 55       		.byte	0x55
 1692 0356 EB020000 		.4byte	0x2eb
 1693 035a 06       		.byte	0x6
 1694 035b 00       		.byte	0
 1695 035c 06       		.uleb128 0x6
 1696 035d 0A       		.byte	0xa
ARM GAS  C:\Users\tmj32\AppData\Local\Temp\ccH9iEPr.s 			page 50


 1697 035e 0B       		.byte	0xb
 1698 035f 58       		.byte	0x58
 1699 0360 A1030000 		.4byte	0x3a1
 1700 0364 08       		.uleb128 0x8
 1701 0365 746F7000 		.ascii	"top\000"
 1702 0369 0B       		.byte	0xb
 1703 036a 5A       		.byte	0x5a
 1704 036b D9000000 		.4byte	0xd9
 1705 036f 00       		.byte	0
 1706 0370 07       		.uleb128 0x7
 1707 0371 55070000 		.4byte	.LASF49
 1708 0375 0B       		.byte	0xb
 1709 0376 5B       		.byte	0x5b
 1710 0377 D9000000 		.4byte	0xd9
 1711 037b 02       		.byte	0x2
 1712 037c 07       		.uleb128 0x7
 1713 037d 13050000 		.4byte	.LASF50
 1714 0381 0B       		.byte	0xb
 1715 0382 5C       		.byte	0x5c
 1716 0383 D9000000 		.4byte	0xd9
 1717 0387 04       		.byte	0x4
 1718 0388 07       		.uleb128 0x7
 1719 0389 73060000 		.4byte	.LASF51
 1720 038d 0B       		.byte	0xb
 1721 038e 5D       		.byte	0x5d
 1722 038f D9000000 		.4byte	0xd9
 1723 0393 06       		.byte	0x6
 1724 0394 07       		.uleb128 0x7
 1725 0395 90050000 		.4byte	.LASF52
 1726 0399 0B       		.byte	0xb
 1727 039a 5E       		.byte	0x5e
 1728 039b D9000000 		.4byte	0xd9
 1729 039f 08       		.byte	0x8
 1730 03a0 00       		.byte	0
 1731 03a1 06       		.uleb128 0x6
 1732 03a2 28       		.byte	0x28
 1733 03a3 0B       		.byte	0xb
 1734 03a4 41       		.byte	0x41
 1735 03a5 FE030000 		.4byte	0x3fe
 1736 03a9 07       		.uleb128 0x7
 1737 03aa A8090000 		.4byte	.LASF53
 1738 03ae 0B       		.byte	0xb
 1739 03af 43       		.byte	0x43
 1740 03b0 6F020000 		.4byte	0x26f
 1741 03b4 00       		.byte	0
 1742 03b5 07       		.uleb128 0x7
 1743 03b6 7B080000 		.4byte	.LASF54
 1744 03ba 0B       		.byte	0xb
 1745 03bb 44       		.byte	0x44
 1746 03bc 6F020000 		.4byte	0x26f
 1747 03c0 04       		.byte	0x4
 1748 03c1 07       		.uleb128 0x7
 1749 03c2 C1000000 		.4byte	.LASF55
 1750 03c6 0B       		.byte	0xb
 1751 03c7 45       		.byte	0x45
 1752 03c8 D9000000 		.4byte	0xd9
 1753 03cc 08       		.byte	0x8
ARM GAS  C:\Users\tmj32\AppData\Local\Temp\ccH9iEPr.s 			page 51


 1754 03cd 08       		.uleb128 0x8
 1755 03ce 6F706100 		.ascii	"opa\000"
 1756 03d2 0B       		.byte	0xb
 1757 03d3 46       		.byte	0x46
 1758 03d4 7B020000 		.4byte	0x27b
 1759 03d8 0A       		.byte	0xa
 1760 03d9 07       		.uleb128 0x7
 1761 03da FE0D0000 		.4byte	.LASF56
 1762 03de 0B       		.byte	0xb
 1763 03df 4E       		.byte	0x4e
 1764 03e0 F6020000 		.4byte	0x2f6
 1765 03e4 0C       		.byte	0xc
 1766 03e5 07       		.uleb128 0x7
 1767 03e6 D90C0000 		.4byte	.LASF57
 1768 03ea 0B       		.byte	0xb
 1769 03eb 56       		.byte	0x56
 1770 03ec 2F030000 		.4byte	0x32f
 1771 03f0 14       		.byte	0x14
 1772 03f1 07       		.uleb128 0x7
 1773 03f2 3E0D0000 		.4byte	.LASF58
 1774 03f6 0B       		.byte	0xb
 1775 03f7 5F       		.byte	0x5f
 1776 03f8 5C030000 		.4byte	0x35c
 1777 03fc 1C       		.byte	0x1c
 1778 03fd 00       		.byte	0
 1779 03fe 06       		.uleb128 0x6
 1780 03ff 14       		.byte	0x14
 1781 0400 0B       		.byte	0xb
 1782 0401 63       		.byte	0x63
 1783 0402 4F040000 		.4byte	0x44f
 1784 0406 07       		.uleb128 0x7
 1785 0407 5A0B0000 		.4byte	.LASF45
 1786 040b 0B       		.byte	0xb
 1787 040c 65       		.byte	0x65
 1788 040d 6F020000 		.4byte	0x26f
 1789 0411 00       		.byte	0
 1790 0412 07       		.uleb128 0x7
 1791 0413 770E0000 		.4byte	.LASF59
 1792 0417 0B       		.byte	0xb
 1793 0418 66       		.byte	0x66
 1794 0419 6F020000 		.4byte	0x26f
 1795 041d 04       		.byte	0x4
 1796 041e 07       		.uleb128 0x7
 1797 041f 040C0000 		.4byte	.LASF60
 1798 0423 0B       		.byte	0xb
 1799 0424 67       		.byte	0x67
 1800 0425 4F040000 		.4byte	0x44f
 1801 0429 08       		.byte	0x8
 1802 042a 07       		.uleb128 0x7
 1803 042b 090C0000 		.4byte	.LASF61
 1804 042f 0B       		.byte	0xb
 1805 0430 68       		.byte	0x68
 1806 0431 D9000000 		.4byte	0xd9
 1807 0435 0C       		.byte	0xc
 1808 0436 07       		.uleb128 0x7
 1809 0437 740B0000 		.4byte	.LASF62
 1810 043b 0B       		.byte	0xb
ARM GAS  C:\Users\tmj32\AppData\Local\Temp\ccH9iEPr.s 			page 52


 1811 043c 69       		.byte	0x69
 1812 043d D9000000 		.4byte	0xd9
 1813 0441 0E       		.byte	0xe
 1814 0442 08       		.uleb128 0x8
 1815 0443 6F706100 		.ascii	"opa\000"
 1816 0447 0B       		.byte	0xb
 1817 0448 6A       		.byte	0x6a
 1818 0449 7B020000 		.4byte	0x27b
 1819 044d 10       		.byte	0x10
 1820 044e 00       		.byte	0
 1821 044f 0D       		.uleb128 0xd
 1822 0450 04       		.byte	0x4
 1823 0451 55040000 		.4byte	0x455
 1824 0455 0E       		.uleb128 0xe
 1825 0456 02020000 		.4byte	0x202
 1826 045a 06       		.uleb128 0x6
 1827 045b 08       		.byte	0x8
 1828 045c 0B       		.byte	0xb
 1829 045d 6E       		.byte	0x6e
 1830 045e 87040000 		.4byte	0x487
 1831 0462 07       		.uleb128 0x7
 1832 0463 5A0B0000 		.4byte	.LASF45
 1833 0467 0B       		.byte	0xb
 1834 0468 70       		.byte	0x70
 1835 0469 6F020000 		.4byte	0x26f
 1836 046d 00       		.byte	0
 1837 046e 07       		.uleb128 0x7
 1838 046f 9D000000 		.4byte	.LASF63
 1839 0473 0B       		.byte	0xb
 1840 0474 71       		.byte	0x71
 1841 0475 7B020000 		.4byte	0x27b
 1842 0479 04       		.byte	0x4
 1843 047a 08       		.uleb128 0x8
 1844 047b 6F706100 		.ascii	"opa\000"
 1845 047f 0B       		.byte	0xb
 1846 0480 72       		.byte	0x72
 1847 0481 7B020000 		.4byte	0x27b
 1848 0485 05       		.byte	0x5
 1849 0486 00       		.byte	0
 1850 0487 06       		.uleb128 0x6
 1851 0488 08       		.byte	0x8
 1852 0489 0B       		.byte	0xb
 1853 048a 76       		.byte	0x76
 1854 048b C3040000 		.4byte	0x4c3
 1855 048f 07       		.uleb128 0x7
 1856 0490 5A0B0000 		.4byte	.LASF45
 1857 0494 0B       		.byte	0xb
 1858 0495 78       		.byte	0x78
 1859 0496 6F020000 		.4byte	0x26f
 1860 049a 00       		.byte	0
 1861 049b 07       		.uleb128 0x7
 1862 049c 3D070000 		.4byte	.LASF46
 1863 04a0 0B       		.byte	0xb
 1864 04a1 79       		.byte	0x79
 1865 04a2 D9000000 		.4byte	0xd9
 1866 04a6 04       		.byte	0x4
 1867 04a7 08       		.uleb128 0x8
ARM GAS  C:\Users\tmj32\AppData\Local\Temp\ccH9iEPr.s 			page 53


 1868 04a8 6F706100 		.ascii	"opa\000"
 1869 04ac 0B       		.byte	0xb
 1870 04ad 7A       		.byte	0x7a
 1871 04ae 7B020000 		.4byte	0x27b
 1872 04b2 06       		.byte	0x6
 1873 04b3 0A       		.uleb128 0xa
 1874 04b4 BB040000 		.4byte	.LASF65
 1875 04b8 0B       		.byte	0xb
 1876 04b9 7B       		.byte	0x7b
 1877 04ba AD000000 		.4byte	0xad
 1878 04be 01       		.byte	0x1
 1879 04bf 01       		.byte	0x1
 1880 04c0 07       		.byte	0x7
 1881 04c1 07       		.byte	0x7
 1882 04c2 00       		.byte	0
 1883 04c3 06       		.uleb128 0x6
 1884 04c4 50       		.byte	0x50
 1885 04c5 0B       		.byte	0xb
 1886 04c6 3C       		.byte	0x3c
 1887 04c7 0B050000 		.4byte	0x50b
 1888 04cb 0A       		.uleb128 0xa
 1889 04cc D0070000 		.4byte	.LASF66
 1890 04d0 0B       		.byte	0xb
 1891 04d1 3E       		.byte	0x3e
 1892 04d2 AD000000 		.4byte	0xad
 1893 04d6 01       		.byte	0x1
 1894 04d7 01       		.byte	0x1
 1895 04d8 07       		.byte	0x7
 1896 04d9 00       		.byte	0
 1897 04da 07       		.uleb128 0x7
 1898 04db EC030000 		.4byte	.LASF67
 1899 04df 0B       		.byte	0xb
 1900 04e0 60       		.byte	0x60
 1901 04e1 A1030000 		.4byte	0x3a1
 1902 04e5 04       		.byte	0x4
 1903 04e6 07       		.uleb128 0x7
 1904 04e7 91040000 		.4byte	.LASF68
 1905 04eb 0B       		.byte	0xb
 1906 04ec 6B       		.byte	0x6b
 1907 04ed FE030000 		.4byte	0x3fe
 1908 04f1 2C       		.byte	0x2c
 1909 04f2 07       		.uleb128 0x7
 1910 04f3 B5040000 		.4byte	.LASF69
 1911 04f7 0B       		.byte	0xb
 1912 04f8 73       		.byte	0x73
 1913 04f9 5A040000 		.4byte	0x45a
 1914 04fd 40       		.byte	0x40
 1915 04fe 07       		.uleb128 0x7
 1916 04ff 11060000 		.4byte	.LASF70
 1917 0503 0B       		.byte	0xb
 1918 0504 7C       		.byte	0x7c
 1919 0505 87040000 		.4byte	0x487
 1920 0509 48       		.byte	0x48
 1921 050a 00       		.byte	0
 1922 050b 02       		.uleb128 0x2
 1923 050c 85050000 		.4byte	.LASF71
 1924 0510 0B       		.byte	0xb
ARM GAS  C:\Users\tmj32\AppData\Local\Temp\ccH9iEPr.s 			page 54


 1925 0511 84       		.byte	0x84
 1926 0512 C3040000 		.4byte	0x4c3
 1927 0516 0D       		.uleb128 0xd
 1928 0517 04       		.byte	0x4
 1929 0518 0B050000 		.4byte	0x50b
 1930 051c 13       		.uleb128 0x13
 1931 051d 01       		.byte	0x1
 1932 051e 42000000 		.4byte	0x42
 1933 0522 0C       		.byte	0xc
 1934 0523 27       		.byte	0x27
 1935 0524 35050000 		.4byte	0x535
 1936 0528 14       		.uleb128 0x14
 1937 0529 57010000 		.4byte	.LASF72
 1938 052d 00       		.byte	0
 1939 052e 14       		.uleb128 0x14
 1940 052f 1E0A0000 		.4byte	.LASF73
 1941 0533 01       		.byte	0x1
 1942 0534 00       		.byte	0
 1943 0535 02       		.uleb128 0x2
 1944 0536 D4080000 		.4byte	.LASF74
 1945 053a 0C       		.byte	0xc
 1946 053b 2C       		.byte	0x2c
 1947 053c AD000000 		.4byte	0xad
 1948 0540 02       		.uleb128 0x2
 1949 0541 07000000 		.4byte	.LASF75
 1950 0545 0D       		.byte	0xd
 1951 0546 1E       		.byte	0x1e
 1952 0547 AD000000 		.4byte	0xad
 1953 054b 06       		.uleb128 0x6
 1954 054c 0C       		.byte	0xc
 1955 054d 0D       		.byte	0xd
 1956 054e 21       		.byte	0x21
 1957 054f 78050000 		.4byte	0x578
 1958 0553 07       		.uleb128 0x7
 1959 0554 960E0000 		.4byte	.LASF76
 1960 0558 0D       		.byte	0xd
 1961 0559 23       		.byte	0x23
 1962 055a CE000000 		.4byte	0xce
 1963 055e 00       		.byte	0
 1964 055f 07       		.uleb128 0x7
 1965 0560 79020000 		.4byte	.LASF77
 1966 0564 0D       		.byte	0xd
 1967 0565 24       		.byte	0x24
 1968 0566 78050000 		.4byte	0x578
 1969 056a 04       		.byte	0x4
 1970 056b 07       		.uleb128 0x7
 1971 056c 5D000000 		.4byte	.LASF78
 1972 0570 0D       		.byte	0xd
 1973 0571 25       		.byte	0x25
 1974 0572 78050000 		.4byte	0x578
 1975 0576 08       		.byte	0x8
 1976 0577 00       		.byte	0
 1977 0578 0D       		.uleb128 0xd
 1978 0579 04       		.byte	0x4
 1979 057a 40050000 		.4byte	0x540
 1980 057e 02       		.uleb128 0x2
 1981 057f 8B0C0000 		.4byte	.LASF79
ARM GAS  C:\Users\tmj32\AppData\Local\Temp\ccH9iEPr.s 			page 55


 1982 0583 0D       		.byte	0xd
 1983 0584 26       		.byte	0x26
 1984 0585 4B050000 		.4byte	0x54b
 1985 0589 02       		.uleb128 0x2
 1986 058a DC040000 		.4byte	.LASF80
 1987 058e 0E       		.byte	0xe
 1988 058f 30       		.byte	0x30
 1989 0590 AD000000 		.4byte	0xad
 1990 0594 0D       		.uleb128 0xd
 1991 0595 04       		.byte	0x4
 1992 0596 9A050000 		.4byte	0x59a
 1993 059a 0E       		.uleb128 0xe
 1994 059b D5020000 		.4byte	0x2d5
 1995 059f 09       		.uleb128 0x9
 1996 05a0 FA0B0000 		.4byte	.LASF82
 1997 05a4 40       		.byte	0x40
 1998 05a5 0F       		.byte	0xf
 1999 05a6 BB       		.byte	0xbb
 2000 05a7 E1060000 		.4byte	0x6e1
 2001 05ab 08       		.uleb128 0x8
 2002 05ac 70617200 		.ascii	"par\000"
 2003 05b0 0F       		.byte	0xf
 2004 05b1 BD       		.byte	0xbd
 2005 05b2 E1060000 		.4byte	0x6e1
 2006 05b6 00       		.byte	0
 2007 05b7 07       		.uleb128 0x7
 2008 05b8 5C070000 		.4byte	.LASF83
 2009 05bc 0F       		.byte	0xf
 2010 05bd BE       		.byte	0xbe
 2011 05be 7E050000 		.4byte	0x57e
 2012 05c2 04       		.byte	0x4
 2013 05c3 07       		.uleb128 0x7
 2014 05c4 B30C0000 		.4byte	.LASF84
 2015 05c8 0F       		.byte	0xf
 2016 05c9 C0       		.byte	0xc0
 2017 05ca D5020000 		.4byte	0x2d5
 2018 05ce 10       		.byte	0x10
 2019 05cf 07       		.uleb128 0x7
 2020 05d0 6A060000 		.4byte	.LASF85
 2021 05d4 0F       		.byte	0xf
 2022 05d5 C2       		.byte	0xc2
 2023 05d6 46070000 		.4byte	0x746
 2024 05da 18       		.byte	0x18
 2025 05db 07       		.uleb128 0x7
 2026 05dc 530D0000 		.4byte	.LASF86
 2027 05e0 0F       		.byte	0xf
 2028 05e1 C3       		.byte	0xc3
 2029 05e2 F7070000 		.4byte	0x7f7
 2030 05e6 1C       		.byte	0x1c
 2031 05e7 07       		.uleb128 0x7
 2032 05e8 6E040000 		.4byte	.LASF87
 2033 05ec 0F       		.byte	0xf
 2034 05ed C4       		.byte	0xc4
 2035 05ee 11070000 		.4byte	0x711
 2036 05f2 20       		.byte	0x20
 2037 05f3 07       		.uleb128 0x7
 2038 05f4 FD080000 		.4byte	.LASF88
ARM GAS  C:\Users\tmj32\AppData\Local\Temp\ccH9iEPr.s 			page 56


 2039 05f8 0F       		.byte	0xf
 2040 05f9 C6       		.byte	0xc6
 2041 05fa E4000000 		.4byte	0xe4
 2042 05fe 24       		.byte	0x24
 2043 05ff 07       		.uleb128 0x7
 2044 0600 79060000 		.4byte	.LASF89
 2045 0604 0F       		.byte	0xf
 2046 0605 C7       		.byte	0xc7
 2047 0606 A4080000 		.4byte	0x8a4
 2048 060a 28       		.byte	0x28
 2049 060b 0A       		.uleb128 0xa
 2050 060c E1000000 		.4byte	.LASF90
 2051 0610 0F       		.byte	0xf
 2052 0611 D7       		.byte	0xd7
 2053 0612 AD000000 		.4byte	0xad
 2054 0616 01       		.byte	0x1
 2055 0617 01       		.byte	0x1
 2056 0618 07       		.byte	0x7
 2057 0619 2C       		.byte	0x2c
 2058 061a 0A       		.uleb128 0xa
 2059 061b D90B0000 		.4byte	.LASF91
 2060 061f 0F       		.byte	0xf
 2061 0620 D8       		.byte	0xd8
 2062 0621 AD000000 		.4byte	0xad
 2063 0625 01       		.byte	0x1
 2064 0626 01       		.byte	0x1
 2065 0627 06       		.byte	0x6
 2066 0628 2C       		.byte	0x2c
 2067 0629 0A       		.uleb128 0xa
 2068 062a C3040000 		.4byte	.LASF92
 2069 062e 0F       		.byte	0xf
 2070 062f D9       		.byte	0xd9
 2071 0630 AD000000 		.4byte	0xad
 2072 0634 01       		.byte	0x1
 2073 0635 01       		.byte	0x1
 2074 0636 05       		.byte	0x5
 2075 0637 2C       		.byte	0x2c
 2076 0638 0A       		.uleb128 0xa
 2077 0639 EC0C0000 		.4byte	.LASF93
 2078 063d 0F       		.byte	0xf
 2079 063e DA       		.byte	0xda
 2080 063f AD000000 		.4byte	0xad
 2081 0643 01       		.byte	0x1
 2082 0644 01       		.byte	0x1
 2083 0645 04       		.byte	0x4
 2084 0646 2C       		.byte	0x2c
 2085 0647 0A       		.uleb128 0xa
 2086 0648 20020000 		.4byte	.LASF94
 2087 064c 0F       		.byte	0xf
 2088 064d DB       		.byte	0xdb
 2089 064e AD000000 		.4byte	0xad
 2090 0652 01       		.byte	0x1
 2091 0653 01       		.byte	0x1
 2092 0654 03       		.byte	0x3
 2093 0655 2C       		.byte	0x2c
 2094 0656 15       		.uleb128 0x15
 2095 0657 746F7000 		.ascii	"top\000"
ARM GAS  C:\Users\tmj32\AppData\Local\Temp\ccH9iEPr.s 			page 57


 2096 065b 0F       		.byte	0xf
 2097 065c DC       		.byte	0xdc
 2098 065d AD000000 		.4byte	0xad
 2099 0661 01       		.byte	0x1
 2100 0662 01       		.byte	0x1
 2101 0663 02       		.byte	0x2
 2102 0664 2C       		.byte	0x2c
 2103 0665 0A       		.uleb128 0xa
 2104 0666 C20C0000 		.4byte	.LASF95
 2105 066a 0F       		.byte	0xf
 2106 066b DD       		.byte	0xdd
 2107 066c AD000000 		.4byte	0xad
 2108 0670 01       		.byte	0x1
 2109 0671 01       		.byte	0x1
 2110 0672 01       		.byte	0x1
 2111 0673 2C       		.byte	0x2c
 2112 0674 0A       		.uleb128 0xa
 2113 0675 9A070000 		.4byte	.LASF96
 2114 0679 0F       		.byte	0xf
 2115 067a DE       		.byte	0xde
 2116 067b AD000000 		.4byte	0xad
 2117 067f 01       		.byte	0x1
 2118 0680 01       		.byte	0x1
 2119 0681 00       		.byte	0
 2120 0682 2C       		.byte	0x2c
 2121 0683 0A       		.uleb128 0xa
 2122 0684 4B030000 		.4byte	.LASF97
 2123 0688 0F       		.byte	0xf
 2124 0689 DF       		.byte	0xdf
 2125 068a 99080000 		.4byte	0x899
 2126 068e 01       		.byte	0x1
 2127 068f 02       		.byte	0x2
 2128 0690 06       		.byte	0x6
 2129 0691 2D       		.byte	0x2d
 2130 0692 0A       		.uleb128 0xa
 2131 0693 1F0C0000 		.4byte	.LASF98
 2132 0697 0F       		.byte	0xf
 2133 0698 E0       		.byte	0xe0
 2134 0699 89050000 		.4byte	0x589
 2135 069d 01       		.byte	0x1
 2136 069e 02       		.byte	0x2
 2137 069f 04       		.byte	0x4
 2138 06a0 2D       		.byte	0x2d
 2139 06a1 0A       		.uleb128 0xa
 2140 06a2 8B0D0000 		.4byte	.LASF99
 2141 06a6 0F       		.byte	0xf
 2142 06a7 E1       		.byte	0xe1
 2143 06a8 AD000000 		.4byte	0xad
 2144 06ac 01       		.byte	0x1
 2145 06ad 03       		.byte	0x3
 2146 06ae 01       		.byte	0x1
 2147 06af 2D       		.byte	0x2d
 2148 06b0 07       		.uleb128 0x7
 2149 06b1 6B070000 		.4byte	.LASF100
 2150 06b5 0F       		.byte	0xf
 2151 06b6 E2       		.byte	0xe2
 2152 06b7 AD000000 		.4byte	0xad
ARM GAS  C:\Users\tmj32\AppData\Local\Temp\ccH9iEPr.s 			page 58


 2153 06bb 2E       		.byte	0x2e
 2154 06bc 07       		.uleb128 0x7
 2155 06bd C50E0000 		.4byte	.LASF101
 2156 06c1 0F       		.byte	0xf
 2157 06c2 E4       		.byte	0xe4
 2158 06c3 7B020000 		.4byte	0x27b
 2159 06c7 2F       		.byte	0x2f
 2160 06c8 07       		.uleb128 0x7
 2161 06c9 EA040000 		.4byte	.LASF102
 2162 06cd 0F       		.byte	0xf
 2163 06ce E6       		.byte	0xe6
 2164 06cf D9000000 		.4byte	0xd9
 2165 06d3 30       		.byte	0x30
 2166 06d4 07       		.uleb128 0x7
 2167 06d5 30050000 		.4byte	.LASF103
 2168 06d9 0F       		.byte	0xf
 2169 06da E9       		.byte	0xe9
 2170 06db 8E080000 		.4byte	0x88e
 2171 06df 34       		.byte	0x34
 2172 06e0 00       		.byte	0
 2173 06e1 0D       		.uleb128 0xd
 2174 06e2 04       		.byte	0x4
 2175 06e3 9F050000 		.4byte	0x59f
 2176 06e7 13       		.uleb128 0x13
 2177 06e8 01       		.byte	0x1
 2178 06e9 42000000 		.4byte	0x42
 2179 06ed 0F       		.byte	0xf
 2180 06ee 3D       		.byte	0x3d
 2181 06ef 06070000 		.4byte	0x706
 2182 06f3 14       		.uleb128 0x14
 2183 06f4 4E080000 		.4byte	.LASF104
 2184 06f8 00       		.byte	0
 2185 06f9 14       		.uleb128 0x14
 2186 06fa D8030000 		.4byte	.LASF105
 2187 06fe 01       		.byte	0x1
 2188 06ff 14       		.uleb128 0x14
 2189 0700 4A040000 		.4byte	.LASF106
 2190 0704 02       		.byte	0x2
 2191 0705 00       		.byte	0
 2192 0706 02       		.uleb128 0x2
 2193 0707 16090000 		.4byte	.LASF107
 2194 070b 0F       		.byte	0xf
 2195 070c 42       		.byte	0x42
 2196 070d AD000000 		.4byte	0xad
 2197 0711 02       		.uleb128 0x2
 2198 0712 B60E0000 		.4byte	.LASF108
 2199 0716 0F       		.byte	0xf
 2200 0717 48       		.byte	0x48
 2201 0718 1C070000 		.4byte	0x71c
 2202 071c 0D       		.uleb128 0xd
 2203 071d 04       		.byte	0x4
 2204 071e 22070000 		.4byte	0x722
 2205 0722 0B       		.uleb128 0xb
 2206 0723 BF010000 		.4byte	0x1bf
 2207 0727 3B070000 		.4byte	0x73b
 2208 072b 0C       		.uleb128 0xc
 2209 072c E1060000 		.4byte	0x6e1
ARM GAS  C:\Users\tmj32\AppData\Local\Temp\ccH9iEPr.s 			page 59


 2210 0730 0C       		.uleb128 0xc
 2211 0731 94050000 		.4byte	0x594
 2212 0735 0C       		.uleb128 0xc
 2213 0736 06070000 		.4byte	0x706
 2214 073a 00       		.byte	0
 2215 073b 02       		.uleb128 0x2
 2216 073c 2A010000 		.4byte	.LASF109
 2217 0740 0F       		.byte	0xf
 2218 0741 61       		.byte	0x61
 2219 0742 AD000000 		.4byte	0xad
 2220 0746 02       		.uleb128 0x2
 2221 0747 310E0000 		.4byte	.LASF110
 2222 074b 0F       		.byte	0xf
 2223 074c 68       		.byte	0x68
 2224 074d 51070000 		.4byte	0x751
 2225 0751 0D       		.uleb128 0xd
 2226 0752 04       		.byte	0x4
 2227 0753 57070000 		.4byte	0x757
 2228 0757 16       		.uleb128 0x16
 2229 0758 67070000 		.4byte	0x767
 2230 075c 0C       		.uleb128 0xc
 2231 075d E1060000 		.4byte	0x6e1
 2232 0761 0C       		.uleb128 0xc
 2233 0762 3B070000 		.4byte	0x73b
 2234 0766 00       		.byte	0
 2235 0767 13       		.uleb128 0x13
 2236 0768 01       		.byte	0x1
 2237 0769 42000000 		.4byte	0x42
 2238 076d 0F       		.byte	0xf
 2239 076e 6D       		.byte	0x6d
 2240 076f EC070000 		.4byte	0x7ec
 2241 0773 14       		.uleb128 0x14
 2242 0774 A7070000 		.4byte	.LASF111
 2243 0778 00       		.byte	0
 2244 0779 14       		.uleb128 0x14
 2245 077a F1070000 		.4byte	.LASF112
 2246 077e 01       		.byte	0x1
 2247 077f 14       		.uleb128 0x14
 2248 0780 A00C0000 		.4byte	.LASF113
 2249 0784 02       		.byte	0x2
 2250 0785 14       		.uleb128 0x14
 2251 0786 74090000 		.4byte	.LASF114
 2252 078a 03       		.byte	0x3
 2253 078b 14       		.uleb128 0x14
 2254 078c 71000000 		.4byte	.LASF115
 2255 0790 04       		.byte	0x4
 2256 0791 14       		.uleb128 0x14
 2257 0792 F80C0000 		.4byte	.LASF116
 2258 0796 05       		.byte	0x5
 2259 0797 14       		.uleb128 0x14
 2260 0798 2F030000 		.4byte	.LASF117
 2261 079c 06       		.byte	0x6
 2262 079d 14       		.uleb128 0x14
 2263 079e 48050000 		.4byte	.LASF118
 2264 07a2 07       		.byte	0x7
 2265 07a3 14       		.uleb128 0x14
 2266 07a4 62010000 		.4byte	.LASF119
ARM GAS  C:\Users\tmj32\AppData\Local\Temp\ccH9iEPr.s 			page 60


 2267 07a8 08       		.byte	0x8
 2268 07a9 14       		.uleb128 0x14
 2269 07aa AF080000 		.4byte	.LASF120
 2270 07ae 09       		.byte	0x9
 2271 07af 14       		.uleb128 0x14
 2272 07b0 2D090000 		.4byte	.LASF121
 2273 07b4 0A       		.byte	0xa
 2274 07b5 14       		.uleb128 0x14
 2275 07b6 95090000 		.4byte	.LASF122
 2276 07ba 0B       		.byte	0xb
 2277 07bb 14       		.uleb128 0x14
 2278 07bc AC000000 		.4byte	.LASF123
 2279 07c0 0C       		.byte	0xc
 2280 07c1 14       		.uleb128 0x14
 2281 07c2 08030000 		.4byte	.LASF124
 2282 07c6 0D       		.byte	0xd
 2283 07c7 14       		.uleb128 0x14
 2284 07c8 FF000000 		.4byte	.LASF125
 2285 07cc 0E       		.byte	0xe
 2286 07cd 14       		.uleb128 0x14
 2287 07ce 4D090000 		.4byte	.LASF126
 2288 07d2 0F       		.byte	0xf
 2289 07d3 14       		.uleb128 0x14
 2290 07d4 16060000 		.4byte	.LASF127
 2291 07d8 10       		.byte	0x10
 2292 07d9 14       		.uleb128 0x14
 2293 07da 78040000 		.4byte	.LASF128
 2294 07de 11       		.byte	0x11
 2295 07df 14       		.uleb128 0x14
 2296 07e0 43070000 		.4byte	.LASF129
 2297 07e4 12       		.byte	0x12
 2298 07e5 14       		.uleb128 0x14
 2299 07e6 34060000 		.4byte	.LASF130
 2300 07ea 13       		.byte	0x13
 2301 07eb 00       		.byte	0
 2302 07ec 02       		.uleb128 0x2
 2303 07ed CB090000 		.4byte	.LASF131
 2304 07f1 0F       		.byte	0xf
 2305 07f2 88       		.byte	0x88
 2306 07f3 AD000000 		.4byte	0xad
 2307 07f7 02       		.uleb128 0x2
 2308 07f8 AF030000 		.4byte	.LASF132
 2309 07fc 0F       		.byte	0xf
 2310 07fd 8A       		.byte	0x8a
 2311 07fe 02080000 		.4byte	0x802
 2312 0802 0D       		.uleb128 0xd
 2313 0803 04       		.byte	0x4
 2314 0804 08080000 		.4byte	0x808
 2315 0808 0B       		.uleb128 0xb
 2316 0809 35050000 		.4byte	0x535
 2317 080d 21080000 		.4byte	0x821
 2318 0811 0C       		.uleb128 0xc
 2319 0812 E1060000 		.4byte	0x6e1
 2320 0816 0C       		.uleb128 0xc
 2321 0817 EC070000 		.4byte	0x7ec
 2322 081b 0C       		.uleb128 0xc
 2323 081c E4000000 		.4byte	0xe4
ARM GAS  C:\Users\tmj32\AppData\Local\Temp\ccH9iEPr.s 			page 61


 2324 0820 00       		.byte	0
 2325 0821 02       		.uleb128 0x2
 2326 0822 E7000000 		.4byte	.LASF133
 2327 0826 0F       		.byte	0xf
 2328 0827 A4       		.byte	0xa4
 2329 0828 AD000000 		.4byte	0xad
 2330 082c 06       		.uleb128 0x6
 2331 082d 0C       		.byte	0xc
 2332 082e 0F       		.byte	0xf
 2333 082f A7       		.byte	0xa7
 2334 0830 83080000 		.4byte	0x883
 2335 0834 07       		.uleb128 0x7
 2336 0835 6C0C0000 		.4byte	.LASF134
 2337 0839 0F       		.byte	0xf
 2338 083a A9       		.byte	0xa9
 2339 083b 83080000 		.4byte	0x883
 2340 083f 00       		.byte	0
 2341 0840 07       		.uleb128 0x7
 2342 0841 7F0B0000 		.4byte	.LASF135
 2343 0845 0F       		.byte	0xf
 2344 0846 AA       		.byte	0xaa
 2345 0847 D9000000 		.4byte	0xd9
 2346 084b 04       		.byte	0x4
 2347 084c 07       		.uleb128 0x7
 2348 084d F1030000 		.4byte	.LASF136
 2349 0851 0F       		.byte	0xf
 2350 0852 AB       		.byte	0xab
 2351 0853 D9000000 		.4byte	0xd9
 2352 0857 06       		.byte	0x6
 2353 0858 07       		.uleb128 0x7
 2354 0859 B9070000 		.4byte	.LASF137
 2355 085d 0F       		.byte	0xf
 2356 085e AC       		.byte	0xac
 2357 085f 21080000 		.4byte	0x821
 2358 0863 08       		.byte	0x8
 2359 0864 0A       		.uleb128 0xa
 2360 0865 23080000 		.4byte	.LASF138
 2361 0869 0F       		.byte	0xf
 2362 086a AD       		.byte	0xad
 2363 086b AD000000 		.4byte	0xad
 2364 086f 01       		.byte	0x1
 2365 0870 01       		.byte	0x1
 2366 0871 07       		.byte	0x7
 2367 0872 09       		.byte	0x9
 2368 0873 0A       		.uleb128 0xa
 2369 0874 470E0000 		.4byte	.LASF139
 2370 0878 0F       		.byte	0xf
 2371 0879 AE       		.byte	0xae
 2372 087a AD000000 		.4byte	0xad
 2373 087e 01       		.byte	0x1
 2374 087f 01       		.byte	0x1
 2375 0880 06       		.byte	0x6
 2376 0881 09       		.byte	0x9
 2377 0882 00       		.byte	0
 2378 0883 0D       		.uleb128 0xd
 2379 0884 04       		.byte	0x4
 2380 0885 89080000 		.4byte	0x889
ARM GAS  C:\Users\tmj32\AppData\Local\Temp\ccH9iEPr.s 			page 62


 2381 0889 0E       		.uleb128 0xe
 2382 088a 9F050000 		.4byte	0x59f
 2383 088e 02       		.uleb128 0x2
 2384 088f C8000000 		.4byte	.LASF140
 2385 0893 0F       		.byte	0xf
 2386 0894 B0       		.byte	0xb0
 2387 0895 2C080000 		.4byte	0x82c
 2388 0899 02       		.uleb128 0x2
 2389 089a E9080000 		.4byte	.LASF141
 2390 089e 0F       		.byte	0xf
 2391 089f B9       		.byte	0xb9
 2392 08a0 AD000000 		.4byte	0xad
 2393 08a4 0D       		.uleb128 0xd
 2394 08a5 04       		.byte	0x4
 2395 08a6 AA080000 		.4byte	0x8aa
 2396 08aa 0E       		.uleb128 0xe
 2397 08ab 0B050000 		.4byte	0x50b
 2398 08af 02       		.uleb128 0x2
 2399 08b0 9A0B0000 		.4byte	.LASF142
 2400 08b4 0F       		.byte	0xf
 2401 08b5 F0       		.byte	0xf0
 2402 08b6 9F050000 		.4byte	0x59f
 2403 08ba 13       		.uleb128 0x13
 2404 08bb 01       		.byte	0x1
 2405 08bc 42000000 		.4byte	0x42
 2406 08c0 0F       		.byte	0xf
 2407 08c1 F3       		.byte	0xf3
 2408 08c2 F1080000 		.4byte	0x8f1
 2409 08c6 14       		.uleb128 0x14
 2410 08c7 06090000 		.4byte	.LASF143
 2411 08cb 00       		.byte	0
 2412 08cc 14       		.uleb128 0x14
 2413 08cd 280C0000 		.4byte	.LASF144
 2414 08d1 01       		.byte	0x1
 2415 08d2 14       		.uleb128 0x14
 2416 08d3 54030000 		.4byte	.LASF145
 2417 08d7 02       		.byte	0x2
 2418 08d8 14       		.uleb128 0x14
 2419 08d9 62000000 		.4byte	.LASF146
 2420 08dd 04       		.byte	0x4
 2421 08de 14       		.uleb128 0x14
 2422 08df 01050000 		.4byte	.LASF147
 2423 08e3 08       		.byte	0x8
 2424 08e4 14       		.uleb128 0x14
 2425 08e5 3D0C0000 		.4byte	.LASF148
 2426 08e9 10       		.byte	0x10
 2427 08ea 14       		.uleb128 0x14
 2428 08eb FE090000 		.4byte	.LASF149
 2429 08ef 20       		.byte	0x20
 2430 08f0 00       		.byte	0
 2431 08f1 13       		.uleb128 0x13
 2432 08f2 01       		.byte	0x1
 2433 08f3 42000000 		.4byte	0x42
 2434 08f7 02       		.byte	0x2
 2435 08f8 23       		.byte	0x23
 2436 08f9 40090000 		.4byte	0x940
 2437 08fd 14       		.uleb128 0x14
ARM GAS  C:\Users\tmj32\AppData\Local\Temp\ccH9iEPr.s 			page 63


 2438 08fe 03060000 		.4byte	.LASF150
 2439 0902 00       		.byte	0
 2440 0903 14       		.uleb128 0x14
 2441 0904 ED0D0000 		.4byte	.LASF151
 2442 0908 01       		.byte	0x1
 2443 0909 14       		.uleb128 0x14
 2444 090a 0A040000 		.4byte	.LASF152
 2445 090e 02       		.byte	0x2
 2446 090f 14       		.uleb128 0x14
 2447 0910 1A040000 		.4byte	.LASF153
 2448 0914 03       		.byte	0x3
 2449 0915 14       		.uleb128 0x14
 2450 0916 2A040000 		.4byte	.LASF154
 2451 091a 04       		.byte	0x4
 2452 091b 14       		.uleb128 0x14
 2453 091c 8E020000 		.4byte	.LASF155
 2454 0920 05       		.byte	0x5
 2455 0921 14       		.uleb128 0x14
 2456 0922 7E020000 		.4byte	.LASF156
 2457 0926 06       		.byte	0x6
 2458 0927 14       		.uleb128 0x14
 2459 0928 58020000 		.4byte	.LASF157
 2460 092c 07       		.byte	0x7
 2461 092d 14       		.uleb128 0x14
 2462 092e 68020000 		.4byte	.LASF158
 2463 0932 08       		.byte	0x8
 2464 0933 14       		.uleb128 0x14
 2465 0934 B90B0000 		.4byte	.LASF159
 2466 0938 09       		.byte	0x9
 2467 0939 14       		.uleb128 0x14
 2468 093a C9030000 		.4byte	.LASF160
 2469 093e 0A       		.byte	0xa
 2470 093f 00       		.byte	0
 2471 0940 02       		.uleb128 0x2
 2472 0941 E00C0000 		.4byte	.LASF161
 2473 0945 02       		.byte	0x2
 2474 0946 30       		.byte	0x30
 2475 0947 AD000000 		.4byte	0xad
 2476 094b 13       		.uleb128 0x13
 2477 094c 01       		.byte	0x1
 2478 094d 42000000 		.4byte	0x42
 2479 0951 02       		.byte	0x2
 2480 0952 35       		.byte	0x35
 2481 0953 76090000 		.4byte	0x976
 2482 0957 14       		.uleb128 0x14
 2483 0958 AE010000 		.4byte	.LASF162
 2484 095c 00       		.byte	0
 2485 095d 14       		.uleb128 0x14
 2486 095e 460D0000 		.4byte	.LASF163
 2487 0962 01       		.byte	0x1
 2488 0963 14       		.uleb128 0x14
 2489 0964 B1050000 		.4byte	.LASF164
 2490 0968 02       		.byte	0x2
 2491 0969 14       		.uleb128 0x14
 2492 096a EE0B0000 		.4byte	.LASF165
 2493 096e 03       		.byte	0x3
 2494 096f 14       		.uleb128 0x14
ARM GAS  C:\Users\tmj32\AppData\Local\Temp\ccH9iEPr.s 			page 64


 2495 0970 8E0B0000 		.4byte	.LASF166
 2496 0974 04       		.byte	0x4
 2497 0975 00       		.byte	0
 2498 0976 02       		.uleb128 0x2
 2499 0977 430A0000 		.4byte	.LASF167
 2500 097b 02       		.byte	0x2
 2501 097c 3D       		.byte	0x3d
 2502 097d AD000000 		.4byte	0xad
 2503 0981 06       		.uleb128 0x6
 2504 0982 02       		.byte	0x2
 2505 0983 02       		.byte	0x2
 2506 0984 3F       		.byte	0x3f
 2507 0985 D5090000 		.4byte	0x9d5
 2508 0989 0A       		.uleb128 0xa
 2509 098a 86070000 		.4byte	.LASF168
 2510 098e 02       		.byte	0x2
 2511 098f 43       		.byte	0x43
 2512 0990 AD000000 		.4byte	0xad
 2513 0994 01       		.byte	0x1
 2514 0995 04       		.byte	0x4
 2515 0996 04       		.byte	0x4
 2516 0997 00       		.byte	0
 2517 0998 0A       		.uleb128 0xa
 2518 0999 86080000 		.4byte	.LASF169
 2519 099d 02       		.byte	0x2
 2520 099e 44       		.byte	0x44
 2521 099f AD000000 		.4byte	0xad
 2522 09a3 01       		.byte	0x1
 2523 09a4 02       		.byte	0x2
 2524 09a5 02       		.byte	0x2
 2525 09a6 00       		.byte	0
 2526 09a7 0A       		.uleb128 0xa
 2527 09a8 840B0000 		.4byte	.LASF170
 2528 09ac 02       		.byte	0x2
 2529 09ad 45       		.byte	0x45
 2530 09ae AD000000 		.4byte	0xad
 2531 09b2 01       		.byte	0x1
 2532 09b3 02       		.byte	0x2
 2533 09b4 00       		.byte	0
 2534 09b5 00       		.byte	0
 2535 09b6 0A       		.uleb128 0xa
 2536 09b7 E5020000 		.4byte	.LASF171
 2537 09bb 02       		.byte	0x2
 2538 09bc 46       		.byte	0x46
 2539 09bd AD000000 		.4byte	0xad
 2540 09c1 01       		.byte	0x1
 2541 09c2 02       		.byte	0x2
 2542 09c3 06       		.byte	0x6
 2543 09c4 01       		.byte	0x1
 2544 09c5 0A       		.uleb128 0xa
 2545 09c6 630A0000 		.4byte	.LASF172
 2546 09ca 02       		.byte	0x2
 2547 09cb 47       		.byte	0x47
 2548 09cc AD000000 		.4byte	0xad
 2549 09d0 01       		.byte	0x1
 2550 09d1 02       		.byte	0x2
 2551 09d2 04       		.byte	0x4
ARM GAS  C:\Users\tmj32\AppData\Local\Temp\ccH9iEPr.s 			page 65


 2552 09d3 01       		.byte	0x1
 2553 09d4 00       		.byte	0
 2554 09d5 02       		.uleb128 0x2
 2555 09d6 D6070000 		.4byte	.LASF173
 2556 09da 02       		.byte	0x2
 2557 09db 48       		.byte	0x48
 2558 09dc 81090000 		.4byte	0x981
 2559 09e0 13       		.uleb128 0x13
 2560 09e1 01       		.byte	0x1
 2561 09e2 42000000 		.4byte	0x42
 2562 09e6 10       		.byte	0x10
 2563 09e7 1E       		.byte	0x1e
 2564 09e8 350A0000 		.4byte	0xa35
 2565 09ec 14       		.uleb128 0x14
 2566 09ed 6D0E0000 		.4byte	.LASF174
 2567 09f1 11       		.byte	0x11
 2568 09f2 14       		.uleb128 0x14
 2569 09f3 570A0000 		.4byte	.LASF175
 2570 09f7 12       		.byte	0x12
 2571 09f8 14       		.uleb128 0x14
 2572 09f9 2D000000 		.4byte	.LASF176
 2573 09fd 13       		.byte	0x13
 2574 09fe 14       		.uleb128 0x14
 2575 09ff B4020000 		.4byte	.LASF177
 2576 0a03 14       		.byte	0x14
 2577 0a04 14       		.uleb128 0x14
 2578 0a05 6E0A0000 		.4byte	.LASF178
 2579 0a09 1B       		.byte	0x1b
 2580 0a0a 14       		.uleb128 0x14
 2581 0a0b 48020000 		.4byte	.LASF179
 2582 0a0f 7F       		.byte	0x7f
 2583 0a10 14       		.uleb128 0x14
 2584 0a11 81030000 		.4byte	.LASF180
 2585 0a15 08       		.byte	0x8
 2586 0a16 14       		.uleb128 0x14
 2587 0a17 4A010000 		.4byte	.LASF181
 2588 0a1b 0A       		.byte	0xa
 2589 0a1c 14       		.uleb128 0x14
 2590 0a1d A3080000 		.4byte	.LASF182
 2591 0a21 09       		.byte	0x9
 2592 0a22 14       		.uleb128 0x14
 2593 0a23 600C0000 		.4byte	.LASF183
 2594 0a27 0B       		.byte	0xb
 2595 0a28 14       		.uleb128 0x14
 2596 0a29 D7050000 		.4byte	.LASF184
 2597 0a2d 02       		.byte	0x2
 2598 0a2e 14       		.uleb128 0x14
 2599 0a2f 42090000 		.4byte	.LASF185
 2600 0a33 03       		.byte	0x3
 2601 0a34 00       		.byte	0
 2602 0a35 13       		.uleb128 0x13
 2603 0a36 01       		.byte	0x1
 2604 0a37 42000000 		.4byte	0x42
 2605 0a3b 03       		.byte	0x3
 2606 0a3c 2A       		.byte	0x2a
 2607 0a3d 660A0000 		.4byte	0xa66
 2608 0a41 14       		.uleb128 0x14
ARM GAS  C:\Users\tmj32\AppData\Local\Temp\ccH9iEPr.s 			page 66


 2609 0a42 D7010000 		.4byte	.LASF186
 2610 0a46 00       		.byte	0
 2611 0a47 14       		.uleb128 0x14
 2612 0a48 D7090000 		.4byte	.LASF187
 2613 0a4c 01       		.byte	0x1
 2614 0a4d 14       		.uleb128 0x14
 2615 0a4e EE050000 		.4byte	.LASF188
 2616 0a52 02       		.byte	0x2
 2617 0a53 14       		.uleb128 0x14
 2618 0a54 60090000 		.4byte	.LASF189
 2619 0a58 03       		.byte	0x3
 2620 0a59 14       		.uleb128 0x14
 2621 0a5a 12080000 		.4byte	.LASF190
 2622 0a5e 04       		.byte	0x4
 2623 0a5f 14       		.uleb128 0x14
 2624 0a60 9D0E0000 		.4byte	.LASF191
 2625 0a64 05       		.byte	0x5
 2626 0a65 00       		.byte	0
 2627 0a66 02       		.uleb128 0x2
 2628 0a67 8E000000 		.4byte	.LASF192
 2629 0a6b 03       		.byte	0x3
 2630 0a6c 3D       		.byte	0x3d
 2631 0a6d AD000000 		.4byte	0xad
 2632 0a71 06       		.uleb128 0x6
 2633 0a72 1C       		.byte	0x1c
 2634 0a73 03       		.byte	0x3
 2635 0a74 40       		.byte	0x40
 2636 0a75 B00A0000 		.4byte	0xab0
 2637 0a79 07       		.uleb128 0x7
 2638 0a7a CD010000 		.4byte	.LASF193
 2639 0a7e 03       		.byte	0x3
 2640 0a7f 43       		.byte	0x43
 2641 0a80 D5090000 		.4byte	0x9d5
 2642 0a84 00       		.byte	0
 2643 0a85 07       		.uleb128 0x7
 2644 0a86 AA050000 		.4byte	.LASF194
 2645 0a8a 03       		.byte	0x3
 2646 0a8b 48       		.byte	0x48
 2647 0a8c B00A0000 		.4byte	0xab0
 2648 0a90 04       		.byte	0x4
 2649 0a91 0A       		.uleb128 0xa
 2650 0a92 44010000 		.4byte	.LASF195
 2651 0a96 03       		.byte	0x3
 2652 0a97 55       		.byte	0x55
 2653 0a98 660A0000 		.4byte	0xa66
 2654 0a9c 01       		.byte	0x1
 2655 0a9d 03       		.byte	0x3
 2656 0a9e 05       		.byte	0x5
 2657 0a9f 18       		.byte	0x18
 2658 0aa0 0A       		.uleb128 0xa
 2659 0aa1 940D0000 		.4byte	.LASF196
 2660 0aa5 03       		.byte	0x3
 2661 0aa6 58       		.byte	0x58
 2662 0aa7 AD000000 		.4byte	0xad
 2663 0aab 01       		.byte	0x1
 2664 0aac 01       		.byte	0x1
 2665 0aad 04       		.byte	0x4
ARM GAS  C:\Users\tmj32\AppData\Local\Temp\ccH9iEPr.s 			page 67


 2666 0aae 18       		.byte	0x18
 2667 0aaf 00       		.byte	0
 2668 0ab0 17       		.uleb128 0x17
 2669 0ab1 A4080000 		.4byte	0x8a4
 2670 0ab5 C00A0000 		.4byte	0xac0
 2671 0ab9 18       		.uleb128 0x18
 2672 0aba 87020000 		.4byte	0x287
 2673 0abe 04       		.byte	0x4
 2674 0abf 00       		.byte	0
 2675 0ac0 02       		.uleb128 0x2
 2676 0ac1 C0010000 		.4byte	.LASF197
 2677 0ac5 03       		.byte	0x3
 2678 0ac6 59       		.byte	0x59
 2679 0ac7 710A0000 		.4byte	0xa71
 2680 0acb 13       		.uleb128 0x13
 2681 0acc 01       		.byte	0x1
 2682 0acd 42000000 		.4byte	0x42
 2683 0ad1 03       		.byte	0x3
 2684 0ad2 5C       		.byte	0x5c
 2685 0ad3 F60A0000 		.4byte	0xaf6
 2686 0ad7 14       		.uleb128 0x14
 2687 0ad8 9E020000 		.4byte	.LASF198
 2688 0adc 00       		.byte	0
 2689 0add 14       		.uleb128 0x14
 2690 0ade 3A040000 		.4byte	.LASF199
 2691 0ae2 01       		.byte	0x1
 2692 0ae3 14       		.uleb128 0x14
 2693 0ae4 530E0000 		.4byte	.LASF200
 2694 0ae8 02       		.byte	0x2
 2695 0ae9 14       		.uleb128 0x14
 2696 0aea 9B0D0000 		.4byte	.LASF201
 2697 0aee 03       		.byte	0x3
 2698 0aef 14       		.uleb128 0x14
 2699 0af0 BF070000 		.4byte	.LASF202
 2700 0af4 04       		.byte	0x4
 2701 0af5 00       		.byte	0
 2702 0af6 13       		.uleb128 0x13
 2703 0af7 01       		.byte	0x1
 2704 0af8 42000000 		.4byte	0x42
 2705 0afc 04       		.byte	0x4
 2706 0afd 6A       		.byte	0x6a
 2707 0afe 090B0000 		.4byte	0xb09
 2708 0b02 14       		.uleb128 0x14
 2709 0b03 4B060000 		.4byte	.LASF203
 2710 0b07 00       		.byte	0
 2711 0b08 00       		.byte	0
 2712 0b09 02       		.uleb128 0x2
 2713 0b0a 4C000000 		.4byte	.LASF204
 2714 0b0e 04       		.byte	0x4
 2715 0b0f 6D       		.byte	0x6d
 2716 0b10 AD000000 		.4byte	0xad
 2717 0b14 06       		.uleb128 0x6
 2718 0b15 24       		.byte	0x24
 2719 0b16 11       		.byte	0x11
 2720 0b17 2E       		.byte	0x2e
 2721 0b18 410B0000 		.4byte	0xb41
 2722 0b1c 07       		.uleb128 0x7
ARM GAS  C:\Users\tmj32\AppData\Local\Temp\ccH9iEPr.s 			page 68


 2723 0b1d 8E090000 		.4byte	.LASF205
 2724 0b21 11       		.byte	0x11
 2725 0b22 30       		.byte	0x30
 2726 0b23 C00A0000 		.4byte	0xac0
 2727 0b27 00       		.byte	0
 2728 0b28 07       		.uleb128 0x7
 2729 0b29 47080000 		.4byte	.LASF206
 2730 0b2d 11       		.byte	0x11
 2731 0b2e 32       		.byte	0x32
 2732 0b2f 410B0000 		.4byte	0xb41
 2733 0b33 1C       		.byte	0x1c
 2734 0b34 07       		.uleb128 0x7
 2735 0b35 050E0000 		.4byte	.LASF207
 2736 0b39 11       		.byte	0x11
 2737 0b3a 33       		.byte	0x33
 2738 0b3b 410B0000 		.4byte	0xb41
 2739 0b3f 20       		.byte	0x20
 2740 0b40 00       		.byte	0
 2741 0b41 0D       		.uleb128 0xd
 2742 0b42 04       		.byte	0x4
 2743 0b43 AF080000 		.4byte	0x8af
 2744 0b47 02       		.uleb128 0x2
 2745 0b48 96040000 		.4byte	.LASF208
 2746 0b4c 11       		.byte	0x11
 2747 0b4d 34       		.byte	0x34
 2748 0b4e 140B0000 		.4byte	0xb14
 2749 0b52 13       		.uleb128 0x13
 2750 0b53 01       		.byte	0x1
 2751 0b54 42000000 		.4byte	0x42
 2752 0b58 11       		.byte	0x11
 2753 0b59 37       		.byte	0x37
 2754 0b5a 830B0000 		.4byte	0xb83
 2755 0b5e 14       		.uleb128 0x14
 2756 0b5f BC090000 		.4byte	.LASF209
 2757 0b63 00       		.byte	0
 2758 0b64 14       		.uleb128 0x14
 2759 0b65 96050000 		.4byte	.LASF210
 2760 0b69 01       		.byte	0x1
 2761 0b6a 14       		.uleb128 0x14
 2762 0b6b 73070000 		.4byte	.LASF211
 2763 0b6f 02       		.byte	0x2
 2764 0b70 14       		.uleb128 0x14
 2765 0b71 6D050000 		.4byte	.LASF212
 2766 0b75 03       		.byte	0x3
 2767 0b76 14       		.uleb128 0x14
 2768 0b77 160D0000 		.4byte	.LASF213
 2769 0b7b 04       		.byte	0x4
 2770 0b7c 14       		.uleb128 0x14
 2771 0b7d 600B0000 		.4byte	.LASF214
 2772 0b81 05       		.byte	0x5
 2773 0b82 00       		.byte	0
 2774 0b83 02       		.uleb128 0x2
 2775 0b84 26060000 		.4byte	.LASF215
 2776 0b88 11       		.byte	0x11
 2777 0b89 3F       		.byte	0x3f
 2778 0b8a AD000000 		.4byte	0xad
 2779 0b8e 06       		.uleb128 0x6
ARM GAS  C:\Users\tmj32\AppData\Local\Temp\ccH9iEPr.s 			page 69


 2780 0b8f 14       		.byte	0x14
 2781 0b90 12       		.byte	0x12
 2782 0b91 34       		.byte	0x34
 2783 0b92 D20B0000 		.4byte	0xbd2
 2784 0b96 08       		.uleb128 0x8
 2785 0b97 72656C00 		.ascii	"rel\000"
 2786 0b9b 12       		.byte	0x12
 2787 0b9c 36       		.byte	0x36
 2788 0b9d 16050000 		.4byte	0x516
 2789 0ba1 00       		.byte	0
 2790 0ba2 08       		.uleb128 0x8
 2791 0ba3 707200   		.ascii	"pr\000"
 2792 0ba6 12       		.byte	0x12
 2793 0ba7 37       		.byte	0x37
 2794 0ba8 16050000 		.4byte	0x516
 2795 0bac 04       		.byte	0x4
 2796 0bad 07       		.uleb128 0x7
 2797 0bae 0A080000 		.4byte	.LASF216
 2798 0bb2 12       		.byte	0x12
 2799 0bb3 38       		.byte	0x38
 2800 0bb4 16050000 		.4byte	0x516
 2801 0bb8 08       		.byte	0x8
 2802 0bb9 07       		.uleb128 0x7
 2803 0bba DE020000 		.4byte	.LASF217
 2804 0bbe 12       		.byte	0x12
 2805 0bbf 39       		.byte	0x39
 2806 0bc0 16050000 		.4byte	0x516
 2807 0bc4 0C       		.byte	0xc
 2808 0bc5 08       		.uleb128 0x8
 2809 0bc6 696E6100 		.ascii	"ina\000"
 2810 0bca 12       		.byte	0x12
 2811 0bcb 3A       		.byte	0x3a
 2812 0bcc 16050000 		.4byte	0x516
 2813 0bd0 10       		.byte	0x10
 2814 0bd1 00       		.byte	0
 2815 0bd2 06       		.uleb128 0x6
 2816 0bd3 14       		.byte	0x14
 2817 0bd4 12       		.byte	0x12
 2818 0bd5 3F       		.byte	0x3f
 2819 0bd6 160C0000 		.4byte	0xc16
 2820 0bda 08       		.uleb128 0x8
 2821 0bdb 72656C00 		.ascii	"rel\000"
 2822 0bdf 12       		.byte	0x12
 2823 0be0 41       		.byte	0x41
 2824 0be1 16050000 		.4byte	0x516
 2825 0be5 00       		.byte	0
 2826 0be6 08       		.uleb128 0x8
 2827 0be7 707200   		.ascii	"pr\000"
 2828 0bea 12       		.byte	0x12
 2829 0beb 42       		.byte	0x42
 2830 0bec 16050000 		.4byte	0x516
 2831 0bf0 04       		.byte	0x4
 2832 0bf1 07       		.uleb128 0x7
 2833 0bf2 0A080000 		.4byte	.LASF216
 2834 0bf6 12       		.byte	0x12
 2835 0bf7 43       		.byte	0x43
 2836 0bf8 16050000 		.4byte	0x516
ARM GAS  C:\Users\tmj32\AppData\Local\Temp\ccH9iEPr.s 			page 70


 2837 0bfc 08       		.byte	0x8
 2838 0bfd 07       		.uleb128 0x7
 2839 0bfe DE020000 		.4byte	.LASF217
 2840 0c02 12       		.byte	0x12
 2841 0c03 44       		.byte	0x44
 2842 0c04 16050000 		.4byte	0x516
 2843 0c08 0C       		.byte	0xc
 2844 0c09 08       		.uleb128 0x8
 2845 0c0a 696E6100 		.ascii	"ina\000"
 2846 0c0e 12       		.byte	0x12
 2847 0c0f 45       		.byte	0x45
 2848 0c10 16050000 		.4byte	0x516
 2849 0c14 10       		.byte	0x10
 2850 0c15 00       		.byte	0
 2851 0c16 06       		.uleb128 0x6
 2852 0c17 0C       		.byte	0xc
 2853 0c18 12       		.byte	0x12
 2854 0c19 4A       		.byte	0x4a
 2855 0c1a 430C0000 		.4byte	0xc43
 2856 0c1e 07       		.uleb128 0x7
 2857 0c1f D2010000 		.4byte	.LASF218
 2858 0c23 12       		.byte	0x12
 2859 0c24 4C       		.byte	0x4c
 2860 0c25 16050000 		.4byte	0x516
 2861 0c29 00       		.byte	0
 2862 0c2a 08       		.uleb128 0x8
 2863 0c2b 73656300 		.ascii	"sec\000"
 2864 0c2f 12       		.byte	0x12
 2865 0c30 4D       		.byte	0x4d
 2866 0c31 16050000 		.4byte	0x516
 2867 0c35 04       		.byte	0x4
 2868 0c36 07       		.uleb128 0x7
 2869 0c37 E3050000 		.4byte	.LASF219
 2870 0c3b 12       		.byte	0x12
 2871 0c3c 4E       		.byte	0x4e
 2872 0c3d 16050000 		.4byte	0x516
 2873 0c41 08       		.byte	0x8
 2874 0c42 00       		.byte	0
 2875 0c43 06       		.uleb128 0x6
 2876 0c44 08       		.byte	0x8
 2877 0c45 12       		.byte	0x12
 2878 0c46 53       		.byte	0x53
 2879 0c47 640C0000 		.4byte	0xc64
 2880 0c4b 07       		.uleb128 0x7
 2881 0c4c BA010000 		.4byte	.LASF220
 2882 0c50 12       		.byte	0x12
 2883 0c51 55       		.byte	0x55
 2884 0c52 16050000 		.4byte	0x516
 2885 0c56 00       		.byte	0
 2886 0c57 07       		.uleb128 0x7
 2887 0c58 760D0000 		.4byte	.LASF221
 2888 0c5c 12       		.byte	0x12
 2889 0c5d 56       		.byte	0x56
 2890 0c5e 16050000 		.4byte	0x516
 2891 0c62 04       		.byte	0x4
 2892 0c63 00       		.byte	0
 2893 0c64 06       		.uleb128 0x6
ARM GAS  C:\Users\tmj32\AppData\Local\Temp\ccH9iEPr.s 			page 71


 2894 0c65 04       		.byte	0x4
 2895 0c66 12       		.byte	0x12
 2896 0c67 5B       		.byte	0x5b
 2897 0c68 790C0000 		.4byte	0xc79
 2898 0c6c 07       		.uleb128 0x7
 2899 0c6d 2C0B0000 		.4byte	.LASF222
 2900 0c71 12       		.byte	0x12
 2901 0c72 5D       		.byte	0x5d
 2902 0c73 16050000 		.4byte	0x516
 2903 0c77 00       		.byte	0
 2904 0c78 00       		.byte	0
 2905 0c79 06       		.uleb128 0x6
 2906 0c7a 08       		.byte	0x8
 2907 0c7b 12       		.byte	0x12
 2908 0c7c 66       		.byte	0x66
 2909 0c7d 990C0000 		.4byte	0xc99
 2910 0c81 08       		.uleb128 0x8
 2911 0c82 626700   		.ascii	"bg\000"
 2912 0c85 12       		.byte	0x12
 2913 0c86 68       		.byte	0x68
 2914 0c87 16050000 		.4byte	0x516
 2915 0c8b 00       		.byte	0
 2916 0c8c 07       		.uleb128 0x7
 2917 0c8d 65070000 		.4byte	.LASF223
 2918 0c91 12       		.byte	0x12
 2919 0c92 69       		.byte	0x69
 2920 0c93 16050000 		.4byte	0x516
 2921 0c97 04       		.byte	0x4
 2922 0c98 00       		.byte	0
 2923 0c99 06       		.uleb128 0x6
 2924 0c9a 0C       		.byte	0xc
 2925 0c9b 12       		.byte	0x12
 2926 0c9c 6E       		.byte	0x6e
 2927 0c9d C50C0000 		.4byte	0xcc5
 2928 0ca1 08       		.uleb128 0x8
 2929 0ca2 626700   		.ascii	"bg\000"
 2930 0ca5 12       		.byte	0x12
 2931 0ca6 70       		.byte	0x70
 2932 0ca7 16050000 		.4byte	0x516
 2933 0cab 00       		.byte	0
 2934 0cac 07       		.uleb128 0x7
 2935 0cad 65070000 		.4byte	.LASF223
 2936 0cb1 12       		.byte	0x12
 2937 0cb2 71       		.byte	0x71
 2938 0cb3 16050000 		.4byte	0x516
 2939 0cb7 04       		.byte	0x4
 2940 0cb8 07       		.uleb128 0x7
 2941 0cb9 680E0000 		.4byte	.LASF224
 2942 0cbd 12       		.byte	0x12
 2943 0cbe 72       		.byte	0x72
 2944 0cbf 16050000 		.4byte	0x516
 2945 0cc3 08       		.byte	0x8
 2946 0cc4 00       		.byte	0
 2947 0cc5 06       		.uleb128 0x6
 2948 0cc6 10       		.byte	0x10
 2949 0cc7 12       		.byte	0x12
 2950 0cc8 87       		.byte	0x87
ARM GAS  C:\Users\tmj32\AppData\Local\Temp\ccH9iEPr.s 			page 72


 2951 0cc9 FD0C0000 		.4byte	0xcfd
 2952 0ccd 08       		.uleb128 0x8
 2953 0cce 626700   		.ascii	"bg\000"
 2954 0cd1 12       		.byte	0x12
 2955 0cd2 89       		.byte	0x89
 2956 0cd3 16050000 		.4byte	0x516
 2957 0cd7 00       		.byte	0
 2958 0cd8 07       		.uleb128 0x7
 2959 0cd9 65070000 		.4byte	.LASF223
 2960 0cdd 12       		.byte	0x12
 2961 0cde 8A       		.byte	0x8a
 2962 0cdf 16050000 		.4byte	0x516
 2963 0ce3 04       		.byte	0x4
 2964 0ce4 07       		.uleb128 0x7
 2965 0ce5 94080000 		.4byte	.LASF225
 2966 0ce9 12       		.byte	0x12
 2967 0cea 8B       		.byte	0x8b
 2968 0ceb 16050000 		.4byte	0x516
 2969 0cef 08       		.byte	0x8
 2970 0cf0 07       		.uleb128 0x7
 2971 0cf1 6D030000 		.4byte	.LASF226
 2972 0cf5 12       		.byte	0x12
 2973 0cf6 8C       		.byte	0x8c
 2974 0cf7 16050000 		.4byte	0x516
 2975 0cfb 0C       		.byte	0xc
 2976 0cfc 00       		.byte	0
 2977 0cfd 06       		.uleb128 0x6
 2978 0cfe 20       		.byte	0x20
 2979 0cff 12       		.byte	0x12
 2980 0d00 95       		.byte	0x95
 2981 0d01 650D0000 		.4byte	0xd65
 2982 0d05 08       		.uleb128 0x8
 2983 0d06 626700   		.ascii	"bg\000"
 2984 0d09 12       		.byte	0x12
 2985 0d0a 97       		.byte	0x97
 2986 0d0b 16050000 		.4byte	0x516
 2987 0d0f 00       		.byte	0
 2988 0d10 07       		.uleb128 0x7
 2989 0d11 92030000 		.4byte	.LASF227
 2990 0d15 12       		.byte	0x12
 2991 0d16 98       		.byte	0x98
 2992 0d17 16050000 		.4byte	0x516
 2993 0d1b 04       		.byte	0x4
 2994 0d1c 07       		.uleb128 0x7
 2995 0d1d 1A000000 		.4byte	.LASF228
 2996 0d21 12       		.byte	0x12
 2997 0d22 99       		.byte	0x99
 2998 0d23 16050000 		.4byte	0x516
 2999 0d27 08       		.byte	0x8
 3000 0d28 07       		.uleb128 0x7
 3001 0d29 CF0C0000 		.4byte	.LASF229
 3002 0d2d 12       		.byte	0x12
 3003 0d2e 9A       		.byte	0x9a
 3004 0d2f 16050000 		.4byte	0x516
 3005 0d33 0C       		.byte	0xc
 3006 0d34 07       		.uleb128 0x7
 3007 0d35 14010000 		.4byte	.LASF230
ARM GAS  C:\Users\tmj32\AppData\Local\Temp\ccH9iEPr.s 			page 73


 3008 0d39 12       		.byte	0x12
 3009 0d3a 9B       		.byte	0x9b
 3010 0d3b 16050000 		.4byte	0x516
 3011 0d3f 10       		.byte	0x10
 3012 0d40 07       		.uleb128 0x7
 3013 0d41 CE040000 		.4byte	.LASF231
 3014 0d45 12       		.byte	0x12
 3015 0d46 9C       		.byte	0x9c
 3016 0d47 16050000 		.4byte	0x516
 3017 0d4b 14       		.byte	0x14
 3018 0d4c 07       		.uleb128 0x7
 3019 0d4d 01040000 		.4byte	.LASF232
 3020 0d51 12       		.byte	0x12
 3021 0d52 9D       		.byte	0x9d
 3022 0d53 16050000 		.4byte	0x516
 3023 0d57 18       		.byte	0x18
 3024 0d58 07       		.uleb128 0x7
 3025 0d59 D4020000 		.4byte	.LASF233
 3026 0d5d 12       		.byte	0x12
 3027 0d5e 9E       		.byte	0x9e
 3028 0d5f 16050000 		.4byte	0x516
 3029 0d63 1C       		.byte	0x1c
 3030 0d64 00       		.byte	0
 3031 0d65 06       		.uleb128 0x6
 3032 0d66 14       		.byte	0x14
 3033 0d67 12       		.byte	0x12
 3034 0d68 A6       		.byte	0xa6
 3035 0d69 A90D0000 		.4byte	0xda9
 3036 0d6d 08       		.uleb128 0x8
 3037 0d6e 72656C00 		.ascii	"rel\000"
 3038 0d72 12       		.byte	0x12
 3039 0d73 A8       		.byte	0xa8
 3040 0d74 16050000 		.4byte	0x516
 3041 0d78 00       		.byte	0
 3042 0d79 08       		.uleb128 0x8
 3043 0d7a 707200   		.ascii	"pr\000"
 3044 0d7d 12       		.byte	0x12
 3045 0d7e A9       		.byte	0xa9
 3046 0d7f 16050000 		.4byte	0x516
 3047 0d83 04       		.byte	0x4
 3048 0d84 07       		.uleb128 0x7
 3049 0d85 0A080000 		.4byte	.LASF216
 3050 0d89 12       		.byte	0x12
 3051 0d8a AA       		.byte	0xaa
 3052 0d8b 16050000 		.4byte	0x516
 3053 0d8f 08       		.byte	0x8
 3054 0d90 07       		.uleb128 0x7
 3055 0d91 DE020000 		.4byte	.LASF217
 3056 0d95 12       		.byte	0x12
 3057 0d96 AB       		.byte	0xab
 3058 0d97 16050000 		.4byte	0x516
 3059 0d9b 0C       		.byte	0xc
 3060 0d9c 08       		.uleb128 0x8
 3061 0d9d 696E6100 		.ascii	"ina\000"
 3062 0da1 12       		.byte	0x12
 3063 0da2 AC       		.byte	0xac
 3064 0da3 16050000 		.4byte	0x516
ARM GAS  C:\Users\tmj32\AppData\Local\Temp\ccH9iEPr.s 			page 74


 3065 0da7 10       		.byte	0x10
 3066 0da8 00       		.byte	0
 3067 0da9 06       		.uleb128 0x6
 3068 0daa 18       		.byte	0x18
 3069 0dab 12       		.byte	0x12
 3070 0dac A3       		.byte	0xa3
 3071 0dad C90D0000 		.4byte	0xdc9
 3072 0db1 08       		.uleb128 0x8
 3073 0db2 626700   		.ascii	"bg\000"
 3074 0db5 12       		.byte	0x12
 3075 0db6 A5       		.byte	0xa5
 3076 0db7 16050000 		.4byte	0x516
 3077 0dbb 00       		.byte	0
 3078 0dbc 08       		.uleb128 0x8
 3079 0dbd 626F7800 		.ascii	"box\000"
 3080 0dc1 12       		.byte	0x12
 3081 0dc2 AD       		.byte	0xad
 3082 0dc3 650D0000 		.4byte	0xd65
 3083 0dc7 04       		.byte	0x4
 3084 0dc8 00       		.byte	0
 3085 0dc9 06       		.uleb128 0x6
 3086 0dca 14       		.byte	0x14
 3087 0dcb 12       		.byte	0x12
 3088 0dcc B5       		.byte	0xb5
 3089 0dcd 0D0E0000 		.4byte	0xe0d
 3090 0dd1 08       		.uleb128 0x8
 3091 0dd2 72656C00 		.ascii	"rel\000"
 3092 0dd6 12       		.byte	0x12
 3093 0dd7 B7       		.byte	0xb7
 3094 0dd8 16050000 		.4byte	0x516
 3095 0ddc 00       		.byte	0
 3096 0ddd 08       		.uleb128 0x8
 3097 0dde 707200   		.ascii	"pr\000"
 3098 0de1 12       		.byte	0x12
 3099 0de2 B8       		.byte	0xb8
 3100 0de3 16050000 		.4byte	0x516
 3101 0de7 04       		.byte	0x4
 3102 0de8 07       		.uleb128 0x7
 3103 0de9 0A080000 		.4byte	.LASF216
 3104 0ded 12       		.byte	0x12
 3105 0dee B9       		.byte	0xb9
 3106 0def 16050000 		.4byte	0x516
 3107 0df3 08       		.byte	0x8
 3108 0df4 07       		.uleb128 0x7
 3109 0df5 DE020000 		.4byte	.LASF217
 3110 0df9 12       		.byte	0x12
 3111 0dfa BA       		.byte	0xba
 3112 0dfb 16050000 		.4byte	0x516
 3113 0dff 0C       		.byte	0xc
 3114 0e00 08       		.uleb128 0x8
 3115 0e01 696E6100 		.ascii	"ina\000"
 3116 0e05 12       		.byte	0x12
 3117 0e06 BB       		.byte	0xbb
 3118 0e07 16050000 		.4byte	0x516
 3119 0e0b 10       		.byte	0x10
 3120 0e0c 00       		.byte	0
 3121 0e0d 06       		.uleb128 0x6
ARM GAS  C:\Users\tmj32\AppData\Local\Temp\ccH9iEPr.s 			page 75


 3122 0e0e 18       		.byte	0x18
 3123 0e0f 12       		.byte	0x12
 3124 0e10 B2       		.byte	0xb2
 3125 0e11 2D0E0000 		.4byte	0xe2d
 3126 0e15 08       		.uleb128 0x8
 3127 0e16 626700   		.ascii	"bg\000"
 3128 0e19 12       		.byte	0x12
 3129 0e1a B4       		.byte	0xb4
 3130 0e1b 16050000 		.4byte	0x516
 3131 0e1f 00       		.byte	0
 3132 0e20 08       		.uleb128 0x8
 3133 0e21 62746E00 		.ascii	"btn\000"
 3134 0e25 12       		.byte	0x12
 3135 0e26 BC       		.byte	0xbc
 3136 0e27 C90D0000 		.4byte	0xdc9
 3137 0e2b 04       		.byte	0x4
 3138 0e2c 00       		.byte	0
 3139 0e2d 06       		.uleb128 0x6
 3140 0e2e 14       		.byte	0x14
 3141 0e2f 12       		.byte	0x12
 3142 0e30 C4       		.byte	0xc4
 3143 0e31 710E0000 		.4byte	0xe71
 3144 0e35 08       		.uleb128 0x8
 3145 0e36 72656C00 		.ascii	"rel\000"
 3146 0e3a 12       		.byte	0x12
 3147 0e3b C6       		.byte	0xc6
 3148 0e3c 16050000 		.4byte	0x516
 3149 0e40 00       		.byte	0
 3150 0e41 08       		.uleb128 0x8
 3151 0e42 707200   		.ascii	"pr\000"
 3152 0e45 12       		.byte	0x12
 3153 0e46 C7       		.byte	0xc7
 3154 0e47 16050000 		.4byte	0x516
 3155 0e4b 04       		.byte	0x4
 3156 0e4c 07       		.uleb128 0x7
 3157 0e4d 0A080000 		.4byte	.LASF216
 3158 0e51 12       		.byte	0x12
 3159 0e52 C8       		.byte	0xc8
 3160 0e53 16050000 		.4byte	0x516
 3161 0e57 08       		.byte	0x8
 3162 0e58 07       		.uleb128 0x7
 3163 0e59 DE020000 		.4byte	.LASF217
 3164 0e5d 12       		.byte	0x12
 3165 0e5e C9       		.byte	0xc9
 3166 0e5f 16050000 		.4byte	0x516
 3167 0e63 0C       		.byte	0xc
 3168 0e64 08       		.uleb128 0x8
 3169 0e65 696E6100 		.ascii	"ina\000"
 3170 0e69 12       		.byte	0x12
 3171 0e6a CA       		.byte	0xca
 3172 0e6b 16050000 		.4byte	0x516
 3173 0e6f 10       		.byte	0x10
 3174 0e70 00       		.byte	0
 3175 0e71 06       		.uleb128 0x6
 3176 0e72 18       		.byte	0x18
 3177 0e73 12       		.byte	0x12
 3178 0e74 C1       		.byte	0xc1
ARM GAS  C:\Users\tmj32\AppData\Local\Temp\ccH9iEPr.s 			page 76


 3179 0e75 910E0000 		.4byte	0xe91
 3180 0e79 08       		.uleb128 0x8
 3181 0e7a 626700   		.ascii	"bg\000"
 3182 0e7d 12       		.byte	0x12
 3183 0e7e C3       		.byte	0xc3
 3184 0e7f 16050000 		.4byte	0x516
 3185 0e83 00       		.byte	0
 3186 0e84 08       		.uleb128 0x8
 3187 0e85 62746E00 		.ascii	"btn\000"
 3188 0e89 12       		.byte	0x12
 3189 0e8a CB       		.byte	0xcb
 3190 0e8b 2D0E0000 		.4byte	0xe2d
 3191 0e8f 04       		.byte	0x4
 3192 0e90 00       		.byte	0
 3193 0e91 06       		.uleb128 0x6
 3194 0e92 0C       		.byte	0xc
 3195 0e93 12       		.byte	0x12
 3196 0e94 D3       		.byte	0xd3
 3197 0e95 BC0E0000 		.4byte	0xebc
 3198 0e99 08       		.uleb128 0x8
 3199 0e9a 626700   		.ascii	"bg\000"
 3200 0e9d 12       		.byte	0x12
 3201 0e9e D5       		.byte	0xd5
 3202 0e9f 16050000 		.4byte	0x516
 3203 0ea3 00       		.byte	0
 3204 0ea4 08       		.uleb128 0x8
 3205 0ea5 72656C00 		.ascii	"rel\000"
 3206 0ea9 12       		.byte	0x12
 3207 0eaa D6       		.byte	0xd6
 3208 0eab 16050000 		.4byte	0x516
 3209 0eaf 04       		.byte	0x4
 3210 0eb0 08       		.uleb128 0x8
 3211 0eb1 707200   		.ascii	"pr\000"
 3212 0eb4 12       		.byte	0x12
 3213 0eb5 D7       		.byte	0xd7
 3214 0eb6 16050000 		.4byte	0x516
 3215 0eba 08       		.byte	0x8
 3216 0ebb 00       		.byte	0
 3217 0ebc 06       		.uleb128 0x6
 3218 0ebd 10       		.byte	0x10
 3219 0ebe 12       		.byte	0x12
 3220 0ebf D0       		.byte	0xd0
 3221 0ec0 DC0E0000 		.4byte	0xedc
 3222 0ec4 08       		.uleb128 0x8
 3223 0ec5 626700   		.ascii	"bg\000"
 3224 0ec8 12       		.byte	0x12
 3225 0ec9 D2       		.byte	0xd2
 3226 0eca 16050000 		.4byte	0x516
 3227 0ece 00       		.byte	0
 3228 0ecf 08       		.uleb128 0x8
 3229 0ed0 62746E00 		.ascii	"btn\000"
 3230 0ed4 12       		.byte	0x12
 3231 0ed5 D8       		.byte	0xd8
 3232 0ed6 910E0000 		.4byte	0xe91
 3233 0eda 04       		.byte	0x4
 3234 0edb 00       		.byte	0
 3235 0edc 06       		.uleb128 0x6
ARM GAS  C:\Users\tmj32\AppData\Local\Temp\ccH9iEPr.s 			page 77


 3236 0edd 0C       		.byte	0xc
 3237 0ede 12       		.byte	0x12
 3238 0edf DD       		.byte	0xdd
 3239 0ee0 070F0000 		.4byte	0xf07
 3240 0ee4 08       		.uleb128 0x8
 3241 0ee5 626700   		.ascii	"bg\000"
 3242 0ee8 12       		.byte	0x12
 3243 0ee9 DF       		.byte	0xdf
 3244 0eea 16050000 		.4byte	0x516
 3245 0eee 00       		.byte	0
 3246 0eef 07       		.uleb128 0x7
 3247 0ef0 FE020000 		.4byte	.LASF234
 3248 0ef4 12       		.byte	0x12
 3249 0ef5 E0       		.byte	0xe0
 3250 0ef6 16050000 		.4byte	0x516
 3251 0efa 04       		.byte	0x4
 3252 0efb 08       		.uleb128 0x8
 3253 0efc 736200   		.ascii	"sb\000"
 3254 0eff 12       		.byte	0x12
 3255 0f00 E1       		.byte	0xe1
 3256 0f01 16050000 		.4byte	0x516
 3257 0f05 08       		.byte	0x8
 3258 0f06 00       		.byte	0
 3259 0f07 06       		.uleb128 0x6
 3260 0f08 10       		.byte	0x10
 3261 0f09 12       		.byte	0x12
 3262 0f0a E6       		.byte	0xe6
 3263 0f0b 3F0F0000 		.4byte	0xf3f
 3264 0f0f 07       		.uleb128 0x7
 3265 0f10 5B050000 		.4byte	.LASF235
 3266 0f14 12       		.byte	0x12
 3267 0f15 E8       		.byte	0xe8
 3268 0f16 16050000 		.4byte	0x516
 3269 0f1a 00       		.byte	0
 3270 0f1b 07       		.uleb128 0x7
 3271 0f1c CD0D0000 		.4byte	.LASF236
 3272 0f20 12       		.byte	0x12
 3273 0f21 E9       		.byte	0xe9
 3274 0f22 16050000 		.4byte	0x516
 3275 0f26 04       		.byte	0x4
 3276 0f27 07       		.uleb128 0x7
 3277 0f28 AF0E0000 		.4byte	.LASF237
 3278 0f2c 12       		.byte	0x12
 3279 0f2d EA       		.byte	0xea
 3280 0f2e 16050000 		.4byte	0x516
 3281 0f32 08       		.byte	0x8
 3282 0f33 08       		.uleb128 0x8
 3283 0f34 736200   		.ascii	"sb\000"
 3284 0f37 12       		.byte	0x12
 3285 0f38 EB       		.byte	0xeb
 3286 0f39 16050000 		.4byte	0x516
 3287 0f3d 0C       		.byte	0xc
 3288 0f3e 00       		.byte	0
 3289 0f3f 06       		.uleb128 0x6
 3290 0f40 0C       		.byte	0xc
 3291 0f41 12       		.byte	0x12
 3292 0f42 F0       		.byte	0xf0
ARM GAS  C:\Users\tmj32\AppData\Local\Temp\ccH9iEPr.s 			page 78


 3293 0f43 6A0F0000 		.4byte	0xf6a
 3294 0f47 08       		.uleb128 0x8
 3295 0f48 626700   		.ascii	"bg\000"
 3296 0f4b 12       		.byte	0x12
 3297 0f4c F2       		.byte	0xf2
 3298 0f4d 16050000 		.4byte	0x516
 3299 0f51 00       		.byte	0
 3300 0f52 07       		.uleb128 0x7
 3301 0f53 AF0E0000 		.4byte	.LASF237
 3302 0f57 12       		.byte	0x12
 3303 0f58 F3       		.byte	0xf3
 3304 0f59 16050000 		.4byte	0x516
 3305 0f5d 04       		.byte	0x4
 3306 0f5e 08       		.uleb128 0x8
 3307 0f5f 736200   		.ascii	"sb\000"
 3308 0f62 12       		.byte	0x12
 3309 0f63 F4       		.byte	0xf4
 3310 0f64 16050000 		.4byte	0x516
 3311 0f68 08       		.byte	0x8
 3312 0f69 00       		.byte	0
 3313 0f6a 06       		.uleb128 0x6
 3314 0f6b 14       		.byte	0x14
 3315 0f6c 12       		.byte	0x12
 3316 0f6d FE       		.byte	0xfe
 3317 0f6e B30F0000 		.4byte	0xfb3
 3318 0f72 19       		.uleb128 0x19
 3319 0f73 72656C00 		.ascii	"rel\000"
 3320 0f77 12       		.byte	0x12
 3321 0f78 0001     		.2byte	0x100
 3322 0f7a 16050000 		.4byte	0x516
 3323 0f7e 00       		.byte	0
 3324 0f7f 19       		.uleb128 0x19
 3325 0f80 707200   		.ascii	"pr\000"
 3326 0f83 12       		.byte	0x12
 3327 0f84 0101     		.2byte	0x101
 3328 0f86 16050000 		.4byte	0x516
 3329 0f8a 04       		.byte	0x4
 3330 0f8b 1A       		.uleb128 0x1a
 3331 0f8c 0A080000 		.4byte	.LASF216
 3332 0f90 12       		.byte	0x12
 3333 0f91 0201     		.2byte	0x102
 3334 0f93 16050000 		.4byte	0x516
 3335 0f97 08       		.byte	0x8
 3336 0f98 1A       		.uleb128 0x1a
 3337 0f99 DE020000 		.4byte	.LASF217
 3338 0f9d 12       		.byte	0x12
 3339 0f9e 0301     		.2byte	0x103
 3340 0fa0 16050000 		.4byte	0x516
 3341 0fa4 0C       		.byte	0xc
 3342 0fa5 19       		.uleb128 0x19
 3343 0fa6 696E6100 		.ascii	"ina\000"
 3344 0faa 12       		.byte	0x12
 3345 0fab 0401     		.2byte	0x104
 3346 0fad 16050000 		.4byte	0x516
 3347 0fb1 10       		.byte	0x10
 3348 0fb2 00       		.byte	0
 3349 0fb3 06       		.uleb128 0x6
ARM GAS  C:\Users\tmj32\AppData\Local\Temp\ccH9iEPr.s 			page 79


 3350 0fb4 20       		.byte	0x20
 3351 0fb5 12       		.byte	0x12
 3352 0fb6 F9       		.byte	0xf9
 3353 0fb7 EB0F0000 		.4byte	0xfeb
 3354 0fbb 08       		.uleb128 0x8
 3355 0fbc 626700   		.ascii	"bg\000"
 3356 0fbf 12       		.byte	0x12
 3357 0fc0 FB       		.byte	0xfb
 3358 0fc1 16050000 		.4byte	0x516
 3359 0fc5 00       		.byte	0
 3360 0fc6 07       		.uleb128 0x7
 3361 0fc7 FE020000 		.4byte	.LASF234
 3362 0fcb 12       		.byte	0x12
 3363 0fcc FC       		.byte	0xfc
 3364 0fcd 16050000 		.4byte	0x516
 3365 0fd1 04       		.byte	0x4
 3366 0fd2 08       		.uleb128 0x8
 3367 0fd3 736200   		.ascii	"sb\000"
 3368 0fd6 12       		.byte	0x12
 3369 0fd7 FD       		.byte	0xfd
 3370 0fd8 16050000 		.4byte	0x516
 3371 0fdc 08       		.byte	0x8
 3372 0fdd 19       		.uleb128 0x19
 3373 0fde 62746E00 		.ascii	"btn\000"
 3374 0fe2 12       		.byte	0x12
 3375 0fe3 0501     		.2byte	0x105
 3376 0fe5 6A0F0000 		.4byte	0xf6a
 3377 0fe9 0C       		.byte	0xc
 3378 0fea 00       		.byte	0
 3379 0feb 1B       		.uleb128 0x1b
 3380 0fec 0C       		.byte	0xc
 3381 0fed 12       		.byte	0x12
 3382 0fee 0A01     		.2byte	0x10a
 3383 0ff0 1A100000 		.4byte	0x101a
 3384 0ff4 19       		.uleb128 0x19
 3385 0ff5 626700   		.ascii	"bg\000"
 3386 0ff8 12       		.byte	0x12
 3387 0ff9 0C01     		.2byte	0x10c
 3388 0ffb 16050000 		.4byte	0x516
 3389 0fff 00       		.byte	0
 3390 1000 19       		.uleb128 0x19
 3391 1001 73656C00 		.ascii	"sel\000"
 3392 1005 12       		.byte	0x12
 3393 1006 0D01     		.2byte	0x10d
 3394 1008 16050000 		.4byte	0x516
 3395 100c 04       		.byte	0x4
 3396 100d 19       		.uleb128 0x19
 3397 100e 736200   		.ascii	"sb\000"
 3398 1011 12       		.byte	0x12
 3399 1012 0E01     		.2byte	0x10e
 3400 1014 16050000 		.4byte	0x516
 3401 1018 08       		.byte	0x8
 3402 1019 00       		.byte	0
 3403 101a 1B       		.uleb128 0x1b
 3404 101b 08       		.byte	0x8
 3405 101c 12       		.byte	0x12
 3406 101d 1301     		.2byte	0x113
ARM GAS  C:\Users\tmj32\AppData\Local\Temp\ccH9iEPr.s 			page 80


 3407 101f 3D100000 		.4byte	0x103d
 3408 1023 19       		.uleb128 0x19
 3409 1024 626700   		.ascii	"bg\000"
 3410 1027 12       		.byte	0x12
 3411 1028 1501     		.2byte	0x115
 3412 102a 16050000 		.4byte	0x516
 3413 102e 00       		.byte	0
 3414 102f 19       		.uleb128 0x19
 3415 1030 73656C00 		.ascii	"sel\000"
 3416 1034 12       		.byte	0x12
 3417 1035 1601     		.2byte	0x116
 3418 1037 16050000 		.4byte	0x516
 3419 103b 04       		.byte	0x4
 3420 103c 00       		.byte	0
 3421 103d 1B       		.uleb128 0x1b
 3422 103e 14       		.byte	0x14
 3423 103f 12       		.byte	0x12
 3424 1040 1F01     		.2byte	0x11f
 3425 1042 86100000 		.4byte	0x1086
 3426 1046 19       		.uleb128 0x19
 3427 1047 626700   		.ascii	"bg\000"
 3428 104a 12       		.byte	0x12
 3429 104b 2101     		.2byte	0x121
 3430 104d 16050000 		.4byte	0x516
 3431 1051 00       		.byte	0
 3432 1052 19       		.uleb128 0x19
 3433 1053 72656C00 		.ascii	"rel\000"
 3434 1057 12       		.byte	0x12
 3435 1058 2201     		.2byte	0x122
 3436 105a 16050000 		.4byte	0x516
 3437 105e 04       		.byte	0x4
 3438 105f 19       		.uleb128 0x19
 3439 1060 707200   		.ascii	"pr\000"
 3440 1063 12       		.byte	0x12
 3441 1064 2301     		.2byte	0x123
 3442 1066 16050000 		.4byte	0x516
 3443 106a 08       		.byte	0x8
 3444 106b 1A       		.uleb128 0x1a
 3445 106c 0A080000 		.4byte	.LASF216
 3446 1070 12       		.byte	0x12
 3447 1071 2401     		.2byte	0x124
 3448 1073 16050000 		.4byte	0x516
 3449 1077 0C       		.byte	0xc
 3450 1078 1A       		.uleb128 0x1a
 3451 1079 DE020000 		.4byte	.LASF217
 3452 107d 12       		.byte	0x12
 3453 107e 2501     		.2byte	0x125
 3454 1080 16050000 		.4byte	0x516
 3455 1084 10       		.byte	0x10
 3456 1085 00       		.byte	0
 3457 1086 1B       		.uleb128 0x1b
 3458 1087 1C       		.byte	0x1c
 3459 1088 12       		.byte	0x12
 3460 1089 1B01     		.2byte	0x11b
 3461 108b B6100000 		.4byte	0x10b6
 3462 108f 19       		.uleb128 0x19
 3463 1090 626700   		.ascii	"bg\000"
ARM GAS  C:\Users\tmj32\AppData\Local\Temp\ccH9iEPr.s 			page 81


 3464 1093 12       		.byte	0x12
 3465 1094 1D01     		.2byte	0x11d
 3466 1096 16050000 		.4byte	0x516
 3467 109a 00       		.byte	0
 3468 109b 1A       		.uleb128 0x1a
 3469 109c 65070000 		.4byte	.LASF223
 3470 10a0 12       		.byte	0x12
 3471 10a1 1E01     		.2byte	0x11e
 3472 10a3 16050000 		.4byte	0x516
 3473 10a7 04       		.byte	0x4
 3474 10a8 19       		.uleb128 0x19
 3475 10a9 62746E00 		.ascii	"btn\000"
 3476 10ad 12       		.byte	0x12
 3477 10ae 2601     		.2byte	0x126
 3478 10b0 3D100000 		.4byte	0x103d
 3479 10b4 08       		.byte	0x8
 3480 10b5 00       		.byte	0
 3481 10b6 1B       		.uleb128 0x1b
 3482 10b7 0C       		.byte	0xc
 3483 10b8 12       		.byte	0x12
 3484 10b9 2B01     		.2byte	0x12b
 3485 10bb E5100000 		.4byte	0x10e5
 3486 10bf 19       		.uleb128 0x19
 3487 10c0 626700   		.ascii	"bg\000"
 3488 10c3 12       		.byte	0x12
 3489 10c4 2D01     		.2byte	0x12d
 3490 10c6 16050000 		.4byte	0x516
 3491 10ca 00       		.byte	0
 3492 10cb 1A       		.uleb128 0x1a
 3493 10cc FE020000 		.4byte	.LASF234
 3494 10d0 12       		.byte	0x12
 3495 10d1 2E01     		.2byte	0x12e
 3496 10d3 16050000 		.4byte	0x516
 3497 10d7 04       		.byte	0x4
 3498 10d8 19       		.uleb128 0x19
 3499 10d9 736200   		.ascii	"sb\000"
 3500 10dc 12       		.byte	0x12
 3501 10dd 2F01     		.2byte	0x12f
 3502 10df 16050000 		.4byte	0x516
 3503 10e3 08       		.byte	0x8
 3504 10e4 00       		.byte	0
 3505 10e5 1B       		.uleb128 0x1b
 3506 10e6 08       		.byte	0x8
 3507 10e7 12       		.byte	0x12
 3508 10e8 3401     		.2byte	0x134
 3509 10ea 08110000 		.4byte	0x1108
 3510 10ee 19       		.uleb128 0x19
 3511 10ef 626700   		.ascii	"bg\000"
 3512 10f2 12       		.byte	0x12
 3513 10f3 3601     		.2byte	0x136
 3514 10f5 16050000 		.4byte	0x516
 3515 10f9 00       		.byte	0
 3516 10fa 1A       		.uleb128 0x1a
 3517 10fb 47000000 		.4byte	.LASF238
 3518 10ff 12       		.byte	0x12
 3519 1100 3701     		.2byte	0x137
 3520 1102 16050000 		.4byte	0x516
ARM GAS  C:\Users\tmj32\AppData\Local\Temp\ccH9iEPr.s 			page 82


 3521 1106 04       		.byte	0x4
 3522 1107 00       		.byte	0
 3523 1108 1B       		.uleb128 0x1b
 3524 1109 08       		.byte	0x8
 3525 110a 12       		.byte	0x12
 3526 110b 4201     		.2byte	0x142
 3527 110d 2B110000 		.4byte	0x112b
 3528 1111 19       		.uleb128 0x19
 3529 1112 72656C00 		.ascii	"rel\000"
 3530 1116 12       		.byte	0x12
 3531 1117 4401     		.2byte	0x144
 3532 1119 16050000 		.4byte	0x516
 3533 111d 00       		.byte	0
 3534 111e 19       		.uleb128 0x19
 3535 111f 707200   		.ascii	"pr\000"
 3536 1122 12       		.byte	0x12
 3537 1123 4501     		.2byte	0x145
 3538 1125 16050000 		.4byte	0x516
 3539 1129 04       		.byte	0x4
 3540 112a 00       		.byte	0
 3541 112b 1B       		.uleb128 0x1b
 3542 112c 18       		.byte	0x18
 3543 112d 12       		.byte	0x12
 3544 112e 3C01     		.2byte	0x13c
 3545 1130 74110000 		.4byte	0x1174
 3546 1134 19       		.uleb128 0x19
 3547 1135 626700   		.ascii	"bg\000"
 3548 1138 12       		.byte	0x12
 3549 1139 3E01     		.2byte	0x13e
 3550 113b 16050000 		.4byte	0x516
 3551 113f 00       		.byte	0
 3552 1140 19       		.uleb128 0x19
 3553 1141 736200   		.ascii	"sb\000"
 3554 1144 12       		.byte	0x12
 3555 1145 3F01     		.2byte	0x13f
 3556 1147 16050000 		.4byte	0x516
 3557 114b 04       		.byte	0x4
 3558 114c 1A       		.uleb128 0x1a
 3559 114d 92030000 		.4byte	.LASF227
 3560 1151 12       		.byte	0x12
 3561 1152 4001     		.2byte	0x140
 3562 1154 16050000 		.4byte	0x516
 3563 1158 08       		.byte	0x8
 3564 1159 1A       		.uleb128 0x1a
 3565 115a 360D0000 		.4byte	.LASF239
 3566 115e 12       		.byte	0x12
 3567 115f 4101     		.2byte	0x141
 3568 1161 16050000 		.4byte	0x516
 3569 1165 0C       		.byte	0xc
 3570 1166 19       		.uleb128 0x19
 3571 1167 62746E00 		.ascii	"btn\000"
 3572 116b 12       		.byte	0x12
 3573 116c 4601     		.2byte	0x146
 3574 116e 08110000 		.4byte	0x1108
 3575 1172 10       		.byte	0x10
 3576 1173 00       		.byte	0
 3577 1174 1C       		.uleb128 0x1c
ARM GAS  C:\Users\tmj32\AppData\Local\Temp\ccH9iEPr.s 			page 83


 3578 1175 A801     		.2byte	0x1a8
 3579 1177 12       		.byte	0x12
 3580 1178 29       		.byte	0x29
 3581 1179 16130000 		.4byte	0x1316
 3582 117d 08       		.uleb128 0x8
 3583 117e 73637200 		.ascii	"scr\000"
 3584 1182 12       		.byte	0x12
 3585 1183 2B       		.byte	0x2b
 3586 1184 16050000 		.4byte	0x516
 3587 1188 00       		.byte	0
 3588 1189 08       		.uleb128 0x8
 3589 118a 626700   		.ascii	"bg\000"
 3590 118d 12       		.byte	0x12
 3591 118e 2C       		.byte	0x2c
 3592 118f 16050000 		.4byte	0x516
 3593 1193 04       		.byte	0x4
 3594 1194 07       		.uleb128 0x7
 3595 1195 430B0000 		.4byte	.LASF240
 3596 1199 12       		.byte	0x12
 3597 119a 2D       		.byte	0x2d
 3598 119b 16050000 		.4byte	0x516
 3599 119f 08       		.byte	0x8
 3600 11a0 07       		.uleb128 0x7
 3601 11a1 CD010000 		.4byte	.LASF193
 3602 11a5 12       		.byte	0x12
 3603 11a6 30       		.byte	0x30
 3604 11a7 16050000 		.4byte	0x516
 3605 11ab 0C       		.byte	0xc
 3606 11ac 08       		.uleb128 0x8
 3607 11ad 62746E00 		.ascii	"btn\000"
 3608 11b1 12       		.byte	0x12
 3609 11b2 3B       		.byte	0x3b
 3610 11b3 8E0B0000 		.4byte	0xb8e
 3611 11b7 10       		.byte	0x10
 3612 11b8 07       		.uleb128 0x7
 3613 11b9 320B0000 		.4byte	.LASF241
 3614 11bd 12       		.byte	0x12
 3615 11be 46       		.byte	0x46
 3616 11bf D20B0000 		.4byte	0xbd2
 3617 11c3 24       		.byte	0x24
 3618 11c4 07       		.uleb128 0x7
 3619 11c5 050E0000 		.4byte	.LASF207
 3620 11c9 12       		.byte	0x12
 3621 11ca 4F       		.byte	0x4f
 3622 11cb 160C0000 		.4byte	0xc16
 3623 11cf 38       		.byte	0x38
 3624 11d0 08       		.uleb128 0x8
 3625 11d1 696D6700 		.ascii	"img\000"
 3626 11d5 12       		.byte	0x12
 3627 11d6 57       		.byte	0x57
 3628 11d7 430C0000 		.4byte	0xc43
 3629 11db 44       		.byte	0x44
 3630 11dc 07       		.uleb128 0x7
 3631 11dd 11060000 		.4byte	.LASF70
 3632 11e1 12       		.byte	0x12
 3633 11e2 5E       		.byte	0x5e
 3634 11e3 640C0000 		.4byte	0xc64
ARM GAS  C:\Users\tmj32\AppData\Local\Temp\ccH9iEPr.s 			page 84


 3635 11e7 4C       		.byte	0x4c
 3636 11e8 08       		.uleb128 0x8
 3637 11e9 6C656400 		.ascii	"led\000"
 3638 11ed 12       		.byte	0x12
 3639 11ee 62       		.byte	0x62
 3640 11ef 16050000 		.4byte	0x516
 3641 11f3 50       		.byte	0x50
 3642 11f4 08       		.uleb128 0x8
 3643 11f5 62617200 		.ascii	"bar\000"
 3644 11f9 12       		.byte	0x12
 3645 11fa 6A       		.byte	0x6a
 3646 11fb 790C0000 		.4byte	0xc79
 3647 11ff 54       		.byte	0x54
 3648 1200 07       		.uleb128 0x7
 3649 1201 190E0000 		.4byte	.LASF242
 3650 1205 12       		.byte	0x12
 3651 1206 73       		.byte	0x73
 3652 1207 990C0000 		.4byte	0xc99
 3653 120b 5C       		.byte	0x5c
 3654 120c 07       		.uleb128 0x7
 3655 120d A5000000 		.4byte	.LASF243
 3656 1211 12       		.byte	0x12
 3657 1212 77       		.byte	0x77
 3658 1213 16050000 		.4byte	0x516
 3659 1217 68       		.byte	0x68
 3660 1218 07       		.uleb128 0x7
 3661 1219 9D080000 		.4byte	.LASF244
 3662 121d 12       		.byte	0x12
 3663 121e 7B       		.byte	0x7b
 3664 121f 16050000 		.4byte	0x516
 3665 1223 6C       		.byte	0x6c
 3666 1224 08       		.uleb128 0x8
 3667 1225 61726300 		.ascii	"arc\000"
 3668 1229 12       		.byte	0x12
 3669 122a 7F       		.byte	0x7f
 3670 122b 16050000 		.4byte	0x516
 3671 122f 70       		.byte	0x70
 3672 1230 07       		.uleb128 0x7
 3673 1231 3F0E0000 		.4byte	.LASF245
 3674 1235 12       		.byte	0x12
 3675 1236 83       		.byte	0x83
 3676 1237 16050000 		.4byte	0x516
 3677 123b 74       		.byte	0x74
 3678 123c 08       		.uleb128 0x8
 3679 123d 737700   		.ascii	"sw\000"
 3680 1240 12       		.byte	0x12
 3681 1241 8D       		.byte	0x8d
 3682 1242 C50C0000 		.4byte	0xcc5
 3683 1246 78       		.byte	0x78
 3684 1247 07       		.uleb128 0x7
 3685 1248 E8010000 		.4byte	.LASF246
 3686 124c 12       		.byte	0x12
 3687 124d 91       		.byte	0x91
 3688 124e 16050000 		.4byte	0x516
 3689 1252 88       		.byte	0x88
 3690 1253 07       		.uleb128 0x7
 3691 1254 160C0000 		.4byte	.LASF247
ARM GAS  C:\Users\tmj32\AppData\Local\Temp\ccH9iEPr.s 			page 85


 3692 1258 12       		.byte	0x12
 3693 1259 9F       		.byte	0x9f
 3694 125a FD0C0000 		.4byte	0xcfd
 3695 125e 8C       		.byte	0x8c
 3696 125f 08       		.uleb128 0x8
 3697 1260 636200   		.ascii	"cb\000"
 3698 1263 12       		.byte	0x12
 3699 1264 AE       		.byte	0xae
 3700 1265 A90D0000 		.4byte	0xda9
 3701 1269 AC       		.byte	0xac
 3702 126a 07       		.uleb128 0x7
 3703 126b AF020000 		.4byte	.LASF248
 3704 126f 12       		.byte	0x12
 3705 1270 BD       		.byte	0xbd
 3706 1271 0D0E0000 		.4byte	0xe0d
 3707 1275 C4       		.byte	0xc4
 3708 1276 08       		.uleb128 0x8
 3709 1277 6B6200   		.ascii	"kb\000"
 3710 127a 12       		.byte	0x12
 3711 127b CC       		.byte	0xcc
 3712 127c 710E0000 		.4byte	0xe71
 3713 1280 DC       		.byte	0xdc
 3714 1281 07       		.uleb128 0x7
 3715 1282 05080000 		.4byte	.LASF249
 3716 1286 12       		.byte	0x12
 3717 1287 D9       		.byte	0xd9
 3718 1288 BC0E0000 		.4byte	0xebc
 3719 128c F4       		.byte	0xf4
 3720 128d 1D       		.uleb128 0x1d
 3721 128e 8F080000 		.4byte	.LASF250
 3722 1292 12       		.byte	0x12
 3723 1293 E2       		.byte	0xe2
 3724 1294 DC0E0000 		.4byte	0xedc
 3725 1298 0401     		.2byte	0x104
 3726 129a 1E       		.uleb128 0x1e
 3727 129b 746100   		.ascii	"ta\000"
 3728 129e 12       		.byte	0x12
 3729 129f EC       		.byte	0xec
 3730 12a0 070F0000 		.4byte	0xf07
 3731 12a4 1001     		.2byte	0x110
 3732 12a6 1D       		.uleb128 0x1d
 3733 12a7 BA0C0000 		.4byte	.LASF251
 3734 12ab 12       		.byte	0x12
 3735 12ac F5       		.byte	0xf5
 3736 12ad 3F0F0000 		.4byte	0xf3f
 3737 12b1 2001     		.2byte	0x120
 3738 12b3 1F       		.uleb128 0x1f
 3739 12b4 76080000 		.4byte	.LASF252
 3740 12b8 12       		.byte	0x12
 3741 12b9 0601     		.2byte	0x106
 3742 12bb B30F0000 		.4byte	0xfb3
 3743 12bf 2C01     		.2byte	0x12c
 3744 12c1 1F       		.uleb128 0x1f
 3745 12c2 8A040000 		.4byte	.LASF253
 3746 12c6 12       		.byte	0x12
 3747 12c7 0F01     		.2byte	0x10f
 3748 12c9 EB0F0000 		.4byte	0xfeb
ARM GAS  C:\Users\tmj32\AppData\Local\Temp\ccH9iEPr.s 			page 86


 3749 12cd 4C01     		.2byte	0x14c
 3750 12cf 1F       		.uleb128 0x1f
 3751 12d0 CF0E0000 		.4byte	.LASF254
 3752 12d4 12       		.byte	0x12
 3753 12d5 1701     		.2byte	0x117
 3754 12d7 1A100000 		.4byte	0x101a
 3755 12db 5801     		.2byte	0x158
 3756 12dd 1F       		.uleb128 0x1f
 3757 12de 92070000 		.4byte	.LASF255
 3758 12e2 12       		.byte	0x12
 3759 12e3 2701     		.2byte	0x127
 3760 12e5 86100000 		.4byte	0x1086
 3761 12e9 6001     		.2byte	0x160
 3762 12eb 1F       		.uleb128 0x1f
 3763 12ec 3F020000 		.4byte	.LASF256
 3764 12f0 12       		.byte	0x12
 3765 12f1 3001     		.2byte	0x130
 3766 12f3 B6100000 		.4byte	0x10b6
 3767 12f7 7C01     		.2byte	0x17c
 3768 12f9 1F       		.uleb128 0x1f
 3769 12fa BE030000 		.4byte	.LASF257
 3770 12fe 12       		.byte	0x12
 3771 12ff 3801     		.2byte	0x138
 3772 1301 E5100000 		.4byte	0x10e5
 3773 1305 8801     		.2byte	0x188
 3774 1307 20       		.uleb128 0x20
 3775 1308 77696E00 		.ascii	"win\000"
 3776 130c 12       		.byte	0x12
 3777 130d 4701     		.2byte	0x147
 3778 130f 2B110000 		.4byte	0x112b
 3779 1313 9001     		.2byte	0x190
 3780 1315 00       		.byte	0
 3781 1316 1C       		.uleb128 0x1c
 3782 1317 A801     		.2byte	0x1a8
 3783 1319 12       		.byte	0x12
 3784 131a 27       		.byte	0x27
 3785 131b 2D130000 		.4byte	0x132d
 3786 131f 1A       		.uleb128 0x1a
 3787 1320 F7080000 		.4byte	.LASF258
 3788 1324 12       		.byte	0x12
 3789 1325 4901     		.2byte	0x149
 3790 1327 74110000 		.4byte	0x1174
 3791 132b 00       		.byte	0
 3792 132c 00       		.byte	0
 3793 132d 12       		.uleb128 0x12
 3794 132e 18050000 		.4byte	.LASF259
 3795 1332 12       		.byte	0x12
 3796 1333 5401     		.2byte	0x154
 3797 1335 16130000 		.4byte	0x1316
 3798 1339 21       		.uleb128 0x21
 3799 133a D50D0000 		.4byte	.LASF264
 3800 133e 01       		.byte	0x1
 3801 133f 7C       		.byte	0x7c
 3802 1340 AD000000 		.4byte	0xad
 3803 1344 00000000 		.4byte	.LFB0
 3804 1348 18000000 		.4byte	.LFE0-.LFB0
 3805 134c 01       		.uleb128 0x1
ARM GAS  C:\Users\tmj32\AppData\Local\Temp\ccH9iEPr.s 			page 87


 3806 134d 9C       		.byte	0x9c
 3807 134e 61130000 		.4byte	0x1361
 3808 1352 22       		.uleb128 0x22
 3809 1353 0F0D0000 		.4byte	.LASF260
 3810 1357 01       		.byte	0x1
 3811 1358 7C       		.byte	0x7c
 3812 1359 4F040000 		.4byte	0x44f
 3813 135d 02       		.uleb128 0x2
 3814 135e 91       		.byte	0x91
 3815 135f 74       		.sleb128 -12
 3816 1360 00       		.byte	0
 3817 1361 23       		.uleb128 0x23
 3818 1362 38050000 		.4byte	.LASF261
 3819 1366 02       		.byte	0x2
 3820 1367 84       		.byte	0x84
 3821 1368 00000000 		.4byte	.LFB32
 3822 136c 26000000 		.4byte	.LFE32-.LFB32
 3823 1370 01       		.uleb128 0x1
 3824 1371 9C       		.byte	0x9c
 3825 1372 93130000 		.4byte	0x1393
 3826 1376 22       		.uleb128 0x22
 3827 1377 CD010000 		.4byte	.LASF193
 3828 137b 02       		.byte	0x2
 3829 137c 84       		.byte	0x84
 3830 137d 410B0000 		.4byte	0xb41
 3831 1381 02       		.uleb128 0x2
 3832 1382 91       		.byte	0x91
 3833 1383 74       		.sleb128 -12
 3834 1384 24       		.uleb128 0x24
 3835 1385 66697400 		.ascii	"fit\000"
 3836 1389 02       		.byte	0x2
 3837 138a 84       		.byte	0x84
 3838 138b 76090000 		.4byte	0x976
 3839 138f 02       		.uleb128 0x2
 3840 1390 91       		.byte	0x91
 3841 1391 73       		.sleb128 -13
 3842 1392 00       		.byte	0
 3843 1393 23       		.uleb128 0x23
 3844 1394 C2080000 		.4byte	.LASF262
 3845 1398 03       		.byte	0x3
 3846 1399 97       		.byte	0x97
 3847 139a 00000000 		.4byte	.LFB35
 3848 139e 1E000000 		.4byte	.LFE35-.LFB35
 3849 13a2 01       		.uleb128 0x1
 3850 13a3 9C       		.byte	0x9c
 3851 13a4 C5130000 		.4byte	0x13c5
 3852 13a8 24       		.uleb128 0x24
 3853 13a9 62746E00 		.ascii	"btn\000"
 3854 13ad 03       		.byte	0x3
 3855 13ae 97       		.byte	0x97
 3856 13af 410B0000 		.4byte	0xb41
 3857 13b3 02       		.uleb128 0x2
 3858 13b4 91       		.byte	0x91
 3859 13b5 74       		.sleb128 -12
 3860 13b6 22       		.uleb128 0x22
 3861 13b7 86070000 		.4byte	.LASF168
 3862 13bb 03       		.byte	0x3
ARM GAS  C:\Users\tmj32\AppData\Local\Temp\ccH9iEPr.s 			page 88


 3863 13bc 97       		.byte	0x97
 3864 13bd 40090000 		.4byte	0x940
 3865 13c1 02       		.uleb128 0x2
 3866 13c2 91       		.byte	0x91
 3867 13c3 73       		.sleb128 -13
 3868 13c4 00       		.byte	0
 3869 13c5 23       		.uleb128 0x23
 3870 13c6 30020000 		.4byte	.LASF263
 3871 13ca 03       		.byte	0x3
 3872 13cb BC       		.byte	0xbc
 3873 13cc 00000000 		.4byte	.LFB38
 3874 13d0 1E000000 		.4byte	.LFE38-.LFB38
 3875 13d4 01       		.uleb128 0x1
 3876 13d5 9C       		.byte	0x9c
 3877 13d6 F7130000 		.4byte	0x13f7
 3878 13da 24       		.uleb128 0x24
 3879 13db 62746E00 		.ascii	"btn\000"
 3880 13df 03       		.byte	0x3
 3881 13e0 BC       		.byte	0xbc
 3882 13e1 410B0000 		.4byte	0xb41
 3883 13e5 02       		.uleb128 0x2
 3884 13e6 91       		.byte	0x91
 3885 13e7 74       		.sleb128 -12
 3886 13e8 24       		.uleb128 0x24
 3887 13e9 66697400 		.ascii	"fit\000"
 3888 13ed 03       		.byte	0x3
 3889 13ee BC       		.byte	0xbc
 3890 13ef 76090000 		.4byte	0x976
 3891 13f3 02       		.uleb128 0x2
 3892 13f4 91       		.byte	0x91
 3893 13f5 73       		.sleb128 -13
 3894 13f6 00       		.byte	0
 3895 13f7 25       		.uleb128 0x25
 3896 13f8 0D020000 		.4byte	.LASF265
 3897 13fc 04       		.byte	0x4
 3898 13fd 2B01     		.2byte	0x12b
 3899 13ff A4080000 		.4byte	0x8a4
 3900 1403 00000000 		.4byte	.LFB45
 3901 1407 1C000000 		.4byte	.LFE45-.LFB45
 3902 140b 01       		.uleb128 0x1
 3903 140c 9C       		.byte	0x9c
 3904 140d 30140000 		.4byte	0x1430
 3905 1411 26       		.uleb128 0x26
 3906 1412 050E0000 		.4byte	.LASF207
 3907 1416 04       		.byte	0x4
 3908 1417 2B01     		.2byte	0x12b
 3909 1419 30140000 		.4byte	0x1430
 3910 141d 02       		.uleb128 0x2
 3911 141e 91       		.byte	0x91
 3912 141f 74       		.sleb128 -12
 3913 1420 26       		.uleb128 0x26
 3914 1421 74010000 		.4byte	.LASF48
 3915 1425 04       		.byte	0x4
 3916 1426 2B01     		.2byte	0x12b
 3917 1428 090B0000 		.4byte	0xb09
 3918 142c 02       		.uleb128 0x2
 3919 142d 91       		.byte	0x91
ARM GAS  C:\Users\tmj32\AppData\Local\Temp\ccH9iEPr.s 			page 89


 3920 142e 73       		.sleb128 -13
 3921 142f 00       		.byte	0
 3922 1430 0D       		.uleb128 0xd
 3923 1431 04       		.byte	0x4
 3924 1432 36140000 		.4byte	0x1436
 3925 1436 0E       		.uleb128 0xe
 3926 1437 AF080000 		.4byte	0x8af
 3927 143b 27       		.uleb128 0x27
 3928 143c 23050000 		.4byte	.LASF272
 3929 1440 05       		.byte	0x5
 3930 1441 35       		.byte	0x35
 3931 1442 410B0000 		.4byte	0xb41
 3932 1446 00000000 		.4byte	.LFB50
 3933 144a D4010000 		.4byte	.LFE50-.LFB50
 3934 144e 01       		.uleb128 0x1
 3935 144f 9C       		.byte	0x9c
 3936 1450 C0140000 		.4byte	0x14c0
 3937 1454 24       		.uleb128 0x24
 3938 1455 70617200 		.ascii	"par\000"
 3939 1459 05       		.byte	0x5
 3940 145a 35       		.byte	0x35
 3941 145b 410B0000 		.4byte	0xb41
 3942 145f 02       		.uleb128 0x2
 3943 1460 91       		.byte	0x91
 3944 1461 64       		.sleb128 -28
 3945 1462 22       		.uleb128 0x22
 3946 1463 53020000 		.4byte	.LASF266
 3947 1467 05       		.byte	0x5
 3948 1468 35       		.byte	0x35
 3949 1469 30140000 		.4byte	0x1430
 3950 146d 02       		.uleb128 0x2
 3951 146e 91       		.byte	0x91
 3952 146f 60       		.sleb128 -32
 3953 1470 28       		.uleb128 0x28
 3954 1471 D0050000 		.4byte	.LASF267
 3955 1475 05       		.byte	0x5
 3956 1476 3B       		.byte	0x3b
 3957 1477 410B0000 		.4byte	0xb41
 3958 147b 02       		.uleb128 0x2
 3959 147c 91       		.byte	0x91
 3960 147d 74       		.sleb128 -12
 3961 147e 29       		.uleb128 0x29
 3962 147f 65787400 		.ascii	"ext\000"
 3963 1483 05       		.byte	0x5
 3964 1484 42       		.byte	0x42
 3965 1485 C0140000 		.4byte	0x14c0
 3966 1489 02       		.uleb128 0x2
 3967 148a 91       		.byte	0x91
 3968 148b 70       		.sleb128 -16
 3969 148c 2A       		.uleb128 0x2a
 3970 148d 7C000000 		.4byte	.LBB2
 3971 1491 EC000000 		.4byte	.LBE2-.LBB2
 3972 1495 A7140000 		.4byte	0x14a7
 3973 1499 29       		.uleb128 0x29
 3974 149a 746800   		.ascii	"th\000"
 3975 149d 05       		.byte	0x5
 3976 149e 5B       		.byte	0x5b
ARM GAS  C:\Users\tmj32\AppData\Local\Temp\ccH9iEPr.s 			page 90


 3977 149f C6140000 		.4byte	0x14c6
 3978 14a3 02       		.uleb128 0x2
 3979 14a4 91       		.byte	0x91
 3980 14a5 6C       		.sleb128 -20
 3981 14a6 00       		.byte	0
 3982 14a7 2B       		.uleb128 0x2b
 3983 14a8 68010000 		.4byte	.LBB3
 3984 14ac 32000000 		.4byte	.LBE3-.LBB3
 3985 14b0 28       		.uleb128 0x28
 3986 14b1 2D0D0000 		.4byte	.LASF268
 3987 14b5 05       		.byte	0x5
 3988 14b6 68       		.byte	0x68
 3989 14b7 C0140000 		.4byte	0x14c0
 3990 14bb 02       		.uleb128 0x2
 3991 14bc 91       		.byte	0x91
 3992 14bd 68       		.sleb128 -24
 3993 14be 00       		.byte	0
 3994 14bf 00       		.byte	0
 3995 14c0 0D       		.uleb128 0xd
 3996 14c1 04       		.byte	0x4
 3997 14c2 470B0000 		.4byte	0xb47
 3998 14c6 0D       		.uleb128 0xd
 3999 14c7 04       		.byte	0x4
 4000 14c8 2D130000 		.4byte	0x132d
 4001 14cc 2C       		.uleb128 0x2c
 4002 14cd 35010000 		.4byte	.LASF269
 4003 14d1 05       		.byte	0x5
 4004 14d2 81       		.byte	0x81
 4005 14d3 00000000 		.4byte	.LFB51
 4006 14d7 26000000 		.4byte	.LFE51-.LFB51
 4007 14db 01       		.uleb128 0x1
 4008 14dc 9C       		.byte	0x9c
 4009 14dd 0B150000 		.4byte	0x150b
 4010 14e1 24       		.uleb128 0x24
 4011 14e2 636200   		.ascii	"cb\000"
 4012 14e5 05       		.byte	0x5
 4013 14e6 81       		.byte	0x81
 4014 14e7 410B0000 		.4byte	0xb41
 4015 14eb 02       		.uleb128 0x2
 4016 14ec 91       		.byte	0x91
 4017 14ed 6C       		.sleb128 -20
 4018 14ee 24       		.uleb128 0x24
 4019 14ef 74787400 		.ascii	"txt\000"
 4020 14f3 05       		.byte	0x5
 4021 14f4 81       		.byte	0x81
 4022 14f5 95020000 		.4byte	0x295
 4023 14f9 02       		.uleb128 0x2
 4024 14fa 91       		.byte	0x91
 4025 14fb 68       		.sleb128 -24
 4026 14fc 29       		.uleb128 0x29
 4027 14fd 65787400 		.ascii	"ext\000"
 4028 1501 05       		.byte	0x5
 4029 1502 85       		.byte	0x85
 4030 1503 C0140000 		.4byte	0x14c0
 4031 1507 02       		.uleb128 0x2
 4032 1508 91       		.byte	0x91
 4033 1509 74       		.sleb128 -12
ARM GAS  C:\Users\tmj32\AppData\Local\Temp\ccH9iEPr.s 			page 91


 4034 150a 00       		.byte	0
 4035 150b 2C       		.uleb128 0x2c
 4036 150c A30B0000 		.4byte	.LASF270
 4037 1510 05       		.byte	0x5
 4038 1511 8F       		.byte	0x8f
 4039 1512 00000000 		.4byte	.LFB52
 4040 1516 26000000 		.4byte	.LFE52-.LFB52
 4041 151a 01       		.uleb128 0x1
 4042 151b 9C       		.byte	0x9c
 4043 151c 4A150000 		.4byte	0x154a
 4044 1520 24       		.uleb128 0x24
 4045 1521 636200   		.ascii	"cb\000"
 4046 1524 05       		.byte	0x5
 4047 1525 8F       		.byte	0x8f
 4048 1526 410B0000 		.4byte	0xb41
 4049 152a 02       		.uleb128 0x2
 4050 152b 91       		.byte	0x91
 4051 152c 6C       		.sleb128 -20
 4052 152d 24       		.uleb128 0x24
 4053 152e 74787400 		.ascii	"txt\000"
 4054 1532 05       		.byte	0x5
 4055 1533 8F       		.byte	0x8f
 4056 1534 95020000 		.4byte	0x295
 4057 1538 02       		.uleb128 0x2
 4058 1539 91       		.byte	0x91
 4059 153a 68       		.sleb128 -24
 4060 153b 29       		.uleb128 0x29
 4061 153c 65787400 		.ascii	"ext\000"
 4062 1540 05       		.byte	0x5
 4063 1541 93       		.byte	0x93
 4064 1542 C0140000 		.4byte	0x14c0
 4065 1546 02       		.uleb128 0x2
 4066 1547 91       		.byte	0x91
 4067 1548 74       		.sleb128 -12
 4068 1549 00       		.byte	0
 4069 154a 2C       		.uleb128 0x2c
 4070 154b 660D0000 		.4byte	.LASF271
 4071 154f 05       		.byte	0x5
 4072 1550 9D       		.byte	0x9d
 4073 1551 00000000 		.4byte	.LFB53
 4074 1555 C8000000 		.4byte	.LFE53-.LFB53
 4075 1559 01       		.uleb128 0x1
 4076 155a 9C       		.byte	0x9c
 4077 155b 97150000 		.4byte	0x1597
 4078 155f 24       		.uleb128 0x24
 4079 1560 636200   		.ascii	"cb\000"
 4080 1563 05       		.byte	0x5
 4081 1564 9D       		.byte	0x9d
 4082 1565 410B0000 		.4byte	0xb41
 4083 1569 02       		.uleb128 0x2
 4084 156a 91       		.byte	0x91
 4085 156b 6C       		.sleb128 -20
 4086 156c 22       		.uleb128 0x22
 4087 156d 74010000 		.4byte	.LASF48
 4088 1571 05       		.byte	0x5
 4089 1572 9D       		.byte	0x9d
 4090 1573 830B0000 		.4byte	0xb83
ARM GAS  C:\Users\tmj32\AppData\Local\Temp\ccH9iEPr.s 			page 92


 4091 1577 02       		.uleb128 0x2
 4092 1578 91       		.byte	0x91
 4093 1579 6B       		.sleb128 -21
 4094 157a 22       		.uleb128 0x22
 4095 157b F7080000 		.4byte	.LASF258
 4096 157f 05       		.byte	0x5
 4097 1580 9D       		.byte	0x9d
 4098 1581 A4080000 		.4byte	0x8a4
 4099 1585 02       		.uleb128 0x2
 4100 1586 91       		.byte	0x91
 4101 1587 64       		.sleb128 -28
 4102 1588 29       		.uleb128 0x29
 4103 1589 65787400 		.ascii	"ext\000"
 4104 158d 05       		.byte	0x5
 4105 158e A1       		.byte	0xa1
 4106 158f C0140000 		.4byte	0x14c0
 4107 1593 02       		.uleb128 0x2
 4108 1594 91       		.byte	0x91
 4109 1595 74       		.sleb128 -12
 4110 1596 00       		.byte	0
 4111 1597 27       		.uleb128 0x27
 4112 1598 EE010000 		.4byte	.LASF273
 4113 159c 05       		.byte	0x5
 4114 159d BC       		.byte	0xbc
 4115 159e 95020000 		.4byte	0x295
 4116 15a2 00000000 		.4byte	.LFB54
 4117 15a6 24000000 		.4byte	.LFE54-.LFB54
 4118 15aa 01       		.uleb128 0x1
 4119 15ab 9C       		.byte	0x9c
 4120 15ac CC150000 		.4byte	0x15cc
 4121 15b0 24       		.uleb128 0x24
 4122 15b1 636200   		.ascii	"cb\000"
 4123 15b4 05       		.byte	0x5
 4124 15b5 BC       		.byte	0xbc
 4125 15b6 30140000 		.4byte	0x1430
 4126 15ba 02       		.uleb128 0x2
 4127 15bb 91       		.byte	0x91
 4128 15bc 6C       		.sleb128 -20
 4129 15bd 29       		.uleb128 0x29
 4130 15be 65787400 		.ascii	"ext\000"
 4131 15c2 05       		.byte	0x5
 4132 15c3 C0       		.byte	0xc0
 4133 15c4 C0140000 		.4byte	0x14c0
 4134 15c8 02       		.uleb128 0x2
 4135 15c9 91       		.byte	0x91
 4136 15ca 74       		.sleb128 -12
 4137 15cb 00       		.byte	0
 4138 15cc 27       		.uleb128 0x27
 4139 15cd 9F030000 		.4byte	.LASF274
 4140 15d1 05       		.byte	0x5
 4141 15d2 CA       		.byte	0xca
 4142 15d3 A4080000 		.4byte	0x8a4
 4143 15d7 00000000 		.4byte	.LFB55
 4144 15db A8000000 		.4byte	.LFE55-.LFB55
 4145 15df 01       		.uleb128 0x1
 4146 15e0 9C       		.byte	0x9c
 4147 15e1 1D160000 		.4byte	0x161d
ARM GAS  C:\Users\tmj32\AppData\Local\Temp\ccH9iEPr.s 			page 93


 4148 15e5 24       		.uleb128 0x24
 4149 15e6 636200   		.ascii	"cb\000"
 4150 15e9 05       		.byte	0x5
 4151 15ea CA       		.byte	0xca
 4152 15eb 30140000 		.4byte	0x1430
 4153 15ef 02       		.uleb128 0x2
 4154 15f0 91       		.byte	0x91
 4155 15f1 6C       		.sleb128 -20
 4156 15f2 22       		.uleb128 0x22
 4157 15f3 74010000 		.4byte	.LASF48
 4158 15f7 05       		.byte	0x5
 4159 15f8 CA       		.byte	0xca
 4160 15f9 830B0000 		.4byte	0xb83
 4161 15fd 02       		.uleb128 0x2
 4162 15fe 91       		.byte	0x91
 4163 15ff 6B       		.sleb128 -21
 4164 1600 28       		.uleb128 0x28
 4165 1601 F7080000 		.4byte	.LASF258
 4166 1605 05       		.byte	0x5
 4167 1606 CE       		.byte	0xce
 4168 1607 A4080000 		.4byte	0x8a4
 4169 160b 02       		.uleb128 0x2
 4170 160c 91       		.byte	0x91
 4171 160d 74       		.sleb128 -12
 4172 160e 29       		.uleb128 0x29
 4173 160f 65787400 		.ascii	"ext\000"
 4174 1613 05       		.byte	0x5
 4175 1614 CF       		.byte	0xcf
 4176 1615 C0140000 		.4byte	0x14c0
 4177 1619 02       		.uleb128 0x2
 4178 161a 91       		.byte	0x91
 4179 161b 70       		.sleb128 -16
 4180 161c 00       		.byte	0
 4181 161d 2D       		.uleb128 0x2d
 4182 161e 60050000 		.4byte	.LASF275
 4183 1622 05       		.byte	0x5
 4184 1623 EC       		.byte	0xec
 4185 1624 BF010000 		.4byte	0x1bf
 4186 1628 00000000 		.4byte	.LFB56
 4187 162c 90000000 		.4byte	.LFE56-.LFB56
 4188 1630 01       		.uleb128 0x1
 4189 1631 9C       		.byte	0x9c
 4190 1632 94160000 		.4byte	0x1694
 4191 1636 24       		.uleb128 0x24
 4192 1637 636200   		.ascii	"cb\000"
 4193 163a 05       		.byte	0x5
 4194 163b EC       		.byte	0xec
 4195 163c 410B0000 		.4byte	0xb41
 4196 1640 02       		.uleb128 0x2
 4197 1641 91       		.byte	0x91
 4198 1642 64       		.sleb128 -28
 4199 1643 22       		.uleb128 0x22
 4200 1644 8D070000 		.4byte	.LASF276
 4201 1648 05       		.byte	0x5
 4202 1649 EC       		.byte	0xec
 4203 164a 94050000 		.4byte	0x594
 4204 164e 02       		.uleb128 0x2
ARM GAS  C:\Users\tmj32\AppData\Local\Temp\ccH9iEPr.s 			page 94


 4205 164f 91       		.byte	0x91
 4206 1650 60       		.sleb128 -32
 4207 1651 22       		.uleb128 0x22
 4208 1652 930C0000 		.4byte	.LASF277
 4209 1656 05       		.byte	0x5
 4210 1657 EC       		.byte	0xec
 4211 1658 06070000 		.4byte	0x706
 4212 165c 02       		.uleb128 0x2
 4213 165d 91       		.byte	0x91
 4214 165e 5F       		.sleb128 -33
 4215 165f 28       		.uleb128 0x28
 4216 1660 66030000 		.4byte	.LASF278
 4217 1664 05       		.byte	0x5
 4218 1665 EE       		.byte	0xee
 4219 1666 BF010000 		.4byte	0x1bf
 4220 166a 02       		.uleb128 0x2
 4221 166b 91       		.byte	0x91
 4222 166c 77       		.sleb128 -9
 4223 166d 2B       		.uleb128 0x2b
 4224 166e 36000000 		.4byte	.LBB4
 4225 1672 38000000 		.4byte	.LBE4-.LBB4
 4226 1676 28       		.uleb128 0x28
 4227 1677 530C0000 		.4byte	.LASF279
 4228 167b 05       		.byte	0x5
 4229 167c F4       		.byte	0xf4
 4230 167d C0140000 		.4byte	0x14c0
 4231 1681 02       		.uleb128 0x2
 4232 1682 91       		.byte	0x91
 4233 1683 70       		.sleb128 -16
 4234 1684 28       		.uleb128 0x28
 4235 1685 4C0A0000 		.4byte	.LASF280
 4236 1689 05       		.byte	0x5
 4237 168a F5       		.byte	0xf5
 4238 168b 94160000 		.4byte	0x1694
 4239 168f 02       		.uleb128 0x2
 4240 1690 91       		.byte	0x91
 4241 1691 6C       		.sleb128 -20
 4242 1692 00       		.byte	0
 4243 1693 00       		.byte	0
 4244 1694 0D       		.uleb128 0xd
 4245 1695 04       		.byte	0x4
 4246 1696 C00A0000 		.4byte	0xac0
 4247 169a 25       		.uleb128 0x25
 4248 169b 2C070000 		.4byte	.LASF281
 4249 169f 05       		.byte	0x5
 4250 16a0 0D01     		.2byte	0x10d
 4251 16a2 BF010000 		.4byte	0x1bf
 4252 16a6 00000000 		.4byte	.LFB57
 4253 16aa 58000000 		.4byte	.LFE57-.LFB57
 4254 16ae 01       		.uleb128 0x1
 4255 16af 9C       		.byte	0x9c
 4256 16b0 E2160000 		.4byte	0x16e2
 4257 16b4 26       		.uleb128 0x26
 4258 16b5 47080000 		.4byte	.LASF206
 4259 16b9 05       		.byte	0x5
 4260 16ba 0D01     		.2byte	0x10d
 4261 16bc 410B0000 		.4byte	0xb41
ARM GAS  C:\Users\tmj32\AppData\Local\Temp\ccH9iEPr.s 			page 95


 4262 16c0 02       		.uleb128 0x2
 4263 16c1 91       		.byte	0x91
 4264 16c2 74       		.sleb128 -12
 4265 16c3 26       		.uleb128 0x26
 4266 16c4 8D070000 		.4byte	.LASF276
 4267 16c8 05       		.byte	0x5
 4268 16c9 0D01     		.2byte	0x10d
 4269 16cb 94050000 		.4byte	0x594
 4270 16cf 02       		.uleb128 0x2
 4271 16d0 91       		.byte	0x91
 4272 16d1 70       		.sleb128 -16
 4273 16d2 26       		.uleb128 0x26
 4274 16d3 930C0000 		.4byte	.LASF277
 4275 16d7 05       		.byte	0x5
 4276 16d8 0D01     		.2byte	0x10d
 4277 16da 06070000 		.4byte	0x706
 4278 16de 02       		.uleb128 0x2
 4279 16df 91       		.byte	0x91
 4280 16e0 6F       		.sleb128 -17
 4281 16e1 00       		.byte	0
 4282 16e2 25       		.uleb128 0x25
 4283 16e3 F2000000 		.4byte	.LASF282
 4284 16e7 05       		.byte	0x5
 4285 16e8 3501     		.2byte	0x135
 4286 16ea 35050000 		.4byte	0x535
 4287 16ee 00000000 		.4byte	.LFB58
 4288 16f2 08010000 		.4byte	.LFE58-.LFB58
 4289 16f6 01       		.uleb128 0x1
 4290 16f7 9C       		.byte	0x9c
 4291 16f8 7B170000 		.4byte	0x177b
 4292 16fc 2E       		.uleb128 0x2e
 4293 16fd 636200   		.ascii	"cb\000"
 4294 1700 05       		.byte	0x5
 4295 1701 3501     		.2byte	0x135
 4296 1703 410B0000 		.4byte	0xb41
 4297 1707 02       		.uleb128 0x2
 4298 1708 91       		.byte	0x91
 4299 1709 5C       		.sleb128 -36
 4300 170a 26       		.uleb128 0x26
 4301 170b 25010000 		.4byte	.LASF283
 4302 170f 05       		.byte	0x5
 4303 1710 3501     		.2byte	0x135
 4304 1712 EC070000 		.4byte	0x7ec
 4305 1716 02       		.uleb128 0x2
 4306 1717 91       		.byte	0x91
 4307 1718 5B       		.sleb128 -37
 4308 1719 26       		.uleb128 0x26
 4309 171a E8050000 		.4byte	.LASF284
 4310 171e 05       		.byte	0x5
 4311 171f 3501     		.2byte	0x135
 4312 1721 E4000000 		.4byte	0xe4
 4313 1725 02       		.uleb128 0x2
 4314 1726 91       		.byte	0x91
 4315 1727 54       		.sleb128 -44
 4316 1728 2F       		.uleb128 0x2f
 4317 1729 72657300 		.ascii	"res\000"
 4318 172d 05       		.byte	0x5
ARM GAS  C:\Users\tmj32\AppData\Local\Temp\ccH9iEPr.s 			page 96


 4319 172e 3701     		.2byte	0x137
 4320 1730 35050000 		.4byte	0x535
 4321 1734 02       		.uleb128 0x2
 4322 1735 91       		.byte	0x91
 4323 1736 6F       		.sleb128 -17
 4324 1737 2F       		.uleb128 0x2f
 4325 1738 65787400 		.ascii	"ext\000"
 4326 173c 05       		.byte	0x5
 4327 173d 3E01     		.2byte	0x13e
 4328 173f C0140000 		.4byte	0x14c0
 4329 1743 02       		.uleb128 0x2
 4330 1744 91       		.byte	0x91
 4331 1745 68       		.sleb128 -24
 4332 1746 2A       		.uleb128 0x2a
 4333 1747 48000000 		.4byte	.LBB5
 4334 174b 4C000000 		.4byte	.LBE5-.LBB5
 4335 174f 63170000 		.4byte	0x1763
 4336 1753 30       		.uleb128 0x30
 4337 1754 490B0000 		.4byte	.LASF285
 4338 1758 05       		.byte	0x5
 4339 1759 4101     		.2byte	0x141
 4340 175b A4080000 		.4byte	0x8a4
 4341 175f 02       		.uleb128 0x2
 4342 1760 91       		.byte	0x91
 4343 1761 64       		.sleb128 -28
 4344 1762 00       		.byte	0
 4345 1763 2B       		.uleb128 0x2b
 4346 1764 C4000000 		.4byte	.LBB6
 4347 1768 32000000 		.4byte	.LBE6-.LBB6
 4348 176c 2F       		.uleb128 0x2f
 4349 176d 6300     		.ascii	"c\000"
 4350 176f 05       		.byte	0x5
 4351 1770 4801     		.2byte	0x148
 4352 1772 8E020000 		.4byte	0x28e
 4353 1776 02       		.uleb128 0x2
 4354 1777 91       		.byte	0x91
 4355 1778 63       		.sleb128 -29
 4356 1779 00       		.byte	0
 4357 177a 00       		.byte	0
 4358 177b 28       		.uleb128 0x28
 4359 177c A2040000 		.4byte	.LASF286
 4360 1780 05       		.byte	0x5
 4361 1781 23       		.byte	0x23
 4362 1782 11070000 		.4byte	0x711
 4363 1786 05       		.uleb128 0x5
 4364 1787 03       		.byte	0x3
 4365 1788 00000000 		.4byte	ancestor_bg_design
 4366 178c 28       		.uleb128 0x28
 4367 178d 30080000 		.4byte	.LASF287
 4368 1791 05       		.byte	0x5
 4369 1792 24       		.byte	0x24
 4370 1793 11070000 		.4byte	0x711
 4371 1797 05       		.uleb128 0x5
 4372 1798 03       		.byte	0x3
 4373 1799 04000000 		.4byte	ancestor_bullet_design
 4374 179d 28       		.uleb128 0x28
 4375 179e 330A0000 		.4byte	.LASF288
ARM GAS  C:\Users\tmj32\AppData\Local\Temp\ccH9iEPr.s 			page 97


 4376 17a2 05       		.byte	0x5
 4377 17a3 25       		.byte	0x25
 4378 17a4 F7070000 		.4byte	0x7f7
 4379 17a8 05       		.uleb128 0x5
 4380 17a9 03       		.byte	0x3
 4381 17aa 08000000 		.4byte	ancestor_signal
 4382 17ae 31       		.uleb128 0x31
 4383 17af 5E040000 		.4byte	.LASF289
 4384 17b3 0B       		.byte	0xb
 4385 17b4 0C01     		.2byte	0x10c
 4386 17b6 0B050000 		.4byte	0x50b
 4387 17ba 31       		.uleb128 0x31
 4388 17bb DE0B0000 		.4byte	.LASF290
 4389 17bf 0B       		.byte	0xb
 4390 17c0 1101     		.2byte	0x111
 4391 17c2 0B050000 		.4byte	0x50b
 4392 17c6 00       		.byte	0
 4393              		.section	.debug_abbrev,"",%progbits
 4394              	.Ldebug_abbrev0:
 4395 0000 01       		.uleb128 0x1
 4396 0001 11       		.uleb128 0x11
 4397 0002 01       		.byte	0x1
 4398 0003 25       		.uleb128 0x25
 4399 0004 0E       		.uleb128 0xe
 4400 0005 13       		.uleb128 0x13
 4401 0006 0B       		.uleb128 0xb
 4402 0007 03       		.uleb128 0x3
 4403 0008 0E       		.uleb128 0xe
 4404 0009 1B       		.uleb128 0x1b
 4405 000a 0E       		.uleb128 0xe
 4406 000b 55       		.uleb128 0x55
 4407 000c 17       		.uleb128 0x17
 4408 000d 11       		.uleb128 0x11
 4409 000e 01       		.uleb128 0x1
 4410 000f 10       		.uleb128 0x10
 4411 0010 17       		.uleb128 0x17
 4412 0011 00       		.byte	0
 4413 0012 00       		.byte	0
 4414 0013 02       		.uleb128 0x2
 4415 0014 16       		.uleb128 0x16
 4416 0015 00       		.byte	0
 4417 0016 03       		.uleb128 0x3
 4418 0017 0E       		.uleb128 0xe
 4419 0018 3A       		.uleb128 0x3a
 4420 0019 0B       		.uleb128 0xb
 4421 001a 3B       		.uleb128 0x3b
 4422 001b 0B       		.uleb128 0xb
 4423 001c 49       		.uleb128 0x49
 4424 001d 13       		.uleb128 0x13
 4425 001e 00       		.byte	0
 4426 001f 00       		.byte	0
 4427 0020 03       		.uleb128 0x3
 4428 0021 24       		.uleb128 0x24
 4429 0022 00       		.byte	0
 4430 0023 0B       		.uleb128 0xb
 4431 0024 0B       		.uleb128 0xb
 4432 0025 3E       		.uleb128 0x3e
ARM GAS  C:\Users\tmj32\AppData\Local\Temp\ccH9iEPr.s 			page 98


 4433 0026 0B       		.uleb128 0xb
 4434 0027 03       		.uleb128 0x3
 4435 0028 0E       		.uleb128 0xe
 4436 0029 00       		.byte	0
 4437 002a 00       		.byte	0
 4438 002b 04       		.uleb128 0x4
 4439 002c 24       		.uleb128 0x24
 4440 002d 00       		.byte	0
 4441 002e 0B       		.uleb128 0xb
 4442 002f 0B       		.uleb128 0xb
 4443 0030 3E       		.uleb128 0x3e
 4444 0031 0B       		.uleb128 0xb
 4445 0032 03       		.uleb128 0x3
 4446 0033 08       		.uleb128 0x8
 4447 0034 00       		.byte	0
 4448 0035 00       		.byte	0
 4449 0036 05       		.uleb128 0x5
 4450 0037 0F       		.uleb128 0xf
 4451 0038 00       		.byte	0
 4452 0039 0B       		.uleb128 0xb
 4453 003a 0B       		.uleb128 0xb
 4454 003b 00       		.byte	0
 4455 003c 00       		.byte	0
 4456 003d 06       		.uleb128 0x6
 4457 003e 13       		.uleb128 0x13
 4458 003f 01       		.byte	0x1
 4459 0040 0B       		.uleb128 0xb
 4460 0041 0B       		.uleb128 0xb
 4461 0042 3A       		.uleb128 0x3a
 4462 0043 0B       		.uleb128 0xb
 4463 0044 3B       		.uleb128 0x3b
 4464 0045 0B       		.uleb128 0xb
 4465 0046 01       		.uleb128 0x1
 4466 0047 13       		.uleb128 0x13
 4467 0048 00       		.byte	0
 4468 0049 00       		.byte	0
 4469 004a 07       		.uleb128 0x7
 4470 004b 0D       		.uleb128 0xd
 4471 004c 00       		.byte	0
 4472 004d 03       		.uleb128 0x3
 4473 004e 0E       		.uleb128 0xe
 4474 004f 3A       		.uleb128 0x3a
 4475 0050 0B       		.uleb128 0xb
 4476 0051 3B       		.uleb128 0x3b
 4477 0052 0B       		.uleb128 0xb
 4478 0053 49       		.uleb128 0x49
 4479 0054 13       		.uleb128 0x13
 4480 0055 38       		.uleb128 0x38
 4481 0056 0B       		.uleb128 0xb
 4482 0057 00       		.byte	0
 4483 0058 00       		.byte	0
 4484 0059 08       		.uleb128 0x8
 4485 005a 0D       		.uleb128 0xd
 4486 005b 00       		.byte	0
 4487 005c 03       		.uleb128 0x3
 4488 005d 08       		.uleb128 0x8
 4489 005e 3A       		.uleb128 0x3a
ARM GAS  C:\Users\tmj32\AppData\Local\Temp\ccH9iEPr.s 			page 99


 4490 005f 0B       		.uleb128 0xb
 4491 0060 3B       		.uleb128 0x3b
 4492 0061 0B       		.uleb128 0xb
 4493 0062 49       		.uleb128 0x49
 4494 0063 13       		.uleb128 0x13
 4495 0064 38       		.uleb128 0x38
 4496 0065 0B       		.uleb128 0xb
 4497 0066 00       		.byte	0
 4498 0067 00       		.byte	0
 4499 0068 09       		.uleb128 0x9
 4500 0069 13       		.uleb128 0x13
 4501 006a 01       		.byte	0x1
 4502 006b 03       		.uleb128 0x3
 4503 006c 0E       		.uleb128 0xe
 4504 006d 0B       		.uleb128 0xb
 4505 006e 0B       		.uleb128 0xb
 4506 006f 3A       		.uleb128 0x3a
 4507 0070 0B       		.uleb128 0xb
 4508 0071 3B       		.uleb128 0x3b
 4509 0072 0B       		.uleb128 0xb
 4510 0073 01       		.uleb128 0x1
 4511 0074 13       		.uleb128 0x13
 4512 0075 00       		.byte	0
 4513 0076 00       		.byte	0
 4514 0077 0A       		.uleb128 0xa
 4515 0078 0D       		.uleb128 0xd
 4516 0079 00       		.byte	0
 4517 007a 03       		.uleb128 0x3
 4518 007b 0E       		.uleb128 0xe
 4519 007c 3A       		.uleb128 0x3a
 4520 007d 0B       		.uleb128 0xb
 4521 007e 3B       		.uleb128 0x3b
 4522 007f 0B       		.uleb128 0xb
 4523 0080 49       		.uleb128 0x49
 4524 0081 13       		.uleb128 0x13
 4525 0082 0B       		.uleb128 0xb
 4526 0083 0B       		.uleb128 0xb
 4527 0084 0D       		.uleb128 0xd
 4528 0085 0B       		.uleb128 0xb
 4529 0086 0C       		.uleb128 0xc
 4530 0087 0B       		.uleb128 0xb
 4531 0088 38       		.uleb128 0x38
 4532 0089 0B       		.uleb128 0xb
 4533 008a 00       		.byte	0
 4534 008b 00       		.byte	0
 4535 008c 0B       		.uleb128 0xb
 4536 008d 15       		.uleb128 0x15
 4537 008e 01       		.byte	0x1
 4538 008f 27       		.uleb128 0x27
 4539 0090 19       		.uleb128 0x19
 4540 0091 49       		.uleb128 0x49
 4541 0092 13       		.uleb128 0x13
 4542 0093 01       		.uleb128 0x1
 4543 0094 13       		.uleb128 0x13
 4544 0095 00       		.byte	0
 4545 0096 00       		.byte	0
 4546 0097 0C       		.uleb128 0xc
ARM GAS  C:\Users\tmj32\AppData\Local\Temp\ccH9iEPr.s 			page 100


 4547 0098 05       		.uleb128 0x5
 4548 0099 00       		.byte	0
 4549 009a 49       		.uleb128 0x49
 4550 009b 13       		.uleb128 0x13
 4551 009c 00       		.byte	0
 4552 009d 00       		.byte	0
 4553 009e 0D       		.uleb128 0xd
 4554 009f 0F       		.uleb128 0xf
 4555 00a0 00       		.byte	0
 4556 00a1 0B       		.uleb128 0xb
 4557 00a2 0B       		.uleb128 0xb
 4558 00a3 49       		.uleb128 0x49
 4559 00a4 13       		.uleb128 0x13
 4560 00a5 00       		.byte	0
 4561 00a6 00       		.byte	0
 4562 00a7 0E       		.uleb128 0xe
 4563 00a8 26       		.uleb128 0x26
 4564 00a9 00       		.byte	0
 4565 00aa 49       		.uleb128 0x49
 4566 00ab 13       		.uleb128 0x13
 4567 00ac 00       		.byte	0
 4568 00ad 00       		.byte	0
 4569 00ae 0F       		.uleb128 0xf
 4570 00af 17       		.uleb128 0x17
 4571 00b0 01       		.byte	0x1
 4572 00b1 0B       		.uleb128 0xb
 4573 00b2 0B       		.uleb128 0xb
 4574 00b3 3A       		.uleb128 0x3a
 4575 00b4 0B       		.uleb128 0xb
 4576 00b5 3B       		.uleb128 0x3b
 4577 00b6 0B       		.uleb128 0xb
 4578 00b7 01       		.uleb128 0x1
 4579 00b8 13       		.uleb128 0x13
 4580 00b9 00       		.byte	0
 4581 00ba 00       		.byte	0
 4582 00bb 10       		.uleb128 0x10
 4583 00bc 0D       		.uleb128 0xd
 4584 00bd 00       		.byte	0
 4585 00be 03       		.uleb128 0x3
 4586 00bf 08       		.uleb128 0x8
 4587 00c0 3A       		.uleb128 0x3a
 4588 00c1 0B       		.uleb128 0xb
 4589 00c2 3B       		.uleb128 0x3b
 4590 00c3 0B       		.uleb128 0xb
 4591 00c4 49       		.uleb128 0x49
 4592 00c5 13       		.uleb128 0x13
 4593 00c6 00       		.byte	0
 4594 00c7 00       		.byte	0
 4595 00c8 11       		.uleb128 0x11
 4596 00c9 0D       		.uleb128 0xd
 4597 00ca 00       		.byte	0
 4598 00cb 03       		.uleb128 0x3
 4599 00cc 0E       		.uleb128 0xe
 4600 00cd 3A       		.uleb128 0x3a
 4601 00ce 0B       		.uleb128 0xb
 4602 00cf 3B       		.uleb128 0x3b
 4603 00d0 0B       		.uleb128 0xb
ARM GAS  C:\Users\tmj32\AppData\Local\Temp\ccH9iEPr.s 			page 101


 4604 00d1 49       		.uleb128 0x49
 4605 00d2 13       		.uleb128 0x13
 4606 00d3 00       		.byte	0
 4607 00d4 00       		.byte	0
 4608 00d5 12       		.uleb128 0x12
 4609 00d6 16       		.uleb128 0x16
 4610 00d7 00       		.byte	0
 4611 00d8 03       		.uleb128 0x3
 4612 00d9 0E       		.uleb128 0xe
 4613 00da 3A       		.uleb128 0x3a
 4614 00db 0B       		.uleb128 0xb
 4615 00dc 3B       		.uleb128 0x3b
 4616 00dd 05       		.uleb128 0x5
 4617 00de 49       		.uleb128 0x49
 4618 00df 13       		.uleb128 0x13
 4619 00e0 00       		.byte	0
 4620 00e1 00       		.byte	0
 4621 00e2 13       		.uleb128 0x13
 4622 00e3 04       		.uleb128 0x4
 4623 00e4 01       		.byte	0x1
 4624 00e5 0B       		.uleb128 0xb
 4625 00e6 0B       		.uleb128 0xb
 4626 00e7 49       		.uleb128 0x49
 4627 00e8 13       		.uleb128 0x13
 4628 00e9 3A       		.uleb128 0x3a
 4629 00ea 0B       		.uleb128 0xb
 4630 00eb 3B       		.uleb128 0x3b
 4631 00ec 0B       		.uleb128 0xb
 4632 00ed 01       		.uleb128 0x1
 4633 00ee 13       		.uleb128 0x13
 4634 00ef 00       		.byte	0
 4635 00f0 00       		.byte	0
 4636 00f1 14       		.uleb128 0x14
 4637 00f2 28       		.uleb128 0x28
 4638 00f3 00       		.byte	0
 4639 00f4 03       		.uleb128 0x3
 4640 00f5 0E       		.uleb128 0xe
 4641 00f6 1C       		.uleb128 0x1c
 4642 00f7 0B       		.uleb128 0xb
 4643 00f8 00       		.byte	0
 4644 00f9 00       		.byte	0
 4645 00fa 15       		.uleb128 0x15
 4646 00fb 0D       		.uleb128 0xd
 4647 00fc 00       		.byte	0
 4648 00fd 03       		.uleb128 0x3
 4649 00fe 08       		.uleb128 0x8
 4650 00ff 3A       		.uleb128 0x3a
 4651 0100 0B       		.uleb128 0xb
 4652 0101 3B       		.uleb128 0x3b
 4653 0102 0B       		.uleb128 0xb
 4654 0103 49       		.uleb128 0x49
 4655 0104 13       		.uleb128 0x13
 4656 0105 0B       		.uleb128 0xb
 4657 0106 0B       		.uleb128 0xb
 4658 0107 0D       		.uleb128 0xd
 4659 0108 0B       		.uleb128 0xb
 4660 0109 0C       		.uleb128 0xc
ARM GAS  C:\Users\tmj32\AppData\Local\Temp\ccH9iEPr.s 			page 102


 4661 010a 0B       		.uleb128 0xb
 4662 010b 38       		.uleb128 0x38
 4663 010c 0B       		.uleb128 0xb
 4664 010d 00       		.byte	0
 4665 010e 00       		.byte	0
 4666 010f 16       		.uleb128 0x16
 4667 0110 15       		.uleb128 0x15
 4668 0111 01       		.byte	0x1
 4669 0112 27       		.uleb128 0x27
 4670 0113 19       		.uleb128 0x19
 4671 0114 01       		.uleb128 0x1
 4672 0115 13       		.uleb128 0x13
 4673 0116 00       		.byte	0
 4674 0117 00       		.byte	0
 4675 0118 17       		.uleb128 0x17
 4676 0119 01       		.uleb128 0x1
 4677 011a 01       		.byte	0x1
 4678 011b 49       		.uleb128 0x49
 4679 011c 13       		.uleb128 0x13
 4680 011d 01       		.uleb128 0x1
 4681 011e 13       		.uleb128 0x13
 4682 011f 00       		.byte	0
 4683 0120 00       		.byte	0
 4684 0121 18       		.uleb128 0x18
 4685 0122 21       		.uleb128 0x21
 4686 0123 00       		.byte	0
 4687 0124 49       		.uleb128 0x49
 4688 0125 13       		.uleb128 0x13
 4689 0126 2F       		.uleb128 0x2f
 4690 0127 0B       		.uleb128 0xb
 4691 0128 00       		.byte	0
 4692 0129 00       		.byte	0
 4693 012a 19       		.uleb128 0x19
 4694 012b 0D       		.uleb128 0xd
 4695 012c 00       		.byte	0
 4696 012d 03       		.uleb128 0x3
 4697 012e 08       		.uleb128 0x8
 4698 012f 3A       		.uleb128 0x3a
 4699 0130 0B       		.uleb128 0xb
 4700 0131 3B       		.uleb128 0x3b
 4701 0132 05       		.uleb128 0x5
 4702 0133 49       		.uleb128 0x49
 4703 0134 13       		.uleb128 0x13
 4704 0135 38       		.uleb128 0x38
 4705 0136 0B       		.uleb128 0xb
 4706 0137 00       		.byte	0
 4707 0138 00       		.byte	0
 4708 0139 1A       		.uleb128 0x1a
 4709 013a 0D       		.uleb128 0xd
 4710 013b 00       		.byte	0
 4711 013c 03       		.uleb128 0x3
 4712 013d 0E       		.uleb128 0xe
 4713 013e 3A       		.uleb128 0x3a
 4714 013f 0B       		.uleb128 0xb
 4715 0140 3B       		.uleb128 0x3b
 4716 0141 05       		.uleb128 0x5
 4717 0142 49       		.uleb128 0x49
ARM GAS  C:\Users\tmj32\AppData\Local\Temp\ccH9iEPr.s 			page 103


 4718 0143 13       		.uleb128 0x13
 4719 0144 38       		.uleb128 0x38
 4720 0145 0B       		.uleb128 0xb
 4721 0146 00       		.byte	0
 4722 0147 00       		.byte	0
 4723 0148 1B       		.uleb128 0x1b
 4724 0149 13       		.uleb128 0x13
 4725 014a 01       		.byte	0x1
 4726 014b 0B       		.uleb128 0xb
 4727 014c 0B       		.uleb128 0xb
 4728 014d 3A       		.uleb128 0x3a
 4729 014e 0B       		.uleb128 0xb
 4730 014f 3B       		.uleb128 0x3b
 4731 0150 05       		.uleb128 0x5
 4732 0151 01       		.uleb128 0x1
 4733 0152 13       		.uleb128 0x13
 4734 0153 00       		.byte	0
 4735 0154 00       		.byte	0
 4736 0155 1C       		.uleb128 0x1c
 4737 0156 13       		.uleb128 0x13
 4738 0157 01       		.byte	0x1
 4739 0158 0B       		.uleb128 0xb
 4740 0159 05       		.uleb128 0x5
 4741 015a 3A       		.uleb128 0x3a
 4742 015b 0B       		.uleb128 0xb
 4743 015c 3B       		.uleb128 0x3b
 4744 015d 0B       		.uleb128 0xb
 4745 015e 01       		.uleb128 0x1
 4746 015f 13       		.uleb128 0x13
 4747 0160 00       		.byte	0
 4748 0161 00       		.byte	0
 4749 0162 1D       		.uleb128 0x1d
 4750 0163 0D       		.uleb128 0xd
 4751 0164 00       		.byte	0
 4752 0165 03       		.uleb128 0x3
 4753 0166 0E       		.uleb128 0xe
 4754 0167 3A       		.uleb128 0x3a
 4755 0168 0B       		.uleb128 0xb
 4756 0169 3B       		.uleb128 0x3b
 4757 016a 0B       		.uleb128 0xb
 4758 016b 49       		.uleb128 0x49
 4759 016c 13       		.uleb128 0x13
 4760 016d 38       		.uleb128 0x38
 4761 016e 05       		.uleb128 0x5
 4762 016f 00       		.byte	0
 4763 0170 00       		.byte	0
 4764 0171 1E       		.uleb128 0x1e
 4765 0172 0D       		.uleb128 0xd
 4766 0173 00       		.byte	0
 4767 0174 03       		.uleb128 0x3
 4768 0175 08       		.uleb128 0x8
 4769 0176 3A       		.uleb128 0x3a
 4770 0177 0B       		.uleb128 0xb
 4771 0178 3B       		.uleb128 0x3b
 4772 0179 0B       		.uleb128 0xb
 4773 017a 49       		.uleb128 0x49
 4774 017b 13       		.uleb128 0x13
ARM GAS  C:\Users\tmj32\AppData\Local\Temp\ccH9iEPr.s 			page 104


 4775 017c 38       		.uleb128 0x38
 4776 017d 05       		.uleb128 0x5
 4777 017e 00       		.byte	0
 4778 017f 00       		.byte	0
 4779 0180 1F       		.uleb128 0x1f
 4780 0181 0D       		.uleb128 0xd
 4781 0182 00       		.byte	0
 4782 0183 03       		.uleb128 0x3
 4783 0184 0E       		.uleb128 0xe
 4784 0185 3A       		.uleb128 0x3a
 4785 0186 0B       		.uleb128 0xb
 4786 0187 3B       		.uleb128 0x3b
 4787 0188 05       		.uleb128 0x5
 4788 0189 49       		.uleb128 0x49
 4789 018a 13       		.uleb128 0x13
 4790 018b 38       		.uleb128 0x38
 4791 018c 05       		.uleb128 0x5
 4792 018d 00       		.byte	0
 4793 018e 00       		.byte	0
 4794 018f 20       		.uleb128 0x20
 4795 0190 0D       		.uleb128 0xd
 4796 0191 00       		.byte	0
 4797 0192 03       		.uleb128 0x3
 4798 0193 08       		.uleb128 0x8
 4799 0194 3A       		.uleb128 0x3a
 4800 0195 0B       		.uleb128 0xb
 4801 0196 3B       		.uleb128 0x3b
 4802 0197 05       		.uleb128 0x5
 4803 0198 49       		.uleb128 0x49
 4804 0199 13       		.uleb128 0x13
 4805 019a 38       		.uleb128 0x38
 4806 019b 05       		.uleb128 0x5
 4807 019c 00       		.byte	0
 4808 019d 00       		.byte	0
 4809 019e 21       		.uleb128 0x21
 4810 019f 2E       		.uleb128 0x2e
 4811 01a0 01       		.byte	0x1
 4812 01a1 03       		.uleb128 0x3
 4813 01a2 0E       		.uleb128 0xe
 4814 01a3 3A       		.uleb128 0x3a
 4815 01a4 0B       		.uleb128 0xb
 4816 01a5 3B       		.uleb128 0x3b
 4817 01a6 0B       		.uleb128 0xb
 4818 01a7 27       		.uleb128 0x27
 4819 01a8 19       		.uleb128 0x19
 4820 01a9 49       		.uleb128 0x49
 4821 01aa 13       		.uleb128 0x13
 4822 01ab 11       		.uleb128 0x11
 4823 01ac 01       		.uleb128 0x1
 4824 01ad 12       		.uleb128 0x12
 4825 01ae 06       		.uleb128 0x6
 4826 01af 40       		.uleb128 0x40
 4827 01b0 18       		.uleb128 0x18
 4828 01b1 9742     		.uleb128 0x2117
 4829 01b3 19       		.uleb128 0x19
 4830 01b4 01       		.uleb128 0x1
 4831 01b5 13       		.uleb128 0x13
ARM GAS  C:\Users\tmj32\AppData\Local\Temp\ccH9iEPr.s 			page 105


 4832 01b6 00       		.byte	0
 4833 01b7 00       		.byte	0
 4834 01b8 22       		.uleb128 0x22
 4835 01b9 05       		.uleb128 0x5
 4836 01ba 00       		.byte	0
 4837 01bb 03       		.uleb128 0x3
 4838 01bc 0E       		.uleb128 0xe
 4839 01bd 3A       		.uleb128 0x3a
 4840 01be 0B       		.uleb128 0xb
 4841 01bf 3B       		.uleb128 0x3b
 4842 01c0 0B       		.uleb128 0xb
 4843 01c1 49       		.uleb128 0x49
 4844 01c2 13       		.uleb128 0x13
 4845 01c3 02       		.uleb128 0x2
 4846 01c4 18       		.uleb128 0x18
 4847 01c5 00       		.byte	0
 4848 01c6 00       		.byte	0
 4849 01c7 23       		.uleb128 0x23
 4850 01c8 2E       		.uleb128 0x2e
 4851 01c9 01       		.byte	0x1
 4852 01ca 03       		.uleb128 0x3
 4853 01cb 0E       		.uleb128 0xe
 4854 01cc 3A       		.uleb128 0x3a
 4855 01cd 0B       		.uleb128 0xb
 4856 01ce 3B       		.uleb128 0x3b
 4857 01cf 0B       		.uleb128 0xb
 4858 01d0 27       		.uleb128 0x27
 4859 01d1 19       		.uleb128 0x19
 4860 01d2 11       		.uleb128 0x11
 4861 01d3 01       		.uleb128 0x1
 4862 01d4 12       		.uleb128 0x12
 4863 01d5 06       		.uleb128 0x6
 4864 01d6 40       		.uleb128 0x40
 4865 01d7 18       		.uleb128 0x18
 4866 01d8 9642     		.uleb128 0x2116
 4867 01da 19       		.uleb128 0x19
 4868 01db 01       		.uleb128 0x1
 4869 01dc 13       		.uleb128 0x13
 4870 01dd 00       		.byte	0
 4871 01de 00       		.byte	0
 4872 01df 24       		.uleb128 0x24
 4873 01e0 05       		.uleb128 0x5
 4874 01e1 00       		.byte	0
 4875 01e2 03       		.uleb128 0x3
 4876 01e3 08       		.uleb128 0x8
 4877 01e4 3A       		.uleb128 0x3a
 4878 01e5 0B       		.uleb128 0xb
 4879 01e6 3B       		.uleb128 0x3b
 4880 01e7 0B       		.uleb128 0xb
 4881 01e8 49       		.uleb128 0x49
 4882 01e9 13       		.uleb128 0x13
 4883 01ea 02       		.uleb128 0x2
 4884 01eb 18       		.uleb128 0x18
 4885 01ec 00       		.byte	0
 4886 01ed 00       		.byte	0
 4887 01ee 25       		.uleb128 0x25
 4888 01ef 2E       		.uleb128 0x2e
ARM GAS  C:\Users\tmj32\AppData\Local\Temp\ccH9iEPr.s 			page 106


 4889 01f0 01       		.byte	0x1
 4890 01f1 03       		.uleb128 0x3
 4891 01f2 0E       		.uleb128 0xe
 4892 01f3 3A       		.uleb128 0x3a
 4893 01f4 0B       		.uleb128 0xb
 4894 01f5 3B       		.uleb128 0x3b
 4895 01f6 05       		.uleb128 0x5
 4896 01f7 27       		.uleb128 0x27
 4897 01f8 19       		.uleb128 0x19
 4898 01f9 49       		.uleb128 0x49
 4899 01fa 13       		.uleb128 0x13
 4900 01fb 11       		.uleb128 0x11
 4901 01fc 01       		.uleb128 0x1
 4902 01fd 12       		.uleb128 0x12
 4903 01fe 06       		.uleb128 0x6
 4904 01ff 40       		.uleb128 0x40
 4905 0200 18       		.uleb128 0x18
 4906 0201 9642     		.uleb128 0x2116
 4907 0203 19       		.uleb128 0x19
 4908 0204 01       		.uleb128 0x1
 4909 0205 13       		.uleb128 0x13
 4910 0206 00       		.byte	0
 4911 0207 00       		.byte	0
 4912 0208 26       		.uleb128 0x26
 4913 0209 05       		.uleb128 0x5
 4914 020a 00       		.byte	0
 4915 020b 03       		.uleb128 0x3
 4916 020c 0E       		.uleb128 0xe
 4917 020d 3A       		.uleb128 0x3a
 4918 020e 0B       		.uleb128 0xb
 4919 020f 3B       		.uleb128 0x3b
 4920 0210 05       		.uleb128 0x5
 4921 0211 49       		.uleb128 0x49
 4922 0212 13       		.uleb128 0x13
 4923 0213 02       		.uleb128 0x2
 4924 0214 18       		.uleb128 0x18
 4925 0215 00       		.byte	0
 4926 0216 00       		.byte	0
 4927 0217 27       		.uleb128 0x27
 4928 0218 2E       		.uleb128 0x2e
 4929 0219 01       		.byte	0x1
 4930 021a 3F       		.uleb128 0x3f
 4931 021b 19       		.uleb128 0x19
 4932 021c 03       		.uleb128 0x3
 4933 021d 0E       		.uleb128 0xe
 4934 021e 3A       		.uleb128 0x3a
 4935 021f 0B       		.uleb128 0xb
 4936 0220 3B       		.uleb128 0x3b
 4937 0221 0B       		.uleb128 0xb
 4938 0222 27       		.uleb128 0x27
 4939 0223 19       		.uleb128 0x19
 4940 0224 49       		.uleb128 0x49
 4941 0225 13       		.uleb128 0x13
 4942 0226 11       		.uleb128 0x11
 4943 0227 01       		.uleb128 0x1
 4944 0228 12       		.uleb128 0x12
 4945 0229 06       		.uleb128 0x6
ARM GAS  C:\Users\tmj32\AppData\Local\Temp\ccH9iEPr.s 			page 107


 4946 022a 40       		.uleb128 0x40
 4947 022b 18       		.uleb128 0x18
 4948 022c 9642     		.uleb128 0x2116
 4949 022e 19       		.uleb128 0x19
 4950 022f 01       		.uleb128 0x1
 4951 0230 13       		.uleb128 0x13
 4952 0231 00       		.byte	0
 4953 0232 00       		.byte	0
 4954 0233 28       		.uleb128 0x28
 4955 0234 34       		.uleb128 0x34
 4956 0235 00       		.byte	0
 4957 0236 03       		.uleb128 0x3
 4958 0237 0E       		.uleb128 0xe
 4959 0238 3A       		.uleb128 0x3a
 4960 0239 0B       		.uleb128 0xb
 4961 023a 3B       		.uleb128 0x3b
 4962 023b 0B       		.uleb128 0xb
 4963 023c 49       		.uleb128 0x49
 4964 023d 13       		.uleb128 0x13
 4965 023e 02       		.uleb128 0x2
 4966 023f 18       		.uleb128 0x18
 4967 0240 00       		.byte	0
 4968 0241 00       		.byte	0
 4969 0242 29       		.uleb128 0x29
 4970 0243 34       		.uleb128 0x34
 4971 0244 00       		.byte	0
 4972 0245 03       		.uleb128 0x3
 4973 0246 08       		.uleb128 0x8
 4974 0247 3A       		.uleb128 0x3a
 4975 0248 0B       		.uleb128 0xb
 4976 0249 3B       		.uleb128 0x3b
 4977 024a 0B       		.uleb128 0xb
 4978 024b 49       		.uleb128 0x49
 4979 024c 13       		.uleb128 0x13
 4980 024d 02       		.uleb128 0x2
 4981 024e 18       		.uleb128 0x18
 4982 024f 00       		.byte	0
 4983 0250 00       		.byte	0
 4984 0251 2A       		.uleb128 0x2a
 4985 0252 0B       		.uleb128 0xb
 4986 0253 01       		.byte	0x1
 4987 0254 11       		.uleb128 0x11
 4988 0255 01       		.uleb128 0x1
 4989 0256 12       		.uleb128 0x12
 4990 0257 06       		.uleb128 0x6
 4991 0258 01       		.uleb128 0x1
 4992 0259 13       		.uleb128 0x13
 4993 025a 00       		.byte	0
 4994 025b 00       		.byte	0
 4995 025c 2B       		.uleb128 0x2b
 4996 025d 0B       		.uleb128 0xb
 4997 025e 01       		.byte	0x1
 4998 025f 11       		.uleb128 0x11
 4999 0260 01       		.uleb128 0x1
 5000 0261 12       		.uleb128 0x12
 5001 0262 06       		.uleb128 0x6
 5002 0263 00       		.byte	0
ARM GAS  C:\Users\tmj32\AppData\Local\Temp\ccH9iEPr.s 			page 108


 5003 0264 00       		.byte	0
 5004 0265 2C       		.uleb128 0x2c
 5005 0266 2E       		.uleb128 0x2e
 5006 0267 01       		.byte	0x1
 5007 0268 3F       		.uleb128 0x3f
 5008 0269 19       		.uleb128 0x19
 5009 026a 03       		.uleb128 0x3
 5010 026b 0E       		.uleb128 0xe
 5011 026c 3A       		.uleb128 0x3a
 5012 026d 0B       		.uleb128 0xb
 5013 026e 3B       		.uleb128 0x3b
 5014 026f 0B       		.uleb128 0xb
 5015 0270 27       		.uleb128 0x27
 5016 0271 19       		.uleb128 0x19
 5017 0272 11       		.uleb128 0x11
 5018 0273 01       		.uleb128 0x1
 5019 0274 12       		.uleb128 0x12
 5020 0275 06       		.uleb128 0x6
 5021 0276 40       		.uleb128 0x40
 5022 0277 18       		.uleb128 0x18
 5023 0278 9642     		.uleb128 0x2116
 5024 027a 19       		.uleb128 0x19
 5025 027b 01       		.uleb128 0x1
 5026 027c 13       		.uleb128 0x13
 5027 027d 00       		.byte	0
 5028 027e 00       		.byte	0
 5029 027f 2D       		.uleb128 0x2d
 5030 0280 2E       		.uleb128 0x2e
 5031 0281 01       		.byte	0x1
 5032 0282 03       		.uleb128 0x3
 5033 0283 0E       		.uleb128 0xe
 5034 0284 3A       		.uleb128 0x3a
 5035 0285 0B       		.uleb128 0xb
 5036 0286 3B       		.uleb128 0x3b
 5037 0287 0B       		.uleb128 0xb
 5038 0288 27       		.uleb128 0x27
 5039 0289 19       		.uleb128 0x19
 5040 028a 49       		.uleb128 0x49
 5041 028b 13       		.uleb128 0x13
 5042 028c 11       		.uleb128 0x11
 5043 028d 01       		.uleb128 0x1
 5044 028e 12       		.uleb128 0x12
 5045 028f 06       		.uleb128 0x6
 5046 0290 40       		.uleb128 0x40
 5047 0291 18       		.uleb128 0x18
 5048 0292 9642     		.uleb128 0x2116
 5049 0294 19       		.uleb128 0x19
 5050 0295 01       		.uleb128 0x1
 5051 0296 13       		.uleb128 0x13
 5052 0297 00       		.byte	0
 5053 0298 00       		.byte	0
 5054 0299 2E       		.uleb128 0x2e
 5055 029a 05       		.uleb128 0x5
 5056 029b 00       		.byte	0
 5057 029c 03       		.uleb128 0x3
 5058 029d 08       		.uleb128 0x8
 5059 029e 3A       		.uleb128 0x3a
ARM GAS  C:\Users\tmj32\AppData\Local\Temp\ccH9iEPr.s 			page 109


 5060 029f 0B       		.uleb128 0xb
 5061 02a0 3B       		.uleb128 0x3b
 5062 02a1 05       		.uleb128 0x5
 5063 02a2 49       		.uleb128 0x49
 5064 02a3 13       		.uleb128 0x13
 5065 02a4 02       		.uleb128 0x2
 5066 02a5 18       		.uleb128 0x18
 5067 02a6 00       		.byte	0
 5068 02a7 00       		.byte	0
 5069 02a8 2F       		.uleb128 0x2f
 5070 02a9 34       		.uleb128 0x34
 5071 02aa 00       		.byte	0
 5072 02ab 03       		.uleb128 0x3
 5073 02ac 08       		.uleb128 0x8
 5074 02ad 3A       		.uleb128 0x3a
 5075 02ae 0B       		.uleb128 0xb
 5076 02af 3B       		.uleb128 0x3b
 5077 02b0 05       		.uleb128 0x5
 5078 02b1 49       		.uleb128 0x49
 5079 02b2 13       		.uleb128 0x13
 5080 02b3 02       		.uleb128 0x2
 5081 02b4 18       		.uleb128 0x18
 5082 02b5 00       		.byte	0
 5083 02b6 00       		.byte	0
 5084 02b7 30       		.uleb128 0x30
 5085 02b8 34       		.uleb128 0x34
 5086 02b9 00       		.byte	0
 5087 02ba 03       		.uleb128 0x3
 5088 02bb 0E       		.uleb128 0xe
 5089 02bc 3A       		.uleb128 0x3a
 5090 02bd 0B       		.uleb128 0xb
 5091 02be 3B       		.uleb128 0x3b
 5092 02bf 05       		.uleb128 0x5
 5093 02c0 49       		.uleb128 0x49
 5094 02c1 13       		.uleb128 0x13
 5095 02c2 02       		.uleb128 0x2
 5096 02c3 18       		.uleb128 0x18
 5097 02c4 00       		.byte	0
 5098 02c5 00       		.byte	0
 5099 02c6 31       		.uleb128 0x31
 5100 02c7 34       		.uleb128 0x34
 5101 02c8 00       		.byte	0
 5102 02c9 03       		.uleb128 0x3
 5103 02ca 0E       		.uleb128 0xe
 5104 02cb 3A       		.uleb128 0x3a
 5105 02cc 0B       		.uleb128 0xb
 5106 02cd 3B       		.uleb128 0x3b
 5107 02ce 05       		.uleb128 0x5
 5108 02cf 49       		.uleb128 0x49
 5109 02d0 13       		.uleb128 0x13
 5110 02d1 3F       		.uleb128 0x3f
 5111 02d2 19       		.uleb128 0x19
 5112 02d3 3C       		.uleb128 0x3c
 5113 02d4 19       		.uleb128 0x19
 5114 02d5 00       		.byte	0
 5115 02d6 00       		.byte	0
 5116 02d7 00       		.byte	0
ARM GAS  C:\Users\tmj32\AppData\Local\Temp\ccH9iEPr.s 			page 110


 5117              		.section	.debug_aranges,"",%progbits
 5118 0000 84000000 		.4byte	0x84
 5119 0004 0200     		.2byte	0x2
 5120 0006 00000000 		.4byte	.Ldebug_info0
 5121 000a 04       		.byte	0x4
 5122 000b 00       		.byte	0
 5123 000c 0000     		.2byte	0
 5124 000e 0000     		.2byte	0
 5125 0010 00000000 		.4byte	.LFB0
 5126 0014 18000000 		.4byte	.LFE0-.LFB0
 5127 0018 00000000 		.4byte	.LFB32
 5128 001c 26000000 		.4byte	.LFE32-.LFB32
 5129 0020 00000000 		.4byte	.LFB35
 5130 0024 1E000000 		.4byte	.LFE35-.LFB35
 5131 0028 00000000 		.4byte	.LFB38
 5132 002c 1E000000 		.4byte	.LFE38-.LFB38
 5133 0030 00000000 		.4byte	.LFB45
 5134 0034 1C000000 		.4byte	.LFE45-.LFB45
 5135 0038 00000000 		.4byte	.LFB50
 5136 003c D4010000 		.4byte	.LFE50-.LFB50
 5137 0040 00000000 		.4byte	.LFB51
 5138 0044 26000000 		.4byte	.LFE51-.LFB51
 5139 0048 00000000 		.4byte	.LFB52
 5140 004c 26000000 		.4byte	.LFE52-.LFB52
 5141 0050 00000000 		.4byte	.LFB53
 5142 0054 C8000000 		.4byte	.LFE53-.LFB53
 5143 0058 00000000 		.4byte	.LFB54
 5144 005c 24000000 		.4byte	.LFE54-.LFB54
 5145 0060 00000000 		.4byte	.LFB55
 5146 0064 A8000000 		.4byte	.LFE55-.LFB55
 5147 0068 00000000 		.4byte	.LFB56
 5148 006c 90000000 		.4byte	.LFE56-.LFB56
 5149 0070 00000000 		.4byte	.LFB57
 5150 0074 58000000 		.4byte	.LFE57-.LFB57
 5151 0078 00000000 		.4byte	.LFB58
 5152 007c 08010000 		.4byte	.LFE58-.LFB58
 5153 0080 00000000 		.4byte	0
 5154 0084 00000000 		.4byte	0
 5155              		.section	.debug_ranges,"",%progbits
 5156              	.Ldebug_ranges0:
 5157 0000 00000000 		.4byte	.LFB0
 5158 0004 18000000 		.4byte	.LFE0
 5159 0008 00000000 		.4byte	.LFB32
 5160 000c 26000000 		.4byte	.LFE32
 5161 0010 00000000 		.4byte	.LFB35
 5162 0014 1E000000 		.4byte	.LFE35
 5163 0018 00000000 		.4byte	.LFB38
 5164 001c 1E000000 		.4byte	.LFE38
 5165 0020 00000000 		.4byte	.LFB45
 5166 0024 1C000000 		.4byte	.LFE45
 5167 0028 00000000 		.4byte	.LFB50
 5168 002c D4010000 		.4byte	.LFE50
 5169 0030 00000000 		.4byte	.LFB51
 5170 0034 26000000 		.4byte	.LFE51
 5171 0038 00000000 		.4byte	.LFB52
 5172 003c 26000000 		.4byte	.LFE52
 5173 0040 00000000 		.4byte	.LFB53
ARM GAS  C:\Users\tmj32\AppData\Local\Temp\ccH9iEPr.s 			page 111


 5174 0044 C8000000 		.4byte	.LFE53
 5175 0048 00000000 		.4byte	.LFB54
 5176 004c 24000000 		.4byte	.LFE54
 5177 0050 00000000 		.4byte	.LFB55
 5178 0054 A8000000 		.4byte	.LFE55
 5179 0058 00000000 		.4byte	.LFB56
 5180 005c 90000000 		.4byte	.LFE56
 5181 0060 00000000 		.4byte	.LFB57
 5182 0064 58000000 		.4byte	.LFE57
 5183 0068 00000000 		.4byte	.LFB58
 5184 006c 08010000 		.4byte	.LFE58
 5185 0070 00000000 		.4byte	0
 5186 0074 00000000 		.4byte	0
 5187              		.section	.debug_line,"",%progbits
 5188              	.Ldebug_line0:
 5189 0000 50050000 		.section	.debug_str,"MS",%progbits,1
 5189      02007C03 
 5189      00000201 
 5189      FB0E0D00 
 5189      01010101 
 5190              	.LASF14:
 5191 0000 696E7438 		.ascii	"int8_t\000"
 5191      5F7400
 5192              	.LASF75:
 5193 0007 6C765F6C 		.ascii	"lv_ll_node_t\000"
 5193      6C5F6E6F 
 5193      64655F74 
 5193      00
 5194              	.LASF21:
 5195 0014 6164765F 		.ascii	"adv_w\000"
 5195      7700
 5196              	.LASF228:
 5197 001a 68656164 		.ascii	"header_pr\000"
 5197      65725F70 
 5197      7200
 5198              	.LASF40:
 5199 0024 73697A65 		.ascii	"sizetype\000"
 5199      74797065 
 5199      00
 5200              	.LASF176:
 5201 002d 4C565F4B 		.ascii	"LV_KEY_RIGHT\000"
 5201      45595F52 
 5201      49474854 
 5201      00
 5202              	.LASF37:
 5203 003a 6C765F63 		.ascii	"lv_color32_t\000"
 5203      6F6C6F72 
 5203      33325F74 
 5203      00
 5204              	.LASF238:
 5205 0047 63656C6C 		.ascii	"cell\000"
 5205      00
 5206              	.LASF204:
 5207 004c 6C765F6C 		.ascii	"lv_label_style_t\000"
 5207      6162656C 
 5207      5F737479 
 5207      6C655F74 
ARM GAS  C:\Users\tmj32\AppData\Local\Temp\ccH9iEPr.s 			page 112


 5207      00
 5208              	.LASF78:
 5209 005d 7461696C 		.ascii	"tail\000"
 5209      00
 5210              	.LASF146:
 5211 0062 4C565F50 		.ascii	"LV_PROTECT_POS\000"
 5211      524F5445 
 5211      43545F50 
 5211      4F5300
 5212              	.LASF115:
 5213 0071 4C565F53 		.ascii	"LV_SIGNAL_STYLE_CHG\000"
 5213      49474E41 
 5213      4C5F5354 
 5213      594C455F 
 5213      43484700 
 5214              	.LASF39:
 5215 0085 6C765F6F 		.ascii	"lv_opa_t\000"
 5215      70615F74 
 5215      00
 5216              	.LASF192:
 5217 008e 6C765F62 		.ascii	"lv_btn_state_t\000"
 5217      746E5F73 
 5217      74617465 
 5217      5F7400
 5218              	.LASF63:
 5219 009d 696E7465 		.ascii	"intense\000"
 5219      6E736500 
 5220              	.LASF243:
 5221 00a5 6C6D6574 		.ascii	"lmeter\000"
 5221      657200
 5222              	.LASF123:
 5223 00ac 4C565F53 		.ascii	"LV_SIGNAL_LONG_PRESS\000"
 5223      49474E41 
 5223      4C5F4C4F 
 5223      4E475F50 
 5223      52455353 
 5224              	.LASF55:
 5225 00c1 72616469 		.ascii	"radius\000"
 5225      757300
 5226              	.LASF140:
 5227 00c8 6C765F72 		.ascii	"lv_reailgn_t\000"
 5227      6561696C 
 5227      676E5F74 
 5227      00
 5228              	.LASF29:
 5229 00d5 6C696E65 		.ascii	"line_height\000"
 5229      5F686569 
 5229      67687400 
 5230              	.LASF90:
 5231 00e1 636C6963 		.ascii	"click\000"
 5231      6B00
 5232              	.LASF133:
 5233 00e7 6C765F61 		.ascii	"lv_align_t\000"
 5233      6C69676E 
 5233      5F7400
 5234              	.LASF282:
 5235 00f2 6C765F63 		.ascii	"lv_cb_signal\000"
ARM GAS  C:\Users\tmj32\AppData\Local\Temp\ccH9iEPr.s 			page 113


 5235      625F7369 
 5235      676E616C 
 5235      00
 5236              	.LASF125:
 5237 00ff 4C565F53 		.ascii	"LV_SIGNAL_DRAG_BEGIN\000"
 5237      49474E41 
 5237      4C5F4452 
 5237      41475F42 
 5237      4547494E 
 5238              	.LASF230:
 5239 0114 68696768 		.ascii	"highlighted_days\000"
 5239      6C696768 
 5239      7465645F 
 5239      64617973 
 5239      00
 5240              	.LASF283:
 5241 0125 7369676E 		.ascii	"sign\000"
 5241      00
 5242              	.LASF109:
 5243 012a 6C765F65 		.ascii	"lv_event_t\000"
 5243      76656E74 
 5243      5F7400
 5244              	.LASF269:
 5245 0135 6C765F63 		.ascii	"lv_cb_set_text\000"
 5245      625F7365 
 5245      745F7465 
 5245      787400
 5246              	.LASF195:
 5247 0144 73746174 		.ascii	"state\000"
 5247      6500
 5248              	.LASF181:
 5249 014a 4C565F4B 		.ascii	"LV_KEY_ENTER\000"
 5249      45595F45 
 5249      4E544552 
 5249      00
 5250              	.LASF72:
 5251 0157 4C565F52 		.ascii	"LV_RES_INV\000"
 5251      45535F49 
 5251      4E5600
 5252              	.LASF119:
 5253 0162 4C565F53 		.ascii	"LV_SIGNAL_PRESSED\000"
 5253      49474E41 
 5253      4C5F5052 
 5253      45535345 
 5253      4400
 5254              	.LASF48:
 5255 0174 74797065 		.ascii	"type\000"
 5255      00
 5256              	.LASF292:
 5257 0179 2E2E5C2E 		.ascii	"..\\..\\..\\lvgl\\version_6.1.2\\lvgl\\src\\lv_objx"
 5257      2E5C2E2E 
 5257      5C6C7667 
 5257      6C5C7665 
 5257      7273696F 
 5258 01a5 5C6C765F 		.ascii	"\\lv_cb.c\000"
 5258      63622E63 
 5258      00
ARM GAS  C:\Users\tmj32\AppData\Local\Temp\ccH9iEPr.s 			page 114


 5259              	.LASF162:
 5260 01ae 4C565F46 		.ascii	"LV_FIT_NONE\000"
 5260      49545F4E 
 5260      4F4E4500 
 5261              	.LASF220:
 5262 01ba 6C696768 		.ascii	"light\000"
 5262      7400
 5263              	.LASF197:
 5264 01c0 6C765F62 		.ascii	"lv_btn_ext_t\000"
 5264      746E5F65 
 5264      78745F74 
 5264      00
 5265              	.LASF193:
 5266 01cd 636F6E74 		.ascii	"cont\000"
 5266      00
 5267              	.LASF218:
 5268 01d2 7072696D 		.ascii	"prim\000"
 5268      00
 5269              	.LASF186:
 5270 01d7 4C565F42 		.ascii	"LV_BTN_STATE_REL\000"
 5270      544E5F53 
 5270      54415445 
 5270      5F52454C 
 5270      00
 5271              	.LASF246:
 5272 01e8 63686172 		.ascii	"chart\000"
 5272      7400
 5273              	.LASF273:
 5274 01ee 6C765F63 		.ascii	"lv_cb_get_text\000"
 5274      625F6765 
 5274      745F7465 
 5274      787400
 5275              	.LASF1:
 5276 01fd 5F5F7569 		.ascii	"__uint8_t\000"
 5276      6E74385F 
 5276      7400
 5277              	.LASF35:
 5278 0207 616C7068 		.ascii	"alpha\000"
 5278      6100
 5279              	.LASF265:
 5280 020d 6C765F6C 		.ascii	"lv_label_get_style\000"
 5280      6162656C 
 5280      5F676574 
 5280      5F737479 
 5280      6C6500
 5281              	.LASF94:
 5282 0220 68696464 		.ascii	"hidden\000"
 5282      656E00
 5283              	.LASF8:
 5284 0227 6C6F6E67 		.ascii	"long int\000"
 5284      20696E74 
 5284      00
 5285              	.LASF263:
 5286 0230 6C765F62 		.ascii	"lv_btn_set_fit\000"
 5286      746E5F73 
 5286      65745F66 
 5286      697400
ARM GAS  C:\Users\tmj32\AppData\Local\Temp\ccH9iEPr.s 			page 115


 5287              	.LASF256:
 5288 023f 74696C65 		.ascii	"tileview\000"
 5288      76696577 
 5288      00
 5289              	.LASF179:
 5290 0248 4C565F4B 		.ascii	"LV_KEY_DEL\000"
 5290      45595F44 
 5290      454C00
 5291              	.LASF266:
 5292 0253 636F7079 		.ascii	"copy\000"
 5292      00
 5293              	.LASF157:
 5294 0258 4C565F4C 		.ascii	"LV_LAYOUT_ROW_B\000"
 5294      41594F55 
 5294      545F524F 
 5294      575F4200 
 5295              	.LASF158:
 5296 0268 4C565F4C 		.ascii	"LV_LAYOUT_PRETTY\000"
 5296      41594F55 
 5296      545F5052 
 5296      45545459 
 5296      00
 5297              	.LASF77:
 5298 0279 68656164 		.ascii	"head\000"
 5298      00
 5299              	.LASF156:
 5300 027e 4C565F4C 		.ascii	"LV_LAYOUT_ROW_M\000"
 5300      41594F55 
 5300      545F524F 
 5300      575F4D00 
 5301              	.LASF155:
 5302 028e 4C565F4C 		.ascii	"LV_LAYOUT_ROW_T\000"
 5302      41594F55 
 5302      545F524F 
 5302      575F5400 
 5303              	.LASF198:
 5304 029e 4C565F42 		.ascii	"LV_BTN_STYLE_REL\000"
 5304      544E5F53 
 5304      54594C45 
 5304      5F52454C 
 5304      00
 5305              	.LASF248:
 5306 02af 62746E6D 		.ascii	"btnm\000"
 5306      00
 5307              	.LASF177:
 5308 02b4 4C565F4B 		.ascii	"LV_KEY_LEFT\000"
 5308      45595F4C 
 5308      45465400 
 5309              	.LASF2:
 5310 02c0 7369676E 		.ascii	"signed char\000"
 5310      65642063 
 5310      68617200 
 5311              	.LASF15:
 5312 02cc 75696E74 		.ascii	"uint8_t\000"
 5312      385F7400 
 5313              	.LASF233:
 5314 02d4 746F6461 		.ascii	"today_box\000"
ARM GAS  C:\Users\tmj32\AppData\Local\Temp\ccH9iEPr.s 			page 116


 5314      795F626F 
 5314      7800
 5315              	.LASF217:
 5316 02de 74676C5F 		.ascii	"tgl_pr\000"
 5316      707200
 5317              	.LASF171:
 5318 02e5 6669745F 		.ascii	"fit_top\000"
 5318      746F7000 
 5319              	.LASF28:
 5320 02ed 6765745F 		.ascii	"get_glyph_bitmap\000"
 5320      676C7970 
 5320      685F6269 
 5320      746D6170 
 5320      00
 5321              	.LASF234:
 5322 02fe 7363726C 		.ascii	"scrl\000"
 5322      00
 5323              	.LASF33:
 5324 0303 626C7565 		.ascii	"blue\000"
 5324      00
 5325              	.LASF124:
 5326 0308 4C565F53 		.ascii	"LV_SIGNAL_LONG_PRESS_REP\000"
 5326      49474E41 
 5326      4C5F4C4F 
 5326      4E475F50 
 5326      52455353 
 5327              	.LASF3:
 5328 0321 756E7369 		.ascii	"unsigned char\000"
 5328      676E6564 
 5328      20636861 
 5328      7200
 5329              	.LASF117:
 5330 032f 4C565F53 		.ascii	"LV_SIGNAL_REFR_EXT_DRAW_PAD\000"
 5330      49474E41 
 5330      4C5F5245 
 5330      46525F45 
 5330      58545F44 
 5331              	.LASF97:
 5332 034b 64726167 		.ascii	"drag_dir\000"
 5332      5F646972 
 5332      00
 5333              	.LASF145:
 5334 0354 4C565F50 		.ascii	"LV_PROTECT_PARENT\000"
 5334      524F5445 
 5334      43545F50 
 5334      4152454E 
 5334      5400
 5335              	.LASF278:
 5336 0366 72657375 		.ascii	"result\000"
 5336      6C7400
 5337              	.LASF226:
 5338 036d 6B6E6F62 		.ascii	"knob_on\000"
 5338      5F6F6E00 
 5339              	.LASF24:
 5340 0375 6F66735F 		.ascii	"ofs_x\000"
 5340      7800
 5341              	.LASF25:
ARM GAS  C:\Users\tmj32\AppData\Local\Temp\ccH9iEPr.s 			page 117


 5342 037b 6F66735F 		.ascii	"ofs_y\000"
 5342      7900
 5343              	.LASF180:
 5344 0381 4C565F4B 		.ascii	"LV_KEY_BACKSPACE\000"
 5344      45595F42 
 5344      41434B53 
 5344      50414345 
 5344      00
 5345              	.LASF227:
 5346 0392 68656164 		.ascii	"header\000"
 5346      657200
 5347              	.LASF31:
 5348 0399 5F426F6F 		.ascii	"_Bool\000"
 5348      6C00
 5349              	.LASF274:
 5350 039f 6C765F63 		.ascii	"lv_cb_get_style\000"
 5350      625F6765 
 5350      745F7374 
 5350      796C6500 
 5351              	.LASF132:
 5352 03af 6C765F73 		.ascii	"lv_signal_cb_t\000"
 5352      69676E61 
 5352      6C5F6362 
 5352      5F7400
 5353              	.LASF257:
 5354 03be 7461626C 		.ascii	"table\000"
 5354      6500
 5355              	.LASF41:
 5356 03c4 63686172 		.ascii	"char\000"
 5356      00
 5357              	.LASF160:
 5358 03c9 5F4C565F 		.ascii	"_LV_LAYOUT_NUM\000"
 5358      4C41594F 
 5358      55545F4E 
 5358      554D00
 5359              	.LASF105:
 5360 03d8 4C565F44 		.ascii	"LV_DESIGN_DRAW_POST\000"
 5360      45534947 
 5360      4E5F4452 
 5360      41575F50 
 5360      4F535400 
 5361              	.LASF67:
 5362 03ec 626F6479 		.ascii	"body\000"
 5362      00
 5363              	.LASF136:
 5364 03f1 796F6673 		.ascii	"yofs\000"
 5364      00
 5365              	.LASF6:
 5366 03f6 5F5F7569 		.ascii	"__uint16_t\000"
 5366      6E743136 
 5366      5F7400
 5367              	.LASF232:
 5368 0401 7765656B 		.ascii	"week_box\000"
 5368      5F626F78 
 5368      00
 5369              	.LASF152:
 5370 040a 4C565F4C 		.ascii	"LV_LAYOUT_COL_L\000"
ARM GAS  C:\Users\tmj32\AppData\Local\Temp\ccH9iEPr.s 			page 118


 5370      41594F55 
 5370      545F434F 
 5370      4C5F4C00 
 5371              	.LASF153:
 5372 041a 4C565F4C 		.ascii	"LV_LAYOUT_COL_M\000"
 5372      41594F55 
 5372      545F434F 
 5372      4C5F4D00 
 5373              	.LASF154:
 5374 042a 4C565F4C 		.ascii	"LV_LAYOUT_COL_R\000"
 5374      41594F55 
 5374      545F434F 
 5374      4C5F5200 
 5375              	.LASF199:
 5376 043a 4C565F42 		.ascii	"LV_BTN_STYLE_PR\000"
 5376      544E5F53 
 5376      54594C45 
 5376      5F505200 
 5377              	.LASF106:
 5378 044a 4C565F44 		.ascii	"LV_DESIGN_COVER_CHK\000"
 5378      45534947 
 5378      4E5F434F 
 5378      5645525F 
 5378      43484B00 
 5379              	.LASF289:
 5380 045e 6C765F73 		.ascii	"lv_style_transp\000"
 5380      74796C65 
 5380      5F747261 
 5380      6E737000 
 5381              	.LASF87:
 5382 046e 64657369 		.ascii	"design_cb\000"
 5382      676E5F63 
 5382      6200
 5383              	.LASF128:
 5384 0478 4C565F53 		.ascii	"LV_SIGNAL_DEFOCUS\000"
 5384      49474E41 
 5384      4C5F4445 
 5384      464F4355 
 5384      5300
 5385              	.LASF253:
 5386 048a 64646C69 		.ascii	"ddlist\000"
 5386      737400
 5387              	.LASF68:
 5388 0491 74657874 		.ascii	"text\000"
 5388      00
 5389              	.LASF208:
 5390 0496 6C765F63 		.ascii	"lv_cb_ext_t\000"
 5390      625F6578 
 5390      745F7400 
 5391              	.LASF286:
 5392 04a2 616E6365 		.ascii	"ancestor_bg_design\000"
 5392      73746F72 
 5392      5F62675F 
 5392      64657369 
 5392      676E00
 5393              	.LASF69:
 5394 04b5 696D6167 		.ascii	"image\000"
ARM GAS  C:\Users\tmj32\AppData\Local\Temp\ccH9iEPr.s 			page 119


 5394      6500
 5395              	.LASF65:
 5396 04bb 726F756E 		.ascii	"rounded\000"
 5396      64656400 
 5397              	.LASF92:
 5398 04c3 64726167 		.ascii	"drag_throw\000"
 5398      5F746872 
 5398      6F7700
 5399              	.LASF231:
 5400 04ce 696E6163 		.ascii	"inactive_days\000"
 5400      74697665 
 5400      5F646179 
 5400      7300
 5401              	.LASF80:
 5402 04dc 6C765F62 		.ascii	"lv_bidi_dir_t\000"
 5402      6964695F 
 5402      6469725F 
 5402      7400
 5403              	.LASF102:
 5404 04ea 6578745F 		.ascii	"ext_draw_pad\000"
 5404      64726177 
 5404      5F706164 
 5404      00
 5405              	.LASF42:
 5406 04f7 6C765F61 		.ascii	"lv_area_t\000"
 5406      7265615F 
 5406      7400
 5407              	.LASF147:
 5408 0501 4C565F50 		.ascii	"LV_PROTECT_FOLLOW\000"
 5408      524F5445 
 5408      43545F46 
 5408      4F4C4C4F 
 5408      5700
 5409              	.LASF50:
 5410 0513 6C656674 		.ascii	"left\000"
 5410      00
 5411              	.LASF259:
 5412 0518 6C765F74 		.ascii	"lv_theme_t\000"
 5412      68656D65 
 5412      5F7400
 5413              	.LASF272:
 5414 0523 6C765F63 		.ascii	"lv_cb_create\000"
 5414      625F6372 
 5414      65617465 
 5414      00
 5415              	.LASF103:
 5416 0530 7265616C 		.ascii	"realign\000"
 5416      69676E00 
 5417              	.LASF261:
 5418 0538 6C765F63 		.ascii	"lv_cont_set_fit\000"
 5418      6F6E745F 
 5418      7365745F 
 5418      66697400 
 5419              	.LASF118:
 5420 0548 4C565F53 		.ascii	"LV_SIGNAL_GET_TYPE\000"
 5420      49474E41 
 5420      4C5F4745 
ARM GAS  C:\Users\tmj32\AppData\Local\Temp\ccH9iEPr.s 			page 120


 5420      545F5459 
 5420      504500
 5421              	.LASF235:
 5422 055b 61726561 		.ascii	"area\000"
 5422      00
 5423              	.LASF275:
 5424 0560 6C765F63 		.ascii	"lv_cb_design\000"
 5424      625F6465 
 5424      7369676E 
 5424      00
 5425              	.LASF212:
 5426 056d 4C565F43 		.ascii	"LV_CB_STYLE_BOX_TGL_REL\000"
 5426      425F5354 
 5426      594C455F 
 5426      424F585F 
 5426      54474C5F 
 5427              	.LASF71:
 5428 0585 6C765F73 		.ascii	"lv_style_t\000"
 5428      74796C65 
 5428      5F7400
 5429              	.LASF52:
 5430 0590 696E6E65 		.ascii	"inner\000"
 5430      7200
 5431              	.LASF210:
 5432 0596 4C565F43 		.ascii	"LV_CB_STYLE_BOX_REL\000"
 5432      425F5354 
 5432      594C455F 
 5432      424F585F 
 5432      52454C00 
 5433              	.LASF194:
 5434 05aa 7374796C 		.ascii	"styles\000"
 5434      657300
 5435              	.LASF164:
 5436 05b1 4C565F46 		.ascii	"LV_FIT_FLOOD\000"
 5436      49545F46 
 5436      4C4F4F44 
 5436      00
 5437              	.LASF10:
 5438 05be 6C6F6E67 		.ascii	"long unsigned int\000"
 5438      20756E73 
 5438      69676E65 
 5438      6420696E 
 5438      7400
 5439              	.LASF267:
 5440 05d0 6E65775F 		.ascii	"new_cb\000"
 5440      636200
 5441              	.LASF184:
 5442 05d7 4C565F4B 		.ascii	"LV_KEY_HOME\000"
 5442      45595F48 
 5442      4F4D4500 
 5443              	.LASF219:
 5444 05e3 68696E74 		.ascii	"hint\000"
 5444      00
 5445              	.LASF284:
 5446 05e8 70617261 		.ascii	"param\000"
 5446      6D00
 5447              	.LASF188:
ARM GAS  C:\Users\tmj32\AppData\Local\Temp\ccH9iEPr.s 			page 121


 5448 05ee 4C565F42 		.ascii	"LV_BTN_STATE_TGL_REL\000"
 5448      544E5F53 
 5448      54415445 
 5448      5F54474C 
 5448      5F52454C 
 5449              	.LASF150:
 5450 0603 4C565F4C 		.ascii	"LV_LAYOUT_OFF\000"
 5450      41594F55 
 5450      545F4F46 
 5450      4600
 5451              	.LASF70:
 5452 0611 6C696E65 		.ascii	"line\000"
 5452      00
 5453              	.LASF127:
 5454 0616 4C565F53 		.ascii	"LV_SIGNAL_FOCUS\000"
 5454      49474E41 
 5454      4C5F464F 
 5454      43555300 
 5455              	.LASF215:
 5456 0626 6C765F63 		.ascii	"lv_cb_style_t\000"
 5456      625F7374 
 5456      796C655F 
 5456      7400
 5457              	.LASF130:
 5458 0634 4C565F53 		.ascii	"LV_SIGNAL_GET_EDITABLE\000"
 5458      49474E41 
 5458      4C5F4745 
 5458      545F4544 
 5458      49544142 
 5459              	.LASF203:
 5460 064b 4C565F4C 		.ascii	"LV_LABEL_STYLE_MAIN\000"
 5460      4142454C 
 5460      5F535459 
 5460      4C455F4D 
 5460      41494E00 
 5461              	.LASF9:
 5462 065f 5F5F7569 		.ascii	"__uint32_t\000"
 5462      6E743332 
 5462      5F7400
 5463              	.LASF85:
 5464 066a 6576656E 		.ascii	"event_cb\000"
 5464      745F6362 
 5464      00
 5465              	.LASF51:
 5466 0673 72696768 		.ascii	"right\000"
 5466      7400
 5467              	.LASF89:
 5468 0679 7374796C 		.ascii	"style_p\000"
 5468      655F7000 
 5469              	.LASF11:
 5470 0681 6C6F6E67 		.ascii	"long long int\000"
 5470      206C6F6E 
 5470      6720696E 
 5470      7400
 5471              	.LASF293:
 5472 068f 433A5C55 		.ascii	"C:\\Users\\tmj32\\Documents\\TCNJ\\Senior_Project\\"
 5472      73657273 
ARM GAS  C:\Users\tmj32\AppData\Local\Temp\ccH9iEPr.s 			page 122


 5472      5C746D6A 
 5472      33325C44 
 5472      6F63756D 
 5473 06bc 4F736369 		.ascii	"Oscilloscope_Senior_Project\\tcom_engineering\\embe"
 5473      6C6C6F73 
 5473      636F7065 
 5473      5F53656E 
 5473      696F725F 
 5474 06ed 645F7377 		.ascii	"d_sw\\tcom_app\\tcom_app_psoc6_lvgl6\\tcom_displ_te"
 5474      5C74636F 
 5474      6D5F6170 
 5474      705C7463 
 5474      6F6D5F61 
 5475 071d 73745F70 		.ascii	"st_psoc6.cydsn\000"
 5475      736F6336 
 5475      2E637964 
 5475      736E00
 5476              	.LASF281:
 5477 072c 6C765F62 		.ascii	"lv_bullet_design\000"
 5477      756C6C65 
 5477      745F6465 
 5477      7369676E 
 5477      00
 5478              	.LASF46:
 5479 073d 77696474 		.ascii	"width\000"
 5479      6800
 5480              	.LASF129:
 5481 0743 4C565F53 		.ascii	"LV_SIGNAL_CONTROL\000"
 5481      49474E41 
 5481      4C5F434F 
 5481      4E54524F 
 5481      4C00
 5482              	.LASF49:
 5483 0755 626F7474 		.ascii	"bottom\000"
 5483      6F6D00
 5484              	.LASF83:
 5485 075c 6368696C 		.ascii	"child_ll\000"
 5485      645F6C6C 
 5485      00
 5486              	.LASF223:
 5487 0765 696E6469 		.ascii	"indic\000"
 5487      6300
 5488              	.LASF100:
 5489 076b 70726F74 		.ascii	"protect\000"
 5489      65637400 
 5490              	.LASF211:
 5491 0773 4C565F43 		.ascii	"LV_CB_STYLE_BOX_PR\000"
 5491      425F5354 
 5491      594C455F 
 5491      424F585F 
 5491      505200
 5492              	.LASF168:
 5493 0786 6C61796F 		.ascii	"layout\000"
 5493      757400
 5494              	.LASF276:
 5495 078d 6D61736B 		.ascii	"mask\000"
 5495      00
ARM GAS  C:\Users\tmj32\AppData\Local\Temp\ccH9iEPr.s 			page 123


 5496              	.LASF255:
 5497 0792 74616276 		.ascii	"tabview\000"
 5497      69657700 
 5498              	.LASF96:
 5499 079a 70617265 		.ascii	"parent_event\000"
 5499      6E745F65 
 5499      76656E74 
 5499      00
 5500              	.LASF111:
 5501 07a7 4C565F53 		.ascii	"LV_SIGNAL_CLEANUP\000"
 5501      49474E41 
 5501      4C5F434C 
 5501      45414E55 
 5501      5000
 5502              	.LASF137:
 5503 07b9 616C6967 		.ascii	"align\000"
 5503      6E00
 5504              	.LASF202:
 5505 07bf 4C565F42 		.ascii	"LV_BTN_STYLE_INA\000"
 5505      544E5F53 
 5505      54594C45 
 5505      5F494E41 
 5505      00
 5506              	.LASF66:
 5507 07d0 676C6173 		.ascii	"glass\000"
 5507      7300
 5508              	.LASF173:
 5509 07d6 6C765F63 		.ascii	"lv_cont_ext_t\000"
 5509      6F6E745F 
 5509      6578745F 
 5509      7400
 5510              	.LASF13:
 5511 07e4 756E7369 		.ascii	"unsigned int\000"
 5511      676E6564 
 5511      20696E74 
 5511      00
 5512              	.LASF112:
 5513 07f1 4C565F53 		.ascii	"LV_SIGNAL_CHILD_CHG\000"
 5513      49474E41 
 5513      4C5F4348 
 5513      494C445F 
 5513      43484700 
 5514              	.LASF249:
 5515 0805 6D626F78 		.ascii	"mbox\000"
 5515      00
 5516              	.LASF216:
 5517 080a 74676C5F 		.ascii	"tgl_rel\000"
 5517      72656C00 
 5518              	.LASF190:
 5519 0812 4C565F42 		.ascii	"LV_BTN_STATE_INA\000"
 5519      544E5F53 
 5519      54415445 
 5519      5F494E41 
 5519      00
 5520              	.LASF138:
 5521 0823 6175746F 		.ascii	"auto_realign\000"
 5521      5F726561 
ARM GAS  C:\Users\tmj32\AppData\Local\Temp\ccH9iEPr.s 			page 124


 5521      6C69676E 
 5521      00
 5522              	.LASF287:
 5523 0830 616E6365 		.ascii	"ancestor_bullet_design\000"
 5523      73746F72 
 5523      5F62756C 
 5523      6C65745F 
 5523      64657369 
 5524              	.LASF206:
 5525 0847 62756C6C 		.ascii	"bullet\000"
 5525      657400
 5526              	.LASF104:
 5527 084e 4C565F44 		.ascii	"LV_DESIGN_DRAW_MAIN\000"
 5527      45534947 
 5527      4E5F4452 
 5527      41575F4D 
 5527      41494E00 
 5528              	.LASF26:
 5529 0862 6C765F66 		.ascii	"lv_font_glyph_dsc_t\000"
 5529      6F6E745F 
 5529      676C7970 
 5529      685F6473 
 5529      635F7400 
 5530              	.LASF252:
 5531 0876 6C697374 		.ascii	"list\000"
 5531      00
 5532              	.LASF54:
 5533 087b 67726164 		.ascii	"grad_color\000"
 5533      5F636F6C 
 5533      6F7200
 5534              	.LASF169:
 5535 0886 6669745F 		.ascii	"fit_left\000"
 5535      6C656674 
 5535      00
 5536              	.LASF250:
 5537 088f 70616765 		.ascii	"page\000"
 5537      00
 5538              	.LASF225:
 5539 0894 6B6E6F62 		.ascii	"knob_off\000"
 5539      5F6F6666 
 5539      00
 5540              	.LASF244:
 5541 089d 67617567 		.ascii	"gauge\000"
 5541      6500
 5542              	.LASF182:
 5543 08a3 4C565F4B 		.ascii	"LV_KEY_NEXT\000"
 5543      45595F4E 
 5543      45585400 
 5544              	.LASF120:
 5545 08af 4C565F53 		.ascii	"LV_SIGNAL_PRESSING\000"
 5545      49474E41 
 5545      4C5F5052 
 5545      45535349 
 5545      4E4700
 5546              	.LASF262:
 5547 08c2 6C765F62 		.ascii	"lv_btn_set_layout\000"
 5547      746E5F73 
ARM GAS  C:\Users\tmj32\AppData\Local\Temp\ccH9iEPr.s 			page 125


 5547      65745F6C 
 5547      61796F75 
 5547      7400
 5548              	.LASF74:
 5549 08d4 6C765F72 		.ascii	"lv_res_t\000"
 5549      65735F74 
 5549      00
 5550              	.LASF20:
 5551 08dd 6C6F6E67 		.ascii	"long double\000"
 5551      20646F75 
 5551      626C6500 
 5552              	.LASF141:
 5553 08e9 6C765F64 		.ascii	"lv_drag_dir_t\000"
 5553      7261675F 
 5553      6469725F 
 5553      7400
 5554              	.LASF258:
 5555 08f7 7374796C 		.ascii	"style\000"
 5555      6500
 5556              	.LASF88:
 5557 08fd 6578745F 		.ascii	"ext_attr\000"
 5557      61747472 
 5557      00
 5558              	.LASF143:
 5559 0906 4C565F50 		.ascii	"LV_PROTECT_NONE\000"
 5559      524F5445 
 5559      43545F4E 
 5559      4F4E4500 
 5560              	.LASF107:
 5561 0916 6C765F64 		.ascii	"lv_design_mode_t\000"
 5561      65736967 
 5561      6E5F6D6F 
 5561      64655F74 
 5561      00
 5562              	.LASF64:
 5563 0927 73756270 		.ascii	"subpx\000"
 5563      7800
 5564              	.LASF121:
 5565 092d 4C565F53 		.ascii	"LV_SIGNAL_PRESS_LOST\000"
 5565      49474E41 
 5565      4C5F5052 
 5565      4553535F 
 5565      4C4F5354 
 5566              	.LASF185:
 5567 0942 4C565F4B 		.ascii	"LV_KEY_END\000"
 5567      45595F45 
 5567      4E4400
 5568              	.LASF126:
 5569 094d 4C565F53 		.ascii	"LV_SIGNAL_DRAG_END\000"
 5569      49474E41 
 5569      4C5F4452 
 5569      41475F45 
 5569      4E4400
 5570              	.LASF189:
 5571 0960 4C565F42 		.ascii	"LV_BTN_STATE_TGL_PR\000"
 5571      544E5F53 
 5571      54415445 
ARM GAS  C:\Users\tmj32\AppData\Local\Temp\ccH9iEPr.s 			page 126


 5571      5F54474C 
 5571      5F505200 
 5572              	.LASF114:
 5573 0974 4C565F53 		.ascii	"LV_SIGNAL_PARENT_SIZE_CHG\000"
 5573      49474E41 
 5573      4C5F5041 
 5573      52454E54 
 5573      5F53495A 
 5574              	.LASF205:
 5575 098e 62675F62 		.ascii	"bg_btn\000"
 5575      746E00
 5576              	.LASF122:
 5577 0995 4C565F53 		.ascii	"LV_SIGNAL_RELEASED\000"
 5577      49474E41 
 5577      4C5F5245 
 5577      4C454153 
 5577      454400
 5578              	.LASF53:
 5579 09a8 6D61696E 		.ascii	"main_color\000"
 5579      5F636F6C 
 5579      6F7200
 5580              	.LASF0:
 5581 09b3 5F5F696E 		.ascii	"__int8_t\000"
 5581      74385F74 
 5581      00
 5582              	.LASF209:
 5583 09bc 4C565F43 		.ascii	"LV_CB_STYLE_BG\000"
 5583      425F5354 
 5583      594C455F 
 5583      424700
 5584              	.LASF131:
 5585 09cb 6C765F73 		.ascii	"lv_signal_t\000"
 5585      69676E61 
 5585      6C5F7400 
 5586              	.LASF187:
 5587 09d7 4C565F42 		.ascii	"LV_BTN_STATE_PR\000"
 5587      544E5F53 
 5587      54415445 
 5587      5F505200 
 5588              	.LASF12:
 5589 09e7 6C6F6E67 		.ascii	"long long unsigned int\000"
 5589      206C6F6E 
 5589      6720756E 
 5589      7369676E 
 5589      65642069 
 5590              	.LASF149:
 5591 09fe 4C565F50 		.ascii	"LV_PROTECT_CLICK_FOCUS\000"
 5591      524F5445 
 5591      43545F43 
 5591      4C49434B 
 5591      5F464F43 
 5592              	.LASF17:
 5593 0a15 75696E74 		.ascii	"uint16_t\000"
 5593      31365F74 
 5593      00
 5594              	.LASF73:
 5595 0a1e 4C565F52 		.ascii	"LV_RES_OK\000"
ARM GAS  C:\Users\tmj32\AppData\Local\Temp\ccH9iEPr.s 			page 127


 5595      45535F4F 
 5595      4B00
 5596              	.LASF38:
 5597 0a28 6C765F63 		.ascii	"lv_color_t\000"
 5597      6F6C6F72 
 5597      5F7400
 5598              	.LASF288:
 5599 0a33 616E6365 		.ascii	"ancestor_signal\000"
 5599      73746F72 
 5599      5F736967 
 5599      6E616C00 
 5600              	.LASF167:
 5601 0a43 6C765F66 		.ascii	"lv_fit_t\000"
 5601      69745F74 
 5601      00
 5602              	.LASF280:
 5603 0a4c 62756C6C 		.ascii	"bullet_ext\000"
 5603      65745F65 
 5603      787400
 5604              	.LASF175:
 5605 0a57 4C565F4B 		.ascii	"LV_KEY_DOWN\000"
 5605      45595F44 
 5605      4F574E00 
 5606              	.LASF172:
 5607 0a63 6669745F 		.ascii	"fit_bottom\000"
 5607      626F7474 
 5607      6F6D00
 5608              	.LASF178:
 5609 0a6e 4C565F4B 		.ascii	"LV_KEY_ESC\000"
 5609      45595F45 
 5609      534300
 5610              	.LASF291:
 5611 0a79 474E5520 		.ascii	"GNU C11 5.4.1 20160609 (release) [ARM/embedded-5-br"
 5611      43313120 
 5611      352E342E 
 5611      31203230 
 5611      31363036 
 5612 0aac 616E6368 		.ascii	"anch revision 237715] -mcpu=cortex-m4 -mfloat-abi=s"
 5612      20726576 
 5612      6973696F 
 5612      6E203233 
 5612      37373135 
 5613 0adf 6F667466 		.ascii	"oftfp -mfpu=fpv4-sp-d16 -mthumb -g -O0 -ffunction-s"
 5613      70202D6D 
 5613      6670753D 
 5613      66707634 
 5613      2D73702D 
 5614 0b12 65637469 		.ascii	"ections -ffat-lto-objects\000"
 5614      6F6E7320 
 5614      2D666661 
 5614      742D6C74 
 5614      6F2D6F62 
 5615              	.LASF222:
 5616 0b2c 6465636F 		.ascii	"decor\000"
 5616      7200
 5617              	.LASF241:
 5618 0b32 696D6762 		.ascii	"imgbtn\000"
ARM GAS  C:\Users\tmj32\AppData\Local\Temp\ccH9iEPr.s 			page 128


 5618      746E00
 5619              	.LASF4:
 5620 0b39 5F5F696E 		.ascii	"__int16_t\000"
 5620      7431365F 
 5620      7400
 5621              	.LASF240:
 5622 0b43 70616E65 		.ascii	"panel\000"
 5622      6C00
 5623              	.LASF285:
 5624 0b49 6C616265 		.ascii	"label_style\000"
 5624      6C5F7374 
 5624      796C6500 
 5625              	.LASF36:
 5626 0b55 66756C6C 		.ascii	"full\000"
 5626      00
 5627              	.LASF45:
 5628 0b5a 636F6C6F 		.ascii	"color\000"
 5628      7200
 5629              	.LASF214:
 5630 0b60 4C565F43 		.ascii	"LV_CB_STYLE_BOX_INA\000"
 5630      425F5354 
 5630      594C455F 
 5630      424F585F 
 5630      494E4100 
 5631              	.LASF62:
 5632 0b74 6C696E65 		.ascii	"line_space\000"
 5632      5F737061 
 5632      636500
 5633              	.LASF135:
 5634 0b7f 786F6673 		.ascii	"xofs\000"
 5634      00
 5635              	.LASF170:
 5636 0b84 6669745F 		.ascii	"fit_right\000"
 5636      72696768 
 5636      7400
 5637              	.LASF166:
 5638 0b8e 5F4C565F 		.ascii	"_LV_FIT_NUM\000"
 5638      4649545F 
 5638      4E554D00 
 5639              	.LASF142:
 5640 0b9a 6C765F6F 		.ascii	"lv_obj_t\000"
 5640      626A5F74 
 5640      00
 5641              	.LASF270:
 5642 0ba3 6C765F63 		.ascii	"lv_cb_set_static_text\000"
 5642      625F7365 
 5642      745F7374 
 5642      61746963 
 5642      5F746578 
 5643              	.LASF159:
 5644 0bb9 4C565F4C 		.ascii	"LV_LAYOUT_GRID\000"
 5644      41594F55 
 5644      545F4752 
 5644      494400
 5645              	.LASF44:
 5646 0bc8 6C765F73 		.ascii	"lv_shadow_type_t\000"
 5646      6861646F 
ARM GAS  C:\Users\tmj32\AppData\Local\Temp\ccH9iEPr.s 			page 129


 5646      775F7479 
 5646      70655F74 
 5646      00
 5647              	.LASF91:
 5648 0bd9 64726167 		.ascii	"drag\000"
 5648      00
 5649              	.LASF290:
 5650 0bde 6C765F73 		.ascii	"lv_style_pretty\000"
 5650      74796C65 
 5650      5F707265 
 5650      74747900 
 5651              	.LASF165:
 5652 0bee 4C565F46 		.ascii	"LV_FIT_FILL\000"
 5652      49545F46 
 5652      494C4C00 
 5653              	.LASF82:
 5654 0bfa 5F6C765F 		.ascii	"_lv_obj_t\000"
 5654      6F626A5F 
 5654      7400
 5655              	.LASF60:
 5656 0c04 666F6E74 		.ascii	"font\000"
 5656      00
 5657              	.LASF61:
 5658 0c09 6C657474 		.ascii	"letter_space\000"
 5658      65725F73 
 5658      70616365 
 5658      00
 5659              	.LASF247:
 5660 0c16 63616C65 		.ascii	"calendar\000"
 5660      6E646172 
 5660      00
 5661              	.LASF98:
 5662 0c1f 62617365 		.ascii	"base_dir\000"
 5662      5F646972 
 5662      00
 5663              	.LASF144:
 5664 0c28 4C565F50 		.ascii	"LV_PROTECT_CHILD_CHG\000"
 5664      524F5445 
 5664      43545F43 
 5664      48494C44 
 5664      5F434847 
 5665              	.LASF148:
 5666 0c3d 4C565F50 		.ascii	"LV_PROTECT_PRESS_LOST\000"
 5666      524F5445 
 5666      43545F50 
 5666      52455353 
 5666      5F4C4F53 
 5667              	.LASF279:
 5668 0c53 63625F65 		.ascii	"cb_ext\000"
 5668      787400
 5669              	.LASF23:
 5670 0c5a 626F785F 		.ascii	"box_h\000"
 5670      6800
 5671              	.LASF183:
 5672 0c60 4C565F4B 		.ascii	"LV_KEY_PREV\000"
 5672      45595F50 
 5672      52455600 
ARM GAS  C:\Users\tmj32\AppData\Local\Temp\ccH9iEPr.s 			page 130


 5673              	.LASF134:
 5674 0c6c 62617365 		.ascii	"base\000"
 5674      00
 5675              	.LASF22:
 5676 0c71 626F785F 		.ascii	"box_w\000"
 5676      7700
 5677              	.LASF5:
 5678 0c77 73686F72 		.ascii	"short int\000"
 5678      7420696E 
 5678      7400
 5679              	.LASF30:
 5680 0c81 62617365 		.ascii	"base_line\000"
 5680      5F6C696E 
 5680      6500
 5681              	.LASF79:
 5682 0c8b 6C765F6C 		.ascii	"lv_ll_t\000"
 5682      6C5F7400 
 5683              	.LASF277:
 5684 0c93 6D6F6465 		.ascii	"mode\000"
 5684      00
 5685              	.LASF16:
 5686 0c98 696E7431 		.ascii	"int16_t\000"
 5686      365F7400 
 5687              	.LASF113:
 5688 0ca0 4C565F53 		.ascii	"LV_SIGNAL_CORD_CHG\000"
 5688      49474E41 
 5688      4C5F434F 
 5688      52445F43 
 5688      484700
 5689              	.LASF84:
 5690 0cb3 636F6F72 		.ascii	"coords\000"
 5690      647300
 5691              	.LASF251:
 5692 0cba 7370696E 		.ascii	"spinbox\000"
 5692      626F7800 
 5693              	.LASF95:
 5694 0cc2 6F70615F 		.ascii	"opa_scale_en\000"
 5694      7363616C 
 5694      655F656E 
 5694      00
 5695              	.LASF229:
 5696 0ccf 6461795F 		.ascii	"day_names\000"
 5696      6E616D65 
 5696      7300
 5697              	.LASF57:
 5698 0cd9 73686164 		.ascii	"shadow\000"
 5698      6F7700
 5699              	.LASF161:
 5700 0ce0 6C765F6C 		.ascii	"lv_layout_t\000"
 5700      61796F75 
 5700      745F7400 
 5701              	.LASF93:
 5702 0cec 64726167 		.ascii	"drag_parent\000"
 5702      5F706172 
 5702      656E7400 
 5703              	.LASF116:
 5704 0cf8 4C565F53 		.ascii	"LV_SIGNAL_BASE_DIR_CHG\000"
ARM GAS  C:\Users\tmj32\AppData\Local\Temp\ccH9iEPr.s 			page 131


 5704      49474E41 
 5704      4C5F4241 
 5704      53455F44 
 5704      49525F43 
 5705              	.LASF260:
 5706 0d0f 666F6E74 		.ascii	"font_p\000"
 5706      5F7000
 5707              	.LASF213:
 5708 0d16 4C565F43 		.ascii	"LV_CB_STYLE_BOX_TGL_PR\000"
 5708      425F5354 
 5708      594C455F 
 5708      424F585F 
 5708      54474C5F 
 5709              	.LASF268:
 5710 0d2d 636F7079 		.ascii	"copy_ext\000"
 5710      5F657874 
 5710      00
 5711              	.LASF239:
 5712 0d36 636F6E74 		.ascii	"content\000"
 5712      656E7400 
 5713              	.LASF58:
 5714 0d3e 70616464 		.ascii	"padding\000"
 5714      696E6700 
 5715              	.LASF163:
 5716 0d46 4C565F46 		.ascii	"LV_FIT_TIGHT\000"
 5716      49545F54 
 5716      49474854 
 5716      00
 5717              	.LASF86:
 5718 0d53 7369676E 		.ascii	"signal_cb\000"
 5718      616C5F63 
 5718      6200
 5719              	.LASF18:
 5720 0d5d 75696E74 		.ascii	"uint32_t\000"
 5720      33325F74 
 5720      00
 5721              	.LASF271:
 5722 0d66 6C765F63 		.ascii	"lv_cb_set_style\000"
 5722      625F7365 
 5722      745F7374 
 5722      796C6500 
 5723              	.LASF221:
 5724 0d76 6461726B 		.ascii	"dark\000"
 5724      00
 5725              	.LASF34:
 5726 0d7b 67726565 		.ascii	"green\000"
 5726      6E00
 5727              	.LASF32:
 5728 0d81 6C765F66 		.ascii	"lv_font_t\000"
 5728      6F6E745F 
 5728      7400
 5729              	.LASF99:
 5730 0d8b 72657365 		.ascii	"reserved\000"
 5730      72766564 
 5730      00
 5731              	.LASF196:
 5732 0d94 746F6767 		.ascii	"toggle\000"
ARM GAS  C:\Users\tmj32\AppData\Local\Temp\ccH9iEPr.s 			page 132


 5732      6C6500
 5733              	.LASF201:
 5734 0d9b 4C565F42 		.ascii	"LV_BTN_STYLE_TGL_PR\000"
 5734      544E5F53 
 5734      54594C45 
 5734      5F54474C 
 5734      5F505200 
 5735              	.LASF7:
 5736 0daf 73686F72 		.ascii	"short unsigned int\000"
 5736      7420756E 
 5736      7369676E 
 5736      65642069 
 5736      6E7400
 5737              	.LASF19:
 5738 0dc2 6C765F63 		.ascii	"lv_coord_t\000"
 5738      6F6F7264 
 5738      5F7400
 5739              	.LASF236:
 5740 0dcd 6F6E656C 		.ascii	"oneline\000"
 5740      696E6500 
 5741              	.LASF264:
 5742 0dd5 6C765F66 		.ascii	"lv_font_get_line_height\000"
 5742      6F6E745F 
 5742      6765745F 
 5742      6C696E65 
 5742      5F686569 
 5743              	.LASF151:
 5744 0ded 4C565F4C 		.ascii	"LV_LAYOUT_CENTER\000"
 5744      41594F55 
 5744      545F4345 
 5744      4E544552 
 5744      00
 5745              	.LASF56:
 5746 0dfe 626F7264 		.ascii	"border\000"
 5746      657200
 5747              	.LASF207:
 5748 0e05 6C616265 		.ascii	"label\000"
 5748      6C00
 5749              	.LASF27:
 5750 0e0b 6765745F 		.ascii	"get_glyph_dsc\000"
 5750      676C7970 
 5750      685F6473 
 5750      6300
 5751              	.LASF242:
 5752 0e19 736C6964 		.ascii	"slider\000"
 5752      657200
 5753              	.LASF43:
 5754 0e20 6C765F62 		.ascii	"lv_border_part_t\000"
 5754      6F726465 
 5754      725F7061 
 5754      72745F74 
 5754      00
 5755              	.LASF110:
 5756 0e31 6C765F65 		.ascii	"lv_event_cb_t\000"
 5756      76656E74 
 5756      5F63625F 
 5756      7400
ARM GAS  C:\Users\tmj32\AppData\Local\Temp\ccH9iEPr.s 			page 133


 5757              	.LASF245:
 5758 0e3f 7072656C 		.ascii	"preload\000"
 5758      6F616400 
 5759              	.LASF139:
 5760 0e47 6F726967 		.ascii	"origo_align\000"
 5760      6F5F616C 
 5760      69676E00 
 5761              	.LASF200:
 5762 0e53 4C565F42 		.ascii	"LV_BTN_STYLE_TGL_REL\000"
 5762      544E5F53 
 5762      54594C45 
 5762      5F54474C 
 5762      5F52454C 
 5763              	.LASF224:
 5764 0e68 6B6E6F62 		.ascii	"knob\000"
 5764      00
 5765              	.LASF174:
 5766 0e6d 4C565F4B 		.ascii	"LV_KEY_UP\000"
 5766      45595F55 
 5766      5000
 5767              	.LASF59:
 5768 0e77 73656C5F 		.ascii	"sel_color\000"
 5768      636F6C6F 
 5768      7200
 5769              	.LASF81:
 5770 0e81 5F6C765F 		.ascii	"_lv_font_struct\000"
 5770      666F6E74 
 5770      5F737472 
 5770      75637400 
 5771              	.LASF47:
 5772 0e91 70617274 		.ascii	"part\000"
 5772      00
 5773              	.LASF76:
 5774 0e96 6E5F7369 		.ascii	"n_size\000"
 5774      7A6500
 5775              	.LASF191:
 5776 0e9d 5F4C565F 		.ascii	"_LV_BTN_STATE_NUM\000"
 5776      42544E5F 
 5776      53544154 
 5776      455F4E55 
 5776      4D00
 5777              	.LASF237:
 5778 0eaf 63757273 		.ascii	"cursor\000"
 5778      6F7200
 5779              	.LASF108:
 5780 0eb6 6C765F64 		.ascii	"lv_design_cb_t\000"
 5780      65736967 
 5780      6E5F6362 
 5780      5F7400
 5781              	.LASF101:
 5782 0ec5 6F70615F 		.ascii	"opa_scale\000"
 5782      7363616C 
 5782      6500
 5783              	.LASF254:
 5784 0ecf 726F6C6C 		.ascii	"roller\000"
 5784      657200
 5785              		.ident	"GCC: (GNU Tools for ARM Embedded Processors) 5.4.1 20160609 (release) [ARM/embedded-5-bran
ARM GAS  C:\Users\tmj32\AppData\Local\Temp\ccH9iEPr.s 			page 134


