ARM GAS  C:\Users\tmj32\AppData\Local\Temp\ccHxR1NV.s 			page 1


   1              		.syntax unified
   2              		.cpu cortex-m4
   3              		.eabi_attribute 27, 1
   4              		.fpu fpv4-sp-d16
   5              		.eabi_attribute 20, 1
   6              		.eabi_attribute 21, 1
   7              		.eabi_attribute 23, 3
   8              		.eabi_attribute 24, 1
   9              		.eabi_attribute 25, 1
  10              		.eabi_attribute 26, 1
  11              		.eabi_attribute 30, 6
  12              		.eabi_attribute 34, 1
  13              		.eabi_attribute 18, 4
  14              		.thumb
  15              		.syntax unified
  16              		.file	"lv_draw_label.c"
  17              		.text
  18              	.Ltext0:
  19              		.cfi_sections	.debug_frame
  20              		.section	.text.lv_font_get_line_height,"ax",%progbits
  21              		.align	2
  22              		.thumb
  23              		.thumb_func
  24              		.type	lv_font_get_line_height, %function
  25              	lv_font_get_line_height:
  26              	.LFB0:
  27              		.file 1 "..\\..\\..\\lvgl\\version_6.1.2\\lvgl\\src\\lv_draw\\../lv_core/../lv_font/lv_font.h"
   1:..\..\..\lvgl\version_6.1.2\lvgl\src\lv_draw\../lv_core/../lv_font/lv_font.h **** /**
   2:..\..\..\lvgl\version_6.1.2\lvgl\src\lv_draw\../lv_core/../lv_font/lv_font.h ****  * @file lv_font.h
   3:..\..\..\lvgl\version_6.1.2\lvgl\src\lv_draw\../lv_core/../lv_font/lv_font.h ****  *
   4:..\..\..\lvgl\version_6.1.2\lvgl\src\lv_draw\../lv_core/../lv_font/lv_font.h ****  */
   5:..\..\..\lvgl\version_6.1.2\lvgl\src\lv_draw\../lv_core/../lv_font/lv_font.h **** 
   6:..\..\..\lvgl\version_6.1.2\lvgl\src\lv_draw\../lv_core/../lv_font/lv_font.h **** #ifndef LV_FONT_H
   7:..\..\..\lvgl\version_6.1.2\lvgl\src\lv_draw\../lv_core/../lv_font/lv_font.h **** #define LV_FONT_H
   8:..\..\..\lvgl\version_6.1.2\lvgl\src\lv_draw\../lv_core/../lv_font/lv_font.h **** 
   9:..\..\..\lvgl\version_6.1.2\lvgl\src\lv_draw\../lv_core/../lv_font/lv_font.h **** #ifdef __cplusplus
  10:..\..\..\lvgl\version_6.1.2\lvgl\src\lv_draw\../lv_core/../lv_font/lv_font.h **** extern "C" {
  11:..\..\..\lvgl\version_6.1.2\lvgl\src\lv_draw\../lv_core/../lv_font/lv_font.h **** #endif
  12:..\..\..\lvgl\version_6.1.2\lvgl\src\lv_draw\../lv_core/../lv_font/lv_font.h **** 
  13:..\..\..\lvgl\version_6.1.2\lvgl\src\lv_draw\../lv_core/../lv_font/lv_font.h **** /*********************
  14:..\..\..\lvgl\version_6.1.2\lvgl\src\lv_draw\../lv_core/../lv_font/lv_font.h ****  *      INCLUDES
  15:..\..\..\lvgl\version_6.1.2\lvgl\src\lv_draw\../lv_core/../lv_font/lv_font.h ****  *********************/
  16:..\..\..\lvgl\version_6.1.2\lvgl\src\lv_draw\../lv_core/../lv_font/lv_font.h **** #ifdef LV_CONF_INCLUDE_SIMPLE
  17:..\..\..\lvgl\version_6.1.2\lvgl\src\lv_draw\../lv_core/../lv_font/lv_font.h **** #include "lv_conf.h"
  18:..\..\..\lvgl\version_6.1.2\lvgl\src\lv_draw\../lv_core/../lv_font/lv_font.h **** #else
  19:..\..\..\lvgl\version_6.1.2\lvgl\src\lv_draw\../lv_core/../lv_font/lv_font.h **** #include "../../../lv_conf.h"
  20:..\..\..\lvgl\version_6.1.2\lvgl\src\lv_draw\../lv_core/../lv_font/lv_font.h **** #endif
  21:..\..\..\lvgl\version_6.1.2\lvgl\src\lv_draw\../lv_core/../lv_font/lv_font.h **** 
  22:..\..\..\lvgl\version_6.1.2\lvgl\src\lv_draw\../lv_core/../lv_font/lv_font.h **** #include <stdint.h>
  23:..\..\..\lvgl\version_6.1.2\lvgl\src\lv_draw\../lv_core/../lv_font/lv_font.h **** #include <stddef.h>
  24:..\..\..\lvgl\version_6.1.2\lvgl\src\lv_draw\../lv_core/../lv_font/lv_font.h **** #include <stdbool.h>
  25:..\..\..\lvgl\version_6.1.2\lvgl\src\lv_draw\../lv_core/../lv_font/lv_font.h **** 
  26:..\..\..\lvgl\version_6.1.2\lvgl\src\lv_draw\../lv_core/../lv_font/lv_font.h **** #include "lv_symbol_def.h"
  27:..\..\..\lvgl\version_6.1.2\lvgl\src\lv_draw\../lv_core/../lv_font/lv_font.h **** 
  28:..\..\..\lvgl\version_6.1.2\lvgl\src\lv_draw\../lv_core/../lv_font/lv_font.h **** /*********************
  29:..\..\..\lvgl\version_6.1.2\lvgl\src\lv_draw\../lv_core/../lv_font/lv_font.h ****  *      DEFINES
  30:..\..\..\lvgl\version_6.1.2\lvgl\src\lv_draw\../lv_core/../lv_font/lv_font.h ****  *********************/
ARM GAS  C:\Users\tmj32\AppData\Local\Temp\ccHxR1NV.s 			page 2


  31:..\..\..\lvgl\version_6.1.2\lvgl\src\lv_draw\../lv_core/../lv_font/lv_font.h **** /*Number of fractional digits in the advanced width (`adv_w`) field of `lv_font_glyph_dsc_t`*/
  32:..\..\..\lvgl\version_6.1.2\lvgl\src\lv_draw\../lv_core/../lv_font/lv_font.h **** #define LV_FONT_WIDTH_FRACT_DIGIT       4
  33:..\..\..\lvgl\version_6.1.2\lvgl\src\lv_draw\../lv_core/../lv_font/lv_font.h **** 
  34:..\..\..\lvgl\version_6.1.2\lvgl\src\lv_draw\../lv_core/../lv_font/lv_font.h **** #define LV_FONT_KERN_POSITIVE        0
  35:..\..\..\lvgl\version_6.1.2\lvgl\src\lv_draw\../lv_core/../lv_font/lv_font.h **** #define LV_FONT_KERN_NEGATIVE        1
  36:..\..\..\lvgl\version_6.1.2\lvgl\src\lv_draw\../lv_core/../lv_font/lv_font.h **** 
  37:..\..\..\lvgl\version_6.1.2\lvgl\src\lv_draw\../lv_core/../lv_font/lv_font.h **** /**********************
  38:..\..\..\lvgl\version_6.1.2\lvgl\src\lv_draw\../lv_core/../lv_font/lv_font.h ****  *      TYPEDEFS
  39:..\..\..\lvgl\version_6.1.2\lvgl\src\lv_draw\../lv_core/../lv_font/lv_font.h ****  **********************/
  40:..\..\..\lvgl\version_6.1.2\lvgl\src\lv_draw\../lv_core/../lv_font/lv_font.h **** 
  41:..\..\..\lvgl\version_6.1.2\lvgl\src\lv_draw\../lv_core/../lv_font/lv_font.h **** /*------------------
  42:..\..\..\lvgl\version_6.1.2\lvgl\src\lv_draw\../lv_core/../lv_font/lv_font.h ****  * General types
  43:..\..\..\lvgl\version_6.1.2\lvgl\src\lv_draw\../lv_core/../lv_font/lv_font.h ****  *-----------------*/
  44:..\..\..\lvgl\version_6.1.2\lvgl\src\lv_draw\../lv_core/../lv_font/lv_font.h **** 
  45:..\..\..\lvgl\version_6.1.2\lvgl\src\lv_draw\../lv_core/../lv_font/lv_font.h **** /** Describes the properties of a glyph. */
  46:..\..\..\lvgl\version_6.1.2\lvgl\src\lv_draw\../lv_core/../lv_font/lv_font.h **** typedef struct
  47:..\..\..\lvgl\version_6.1.2\lvgl\src\lv_draw\../lv_core/../lv_font/lv_font.h **** {
  48:..\..\..\lvgl\version_6.1.2\lvgl\src\lv_draw\../lv_core/../lv_font/lv_font.h ****     uint16_t adv_w; /**< The glyph needs this space. Draw the next glyph after this width. 8 bit in
  49:..\..\..\lvgl\version_6.1.2\lvgl\src\lv_draw\../lv_core/../lv_font/lv_font.h ****     uint8_t box_w;  /**< Width of the glyph's bounding box*/
  50:..\..\..\lvgl\version_6.1.2\lvgl\src\lv_draw\../lv_core/../lv_font/lv_font.h ****     uint8_t box_h;  /**< Height of the glyph's bounding box*/
  51:..\..\..\lvgl\version_6.1.2\lvgl\src\lv_draw\../lv_core/../lv_font/lv_font.h ****     int8_t ofs_x;   /**< x offset of the bounding box*/
  52:..\..\..\lvgl\version_6.1.2\lvgl\src\lv_draw\../lv_core/../lv_font/lv_font.h ****     int8_t ofs_y;  /**< y offset of the bounding box*/
  53:..\..\..\lvgl\version_6.1.2\lvgl\src\lv_draw\../lv_core/../lv_font/lv_font.h ****     uint8_t bpp;   /**< Bit-per-pixel: 1, 2, 4, 8*/
  54:..\..\..\lvgl\version_6.1.2\lvgl\src\lv_draw\../lv_core/../lv_font/lv_font.h **** }lv_font_glyph_dsc_t;
  55:..\..\..\lvgl\version_6.1.2\lvgl\src\lv_draw\../lv_core/../lv_font/lv_font.h **** 
  56:..\..\..\lvgl\version_6.1.2\lvgl\src\lv_draw\../lv_core/../lv_font/lv_font.h **** 
  57:..\..\..\lvgl\version_6.1.2\lvgl\src\lv_draw\../lv_core/../lv_font/lv_font.h **** /** The bitmaps might be upscaled by 3 to achieve subpixel rendering. */
  58:..\..\..\lvgl\version_6.1.2\lvgl\src\lv_draw\../lv_core/../lv_font/lv_font.h **** enum {
  59:..\..\..\lvgl\version_6.1.2\lvgl\src\lv_draw\../lv_core/../lv_font/lv_font.h ****     LV_FONT_SUBPX_NONE,
  60:..\..\..\lvgl\version_6.1.2\lvgl\src\lv_draw\../lv_core/../lv_font/lv_font.h ****     LV_FONT_SUBPX_HOR,
  61:..\..\..\lvgl\version_6.1.2\lvgl\src\lv_draw\../lv_core/../lv_font/lv_font.h ****     LV_FONT_SUBPX_VER,
  62:..\..\..\lvgl\version_6.1.2\lvgl\src\lv_draw\../lv_core/../lv_font/lv_font.h ****     LV_FONT_SUBPX_BOTH,
  63:..\..\..\lvgl\version_6.1.2\lvgl\src\lv_draw\../lv_core/../lv_font/lv_font.h **** };
  64:..\..\..\lvgl\version_6.1.2\lvgl\src\lv_draw\../lv_core/../lv_font/lv_font.h **** 
  65:..\..\..\lvgl\version_6.1.2\lvgl\src\lv_draw\../lv_core/../lv_font/lv_font.h **** typedef uint8_t lv_font_subpx_t;
  66:..\..\..\lvgl\version_6.1.2\lvgl\src\lv_draw\../lv_core/../lv_font/lv_font.h **** 
  67:..\..\..\lvgl\version_6.1.2\lvgl\src\lv_draw\../lv_core/../lv_font/lv_font.h **** /** Describe the properties of a font*/
  68:..\..\..\lvgl\version_6.1.2\lvgl\src\lv_draw\../lv_core/../lv_font/lv_font.h **** typedef struct _lv_font_struct
  69:..\..\..\lvgl\version_6.1.2\lvgl\src\lv_draw\../lv_core/../lv_font/lv_font.h **** {
  70:..\..\..\lvgl\version_6.1.2\lvgl\src\lv_draw\../lv_core/../lv_font/lv_font.h ****     /** Get a glyph's  descriptor from a font*/
  71:..\..\..\lvgl\version_6.1.2\lvgl\src\lv_draw\../lv_core/../lv_font/lv_font.h ****     bool (*get_glyph_dsc)(const struct _lv_font_struct *, lv_font_glyph_dsc_t *, uint32_t letter, u
  72:..\..\..\lvgl\version_6.1.2\lvgl\src\lv_draw\../lv_core/../lv_font/lv_font.h **** 
  73:..\..\..\lvgl\version_6.1.2\lvgl\src\lv_draw\../lv_core/../lv_font/lv_font.h ****     /** Get a glyph's bitmap from a font*/
  74:..\..\..\lvgl\version_6.1.2\lvgl\src\lv_draw\../lv_core/../lv_font/lv_font.h ****     const uint8_t * (*get_glyph_bitmap)(const struct _lv_font_struct *, uint32_t);
  75:..\..\..\lvgl\version_6.1.2\lvgl\src\lv_draw\../lv_core/../lv_font/lv_font.h **** 
  76:..\..\..\lvgl\version_6.1.2\lvgl\src\lv_draw\../lv_core/../lv_font/lv_font.h ****     /*Pointer to the font in a font pack (must have the same line height)*/
  77:..\..\..\lvgl\version_6.1.2\lvgl\src\lv_draw\../lv_core/../lv_font/lv_font.h ****     uint8_t line_height;      /**< The real line height where any text fits*/
  78:..\..\..\lvgl\version_6.1.2\lvgl\src\lv_draw\../lv_core/../lv_font/lv_font.h ****     int8_t base_line;        /**< Base line measured from the top of the line_height*/
  79:..\..\..\lvgl\version_6.1.2\lvgl\src\lv_draw\../lv_core/../lv_font/lv_font.h ****     uint8_t subpx  :2;        /**< An element of `lv_font_subpx_t`*/
  80:..\..\..\lvgl\version_6.1.2\lvgl\src\lv_draw\../lv_core/../lv_font/lv_font.h ****     void * dsc;               /**< Store implementation specific or run_time data or caching here*/
  81:..\..\..\lvgl\version_6.1.2\lvgl\src\lv_draw\../lv_core/../lv_font/lv_font.h **** #if LV_USE_USER_DATA
  82:..\..\..\lvgl\version_6.1.2\lvgl\src\lv_draw\../lv_core/../lv_font/lv_font.h ****     lv_font_user_data_t user_data; /**< Custom user data for font. */
  83:..\..\..\lvgl\version_6.1.2\lvgl\src\lv_draw\../lv_core/../lv_font/lv_font.h **** #endif
  84:..\..\..\lvgl\version_6.1.2\lvgl\src\lv_draw\../lv_core/../lv_font/lv_font.h **** 
  85:..\..\..\lvgl\version_6.1.2\lvgl\src\lv_draw\../lv_core/../lv_font/lv_font.h **** 
  86:..\..\..\lvgl\version_6.1.2\lvgl\src\lv_draw\../lv_core/../lv_font/lv_font.h **** } lv_font_t;
  87:..\..\..\lvgl\version_6.1.2\lvgl\src\lv_draw\../lv_core/../lv_font/lv_font.h **** 
ARM GAS  C:\Users\tmj32\AppData\Local\Temp\ccHxR1NV.s 			page 3


  88:..\..\..\lvgl\version_6.1.2\lvgl\src\lv_draw\../lv_core/../lv_font/lv_font.h **** /**********************
  89:..\..\..\lvgl\version_6.1.2\lvgl\src\lv_draw\../lv_core/../lv_font/lv_font.h ****  * GLOBAL PROTOTYPES
  90:..\..\..\lvgl\version_6.1.2\lvgl\src\lv_draw\../lv_core/../lv_font/lv_font.h ****  **********************/
  91:..\..\..\lvgl\version_6.1.2\lvgl\src\lv_draw\../lv_core/../lv_font/lv_font.h **** 
  92:..\..\..\lvgl\version_6.1.2\lvgl\src\lv_draw\../lv_core/../lv_font/lv_font.h **** /**
  93:..\..\..\lvgl\version_6.1.2\lvgl\src\lv_draw\../lv_core/../lv_font/lv_font.h ****  * Return with the bitmap of a font.
  94:..\..\..\lvgl\version_6.1.2\lvgl\src\lv_draw\../lv_core/../lv_font/lv_font.h ****  * @param font_p pointer to a font
  95:..\..\..\lvgl\version_6.1.2\lvgl\src\lv_draw\../lv_core/../lv_font/lv_font.h ****  * @param letter an UNICODE character code
  96:..\..\..\lvgl\version_6.1.2\lvgl\src\lv_draw\../lv_core/../lv_font/lv_font.h ****  * @return  pointer to the bitmap of the letter
  97:..\..\..\lvgl\version_6.1.2\lvgl\src\lv_draw\../lv_core/../lv_font/lv_font.h ****  */
  98:..\..\..\lvgl\version_6.1.2\lvgl\src\lv_draw\../lv_core/../lv_font/lv_font.h **** const uint8_t * lv_font_get_glyph_bitmap(const lv_font_t * font_p, uint32_t letter);
  99:..\..\..\lvgl\version_6.1.2\lvgl\src\lv_draw\../lv_core/../lv_font/lv_font.h **** 
 100:..\..\..\lvgl\version_6.1.2\lvgl\src\lv_draw\../lv_core/../lv_font/lv_font.h **** /**
 101:..\..\..\lvgl\version_6.1.2\lvgl\src\lv_draw\../lv_core/../lv_font/lv_font.h ****  * Get the descriptor of a glyph
 102:..\..\..\lvgl\version_6.1.2\lvgl\src\lv_draw\../lv_core/../lv_font/lv_font.h ****  * @param font_p pointer to font
 103:..\..\..\lvgl\version_6.1.2\lvgl\src\lv_draw\../lv_core/../lv_font/lv_font.h ****  * @param dsc_out store the result descriptor here
 104:..\..\..\lvgl\version_6.1.2\lvgl\src\lv_draw\../lv_core/../lv_font/lv_font.h ****  * @param letter an UNICODE letter code
 105:..\..\..\lvgl\version_6.1.2\lvgl\src\lv_draw\../lv_core/../lv_font/lv_font.h ****  * @return true: descriptor is successfully loaded into `dsc_out`.
 106:..\..\..\lvgl\version_6.1.2\lvgl\src\lv_draw\../lv_core/../lv_font/lv_font.h ****  *         false: the letter was not found, no data is loaded to `dsc_out`
 107:..\..\..\lvgl\version_6.1.2\lvgl\src\lv_draw\../lv_core/../lv_font/lv_font.h ****  */
 108:..\..\..\lvgl\version_6.1.2\lvgl\src\lv_draw\../lv_core/../lv_font/lv_font.h **** bool lv_font_get_glyph_dsc(const lv_font_t * font_p, lv_font_glyph_dsc_t * dsc_out, uint32_t letter
 109:..\..\..\lvgl\version_6.1.2\lvgl\src\lv_draw\../lv_core/../lv_font/lv_font.h **** 
 110:..\..\..\lvgl\version_6.1.2\lvgl\src\lv_draw\../lv_core/../lv_font/lv_font.h **** /**
 111:..\..\..\lvgl\version_6.1.2\lvgl\src\lv_draw\../lv_core/../lv_font/lv_font.h ****  * Get the width of a glyph with kerning
 112:..\..\..\lvgl\version_6.1.2\lvgl\src\lv_draw\../lv_core/../lv_font/lv_font.h ****  * @param font pointer to a font
 113:..\..\..\lvgl\version_6.1.2\lvgl\src\lv_draw\../lv_core/../lv_font/lv_font.h ****  * @param letter an UNICODE letter
 114:..\..\..\lvgl\version_6.1.2\lvgl\src\lv_draw\../lv_core/../lv_font/lv_font.h ****  * @param letter_next the next letter after `letter`. Used for kerning
 115:..\..\..\lvgl\version_6.1.2\lvgl\src\lv_draw\../lv_core/../lv_font/lv_font.h ****  * @return the width of the glyph
 116:..\..\..\lvgl\version_6.1.2\lvgl\src\lv_draw\../lv_core/../lv_font/lv_font.h ****  */
 117:..\..\..\lvgl\version_6.1.2\lvgl\src\lv_draw\../lv_core/../lv_font/lv_font.h **** uint16_t lv_font_get_glyph_width(const lv_font_t * font, uint32_t letter, uint32_t letter_next);
 118:..\..\..\lvgl\version_6.1.2\lvgl\src\lv_draw\../lv_core/../lv_font/lv_font.h **** 
 119:..\..\..\lvgl\version_6.1.2\lvgl\src\lv_draw\../lv_core/../lv_font/lv_font.h **** /**
 120:..\..\..\lvgl\version_6.1.2\lvgl\src\lv_draw\../lv_core/../lv_font/lv_font.h ****  * Get the line height of a font. All characters fit into this height
 121:..\..\..\lvgl\version_6.1.2\lvgl\src\lv_draw\../lv_core/../lv_font/lv_font.h ****  * @param font_p pointer to a font
 122:..\..\..\lvgl\version_6.1.2\lvgl\src\lv_draw\../lv_core/../lv_font/lv_font.h ****  * @return the height of a font
 123:..\..\..\lvgl\version_6.1.2\lvgl\src\lv_draw\../lv_core/../lv_font/lv_font.h ****  */
 124:..\..\..\lvgl\version_6.1.2\lvgl\src\lv_draw\../lv_core/../lv_font/lv_font.h **** static inline uint8_t lv_font_get_line_height(const lv_font_t * font_p)
 125:..\..\..\lvgl\version_6.1.2\lvgl\src\lv_draw\../lv_core/../lv_font/lv_font.h **** {
  28              		.loc 1 125 0
  29              		.cfi_startproc
  30              		@ args = 0, pretend = 0, frame = 8
  31              		@ frame_needed = 1, uses_anonymous_args = 0
  32              		@ link register save eliminated.
  33 0000 80B4     		push	{r7}
  34              		.cfi_def_cfa_offset 4
  35              		.cfi_offset 7, -4
  36 0002 83B0     		sub	sp, sp, #12
  37              		.cfi_def_cfa_offset 16
  38 0004 00AF     		add	r7, sp, #0
  39              		.cfi_def_cfa_register 7
  40 0006 7860     		str	r0, [r7, #4]
 126:..\..\..\lvgl\version_6.1.2\lvgl\src\lv_draw\../lv_core/../lv_font/lv_font.h ****     return font_p->line_height;
  41              		.loc 1 126 0
  42 0008 7B68     		ldr	r3, [r7, #4]
  43 000a 1B7A     		ldrb	r3, [r3, #8]	@ zero_extendqisi2
 127:..\..\..\lvgl\version_6.1.2\lvgl\src\lv_draw\../lv_core/../lv_font/lv_font.h **** }
  44              		.loc 1 127 0
ARM GAS  C:\Users\tmj32\AppData\Local\Temp\ccHxR1NV.s 			page 4


  45 000c 1846     		mov	r0, r3
  46 000e 0C37     		adds	r7, r7, #12
  47              		.cfi_def_cfa_offset 4
  48 0010 BD46     		mov	sp, r7
  49              		.cfi_def_cfa_register 13
  50              		@ sp needed
  51 0012 5DF8047B 		ldr	r7, [sp], #4
  52              		.cfi_restore 7
  53              		.cfi_def_cfa_offset 0
  54 0016 7047     		bx	lr
  55              		.cfi_endproc
  56              	.LFE0:
  57              		.size	lv_font_get_line_height, .-lv_font_get_line_height
  58              		.section	.text.lv_color_make,"ax",%progbits
  59              		.align	2
  60              		.thumb
  61              		.thumb_func
  62              		.type	lv_color_make, %function
  63              	lv_color_make:
  64              	.LFB7:
  65              		.file 2 "..\\..\\..\\lvgl\\version_6.1.2\\lvgl\\src\\lv_draw\\../lv_core/../lv_misc/lv_color.h"
   1:..\..\..\lvgl\version_6.1.2\lvgl\src\lv_draw\../lv_core/../lv_misc/lv_color.h **** /**
   2:..\..\..\lvgl\version_6.1.2\lvgl\src\lv_draw\../lv_core/../lv_misc/lv_color.h ****  * @file lv_color.h
   3:..\..\..\lvgl\version_6.1.2\lvgl\src\lv_draw\../lv_core/../lv_misc/lv_color.h ****  *
   4:..\..\..\lvgl\version_6.1.2\lvgl\src\lv_draw\../lv_core/../lv_misc/lv_color.h ****  */
   5:..\..\..\lvgl\version_6.1.2\lvgl\src\lv_draw\../lv_core/../lv_misc/lv_color.h **** 
   6:..\..\..\lvgl\version_6.1.2\lvgl\src\lv_draw\../lv_core/../lv_misc/lv_color.h **** #ifndef LV_COLOR_H
   7:..\..\..\lvgl\version_6.1.2\lvgl\src\lv_draw\../lv_core/../lv_misc/lv_color.h **** #define LV_COLOR_H
   8:..\..\..\lvgl\version_6.1.2\lvgl\src\lv_draw\../lv_core/../lv_misc/lv_color.h **** 
   9:..\..\..\lvgl\version_6.1.2\lvgl\src\lv_draw\../lv_core/../lv_misc/lv_color.h **** #ifdef __cplusplus
  10:..\..\..\lvgl\version_6.1.2\lvgl\src\lv_draw\../lv_core/../lv_misc/lv_color.h **** extern "C" {
  11:..\..\..\lvgl\version_6.1.2\lvgl\src\lv_draw\../lv_core/../lv_misc/lv_color.h **** #endif
  12:..\..\..\lvgl\version_6.1.2\lvgl\src\lv_draw\../lv_core/../lv_misc/lv_color.h **** 
  13:..\..\..\lvgl\version_6.1.2\lvgl\src\lv_draw\../lv_core/../lv_misc/lv_color.h **** /*********************
  14:..\..\..\lvgl\version_6.1.2\lvgl\src\lv_draw\../lv_core/../lv_misc/lv_color.h ****  *      INCLUDES
  15:..\..\..\lvgl\version_6.1.2\lvgl\src\lv_draw\../lv_core/../lv_misc/lv_color.h ****  *********************/
  16:..\..\..\lvgl\version_6.1.2\lvgl\src\lv_draw\../lv_core/../lv_misc/lv_color.h **** #ifdef LV_CONF_INCLUDE_SIMPLE
  17:..\..\..\lvgl\version_6.1.2\lvgl\src\lv_draw\../lv_core/../lv_misc/lv_color.h **** #include "lv_conf.h"
  18:..\..\..\lvgl\version_6.1.2\lvgl\src\lv_draw\../lv_core/../lv_misc/lv_color.h **** #else
  19:..\..\..\lvgl\version_6.1.2\lvgl\src\lv_draw\../lv_core/../lv_misc/lv_color.h **** #include "../../../lv_conf.h"
  20:..\..\..\lvgl\version_6.1.2\lvgl\src\lv_draw\../lv_core/../lv_misc/lv_color.h **** #endif
  21:..\..\..\lvgl\version_6.1.2\lvgl\src\lv_draw\../lv_core/../lv_misc/lv_color.h **** 
  22:..\..\..\lvgl\version_6.1.2\lvgl\src\lv_draw\../lv_core/../lv_misc/lv_color.h **** /*Error checking*/
  23:..\..\..\lvgl\version_6.1.2\lvgl\src\lv_draw\../lv_core/../lv_misc/lv_color.h **** #if LV_COLOR_DEPTH == 24
  24:..\..\..\lvgl\version_6.1.2\lvgl\src\lv_draw\../lv_core/../lv_misc/lv_color.h **** #error "LV_COLOR_DEPTH  24 is deprecated. Use LV_COLOR_DEPTH  32 instead (lv_conf.h)"
  25:..\..\..\lvgl\version_6.1.2\lvgl\src\lv_draw\../lv_core/../lv_misc/lv_color.h **** #endif
  26:..\..\..\lvgl\version_6.1.2\lvgl\src\lv_draw\../lv_core/../lv_misc/lv_color.h **** 
  27:..\..\..\lvgl\version_6.1.2\lvgl\src\lv_draw\../lv_core/../lv_misc/lv_color.h **** #if LV_COLOR_DEPTH != 32 && LV_COLOR_SCREEN_TRANSP != 0
  28:..\..\..\lvgl\version_6.1.2\lvgl\src\lv_draw\../lv_core/../lv_misc/lv_color.h **** #error "LV_COLOR_SCREEN_TRANSP requires LV_COLOR_DEPTH == 32. Set it in lv_conf.h"
  29:..\..\..\lvgl\version_6.1.2\lvgl\src\lv_draw\../lv_core/../lv_misc/lv_color.h **** #endif
  30:..\..\..\lvgl\version_6.1.2\lvgl\src\lv_draw\../lv_core/../lv_misc/lv_color.h **** 
  31:..\..\..\lvgl\version_6.1.2\lvgl\src\lv_draw\../lv_core/../lv_misc/lv_color.h **** #if LV_COLOR_DEPTH != 16 && LV_COLOR_16_SWAP != 0
  32:..\..\..\lvgl\version_6.1.2\lvgl\src\lv_draw\../lv_core/../lv_misc/lv_color.h **** #error "LV_COLOR_16_SWAP requires LV_COLOR_DEPTH == 16. Set it in lv_conf.h"
  33:..\..\..\lvgl\version_6.1.2\lvgl\src\lv_draw\../lv_core/../lv_misc/lv_color.h **** #endif
  34:..\..\..\lvgl\version_6.1.2\lvgl\src\lv_draw\../lv_core/../lv_misc/lv_color.h **** 
  35:..\..\..\lvgl\version_6.1.2\lvgl\src\lv_draw\../lv_core/../lv_misc/lv_color.h **** #include <stdint.h>
  36:..\..\..\lvgl\version_6.1.2\lvgl\src\lv_draw\../lv_core/../lv_misc/lv_color.h **** 
ARM GAS  C:\Users\tmj32\AppData\Local\Temp\ccHxR1NV.s 			page 5


  37:..\..\..\lvgl\version_6.1.2\lvgl\src\lv_draw\../lv_core/../lv_misc/lv_color.h **** /*********************
  38:..\..\..\lvgl\version_6.1.2\lvgl\src\lv_draw\../lv_core/../lv_misc/lv_color.h ****  *      DEFINES
  39:..\..\..\lvgl\version_6.1.2\lvgl\src\lv_draw\../lv_core/../lv_misc/lv_color.h ****  *********************/
  40:..\..\..\lvgl\version_6.1.2\lvgl\src\lv_draw\../lv_core/../lv_misc/lv_color.h **** #define LV_COLOR_WHITE LV_COLOR_MAKE(0xFF, 0xFF, 0xFF)
  41:..\..\..\lvgl\version_6.1.2\lvgl\src\lv_draw\../lv_core/../lv_misc/lv_color.h **** #define LV_COLOR_SILVER LV_COLOR_MAKE(0xC0, 0xC0, 0xC0)
  42:..\..\..\lvgl\version_6.1.2\lvgl\src\lv_draw\../lv_core/../lv_misc/lv_color.h **** #define LV_COLOR_GRAY LV_COLOR_MAKE(0x80, 0x80, 0x80)
  43:..\..\..\lvgl\version_6.1.2\lvgl\src\lv_draw\../lv_core/../lv_misc/lv_color.h **** #define LV_COLOR_BLACK LV_COLOR_MAKE(0x00, 0x00, 0x00)
  44:..\..\..\lvgl\version_6.1.2\lvgl\src\lv_draw\../lv_core/../lv_misc/lv_color.h **** #define LV_COLOR_RED LV_COLOR_MAKE(0xFF, 0x00, 0x00)
  45:..\..\..\lvgl\version_6.1.2\lvgl\src\lv_draw\../lv_core/../lv_misc/lv_color.h **** #define LV_COLOR_MAROON LV_COLOR_MAKE(0x80, 0x00, 0x00)
  46:..\..\..\lvgl\version_6.1.2\lvgl\src\lv_draw\../lv_core/../lv_misc/lv_color.h **** #define LV_COLOR_YELLOW LV_COLOR_MAKE(0xFF, 0xFF, 0x00)
  47:..\..\..\lvgl\version_6.1.2\lvgl\src\lv_draw\../lv_core/../lv_misc/lv_color.h **** #define LV_COLOR_OLIVE LV_COLOR_MAKE(0x80, 0x80, 0x00)
  48:..\..\..\lvgl\version_6.1.2\lvgl\src\lv_draw\../lv_core/../lv_misc/lv_color.h **** #define LV_COLOR_LIME LV_COLOR_MAKE(0x00, 0xFF, 0x00)
  49:..\..\..\lvgl\version_6.1.2\lvgl\src\lv_draw\../lv_core/../lv_misc/lv_color.h **** #define LV_COLOR_GREEN LV_COLOR_MAKE(0x00, 0x80, 0x00)
  50:..\..\..\lvgl\version_6.1.2\lvgl\src\lv_draw\../lv_core/../lv_misc/lv_color.h **** #define LV_COLOR_CYAN LV_COLOR_MAKE(0x00, 0xFF, 0xFF)
  51:..\..\..\lvgl\version_6.1.2\lvgl\src\lv_draw\../lv_core/../lv_misc/lv_color.h **** #define LV_COLOR_AQUA LV_COLOR_CYAN
  52:..\..\..\lvgl\version_6.1.2\lvgl\src\lv_draw\../lv_core/../lv_misc/lv_color.h **** #define LV_COLOR_TEAL LV_COLOR_MAKE(0x00, 0x80, 0x80)
  53:..\..\..\lvgl\version_6.1.2\lvgl\src\lv_draw\../lv_core/../lv_misc/lv_color.h **** #define LV_COLOR_BLUE LV_COLOR_MAKE(0x00, 0x00, 0xFF)
  54:..\..\..\lvgl\version_6.1.2\lvgl\src\lv_draw\../lv_core/../lv_misc/lv_color.h **** #define LV_COLOR_NAVY LV_COLOR_MAKE(0x00, 0x00, 0x80)
  55:..\..\..\lvgl\version_6.1.2\lvgl\src\lv_draw\../lv_core/../lv_misc/lv_color.h **** #define LV_COLOR_MAGENTA LV_COLOR_MAKE(0xFF, 0x00, 0xFF)
  56:..\..\..\lvgl\version_6.1.2\lvgl\src\lv_draw\../lv_core/../lv_misc/lv_color.h **** #define LV_COLOR_PURPLE LV_COLOR_MAKE(0x80, 0x00, 0x80)
  57:..\..\..\lvgl\version_6.1.2\lvgl\src\lv_draw\../lv_core/../lv_misc/lv_color.h **** #define LV_COLOR_ORANGE LV_COLOR_MAKE(0xFF, 0xA5, 0x00)
  58:..\..\..\lvgl\version_6.1.2\lvgl\src\lv_draw\../lv_core/../lv_misc/lv_color.h **** 
  59:..\..\..\lvgl\version_6.1.2\lvgl\src\lv_draw\../lv_core/../lv_misc/lv_color.h **** /**
  60:..\..\..\lvgl\version_6.1.2\lvgl\src\lv_draw\../lv_core/../lv_misc/lv_color.h ****  * Opacity percentages.
  61:..\..\..\lvgl\version_6.1.2\lvgl\src\lv_draw\../lv_core/../lv_misc/lv_color.h ****  */
  62:..\..\..\lvgl\version_6.1.2\lvgl\src\lv_draw\../lv_core/../lv_misc/lv_color.h **** enum {
  63:..\..\..\lvgl\version_6.1.2\lvgl\src\lv_draw\../lv_core/../lv_misc/lv_color.h ****     LV_OPA_TRANSP = 0,
  64:..\..\..\lvgl\version_6.1.2\lvgl\src\lv_draw\../lv_core/../lv_misc/lv_color.h ****     LV_OPA_0      = 0,
  65:..\..\..\lvgl\version_6.1.2\lvgl\src\lv_draw\../lv_core/../lv_misc/lv_color.h ****     LV_OPA_10     = 25,
  66:..\..\..\lvgl\version_6.1.2\lvgl\src\lv_draw\../lv_core/../lv_misc/lv_color.h ****     LV_OPA_20     = 51,
  67:..\..\..\lvgl\version_6.1.2\lvgl\src\lv_draw\../lv_core/../lv_misc/lv_color.h ****     LV_OPA_30     = 76,
  68:..\..\..\lvgl\version_6.1.2\lvgl\src\lv_draw\../lv_core/../lv_misc/lv_color.h ****     LV_OPA_40     = 102,
  69:..\..\..\lvgl\version_6.1.2\lvgl\src\lv_draw\../lv_core/../lv_misc/lv_color.h ****     LV_OPA_50     = 127,
  70:..\..\..\lvgl\version_6.1.2\lvgl\src\lv_draw\../lv_core/../lv_misc/lv_color.h ****     LV_OPA_60     = 153,
  71:..\..\..\lvgl\version_6.1.2\lvgl\src\lv_draw\../lv_core/../lv_misc/lv_color.h ****     LV_OPA_70     = 178,
  72:..\..\..\lvgl\version_6.1.2\lvgl\src\lv_draw\../lv_core/../lv_misc/lv_color.h ****     LV_OPA_80     = 204,
  73:..\..\..\lvgl\version_6.1.2\lvgl\src\lv_draw\../lv_core/../lv_misc/lv_color.h ****     LV_OPA_90     = 229,
  74:..\..\..\lvgl\version_6.1.2\lvgl\src\lv_draw\../lv_core/../lv_misc/lv_color.h ****     LV_OPA_100    = 255,
  75:..\..\..\lvgl\version_6.1.2\lvgl\src\lv_draw\../lv_core/../lv_misc/lv_color.h ****     LV_OPA_COVER  = 255,
  76:..\..\..\lvgl\version_6.1.2\lvgl\src\lv_draw\../lv_core/../lv_misc/lv_color.h **** };
  77:..\..\..\lvgl\version_6.1.2\lvgl\src\lv_draw\../lv_core/../lv_misc/lv_color.h **** 
  78:..\..\..\lvgl\version_6.1.2\lvgl\src\lv_draw\../lv_core/../lv_misc/lv_color.h **** #define LV_OPA_MIN 16  /*Opacities below this will be transparent*/
  79:..\..\..\lvgl\version_6.1.2\lvgl\src\lv_draw\../lv_core/../lv_misc/lv_color.h **** #define LV_OPA_MAX 251 /*Opacities above this will fully cover*/
  80:..\..\..\lvgl\version_6.1.2\lvgl\src\lv_draw\../lv_core/../lv_misc/lv_color.h **** 
  81:..\..\..\lvgl\version_6.1.2\lvgl\src\lv_draw\../lv_core/../lv_misc/lv_color.h **** #if LV_COLOR_DEPTH == 1
  82:..\..\..\lvgl\version_6.1.2\lvgl\src\lv_draw\../lv_core/../lv_misc/lv_color.h **** #define LV_COLOR_SIZE 8
  83:..\..\..\lvgl\version_6.1.2\lvgl\src\lv_draw\../lv_core/../lv_misc/lv_color.h **** #elif LV_COLOR_DEPTH == 8
  84:..\..\..\lvgl\version_6.1.2\lvgl\src\lv_draw\../lv_core/../lv_misc/lv_color.h **** #define LV_COLOR_SIZE 8
  85:..\..\..\lvgl\version_6.1.2\lvgl\src\lv_draw\../lv_core/../lv_misc/lv_color.h **** #elif LV_COLOR_DEPTH == 16
  86:..\..\..\lvgl\version_6.1.2\lvgl\src\lv_draw\../lv_core/../lv_misc/lv_color.h **** #define LV_COLOR_SIZE 16
  87:..\..\..\lvgl\version_6.1.2\lvgl\src\lv_draw\../lv_core/../lv_misc/lv_color.h **** #elif LV_COLOR_DEPTH == 32
  88:..\..\..\lvgl\version_6.1.2\lvgl\src\lv_draw\../lv_core/../lv_misc/lv_color.h **** #define LV_COLOR_SIZE 32
  89:..\..\..\lvgl\version_6.1.2\lvgl\src\lv_draw\../lv_core/../lv_misc/lv_color.h **** #else
  90:..\..\..\lvgl\version_6.1.2\lvgl\src\lv_draw\../lv_core/../lv_misc/lv_color.h **** #error "Invalid LV_COLOR_DEPTH in lv_conf.h! Set it to 1, 8, 16 or 32!"
  91:..\..\..\lvgl\version_6.1.2\lvgl\src\lv_draw\../lv_core/../lv_misc/lv_color.h **** #endif
  92:..\..\..\lvgl\version_6.1.2\lvgl\src\lv_draw\../lv_core/../lv_misc/lv_color.h **** 
  93:..\..\..\lvgl\version_6.1.2\lvgl\src\lv_draw\../lv_core/../lv_misc/lv_color.h **** /*---------------------------------------
ARM GAS  C:\Users\tmj32\AppData\Local\Temp\ccHxR1NV.s 			page 6


  94:..\..\..\lvgl\version_6.1.2\lvgl\src\lv_draw\../lv_core/../lv_misc/lv_color.h ****  * Macros for all existing  color depths
  95:..\..\..\lvgl\version_6.1.2\lvgl\src\lv_draw\../lv_core/../lv_misc/lv_color.h ****  * to set/get values of the color channels
  96:..\..\..\lvgl\version_6.1.2\lvgl\src\lv_draw\../lv_core/../lv_misc/lv_color.h ****  *------------------------------------------*/
  97:..\..\..\lvgl\version_6.1.2\lvgl\src\lv_draw\../lv_core/../lv_misc/lv_color.h **** # define LV_COLOR_SET_R1(c, v) (c).ch.red = (uint8_t)((v) & 0x1);
  98:..\..\..\lvgl\version_6.1.2\lvgl\src\lv_draw\../lv_core/../lv_misc/lv_color.h **** # define LV_COLOR_SET_G1(c, v) (c).ch.green = (uint8_t)((v) & 0x1);
  99:..\..\..\lvgl\version_6.1.2\lvgl\src\lv_draw\../lv_core/../lv_misc/lv_color.h **** # define LV_COLOR_SET_B1(c, v) (c).ch.blue = (uint8_t)((v) & 0x1);
 100:..\..\..\lvgl\version_6.1.2\lvgl\src\lv_draw\../lv_core/../lv_misc/lv_color.h **** # define LV_COLOR_SET_A1(c, v)
 101:..\..\..\lvgl\version_6.1.2\lvgl\src\lv_draw\../lv_core/../lv_misc/lv_color.h **** 
 102:..\..\..\lvgl\version_6.1.2\lvgl\src\lv_draw\../lv_core/../lv_misc/lv_color.h **** # define LV_COLOR_GET_R1(c) (c).ch.red
 103:..\..\..\lvgl\version_6.1.2\lvgl\src\lv_draw\../lv_core/../lv_misc/lv_color.h **** # define LV_COLOR_GET_G1(c) (c).ch.green
 104:..\..\..\lvgl\version_6.1.2\lvgl\src\lv_draw\../lv_core/../lv_misc/lv_color.h **** # define LV_COLOR_GET_B1(c) (c).ch.blue
 105:..\..\..\lvgl\version_6.1.2\lvgl\src\lv_draw\../lv_core/../lv_misc/lv_color.h **** # define LV_COLOR_GET_A1(c) 1
 106:..\..\..\lvgl\version_6.1.2\lvgl\src\lv_draw\../lv_core/../lv_misc/lv_color.h **** 
 107:..\..\..\lvgl\version_6.1.2\lvgl\src\lv_draw\../lv_core/../lv_misc/lv_color.h **** # define LV_COLOR_SET_R8(c, v) (c).ch.red = (uint8_t)(v) & 0x7U;
 108:..\..\..\lvgl\version_6.1.2\lvgl\src\lv_draw\../lv_core/../lv_misc/lv_color.h **** # define LV_COLOR_SET_G8(c, v) (c).ch.green = (uint8_t)(v) & 0x7U;
 109:..\..\..\lvgl\version_6.1.2\lvgl\src\lv_draw\../lv_core/../lv_misc/lv_color.h **** # define LV_COLOR_SET_B8(c, v) (c).ch.blue = (uint8_t)(v) & 0x3U;
 110:..\..\..\lvgl\version_6.1.2\lvgl\src\lv_draw\../lv_core/../lv_misc/lv_color.h **** # define LV_COLOR_SET_A8(c, v) do {} while(0)
 111:..\..\..\lvgl\version_6.1.2\lvgl\src\lv_draw\../lv_core/../lv_misc/lv_color.h **** 
 112:..\..\..\lvgl\version_6.1.2\lvgl\src\lv_draw\../lv_core/../lv_misc/lv_color.h **** # define LV_COLOR_GET_R8(c) (c).ch.red
 113:..\..\..\lvgl\version_6.1.2\lvgl\src\lv_draw\../lv_core/../lv_misc/lv_color.h **** # define LV_COLOR_GET_G8(c) (c).ch.green
 114:..\..\..\lvgl\version_6.1.2\lvgl\src\lv_draw\../lv_core/../lv_misc/lv_color.h **** # define LV_COLOR_GET_B8(c) (c).ch.blue
 115:..\..\..\lvgl\version_6.1.2\lvgl\src\lv_draw\../lv_core/../lv_misc/lv_color.h **** # define LV_COLOR_GET_A8(c) 0xFF
 116:..\..\..\lvgl\version_6.1.2\lvgl\src\lv_draw\../lv_core/../lv_misc/lv_color.h **** 
 117:..\..\..\lvgl\version_6.1.2\lvgl\src\lv_draw\../lv_core/../lv_misc/lv_color.h **** # define LV_COLOR_SET_R16(c, v) (c).ch.red = (uint8_t)(v) & 0x1FU;
 118:..\..\..\lvgl\version_6.1.2\lvgl\src\lv_draw\../lv_core/../lv_misc/lv_color.h **** # define LV_COLOR_SET_G16(c, v) (c).ch.green = (uint8_t)(v) & 0x3FU;
 119:..\..\..\lvgl\version_6.1.2\lvgl\src\lv_draw\../lv_core/../lv_misc/lv_color.h **** # define LV_COLOR_SET_G16_SWAP(c, v) {(c).ch.green_h = (uint8_t)(((v) >> 3) & 0x7); (c).ch.green_l 
 120:..\..\..\lvgl\version_6.1.2\lvgl\src\lv_draw\../lv_core/../lv_misc/lv_color.h **** # define LV_COLOR_SET_B16(c, v) (c).ch.blue = (uint8_t)(v) & 0x1FU;
 121:..\..\..\lvgl\version_6.1.2\lvgl\src\lv_draw\../lv_core/../lv_misc/lv_color.h **** # define LV_COLOR_SET_A16(c, v) do {} while(0)
 122:..\..\..\lvgl\version_6.1.2\lvgl\src\lv_draw\../lv_core/../lv_misc/lv_color.h **** 
 123:..\..\..\lvgl\version_6.1.2\lvgl\src\lv_draw\../lv_core/../lv_misc/lv_color.h **** # define LV_COLOR_GET_R16(c) (c).ch.red
 124:..\..\..\lvgl\version_6.1.2\lvgl\src\lv_draw\../lv_core/../lv_misc/lv_color.h **** # define LV_COLOR_GET_G16(c) (c).ch.green
 125:..\..\..\lvgl\version_6.1.2\lvgl\src\lv_draw\../lv_core/../lv_misc/lv_color.h **** # define LV_COLOR_GET_G16_SWAP(c) (((c).ch.green_h << 3) + (c).ch.green_l)
 126:..\..\..\lvgl\version_6.1.2\lvgl\src\lv_draw\../lv_core/../lv_misc/lv_color.h **** # define LV_COLOR_GET_B16(c) (c).ch.blue
 127:..\..\..\lvgl\version_6.1.2\lvgl\src\lv_draw\../lv_core/../lv_misc/lv_color.h **** # define LV_COLOR_GET_A16(c) 0xFF
 128:..\..\..\lvgl\version_6.1.2\lvgl\src\lv_draw\../lv_core/../lv_misc/lv_color.h **** 
 129:..\..\..\lvgl\version_6.1.2\lvgl\src\lv_draw\../lv_core/../lv_misc/lv_color.h **** # define LV_COLOR_SET_R32(c, v) (c).ch.red = (uint32_t)((v) & 0xFF);
 130:..\..\..\lvgl\version_6.1.2\lvgl\src\lv_draw\../lv_core/../lv_misc/lv_color.h **** # define LV_COLOR_SET_G32(c, v) (c).ch.green = (uint32_t)((v) & 0xFF);
 131:..\..\..\lvgl\version_6.1.2\lvgl\src\lv_draw\../lv_core/../lv_misc/lv_color.h **** # define LV_COLOR_SET_B32(c, v) (c).ch.blue = (uint32_t)((v) & 0xFF);
 132:..\..\..\lvgl\version_6.1.2\lvgl\src\lv_draw\../lv_core/../lv_misc/lv_color.h **** # define LV_COLOR_SET_A32(c, v) (c).ch.alpha = (uint32_t)((v) & 0xFF);
 133:..\..\..\lvgl\version_6.1.2\lvgl\src\lv_draw\../lv_core/../lv_misc/lv_color.h **** 
 134:..\..\..\lvgl\version_6.1.2\lvgl\src\lv_draw\../lv_core/../lv_misc/lv_color.h **** # define LV_COLOR_GET_R32(c) (c).ch.red
 135:..\..\..\lvgl\version_6.1.2\lvgl\src\lv_draw\../lv_core/../lv_misc/lv_color.h **** # define LV_COLOR_GET_G32(c) (c).ch.green
 136:..\..\..\lvgl\version_6.1.2\lvgl\src\lv_draw\../lv_core/../lv_misc/lv_color.h **** # define LV_COLOR_GET_B32(c) (c).ch.blue
 137:..\..\..\lvgl\version_6.1.2\lvgl\src\lv_draw\../lv_core/../lv_misc/lv_color.h **** # define LV_COLOR_GET_A32(c) (c).ch.alpha
 138:..\..\..\lvgl\version_6.1.2\lvgl\src\lv_draw\../lv_core/../lv_misc/lv_color.h **** 
 139:..\..\..\lvgl\version_6.1.2\lvgl\src\lv_draw\../lv_core/../lv_misc/lv_color.h **** 
 140:..\..\..\lvgl\version_6.1.2\lvgl\src\lv_draw\../lv_core/../lv_misc/lv_color.h **** /*---------------------------------------
 141:..\..\..\lvgl\version_6.1.2\lvgl\src\lv_draw\../lv_core/../lv_misc/lv_color.h ****  * Macros for the current color depth
 142:..\..\..\lvgl\version_6.1.2\lvgl\src\lv_draw\../lv_core/../lv_misc/lv_color.h ****  * to set/get values of the color channels
 143:..\..\..\lvgl\version_6.1.2\lvgl\src\lv_draw\../lv_core/../lv_misc/lv_color.h ****  *------------------------------------------*/
 144:..\..\..\lvgl\version_6.1.2\lvgl\src\lv_draw\../lv_core/../lv_misc/lv_color.h **** #if LV_COLOR_DEPTH == 1
 145:..\..\..\lvgl\version_6.1.2\lvgl\src\lv_draw\../lv_core/../lv_misc/lv_color.h **** # define LV_COLOR_SET_R(c, v) LV_COLOR_SET_R1(c,v)
 146:..\..\..\lvgl\version_6.1.2\lvgl\src\lv_draw\../lv_core/../lv_misc/lv_color.h **** # define LV_COLOR_SET_G(c, v) LV_COLOR_SET_G1(c,v)
 147:..\..\..\lvgl\version_6.1.2\lvgl\src\lv_draw\../lv_core/../lv_misc/lv_color.h **** # define LV_COLOR_SET_B(c, v) LV_COLOR_SET_B1(c,v)
 148:..\..\..\lvgl\version_6.1.2\lvgl\src\lv_draw\../lv_core/../lv_misc/lv_color.h **** # define LV_COLOR_SET_A(c, v) LV_COLOR_SET_A1(c,v)
 149:..\..\..\lvgl\version_6.1.2\lvgl\src\lv_draw\../lv_core/../lv_misc/lv_color.h **** 
 150:..\..\..\lvgl\version_6.1.2\lvgl\src\lv_draw\../lv_core/../lv_misc/lv_color.h **** # define LV_COLOR_GET_R(c) LV_COLOR_GET_R1(c)
ARM GAS  C:\Users\tmj32\AppData\Local\Temp\ccHxR1NV.s 			page 7


 151:..\..\..\lvgl\version_6.1.2\lvgl\src\lv_draw\../lv_core/../lv_misc/lv_color.h **** # define LV_COLOR_GET_G(c) LV_COLOR_GET_G1(c)
 152:..\..\..\lvgl\version_6.1.2\lvgl\src\lv_draw\../lv_core/../lv_misc/lv_color.h **** # define LV_COLOR_GET_B(c) LV_COLOR_GET_B1(c)
 153:..\..\..\lvgl\version_6.1.2\lvgl\src\lv_draw\../lv_core/../lv_misc/lv_color.h **** # define LV_COLOR_GET_A(c) LV_COLOR_GET_A1(c)
 154:..\..\..\lvgl\version_6.1.2\lvgl\src\lv_draw\../lv_core/../lv_misc/lv_color.h **** 
 155:..\..\..\lvgl\version_6.1.2\lvgl\src\lv_draw\../lv_core/../lv_misc/lv_color.h **** #elif LV_COLOR_DEPTH == 8
 156:..\..\..\lvgl\version_6.1.2\lvgl\src\lv_draw\../lv_core/../lv_misc/lv_color.h **** # define LV_COLOR_SET_R(c, v) LV_COLOR_SET_R8(c,v)
 157:..\..\..\lvgl\version_6.1.2\lvgl\src\lv_draw\../lv_core/../lv_misc/lv_color.h **** # define LV_COLOR_SET_G(c, v) LV_COLOR_SET_G8(c,v)
 158:..\..\..\lvgl\version_6.1.2\lvgl\src\lv_draw\../lv_core/../lv_misc/lv_color.h **** # define LV_COLOR_SET_B(c, v) LV_COLOR_SET_B8(c,v)
 159:..\..\..\lvgl\version_6.1.2\lvgl\src\lv_draw\../lv_core/../lv_misc/lv_color.h **** # define LV_COLOR_SET_A(c, v) LV_COLOR_SET_A8(c,v)
 160:..\..\..\lvgl\version_6.1.2\lvgl\src\lv_draw\../lv_core/../lv_misc/lv_color.h **** 
 161:..\..\..\lvgl\version_6.1.2\lvgl\src\lv_draw\../lv_core/../lv_misc/lv_color.h **** # define LV_COLOR_GET_R(c) LV_COLOR_GET_R8(c)
 162:..\..\..\lvgl\version_6.1.2\lvgl\src\lv_draw\../lv_core/../lv_misc/lv_color.h **** # define LV_COLOR_GET_G(c) LV_COLOR_GET_G8(c)
 163:..\..\..\lvgl\version_6.1.2\lvgl\src\lv_draw\../lv_core/../lv_misc/lv_color.h **** # define LV_COLOR_GET_B(c) LV_COLOR_GET_B8(c)
 164:..\..\..\lvgl\version_6.1.2\lvgl\src\lv_draw\../lv_core/../lv_misc/lv_color.h **** # define LV_COLOR_GET_A(c) LV_COLOR_GET_A8(c)
 165:..\..\..\lvgl\version_6.1.2\lvgl\src\lv_draw\../lv_core/../lv_misc/lv_color.h **** 
 166:..\..\..\lvgl\version_6.1.2\lvgl\src\lv_draw\../lv_core/../lv_misc/lv_color.h **** #elif LV_COLOR_DEPTH == 16
 167:..\..\..\lvgl\version_6.1.2\lvgl\src\lv_draw\../lv_core/../lv_misc/lv_color.h **** # define LV_COLOR_SET_R(c, v) LV_COLOR_SET_R16(c,v)
 168:..\..\..\lvgl\version_6.1.2\lvgl\src\lv_draw\../lv_core/../lv_misc/lv_color.h **** # if LV_COLOR_16_SWAP == 0
 169:..\..\..\lvgl\version_6.1.2\lvgl\src\lv_draw\../lv_core/../lv_misc/lv_color.h **** #   define LV_COLOR_SET_G(c, v) LV_COLOR_SET_G16(c,v)
 170:..\..\..\lvgl\version_6.1.2\lvgl\src\lv_draw\../lv_core/../lv_misc/lv_color.h **** # else
 171:..\..\..\lvgl\version_6.1.2\lvgl\src\lv_draw\../lv_core/../lv_misc/lv_color.h **** #   define LV_COLOR_SET_G(c, v) LV_COLOR_SET_G16_SWAP(c,v)
 172:..\..\..\lvgl\version_6.1.2\lvgl\src\lv_draw\../lv_core/../lv_misc/lv_color.h **** # endif
 173:..\..\..\lvgl\version_6.1.2\lvgl\src\lv_draw\../lv_core/../lv_misc/lv_color.h **** # define LV_COLOR_SET_B(c, v) LV_COLOR_SET_B16(c,v)
 174:..\..\..\lvgl\version_6.1.2\lvgl\src\lv_draw\../lv_core/../lv_misc/lv_color.h **** # define LV_COLOR_SET_A(c, v) LV_COLOR_SET_A16(c,v)
 175:..\..\..\lvgl\version_6.1.2\lvgl\src\lv_draw\../lv_core/../lv_misc/lv_color.h **** 
 176:..\..\..\lvgl\version_6.1.2\lvgl\src\lv_draw\../lv_core/../lv_misc/lv_color.h **** # define LV_COLOR_GET_R(c) LV_COLOR_GET_R16(c)
 177:..\..\..\lvgl\version_6.1.2\lvgl\src\lv_draw\../lv_core/../lv_misc/lv_color.h **** # if LV_COLOR_16_SWAP == 0
 178:..\..\..\lvgl\version_6.1.2\lvgl\src\lv_draw\../lv_core/../lv_misc/lv_color.h **** #   define LV_COLOR_GET_G(c) LV_COLOR_GET_G16(c)
 179:..\..\..\lvgl\version_6.1.2\lvgl\src\lv_draw\../lv_core/../lv_misc/lv_color.h **** # else
 180:..\..\..\lvgl\version_6.1.2\lvgl\src\lv_draw\../lv_core/../lv_misc/lv_color.h **** #   define LV_COLOR_GET_G(c) LV_COLOR_GET_G16_SWAP(c)
 181:..\..\..\lvgl\version_6.1.2\lvgl\src\lv_draw\../lv_core/../lv_misc/lv_color.h **** # endif
 182:..\..\..\lvgl\version_6.1.2\lvgl\src\lv_draw\../lv_core/../lv_misc/lv_color.h **** # define LV_COLOR_GET_B(c)   LV_COLOR_GET_B16(c)
 183:..\..\..\lvgl\version_6.1.2\lvgl\src\lv_draw\../lv_core/../lv_misc/lv_color.h **** # define LV_COLOR_GET_A(c)   LV_COLOR_GET_A16(c)
 184:..\..\..\lvgl\version_6.1.2\lvgl\src\lv_draw\../lv_core/../lv_misc/lv_color.h **** 
 185:..\..\..\lvgl\version_6.1.2\lvgl\src\lv_draw\../lv_core/../lv_misc/lv_color.h **** #elif LV_COLOR_DEPTH == 32
 186:..\..\..\lvgl\version_6.1.2\lvgl\src\lv_draw\../lv_core/../lv_misc/lv_color.h **** # define LV_COLOR_SET_R(c, v) LV_COLOR_SET_R32(c,v)
 187:..\..\..\lvgl\version_6.1.2\lvgl\src\lv_draw\../lv_core/../lv_misc/lv_color.h **** # define LV_COLOR_SET_G(c, v) LV_COLOR_SET_G32(c,v)
 188:..\..\..\lvgl\version_6.1.2\lvgl\src\lv_draw\../lv_core/../lv_misc/lv_color.h **** # define LV_COLOR_SET_B(c, v) LV_COLOR_SET_B32(c,v)
 189:..\..\..\lvgl\version_6.1.2\lvgl\src\lv_draw\../lv_core/../lv_misc/lv_color.h **** # define LV_COLOR_SET_A(c, v) LV_COLOR_SET_A32(c,v)
 190:..\..\..\lvgl\version_6.1.2\lvgl\src\lv_draw\../lv_core/../lv_misc/lv_color.h **** 
 191:..\..\..\lvgl\version_6.1.2\lvgl\src\lv_draw\../lv_core/../lv_misc/lv_color.h **** # define LV_COLOR_GET_R(c) LV_COLOR_GET_R32(c)
 192:..\..\..\lvgl\version_6.1.2\lvgl\src\lv_draw\../lv_core/../lv_misc/lv_color.h **** # define LV_COLOR_GET_G(c) LV_COLOR_GET_G32(c)
 193:..\..\..\lvgl\version_6.1.2\lvgl\src\lv_draw\../lv_core/../lv_misc/lv_color.h **** # define LV_COLOR_GET_B(c) LV_COLOR_GET_B32(c)
 194:..\..\..\lvgl\version_6.1.2\lvgl\src\lv_draw\../lv_core/../lv_misc/lv_color.h **** # define LV_COLOR_GET_A(c) LV_COLOR_GET_A32(c)
 195:..\..\..\lvgl\version_6.1.2\lvgl\src\lv_draw\../lv_core/../lv_misc/lv_color.h **** #endif
 196:..\..\..\lvgl\version_6.1.2\lvgl\src\lv_draw\../lv_core/../lv_misc/lv_color.h **** 
 197:..\..\..\lvgl\version_6.1.2\lvgl\src\lv_draw\../lv_core/../lv_misc/lv_color.h **** /**********************
 198:..\..\..\lvgl\version_6.1.2\lvgl\src\lv_draw\../lv_core/../lv_misc/lv_color.h ****  *      TYPEDEFS
 199:..\..\..\lvgl\version_6.1.2\lvgl\src\lv_draw\../lv_core/../lv_misc/lv_color.h ****  **********************/
 200:..\..\..\lvgl\version_6.1.2\lvgl\src\lv_draw\../lv_core/../lv_misc/lv_color.h **** 
 201:..\..\..\lvgl\version_6.1.2\lvgl\src\lv_draw\../lv_core/../lv_misc/lv_color.h **** typedef union
 202:..\..\..\lvgl\version_6.1.2\lvgl\src\lv_draw\../lv_core/../lv_misc/lv_color.h **** {
 203:..\..\..\lvgl\version_6.1.2\lvgl\src\lv_draw\../lv_core/../lv_misc/lv_color.h ****     struct
 204:..\..\..\lvgl\version_6.1.2\lvgl\src\lv_draw\../lv_core/../lv_misc/lv_color.h ****     {
 205:..\..\..\lvgl\version_6.1.2\lvgl\src\lv_draw\../lv_core/../lv_misc/lv_color.h ****         uint8_t blue : 1;
 206:..\..\..\lvgl\version_6.1.2\lvgl\src\lv_draw\../lv_core/../lv_misc/lv_color.h ****         uint8_t green : 1;
 207:..\..\..\lvgl\version_6.1.2\lvgl\src\lv_draw\../lv_core/../lv_misc/lv_color.h ****         uint8_t red : 1;
ARM GAS  C:\Users\tmj32\AppData\Local\Temp\ccHxR1NV.s 			page 8


 208:..\..\..\lvgl\version_6.1.2\lvgl\src\lv_draw\../lv_core/../lv_misc/lv_color.h ****     } ch;
 209:..\..\..\lvgl\version_6.1.2\lvgl\src\lv_draw\../lv_core/../lv_misc/lv_color.h ****     uint8_t full;
 210:..\..\..\lvgl\version_6.1.2\lvgl\src\lv_draw\../lv_core/../lv_misc/lv_color.h **** } lv_color1_t;
 211:..\..\..\lvgl\version_6.1.2\lvgl\src\lv_draw\../lv_core/../lv_misc/lv_color.h **** 
 212:..\..\..\lvgl\version_6.1.2\lvgl\src\lv_draw\../lv_core/../lv_misc/lv_color.h **** typedef union
 213:..\..\..\lvgl\version_6.1.2\lvgl\src\lv_draw\../lv_core/../lv_misc/lv_color.h **** {
 214:..\..\..\lvgl\version_6.1.2\lvgl\src\lv_draw\../lv_core/../lv_misc/lv_color.h ****     struct
 215:..\..\..\lvgl\version_6.1.2\lvgl\src\lv_draw\../lv_core/../lv_misc/lv_color.h ****     {
 216:..\..\..\lvgl\version_6.1.2\lvgl\src\lv_draw\../lv_core/../lv_misc/lv_color.h ****         uint8_t blue : 2;
 217:..\..\..\lvgl\version_6.1.2\lvgl\src\lv_draw\../lv_core/../lv_misc/lv_color.h ****         uint8_t green : 3;
 218:..\..\..\lvgl\version_6.1.2\lvgl\src\lv_draw\../lv_core/../lv_misc/lv_color.h ****         uint8_t red : 3;
 219:..\..\..\lvgl\version_6.1.2\lvgl\src\lv_draw\../lv_core/../lv_misc/lv_color.h ****     } ch;
 220:..\..\..\lvgl\version_6.1.2\lvgl\src\lv_draw\../lv_core/../lv_misc/lv_color.h ****     uint8_t full;
 221:..\..\..\lvgl\version_6.1.2\lvgl\src\lv_draw\../lv_core/../lv_misc/lv_color.h **** } lv_color8_t;
 222:..\..\..\lvgl\version_6.1.2\lvgl\src\lv_draw\../lv_core/../lv_misc/lv_color.h **** 
 223:..\..\..\lvgl\version_6.1.2\lvgl\src\lv_draw\../lv_core/../lv_misc/lv_color.h **** typedef union
 224:..\..\..\lvgl\version_6.1.2\lvgl\src\lv_draw\../lv_core/../lv_misc/lv_color.h **** {
 225:..\..\..\lvgl\version_6.1.2\lvgl\src\lv_draw\../lv_core/../lv_misc/lv_color.h ****     struct
 226:..\..\..\lvgl\version_6.1.2\lvgl\src\lv_draw\../lv_core/../lv_misc/lv_color.h ****     {
 227:..\..\..\lvgl\version_6.1.2\lvgl\src\lv_draw\../lv_core/../lv_misc/lv_color.h **** #if LV_COLOR_16_SWAP == 0
 228:..\..\..\lvgl\version_6.1.2\lvgl\src\lv_draw\../lv_core/../lv_misc/lv_color.h ****         uint16_t blue : 5;
 229:..\..\..\lvgl\version_6.1.2\lvgl\src\lv_draw\../lv_core/../lv_misc/lv_color.h ****         uint16_t green : 6;
 230:..\..\..\lvgl\version_6.1.2\lvgl\src\lv_draw\../lv_core/../lv_misc/lv_color.h ****         uint16_t red : 5;
 231:..\..\..\lvgl\version_6.1.2\lvgl\src\lv_draw\../lv_core/../lv_misc/lv_color.h **** #else
 232:..\..\..\lvgl\version_6.1.2\lvgl\src\lv_draw\../lv_core/../lv_misc/lv_color.h ****         uint16_t green_h : 3;
 233:..\..\..\lvgl\version_6.1.2\lvgl\src\lv_draw\../lv_core/../lv_misc/lv_color.h ****         uint16_t red : 5;
 234:..\..\..\lvgl\version_6.1.2\lvgl\src\lv_draw\../lv_core/../lv_misc/lv_color.h ****         uint16_t blue : 5;
 235:..\..\..\lvgl\version_6.1.2\lvgl\src\lv_draw\../lv_core/../lv_misc/lv_color.h ****         uint16_t green_l : 3;
 236:..\..\..\lvgl\version_6.1.2\lvgl\src\lv_draw\../lv_core/../lv_misc/lv_color.h **** #endif
 237:..\..\..\lvgl\version_6.1.2\lvgl\src\lv_draw\../lv_core/../lv_misc/lv_color.h ****     } ch;
 238:..\..\..\lvgl\version_6.1.2\lvgl\src\lv_draw\../lv_core/../lv_misc/lv_color.h ****     uint16_t full;
 239:..\..\..\lvgl\version_6.1.2\lvgl\src\lv_draw\../lv_core/../lv_misc/lv_color.h **** } lv_color16_t;
 240:..\..\..\lvgl\version_6.1.2\lvgl\src\lv_draw\../lv_core/../lv_misc/lv_color.h **** 
 241:..\..\..\lvgl\version_6.1.2\lvgl\src\lv_draw\../lv_core/../lv_misc/lv_color.h **** typedef union
 242:..\..\..\lvgl\version_6.1.2\lvgl\src\lv_draw\../lv_core/../lv_misc/lv_color.h **** {
 243:..\..\..\lvgl\version_6.1.2\lvgl\src\lv_draw\../lv_core/../lv_misc/lv_color.h ****     struct
 244:..\..\..\lvgl\version_6.1.2\lvgl\src\lv_draw\../lv_core/../lv_misc/lv_color.h ****     {
 245:..\..\..\lvgl\version_6.1.2\lvgl\src\lv_draw\../lv_core/../lv_misc/lv_color.h ****         uint8_t blue;
 246:..\..\..\lvgl\version_6.1.2\lvgl\src\lv_draw\../lv_core/../lv_misc/lv_color.h ****         uint8_t green;
 247:..\..\..\lvgl\version_6.1.2\lvgl\src\lv_draw\../lv_core/../lv_misc/lv_color.h ****         uint8_t red;
 248:..\..\..\lvgl\version_6.1.2\lvgl\src\lv_draw\../lv_core/../lv_misc/lv_color.h ****         uint8_t alpha;
 249:..\..\..\lvgl\version_6.1.2\lvgl\src\lv_draw\../lv_core/../lv_misc/lv_color.h ****     } ch;
 250:..\..\..\lvgl\version_6.1.2\lvgl\src\lv_draw\../lv_core/../lv_misc/lv_color.h ****     uint32_t full;
 251:..\..\..\lvgl\version_6.1.2\lvgl\src\lv_draw\../lv_core/../lv_misc/lv_color.h **** } lv_color32_t;
 252:..\..\..\lvgl\version_6.1.2\lvgl\src\lv_draw\../lv_core/../lv_misc/lv_color.h **** 
 253:..\..\..\lvgl\version_6.1.2\lvgl\src\lv_draw\../lv_core/../lv_misc/lv_color.h **** #if LV_COLOR_DEPTH == 1
 254:..\..\..\lvgl\version_6.1.2\lvgl\src\lv_draw\../lv_core/../lv_misc/lv_color.h **** typedef uint8_t lv_color_int_t;
 255:..\..\..\lvgl\version_6.1.2\lvgl\src\lv_draw\../lv_core/../lv_misc/lv_color.h **** typedef lv_color1_t lv_color_t;
 256:..\..\..\lvgl\version_6.1.2\lvgl\src\lv_draw\../lv_core/../lv_misc/lv_color.h **** #elif LV_COLOR_DEPTH == 8
 257:..\..\..\lvgl\version_6.1.2\lvgl\src\lv_draw\../lv_core/../lv_misc/lv_color.h **** typedef uint8_t lv_color_int_t;
 258:..\..\..\lvgl\version_6.1.2\lvgl\src\lv_draw\../lv_core/../lv_misc/lv_color.h **** typedef lv_color8_t lv_color_t;
 259:..\..\..\lvgl\version_6.1.2\lvgl\src\lv_draw\../lv_core/../lv_misc/lv_color.h **** #elif LV_COLOR_DEPTH == 16
 260:..\..\..\lvgl\version_6.1.2\lvgl\src\lv_draw\../lv_core/../lv_misc/lv_color.h **** typedef uint16_t lv_color_int_t;
 261:..\..\..\lvgl\version_6.1.2\lvgl\src\lv_draw\../lv_core/../lv_misc/lv_color.h **** typedef lv_color16_t lv_color_t;
 262:..\..\..\lvgl\version_6.1.2\lvgl\src\lv_draw\../lv_core/../lv_misc/lv_color.h **** #elif LV_COLOR_DEPTH == 32
 263:..\..\..\lvgl\version_6.1.2\lvgl\src\lv_draw\../lv_core/../lv_misc/lv_color.h **** typedef uint32_t lv_color_int_t;
 264:..\..\..\lvgl\version_6.1.2\lvgl\src\lv_draw\../lv_core/../lv_misc/lv_color.h **** typedef lv_color32_t lv_color_t;
ARM GAS  C:\Users\tmj32\AppData\Local\Temp\ccHxR1NV.s 			page 9


 265:..\..\..\lvgl\version_6.1.2\lvgl\src\lv_draw\../lv_core/../lv_misc/lv_color.h **** #else
 266:..\..\..\lvgl\version_6.1.2\lvgl\src\lv_draw\../lv_core/../lv_misc/lv_color.h **** #error "Invalid LV_COLOR_DEPTH in lv_conf.h! Set it to 1, 8, 16 or 32!"
 267:..\..\..\lvgl\version_6.1.2\lvgl\src\lv_draw\../lv_core/../lv_misc/lv_color.h **** #endif
 268:..\..\..\lvgl\version_6.1.2\lvgl\src\lv_draw\../lv_core/../lv_misc/lv_color.h **** 
 269:..\..\..\lvgl\version_6.1.2\lvgl\src\lv_draw\../lv_core/../lv_misc/lv_color.h **** typedef uint8_t lv_opa_t;
 270:..\..\..\lvgl\version_6.1.2\lvgl\src\lv_draw\../lv_core/../lv_misc/lv_color.h **** 
 271:..\..\..\lvgl\version_6.1.2\lvgl\src\lv_draw\../lv_core/../lv_misc/lv_color.h **** typedef struct
 272:..\..\..\lvgl\version_6.1.2\lvgl\src\lv_draw\../lv_core/../lv_misc/lv_color.h **** {
 273:..\..\..\lvgl\version_6.1.2\lvgl\src\lv_draw\../lv_core/../lv_misc/lv_color.h ****     uint16_t h;
 274:..\..\..\lvgl\version_6.1.2\lvgl\src\lv_draw\../lv_core/../lv_misc/lv_color.h ****     uint8_t s;
 275:..\..\..\lvgl\version_6.1.2\lvgl\src\lv_draw\../lv_core/../lv_misc/lv_color.h ****     uint8_t v;
 276:..\..\..\lvgl\version_6.1.2\lvgl\src\lv_draw\../lv_core/../lv_misc/lv_color.h **** } lv_color_hsv_t;
 277:..\..\..\lvgl\version_6.1.2\lvgl\src\lv_draw\../lv_core/../lv_misc/lv_color.h **** 
 278:..\..\..\lvgl\version_6.1.2\lvgl\src\lv_draw\../lv_core/../lv_misc/lv_color.h **** /**********************
 279:..\..\..\lvgl\version_6.1.2\lvgl\src\lv_draw\../lv_core/../lv_misc/lv_color.h ****  * GLOBAL PROTOTYPES
 280:..\..\..\lvgl\version_6.1.2\lvgl\src\lv_draw\../lv_core/../lv_misc/lv_color.h ****  **********************/
 281:..\..\..\lvgl\version_6.1.2\lvgl\src\lv_draw\../lv_core/../lv_misc/lv_color.h **** 
 282:..\..\..\lvgl\version_6.1.2\lvgl\src\lv_draw\../lv_core/../lv_misc/lv_color.h **** /*In color conversations:
 283:..\..\..\lvgl\version_6.1.2\lvgl\src\lv_draw\../lv_core/../lv_misc/lv_color.h ****  * - When converting to bigger color type the LSB weight of 1 LSB is calculated
 284:..\..\..\lvgl\version_6.1.2\lvgl\src\lv_draw\../lv_core/../lv_misc/lv_color.h ****  *   E.g. 16 bit Red has 5 bits
 285:..\..\..\lvgl\version_6.1.2\lvgl\src\lv_draw\../lv_core/../lv_misc/lv_color.h ****  *         8 bit Red has 2 bits
 286:..\..\..\lvgl\version_6.1.2\lvgl\src\lv_draw\../lv_core/../lv_misc/lv_color.h ****  *        ----------------------
 287:..\..\..\lvgl\version_6.1.2\lvgl\src\lv_draw\../lv_core/../lv_misc/lv_color.h ****  *        8 bit red LSB = (2^5 - 1) / (2^2 - 1) = 31 / 3 = 10
 288:..\..\..\lvgl\version_6.1.2\lvgl\src\lv_draw\../lv_core/../lv_misc/lv_color.h ****  *
 289:..\..\..\lvgl\version_6.1.2\lvgl\src\lv_draw\../lv_core/../lv_misc/lv_color.h ****  * - When calculating to smaller color type simply shift out the LSBs
 290:..\..\..\lvgl\version_6.1.2\lvgl\src\lv_draw\../lv_core/../lv_misc/lv_color.h ****  *   E.g.  8 bit Red has 2 bits
 291:..\..\..\lvgl\version_6.1.2\lvgl\src\lv_draw\../lv_core/../lv_misc/lv_color.h ****  *        16 bit Red has 5 bits
 292:..\..\..\lvgl\version_6.1.2\lvgl\src\lv_draw\../lv_core/../lv_misc/lv_color.h ****  *        ----------------------
 293:..\..\..\lvgl\version_6.1.2\lvgl\src\lv_draw\../lv_core/../lv_misc/lv_color.h ****  *         Shift right with 5 - 3 = 2
 294:..\..\..\lvgl\version_6.1.2\lvgl\src\lv_draw\../lv_core/../lv_misc/lv_color.h ****  */
 295:..\..\..\lvgl\version_6.1.2\lvgl\src\lv_draw\../lv_core/../lv_misc/lv_color.h **** 
 296:..\..\..\lvgl\version_6.1.2\lvgl\src\lv_draw\../lv_core/../lv_misc/lv_color.h **** static inline uint8_t lv_color_to1(lv_color_t color)
 297:..\..\..\lvgl\version_6.1.2\lvgl\src\lv_draw\../lv_core/../lv_misc/lv_color.h **** {
 298:..\..\..\lvgl\version_6.1.2\lvgl\src\lv_draw\../lv_core/../lv_misc/lv_color.h **** #if LV_COLOR_DEPTH == 1
 299:..\..\..\lvgl\version_6.1.2\lvgl\src\lv_draw\../lv_core/../lv_misc/lv_color.h ****     return color.full;
 300:..\..\..\lvgl\version_6.1.2\lvgl\src\lv_draw\../lv_core/../lv_misc/lv_color.h **** #elif LV_COLOR_DEPTH == 8
 301:..\..\..\lvgl\version_6.1.2\lvgl\src\lv_draw\../lv_core/../lv_misc/lv_color.h ****     if((LV_COLOR_GET_R(color) & 0x4) || (LV_COLOR_GET_G(color) & 0x4) || (LV_COLOR_GET_B(color) & 0
 302:..\..\..\lvgl\version_6.1.2\lvgl\src\lv_draw\../lv_core/../lv_misc/lv_color.h ****         return 1;
 303:..\..\..\lvgl\version_6.1.2\lvgl\src\lv_draw\../lv_core/../lv_misc/lv_color.h ****     } else {
 304:..\..\..\lvgl\version_6.1.2\lvgl\src\lv_draw\../lv_core/../lv_misc/lv_color.h ****         return 0;
 305:..\..\..\lvgl\version_6.1.2\lvgl\src\lv_draw\../lv_core/../lv_misc/lv_color.h ****     }
 306:..\..\..\lvgl\version_6.1.2\lvgl\src\lv_draw\../lv_core/../lv_misc/lv_color.h **** #elif LV_COLOR_DEPTH == 16
 307:..\..\..\lvgl\version_6.1.2\lvgl\src\lv_draw\../lv_core/../lv_misc/lv_color.h ****     if((LV_COLOR_GET_R(color) & 0x10) || (LV_COLOR_GET_G(color) & 0x20) || (LV_COLOR_GET_B(color) &
 308:..\..\..\lvgl\version_6.1.2\lvgl\src\lv_draw\../lv_core/../lv_misc/lv_color.h ****         return 1;
 309:..\..\..\lvgl\version_6.1.2\lvgl\src\lv_draw\../lv_core/../lv_misc/lv_color.h ****     } else {
 310:..\..\..\lvgl\version_6.1.2\lvgl\src\lv_draw\../lv_core/../lv_misc/lv_color.h ****         return 0;
 311:..\..\..\lvgl\version_6.1.2\lvgl\src\lv_draw\../lv_core/../lv_misc/lv_color.h ****     }
 312:..\..\..\lvgl\version_6.1.2\lvgl\src\lv_draw\../lv_core/../lv_misc/lv_color.h **** #elif LV_COLOR_DEPTH == 32
 313:..\..\..\lvgl\version_6.1.2\lvgl\src\lv_draw\../lv_core/../lv_misc/lv_color.h ****     if((LV_COLOR_GET_R(color) & 0x80) || (LV_COLOR_GET_G(color) & 0x80) || (LV_COLOR_GET_B(color) &
 314:..\..\..\lvgl\version_6.1.2\lvgl\src\lv_draw\../lv_core/../lv_misc/lv_color.h ****         return 1;
 315:..\..\..\lvgl\version_6.1.2\lvgl\src\lv_draw\../lv_core/../lv_misc/lv_color.h ****     } else {
 316:..\..\..\lvgl\version_6.1.2\lvgl\src\lv_draw\../lv_core/../lv_misc/lv_color.h ****         return 0;
 317:..\..\..\lvgl\version_6.1.2\lvgl\src\lv_draw\../lv_core/../lv_misc/lv_color.h ****     }
 318:..\..\..\lvgl\version_6.1.2\lvgl\src\lv_draw\../lv_core/../lv_misc/lv_color.h **** #endif
 319:..\..\..\lvgl\version_6.1.2\lvgl\src\lv_draw\../lv_core/../lv_misc/lv_color.h **** }
 320:..\..\..\lvgl\version_6.1.2\lvgl\src\lv_draw\../lv_core/../lv_misc/lv_color.h **** 
 321:..\..\..\lvgl\version_6.1.2\lvgl\src\lv_draw\../lv_core/../lv_misc/lv_color.h **** static inline uint8_t lv_color_to8(lv_color_t color)
ARM GAS  C:\Users\tmj32\AppData\Local\Temp\ccHxR1NV.s 			page 10


 322:..\..\..\lvgl\version_6.1.2\lvgl\src\lv_draw\../lv_core/../lv_misc/lv_color.h **** {
 323:..\..\..\lvgl\version_6.1.2\lvgl\src\lv_draw\../lv_core/../lv_misc/lv_color.h **** #if LV_COLOR_DEPTH == 1
 324:..\..\..\lvgl\version_6.1.2\lvgl\src\lv_draw\../lv_core/../lv_misc/lv_color.h ****     if(color.full == 0)
 325:..\..\..\lvgl\version_6.1.2\lvgl\src\lv_draw\../lv_core/../lv_misc/lv_color.h ****         return 0;
 326:..\..\..\lvgl\version_6.1.2\lvgl\src\lv_draw\../lv_core/../lv_misc/lv_color.h ****     else
 327:..\..\..\lvgl\version_6.1.2\lvgl\src\lv_draw\../lv_core/../lv_misc/lv_color.h ****         return 0xFF;
 328:..\..\..\lvgl\version_6.1.2\lvgl\src\lv_draw\../lv_core/../lv_misc/lv_color.h **** #elif LV_COLOR_DEPTH == 8
 329:..\..\..\lvgl\version_6.1.2\lvgl\src\lv_draw\../lv_core/../lv_misc/lv_color.h ****     return color.full;
 330:..\..\..\lvgl\version_6.1.2\lvgl\src\lv_draw\../lv_core/../lv_misc/lv_color.h **** #elif LV_COLOR_DEPTH == 16
 331:..\..\..\lvgl\version_6.1.2\lvgl\src\lv_draw\../lv_core/../lv_misc/lv_color.h ****     lv_color8_t ret;
 332:..\..\..\lvgl\version_6.1.2\lvgl\src\lv_draw\../lv_core/../lv_misc/lv_color.h ****     LV_COLOR_SET_R8(ret, LV_COLOR_GET_R(color) >> 2);   /* 5 - 3  = 2*/
 333:..\..\..\lvgl\version_6.1.2\lvgl\src\lv_draw\../lv_core/../lv_misc/lv_color.h ****     LV_COLOR_SET_G8(ret, LV_COLOR_GET_G(color) >> 3); /* 6 - 3  = 3*/
 334:..\..\..\lvgl\version_6.1.2\lvgl\src\lv_draw\../lv_core/../lv_misc/lv_color.h ****     LV_COLOR_SET_B8(ret, LV_COLOR_GET_B(color) >> 3);  /* 5 - 2  = 3*/
 335:..\..\..\lvgl\version_6.1.2\lvgl\src\lv_draw\../lv_core/../lv_misc/lv_color.h ****     return ret.full;
 336:..\..\..\lvgl\version_6.1.2\lvgl\src\lv_draw\../lv_core/../lv_misc/lv_color.h **** #elif LV_COLOR_DEPTH == 32
 337:..\..\..\lvgl\version_6.1.2\lvgl\src\lv_draw\../lv_core/../lv_misc/lv_color.h ****     lv_color8_t ret;
 338:..\..\..\lvgl\version_6.1.2\lvgl\src\lv_draw\../lv_core/../lv_misc/lv_color.h ****     LV_COLOR_SET_R8(ret, LV_COLOR_GET_R(color) >> 5);   /* 8 - 3  = 5*/
 339:..\..\..\lvgl\version_6.1.2\lvgl\src\lv_draw\../lv_core/../lv_misc/lv_color.h ****     LV_COLOR_SET_G8(ret, LV_COLOR_GET_G(color) >> 5); /* 8 - 3  = 5*/
 340:..\..\..\lvgl\version_6.1.2\lvgl\src\lv_draw\../lv_core/../lv_misc/lv_color.h ****     LV_COLOR_SET_B8(ret, LV_COLOR_GET_B(color) >> 6);  /* 8 - 2  = 6*/
 341:..\..\..\lvgl\version_6.1.2\lvgl\src\lv_draw\../lv_core/../lv_misc/lv_color.h ****     return ret.full;
 342:..\..\..\lvgl\version_6.1.2\lvgl\src\lv_draw\../lv_core/../lv_misc/lv_color.h **** #endif
 343:..\..\..\lvgl\version_6.1.2\lvgl\src\lv_draw\../lv_core/../lv_misc/lv_color.h **** }
 344:..\..\..\lvgl\version_6.1.2\lvgl\src\lv_draw\../lv_core/../lv_misc/lv_color.h **** 
 345:..\..\..\lvgl\version_6.1.2\lvgl\src\lv_draw\../lv_core/../lv_misc/lv_color.h **** static inline uint16_t lv_color_to16(lv_color_t color)
 346:..\..\..\lvgl\version_6.1.2\lvgl\src\lv_draw\../lv_core/../lv_misc/lv_color.h **** {
 347:..\..\..\lvgl\version_6.1.2\lvgl\src\lv_draw\../lv_core/../lv_misc/lv_color.h **** #if LV_COLOR_DEPTH == 1
 348:..\..\..\lvgl\version_6.1.2\lvgl\src\lv_draw\../lv_core/../lv_misc/lv_color.h ****     if(color.full == 0)
 349:..\..\..\lvgl\version_6.1.2\lvgl\src\lv_draw\../lv_core/../lv_misc/lv_color.h ****         return 0;
 350:..\..\..\lvgl\version_6.1.2\lvgl\src\lv_draw\../lv_core/../lv_misc/lv_color.h ****     else
 351:..\..\..\lvgl\version_6.1.2\lvgl\src\lv_draw\../lv_core/../lv_misc/lv_color.h ****         return 0xFFFF;
 352:..\..\..\lvgl\version_6.1.2\lvgl\src\lv_draw\../lv_core/../lv_misc/lv_color.h **** #elif LV_COLOR_DEPTH == 8
 353:..\..\..\lvgl\version_6.1.2\lvgl\src\lv_draw\../lv_core/../lv_misc/lv_color.h ****     lv_color16_t ret;
 354:..\..\..\lvgl\version_6.1.2\lvgl\src\lv_draw\../lv_core/../lv_misc/lv_color.h ****     LV_COLOR_SET_R16(ret, LV_COLOR_GET_R(color) * 4);     /*(2^5 - 1)/(2^3 - 1) = 31/7 = 4*/
 355:..\..\..\lvgl\version_6.1.2\lvgl\src\lv_draw\../lv_core/../lv_misc/lv_color.h **** #if LV_COLOR_16_SWAP == 0
 356:..\..\..\lvgl\version_6.1.2\lvgl\src\lv_draw\../lv_core/../lv_misc/lv_color.h ****     LV_COLOR_SET_G16(ret,  LV_COLOR_GET_G(color) * 9); /*(2^6 - 1)/(2^3 - 1) = 63/7 = 9*/
 357:..\..\..\lvgl\version_6.1.2\lvgl\src\lv_draw\../lv_core/../lv_misc/lv_color.h **** #else
 358:..\..\..\lvgl\version_6.1.2\lvgl\src\lv_draw\../lv_core/../lv_misc/lv_color.h ****     LV_COLOR_SET_G16_SWAP(ret, (LV_COLOR_GET_G(color) * 9)); /*(2^6 - 1)/(2^3 - 1) = 63/7 = 9*/
 359:..\..\..\lvgl\version_6.1.2\lvgl\src\lv_draw\../lv_core/../lv_misc/lv_color.h **** #endif
 360:..\..\..\lvgl\version_6.1.2\lvgl\src\lv_draw\../lv_core/../lv_misc/lv_color.h ****     LV_COLOR_SET_B16(ret, LV_COLOR_GET_B(color) * 10);  /*(2^5 - 1)/(2^2 - 1) = 31/3 = 10*/
 361:..\..\..\lvgl\version_6.1.2\lvgl\src\lv_draw\../lv_core/../lv_misc/lv_color.h ****     return ret.full;
 362:..\..\..\lvgl\version_6.1.2\lvgl\src\lv_draw\../lv_core/../lv_misc/lv_color.h **** #elif LV_COLOR_DEPTH == 16
 363:..\..\..\lvgl\version_6.1.2\lvgl\src\lv_draw\../lv_core/../lv_misc/lv_color.h ****     return color.full;
 364:..\..\..\lvgl\version_6.1.2\lvgl\src\lv_draw\../lv_core/../lv_misc/lv_color.h **** #elif LV_COLOR_DEPTH == 32
 365:..\..\..\lvgl\version_6.1.2\lvgl\src\lv_draw\../lv_core/../lv_misc/lv_color.h ****     lv_color16_t ret;
 366:..\..\..\lvgl\version_6.1.2\lvgl\src\lv_draw\../lv_core/../lv_misc/lv_color.h ****     LV_COLOR_SET_R16(ret, LV_COLOR_GET_R(color) >> 3);   /* 8 - 5  = 3*/
 367:..\..\..\lvgl\version_6.1.2\lvgl\src\lv_draw\../lv_core/../lv_misc/lv_color.h **** 
 368:..\..\..\lvgl\version_6.1.2\lvgl\src\lv_draw\../lv_core/../lv_misc/lv_color.h **** #if LV_COLOR_16_SWAP == 0
 369:..\..\..\lvgl\version_6.1.2\lvgl\src\lv_draw\../lv_core/../lv_misc/lv_color.h ****     LV_COLOR_SET_G16(ret, LV_COLOR_GET_G(color) >> 2); /* 8 - 6  = 2*/
 370:..\..\..\lvgl\version_6.1.2\lvgl\src\lv_draw\../lv_core/../lv_misc/lv_color.h **** #else
 371:..\..\..\lvgl\version_6.1.2\lvgl\src\lv_draw\../lv_core/../lv_misc/lv_color.h ****     LV_COLOR_SET_G16_SWAP(ret, ret.ch.green_h = (LV_COLOR_GET_G(color) >> 2); /*(2^6 - 1)/(2^3 - 1)
 372:..\..\..\lvgl\version_6.1.2\lvgl\src\lv_draw\../lv_core/../lv_misc/lv_color.h **** #endif
 373:..\..\..\lvgl\version_6.1.2\lvgl\src\lv_draw\../lv_core/../lv_misc/lv_color.h ****     LV_COLOR_SET_B16(ret, LV_COLOR_GET_B(color) >> 3);  /* 8 - 5  = 3*/
 374:..\..\..\lvgl\version_6.1.2\lvgl\src\lv_draw\../lv_core/../lv_misc/lv_color.h ****     return ret.full;
 375:..\..\..\lvgl\version_6.1.2\lvgl\src\lv_draw\../lv_core/../lv_misc/lv_color.h **** #endif                         
 376:..\..\..\lvgl\version_6.1.2\lvgl\src\lv_draw\../lv_core/../lv_misc/lv_color.h **** }
 377:..\..\..\lvgl\version_6.1.2\lvgl\src\lv_draw\../lv_core/../lv_misc/lv_color.h **** 
 378:..\..\..\lvgl\version_6.1.2\lvgl\src\lv_draw\../lv_core/../lv_misc/lv_color.h **** static inline uint32_t lv_color_to32(lv_color_t color)
ARM GAS  C:\Users\tmj32\AppData\Local\Temp\ccHxR1NV.s 			page 11


 379:..\..\..\lvgl\version_6.1.2\lvgl\src\lv_draw\../lv_core/../lv_misc/lv_color.h **** {
 380:..\..\..\lvgl\version_6.1.2\lvgl\src\lv_draw\../lv_core/../lv_misc/lv_color.h **** #if LV_COLOR_DEPTH == 1
 381:..\..\..\lvgl\version_6.1.2\lvgl\src\lv_draw\../lv_core/../lv_misc/lv_color.h ****     if(color.full == 0)
 382:..\..\..\lvgl\version_6.1.2\lvgl\src\lv_draw\../lv_core/../lv_misc/lv_color.h ****         return 0;
 383:..\..\..\lvgl\version_6.1.2\lvgl\src\lv_draw\../lv_core/../lv_misc/lv_color.h ****     else
 384:..\..\..\lvgl\version_6.1.2\lvgl\src\lv_draw\../lv_core/../lv_misc/lv_color.h ****         return 0xFFFFFFFF;
 385:..\..\..\lvgl\version_6.1.2\lvgl\src\lv_draw\../lv_core/../lv_misc/lv_color.h **** #elif LV_COLOR_DEPTH == 8
 386:..\..\..\lvgl\version_6.1.2\lvgl\src\lv_draw\../lv_core/../lv_misc/lv_color.h ****     lv_color32_t ret;
 387:..\..\..\lvgl\version_6.1.2\lvgl\src\lv_draw\../lv_core/../lv_misc/lv_color.h ****     LV_COLOR_SET_R32(ret, LV_COLOR_GET_R(color) * 36);     /*(2^8 - 1)/(2^3 - 1) = 255/7 = 36*/
 388:..\..\..\lvgl\version_6.1.2\lvgl\src\lv_draw\../lv_core/../lv_misc/lv_color.h ****     LV_COLOR_SET_G32(ret, LV_COLOR_GET_G(color) * 36); /*(2^8 - 1)/(2^3 - 1) = 255/7 = 36*/
 389:..\..\..\lvgl\version_6.1.2\lvgl\src\lv_draw\../lv_core/../lv_misc/lv_color.h ****     LV_COLOR_SET_B32(ret, LV_COLOR_GET_B(color) * 85);   /*(2^8 - 1)/(2^2 - 1) = 255/3 = 85*/
 390:..\..\..\lvgl\version_6.1.2\lvgl\src\lv_draw\../lv_core/../lv_misc/lv_color.h ****     LV_COLOR_SET_A32(ret, 0xFF);
 391:..\..\..\lvgl\version_6.1.2\lvgl\src\lv_draw\../lv_core/../lv_misc/lv_color.h ****     return ret.full;
 392:..\..\..\lvgl\version_6.1.2\lvgl\src\lv_draw\../lv_core/../lv_misc/lv_color.h **** #elif LV_COLOR_DEPTH == 16
 393:..\..\..\lvgl\version_6.1.2\lvgl\src\lv_draw\../lv_core/../lv_misc/lv_color.h ****     /**
 394:..\..\..\lvgl\version_6.1.2\lvgl\src\lv_draw\../lv_core/../lv_misc/lv_color.h ****      * The floating point math for conversion is:
 395:..\..\..\lvgl\version_6.1.2\lvgl\src\lv_draw\../lv_core/../lv_misc/lv_color.h ****      *  valueto = valuefrom * ( (2^bitsto - 1) / (float)(2^bitsfrom - 1) )
 396:..\..\..\lvgl\version_6.1.2\lvgl\src\lv_draw\../lv_core/../lv_misc/lv_color.h ****      * The faster integer math for conversion is:
 397:..\..\..\lvgl\version_6.1.2\lvgl\src\lv_draw\../lv_core/../lv_misc/lv_color.h ****      *  valueto = ( valuefrom * multiplier + adder ) >> divisor
 398:..\..\..\lvgl\version_6.1.2\lvgl\src\lv_draw\../lv_core/../lv_misc/lv_color.h ****      *   multiplier = FLOOR( ( (2^bitsto - 1) << divisor ) / (float)(2^bitsfrom - 1) )
 399:..\..\..\lvgl\version_6.1.2\lvgl\src\lv_draw\../lv_core/../lv_misc/lv_color.h ****      * 
 400:..\..\..\lvgl\version_6.1.2\lvgl\src\lv_draw\../lv_core/../lv_misc/lv_color.h ****      * Find the first divisor where ( adder >> divisor ) <= 0
 401:..\..\..\lvgl\version_6.1.2\lvgl\src\lv_draw\../lv_core/../lv_misc/lv_color.h ****      * 
 402:..\..\..\lvgl\version_6.1.2\lvgl\src\lv_draw\../lv_core/../lv_misc/lv_color.h ****      * 5-bit to 8-bit: ( 31 * multiplier + adder ) >> divisor = 255
 403:..\..\..\lvgl\version_6.1.2\lvgl\src\lv_draw\../lv_core/../lv_misc/lv_color.h ****      * divisor  multiplier  adder  min (0)  max (31)
 404:..\..\..\lvgl\version_6.1.2\lvgl\src\lv_draw\../lv_core/../lv_misc/lv_color.h ****      *       0           8      7        7       255
 405:..\..\..\lvgl\version_6.1.2\lvgl\src\lv_draw\../lv_core/../lv_misc/lv_color.h ****      *       1          16     14        7       255
 406:..\..\..\lvgl\version_6.1.2\lvgl\src\lv_draw\../lv_core/../lv_misc/lv_color.h ****      *       2          32     28        7       255
 407:..\..\..\lvgl\version_6.1.2\lvgl\src\lv_draw\../lv_core/../lv_misc/lv_color.h ****      *       3          65     25        3       255
 408:..\..\..\lvgl\version_6.1.2\lvgl\src\lv_draw\../lv_core/../lv_misc/lv_color.h ****      *       4         131     19        1       255
 409:..\..\..\lvgl\version_6.1.2\lvgl\src\lv_draw\../lv_core/../lv_misc/lv_color.h ****      *       5         263      7        0       255
 410:..\..\..\lvgl\version_6.1.2\lvgl\src\lv_draw\../lv_core/../lv_misc/lv_color.h ****      * 
 411:..\..\..\lvgl\version_6.1.2\lvgl\src\lv_draw\../lv_core/../lv_misc/lv_color.h ****      * 6-bit to 8-bit: 255 = ( 63 * multiplier + adder ) >> divisor
 412:..\..\..\lvgl\version_6.1.2\lvgl\src\lv_draw\../lv_core/../lv_misc/lv_color.h ****      * divisor  multiplier  adder  min (0)  max (63)
 413:..\..\..\lvgl\version_6.1.2\lvgl\src\lv_draw\../lv_core/../lv_misc/lv_color.h ****      *       0           4      3        3       255
 414:..\..\..\lvgl\version_6.1.2\lvgl\src\lv_draw\../lv_core/../lv_misc/lv_color.h ****      *       1           8      6        3       255
 415:..\..\..\lvgl\version_6.1.2\lvgl\src\lv_draw\../lv_core/../lv_misc/lv_color.h ****      *       2          16     12        3       255
 416:..\..\..\lvgl\version_6.1.2\lvgl\src\lv_draw\../lv_core/../lv_misc/lv_color.h ****      *       3          32     24        3       255
 417:..\..\..\lvgl\version_6.1.2\lvgl\src\lv_draw\../lv_core/../lv_misc/lv_color.h ****      *       4          64     48        3       255
 418:..\..\..\lvgl\version_6.1.2\lvgl\src\lv_draw\../lv_core/../lv_misc/lv_color.h ****      *       5         129     33        1       255
 419:..\..\..\lvgl\version_6.1.2\lvgl\src\lv_draw\../lv_core/../lv_misc/lv_color.h ****      *       6         259      3        0       255
 420:..\..\..\lvgl\version_6.1.2\lvgl\src\lv_draw\../lv_core/../lv_misc/lv_color.h ****      */
 421:..\..\..\lvgl\version_6.1.2\lvgl\src\lv_draw\../lv_core/../lv_misc/lv_color.h ****     lv_color32_t ret;
 422:..\..\..\lvgl\version_6.1.2\lvgl\src\lv_draw\../lv_core/../lv_misc/lv_color.h ****     LV_COLOR_SET_R32(ret, (LV_COLOR_GET_R(color) * 263 + 7 ) >> 5);
 423:..\..\..\lvgl\version_6.1.2\lvgl\src\lv_draw\../lv_core/../lv_misc/lv_color.h ****     LV_COLOR_SET_G32(ret, (LV_COLOR_GET_G(color) * 259 + 3 ) >> 6);
 424:..\..\..\lvgl\version_6.1.2\lvgl\src\lv_draw\../lv_core/../lv_misc/lv_color.h ****     LV_COLOR_SET_B32(ret, (LV_COLOR_GET_B(color) * 263 + 7 ) >> 5);
 425:..\..\..\lvgl\version_6.1.2\lvgl\src\lv_draw\../lv_core/../lv_misc/lv_color.h ****     LV_COLOR_SET_A32(ret, 0xFF);
 426:..\..\..\lvgl\version_6.1.2\lvgl\src\lv_draw\../lv_core/../lv_misc/lv_color.h ****     return ret.full;
 427:..\..\..\lvgl\version_6.1.2\lvgl\src\lv_draw\../lv_core/../lv_misc/lv_color.h **** #elif LV_COLOR_DEPTH == 32
 428:..\..\..\lvgl\version_6.1.2\lvgl\src\lv_draw\../lv_core/../lv_misc/lv_color.h ****     return color.full;
 429:..\..\..\lvgl\version_6.1.2\lvgl\src\lv_draw\../lv_core/../lv_misc/lv_color.h **** #endif
 430:..\..\..\lvgl\version_6.1.2\lvgl\src\lv_draw\../lv_core/../lv_misc/lv_color.h **** }
 431:..\..\..\lvgl\version_6.1.2\lvgl\src\lv_draw\../lv_core/../lv_misc/lv_color.h **** 
 432:..\..\..\lvgl\version_6.1.2\lvgl\src\lv_draw\../lv_core/../lv_misc/lv_color.h **** static inline lv_color_t lv_color_mix(lv_color_t c1, lv_color_t c2, uint8_t mix)
 433:..\..\..\lvgl\version_6.1.2\lvgl\src\lv_draw\../lv_core/../lv_misc/lv_color.h **** {
 434:..\..\..\lvgl\version_6.1.2\lvgl\src\lv_draw\../lv_core/../lv_misc/lv_color.h ****     lv_color_t ret;
 435:..\..\..\lvgl\version_6.1.2\lvgl\src\lv_draw\../lv_core/../lv_misc/lv_color.h **** #if LV_COLOR_DEPTH != 1
ARM GAS  C:\Users\tmj32\AppData\Local\Temp\ccHxR1NV.s 			page 12


 436:..\..\..\lvgl\version_6.1.2\lvgl\src\lv_draw\../lv_core/../lv_misc/lv_color.h ****     /*LV_COLOR_DEPTH == 8, 16 or 32*/
 437:..\..\..\lvgl\version_6.1.2\lvgl\src\lv_draw\../lv_core/../lv_misc/lv_color.h ****     LV_COLOR_SET_R(ret, (uint16_t)((uint16_t) LV_COLOR_GET_R(c1) * mix + LV_COLOR_GET_R(c2) * (255 
 438:..\..\..\lvgl\version_6.1.2\lvgl\src\lv_draw\../lv_core/../lv_misc/lv_color.h ****     LV_COLOR_SET_G(ret, (uint16_t)((uint16_t) LV_COLOR_GET_G(c1) * mix + LV_COLOR_GET_G(c2) * (255 
 439:..\..\..\lvgl\version_6.1.2\lvgl\src\lv_draw\../lv_core/../lv_misc/lv_color.h ****     LV_COLOR_SET_B(ret, (uint16_t)((uint16_t) LV_COLOR_GET_B(c1) * mix + LV_COLOR_GET_B(c2) * (255 
 440:..\..\..\lvgl\version_6.1.2\lvgl\src\lv_draw\../lv_core/../lv_misc/lv_color.h ****     LV_COLOR_SET_A(ret, 0xFF);
 441:..\..\..\lvgl\version_6.1.2\lvgl\src\lv_draw\../lv_core/../lv_misc/lv_color.h **** #else
 442:..\..\..\lvgl\version_6.1.2\lvgl\src\lv_draw\../lv_core/../lv_misc/lv_color.h ****     /*LV_COLOR_DEPTH == 1*/
 443:..\..\..\lvgl\version_6.1.2\lvgl\src\lv_draw\../lv_core/../lv_misc/lv_color.h ****     ret.full = mix > LV_OPA_50 ? c1.full : c2.full;
 444:..\..\..\lvgl\version_6.1.2\lvgl\src\lv_draw\../lv_core/../lv_misc/lv_color.h **** #endif
 445:..\..\..\lvgl\version_6.1.2\lvgl\src\lv_draw\../lv_core/../lv_misc/lv_color.h **** 
 446:..\..\..\lvgl\version_6.1.2\lvgl\src\lv_draw\../lv_core/../lv_misc/lv_color.h ****     return ret;
 447:..\..\..\lvgl\version_6.1.2\lvgl\src\lv_draw\../lv_core/../lv_misc/lv_color.h **** }
 448:..\..\..\lvgl\version_6.1.2\lvgl\src\lv_draw\../lv_core/../lv_misc/lv_color.h **** 
 449:..\..\..\lvgl\version_6.1.2\lvgl\src\lv_draw\../lv_core/../lv_misc/lv_color.h **** /**
 450:..\..\..\lvgl\version_6.1.2\lvgl\src\lv_draw\../lv_core/../lv_misc/lv_color.h ****  * Get the brightness of a color
 451:..\..\..\lvgl\version_6.1.2\lvgl\src\lv_draw\../lv_core/../lv_misc/lv_color.h ****  * @param color a color
 452:..\..\..\lvgl\version_6.1.2\lvgl\src\lv_draw\../lv_core/../lv_misc/lv_color.h ****  * @return the brightness [0..255]
 453:..\..\..\lvgl\version_6.1.2\lvgl\src\lv_draw\../lv_core/../lv_misc/lv_color.h ****  */
 454:..\..\..\lvgl\version_6.1.2\lvgl\src\lv_draw\../lv_core/../lv_misc/lv_color.h **** static inline uint8_t lv_color_brightness(lv_color_t color)
 455:..\..\..\lvgl\version_6.1.2\lvgl\src\lv_draw\../lv_core/../lv_misc/lv_color.h **** {
 456:..\..\..\lvgl\version_6.1.2\lvgl\src\lv_draw\../lv_core/../lv_misc/lv_color.h ****     lv_color32_t c32;
 457:..\..\..\lvgl\version_6.1.2\lvgl\src\lv_draw\../lv_core/../lv_misc/lv_color.h ****     c32.full        = lv_color_to32(color);
 458:..\..\..\lvgl\version_6.1.2\lvgl\src\lv_draw\../lv_core/../lv_misc/lv_color.h ****     uint16_t bright = (uint16_t)(3u * LV_COLOR_GET_R32(c32) + LV_COLOR_GET_B32(c32) + 4u * LV_COLOR
 459:..\..\..\lvgl\version_6.1.2\lvgl\src\lv_draw\../lv_core/../lv_misc/lv_color.h ****     return (uint8_t)(bright >> 3);
 460:..\..\..\lvgl\version_6.1.2\lvgl\src\lv_draw\../lv_core/../lv_misc/lv_color.h **** }
 461:..\..\..\lvgl\version_6.1.2\lvgl\src\lv_draw\../lv_core/../lv_misc/lv_color.h **** 
 462:..\..\..\lvgl\version_6.1.2\lvgl\src\lv_draw\../lv_core/../lv_misc/lv_color.h **** /* The most simple macro to create a color from R,G and B values */
 463:..\..\..\lvgl\version_6.1.2\lvgl\src\lv_draw\../lv_core/../lv_misc/lv_color.h **** #if LV_COLOR_DEPTH == 1
 464:..\..\..\lvgl\version_6.1.2\lvgl\src\lv_draw\../lv_core/../lv_misc/lv_color.h **** #define LV_COLOR_MAKE(r8, g8, b8) ((lv_color_t){.full = (uint8_t)((b8 >> 7) | (g8 >> 7) | (r8 >> 7)
 465:..\..\..\lvgl\version_6.1.2\lvgl\src\lv_draw\../lv_core/../lv_misc/lv_color.h **** #elif LV_COLOR_DEPTH == 8
 466:..\..\..\lvgl\version_6.1.2\lvgl\src\lv_draw\../lv_core/../lv_misc/lv_color.h **** #define LV_COLOR_MAKE(r8, g8, b8) ((lv_color_t){{(uint8_t)((b8 >> 6) & 0x3U), (uint8_t)((g8 >> 5) &
 467:..\..\..\lvgl\version_6.1.2\lvgl\src\lv_draw\../lv_core/../lv_misc/lv_color.h **** #elif LV_COLOR_DEPTH == 16
 468:..\..\..\lvgl\version_6.1.2\lvgl\src\lv_draw\../lv_core/../lv_misc/lv_color.h **** #if LV_COLOR_16_SWAP == 0
 469:..\..\..\lvgl\version_6.1.2\lvgl\src\lv_draw\../lv_core/../lv_misc/lv_color.h **** #define LV_COLOR_MAKE(r8, g8, b8) ((lv_color_t){{(uint16_t)((b8 >> 3) & 0x1FU), (uint16_t)((g8 >> 2
 470:..\..\..\lvgl\version_6.1.2\lvgl\src\lv_draw\../lv_core/../lv_misc/lv_color.h **** #else
 471:..\..\..\lvgl\version_6.1.2\lvgl\src\lv_draw\../lv_core/../lv_misc/lv_color.h **** #define LV_COLOR_MAKE(r8, g8, b8) ((lv_color_t){{(uint16_t)((g8 >> 5) & 0x7U), (uint16_t)((r8 >> 3)
 472:..\..\..\lvgl\version_6.1.2\lvgl\src\lv_draw\../lv_core/../lv_misc/lv_color.h **** #endif
 473:..\..\..\lvgl\version_6.1.2\lvgl\src\lv_draw\../lv_core/../lv_misc/lv_color.h **** #elif LV_COLOR_DEPTH == 32
 474:..\..\..\lvgl\version_6.1.2\lvgl\src\lv_draw\../lv_core/../lv_misc/lv_color.h **** #define LV_COLOR_MAKE(r8, g8, b8) ((lv_color_t){{b8, g8, r8, 0xff}}) /*Fix 0xff alpha*/
 475:..\..\..\lvgl\version_6.1.2\lvgl\src\lv_draw\../lv_core/../lv_misc/lv_color.h **** #endif
 476:..\..\..\lvgl\version_6.1.2\lvgl\src\lv_draw\../lv_core/../lv_misc/lv_color.h **** 
 477:..\..\..\lvgl\version_6.1.2\lvgl\src\lv_draw\../lv_core/../lv_misc/lv_color.h **** static inline lv_color_t lv_color_make(uint8_t r, uint8_t g, uint8_t b)
 478:..\..\..\lvgl\version_6.1.2\lvgl\src\lv_draw\../lv_core/../lv_misc/lv_color.h **** {
  66              		.loc 2 478 0
  67              		.cfi_startproc
  68              		@ args = 0, pretend = 0, frame = 8
  69              		@ frame_needed = 1, uses_anonymous_args = 0
  70              		@ link register save eliminated.
  71 0000 90B4     		push	{r4, r7}
  72              		.cfi_def_cfa_offset 8
  73              		.cfi_offset 4, -8
  74              		.cfi_offset 7, -4
  75 0002 82B0     		sub	sp, sp, #8
  76              		.cfi_def_cfa_offset 16
  77 0004 00AF     		add	r7, sp, #0
  78              		.cfi_def_cfa_register 7
  79 0006 0446     		mov	r4, r0
ARM GAS  C:\Users\tmj32\AppData\Local\Temp\ccHxR1NV.s 			page 13


  80 0008 0846     		mov	r0, r1
  81 000a 1146     		mov	r1, r2
  82 000c 2246     		mov	r2, r4
  83 000e FA71     		strb	r2, [r7, #7]
  84 0010 0246     		mov	r2, r0
  85 0012 BA71     		strb	r2, [r7, #6]
  86 0014 0A46     		mov	r2, r1
  87 0016 7A71     		strb	r2, [r7, #5]
 479:..\..\..\lvgl\version_6.1.2\lvgl\src\lv_draw\../lv_core/../lv_misc/lv_color.h ****     return LV_COLOR_MAKE(r, g, b);
  88              		.loc 2 479 0
  89 0018 7A79     		ldrb	r2, [r7, #5]
  90 001a 62F30703 		bfi	r3, r2, #0, #8
  91 001e BA79     		ldrb	r2, [r7, #6]
  92 0020 62F30F23 		bfi	r3, r2, #8, #8
  93 0024 FA79     		ldrb	r2, [r7, #7]
  94 0026 62F31743 		bfi	r3, r2, #16, #8
  95 002a 43F07F43 		orr	r3, r3, #-16777216
 480:..\..\..\lvgl\version_6.1.2\lvgl\src\lv_draw\../lv_core/../lv_misc/lv_color.h **** }
  96              		.loc 2 480 0
  97 002e 1846     		mov	r0, r3
  98 0030 0837     		adds	r7, r7, #8
  99              		.cfi_def_cfa_offset 8
 100 0032 BD46     		mov	sp, r7
 101              		.cfi_def_cfa_register 13
 102              		@ sp needed
 103 0034 90BC     		pop	{r4, r7}
 104              		.cfi_restore 7
 105              		.cfi_restore 4
 106              		.cfi_def_cfa_offset 0
 107 0036 7047     		bx	lr
 108              		.cfi_endproc
 109              	.LFE7:
 110              		.size	lv_color_make, .-lv_color_make
 111              		.section	.text.lv_area_get_width,"ax",%progbits
 112              		.align	2
 113              		.thumb
 114              		.thumb_func
 115              		.type	lv_area_get_width, %function
 116              	lv_area_get_width:
 117              	.LFB11:
 118              		.file 3 "..\\..\\..\\lvgl\\version_6.1.2\\lvgl\\src\\lv_draw\\../lv_core/../lv_misc/lv_area.h"
   1:..\..\..\lvgl\version_6.1.2\lvgl\src\lv_draw\../lv_core/../lv_misc/lv_area.h **** /**
   2:..\..\..\lvgl\version_6.1.2\lvgl\src\lv_draw\../lv_core/../lv_misc/lv_area.h ****  * @file lv_area.h
   3:..\..\..\lvgl\version_6.1.2\lvgl\src\lv_draw\../lv_core/../lv_misc/lv_area.h ****  *
   4:..\..\..\lvgl\version_6.1.2\lvgl\src\lv_draw\../lv_core/../lv_misc/lv_area.h ****  */
   5:..\..\..\lvgl\version_6.1.2\lvgl\src\lv_draw\../lv_core/../lv_misc/lv_area.h **** 
   6:..\..\..\lvgl\version_6.1.2\lvgl\src\lv_draw\../lv_core/../lv_misc/lv_area.h **** #ifndef LV_AREA_H
   7:..\..\..\lvgl\version_6.1.2\lvgl\src\lv_draw\../lv_core/../lv_misc/lv_area.h **** #define LV_AREA_H
   8:..\..\..\lvgl\version_6.1.2\lvgl\src\lv_draw\../lv_core/../lv_misc/lv_area.h **** 
   9:..\..\..\lvgl\version_6.1.2\lvgl\src\lv_draw\../lv_core/../lv_misc/lv_area.h **** #ifdef __cplusplus
  10:..\..\..\lvgl\version_6.1.2\lvgl\src\lv_draw\../lv_core/../lv_misc/lv_area.h **** extern "C" {
  11:..\..\..\lvgl\version_6.1.2\lvgl\src\lv_draw\../lv_core/../lv_misc/lv_area.h **** #endif
  12:..\..\..\lvgl\version_6.1.2\lvgl\src\lv_draw\../lv_core/../lv_misc/lv_area.h **** 
  13:..\..\..\lvgl\version_6.1.2\lvgl\src\lv_draw\../lv_core/../lv_misc/lv_area.h **** /*********************
  14:..\..\..\lvgl\version_6.1.2\lvgl\src\lv_draw\../lv_core/../lv_misc/lv_area.h ****  *      INCLUDES
  15:..\..\..\lvgl\version_6.1.2\lvgl\src\lv_draw\../lv_core/../lv_misc/lv_area.h ****  *********************/
  16:..\..\..\lvgl\version_6.1.2\lvgl\src\lv_draw\../lv_core/../lv_misc/lv_area.h **** #include <string.h>
ARM GAS  C:\Users\tmj32\AppData\Local\Temp\ccHxR1NV.s 			page 14


  17:..\..\..\lvgl\version_6.1.2\lvgl\src\lv_draw\../lv_core/../lv_misc/lv_area.h **** #include <stdbool.h>
  18:..\..\..\lvgl\version_6.1.2\lvgl\src\lv_draw\../lv_core/../lv_misc/lv_area.h **** #include <stdint.h>
  19:..\..\..\lvgl\version_6.1.2\lvgl\src\lv_draw\../lv_core/../lv_misc/lv_area.h **** #ifdef LV_CONF_INCLUDE_SIMPLE
  20:..\..\..\lvgl\version_6.1.2\lvgl\src\lv_draw\../lv_core/../lv_misc/lv_area.h **** #include "lv_conf.h"
  21:..\..\..\lvgl\version_6.1.2\lvgl\src\lv_draw\../lv_core/../lv_misc/lv_area.h **** #else
  22:..\..\..\lvgl\version_6.1.2\lvgl\src\lv_draw\../lv_core/../lv_misc/lv_area.h **** #include "../../../lv_conf.h"
  23:..\..\..\lvgl\version_6.1.2\lvgl\src\lv_draw\../lv_core/../lv_misc/lv_area.h **** #endif
  24:..\..\..\lvgl\version_6.1.2\lvgl\src\lv_draw\../lv_core/../lv_misc/lv_area.h **** 
  25:..\..\..\lvgl\version_6.1.2\lvgl\src\lv_draw\../lv_core/../lv_misc/lv_area.h **** /*********************
  26:..\..\..\lvgl\version_6.1.2\lvgl\src\lv_draw\../lv_core/../lv_misc/lv_area.h ****  *      DEFINES
  27:..\..\..\lvgl\version_6.1.2\lvgl\src\lv_draw\../lv_core/../lv_misc/lv_area.h ****  *********************/
  28:..\..\..\lvgl\version_6.1.2\lvgl\src\lv_draw\../lv_core/../lv_misc/lv_area.h **** /*To avoid overflow don't let the max ranges (reduce with 1000) */
  29:..\..\..\lvgl\version_6.1.2\lvgl\src\lv_draw\../lv_core/../lv_misc/lv_area.h **** #define LV_COORD_MAX ((lv_coord_t)((uint32_t)((uint32_t)1 << (8 * sizeof(lv_coord_t) - 1)) - 1000))
  30:..\..\..\lvgl\version_6.1.2\lvgl\src\lv_draw\../lv_core/../lv_misc/lv_area.h **** #define LV_COORD_MIN (-LV_COORD_MAX)
  31:..\..\..\lvgl\version_6.1.2\lvgl\src\lv_draw\../lv_core/../lv_misc/lv_area.h **** 
  32:..\..\..\lvgl\version_6.1.2\lvgl\src\lv_draw\../lv_core/../lv_misc/lv_area.h **** LV_EXPORT_CONST_INT(LV_COORD_MAX);
  33:..\..\..\lvgl\version_6.1.2\lvgl\src\lv_draw\../lv_core/../lv_misc/lv_area.h **** LV_EXPORT_CONST_INT(LV_COORD_MIN);
  34:..\..\..\lvgl\version_6.1.2\lvgl\src\lv_draw\../lv_core/../lv_misc/lv_area.h **** 
  35:..\..\..\lvgl\version_6.1.2\lvgl\src\lv_draw\../lv_core/../lv_misc/lv_area.h **** /**********************
  36:..\..\..\lvgl\version_6.1.2\lvgl\src\lv_draw\../lv_core/../lv_misc/lv_area.h ****  *      TYPEDEFS
  37:..\..\..\lvgl\version_6.1.2\lvgl\src\lv_draw\../lv_core/../lv_misc/lv_area.h ****  **********************/
  38:..\..\..\lvgl\version_6.1.2\lvgl\src\lv_draw\../lv_core/../lv_misc/lv_area.h **** 
  39:..\..\..\lvgl\version_6.1.2\lvgl\src\lv_draw\../lv_core/../lv_misc/lv_area.h **** /**
  40:..\..\..\lvgl\version_6.1.2\lvgl\src\lv_draw\../lv_core/../lv_misc/lv_area.h ****  * Represents a point on the screen.
  41:..\..\..\lvgl\version_6.1.2\lvgl\src\lv_draw\../lv_core/../lv_misc/lv_area.h ****  */
  42:..\..\..\lvgl\version_6.1.2\lvgl\src\lv_draw\../lv_core/../lv_misc/lv_area.h **** typedef struct
  43:..\..\..\lvgl\version_6.1.2\lvgl\src\lv_draw\../lv_core/../lv_misc/lv_area.h **** {
  44:..\..\..\lvgl\version_6.1.2\lvgl\src\lv_draw\../lv_core/../lv_misc/lv_area.h ****     lv_coord_t x;
  45:..\..\..\lvgl\version_6.1.2\lvgl\src\lv_draw\../lv_core/../lv_misc/lv_area.h ****     lv_coord_t y;
  46:..\..\..\lvgl\version_6.1.2\lvgl\src\lv_draw\../lv_core/../lv_misc/lv_area.h **** } lv_point_t;
  47:..\..\..\lvgl\version_6.1.2\lvgl\src\lv_draw\../lv_core/../lv_misc/lv_area.h **** 
  48:..\..\..\lvgl\version_6.1.2\lvgl\src\lv_draw\../lv_core/../lv_misc/lv_area.h **** /** Represents an area of the screen. */
  49:..\..\..\lvgl\version_6.1.2\lvgl\src\lv_draw\../lv_core/../lv_misc/lv_area.h **** typedef struct
  50:..\..\..\lvgl\version_6.1.2\lvgl\src\lv_draw\../lv_core/../lv_misc/lv_area.h **** {
  51:..\..\..\lvgl\version_6.1.2\lvgl\src\lv_draw\../lv_core/../lv_misc/lv_area.h ****     lv_coord_t x1;
  52:..\..\..\lvgl\version_6.1.2\lvgl\src\lv_draw\../lv_core/../lv_misc/lv_area.h ****     lv_coord_t y1;
  53:..\..\..\lvgl\version_6.1.2\lvgl\src\lv_draw\../lv_core/../lv_misc/lv_area.h ****     lv_coord_t x2;
  54:..\..\..\lvgl\version_6.1.2\lvgl\src\lv_draw\../lv_core/../lv_misc/lv_area.h ****     lv_coord_t y2;
  55:..\..\..\lvgl\version_6.1.2\lvgl\src\lv_draw\../lv_core/../lv_misc/lv_area.h **** } lv_area_t;
  56:..\..\..\lvgl\version_6.1.2\lvgl\src\lv_draw\../lv_core/../lv_misc/lv_area.h **** 
  57:..\..\..\lvgl\version_6.1.2\lvgl\src\lv_draw\../lv_core/../lv_misc/lv_area.h **** /**********************
  58:..\..\..\lvgl\version_6.1.2\lvgl\src\lv_draw\../lv_core/../lv_misc/lv_area.h ****  * GLOBAL PROTOTYPES
  59:..\..\..\lvgl\version_6.1.2\lvgl\src\lv_draw\../lv_core/../lv_misc/lv_area.h ****  **********************/
  60:..\..\..\lvgl\version_6.1.2\lvgl\src\lv_draw\../lv_core/../lv_misc/lv_area.h **** 
  61:..\..\..\lvgl\version_6.1.2\lvgl\src\lv_draw\../lv_core/../lv_misc/lv_area.h **** /**
  62:..\..\..\lvgl\version_6.1.2\lvgl\src\lv_draw\../lv_core/../lv_misc/lv_area.h ****  * Initialize an area
  63:..\..\..\lvgl\version_6.1.2\lvgl\src\lv_draw\../lv_core/../lv_misc/lv_area.h ****  * @param area_p pointer to an area
  64:..\..\..\lvgl\version_6.1.2\lvgl\src\lv_draw\../lv_core/../lv_misc/lv_area.h ****  * @param x1 left coordinate of the area
  65:..\..\..\lvgl\version_6.1.2\lvgl\src\lv_draw\../lv_core/../lv_misc/lv_area.h ****  * @param y1 top coordinate of the area
  66:..\..\..\lvgl\version_6.1.2\lvgl\src\lv_draw\../lv_core/../lv_misc/lv_area.h ****  * @param x2 right coordinate of the area
  67:..\..\..\lvgl\version_6.1.2\lvgl\src\lv_draw\../lv_core/../lv_misc/lv_area.h ****  * @param y2 bottom coordinate of the area
  68:..\..\..\lvgl\version_6.1.2\lvgl\src\lv_draw\../lv_core/../lv_misc/lv_area.h ****  */
  69:..\..\..\lvgl\version_6.1.2\lvgl\src\lv_draw\../lv_core/../lv_misc/lv_area.h **** void lv_area_set(lv_area_t * area_p, lv_coord_t x1, lv_coord_t y1, lv_coord_t x2, lv_coord_t y2);
  70:..\..\..\lvgl\version_6.1.2\lvgl\src\lv_draw\../lv_core/../lv_misc/lv_area.h **** 
  71:..\..\..\lvgl\version_6.1.2\lvgl\src\lv_draw\../lv_core/../lv_misc/lv_area.h **** /**
  72:..\..\..\lvgl\version_6.1.2\lvgl\src\lv_draw\../lv_core/../lv_misc/lv_area.h ****  * Copy an area
  73:..\..\..\lvgl\version_6.1.2\lvgl\src\lv_draw\../lv_core/../lv_misc/lv_area.h ****  * @param dest pointer to the destination area
ARM GAS  C:\Users\tmj32\AppData\Local\Temp\ccHxR1NV.s 			page 15


  74:..\..\..\lvgl\version_6.1.2\lvgl\src\lv_draw\../lv_core/../lv_misc/lv_area.h ****  * @param src pointer to the source area
  75:..\..\..\lvgl\version_6.1.2\lvgl\src\lv_draw\../lv_core/../lv_misc/lv_area.h ****  */
  76:..\..\..\lvgl\version_6.1.2\lvgl\src\lv_draw\../lv_core/../lv_misc/lv_area.h **** inline static void lv_area_copy(lv_area_t * dest, const lv_area_t * src)
  77:..\..\..\lvgl\version_6.1.2\lvgl\src\lv_draw\../lv_core/../lv_misc/lv_area.h **** {
  78:..\..\..\lvgl\version_6.1.2\lvgl\src\lv_draw\../lv_core/../lv_misc/lv_area.h ****     memcpy(dest, src, sizeof(lv_area_t));
  79:..\..\..\lvgl\version_6.1.2\lvgl\src\lv_draw\../lv_core/../lv_misc/lv_area.h **** }
  80:..\..\..\lvgl\version_6.1.2\lvgl\src\lv_draw\../lv_core/../lv_misc/lv_area.h **** 
  81:..\..\..\lvgl\version_6.1.2\lvgl\src\lv_draw\../lv_core/../lv_misc/lv_area.h **** /**
  82:..\..\..\lvgl\version_6.1.2\lvgl\src\lv_draw\../lv_core/../lv_misc/lv_area.h ****  * Get the width of an area
  83:..\..\..\lvgl\version_6.1.2\lvgl\src\lv_draw\../lv_core/../lv_misc/lv_area.h ****  * @param area_p pointer to an area
  84:..\..\..\lvgl\version_6.1.2\lvgl\src\lv_draw\../lv_core/../lv_misc/lv_area.h ****  * @return the width of the area (if x1 == x2 -> width = 1)
  85:..\..\..\lvgl\version_6.1.2\lvgl\src\lv_draw\../lv_core/../lv_misc/lv_area.h ****  */
  86:..\..\..\lvgl\version_6.1.2\lvgl\src\lv_draw\../lv_core/../lv_misc/lv_area.h **** static inline lv_coord_t lv_area_get_width(const lv_area_t * area_p)
  87:..\..\..\lvgl\version_6.1.2\lvgl\src\lv_draw\../lv_core/../lv_misc/lv_area.h **** {
 119              		.loc 3 87 0
 120              		.cfi_startproc
 121              		@ args = 0, pretend = 0, frame = 8
 122              		@ frame_needed = 1, uses_anonymous_args = 0
 123              		@ link register save eliminated.
 124 0000 80B4     		push	{r7}
 125              		.cfi_def_cfa_offset 4
 126              		.cfi_offset 7, -4
 127 0002 83B0     		sub	sp, sp, #12
 128              		.cfi_def_cfa_offset 16
 129 0004 00AF     		add	r7, sp, #0
 130              		.cfi_def_cfa_register 7
 131 0006 7860     		str	r0, [r7, #4]
  88:..\..\..\lvgl\version_6.1.2\lvgl\src\lv_draw\../lv_core/../lv_misc/lv_area.h ****     return (lv_coord_t)(area_p->x2 - area_p->x1 + 1);
 132              		.loc 3 88 0
 133 0008 7B68     		ldr	r3, [r7, #4]
 134 000a B3F90430 		ldrsh	r3, [r3, #4]
 135 000e 9AB2     		uxth	r2, r3
 136 0010 7B68     		ldr	r3, [r7, #4]
 137 0012 B3F90030 		ldrsh	r3, [r3]
 138 0016 9BB2     		uxth	r3, r3
 139 0018 D31A     		subs	r3, r2, r3
 140 001a 9BB2     		uxth	r3, r3
 141 001c 0133     		adds	r3, r3, #1
 142 001e 9BB2     		uxth	r3, r3
 143 0020 1BB2     		sxth	r3, r3
  89:..\..\..\lvgl\version_6.1.2\lvgl\src\lv_draw\../lv_core/../lv_misc/lv_area.h **** }
 144              		.loc 3 89 0
 145 0022 1846     		mov	r0, r3
 146 0024 0C37     		adds	r7, r7, #12
 147              		.cfi_def_cfa_offset 4
 148 0026 BD46     		mov	sp, r7
 149              		.cfi_def_cfa_register 13
 150              		@ sp needed
 151 0028 5DF8047B 		ldr	r7, [sp], #4
 152              		.cfi_restore 7
 153              		.cfi_def_cfa_offset 0
 154 002c 7047     		bx	lr
 155              		.cfi_endproc
 156              	.LFE11:
 157              		.size	lv_area_get_width, .-lv_area_get_width
 158 002e 00BF     		.section	.text.lv_draw_label,"ax",%progbits
 159              		.align	2
ARM GAS  C:\Users\tmj32\AppData\Local\Temp\ccHxR1NV.s 			page 16


 160              		.global	lv_draw_label
 161              		.thumb
 162              		.thumb_func
 163              		.type	lv_draw_label, %function
 164              	lv_draw_label:
 165              	.LFB31:
 166              		.file 4 "..\\..\\..\\lvgl\\version_6.1.2\\lvgl\\src\\lv_draw\\lv_draw_label.c"
   1:..\..\..\lvgl\version_6.1.2\lvgl\src\lv_draw/lv_draw_label.c **** /**
   2:..\..\..\lvgl\version_6.1.2\lvgl\src\lv_draw/lv_draw_label.c ****  * @file lv_draw_label.c
   3:..\..\..\lvgl\version_6.1.2\lvgl\src\lv_draw/lv_draw_label.c ****  *
   4:..\..\..\lvgl\version_6.1.2\lvgl\src\lv_draw/lv_draw_label.c ****  */
   5:..\..\..\lvgl\version_6.1.2\lvgl\src\lv_draw/lv_draw_label.c **** 
   6:..\..\..\lvgl\version_6.1.2\lvgl\src\lv_draw/lv_draw_label.c **** /*********************
   7:..\..\..\lvgl\version_6.1.2\lvgl\src\lv_draw/lv_draw_label.c ****  *      INCLUDES
   8:..\..\..\lvgl\version_6.1.2\lvgl\src\lv_draw/lv_draw_label.c ****  *********************/
   9:..\..\..\lvgl\version_6.1.2\lvgl\src\lv_draw/lv_draw_label.c **** #include "lv_draw_label.h"
  10:..\..\..\lvgl\version_6.1.2\lvgl\src\lv_draw/lv_draw_label.c **** #include "../lv_misc/lv_math.h"
  11:..\..\..\lvgl\version_6.1.2\lvgl\src\lv_draw/lv_draw_label.c **** #include "../lv_misc/lv_bidi.h"
  12:..\..\..\lvgl\version_6.1.2\lvgl\src\lv_draw/lv_draw_label.c **** 
  13:..\..\..\lvgl\version_6.1.2\lvgl\src\lv_draw/lv_draw_label.c **** /*********************
  14:..\..\..\lvgl\version_6.1.2\lvgl\src\lv_draw/lv_draw_label.c ****  *      DEFINES
  15:..\..\..\lvgl\version_6.1.2\lvgl\src\lv_draw/lv_draw_label.c ****  *********************/
  16:..\..\..\lvgl\version_6.1.2\lvgl\src\lv_draw/lv_draw_label.c **** #define LABEL_RECOLOR_PAR_LENGTH 6
  17:..\..\..\lvgl\version_6.1.2\lvgl\src\lv_draw/lv_draw_label.c **** #define LV_LABEL_HINT_UPDATE_TH 1024 /*Update the "hint" if the label's y coordinates have changed 
  18:..\..\..\lvgl\version_6.1.2\lvgl\src\lv_draw/lv_draw_label.c **** 
  19:..\..\..\lvgl\version_6.1.2\lvgl\src\lv_draw/lv_draw_label.c **** /**********************
  20:..\..\..\lvgl\version_6.1.2\lvgl\src\lv_draw/lv_draw_label.c ****  *      TYPEDEFS
  21:..\..\..\lvgl\version_6.1.2\lvgl\src\lv_draw/lv_draw_label.c ****  **********************/
  22:..\..\..\lvgl\version_6.1.2\lvgl\src\lv_draw/lv_draw_label.c **** enum {
  23:..\..\..\lvgl\version_6.1.2\lvgl\src\lv_draw/lv_draw_label.c ****     CMD_STATE_WAIT,
  24:..\..\..\lvgl\version_6.1.2\lvgl\src\lv_draw/lv_draw_label.c ****     CMD_STATE_PAR,
  25:..\..\..\lvgl\version_6.1.2\lvgl\src\lv_draw/lv_draw_label.c ****     CMD_STATE_IN,
  26:..\..\..\lvgl\version_6.1.2\lvgl\src\lv_draw/lv_draw_label.c **** };
  27:..\..\..\lvgl\version_6.1.2\lvgl\src\lv_draw/lv_draw_label.c **** typedef uint8_t cmd_state_t;
  28:..\..\..\lvgl\version_6.1.2\lvgl\src\lv_draw/lv_draw_label.c **** 
  29:..\..\..\lvgl\version_6.1.2\lvgl\src\lv_draw/lv_draw_label.c **** /**********************
  30:..\..\..\lvgl\version_6.1.2\lvgl\src\lv_draw/lv_draw_label.c ****  *  STATIC PROTOTYPES
  31:..\..\..\lvgl\version_6.1.2\lvgl\src\lv_draw/lv_draw_label.c ****  **********************/
  32:..\..\..\lvgl\version_6.1.2\lvgl\src\lv_draw/lv_draw_label.c **** static uint8_t hex_char_to_num(char hex);
  33:..\..\..\lvgl\version_6.1.2\lvgl\src\lv_draw/lv_draw_label.c **** 
  34:..\..\..\lvgl\version_6.1.2\lvgl\src\lv_draw/lv_draw_label.c **** /**********************
  35:..\..\..\lvgl\version_6.1.2\lvgl\src\lv_draw/lv_draw_label.c ****  *  STATIC VARIABLES
  36:..\..\..\lvgl\version_6.1.2\lvgl\src\lv_draw/lv_draw_label.c ****  **********************/
  37:..\..\..\lvgl\version_6.1.2\lvgl\src\lv_draw/lv_draw_label.c **** 
  38:..\..\..\lvgl\version_6.1.2\lvgl\src\lv_draw/lv_draw_label.c **** /**********************
  39:..\..\..\lvgl\version_6.1.2\lvgl\src\lv_draw/lv_draw_label.c ****  *      MACROS
  40:..\..\..\lvgl\version_6.1.2\lvgl\src\lv_draw/lv_draw_label.c ****  **********************/
  41:..\..\..\lvgl\version_6.1.2\lvgl\src\lv_draw/lv_draw_label.c **** 
  42:..\..\..\lvgl\version_6.1.2\lvgl\src\lv_draw/lv_draw_label.c **** /**********************
  43:..\..\..\lvgl\version_6.1.2\lvgl\src\lv_draw/lv_draw_label.c ****  *   GLOBAL FUNCTIONS
  44:..\..\..\lvgl\version_6.1.2\lvgl\src\lv_draw/lv_draw_label.c ****  **********************/
  45:..\..\..\lvgl\version_6.1.2\lvgl\src\lv_draw/lv_draw_label.c **** 
  46:..\..\..\lvgl\version_6.1.2\lvgl\src\lv_draw/lv_draw_label.c **** /**
  47:..\..\..\lvgl\version_6.1.2\lvgl\src\lv_draw/lv_draw_label.c ****  * Write a text
  48:..\..\..\lvgl\version_6.1.2\lvgl\src\lv_draw/lv_draw_label.c ****  * @param coords coordinates of the label
  49:..\..\..\lvgl\version_6.1.2\lvgl\src\lv_draw/lv_draw_label.c ****  * @param mask the label will be drawn only in this area
  50:..\..\..\lvgl\version_6.1.2\lvgl\src\lv_draw/lv_draw_label.c ****  * @param style pointer to a style
ARM GAS  C:\Users\tmj32\AppData\Local\Temp\ccHxR1NV.s 			page 17


  51:..\..\..\lvgl\version_6.1.2\lvgl\src\lv_draw/lv_draw_label.c ****  * @param opa_scale scale down all opacities by the factor
  52:..\..\..\lvgl\version_6.1.2\lvgl\src\lv_draw/lv_draw_label.c ****  * @param txt 0 terminated text to write
  53:..\..\..\lvgl\version_6.1.2\lvgl\src\lv_draw/lv_draw_label.c ****  * @param flag settings for the text from 'txt_flag_t' enum
  54:..\..\..\lvgl\version_6.1.2\lvgl\src\lv_draw/lv_draw_label.c ****  * @param offset text offset in x and y direction (NULL if unused)
  55:..\..\..\lvgl\version_6.1.2\lvgl\src\lv_draw/lv_draw_label.c ****  * @param sel make the text selected in the range by drawing a background there
  56:..\..\..\lvgl\version_6.1.2\lvgl\src\lv_draw/lv_draw_label.c ****  */
  57:..\..\..\lvgl\version_6.1.2\lvgl\src\lv_draw/lv_draw_label.c **** void lv_draw_label(const lv_area_t * coords, const lv_area_t * mask, const lv_style_t * style, lv_o
  58:..\..\..\lvgl\version_6.1.2\lvgl\src\lv_draw/lv_draw_label.c ****                    const char * txt, lv_txt_flag_t flag, lv_point_t * offset, lv_draw_label_txt_sel
  59:..\..\..\lvgl\version_6.1.2\lvgl\src\lv_draw/lv_draw_label.c ****                    lv_draw_label_hint_t * hint, lv_bidi_dir_t bidi_dir)
  60:..\..\..\lvgl\version_6.1.2\lvgl\src\lv_draw/lv_draw_label.c **** {
 167              		.loc 4 60 0
 168              		.cfi_startproc
 169              		@ args = 24, pretend = 0, frame = 208
 170              		@ frame_needed = 1, uses_anonymous_args = 0
 171 0000 90B5     		push	{r4, r7, lr}
 172              		.cfi_def_cfa_offset 12
 173              		.cfi_offset 4, -12
 174              		.cfi_offset 7, -8
 175              		.cfi_offset 14, -4
 176 0002 B9B0     		sub	sp, sp, #228
 177              		.cfi_def_cfa_offset 240
 178 0004 04AF     		add	r7, sp, #16
 179              		.cfi_def_cfa 7, 224
 180 0006 F860     		str	r0, [r7, #12]
 181 0008 B960     		str	r1, [r7, #8]
 182 000a 7A60     		str	r2, [r7, #4]
 183 000c FB70     		strb	r3, [r7, #3]
  61:..\..\..\lvgl\version_6.1.2\lvgl\src\lv_draw/lv_draw_label.c ****     const lv_font_t * font = style->text.font;
 184              		.loc 4 61 0
 185 000e 7B68     		ldr	r3, [r7, #4]
 186 0010 5B6B     		ldr	r3, [r3, #52]
 187 0012 C7F8AC30 		str	r3, [r7, #172]
  62:..\..\..\lvgl\version_6.1.2\lvgl\src\lv_draw/lv_draw_label.c ****     lv_coord_t w;
  63:..\..\..\lvgl\version_6.1.2\lvgl\src\lv_draw/lv_draw_label.c **** 
  64:..\..\..\lvgl\version_6.1.2\lvgl\src\lv_draw/lv_draw_label.c ****     /*No need to waste processor time if string is empty*/
  65:..\..\..\lvgl\version_6.1.2\lvgl\src\lv_draw/lv_draw_label.c ****     if (txt[0] == '\0')  return;
 188              		.loc 4 65 0
 189 0016 D7F8E030 		ldr	r3, [r7, #224]
 190 001a 1B78     		ldrb	r3, [r3]	@ zero_extendqisi2
 191 001c 002B     		cmp	r3, #0
 192 001e 00F0E283 		beq	.L44
  66:..\..\..\lvgl\version_6.1.2\lvgl\src\lv_draw/lv_draw_label.c **** 
  67:..\..\..\lvgl\version_6.1.2\lvgl\src\lv_draw/lv_draw_label.c ****     if((flag & LV_TXT_FLAG_EXPAND) == 0) {
 193              		.loc 4 67 0
 194 0022 97F8E430 		ldrb	r3, [r7, #228]	@ zero_extendqisi2
 195 0026 03F00203 		and	r3, r3, #2
 196 002a 002B     		cmp	r3, #0
 197 002c 06D1     		bne	.L10
  68:..\..\..\lvgl\version_6.1.2\lvgl\src\lv_draw/lv_draw_label.c ****         /*Normally use the label's width as width*/
  69:..\..\..\lvgl\version_6.1.2\lvgl\src\lv_draw/lv_draw_label.c ****         w = lv_area_get_width(coords);
 198              		.loc 4 69 0
 199 002e F868     		ldr	r0, [r7, #12]
 200 0030 FFF7FEFF 		bl	lv_area_get_width
 201 0034 0346     		mov	r3, r0
 202 0036 A7F8CE30 		strh	r3, [r7, #206]	@ movhi
 203 003a 19E0     		b	.L11
 204              	.L10:
ARM GAS  C:\Users\tmj32\AppData\Local\Temp\ccHxR1NV.s 			page 18


 205              	.LBB2:
  70:..\..\..\lvgl\version_6.1.2\lvgl\src\lv_draw/lv_draw_label.c ****     } else {
  71:..\..\..\lvgl\version_6.1.2\lvgl\src\lv_draw/lv_draw_label.c ****         /*If EXAPND is enabled then not limit the text's width to the object's width*/
  72:..\..\..\lvgl\version_6.1.2\lvgl\src\lv_draw/lv_draw_label.c ****         lv_point_t p;
  73:..\..\..\lvgl\version_6.1.2\lvgl\src\lv_draw/lv_draw_label.c ****         lv_txt_get_size(&p, txt, style->text.font, style->text.letter_space, style->text.line_space
 206              		.loc 4 73 0
 207 003c 7B68     		ldr	r3, [r7, #4]
 208 003e 596B     		ldr	r1, [r3, #52]
 209 0040 7B68     		ldr	r3, [r7, #4]
 210 0042 B3F93840 		ldrsh	r4, [r3, #56]
 211 0046 7B68     		ldr	r3, [r7, #4]
 212 0048 B3F93A30 		ldrsh	r3, [r3, #58]
 213 004c 07F12800 		add	r0, r7, #40
 214 0050 97F8E420 		ldrb	r2, [r7, #228]	@ zero_extendqisi2
 215 0054 0292     		str	r2, [sp, #8]
 216 0056 47F61842 		movw	r2, #31768
 217 005a 0192     		str	r2, [sp, #4]
 218 005c 0093     		str	r3, [sp]
 219 005e 2346     		mov	r3, r4
 220 0060 0A46     		mov	r2, r1
 221 0062 D7F8E010 		ldr	r1, [r7, #224]
 222 0066 FFF7FEFF 		bl	lv_txt_get_size
  74:..\..\..\lvgl\version_6.1.2\lvgl\src\lv_draw/lv_draw_label.c ****                 flag);
  75:..\..\..\lvgl\version_6.1.2\lvgl\src\lv_draw/lv_draw_label.c ****         w = p.x;
 223              		.loc 4 75 0
 224 006a 3B8D     		ldrh	r3, [r7, #40]	@ movhi
 225 006c A7F8CE30 		strh	r3, [r7, #206]	@ movhi
 226              	.L11:
 227              	.LBE2:
  76:..\..\..\lvgl\version_6.1.2\lvgl\src\lv_draw/lv_draw_label.c ****     }
  77:..\..\..\lvgl\version_6.1.2\lvgl\src\lv_draw/lv_draw_label.c **** 
  78:..\..\..\lvgl\version_6.1.2\lvgl\src\lv_draw/lv_draw_label.c ****     lv_coord_t line_height = lv_font_get_line_height(font) + style->text.line_space;
 228              		.loc 4 78 0
 229 0070 D7F8AC00 		ldr	r0, [r7, #172]
 230 0074 FFF7FEFF 		bl	lv_font_get_line_height
 231 0078 0346     		mov	r3, r0
 232 007a 9AB2     		uxth	r2, r3
 233 007c 7B68     		ldr	r3, [r7, #4]
 234 007e B3F93A30 		ldrsh	r3, [r3, #58]
 235 0082 9BB2     		uxth	r3, r3
 236 0084 1344     		add	r3, r3, r2
 237 0086 9BB2     		uxth	r3, r3
 238 0088 A7F8AA30 		strh	r3, [r7, #170]	@ movhi
  79:..\..\..\lvgl\version_6.1.2\lvgl\src\lv_draw/lv_draw_label.c **** 
  80:..\..\..\lvgl\version_6.1.2\lvgl\src\lv_draw/lv_draw_label.c ****     /*Init variables for the first line*/
  81:..\..\..\lvgl\version_6.1.2\lvgl\src\lv_draw/lv_draw_label.c ****     lv_coord_t line_width = 0;
 239              		.loc 4 81 0
 240 008c 0023     		movs	r3, #0
 241 008e A7F8A830 		strh	r3, [r7, #168]	@ movhi
  82:..\..\..\lvgl\version_6.1.2\lvgl\src\lv_draw/lv_draw_label.c ****     lv_point_t pos;
  83:..\..\..\lvgl\version_6.1.2\lvgl\src\lv_draw/lv_draw_label.c ****     pos.x = coords->x1;
 242              		.loc 4 83 0
 243 0092 FB68     		ldr	r3, [r7, #12]
 244 0094 B3F90030 		ldrsh	r3, [r3]
 245 0098 A7F88430 		strh	r3, [r7, #132]	@ movhi
  84:..\..\..\lvgl\version_6.1.2\lvgl\src\lv_draw/lv_draw_label.c ****     pos.y = coords->y1;
 246              		.loc 4 84 0
ARM GAS  C:\Users\tmj32\AppData\Local\Temp\ccHxR1NV.s 			page 19


 247 009c FB68     		ldr	r3, [r7, #12]
 248 009e B3F90230 		ldrsh	r3, [r3, #2]
 249 00a2 A7F88630 		strh	r3, [r7, #134]	@ movhi
  85:..\..\..\lvgl\version_6.1.2\lvgl\src\lv_draw/lv_draw_label.c **** 
  86:..\..\..\lvgl\version_6.1.2\lvgl\src\lv_draw/lv_draw_label.c ****     lv_coord_t x_ofs = 0;
 250              		.loc 4 86 0
 251 00a6 0023     		movs	r3, #0
 252 00a8 A7F8CC30 		strh	r3, [r7, #204]	@ movhi
  87:..\..\..\lvgl\version_6.1.2\lvgl\src\lv_draw/lv_draw_label.c ****     lv_coord_t y_ofs = 0;
 253              		.loc 4 87 0
 254 00ac 0023     		movs	r3, #0
 255 00ae A7F8CA30 		strh	r3, [r7, #202]	@ movhi
  88:..\..\..\lvgl\version_6.1.2\lvgl\src\lv_draw/lv_draw_label.c ****     if(offset != NULL) {
 256              		.loc 4 88 0
 257 00b2 D7F8E830 		ldr	r3, [r7, #232]
 258 00b6 002B     		cmp	r3, #0
 259 00b8 13D0     		beq	.L12
  89:..\..\..\lvgl\version_6.1.2\lvgl\src\lv_draw/lv_draw_label.c ****         x_ofs = offset->x;
 260              		.loc 4 89 0
 261 00ba D7F8E830 		ldr	r3, [r7, #232]
 262 00be 1B88     		ldrh	r3, [r3]	@ movhi
 263 00c0 A7F8CC30 		strh	r3, [r7, #204]	@ movhi
  90:..\..\..\lvgl\version_6.1.2\lvgl\src\lv_draw/lv_draw_label.c ****         y_ofs = offset->y;
 264              		.loc 4 90 0
 265 00c4 D7F8E830 		ldr	r3, [r7, #232]
 266 00c8 5B88     		ldrh	r3, [r3, #2]	@ movhi
 267 00ca A7F8CA30 		strh	r3, [r7, #202]	@ movhi
  91:..\..\..\lvgl\version_6.1.2\lvgl\src\lv_draw/lv_draw_label.c ****         pos.y += y_ofs;
 268              		.loc 4 91 0
 269 00ce B7F98630 		ldrsh	r3, [r7, #134]
 270 00d2 9AB2     		uxth	r2, r3
 271 00d4 B7F8CA30 		ldrh	r3, [r7, #202]
 272 00d8 1344     		add	r3, r3, r2
 273 00da 9BB2     		uxth	r3, r3
 274 00dc 1BB2     		sxth	r3, r3
 275 00de A7F88630 		strh	r3, [r7, #134]	@ movhi
 276              	.L12:
  92:..\..\..\lvgl\version_6.1.2\lvgl\src\lv_draw/lv_draw_label.c ****     }
  93:..\..\..\lvgl\version_6.1.2\lvgl\src\lv_draw/lv_draw_label.c **** 
  94:..\..\..\lvgl\version_6.1.2\lvgl\src\lv_draw/lv_draw_label.c ****     uint32_t line_start     = 0;
 277              		.loc 4 94 0
 278 00e2 0023     		movs	r3, #0
 279 00e4 C7F8C430 		str	r3, [r7, #196]
  95:..\..\..\lvgl\version_6.1.2\lvgl\src\lv_draw/lv_draw_label.c ****     int32_t last_line_start = -1;
 280              		.loc 4 95 0
 281 00e8 4FF0FF33 		mov	r3, #-1
 282 00ec C7F8C030 		str	r3, [r7, #192]
  96:..\..\..\lvgl\version_6.1.2\lvgl\src\lv_draw/lv_draw_label.c **** 
  97:..\..\..\lvgl\version_6.1.2\lvgl\src\lv_draw/lv_draw_label.c ****     /*Check the hint to use the cached info*/
  98:..\..\..\lvgl\version_6.1.2\lvgl\src\lv_draw/lv_draw_label.c ****     if(hint && y_ofs == 0 && coords->y1 < 0) {
 283              		.loc 4 98 0
 284 00f0 D7F8F030 		ldr	r3, [r7, #240]
 285 00f4 002B     		cmp	r3, #0
 286 00f6 24D0     		beq	.L13
 287              		.loc 4 98 0 is_stmt 0 discriminator 1
 288 00f8 B7F9CA30 		ldrsh	r3, [r7, #202]
 289 00fc 002B     		cmp	r3, #0
ARM GAS  C:\Users\tmj32\AppData\Local\Temp\ccHxR1NV.s 			page 20


 290 00fe 20D1     		bne	.L13
 291              		.loc 4 98 0 discriminator 2
 292 0100 FB68     		ldr	r3, [r7, #12]
 293 0102 B3F90230 		ldrsh	r3, [r3, #2]
 294 0106 002B     		cmp	r3, #0
 295 0108 1BDA     		bge	.L13
  99:..\..\..\lvgl\version_6.1.2\lvgl\src\lv_draw/lv_draw_label.c ****         /*If the label changed too much recalculate the hint.*/
 100:..\..\..\lvgl\version_6.1.2\lvgl\src\lv_draw/lv_draw_label.c ****         if(LV_MATH_ABS(hint->coord_y - coords->y1) > LV_LABEL_HINT_UPDATE_TH - 2 * line_height) {
 296              		.loc 4 100 0 is_stmt 1
 297 010a D7F8F030 		ldr	r3, [r7, #240]
 298 010e 9B68     		ldr	r3, [r3, #8]
 299 0110 FA68     		ldr	r2, [r7, #12]
 300 0112 B2F90220 		ldrsh	r2, [r2, #2]
 301 0116 9B1A     		subs	r3, r3, r2
 302 0118 83EAE372 		eor	r2, r3, r3, asr #31
 303 011c A2EBE372 		sub	r2, r2, r3, asr #31
 304 0120 B7F9AA30 		ldrsh	r3, [r7, #170]
 305 0124 C3F50073 		rsb	r3, r3, #512
 306 0128 5B00     		lsls	r3, r3, #1
 307 012a 9A42     		cmp	r2, r3
 308 012c 04DD     		ble	.L14
 101:..\..\..\lvgl\version_6.1.2\lvgl\src\lv_draw/lv_draw_label.c ****             hint->line_start = -1;
 309              		.loc 4 101 0
 310 012e D7F8F030 		ldr	r3, [r7, #240]
 311 0132 4FF0FF32 		mov	r2, #-1
 312 0136 1A60     		str	r2, [r3]
 313              	.L14:
 102:..\..\..\lvgl\version_6.1.2\lvgl\src\lv_draw/lv_draw_label.c ****         }
 103:..\..\..\lvgl\version_6.1.2\lvgl\src\lv_draw/lv_draw_label.c ****         last_line_start = hint->line_start;
 314              		.loc 4 103 0
 315 0138 D7F8F030 		ldr	r3, [r7, #240]
 316 013c 1B68     		ldr	r3, [r3]
 317 013e C7F8C030 		str	r3, [r7, #192]
 318              	.L13:
 104:..\..\..\lvgl\version_6.1.2\lvgl\src\lv_draw/lv_draw_label.c ****     }
 105:..\..\..\lvgl\version_6.1.2\lvgl\src\lv_draw/lv_draw_label.c **** 
 106:..\..\..\lvgl\version_6.1.2\lvgl\src\lv_draw/lv_draw_label.c ****     /*Use the hint if it's valid*/
 107:..\..\..\lvgl\version_6.1.2\lvgl\src\lv_draw/lv_draw_label.c ****     if(hint && last_line_start >= 0) {
 319              		.loc 4 107 0
 320 0142 D7F8F030 		ldr	r3, [r7, #240]
 321 0146 002B     		cmp	r3, #0
 322 0148 13D0     		beq	.L15
 323              		.loc 4 107 0 is_stmt 0 discriminator 1
 324 014a D7F8C030 		ldr	r3, [r7, #192]
 325 014e 002B     		cmp	r3, #0
 326 0150 0FDB     		blt	.L15
 108:..\..\..\lvgl\version_6.1.2\lvgl\src\lv_draw/lv_draw_label.c ****         line_start = last_line_start;
 327              		.loc 4 108 0 is_stmt 1
 328 0152 D7F8C030 		ldr	r3, [r7, #192]
 329 0156 C7F8C430 		str	r3, [r7, #196]
 109:..\..\..\lvgl\version_6.1.2\lvgl\src\lv_draw/lv_draw_label.c ****         pos.y += hint->y;
 330              		.loc 4 109 0
 331 015a B7F98630 		ldrsh	r3, [r7, #134]
 332 015e 9AB2     		uxth	r2, r3
 333 0160 D7F8F030 		ldr	r3, [r7, #240]
 334 0164 5B68     		ldr	r3, [r3, #4]
 335 0166 9BB2     		uxth	r3, r3
ARM GAS  C:\Users\tmj32\AppData\Local\Temp\ccHxR1NV.s 			page 21


 336 0168 1344     		add	r3, r3, r2
 337 016a 9BB2     		uxth	r3, r3
 338 016c 1BB2     		sxth	r3, r3
 339 016e A7F88630 		strh	r3, [r7, #134]	@ movhi
 340              	.L15:
 110:..\..\..\lvgl\version_6.1.2\lvgl\src\lv_draw/lv_draw_label.c ****     }
 111:..\..\..\lvgl\version_6.1.2\lvgl\src\lv_draw/lv_draw_label.c **** 
 112:..\..\..\lvgl\version_6.1.2\lvgl\src\lv_draw/lv_draw_label.c **** 
 113:..\..\..\lvgl\version_6.1.2\lvgl\src\lv_draw/lv_draw_label.c ****     uint32_t line_end = line_start + lv_txt_get_next_line(&txt[line_start], font, style->text.lette
 341              		.loc 4 113 0
 342 0172 D7F8E020 		ldr	r2, [r7, #224]
 343 0176 D7F8C430 		ldr	r3, [r7, #196]
 344 017a D018     		adds	r0, r2, r3
 345 017c 7B68     		ldr	r3, [r7, #4]
 346 017e B3F93820 		ldrsh	r2, [r3, #56]
 347 0182 B7F9CE10 		ldrsh	r1, [r7, #206]
 348 0186 97F8E430 		ldrb	r3, [r7, #228]	@ zero_extendqisi2
 349 018a 0093     		str	r3, [sp]
 350 018c 0B46     		mov	r3, r1
 351 018e D7F8AC10 		ldr	r1, [r7, #172]
 352 0192 FFF7FEFF 		bl	lv_txt_get_next_line
 353 0196 0346     		mov	r3, r0
 354 0198 1A46     		mov	r2, r3
 355 019a D7F8C430 		ldr	r3, [r7, #196]
 356 019e 1344     		add	r3, r3, r2
 357 01a0 C7F8BC30 		str	r3, [r7, #188]
 114:..\..\..\lvgl\version_6.1.2\lvgl\src\lv_draw/lv_draw_label.c **** 
 115:..\..\..\lvgl\version_6.1.2\lvgl\src\lv_draw/lv_draw_label.c ****     /*Go the first visible line*/
 116:..\..\..\lvgl\version_6.1.2\lvgl\src\lv_draw/lv_draw_label.c ****     while(pos.y + line_height < mask->y1) {
 358              		.loc 4 116 0
 359 01a4 53E0     		b	.L16
 360              	.L18:
 117:..\..\..\lvgl\version_6.1.2\lvgl\src\lv_draw/lv_draw_label.c ****         /*Go to next line*/
 118:..\..\..\lvgl\version_6.1.2\lvgl\src\lv_draw/lv_draw_label.c ****         line_start = line_end;
 361              		.loc 4 118 0
 362 01a6 D7F8BC30 		ldr	r3, [r7, #188]
 363 01aa C7F8C430 		str	r3, [r7, #196]
 119:..\..\..\lvgl\version_6.1.2\lvgl\src\lv_draw/lv_draw_label.c ****         line_end += lv_txt_get_next_line(&txt[line_start], font, style->text.letter_space, w, flag)
 364              		.loc 4 119 0
 365 01ae D7F8E020 		ldr	r2, [r7, #224]
 366 01b2 D7F8C430 		ldr	r3, [r7, #196]
 367 01b6 D018     		adds	r0, r2, r3
 368 01b8 7B68     		ldr	r3, [r7, #4]
 369 01ba B3F93820 		ldrsh	r2, [r3, #56]
 370 01be B7F9CE10 		ldrsh	r1, [r7, #206]
 371 01c2 97F8E430 		ldrb	r3, [r7, #228]	@ zero_extendqisi2
 372 01c6 0093     		str	r3, [sp]
 373 01c8 0B46     		mov	r3, r1
 374 01ca D7F8AC10 		ldr	r1, [r7, #172]
 375 01ce FFF7FEFF 		bl	lv_txt_get_next_line
 376 01d2 0346     		mov	r3, r0
 377 01d4 1A46     		mov	r2, r3
 378 01d6 D7F8BC30 		ldr	r3, [r7, #188]
 379 01da 1344     		add	r3, r3, r2
 380 01dc C7F8BC30 		str	r3, [r7, #188]
 120:..\..\..\lvgl\version_6.1.2\lvgl\src\lv_draw/lv_draw_label.c ****         pos.y += line_height;
 381              		.loc 4 120 0
ARM GAS  C:\Users\tmj32\AppData\Local\Temp\ccHxR1NV.s 			page 22


 382 01e0 B7F98630 		ldrsh	r3, [r7, #134]
 383 01e4 9AB2     		uxth	r2, r3
 384 01e6 B7F8AA30 		ldrh	r3, [r7, #170]
 385 01ea 1344     		add	r3, r3, r2
 386 01ec 9BB2     		uxth	r3, r3
 387 01ee 1BB2     		sxth	r3, r3
 388 01f0 A7F88630 		strh	r3, [r7, #134]	@ movhi
 121:..\..\..\lvgl\version_6.1.2\lvgl\src\lv_draw/lv_draw_label.c **** 
 122:..\..\..\lvgl\version_6.1.2\lvgl\src\lv_draw/lv_draw_label.c ****         /*Save at the threshold coordinate*/
 123:..\..\..\lvgl\version_6.1.2\lvgl\src\lv_draw/lv_draw_label.c ****         if(hint && pos.y >= -LV_LABEL_HINT_UPDATE_TH && hint->line_start < 0) {
 389              		.loc 4 123 0
 390 01f4 D7F8F030 		ldr	r3, [r7, #240]
 391 01f8 002B     		cmp	r3, #0
 392 01fa 1FD0     		beq	.L17
 393              		.loc 4 123 0 is_stmt 0 discriminator 1
 394 01fc B7F98630 		ldrsh	r3, [r7, #134]
 395 0200 13F5806F 		cmn	r3, #1024
 396 0204 1ADB     		blt	.L17
 397              		.loc 4 123 0 discriminator 2
 398 0206 D7F8F030 		ldr	r3, [r7, #240]
 399 020a 1B68     		ldr	r3, [r3]
 400 020c 002B     		cmp	r3, #0
 401 020e 15DA     		bge	.L17
 124:..\..\..\lvgl\version_6.1.2\lvgl\src\lv_draw/lv_draw_label.c ****             hint->line_start = line_start;
 402              		.loc 4 124 0 is_stmt 1
 403 0210 D7F8C420 		ldr	r2, [r7, #196]
 404 0214 D7F8F030 		ldr	r3, [r7, #240]
 405 0218 1A60     		str	r2, [r3]
 125:..\..\..\lvgl\version_6.1.2\lvgl\src\lv_draw/lv_draw_label.c ****             hint->y          = pos.y - coords->y1;
 406              		.loc 4 125 0
 407 021a B7F98630 		ldrsh	r3, [r7, #134]
 408 021e 1A46     		mov	r2, r3
 409 0220 FB68     		ldr	r3, [r7, #12]
 410 0222 B3F90230 		ldrsh	r3, [r3, #2]
 411 0226 D21A     		subs	r2, r2, r3
 412 0228 D7F8F030 		ldr	r3, [r7, #240]
 413 022c 5A60     		str	r2, [r3, #4]
 126:..\..\..\lvgl\version_6.1.2\lvgl\src\lv_draw/lv_draw_label.c ****             hint->coord_y    = coords->y1;
 414              		.loc 4 126 0
 415 022e FB68     		ldr	r3, [r7, #12]
 416 0230 B3F90230 		ldrsh	r3, [r3, #2]
 417 0234 1A46     		mov	r2, r3
 418 0236 D7F8F030 		ldr	r3, [r7, #240]
 419 023a 9A60     		str	r2, [r3, #8]
 420              	.L17:
 127:..\..\..\lvgl\version_6.1.2\lvgl\src\lv_draw/lv_draw_label.c ****         }
 128:..\..\..\lvgl\version_6.1.2\lvgl\src\lv_draw/lv_draw_label.c **** 
 129:..\..\..\lvgl\version_6.1.2\lvgl\src\lv_draw/lv_draw_label.c ****         if(txt[line_start] == '\0') return;
 421              		.loc 4 129 0
 422 023c D7F8E020 		ldr	r2, [r7, #224]
 423 0240 D7F8C430 		ldr	r3, [r7, #196]
 424 0244 1344     		add	r3, r3, r2
 425 0246 1B78     		ldrb	r3, [r3]	@ zero_extendqisi2
 426 0248 002B     		cmp	r3, #0
 427 024a 00F0CE82 		beq	.L45
 428              	.L16:
 116:..\..\..\lvgl\version_6.1.2\lvgl\src\lv_draw/lv_draw_label.c ****         /*Go to next line*/
ARM GAS  C:\Users\tmj32\AppData\Local\Temp\ccHxR1NV.s 			page 23


 429              		.loc 4 116 0
 430 024e B7F98630 		ldrsh	r3, [r7, #134]
 431 0252 1A46     		mov	r2, r3
 432 0254 B7F9AA30 		ldrsh	r3, [r7, #170]
 433 0258 1344     		add	r3, r3, r2
 434 025a BA68     		ldr	r2, [r7, #8]
 435 025c B2F90220 		ldrsh	r2, [r2, #2]
 436 0260 9342     		cmp	r3, r2
 437 0262 A0DB     		blt	.L18
 130:..\..\..\lvgl\version_6.1.2\lvgl\src\lv_draw/lv_draw_label.c ****     }
 131:..\..\..\lvgl\version_6.1.2\lvgl\src\lv_draw/lv_draw_label.c **** 
 132:..\..\..\lvgl\version_6.1.2\lvgl\src\lv_draw/lv_draw_label.c ****     /*Align to middle*/
 133:..\..\..\lvgl\version_6.1.2\lvgl\src\lv_draw/lv_draw_label.c ****     if(flag & LV_TXT_FLAG_CENTER) {
 438              		.loc 4 133 0
 439 0264 97F8E430 		ldrb	r3, [r7, #228]	@ zero_extendqisi2
 440 0268 03F00403 		and	r3, r3, #4
 441 026c 002B     		cmp	r3, #0
 442 026e 30D0     		beq	.L19
 134:..\..\..\lvgl\version_6.1.2\lvgl\src\lv_draw/lv_draw_label.c ****         line_width = lv_txt_get_width(&txt[line_start], line_end - line_start, font, style->text.le
 443              		.loc 4 134 0
 444 0270 D7F8E020 		ldr	r2, [r7, #224]
 445 0274 D7F8C430 		ldr	r3, [r7, #196]
 446 0278 D018     		adds	r0, r2, r3
 447 027a D7F8BC30 		ldr	r3, [r7, #188]
 448 027e 9AB2     		uxth	r2, r3
 449 0280 D7F8C430 		ldr	r3, [r7, #196]
 450 0284 9BB2     		uxth	r3, r3
 451 0286 D31A     		subs	r3, r2, r3
 452 0288 99B2     		uxth	r1, r3
 453 028a 7B68     		ldr	r3, [r7, #4]
 454 028c B3F93820 		ldrsh	r2, [r3, #56]
 455 0290 97F8E430 		ldrb	r3, [r7, #228]	@ zero_extendqisi2
 456 0294 0093     		str	r3, [sp]
 457 0296 1346     		mov	r3, r2
 458 0298 D7F8AC20 		ldr	r2, [r7, #172]
 459 029c FFF7FEFF 		bl	lv_txt_get_width
 460 02a0 0346     		mov	r3, r0
 461 02a2 A7F8A830 		strh	r3, [r7, #168]	@ movhi
 135:..\..\..\lvgl\version_6.1.2\lvgl\src\lv_draw/lv_draw_label.c **** 
 136:..\..\..\lvgl\version_6.1.2\lvgl\src\lv_draw/lv_draw_label.c ****         pos.x += (lv_area_get_width(coords) - line_width) / 2;
 462              		.loc 4 136 0
 463 02a6 F868     		ldr	r0, [r7, #12]
 464 02a8 FFF7FEFF 		bl	lv_area_get_width
 465 02ac 0346     		mov	r3, r0
 466 02ae 1A46     		mov	r2, r3
 467 02b0 B7F9A830 		ldrsh	r3, [r7, #168]
 468 02b4 D31A     		subs	r3, r2, r3
 469 02b6 DA0F     		lsrs	r2, r3, #31
 470 02b8 1344     		add	r3, r3, r2
 471 02ba 5B10     		asrs	r3, r3, #1
 472 02bc 1946     		mov	r1, r3
 473 02be B7F98430 		ldrsh	r3, [r7, #132]
 474 02c2 9AB2     		uxth	r2, r3
 475 02c4 8BB2     		uxth	r3, r1
 476 02c6 1344     		add	r3, r3, r2
 477 02c8 9BB2     		uxth	r3, r3
 478 02ca 1BB2     		sxth	r3, r3
ARM GAS  C:\Users\tmj32\AppData\Local\Temp\ccHxR1NV.s 			page 24


 479 02cc A7F88430 		strh	r3, [r7, #132]	@ movhi
 480 02d0 31E0     		b	.L20
 481              	.L19:
 137:..\..\..\lvgl\version_6.1.2\lvgl\src\lv_draw/lv_draw_label.c **** 
 138:..\..\..\lvgl\version_6.1.2\lvgl\src\lv_draw/lv_draw_label.c ****     }
 139:..\..\..\lvgl\version_6.1.2\lvgl\src\lv_draw/lv_draw_label.c ****     /*Align to the right*/
 140:..\..\..\lvgl\version_6.1.2\lvgl\src\lv_draw/lv_draw_label.c ****     else if(flag & LV_TXT_FLAG_RIGHT) {
 482              		.loc 4 140 0
 483 02d2 97F8E430 		ldrb	r3, [r7, #228]	@ zero_extendqisi2
 484 02d6 03F00803 		and	r3, r3, #8
 485 02da 002B     		cmp	r3, #0
 486 02dc 2BD0     		beq	.L20
 141:..\..\..\lvgl\version_6.1.2\lvgl\src\lv_draw/lv_draw_label.c ****         line_width = lv_txt_get_width(&txt[line_start], line_end - line_start, font, style->text.le
 487              		.loc 4 141 0
 488 02de D7F8E020 		ldr	r2, [r7, #224]
 489 02e2 D7F8C430 		ldr	r3, [r7, #196]
 490 02e6 D018     		adds	r0, r2, r3
 491 02e8 D7F8BC30 		ldr	r3, [r7, #188]
 492 02ec 9AB2     		uxth	r2, r3
 493 02ee D7F8C430 		ldr	r3, [r7, #196]
 494 02f2 9BB2     		uxth	r3, r3
 495 02f4 D31A     		subs	r3, r2, r3
 496 02f6 99B2     		uxth	r1, r3
 497 02f8 7B68     		ldr	r3, [r7, #4]
 498 02fa B3F93820 		ldrsh	r2, [r3, #56]
 499 02fe 97F8E430 		ldrb	r3, [r7, #228]	@ zero_extendqisi2
 500 0302 0093     		str	r3, [sp]
 501 0304 1346     		mov	r3, r2
 502 0306 D7F8AC20 		ldr	r2, [r7, #172]
 503 030a FFF7FEFF 		bl	lv_txt_get_width
 504 030e 0346     		mov	r3, r0
 505 0310 A7F8A830 		strh	r3, [r7, #168]	@ movhi
 142:..\..\..\lvgl\version_6.1.2\lvgl\src\lv_draw/lv_draw_label.c ****         pos.x += lv_area_get_width(coords) - line_width;
 506              		.loc 4 142 0
 507 0314 F868     		ldr	r0, [r7, #12]
 508 0316 FFF7FEFF 		bl	lv_area_get_width
 509 031a 0346     		mov	r3, r0
 510 031c 1A46     		mov	r2, r3
 511 031e B7F9A830 		ldrsh	r3, [r7, #168]
 512 0322 D31A     		subs	r3, r2, r3
 513 0324 B7F98420 		ldrsh	r2, [r7, #132]
 514 0328 92B2     		uxth	r2, r2
 515 032a 9BB2     		uxth	r3, r3
 516 032c 1344     		add	r3, r3, r2
 517 032e 9BB2     		uxth	r3, r3
 518 0330 1BB2     		sxth	r3, r3
 519 0332 A7F88430 		strh	r3, [r7, #132]	@ movhi
 520              	.L20:
 143:..\..\..\lvgl\version_6.1.2\lvgl\src\lv_draw/lv_draw_label.c ****     }
 144:..\..\..\lvgl\version_6.1.2\lvgl\src\lv_draw/lv_draw_label.c **** 
 145:..\..\..\lvgl\version_6.1.2\lvgl\src\lv_draw/lv_draw_label.c ****     lv_opa_t opa = opa_scale == LV_OPA_COVER ? style->text.opa : (uint16_t)((uint16_t)style->text.o
 521              		.loc 4 145 0
 522 0336 FB78     		ldrb	r3, [r7, #3]	@ zero_extendqisi2
 523 0338 FF2B     		cmp	r3, #255
 524 033a 03D1     		bne	.L21
 525              		.loc 4 145 0 is_stmt 0 discriminator 1
 526 033c 7B68     		ldr	r3, [r7, #4]
ARM GAS  C:\Users\tmj32\AppData\Local\Temp\ccHxR1NV.s 			page 25


 527 033e 93F83C30 		ldrb	r3, [r3, #60]	@ zero_extendqisi2
 528 0342 0BE0     		b	.L22
 529              	.L21:
 530              		.loc 4 145 0 discriminator 2
 531 0344 7B68     		ldr	r3, [r7, #4]
 532 0346 93F83C30 		ldrb	r3, [r3, #60]	@ zero_extendqisi2
 533 034a 9AB2     		uxth	r2, r3
 534 034c FB78     		ldrb	r3, [r7, #3]	@ zero_extendqisi2
 535 034e 9BB2     		uxth	r3, r3
 536 0350 12FB03F3 		smulbb	r3, r2, r3
 537 0354 9BB2     		uxth	r3, r3
 538 0356 1B0A     		lsrs	r3, r3, #8
 539 0358 9BB2     		uxth	r3, r3
 540 035a DBB2     		uxtb	r3, r3
 541              	.L22:
 542              		.loc 4 145 0 discriminator 4
 543 035c 87F8A730 		strb	r3, [r7, #167]
 146:..\..\..\lvgl\version_6.1.2\lvgl\src\lv_draw/lv_draw_label.c **** 
 147:..\..\..\lvgl\version_6.1.2\lvgl\src\lv_draw/lv_draw_label.c ****     uint16_t sel_start = 0xFFFF;
 544              		.loc 4 147 0 is_stmt 1 discriminator 4
 545 0360 4FF6FF73 		movw	r3, #65535
 546 0364 A7F8BA30 		strh	r3, [r7, #186]	@ movhi
 148:..\..\..\lvgl\version_6.1.2\lvgl\src\lv_draw/lv_draw_label.c ****     uint16_t sel_end = 0xFFFF;
 547              		.loc 4 148 0 discriminator 4
 548 0368 4FF6FF73 		movw	r3, #65535
 549 036c A7F8B830 		strh	r3, [r7, #184]	@ movhi
 149:..\..\..\lvgl\version_6.1.2\lvgl\src\lv_draw/lv_draw_label.c ****     if(sel) {
 550              		.loc 4 149 0 discriminator 4
 551 0370 D7F8EC30 		ldr	r3, [r7, #236]
 552 0374 002B     		cmp	r3, #0
 553 0376 1BD0     		beq	.L23
 150:..\..\..\lvgl\version_6.1.2\lvgl\src\lv_draw/lv_draw_label.c ****         sel_start = sel->start;
 554              		.loc 4 150 0
 555 0378 D7F8EC30 		ldr	r3, [r7, #236]
 556 037c 1B88     		ldrh	r3, [r3]	@ movhi
 557 037e A7F8BA30 		strh	r3, [r7, #186]	@ movhi
 151:..\..\..\lvgl\version_6.1.2\lvgl\src\lv_draw/lv_draw_label.c ****         sel_end = sel->end;
 558              		.loc 4 151 0
 559 0382 D7F8EC30 		ldr	r3, [r7, #236]
 560 0386 5B88     		ldrh	r3, [r3, #2]	@ movhi
 561 0388 A7F8B830 		strh	r3, [r7, #184]	@ movhi
 152:..\..\..\lvgl\version_6.1.2\lvgl\src\lv_draw/lv_draw_label.c ****         if(sel_start > sel_end) {
 562              		.loc 4 152 0
 563 038c B7F8BA20 		ldrh	r2, [r7, #186]
 564 0390 B7F8B830 		ldrh	r3, [r7, #184]
 565 0394 9A42     		cmp	r2, r3
 566 0396 0BD9     		bls	.L23
 567              	.LBB3:
 153:..\..\..\lvgl\version_6.1.2\lvgl\src\lv_draw/lv_draw_label.c ****             uint16_t tmp = sel_start;
 568              		.loc 4 153 0
 569 0398 B7F8BA30 		ldrh	r3, [r7, #186]	@ movhi
 570 039c A7F8A430 		strh	r3, [r7, #164]	@ movhi
 154:..\..\..\lvgl\version_6.1.2\lvgl\src\lv_draw/lv_draw_label.c ****             sel_start = sel_end;
 571              		.loc 4 154 0
 572 03a0 B7F8B830 		ldrh	r3, [r7, #184]	@ movhi
 573 03a4 A7F8BA30 		strh	r3, [r7, #186]	@ movhi
 155:..\..\..\lvgl\version_6.1.2\lvgl\src\lv_draw/lv_draw_label.c ****             sel_end = tmp;
ARM GAS  C:\Users\tmj32\AppData\Local\Temp\ccHxR1NV.s 			page 26


 574              		.loc 4 155 0
 575 03a8 B7F8A430 		ldrh	r3, [r7, #164]	@ movhi
 576 03ac A7F8B830 		strh	r3, [r7, #184]	@ movhi
 577              	.L23:
 578              	.LBE3:
 156:..\..\..\lvgl\version_6.1.2\lvgl\src\lv_draw/lv_draw_label.c ****         }
 157:..\..\..\lvgl\version_6.1.2\lvgl\src\lv_draw/lv_draw_label.c ****     }
 158:..\..\..\lvgl\version_6.1.2\lvgl\src\lv_draw/lv_draw_label.c **** 
 159:..\..\..\lvgl\version_6.1.2\lvgl\src\lv_draw/lv_draw_label.c ****     cmd_state_t cmd_state = CMD_STATE_WAIT;
 579              		.loc 4 159 0
 580 03b0 0023     		movs	r3, #0
 581 03b2 87F8B730 		strb	r3, [r7, #183]
 160:..\..\..\lvgl\version_6.1.2\lvgl\src\lv_draw/lv_draw_label.c ****     uint32_t i;
 161:..\..\..\lvgl\version_6.1.2\lvgl\src\lv_draw/lv_draw_label.c ****     uint16_t par_start = 0;
 582              		.loc 4 161 0
 583 03b6 0023     		movs	r3, #0
 584 03b8 A7F8B430 		strh	r3, [r7, #180]	@ movhi
 162:..\..\..\lvgl\version_6.1.2\lvgl\src\lv_draw/lv_draw_label.c ****     lv_color_t recolor;
 163:..\..\..\lvgl\version_6.1.2\lvgl\src\lv_draw/lv_draw_label.c ****     lv_coord_t letter_w;
 164:..\..\..\lvgl\version_6.1.2\lvgl\src\lv_draw/lv_draw_label.c ****     lv_style_t sel_style;
 165:..\..\..\lvgl\version_6.1.2\lvgl\src\lv_draw/lv_draw_label.c ****     lv_style_copy(&sel_style, &lv_style_plain_color);
 585              		.loc 4 165 0
 586 03bc 07F12C03 		add	r3, r7, #44
 587 03c0 AD49     		ldr	r1, .L48
 588 03c2 1846     		mov	r0, r3
 589 03c4 FFF7FEFF 		bl	lv_style_copy
 166:..\..\..\lvgl\version_6.1.2\lvgl\src\lv_draw/lv_draw_label.c ****     sel_style.body.main_color = sel_style.body.grad_color = style->text.sel_color;
 590              		.loc 4 166 0
 591 03c8 7B68     		ldr	r3, [r7, #4]
 592 03ca 1B6B     		ldr	r3, [r3, #48]
 593 03cc 7B63     		str	r3, [r7, #52]
 594 03ce 7B6B     		ldr	r3, [r7, #52]
 595 03d0 3B63     		str	r3, [r7, #48]
 167:..\..\..\lvgl\version_6.1.2\lvgl\src\lv_draw/lv_draw_label.c **** 
 168:..\..\..\lvgl\version_6.1.2\lvgl\src\lv_draw/lv_draw_label.c ****     /*Write out all lines*/
 169:..\..\..\lvgl\version_6.1.2\lvgl\src\lv_draw/lv_draw_label.c ****     while(txt[line_start] != '\0') {
 596              		.loc 4 169 0
 597 03d2 FEE1     		b	.L24
 598              	.L42:
 599              	.LBB4:
 170:..\..\..\lvgl\version_6.1.2\lvgl\src\lv_draw/lv_draw_label.c ****         if(offset != NULL) {
 600              		.loc 4 170 0
 601 03d4 D7F8E830 		ldr	r3, [r7, #232]
 602 03d8 002B     		cmp	r3, #0
 603 03da 09D0     		beq	.L25
 171:..\..\..\lvgl\version_6.1.2\lvgl\src\lv_draw/lv_draw_label.c ****             pos.x += x_ofs;
 604              		.loc 4 171 0
 605 03dc B7F98430 		ldrsh	r3, [r7, #132]
 606 03e0 9AB2     		uxth	r2, r3
 607 03e2 B7F8CC30 		ldrh	r3, [r7, #204]
 608 03e6 1344     		add	r3, r3, r2
 609 03e8 9BB2     		uxth	r3, r3
 610 03ea 1BB2     		sxth	r3, r3
 611 03ec A7F88430 		strh	r3, [r7, #132]	@ movhi
 612              	.L25:
 172:..\..\..\lvgl\version_6.1.2\lvgl\src\lv_draw/lv_draw_label.c ****         }
 173:..\..\..\lvgl\version_6.1.2\lvgl\src\lv_draw/lv_draw_label.c ****         /*Write all letter of a line*/
ARM GAS  C:\Users\tmj32\AppData\Local\Temp\ccHxR1NV.s 			page 27


 174:..\..\..\lvgl\version_6.1.2\lvgl\src\lv_draw/lv_draw_label.c ****         cmd_state = CMD_STATE_WAIT;
 613              		.loc 4 174 0
 614 03f0 0023     		movs	r3, #0
 615 03f2 87F8B730 		strb	r3, [r7, #183]
 175:..\..\..\lvgl\version_6.1.2\lvgl\src\lv_draw/lv_draw_label.c ****         i         = 0;
 616              		.loc 4 175 0
 617 03f6 0023     		movs	r3, #0
 618 03f8 C7F88030 		str	r3, [r7, #128]
 176:..\..\..\lvgl\version_6.1.2\lvgl\src\lv_draw/lv_draw_label.c ****         uint32_t letter;
 177:..\..\..\lvgl\version_6.1.2\lvgl\src\lv_draw/lv_draw_label.c ****         uint32_t letter_next;
 178:..\..\..\lvgl\version_6.1.2\lvgl\src\lv_draw/lv_draw_label.c **** #if LV_USE_BIDI
 179:..\..\..\lvgl\version_6.1.2\lvgl\src\lv_draw/lv_draw_label.c ****         char *bidi_txt = lv_draw_get_buf(line_end - line_start + 1);
 180:..\..\..\lvgl\version_6.1.2\lvgl\src\lv_draw/lv_draw_label.c ****         lv_bidi_process_paragraph(txt + line_start, bidi_txt, line_end - line_start, bidi_dir, NULL
 181:..\..\..\lvgl\version_6.1.2\lvgl\src\lv_draw/lv_draw_label.c **** #else
 182:..\..\..\lvgl\version_6.1.2\lvgl\src\lv_draw/lv_draw_label.c ****         (void)bidi_dir;
 183:..\..\..\lvgl\version_6.1.2\lvgl\src\lv_draw/lv_draw_label.c ****         const char *bidi_txt = txt + line_start;
 619              		.loc 4 183 0
 620 03fc D7F8E020 		ldr	r2, [r7, #224]
 621 0400 D7F8C430 		ldr	r3, [r7, #196]
 622 0404 1344     		add	r3, r3, r2
 623 0406 C7F8A030 		str	r3, [r7, #160]
 184:..\..\..\lvgl\version_6.1.2\lvgl\src\lv_draw/lv_draw_label.c **** #endif
 185:..\..\..\lvgl\version_6.1.2\lvgl\src\lv_draw/lv_draw_label.c **** 
 186:..\..\..\lvgl\version_6.1.2\lvgl\src\lv_draw/lv_draw_label.c ****         while(i < line_end - line_start) {
 624              		.loc 4 186 0
 625 040a 3CE1     		b	.L26
 626              	.L39:
 627              	.LBB5:
 187:..\..\..\lvgl\version_6.1.2\lvgl\src\lv_draw/lv_draw_label.c ****             uint16_t logical_char_pos = 0;
 628              		.loc 4 187 0
 629 040c 0023     		movs	r3, #0
 630 040e A7F8B230 		strh	r3, [r7, #178]	@ movhi
 188:..\..\..\lvgl\version_6.1.2\lvgl\src\lv_draw/lv_draw_label.c ****             if(sel_start != 0xFFFF && sel_end != 0xFFFF) {
 631              		.loc 4 188 0
 632 0412 B7F8BA30 		ldrh	r3, [r7, #186]
 633 0416 4FF6FF72 		movw	r2, #65535
 634 041a 9342     		cmp	r3, r2
 635 041c 13D0     		beq	.L27
 636              		.loc 4 188 0 is_stmt 0 discriminator 1
 637 041e B7F8B830 		ldrh	r3, [r7, #184]
 638 0422 4FF6FF72 		movw	r2, #65535
 639 0426 9342     		cmp	r3, r2
 640 0428 0DD0     		beq	.L27
 189:..\..\..\lvgl\version_6.1.2\lvgl\src\lv_draw/lv_draw_label.c **** #if LV_USE_BIDI
 190:..\..\..\lvgl\version_6.1.2\lvgl\src\lv_draw/lv_draw_label.c ****                 logical_char_pos = lv_txt_encoded_get_char_id(txt, line_start);
 191:..\..\..\lvgl\version_6.1.2\lvgl\src\lv_draw/lv_draw_label.c ****                 uint16_t t = lv_txt_encoded_get_char_id(bidi_txt, i);
 192:..\..\..\lvgl\version_6.1.2\lvgl\src\lv_draw/lv_draw_label.c ****                 logical_char_pos += lv_bidi_get_logical_pos(bidi_txt, NULL, line_end - line_start, 
 193:..\..\..\lvgl\version_6.1.2\lvgl\src\lv_draw/lv_draw_label.c **** #else
 194:..\..\..\lvgl\version_6.1.2\lvgl\src\lv_draw/lv_draw_label.c ****                 logical_char_pos = lv_txt_encoded_get_char_id(txt, line_start + i);
 641              		.loc 4 194 0 is_stmt 1
 642 042a 944B     		ldr	r3, .L48+4
 643 042c 1B68     		ldr	r3, [r3]
 644 042e D7F88010 		ldr	r1, [r7, #128]
 645 0432 D7F8C420 		ldr	r2, [r7, #196]
 646 0436 0A44     		add	r2, r2, r1
 647 0438 1146     		mov	r1, r2
 648 043a D7F8E000 		ldr	r0, [r7, #224]
ARM GAS  C:\Users\tmj32\AppData\Local\Temp\ccHxR1NV.s 			page 28


 649 043e 9847     		blx	r3
 650 0440 0346     		mov	r3, r0
 651 0442 A7F8B230 		strh	r3, [r7, #178]	@ movhi
 652              	.L27:
 195:..\..\..\lvgl\version_6.1.2\lvgl\src\lv_draw/lv_draw_label.c **** #endif
 196:..\..\..\lvgl\version_6.1.2\lvgl\src\lv_draw/lv_draw_label.c ****             }
 197:..\..\..\lvgl\version_6.1.2\lvgl\src\lv_draw/lv_draw_label.c **** 
 198:..\..\..\lvgl\version_6.1.2\lvgl\src\lv_draw/lv_draw_label.c ****             letter      = lv_txt_encoded_next(bidi_txt, &i);
 653              		.loc 4 198 0
 654 0446 8E4B     		ldr	r3, .L48+8
 655 0448 1B68     		ldr	r3, [r3]
 656 044a 07F18002 		add	r2, r7, #128
 657 044e 1146     		mov	r1, r2
 658 0450 D7F8A000 		ldr	r0, [r7, #160]
 659 0454 9847     		blx	r3
 660 0456 C7F89C00 		str	r0, [r7, #156]
 199:..\..\..\lvgl\version_6.1.2\lvgl\src\lv_draw/lv_draw_label.c ****             letter_next = lv_txt_encoded_next(&bidi_txt[i], NULL);
 661              		.loc 4 199 0
 662 045a 894B     		ldr	r3, .L48+8
 663 045c 1B68     		ldr	r3, [r3]
 664 045e D7F88020 		ldr	r2, [r7, #128]
 665 0462 D7F8A010 		ldr	r1, [r7, #160]
 666 0466 0A44     		add	r2, r2, r1
 667 0468 0021     		movs	r1, #0
 668 046a 1046     		mov	r0, r2
 669 046c 9847     		blx	r3
 670 046e C7F89800 		str	r0, [r7, #152]
 200:..\..\..\lvgl\version_6.1.2\lvgl\src\lv_draw/lv_draw_label.c **** 
 201:..\..\..\lvgl\version_6.1.2\lvgl\src\lv_draw/lv_draw_label.c **** 
 202:..\..\..\lvgl\version_6.1.2\lvgl\src\lv_draw/lv_draw_label.c ****             /*Handle the re-color command*/
 203:..\..\..\lvgl\version_6.1.2\lvgl\src\lv_draw/lv_draw_label.c ****             if((flag & LV_TXT_FLAG_RECOLOR) != 0) {
 671              		.loc 4 203 0
 672 0472 97F8E430 		ldrb	r3, [r7, #228]	@ zero_extendqisi2
 673 0476 03F00103 		and	r3, r3, #1
 674 047a 002B     		cmp	r3, #0
 675 047c 00F08280 		beq	.L28
 204:..\..\..\lvgl\version_6.1.2\lvgl\src\lv_draw/lv_draw_label.c ****                 if(letter == (uint32_t)LV_TXT_COLOR_CMD[0]) {
 676              		.loc 4 204 0
 677 0480 2323     		movs	r3, #35
 678 0482 1A46     		mov	r2, r3
 679 0484 D7F89C30 		ldr	r3, [r7, #156]
 680 0488 9A42     		cmp	r2, r3
 681 048a 1BD1     		bne	.L29
 205:..\..\..\lvgl\version_6.1.2\lvgl\src\lv_draw/lv_draw_label.c ****                     if(cmd_state == CMD_STATE_WAIT) { /*Start char*/
 682              		.loc 4 205 0
 683 048c 97F8B730 		ldrb	r3, [r7, #183]	@ zero_extendqisi2
 684 0490 002B     		cmp	r3, #0
 685 0492 07D1     		bne	.L30
 206:..\..\..\lvgl\version_6.1.2\lvgl\src\lv_draw/lv_draw_label.c ****                         par_start = i;
 686              		.loc 4 206 0
 687 0494 D7F88030 		ldr	r3, [r7, #128]
 688 0498 A7F8B430 		strh	r3, [r7, #180]	@ movhi
 207:..\..\..\lvgl\version_6.1.2\lvgl\src\lv_draw/lv_draw_label.c ****                         cmd_state = CMD_STATE_PAR;
 689              		.loc 4 207 0
 690 049c 0123     		movs	r3, #1
 691 049e 87F8B730 		strb	r3, [r7, #183]
 208:..\..\..\lvgl\version_6.1.2\lvgl\src\lv_draw/lv_draw_label.c ****                         continue;
ARM GAS  C:\Users\tmj32\AppData\Local\Temp\ccHxR1NV.s 			page 29


 692              		.loc 4 208 0
 693 04a2 F0E0     		b	.L26
 694              	.L30:
 209:..\..\..\lvgl\version_6.1.2\lvgl\src\lv_draw/lv_draw_label.c ****                     } else if(cmd_state == CMD_STATE_PAR) { /*Other start char in parameter escaped
 695              		.loc 4 209 0
 696 04a4 97F8B730 		ldrb	r3, [r7, #183]	@ zero_extendqisi2
 697 04a8 012B     		cmp	r3, #1
 698 04aa 03D1     		bne	.L32
 210:..\..\..\lvgl\version_6.1.2\lvgl\src\lv_draw/lv_draw_label.c ****                         cmd_state = CMD_STATE_WAIT;
 699              		.loc 4 210 0
 700 04ac 0023     		movs	r3, #0
 701 04ae 87F8B730 		strb	r3, [r7, #183]
 702 04b2 07E0     		b	.L29
 703              	.L32:
 211:..\..\..\lvgl\version_6.1.2\lvgl\src\lv_draw/lv_draw_label.c ****                     } else if(cmd_state == CMD_STATE_IN) { /*Command end */
 704              		.loc 4 211 0
 705 04b4 97F8B730 		ldrb	r3, [r7, #183]	@ zero_extendqisi2
 706 04b8 022B     		cmp	r3, #2
 707 04ba 03D1     		bne	.L29
 212:..\..\..\lvgl\version_6.1.2\lvgl\src\lv_draw/lv_draw_label.c ****                         cmd_state = CMD_STATE_WAIT;
 708              		.loc 4 212 0
 709 04bc 0023     		movs	r3, #0
 710 04be 87F8B730 		strb	r3, [r7, #183]
 213:..\..\..\lvgl\version_6.1.2\lvgl\src\lv_draw/lv_draw_label.c ****                         continue;
 711              		.loc 4 213 0
 712 04c2 E0E0     		b	.L26
 713              	.L29:
 214:..\..\..\lvgl\version_6.1.2\lvgl\src\lv_draw/lv_draw_label.c ****                     }
 215:..\..\..\lvgl\version_6.1.2\lvgl\src\lv_draw/lv_draw_label.c ****                 }
 216:..\..\..\lvgl\version_6.1.2\lvgl\src\lv_draw/lv_draw_label.c **** 
 217:..\..\..\lvgl\version_6.1.2\lvgl\src\lv_draw/lv_draw_label.c ****                 /*Skip the color parameter and wait the space after it*/
 218:..\..\..\lvgl\version_6.1.2\lvgl\src\lv_draw/lv_draw_label.c ****                 if(cmd_state == CMD_STATE_PAR) {
 714              		.loc 4 218 0
 715 04c4 97F8B730 		ldrb	r3, [r7, #183]	@ zero_extendqisi2
 716 04c8 012B     		cmp	r3, #1
 717 04ca 5BD1     		bne	.L28
 219:..\..\..\lvgl\version_6.1.2\lvgl\src\lv_draw/lv_draw_label.c ****                     if(letter == ' ') {
 718              		.loc 4 219 0
 719 04cc D7F89C30 		ldr	r3, [r7, #156]
 720 04d0 202B     		cmp	r3, #32
 721 04d2 40F0D780 		bne	.L46
 220:..\..\..\lvgl\version_6.1.2\lvgl\src\lv_draw/lv_draw_label.c ****                         /*Get the parameter*/
 221:..\..\..\lvgl\version_6.1.2\lvgl\src\lv_draw/lv_draw_label.c ****                         if(i - par_start == LABEL_RECOLOR_PAR_LENGTH + 1) {
 722              		.loc 4 221 0
 723 04d6 D7F88020 		ldr	r2, [r7, #128]
 724 04da B7F8B430 		ldrh	r3, [r7, #180]
 725 04de D31A     		subs	r3, r2, r3
 726 04e0 072B     		cmp	r3, #7
 727 04e2 48D1     		bne	.L34
 728              	.LBB6:
 222:..\..\..\lvgl\version_6.1.2\lvgl\src\lv_draw/lv_draw_label.c ****                             char buf[LABEL_RECOLOR_PAR_LENGTH + 1];
 223:..\..\..\lvgl\version_6.1.2\lvgl\src\lv_draw/lv_draw_label.c ****                             memcpy(buf, &bidi_txt[par_start], LABEL_RECOLOR_PAR_LENGTH);
 729              		.loc 4 223 0
 730 04e4 B7F8B430 		ldrh	r3, [r7, #180]
 731 04e8 D7F8A020 		ldr	r2, [r7, #160]
 732 04ec D118     		adds	r1, r2, r3
 733 04ee 07F11C03 		add	r3, r7, #28
ARM GAS  C:\Users\tmj32\AppData\Local\Temp\ccHxR1NV.s 			page 30


 734 04f2 0622     		movs	r2, #6
 735 04f4 1846     		mov	r0, r3
 736 04f6 FFF7FEFF 		bl	memcpy
 224:..\..\..\lvgl\version_6.1.2\lvgl\src\lv_draw/lv_draw_label.c ****                             buf[LABEL_RECOLOR_PAR_LENGTH] = '\0';
 737              		.loc 4 224 0
 738 04fa 0023     		movs	r3, #0
 739 04fc 87F82230 		strb	r3, [r7, #34]
 225:..\..\..\lvgl\version_6.1.2\lvgl\src\lv_draw/lv_draw_label.c ****                             int r, g, b;
 226:..\..\..\lvgl\version_6.1.2\lvgl\src\lv_draw/lv_draw_label.c ****                             r       = (hex_char_to_num(buf[0]) << 4) + hex_char_to_num(buf[1]);
 740              		.loc 4 226 0
 741 0500 3B7F     		ldrb	r3, [r7, #28]	@ zero_extendqisi2
 742 0502 1846     		mov	r0, r3
 743 0504 FFF7FEFF 		bl	hex_char_to_num
 744 0508 0346     		mov	r3, r0
 745 050a 1C01     		lsls	r4, r3, #4
 746 050c 7B7F     		ldrb	r3, [r7, #29]	@ zero_extendqisi2
 747 050e 1846     		mov	r0, r3
 748 0510 FFF7FEFF 		bl	hex_char_to_num
 749 0514 0346     		mov	r3, r0
 750 0516 2344     		add	r3, r3, r4
 751 0518 C7F89430 		str	r3, [r7, #148]
 227:..\..\..\lvgl\version_6.1.2\lvgl\src\lv_draw/lv_draw_label.c ****                             g       = (hex_char_to_num(buf[2]) << 4) + hex_char_to_num(buf[3]);
 752              		.loc 4 227 0
 753 051c BB7F     		ldrb	r3, [r7, #30]	@ zero_extendqisi2
 754 051e 1846     		mov	r0, r3
 755 0520 FFF7FEFF 		bl	hex_char_to_num
 756 0524 0346     		mov	r3, r0
 757 0526 1C01     		lsls	r4, r3, #4
 758 0528 FB7F     		ldrb	r3, [r7, #31]	@ zero_extendqisi2
 759 052a 1846     		mov	r0, r3
 760 052c FFF7FEFF 		bl	hex_char_to_num
 761 0530 0346     		mov	r3, r0
 762 0532 2344     		add	r3, r3, r4
 763 0534 C7F89030 		str	r3, [r7, #144]
 228:..\..\..\lvgl\version_6.1.2\lvgl\src\lv_draw/lv_draw_label.c ****                             b       = (hex_char_to_num(buf[4]) << 4) + hex_char_to_num(buf[5]);
 764              		.loc 4 228 0
 765 0538 97F82030 		ldrb	r3, [r7, #32]	@ zero_extendqisi2
 766 053c 1846     		mov	r0, r3
 767 053e FFF7FEFF 		bl	hex_char_to_num
 768 0542 0346     		mov	r3, r0
 769 0544 1C01     		lsls	r4, r3, #4
 770 0546 97F82130 		ldrb	r3, [r7, #33]	@ zero_extendqisi2
 771 054a 1846     		mov	r0, r3
 772 054c FFF7FEFF 		bl	hex_char_to_num
 773 0550 0346     		mov	r3, r0
 774 0552 2344     		add	r3, r3, r4
 775 0554 C7F88C30 		str	r3, [r7, #140]
 229:..\..\..\lvgl\version_6.1.2\lvgl\src\lv_draw/lv_draw_label.c ****                             recolor = lv_color_make(r, g, b);
 776              		.loc 4 229 0
 777 0558 D7F89430 		ldr	r3, [r7, #148]
 778 055c DBB2     		uxtb	r3, r3
 779 055e D7F89020 		ldr	r2, [r7, #144]
 780 0562 D1B2     		uxtb	r1, r2
 781 0564 D7F88C20 		ldr	r2, [r7, #140]
 782 0568 D2B2     		uxtb	r2, r2
 783 056a 1846     		mov	r0, r3
 784 056c FFF7FEFF 		bl	lv_color_make
ARM GAS  C:\Users\tmj32\AppData\Local\Temp\ccHxR1NV.s 			page 31


 785 0570 0346     		mov	r3, r0
 786 0572 FB67     		str	r3, [r7, #124]
 787              	.LBE6:
 788 0574 02E0     		b	.L35
 789              	.L34:
 230:..\..\..\lvgl\version_6.1.2\lvgl\src\lv_draw/lv_draw_label.c ****                         } else {
 231:..\..\..\lvgl\version_6.1.2\lvgl\src\lv_draw/lv_draw_label.c ****                             recolor.full = style->text.color.full;
 790              		.loc 4 231 0
 791 0576 7B68     		ldr	r3, [r7, #4]
 792 0578 DB6A     		ldr	r3, [r3, #44]
 793 057a FB67     		str	r3, [r7, #124]
 794              	.L35:
 232:..\..\..\lvgl\version_6.1.2\lvgl\src\lv_draw/lv_draw_label.c ****                         }
 233:..\..\..\lvgl\version_6.1.2\lvgl\src\lv_draw/lv_draw_label.c ****                         cmd_state = CMD_STATE_IN; /*After the parameter the text is in the command*
 795              		.loc 4 233 0
 796 057c 0223     		movs	r3, #2
 797 057e 87F8B730 		strb	r3, [r7, #183]
 234:..\..\..\lvgl\version_6.1.2\lvgl\src\lv_draw/lv_draw_label.c ****                     }
 235:..\..\..\lvgl\version_6.1.2\lvgl\src\lv_draw/lv_draw_label.c ****                     continue;
 798              		.loc 4 235 0
 799 0582 7FE0     		b	.L46
 800              	.L28:
 236:..\..\..\lvgl\version_6.1.2\lvgl\src\lv_draw/lv_draw_label.c ****                 }
 237:..\..\..\lvgl\version_6.1.2\lvgl\src\lv_draw/lv_draw_label.c ****             }
 238:..\..\..\lvgl\version_6.1.2\lvgl\src\lv_draw/lv_draw_label.c **** 
 239:..\..\..\lvgl\version_6.1.2\lvgl\src\lv_draw/lv_draw_label.c ****             lv_color_t color = style->text.color;
 801              		.loc 4 239 0
 802 0584 7B68     		ldr	r3, [r7, #4]
 803 0586 DB6A     		ldr	r3, [r3, #44]
 804 0588 7B62     		str	r3, [r7, #36]
 240:..\..\..\lvgl\version_6.1.2\lvgl\src\lv_draw/lv_draw_label.c **** 
 241:..\..\..\lvgl\version_6.1.2\lvgl\src\lv_draw/lv_draw_label.c ****             if(cmd_state == CMD_STATE_IN) color = recolor;
 805              		.loc 4 241 0
 806 058a 97F8B730 		ldrb	r3, [r7, #183]	@ zero_extendqisi2
 807 058e 022B     		cmp	r3, #2
 808 0590 01D1     		bne	.L36
 809              		.loc 4 241 0 is_stmt 0 discriminator 1
 810 0592 FB6F     		ldr	r3, [r7, #124]
 811 0594 7B62     		str	r3, [r7, #36]
 812              	.L36:
 242:..\..\..\lvgl\version_6.1.2\lvgl\src\lv_draw/lv_draw_label.c **** 
 243:..\..\..\lvgl\version_6.1.2\lvgl\src\lv_draw/lv_draw_label.c ****             letter_w = lv_font_get_glyph_width(font, letter, letter_next);
 813              		.loc 4 243 0 is_stmt 1
 814 0596 D7F89820 		ldr	r2, [r7, #152]
 815 059a D7F89C10 		ldr	r1, [r7, #156]
 816 059e D7F8AC00 		ldr	r0, [r7, #172]
 817 05a2 FFF7FEFF 		bl	lv_font_get_glyph_width
 818 05a6 0346     		mov	r3, r0
 819 05a8 A7F88A30 		strh	r3, [r7, #138]	@ movhi
 244:..\..\..\lvgl\version_6.1.2\lvgl\src\lv_draw/lv_draw_label.c **** 
 245:..\..\..\lvgl\version_6.1.2\lvgl\src\lv_draw/lv_draw_label.c ****             if(sel_start != 0xFFFF && sel_end != 0xFFFF) {
 820              		.loc 4 245 0
 821 05ac B7F8BA30 		ldrh	r3, [r7, #186]
 822 05b0 4FF6FF72 		movw	r2, #65535
 823 05b4 9342     		cmp	r3, r2
 824 05b6 3CD0     		beq	.L37
 825              		.loc 4 245 0 is_stmt 0 discriminator 1
ARM GAS  C:\Users\tmj32\AppData\Local\Temp\ccHxR1NV.s 			page 32


 826 05b8 B7F8B830 		ldrh	r3, [r7, #184]
 827 05bc 4FF6FF72 		movw	r2, #65535
 828 05c0 9342     		cmp	r3, r2
 829 05c2 36D0     		beq	.L37
 246:..\..\..\lvgl\version_6.1.2\lvgl\src\lv_draw/lv_draw_label.c ****                 if(logical_char_pos >= sel_start && logical_char_pos < sel_end) {
 830              		.loc 4 246 0 is_stmt 1
 831 05c4 B7F8B220 		ldrh	r2, [r7, #178]
 832 05c8 B7F8BA30 		ldrh	r3, [r7, #186]
 833 05cc 9A42     		cmp	r2, r3
 834 05ce 30D3     		bcc	.L37
 835              		.loc 4 246 0 is_stmt 0 discriminator 1
 836 05d0 B7F8B220 		ldrh	r2, [r7, #178]
 837 05d4 B7F8B830 		ldrh	r3, [r7, #184]
 838 05d8 9A42     		cmp	r2, r3
 839 05da 2AD2     		bcs	.L37
 840              	.LBB7:
 247:..\..\..\lvgl\version_6.1.2\lvgl\src\lv_draw/lv_draw_label.c ****                     lv_area_t sel_coords;
 248:..\..\..\lvgl\version_6.1.2\lvgl\src\lv_draw/lv_draw_label.c ****                     sel_coords.x1 = pos.x;
 841              		.loc 4 248 0 is_stmt 1
 842 05dc B7F98430 		ldrsh	r3, [r7, #132]
 843 05e0 BB82     		strh	r3, [r7, #20]	@ movhi
 249:..\..\..\lvgl\version_6.1.2\lvgl\src\lv_draw/lv_draw_label.c ****                     sel_coords.y1 = pos.y;
 844              		.loc 4 249 0
 845 05e2 B7F98630 		ldrsh	r3, [r7, #134]
 846 05e6 FB82     		strh	r3, [r7, #22]	@ movhi
 250:..\..\..\lvgl\version_6.1.2\lvgl\src\lv_draw/lv_draw_label.c ****                     sel_coords.x2 = pos.x + letter_w + style->text.letter_space - 1;
 847              		.loc 4 250 0
 848 05e8 B7F98430 		ldrsh	r3, [r7, #132]
 849 05ec 9AB2     		uxth	r2, r3
 850 05ee B7F88A30 		ldrh	r3, [r7, #138]
 851 05f2 1344     		add	r3, r3, r2
 852 05f4 9AB2     		uxth	r2, r3
 853 05f6 7B68     		ldr	r3, [r7, #4]
 854 05f8 B3F93830 		ldrsh	r3, [r3, #56]
 855 05fc 9BB2     		uxth	r3, r3
 856 05fe 1344     		add	r3, r3, r2
 857 0600 9BB2     		uxth	r3, r3
 858 0602 013B     		subs	r3, r3, #1
 859 0604 9BB2     		uxth	r3, r3
 860 0606 1BB2     		sxth	r3, r3
 861 0608 3B83     		strh	r3, [r7, #24]	@ movhi
 251:..\..\..\lvgl\version_6.1.2\lvgl\src\lv_draw/lv_draw_label.c ****                     sel_coords.y2 = pos.y + line_height - 1;
 862              		.loc 4 251 0
 863 060a B7F98630 		ldrsh	r3, [r7, #134]
 864 060e 9AB2     		uxth	r2, r3
 865 0610 B7F8AA30 		ldrh	r3, [r7, #170]
 866 0614 1344     		add	r3, r3, r2
 867 0616 9BB2     		uxth	r3, r3
 868 0618 013B     		subs	r3, r3, #1
 869 061a 9BB2     		uxth	r3, r3
 870 061c 1BB2     		sxth	r3, r3
 871 061e 7B83     		strh	r3, [r7, #26]	@ movhi
 252:..\..\..\lvgl\version_6.1.2\lvgl\src\lv_draw/lv_draw_label.c ****                     lv_draw_rect(&sel_coords, mask, &sel_style, opa);
 872              		.loc 4 252 0
 873 0620 97F8A730 		ldrb	r3, [r7, #167]	@ zero_extendqisi2
 874 0624 07F12C02 		add	r2, r7, #44
 875 0628 07F11400 		add	r0, r7, #20
ARM GAS  C:\Users\tmj32\AppData\Local\Temp\ccHxR1NV.s 			page 33


 876 062c B968     		ldr	r1, [r7, #8]
 877 062e FFF7FEFF 		bl	lv_draw_rect
 878              	.L37:
 879              	.LBE7:
 253:..\..\..\lvgl\version_6.1.2\lvgl\src\lv_draw/lv_draw_label.c ****                 }
 254:..\..\..\lvgl\version_6.1.2\lvgl\src\lv_draw/lv_draw_label.c ****             }
 255:..\..\..\lvgl\version_6.1.2\lvgl\src\lv_draw/lv_draw_label.c **** 
 256:..\..\..\lvgl\version_6.1.2\lvgl\src\lv_draw/lv_draw_label.c ****             lv_draw_letter(&pos, mask, font, letter, color, opa);
 880              		.loc 4 256 0
 881 0632 07F18400 		add	r0, r7, #132
 882 0636 97F8A730 		ldrb	r3, [r7, #167]	@ zero_extendqisi2
 883 063a 0193     		str	r3, [sp, #4]
 884 063c 7B6A     		ldr	r3, [r7, #36]
 885 063e 0093     		str	r3, [sp]
 886 0640 D7F89C30 		ldr	r3, [r7, #156]
 887 0644 D7F8AC20 		ldr	r2, [r7, #172]
 888 0648 B968     		ldr	r1, [r7, #8]
 889 064a FFF7FEFF 		bl	lv_draw_letter
 257:..\..\..\lvgl\version_6.1.2\lvgl\src\lv_draw/lv_draw_label.c **** 
 258:..\..\..\lvgl\version_6.1.2\lvgl\src\lv_draw/lv_draw_label.c ****             if(letter_w > 0) {
 890              		.loc 4 258 0
 891 064e B7F98A30 		ldrsh	r3, [r7, #138]
 892 0652 002B     		cmp	r3, #0
 893 0654 17DD     		ble	.L26
 259:..\..\..\lvgl\version_6.1.2\lvgl\src\lv_draw/lv_draw_label.c ****                 pos.x += letter_w + style->text.letter_space;
 894              		.loc 4 259 0
 895 0656 B7F98430 		ldrsh	r3, [r7, #132]
 896 065a 9AB2     		uxth	r2, r3
 897 065c 7B68     		ldr	r3, [r7, #4]
 898 065e B3F93830 		ldrsh	r3, [r3, #56]
 899 0662 99B2     		uxth	r1, r3
 900 0664 B7F88A30 		ldrh	r3, [r7, #138]
 901 0668 0B44     		add	r3, r3, r1
 902 066a 9BB2     		uxth	r3, r3
 903 066c 1344     		add	r3, r3, r2
 904 066e 9BB2     		uxth	r3, r3
 905 0670 1BB2     		sxth	r3, r3
 906 0672 A7F88430 		strh	r3, [r7, #132]	@ movhi
 907 0676 06E0     		b	.L26
 908              	.L49:
 909              		.align	2
 910              	.L48:
 911 0678 00000000 		.word	lv_style_plain_color
 912 067c 00000000 		.word	lv_txt_encoded_get_char_id
 913 0680 00000000 		.word	lv_txt_encoded_next
 914              	.L46:
 235:..\..\..\lvgl\version_6.1.2\lvgl\src\lv_draw/lv_draw_label.c ****                 }
 915              		.loc 4 235 0
 916 0684 00BF     		nop
 917              	.L26:
 918              	.LBE5:
 186:..\..\..\lvgl\version_6.1.2\lvgl\src\lv_draw/lv_draw_label.c ****             uint16_t logical_char_pos = 0;
 919              		.loc 4 186 0
 920 0686 D7F8BC20 		ldr	r2, [r7, #188]
 921 068a D7F8C430 		ldr	r3, [r7, #196]
 922 068e D21A     		subs	r2, r2, r3
 923 0690 D7F88030 		ldr	r3, [r7, #128]
ARM GAS  C:\Users\tmj32\AppData\Local\Temp\ccHxR1NV.s 			page 34


 924 0694 9A42     		cmp	r2, r3
 925 0696 3FF6B9AE 		bhi	.L39
 260:..\..\..\lvgl\version_6.1.2\lvgl\src\lv_draw/lv_draw_label.c ****             }
 261:..\..\..\lvgl\version_6.1.2\lvgl\src\lv_draw/lv_draw_label.c ****         }
 262:..\..\..\lvgl\version_6.1.2\lvgl\src\lv_draw/lv_draw_label.c ****         /*Go to next line*/
 263:..\..\..\lvgl\version_6.1.2\lvgl\src\lv_draw/lv_draw_label.c ****         line_start = line_end;
 926              		.loc 4 263 0
 927 069a D7F8BC30 		ldr	r3, [r7, #188]
 928 069e C7F8C430 		str	r3, [r7, #196]
 264:..\..\..\lvgl\version_6.1.2\lvgl\src\lv_draw/lv_draw_label.c ****         line_end += lv_txt_get_next_line(&txt[line_start], font, style->text.letter_space, w, flag)
 929              		.loc 4 264 0
 930 06a2 D7F8E020 		ldr	r2, [r7, #224]
 931 06a6 D7F8C430 		ldr	r3, [r7, #196]
 932 06aa D018     		adds	r0, r2, r3
 933 06ac 7B68     		ldr	r3, [r7, #4]
 934 06ae B3F93820 		ldrsh	r2, [r3, #56]
 935 06b2 B7F9CE10 		ldrsh	r1, [r7, #206]
 936 06b6 97F8E430 		ldrb	r3, [r7, #228]	@ zero_extendqisi2
 937 06ba 0093     		str	r3, [sp]
 938 06bc 0B46     		mov	r3, r1
 939 06be D7F8AC10 		ldr	r1, [r7, #172]
 940 06c2 FFF7FEFF 		bl	lv_txt_get_next_line
 941 06c6 0346     		mov	r3, r0
 942 06c8 1A46     		mov	r2, r3
 943 06ca D7F8BC30 		ldr	r3, [r7, #188]
 944 06ce 1344     		add	r3, r3, r2
 945 06d0 C7F8BC30 		str	r3, [r7, #188]
 265:..\..\..\lvgl\version_6.1.2\lvgl\src\lv_draw/lv_draw_label.c **** 
 266:..\..\..\lvgl\version_6.1.2\lvgl\src\lv_draw/lv_draw_label.c ****         pos.x = coords->x1;
 946              		.loc 4 266 0
 947 06d4 FB68     		ldr	r3, [r7, #12]
 948 06d6 B3F90030 		ldrsh	r3, [r3]
 949 06da A7F88430 		strh	r3, [r7, #132]	@ movhi
 267:..\..\..\lvgl\version_6.1.2\lvgl\src\lv_draw/lv_draw_label.c ****         /*Align to middle*/
 268:..\..\..\lvgl\version_6.1.2\lvgl\src\lv_draw/lv_draw_label.c ****         if(flag & LV_TXT_FLAG_CENTER) {
 950              		.loc 4 268 0
 951 06de 97F8E430 		ldrb	r3, [r7, #228]	@ zero_extendqisi2
 952 06e2 03F00403 		and	r3, r3, #4
 953 06e6 002B     		cmp	r3, #0
 954 06e8 30D0     		beq	.L40
 269:..\..\..\lvgl\version_6.1.2\lvgl\src\lv_draw/lv_draw_label.c ****             line_width =
 270:..\..\..\lvgl\version_6.1.2\lvgl\src\lv_draw/lv_draw_label.c ****                     lv_txt_get_width(&txt[line_start], line_end - line_start, font, style->text.let
 955              		.loc 4 270 0
 956 06ea D7F8E020 		ldr	r2, [r7, #224]
 957 06ee D7F8C430 		ldr	r3, [r7, #196]
 958 06f2 D018     		adds	r0, r2, r3
 959 06f4 D7F8BC30 		ldr	r3, [r7, #188]
 960 06f8 9AB2     		uxth	r2, r3
 961 06fa D7F8C430 		ldr	r3, [r7, #196]
 962 06fe 9BB2     		uxth	r3, r3
 963 0700 D31A     		subs	r3, r2, r3
 964 0702 99B2     		uxth	r1, r3
 965 0704 7B68     		ldr	r3, [r7, #4]
 966 0706 B3F93820 		ldrsh	r2, [r3, #56]
 269:..\..\..\lvgl\version_6.1.2\lvgl\src\lv_draw/lv_draw_label.c ****             line_width =
 967              		.loc 4 269 0
 968 070a 97F8E430 		ldrb	r3, [r7, #228]	@ zero_extendqisi2
ARM GAS  C:\Users\tmj32\AppData\Local\Temp\ccHxR1NV.s 			page 35


 969 070e 0093     		str	r3, [sp]
 970 0710 1346     		mov	r3, r2
 971 0712 D7F8AC20 		ldr	r2, [r7, #172]
 972 0716 FFF7FEFF 		bl	lv_txt_get_width
 973 071a 0346     		mov	r3, r0
 974 071c A7F8A830 		strh	r3, [r7, #168]	@ movhi
 271:..\..\..\lvgl\version_6.1.2\lvgl\src\lv_draw/lv_draw_label.c **** 
 272:..\..\..\lvgl\version_6.1.2\lvgl\src\lv_draw/lv_draw_label.c ****             pos.x += (lv_area_get_width(coords) - line_width) / 2;
 975              		.loc 4 272 0
 976 0720 F868     		ldr	r0, [r7, #12]
 977 0722 FFF7FEFF 		bl	lv_area_get_width
 978 0726 0346     		mov	r3, r0
 979 0728 1A46     		mov	r2, r3
 980 072a B7F9A830 		ldrsh	r3, [r7, #168]
 981 072e D31A     		subs	r3, r2, r3
 982 0730 DA0F     		lsrs	r2, r3, #31
 983 0732 1344     		add	r3, r3, r2
 984 0734 5B10     		asrs	r3, r3, #1
 985 0736 1946     		mov	r1, r3
 986 0738 B7F98430 		ldrsh	r3, [r7, #132]
 987 073c 9AB2     		uxth	r2, r3
 988 073e 8BB2     		uxth	r3, r1
 989 0740 1344     		add	r3, r3, r2
 990 0742 9BB2     		uxth	r3, r3
 991 0744 1BB2     		sxth	r3, r3
 992 0746 A7F88430 		strh	r3, [r7, #132]	@ movhi
 993 074a 31E0     		b	.L41
 994              	.L40:
 273:..\..\..\lvgl\version_6.1.2\lvgl\src\lv_draw/lv_draw_label.c **** 
 274:..\..\..\lvgl\version_6.1.2\lvgl\src\lv_draw/lv_draw_label.c ****         }
 275:..\..\..\lvgl\version_6.1.2\lvgl\src\lv_draw/lv_draw_label.c ****         /*Align to the right*/
 276:..\..\..\lvgl\version_6.1.2\lvgl\src\lv_draw/lv_draw_label.c ****         else if(flag & LV_TXT_FLAG_RIGHT) {
 995              		.loc 4 276 0
 996 074c 97F8E430 		ldrb	r3, [r7, #228]	@ zero_extendqisi2
 997 0750 03F00803 		and	r3, r3, #8
 998 0754 002B     		cmp	r3, #0
 999 0756 2BD0     		beq	.L41
 277:..\..\..\lvgl\version_6.1.2\lvgl\src\lv_draw/lv_draw_label.c ****             line_width =
 278:..\..\..\lvgl\version_6.1.2\lvgl\src\lv_draw/lv_draw_label.c ****                     lv_txt_get_width(&txt[line_start], line_end - line_start, font, style->text.let
 1000              		.loc 4 278 0
 1001 0758 D7F8E020 		ldr	r2, [r7, #224]
 1002 075c D7F8C430 		ldr	r3, [r7, #196]
 1003 0760 D018     		adds	r0, r2, r3
 1004 0762 D7F8BC30 		ldr	r3, [r7, #188]
 1005 0766 9AB2     		uxth	r2, r3
 1006 0768 D7F8C430 		ldr	r3, [r7, #196]
 1007 076c 9BB2     		uxth	r3, r3
 1008 076e D31A     		subs	r3, r2, r3
 1009 0770 99B2     		uxth	r1, r3
 1010 0772 7B68     		ldr	r3, [r7, #4]
 1011 0774 B3F93820 		ldrsh	r2, [r3, #56]
 277:..\..\..\lvgl\version_6.1.2\lvgl\src\lv_draw/lv_draw_label.c ****             line_width =
 1012              		.loc 4 277 0
 1013 0778 97F8E430 		ldrb	r3, [r7, #228]	@ zero_extendqisi2
 1014 077c 0093     		str	r3, [sp]
 1015 077e 1346     		mov	r3, r2
 1016 0780 D7F8AC20 		ldr	r2, [r7, #172]
ARM GAS  C:\Users\tmj32\AppData\Local\Temp\ccHxR1NV.s 			page 36


 1017 0784 FFF7FEFF 		bl	lv_txt_get_width
 1018 0788 0346     		mov	r3, r0
 1019 078a A7F8A830 		strh	r3, [r7, #168]	@ movhi
 279:..\..\..\lvgl\version_6.1.2\lvgl\src\lv_draw/lv_draw_label.c ****             pos.x += lv_area_get_width(coords) - line_width;
 1020              		.loc 4 279 0
 1021 078e F868     		ldr	r0, [r7, #12]
 1022 0790 FFF7FEFF 		bl	lv_area_get_width
 1023 0794 0346     		mov	r3, r0
 1024 0796 1A46     		mov	r2, r3
 1025 0798 B7F9A830 		ldrsh	r3, [r7, #168]
 1026 079c D31A     		subs	r3, r2, r3
 1027 079e B7F98420 		ldrsh	r2, [r7, #132]
 1028 07a2 92B2     		uxth	r2, r2
 1029 07a4 9BB2     		uxth	r3, r3
 1030 07a6 1344     		add	r3, r3, r2
 1031 07a8 9BB2     		uxth	r3, r3
 1032 07aa 1BB2     		sxth	r3, r3
 1033 07ac A7F88430 		strh	r3, [r7, #132]	@ movhi
 1034              	.L41:
 280:..\..\..\lvgl\version_6.1.2\lvgl\src\lv_draw/lv_draw_label.c ****         }
 281:..\..\..\lvgl\version_6.1.2\lvgl\src\lv_draw/lv_draw_label.c **** 
 282:..\..\..\lvgl\version_6.1.2\lvgl\src\lv_draw/lv_draw_label.c ****         /*Go the next line position*/
 283:..\..\..\lvgl\version_6.1.2\lvgl\src\lv_draw/lv_draw_label.c ****         pos.y += line_height;
 1035              		.loc 4 283 0
 1036 07b0 B7F98630 		ldrsh	r3, [r7, #134]
 1037 07b4 9AB2     		uxth	r2, r3
 1038 07b6 B7F8AA30 		ldrh	r3, [r7, #170]
 1039 07ba 1344     		add	r3, r3, r2
 1040 07bc 9BB2     		uxth	r3, r3
 1041 07be 1BB2     		sxth	r3, r3
 1042 07c0 A7F88630 		strh	r3, [r7, #134]	@ movhi
 284:..\..\..\lvgl\version_6.1.2\lvgl\src\lv_draw/lv_draw_label.c **** 
 285:..\..\..\lvgl\version_6.1.2\lvgl\src\lv_draw/lv_draw_label.c ****         if(pos.y > mask->y2) return;
 1043              		.loc 4 285 0
 1044 07c4 B7F98620 		ldrsh	r2, [r7, #134]
 1045 07c8 BB68     		ldr	r3, [r7, #8]
 1046 07ca B3F90630 		ldrsh	r3, [r3, #6]
 1047 07ce 9A42     		cmp	r2, r3
 1048 07d0 0DDC     		bgt	.L47
 1049              	.L24:
 1050              	.LBE4:
 169:..\..\..\lvgl\version_6.1.2\lvgl\src\lv_draw/lv_draw_label.c ****         if(offset != NULL) {
 1051              		.loc 4 169 0
 1052 07d2 D7F8E020 		ldr	r2, [r7, #224]
 1053 07d6 D7F8C430 		ldr	r3, [r7, #196]
 1054 07da 1344     		add	r3, r3, r2
 1055 07dc 1B78     		ldrb	r3, [r3]	@ zero_extendqisi2
 1056 07de 002B     		cmp	r3, #0
 1057 07e0 7FF4F8AD 		bne	.L42
 1058 07e4 04E0     		b	.L7
 1059              	.L44:
  65:..\..\..\lvgl\version_6.1.2\lvgl\src\lv_draw/lv_draw_label.c **** 
 1060              		.loc 4 65 0
 1061 07e6 00BF     		nop
 1062 07e8 02E0     		b	.L7
 1063              	.L45:
 129:..\..\..\lvgl\version_6.1.2\lvgl\src\lv_draw/lv_draw_label.c ****     }
ARM GAS  C:\Users\tmj32\AppData\Local\Temp\ccHxR1NV.s 			page 37


 1064              		.loc 4 129 0
 1065 07ea 00BF     		nop
 1066 07ec 00E0     		b	.L7
 1067              	.L47:
 1068              	.LBB8:
 1069              		.loc 4 285 0
 1070 07ee 00BF     		nop
 1071              	.L7:
 1072              	.LBE8:
 286:..\..\..\lvgl\version_6.1.2\lvgl\src\lv_draw/lv_draw_label.c ****     }
 287:..\..\..\lvgl\version_6.1.2\lvgl\src\lv_draw/lv_draw_label.c **** }
 1073              		.loc 4 287 0
 1074 07f0 D437     		adds	r7, r7, #212
 1075              		.cfi_def_cfa_offset 12
 1076 07f2 BD46     		mov	sp, r7
 1077              		.cfi_def_cfa_register 13
 1078              		@ sp needed
 1079 07f4 90BD     		pop	{r4, r7, pc}
 1080              		.cfi_endproc
 1081              	.LFE31:
 1082              		.size	lv_draw_label, .-lv_draw_label
 1083 07f6 00BF     		.section	.text.hex_char_to_num,"ax",%progbits
 1084              		.align	2
 1085              		.thumb
 1086              		.thumb_func
 1087              		.type	hex_char_to_num, %function
 1088              	hex_char_to_num:
 1089              	.LFB32:
 288:..\..\..\lvgl\version_6.1.2\lvgl\src\lv_draw/lv_draw_label.c **** 
 289:..\..\..\lvgl\version_6.1.2\lvgl\src\lv_draw/lv_draw_label.c **** /**********************
 290:..\..\..\lvgl\version_6.1.2\lvgl\src\lv_draw/lv_draw_label.c ****  *   STATIC FUNCTIONS
 291:..\..\..\lvgl\version_6.1.2\lvgl\src\lv_draw/lv_draw_label.c ****  **********************/
 292:..\..\..\lvgl\version_6.1.2\lvgl\src\lv_draw/lv_draw_label.c **** 
 293:..\..\..\lvgl\version_6.1.2\lvgl\src\lv_draw/lv_draw_label.c **** /**
 294:..\..\..\lvgl\version_6.1.2\lvgl\src\lv_draw/lv_draw_label.c ****  * Convert a hexadecimal characters to a number (0..15)
 295:..\..\..\lvgl\version_6.1.2\lvgl\src\lv_draw/lv_draw_label.c ****  * @param hex Pointer to a hexadecimal character (0..9, A..F)
 296:..\..\..\lvgl\version_6.1.2\lvgl\src\lv_draw/lv_draw_label.c ****  * @return the numerical value of `hex` or 0 on error
 297:..\..\..\lvgl\version_6.1.2\lvgl\src\lv_draw/lv_draw_label.c ****  */
 298:..\..\..\lvgl\version_6.1.2\lvgl\src\lv_draw/lv_draw_label.c **** static uint8_t hex_char_to_num(char hex)
 299:..\..\..\lvgl\version_6.1.2\lvgl\src\lv_draw/lv_draw_label.c **** {
 1090              		.loc 4 299 0
 1091              		.cfi_startproc
 1092              		@ args = 0, pretend = 0, frame = 16
 1093              		@ frame_needed = 1, uses_anonymous_args = 0
 1094              		@ link register save eliminated.
 1095 0000 80B4     		push	{r7}
 1096              		.cfi_def_cfa_offset 4
 1097              		.cfi_offset 7, -4
 1098 0002 85B0     		sub	sp, sp, #20
 1099              		.cfi_def_cfa_offset 24
 1100 0004 00AF     		add	r7, sp, #0
 1101              		.cfi_def_cfa_register 7
 1102 0006 0346     		mov	r3, r0
 1103 0008 FB71     		strb	r3, [r7, #7]
 300:..\..\..\lvgl\version_6.1.2\lvgl\src\lv_draw/lv_draw_label.c ****     uint8_t result = 0;
 1104              		.loc 4 300 0
 1105 000a 0023     		movs	r3, #0
ARM GAS  C:\Users\tmj32\AppData\Local\Temp\ccHxR1NV.s 			page 38


 1106 000c FB73     		strb	r3, [r7, #15]
 301:..\..\..\lvgl\version_6.1.2\lvgl\src\lv_draw/lv_draw_label.c **** 
 302:..\..\..\lvgl\version_6.1.2\lvgl\src\lv_draw/lv_draw_label.c ****     if(hex >= '0' && hex <= '9') {
 1107              		.loc 4 302 0
 1108 000e FB79     		ldrb	r3, [r7, #7]	@ zero_extendqisi2
 1109 0010 2F2B     		cmp	r3, #47
 1110 0012 06D9     		bls	.L51
 1111              		.loc 4 302 0 is_stmt 0 discriminator 1
 1112 0014 FB79     		ldrb	r3, [r7, #7]	@ zero_extendqisi2
 1113 0016 392B     		cmp	r3, #57
 1114 0018 03D8     		bhi	.L51
 303:..\..\..\lvgl\version_6.1.2\lvgl\src\lv_draw/lv_draw_label.c ****         result = hex - '0';
 1115              		.loc 4 303 0 is_stmt 1
 1116 001a FB79     		ldrb	r3, [r7, #7]
 1117 001c 303B     		subs	r3, r3, #48
 1118 001e FB73     		strb	r3, [r7, #15]
 1119 0020 2DE0     		b	.L52
 1120              	.L51:
 304:..\..\..\lvgl\version_6.1.2\lvgl\src\lv_draw/lv_draw_label.c ****     } else {
 305:..\..\..\lvgl\version_6.1.2\lvgl\src\lv_draw/lv_draw_label.c ****         if(hex >= 'a') hex -= 'a' - 'A'; /*Convert to upper case*/
 1121              		.loc 4 305 0
 1122 0022 FB79     		ldrb	r3, [r7, #7]	@ zero_extendqisi2
 1123 0024 602B     		cmp	r3, #96
 1124 0026 02D9     		bls	.L53
 1125              		.loc 4 305 0 is_stmt 0 discriminator 1
 1126 0028 FB79     		ldrb	r3, [r7, #7]
 1127 002a 203B     		subs	r3, r3, #32
 1128 002c FB71     		strb	r3, [r7, #7]
 1129              	.L53:
 306:..\..\..\lvgl\version_6.1.2\lvgl\src\lv_draw/lv_draw_label.c **** 
 307:..\..\..\lvgl\version_6.1.2\lvgl\src\lv_draw/lv_draw_label.c ****         switch(hex) {
 1130              		.loc 4 307 0 is_stmt 1
 1131 002e FB79     		ldrb	r3, [r7, #7]	@ zero_extendqisi2
 1132 0030 413B     		subs	r3, r3, #65
 1133 0032 052B     		cmp	r3, #5
 1134 0034 20D8     		bhi	.L54
 1135 0036 01A2     		adr	r2, .L56
 1136 0038 52F823F0 		ldr	pc, [r2, r3, lsl #2]
 1137              		.p2align 2
 1138              	.L56:
 1139 003c 55000000 		.word	.L55+1
 1140 0040 5B000000 		.word	.L57+1
 1141 0044 61000000 		.word	.L58+1
 1142 0048 67000000 		.word	.L59+1
 1143 004c 6D000000 		.word	.L60+1
 1144 0050 73000000 		.word	.L61+1
 1145              		.p2align 1
 1146              	.L55:
 308:..\..\..\lvgl\version_6.1.2\lvgl\src\lv_draw/lv_draw_label.c ****         case 'A': result = 10; break;
 1147              		.loc 4 308 0
 1148 0054 0A23     		movs	r3, #10
 1149 0056 FB73     		strb	r3, [r7, #15]
 1150 0058 11E0     		b	.L52
 1151              	.L57:
 309:..\..\..\lvgl\version_6.1.2\lvgl\src\lv_draw/lv_draw_label.c ****         case 'B': result = 11; break;
 1152              		.loc 4 309 0
 1153 005a 0B23     		movs	r3, #11
ARM GAS  C:\Users\tmj32\AppData\Local\Temp\ccHxR1NV.s 			page 39


 1154 005c FB73     		strb	r3, [r7, #15]
 1155 005e 0EE0     		b	.L52
 1156              	.L58:
 310:..\..\..\lvgl\version_6.1.2\lvgl\src\lv_draw/lv_draw_label.c ****         case 'C': result = 12; break;
 1157              		.loc 4 310 0
 1158 0060 0C23     		movs	r3, #12
 1159 0062 FB73     		strb	r3, [r7, #15]
 1160 0064 0BE0     		b	.L52
 1161              	.L59:
 311:..\..\..\lvgl\version_6.1.2\lvgl\src\lv_draw/lv_draw_label.c ****         case 'D': result = 13; break;
 1162              		.loc 4 311 0
 1163 0066 0D23     		movs	r3, #13
 1164 0068 FB73     		strb	r3, [r7, #15]
 1165 006a 08E0     		b	.L52
 1166              	.L60:
 312:..\..\..\lvgl\version_6.1.2\lvgl\src\lv_draw/lv_draw_label.c ****         case 'E': result = 14; break;
 1167              		.loc 4 312 0
 1168 006c 0E23     		movs	r3, #14
 1169 006e FB73     		strb	r3, [r7, #15]
 1170 0070 05E0     		b	.L52
 1171              	.L61:
 313:..\..\..\lvgl\version_6.1.2\lvgl\src\lv_draw/lv_draw_label.c ****         case 'F': result = 15; break;
 1172              		.loc 4 313 0
 1173 0072 0F23     		movs	r3, #15
 1174 0074 FB73     		strb	r3, [r7, #15]
 1175 0076 02E0     		b	.L52
 1176              	.L54:
 314:..\..\..\lvgl\version_6.1.2\lvgl\src\lv_draw/lv_draw_label.c ****         default: result = 0; break;
 1177              		.loc 4 314 0
 1178 0078 0023     		movs	r3, #0
 1179 007a FB73     		strb	r3, [r7, #15]
 1180 007c 00BF     		nop
 1181              	.L52:
 315:..\..\..\lvgl\version_6.1.2\lvgl\src\lv_draw/lv_draw_label.c ****         }
 316:..\..\..\lvgl\version_6.1.2\lvgl\src\lv_draw/lv_draw_label.c ****     }
 317:..\..\..\lvgl\version_6.1.2\lvgl\src\lv_draw/lv_draw_label.c **** 
 318:..\..\..\lvgl\version_6.1.2\lvgl\src\lv_draw/lv_draw_label.c ****     return result;
 1182              		.loc 4 318 0
 1183 007e FB7B     		ldrb	r3, [r7, #15]	@ zero_extendqisi2
 319:..\..\..\lvgl\version_6.1.2\lvgl\src\lv_draw/lv_draw_label.c **** }
 1184              		.loc 4 319 0
 1185 0080 1846     		mov	r0, r3
 1186 0082 1437     		adds	r7, r7, #20
 1187              		.cfi_def_cfa_offset 4
 1188 0084 BD46     		mov	sp, r7
 1189              		.cfi_def_cfa_register 13
 1190              		@ sp needed
 1191 0086 5DF8047B 		ldr	r7, [sp], #4
 1192              		.cfi_restore 7
 1193              		.cfi_def_cfa_offset 0
 1194 008a 7047     		bx	lr
 1195              		.cfi_endproc
 1196              	.LFE32:
 1197              		.size	hex_char_to_num, .-hex_char_to_num
 1198              		.text
 1199              	.Letext0:
 1200              		.file 5 "c:\\program files (x86)\\cypress\\psoc creator\\4.3\\psoc creator\\import\\gnu\\arm\\5.4.
ARM GAS  C:\Users\tmj32\AppData\Local\Temp\ccHxR1NV.s 			page 40


 1201              		.file 6 "c:\\program files (x86)\\cypress\\psoc creator\\4.3\\psoc creator\\import\\gnu\\arm\\5.4.
 1202              		.file 7 "..\\..\\..\\lvgl\\version_6.1.2\\lvgl\\src\\lv_draw\\../../../lv_conf.h"
 1203              		.file 8 "..\\..\\..\\lvgl\\version_6.1.2\\lvgl\\src\\lv_draw\\../lv_core/lv_style.h"
 1204              		.file 9 "..\\..\\..\\lvgl\\version_6.1.2\\lvgl\\src\\lv_draw\\../lv_misc/lv_txt.h"
 1205              		.file 10 "..\\..\\..\\lvgl\\version_6.1.2\\lvgl\\src\\lv_draw\\../lv_misc/lv_bidi.h"
 1206              		.file 11 "..\\..\\..\\lvgl\\version_6.1.2\\lvgl\\src\\lv_draw\\lv_draw_label.h"