ARM GAS  C:\Users\tmj32\AppData\Local\Temp\ccOfsiK2.s 			page 1


   1              		.syntax unified
   2              		.cpu cortex-m4
   3              		.eabi_attribute 27, 1
   4              		.fpu fpv4-sp-d16
   5              		.eabi_attribute 20, 1
   6              		.eabi_attribute 21, 1
   7              		.eabi_attribute 23, 3
   8              		.eabi_attribute 24, 1
   9              		.eabi_attribute 25, 1
  10              		.eabi_attribute 26, 1
  11              		.eabi_attribute 30, 6
  12              		.eabi_attribute 34, 1
  13              		.eabi_attribute 18, 4
  14              		.thumb
  15              		.syntax unified
  16              		.file	"lv_draw_arc.c"
  17              		.text
  18              	.Ltext0:
  19              		.cfi_sections	.debug_frame
  20              		.section	.text.lv_draw_arc,"ax",%progbits
  21              		.align	2
  22              		.global	lv_draw_arc
  23              		.thumb
  24              		.thumb_func
  25              		.type	lv_draw_arc, %function
  26              	lv_draw_arc:
  27              	.LFB31:
  28              		.file 1 "..\\..\\..\\lvgl\\version_6.1.2\\lvgl\\src\\lv_draw\\lv_draw_arc.c"
   1:..\..\..\lvgl\version_6.1.2\lvgl\src\lv_draw/lv_draw_arc.c **** /**
   2:..\..\..\lvgl\version_6.1.2\lvgl\src\lv_draw/lv_draw_arc.c ****  * @file lv_draw_arc.c
   3:..\..\..\lvgl\version_6.1.2\lvgl\src\lv_draw/lv_draw_arc.c ****  *
   4:..\..\..\lvgl\version_6.1.2\lvgl\src\lv_draw/lv_draw_arc.c ****  */
   5:..\..\..\lvgl\version_6.1.2\lvgl\src\lv_draw/lv_draw_arc.c **** 
   6:..\..\..\lvgl\version_6.1.2\lvgl\src\lv_draw/lv_draw_arc.c **** /*********************
   7:..\..\..\lvgl\version_6.1.2\lvgl\src\lv_draw/lv_draw_arc.c ****  *      INCLUDES
   8:..\..\..\lvgl\version_6.1.2\lvgl\src\lv_draw/lv_draw_arc.c ****  *********************/
   9:..\..\..\lvgl\version_6.1.2\lvgl\src\lv_draw/lv_draw_arc.c **** #include "lv_draw_arc.h"
  10:..\..\..\lvgl\version_6.1.2\lvgl\src\lv_draw/lv_draw_arc.c **** #include "../lv_misc/lv_math.h"
  11:..\..\..\lvgl\version_6.1.2\lvgl\src\lv_draw/lv_draw_arc.c **** 
  12:..\..\..\lvgl\version_6.1.2\lvgl\src\lv_draw/lv_draw_arc.c **** /*********************
  13:..\..\..\lvgl\version_6.1.2\lvgl\src\lv_draw/lv_draw_arc.c ****  *      DEFINES
  14:..\..\..\lvgl\version_6.1.2\lvgl\src\lv_draw/lv_draw_arc.c ****  *********************/
  15:..\..\..\lvgl\version_6.1.2\lvgl\src\lv_draw/lv_draw_arc.c **** 
  16:..\..\..\lvgl\version_6.1.2\lvgl\src\lv_draw/lv_draw_arc.c **** /**********************
  17:..\..\..\lvgl\version_6.1.2\lvgl\src\lv_draw/lv_draw_arc.c ****  *      TYPEDEFS
  18:..\..\..\lvgl\version_6.1.2\lvgl\src\lv_draw/lv_draw_arc.c ****  **********************/
  19:..\..\..\lvgl\version_6.1.2\lvgl\src\lv_draw/lv_draw_arc.c **** 
  20:..\..\..\lvgl\version_6.1.2\lvgl\src\lv_draw/lv_draw_arc.c **** /**********************
  21:..\..\..\lvgl\version_6.1.2\lvgl\src\lv_draw/lv_draw_arc.c ****  *  STATIC PROTOTYPES
  22:..\..\..\lvgl\version_6.1.2\lvgl\src\lv_draw/lv_draw_arc.c ****  **********************/
  23:..\..\..\lvgl\version_6.1.2\lvgl\src\lv_draw/lv_draw_arc.c **** static void ver_line(lv_coord_t x, lv_coord_t y, const lv_area_t * mask, lv_coord_t len, lv_color_t
  24:..\..\..\lvgl\version_6.1.2\lvgl\src\lv_draw/lv_draw_arc.c ****                      lv_opa_t opa);
  25:..\..\..\lvgl\version_6.1.2\lvgl\src\lv_draw/lv_draw_arc.c **** static void hor_line(lv_coord_t x, lv_coord_t y, const lv_area_t * mask, lv_coord_t len, lv_color_t
  26:..\..\..\lvgl\version_6.1.2\lvgl\src\lv_draw/lv_draw_arc.c ****                      lv_opa_t opa);
  27:..\..\..\lvgl\version_6.1.2\lvgl\src\lv_draw/lv_draw_arc.c **** static bool deg_test_norm(uint16_t deg, uint16_t start, uint16_t end);
  28:..\..\..\lvgl\version_6.1.2\lvgl\src\lv_draw/lv_draw_arc.c **** static bool deg_test_inv(uint16_t deg, uint16_t start, uint16_t end);
  29:..\..\..\lvgl\version_6.1.2\lvgl\src\lv_draw/lv_draw_arc.c **** 
ARM GAS  C:\Users\tmj32\AppData\Local\Temp\ccOfsiK2.s 			page 2


  30:..\..\..\lvgl\version_6.1.2\lvgl\src\lv_draw/lv_draw_arc.c **** /**********************
  31:..\..\..\lvgl\version_6.1.2\lvgl\src\lv_draw/lv_draw_arc.c ****  *  STATIC VARIABLES
  32:..\..\..\lvgl\version_6.1.2\lvgl\src\lv_draw/lv_draw_arc.c ****  **********************/
  33:..\..\..\lvgl\version_6.1.2\lvgl\src\lv_draw/lv_draw_arc.c **** 
  34:..\..\..\lvgl\version_6.1.2\lvgl\src\lv_draw/lv_draw_arc.c **** /**********************
  35:..\..\..\lvgl\version_6.1.2\lvgl\src\lv_draw/lv_draw_arc.c ****  *      MACROS
  36:..\..\..\lvgl\version_6.1.2\lvgl\src\lv_draw/lv_draw_arc.c ****  **********************/
  37:..\..\..\lvgl\version_6.1.2\lvgl\src\lv_draw/lv_draw_arc.c **** 
  38:..\..\..\lvgl\version_6.1.2\lvgl\src\lv_draw/lv_draw_arc.c **** /**********************
  39:..\..\..\lvgl\version_6.1.2\lvgl\src\lv_draw/lv_draw_arc.c ****  *   GLOBAL FUNCTIONS
  40:..\..\..\lvgl\version_6.1.2\lvgl\src\lv_draw/lv_draw_arc.c ****  **********************/
  41:..\..\..\lvgl\version_6.1.2\lvgl\src\lv_draw/lv_draw_arc.c **** 
  42:..\..\..\lvgl\version_6.1.2\lvgl\src\lv_draw/lv_draw_arc.c **** /**
  43:..\..\..\lvgl\version_6.1.2\lvgl\src\lv_draw/lv_draw_arc.c ****  * Draw an arc. (Can draw pie too with great thickness.)
  44:..\..\..\lvgl\version_6.1.2\lvgl\src\lv_draw/lv_draw_arc.c ****  * @param center_x the x coordinate of the center of the arc
  45:..\..\..\lvgl\version_6.1.2\lvgl\src\lv_draw/lv_draw_arc.c ****  * @param center_y the y coordinate of the center of the arc
  46:..\..\..\lvgl\version_6.1.2\lvgl\src\lv_draw/lv_draw_arc.c ****  * @param radius the radius of the arc
  47:..\..\..\lvgl\version_6.1.2\lvgl\src\lv_draw/lv_draw_arc.c ****  * @param mask the arc will be drawn only in this mask
  48:..\..\..\lvgl\version_6.1.2\lvgl\src\lv_draw/lv_draw_arc.c ****  * @param start_angle the start angle of the arc (0 deg on the bottom, 90 deg on the right)
  49:..\..\..\lvgl\version_6.1.2\lvgl\src\lv_draw/lv_draw_arc.c ****  * @param end_angle the end angle of the arc
  50:..\..\..\lvgl\version_6.1.2\lvgl\src\lv_draw/lv_draw_arc.c ****  * @param style style of the arc (`body.thickness`, `body.main_color`, `body.opa` is used)
  51:..\..\..\lvgl\version_6.1.2\lvgl\src\lv_draw/lv_draw_arc.c ****  * @param opa_scale scale down all opacities by the factor
  52:..\..\..\lvgl\version_6.1.2\lvgl\src\lv_draw/lv_draw_arc.c ****  */
  53:..\..\..\lvgl\version_6.1.2\lvgl\src\lv_draw/lv_draw_arc.c **** void lv_draw_arc(lv_coord_t center_x, lv_coord_t center_y, uint16_t radius, const lv_area_t * mask,
  54:..\..\..\lvgl\version_6.1.2\lvgl\src\lv_draw/lv_draw_arc.c ****                  uint16_t start_angle, uint16_t end_angle, const lv_style_t * style, lv_opa_t opa_s
  55:..\..\..\lvgl\version_6.1.2\lvgl\src\lv_draw/lv_draw_arc.c **** {
  29              		.loc 1 55 0
  30              		.cfi_startproc
  31              		@ args = 16, pretend = 0, frame = 80
  32              		@ frame_needed = 1, uses_anonymous_args = 0
  33 0000 80B5     		push	{r7, lr}
  34              		.cfi_def_cfa_offset 8
  35              		.cfi_offset 7, -8
  36              		.cfi_offset 14, -4
  37 0002 96B0     		sub	sp, sp, #88
  38              		.cfi_def_cfa_offset 96
  39 0004 02AF     		add	r7, sp, #8
  40              		.cfi_def_cfa 7, 88
  41 0006 7B60     		str	r3, [r7, #4]
  42 0008 0346     		mov	r3, r0	@ movhi
  43 000a FB81     		strh	r3, [r7, #14]	@ movhi
  44 000c 0B46     		mov	r3, r1	@ movhi
  45 000e BB81     		strh	r3, [r7, #12]	@ movhi
  46 0010 1346     		mov	r3, r2	@ movhi
  47 0012 7B81     		strh	r3, [r7, #10]	@ movhi
  56:..\..\..\lvgl\version_6.1.2\lvgl\src\lv_draw/lv_draw_arc.c ****     lv_coord_t thickness = style->line.width;
  48              		.loc 1 56 0
  49 0014 3B6E     		ldr	r3, [r7, #96]
  50 0016 B3F84C30 		ldrh	r3, [r3, #76]	@ movhi
  51 001a A7F84E30 		strh	r3, [r7, #78]	@ movhi
  57:..\..\..\lvgl\version_6.1.2\lvgl\src\lv_draw/lv_draw_arc.c ****     if(thickness > radius) thickness = radius;
  52              		.loc 1 57 0
  53 001e B7F94E20 		ldrsh	r2, [r7, #78]
  54 0022 7B89     		ldrh	r3, [r7, #10]
  55 0024 9A42     		cmp	r2, r3
  56 0026 02DD     		ble	.L2
  57              		.loc 1 57 0 is_stmt 0 discriminator 1
ARM GAS  C:\Users\tmj32\AppData\Local\Temp\ccOfsiK2.s 			page 3


  58 0028 7B89     		ldrh	r3, [r7, #10]	@ movhi
  59 002a A7F84E30 		strh	r3, [r7, #78]	@ movhi
  60              	.L2:
  58:..\..\..\lvgl\version_6.1.2\lvgl\src\lv_draw/lv_draw_arc.c **** 
  59:..\..\..\lvgl\version_6.1.2\lvgl\src\lv_draw/lv_draw_arc.c **** #if LV_ANTIALIAS
  60:..\..\..\lvgl\version_6.1.2\lvgl\src\lv_draw/lv_draw_arc.c ****     thickness--;
  61:..\..\..\lvgl\version_6.1.2\lvgl\src\lv_draw/lv_draw_arc.c ****     radius--;
  62:..\..\..\lvgl\version_6.1.2\lvgl\src\lv_draw/lv_draw_arc.c **** #endif
  63:..\..\..\lvgl\version_6.1.2\lvgl\src\lv_draw/lv_draw_arc.c **** 
  64:..\..\..\lvgl\version_6.1.2\lvgl\src\lv_draw/lv_draw_arc.c ****     lv_coord_t r_out = radius;
  61              		.loc 1 64 0 is_stmt 1
  62 002e 7B89     		ldrh	r3, [r7, #10]	@ movhi
  63 0030 FB87     		strh	r3, [r7, #62]	@ movhi
  65:..\..\..\lvgl\version_6.1.2\lvgl\src\lv_draw/lv_draw_arc.c ****     lv_coord_t r_in  = r_out - thickness;
  64              		.loc 1 65 0
  65 0032 FA8F     		ldrh	r2, [r7, #62]
  66 0034 B7F84E30 		ldrh	r3, [r7, #78]
  67 0038 D31A     		subs	r3, r2, r3
  68 003a 9BB2     		uxth	r3, r3
  69 003c BB87     		strh	r3, [r7, #60]	@ movhi
  66:..\..\..\lvgl\version_6.1.2\lvgl\src\lv_draw/lv_draw_arc.c ****     int16_t deg_base;
  67:..\..\..\lvgl\version_6.1.2\lvgl\src\lv_draw/lv_draw_arc.c ****     int16_t deg;
  68:..\..\..\lvgl\version_6.1.2\lvgl\src\lv_draw/lv_draw_arc.c ****     lv_coord_t x_start[4];
  69:..\..\..\lvgl\version_6.1.2\lvgl\src\lv_draw/lv_draw_arc.c ****     lv_coord_t x_end[4];
  70:..\..\..\lvgl\version_6.1.2\lvgl\src\lv_draw/lv_draw_arc.c **** 
  71:..\..\..\lvgl\version_6.1.2\lvgl\src\lv_draw/lv_draw_arc.c ****     lv_color_t color = style->line.color;
  70              		.loc 1 71 0
  71 003e 3B6E     		ldr	r3, [r7, #96]
  72 0040 9B6C     		ldr	r3, [r3, #72]
  73 0042 3B61     		str	r3, [r7, #16]
  72:..\..\..\lvgl\version_6.1.2\lvgl\src\lv_draw/lv_draw_arc.c ****     lv_opa_t opa = opa_scale == LV_OPA_COVER ? style->body.opa : (uint16_t)((uint16_t)style->body.o
  74              		.loc 1 72 0
  75 0044 97F86430 		ldrb	r3, [r7, #100]	@ zero_extendqisi2
  76 0048 FF2B     		cmp	r3, #255
  77 004a 02D1     		bne	.L3
  78              		.loc 1 72 0 is_stmt 0 discriminator 1
  79 004c 3B6E     		ldr	r3, [r7, #96]
  80 004e 9B7B     		ldrb	r3, [r3, #14]	@ zero_extendqisi2
  81 0050 0BE0     		b	.L4
  82              	.L3:
  83              		.loc 1 72 0 discriminator 2
  84 0052 3B6E     		ldr	r3, [r7, #96]
  85 0054 9B7B     		ldrb	r3, [r3, #14]	@ zero_extendqisi2
  86 0056 9AB2     		uxth	r2, r3
  87 0058 97F86430 		ldrb	r3, [r7, #100]	@ zero_extendqisi2
  88 005c 9BB2     		uxth	r3, r3
  89 005e 12FB03F3 		smulbb	r3, r2, r3
  90 0062 9BB2     		uxth	r3, r3
  91 0064 1B0A     		lsrs	r3, r3, #8
  92 0066 9BB2     		uxth	r3, r3
  93 0068 DBB2     		uxtb	r3, r3
  94              	.L4:
  95              		.loc 1 72 0 discriminator 4
  96 006a 87F83B30 		strb	r3, [r7, #59]
  73:..\..\..\lvgl\version_6.1.2\lvgl\src\lv_draw/lv_draw_arc.c **** 
  74:..\..\..\lvgl\version_6.1.2\lvgl\src\lv_draw/lv_draw_arc.c ****     bool (*deg_test)(uint16_t, uint16_t, uint16_t);
  75:..\..\..\lvgl\version_6.1.2\lvgl\src\lv_draw/lv_draw_arc.c ****     if(start_angle <= end_angle)
ARM GAS  C:\Users\tmj32\AppData\Local\Temp\ccOfsiK2.s 			page 4


  97              		.loc 1 75 0 is_stmt 1 discriminator 4
  98 006e B7F85820 		ldrh	r2, [r7, #88]
  99 0072 B7F85C30 		ldrh	r3, [r7, #92]
 100 0076 9A42     		cmp	r2, r3
 101 0078 02D8     		bhi	.L5
  76:..\..\..\lvgl\version_6.1.2\lvgl\src\lv_draw/lv_draw_arc.c ****         deg_test = deg_test_norm;
 102              		.loc 1 76 0
 103 007a B24B     		ldr	r3, .L39
 104 007c BB64     		str	r3, [r7, #72]
 105 007e 01E0     		b	.L6
 106              	.L5:
  77:..\..\..\lvgl\version_6.1.2\lvgl\src\lv_draw/lv_draw_arc.c ****     else
  78:..\..\..\lvgl\version_6.1.2\lvgl\src\lv_draw/lv_draw_arc.c ****         deg_test = deg_test_inv;
 107              		.loc 1 78 0
 108 0080 B14B     		ldr	r3, .L39+4
 109 0082 BB64     		str	r3, [r7, #72]
 110              	.L6:
  79:..\..\..\lvgl\version_6.1.2\lvgl\src\lv_draw/lv_draw_arc.c **** 
  80:..\..\..\lvgl\version_6.1.2\lvgl\src\lv_draw/lv_draw_arc.c ****     int middle_r_out = r_out;
 111              		.loc 1 80 0
 112 0084 B7F93E30 		ldrsh	r3, [r7, #62]
 113 0088 7B63     		str	r3, [r7, #52]
  81:..\..\..\lvgl\version_6.1.2\lvgl\src\lv_draw/lv_draw_arc.c **** #if !LV_ANTIALIAS
  82:..\..\..\lvgl\version_6.1.2\lvgl\src\lv_draw/lv_draw_arc.c ****     thickness--;
 114              		.loc 1 82 0
 115 008a B7F94E30 		ldrsh	r3, [r7, #78]
 116 008e 9BB2     		uxth	r3, r3
 117 0090 013B     		subs	r3, r3, #1
 118 0092 9BB2     		uxth	r3, r3
 119 0094 A7F84E30 		strh	r3, [r7, #78]	@ movhi
  83:..\..\..\lvgl\version_6.1.2\lvgl\src\lv_draw/lv_draw_arc.c ****     middle_r_out = r_out - 1;
 120              		.loc 1 83 0
 121 0098 B7F93E30 		ldrsh	r3, [r7, #62]
 122 009c 013B     		subs	r3, r3, #1
 123 009e 7B63     		str	r3, [r7, #52]
  84:..\..\..\lvgl\version_6.1.2\lvgl\src\lv_draw/lv_draw_arc.c **** #endif
  85:..\..\..\lvgl\version_6.1.2\lvgl\src\lv_draw/lv_draw_arc.c ****     if(deg_test(270, start_angle, end_angle))
 124              		.loc 1 85 0
 125 00a0 B7F85C20 		ldrh	r2, [r7, #92]
 126 00a4 B7F85810 		ldrh	r1, [r7, #88]
 127 00a8 BB6C     		ldr	r3, [r7, #72]
 128 00aa 4FF48770 		mov	r0, #270
 129 00ae 9847     		blx	r3
 130 00b0 0346     		mov	r3, r0
 131 00b2 002B     		cmp	r3, #0
 132 00b4 12D0     		beq	.L7
  86:..\..\..\lvgl\version_6.1.2\lvgl\src\lv_draw/lv_draw_arc.c ****         hor_line(center_x - middle_r_out, center_y, mask, thickness, color, opa); /*Left Middle*/
 133              		.loc 1 86 0
 134 00b6 FA89     		ldrh	r2, [r7, #14]
 135 00b8 7B6B     		ldr	r3, [r7, #52]
 136 00ba 9BB2     		uxth	r3, r3
 137 00bc D31A     		subs	r3, r2, r3
 138 00be 9BB2     		uxth	r3, r3
 139 00c0 18B2     		sxth	r0, r3
 140 00c2 B7F94E20 		ldrsh	r2, [r7, #78]
 141 00c6 B7F90C10 		ldrsh	r1, [r7, #12]
 142 00ca 97F83B30 		ldrb	r3, [r7, #59]	@ zero_extendqisi2
ARM GAS  C:\Users\tmj32\AppData\Local\Temp\ccOfsiK2.s 			page 5


 143 00ce 0193     		str	r3, [sp, #4]
 144 00d0 3B69     		ldr	r3, [r7, #16]
 145 00d2 0093     		str	r3, [sp]
 146 00d4 1346     		mov	r3, r2
 147 00d6 7A68     		ldr	r2, [r7, #4]
 148 00d8 FFF7FEFF 		bl	hor_line
 149              	.L7:
  87:..\..\..\lvgl\version_6.1.2\lvgl\src\lv_draw/lv_draw_arc.c ****     if(deg_test(90, start_angle, end_angle))
 150              		.loc 1 87 0
 151 00dc B7F85C20 		ldrh	r2, [r7, #92]
 152 00e0 B7F85810 		ldrh	r1, [r7, #88]
 153 00e4 BB6C     		ldr	r3, [r7, #72]
 154 00e6 5A20     		movs	r0, #90
 155 00e8 9847     		blx	r3
 156 00ea 0346     		mov	r3, r0
 157 00ec 002B     		cmp	r3, #0
 158 00ee 11D0     		beq	.L8
  88:..\..\..\lvgl\version_6.1.2\lvgl\src\lv_draw/lv_draw_arc.c ****         hor_line(center_x + r_in, center_y, mask, thickness, color, opa); /*Right Middle*/
 159              		.loc 1 88 0
 160 00f0 FA89     		ldrh	r2, [r7, #14]
 161 00f2 BB8F     		ldrh	r3, [r7, #60]
 162 00f4 1344     		add	r3, r3, r2
 163 00f6 9BB2     		uxth	r3, r3
 164 00f8 18B2     		sxth	r0, r3
 165 00fa B7F94E20 		ldrsh	r2, [r7, #78]
 166 00fe B7F90C10 		ldrsh	r1, [r7, #12]
 167 0102 97F83B30 		ldrb	r3, [r7, #59]	@ zero_extendqisi2
 168 0106 0193     		str	r3, [sp, #4]
 169 0108 3B69     		ldr	r3, [r7, #16]
 170 010a 0093     		str	r3, [sp]
 171 010c 1346     		mov	r3, r2
 172 010e 7A68     		ldr	r2, [r7, #4]
 173 0110 FFF7FEFF 		bl	hor_line
 174              	.L8:
  89:..\..\..\lvgl\version_6.1.2\lvgl\src\lv_draw/lv_draw_arc.c ****     if(deg_test(180, start_angle, end_angle))
 175              		.loc 1 89 0
 176 0114 B7F85C20 		ldrh	r2, [r7, #92]
 177 0118 B7F85810 		ldrh	r1, [r7, #88]
 178 011c BB6C     		ldr	r3, [r7, #72]
 179 011e B420     		movs	r0, #180
 180 0120 9847     		blx	r3
 181 0122 0346     		mov	r3, r0
 182 0124 002B     		cmp	r3, #0
 183 0126 12D0     		beq	.L9
  90:..\..\..\lvgl\version_6.1.2\lvgl\src\lv_draw/lv_draw_arc.c ****         ver_line(center_x, center_y - middle_r_out, mask, thickness, color, opa); /*Top Middle*/
 184              		.loc 1 90 0
 185 0128 BA89     		ldrh	r2, [r7, #12]
 186 012a 7B6B     		ldr	r3, [r7, #52]
 187 012c 9BB2     		uxth	r3, r3
 188 012e D31A     		subs	r3, r2, r3
 189 0130 9BB2     		uxth	r3, r3
 190 0132 19B2     		sxth	r1, r3
 191 0134 B7F94E20 		ldrsh	r2, [r7, #78]
 192 0138 B7F90E00 		ldrsh	r0, [r7, #14]
 193 013c 97F83B30 		ldrb	r3, [r7, #59]	@ zero_extendqisi2
 194 0140 0193     		str	r3, [sp, #4]
 195 0142 3B69     		ldr	r3, [r7, #16]
ARM GAS  C:\Users\tmj32\AppData\Local\Temp\ccOfsiK2.s 			page 6


 196 0144 0093     		str	r3, [sp]
 197 0146 1346     		mov	r3, r2
 198 0148 7A68     		ldr	r2, [r7, #4]
 199 014a FFF7FEFF 		bl	ver_line
 200              	.L9:
  91:..\..\..\lvgl\version_6.1.2\lvgl\src\lv_draw/lv_draw_arc.c ****     if(deg_test(0, start_angle, end_angle))
 201              		.loc 1 91 0
 202 014e B7F85C20 		ldrh	r2, [r7, #92]
 203 0152 B7F85810 		ldrh	r1, [r7, #88]
 204 0156 BB6C     		ldr	r3, [r7, #72]
 205 0158 0020     		movs	r0, #0
 206 015a 9847     		blx	r3
 207 015c 0346     		mov	r3, r0
 208 015e 002B     		cmp	r3, #0
 209 0160 11D0     		beq	.L10
  92:..\..\..\lvgl\version_6.1.2\lvgl\src\lv_draw/lv_draw_arc.c ****         ver_line(center_x, center_y + r_in, mask, thickness, color, opa); /*Bottom middle*/
 210              		.loc 1 92 0
 211 0162 BA89     		ldrh	r2, [r7, #12]
 212 0164 BB8F     		ldrh	r3, [r7, #60]
 213 0166 1344     		add	r3, r3, r2
 214 0168 9BB2     		uxth	r3, r3
 215 016a 19B2     		sxth	r1, r3
 216 016c B7F94E20 		ldrsh	r2, [r7, #78]
 217 0170 B7F90E00 		ldrsh	r0, [r7, #14]
 218 0174 97F83B30 		ldrb	r3, [r7, #59]	@ zero_extendqisi2
 219 0178 0193     		str	r3, [sp, #4]
 220 017a 3B69     		ldr	r3, [r7, #16]
 221 017c 0093     		str	r3, [sp]
 222 017e 1346     		mov	r3, r2
 223 0180 7A68     		ldr	r2, [r7, #4]
 224 0182 FFF7FEFF 		bl	ver_line
 225              	.L10:
  93:..\..\..\lvgl\version_6.1.2\lvgl\src\lv_draw/lv_draw_arc.c **** 
  94:..\..\..\lvgl\version_6.1.2\lvgl\src\lv_draw/lv_draw_arc.c ****     uint32_t r_out_sqr = r_out * r_out;
 226              		.loc 1 94 0
 227 0186 B7F93E30 		ldrsh	r3, [r7, #62]
 228 018a B7F93E20 		ldrsh	r2, [r7, #62]
 229 018e 02FB03F3 		mul	r3, r2, r3
 230 0192 3B63     		str	r3, [r7, #48]
  95:..\..\..\lvgl\version_6.1.2\lvgl\src\lv_draw/lv_draw_arc.c ****     uint32_t r_in_sqr  = r_in * r_in;
 231              		.loc 1 95 0
 232 0194 B7F93C30 		ldrsh	r3, [r7, #60]
 233 0198 B7F93C20 		ldrsh	r2, [r7, #60]
 234 019c 02FB03F3 		mul	r3, r2, r3
 235 01a0 FB62     		str	r3, [r7, #44]
  96:..\..\..\lvgl\version_6.1.2\lvgl\src\lv_draw/lv_draw_arc.c **** #if LV_ANTIALIAS
  97:..\..\..\lvgl\version_6.1.2\lvgl\src\lv_draw/lv_draw_arc.c ****     uint32_t r_out_aa_sqr = (r_out + 1) * (r_out + 1);
  98:..\..\..\lvgl\version_6.1.2\lvgl\src\lv_draw/lv_draw_arc.c ****     uint32_t r_in_aa_sqr  = (r_in - 1) * (r_in - 1);
  99:..\..\..\lvgl\version_6.1.2\lvgl\src\lv_draw/lv_draw_arc.c **** #endif
 100:..\..\..\lvgl\version_6.1.2\lvgl\src\lv_draw/lv_draw_arc.c ****     int16_t xi;
 101:..\..\..\lvgl\version_6.1.2\lvgl\src\lv_draw/lv_draw_arc.c ****     int16_t yi;
 102:..\..\..\lvgl\version_6.1.2\lvgl\src\lv_draw/lv_draw_arc.c ****     for(yi = -r_out; yi < 0; yi++) {
 236              		.loc 1 102 0
 237 01a2 FB8F     		ldrh	r3, [r7, #62]
 238 01a4 5B42     		negs	r3, r3
 239 01a6 9BB2     		uxth	r3, r3
 240 01a8 A7F84430 		strh	r3, [r7, #68]	@ movhi
ARM GAS  C:\Users\tmj32\AppData\Local\Temp\ccOfsiK2.s 			page 7


 241 01ac BAE1     		b	.L11
 242              	.L37:
 243              	.LBB2:
 103:..\..\..\lvgl\version_6.1.2\lvgl\src\lv_draw/lv_draw_arc.c ****         x_start[0] = LV_COORD_MIN;
 244              		.loc 1 103 0
 245 01ae 48F2E833 		movw	r3, #33768
 246 01b2 BB83     		strh	r3, [r7, #28]	@ movhi
 104:..\..\..\lvgl\version_6.1.2\lvgl\src\lv_draw/lv_draw_arc.c ****         x_start[1] = LV_COORD_MIN;
 247              		.loc 1 104 0
 248 01b4 48F2E833 		movw	r3, #33768
 249 01b8 FB83     		strh	r3, [r7, #30]	@ movhi
 105:..\..\..\lvgl\version_6.1.2\lvgl\src\lv_draw/lv_draw_arc.c ****         x_start[2] = LV_COORD_MIN;
 250              		.loc 1 105 0
 251 01ba 48F2E833 		movw	r3, #33768
 252 01be 3B84     		strh	r3, [r7, #32]	@ movhi
 106:..\..\..\lvgl\version_6.1.2\lvgl\src\lv_draw/lv_draw_arc.c ****         x_start[3] = LV_COORD_MIN;
 253              		.loc 1 106 0
 254 01c0 48F2E833 		movw	r3, #33768
 255 01c4 7B84     		strh	r3, [r7, #34]	@ movhi
 107:..\..\..\lvgl\version_6.1.2\lvgl\src\lv_draw/lv_draw_arc.c ****         x_end[0]   = LV_COORD_MIN;
 256              		.loc 1 107 0
 257 01c6 48F2E833 		movw	r3, #33768
 258 01ca BB82     		strh	r3, [r7, #20]	@ movhi
 108:..\..\..\lvgl\version_6.1.2\lvgl\src\lv_draw/lv_draw_arc.c ****         x_end[1]   = LV_COORD_MIN;
 259              		.loc 1 108 0
 260 01cc 48F2E833 		movw	r3, #33768
 261 01d0 FB82     		strh	r3, [r7, #22]	@ movhi
 109:..\..\..\lvgl\version_6.1.2\lvgl\src\lv_draw/lv_draw_arc.c ****         x_end[2]   = LV_COORD_MIN;
 262              		.loc 1 109 0
 263 01d2 48F2E833 		movw	r3, #33768
 264 01d6 3B83     		strh	r3, [r7, #24]	@ movhi
 110:..\..\..\lvgl\version_6.1.2\lvgl\src\lv_draw/lv_draw_arc.c ****         x_end[3]   = LV_COORD_MIN;
 265              		.loc 1 110 0
 266 01d8 48F2E833 		movw	r3, #33768
 267 01dc 7B83     		strh	r3, [r7, #26]	@ movhi
 111:..\..\..\lvgl\version_6.1.2\lvgl\src\lv_draw/lv_draw_arc.c ****         int xe     = 0;
 268              		.loc 1 111 0
 269 01de 0023     		movs	r3, #0
 270 01e0 3B64     		str	r3, [r7, #64]
 112:..\..\..\lvgl\version_6.1.2\lvgl\src\lv_draw/lv_draw_arc.c ****         for(xi = -r_out; xi < 0; xi++) {
 271              		.loc 1 112 0
 272 01e2 FB8F     		ldrh	r3, [r7, #62]
 273 01e4 5B42     		negs	r3, r3
 274 01e6 9BB2     		uxth	r3, r3
 275 01e8 A7F84630 		strh	r3, [r7, #70]	@ movhi
 276 01ec D0E0     		b	.L12
 277              	.L28:
 278              	.LBB3:
 113:..\..\..\lvgl\version_6.1.2\lvgl\src\lv_draw/lv_draw_arc.c **** 
 114:..\..\..\lvgl\version_6.1.2\lvgl\src\lv_draw/lv_draw_arc.c ****             uint32_t r_act_sqr = xi * xi + yi * yi;
 279              		.loc 1 114 0
 280 01ee B7F94630 		ldrsh	r3, [r7, #70]
 281 01f2 B7F94620 		ldrsh	r2, [r7, #70]
 282 01f6 02FB03F2 		mul	r2, r2, r3
 283 01fa B7F94430 		ldrsh	r3, [r7, #68]
 284 01fe B7F94410 		ldrsh	r1, [r7, #68]
 285 0202 01FB03F3 		mul	r3, r1, r3
ARM GAS  C:\Users\tmj32\AppData\Local\Temp\ccOfsiK2.s 			page 8


 286 0206 1344     		add	r3, r3, r2
 287 0208 BB62     		str	r3, [r7, #40]
 115:..\..\..\lvgl\version_6.1.2\lvgl\src\lv_draw/lv_draw_arc.c **** #if LV_ANTIALIAS
 116:..\..\..\lvgl\version_6.1.2\lvgl\src\lv_draw/lv_draw_arc.c ****             if(r_act_sqr > r_out_aa_sqr) {
 117:..\..\..\lvgl\version_6.1.2\lvgl\src\lv_draw/lv_draw_arc.c ****                 continue;
 118:..\..\..\lvgl\version_6.1.2\lvgl\src\lv_draw/lv_draw_arc.c ****             }
 119:..\..\..\lvgl\version_6.1.2\lvgl\src\lv_draw/lv_draw_arc.c **** #else
 120:..\..\..\lvgl\version_6.1.2\lvgl\src\lv_draw/lv_draw_arc.c ****             if(r_act_sqr > r_out_sqr) continue;
 288              		.loc 1 120 0
 289 020a BA6A     		ldr	r2, [r7, #40]
 290 020c 3B6B     		ldr	r3, [r7, #48]
 291 020e 9A42     		cmp	r2, r3
 292 0210 00F2B680 		bhi	.L38
 121:..\..\..\lvgl\version_6.1.2\lvgl\src\lv_draw/lv_draw_arc.c **** #endif
 122:..\..\..\lvgl\version_6.1.2\lvgl\src\lv_draw/lv_draw_arc.c **** 
 123:..\..\..\lvgl\version_6.1.2\lvgl\src\lv_draw/lv_draw_arc.c ****             deg_base = lv_atan2(xi, yi) - 180;
 293              		.loc 1 123 0
 294 0214 B7F94630 		ldrsh	r3, [r7, #70]
 295 0218 B7F94420 		ldrsh	r2, [r7, #68]
 296 021c 1146     		mov	r1, r2
 297 021e 1846     		mov	r0, r3
 298 0220 FFF7FEFF 		bl	lv_atan2
 299 0224 0346     		mov	r3, r0
 300 0226 B43B     		subs	r3, r3, #180
 301 0228 9BB2     		uxth	r3, r3
 302 022a FB84     		strh	r3, [r7, #38]	@ movhi
 124:..\..\..\lvgl\version_6.1.2\lvgl\src\lv_draw/lv_draw_arc.c **** 
 125:..\..\..\lvgl\version_6.1.2\lvgl\src\lv_draw/lv_draw_arc.c **** #if LV_ANTIALIAS
 126:..\..\..\lvgl\version_6.1.2\lvgl\src\lv_draw/lv_draw_arc.c ****             int opa2 = -1;
 127:..\..\..\lvgl\version_6.1.2\lvgl\src\lv_draw/lv_draw_arc.c ****             if(r_act_sqr > r_out_sqr) {
 128:..\..\..\lvgl\version_6.1.2\lvgl\src\lv_draw/lv_draw_arc.c ****                 opa2 = LV_OPA_100 * (r_out + 1) - lv_sqrt(LV_OPA_100 * LV_OPA_100 * r_act_sqr);
 129:..\..\..\lvgl\version_6.1.2\lvgl\src\lv_draw/lv_draw_arc.c ****                 if(opa2 < LV_OPA_0)
 130:..\..\..\lvgl\version_6.1.2\lvgl\src\lv_draw/lv_draw_arc.c ****                     opa2 = LV_OPA_0;
 131:..\..\..\lvgl\version_6.1.2\lvgl\src\lv_draw/lv_draw_arc.c ****                 else if(opa2 > LV_OPA_100)
 132:..\..\..\lvgl\version_6.1.2\lvgl\src\lv_draw/lv_draw_arc.c ****                     opa2 = LV_OPA_100;
 133:..\..\..\lvgl\version_6.1.2\lvgl\src\lv_draw/lv_draw_arc.c ****             } else if(r_act_sqr < r_in_sqr) {
 134:..\..\..\lvgl\version_6.1.2\lvgl\src\lv_draw/lv_draw_arc.c ****                 if(xe == 0) xe = xi;
 135:..\..\..\lvgl\version_6.1.2\lvgl\src\lv_draw/lv_draw_arc.c ****                 opa2 = lv_sqrt(LV_OPA_100 * LV_OPA_100 * r_act_sqr) - LV_OPA_100 * (r_in - 1);
 136:..\..\..\lvgl\version_6.1.2\lvgl\src\lv_draw/lv_draw_arc.c ****                 if(opa2 < LV_OPA_0)
 137:..\..\..\lvgl\version_6.1.2\lvgl\src\lv_draw/lv_draw_arc.c ****                     opa2 = LV_OPA_0;
 138:..\..\..\lvgl\version_6.1.2\lvgl\src\lv_draw/lv_draw_arc.c ****                 else if(opa2 > LV_OPA_100)
 139:..\..\..\lvgl\version_6.1.2\lvgl\src\lv_draw/lv_draw_arc.c ****                     opa2 = LV_OPA_100;
 140:..\..\..\lvgl\version_6.1.2\lvgl\src\lv_draw/lv_draw_arc.c ****                 if(r_act_sqr < r_in_aa_sqr)
 141:..\..\..\lvgl\version_6.1.2\lvgl\src\lv_draw/lv_draw_arc.c ****                     break; /*No need to continue the iteration in x once we found the inner edge of
 142:..\..\..\lvgl\version_6.1.2\lvgl\src\lv_draw/lv_draw_arc.c ****                               arc*/
 143:..\..\..\lvgl\version_6.1.2\lvgl\src\lv_draw/lv_draw_arc.c ****             }
 144:..\..\..\lvgl\version_6.1.2\lvgl\src\lv_draw/lv_draw_arc.c ****             if(opa2 != -1) {
 145:..\..\..\lvgl\version_6.1.2\lvgl\src\lv_draw/lv_draw_arc.c ****                 if(deg_test(180 + deg_base, start_angle, end_angle)) {
 146:..\..\..\lvgl\version_6.1.2\lvgl\src\lv_draw/lv_draw_arc.c ****                     lv_draw_px(center_x + xi, center_y + yi, mask, color, opa2);
 147:..\..\..\lvgl\version_6.1.2\lvgl\src\lv_draw/lv_draw_arc.c ****                 }
 148:..\..\..\lvgl\version_6.1.2\lvgl\src\lv_draw/lv_draw_arc.c ****                 if(deg_test(360 - deg_base, start_angle, end_angle)) {
 149:..\..\..\lvgl\version_6.1.2\lvgl\src\lv_draw/lv_draw_arc.c ****                     lv_draw_px(center_x + xi, center_y - yi, mask, color, opa2);
 150:..\..\..\lvgl\version_6.1.2\lvgl\src\lv_draw/lv_draw_arc.c ****                 }
 151:..\..\..\lvgl\version_6.1.2\lvgl\src\lv_draw/lv_draw_arc.c ****                 if(deg_test(180 - deg_base, start_angle, end_angle)) {
 152:..\..\..\lvgl\version_6.1.2\lvgl\src\lv_draw/lv_draw_arc.c ****                     lv_draw_px(center_x - xi, center_y + yi, mask, color, opa2);
 153:..\..\..\lvgl\version_6.1.2\lvgl\src\lv_draw/lv_draw_arc.c ****                 }
 154:..\..\..\lvgl\version_6.1.2\lvgl\src\lv_draw/lv_draw_arc.c ****                 if(deg_test(deg_base, start_angle, end_angle)) {
ARM GAS  C:\Users\tmj32\AppData\Local\Temp\ccOfsiK2.s 			page 9


 155:..\..\..\lvgl\version_6.1.2\lvgl\src\lv_draw/lv_draw_arc.c ****                     lv_draw_px(center_x - xi, center_y - yi, mask, color, opa2);
 156:..\..\..\lvgl\version_6.1.2\lvgl\src\lv_draw/lv_draw_arc.c ****                 }
 157:..\..\..\lvgl\version_6.1.2\lvgl\src\lv_draw/lv_draw_arc.c ****                 continue;
 158:..\..\..\lvgl\version_6.1.2\lvgl\src\lv_draw/lv_draw_arc.c ****             }
 159:..\..\..\lvgl\version_6.1.2\lvgl\src\lv_draw/lv_draw_arc.c **** #endif
 160:..\..\..\lvgl\version_6.1.2\lvgl\src\lv_draw/lv_draw_arc.c **** 
 161:..\..\..\lvgl\version_6.1.2\lvgl\src\lv_draw/lv_draw_arc.c ****             deg = 180 + deg_base;
 303              		.loc 1 161 0
 304 022c FB8C     		ldrh	r3, [r7, #38]
 305 022e B433     		adds	r3, r3, #180
 306 0230 9BB2     		uxth	r3, r3
 307 0232 BB84     		strh	r3, [r7, #36]	@ movhi
 162:..\..\..\lvgl\version_6.1.2\lvgl\src\lv_draw/lv_draw_arc.c ****             if(deg_test(deg, start_angle, end_angle)) {
 308              		.loc 1 162 0
 309 0234 B88C     		ldrh	r0, [r7, #36]
 310 0236 B7F85C20 		ldrh	r2, [r7, #92]
 311 023a B7F85810 		ldrh	r1, [r7, #88]
 312 023e BB6C     		ldr	r3, [r7, #72]
 313 0240 9847     		blx	r3
 314 0242 0346     		mov	r3, r0
 315 0244 002B     		cmp	r3, #0
 316 0246 08D0     		beq	.L15
 163:..\..\..\lvgl\version_6.1.2\lvgl\src\lv_draw/lv_draw_arc.c ****                 if(x_start[0] == LV_COORD_MIN) x_start[0] = xi;
 317              		.loc 1 163 0
 318 0248 B7F91C30 		ldrsh	r3, [r7, #28]
 319 024c 3F4A     		ldr	r2, .L39+8
 320 024e 9342     		cmp	r3, r2
 321 0250 13D1     		bne	.L17
 322              		.loc 1 163 0 is_stmt 0 discriminator 1
 323 0252 B7F84630 		ldrh	r3, [r7, #70]	@ movhi
 324 0256 BB83     		strh	r3, [r7, #28]	@ movhi
 325 0258 0FE0     		b	.L17
 326              	.L15:
 164:..\..\..\lvgl\version_6.1.2\lvgl\src\lv_draw/lv_draw_arc.c ****             } else if(x_start[0] != LV_COORD_MIN && x_end[0] == LV_COORD_MIN) {
 327              		.loc 1 164 0 is_stmt 1
 328 025a B7F91C30 		ldrsh	r3, [r7, #28]
 329 025e 3B4A     		ldr	r2, .L39+8
 330 0260 9342     		cmp	r3, r2
 331 0262 0AD0     		beq	.L17
 332              		.loc 1 164 0 is_stmt 0 discriminator 1
 333 0264 B7F91430 		ldrsh	r3, [r7, #20]
 334 0268 384A     		ldr	r2, .L39+8
 335 026a 9342     		cmp	r3, r2
 336 026c 05D1     		bne	.L17
 165:..\..\..\lvgl\version_6.1.2\lvgl\src\lv_draw/lv_draw_arc.c ****                 x_end[0] = xi - 1;
 337              		.loc 1 165 0 is_stmt 1
 338 026e B7F84630 		ldrh	r3, [r7, #70]
 339 0272 013B     		subs	r3, r3, #1
 340 0274 9BB2     		uxth	r3, r3
 341 0276 1BB2     		sxth	r3, r3
 342 0278 BB82     		strh	r3, [r7, #20]	@ movhi
 343              	.L17:
 166:..\..\..\lvgl\version_6.1.2\lvgl\src\lv_draw/lv_draw_arc.c ****             }
 167:..\..\..\lvgl\version_6.1.2\lvgl\src\lv_draw/lv_draw_arc.c **** 
 168:..\..\..\lvgl\version_6.1.2\lvgl\src\lv_draw/lv_draw_arc.c ****             deg = 360 - deg_base;
 344              		.loc 1 168 0
 345 027a FB8C     		ldrh	r3, [r7, #38]
ARM GAS  C:\Users\tmj32\AppData\Local\Temp\ccOfsiK2.s 			page 10


 346 027c C3F5B473 		rsb	r3, r3, #360
 347 0280 9BB2     		uxth	r3, r3
 348 0282 BB84     		strh	r3, [r7, #36]	@ movhi
 169:..\..\..\lvgl\version_6.1.2\lvgl\src\lv_draw/lv_draw_arc.c ****             if(deg_test(deg, start_angle, end_angle)) {
 349              		.loc 1 169 0
 350 0284 B88C     		ldrh	r0, [r7, #36]
 351 0286 B7F85C20 		ldrh	r2, [r7, #92]
 352 028a B7F85810 		ldrh	r1, [r7, #88]
 353 028e BB6C     		ldr	r3, [r7, #72]
 354 0290 9847     		blx	r3
 355 0292 0346     		mov	r3, r0
 356 0294 002B     		cmp	r3, #0
 357 0296 08D0     		beq	.L18
 170:..\..\..\lvgl\version_6.1.2\lvgl\src\lv_draw/lv_draw_arc.c ****                 if(x_start[1] == LV_COORD_MIN) x_start[1] = xi;
 358              		.loc 1 170 0
 359 0298 B7F91E30 		ldrsh	r3, [r7, #30]
 360 029c 2B4A     		ldr	r2, .L39+8
 361 029e 9342     		cmp	r3, r2
 362 02a0 13D1     		bne	.L20
 363              		.loc 1 170 0 is_stmt 0 discriminator 1
 364 02a2 B7F84630 		ldrh	r3, [r7, #70]	@ movhi
 365 02a6 FB83     		strh	r3, [r7, #30]	@ movhi
 366 02a8 0FE0     		b	.L20
 367              	.L18:
 171:..\..\..\lvgl\version_6.1.2\lvgl\src\lv_draw/lv_draw_arc.c ****             } else if(x_start[1] != LV_COORD_MIN && x_end[1] == LV_COORD_MIN) {
 368              		.loc 1 171 0 is_stmt 1
 369 02aa B7F91E30 		ldrsh	r3, [r7, #30]
 370 02ae 274A     		ldr	r2, .L39+8
 371 02b0 9342     		cmp	r3, r2
 372 02b2 0AD0     		beq	.L20
 373              		.loc 1 171 0 is_stmt 0 discriminator 1
 374 02b4 B7F91630 		ldrsh	r3, [r7, #22]
 375 02b8 244A     		ldr	r2, .L39+8
 376 02ba 9342     		cmp	r3, r2
 377 02bc 05D1     		bne	.L20
 172:..\..\..\lvgl\version_6.1.2\lvgl\src\lv_draw/lv_draw_arc.c ****                 x_end[1] = xi - 1;
 378              		.loc 1 172 0 is_stmt 1
 379 02be B7F84630 		ldrh	r3, [r7, #70]
 380 02c2 013B     		subs	r3, r3, #1
 381 02c4 9BB2     		uxth	r3, r3
 382 02c6 1BB2     		sxth	r3, r3
 383 02c8 FB82     		strh	r3, [r7, #22]	@ movhi
 384              	.L20:
 173:..\..\..\lvgl\version_6.1.2\lvgl\src\lv_draw/lv_draw_arc.c ****             }
 174:..\..\..\lvgl\version_6.1.2\lvgl\src\lv_draw/lv_draw_arc.c **** 
 175:..\..\..\lvgl\version_6.1.2\lvgl\src\lv_draw/lv_draw_arc.c ****             deg = 180 - deg_base;
 385              		.loc 1 175 0
 386 02ca FB8C     		ldrh	r3, [r7, #38]
 387 02cc C3F1B403 		rsb	r3, r3, #180
 388 02d0 9BB2     		uxth	r3, r3
 389 02d2 BB84     		strh	r3, [r7, #36]	@ movhi
 176:..\..\..\lvgl\version_6.1.2\lvgl\src\lv_draw/lv_draw_arc.c ****             if(deg_test(deg, start_angle, end_angle)) {
 390              		.loc 1 176 0
 391 02d4 B88C     		ldrh	r0, [r7, #36]
 392 02d6 B7F85C20 		ldrh	r2, [r7, #92]
 393 02da B7F85810 		ldrh	r1, [r7, #88]
 394 02de BB6C     		ldr	r3, [r7, #72]
ARM GAS  C:\Users\tmj32\AppData\Local\Temp\ccOfsiK2.s 			page 11


 395 02e0 9847     		blx	r3
 396 02e2 0346     		mov	r3, r0
 397 02e4 002B     		cmp	r3, #0
 398 02e6 08D0     		beq	.L21
 177:..\..\..\lvgl\version_6.1.2\lvgl\src\lv_draw/lv_draw_arc.c ****                 if(x_start[2] == LV_COORD_MIN) x_start[2] = xi;
 399              		.loc 1 177 0
 400 02e8 B7F92030 		ldrsh	r3, [r7, #32]
 401 02ec 174A     		ldr	r2, .L39+8
 402 02ee 9342     		cmp	r3, r2
 403 02f0 13D1     		bne	.L23
 404              		.loc 1 177 0 is_stmt 0 discriminator 1
 405 02f2 B7F84630 		ldrh	r3, [r7, #70]	@ movhi
 406 02f6 3B84     		strh	r3, [r7, #32]	@ movhi
 407 02f8 0FE0     		b	.L23
 408              	.L21:
 178:..\..\..\lvgl\version_6.1.2\lvgl\src\lv_draw/lv_draw_arc.c ****             } else if(x_start[2] != LV_COORD_MIN && x_end[2] == LV_COORD_MIN) {
 409              		.loc 1 178 0 is_stmt 1
 410 02fa B7F92030 		ldrsh	r3, [r7, #32]
 411 02fe 134A     		ldr	r2, .L39+8
 412 0300 9342     		cmp	r3, r2
 413 0302 0AD0     		beq	.L23
 414              		.loc 1 178 0 is_stmt 0 discriminator 1
 415 0304 B7F91830 		ldrsh	r3, [r7, #24]
 416 0308 104A     		ldr	r2, .L39+8
 417 030a 9342     		cmp	r3, r2
 418 030c 05D1     		bne	.L23
 179:..\..\..\lvgl\version_6.1.2\lvgl\src\lv_draw/lv_draw_arc.c ****                 x_end[2] = xi - 1;
 419              		.loc 1 179 0 is_stmt 1
 420 030e B7F84630 		ldrh	r3, [r7, #70]
 421 0312 013B     		subs	r3, r3, #1
 422 0314 9BB2     		uxth	r3, r3
 423 0316 1BB2     		sxth	r3, r3
 424 0318 3B83     		strh	r3, [r7, #24]	@ movhi
 425              	.L23:
 180:..\..\..\lvgl\version_6.1.2\lvgl\src\lv_draw/lv_draw_arc.c ****             }
 181:..\..\..\lvgl\version_6.1.2\lvgl\src\lv_draw/lv_draw_arc.c **** 
 182:..\..\..\lvgl\version_6.1.2\lvgl\src\lv_draw/lv_draw_arc.c ****             deg = deg_base;
 426              		.loc 1 182 0
 427 031a FB8C     		ldrh	r3, [r7, #38]	@ movhi
 428 031c BB84     		strh	r3, [r7, #36]	@ movhi
 183:..\..\..\lvgl\version_6.1.2\lvgl\src\lv_draw/lv_draw_arc.c ****             if(deg_test(deg, start_angle, end_angle)) {
 429              		.loc 1 183 0
 430 031e B88C     		ldrh	r0, [r7, #36]
 431 0320 B7F85C20 		ldrh	r2, [r7, #92]
 432 0324 B7F85810 		ldrh	r1, [r7, #88]
 433 0328 BB6C     		ldr	r3, [r7, #72]
 434 032a 9847     		blx	r3
 435 032c 0346     		mov	r3, r0
 436 032e 002B     		cmp	r3, #0
 437 0330 0ED0     		beq	.L24
 184:..\..\..\lvgl\version_6.1.2\lvgl\src\lv_draw/lv_draw_arc.c ****                 if(x_start[3] == LV_COORD_MIN) x_start[3] = xi;
 438              		.loc 1 184 0
 439 0332 B7F92230 		ldrsh	r3, [r7, #34]
 440 0336 054A     		ldr	r2, .L39+8
 441 0338 9342     		cmp	r3, r2
 442 033a 19D1     		bne	.L26
 443              		.loc 1 184 0 is_stmt 0 discriminator 1
ARM GAS  C:\Users\tmj32\AppData\Local\Temp\ccOfsiK2.s 			page 12


 444 033c B7F84630 		ldrh	r3, [r7, #70]	@ movhi
 445 0340 7B84     		strh	r3, [r7, #34]	@ movhi
 446 0342 15E0     		b	.L26
 447              	.L40:
 448              		.align	2
 449              	.L39:
 450 0344 00000000 		.word	deg_test_norm
 451 0348 00000000 		.word	deg_test_inv
 452 034c E883FFFF 		.word	-31768
 453              	.L24:
 185:..\..\..\lvgl\version_6.1.2\lvgl\src\lv_draw/lv_draw_arc.c ****             } else if(x_start[3] != LV_COORD_MIN && x_end[3] == LV_COORD_MIN) {
 454              		.loc 1 185 0 is_stmt 1
 455 0350 B7F92230 		ldrsh	r3, [r7, #34]
 456 0354 784A     		ldr	r2, .L41
 457 0356 9342     		cmp	r3, r2
 458 0358 0AD0     		beq	.L26
 459              		.loc 1 185 0 is_stmt 0 discriminator 1
 460 035a B7F91A30 		ldrsh	r3, [r7, #26]
 461 035e 764A     		ldr	r2, .L41
 462 0360 9342     		cmp	r3, r2
 463 0362 05D1     		bne	.L26
 186:..\..\..\lvgl\version_6.1.2\lvgl\src\lv_draw/lv_draw_arc.c ****                 x_end[3] = xi - 1;
 464              		.loc 1 186 0 is_stmt 1
 465 0364 B7F84630 		ldrh	r3, [r7, #70]
 466 0368 013B     		subs	r3, r3, #1
 467 036a 9BB2     		uxth	r3, r3
 468 036c 1BB2     		sxth	r3, r3
 469 036e 7B83     		strh	r3, [r7, #26]	@ movhi
 470              	.L26:
 187:..\..\..\lvgl\version_6.1.2\lvgl\src\lv_draw/lv_draw_arc.c ****             }
 188:..\..\..\lvgl\version_6.1.2\lvgl\src\lv_draw/lv_draw_arc.c **** 
 189:..\..\..\lvgl\version_6.1.2\lvgl\src\lv_draw/lv_draw_arc.c ****             if(r_act_sqr < r_in_sqr) {
 471              		.loc 1 189 0
 472 0370 BA6A     		ldr	r2, [r7, #40]
 473 0372 FB6A     		ldr	r3, [r7, #44]
 474 0374 9A42     		cmp	r2, r3
 475 0376 04D2     		bcs	.L14
 190:..\..\..\lvgl\version_6.1.2\lvgl\src\lv_draw/lv_draw_arc.c ****                 xe = xi;
 476              		.loc 1 190 0
 477 0378 B7F94630 		ldrsh	r3, [r7, #70]
 478 037c 3B64     		str	r3, [r7, #64]
 191:..\..\..\lvgl\version_6.1.2\lvgl\src\lv_draw/lv_draw_arc.c ****                 break; /*No need to continue the iteration in x once we found the inner edge of the
 479              		.loc 1 191 0
 480 037e 0CE0     		b	.L27
 481              	.L38:
 120:..\..\..\lvgl\version_6.1.2\lvgl\src\lv_draw/lv_draw_arc.c **** #endif
 482              		.loc 1 120 0
 483 0380 00BF     		nop
 484              	.L14:
 485              	.LBE3:
 112:..\..\..\lvgl\version_6.1.2\lvgl\src\lv_draw/lv_draw_arc.c **** 
 486              		.loc 1 112 0 discriminator 2
 487 0382 B7F94630 		ldrsh	r3, [r7, #70]
 488 0386 9BB2     		uxth	r3, r3
 489 0388 0133     		adds	r3, r3, #1
 490 038a 9BB2     		uxth	r3, r3
 491 038c A7F84630 		strh	r3, [r7, #70]	@ movhi
ARM GAS  C:\Users\tmj32\AppData\Local\Temp\ccOfsiK2.s 			page 13


 492              	.L12:
 112:..\..\..\lvgl\version_6.1.2\lvgl\src\lv_draw/lv_draw_arc.c **** 
 493              		.loc 1 112 0 is_stmt 0 discriminator 1
 494 0390 B7F94630 		ldrsh	r3, [r7, #70]
 495 0394 002B     		cmp	r3, #0
 496 0396 FFF62AAF 		blt	.L28
 497              	.L27:
 192:..\..\..\lvgl\version_6.1.2\lvgl\src\lv_draw/lv_draw_arc.c ****                           arc*/
 193:..\..\..\lvgl\version_6.1.2\lvgl\src\lv_draw/lv_draw_arc.c ****             }
 194:..\..\..\lvgl\version_6.1.2\lvgl\src\lv_draw/lv_draw_arc.c ****         }
 195:..\..\..\lvgl\version_6.1.2\lvgl\src\lv_draw/lv_draw_arc.c **** 
 196:..\..\..\lvgl\version_6.1.2\lvgl\src\lv_draw/lv_draw_arc.c ****         if(x_start[0] != LV_COORD_MIN) {
 498              		.loc 1 196 0 is_stmt 1
 499 039a B7F91C30 		ldrsh	r3, [r7, #28]
 500 039e 664A     		ldr	r2, .L41
 501 03a0 9342     		cmp	r3, r2
 502 03a2 29D0     		beq	.L29
 197:..\..\..\lvgl\version_6.1.2\lvgl\src\lv_draw/lv_draw_arc.c ****             if(x_end[0] == LV_COORD_MIN) x_end[0] = xe - 1;
 503              		.loc 1 197 0
 504 03a4 B7F91430 		ldrsh	r3, [r7, #20]
 505 03a8 634A     		ldr	r2, .L41
 506 03aa 9342     		cmp	r3, r2
 507 03ac 05D1     		bne	.L30
 508              		.loc 1 197 0 is_stmt 0 discriminator 1
 509 03ae 3B6C     		ldr	r3, [r7, #64]
 510 03b0 9BB2     		uxth	r3, r3
 511 03b2 013B     		subs	r3, r3, #1
 512 03b4 9BB2     		uxth	r3, r3
 513 03b6 1BB2     		sxth	r3, r3
 514 03b8 BB82     		strh	r3, [r7, #20]	@ movhi
 515              	.L30:
 198:..\..\..\lvgl\version_6.1.2\lvgl\src\lv_draw/lv_draw_arc.c ****             hor_line(center_x + x_start[0], center_y + yi, mask, x_end[0] - x_start[0], color, opa)
 516              		.loc 1 198 0 is_stmt 1
 517 03ba B7F91C30 		ldrsh	r3, [r7, #28]
 518 03be 9AB2     		uxth	r2, r3
 519 03c0 FB89     		ldrh	r3, [r7, #14]
 520 03c2 1344     		add	r3, r3, r2
 521 03c4 9BB2     		uxth	r3, r3
 522 03c6 18B2     		sxth	r0, r3
 523 03c8 BA89     		ldrh	r2, [r7, #12]
 524 03ca B7F84430 		ldrh	r3, [r7, #68]
 525 03ce 1344     		add	r3, r3, r2
 526 03d0 9BB2     		uxth	r3, r3
 527 03d2 19B2     		sxth	r1, r3
 528 03d4 B7F91430 		ldrsh	r3, [r7, #20]
 529 03d8 9AB2     		uxth	r2, r3
 530 03da B7F91C30 		ldrsh	r3, [r7, #28]
 531 03de 9BB2     		uxth	r3, r3
 532 03e0 D31A     		subs	r3, r2, r3
 533 03e2 9BB2     		uxth	r3, r3
 534 03e4 1AB2     		sxth	r2, r3
 535 03e6 97F83B30 		ldrb	r3, [r7, #59]	@ zero_extendqisi2
 536 03ea 0193     		str	r3, [sp, #4]
 537 03ec 3B69     		ldr	r3, [r7, #16]
 538 03ee 0093     		str	r3, [sp]
 539 03f0 1346     		mov	r3, r2
 540 03f2 7A68     		ldr	r2, [r7, #4]
ARM GAS  C:\Users\tmj32\AppData\Local\Temp\ccOfsiK2.s 			page 14


 541 03f4 FFF7FEFF 		bl	hor_line
 542              	.L29:
 199:..\..\..\lvgl\version_6.1.2\lvgl\src\lv_draw/lv_draw_arc.c ****         }
 200:..\..\..\lvgl\version_6.1.2\lvgl\src\lv_draw/lv_draw_arc.c **** 
 201:..\..\..\lvgl\version_6.1.2\lvgl\src\lv_draw/lv_draw_arc.c ****         if(x_start[1] != LV_COORD_MIN) {
 543              		.loc 1 201 0
 544 03f8 B7F91E30 		ldrsh	r3, [r7, #30]
 545 03fc 4E4A     		ldr	r2, .L41
 546 03fe 9342     		cmp	r3, r2
 547 0400 29D0     		beq	.L31
 202:..\..\..\lvgl\version_6.1.2\lvgl\src\lv_draw/lv_draw_arc.c ****             if(x_end[1] == LV_COORD_MIN) x_end[1] = xe - 1;
 548              		.loc 1 202 0
 549 0402 B7F91630 		ldrsh	r3, [r7, #22]
 550 0406 4C4A     		ldr	r2, .L41
 551 0408 9342     		cmp	r3, r2
 552 040a 05D1     		bne	.L32
 553              		.loc 1 202 0 is_stmt 0 discriminator 1
 554 040c 3B6C     		ldr	r3, [r7, #64]
 555 040e 9BB2     		uxth	r3, r3
 556 0410 013B     		subs	r3, r3, #1
 557 0412 9BB2     		uxth	r3, r3
 558 0414 1BB2     		sxth	r3, r3
 559 0416 FB82     		strh	r3, [r7, #22]	@ movhi
 560              	.L32:
 203:..\..\..\lvgl\version_6.1.2\lvgl\src\lv_draw/lv_draw_arc.c ****             hor_line(center_x + x_start[1], center_y - yi, mask, x_end[1] - x_start[1], color, opa)
 561              		.loc 1 203 0 is_stmt 1
 562 0418 B7F91E30 		ldrsh	r3, [r7, #30]
 563 041c 9AB2     		uxth	r2, r3
 564 041e FB89     		ldrh	r3, [r7, #14]
 565 0420 1344     		add	r3, r3, r2
 566 0422 9BB2     		uxth	r3, r3
 567 0424 18B2     		sxth	r0, r3
 568 0426 BA89     		ldrh	r2, [r7, #12]
 569 0428 B7F84430 		ldrh	r3, [r7, #68]
 570 042c D31A     		subs	r3, r2, r3
 571 042e 9BB2     		uxth	r3, r3
 572 0430 19B2     		sxth	r1, r3
 573 0432 B7F91630 		ldrsh	r3, [r7, #22]
 574 0436 9AB2     		uxth	r2, r3
 575 0438 B7F91E30 		ldrsh	r3, [r7, #30]
 576 043c 9BB2     		uxth	r3, r3
 577 043e D31A     		subs	r3, r2, r3
 578 0440 9BB2     		uxth	r3, r3
 579 0442 1AB2     		sxth	r2, r3
 580 0444 97F83B30 		ldrb	r3, [r7, #59]	@ zero_extendqisi2
 581 0448 0193     		str	r3, [sp, #4]
 582 044a 3B69     		ldr	r3, [r7, #16]
 583 044c 0093     		str	r3, [sp]
 584 044e 1346     		mov	r3, r2
 585 0450 7A68     		ldr	r2, [r7, #4]
 586 0452 FFF7FEFF 		bl	hor_line
 587              	.L31:
 204:..\..\..\lvgl\version_6.1.2\lvgl\src\lv_draw/lv_draw_arc.c ****         }
 205:..\..\..\lvgl\version_6.1.2\lvgl\src\lv_draw/lv_draw_arc.c **** 
 206:..\..\..\lvgl\version_6.1.2\lvgl\src\lv_draw/lv_draw_arc.c ****         if(x_start[2] != LV_COORD_MIN) {
 588              		.loc 1 206 0
 589 0456 B7F92030 		ldrsh	r3, [r7, #32]
ARM GAS  C:\Users\tmj32\AppData\Local\Temp\ccOfsiK2.s 			page 15


 590 045a 374A     		ldr	r2, .L41
 591 045c 9342     		cmp	r3, r2
 592 045e 2AD0     		beq	.L33
 207:..\..\..\lvgl\version_6.1.2\lvgl\src\lv_draw/lv_draw_arc.c ****             if(x_end[2] == LV_COORD_MIN) x_end[2] = xe - 1;
 593              		.loc 1 207 0
 594 0460 B7F91830 		ldrsh	r3, [r7, #24]
 595 0464 344A     		ldr	r2, .L41
 596 0466 9342     		cmp	r3, r2
 597 0468 05D1     		bne	.L34
 598              		.loc 1 207 0 is_stmt 0 discriminator 1
 599 046a 3B6C     		ldr	r3, [r7, #64]
 600 046c 9BB2     		uxth	r3, r3
 601 046e 013B     		subs	r3, r3, #1
 602 0470 9BB2     		uxth	r3, r3
 603 0472 1BB2     		sxth	r3, r3
 604 0474 3B83     		strh	r3, [r7, #24]	@ movhi
 605              	.L34:
 208:..\..\..\lvgl\version_6.1.2\lvgl\src\lv_draw/lv_draw_arc.c ****             hor_line(center_x - x_end[2], center_y + yi, mask, LV_MATH_ABS(x_end[2] - x_start[2]), 
 606              		.loc 1 208 0 is_stmt 1
 607 0476 FA89     		ldrh	r2, [r7, #14]
 608 0478 B7F91830 		ldrsh	r3, [r7, #24]
 609 047c 9BB2     		uxth	r3, r3
 610 047e D31A     		subs	r3, r2, r3
 611 0480 9BB2     		uxth	r3, r3
 612 0482 18B2     		sxth	r0, r3
 613 0484 BA89     		ldrh	r2, [r7, #12]
 614 0486 B7F84430 		ldrh	r3, [r7, #68]
 615 048a 1344     		add	r3, r3, r2
 616 048c 9BB2     		uxth	r3, r3
 617 048e 19B2     		sxth	r1, r3
 618 0490 B7F91830 		ldrsh	r3, [r7, #24]
 619 0494 1A46     		mov	r2, r3
 620 0496 B7F92030 		ldrsh	r3, [r7, #32]
 621 049a D31A     		subs	r3, r2, r3
 622 049c 002B     		cmp	r3, #0
 623 049e B8BF     		it	lt
 624 04a0 5B42     		rsblt	r3, r3, #0
 625 04a2 1AB2     		sxth	r2, r3
 626 04a4 97F83B30 		ldrb	r3, [r7, #59]	@ zero_extendqisi2
 627 04a8 0193     		str	r3, [sp, #4]
 628 04aa 3B69     		ldr	r3, [r7, #16]
 629 04ac 0093     		str	r3, [sp]
 630 04ae 1346     		mov	r3, r2
 631 04b0 7A68     		ldr	r2, [r7, #4]
 632 04b2 FFF7FEFF 		bl	hor_line
 633              	.L33:
 209:..\..\..\lvgl\version_6.1.2\lvgl\src\lv_draw/lv_draw_arc.c ****         }
 210:..\..\..\lvgl\version_6.1.2\lvgl\src\lv_draw/lv_draw_arc.c **** 
 211:..\..\..\lvgl\version_6.1.2\lvgl\src\lv_draw/lv_draw_arc.c ****         if(x_start[3] != LV_COORD_MIN) {
 634              		.loc 1 211 0
 635 04b6 B7F92230 		ldrsh	r3, [r7, #34]
 636 04ba 1F4A     		ldr	r2, .L41
 637 04bc 9342     		cmp	r3, r2
 638 04be 2AD0     		beq	.L35
 212:..\..\..\lvgl\version_6.1.2\lvgl\src\lv_draw/lv_draw_arc.c ****             if(x_end[3] == LV_COORD_MIN) x_end[3] = xe - 1;
 639              		.loc 1 212 0
 640 04c0 B7F91A30 		ldrsh	r3, [r7, #26]
ARM GAS  C:\Users\tmj32\AppData\Local\Temp\ccOfsiK2.s 			page 16


 641 04c4 1C4A     		ldr	r2, .L41
 642 04c6 9342     		cmp	r3, r2
 643 04c8 05D1     		bne	.L36
 644              		.loc 1 212 0 is_stmt 0 discriminator 1
 645 04ca 3B6C     		ldr	r3, [r7, #64]
 646 04cc 9BB2     		uxth	r3, r3
 647 04ce 013B     		subs	r3, r3, #1
 648 04d0 9BB2     		uxth	r3, r3
 649 04d2 1BB2     		sxth	r3, r3
 650 04d4 7B83     		strh	r3, [r7, #26]	@ movhi
 651              	.L36:
 213:..\..\..\lvgl\version_6.1.2\lvgl\src\lv_draw/lv_draw_arc.c ****             hor_line(center_x - x_end[3], center_y - yi, mask, LV_MATH_ABS(x_end[3] - x_start[3]), 
 652              		.loc 1 213 0 is_stmt 1
 653 04d6 FA89     		ldrh	r2, [r7, #14]
 654 04d8 B7F91A30 		ldrsh	r3, [r7, #26]
 655 04dc 9BB2     		uxth	r3, r3
 656 04de D31A     		subs	r3, r2, r3
 657 04e0 9BB2     		uxth	r3, r3
 658 04e2 18B2     		sxth	r0, r3
 659 04e4 BA89     		ldrh	r2, [r7, #12]
 660 04e6 B7F84430 		ldrh	r3, [r7, #68]
 661 04ea D31A     		subs	r3, r2, r3
 662 04ec 9BB2     		uxth	r3, r3
 663 04ee 19B2     		sxth	r1, r3
 664 04f0 B7F91A30 		ldrsh	r3, [r7, #26]
 665 04f4 1A46     		mov	r2, r3
 666 04f6 B7F92230 		ldrsh	r3, [r7, #34]
 667 04fa D31A     		subs	r3, r2, r3
 668 04fc 002B     		cmp	r3, #0
 669 04fe B8BF     		it	lt
 670 0500 5B42     		rsblt	r3, r3, #0
 671 0502 1AB2     		sxth	r2, r3
 672 0504 97F83B30 		ldrb	r3, [r7, #59]	@ zero_extendqisi2
 673 0508 0193     		str	r3, [sp, #4]
 674 050a 3B69     		ldr	r3, [r7, #16]
 675 050c 0093     		str	r3, [sp]
 676 050e 1346     		mov	r3, r2
 677 0510 7A68     		ldr	r2, [r7, #4]
 678 0512 FFF7FEFF 		bl	hor_line
 679              	.L35:
 680              	.LBE2:
 102:..\..\..\lvgl\version_6.1.2\lvgl\src\lv_draw/lv_draw_arc.c ****         x_start[0] = LV_COORD_MIN;
 681              		.loc 1 102 0 discriminator 2
 682 0516 B7F94430 		ldrsh	r3, [r7, #68]
 683 051a 9BB2     		uxth	r3, r3
 684 051c 0133     		adds	r3, r3, #1
 685 051e 9BB2     		uxth	r3, r3
 686 0520 A7F84430 		strh	r3, [r7, #68]	@ movhi
 687              	.L11:
 102:..\..\..\lvgl\version_6.1.2\lvgl\src\lv_draw/lv_draw_arc.c ****         x_start[0] = LV_COORD_MIN;
 688              		.loc 1 102 0 is_stmt 0 discriminator 1
 689 0524 B7F94430 		ldrsh	r3, [r7, #68]
 690 0528 002B     		cmp	r3, #0
 691 052a FFF640AE 		blt	.L37
 214:..\..\..\lvgl\version_6.1.2\lvgl\src\lv_draw/lv_draw_arc.c ****         }
 215:..\..\..\lvgl\version_6.1.2\lvgl\src\lv_draw/lv_draw_arc.c ****     }
 216:..\..\..\lvgl\version_6.1.2\lvgl\src\lv_draw/lv_draw_arc.c **** }
ARM GAS  C:\Users\tmj32\AppData\Local\Temp\ccOfsiK2.s 			page 17


 692              		.loc 1 216 0 is_stmt 1
 693 052e 00BF     		nop
 694 0530 5037     		adds	r7, r7, #80
 695              		.cfi_def_cfa_offset 8
 696 0532 BD46     		mov	sp, r7
 697              		.cfi_def_cfa_register 13
 698              		@ sp needed
 699 0534 80BD     		pop	{r7, pc}
 700              	.L42:
 701 0536 00BF     		.align	2
 702              	.L41:
 703 0538 E883FFFF 		.word	-31768
 704              		.cfi_endproc
 705              	.LFE31:
 706              		.size	lv_draw_arc, .-lv_draw_arc
 707              		.section	.text.ver_line,"ax",%progbits
 708              		.align	2
 709              		.thumb
 710              		.thumb_func
 711              		.type	ver_line, %function
 712              	ver_line:
 713              	.LFB32:
 217:..\..\..\lvgl\version_6.1.2\lvgl\src\lv_draw/lv_draw_arc.c **** 
 218:..\..\..\lvgl\version_6.1.2\lvgl\src\lv_draw/lv_draw_arc.c **** /**********************
 219:..\..\..\lvgl\version_6.1.2\lvgl\src\lv_draw/lv_draw_arc.c ****  *   STATIC FUNCTIONS
 220:..\..\..\lvgl\version_6.1.2\lvgl\src\lv_draw/lv_draw_arc.c ****  **********************/
 221:..\..\..\lvgl\version_6.1.2\lvgl\src\lv_draw/lv_draw_arc.c **** static void ver_line(lv_coord_t x, lv_coord_t y, const lv_area_t * mask, lv_coord_t len, lv_color_t
 222:..\..\..\lvgl\version_6.1.2\lvgl\src\lv_draw/lv_draw_arc.c **** {
 714              		.loc 1 222 0
 715              		.cfi_startproc
 716              		@ args = 8, pretend = 0, frame = 24
 717              		@ frame_needed = 1, uses_anonymous_args = 0
 718 0000 90B5     		push	{r4, r7, lr}
 719              		.cfi_def_cfa_offset 12
 720              		.cfi_offset 4, -12
 721              		.cfi_offset 7, -8
 722              		.cfi_offset 14, -4
 723 0002 89B0     		sub	sp, sp, #36
 724              		.cfi_def_cfa_offset 48
 725 0004 02AF     		add	r7, sp, #8
 726              		.cfi_def_cfa 7, 40
 727 0006 BA60     		str	r2, [r7, #8]
 728 0008 1A46     		mov	r2, r3
 729 000a 0346     		mov	r3, r0	@ movhi
 730 000c FB81     		strh	r3, [r7, #14]	@ movhi
 731 000e 0B46     		mov	r3, r1	@ movhi
 732 0010 BB81     		strh	r3, [r7, #12]	@ movhi
 733 0012 1346     		mov	r3, r2	@ movhi
 734 0014 FB80     		strh	r3, [r7, #6]	@ movhi
 223:..\..\..\lvgl\version_6.1.2\lvgl\src\lv_draw/lv_draw_arc.c ****     lv_area_t area;
 224:..\..\..\lvgl\version_6.1.2\lvgl\src\lv_draw/lv_draw_arc.c ****     lv_area_set(&area, x, y, x, y + len);
 735              		.loc 1 224 0
 736 0016 BA89     		ldrh	r2, [r7, #12]
 737 0018 FB88     		ldrh	r3, [r7, #6]
 738 001a 1344     		add	r3, r3, r2
 739 001c 9BB2     		uxth	r3, r3
 740 001e 1BB2     		sxth	r3, r3
ARM GAS  C:\Users\tmj32\AppData\Local\Temp\ccOfsiK2.s 			page 18


 741 0020 B7F90E40 		ldrsh	r4, [r7, #14]
 742 0024 B7F90C20 		ldrsh	r2, [r7, #12]
 743 0028 B7F90E10 		ldrsh	r1, [r7, #14]
 744 002c 07F11000 		add	r0, r7, #16
 745 0030 0093     		str	r3, [sp]
 746 0032 2346     		mov	r3, r4
 747 0034 FFF7FEFF 		bl	lv_area_set
 225:..\..\..\lvgl\version_6.1.2\lvgl\src\lv_draw/lv_draw_arc.c **** 
 226:..\..\..\lvgl\version_6.1.2\lvgl\src\lv_draw/lv_draw_arc.c ****     lv_draw_fill(&area, mask, color, opa);
 748              		.loc 1 226 0
 749 0038 97F82C30 		ldrb	r3, [r7, #44]	@ zero_extendqisi2
 750 003c 07F11000 		add	r0, r7, #16
 751 0040 BA6A     		ldr	r2, [r7, #40]
 752 0042 B968     		ldr	r1, [r7, #8]
 753 0044 FFF7FEFF 		bl	lv_draw_fill
 227:..\..\..\lvgl\version_6.1.2\lvgl\src\lv_draw/lv_draw_arc.c **** }
 754              		.loc 1 227 0
 755 0048 00BF     		nop
 756 004a 1C37     		adds	r7, r7, #28
 757              		.cfi_def_cfa_offset 12
 758 004c BD46     		mov	sp, r7
 759              		.cfi_def_cfa_register 13
 760              		@ sp needed
 761 004e 90BD     		pop	{r4, r7, pc}
 762              		.cfi_endproc
 763              	.LFE32:
 764              		.size	ver_line, .-ver_line
 765              		.section	.text.hor_line,"ax",%progbits
 766              		.align	2
 767              		.thumb
 768              		.thumb_func
 769              		.type	hor_line, %function
 770              	hor_line:
 771              	.LFB33:
 228:..\..\..\lvgl\version_6.1.2\lvgl\src\lv_draw/lv_draw_arc.c **** 
 229:..\..\..\lvgl\version_6.1.2\lvgl\src\lv_draw/lv_draw_arc.c **** static void hor_line(lv_coord_t x, lv_coord_t y, const lv_area_t * mask, lv_coord_t len, lv_color_t
 230:..\..\..\lvgl\version_6.1.2\lvgl\src\lv_draw/lv_draw_arc.c **** {
 772              		.loc 1 230 0
 773              		.cfi_startproc
 774              		@ args = 8, pretend = 0, frame = 24
 775              		@ frame_needed = 1, uses_anonymous_args = 0
 776 0000 90B5     		push	{r4, r7, lr}
 777              		.cfi_def_cfa_offset 12
 778              		.cfi_offset 4, -12
 779              		.cfi_offset 7, -8
 780              		.cfi_offset 14, -4
 781 0002 89B0     		sub	sp, sp, #36
 782              		.cfi_def_cfa_offset 48
 783 0004 02AF     		add	r7, sp, #8
 784              		.cfi_def_cfa 7, 40
 785 0006 BA60     		str	r2, [r7, #8]
 786 0008 1A46     		mov	r2, r3
 787 000a 0346     		mov	r3, r0	@ movhi
 788 000c FB81     		strh	r3, [r7, #14]	@ movhi
 789 000e 0B46     		mov	r3, r1	@ movhi
 790 0010 BB81     		strh	r3, [r7, #12]	@ movhi
 791 0012 1346     		mov	r3, r2	@ movhi
ARM GAS  C:\Users\tmj32\AppData\Local\Temp\ccOfsiK2.s 			page 19


 792 0014 FB80     		strh	r3, [r7, #6]	@ movhi
 231:..\..\..\lvgl\version_6.1.2\lvgl\src\lv_draw/lv_draw_arc.c ****     lv_area_t area;
 232:..\..\..\lvgl\version_6.1.2\lvgl\src\lv_draw/lv_draw_arc.c ****     lv_area_set(&area, x, y, x + len, y);
 793              		.loc 1 232 0
 794 0016 FA89     		ldrh	r2, [r7, #14]
 795 0018 FB88     		ldrh	r3, [r7, #6]
 796 001a 1344     		add	r3, r3, r2
 797 001c 9BB2     		uxth	r3, r3
 798 001e 1CB2     		sxth	r4, r3
 799 0020 B7F90C20 		ldrsh	r2, [r7, #12]
 800 0024 B7F90E10 		ldrsh	r1, [r7, #14]
 801 0028 07F11000 		add	r0, r7, #16
 802 002c B7F90C30 		ldrsh	r3, [r7, #12]
 803 0030 0093     		str	r3, [sp]
 804 0032 2346     		mov	r3, r4
 805 0034 FFF7FEFF 		bl	lv_area_set
 233:..\..\..\lvgl\version_6.1.2\lvgl\src\lv_draw/lv_draw_arc.c **** 
 234:..\..\..\lvgl\version_6.1.2\lvgl\src\lv_draw/lv_draw_arc.c ****     lv_draw_fill(&area, mask, color, opa);
 806              		.loc 1 234 0
 807 0038 97F82C30 		ldrb	r3, [r7, #44]	@ zero_extendqisi2
 808 003c 07F11000 		add	r0, r7, #16
 809 0040 BA6A     		ldr	r2, [r7, #40]
 810 0042 B968     		ldr	r1, [r7, #8]
 811 0044 FFF7FEFF 		bl	lv_draw_fill
 235:..\..\..\lvgl\version_6.1.2\lvgl\src\lv_draw/lv_draw_arc.c **** }
 812              		.loc 1 235 0
 813 0048 00BF     		nop
 814 004a 1C37     		adds	r7, r7, #28
 815              		.cfi_def_cfa_offset 12
 816 004c BD46     		mov	sp, r7
 817              		.cfi_def_cfa_register 13
 818              		@ sp needed
 819 004e 90BD     		pop	{r4, r7, pc}
 820              		.cfi_endproc
 821              	.LFE33:
 822              		.size	hor_line, .-hor_line
 823              		.section	.text.deg_test_norm,"ax",%progbits
 824              		.align	2
 825              		.thumb
 826              		.thumb_func
 827              		.type	deg_test_norm, %function
 828              	deg_test_norm:
 829              	.LFB34:
 236:..\..\..\lvgl\version_6.1.2\lvgl\src\lv_draw/lv_draw_arc.c **** 
 237:..\..\..\lvgl\version_6.1.2\lvgl\src\lv_draw/lv_draw_arc.c **** static bool deg_test_norm(uint16_t deg, uint16_t start, uint16_t end)
 238:..\..\..\lvgl\version_6.1.2\lvgl\src\lv_draw/lv_draw_arc.c **** {
 830              		.loc 1 238 0
 831              		.cfi_startproc
 832              		@ args = 0, pretend = 0, frame = 8
 833              		@ frame_needed = 1, uses_anonymous_args = 0
 834              		@ link register save eliminated.
 835 0000 80B4     		push	{r7}
 836              		.cfi_def_cfa_offset 4
 837              		.cfi_offset 7, -4
 838 0002 83B0     		sub	sp, sp, #12
 839              		.cfi_def_cfa_offset 16
 840 0004 00AF     		add	r7, sp, #0
ARM GAS  C:\Users\tmj32\AppData\Local\Temp\ccOfsiK2.s 			page 20


 841              		.cfi_def_cfa_register 7
 842 0006 0346     		mov	r3, r0
 843 0008 FB80     		strh	r3, [r7, #6]	@ movhi
 844 000a 0B46     		mov	r3, r1	@ movhi
 845 000c BB80     		strh	r3, [r7, #4]	@ movhi
 846 000e 1346     		mov	r3, r2	@ movhi
 847 0010 7B80     		strh	r3, [r7, #2]	@ movhi
 239:..\..\..\lvgl\version_6.1.2\lvgl\src\lv_draw/lv_draw_arc.c ****     if(deg >= start && deg <= end)
 848              		.loc 1 239 0
 849 0012 FA88     		ldrh	r2, [r7, #6]
 850 0014 BB88     		ldrh	r3, [r7, #4]
 851 0016 9A42     		cmp	r2, r3
 852 0018 05D3     		bcc	.L46
 853              		.loc 1 239 0 is_stmt 0 discriminator 1
 854 001a FA88     		ldrh	r2, [r7, #6]
 855 001c 7B88     		ldrh	r3, [r7, #2]
 856 001e 9A42     		cmp	r2, r3
 857 0020 01D8     		bhi	.L46
 240:..\..\..\lvgl\version_6.1.2\lvgl\src\lv_draw/lv_draw_arc.c ****         return true;
 858              		.loc 1 240 0 is_stmt 1
 859 0022 0123     		movs	r3, #1
 860 0024 00E0     		b	.L47
 861              	.L46:
 241:..\..\..\lvgl\version_6.1.2\lvgl\src\lv_draw/lv_draw_arc.c ****     else
 242:..\..\..\lvgl\version_6.1.2\lvgl\src\lv_draw/lv_draw_arc.c ****         return false;
 862              		.loc 1 242 0
 863 0026 0023     		movs	r3, #0
 864              	.L47:
 243:..\..\..\lvgl\version_6.1.2\lvgl\src\lv_draw/lv_draw_arc.c **** }
 865              		.loc 1 243 0
 866 0028 1846     		mov	r0, r3
 867 002a 0C37     		adds	r7, r7, #12
 868              		.cfi_def_cfa_offset 4
 869 002c BD46     		mov	sp, r7
 870              		.cfi_def_cfa_register 13
 871              		@ sp needed
 872 002e 5DF8047B 		ldr	r7, [sp], #4
 873              		.cfi_restore 7
 874              		.cfi_def_cfa_offset 0
 875 0032 7047     		bx	lr
 876              		.cfi_endproc
 877              	.LFE34:
 878              		.size	deg_test_norm, .-deg_test_norm
 879              		.section	.text.deg_test_inv,"ax",%progbits
 880              		.align	2
 881              		.thumb
 882              		.thumb_func
 883              		.type	deg_test_inv, %function
 884              	deg_test_inv:
 885              	.LFB35:
 244:..\..\..\lvgl\version_6.1.2\lvgl\src\lv_draw/lv_draw_arc.c **** 
 245:..\..\..\lvgl\version_6.1.2\lvgl\src\lv_draw/lv_draw_arc.c **** static bool deg_test_inv(uint16_t deg, uint16_t start, uint16_t end)
 246:..\..\..\lvgl\version_6.1.2\lvgl\src\lv_draw/lv_draw_arc.c **** {
 886              		.loc 1 246 0
 887              		.cfi_startproc
 888              		@ args = 0, pretend = 0, frame = 8
 889              		@ frame_needed = 1, uses_anonymous_args = 0
ARM GAS  C:\Users\tmj32\AppData\Local\Temp\ccOfsiK2.s 			page 21


 890              		@ link register save eliminated.
 891 0000 80B4     		push	{r7}
 892              		.cfi_def_cfa_offset 4
 893              		.cfi_offset 7, -4
 894 0002 83B0     		sub	sp, sp, #12
 895              		.cfi_def_cfa_offset 16
 896 0004 00AF     		add	r7, sp, #0
 897              		.cfi_def_cfa_register 7
 898 0006 0346     		mov	r3, r0
 899 0008 FB80     		strh	r3, [r7, #6]	@ movhi
 900 000a 0B46     		mov	r3, r1	@ movhi
 901 000c BB80     		strh	r3, [r7, #4]	@ movhi
 902 000e 1346     		mov	r3, r2	@ movhi
 903 0010 7B80     		strh	r3, [r7, #2]	@ movhi
 247:..\..\..\lvgl\version_6.1.2\lvgl\src\lv_draw/lv_draw_arc.c ****     if(deg >= start || deg <= end) {
 904              		.loc 1 247 0
 905 0012 FA88     		ldrh	r2, [r7, #6]
 906 0014 BB88     		ldrh	r3, [r7, #4]
 907 0016 9A42     		cmp	r2, r3
 908 0018 03D2     		bcs	.L49
 909              		.loc 1 247 0 is_stmt 0 discriminator 1
 910 001a FA88     		ldrh	r2, [r7, #6]
 911 001c 7B88     		ldrh	r3, [r7, #2]
 912 001e 9A42     		cmp	r2, r3
 913 0020 01D8     		bhi	.L50
 914              	.L49:
 248:..\..\..\lvgl\version_6.1.2\lvgl\src\lv_draw/lv_draw_arc.c ****         return true;
 915              		.loc 1 248 0 is_stmt 1
 916 0022 0123     		movs	r3, #1
 917 0024 00E0     		b	.L51
 918              	.L50:
 249:..\..\..\lvgl\version_6.1.2\lvgl\src\lv_draw/lv_draw_arc.c ****     } else
 250:..\..\..\lvgl\version_6.1.2\lvgl\src\lv_draw/lv_draw_arc.c ****         return false;
 919              		.loc 1 250 0
 920 0026 0023     		movs	r3, #0
 921              	.L51:
 251:..\..\..\lvgl\version_6.1.2\lvgl\src\lv_draw/lv_draw_arc.c **** }
 922              		.loc 1 251 0
 923 0028 1846     		mov	r0, r3
 924 002a 0C37     		adds	r7, r7, #12
 925              		.cfi_def_cfa_offset 4
 926 002c BD46     		mov	sp, r7
 927              		.cfi_def_cfa_register 13
 928              		@ sp needed
 929 002e 5DF8047B 		ldr	r7, [sp], #4
 930              		.cfi_restore 7
 931              		.cfi_def_cfa_offset 0
 932 0032 7047     		bx	lr
 933              		.cfi_endproc
 934              	.LFE35:
 935              		.size	deg_test_inv, .-deg_test_inv
 936              		.text
 937              	.Letext0:
 938              		.file 2 "c:\\program files (x86)\\cypress\\psoc creator\\4.3\\psoc creator\\import\\gnu\\arm\\5.4.
 939              		.file 3 "c:\\program files (x86)\\cypress\\psoc creator\\4.3\\psoc creator\\import\\gnu\\arm\\5.4.
 940              		.file 4 "..\\..\\..\\lvgl\\version_6.1.2\\lvgl\\src\\lv_draw\\../../../lv_conf.h"
 941              		.file 5 "..\\..\\..\\lvgl\\version_6.1.2\\lvgl\\src\\lv_draw\\../lv_core/../lv_font/lv_font.h"
ARM GAS  C:\Users\tmj32\AppData\Local\Temp\ccOfsiK2.s 			page 22


 942              		.file 6 "..\\..\\..\\lvgl\\version_6.1.2\\lvgl\\src\\lv_draw\\../lv_core/../lv_misc/lv_color.h"
 943              		.file 7 "..\\..\\..\\lvgl\\version_6.1.2\\lvgl\\src\\lv_draw\\../lv_core/../lv_misc/lv_area.h"
 944              		.file 8 "..\\..\\..\\lvgl\\version_6.1.2\\lvgl\\src\\lv_draw\\../lv_core/lv_style.h"