ARM GAS  C:\Users\tmj32\AppData\Local\Temp\ccCFqdpQ.s 			page 1


   1              		.syntax unified
   2              		.cpu cortex-m4
   3              		.eabi_attribute 27, 1
   4              		.fpu fpv4-sp-d16
   5              		.eabi_attribute 20, 1
   6              		.eabi_attribute 21, 1
   7              		.eabi_attribute 23, 3
   8              		.eabi_attribute 24, 1
   9              		.eabi_attribute 25, 1
  10              		.eabi_attribute 26, 1
  11              		.eabi_attribute 30, 6
  12              		.eabi_attribute 34, 1
  13              		.eabi_attribute 18, 4
  14              		.thumb
  15              		.syntax unified
  16              		.file	"lv_draw.c"
  17              		.text
  18              	.Ltext0:
  19              		.cfi_sections	.debug_frame
  20              		.bss
  21              		.align	2
  22              	draw_buf_size:
  23 0000 00000000 		.space	4
  24              		.section	.text.lv_draw_get_buf,"ax",%progbits
  25              		.align	2
  26              		.global	lv_draw_get_buf
  27              		.thumb
  28              		.thumb_func
  29              		.type	lv_draw_get_buf, %function
  30              	lv_draw_get_buf:
  31              	.LFB32:
  32              		.file 1 "..\\..\\..\\lvgl\\version_6.1.2\\lvgl\\src\\lv_draw\\lv_draw.c"
   1:..\..\..\lvgl\version_6.1.2\lvgl\src\lv_draw/lv_draw.c **** /**
   2:..\..\..\lvgl\version_6.1.2\lvgl\src\lv_draw/lv_draw.c ****  * @file lv_draw.c
   3:..\..\..\lvgl\version_6.1.2\lvgl\src\lv_draw/lv_draw.c ****  *
   4:..\..\..\lvgl\version_6.1.2\lvgl\src\lv_draw/lv_draw.c ****  */
   5:..\..\..\lvgl\version_6.1.2\lvgl\src\lv_draw/lv_draw.c **** 
   6:..\..\..\lvgl\version_6.1.2\lvgl\src\lv_draw/lv_draw.c **** /*********************
   7:..\..\..\lvgl\version_6.1.2\lvgl\src\lv_draw/lv_draw.c ****  *      INCLUDES
   8:..\..\..\lvgl\version_6.1.2\lvgl\src\lv_draw/lv_draw.c ****  *********************/
   9:..\..\..\lvgl\version_6.1.2\lvgl\src\lv_draw/lv_draw.c **** 
  10:..\..\..\lvgl\version_6.1.2\lvgl\src\lv_draw/lv_draw.c **** #include <stdio.h>
  11:..\..\..\lvgl\version_6.1.2\lvgl\src\lv_draw/lv_draw.c **** #include <stdbool.h>
  12:..\..\..\lvgl\version_6.1.2\lvgl\src\lv_draw/lv_draw.c **** #include "lv_draw.h"
  13:..\..\..\lvgl\version_6.1.2\lvgl\src\lv_draw/lv_draw.c **** #include "../lv_core/lv_debug.h"
  14:..\..\..\lvgl\version_6.1.2\lvgl\src\lv_draw/lv_draw.c **** #include "../lv_misc/lv_math.h"
  15:..\..\..\lvgl\version_6.1.2\lvgl\src\lv_draw/lv_draw.c **** #include "../lv_misc/lv_log.h"
  16:..\..\..\lvgl\version_6.1.2\lvgl\src\lv_draw/lv_draw.c **** #include "../lv_misc/lv_math.h"
  17:..\..\..\lvgl\version_6.1.2\lvgl\src\lv_draw/lv_draw.c **** #include "../lv_misc/lv_mem.h"
  18:..\..\..\lvgl\version_6.1.2\lvgl\src\lv_draw/lv_draw.c **** #include "../lv_misc/lv_gc.h"
  19:..\..\..\lvgl\version_6.1.2\lvgl\src\lv_draw/lv_draw.c **** 
  20:..\..\..\lvgl\version_6.1.2\lvgl\src\lv_draw/lv_draw.c **** #if defined(LV_GC_INCLUDE)
  21:..\..\..\lvgl\version_6.1.2\lvgl\src\lv_draw/lv_draw.c **** #include LV_GC_INCLUDE
  22:..\..\..\lvgl\version_6.1.2\lvgl\src\lv_draw/lv_draw.c **** #endif /* LV_ENABLE_GC */
  23:..\..\..\lvgl\version_6.1.2\lvgl\src\lv_draw/lv_draw.c **** 
  24:..\..\..\lvgl\version_6.1.2\lvgl\src\lv_draw/lv_draw.c **** /*********************
  25:..\..\..\lvgl\version_6.1.2\lvgl\src\lv_draw/lv_draw.c ****  *      DEFINES
ARM GAS  C:\Users\tmj32\AppData\Local\Temp\ccCFqdpQ.s 			page 2


  26:..\..\..\lvgl\version_6.1.2\lvgl\src\lv_draw/lv_draw.c ****  *********************/
  27:..\..\..\lvgl\version_6.1.2\lvgl\src\lv_draw/lv_draw.c **** 
  28:..\..\..\lvgl\version_6.1.2\lvgl\src\lv_draw/lv_draw.c **** /**********************
  29:..\..\..\lvgl\version_6.1.2\lvgl\src\lv_draw/lv_draw.c ****  *      TYPEDEFS
  30:..\..\..\lvgl\version_6.1.2\lvgl\src\lv_draw/lv_draw.c ****  **********************/
  31:..\..\..\lvgl\version_6.1.2\lvgl\src\lv_draw/lv_draw.c **** 
  32:..\..\..\lvgl\version_6.1.2\lvgl\src\lv_draw/lv_draw.c **** /**********************
  33:..\..\..\lvgl\version_6.1.2\lvgl\src\lv_draw/lv_draw.c ****  *  STATIC PROTOTYPES
  34:..\..\..\lvgl\version_6.1.2\lvgl\src\lv_draw/lv_draw.c ****  **********************/
  35:..\..\..\lvgl\version_6.1.2\lvgl\src\lv_draw/lv_draw.c **** 
  36:..\..\..\lvgl\version_6.1.2\lvgl\src\lv_draw/lv_draw.c **** /**********************
  37:..\..\..\lvgl\version_6.1.2\lvgl\src\lv_draw/lv_draw.c ****  *  STATIC VARIABLES
  38:..\..\..\lvgl\version_6.1.2\lvgl\src\lv_draw/lv_draw.c ****  **********************/
  39:..\..\..\lvgl\version_6.1.2\lvgl\src\lv_draw/lv_draw.c **** static uint32_t draw_buf_size = 0;
  40:..\..\..\lvgl\version_6.1.2\lvgl\src\lv_draw/lv_draw.c **** 
  41:..\..\..\lvgl\version_6.1.2\lvgl\src\lv_draw/lv_draw.c **** /**********************
  42:..\..\..\lvgl\version_6.1.2\lvgl\src\lv_draw/lv_draw.c ****  *      MACROS
  43:..\..\..\lvgl\version_6.1.2\lvgl\src\lv_draw/lv_draw.c ****  **********************/
  44:..\..\..\lvgl\version_6.1.2\lvgl\src\lv_draw/lv_draw.c **** 
  45:..\..\..\lvgl\version_6.1.2\lvgl\src\lv_draw/lv_draw.c **** /**********************
  46:..\..\..\lvgl\version_6.1.2\lvgl\src\lv_draw/lv_draw.c ****  *   GLOBAL FUNCTIONS
  47:..\..\..\lvgl\version_6.1.2\lvgl\src\lv_draw/lv_draw.c ****  **********************/
  48:..\..\..\lvgl\version_6.1.2\lvgl\src\lv_draw/lv_draw.c **** 
  49:..\..\..\lvgl\version_6.1.2\lvgl\src\lv_draw/lv_draw.c **** /**
  50:..\..\..\lvgl\version_6.1.2\lvgl\src\lv_draw/lv_draw.c ****  * Give a buffer with the given to use during drawing.
  51:..\..\..\lvgl\version_6.1.2\lvgl\src\lv_draw/lv_draw.c ****  * Be careful to not use the buffer while other processes are using it.
  52:..\..\..\lvgl\version_6.1.2\lvgl\src\lv_draw/lv_draw.c ****  * @param size the required size
  53:..\..\..\lvgl\version_6.1.2\lvgl\src\lv_draw/lv_draw.c ****  */
  54:..\..\..\lvgl\version_6.1.2\lvgl\src\lv_draw/lv_draw.c **** void * lv_draw_get_buf(uint32_t size)
  55:..\..\..\lvgl\version_6.1.2\lvgl\src\lv_draw/lv_draw.c **** {
  33              		.loc 1 55 0
  34              		.cfi_startproc
  35              		@ args = 0, pretend = 0, frame = 8
  36              		@ frame_needed = 1, uses_anonymous_args = 0
  37 0000 80B5     		push	{r7, lr}
  38              		.cfi_def_cfa_offset 8
  39              		.cfi_offset 7, -8
  40              		.cfi_offset 14, -4
  41 0002 82B0     		sub	sp, sp, #8
  42              		.cfi_def_cfa_offset 16
  43 0004 00AF     		add	r7, sp, #0
  44              		.cfi_def_cfa_register 7
  45 0006 7860     		str	r0, [r7, #4]
  56:..\..\..\lvgl\version_6.1.2\lvgl\src\lv_draw/lv_draw.c ****     if(size <= draw_buf_size) return LV_GC_ROOT(_lv_draw_buf);
  46              		.loc 1 56 0
  47 0008 134B     		ldr	r3, .L5
  48 000a 1B68     		ldr	r3, [r3]
  49 000c 7A68     		ldr	r2, [r7, #4]
  50 000e 9A42     		cmp	r2, r3
  51 0010 02D8     		bhi	.L2
  52              		.loc 1 56 0 is_stmt 0 discriminator 1
  53 0012 124B     		ldr	r3, .L5+4
  54 0014 1B68     		ldr	r3, [r3]
  55 0016 1AE0     		b	.L3
  56              	.L2:
  57:..\..\..\lvgl\version_6.1.2\lvgl\src\lv_draw/lv_draw.c **** 
  58:..\..\..\lvgl\version_6.1.2\lvgl\src\lv_draw/lv_draw.c ****     LV_LOG_TRACE("lv_draw_get_buf: allocate");
ARM GAS  C:\Users\tmj32\AppData\Local\Temp\ccCFqdpQ.s 			page 3


  59:..\..\..\lvgl\version_6.1.2\lvgl\src\lv_draw/lv_draw.c **** 
  60:..\..\..\lvgl\version_6.1.2\lvgl\src\lv_draw/lv_draw.c ****     draw_buf_size = size;
  57              		.loc 1 60 0 is_stmt 1
  58 0018 0F4A     		ldr	r2, .L5
  59 001a 7B68     		ldr	r3, [r7, #4]
  60 001c 1360     		str	r3, [r2]
  61:..\..\..\lvgl\version_6.1.2\lvgl\src\lv_draw/lv_draw.c **** 
  62:..\..\..\lvgl\version_6.1.2\lvgl\src\lv_draw/lv_draw.c ****     if(LV_GC_ROOT(_lv_draw_buf) == NULL) {
  61              		.loc 1 62 0
  62 001e 0F4B     		ldr	r3, .L5+4
  63 0020 1B68     		ldr	r3, [r3]
  64 0022 002B     		cmp	r3, #0
  65 0024 08D1     		bne	.L4
  63:..\..\..\lvgl\version_6.1.2\lvgl\src\lv_draw/lv_draw.c ****         LV_GC_ROOT(_lv_draw_buf) = lv_mem_alloc(size);
  66              		.loc 1 63 0
  67 0026 7868     		ldr	r0, [r7, #4]
  68 0028 FFF7FEFF 		bl	lv_mem_alloc
  69 002c 0246     		mov	r2, r0
  70 002e 0B4B     		ldr	r3, .L5+4
  71 0030 1A60     		str	r2, [r3]
  64:..\..\..\lvgl\version_6.1.2\lvgl\src\lv_draw/lv_draw.c ****         LV_ASSERT_MEM(LV_GC_ROOT(_lv_draw_buf));
  65:..\..\..\lvgl\version_6.1.2\lvgl\src\lv_draw/lv_draw.c ****         return LV_GC_ROOT(_lv_draw_buf);
  72              		.loc 1 65 0
  73 0032 0A4B     		ldr	r3, .L5+4
  74 0034 1B68     		ldr	r3, [r3]
  75 0036 0AE0     		b	.L3
  76              	.L4:
  66:..\..\..\lvgl\version_6.1.2\lvgl\src\lv_draw/lv_draw.c ****     }
  67:..\..\..\lvgl\version_6.1.2\lvgl\src\lv_draw/lv_draw.c **** 
  68:..\..\..\lvgl\version_6.1.2\lvgl\src\lv_draw/lv_draw.c ****     LV_GC_ROOT(_lv_draw_buf) = lv_mem_realloc(LV_GC_ROOT(_lv_draw_buf), size);
  77              		.loc 1 68 0
  78 0038 084B     		ldr	r3, .L5+4
  79 003a 1B68     		ldr	r3, [r3]
  80 003c 7968     		ldr	r1, [r7, #4]
  81 003e 1846     		mov	r0, r3
  82 0040 FFF7FEFF 		bl	lv_mem_realloc
  83 0044 0246     		mov	r2, r0
  84 0046 054B     		ldr	r3, .L5+4
  85 0048 1A60     		str	r2, [r3]
  69:..\..\..\lvgl\version_6.1.2\lvgl\src\lv_draw/lv_draw.c ****     LV_ASSERT_MEM(LV_GC_ROOT(_lv_draw_buf));
  70:..\..\..\lvgl\version_6.1.2\lvgl\src\lv_draw/lv_draw.c ****     return LV_GC_ROOT(_lv_draw_buf);
  86              		.loc 1 70 0
  87 004a 044B     		ldr	r3, .L5+4
  88 004c 1B68     		ldr	r3, [r3]
  89              	.L3:
  71:..\..\..\lvgl\version_6.1.2\lvgl\src\lv_draw/lv_draw.c **** }
  90              		.loc 1 71 0
  91 004e 1846     		mov	r0, r3
  92 0050 0837     		adds	r7, r7, #8
  93              		.cfi_def_cfa_offset 8
  94 0052 BD46     		mov	sp, r7
  95              		.cfi_def_cfa_register 13
  96              		@ sp needed
  97 0054 80BD     		pop	{r7, pc}
  98              	.L6:
  99 0056 00BF     		.align	2
 100              	.L5:
ARM GAS  C:\Users\tmj32\AppData\Local\Temp\ccCFqdpQ.s 			page 4


 101 0058 00000000 		.word	draw_buf_size
 102 005c 00000000 		.word	_lv_draw_buf
 103              		.cfi_endproc
 104              	.LFE32:
 105              		.size	lv_draw_get_buf, .-lv_draw_get_buf
 106              		.section	.text.lv_draw_free_buf,"ax",%progbits
 107              		.align	2
 108              		.global	lv_draw_free_buf
 109              		.thumb
 110              		.thumb_func
 111              		.type	lv_draw_free_buf, %function
 112              	lv_draw_free_buf:
 113              	.LFB33:
  72:..\..\..\lvgl\version_6.1.2\lvgl\src\lv_draw/lv_draw.c **** 
  73:..\..\..\lvgl\version_6.1.2\lvgl\src\lv_draw/lv_draw.c **** /**
  74:..\..\..\lvgl\version_6.1.2\lvgl\src\lv_draw/lv_draw.c ****  * Free the draw buffer
  75:..\..\..\lvgl\version_6.1.2\lvgl\src\lv_draw/lv_draw.c ****  */
  76:..\..\..\lvgl\version_6.1.2\lvgl\src\lv_draw/lv_draw.c **** void lv_draw_free_buf(void)
  77:..\..\..\lvgl\version_6.1.2\lvgl\src\lv_draw/lv_draw.c **** {
 114              		.loc 1 77 0
 115              		.cfi_startproc
 116              		@ args = 0, pretend = 0, frame = 0
 117              		@ frame_needed = 1, uses_anonymous_args = 0
 118 0000 80B5     		push	{r7, lr}
 119              		.cfi_def_cfa_offset 8
 120              		.cfi_offset 7, -8
 121              		.cfi_offset 14, -4
 122 0002 00AF     		add	r7, sp, #0
 123              		.cfi_def_cfa_register 7
  78:..\..\..\lvgl\version_6.1.2\lvgl\src\lv_draw/lv_draw.c ****     if(LV_GC_ROOT(_lv_draw_buf)) {
 124              		.loc 1 78 0
 125 0004 084B     		ldr	r3, .L10
 126 0006 1B68     		ldr	r3, [r3]
 127 0008 002B     		cmp	r3, #0
 128 000a 0AD0     		beq	.L9
  79:..\..\..\lvgl\version_6.1.2\lvgl\src\lv_draw/lv_draw.c ****         lv_mem_free(LV_GC_ROOT(_lv_draw_buf));
 129              		.loc 1 79 0
 130 000c 064B     		ldr	r3, .L10
 131 000e 1B68     		ldr	r3, [r3]
 132 0010 1846     		mov	r0, r3
 133 0012 FFF7FEFF 		bl	lv_mem_free
  80:..\..\..\lvgl\version_6.1.2\lvgl\src\lv_draw/lv_draw.c ****         LV_GC_ROOT(_lv_draw_buf) = NULL;
 134              		.loc 1 80 0
 135 0016 044B     		ldr	r3, .L10
 136 0018 0022     		movs	r2, #0
 137 001a 1A60     		str	r2, [r3]
  81:..\..\..\lvgl\version_6.1.2\lvgl\src\lv_draw/lv_draw.c ****         draw_buf_size = 0;
 138              		.loc 1 81 0
 139 001c 034B     		ldr	r3, .L10+4
 140 001e 0022     		movs	r2, #0
 141 0020 1A60     		str	r2, [r3]
 142              	.L9:
  82:..\..\..\lvgl\version_6.1.2\lvgl\src\lv_draw/lv_draw.c ****     }
  83:..\..\..\lvgl\version_6.1.2\lvgl\src\lv_draw/lv_draw.c **** }
 143              		.loc 1 83 0
 144 0022 00BF     		nop
 145 0024 80BD     		pop	{r7, pc}
ARM GAS  C:\Users\tmj32\AppData\Local\Temp\ccCFqdpQ.s 			page 5


 146              	.L11:
 147 0026 00BF     		.align	2
 148              	.L10:
 149 0028 00000000 		.word	_lv_draw_buf
 150 002c 00000000 		.word	draw_buf_size
 151              		.cfi_endproc
 152              	.LFE33:
 153              		.size	lv_draw_free_buf, .-lv_draw_free_buf
 154              		.text
 155              	.Letext0:
 156              		.file 2 "c:\\program files (x86)\\cypress\\psoc creator\\4.3\\psoc creator\\import\\gnu\\arm\\5.4.
 157              		.file 3 "c:\\program files (x86)\\cypress\\psoc creator\\4.3\\psoc creator\\import\\gnu\\arm\\5.4.
 158              		.file 4 "..\\..\\..\\lvgl\\version_6.1.2\\lvgl\\src\\lv_draw\\../lv_misc/lv_gc.h"